(lp0
(S'Hepatorenal'
p1
S'Hepatorenal'
p2
S'JJ'
p3
S'B-NP'
p4
S'O'
p5
tp6
a(S'syndrome.'
p7
S'syndrome.'
p8
S'NN'
p9
S'I-NP'
p10
g5
tp11
a(S'Studies'
p12
S'Study'
p13
S'NNS'
p14
S'I-NP'
p15
g5
tp16
a(S'of'
p17
S'of'
p18
S'IN'
p19
S'B-PP'
p20
g5
tp21
a(S'the'
p22
S'the'
p23
S'DT'
p24
S'B-NP'
p25
g5
tp26
a(S'effect'
p27
S'effect'
p28
S'NN'
p29
S'I-NP'
p30
g5
tp31
a(S'of'
p32
S'of'
p33
S'IN'
p34
S'B-PP'
p35
g5
tp36
a(S'vascular'
p37
S'vascular'
p38
S'JJ'
p39
S'B-NP'
p40
g5
tp41
a(S'volume'
p42
S'volume'
p43
S'NN'
p44
S'I-NP'
p45
g5
tp46
a(S'and'
p47
S'and'
p48
S'CC'
p49
g5
g5
tp50
a(S'intraperitoneal'
p51
S'intraperitoneal'
p52
S'JJ'
p53
S'B-NP'
p54
g5
tp55
a(S'pressure'
p56
S'pressure'
p57
S'NN'
p58
S'I-NP'
p59
g5
tp60
a(S'on'
p61
S'on'
p62
S'IN'
p63
S'B-PP'
p64
g5
tp65
a(S'renal'
p66
S'renal'
p67
S'JJ'
p68
S'B-NP'
p69
g5
tp70
a(S'and'
p71
S'and'
p72
S'CC'
p73
S'I-NP'
p74
g5
tp75
a(S'hepatic'
p76
S'hepatic'
p77
S'JJ'
p78
S'I-NP'
p79
g5
tp80
a(S'function'
p81
S'function'
p82
S'NN'
p83
S'I-NP'
p84
g5
tp85
a(S'.'
p86
g86
g86
g5
g5
tp87
a(S'Eleven'
p88
S'Eleven'
p89
S'CD'
p90
S'B-NP'
p91
g5
tp92
a(S'patients'
p93
S'patient'
p94
S'NNS'
p95
S'I-NP'
p96
g5
tp97
a(S'with'
p98
S'with'
p99
S'IN'
p100
S'B-PP'
p101
g5
tp102
a(S'well-documented'
p103
S'well-documented'
p104
S'JJ'
p105
S'B-NP'
p106
g5
tp107
a(S'hepatorenal'
p108
S'hepatorenal'
p109
S'JJ'
p110
S'I-NP'
p111
g5
tp112
a(S'syndrome'
p113
S'syndrome'
p114
S'NN'
p115
S'I-NP'
p116
g5
tp117
a(S'were'
p118
S'be'
p119
S'VBD'
p120
S'B-VP'
p121
g5
tp122
a(S'studied'
p123
S'study'
p124
S'VBN'
p125
S'I-VP'
p126
g5
tp127
a(S'by'
p128
S'by'
p129
S'IN'
p130
S'B-PP'
p131
g5
tp132
a(S'measurement'
p133
S'measurement'
p134
S'NN'
p135
S'B-NP'
p136
g5
tp137
a(S'of'
p138
S'of'
p139
S'IN'
p140
S'B-PP'
p141
g5
tp142
a(S'blood'
p143
S'blood'
p144
S'NN'
p145
S'B-NP'
p146
g5
tp147
a(S'volume'
p148
S'volume'
p149
S'NN'
p150
S'I-NP'
p151
g5
tp152
a(S','
p153
g153
g153
g5
g5
tp154
a(S'glomerular'
p155
S'glomerular'
p156
S'JJ'
p157
S'B-NP'
p158
g5
tp159
a(S'filtration'
p160
S'filtration'
p161
S'NN'
p162
S'I-NP'
p163
g5
tp164
a(S'rate'
p165
S'rate'
p166
S'NN'
p167
S'I-NP'
p168
g5
tp169
a(g153
g153
g153
g5
g5
tp170
a(S'renal'
p171
S'renal'
p172
S'JJ'
p173
S'B-NP'
p174
g5
tp175
a(S'plasma'
p176
S'plasma'
p177
S'NN'
p178
S'I-NP'
p179
g5
tp180
a(S'flow'
p181
S'flow'
p182
S'NN'
p183
S'I-NP'
p184
g5
tp185
a(g153
g153
g153
g5
g5
tp186
a(S'plasma'
p187
S'plasma'
p188
S'NN'
p189
S'B-NP'
p190
g5
tp191
a(S'aldosterone'
p192
S'aldosterone'
p193
S'NN'
p194
S'I-NP'
p195
g5
tp196
a(S'concentration'
p197
S'concentration'
p198
S'NN'
p199
S'I-NP'
p200
g5
tp201
a(g153
g153
g153
g5
g5
tp202
a(S'renin'
p203
S'renin'
p204
S'NN'
p205
S'B-NP'
p206
S'B-protein'
p207
tp208
a(S'substrate'
p209
S'substrate'
p210
S'NN'
p211
S'I-NP'
p212
g5
tp213
a(S'concentration'
p214
S'concentration'
p215
S'NN'
p216
S'I-NP'
p217
g5
tp218
a(g153
g153
g153
g5
g5
tp219
a(S'and'
p220
S'and'
p221
S'CC'
p222
g5
g5
tp223
a(S'plasma'
p224
S'plasma'
p225
S'NN'
p226
S'B-NP'
p227
g5
tp228
a(S'renin'
p229
S'renin'
p230
S'NN'
p231
S'I-NP'
p232
g5
tp233
a(S'activity.'
p234
S'activity.'
p235
S'NN'
p236
S'I-NP'
p237
g5
tp238
a(S'They'
p239
S'They'
p240
S'PRP'
p241
S'B-NP'
p242
g5
tp243
a(S'were'
p244
S'be'
p245
S'VBD'
p246
S'B-VP'
p247
g5
tp248
a(S'then'
p249
S'then'
p250
S'RB'
p251
S'I-VP'
p252
g5
tp253
a(S'given'
p254
S'give'
p255
S'VBN'
p256
S'I-VP'
p257
g5
tp258
a(S'750'
p259
S'750'
p260
S'CD'
p261
S'B-NP'
p262
g5
tp263
a(S'ml'
p264
S'ml'
p265
S'NN'
p266
S'I-NP'
p267
g5
tp268
a(S'of'
p269
S'of'
p270
S'IN'
p271
S'B-PP'
p272
g5
tp273
a(S'stored'
p274
S'store'
p275
S'VBN'
p276
S'B-NP'
p277
g5
tp278
a(S'plasma'
p279
S'plasma'
p280
S'NN'
p281
S'I-NP'
p282
g5
tp283
a(g153
g153
g153
g5
g5
tp284
a(S'750'
p285
S'750'
p286
S'CD'
p287
S'B-NP'
p288
g5
tp289
a(S'ml'
p290
S'ml'
p291
S'NN'
p292
S'I-NP'
p293
g5
tp294
a(S'of'
p295
S'of'
p296
S'IN'
p297
S'B-PP'
p298
g5
tp299
a(S'fresh'
p300
S'fresh'
p301
S'JJ'
p302
S'B-NP'
p303
g5
tp304
a(S'frozen'
p305
S'freeze'
p306
S'VBN'
p307
S'I-NP'
p308
g5
tp309
a(S'plasma'
p310
S'plasma'
p311
S'NN'
p312
S'I-NP'
p313
g5
tp314
a(g153
g153
g153
g5
g5
tp315
a(S'and'
p316
S'and'
p317
S'CC'
p318
g5
g5
tp319
a(S'then'
p320
S'then'
p321
S'RB'
p322
g5
g5
tp323
a(S'an'
p324
S'an'
p325
S'DT'
p326
S'B-NP'
p327
g5
tp328
a(S'infusion'
p329
S'infusion'
p330
S'NN'
p331
S'I-NP'
p332
g5
tp333
a(S'of'
p334
S'of'
p335
S'IN'
p336
S'B-PP'
p337
g5
tp338
a(S'angiotensin'
p339
S'angiotensin'
p340
S'NN'
p341
S'B-NP'
p342
S'B-protein'
p343
tp344
a(S'II'
p345
S'II'
p346
S'CD'
p347
S'I-NP'
p348
S'I-protein'
p349
tp350
a(g153
g153
g153
g5
g5
tp351
a(S'in'
p352
S'in'
p353
S'IN'
p354
S'B-PP'
p355
g5
tp356
a(S'random'
p357
S'random'
p358
S'JJ'
p359
S'B-NP'
p360
g5
tp361
a(S'order'
p362
S'order'
p363
S'NN'
p364
S'I-NP'
p365
g5
tp366
a(S'on'
p367
S'on'
p368
S'IN'
p369
S'B-PP'
p370
g5
tp371
a(S'successive'
p372
S'successive'
p373
S'JJ'
p374
S'B-NP'
p375
g5
tp376
a(S'days.'
p377
S'days.'
p378
S'NN'
p379
S'I-NP'
p380
g5
tp381
a(S'Infusion'
p382
S'Infusion'
p383
S'NN'
p384
S'I-NP'
p385
g5
tp386
a(S'of'
p387
S'of'
p388
S'IN'
p389
S'B-PP'
p390
g5
tp391
a(S'fresh'
p392
S'fresh'
p393
S'JJ'
p394
S'B-NP'
p395
g5
tp396
a(S'frozen'
p397
S'freeze'
p398
S'VBN'
p399
S'I-NP'
p400
g5
tp401
a(S'plasma'
p402
S'plasma'
p403
S'NN'
p404
S'I-NP'
p405
g5
tp406
a(S'improved'
p407
S'improve'
p408
S'VBD'
p409
S'B-VP'
p410
g5
tp411
a(S'function'
p412
S'function'
p413
S'NN'
p414
S'B-NP'
p415
g5
tp416
a(S'more'
p417
S'more'
p418
S'RBR'
p419
S'B-ADVP'
p420
g5
tp421
a(S'than'
p422
S'than'
p423
S'IN'
p424
S'I-ADVP'
p425
g5
tp426
a(S'did'
p427
S'do'
p428
S'VBD'
p429
S'B-VP'
p430
g5
tp431
a(S'stored'
p432
S'store'
p433
S'VBN'
p434
S'I-VP'
p435
g5
tp436
a(S'plasma'
p437
S'plasma'
p438
S'NN'
p439
S'B-NP'
p440
g5
tp441
a(S'and'
p442
S'and'
p443
S'CC'
p444
g5
g5
tp445
a(S'in'
p446
S'in'
p447
S'IN'
p448
S'B-PP'
p449
g5
tp450
a(S'addition'
p451
S'addition'
p452
S'NN'
p453
S'B-NP'
p454
g5
tp455
a(S'returned'
p456
S'return'
p457
S'VBD'
p458
S'B-VP'
p459
g5
tp460
a(S'a'
p461
g461
S'DT'
p462
S'B-NP'
p463
g5
tp464
a(S'very'
p465
S'very'
p466
S'RB'
p467
S'I-NP'
p468
g5
tp469
a(S'low'
p470
S'low'
p471
S'JJ'
p472
S'I-NP'
p473
g5
tp474
a(S'filtration'
p475
S'filtration'
p476
S'NN'
p477
S'I-NP'
p478
g5
tp479
a(S'fraction'
p480
S'fraction'
p481
S'NN'
p482
S'I-NP'
p483
g5
tp484
a(S'toward'
p485
S'toward'
p486
S'IN'
p487
S'B-PP'
p488
g5
tp489
a(S'normal.'
p490
S'normal.'
p491
S'NN'
p492
S'B-NP'
p493
g5
tp494
a(S'Angiotensin'
p495
S'Angiotensin'
p496
S'NN'
p497
S'I-NP'
p498
g5
tp499
a(S'II'
p500
S'II'
p501
S'CD'
p502
S'I-NP'
p503
g5
tp504
a(S'infusion'
p505
S'infusion'
p506
S'NN'
p507
S'I-NP'
p508
g5
tp509
a(S'increased'
p510
S'increase'
p511
S'VBD'
p512
S'B-VP'
p513
g5
tp514
a(S'filtration'
p515
S'filtration'
p516
S'NN'
p517
S'B-NP'
p518
g5
tp519
a(S'fraction'
p520
S'fraction'
p521
S'NN'
p522
S'I-NP'
p523
g5
tp524
a(g153
g153
g153
g5
g5
tp525
a(S'but'
p526
S'but'
p527
S'CC'
p528
g5
g5
tp529
a(S'decreased'
p530
S'decrease'
p531
S'VBD'
p532
S'B-VP'
p533
g5
tp534
a(S'glomerular'
p535
S'glomerular'
p536
S'JJ'
p537
S'B-NP'
p538
g5
tp539
a(S'filtration'
p540
S'filtration'
p541
S'NN'
p542
S'I-NP'
p543
g5
tp544
a(S'rate'
p545
S'rate'
p546
S'NN'
p547
S'I-NP'
p548
g5
tp549
a(g153
g153
g153
g5
g5
tp550
a(S'renal'
p551
S'renal'
p552
S'JJ'
p553
S'B-NP'
p554
g5
tp555
a(S'plasma'
p556
S'plasma'
p557
S'NN'
p558
S'I-NP'
p559
g5
tp560
a(S'flow'
p561
S'flow'
p562
S'NN'
p563
S'I-NP'
p564
g5
tp565
a(g153
g153
g153
g5
g5
tp566
a(S'and'
p567
S'and'
p568
S'CC'
p569
g5
g5
tp570
a(S'urine'
p571
S'urine'
p572
S'NN'
p573
S'B-NP'
p574
g5
tp575
a(S'flow'
p576
S'flow'
p577
S'NN'
p578
S'I-NP'
p579
g5
tp580
a(S'sharply.'
p581
S'sharply.'
p582
S'NN'
p583
S'I-NP'
p584
g5
tp585
a(S'Patients'
p586
S'Patient'
p587
S'NNS'
p588
S'I-NP'
p589
g5
tp590
a(S'were'
p591
S'be'
p592
S'VBD'
p593
S'B-VP'
p594
g5
tp595
a(S'then'
p596
S'then'
p597
S'RB'
p598
S'I-VP'
p599
g5
tp600
a(S'given'
p601
S'give'
p602
S'VBN'
p603
S'I-VP'
p604
g5
tp605
a(g461
g461
S'DT'
p606
S'B-NP'
p607
g5
tp608
a(S'daily'
p609
S'daily'
p610
S'JJ'
p611
S'I-NP'
p612
g5
tp613
a(S'infusion'
p614
S'infusion'
p615
S'NN'
p616
S'I-NP'
p617
g5
tp618
a(S'of'
p619
S'of'
p620
S'IN'
p621
S'B-PP'
p622
g5
tp623
a(S'1'
p624
g624
S'CD'
p625
S'B-NP'
p626
g5
tp627
a(g153
g153
g153
g5
g5
tp628
a(S'000'
p629
S'000'
p630
S'CD'
p631
S'B-NP'
p632
g5
tp633
a(S'ml'
p634
S'ml'
p635
S'NN'
p636
S'I-NP'
p637
g5
tp638
a(S'of'
p639
S'of'
p640
S'IN'
p641
S'B-PP'
p642
g5
tp643
a(S'fresh'
p644
S'fresh'
p645
S'JJ'
p646
S'B-NP'
p647
g5
tp648
a(S'frozen'
p649
S'frozen'
p650
S'JJ'
p651
S'I-NP'
p652
g5
tp653
a(S'plasma'
p654
S'plasma'
p655
S'NN'
p656
S'I-NP'
p657
g5
tp658
a(S'for'
p659
S'for'
p660
S'IN'
p661
S'B-PP'
p662
g5
tp663
a(S'seven'
p664
S'seven'
p665
S'CD'
p666
S'B-NP'
p667
g5
tp668
a(S'to'
p669
S'to'
p670
S'TO'
p671
S'I-NP'
p672
g5
tp673
a(S'18'
p674
S'18'
p675
S'CD'
p676
S'I-NP'
p677
g5
tp678
a(S'days'
p679
S'day'
p680
S'NNS'
p681
S'I-NP'
p682
g5
tp683
a(S'to'
p684
S'to'
p685
S'TO'
p686
S'B-VP'
p687
g5
tp688
a(S'expand'
p689
S'expand'
p690
S'VB'
p691
S'I-VP'
p692
g5
tp693
a(S'the'
p694
S'the'
p695
S'DT'
p696
S'B-NP'
p697
g5
tp698
a(S'blood'
p699
S'blood'
p700
S'NN'
p701
S'I-NP'
p702
g5
tp703
a(S'volume'
p704
S'volume'
p705
S'NN'
p706
S'I-NP'
p707
g5
tp708
a(S'to'
p709
S'to'
p710
S'TO'
p711
S'B-PP'
p712
g5
tp713
a(S'supranormal'
p714
S'supranormal'
p715
S'JJ'
p716
S'B-NP'
p717
g5
tp718
a(S'levels'
p719
S'level'
p720
S'NNS'
p721
S'I-NP'
p722
g5
tp723
a(S'as'
p724
S'as'
p725
S'IN'
p726
S'B-SBAR'
p727
g5
tp728
a(S'assayed'
p729
S'assay'
p730
S'VBN'
p731
S'B-VP'
p732
g5
tp733
a(S'by'
p734
S'by'
p735
S'IN'
p736
S'B-PP'
p737
g5
tp738
a(S'serial'
p739
S'serial'
p740
S'JJ'
p741
S'B-NP'
p742
g5
tp743
a(S'measurement'
p744
S'measurement'
p745
S'NN'
p746
S'I-NP'
p747
g5
tp748
a(S'of'
p749
S'of'
p750
S'IN'
p751
S'B-PP'
p752
g5
tp753
a(S'blood'
p754
S'blood'
p755
S'NN'
p756
S'B-NP'
p757
g5
tp758
a(S'volume.'
p759
S'volume.'
p760
S'NN'
p761
S'I-NP'
p762
g5
tp763
a(S'Plasma'
p764
S'Plasma'
p765
S'NN'
p766
S'I-NP'
p767
g5
tp768
a(S'aldosterone'
p769
S'aldosterone'
p770
S'NN'
p771
S'I-NP'
p772
g5
tp773
a(S'levels'
p774
S'level'
p775
S'NNS'
p776
S'I-NP'
p777
g5
tp778
a(S'decreased'
p779
S'decrease'
p780
S'VBD'
p781
S'B-VP'
p782
g5
tp783
a(S'to'
p784
S'to'
p785
S'TO'
p786
S'B-PP'
p787
g5
tp788
a(g461
g461
S'DT'
p789
S'B-NP'
p790
g5
tp791
a(S'normal'
p792
S'normal'
p793
S'JJ'
p794
S'I-NP'
p795
g5
tp796
a(S'range'
p797
S'range'
p798
S'NN'
p799
S'I-NP'
p800
g5
tp801
a(g153
g153
g153
g5
g5
tp802
a(S'glomerular'
p803
S'glomerular'
p804
S'JJ'
p805
S'B-NP'
p806
g5
tp807
a(S'filtration'
p808
S'filtration'
p809
S'NN'
p810
S'I-NP'
p811
g5
tp812
a(S'rate'
p813
S'rate'
p814
S'NN'
p815
S'I-NP'
p816
g5
tp817
a(S'and'
p818
S'and'
p819
S'CC'
p820
g5
g5
tp821
a(S'renal'
p822
S'renal'
p823
S'JJ'
p824
S'B-NP'
p825
g5
tp826
a(S'plasma'
p827
S'plasma'
p828
S'NN'
p829
S'I-NP'
p830
g5
tp831
a(S'flow'
p832
S'flow'
p833
S'NN'
p834
S'I-NP'
p835
g5
tp836
a(S'both'
p837
S'both'
p838
S'DT'
p839
S'B-NP'
p840
g5
tp841
a(S'increased'
p842
S'increase'
p843
S'VBD'
p844
S'B-VP'
p845
g5
tp846
a(g153
g153
g153
g5
g5
tp847
a(S'and'
p848
S'and'
p849
S'CC'
p850
g5
g5
tp851
a(S'urinary'
p852
S'urinary'
p853
S'JJ'
p854
S'B-NP'
p855
g5
tp856
a(S'excretion'
p857
S'excretion'
p858
S'NN'
p859
S'I-NP'
p860
g5
tp861
a(S'of'
p862
S'of'
p863
S'IN'
p864
S'B-PP'
p865
g5
tp866
a(S'sodium'
p867
S'sodium'
p868
S'NN'
p869
S'B-NP'
p870
g5
tp871
a(S'and'
p872
S'and'
p873
S'CC'
p874
S'I-NP'
p875
g5
tp876
a(S'potassium'
p877
S'potassium'
p878
S'NN'
p879
S'I-NP'
p880
g5
tp881
a(S'both'
p882
S'both'
p883
S'DT'
p884
S'B-NP'
p885
g5
tp886
a(S'returned'
p887
S'return'
p888
S'VBD'
p889
S'B-VP'
p890
g5
tp891
a(S'toward'
p892
S'toward'
p893
S'IN'
p894
S'B-PP'
p895
g5
tp896
a(S'normal.'
p897
S'normal.'
p898
S'RB'
p899
S'B-NP'
p900
g5
tp901
a(S'The'
p902
S'The'
p903
S'DT'
p904
S'I-NP'
p905
g5
tp906
a(S'effect'
p907
S'effect'
p908
S'NN'
p909
S'I-NP'
p910
g5
tp911
a(S'of'
p912
S'of'
p913
S'IN'
p914
S'B-PP'
p915
g5
tp916
a(S'intraperitoneal'
p917
S'intraperitoneal'
p918
S'JJ'
p919
S'B-NP'
p920
g5
tp921
a(S'pressure'
p922
S'pressure'
p923
S'NN'
p924
S'I-NP'
p925
g5
tp926
a(S'was'
p927
S'be'
p928
S'VBD'
p929
S'B-VP'
p930
g5
tp931
a(S'then'
p932
S'then'
p933
S'RB'
p934
S'I-VP'
p935
g5
tp936
a(S'studied'
p937
S'study'
p938
S'VBN'
p939
S'I-VP'
p940
g5
tp941
a(S'by'
p942
S'by'
p943
S'IN'
p944
S'B-PP'
p945
g5
tp946
a(S'measuring'
p947
S'measure'
p948
S'VBG'
p949
S'B-VP'
p950
g5
tp951
a(S'glomerular'
p952
S'glomerular'
p953
S'JJ'
p954
S'B-NP'
p955
g5
tp956
a(S'filtration'
p957
S'filtration'
p958
S'NN'
p959
S'I-NP'
p960
g5
tp961
a(S'rate'
p962
S'rate'
p963
S'NN'
p964
S'I-NP'
p965
g5
tp966
a(g153
g153
g153
g5
g5
tp967
a(S'renal'
p968
S'renal'
p969
S'JJ'
p970
S'B-NP'
p971
g5
tp972
a(S'plasma'
p973
S'plasma'
p974
S'NN'
p975
S'I-NP'
p976
g5
tp977
a(S'flow'
p978
S'flow'
p979
S'NN'
p980
S'I-NP'
p981
g5
tp982
a(g153
g153
g153
g5
g5
tp983
a(S'pressure'
p984
S'pressure'
p985
S'NN'
p986
S'B-NP'
p987
g5
tp988
a(S'in'
p989
S'in'
p990
S'IN'
p991
S'B-PP'
p992
g5
tp993
a(S'the'
p994
S'the'
p995
S'DT'
p996
S'B-NP'
p997
g5
tp998
a(S'vena'
p999
S'vena'
p1000
S'NN'
p1001
S'I-NP'
p1002
g5
tp1003
a(S'cava'
p1004
S'cava'
p1005
S'NN'
p1006
S'I-NP'
p1007
g5
tp1008
a(g153
g153
g153
g5
g5
tp1009
a(S'hepatic'
p1010
S'hepatic'
p1011
S'JJ'
p1012
S'B-NP'
p1013
g5
tp1014
a(S'vein'
p1015
S'vein'
p1016
S'NN'
p1017
S'I-NP'
p1018
g5
tp1019
a(S'free'
p1020
S'free'
p1021
S'JJ'
p1022
S'I-NP'
p1023
g5
tp1024
a(S'flow'
p1025
S'flow'
p1026
S'NN'
p1027
S'I-NP'
p1028
g5
tp1029
a(g153
g153
g153
g5
g5
tp1030
a(S'and'
p1031
S'and'
p1032
S'CC'
p1033
g5
g5
tp1034
a(S'hepatic'
p1035
S'hepatic'
p1036
S'JJ'
p1037
S'B-NP'
p1038
g5
tp1039
a(S'vein'
p1040
S'vein'
p1041
S'NN'
p1042
S'I-NP'
p1043
g5
tp1044
a(S'wedged'
p1045
S'wedge'
p1046
S'VBD'
p1047
S'B-VP'
p1048
g5
tp1049
a(S'pressure'
p1050
S'pressure'
p1051
S'NN'
p1052
S'B-NP'
p1053
g5
tp1054
a(S'before'
p1055
S'before'
p1056
S'IN'
p1057
S'B-ADVP'
p1058
g5
tp1059
a(g153
g153
g153
g5
g5
tp1060
a(S'during'
p1061
S'during'
p1062
S'IN'
p1063
S'B-ADVP'
p1064
g5
tp1065
a(g153
g153
g153
g5
g5
tp1066
a(S'and'
p1067
S'and'
p1068
S'CC'
p1069
g5
g5
tp1070
a(S'after'
p1071
S'after'
p1072
S'IN'
p1073
S'B-SBAR'
p1074
g5
tp1075
a(S'paracentesis'
p1076
S'paracentesis'
p1077
S'NN'
p1078
S'B-NP'
p1079
g5
tp1080
a(S'to'
p1081
S'to'
p1082
S'TO'
p1083
S'B-VP'
p1084
g5
tp1085
a(S'reduce'
p1086
S'reduce'
p1087
S'VB'
p1088
S'I-VP'
p1089
g5
tp1090
a(S'the'
p1091
S'the'
p1092
S'DT'
p1093
S'B-NP'
p1094
g5
tp1095
a(S'intraperitoneal'
p1096
S'intraperitoneal'
p1097
S'JJ'
p1098
S'I-NP'
p1099
g5
tp1100
a(S'pressure'
p1101
S'pressure'
p1102
S'NN'
p1103
S'I-NP'
p1104
g5
tp1105
a(S'from'
p1106
S'from'
p1107
S'IN'
p1108
S'B-PP'
p1109
g5
tp1110
a(S'30'
p1111
S'30'
p1112
S'CD'
p1113
S'B-NP'
p1114
g5
tp1115
a(S'to'
p1116
S'to'
p1117
S'TO'
p1118
S'I-NP'
p1119
g5
tp1120
a(S'40'
p1121
S'40'
p1122
S'CD'
p1123
S'I-NP'
p1124
g5
tp1125
a(S'cm'
p1126
S'cm'
p1127
S'NN'
p1128
S'I-NP'
p1129
g5
tp1130
a(S'H2O'
p1131
S'H2O'
p1132
S'NN'
p1133
S'I-NP'
p1134
g5
tp1135
a(S'to'
p1136
S'to'
p1137
S'TO'
p1138
S'B-PP'
p1139
g5
tp1140
a(S'12'
p1141
S'12'
p1142
S'CD'
p1143
S'B-NP'
p1144
g5
tp1145
a(S'to'
p1146
S'to'
p1147
S'TO'
p1148
S'I-NP'
p1149
g5
tp1150
a(S'17'
p1151
S'17'
p1152
S'CD'
p1153
S'I-NP'
p1154
g5
tp1155
a(S'cm'
p1156
S'cm'
p1157
S'NN'
p1158
S'I-NP'
p1159
g5
tp1160
a(S'H2O.'
p1161
S'H2O.'
p1162
S'NN'
p1163
S'I-NP'
p1164
g5
tp1165
a(S'Venous'
p1166
S'Venous'
p1167
S'JJ'
p1168
S'I-NP'
p1169
g5
tp1170
a(S'pressures'
p1171
S'pressure'
p1172
S'NNS'
p1173
S'I-NP'
p1174
g5
tp1175
a(S'moved'
p1176
S'move'
p1177
S'VBD'
p1178
S'B-VP'
p1179
g5
tp1180
a(S'parallel'
p1181
S'parallel'
p1182
S'JJ'
p1183
S'B-ADJP'
p1184
g5
tp1185
a(S'to'
p1186
S'to'
p1187
S'TO'
p1188
S'B-PP'
p1189
g5
tp1190
a(S'ascitic'
p1191
S'ascitic'
p1192
S'JJ'
p1193
S'B-NP'
p1194
g5
tp1195
a(S'fluid'
p1196
S'fluid'
p1197
S'NN'
p1198
S'I-NP'
p1199
g5
tp1200
a(S'pressures'
p1201
S'pressure'
p1202
S'NNS'
p1203
S'I-NP'
p1204
g5
tp1205
a(g153
g153
g153
g5
g5
tp1206
a(S'and'
p1207
S'and'
p1208
S'CC'
p1209
g5
g5
tp1210
a(S'glomerular'
p1211
S'glomerular'
p1212
S'JJ'
p1213
S'B-NP'
p1214
g5
tp1215
a(S'filtration'
p1216
S'filtration'
p1217
S'NN'
p1218
S'I-NP'
p1219
g5
tp1220
a(S'rate'
p1221
S'rate'
p1222
S'NN'
p1223
S'I-NP'
p1224
g5
tp1225
a(g153
g153
g153
g5
g5
tp1226
a(S'renal'
p1227
S'renal'
p1228
S'JJ'
p1229
S'B-NP'
p1230
g5
tp1231
a(S'plasma'
p1232
S'plasma'
p1233
S'NN'
p1234
S'I-NP'
p1235
g5
tp1236
a(S'flow'
p1237
S'flow'
p1238
S'NN'
p1239
S'I-NP'
p1240
g5
tp1241
a(g153
g153
g153
g5
g5
tp1242
a(S'and'
p1243
S'and'
p1244
S'CC'
p1245
g5
g5
tp1246
a(S'urine'
p1247
S'urine'
p1248
S'NN'
p1249
S'B-NP'
p1250
g5
tp1251
a(S'flow'
p1252
S'flow'
p1253
S'NN'
p1254
S'I-NP'
p1255
g5
tp1256
a(S'all'
p1257
S'all'
p1258
S'DT'
p1259
g5
g5
tp1260
a(S'improved'
p1261
S'improve'
p1262
S'VBD'
p1263
S'B-VP'
p1264
g5
tp1265
a(S'sharply'
p1266
S'sharply'
p1267
S'RB'
p1268
S'B-ADVP'
p1269
g5
tp1270
a(S';'
p1271
g1271
S':'
p1272
g5
g5
tp1273
a(S'then'
p1274
S'then'
p1275
S'RB'
p1276
S'B-ADVP'
p1277
g5
tp1278
a(g153
g153
g153
g5
g5
tp1279
a(S'as'
p1280
S'as'
p1281
S'IN'
p1282
S'B-SBAR'
p1283
g5
tp1284
a(S'ascitic'
p1285
S'ascitic'
p1286
S'JJ'
p1287
S'B-NP'
p1288
g5
tp1289
a(S'fluid'
p1290
S'fluid'
p1291
S'NN'
p1292
S'I-NP'
p1293
g5
tp1294
a(S'continued'
p1295
S'continue'
p1296
S'VBD'
p1297
S'B-VP'
p1298
g5
tp1299
a(S'to'
p1300
S'to'
p1301
S'TO'
p1302
S'I-VP'
p1303
g5
tp1304
a(S'form'
p1305
S'form'
p1306
S'VB'
p1307
S'I-VP'
p1308
g5
tp1309
a(g153
g153
g153
g5
g5
tp1310
a(S'reducing'
p1311
S'reduce'
p1312
S'VBG'
p1313
S'B-VP'
p1314
g5
tp1315
a(S'vascular'
p1316
S'vascular'
p1317
S'JJ'
p1318
S'B-NP'
p1319
g5
tp1320
a(S'volume'
p1321
S'volume'
p1322
S'NN'
p1323
S'I-NP'
p1324
g5
tp1325
a(g153
g153
g153
g5
g5
tp1326
a(S'urine'
p1327
S'urine'
p1328
S'NN'
p1329
S'B-NP'
p1330
g5
tp1331
a(S'flow'
p1332
S'flow'
p1333
S'NN'
p1334
S'I-NP'
p1335
g5
tp1336
a(g153
g153
g153
g5
g5
tp1337
a(S'glomerular'
p1338
S'glomerular'
p1339
S'JJ'
p1340
S'B-NP'
p1341
g5
tp1342
a(S'filtration'
p1343
S'filtration'
p1344
S'NN'
p1345
S'I-NP'
p1346
g5
tp1347
a(S'rate'
p1348
S'rate'
p1349
S'NN'
p1350
S'I-NP'
p1351
g5
tp1352
a(g153
g153
g153
g5
g5
tp1353
a(S'and'
p1354
S'and'
p1355
S'CC'
p1356
g5
g5
tp1357
a(S'renal'
p1358
S'renal'
p1359
S'JJ'
p1360
S'B-NP'
p1361
g5
tp1362
a(S'plasma'
p1363
S'plasma'
p1364
S'NN'
p1365
S'I-NP'
p1366
g5
tp1367
a(S'flow'
p1368
S'flow'
p1369
S'NN'
p1370
S'I-NP'
p1371
g5
tp1372
a(S'all'
p1373
S'all'
p1374
S'DT'
p1375
g5
g5
tp1376
a(S'decreased'
p1377
S'decrease'
p1378
S'VBD'
p1379
S'B-VP'
p1380
g5
tp1381
a(S'slowly.'
p1382
S'slowly.'
p1383
S'RB'
p1384
S'B-ADVP'
p1385
g5
tp1386
a(S'Six'
p1387
S'Six'
p1388
S'CD'
p1389
S'B-NP'
p1390
g5
tp1391
a(S'patients'
p1392
S'patient'
p1393
S'NNS'
p1394
S'I-NP'
p1395
g5
tp1396
a(S'then'
p1397
S'then'
p1398
S'RB'
p1399
S'B-ADVP'
p1400
g5
tp1401
a(S'underwent'
p1402
S'undergo'
p1403
S'VBD'
p1404
S'B-VP'
p1405
g5
tp1406
a(S'placement'
p1407
S'placement'
p1408
S'NN'
p1409
S'B-NP'
p1410
g5
tp1411
a(S'of'
p1412
S'of'
p1413
S'IN'
p1414
S'B-PP'
p1415
g5
tp1416
a(g461
g461
S'DT'
p1417
S'B-NP'
p1418
g5
tp1419
a(S'LeVeen'
p1420
S'LeVeen'
p1421
S'NNP'
p1422
S'I-NP'
p1423
g5
tp1424
a(S'shunt.'
p1425
S'shunt.'
p1426
S'NN'
p1427
S'I-NP'
p1428
g5
tp1429
a(S'Improvement'
p1430
S'Improvement'
p1431
S'NN'
p1432
S'I-NP'
p1433
g5
tp1434
a(S'in'
p1435
S'in'
p1436
S'IN'
p1437
S'B-PP'
p1438
g5
tp1439
a(S'glomerular'
p1440
S'glomerular'
p1441
S'JJ'
p1442
S'B-NP'
p1443
g5
tp1444
a(S'filtration'
p1445
S'filtration'
p1446
S'NN'
p1447
S'I-NP'
p1448
g5
tp1449
a(S'rate'
p1450
S'rate'
p1451
S'NN'
p1452
S'I-NP'
p1453
g5
tp1454
a(S'and'
p1455
S'and'
p1456
S'CC'
p1457
g5
g5
tp1458
a(S'renal'
p1459
S'renal'
p1460
S'JJ'
p1461
S'B-NP'
p1462
g5
tp1463
a(S'plasma'
p1464
S'plasma'
p1465
S'NN'
p1466
S'I-NP'
p1467
g5
tp1468
a(S'flow'
p1469
S'flow'
p1470
S'NN'
p1471
S'I-NP'
p1472
g5
tp1473
a(S'and'
p1474
S'and'
p1475
S'CC'
p1476
g5
g5
tp1477
a(S'clinical'
p1478
S'clinical'
p1479
S'JJ'
p1480
S'B-NP'
p1481
g5
tp1482
a(S'condition'
p1483
S'condition'
p1484
S'NN'
p1485
S'I-NP'
p1486
g5
tp1487
a(S'was'
p1488
S'be'
p1489
S'VBD'
p1490
S'B-VP'
p1491
g5
tp1492
a(S'dramatic.'
p1493
S'dramatic.'
p1494
S'NN'
p1495
S'B-NP'
p1496
g5
tp1497
a(S'During'
p1498
S'During'
p1499
S'IN'
p1500
S'B-PP'
p1501
g5
tp1502
a(S'postoperative'
p1503
S'postoperative'
p1504
S'JJ'
p1505
S'B-NP'
p1506
g5
tp1507
a(S'observation'
p1508
S'observation'
p1509
S'NN'
p1510
S'I-NP'
p1511
g5
tp1512
a(S'of'
p1513
S'of'
p1514
S'IN'
p1515
S'B-PP'
p1516
g5
tp1517
a(S'up'
p1518
S'up'
p1519
S'IN'
p1520
S'B-NP'
p1521
g5
tp1522
a(S'to'
p1523
S'to'
p1524
S'TO'
p1525
S'I-NP'
p1526
g5
tp1527
a(S'two'
p1528
S'two'
p1529
S'CD'
p1530
S'I-NP'
p1531
g5
tp1532
a(S'years'
p1533
S'year'
p1534
S'NNS'
p1535
S'I-NP'
p1536
g5
tp1537
a(g153
g153
g153
g5
g5
tp1538
a(S'progressive'
p1539
S'progressive'
p1540
S'JJ'
p1541
S'B-NP'
p1542
g5
tp1543
a(S'improvement'
p1544
S'improvement'
p1545
S'NN'
p1546
S'I-NP'
p1547
g5
tp1548
a(S'in'
p1549
S'in'
p1550
S'IN'
p1551
S'B-PP'
p1552
g5
tp1553
a(S'hepatic'
p1554
S'hepatic'
p1555
S'JJ'
p1556
S'B-NP'
p1557
g5
tp1558
a(S'function'
p1559
S'function'
p1560
S'NN'
p1561
S'I-NP'
p1562
g5
tp1563
a(S'has'
p1564
S'have'
p1565
S'VBZ'
p1566
S'B-VP'
p1567
g5
tp1568
a(S'occurred'
p1569
S'occur'
p1570
S'VBN'
p1571
S'I-VP'
p1572
g5
tp1573
a(g86
g86
g86
g5
g5
tp1574
a.