(lp0
(S'A'
p1
g1
S'DT'
p2
S'B-NP'
p3
S'O'
p4
tp5
a(S'comparison'
p6
S'comparison'
p7
S'NN'
p8
S'I-NP'
p9
g4
tp10
a(S'of'
p11
S'of'
p12
S'IN'
p13
S'B-PP'
p14
g4
tp15
a(S'laparoscopically'
p16
S'laparoscopically'
p17
S'RB'
p18
S'B-NP'
p19
g4
tp20
a(S'assisted'
p21
S'assist'
p22
S'VBN'
p23
S'I-NP'
p24
g4
tp25
a(S'and'
p26
S'and'
p27
S'CC'
p28
S'I-NP'
p29
g4
tp30
a(S'open'
p31
S'open'
p32
S'JJ'
p33
S'I-NP'
p34
g4
tp35
a(S'colectomy'
p36
S'colectomy'
p37
S'NN'
p38
S'I-NP'
p39
g4
tp40
a(S'for'
p41
S'for'
p42
S'IN'
p43
S'B-PP'
p44
g4
tp45
a(S'colon'
p46
S'colon'
p47
S'NN'
p48
S'B-NP'
p49
g4
tp50
a(S'cancer'
p51
S'cancer'
p52
S'NN'
p53
S'I-NP'
p54
g4
tp55
a(S'.'
p56
g56
g56
g4
g4
tp57
a(S'BACKGROUND'
p58
S'BACKGROUND'
p59
S'NN'
p60
S'B-NP'
p61
g4
tp62
a(S'Minimally'
p63
S'Minimally'
p64
S'RB'
p65
S'B-ADJP'
p66
g4
tp67
a(S'invasive'
p68
S'invasive'
p69
S'JJ'
p70
S'I-ADJP'
p71
g4
tp72
a(S','
p73
g73
g73
g4
g4
tp74
a(S'laparoscopically'
p75
S'laparoscopically'
p76
S'RB'
p77
S'B-NP'
p78
g4
tp79
a(S'assisted'
p80
S'assist'
p81
S'VBN'
p82
S'I-NP'
p83
g4
tp84
a(S'surgery'
p85
S'surgery'
p86
S'NN'
p87
S'I-NP'
p88
g4
tp89
a(S'was'
p90
S'be'
p91
S'VBD'
p92
S'B-VP'
p93
g4
tp94
a(S'first'
p95
S'first'
p96
S'RB'
p97
S'I-VP'
p98
g4
tp99
a(S'considered'
p100
S'consider'
p101
S'VBN'
p102
S'I-VP'
p103
g4
tp104
a(S'in'
p105
S'in'
p106
S'IN'
p107
S'B-PP'
p108
g4
tp109
a(S'1990'
p110
S'1990'
p111
S'CD'
p112
S'B-NP'
p113
g4
tp114
a(S'for'
p115
S'for'
p116
S'IN'
p117
S'B-PP'
p118
g4
tp119
a(S'patients'
p120
S'patient'
p121
S'NNS'
p122
S'B-NP'
p123
g4
tp124
a(S'undergoing'
p125
S'undergo'
p126
S'VBG'
p127
S'B-VP'
p128
g4
tp129
a(S'colectomy'
p130
S'colectomy'
p131
S'NN'
p132
S'B-NP'
p133
g4
tp134
a(S'for'
p135
S'for'
p136
S'IN'
p137
S'B-PP'
p138
g4
tp139
a(S'cancer.'
p140
S'cancer.'
p141
S'NN'
p142
S'B-NP'
p143
g4
tp144
a(S'Concern'
p145
S'Concern'
p146
S'NN'
p147
S'I-NP'
p148
g4
tp149
a(S'that'
p150
S'that'
p151
S'IN'
p152
S'B-SBAR'
p153
g4
tp154
a(S'this'
p155
S'this'
p156
S'DT'
p157
S'B-NP'
p158
g4
tp159
a(S'approach'
p160
S'approach'
p161
S'NN'
p162
S'I-NP'
p163
g4
tp164
a(S'would'
p165
S'would'
p166
S'MD'
p167
S'B-VP'
p168
g4
tp169
a(S'compromise'
p170
S'compromise'
p171
S'VB'
p172
S'I-VP'
p173
g4
tp174
a(S'survival'
p175
S'survival'
p176
S'NN'
p177
S'B-NP'
p178
g4
tp179
a(S'by'
p180
S'by'
p181
S'IN'
p182
S'B-PP'
p183
g4
tp184
a(S'failing'
p185
S'fail'
p186
S'VBG'
p187
S'B-VP'
p188
g4
tp189
a(S'to'
p190
S'to'
p191
S'TO'
p192
S'I-VP'
p193
g4
tp194
a(S'achieve'
p195
S'achieve'
p196
S'VB'
p197
S'I-VP'
p198
g4
tp199
a(S'a'
p200
g200
S'DT'
p201
S'B-NP'
p202
g4
tp203
a(S'proper'
p204
S'proper'
p205
S'JJ'
p206
S'I-NP'
p207
g4
tp208
a(S'oncologic'
p209
S'oncologic'
p210
S'JJ'
p211
S'I-NP'
p212
g4
tp213
a(S'resection'
p214
S'resection'
p215
S'NN'
p216
S'I-NP'
p217
g4
tp218
a(S'or'
p219
S'or'
p220
S'CC'
p221
g4
g4
tp222
a(S'adequate'
p223
S'adequate'
p224
S'JJ'
p225
S'B-NP'
p226
g4
tp227
a(S'staging'
p228
S'staging'
p229
S'NN'
p230
S'I-NP'
p231
g4
tp232
a(S'or'
p233
S'or'
p234
S'CC'
p235
S'B-PP'
p236
g4
tp237
a(S'by'
p238
S'by'
p239
S'IN'
p240
S'B-PP'
p241
g4
tp242
a(S'altering'
p243
S'alter'
p244
S'VBG'
p245
S'B-VP'
p246
g4
tp247
a(S'patterns'
p248
S'pattern'
p249
S'NNS'
p250
S'B-NP'
p251
g4
tp252
a(S'of'
p253
S'of'
p254
S'IN'
p255
S'B-PP'
p256
g4
tp257
a(S'recurrence'
p258
S'recurrence'
p259
S'NN'
p260
S'B-NP'
p261
g4
tp262
a(S'('
p263
g263
g263
g4
g4
tp264
a(S'based'
p265
S'base'
p266
S'VBN'
p267
S'B-PP'
p268
g4
tp269
a(S'on'
p270
S'on'
p271
S'IN'
p272
S'B-PP'
p273
g4
tp274
a(S'frequent'
p275
S'frequent'
p276
S'JJ'
p277
S'B-NP'
p278
g4
tp279
a(S'reports'
p280
S'report'
p281
S'NNS'
p282
S'I-NP'
p283
g4
tp284
a(S'of'
p285
S'of'
p286
S'IN'
p287
S'B-PP'
p288
g4
tp289
a(S'tumor'
p290
S'tumor'
p291
S'NN'
p292
S'B-NP'
p293
g4
tp294
a(S'recurrences'
p295
S'recurrence'
p296
S'NNS'
p297
S'I-NP'
p298
g4
tp299
a(S'within'
p300
S'within'
p301
S'IN'
p302
S'B-PP'
p303
g4
tp304
a(S'surgical'
p305
S'surgical'
p306
S'JJ'
p307
S'B-NP'
p308
g4
tp309
a(S'wounds'
p310
S'wound'
p311
S'NNS'
p312
S'I-NP'
p313
g4
tp314
a(S')'
p315
g315
g315
g4
g4
tp316
a(S'prompted'
p317
S'prompt'
p318
S'VBD'
p319
S'B-VP'
p320
g4
tp321
a(g200
g200
S'DT'
p322
S'B-NP'
p323
g4
tp324
a(S'controlled'
p325
S'control'
p326
S'VBN'
p327
S'I-NP'
p328
g4
tp329
a(S'trial'
p330
S'trial'
p331
S'NN'
p332
S'I-NP'
p333
g4
tp334
a(S'evaluation'
p335
S'evaluation'
p336
S'NN'
p337
S'I-NP'
p338
g4
tp339
a(g56
g56
g56
g4
g4
tp340
a(S'METHODS'
p341
S'METHODS'
p342
S'NNS'
p343
S'B-NP'
p344
g4
tp345
a(S'We'
p346
S'We'
p347
S'PRP'
p348
S'B-NP'
p349
g4
tp350
a(S'conducted'
p351
S'conduct'
p352
S'VBD'
p353
S'B-VP'
p354
g4
tp355
a(g200
g200
S'DT'
p356
S'B-NP'
p357
g4
tp358
a(S'noninferiority'
p359
S'noninferiority'
p360
S'JJ'
p361
S'I-NP'
p362
g4
tp363
a(S'trial'
p364
S'trial'
p365
S'NN'
p366
S'I-NP'
p367
g4
tp368
a(S'at'
p369
S'at'
p370
S'IN'
p371
S'B-PP'
p372
g4
tp373
a(S'48'
p374
S'48'
p375
S'CD'
p376
S'B-NP'
p377
g4
tp378
a(S'institutions'
p379
S'institution'
p380
S'NNS'
p381
S'I-NP'
p382
g4
tp383
a(S'and'
p384
S'and'
p385
S'CC'
p386
g4
g4
tp387
a(S'randomly'
p388
S'randomly'
p389
S'RB'
p390
S'B-VP'
p391
g4
tp392
a(S'assigned'
p393
S'assign'
p394
S'VBN'
p395
S'I-VP'
p396
g4
tp397
a(S'872'
p398
S'872'
p399
S'CD'
p400
S'B-NP'
p401
g4
tp402
a(S'patients'
p403
S'patient'
p404
S'NNS'
p405
S'I-NP'
p406
g4
tp407
a(S'with'
p408
S'with'
p409
S'IN'
p410
S'B-PP'
p411
g4
tp412
a(S'adenocarcinoma'
p413
S'adenocarcinoma'
p414
S'NN'
p415
S'B-NP'
p416
g4
tp417
a(S'of'
p418
S'of'
p419
S'IN'
p420
S'B-PP'
p421
g4
tp422
a(S'the'
p423
S'the'
p424
S'DT'
p425
S'B-NP'
p426
g4
tp427
a(S'colon'
p428
S'colon'
p429
S'NN'
p430
S'I-NP'
p431
g4
tp432
a(S'to'
p433
S'to'
p434
S'TO'
p435
S'B-VP'
p436
g4
tp437
a(S'undergo'
p438
S'undergo'
p439
S'VB'
p440
S'I-VP'
p441
g4
tp442
a(S'open'
p443
S'open'
p444
S'JJ'
p445
S'B-ADJP'
p446
g4
tp447
a(S'or'
p448
S'or'
p449
S'CC'
p450
g4
g4
tp451
a(S'laparoscopically'
p452
S'laparoscopically'
p453
S'RB'
p454
S'B-NP'
p455
g4
tp456
a(S'assisted'
p457
S'assist'
p458
S'VBN'
p459
S'I-NP'
p460
g4
tp461
a(S'colectomy'
p462
S'colectomy'
p463
S'NN'
p464
S'I-NP'
p465
g4
tp466
a(S'performed'
p467
S'perform'
p468
S'VBN'
p469
S'B-VP'
p470
g4
tp471
a(S'by'
p472
S'by'
p473
S'IN'
p474
S'B-PP'
p475
g4
tp476
a(S'credentialed'
p477
S'credentiale'
p478
S'VBN'
p479
S'B-NP'
p480
g4
tp481
a(S'surgeons.'
p482
S'surgeons.'
p483
S'NN'
p484
S'I-NP'
p485
g4
tp486
a(S'The'
p487
S'The'
p488
S'DT'
p489
S'B-NP'
p490
g4
tp491
a(S'median'
p492
S'median'
p493
S'JJ'
p494
S'I-NP'
p495
g4
tp496
a(S'follow-up'
p497
S'follow-up'
p498
S'NN'
p499
S'I-NP'
p500
g4
tp501
a(S'was'
p502
S'be'
p503
S'VBD'
p504
S'B-VP'
p505
g4
tp506
a(S'4.4'
p507
S'4.4'
p508
S'CD'
p509
S'B-NP'
p510
g4
tp511
a(S'years.'
p512
S'years.'
p513
S'NNS'
p514
S'I-NP'
p515
g4
tp516
a(S'The'
p517
S'The'
p518
S'DT'
p519
S'B-NP'
p520
g4
tp521
a(S'primary'
p522
S'primary'
p523
S'JJ'
p524
S'I-NP'
p525
g4
tp526
a(S'end'
p527
S'end'
p528
S'NN'
p529
S'I-NP'
p530
g4
tp531
a(S'point'
p532
S'point'
p533
S'NN'
p534
S'I-NP'
p535
g4
tp536
a(S'was'
p537
S'be'
p538
S'VBD'
p539
S'B-VP'
p540
g4
tp541
a(S'the'
p542
S'the'
p543
S'DT'
p544
S'B-NP'
p545
g4
tp546
a(S'time'
p547
S'time'
p548
S'NN'
p549
S'I-NP'
p550
g4
tp551
a(S'to'
p552
S'to'
p553
S'TO'
p554
S'B-PP'
p555
g4
tp556
a(S'tumor'
p557
S'tumor'
p558
S'NN'
p559
S'B-NP'
p560
g4
tp561
a(S'recurrence'
p562
S'recurrence'
p563
S'NN'
p564
S'I-NP'
p565
g4
tp566
a(g56
g56
g56
g4
g4
tp567
a(S'RESULTS'
p568
S'RESULTS'
p569
S'NNS'
p570
S'B-NP'
p571
g4
tp572
a(S'At'
p573
S'At'
p574
S'IN'
p575
S'B-PP'
p576
g4
tp577
a(S'three'
p578
S'three'
p579
S'CD'
p580
S'B-NP'
p581
g4
tp582
a(S'years'
p583
S'year'
p584
S'NNS'
p585
S'I-NP'
p586
g4
tp587
a(g73
g73
g73
g4
g4
tp588
a(S'the'
p589
S'the'
p590
S'DT'
p591
S'B-NP'
p592
g4
tp593
a(S'rates'
p594
S'rate'
p595
S'NNS'
p596
S'I-NP'
p597
g4
tp598
a(S'of'
p599
S'of'
p600
S'IN'
p601
S'B-PP'
p602
g4
tp603
a(S'recurrence'
p604
S'recurrence'
p605
S'NN'
p606
S'B-NP'
p607
g4
tp608
a(S'were'
p609
S'be'
p610
S'VBD'
p611
S'B-VP'
p612
g4
tp613
a(S'similar'
p614
S'similar'
p615
S'JJ'
p616
S'B-ADJP'
p617
g4
tp618
a(S'in'
p619
S'in'
p620
S'IN'
p621
S'B-PP'
p622
g4
tp623
a(S'the'
p624
S'the'
p625
S'DT'
p626
S'B-NP'
p627
g4
tp628
a(S'two'
p629
S'two'
p630
S'CD'
p631
S'I-NP'
p632
g4
tp633
a(S'groups'
p634
S'group'
p635
S'NNS'
p636
S'I-NP'
p637
g4
tp638
a(S'--'
p639
S'--'
p640
S':'
p641
g4
g4
tp642
a(S'16'
p643
S'16'
p644
S'CD'
p645
S'B-NP'
p646
g4
tp647
a(S'percent'
p648
S'percent'
p649
S'NN'
p650
S'I-NP'
p651
g4
tp652
a(S'among'
p653
S'among'
p654
S'IN'
p655
S'B-PP'
p656
g4
tp657
a(S'patients'
p658
S'patient'
p659
S'NNS'
p660
S'B-NP'
p661
g4
tp662
a(S'in'
p663
S'in'
p664
S'IN'
p665
S'B-PP'
p666
g4
tp667
a(S'the'
p668
S'the'
p669
S'DT'
p670
S'B-NP'
p671
g4
tp672
a(S'group'
p673
S'group'
p674
S'NN'
p675
S'I-NP'
p676
g4
tp677
a(S'that'
p678
S'that'
p679
S'WDT'
p680
S'B-NP'
p681
g4
tp682
a(S'underwent'
p683
S'undergo'
p684
S'VBD'
p685
S'B-VP'
p686
g4
tp687
a(S'laparoscopically'
p688
S'laparoscopically'
p689
S'RB'
p690
S'B-NP'
p691
g4
tp692
a(S'assisted'
p693
S'assist'
p694
S'VBN'
p695
S'I-NP'
p696
g4
tp697
a(S'surgery'
p698
S'surgery'
p699
S'NN'
p700
S'I-NP'
p701
g4
tp702
a(S'and'
p703
S'and'
p704
S'CC'
p705
g4
g4
tp706
a(S'18'
p707
S'18'
p708
S'CD'
p709
S'B-NP'
p710
g4
tp711
a(S'percent'
p712
S'percent'
p713
S'NN'
p714
S'I-NP'
p715
g4
tp716
a(S'among'
p717
S'among'
p718
S'IN'
p719
S'B-PP'
p720
g4
tp721
a(S'patients'
p722
S'patient'
p723
S'NNS'
p724
S'B-NP'
p725
g4
tp726
a(S'in'
p727
S'in'
p728
S'IN'
p729
S'B-PP'
p730
g4
tp731
a(S'the'
p732
S'the'
p733
S'DT'
p734
S'B-NP'
p735
g4
tp736
a(S'open-colectomy'
p737
S'open-colectomy'
p738
S'JJ'
p739
S'I-NP'
p740
g4
tp741
a(S'group'
p742
S'group'
p743
S'NN'
p744
S'I-NP'
p745
g4
tp746
a(g263
g263
g263
g4
g4
tp747
a(S'two-sided'
p748
S'two-sided'
p749
S'JJ'
p750
S'B-NP'
p751
g4
tp752
a(S'P=0.32'
p753
S'P=0.32'
p754
S'NN'
p755
S'I-NP'
p756
g4
tp757
a(S';'
p758
g758
g641
g4
g4
tp759
a(S'hazard'
p760
S'hazard'
p761
S'NN'
p762
S'B-NP'
p763
g4
tp764
a(S'ratio'
p765
S'ratio'
p766
S'NN'
p767
S'I-NP'
p768
g4
tp769
a(S'for'
p770
S'for'
p771
S'IN'
p772
S'B-PP'
p773
g4
tp774
a(S'recurrence'
p775
S'recurrence'
p776
S'NN'
p777
S'B-NP'
p778
g4
tp779
a(g73
g73
g73
g4
g4
tp780
a(S'0.86'
p781
S'0.86'
p782
S'CD'
p783
S'B-NP'
p784
g4
tp785
a(g758
g758
g641
g4
g4
tp786
a(S'95'
p787
S'95'
p788
S'CD'
p789
S'B-NP'
p790
g4
tp791
a(S'percent'
p792
S'percent'
p793
S'NN'
p794
S'I-NP'
p795
g4
tp796
a(S'confidence'
p797
S'confidence'
p798
S'NN'
p799
S'I-NP'
p800
g4
tp801
a(S'interval'
p802
S'interval'
p803
S'NN'
p804
S'I-NP'
p805
g4
tp806
a(g73
g73
g73
g4
g4
tp807
a(S'0.63'
p808
S'0.63'
p809
S'CD'
p810
S'B-NP'
p811
g4
tp812
a(S'to'
p813
S'to'
p814
S'TO'
p815
S'B-PP'
p816
g4
tp817
a(S'1.17'
p818
S'1.17'
p819
S'CD'
p820
S'B-NP'
p821
g4
tp822
a(g315
g315
g315
g4
g4
tp823
a(g56
g56
g56
g4
g4
tp824
a(S'Recurrence'
p825
S'Recurrence'
p826
S'NN'
p827
S'B-NP'
p828
g4
tp829
a(S'rates'
p830
S'rate'
p831
S'NNS'
p832
S'I-NP'
p833
g4
tp834
a(S'in'
p835
S'in'
p836
S'IN'
p837
S'B-PP'
p838
g4
tp839
a(S'surgical'
p840
S'surgical'
p841
S'JJ'
p842
S'B-NP'
p843
g4
tp844
a(S'wounds'
p845
S'wound'
p846
S'NNS'
p847
S'I-NP'
p848
g4
tp849
a(S'were'
p850
S'be'
p851
S'VBD'
p852
S'B-VP'
p853
g4
tp854
a(S'less'
p855
S'less'
p856
S'JJR'
p857
S'B-NP'
p858
g4
tp859
a(S'than'
p860
S'than'
p861
S'IN'
p862
S'I-NP'
p863
g4
tp864
a(S'1'
p865
g865
S'CD'
p866
S'I-NP'
p867
g4
tp868
a(S'percent'
p869
S'percent'
p870
S'NN'
p871
S'I-NP'
p872
g4
tp873
a(S'in'
p874
S'in'
p875
S'IN'
p876
S'B-PP'
p877
g4
tp878
a(S'both'
p879
S'both'
p880
S'DT'
p881
S'B-NP'
p882
g4
tp883
a(S'groups'
p884
S'group'
p885
S'NNS'
p886
S'I-NP'
p887
g4
tp888
a(g263
g263
g263
g4
g4
tp889
a(S'P=0.50'
p890
S'P=0.50'
p891
S'NN'
p892
S'B-NP'
p893
g4
tp894
a(g315
g315
g315
g4
g4
tp895
a(g56
g56
g56
g4
g4
tp896
a(S'The'
p897
S'The'
p898
S'DT'
p899
S'B-NP'
p900
g4
tp901
a(S'overall'
p902
S'overall'
p903
S'JJ'
p904
S'I-NP'
p905
g4
tp906
a(S'survival'
p907
S'survival'
p908
S'NN'
p909
S'I-NP'
p910
g4
tp911
a(S'rate'
p912
S'rate'
p913
S'NN'
p914
S'I-NP'
p915
g4
tp916
a(S'at'
p917
S'at'
p918
S'IN'
p919
S'B-PP'
p920
g4
tp921
a(S'three'
p922
S'three'
p923
S'CD'
p924
S'B-NP'
p925
g4
tp926
a(S'years'
p927
S'year'
p928
S'NNS'
p929
S'I-NP'
p930
g4
tp931
a(S'was'
p932
S'be'
p933
S'VBD'
p934
S'B-VP'
p935
g4
tp936
a(S'also'
p937
S'also'
p938
S'RB'
p939
S'B-ADVP'
p940
g4
tp941
a(S'very'
p942
S'very'
p943
S'RB'
p944
S'B-ADJP'
p945
g4
tp946
a(S'similar'
p947
S'similar'
p948
S'JJ'
p949
S'I-ADJP'
p950
g4
tp951
a(S'in'
p952
S'in'
p953
S'IN'
p954
S'B-PP'
p955
g4
tp956
a(S'the'
p957
S'the'
p958
S'DT'
p959
S'B-NP'
p960
g4
tp961
a(S'two'
p962
S'two'
p963
S'CD'
p964
S'I-NP'
p965
g4
tp966
a(S'groups'
p967
S'group'
p968
S'NNS'
p969
S'I-NP'
p970
g4
tp971
a(g263
g263
g263
g4
g4
tp972
a(S'86'
p973
S'86'
p974
S'CD'
p975
S'B-NP'
p976
g4
tp977
a(S'percent'
p978
S'percent'
p979
S'NN'
p980
S'I-NP'
p981
g4
tp982
a(S'in'
p983
S'in'
p984
S'IN'
p985
S'B-PP'
p986
g4
tp987
a(S'the'
p988
S'the'
p989
S'DT'
p990
S'B-NP'
p991
g4
tp992
a(S'laparoscopic-surgery'
p993
S'laparoscopic-surgery'
p994
S'JJ'
p995
S'I-NP'
p996
g4
tp997
a(S'group'
p998
S'group'
p999
S'NN'
p1000
S'I-NP'
p1001
g4
tp1002
a(S'and'
p1003
S'and'
p1004
S'CC'
p1005
g4
g4
tp1006
a(S'85'
p1007
S'85'
p1008
S'CD'
p1009
S'B-NP'
p1010
g4
tp1011
a(S'percent'
p1012
S'percent'
p1013
S'NN'
p1014
S'I-NP'
p1015
g4
tp1016
a(S'in'
p1017
S'in'
p1018
S'IN'
p1019
S'B-PP'
p1020
g4
tp1021
a(S'the'
p1022
S'the'
p1023
S'DT'
p1024
S'B-NP'
p1025
g4
tp1026
a(S'open-colectomy'
p1027
S'open-colectomy'
p1028
S'JJ'
p1029
S'I-NP'
p1030
g4
tp1031
a(S'group'
p1032
S'group'
p1033
S'NN'
p1034
S'I-NP'
p1035
g4
tp1036
a(g758
g758
g641
g4
g4
tp1037
a(S'P=0.51'
p1038
S'P=0.51'
p1039
S'NN'
p1040
S'B-NP'
p1041
g4
tp1042
a(g758
g758
g641
g4
g4
tp1043
a(S'hazard'
p1044
S'hazard'
p1045
S'NN'
p1046
S'B-NP'
p1047
g4
tp1048
a(S'ratio'
p1049
S'ratio'
p1050
S'NN'
p1051
S'I-NP'
p1052
g4
tp1053
a(S'for'
p1054
S'for'
p1055
S'IN'
p1056
S'B-PP'
p1057
g4
tp1058
a(S'death'
p1059
S'death'
p1060
S'NN'
p1061
S'B-NP'
p1062
g4
tp1063
a(S'in'
p1064
S'in'
p1065
S'IN'
p1066
S'B-PP'
p1067
g4
tp1068
a(S'the'
p1069
S'the'
p1070
S'DT'
p1071
S'B-NP'
p1072
g4
tp1073
a(S'laparoscopic-surgery'
p1074
S'laparoscopic-surgery'
p1075
S'JJ'
p1076
S'I-NP'
p1077
g4
tp1078
a(S'group'
p1079
S'group'
p1080
S'NN'
p1081
S'I-NP'
p1082
g4
tp1083
a(g73
g73
g73
g4
g4
tp1084
a(S'0.91'
p1085
S'0.91'
p1086
S'CD'
p1087
S'B-NP'
p1088
g4
tp1089
a(g758
g758
g641
g4
g4
tp1090
a(S'95'
p1091
S'95'
p1092
S'CD'
p1093
S'B-NP'
p1094
g4
tp1095
a(S'percent'
p1096
S'percent'
p1097
S'NN'
p1098
S'I-NP'
p1099
g4
tp1100
a(S'confidence'
p1101
S'confidence'
p1102
S'NN'
p1103
S'I-NP'
p1104
g4
tp1105
a(S'interval'
p1106
S'interval'
p1107
S'NN'
p1108
S'I-NP'
p1109
g4
tp1110
a(g73
g73
g73
g4
g4
tp1111
a(S'0.68'
p1112
S'0.68'
p1113
S'CD'
p1114
S'B-NP'
p1115
g4
tp1116
a(S'to'
p1117
S'to'
p1118
S'TO'
p1119
S'B-PP'
p1120
g4
tp1121
a(S'1.21'
p1122
S'1.21'
p1123
S'CD'
p1124
S'B-NP'
p1125
g4
tp1126
a(g315
g315
g315
g4
g4
tp1127
a(g73
g73
g73
g4
g4
tp1128
a(S'with'
p1129
S'with'
p1130
S'IN'
p1131
S'B-PP'
p1132
g4
tp1133
a(S'no'
p1134
S'no'
p1135
S'DT'
p1136
S'B-NP'
p1137
g4
tp1138
a(S'significant'
p1139
S'significant'
p1140
S'JJ'
p1141
S'I-NP'
p1142
g4
tp1143
a(S'difference'
p1144
S'difference'
p1145
S'NN'
p1146
S'I-NP'
p1147
g4
tp1148
a(S'between'
p1149
S'between'
p1150
S'IN'
p1151
S'B-PP'
p1152
g4
tp1153
a(S'groups'
p1154
S'group'
p1155
S'NNS'
p1156
S'B-NP'
p1157
g4
tp1158
a(S'in'
p1159
S'in'
p1160
S'IN'
p1161
S'B-PP'
p1162
g4
tp1163
a(S'the'
p1164
S'the'
p1165
S'DT'
p1166
S'B-NP'
p1167
g4
tp1168
a(S'time'
p1169
S'time'
p1170
S'NN'
p1171
S'I-NP'
p1172
g4
tp1173
a(S'to'
p1174
S'to'
p1175
S'TO'
p1176
S'B-PP'
p1177
g4
tp1178
a(S'recurrence'
p1179
S'recurrence'
p1180
S'NN'
p1181
S'B-NP'
p1182
g4
tp1183
a(S'or'
p1184
S'or'
p1185
S'CC'
p1186
g4
g4
tp1187
a(S'overall'
p1188
S'overall'
p1189
S'JJ'
p1190
S'B-NP'
p1191
g4
tp1192
a(S'survival'
p1193
S'survival'
p1194
S'NN'
p1195
S'I-NP'
p1196
g4
tp1197
a(S'for'
p1198
S'for'
p1199
S'IN'
p1200
S'B-PP'
p1201
g4
tp1202
a(S'patients'
p1203
S'patient'
p1204
S'NNS'
p1205
S'B-NP'
p1206
g4
tp1207
a(S'with'
p1208
S'with'
p1209
S'IN'
p1210
S'B-PP'
p1211
g4
tp1212
a(S'any'
p1213
S'any'
p1214
S'DT'
p1215
S'B-NP'
p1216
g4
tp1217
a(S'stage'
p1218
S'stage'
p1219
S'NN'
p1220
S'I-NP'
p1221
g4
tp1222
a(S'of'
p1223
S'of'
p1224
S'IN'
p1225
S'B-PP'
p1226
g4
tp1227
a(S'cancer.'
p1228
S'cancer.'
p1229
S'NN'
p1230
S'B-NP'
p1231
g4
tp1232
a(S'Perioperative'
p1233
S'Perioperative'
p1234
S'JJ'
p1235
S'I-NP'
p1236
g4
tp1237
a(S'recovery'
p1238
S'recovery'
p1239
S'NN'
p1240
S'I-NP'
p1241
g4
tp1242
a(S'was'
p1243
S'be'
p1244
S'VBD'
p1245
S'B-VP'
p1246
g4
tp1247
a(S'faster'
p1248
S'fast'
p1249
S'JJR'
p1250
S'B-ADJP'
p1251
g4
tp1252
a(S'in'
p1253
S'in'
p1254
S'IN'
p1255
S'B-PP'
p1256
g4
tp1257
a(S'the'
p1258
S'the'
p1259
S'DT'
p1260
S'B-NP'
p1261
g4
tp1262
a(S'laparoscopic-surgery'
p1263
S'laparoscopic-surgery'
p1264
S'JJ'
p1265
S'I-NP'
p1266
g4
tp1267
a(S'group'
p1268
S'group'
p1269
S'NN'
p1270
S'I-NP'
p1271
g4
tp1272
a(S'than'
p1273
S'than'
p1274
S'IN'
p1275
S'B-PP'
p1276
g4
tp1277
a(S'in'
p1278
S'in'
p1279
S'IN'
p1280
S'B-PP'
p1281
g4
tp1282
a(S'the'
p1283
S'the'
p1284
S'DT'
p1285
S'B-NP'
p1286
g4
tp1287
a(S'open-colectomy'
p1288
S'open-colectomy'
p1289
S'JJ'
p1290
S'I-NP'
p1291
g4
tp1292
a(S'group'
p1293
S'group'
p1294
S'NN'
p1295
S'I-NP'
p1296
g4
tp1297
a(g73
g73
g73
g4
g4
tp1298
a(S'as'
p1299
S'as'
p1300
S'IN'
p1301
S'B-SBAR'
p1302
g4
tp1303
a(S'reflected'
p1304
S'reflect'
p1305
S'VBN'
p1306
S'B-VP'
p1307
g4
tp1308
a(S'by'
p1309
S'by'
p1310
S'IN'
p1311
S'B-PP'
p1312
g4
tp1313
a(g200
g200
S'DT'
p1314
S'B-NP'
p1315
g4
tp1316
a(S'shorter'
p1317
S'short'
p1318
S'JJR'
p1319
S'I-NP'
p1320
g4
tp1321
a(S'median'
p1322
S'median'
p1323
S'JJ'
p1324
S'I-NP'
p1325
g4
tp1326
a(S'hospital'
p1327
S'hospital'
p1328
S'NN'
p1329
S'I-NP'
p1330
g4
tp1331
a(S'stay'
p1332
S'stay'
p1333
S'NN'
p1334
S'I-NP'
p1335
g4
tp1336
a(g263
g263
g263
g4
g4
tp1337
a(S'five'
p1338
S'five'
p1339
S'CD'
p1340
S'B-NP'
p1341
g4
tp1342
a(S'days'
p1343
S'day'
p1344
S'NNS'
p1345
S'I-NP'
p1346
g4
tp1347
a(S'vs.'
p1348
S'vs.'
p1349
S'IN'
p1350
S'B-PP'
p1351
g4
tp1352
a(S'six'
p1353
S'six'
p1354
S'CD'
p1355
S'B-NP'
p1356
g4
tp1357
a(S'days'
p1358
S'day'
p1359
S'NNS'
p1360
S'I-NP'
p1361
g4
tp1362
a(g73
g73
g73
g4
g4
tp1363
a(S'P'
p1364
g1364
S'NN'
p1365
S'B-NP'
p1366
g4
tp1367
a(S'<'
p1368
g1368
S'SYM'
p1369
S'B-NP'
p1370
g4
tp1371
a(S'0.001'
p1372
S'0.001'
p1373
S'CD'
p1374
S'I-NP'
p1375
g4
tp1376
a(g315
g315
g315
g4
g4
tp1377
a(S'and'
p1378
S'and'
p1379
S'CC'
p1380
g4
g4
tp1381
a(S'briefer'
p1382
S'briefer'
p1383
S'VBP'
p1384
S'B-VP'
p1385
g4
tp1386
a(S'use'
p1387
S'use'
p1388
S'NN'
p1389
S'B-NP'
p1390
g4
tp1391
a(S'of'
p1392
S'of'
p1393
S'IN'
p1394
S'B-PP'
p1395
g4
tp1396
a(S'parenteral'
p1397
S'parenteral'
p1398
S'JJ'
p1399
S'B-NP'
p1400
g4
tp1401
a(S'narcotics'
p1402
S'narcotic'
p1403
S'NNS'
p1404
S'I-NP'
p1405
g4
tp1406
a(g263
g263
g263
g4
g4
tp1407
a(S'three'
p1408
S'three'
p1409
S'CD'
p1410
S'B-NP'
p1411
g4
tp1412
a(S'days'
p1413
S'day'
p1414
S'NNS'
p1415
S'I-NP'
p1416
g4
tp1417
a(S'vs.'
p1418
S'vs.'
p1419
S'IN'
p1420
S'B-PP'
p1421
g4
tp1422
a(S'four'
p1423
S'four'
p1424
S'CD'
p1425
S'B-NP'
p1426
g4
tp1427
a(S'days'
p1428
S'day'
p1429
S'NNS'
p1430
S'I-NP'
p1431
g4
tp1432
a(g73
g73
g73
g4
g4
tp1433
a(g1364
g1364
S'NN'
p1434
S'B-NP'
p1435
g4
tp1436
a(g1368
g1368
S'SYM'
p1437
S'B-NP'
p1438
g4
tp1439
a(S'0.001'
p1440
S'0.001'
p1441
S'CD'
p1442
S'I-NP'
p1443
g4
tp1444
a(g315
g315
g315
g4
g4
tp1445
a(S'and'
p1446
S'and'
p1447
S'CC'
p1448
g4
g4
tp1449
a(S'oral'
p1450
S'oral'
p1451
S'JJ'
p1452
S'B-NP'
p1453
g4
tp1454
a(S'analgesics'
p1455
S'analgesic'
p1456
S'NNS'
p1457
S'I-NP'
p1458
g4
tp1459
a(g263
g263
g263
g4
g4
tp1460
a(S'one'
p1461
S'one'
p1462
S'CD'
p1463
S'B-NP'
p1464
g4
tp1465
a(S'day'
p1466
S'day'
p1467
S'NN'
p1468
S'I-NP'
p1469
g4
tp1470
a(S'vs.'
p1471
S'vs.'
p1472
S'IN'
p1473
S'B-PP'
p1474
g4
tp1475
a(S'two'
p1476
S'two'
p1477
S'CD'
p1478
S'B-NP'
p1479
g4
tp1480
a(S'days'
p1481
S'day'
p1482
S'NNS'
p1483
S'I-NP'
p1484
g4
tp1485
a(g73
g73
g73
g4
g4
tp1486
a(S'P=0.02'
p1487
S'P=0.02'
p1488
S'NN'
p1489
S'B-NP'
p1490
g4
tp1491
a(g315
g315
g315
g4
g4
tp1492
a(g56
g56
g56
g4
g4
tp1493
a(S'The'
p1494
S'The'
p1495
S'DT'
p1496
S'B-NP'
p1497
g4
tp1498
a(S'rates'
p1499
S'rate'
p1500
S'NNS'
p1501
S'I-NP'
p1502
g4
tp1503
a(S'of'
p1504
S'of'
p1505
S'IN'
p1506
S'B-PP'
p1507
g4
tp1508
a(S'intraoperative'
p1509
S'intraoperative'
p1510
S'JJ'
p1511
S'B-NP'
p1512
g4
tp1513
a(S'complications'
p1514
S'complication'
p1515
S'NNS'
p1516
S'I-NP'
p1517
g4
tp1518
a(g73
g73
g73
g4
g4
tp1519
a(S'30-day'
p1520
S'30-day'
p1521
S'JJ'
p1522
S'B-NP'
p1523
g4
tp1524
a(S'postoperative'
p1525
S'postoperative'
p1526
S'JJ'
p1527
S'I-NP'
p1528
g4
tp1529
a(S'mortality'
p1530
S'mortality'
p1531
S'NN'
p1532
S'I-NP'
p1533
g4
tp1534
a(g73
g73
g73
g4
g4
tp1535
a(S'complications'
p1536
S'complication'
p1537
S'NNS'
p1538
S'B-NP'
p1539
g4
tp1540
a(S'at'
p1541
S'at'
p1542
S'IN'
p1543
S'B-PP'
p1544
g4
tp1545
a(S'discharge'
p1546
S'discharge'
p1547
S'NN'
p1548
S'B-NP'
p1549
g4
tp1550
a(S'and'
p1551
S'and'
p1552
S'CC'
p1553
g4
g4
tp1554
a(S'60'
p1555
S'60'
p1556
S'CD'
p1557
S'B-NP'
p1558
g4
tp1559
a(S'days'
p1560
S'day'
p1561
S'NNS'
p1562
S'I-NP'
p1563
g4
tp1564
a(g73
g73
g73
g4
g4
tp1565
a(S'hospital'
p1566
S'hospital'
p1567
S'NN'
p1568
S'B-NP'
p1569
g4
tp1570
a(S'readmission'
p1571
S'readmission'
p1572
S'NN'
p1573
S'I-NP'
p1574
g4
tp1575
a(g73
g73
g73
g4
g4
tp1576
a(S'and'
p1577
S'and'
p1578
S'CC'
p1579
g4
g4
tp1580
a(S'reoperation'
p1581
S'reoperation'
p1582
S'NN'
p1583
S'B-NP'
p1584
g4
tp1585
a(S'were'
p1586
S'be'
p1587
S'VBD'
p1588
S'B-VP'
p1589
g4
tp1590
a(S'very'
p1591
S'very'
p1592
S'RB'
p1593
S'B-ADJP'
p1594
g4
tp1595
a(S'similar'
p1596
S'similar'
p1597
S'JJ'
p1598
S'I-ADJP'
p1599
g4
tp1600
a(S'between'
p1601
S'between'
p1602
S'IN'
p1603
S'B-PP'
p1604
g4
tp1605
a(S'groups'
p1606
S'group'
p1607
S'NNS'
p1608
S'B-NP'
p1609
g4
tp1610
a(g56
g56
g56
g4
g4
tp1611
a(S'CONCLUSIONS'
p1612
S'CONCLUSIONS'
p1613
S'NNS'
p1614
S'B-NP'
p1615
g4
tp1616
a(S'In'
p1617
S'In'
p1618
S'IN'
p1619
S'B-PP'
p1620
g4
tp1621
a(S'this'
p1622
S'this'
p1623
S'DT'
p1624
S'B-NP'
p1625
g4
tp1626
a(S'multi-institutional'
p1627
S'multi-institutional'
p1628
S'JJ'
p1629
S'I-NP'
p1630
g4
tp1631
a(S'study'
p1632
S'study'
p1633
S'NN'
p1634
S'I-NP'
p1635
g4
tp1636
a(g73
g73
g73
g4
g4
tp1637
a(S'the'
p1638
S'the'
p1639
S'DT'
p1640
S'B-NP'
p1641
g4
tp1642
a(S'rates'
p1643
S'rate'
p1644
S'NNS'
p1645
S'I-NP'
p1646
g4
tp1647
a(S'of'
p1648
S'of'
p1649
S'IN'
p1650
S'B-PP'
p1651
g4
tp1652
a(S'recurrent'
p1653
S'recurrent'
p1654
S'JJ'
p1655
S'B-NP'
p1656
g4
tp1657
a(S'cancer'
p1658
S'cancer'
p1659
S'NN'
p1660
S'I-NP'
p1661
g4
tp1662
a(S'were'
p1663
S'be'
p1664
S'VBD'
p1665
S'B-VP'
p1666
g4
tp1667
a(S'similar'
p1668
S'similar'
p1669
S'JJ'
p1670
S'B-ADJP'
p1671
g4
tp1672
a(S'after'
p1673
S'after'
p1674
S'IN'
p1675
S'B-SBAR'
p1676
g4
tp1677
a(S'laparoscopically'
p1678
S'laparoscopically'
p1679
S'RB'
p1680
S'B-NP'
p1681
g4
tp1682
a(S'assisted'
p1683
S'assist'
p1684
S'VBN'
p1685
S'I-NP'
p1686
g4
tp1687
a(S'colectomy'
p1688
S'colectomy'
p1689
S'NN'
p1690
S'I-NP'
p1691
g4
tp1692
a(S'and'
p1693
S'and'
p1694
S'CC'
p1695
S'I-NP'
p1696
g4
tp1697
a(S'open'
p1698
S'open'
p1699
S'JJ'
p1700
S'I-NP'
p1701
g4
tp1702
a(S'colectomy'
p1703
S'colectomy'
p1704
S'NN'
p1705
S'I-NP'
p1706
g4
tp1707
a(g73
g73
g73
g4
g4
tp1708
a(S'suggesting'
p1709
S'suggest'
p1710
S'VBG'
p1711
S'B-VP'
p1712
g4
tp1713
a(S'that'
p1714
S'that'
p1715
S'IN'
p1716
S'B-SBAR'
p1717
g4
tp1718
a(S'the'
p1719
S'the'
p1720
S'DT'
p1721
S'B-NP'
p1722
g4
tp1723
a(S'laparoscopic'
p1724
S'laparoscopic'
p1725
S'JJ'
p1726
S'I-NP'
p1727
g4
tp1728
a(S'approach'
p1729
S'approach'
p1730
S'NN'
p1731
S'I-NP'
p1732
g4
tp1733
a(S'is'
p1734
S'be'
p1735
S'VBZ'
p1736
S'B-VP'
p1737
g4
tp1738
a(S'an'
p1739
S'an'
p1740
S'DT'
p1741
S'B-NP'
p1742
g4
tp1743
a(S'acceptable'
p1744
S'acceptable'
p1745
S'JJ'
p1746
S'I-NP'
p1747
g4
tp1748
a(S'alternative'
p1749
S'alternative'
p1750
S'NN'
p1751
S'I-NP'
p1752
g4
tp1753
a(S'to'
p1754
S'to'
p1755
S'TO'
p1756
S'B-VP'
p1757
g4
tp1758
a(S'open'
p1759
S'open'
p1760
S'VB'
p1761
S'I-VP'
p1762
g4
tp1763
a(S'surgery'
p1764
S'surgery'
p1765
S'NN'
p1766
S'B-NP'
p1767
g4
tp1768
a(S'for'
p1769
S'for'
p1770
S'IN'
p1771
S'B-PP'
p1772
g4
tp1773
a(S'colon'
p1774
S'colon'
p1775
S'NN'
p1776
S'B-NP'
p1777
g4
tp1778
a(S'cancer'
p1779
S'cancer'
p1780
S'NN'
p1781
S'I-NP'
p1782
g4
tp1783
a(g56
g56
g56
g4
g4
tp1784
a.