(lp0
(S'OBJECTIVE'
p1
S'OBJECTIVE'
p2
S'NN'
p3
S'B-NP'
p4
S'O'
p5
tp6
a(S':'
p7
g7
g7
g5
g5
tp8
a(S'To'
p9
S'To'
p10
S'TO'
p11
S'B-VP'
p12
g5
tp13
a(S'evaluate'
p14
S'evaluate'
p15
S'VB'
p16
S'I-VP'
p17
g5
tp18
a(S'benefits'
p19
S'benefit'
p20
S'NNS'
p21
S'B-NP'
p22
g5
tp23
a(S'for'
p24
S'for'
p25
S'IN'
p26
S'B-PP'
p27
g5
tp28
a(S'postnatal'
p29
S'postnatal'
p30
S'JJ'
p31
S'B-NP'
p32
g5
tp33
a(S'women'
p34
S'woman'
p35
S'NNS'
p36
S'I-NP'
p37
g5
tp38
a(S'of'
p39
S'of'
p40
S'IN'
p41
S'B-PP'
p42
g5
tp43
a(S'two'
p44
S'two'
p45
S'CD'
p46
S'B-NP'
p47
g5
tp48
a(S'psychologically'
p49
S'psychologically'
p50
S'RB'
p51
S'I-NP'
p52
g5
tp53
a(S'informed'
p54
S'inform'
p55
S'VBN'
p56
S'I-NP'
p57
g5
tp58
a(S'interventions'
p59
S'intervention'
p60
S'NNS'
p61
S'I-NP'
p62
g5
tp63
a(S'by'
p64
S'by'
p65
S'IN'
p66
S'B-PP'
p67
g5
tp68
a(S'health'
p69
S'health'
p70
S'NN'
p71
S'B-NP'
p72
g5
tp73
a(S'visitors.'
p74
S'visitors.'
p75
S'NNS'
p76
S'I-NP'
p77
g5
tp78
a(S'DESIGN'
p79
S'DESIGN'
p80
S'NN'
p81
S'B-NP'
p82
g5
tp83
a(g7
g7
g7
g5
g5
tp84
a(S'Prospective'
p85
S'Prospective'
p86
S'JJ'
p87
S'B-NP'
p88
g5
tp89
a(S'cluster'
p90
S'cluster'
p91
S'NN'
p92
S'I-NP'
p93
g5
tp94
a(S'trial'
p95
S'trial'
p96
S'NN'
p97
S'I-NP'
p98
g5
tp99
a(S'randomised'
p100
S'randomise'
p101
S'VBN'
p102
S'B-VP'
p103
g5
tp104
a(S'by'
p105
S'by'
p106
S'IN'
p107
S'B-PP'
p108
g5
tp109
a(S'general'
p110
S'general'
p111
S'JJ'
p112
S'B-NP'
p113
g5
tp114
a(S'practice'
p115
S'practice'
p116
S'NN'
p117
S'I-NP'
p118
g5
tp119
a(S','
p120
g120
g120
g5
g5
tp121
a(S'with'
p122
S'with'
p123
S'IN'
p124
S'B-PP'
p125
g5
tp126
a(S'18'
p127
S'18'
p128
S'CD'
p129
S'B-NP'
p130
g5
tp131
a(S'month'
p132
S'month'
p133
S'NN'
p134
S'I-NP'
p135
g5
tp136
a(S'follow-up.'
p137
S'follow-up.'
p138
S'JJ'
p139
S'B-ADJP'
p140
g5
tp141
a(S'SETTING'
p142
S'SETTING'
p143
S'NN'
p144
S'B-NP'
p145
g5
tp146
a(g7
g7
g7
g5
g5
tp147
a(S'101'
p148
S'101'
p149
S'CD'
p150
S'B-NP'
p151
g5
tp152
a(S'general'
p153
S'general'
p154
S'JJ'
p155
S'I-NP'
p156
g5
tp157
a(S'practices'
p158
S'practice'
p159
S'NNS'
p160
S'I-NP'
p161
g5
tp162
a(S'in'
p163
S'in'
p164
S'IN'
p165
S'B-PP'
p166
g5
tp167
a(S'Trent'
p168
S'Trent'
p169
S'NNP'
p170
S'B-NP'
p171
g5
tp172
a(g120
g120
g120
g5
g5
tp173
a(S'England.'
p174
S'England.'
p175
S'NNP'
p176
S'B-NP'
p177
g5
tp178
a(S'PARTICIPANTS'
p179
S'PARTICIPANTS'
p180
S'NNS'
p181
S'B-NP'
p182
g5
tp183
a(g7
g7
g7
g5
g5
tp184
a(S'2749'
p185
S'2749'
p186
S'CD'
p187
S'B-NP'
p188
g5
tp189
a(S'women'
p190
S'woman'
p191
S'NNS'
p192
S'I-NP'
p193
g5
tp194
a(S'allocated'
p195
S'allocate'
p196
S'VBN'
p197
S'B-VP'
p198
g5
tp199
a(S'to'
p200
S'to'
p201
S'TO'
p202
S'B-PP'
p203
g5
tp204
a(S'intervention'
p205
S'intervention'
p206
S'NN'
p207
S'B-NP'
p208
g5
tp209
a(g120
g120
g120
g5
g5
tp210
a(S'1335'
p211
S'1335'
p212
S'CD'
p213
S'B-NP'
p214
g5
tp215
a(S'to'
p216
S'to'
p217
S'TO'
p218
S'B-VP'
p219
g5
tp220
a(S'control.'
p221
S'control.'
p222
S'VB'
p223
S'I-VP'
p224
g5
tp225
a(S'INTERVENTION'
p226
S'INTERVENTION'
p227
S'NN'
p228
S'B-NP'
p229
g5
tp230
a(g7
g7
g7
g5
g5
tp231
a(S'Health'
p232
S'Health'
p233
S'NN'
p234
S'B-NP'
p235
g5
tp236
a(S'visitors'
p237
S'visitor'
p238
S'NNS'
p239
S'I-NP'
p240
g5
tp241
a(S'('
p242
g242
g242
g5
g5
tp243
a(S'n=89'
p244
S'n=89'
p245
S'NN'
p246
S'B-NP'
p247
g5
tp248
a(S'63'
p249
S'63'
p250
S'CD'
p251
S'B-NP'
p252
g5
tp253
a(S'clusters'
p254
S'cluster'
p255
S'NNS'
p256
S'I-NP'
p257
g5
tp258
a(S')'
p259
g259
g259
g5
g5
tp260
a(S'were'
p261
S'be'
p262
S'VBD'
p263
S'B-VP'
p264
g5
tp265
a(S'trained'
p266
S'train'
p267
S'VBN'
p268
S'I-VP'
p269
g5
tp270
a(S'to'
p271
S'to'
p272
S'TO'
p273
S'I-VP'
p274
g5
tp275
a(S'identify'
p276
S'identify'
p277
S'VB'
p278
S'I-VP'
p279
g5
tp280
a(S'depressive'
p281
S'depressive'
p282
S'JJ'
p283
S'B-NP'
p284
g5
tp285
a(S'symptoms'
p286
S'symptom'
p287
S'NNS'
p288
S'I-NP'
p289
g5
tp290
a(S'at'
p291
S'at'
p292
S'IN'
p293
S'B-PP'
p294
g5
tp295
a(S'six'
p296
S'six'
p297
S'CD'
p298
S'B-NP'
p299
g5
tp300
a(S'to'
p301
S'to'
p302
S'TO'
p303
S'I-NP'
p304
g5
tp305
a(S'eight'
p306
S'eight'
p307
S'CD'
p308
S'I-NP'
p309
g5
tp310
a(S'weeks'
p311
S'week'
p312
S'NNS'
p313
S'I-NP'
p314
g5
tp315
a(S'postnatally'
p316
S'postnatally'
p317
S'RB'
p318
S'B-VP'
p319
g5
tp320
a(S'using'
p321
S'use'
p322
S'VBG'
p323
S'I-VP'
p324
g5
tp325
a(S'the'
p326
S'the'
p327
S'DT'
p328
S'B-NP'
p329
g5
tp330
a(S'Edinburgh'
p331
S'Edinburgh'
p332
S'NNP'
p333
S'I-NP'
p334
g5
tp335
a(S'postnatal'
p336
S'postnatal'
p337
S'JJ'
p338
S'I-NP'
p339
g5
tp340
a(S'depression'
p341
S'depression'
p342
S'NN'
p343
S'I-NP'
p344
g5
tp345
a(S'scale'
p346
S'scale'
p347
S'NN'
p348
S'I-NP'
p349
g5
tp350
a(g242
g242
g242
g5
g5
tp351
a(S'EPDS'
p352
S'EPDS'
p353
S'NN'
p354
S'B-NP'
p355
S'B-protein'
p356
tp357
a(g259
g259
g259
g5
g5
tp358
a(S'and'
p359
S'and'
p360
S'CC'
p361
g5
g5
tp362
a(S'clinical'
p363
S'clinical'
p364
S'JJ'
p365
S'B-NP'
p366
g5
tp367
a(S'assessment'
p368
S'assessment'
p369
S'NN'
p370
S'I-NP'
p371
g5
tp372
a(S'and'
p373
S'and'
p374
S'CC'
p375
g5
g5
tp376
a(S'also'
p377
S'also'
p378
S'RB'
p379
S'B-VP'
p380
g5
tp381
a(S'trained'
p382
S'train'
p383
S'VBN'
p384
S'I-VP'
p385
g5
tp386
a(S'in'
p387
S'in'
p388
S'IN'
p389
S'B-PP'
p390
g5
tp391
a(S'providing'
p392
S'provide'
p393
S'VBG'
p394
S'B-VP'
p395
g5
tp396
a(S'psychologically'
p397
S'psychologically'
p398
S'RB'
p399
S'B-NP'
p400
g5
tp401
a(S'informed'
p402
S'inform'
p403
S'VBN'
p404
S'I-NP'
p405
g5
tp406
a(S'sessions'
p407
S'session'
p408
S'NNS'
p409
S'I-NP'
p410
g5
tp411
a(S'based'
p412
S'base'
p413
S'VBN'
p414
S'B-PP'
p415
g5
tp416
a(S'on'
p417
S'on'
p418
S'IN'
p419
S'B-PP'
p420
g5
tp421
a(S'cognitive'
p422
S'cognitive'
p423
S'JJ'
p424
S'B-NP'
p425
g5
tp426
a(S'behavioural'
p427
S'behavioural'
p428
S'NN'
p429
S'I-NP'
p430
g5
tp431
a(S'or'
p432
S'or'
p433
S'CC'
p434
S'I-NP'
p435
g5
tp436
a(S'person'
p437
S'person'
p438
S'NN'
p439
S'I-NP'
p440
g5
tp441
a(S'centred'
p442
S'centred'
p443
S'JJ'
p444
S'I-NP'
p445
g5
tp446
a(S'principles'
p447
S'principle'
p448
S'NNS'
p449
S'I-NP'
p450
g5
tp451
a(S'for'
p452
S'for'
p453
S'IN'
p454
S'B-PP'
p455
g5
tp456
a(S'an'
p457
S'an'
p458
S'DT'
p459
S'B-NP'
p460
g5
tp461
a(S'hour'
p462
S'hour'
p463
S'NN'
p464
S'I-NP'
p465
g5
tp466
a(S'a'
p467
g467
S'DT'
p468
S'B-NP'
p469
g5
tp470
a(S'week'
p471
S'week'
p472
S'NN'
p473
S'I-NP'
p474
g5
tp475
a(S'for'
p476
S'for'
p477
S'IN'
p478
S'B-PP'
p479
g5
tp480
a(S'eight'
p481
S'eight'
p482
S'CD'
p483
S'B-NP'
p484
g5
tp485
a(S'weeks.'
p486
S'weeks.'
p487
S'NNS'
p488
S'I-NP'
p489
g5
tp490
a(S'Health'
p491
S'Health'
p492
S'NNP'
p493
S'B-NP'
p494
g5
tp495
a(S'visitors'
p496
S'visitor'
p497
S'NNS'
p498
S'I-NP'
p499
g5
tp500
a(S'in'
p501
S'in'
p502
S'IN'
p503
S'B-PP'
p504
g5
tp505
a(S'the'
p506
S'the'
p507
S'DT'
p508
S'B-NP'
p509
g5
tp510
a(S'control'
p511
S'control'
p512
S'NN'
p513
S'I-NP'
p514
g5
tp515
a(S'group'
p516
S'group'
p517
S'NN'
p518
S'I-NP'
p519
g5
tp520
a(g242
g242
g242
g5
g5
tp521
a(S'n=49'
p522
S'n=49'
p523
S'NN'
p524
S'B-NP'
p525
g5
tp526
a(S'38'
p527
S'38'
p528
S'CD'
p529
S'B-NP'
p530
g5
tp531
a(S'clusters'
p532
S'cluster'
p533
S'NNS'
p534
S'I-NP'
p535
g5
tp536
a(g259
g259
g259
g5
g5
tp537
a(S'provided'
p538
S'provide'
p539
S'VBD'
p540
S'B-VP'
p541
g5
tp542
a(S'usual'
p543
S'usual'
p544
S'JJ'
p545
S'B-NP'
p546
g5
tp547
a(S'care.'
p548
S'care.'
p549
S'NN'
p550
S'I-NP'
p551
g5
tp552
a(S'MAIN'
p553
S'MAIN'
p554
S'NNP'
p555
S'B-NP'
p556
g5
tp557
a(S'OUTCOME'
p558
S'OUTCOME'
p559
S'NNP'
p560
S'I-NP'
p561
g5
tp562
a(S'MEASURES'
p563
S'MEASURES'
p564
S'NNP'
p565
S'I-NP'
p566
g5
tp567
a(g7
g7
g7
g5
g5
tp568
a(S'Score'
p569
S'Score'
p570
S'NN'
p571
S'B-NP'
p572
g5
tp573
a(S'>'
p574
g574
S'JJ'
p575
S'I-NP'
p576
g5
tp577
a(S'or=12'
p578
S'or=12'
p579
S'NN'
p580
S'I-NP'
p581
g5
tp582
a(S'on'
p583
S'on'
p584
S'IN'
p585
S'B-PP'
p586
g5
tp587
a(S'the'
p588
S'the'
p589
S'DT'
p590
S'B-NP'
p591
g5
tp592
a(S'Edinburgh'
p593
S'Edinburgh'
p594
S'NNP'
p595
S'I-NP'
p596
g5
tp597
a(S'postnatal'
p598
S'postnatal'
p599
S'JJ'
p600
S'I-NP'
p601
g5
tp602
a(S'depression'
p603
S'depression'
p604
S'NN'
p605
S'I-NP'
p606
g5
tp607
a(S'scale'
p608
S'scale'
p609
S'NN'
p610
S'I-NP'
p611
g5
tp612
a(S'at'
p613
S'at'
p614
S'IN'
p615
S'B-PP'
p616
g5
tp617
a(S'six'
p618
S'six'
p619
S'CD'
p620
S'B-NP'
p621
g5
tp622
a(S'months.'
p623
S'months.'
p624
S'NNS'
p625
S'I-NP'
p626
g5
tp627
a(S'Secondary'
p628
S'Secondary'
p629
S'JJ'
p630
S'B-NP'
p631
g5
tp632
a(S'outcomes'
p633
S'outcome'
p634
S'NNS'
p635
S'I-NP'
p636
g5
tp637
a(S'were'
p638
S'be'
p639
S'VBD'
p640
S'B-VP'
p641
g5
tp642
a(S'mean'
p643
S'mean'
p644
S'JJ'
p645
S'B-NP'
p646
g5
tp647
a(S'Edinburgh'
p648
S'Edinburgh'
p649
S'NNP'
p650
S'I-NP'
p651
g5
tp652
a(S'postnatal'
p653
S'postnatal'
p654
S'JJ'
p655
S'I-NP'
p656
g5
tp657
a(S'depression'
p658
S'depression'
p659
S'NN'
p660
S'I-NP'
p661
g5
tp662
a(S'scale'
p663
S'scale'
p664
S'NN'
p665
S'I-NP'
p666
g5
tp667
a(g120
g120
g120
g5
g5
tp668
a(S'clinical'
p669
S'clinical'
p670
S'JJ'
p671
S'B-NP'
p672
g5
tp673
a(S'outcomes'
p674
S'outcome'
p675
S'NNS'
p676
S'I-NP'
p677
g5
tp678
a(S'in'
p679
S'in'
p680
S'IN'
p681
S'B-PP'
p682
g5
tp683
a(S'routine'
p684
S'routine'
p685
S'JJ'
p686
S'B-NP'
p687
g5
tp688
a(S'evaluation-outcome'
p689
S'evaluation-outcome'
p690
S'NN'
p691
S'I-NP'
p692
g5
tp693
a(S'measure'
p694
S'measure'
p695
S'NN'
p696
S'I-NP'
p697
g5
tp698
a(g242
g242
g242
g5
g5
tp699
a(S'CORE-OM'
p700
S'CORE-OM'
p701
S'NN'
p702
S'B-NP'
p703
g5
tp704
a(g259
g259
g259
g5
g5
tp705
a(g120
g120
g120
g5
g5
tp706
a(S'state-trait'
p707
S'state-trait'
p708
S'JJ'
p709
S'B-NP'
p710
g5
tp711
a(S'anxiety'
p712
S'anxiety'
p713
S'NN'
p714
S'I-NP'
p715
g5
tp716
a(S'inventory'
p717
S'inventory'
p718
S'NN'
p719
S'I-NP'
p720
g5
tp721
a(g242
g242
g242
g5
g5
tp722
a(S'STAI'
p723
S'STAI'
p724
S'NN'
p725
S'B-NP'
p726
S'B-protein'
p727
tp728
a(g259
g259
g259
g5
g5
tp729
a(g120
g120
g120
g5
g5
tp730
a(S'SF-12'
p731
S'SF-12'
p732
S'NN'
p733
S'B-NP'
p734
S'B-protein'
p735
tp736
a(g120
g120
g120
g5
g5
tp737
a(S'and'
p738
S'and'
p739
S'CC'
p740
g5
g5
tp741
a(S'parenting'
p742
S'parent'
p743
S'VBG'
p744
S'B-VP'
p745
g5
tp746
a(S'stress'
p747
S'stress'
p748
S'NN'
p749
S'B-NP'
p750
g5
tp751
a(S'index'
p752
S'index'
p753
S'NN'
p754
S'I-NP'
p755
g5
tp756
a(S'short'
p757
S'short'
p758
S'JJ'
p759
S'I-NP'
p760
g5
tp761
a(S'form'
p762
S'form'
p763
S'NN'
p764
S'I-NP'
p765
g5
tp766
a(g242
g242
g242
g5
g5
tp767
a(S'PSI-SF'
p768
S'PSI-SF'
p769
S'NN'
p770
S'B-NP'
p771
S'B-protein'
p772
tp773
a(g259
g259
g259
g5
g5
tp774
a(S'scores'
p775
S'score'
p776
S'NNS'
p777
S'B-NP'
p778
g5
tp779
a(S'at'
p780
S'at'
p781
S'IN'
p782
S'B-PP'
p783
g5
tp784
a(S'six'
p785
S'six'
p786
S'CD'
p787
S'B-NP'
p788
g5
tp789
a(g120
g120
g120
S'I-NP'
p790
g5
tp791
a(S'12'
p792
S'12'
p793
S'CD'
p794
S'I-NP'
p795
g5
tp796
a(g120
g120
g120
S'I-NP'
p797
g5
tp798
a(S'18'
p799
S'18'
p800
S'CD'
p801
S'I-NP'
p802
g5
tp803
a(S'months.'
p804
S'months.'
p805
S'NNS'
p806
S'I-NP'
p807
g5
tp808
a(S'RESULTS'
p809
S'RESULTS'
p810
S'NNS'
p811
S'B-NP'
p812
g5
tp813
a(g7
g7
g7
g5
g5
tp814
a(S'4084'
p815
S'4084'
p816
S'CD'
p817
S'B-NP'
p818
g5
tp819
a(S'eligible'
p820
S'eligible'
p821
S'JJ'
p822
S'I-NP'
p823
g5
tp824
a(S'women'
p825
S'woman'
p826
S'NNS'
p827
S'I-NP'
p828
g5
tp829
a(S'consented'
p830
S'consent'
p831
S'VBD'
p832
S'B-VP'
p833
g5
tp834
a(S'and'
p835
S'and'
p836
S'CC'
p837
g5
g5
tp838
a(S'595'
p839
S'595'
p840
S'CD'
p841
S'B-NP'
p842
g5
tp843
a(S'women'
p844
S'woman'
p845
S'NNS'
p846
S'I-NP'
p847
g5
tp848
a(S'had'
p849
S'have'
p850
S'VBD'
p851
S'B-VP'
p852
g5
tp853
a(g467
g467
S'DT'
p854
S'B-NP'
p855
g5
tp856
a(S'six'
p857
S'six'
p858
S'CD'
p859
S'I-NP'
p860
g5
tp861
a(S'week'
p862
S'week'
p863
S'NN'
p864
S'I-NP'
p865
g5
tp866
a(S'EPDS'
p867
S'EPDS'
p868
S'NN'
p869
S'I-NP'
p870
g5
tp871
a(S'score'
p872
S'score'
p873
S'NN'
p874
S'I-NP'
p875
g5
tp876
a(g574
g574
S'SYM'
p877
S'B-VP'
p878
g5
tp879
a(S'or=12.'
p880
S'or=12.'
p881
S'NN'
p882
S'B-NP'
p883
g5
tp884
a(S'Of'
p885
S'Of'
p886
S'IN'
p887
S'B-PP'
p888
g5
tp889
a(S'these'
p890
S'these'
p891
S'DT'
p892
S'B-NP'
p893
g5
tp894
a(g120
g120
g120
g5
g5
tp895
a(S'418'
p896
S'418'
p897
S'CD'
p898
S'B-NP'
p899
g5
tp900
a(S'had'
p901
S'have'
p902
S'VBD'
p903
S'B-VP'
p904
g5
tp905
a(S'EPDS'
p906
S'EPDS'
p907
S'NN'
p908
S'B-NP'
p909
g5
tp910
a(S'scores'
p911
S'score'
p912
S'NNS'
p913
S'I-NP'
p914
g5
tp915
a(S'available'
p916
S'available'
p917
S'JJ'
p918
S'B-ADJP'
p919
g5
tp920
a(S'at'
p921
S'at'
p922
S'IN'
p923
S'B-PP'
p924
g5
tp925
a(S'six'
p926
S'six'
p927
S'CD'
p928
S'B-NP'
p929
g5
tp930
a(S'weeks'
p931
S'week'
p932
S'NNS'
p933
S'I-NP'
p934
g5
tp935
a(S'and'
p936
S'and'
p937
S'CC'
p938
g5
g5
tp939
a(S'six'
p940
S'six'
p941
S'CD'
p942
S'B-NP'
p943
g5
tp944
a(S'months.'
p945
S'months.'
p946
S'NNS'
p947
S'I-NP'
p948
g5
tp949
a(S'At'
p950
S'At'
p951
S'IN'
p952
S'B-PP'
p953
g5
tp954
a(S'six'
p955
S'six'
p956
S'CD'
p957
S'B-NP'
p958
g5
tp959
a(S'months'
p960
S'month'
p961
S'NNS'
p962
S'I-NP'
p963
g5
tp964
a(g120
g120
g120
g5
g5
tp965
a(S'34'
p966
S'34'
p967
S'CD'
p968
S'B-NP'
p969
g5
tp970
a(S'%'
p971
g971
S'NN'
p972
S'I-NP'
p973
g5
tp974
a(S'women'
p975
S'woman'
p976
S'NNS'
p977
S'I-NP'
p978
g5
tp979
a(g242
g242
g242
g5
g5
tp980
a(S'93/271'
p981
S'93/271'
p982
S'CD'
p983
S'B-NP'
p984
g5
tp985
a(g259
g259
g259
g5
g5
tp986
a(S'in'
p987
S'in'
p988
S'IN'
p989
S'B-PP'
p990
g5
tp991
a(S'the'
p992
S'the'
p993
S'DT'
p994
S'B-NP'
p995
g5
tp996
a(S'intervention'
p997
S'intervention'
p998
S'NN'
p999
S'I-NP'
p1000
g5
tp1001
a(S'group'
p1002
S'group'
p1003
S'NN'
p1004
S'I-NP'
p1005
g5
tp1006
a(S'and'
p1007
S'and'
p1008
S'CC'
p1009
g5
g5
tp1010
a(S'46'
p1011
S'46'
p1012
S'CD'
p1013
S'B-NP'
p1014
g5
tp1015
a(g971
g971
S'NN'
p1016
S'I-NP'
p1017
g5
tp1018
a(g242
g242
g242
g5
g5
tp1019
a(S'67/147'
p1020
S'67/147'
p1021
S'CD'
p1022
S'B-NP'
p1023
g5
tp1024
a(g259
g259
g259
g5
g5
tp1025
a(S'in'
p1026
S'in'
p1027
S'IN'
p1028
S'B-PP'
p1029
g5
tp1030
a(S'the'
p1031
S'the'
p1032
S'DT'
p1033
S'B-NP'
p1034
g5
tp1035
a(S'control'
p1036
S'control'
p1037
S'NN'
p1038
S'I-NP'
p1039
g5
tp1040
a(S'group'
p1041
S'group'
p1042
S'NN'
p1043
S'I-NP'
p1044
g5
tp1045
a(S'had'
p1046
S'have'
p1047
S'VBD'
p1048
S'B-VP'
p1049
g5
tp1050
a(S'an'
p1051
S'an'
p1052
S'DT'
p1053
S'B-NP'
p1054
g5
tp1055
a(S'EPDS'
p1056
S'EPDS'
p1057
S'NN'
p1058
S'I-NP'
p1059
g5
tp1060
a(S'score'
p1061
S'score'
p1062
S'NN'
p1063
S'I-NP'
p1064
g5
tp1065
a(g574
g574
S'SYM'
p1066
S'B-VP'
p1067
g5
tp1068
a(S'or=12.'
p1069
S'or=12.'
p1070
S'NN'
p1071
S'B-NP'
p1072
g5
tp1073
a(S'The'
p1074
S'The'
p1075
S'DT'
p1076
S'B-NP'
p1077
g5
tp1078
a(S'odds'
p1079
S'odd'
p1080
S'NNS'
p1081
S'I-NP'
p1082
g5
tp1083
a(S'ratio'
p1084
S'ratio'
p1085
S'NN'
p1086
S'I-NP'
p1087
g5
tp1088
a(S'for'
p1089
S'for'
p1090
S'IN'
p1091
S'B-PP'
p1092
g5
tp1093
a(S'score'
p1094
S'score'
p1095
S'NN'
p1096
S'B-NP'
p1097
g5
tp1098
a(g574
g574
S'SYM'
p1099
S'B-NP'
p1100
g5
tp1101
a(S'or=12'
p1102
S'or=12'
p1103
S'NN'
p1104
S'I-NP'
p1105
g5
tp1106
a(S'at'
p1107
S'at'
p1108
S'IN'
p1109
S'B-PP'
p1110
g5
tp1111
a(S'six'
p1112
S'six'
p1113
S'CD'
p1114
S'B-NP'
p1115
g5
tp1116
a(S'months'
p1117
S'month'
p1118
S'NNS'
p1119
S'I-NP'
p1120
g5
tp1121
a(S'was'
p1122
S'be'
p1123
S'VBD'
p1124
S'B-VP'
p1125
g5
tp1126
a(S'0.62'
p1127
S'0.62'
p1128
S'CD'
p1129
S'B-NP'
p1130
g5
tp1131
a(g242
g242
g242
g5
g5
tp1132
a(S'95'
p1133
S'95'
p1134
S'CD'
p1135
S'B-NP'
p1136
g5
tp1137
a(g971
g971
S'NN'
p1138
S'I-NP'
p1139
g5
tp1140
a(S'confidence'
p1141
S'confidence'
p1142
S'NN'
p1143
S'I-NP'
p1144
g5
tp1145
a(S'interval'
p1146
S'interval'
p1147
S'NN'
p1148
S'I-NP'
p1149
g5
tp1150
a(S'0.40'
p1151
S'0.40'
p1152
S'CD'
p1153
S'I-NP'
p1154
g5
tp1155
a(S'to'
p1156
S'to'
p1157
S'TO'
p1158
S'B-PP'
p1159
g5
tp1160
a(S'0.97'
p1161
S'0.97'
p1162
S'CD'
p1163
S'B-NP'
p1164
g5
tp1165
a(g120
g120
g120
g5
g5
tp1166
a(S'P=0.036'
p1167
S'P=0.036'
p1168
S'NN'
p1169
S'B-NP'
p1170
g5
tp1171
a(g259
g259
g259
g5
g5
tp1172
a(S'for'
p1173
S'for'
p1174
S'IN'
p1175
S'B-PP'
p1176
g5
tp1177
a(S'women'
p1178
S'woman'
p1179
S'NNS'
p1180
S'B-NP'
p1181
g5
tp1182
a(S'in'
p1183
S'in'
p1184
S'IN'
p1185
S'B-PP'
p1186
g5
tp1187
a(S'the'
p1188
S'the'
p1189
S'DT'
p1190
S'B-NP'
p1191
g5
tp1192
a(S'intervention'
p1193
S'intervention'
p1194
S'NN'
p1195
S'I-NP'
p1196
g5
tp1197
a(S'group'
p1198
S'group'
p1199
S'NN'
p1200
S'I-NP'
p1201
g5
tp1202
a(S'compared'
p1203
S'compare'
p1204
S'VBN'
p1205
S'B-PP'
p1206
g5
tp1207
a(S'with'
p1208
S'with'
p1209
S'IN'
p1210
S'B-PP'
p1211
g5
tp1212
a(S'women'
p1213
S'woman'
p1214
S'NNS'
p1215
S'B-NP'
p1216
g5
tp1217
a(S'in'
p1218
S'in'
p1219
S'IN'
p1220
S'B-PP'
p1221
g5
tp1222
a(S'the'
p1223
S'the'
p1224
S'DT'
p1225
S'B-NP'
p1226
g5
tp1227
a(S'control'
p1228
S'control'
p1229
S'NN'
p1230
S'I-NP'
p1231
g5
tp1232
a(S'group.'
p1233
S'group.'
p1234
S'NN'
p1235
S'I-NP'
p1236
g5
tp1237
a(S'After'
p1238
S'After'
p1239
S'IN'
p1240
S'B-PP'
p1241
g5
tp1242
a(S'adjustment'
p1243
S'adjustment'
p1244
S'NN'
p1245
S'B-NP'
p1246
g5
tp1247
a(S'for'
p1248
S'for'
p1249
S'IN'
p1250
S'B-PP'
p1251
g5
tp1252
a(S'covariates'
p1253
S'covariate'
p1254
S'NNS'
p1255
S'B-NP'
p1256
g5
tp1257
a(g120
g120
g120
g5
g5
tp1258
a(S'the'
p1259
S'the'
p1260
S'DT'
p1261
S'B-NP'
p1262
g5
tp1263
a(S'odds'
p1264
S'odd'
p1265
S'NNS'
p1266
S'I-NP'
p1267
g5
tp1268
a(S'ratio'
p1269
S'ratio'
p1270
S'NN'
p1271
S'I-NP'
p1272
g5
tp1273
a(S'was'
p1274
S'be'
p1275
S'VBD'
p1276
S'B-VP'
p1277
g5
tp1278
a(S'0.60'
p1279
S'0.60'
p1280
S'CD'
p1281
S'B-NP'
p1282
g5
tp1283
a(g242
g242
g242
g5
g5
tp1284
a(S'0.38'
p1285
S'0.38'
p1286
S'CD'
p1287
S'B-NP'
p1288
g5
tp1289
a(S'to'
p1290
S'to'
p1291
S'TO'
p1292
g5
g5
tp1293
a(S'0.95'
p1294
S'0.95'
p1295
S'CD'
p1296
S'B-NP'
p1297
g5
tp1298
a(g120
g120
g120
g5
g5
tp1299
a(S'P=0.028'
p1300
S'P=0.028'
p1301
S'NN'
p1302
S'B-NP'
p1303
g5
tp1304
a(g259
g259
g259
g5
g5
tp1305
a(S'.'
p1306
g1306
g1306
g5
g5
tp1307
a(S'At'
p1308
S'At'
p1309
S'IN'
p1310
S'B-PP'
p1311
g5
tp1312
a(S'six'
p1313
S'six'
p1314
S'CD'
p1315
S'B-NP'
p1316
g5
tp1317
a(S'months'
p1318
S'month'
p1319
S'NNS'
p1320
S'I-NP'
p1321
g5
tp1322
a(g120
g120
g120
g5
g5
tp1323
a(S'12.4'
p1324
S'12.4'
p1325
S'CD'
p1326
S'B-NP'
p1327
g5
tp1328
a(g971
g971
S'NN'
p1329
S'I-NP'
p1330
g5
tp1331
a(g242
g242
g242
g5
g5
tp1332
a(S'234/1880'
p1333
S'234/1880'
p1334
S'CD'
p1335
S'B-NP'
p1336
g5
tp1337
a(g259
g259
g259
g5
g5
tp1338
a(S'of'
p1339
S'of'
p1340
S'IN'
p1341
S'B-PP'
p1342
g5
tp1343
a(S'all'
p1344
S'all'
p1345
S'DT'
p1346
S'B-NP'
p1347
g5
tp1348
a(S'women'
p1349
S'woman'
p1350
S'NNS'
p1351
S'I-NP'
p1352
g5
tp1353
a(S'in'
p1354
S'in'
p1355
S'IN'
p1356
S'B-PP'
p1357
g5
tp1358
a(S'the'
p1359
S'the'
p1360
S'DT'
p1361
S'B-NP'
p1362
g5
tp1363
a(S'intervention'
p1364
S'intervention'
p1365
S'NN'
p1366
S'I-NP'
p1367
g5
tp1368
a(S'group'
p1369
S'group'
p1370
S'NN'
p1371
S'I-NP'
p1372
g5
tp1373
a(S'and'
p1374
S'and'
p1375
S'CC'
p1376
g5
g5
tp1377
a(S'16.7'
p1378
S'16.7'
p1379
S'CD'
p1380
S'B-NP'
p1381
g5
tp1382
a(g971
g971
S'NN'
p1383
S'I-NP'
p1384
g5
tp1385
a(g242
g242
g242
g5
g5
tp1386
a(S'166/995'
p1387
S'166/995'
p1388
S'CD'
p1389
S'B-NP'
p1390
g5
tp1391
a(g259
g259
g259
g5
g5
tp1392
a(S'of'
p1393
S'of'
p1394
S'IN'
p1395
S'B-PP'
p1396
g5
tp1397
a(S'all'
p1398
S'all'
p1399
S'DT'
p1400
S'B-NP'
p1401
g5
tp1402
a(S'women'
p1403
S'woman'
p1404
S'NNS'
p1405
S'I-NP'
p1406
g5
tp1407
a(S'in'
p1408
S'in'
p1409
S'IN'
p1410
S'B-PP'
p1411
g5
tp1412
a(S'the'
p1413
S'the'
p1414
S'DT'
p1415
S'B-NP'
p1416
g5
tp1417
a(S'control'
p1418
S'control'
p1419
S'NN'
p1420
S'I-NP'
p1421
g5
tp1422
a(S'group'
p1423
S'group'
p1424
S'NN'
p1425
S'I-NP'
p1426
g5
tp1427
a(S'had'
p1428
S'have'
p1429
S'VBD'
p1430
S'B-VP'
p1431
g5
tp1432
a(S'scores'
p1433
S'score'
p1434
S'NNS'
p1435
S'B-NP'
p1436
g5
tp1437
a(g574
g574
S'SYM'
p1438
g5
g5
tp1439
a(S'or=12'
p1440
S'or=12'
p1441
S'NN'
p1442
S'B-NP'
p1443
g5
tp1444
a(g242
g242
g242
g5
g5
tp1445
a(S'0.67'
p1446
S'0.67'
p1447
S'CD'
p1448
S'B-NP'
p1449
g5
tp1450
a(g120
g120
g120
g5
g5
tp1451
a(S'0.51'
p1452
S'0.51'
p1453
S'CD'
p1454
S'B-NP'
p1455
g5
tp1456
a(S'to'
p1457
S'to'
p1458
S'TO'
p1459
S'B-PP'
p1460
g5
tp1461
a(S'0.87'
p1462
S'0.87'
p1463
S'CD'
p1464
S'B-NP'
p1465
g5
tp1466
a(g120
g120
g120
g5
g5
tp1467
a(S'P=0.003'
p1468
S'P=0.003'
p1469
S'NN'
p1470
S'B-NP'
p1471
g5
tp1472
a(g259
g259
g259
g5
g5
tp1473
a(g1306
g1306
g1306
g5
g5
tp1474
a(S'Benefit'
p1475
S'Benefit'
p1476
S'NN'
p1477
S'B-NP'
p1478
g5
tp1479
a(S'for'
p1480
S'for'
p1481
S'IN'
p1482
S'B-PP'
p1483
g5
tp1484
a(S'women'
p1485
S'woman'
p1486
S'NNS'
p1487
S'B-NP'
p1488
g5
tp1489
a(S'in'
p1490
S'in'
p1491
S'IN'
p1492
S'B-PP'
p1493
g5
tp1494
a(S'the'
p1495
S'the'
p1496
S'DT'
p1497
S'B-NP'
p1498
g5
tp1499
a(S'intervention'
p1500
S'intervention'
p1501
S'NN'
p1502
S'I-NP'
p1503
g5
tp1504
a(S'group'
p1505
S'group'
p1506
S'NN'
p1507
S'I-NP'
p1508
g5
tp1509
a(S'with'
p1510
S'with'
p1511
S'IN'
p1512
S'B-PP'
p1513
g5
tp1514
a(g467
g467
S'DT'
p1515
S'B-NP'
p1516
g5
tp1517
a(S'six'
p1518
S'six'
p1519
S'CD'
p1520
S'I-NP'
p1521
g5
tp1522
a(S'week'
p1523
S'week'
p1524
S'NN'
p1525
S'I-NP'
p1526
g5
tp1527
a(S'EPDS'
p1528
S'EPDS'
p1529
S'NN'
p1530
S'I-NP'
p1531
g5
tp1532
a(S'score'
p1533
S'score'
p1534
S'NN'
p1535
S'I-NP'
p1536
g5
tp1537
a(g574
g574
S'SYM'
p1538
S'B-NP'
p1539
g5
tp1540
a(S'or=12'
p1541
S'or=12'
p1542
S'NN'
p1543
S'I-NP'
p1544
g5
tp1545
a(S'and'
p1546
S'and'
p1547
S'CC'
p1548
S'B-PP'
p1549
g5
tp1550
a(S'for'
p1551
S'for'
p1552
S'IN'
p1553
S'B-PP'
p1554
g5
tp1555
a(S'all'
p1556
S'all'
p1557
S'DT'
p1558
S'B-NP'
p1559
g5
tp1560
a(S'women'
p1561
S'woman'
p1562
S'NNS'
p1563
S'I-NP'
p1564
g5
tp1565
a(S'was'
p1566
S'be'
p1567
S'VBD'
p1568
S'B-VP'
p1569
g5
tp1570
a(S'maintained'
p1571
S'maintain'
p1572
S'VBN'
p1573
S'I-VP'
p1574
g5
tp1575
a(S'at'
p1576
S'at'
p1577
S'IN'
p1578
S'B-PP'
p1579
g5
tp1580
a(S'12'
p1581
S'12'
p1582
S'CD'
p1583
S'B-NP'
p1584
g5
tp1585
a(S'months'
p1586
S'month'
p1587
S'NNS'
p1588
S'I-NP'
p1589
g5
tp1590
a(S'postnatally.'
p1591
S'postnatally.'
p1592
S'RB'
p1593
S'B-ADVP'
p1594
g5
tp1595
a(S'There'
p1596
S'There'
p1597
S'EX'
p1598
S'B-NP'
p1599
g5
tp1600
a(S'was'
p1601
S'be'
p1602
S'VBD'
p1603
S'B-VP'
p1604
g5
tp1605
a(S'no'
p1606
S'no'
p1607
S'DT'
p1608
S'B-NP'
p1609
g5
tp1610
a(S'differential'
p1611
S'differential'
p1612
S'JJ'
p1613
S'I-NP'
p1614
g5
tp1615
a(S'benefit'
p1616
S'benefit'
p1617
S'NN'
p1618
S'I-NP'
p1619
g5
tp1620
a(S'for'
p1621
S'for'
p1622
S'IN'
p1623
S'B-PP'
p1624
g5
tp1625
a(S'either'
p1626
S'either'
p1627
S'CC'
p1628
S'B-NP'
p1629
g5
tp1630
a(S'psychological'
p1631
S'psychological'
p1632
S'JJ'
p1633
S'I-NP'
p1634
g5
tp1635
a(S'approach'
p1636
S'approach'
p1637
S'NN'
p1638
S'I-NP'
p1639
g5
tp1640
a(S'over'
p1641
S'over'
p1642
S'IN'
p1643
S'B-PP'
p1644
g5
tp1645
a(S'the'
p1646
S'the'
p1647
S'DT'
p1648
S'B-NP'
p1649
g5
tp1650
a(S'other.'
p1651
S'other.'
p1652
S'NN'
p1653
S'I-NP'
p1654
g5
tp1655
a(S'CONCLUSION'
p1656
S'CONCLUSION'
p1657
S'NN'
p1658
S'B-NP'
p1659
g5
tp1660
a(g7
g7
g7
g5
g5
tp1661
a(S'Training'
p1662
S'Train'
p1663
S'VBG'
p1664
S'B-VP'
p1665
g5
tp1666
a(S'health'
p1667
S'health'
p1668
S'NN'
p1669
S'B-NP'
p1670
g5
tp1671
a(S'visitors'
p1672
S'visitor'
p1673
S'NNS'
p1674
S'I-NP'
p1675
g5
tp1676
a(S'to'
p1677
S'to'
p1678
S'TO'
p1679
S'B-VP'
p1680
g5
tp1681
a(S'assess'
p1682
S'assess'
p1683
S'VB'
p1684
S'I-VP'
p1685
g5
tp1686
a(S'women'
p1687
S'woman'
p1688
S'NNS'
p1689
S'B-NP'
p1690
g5
tp1691
a(g120
g120
g120
g5
g5
tp1692
a(S'identify'
p1693
S'identify'
p1694
S'VBP'
p1695
S'B-VP'
p1696
g5
tp1697
a(S'symptoms'
p1698
S'symptom'
p1699
S'NNS'
p1700
S'B-NP'
p1701
g5
tp1702
a(S'of'
p1703
S'of'
p1704
S'IN'
p1705
S'B-PP'
p1706
g5
tp1707
a(S'postnatal'
p1708
S'postnatal'
p1709
S'JJ'
p1710
S'B-NP'
p1711
g5
tp1712
a(S'depression'
p1713
S'depression'
p1714
S'NN'
p1715
S'I-NP'
p1716
g5
tp1717
a(g120
g120
g120
g5
g5
tp1718
a(S'and'
p1719
S'and'
p1720
S'CC'
p1721
g5
g5
tp1722
a(S'deliver'
p1723
S'deliver'
p1724
S'VB'
p1725
S'B-VP'
p1726
g5
tp1727
a(S'psychologically'
p1728
S'psychologically'
p1729
S'RB'
p1730
S'B-NP'
p1731
g5
tp1732
a(S'informed'
p1733
S'inform'
p1734
S'VBN'
p1735
S'I-NP'
p1736
g5
tp1737
a(S'sessions'
p1738
S'session'
p1739
S'NNS'
p1740
S'I-NP'
p1741
g5
tp1742
a(S'was'
p1743
S'be'
p1744
S'VBD'
p1745
S'B-VP'
p1746
g5
tp1747
a(S'clinically'
p1748
S'clinically'
p1749
S'RB'
p1750
S'B-ADJP'
p1751
g5
tp1752
a(S'effective'
p1753
S'effective'
p1754
S'JJ'
p1755
S'I-ADJP'
p1756
g5
tp1757
a(S'at'
p1758
S'at'
p1759
S'IN'
p1760
S'B-PP'
p1761
g5
tp1762
a(S'six'
p1763
S'six'
p1764
S'CD'
p1765
S'B-NP'
p1766
g5
tp1767
a(S'and'
p1768
S'and'
p1769
S'CC'
p1770
S'I-NP'
p1771
g5
tp1772
a(S'12'
p1773
S'12'
p1774
S'CD'
p1775
S'I-NP'
p1776
g5
tp1777
a(S'months'
p1778
S'month'
p1779
S'NNS'
p1780
S'I-NP'
p1781
g5
tp1782
a(S'postnatally'
p1783
S'postnatally'
p1784
S'RB'
p1785
S'B-ADVP'
p1786
g5
tp1787
a(S'compared'
p1788
S'compare'
p1789
S'VBN'
p1790
S'B-PP'
p1791
g5
tp1792
a(S'with'
p1793
S'with'
p1794
S'IN'
p1795
S'B-PP'
p1796
g5
tp1797
a(S'usual'
p1798
S'usual'
p1799
S'JJ'
p1800
S'B-NP'
p1801
g5
tp1802
a(S'care.'
p1803
S'care.'
p1804
S'NN'
p1805
S'I-NP'
p1806
g5
tp1807
a(S'TRIAL'
p1808
S'TRIAL'
p1809
S'NN'
p1810
S'B-NP'
p1811
g5
tp1812
a(S'REGISTRATION'
p1813
S'REGISTRATION'
p1814
S'NN'
p1815
S'I-NP'
p1816
g5
tp1817
a(g7
g7
g7
g5
g5
tp1818
a(S'ISRCTN92195776'
p1819
S'ISRCTN92195776'
p1820
S'NN'
p1821
S'B-NP'
p1822
g5
tp1823
a(g1306
g1306
g1306
g5
g5
tp1824
a.