(lp0
(S'OBJECTIVE'
p1
S'OBJECTIVE'
p2
S'NN'
p3
S'B-NP'
p4
S'O'
p5
tp6
a(S':'
p7
g7
g7
g5
g5
tp8
a(S'To'
p9
S'To'
p10
S'TO'
p11
S'B-VP'
p12
g5
tp13
a(S'assess'
p14
S'assess'
p15
S'VB'
p16
S'I-VP'
p17
g5
tp18
a(S'the'
p19
S'the'
p20
S'DT'
p21
S'B-NP'
p22
g5
tp23
a(S'efficacy'
p24
S'efficacy'
p25
S'NN'
p26
S'I-NP'
p27
g5
tp28
a(S'of'
p29
S'of'
p30
S'IN'
p31
S'B-PP'
p32
g5
tp33
a(S'an'
p34
S'an'
p35
S'DT'
p36
S'B-NP'
p37
g5
tp38
a(S'intervention'
p39
S'intervention'
p40
S'NN'
p41
S'I-NP'
p42
g5
tp43
a(S'designed'
p44
S'design'
p45
S'VBN'
p46
S'B-VP'
p47
g5
tp48
a(S'to'
p49
S'to'
p50
S'TO'
p51
S'B-VP'
p52
g5
tp53
a(S'improve'
p54
S'improve'
p55
S'VB'
p56
S'I-VP'
p57
g5
tp58
a(S'the'
p59
S'the'
p60
S'DT'
p61
S'B-NP'
p62
g5
tp63
a(S'mother-infant'
p64
S'mother-infant'
p65
S'NN'
p66
S'I-NP'
p67
g5
tp68
a(S'relationship'
p69
S'relationship'
p70
S'NN'
p71
S'I-NP'
p72
g5
tp73
a(S'and'
p74
S'and'
p75
S'CC'
p76
S'I-NP'
p77
g5
tp78
a(S'security'
p79
S'security'
p80
S'NN'
p81
S'I-NP'
p82
g5
tp83
a(S'of'
p84
S'of'
p85
S'IN'
p86
S'B-PP'
p87
g5
tp88
a(S'infant'
p89
S'infant'
p90
S'NN'
p91
S'B-NP'
p92
g5
tp93
a(S'attachment'
p94
S'attachment'
p95
S'NN'
p96
S'I-NP'
p97
g5
tp98
a(S'in'
p99
S'in'
p100
S'IN'
p101
S'B-PP'
p102
g5
tp103
a(S'a'
p104
g104
S'DT'
p105
S'B-NP'
p106
g5
tp107
a(S'South'
p108
S'South'
p109
S'JJ'
p110
S'I-NP'
p111
g5
tp112
a(S'African'
p113
S'African'
p114
S'JJ'
p115
S'I-NP'
p116
g5
tp117
a(S'peri-urban'
p118
S'peri-urban'
p119
S'JJ'
p120
S'I-NP'
p121
g5
tp122
a(S'settlement'
p123
S'settlement'
p124
S'NN'
p125
S'I-NP'
p126
g5
tp127
a(S'with'
p128
S'with'
p129
S'IN'
p130
S'B-PP'
p131
g5
tp132
a(S'marked'
p133
S'marked'
p134
S'JJ'
p135
S'B-NP'
p136
g5
tp137
a(S'adverse'
p138
S'adverse'
p139
S'JJ'
p140
S'I-NP'
p141
g5
tp142
a(S'socioeconomic'
p143
S'socioeconomic'
p144
S'JJ'
p145
S'I-NP'
p146
g5
tp147
a(S'circumstances.'
p148
S'circumstances.'
p149
S'NNS'
p150
S'I-NP'
p151
g5
tp152
a(S'DESIGN'
p153
S'DESIGN'
p154
S'NN'
p155
S'B-NP'
p156
g5
tp157
a(g7
g7
g7
g5
g5
tp158
a(S'Randomised'
p159
S'Randomise'
p160
S'VBN'
p161
S'B-VP'
p162
g5
tp163
a(S'controlled'
p164
S'control'
p165
S'VBN'
p166
S'B-NP'
p167
g5
tp168
a(S'trial.'
p169
S'trial.'
p170
S'NN'
p171
S'I-NP'
p172
g5
tp173
a(S'SETTING'
p174
S'SETTING'
p175
S'NN'
p176
S'B-NP'
p177
g5
tp178
a(g7
g7
g7
g5
g5
tp179
a(S'Khayelitsha'
p180
S'Khayelitsha'
p181
S'NN'
p182
S'B-NP'
p183
g5
tp184
a(S','
p185
g185
g185
g5
g5
tp186
a(g104
g104
S'DT'
p187
S'B-NP'
p188
g5
tp189
a(S'peri-urban'
p190
S'peri-urban'
p191
S'JJ'
p192
S'I-NP'
p193
S'B-DNA'
p194
tp195
a(S'settlement'
p196
S'settlement'
p197
S'NN'
p198
S'I-NP'
p199
S'I-DNA'
p200
tp201
a(S'in'
p202
S'in'
p203
S'IN'
p204
S'B-PP'
p205
g5
tp206
a(S'South'
p207
S'South'
p208
S'NNP'
p209
S'B-NP'
p210
g5
tp211
a(S'Africa.'
p212
S'Africa.'
p213
S'NNP'
p214
S'I-NP'
p215
g5
tp216
a(S'PARTICIPANTS'
p217
S'PARTICIPANTS'
p218
S'NNS'
p219
S'B-NP'
p220
g5
tp221
a(g7
g7
g7
g5
g5
tp222
a(S'449'
p223
S'449'
p224
S'CD'
p225
S'B-NP'
p226
g5
tp227
a(S'pregnant'
p228
S'pregnant'
p229
S'JJ'
p230
S'I-NP'
p231
g5
tp232
a(S'women.'
p233
S'women.'
p234
S'NNS'
p235
S'I-NP'
p236
g5
tp237
a(S'INTERVENTIONS'
p238
S'INTERVENTIONS'
p239
S'NNS'
p240
S'B-NP'
p241
g5
tp242
a(g7
g7
g7
g5
g5
tp243
a(S'The'
p244
S'The'
p245
S'DT'
p246
S'B-NP'
p247
g5
tp248
a(S'intervention'
p249
S'intervention'
p250
S'NN'
p251
S'I-NP'
p252
g5
tp253
a(S'was'
p254
S'be'
p255
S'VBD'
p256
S'B-VP'
p257
g5
tp258
a(S'delivered'
p259
S'deliver'
p260
S'VBN'
p261
S'I-VP'
p262
g5
tp263
a(S'from'
p264
S'from'
p265
S'IN'
p266
S'B-PP'
p267
g5
tp268
a(S'late'
p269
S'late'
p270
S'JJ'
p271
S'B-NP'
p272
g5
tp273
a(S'pregnancy'
p274
S'pregnancy'
p275
S'NN'
p276
S'I-NP'
p277
g5
tp278
a(S'and'
p279
S'and'
p280
S'CC'
p281
S'B-PP'
p282
g5
tp283
a(S'for'
p284
S'for'
p285
S'IN'
p286
S'B-PP'
p287
g5
tp288
a(S'six'
p289
S'six'
p290
S'CD'
p291
S'B-NP'
p292
g5
tp293
a(S'months'
p294
S'month'
p295
S'NNS'
p296
S'I-NP'
p297
g5
tp298
a(S'postpartum.'
p299
S'postpartum.'
p300
S'RB'
p301
S'B-ADVP'
p302
g5
tp303
a(S'Women'
p304
S'Woman'
p305
S'NNS'
p306
S'B-NP'
p307
g5
tp308
a(S'were'
p309
S'be'
p310
S'VBD'
p311
S'B-VP'
p312
g5
tp313
a(S'visited'
p314
S'visit'
p315
S'VBN'
p316
S'I-VP'
p317
g5
tp318
a(S'in'
p319
S'in'
p320
S'IN'
p321
S'B-PP'
p322
g5
tp323
a(S'their'
p324
S'their'
p325
S'PRP$'
p326
S'B-NP'
p327
g5
tp328
a(S'homes'
p329
S'home'
p330
S'NNS'
p331
S'I-NP'
p332
g5
tp333
a(S'by'
p334
S'by'
p335
S'IN'
p336
S'B-PP'
p337
g5
tp338
a(S'previously'
p339
S'previously'
p340
S'RB'
p341
S'B-NP'
p342
g5
tp343
a(S'untrained'
p344
S'untrained'
p345
S'JJ'
p346
S'I-NP'
p347
g5
tp348
a(S'lay'
p349
S'lay'
p350
S'NN'
p351
S'I-NP'
p352
g5
tp353
a(S'community'
p354
S'community'
p355
S'NN'
p356
S'I-NP'
p357
g5
tp358
a(S'workers'
p359
S'worker'
p360
S'NNS'
p361
S'I-NP'
p362
g5
tp363
a(S'who'
p364
S'who'
p365
S'WP'
p366
S'B-NP'
p367
g5
tp368
a(S'provided'
p369
S'provide'
p370
S'VBD'
p371
S'B-VP'
p372
g5
tp373
a(S'support'
p374
S'support'
p375
S'NN'
p376
S'B-NP'
p377
g5
tp378
a(S'and'
p379
S'and'
p380
S'CC'
p381
S'I-NP'
p382
g5
tp383
a(S'guidance'
p384
S'guidance'
p385
S'NN'
p386
S'I-NP'
p387
g5
tp388
a(S'in'
p389
S'in'
p390
S'IN'
p391
S'B-PP'
p392
g5
tp393
a(S'parenting.'
p394
S'parenting.'
p395
S'NN'
p396
S'B-NP'
p397
g5
tp398
a(S'The'
p399
S'The'
p400
S'DT'
p401
S'B-NP'
p402
g5
tp403
a(S'purpose'
p404
S'purpose'
p405
S'NN'
p406
S'I-NP'
p407
g5
tp408
a(S'of'
p409
S'of'
p410
S'IN'
p411
S'B-PP'
p412
g5
tp413
a(S'the'
p414
S'the'
p415
S'DT'
p416
S'B-NP'
p417
g5
tp418
a(S'intervention'
p419
S'intervention'
p420
S'NN'
p421
S'I-NP'
p422
g5
tp423
a(S'was'
p424
S'be'
p425
S'VBD'
p426
S'B-VP'
p427
g5
tp428
a(S'to'
p429
S'to'
p430
S'TO'
p431
S'B-VP'
p432
g5
tp433
a(S'promote'
p434
S'promote'
p435
S'VB'
p436
S'I-VP'
p437
g5
tp438
a(S'sensitive'
p439
S'sensitive'
p440
S'JJ'
p441
S'B-NP'
p442
g5
tp443
a(S'and'
p444
S'and'
p445
S'CC'
p446
S'I-NP'
p447
g5
tp448
a(S'responsive'
p449
S'responsive'
p450
S'JJ'
p451
S'I-NP'
p452
g5
tp453
a(S'parenting'
p454
S'parenting'
p455
S'NN'
p456
S'I-NP'
p457
g5
tp458
a(S'and'
p459
S'and'
p460
S'CC'
p461
g5
g5
tp462
a(S'secure'
p463
S'secure'
p464
S'JJ'
p465
S'B-NP'
p466
g5
tp467
a(S'infant'
p468
S'infant'
p469
S'JJ'
p470
S'I-NP'
p471
g5
tp472
a(S'attachment'
p473
S'attachment'
p474
S'NN'
p475
S'I-NP'
p476
g5
tp477
a(S'to'
p478
S'to'
p479
S'TO'
p480
S'B-PP'
p481
g5
tp482
a(S'the'
p483
S'the'
p484
S'DT'
p485
S'B-NP'
p486
g5
tp487
a(S'mother.'
p488
S'mother.'
p489
S'NN'
p490
S'I-NP'
p491
g5
tp492
a(S'Women'
p493
S'Woman'
p494
S'NNS'
p495
S'B-NP'
p496
g5
tp497
a(S'in'
p498
S'in'
p499
S'IN'
p500
S'B-PP'
p501
g5
tp502
a(S'the'
p503
S'the'
p504
S'DT'
p505
S'B-NP'
p506
g5
tp507
a(S'control'
p508
S'control'
p509
S'NN'
p510
S'I-NP'
p511
g5
tp512
a(S'group'
p513
S'group'
p514
S'NN'
p515
S'I-NP'
p516
g5
tp517
a(S'received'
p518
S'receive'
p519
S'VBD'
p520
S'B-VP'
p521
g5
tp522
a(S'no'
p523
S'no'
p524
S'DT'
p525
S'B-NP'
p526
g5
tp527
a(S'therapeutic'
p528
S'therapeutic'
p529
S'JJ'
p530
S'I-NP'
p531
g5
tp532
a(S'input'
p533
S'input'
p534
S'NN'
p535
S'I-NP'
p536
g5
tp537
a(S'from'
p538
S'from'
p539
S'IN'
p540
S'B-PP'
p541
g5
tp542
a(S'the'
p543
S'the'
p544
S'DT'
p545
S'B-NP'
p546
g5
tp547
a(S'research'
p548
S'research'
p549
S'NN'
p550
S'I-NP'
p551
g5
tp552
a(S'team.'
p553
S'team.'
p554
S'NN'
p555
S'I-NP'
p556
g5
tp557
a(S'MAIN'
p558
S'MAIN'
p559
S'NNP'
p560
S'B-NP'
p561
g5
tp562
a(S'OUTCOME'
p563
S'OUTCOME'
p564
S'NNP'
p565
S'I-NP'
p566
g5
tp567
a(S'MEASURES'
p568
S'MEASURES'
p569
S'NNP'
p570
S'I-NP'
p571
g5
tp572
a(g7
g7
g7
g5
g5
tp573
a(S'Primary'
p574
S'Primary'
p575
S'JJ'
p576
S'B-NP'
p577
g5
tp578
a(S'outcomes'
p579
S'outcome'
p580
S'NNS'
p581
S'I-NP'
p582
g5
tp583
a(g7
g7
g7
g5
g5
tp584
a(S'quality'
p585
S'quality'
p586
S'NN'
p587
S'B-NP'
p588
g5
tp589
a(S'of'
p590
S'of'
p591
S'IN'
p592
S'B-PP'
p593
g5
tp594
a(S'mother-infant'
p595
S'mother-infant'
p596
S'JJ'
p597
S'B-NP'
p598
g5
tp599
a(S'interactions'
p600
S'interaction'
p601
S'NNS'
p602
S'I-NP'
p603
g5
tp604
a(S'at'
p605
S'at'
p606
S'IN'
p607
S'B-PP'
p608
g5
tp609
a(S'six'
p610
S'six'
p611
S'CD'
p612
S'B-NP'
p613
g5
tp614
a(S'and'
p615
S'and'
p616
S'CC'
p617
S'I-NP'
p618
g5
tp619
a(S'12'
p620
S'12'
p621
S'CD'
p622
S'I-NP'
p623
g5
tp624
a(S'months'
p625
S'month'
p626
S'NNS'
p627
S'I-NP'
p628
g5
tp629
a(S'postpartum'
p630
S'postpartum'
p631
S'NN'
p632
S'I-NP'
p633
g5
tp634
a(S';'
p635
g635
g7
g5
g5
tp636
a(S'infant'
p637
S'infant'
p638
S'NN'
p639
S'B-NP'
p640
g5
tp641
a(S'attachment'
p642
S'attachment'
p643
S'NN'
p644
S'I-NP'
p645
g5
tp646
a(S'security'
p647
S'security'
p648
S'NN'
p649
S'I-NP'
p650
g5
tp651
a(S'at'
p652
S'at'
p653
S'IN'
p654
S'B-PP'
p655
g5
tp656
a(S'18'
p657
S'18'
p658
S'CD'
p659
S'B-NP'
p660
g5
tp661
a(S'months.'
p662
S'months.'
p663
S'NNS'
p664
S'I-NP'
p665
g5
tp666
a(S'Secondary'
p667
S'Secondary'
p668
S'JJ'
p669
S'B-NP'
p670
g5
tp671
a(S'outcome'
p672
S'outcome'
p673
S'NN'
p674
S'I-NP'
p675
g5
tp676
a(g7
g7
g7
g5
g5
tp677
a(S'maternal'
p678
S'maternal'
p679
S'JJ'
p680
S'B-NP'
p681
g5
tp682
a(S'depression'
p683
S'depression'
p684
S'NN'
p685
S'I-NP'
p686
g5
tp687
a(S'at'
p688
S'at'
p689
S'IN'
p690
S'B-PP'
p691
g5
tp692
a(S'six'
p693
S'six'
p694
S'CD'
p695
S'B-NP'
p696
g5
tp697
a(S'and'
p698
S'and'
p699
S'CC'
p700
S'I-NP'
p701
g5
tp702
a(S'12'
p703
S'12'
p704
S'CD'
p705
S'I-NP'
p706
g5
tp707
a(S'months.'
p708
S'months.'
p709
S'NNS'
p710
S'I-NP'
p711
g5
tp712
a(S'RESULTS'
p713
S'RESULTS'
p714
S'NNS'
p715
S'B-NP'
p716
g5
tp717
a(g7
g7
g7
g5
g5
tp718
a(S'The'
p719
S'The'
p720
S'DT'
p721
S'B-NP'
p722
g5
tp723
a(S'intervention'
p724
S'intervention'
p725
S'NN'
p726
S'I-NP'
p727
g5
tp728
a(S'was'
p729
S'be'
p730
S'VBD'
p731
S'B-VP'
p732
g5
tp733
a(S'associated'
p734
S'associate'
p735
S'VBN'
p736
S'I-VP'
p737
g5
tp738
a(S'with'
p739
S'with'
p740
S'IN'
p741
S'B-PP'
p742
g5
tp743
a(S'significant'
p744
S'significant'
p745
S'JJ'
p746
S'B-NP'
p747
g5
tp748
a(S'benefit'
p749
S'benefit'
p750
S'NN'
p751
S'I-NP'
p752
g5
tp753
a(S'to'
p754
S'to'
p755
S'TO'
p756
S'B-PP'
p757
g5
tp758
a(S'the'
p759
S'the'
p760
S'DT'
p761
S'B-NP'
p762
g5
tp763
a(S'mother-infant'
p764
S'mother-infant'
p765
S'NN'
p766
S'I-NP'
p767
g5
tp768
a(S'relationship.'
p769
S'relationship.'
p770
S'NN'
p771
S'I-NP'
p772
g5
tp773
a(S'At'
p774
S'At'
p775
S'IN'
p776
S'B-PP'
p777
g5
tp778
a(S'both'
p779
S'both'
p780
S'DT'
p781
S'B-NP'
p782
g5
tp783
a(S'six'
p784
S'six'
p785
S'CD'
p786
S'I-NP'
p787
g5
tp788
a(S'and'
p789
S'and'
p790
S'CC'
p791
S'I-NP'
p792
g5
tp793
a(S'12'
p794
S'12'
p795
S'CD'
p796
S'I-NP'
p797
g5
tp798
a(S'months'
p799
S'month'
p800
S'NNS'
p801
S'I-NP'
p802
g5
tp803
a(g185
g185
g185
g5
g5
tp804
a(S'compared'
p805
S'compare'
p806
S'VBN'
p807
S'B-PP'
p808
g5
tp809
a(S'with'
p810
S'with'
p811
S'IN'
p812
S'B-PP'
p813
g5
tp814
a(S'control'
p815
S'control'
p816
S'NN'
p817
S'B-NP'
p818
g5
tp819
a(S'mothers'
p820
S'mother'
p821
S'NNS'
p822
S'I-NP'
p823
g5
tp824
a(g185
g185
g185
g5
g5
tp825
a(S'mothers'
p826
S'mother'
p827
S'NNS'
p828
S'B-NP'
p829
g5
tp830
a(S'in'
p831
S'in'
p832
S'IN'
p833
S'B-PP'
p834
g5
tp835
a(S'the'
p836
S'the'
p837
S'DT'
p838
S'B-NP'
p839
g5
tp840
a(S'intervention'
p841
S'intervention'
p842
S'NN'
p843
S'I-NP'
p844
g5
tp845
a(S'group'
p846
S'group'
p847
S'NN'
p848
S'I-NP'
p849
g5
tp850
a(S'were'
p851
S'be'
p852
S'VBD'
p853
S'B-VP'
p854
g5
tp855
a(S'significantly'
p856
S'significantly'
p857
S'RB'
p858
S'B-ADJP'
p859
g5
tp860
a(S'more'
p861
S'more'
p862
S'RBR'
p863
S'I-ADJP'
p864
g5
tp865
a(S'sensitive'
p866
S'sensitive'
p867
S'JJ'
p868
S'I-ADJP'
p869
g5
tp870
a(S'('
p871
g871
g871
g5
g5
tp872
a(S'6'
p873
g873
S'CD'
p874
S'B-NP'
p875
g5
tp876
a(S'months'
p877
S'month'
p878
S'NNS'
p879
S'I-NP'
p880
g5
tp881
a(g7
g7
g7
g5
g5
tp882
a(S'mean'
p883
S'mean'
p884
S'NN'
p885
S'B-NP'
p886
g5
tp887
a(S'difference=0.77'
p888
S'difference=0.77'
p889
S'CD'
p890
S'I-NP'
p891
g5
tp892
a(g871
g871
g871
g5
g5
tp893
a(S'SD'
p894
S'SD'
p895
S'NN'
p896
S'B-NP'
p897
g5
tp898
a(S'0.37'
p899
S'0.37'
p900
S'CD'
p901
S'I-NP'
p902
g5
tp903
a(S')'
p904
g904
g904
g5
g5
tp905
a(g185
g185
g185
g5
g5
tp906
a(S't=2.10'
p907
S't=2.10'
p908
S'NN'
p909
S'B-NP'
p910
S'B-protein'
p911
tp912
a(g185
g185
g185
g5
g5
tp913
a(S'P'
p914
g914
S'NN'
p915
S'B-NP'
p916
g5
tp917
a(S'<'
p918
g918
S'SYM'
p919
S'B-NP'
p920
g5
tp921
a(S'0.05'
p922
S'0.05'
p923
S'CD'
p924
S'I-NP'
p925
g5
tp926
a(g185
g185
g185
S'I-NP'
p927
g5
tp928
a(S'd=0.24'
p929
S'd=0.24'
p930
S'CD'
p931
S'I-NP'
p932
g5
tp933
a(g635
g635
g7
g5
g5
tp934
a(S'12'
p935
S'12'
p936
S'CD'
p937
S'B-NP'
p938
g5
tp939
a(S'months'
p940
S'month'
p941
S'NNS'
p942
S'I-NP'
p943
g5
tp944
a(g7
g7
g7
g5
g5
tp945
a(S'mean'
p946
S'mean'
p947
S'NN'
p948
S'B-NP'
p949
g5
tp950
a(S'difference=0.42'
p951
S'difference=0.42'
p952
S'CD'
p953
S'I-NP'
p954
g5
tp955
a(g871
g871
g871
g5
g5
tp956
a(S'0.18'
p957
S'0.18'
p958
S'CD'
p959
S'B-NP'
p960
g5
tp961
a(g904
g904
g904
g5
g5
tp962
a(g185
g185
g185
g5
g5
tp963
a(S't=-2.04'
p964
S't=-2.04'
p965
S'NN'
p966
S'B-NP'
p967
g5
tp968
a(g185
g185
g185
g5
g5
tp969
a(g914
g914
S'NN'
p970
S'B-NP'
p971
g5
tp972
a(g918
g918
S'SYM'
p973
S'B-NP'
p974
g5
tp975
a(S'0.05'
p976
S'0.05'
p977
S'CD'
p978
S'I-NP'
p979
g5
tp980
a(g185
g185
g185
S'I-NP'
p981
g5
tp982
a(S'd=0.26'
p983
S'd=0.26'
p984
S'NN'
p985
S'I-NP'
p986
g5
tp987
a(g904
g904
g904
g5
g5
tp988
a(S'and'
p989
S'and'
p990
S'CC'
p991
g5
g5
tp992
a(S'less'
p993
S'less'
p994
S'RBR'
p995
S'B-ADJP'
p996
g5
tp997
a(S'intrusive'
p998
S'intrusive'
p999
S'JJ'
p1000
S'I-ADJP'
p1001
g5
tp1002
a(g871
g871
g871
g5
g5
tp1003
a(g873
g873
S'CD'
p1004
S'B-NP'
p1005
g5
tp1006
a(S'months'
p1007
S'month'
p1008
S'NNS'
p1009
S'I-NP'
p1010
g5
tp1011
a(g7
g7
g7
g5
g5
tp1012
a(S'mean'
p1013
S'mean'
p1014
S'NN'
p1015
S'B-NP'
p1016
g5
tp1017
a(S'difference=0.68'
p1018
S'difference=0.68'
p1019
S'CD'
p1020
S'I-NP'
p1021
g5
tp1022
a(g871
g871
g871
g5
g5
tp1023
a(S'0.36'
p1024
S'0.36'
p1025
S'CD'
p1026
S'B-NP'
p1027
g5
tp1028
a(g904
g904
g904
g5
g5
tp1029
a(g185
g185
g185
g5
g5
tp1030
a(S't=2.28'
p1031
S't=2.28'
p1032
S'NN'
p1033
S'B-NP'
p1034
S'B-protein'
p1035
tp1036
a(g185
g185
g185
g5
g5
tp1037
a(g914
g914
S'NN'
p1038
S'B-NP'
p1039
g5
tp1040
a(g918
g918
S'SYM'
p1041
S'B-NP'
p1042
g5
tp1043
a(S'0.05'
p1044
S'0.05'
p1045
S'CD'
p1046
S'I-NP'
p1047
g5
tp1048
a(g185
g185
g185
S'I-NP'
p1049
g5
tp1050
a(S'd=0.26'
p1051
S'd=0.26'
p1052
S'CD'
p1053
S'I-NP'
p1054
g5
tp1055
a(g635
g635
g7
g5
g5
tp1056
a(S'12'
p1057
S'12'
p1058
S'CD'
p1059
S'B-NP'
p1060
g5
tp1061
a(S'months'
p1062
S'month'
p1063
S'NNS'
p1064
S'I-NP'
p1065
g5
tp1066
a(g7
g7
g7
g5
g5
tp1067
a(S'mean'
p1068
S'mean'
p1069
S'NN'
p1070
S'B-NP'
p1071
g5
tp1072
a(S'difference=-1.76'
p1073
S'difference=-1.76'
p1074
S'CD'
p1075
S'I-NP'
p1076
g5
tp1077
a(g871
g871
g871
g5
g5
tp1078
a(S'0.86'
p1079
S'0.86'
p1080
S'CD'
p1081
S'B-NP'
p1082
g5
tp1083
a(g904
g904
g904
g5
g5
tp1084
a(g185
g185
g185
g5
g5
tp1085
a(S't=2.28'
p1086
S't=2.28'
p1087
S'NN'
p1088
S'B-NP'
p1089
S'B-protein'
p1090
tp1091
a(g185
g185
g185
g5
g5
tp1092
a(g914
g914
S'NN'
p1093
S'B-NP'
p1094
g5
tp1095
a(g918
g918
S'SYM'
p1096
S'B-NP'
p1097
g5
tp1098
a(S'0.05'
p1099
S'0.05'
p1100
S'CD'
p1101
S'I-NP'
p1102
g5
tp1103
a(g185
g185
g185
S'I-NP'
p1104
g5
tp1105
a(S'd=0.24'
p1106
S'd=0.24'
p1107
S'NN'
p1108
S'I-NP'
p1109
g5
tp1110
a(g904
g904
g904
g5
g5
tp1111
a(S'in'
p1112
S'in'
p1113
S'IN'
p1114
S'B-PP'
p1115
g5
tp1116
a(S'their'
p1117
S'their'
p1118
S'PRP$'
p1119
S'B-NP'
p1120
g5
tp1121
a(S'interactions'
p1122
S'interaction'
p1123
S'NNS'
p1124
S'I-NP'
p1125
g5
tp1126
a(S'with'
p1127
S'with'
p1128
S'IN'
p1129
S'B-PP'
p1130
g5
tp1131
a(S'their'
p1132
S'their'
p1133
S'PRP$'
p1134
S'B-NP'
p1135
g5
tp1136
a(S'infants.'
p1137
S'infants.'
p1138
S'NNS'
p1139
S'I-NP'
p1140
g5
tp1141
a(S'The'
p1142
S'The'
p1143
S'DT'
p1144
S'B-NP'
p1145
g5
tp1146
a(S'intervention'
p1147
S'intervention'
p1148
S'NN'
p1149
S'I-NP'
p1150
g5
tp1151
a(S'was'
p1152
S'be'
p1153
S'VBD'
p1154
S'B-VP'
p1155
g5
tp1156
a(S'also'
p1157
S'also'
p1158
S'RB'
p1159
S'I-VP'
p1160
g5
tp1161
a(S'associated'
p1162
S'associate'
p1163
S'VBN'
p1164
S'I-VP'
p1165
g5
tp1166
a(S'with'
p1167
S'with'
p1168
S'IN'
p1169
S'B-PP'
p1170
g5
tp1171
a(g104
g104
S'DT'
p1172
S'B-NP'
p1173
g5
tp1174
a(S'higher'
p1175
S'high'
p1176
S'JJR'
p1177
S'I-NP'
p1178
g5
tp1179
a(S'rate'
p1180
S'rate'
p1181
S'NN'
p1182
S'I-NP'
p1183
g5
tp1184
a(S'of'
p1185
S'of'
p1186
S'IN'
p1187
S'B-PP'
p1188
g5
tp1189
a(S'secure'
p1190
S'secure'
p1191
S'JJ'
p1192
S'B-NP'
p1193
g5
tp1194
a(S'infant'
p1195
S'infant'
p1196
S'NN'
p1197
S'I-NP'
p1198
g5
tp1199
a(S'attachments'
p1200
S'attachment'
p1201
S'NNS'
p1202
S'I-NP'
p1203
g5
tp1204
a(S'at'
p1205
S'at'
p1206
S'IN'
p1207
S'B-PP'
p1208
g5
tp1209
a(S'18'
p1210
S'18'
p1211
S'CD'
p1212
S'B-NP'
p1213
g5
tp1214
a(S'months'
p1215
S'month'
p1216
S'NNS'
p1217
S'I-NP'
p1218
g5
tp1219
a(g871
g871
g871
g5
g5
tp1220
a(S'116/156'
p1221
S'116/156'
p1222
S'CD'
p1223
S'B-NP'
p1224
g5
tp1225
a(g871
g871
g871
g5
g5
tp1226
a(S'74'
p1227
S'74'
p1228
S'CD'
p1229
S'B-NP'
p1230
g5
tp1231
a(S'%'
p1232
g1232
S'NN'
p1233
S'I-NP'
p1234
g5
tp1235
a(g904
g904
g904
g5
g5
tp1236
a(S'v'
p1237
g1237
S'NN'
p1238
S'B-NP'
p1239
g5
tp1240
a(S'102/162'
p1241
S'102/162'
p1242
S'CD'
p1243
S'I-NP'
p1244
g5
tp1245
a(g871
g871
g871
g5
g5
tp1246
a(S'63'
p1247
S'63'
p1248
S'CD'
p1249
S'B-NP'
p1250
g5
tp1251
a(g1232
g1232
S'NN'
p1252
S'I-NP'
p1253
g5
tp1254
a(g904
g904
g904
g5
g5
tp1255
a(g635
g635
g7
g5
g5
tp1256
a(S'Wald=4.74'
p1257
S'Wald=4.74'
p1258
S'NN'
p1259
S'B-NP'
p1260
g5
tp1261
a(g185
g185
g185
g5
g5
tp1262
a(S'odds'
p1263
S'odd'
p1264
S'VBZ'
p1265
S'B-VP'
p1266
g5
tp1267
a(S'ratio=1.70'
p1268
S'ratio=1.70'
p1269
S'NN'
p1270
S'B-NP'
p1271
g5
tp1272
a(g185
g185
g185
g5
g5
tp1273
a(g914
g914
S'NN'
p1274
S'B-NP'
p1275
g5
tp1276
a(g918
g918
S'SYM'
p1277
S'B-NP'
p1278
g5
tp1279
a(S'0.05'
p1280
S'0.05'
p1281
S'CD'
p1282
S'I-NP'
p1283
g5
tp1284
a(g904
g904
g904
g5
g5
tp1285
a(S'.'
p1286
g1286
g1286
g5
g5
tp1287
a(S'Although'
p1288
S'Although'
p1289
S'IN'
p1290
S'B-SBAR'
p1291
g5
tp1292
a(S'the'
p1293
S'the'
p1294
S'DT'
p1295
S'B-NP'
p1296
g5
tp1297
a(S'prevalence'
p1298
S'prevalence'
p1299
S'NN'
p1300
S'I-NP'
p1301
g5
tp1302
a(S'of'
p1303
S'of'
p1304
S'IN'
p1305
S'B-PP'
p1306
g5
tp1307
a(S'maternal'
p1308
S'maternal'
p1309
S'JJ'
p1310
S'B-NP'
p1311
g5
tp1312
a(S'depressive'
p1313
S'depressive'
p1314
S'JJ'
p1315
S'I-NP'
p1316
g5
tp1317
a(S'disorder'
p1318
S'disorder'
p1319
S'NN'
p1320
S'I-NP'
p1321
g5
tp1322
a(S'was'
p1323
S'be'
p1324
S'VBD'
p1325
S'B-VP'
p1326
g5
tp1327
a(S'not'
p1328
S'not'
p1329
S'RB'
p1330
S'I-VP'
p1331
g5
tp1332
a(S'significantly'
p1333
S'significantly'
p1334
S'RB'
p1335
S'I-VP'
p1336
g5
tp1337
a(S'reduced'
p1338
S'reduce'
p1339
S'VBN'
p1340
S'I-VP'
p1341
g5
tp1342
a(g185
g185
g185
g5
g5
tp1343
a(S'the'
p1344
S'the'
p1345
S'DT'
p1346
S'B-NP'
p1347
g5
tp1348
a(S'intervention'
p1349
S'intervention'
p1350
S'NN'
p1351
S'I-NP'
p1352
g5
tp1353
a(S'had'
p1354
S'have'
p1355
S'VBD'
p1356
S'B-VP'
p1357
g5
tp1358
a(g104
g104
S'DT'
p1359
S'B-NP'
p1360
g5
tp1361
a(S'benefit'
p1362
S'benefit'
p1363
S'NN'
p1364
S'I-NP'
p1365
g5
tp1366
a(S'in'
p1367
S'in'
p1368
S'IN'
p1369
S'B-PP'
p1370
g5
tp1371
a(S'terms'
p1372
S'term'
p1373
S'NNS'
p1374
S'B-NP'
p1375
g5
tp1376
a(S'of'
p1377
S'of'
p1378
S'IN'
p1379
S'B-PP'
p1380
g5
tp1381
a(S'maternal'
p1382
S'maternal'
p1383
S'JJ'
p1384
S'B-NP'
p1385
g5
tp1386
a(S'depressed'
p1387
S'depressed'
p1388
S'JJ'
p1389
S'I-NP'
p1390
g5
tp1391
a(S'mood'
p1392
S'mood'
p1393
S'NN'
p1394
S'I-NP'
p1395
g5
tp1396
a(S'at'
p1397
S'at'
p1398
S'IN'
p1399
S'B-PP'
p1400
g5
tp1401
a(S'six'
p1402
S'six'
p1403
S'CD'
p1404
S'B-NP'
p1405
g5
tp1406
a(S'months'
p1407
S'month'
p1408
S'NNS'
p1409
S'I-NP'
p1410
g5
tp1411
a(g871
g871
g871
g5
g5
tp1412
a(S'z=2.05'
p1413
S'z=2.05'
p1414
S'NN'
p1415
S'B-NP'
p1416
S'B-protein'
p1417
tp1418
a(g185
g185
g185
S'I-NP'
p1419
g5
tp1420
a(S'P=0.04'
p1421
S'P=0.04'
p1422
S'NN'
p1423
S'I-NP'
p1424
g5
tp1425
a(g904
g904
g904
g5
g5
tp1426
a(S'on'
p1427
S'on'
p1428
S'IN'
p1429
S'B-PP'
p1430
g5
tp1431
a(S'the'
p1432
S'the'
p1433
S'DT'
p1434
S'B-NP'
p1435
g5
tp1436
a(S'Edinburgh'
p1437
S'Edinburgh'
p1438
S'NNP'
p1439
S'I-NP'
p1440
g5
tp1441
a(S'postnatal'
p1442
S'postnatal'
p1443
S'JJ'
p1444
S'I-NP'
p1445
g5
tp1446
a(S'depression'
p1447
S'depression'
p1448
S'NN'
p1449
S'I-NP'
p1450
g5
tp1451
a(S'scale'
p1452
S'scale'
p1453
S'NN'
p1454
S'I-NP'
p1455
g5
tp1456
a(g904
g904
g904
g5
g5
tp1457
a(g1286
g1286
g1286
g5
g5
tp1458
a(S'CONCLUSIONS'
p1459
S'CONCLUSIONS'
p1460
S'NNS'
p1461
S'B-NP'
p1462
g5
tp1463
a(g7
g7
g7
g5
g5
tp1464
a(S'The'
p1465
S'The'
p1466
S'DT'
p1467
S'B-NP'
p1468
g5
tp1469
a(S'intervention'
p1470
S'intervention'
p1471
S'NN'
p1472
S'I-NP'
p1473
g5
tp1474
a(g185
g185
g185
g5
g5
tp1475
a(S'delivered'
p1476
S'deliver'
p1477
S'VBN'
p1478
S'B-VP'
p1479
g5
tp1480
a(S'by'
p1481
S'by'
p1482
S'IN'
p1483
S'B-PP'
p1484
g5
tp1485
a(S'local'
p1486
S'local'
p1487
S'JJ'
p1488
S'B-NP'
p1489
g5
tp1490
a(S'lay'
p1491
S'lay'
p1492
S'NN'
p1493
S'I-NP'
p1494
g5
tp1495
a(S'women'
p1496
S'woman'
p1497
S'NNS'
p1498
S'I-NP'
p1499
g5
tp1500
a(g185
g185
g185
g5
g5
tp1501
a(S'had'
p1502
S'have'
p1503
S'VBD'
p1504
S'B-VP'
p1505
g5
tp1506
a(g104
g104
S'DT'
p1507
S'B-NP'
p1508
g5
tp1509
a(S'significant'
p1510
S'significant'
p1511
S'JJ'
p1512
S'I-NP'
p1513
g5
tp1514
a(S'positive'
p1515
S'positive'
p1516
S'JJ'
p1517
S'I-NP'
p1518
g5
tp1519
a(S'impact'
p1520
S'impact'
p1521
S'NN'
p1522
S'I-NP'
p1523
g5
tp1524
a(S'on'
p1525
S'on'
p1526
S'IN'
p1527
S'B-PP'
p1528
g5
tp1529
a(S'the'
p1530
S'the'
p1531
S'DT'
p1532
S'B-NP'
p1533
g5
tp1534
a(S'quality'
p1535
S'quality'
p1536
S'NN'
p1537
S'I-NP'
p1538
g5
tp1539
a(S'of'
p1540
S'of'
p1541
S'IN'
p1542
S'B-PP'
p1543
g5
tp1544
a(S'the'
p1545
S'the'
p1546
S'DT'
p1547
S'B-NP'
p1548
g5
tp1549
a(S'mother-infant'
p1550
S'mother-infant'
p1551
S'JJ'
p1552
S'I-NP'
p1553
g5
tp1554
a(S'relationship'
p1555
S'relationship'
p1556
S'NN'
p1557
S'I-NP'
p1558
g5
tp1559
a(S'and'
p1560
S'and'
p1561
S'CC'
p1562
S'B-PP'
p1563
g5
tp1564
a(S'on'
p1565
S'on'
p1566
S'IN'
p1567
S'B-PP'
p1568
g5
tp1569
a(S'security'
p1570
S'security'
p1571
S'NN'
p1572
S'B-NP'
p1573
g5
tp1574
a(S'of'
p1575
S'of'
p1576
S'IN'
p1577
S'B-PP'
p1578
g5
tp1579
a(S'infant'
p1580
S'infant'
p1581
S'NN'
p1582
S'B-NP'
p1583
g5
tp1584
a(S'attachment'
p1585
S'attachment'
p1586
S'NN'
p1587
S'I-NP'
p1588
g5
tp1589
a(g185
g185
g185
g5
g5
tp1590
a(S'factors'
p1591
S'factor'
p1592
S'NNS'
p1593
S'B-NP'
p1594
g5
tp1595
a(S'known'
p1596
S'know'
p1597
S'VBN'
p1598
S'B-VP'
p1599
g5
tp1600
a(S'to'
p1601
S'to'
p1602
S'TO'
p1603
S'B-VP'
p1604
g5
tp1605
a(S'predict'
p1606
S'predict'
p1607
S'VB'
p1608
S'I-VP'
p1609
g5
tp1610
a(S'favourable'
p1611
S'favourable'
p1612
S'JJ'
p1613
S'B-NP'
p1614
g5
tp1615
a(S'child'
p1616
S'child'
p1617
S'NN'
p1618
S'I-NP'
p1619
g5
tp1620
a(S'development.'
p1621
S'development.'
p1622
S'NN'
p1623
S'I-NP'
p1624
g5
tp1625
a(S'If'
p1626
S'If'
p1627
S'IN'
p1628
S'B-SBAR'
p1629
g5
tp1630
a(S'these'
p1631
S'these'
p1632
S'DT'
p1633
S'B-NP'
p1634
g5
tp1635
a(S'effects'
p1636
S'effect'
p1637
S'NNS'
p1638
S'I-NP'
p1639
g5
tp1640
a(S'persist'
p1641
S'persist'
p1642
S'VBP'
p1643
S'B-VP'
p1644
g5
tp1645
a(g185
g185
g185
g5
g5
tp1646
a(S'and'
p1647
S'and'
p1648
S'CC'
p1649
g5
g5
tp1650
a(S'if'
p1651
S'if'
p1652
S'IN'
p1653
S'B-SBAR'
p1654
g5
tp1655
a(S'they'
p1656
S'they'
p1657
S'PRP'
p1658
S'B-NP'
p1659
g5
tp1660
a(S'are'
p1661
S'be'
p1662
S'VBP'
p1663
S'B-VP'
p1664
g5
tp1665
a(S'replicated'
p1666
S'replicate'
p1667
S'VBN'
p1668
S'I-VP'
p1669
g5
tp1670
a(g185
g185
g185
g5
g5
tp1671
a(S'this'
p1672
S'this'
p1673
S'DT'
p1674
S'B-NP'
p1675
g5
tp1676
a(S'intervention'
p1677
S'intervention'
p1678
S'NN'
p1679
S'I-NP'
p1680
g5
tp1681
a(S'holds'
p1682
S'hold'
p1683
S'VBZ'
p1684
S'B-VP'
p1685
g5
tp1686
a(S'considerable'
p1687
S'considerable'
p1688
S'JJ'
p1689
S'B-NP'
p1690
g5
tp1691
a(S'promise'
p1692
S'promise'
p1693
S'NN'
p1694
S'I-NP'
p1695
g5
tp1696
a(S'for'
p1697
S'for'
p1698
S'IN'
p1699
S'B-PP'
p1700
g5
tp1701
a(S'use'
p1702
S'use'
p1703
S'NN'
p1704
S'B-NP'
p1705
g5
tp1706
a(S'in'
p1707
S'in'
p1708
S'IN'
p1709
S'B-PP'
p1710
g5
tp1711
a(S'the'
p1712
S'the'
p1713
S'DT'
p1714
S'B-NP'
p1715
g5
tp1716
a(S'developing'
p1717
S'develop'
p1718
S'VBG'
p1719
S'I-NP'
p1720
g5
tp1721
a(S'world.'
p1722
S'world.'
p1723
S'NN'
p1724
S'I-NP'
p1725
g5
tp1726
a(S'TRIAL'
p1727
S'TRIAL'
p1728
S'NN'
p1729
S'B-NP'
p1730
g5
tp1731
a(S'REGISTRATION'
p1732
S'REGISTRATION'
p1733
S'NN'
p1734
S'I-NP'
p1735
g5
tp1736
a(g7
g7
g7
g5
g5
tp1737
a(S'Current'
p1738
S'Current'
p1739
S'NNP'
p1740
S'B-NP'
p1741
g5
tp1742
a(S'Controlled'
p1743
S'Controlled'
p1744
S'NNP'
p1745
S'I-NP'
p1746
g5
tp1747
a(S'Trials'
p1748
S'Trial'
p1749
S'NNPS'
p1750
S'I-NP'
p1751
g5
tp1752
a(S'ISRCTN25664149'
p1753
S'ISRCTN25664149'
p1754
S'NNP'
p1755
S'I-NP'
p1756
g5
tp1757
a(g1286
g1286
g1286
g5
g5
tp1758
a.