(lp0
(S'OBJECTIVE'
p1
S'OBJECTIVE'
p2
S'NN'
p3
S'B-NP'
p4
S'O'
p5
tp6
a(S':'
p7
g7
g7
g5
g5
tp8
a(S'To'
p9
S'To'
p10
S'TO'
p11
S'B-VP'
p12
g5
tp13
a(S'determine'
p14
S'determine'
p15
S'VB'
p16
S'I-VP'
p17
g5
tp18
a(S'the'
p19
S'the'
p20
S'DT'
p21
S'B-NP'
p22
g5
tp23
a(S'value'
p24
S'value'
p25
S'NN'
p26
S'I-NP'
p27
g5
tp28
a(S'of'
p29
S'of'
p30
S'IN'
p31
S'B-PP'
p32
g5
tp33
a(S'monitoring'
p34
S'monitor'
p35
S'VBG'
p36
S'B-VP'
p37
g5
tp38
a(S'blood'
p39
S'blood'
p40
S'NN'
p41
S'B-NP'
p42
g5
tp43
a(S'pressure'
p44
S'pressure'
p45
S'NN'
p46
S'I-NP'
p47
g5
tp48
a(S'by'
p49
S'by'
p50
S'IN'
p51
S'B-PP'
p52
g5
tp53
a(S'quantifying'
p54
S'quantify'
p55
S'VBG'
p56
S'B-VP'
p57
g5
tp58
a(S'the'
p59
S'the'
p60
S'DT'
p61
S'B-NP'
p62
g5
tp63
a(S'probability'
p64
S'probability'
p65
S'NN'
p66
S'I-NP'
p67
g5
tp68
a(S'that'
p69
S'that'
p70
S'WDT'
p71
S'B-NP'
p72
g5
tp73
a(S'observed'
p74
S'observe'
p75
S'VBD'
p76
S'B-VP'
p77
g5
tp78
a(S'changes'
p79
S'change'
p80
S'NNS'
p81
S'B-NP'
p82
g5
tp83
a(S'in'
p84
S'in'
p85
S'IN'
p86
S'B-PP'
p87
g5
tp88
a(S'blood'
p89
S'blood'
p90
S'NN'
p91
S'B-NP'
p92
g5
tp93
a(S'pressure'
p94
S'pressure'
p95
S'NN'
p96
S'I-NP'
p97
g5
tp98
a(S'reflect'
p99
S'reflect'
p100
S'VBP'
p101
S'B-VP'
p102
g5
tp103
a(S'true'
p104
S'true'
p105
S'JJ'
p106
S'B-NP'
p107
g5
tp108
a(S'changes.'
p109
S'changes.'
p110
S'NNS'
p111
S'I-NP'
p112
g5
tp113
a(S'DESIGN'
p114
S'DESIGN'
p115
S'NN'
p116
S'B-NP'
p117
g5
tp118
a(g7
g7
g7
g5
g5
tp119
a(S'Analysis'
p120
S'Analysis'
p121
S'NN'
p122
S'B-NP'
p123
g5
tp124
a(S'of'
p125
S'of'
p126
S'IN'
p127
S'B-PP'
p128
g5
tp129
a(S'blood'
p130
S'blood'
p131
S'NN'
p132
S'B-NP'
p133
g5
tp134
a(S'pressure'
p135
S'pressure'
p136
S'NN'
p137
S'I-NP'
p138
g5
tp139
a(S'measurements'
p140
S'measurement'
p141
S'NNS'
p142
S'I-NP'
p143
g5
tp144
a(S'of'
p145
S'of'
p146
S'IN'
p147
S'B-PP'
p148
g5
tp149
a(S'patients'
p150
S'patient'
p151
S'NNS'
p152
S'B-NP'
p153
g5
tp154
a(S'in'
p155
S'in'
p156
S'IN'
p157
S'B-PP'
p158
g5
tp159
a(S'the'
p160
S'the'
p161
S'DT'
p162
S'B-NP'
p163
g5
tp164
a(S'perindopril'
p165
S'perindopril'
p166
S'NN'
p167
S'I-NP'
p168
g5
tp169
a(S'protection'
p170
S'protection'
p171
S'NN'
p172
S'I-NP'
p173
g5
tp174
a(S'against'
p175
S'against'
p176
S'IN'
p177
S'B-PP'
p178
g5
tp179
a(S'recurrent'
p180
S'recurrent'
p181
S'JJ'
p182
S'B-NP'
p183
g5
tp184
a(S'stroke'
p185
S'stroke'
p186
S'NN'
p187
S'I-NP'
p188
g5
tp189
a(S'study'
p190
S'study'
p191
S'NN'
p192
S'I-NP'
p193
g5
tp194
a(S'('
p195
g195
g195
g5
g5
tp196
a(S'PROGRESS'
p197
S'PROGRESS'
p198
S'NN'
p199
S'B-NP'
p200
g5
tp201
a(S')'
p202
g202
g202
g5
g5
tp203
a(S'.'
p204
g204
g204
g5
g5
tp205
a(S'SETTING'
p206
S'SETTING'
p207
S'NN'
p208
S'B-NP'
p209
g5
tp210
a(g7
g7
g7
g5
g5
tp211
a(S'Randomised'
p212
S'Randomised'
p213
S'NNP'
p214
S'B-NP'
p215
g5
tp216
a(S'placebo'
p217
S'placebo'
p218
S'NN'
p219
S'I-NP'
p220
g5
tp221
a(S'controlled'
p222
S'controlled'
p223
S'JJ'
p224
S'I-NP'
p225
g5
tp226
a(S'trial'
p227
S'trial'
p228
S'NN'
p229
S'I-NP'
p230
g5
tp231
a(S'carried'
p232
S'carry'
p233
S'VBD'
p234
S'B-VP'
p235
g5
tp236
a(S'out'
p237
S'out'
p238
S'RP'
p239
S'B-PRT'
p240
g5
tp241
a(S'in'
p242
S'in'
p243
S'IN'
p244
S'B-PP'
p245
g5
tp246
a(S'172'
p247
S'172'
p248
S'CD'
p249
S'B-NP'
p250
g5
tp251
a(S'centres'
p252
S'centre'
p253
S'NNS'
p254
S'I-NP'
p255
g5
tp256
a(S'in'
p257
S'in'
p258
S'IN'
p259
S'B-PP'
p260
g5
tp261
a(S'Asia'
p262
S'Asia'
p263
S'NNP'
p264
S'B-NP'
p265
g5
tp266
a(S','
p267
g267
g267
g5
g5
tp268
a(S'Australasia'
p269
S'Australasia'
p270
S'NNP'
p271
S'B-NP'
p272
g5
tp273
a(g267
g267
g267
g5
g5
tp274
a(S'and'
p275
S'and'
p276
S'CC'
p277
g5
g5
tp278
a(S'Europe.'
p279
S'Europe.'
p280
S'NNP'
p281
S'B-NP'
p282
g5
tp283
a(S'PARTICIPANTS'
p284
S'PARTICIPANTS'
p285
S'NNS'
p286
S'B-NP'
p287
g5
tp288
a(g7
g7
g7
g5
g5
tp289
a(S'1709'
p290
S'1709'
p291
S'CD'
p292
S'B-NP'
p293
g5
tp294
a(S'patients'
p295
S'patient'
p296
S'NNS'
p297
S'I-NP'
p298
g5
tp299
a(S'with'
p300
S'with'
p301
S'IN'
p302
S'B-PP'
p303
g5
tp304
a(S'history'
p305
S'history'
p306
S'NN'
p307
S'B-NP'
p308
g5
tp309
a(S'of'
p310
S'of'
p311
S'IN'
p312
S'B-PP'
p313
g5
tp314
a(S'stroke'
p315
S'stroke'
p316
S'NN'
p317
S'B-NP'
p318
g5
tp319
a(S'or'
p320
S'or'
p321
S'CC'
p322
g5
g5
tp323
a(S'transient'
p324
S'transient'
p325
S'JJ'
p326
S'B-NP'
p327
g5
tp328
a(S'ischaemic'
p329
S'ischaemic'
p330
S'JJ'
p331
S'I-NP'
p332
g5
tp333
a(S'attack'
p334
S'attack'
p335
S'NN'
p336
S'I-NP'
p337
g5
tp338
a(S'randomised'
p339
S'randomise'
p340
S'VBN'
p341
S'B-VP'
p342
g5
tp343
a(S'to'
p344
S'to'
p345
S'TO'
p346
S'B-PP'
p347
g5
tp348
a(S'fixed'
p349
S'fix'
p350
S'VBN'
p351
S'B-NP'
p352
g5
tp353
a(S'doses'
p354
S'dose'
p355
S'NNS'
p356
S'I-NP'
p357
g5
tp358
a(S'of'
p359
S'of'
p360
S'IN'
p361
S'B-PP'
p362
g5
tp363
a(S'perindopril'
p364
S'perindopril'
p365
S'NN'
p366
S'B-NP'
p367
g5
tp368
a(S'and'
p369
S'and'
p370
S'CC'
p371
S'I-NP'
p372
g5
tp373
a(S'indapamide.'
p374
S'indapamide.'
p375
S'NN'
p376
S'I-NP'
p377
g5
tp378
a(S'Measurements'
p379
S'Measurement'
p380
S'NNS'
p381
S'B-NP'
p382
g5
tp383
a(S'Mean'
p384
S'Mean'
p385
S'NN'
p386
S'I-NP'
p387
g5
tp388
a(S'of'
p389
S'of'
p390
S'IN'
p391
S'B-PP'
p392
g5
tp393
a(S'two'
p394
S'two'
p395
S'CD'
p396
S'B-NP'
p397
g5
tp398
a(S'blood'
p399
S'blood'
p400
S'NN'
p401
S'I-NP'
p402
g5
tp403
a(S'pressure'
p404
S'pressure'
p405
S'NN'
p406
S'I-NP'
p407
g5
tp408
a(S'measurements'
p409
S'measurement'
p410
S'NNS'
p411
S'I-NP'
p412
g5
tp413
a(S'in'
p414
S'in'
p415
S'IN'
p416
S'B-PP'
p417
g5
tp418
a(S'patients'
p419
S'patient'
p420
S'NNS'
p421
S'B-NP'
p422
g5
tp423
a(S'receiving'
p424
S'receive'
p425
S'VBG'
p426
S'B-VP'
p427
g5
tp428
a(S'treatment'
p429
S'treatment'
p430
S'NN'
p431
S'B-NP'
p432
g5
tp433
a(S'recorded'
p434
S'record'
p435
S'VBN'
p436
S'B-VP'
p437
g5
tp438
a(S'to'
p439
S'to'
p440
S'TO'
p441
S'B-PP'
p442
g5
tp443
a(S'the'
p444
S'the'
p445
S'DT'
p446
S'B-NP'
p447
g5
tp448
a(S'nearest'
p449
S'near'
p450
S'JJS'
p451
S'I-NP'
p452
g5
tp453
a(S'2'
p454
g454
S'CD'
p455
S'I-NP'
p456
g5
tp457
a(S'mm'
p458
S'mm'
p459
S'NN'
p460
S'I-NP'
p461
g5
tp462
a(S'Hg'
p463
S'Hg'
p464
S'NN'
p465
S'I-NP'
p466
g5
tp467
a(S'with'
p468
S'with'
p469
S'IN'
p470
S'B-PP'
p471
g5
tp472
a(S'a'
p473
g473
S'DT'
p474
S'B-NP'
p475
g5
tp476
a(S'standard'
p477
S'standard'
p478
S'JJ'
p479
S'I-NP'
p480
g5
tp481
a(S'mercury'
p482
S'mercury'
p483
S'NN'
p484
S'I-NP'
p485
g5
tp486
a(S'sphygmomanometer'
p487
S'sphygmomanometer'
p488
S'NN'
p489
S'I-NP'
p490
g5
tp491
a(S'at'
p492
S'at'
p493
S'IN'
p494
S'B-PP'
p495
g5
tp496
a(S'baseline'
p497
S'baseline'
p498
S'NN'
p499
S'B-NP'
p500
g5
tp501
a(S'and'
p502
S'and'
p503
S'CC'
p504
g5
g5
tp505
a(S'then'
p506
S'then'
p507
S'RB'
p508
S'B-ADVP'
p509
g5
tp510
a(S'at'
p511
S'at'
p512
S'IN'
p513
S'B-PP'
p514
g5
tp515
a(S'three'
p516
S'three'
p517
S'CD'
p518
S'B-NP'
p519
g5
tp520
a(S'months'
p521
S'month'
p522
S'NNS'
p523
S'I-NP'
p524
g5
tp525
a(g267
g267
g267
g5
g5
tp526
a(S'six'
p527
S'six'
p528
S'CD'
p529
S'B-NP'
p530
g5
tp531
a(S'months'
p532
S'month'
p533
S'NNS'
p534
S'I-NP'
p535
g5
tp536
a(g267
g267
g267
g5
g5
tp537
a(S'nine'
p538
S'nine'
p539
S'CD'
p540
S'B-NP'
p541
g5
tp542
a(S'months'
p543
S'month'
p544
S'NNS'
p545
S'I-NP'
p546
g5
tp547
a(g267
g267
g267
g5
g5
tp548
a(S'and'
p549
S'and'
p550
S'CC'
p551
g5
g5
tp552
a(S'15'
p553
S'15'
p554
S'CD'
p555
S'B-NP'
p556
g5
tp557
a(S'months'
p558
S'month'
p559
S'NNS'
p560
S'I-NP'
p561
g5
tp562
a(S'and'
p563
S'and'
p564
S'CC'
p565
g5
g5
tp566
a(S'then'
p567
S'then'
p568
S'RB'
p569
S'B-ADVP'
p570
g5
tp571
a(S'every'
p572
S'every'
p573
S'DT'
p574
S'B-NP'
p575
g5
tp576
a(S'six'
p577
S'six'
p578
S'CD'
p579
S'I-NP'
p580
g5
tp581
a(S'months'
p582
S'month'
p583
S'NNS'
p584
S'I-NP'
p585
g5
tp586
a(S'to'
p587
S'to'
p588
S'TO'
p589
S'B-PP'
p590
g5
tp591
a(S'33'
p592
S'33'
p593
S'CD'
p594
S'B-NP'
p595
g5
tp596
a(S'months.'
p597
S'months.'
p598
S'NNS'
p599
S'I-NP'
p600
g5
tp601
a(S'RESULTS'
p602
S'RESULTS'
p603
S'NNS'
p604
S'B-NP'
p605
g5
tp606
a(g7
g7
g7
g5
g5
tp607
a(S'There'
p608
S'There'
p609
S'EX'
p610
S'B-NP'
p611
g5
tp612
a(S'was'
p613
S'be'
p614
S'VBD'
p615
S'B-VP'
p616
g5
tp617
a(S'no'
p618
S'no'
p619
S'DT'
p620
S'B-NP'
p621
g5
tp622
a(S'change'
p623
S'change'
p624
S'NN'
p625
S'I-NP'
p626
g5
tp627
a(S'in'
p628
S'in'
p629
S'IN'
p630
S'B-PP'
p631
g5
tp632
a(S'the'
p633
S'the'
p634
S'DT'
p635
S'B-NP'
p636
g5
tp637
a(S'mean'
p638
S'mean'
p639
S'JJ'
p640
S'I-NP'
p641
g5
tp642
a(S'blood'
p643
S'blood'
p644
S'NN'
p645
S'I-NP'
p646
g5
tp647
a(S'pressure'
p648
S'pressure'
p649
S'NN'
p650
S'I-NP'
p651
g5
tp652
a(S'of'
p653
S'of'
p654
S'IN'
p655
S'B-PP'
p656
g5
tp657
a(S'the'
p658
S'the'
p659
S'DT'
p660
S'B-NP'
p661
g5
tp662
a(S'cohort'
p663
S'cohort'
p664
S'NN'
p665
S'I-NP'
p666
g5
tp667
a(S'during'
p668
S'during'
p669
S'IN'
p670
S'B-PP'
p671
g5
tp672
a(S'the'
p673
S'the'
p674
S'DT'
p675
S'B-NP'
p676
g5
tp677
a(S'33'
p678
S'33'
p679
S'CD'
p680
S'I-NP'
p681
g5
tp682
a(S'month'
p683
S'month'
p684
S'NN'
p685
S'I-NP'
p686
g5
tp687
a(S'follow-up.'
p688
S'follow-up.'
p689
S'JJ'
p690
S'B-ADJP'
p691
g5
tp692
a(S'Six'
p693
S'Six'
p694
S'CD'
p695
S'B-NP'
p696
g5
tp697
a(S'months'
p698
S'month'
p699
S'NNS'
p700
S'I-NP'
p701
g5
tp702
a(S'after'
p703
S'after'
p704
S'IN'
p705
S'B-SBAR'
p706
g5
tp707
a(S'blood'
p708
S'blood'
p709
S'NN'
p710
S'B-NP'
p711
g5
tp712
a(S'pressure'
p713
S'pressure'
p714
S'NN'
p715
S'I-NP'
p716
g5
tp717
a(S'was'
p718
S'be'
p719
S'VBD'
p720
S'B-VP'
p721
g5
tp722
a(S'stabilised'
p723
S'stabilise'
p724
S'VBN'
p725
S'I-VP'
p726
g5
tp727
a(S'on'
p728
S'on'
p729
S'IN'
p730
S'B-PP'
p731
g5
tp732
a(S'treatment'
p733
S'treatment'
p734
S'NN'
p735
S'B-NP'
p736
g5
tp737
a(g267
g267
g267
g5
g5
tp738
a(S'if'
p739
S'if'
p740
S'IN'
p741
S'B-SBAR'
p742
g5
tp743
a(S'systolic'
p744
S'systolic'
p745
S'JJ'
p746
S'B-NP'
p747
g5
tp748
a(S'blood'
p749
S'blood'
p750
S'NN'
p751
S'I-NP'
p752
g5
tp753
a(S'pressure'
p754
S'pressure'
p755
S'NN'
p756
S'I-NP'
p757
g5
tp758
a(S'was'
p759
S'be'
p760
S'VBD'
p761
S'B-VP'
p762
g5
tp763
a(S'measured'
p764
S'measure'
p765
S'VBN'
p766
S'I-VP'
p767
g5
tp768
a(S'as'
p769
S'as'
p770
S'IN'
p771
S'B-PP'
p772
g5
tp773
a(S'having'
p774
S'have'
p775
S'VBG'
p776
S'B-VP'
p777
g5
tp778
a(S'increased'
p779
S'increase'
p780
S'VBN'
p781
S'I-VP'
p782
g5
tp783
a(S'by'
p784
S'by'
p785
S'IN'
p786
S'B-PP'
p787
g5
tp788
a(S'>'
p789
g789
S'JJR'
p790
S'B-NP'
p791
g5
tp792
a(S'10'
p793
S'10'
p794
S'CD'
p795
S'I-NP'
p796
g5
tp797
a(S'mm'
p798
S'mm'
p799
S'NN'
p800
S'I-NP'
p801
g5
tp802
a(S'Hg'
p803
S'Hg'
p804
S'NN'
p805
S'I-NP'
p806
g5
tp807
a(g267
g267
g267
g5
g5
tp808
a(S'six'
p809
S'six'
p810
S'CD'
p811
S'B-NP'
p812
g5
tp813
a(S'of'
p814
S'of'
p815
S'IN'
p816
S'B-PP'
p817
g5
tp818
a(S'those'
p819
S'those'
p820
S'DT'
p821
S'B-NP'
p822
g5
tp823
a(S'measurements'
p824
S'measurement'
p825
S'NNS'
p826
S'I-NP'
p827
g5
tp828
a(S'would'
p829
S'would'
p830
S'MD'
p831
S'B-VP'
p832
g5
tp833
a(S'be'
p834
S'be'
p835
S'VB'
p836
S'I-VP'
p837
g5
tp838
a(S'false'
p839
S'false'
p840
S'JJ'
p841
S'B-NP'
p842
g5
tp843
a(S'positives'
p844
S'positive'
p845
S'NNS'
p846
S'I-NP'
p847
g5
tp848
a(S'for'
p849
S'for'
p850
S'IN'
p851
S'B-PP'
p852
g5
tp853
a(S'every'
p854
S'every'
p855
S'DT'
p856
S'B-NP'
p857
g5
tp858
a(S'true'
p859
S'true'
p860
S'JJ'
p861
S'I-NP'
p862
g5
tp863
a(S'increase'
p864
S'increase'
p865
S'NN'
p866
S'I-NP'
p867
g5
tp868
a(S'of'
p869
S'of'
p870
S'IN'
p871
S'B-PP'
p872
g5
tp873
a(g789
g789
S'SYM'
p874
S'B-NP'
p875
g5
tp876
a(S'or=10'
p877
S'or=10'
p878
S'NN'
p879
S'I-NP'
p880
g5
tp881
a(S'mm'
p882
S'mm'
p883
S'NN'
p884
S'I-NP'
p885
g5
tp886
a(S'Hg.'
p887
S'Hg.'
p888
S'NNP'
p889
S'I-NP'
p890
g5
tp891
a(S'The'
p892
S'The'
p893
S'DT'
p894
S'B-NP'
p895
g5
tp896
a(S'corresponding'
p897
S'correspond'
p898
S'VBG'
p899
S'I-NP'
p900
g5
tp901
a(S'value'
p902
S'value'
p903
S'NN'
p904
S'I-NP'
p905
g5
tp906
a(S'for'
p907
S'for'
p908
S'IN'
p909
S'B-PP'
p910
g5
tp911
a(S'an'
p912
S'an'
p913
S'DT'
p914
S'B-NP'
p915
g5
tp916
a(S'increase'
p917
S'increase'
p918
S'NN'
p919
S'I-NP'
p920
g5
tp921
a(S'of'
p922
S'of'
p923
S'IN'
p924
S'B-PP'
p925
g5
tp926
a(S'20'
p927
S'20'
p928
S'CD'
p929
S'B-NP'
p930
g5
tp931
a(S'mm'
p932
S'mm'
p933
S'NN'
p934
S'I-NP'
p935
g5
tp936
a(S'Hg'
p937
S'Hg'
p938
S'NN'
p939
S'I-NP'
p940
g5
tp941
a(S'was'
p942
S'be'
p943
S'VBD'
p944
S'B-VP'
p945
g5
tp946
a(S'over'
p947
S'over'
p948
S'IN'
p949
S'B-PP'
p950
g5
tp951
a(S'200.'
p952
S'200.'
p953
S'CD'
p954
S'B-NP'
p955
g5
tp956
a(S'Values'
p957
S'Value'
p958
S'NNS'
p959
S'B-NP'
p960
g5
tp961
a(S'for'
p962
S'for'
p963
S'IN'
p964
S'B-PP'
p965
g5
tp966
a(S'5'
p967
g967
S'CD'
p968
S'B-NP'
p969
g5
tp970
a(S'mm'
p971
S'mm'
p972
S'NN'
p973
S'I-NP'
p974
g5
tp975
a(S'Hg'
p976
S'Hg'
p977
S'NN'
p978
S'I-NP'
p979
g5
tp980
a(S'and'
p981
S'and'
p982
S'CC'
p983
g5
g5
tp984
a(S'10'
p985
S'10'
p986
S'CD'
p987
S'B-NP'
p988
g5
tp989
a(S'mm'
p990
S'mm'
p991
S'NN'
p992
S'I-NP'
p993
g5
tp994
a(S'Hg'
p995
S'Hg'
p996
S'NN'
p997
S'I-NP'
p998
g5
tp999
a(S'increases'
p1000
S'increase'
p1001
S'NNS'
p1002
S'I-NP'
p1003
g5
tp1004
a(S'in'
p1005
S'in'
p1006
S'IN'
p1007
S'B-PP'
p1008
g5
tp1009
a(S'diastolic'
p1010
S'diastolic'
p1011
S'JJ'
p1012
S'B-NP'
p1013
g5
tp1014
a(S'blood'
p1015
S'blood'
p1016
S'NN'
p1017
S'I-NP'
p1018
g5
tp1019
a(S'pressure'
p1020
S'pressure'
p1021
S'NN'
p1022
S'I-NP'
p1023
g5
tp1024
a(S'were'
p1025
S'be'
p1026
S'VBD'
p1027
S'B-VP'
p1028
g5
tp1029
a(S'3.5'
p1030
S'3.5'
p1031
S'CD'
p1032
S'B-NP'
p1033
g5
tp1034
a(S'and'
p1035
S'and'
p1036
S'CC'
p1037
S'I-NP'
p1038
g5
tp1039
a(S'39'
p1040
S'39'
p1041
S'CD'
p1042
S'I-NP'
p1043
g5
tp1044
a(g267
g267
g267
g5
g5
tp1045
a(S'respectively.'
p1046
S'respectively.'
p1047
S'NN'
p1048
S'B-NP'
p1049
g5
tp1050
a(S'The'
p1051
S'The'
p1052
S'DT'
p1053
S'B-NP'
p1054
g5
tp1055
a(S'likelihood'
p1056
S'likelihood'
p1057
S'NN'
p1058
S'I-NP'
p1059
g5
tp1060
a(S'that'
p1061
S'that'
p1062
S'WDT'
p1063
S'B-NP'
p1064
g5
tp1065
a(S'observed'
p1066
S'observe'
p1067
S'VBD'
p1068
S'B-VP'
p1069
g5
tp1070
a(S'increases'
p1071
S'increase'
p1072
S'NNS'
p1073
S'B-NP'
p1074
g5
tp1075
a(S'in'
p1076
S'in'
p1077
S'IN'
p1078
S'B-PP'
p1079
g5
tp1080
a(S'blood'
p1081
S'blood'
p1082
S'NN'
p1083
S'B-NP'
p1084
g5
tp1085
a(S'pressure'
p1086
S'pressure'
p1087
S'NN'
p1088
S'I-NP'
p1089
g5
tp1090
a(S'reflected'
p1091
S'reflect'
p1092
S'VBD'
p1093
S'B-VP'
p1094
g5
tp1095
a(S'true'
p1096
S'true'
p1097
S'JJ'
p1098
S'B-NP'
p1099
g5
tp1100
a(S'increases'
p1101
S'increase'
p1102
S'NNS'
p1103
S'I-NP'
p1104
g5
tp1105
a(S'rose'
p1106
S'rise'
p1107
S'VBD'
p1108
S'B-VP'
p1109
g5
tp1110
a(S'with'
p1111
S'with'
p1112
S'IN'
p1113
S'B-PP'
p1114
g5
tp1115
a(S'the'
p1116
S'the'
p1117
S'DT'
p1118
S'B-NP'
p1119
g5
tp1120
a(S'time'
p1121
S'time'
p1122
S'NN'
p1123
S'I-NP'
p1124
g5
tp1125
a(S'between'
p1126
S'between'
p1127
S'IN'
p1128
S'B-PP'
p1129
g5
tp1130
a(S'measurements'
p1131
S'measurement'
p1132
S'NNS'
p1133
S'B-NP'
p1134
g5
tp1135
a(S'such'
p1136
S'such'
p1137
S'JJ'
p1138
S'B-VP'
p1139
g5
tp1140
a(S'that'
p1141
S'that'
p1142
S'IN'
p1143
S'B-SBAR'
p1144
g5
tp1145
a(S'the'
p1146
S'the'
p1147
S'DT'
p1148
S'B-NP'
p1149
g5
tp1150
a(S'ratio'
p1151
S'ratio'
p1152
S'NN'
p1153
S'I-NP'
p1154
g5
tp1155
a(S'of'
p1156
S'of'
p1157
S'IN'
p1158
S'B-PP'
p1159
g5
tp1160
a(S'true'
p1161
S'true'
p1162
S'JJ'
p1163
S'B-NP'
p1164
g5
tp1165
a(S'positives'
p1166
S'positive'
p1167
S'NNS'
p1168
S'I-NP'
p1169
g5
tp1170
a(S'to'
p1171
S'to'
p1172
S'TO'
p1173
S'B-PP'
p1174
g5
tp1175
a(S'false'
p1176
S'false'
p1177
S'JJ'
p1178
S'B-NP'
p1179
g5
tp1180
a(S'positives'
p1181
S'positive'
p1182
S'NNS'
p1183
S'I-NP'
p1184
g5
tp1185
a(S'reached'
p1186
S'reach'
p1187
S'VBD'
p1188
S'B-VP'
p1189
g5
tp1190
a(S'parity'
p1191
S'parity'
p1192
S'NN'
p1193
S'B-NP'
p1194
g5
tp1195
a(S'at'
p1196
S'at'
p1197
S'IN'
p1198
S'B-PP'
p1199
g5
tp1200
a(S'21'
p1201
S'21'
p1202
S'CD'
p1203
S'B-NP'
p1204
g5
tp1205
a(S'months.'
p1206
S'months.'
p1207
S'NNS'
p1208
S'I-NP'
p1209
g5
tp1210
a(S'CONCLUSIONS'
p1211
S'CONCLUSIONS'
p1212
S'NNS'
p1213
S'B-NP'
p1214
g5
tp1215
a(g7
g7
g7
g5
g5
tp1216
a(S'Usual'
p1217
S'Usual'
p1218
S'JJ'
p1219
S'B-NP'
p1220
g5
tp1221
a(S'clinical'
p1222
S'clinical'
p1223
S'JJ'
p1224
S'I-NP'
p1225
g5
tp1226
a(S'approaches'
p1227
S'approach'
p1228
S'NNS'
p1229
S'I-NP'
p1230
g5
tp1231
a(S'to'
p1232
S'to'
p1233
S'TO'
p1234
S'B-PP'
p1235
g5
tp1236
a(S'the'
p1237
S'the'
p1238
S'DT'
p1239
S'B-NP'
p1240
g5
tp1241
a(S'monitoring'
p1242
S'monitoring'
p1243
S'NN'
p1244
S'I-NP'
p1245
g5
tp1246
a(S'of'
p1247
S'of'
p1248
S'IN'
p1249
S'B-PP'
p1250
g5
tp1251
a(S'patients'
p1252
S'patient'
p1253
S'NNS'
p1254
S'B-NP'
p1255
g5
tp1256
a(S'taking'
p1257
S'take'
p1258
S'VBG'
p1259
S'B-VP'
p1260
g5
tp1261
a(S'drugs'
p1262
S'drug'
p1263
S'NNS'
p1264
S'B-NP'
p1265
g5
tp1266
a(S'to'
p1267
S'to'
p1268
S'TO'
p1269
S'B-VP'
p1270
g5
tp1271
a(S'lower'
p1272
S'lower'
p1273
S'VB'
p1274
S'I-VP'
p1275
g5
tp1276
a(S'blood'
p1277
S'blood'
p1278
S'NN'
p1279
S'B-NP'
p1280
g5
tp1281
a(S'pressure'
p1282
S'pressure'
p1283
S'NN'
p1284
S'I-NP'
p1285
g5
tp1286
a(S'have'
p1287
S'have'
p1288
S'VBP'
p1289
S'B-VP'
p1290
g5
tp1291
a(g473
g473
S'DT'
p1292
S'B-NP'
p1293
g5
tp1294
a(S'low'
p1295
S'low'
p1296
S'JJ'
p1297
S'I-NP'
p1298
g5
tp1299
a(S'probability'
p1300
S'probability'
p1301
S'NN'
p1302
S'I-NP'
p1303
g5
tp1304
a(S'of'
p1305
S'of'
p1306
S'IN'
p1307
S'B-PP'
p1308
g5
tp1309
a(S'yielding'
p1310
S'yield'
p1311
S'VBG'
p1312
S'B-VP'
p1313
g5
tp1314
a(S'reliable'
p1315
S'reliable'
p1316
S'JJ'
p1317
S'B-NP'
p1318
g5
tp1319
a(S'information'
p1320
S'information'
p1321
S'NN'
p1322
S'I-NP'
p1323
g5
tp1324
a(S'about'
p1325
S'about'
p1326
S'IN'
p1327
S'B-PP'
p1328
g5
tp1329
a(S'true'
p1330
S'true'
p1331
S'JJ'
p1332
S'B-NP'
p1333
g5
tp1334
a(S'changes'
p1335
S'change'
p1336
S'NNS'
p1337
S'I-NP'
p1338
g5
tp1339
a(S'in'
p1340
S'in'
p1341
S'IN'
p1342
S'B-PP'
p1343
g5
tp1344
a(S'blood'
p1345
S'blood'
p1346
S'NN'
p1347
S'B-NP'
p1348
g5
tp1349
a(S'pressure.'
p1350
S'pressure.'
p1351
S'NN'
p1352
S'I-NP'
p1353
g5
tp1354
a(S'Evidence'
p1355
S'Evidence'
p1356
S'NN'
p1357
S'B-NP'
p1358
g5
tp1359
a(S'based'
p1360
S'base'
p1361
S'VBN'
p1362
S'I-NP'
p1363
g5
tp1364
a(S'guidelines'
p1365
S'guideline'
p1366
S'NNS'
p1367
S'I-NP'
p1368
g5
tp1369
a(S'for'
p1370
S'for'
p1371
S'IN'
p1372
S'B-PP'
p1373
g5
tp1374
a(S'monitoring'
p1375
S'monitor'
p1376
S'VBG'
p1377
S'B-VP'
p1378
g5
tp1379
a(S'treatment'
p1380
S'treatment'
p1381
S'NN'
p1382
S'B-NP'
p1383
g5
tp1384
a(S'response'
p1385
S'response'
p1386
S'NN'
p1387
S'I-NP'
p1388
g5
tp1389
a(S'are'
p1390
S'be'
p1391
S'VBP'
p1392
S'B-VP'
p1393
g5
tp1394
a(S'urgently'
p1395
S'urgently'
p1396
S'RB'
p1397
S'I-VP'
p1398
g5
tp1399
a(S'required'
p1400
S'require'
p1401
S'VBN'
p1402
S'I-VP'
p1403
g5
tp1404
a(S'to'
p1405
S'to'
p1406
S'TO'
p1407
S'I-VP'
p1408
g5
tp1409
a(S'guide'
p1410
S'guide'
p1411
S'VB'
p1412
S'I-VP'
p1413
g5
tp1414
a(S'clinical'
p1415
S'clinical'
p1416
S'JJ'
p1417
S'B-NP'
p1418
g5
tp1419
a(S'practice.'
p1420
S'practice.'
p1421
S'NN'
p1422
S'I-NP'
p1423
g5
tp1424
a(S'Trial'
p1425
S'Trial'
p1426
S'JJ'
p1427
S'B-NP'
p1428
g5
tp1429
a(S'registration'
p1430
S'registration'
p1431
S'NN'
p1432
S'I-NP'
p1433
g5
tp1434
a(S'Australia'
p1435
S'Australia'
p1436
S'NNP'
p1437
S'I-NP'
p1438
g5
tp1439
a(S'and'
p1440
S'and'
p1441
S'CC'
p1442
g5
g5
tp1443
a(S'New'
p1444
S'New'
p1445
S'NNP'
p1446
S'B-NP'
p1447
g5
tp1448
a(S'Zealand'
p1449
S'Zealand'
p1450
S'NNP'
p1451
S'I-NP'
p1452
g5
tp1453
a(S'Clinical'
p1454
S'Clinical'
p1455
S'NNP'
p1456
S'I-NP'
p1457
g5
tp1458
a(S'Trial'
p1459
S'Trial'
p1460
S'NNP'
p1461
S'I-NP'
p1462
g5
tp1463
a(S'Registry'
p1464
S'Registry'
p1465
S'NNP'
p1466
S'I-NP'
p1467
g5
tp1468
a(g204
g204
g204
g5
g5
tp1469
a.