(lp0
(S'OBJECTIVE'
p1
S'OBJECTIVE'
p2
S'NN'
p3
S'B-NP'
p4
S'O'
p5
tp6
a(S':'
p7
g7
g7
g5
g5
tp8
a(S'To'
p9
S'To'
p10
S'TO'
p11
S'B-VP'
p12
g5
tp13
a(S'evaluate'
p14
S'evaluate'
p15
S'VB'
p16
S'I-VP'
p17
g5
tp18
a(S'the'
p19
S'the'
p20
S'DT'
p21
S'B-NP'
p22
g5
tp23
a(S'effect'
p24
S'effect'
p25
S'NN'
p26
S'I-NP'
p27
g5
tp28
a(S'of'
p29
S'of'
p30
S'IN'
p31
S'B-PP'
p32
g5
tp33
a(S'a'
p34
g34
S'DT'
p35
S'B-NP'
p36
g5
tp37
a(S'video'
p38
S'video'
p39
S'NN'
p40
S'I-NP'
p41
g5
tp42
a(S'decision'
p43
S'decision'
p44
S'NN'
p45
S'I-NP'
p46
g5
tp47
a(S'support'
p48
S'support'
p49
S'NN'
p50
S'I-NP'
p51
g5
tp52
a(S'tool'
p53
S'tool'
p54
S'NN'
p55
S'I-NP'
p56
g5
tp57
a(S'on'
p58
S'on'
p59
S'IN'
p60
S'B-PP'
p61
g5
tp62
a(S'the'
p63
S'the'
p64
S'DT'
p65
S'B-NP'
p66
g5
tp67
a(S'preferences'
p68
S'preference'
p69
S'NNS'
p70
S'I-NP'
p71
g5
tp72
a(S'for'
p73
S'for'
p74
S'IN'
p75
S'B-PP'
p76
g5
tp77
a(S'future'
p78
S'future'
p79
S'JJ'
p80
S'B-NP'
p81
g5
tp82
a(S'medical'
p83
S'medical'
p84
S'JJ'
p85
S'I-NP'
p86
g5
tp87
a(S'care'
p88
S'care'
p89
S'NN'
p90
S'I-NP'
p91
g5
tp92
a(S'in'
p93
S'in'
p94
S'IN'
p95
S'B-PP'
p96
g5
tp97
a(S'older'
p98
S'old'
p99
S'JJR'
p100
S'B-NP'
p101
g5
tp102
a(S'people'
p103
S'people'
p104
S'NNS'
p105
S'I-NP'
p106
g5
tp107
a(S'if'
p108
S'if'
p109
S'IN'
p110
S'B-SBAR'
p111
g5
tp112
a(S'they'
p113
S'they'
p114
S'PRP'
p115
S'B-NP'
p116
g5
tp117
a(S'develop'
p118
S'develop'
p119
S'VBP'
p120
S'B-VP'
p121
g5
tp122
a(S'advanced'
p123
S'advanced'
p124
S'JJ'
p125
S'B-NP'
p126
g5
tp127
a(S'dementia'
p128
S'dementia'
p129
S'NN'
p130
S'I-NP'
p131
g5
tp132
a(S','
p133
g133
g133
g5
g5
tp134
a(S'and'
p135
S'and'
p136
S'CC'
p137
g5
g5
tp138
a(S'the'
p139
S'the'
p140
S'DT'
p141
S'B-NP'
p142
g5
tp143
a(S'stability'
p144
S'stability'
p145
S'NN'
p146
S'I-NP'
p147
g5
tp148
a(S'of'
p149
S'of'
p150
S'IN'
p151
S'B-PP'
p152
g5
tp153
a(S'those'
p154
S'those'
p155
S'DT'
p156
S'B-NP'
p157
g5
tp158
a(S'preferences'
p159
S'preference'
p160
S'NNS'
p161
S'I-NP'
p162
g5
tp163
a(S'after'
p164
S'after'
p165
S'IN'
p166
S'B-PP'
p167
g5
tp168
a(S'six'
p169
S'six'
p170
S'CD'
p171
S'B-NP'
p172
g5
tp173
a(S'weeks.'
p174
S'weeks.'
p175
S'NNS'
p176
S'I-NP'
p177
g5
tp178
a(S'DESIGN'
p179
S'DESIGN'
p180
S'NN'
p181
S'B-NP'
p182
g5
tp183
a(g7
g7
g7
g5
g5
tp184
a(S'Randomised'
p185
S'Randomise'
p186
S'VBN'
p187
S'B-NP'
p188
g5
tp189
a(S'controlled'
p190
S'control'
p191
S'VBN'
p192
S'I-NP'
p193
g5
tp194
a(S'trial'
p195
S'trial'
p196
S'NN'
p197
S'I-NP'
p198
g5
tp199
a(S'conducted'
p200
S'conduct'
p201
S'VBN'
p202
S'B-VP'
p203
g5
tp204
a(S'between'
p205
S'between'
p206
S'IN'
p207
S'B-PP'
p208
g5
tp209
a(S'1'
p210
g210
S'CD'
p211
S'B-NP'
p212
g5
tp213
a(S'September'
p214
S'September'
p215
S'NNP'
p216
S'I-NP'
p217
g5
tp218
a(S'2007'
p219
S'2007'
p220
S'CD'
p221
S'I-NP'
p222
g5
tp223
a(S'and'
p224
S'and'
p225
S'CC'
p226
S'I-NP'
p227
g5
tp228
a(S'30'
p229
S'30'
p230
S'CD'
p231
S'I-NP'
p232
g5
tp233
a(S'May'
p234
S'May'
p235
S'NNP'
p236
S'I-NP'
p237
g5
tp238
a(S'2008.'
p239
S'2008.'
p240
S'CD'
p241
S'I-NP'
p242
g5
tp243
a(S'Setting'
p244
S'Set'
p245
S'VBG'
p246
S'B-VP'
p247
g5
tp248
a(S'Four'
p249
S'Four'
p250
S'CD'
p251
S'B-NP'
p252
g5
tp253
a(S'primary'
p254
S'primary'
p255
S'JJ'
p256
S'I-NP'
p257
g5
tp258
a(S'care'
p259
S'care'
p260
S'NN'
p261
S'I-NP'
p262
g5
tp263
a(S'clinics'
p264
S'clinic'
p265
S'NNS'
p266
S'I-NP'
p267
g5
tp268
a(S'('
p269
g269
g269
g5
g5
tp270
a(S'two'
p271
S'two'
p272
S'CD'
p273
S'B-NP'
p274
g5
tp275
a(S'geriatric'
p276
S'geriatric'
p277
S'JJ'
p278
S'I-NP'
p279
g5
tp280
a(S'and'
p281
S'and'
p282
S'CC'
p283
g5
g5
tp284
a(S'two'
p285
S'two'
p286
S'CD'
p287
S'B-NP'
p288
g5
tp289
a(S'adult'
p290
S'adult'
p291
S'JJ'
p292
S'I-NP'
p293
g5
tp294
a(S'medicine'
p295
S'medicine'
p296
S'NN'
p297
S'I-NP'
p298
g5
tp299
a(S')'
p300
g300
g300
g5
g5
tp301
a(S'affiliated'
p302
S'affiliate'
p303
S'VBN'
p304
S'B-VP'
p305
g5
tp306
a(S'with'
p307
S'with'
p308
S'IN'
p309
S'B-PP'
p310
g5
tp311
a(S'three'
p312
S'three'
p313
S'CD'
p314
S'B-NP'
p315
g5
tp316
a(S'academic'
p317
S'academic'
p318
S'JJ'
p319
S'I-NP'
p320
g5
tp321
a(S'medical'
p322
S'medical'
p323
S'JJ'
p324
S'I-NP'
p325
g5
tp326
a(S'centres'
p327
S'centre'
p328
S'NNS'
p329
S'I-NP'
p330
g5
tp331
a(S'in'
p332
S'in'
p333
S'IN'
p334
S'B-PP'
p335
g5
tp336
a(S'Boston.'
p337
S'Boston.'
p338
S'NNP'
p339
S'B-NP'
p340
g5
tp341
a(S'PARTICIPANTS'
p342
S'PARTICIPANTS'
p343
S'NNS'
p344
S'B-NP'
p345
g5
tp346
a(g7
g7
g7
g5
g5
tp347
a(S'Convenience'
p348
S'Convenience'
p349
S'NN'
p350
S'B-NP'
p351
g5
tp352
a(S'sample'
p353
S'sample'
p354
S'NN'
p355
S'I-NP'
p356
g5
tp357
a(S'of'
p358
S'of'
p359
S'IN'
p360
S'B-PP'
p361
g5
tp362
a(S'200'
p363
S'200'
p364
S'CD'
p365
S'B-NP'
p366
g5
tp367
a(S'older'
p368
S'old'
p369
S'JJR'
p370
S'I-NP'
p371
g5
tp372
a(S'people'
p373
S'people'
p374
S'NNS'
p375
S'I-NP'
p376
g5
tp377
a(g269
g269
g269
g5
g5
tp378
a(S'>'
p379
g379
S'SYM'
p380
S'B-NP'
p381
g5
tp382
a(S'or=65'
p383
S'or=65'
p384
S'CD'
p385
S'B-NP'
p386
g5
tp387
a(S'years'
p388
S'year'
p389
S'NNS'
p390
S'I-NP'
p391
g5
tp392
a(g300
g300
g300
g5
g5
tp393
a(S'living'
p394
S'live'
p395
S'VBG'
p396
S'B-VP'
p397
g5
tp398
a(S'in'
p399
S'in'
p400
S'IN'
p401
S'B-PP'
p402
g5
tp403
a(S'the'
p404
S'the'
p405
S'DT'
p406
S'B-NP'
p407
g5
tp408
a(S'community'
p409
S'community'
p410
S'NN'
p411
S'I-NP'
p412
g5
tp413
a(S'with'
p414
S'with'
p415
S'IN'
p416
S'B-PP'
p417
g5
tp418
a(S'previously'
p419
S'previously'
p420
S'RB'
p421
S'B-NP'
p422
g5
tp423
a(S'scheduled'
p424
S'schedule'
p425
S'VBN'
p426
S'I-NP'
p427
g5
tp428
a(S'appointments'
p429
S'appointment'
p430
S'NNS'
p431
S'I-NP'
p432
g5
tp433
a(S'at'
p434
S'at'
p435
S'IN'
p436
S'B-PP'
p437
g5
tp438
a(S'one'
p439
S'one'
p440
S'CD'
p441
S'B-NP'
p442
g5
tp443
a(S'of'
p444
S'of'
p445
S'IN'
p446
S'B-PP'
p447
g5
tp448
a(S'the'
p449
S'the'
p450
S'DT'
p451
S'B-NP'
p452
g5
tp453
a(S'clinics.'
p454
S'clinics.'
p455
S'NN'
p456
S'I-NP'
p457
g5
tp458
a(S'Mean'
p459
S'Mean'
p460
S'JJ'
p461
S'B-NP'
p462
g5
tp463
a(S'age'
p464
S'age'
p465
S'NN'
p466
S'I-NP'
p467
g5
tp468
a(S'was'
p469
S'be'
p470
S'VBD'
p471
S'B-VP'
p472
g5
tp473
a(S'75'
p474
S'75'
p475
S'CD'
p476
S'B-NP'
p477
g5
tp478
a(S'and'
p479
S'and'
p480
S'CC'
p481
S'I-NP'
p482
g5
tp483
a(S'58'
p484
S'58'
p485
S'CD'
p486
S'I-NP'
p487
g5
tp488
a(S'%'
p489
g489
S'NN'
p490
S'I-NP'
p491
g5
tp492
a(S'were'
p493
S'be'
p494
S'VBD'
p495
S'B-VP'
p496
g5
tp497
a(S'women.'
p498
S'women.'
p499
S'JJ'
p500
S'B-ADJP'
p501
g5
tp502
a(S'INTERVENTION'
p503
S'INTERVENTION'
p504
S'NN'
p505
S'B-NP'
p506
g5
tp507
a(g7
g7
g7
g5
g5
tp508
a(S'Verbal'
p509
S'Verbal'
p510
S'JJ'
p511
S'B-NP'
p512
g5
tp513
a(S'narrative'
p514
S'narrative'
p515
S'NN'
p516
S'I-NP'
p517
g5
tp518
a(S'alone'
p519
S'alone'
p520
S'RB'
p521
S'B-ADVP'
p522
g5
tp523
a(g269
g269
g269
g5
g5
tp524
a(S'n=106'
p525
S'n=106'
p526
S'NN'
p527
S'B-NP'
p528
g5
tp529
a(g300
g300
g300
g5
g5
tp530
a(S'or'
p531
S'or'
p532
S'CC'
p533
g5
g5
tp534
a(S'with'
p535
S'with'
p536
S'IN'
p537
S'B-PP'
p538
g5
tp539
a(g34
g34
S'DT'
p540
S'B-NP'
p541
g5
tp542
a(S'video'
p543
S'video'
p544
S'NN'
p545
S'I-NP'
p546
g5
tp547
a(S'decision'
p548
S'decision'
p549
S'NN'
p550
S'I-NP'
p551
g5
tp552
a(S'support'
p553
S'support'
p554
S'NN'
p555
S'I-NP'
p556
g5
tp557
a(S'tool'
p558
S'tool'
p559
S'NN'
p560
S'I-NP'
p561
g5
tp562
a(g269
g269
g269
g5
g5
tp563
a(S'n=94'
p564
S'n=94'
p565
S'NN'
p566
S'B-NP'
p567
S'B-protein'
p568
tp569
a(g300
g300
g300
g5
g5
tp570
a(S'.'
p571
g571
g571
g5
g5
tp572
a(S'MAIN'
p573
S'MAIN'
p574
S'NNP'
p575
S'B-NP'
p576
g5
tp577
a(S'OUTCOME'
p578
S'OUTCOME'
p579
S'NNP'
p580
S'I-NP'
p581
g5
tp582
a(S'MEASURES'
p583
S'MEASURES'
p584
S'NNP'
p585
S'I-NP'
p586
g5
tp587
a(g7
g7
g7
g5
g5
tp588
a(S'Preferred'
p589
S'Prefer'
p590
S'VBN'
p591
S'B-NP'
p592
g5
tp593
a(S'goal'
p594
S'goal'
p595
S'NN'
p596
S'I-NP'
p597
g5
tp598
a(S'of'
p599
S'of'
p600
S'IN'
p601
S'B-PP'
p602
g5
tp603
a(S'care'
p604
S'care'
p605
S'NN'
p606
S'B-NP'
p607
g5
tp608
a(g7
g7
g7
g5
g5
tp609
a(S'life'
p610
S'life'
p611
S'NN'
p612
S'B-NP'
p613
g5
tp614
a(S'prolonging'
p615
S'prolonging'
p616
S'NN'
p617
S'I-NP'
p618
g5
tp619
a(S'care'
p620
S'care'
p621
S'NN'
p622
S'I-NP'
p623
g5
tp624
a(g269
g269
g269
g5
g5
tp625
a(S'cardiopulmonary'
p626
S'cardiopulmonary'
p627
S'JJ'
p628
S'B-NP'
p629
g5
tp630
a(S'resuscitation'
p631
S'resuscitation'
p632
S'NN'
p633
S'I-NP'
p634
g5
tp635
a(g133
g133
g133
g5
g5
tp636
a(S'mechanical'
p637
S'mechanical'
p638
S'JJ'
p639
S'B-NP'
p640
g5
tp641
a(S'ventilation'
p642
S'ventilation'
p643
S'NN'
p644
S'I-NP'
p645
g5
tp646
a(g300
g300
g300
g5
g5
tp647
a(g133
g133
g133
g5
g5
tp648
a(S'limited'
p649
S'limit'
p650
S'VBN'
p651
S'B-NP'
p652
g5
tp653
a(S'care'
p654
S'care'
p655
S'NN'
p656
S'I-NP'
p657
g5
tp658
a(g269
g269
g269
g5
g5
tp659
a(S'admission'
p660
S'admission'
p661
S'NN'
p662
S'B-NP'
p663
g5
tp664
a(S'to'
p665
S'to'
p666
S'TO'
p667
S'B-PP'
p668
g5
tp669
a(S'hospital'
p670
S'hospital'
p671
S'NN'
p672
S'B-NP'
p673
g5
tp674
a(g133
g133
g133
g5
g5
tp675
a(S'antibiotics'
p676
S'antibiotic'
p677
S'NNS'
p678
S'B-NP'
p679
g5
tp680
a(g133
g133
g133
g5
g5
tp681
a(S'but'
p682
S'but'
p683
S'CC'
p684
g5
g5
tp685
a(S'not'
p686
S'not'
p687
S'RB'
p688
g5
g5
tp689
a(S'cardiopulmonary'
p690
S'cardiopulmonary'
p691
S'JJ'
p692
S'B-NP'
p693
g5
tp694
a(S'resuscitation'
p695
S'resuscitation'
p696
S'NN'
p697
S'I-NP'
p698
g5
tp699
a(g300
g300
g300
g5
g5
tp700
a(g133
g133
g133
g5
g5
tp701
a(S'or'
p702
S'or'
p703
S'CC'
p704
g5
g5
tp705
a(S'comfort'
p706
S'comfort'
p707
S'NN'
p708
S'B-NP'
p709
g5
tp710
a(S'care'
p711
S'care'
p712
S'NN'
p713
S'I-NP'
p714
g5
tp715
a(g269
g269
g269
g5
g5
tp716
a(S'treatment'
p717
S'treatment'
p718
S'NN'
p719
S'B-NP'
p720
g5
tp721
a(S'only'
p722
S'only'
p723
S'RB'
p724
S'B-ADVP'
p725
g5
tp726
a(S'to'
p727
S'to'
p728
S'TO'
p729
S'B-VP'
p730
g5
tp731
a(S'relieve'
p732
S'relieve'
p733
S'VB'
p734
S'I-VP'
p735
g5
tp736
a(S'symptoms'
p737
S'symptom'
p738
S'NNS'
p739
S'B-NP'
p740
g5
tp741
a(g300
g300
g300
g5
g5
tp742
a(g571
g571
g571
g5
g5
tp743
a(S'Preferences'
p744
S'Preference'
p745
S'NNS'
p746
S'B-NP'
p747
g5
tp748
a(S'after'
p749
S'after'
p750
S'IN'
p751
S'B-PP'
p752
g5
tp753
a(S'six'
p754
S'six'
p755
S'CD'
p756
S'B-NP'
p757
g5
tp758
a(S'weeks.'
p759
S'weeks.'
p760
S'NNS'
p761
S'I-NP'
p762
g5
tp763
a(S'The'
p764
S'The'
p765
S'DT'
p766
S'B-NP'
p767
g5
tp768
a(S'principal'
p769
S'principal'
p770
S'JJ'
p771
S'I-NP'
p772
g5
tp773
a(S'category'
p774
S'category'
p775
S'NN'
p776
S'I-NP'
p777
g5
tp778
a(S'for'
p779
S'for'
p780
S'IN'
p781
S'B-PP'
p782
g5
tp783
a(S'analysis'
p784
S'analysis'
p785
S'NN'
p786
S'B-NP'
p787
g5
tp788
a(S'was'
p789
S'be'
p790
S'VBD'
p791
S'B-VP'
p792
g5
tp793
a(S'the'
p794
S'the'
p795
S'DT'
p796
S'B-NP'
p797
g5
tp798
a(S'difference'
p799
S'difference'
p800
S'NN'
p801
S'I-NP'
p802
g5
tp803
a(S'in'
p804
S'in'
p805
S'IN'
p806
S'B-PP'
p807
g5
tp808
a(S'proportions'
p809
S'proportion'
p810
S'NNS'
p811
S'B-NP'
p812
g5
tp813
a(S'of'
p814
S'of'
p815
S'IN'
p816
S'B-PP'
p817
g5
tp818
a(S'participants'
p819
S'participant'
p820
S'NNS'
p821
S'B-NP'
p822
g5
tp823
a(S'in'
p824
S'in'
p825
S'IN'
p826
S'B-PP'
p827
g5
tp828
a(S'each'
p829
S'each'
p830
S'DT'
p831
S'B-NP'
p832
g5
tp833
a(S'group'
p834
S'group'
p835
S'NN'
p836
S'I-NP'
p837
g5
tp838
a(S'who'
p839
S'who'
p840
S'WP'
p841
S'B-NP'
p842
g5
tp843
a(S'preferred'
p844
S'prefer'
p845
S'VBD'
p846
S'B-VP'
p847
g5
tp848
a(S'comfort'
p849
S'comfort'
p850
S'NN'
p851
S'B-NP'
p852
g5
tp853
a(S'care.'
p854
S'care.'
p855
S'NN'
p856
S'I-NP'
p857
g5
tp858
a(S'RESULTS'
p859
S'RESULTS'
p860
S'NNS'
p861
S'B-NP'
p862
g5
tp863
a(g7
g7
g7
g5
g5
tp864
a(S'Among'
p865
S'Among'
p866
S'IN'
p867
S'B-PP'
p868
g5
tp869
a(S'participants'
p870
S'participant'
p871
S'NNS'
p872
S'B-NP'
p873
g5
tp874
a(S'receiving'
p875
S'receive'
p876
S'VBG'
p877
S'B-VP'
p878
g5
tp879
a(S'the'
p880
S'the'
p881
S'DT'
p882
S'B-NP'
p883
g5
tp884
a(S'verbal'
p885
S'verbal'
p886
S'JJ'
p887
S'I-NP'
p888
g5
tp889
a(S'narrative'
p890
S'narrative'
p891
S'NN'
p892
S'I-NP'
p893
g5
tp894
a(S'alone'
p895
S'alone'
p896
S'RB'
p897
S'B-ADVP'
p898
g5
tp899
a(g133
g133
g133
g5
g5
tp900
a(S'68'
p901
S'68'
p902
S'CD'
p903
S'B-NP'
p904
g5
tp905
a(g269
g269
g269
g5
g5
tp906
a(S'64'
p907
S'64'
p908
S'CD'
p909
S'B-NP'
p910
g5
tp911
a(g489
g489
S'NN'
p912
S'I-NP'
p913
g5
tp914
a(g300
g300
g300
g5
g5
tp915
a(S'chose'
p916
S'choose'
p917
S'VBD'
p918
S'B-VP'
p919
g5
tp920
a(S'comfort'
p921
S'comfort'
p922
S'NN'
p923
S'B-NP'
p924
g5
tp925
a(S'care'
p926
S'care'
p927
S'NN'
p928
S'I-NP'
p929
g5
tp930
a(g133
g133
g133
g5
g5
tp931
a(S'20'
p932
S'20'
p933
S'CD'
p934
S'B-NP'
p935
g5
tp936
a(g269
g269
g269
g5
g5
tp937
a(S'19'
p938
S'19'
p939
S'CD'
p940
S'B-NP'
p941
g5
tp942
a(g489
g489
S'NN'
p943
S'I-NP'
p944
g5
tp945
a(g300
g300
g300
g5
g5
tp946
a(S'chose'
p947
S'choose'
p948
S'VBD'
p949
S'B-VP'
p950
g5
tp951
a(S'limited'
p952
S'limited'
p953
S'JJ'
p954
S'B-NP'
p955
g5
tp956
a(S'care'
p957
S'care'
p958
S'NN'
p959
S'I-NP'
p960
g5
tp961
a(g133
g133
g133
g5
g5
tp962
a(S'15'
p963
S'15'
p964
S'CD'
p965
S'B-NP'
p966
g5
tp967
a(g269
g269
g269
g5
g5
tp968
a(S'14'
p969
S'14'
p970
S'CD'
p971
S'B-NP'
p972
g5
tp973
a(g489
g489
S'NN'
p974
S'I-NP'
p975
g5
tp976
a(g300
g300
g300
g5
g5
tp977
a(S'chose'
p978
S'choose'
p979
S'VBD'
p980
S'B-VP'
p981
g5
tp982
a(S'life'
p983
S'life'
p984
S'NN'
p985
S'B-NP'
p986
g5
tp987
a(S'prolonging'
p988
S'prolong'
p989
S'VBG'
p990
S'B-VP'
p991
g5
tp992
a(S'care'
p993
S'care'
p994
S'NN'
p995
S'B-NP'
p996
g5
tp997
a(g133
g133
g133
g5
g5
tp998
a(S'and'
p999
S'and'
p1000
S'CC'
p1001
g5
g5
tp1002
a(S'three'
p1003
S'three'
p1004
S'CD'
p1005
S'B-NP'
p1006
g5
tp1007
a(g269
g269
g269
g5
g5
tp1008
a(S'3'
p1009
g1009
S'CD'
p1010
S'B-NP'
p1011
g5
tp1012
a(g489
g489
S'NN'
p1013
S'I-NP'
p1014
g5
tp1015
a(g300
g300
g300
g5
g5
tp1016
a(S'were'
p1017
S'be'
p1018
S'VBD'
p1019
S'B-VP'
p1020
g5
tp1021
a(S'uncertain.'
p1022
S'uncertain.'
p1023
S'JJ'
p1024
S'B-ADJP'
p1025
g5
tp1026
a(S'In'
p1027
S'In'
p1028
S'IN'
p1029
S'B-PP'
p1030
g5
tp1031
a(S'the'
p1032
S'the'
p1033
S'DT'
p1034
S'B-NP'
p1035
g5
tp1036
a(S'video'
p1037
S'video'
p1038
S'NN'
p1039
S'I-NP'
p1040
g5
tp1041
a(S'group'
p1042
S'group'
p1043
S'NN'
p1044
S'I-NP'
p1045
g5
tp1046
a(g133
g133
g133
g5
g5
tp1047
a(S'81'
p1048
S'81'
p1049
S'CD'
p1050
S'B-NP'
p1051
g5
tp1052
a(g269
g269
g269
g5
g5
tp1053
a(S'86'
p1054
S'86'
p1055
S'CD'
p1056
S'B-NP'
p1057
g5
tp1058
a(g489
g489
S'NN'
p1059
S'I-NP'
p1060
g5
tp1061
a(g300
g300
g300
g5
g5
tp1062
a(S'chose'
p1063
S'choose'
p1064
S'VBD'
p1065
S'B-VP'
p1066
g5
tp1067
a(S'comfort'
p1068
S'comfort'
p1069
S'NN'
p1070
S'B-NP'
p1071
g5
tp1072
a(S'care'
p1073
S'care'
p1074
S'NN'
p1075
S'I-NP'
p1076
g5
tp1077
a(g133
g133
g133
g5
g5
tp1078
a(S'eight'
p1079
S'eight'
p1080
S'CD'
p1081
S'B-NP'
p1082
g5
tp1083
a(g269
g269
g269
g5
g5
tp1084
a(S'9'
p1085
g1085
S'CD'
p1086
S'B-NP'
p1087
g5
tp1088
a(g489
g489
S'NN'
p1089
S'I-NP'
p1090
g5
tp1091
a(g300
g300
g300
g5
g5
tp1092
a(S'chose'
p1093
S'choose'
p1094
S'VBD'
p1095
S'B-VP'
p1096
g5
tp1097
a(S'limited'
p1098
S'limited'
p1099
S'JJ'
p1100
S'B-NP'
p1101
g5
tp1102
a(S'care'
p1103
S'care'
p1104
S'NN'
p1105
S'I-NP'
p1106
g5
tp1107
a(g133
g133
g133
g5
g5
tp1108
a(S'four'
p1109
S'four'
p1110
S'CD'
p1111
S'B-NP'
p1112
g5
tp1113
a(g269
g269
g269
g5
g5
tp1114
a(S'4'
p1115
g1115
S'CD'
p1116
S'B-NP'
p1117
g5
tp1118
a(g489
g489
S'NN'
p1119
S'I-NP'
p1120
g5
tp1121
a(g300
g300
g300
g5
g5
tp1122
a(S'chose'
p1123
S'choose'
p1124
S'VBD'
p1125
S'B-VP'
p1126
g5
tp1127
a(S'life'
p1128
S'life'
p1129
S'NN'
p1130
S'B-NP'
p1131
g5
tp1132
a(S'prolonging'
p1133
S'prolong'
p1134
S'VBG'
p1135
S'B-VP'
p1136
g5
tp1137
a(S'care'
p1138
S'care'
p1139
S'NN'
p1140
S'B-NP'
p1141
g5
tp1142
a(g133
g133
g133
g5
g5
tp1143
a(S'and'
p1144
S'and'
p1145
S'CC'
p1146
g5
g5
tp1147
a(S'one'
p1148
S'one'
p1149
S'CD'
p1150
S'B-NP'
p1151
g5
tp1152
a(g269
g269
g269
g5
g5
tp1153
a(g210
g210
S'CD'
p1154
S'B-NP'
p1155
g5
tp1156
a(g489
g489
S'NN'
p1157
S'I-NP'
p1158
g5
tp1159
a(g300
g300
g300
g5
g5
tp1160
a(S'was'
p1161
S'be'
p1162
S'VBD'
p1163
S'B-VP'
p1164
g5
tp1165
a(S'uncertain'
p1166
S'uncertain'
p1167
S'JJ'
p1168
S'B-ADJP'
p1169
g5
tp1170
a(g269
g269
g269
g5
g5
tp1171
a(S'chi'
p1172
S'chi'
p1173
S'NN'
p1174
S'B-NP'
p1175
S'B-protein'
p1176
tp1177
a(g269
g269
g269
g5
S'I-protein'
p1178
tp1179
a(S'2'
p1180
g1180
S'CD'
p1181
S'B-NP'
p1182
S'I-protein'
p1183
tp1184
a(g300
g300
g300
g5
S'I-protein'
p1185
tp1186
a(S'=13.0'
p1187
S'=13.0'
p1188
S'CD'
p1189
S'B-NP'
p1190
S'I-protein'
p1191
tp1192
a(g133
g133
g133
g5
g5
tp1193
a(S'df=3'
p1194
S'df=3'
p1195
S'NN'
p1196
S'B-NP'
p1197
g5
tp1198
a(g133
g133
g133
g5
g5
tp1199
a(S'P=0.003'
p1200
S'P=0.003'
p1201
S'NN'
p1202
S'B-NP'
p1203
g5
tp1204
a(g300
g300
g300
g5
g5
tp1205
a(g571
g571
g571
g5
g5
tp1206
a(S'Among'
p1207
S'Among'
p1208
S'IN'
p1209
S'B-PP'
p1210
g5
tp1211
a(S'all'
p1212
S'all'
p1213
S'DT'
p1214
S'B-NP'
p1215
g5
tp1216
a(S'participants'
p1217
S'participant'
p1218
S'NNS'
p1219
S'I-NP'
p1220
g5
tp1221
a(S'the'
p1222
S'the'
p1223
S'DT'
p1224
S'B-NP'
p1225
g5
tp1226
a(S'factors'
p1227
S'factor'
p1228
S'NNS'
p1229
S'I-NP'
p1230
g5
tp1231
a(S'associated'
p1232
S'associate'
p1233
S'VBN'
p1234
S'B-VP'
p1235
g5
tp1236
a(S'with'
p1237
S'with'
p1238
S'IN'
p1239
S'B-PP'
p1240
g5
tp1241
a(g34
g34
S'DT'
p1242
S'B-NP'
p1243
g5
tp1244
a(S'greater'
p1245
S'great'
p1246
S'JJR'
p1247
S'I-NP'
p1248
g5
tp1249
a(S'likelihood'
p1250
S'likelihood'
p1251
S'NN'
p1252
S'I-NP'
p1253
g5
tp1254
a(S'of'
p1255
S'of'
p1256
S'IN'
p1257
S'B-PP'
p1258
g5
tp1259
a(S'opting'
p1260
S'opte'
p1261
S'VBG'
p1262
S'B-VP'
p1263
g5
tp1264
a(S'for'
p1265
S'for'
p1266
S'IN'
p1267
S'B-PP'
p1268
g5
tp1269
a(S'comfort'
p1270
S'comfort'
p1271
S'NN'
p1272
S'B-NP'
p1273
g5
tp1274
a(S'care'
p1275
S'care'
p1276
S'NN'
p1277
S'I-NP'
p1278
g5
tp1279
a(S'were'
p1280
S'be'
p1281
S'VBD'
p1282
S'B-VP'
p1283
g5
tp1284
a(S'being'
p1285
S'be'
p1286
S'VBG'
p1287
S'I-VP'
p1288
g5
tp1289
a(g34
g34
S'DT'
p1290
S'B-NP'
p1291
g5
tp1292
a(S'college'
p1293
S'college'
p1294
S'NN'
p1295
S'I-NP'
p1296
g5
tp1297
a(S'graduate'
p1298
S'graduate'
p1299
S'NN'
p1300
S'I-NP'
p1301
g5
tp1302
a(S'or'
p1303
S'or'
p1304
S'CC'
p1305
g5
g5
tp1306
a(S'higher'
p1307
S'high'
p1308
S'JJR'
p1309
S'B-NP'
p1310
g5
tp1311
a(g133
g133
g133
S'I-NP'
p1312
g5
tp1313
a(S'good'
p1314
S'good'
p1315
S'JJ'
p1316
S'I-NP'
p1317
g5
tp1318
a(S'or'
p1319
S'or'
p1320
S'CC'
p1321
S'I-NP'
p1322
g5
tp1323
a(S'better'
p1324
S'good'
p1325
S'JJR'
p1326
S'I-NP'
p1327
g5
tp1328
a(S'health'
p1329
S'health'
p1330
S'NN'
p1331
S'I-NP'
p1332
g5
tp1333
a(S'status'
p1334
S'status'
p1335
S'NN'
p1336
S'I-NP'
p1337
g5
tp1338
a(g133
g133
g133
g5
g5
tp1339
a(S'greater'
p1340
S'great'
p1341
S'JJR'
p1342
S'B-NP'
p1343
g5
tp1344
a(S'health'
p1345
S'health'
p1346
S'NN'
p1347
S'I-NP'
p1348
g5
tp1349
a(S'literacy'
p1350
S'literacy'
p1351
S'NN'
p1352
S'I-NP'
p1353
g5
tp1354
a(g133
g133
g133
g5
g5
tp1355
a(S'white'
p1356
S'white'
p1357
S'JJ'
p1358
S'B-NP'
p1359
g5
tp1360
a(S'race'
p1361
S'race'
p1362
S'NN'
p1363
S'I-NP'
p1364
g5
tp1365
a(g133
g133
g133
g5
g5
tp1366
a(S'and'
p1367
S'and'
p1368
S'CC'
p1369
g5
g5
tp1370
a(S'randomisation'
p1371
S'randomisation'
p1372
S'NN'
p1373
S'B-NP'
p1374
g5
tp1375
a(S'to'
p1376
S'to'
p1377
S'TO'
p1378
S'B-PP'
p1379
g5
tp1380
a(S'the'
p1381
S'the'
p1382
S'DT'
p1383
S'B-NP'
p1384
g5
tp1385
a(S'video'
p1386
S'video'
p1387
S'NN'
p1388
S'I-NP'
p1389
g5
tp1390
a(S'arm.'
p1391
S'arm.'
p1392
S'NN'
p1393
S'I-NP'
p1394
g5
tp1395
a(S'In'
p1396
S'In'
p1397
S'IN'
p1398
S'B-PP'
p1399
g5
tp1400
a(S'multivariable'
p1401
S'multivariable'
p1402
S'JJ'
p1403
S'B-NP'
p1404
g5
tp1405
a(S'analysis'
p1406
S'analysis'
p1407
S'NN'
p1408
S'I-NP'
p1409
g5
tp1410
a(g133
g133
g133
g5
g5
tp1411
a(S'participants'
p1412
S'participant'
p1413
S'NNS'
p1414
S'B-NP'
p1415
g5
tp1416
a(S'in'
p1417
S'in'
p1418
S'IN'
p1419
S'B-PP'
p1420
g5
tp1421
a(S'the'
p1422
S'the'
p1423
S'DT'
p1424
S'B-NP'
p1425
g5
tp1426
a(S'video'
p1427
S'video'
p1428
S'NN'
p1429
S'I-NP'
p1430
g5
tp1431
a(S'group'
p1432
S'group'
p1433
S'NN'
p1434
S'I-NP'
p1435
g5
tp1436
a(S'were'
p1437
S'be'
p1438
S'VBD'
p1439
S'B-VP'
p1440
g5
tp1441
a(S'more'
p1442
S'more'
p1443
S'RBR'
p1444
S'B-ADJP'
p1445
g5
tp1446
a(S'likely'
p1447
S'likely'
p1448
S'JJ'
p1449
S'I-ADJP'
p1450
g5
tp1451
a(S'to'
p1452
S'to'
p1453
S'TO'
p1454
S'B-VP'
p1455
g5
tp1456
a(S'prefer'
p1457
S'prefer'
p1458
S'VB'
p1459
S'I-VP'
p1460
g5
tp1461
a(S'comfort'
p1462
S'comfort'
p1463
S'NN'
p1464
S'B-NP'
p1465
g5
tp1466
a(S'care'
p1467
S'care'
p1468
S'NN'
p1469
S'I-NP'
p1470
g5
tp1471
a(S'than'
p1472
S'than'
p1473
S'IN'
p1474
S'B-PP'
p1475
g5
tp1476
a(S'those'
p1477
S'those'
p1478
S'DT'
p1479
S'B-NP'
p1480
g5
tp1481
a(S'in'
p1482
S'in'
p1483
S'IN'
p1484
S'B-PP'
p1485
g5
tp1486
a(S'the'
p1487
S'the'
p1488
S'DT'
p1489
S'B-NP'
p1490
g5
tp1491
a(S'verbal'
p1492
S'verbal'
p1493
S'JJ'
p1494
S'I-NP'
p1495
g5
tp1496
a(S'group'
p1497
S'group'
p1498
S'NN'
p1499
S'I-NP'
p1500
g5
tp1501
a(g269
g269
g269
g5
g5
tp1502
a(S'adjusted'
p1503
S'adjust'
p1504
S'VBN'
p1505
S'B-NP'
p1506
g5
tp1507
a(S'odds'
p1508
S'odd'
p1509
S'NNS'
p1510
S'I-NP'
p1511
g5
tp1512
a(S'ratio'
p1513
S'ratio'
p1514
S'NN'
p1515
S'B-NP'
p1516
g5
tp1517
a(S'3.9'
p1518
S'3.9'
p1519
S'CD'
p1520
S'I-NP'
p1521
g5
tp1522
a(g133
g133
g133
g5
g5
tp1523
a(S'95'
p1524
S'95'
p1525
S'CD'
p1526
S'B-NP'
p1527
g5
tp1528
a(g489
g489
S'NN'
p1529
S'I-NP'
p1530
g5
tp1531
a(S'confidence'
p1532
S'confidence'
p1533
S'NN'
p1534
S'I-NP'
p1535
g5
tp1536
a(S'interval'
p1537
S'interval'
p1538
S'NN'
p1539
S'I-NP'
p1540
g5
tp1541
a(S'1.8'
p1542
S'1.8'
p1543
S'CD'
p1544
S'B-NP'
p1545
g5
tp1546
a(S'to'
p1547
S'to'
p1548
S'TO'
p1549
S'I-NP'
p1550
g5
tp1551
a(S'8.6'
p1552
S'8.6'
p1553
S'CD'
p1554
S'I-NP'
p1555
g5
tp1556
a(g300
g300
g300
g5
g5
tp1557
a(g571
g571
g571
g5
g5
tp1558
a(S'Participants'
p1559
S'Participant'
p1560
S'NNS'
p1561
S'B-NP'
p1562
g5
tp1563
a(S'were'
p1564
S'be'
p1565
S'VBD'
p1566
S'B-VP'
p1567
g5
tp1568
a(S're-interviewed'
p1569
S're-interviewe'
p1570
S'VBN'
p1571
S'I-VP'
p1572
g5
tp1573
a(S'after'
p1574
S'after'
p1575
S'IN'
p1576
S'B-PP'
p1577
g5
tp1578
a(S'six'
p1579
S'six'
p1580
S'CD'
p1581
S'B-NP'
p1582
g5
tp1583
a(S'weeks.'
p1584
S'weeks.'
p1585
S'NNS'
p1586
S'I-NP'
p1587
g5
tp1588
a(S'Among'
p1589
S'Among'
p1590
S'IN'
p1591
S'B-PP'
p1592
g5
tp1593
a(S'the'
p1594
S'the'
p1595
S'DT'
p1596
S'B-NP'
p1597
g5
tp1598
a(S'94/106'
p1599
S'94/106'
p1600
S'CD'
p1601
S'I-NP'
p1602
g5
tp1603
a(g269
g269
g269
g5
g5
tp1604
a(S'89'
p1605
S'89'
p1606
S'CD'
p1607
S'B-NP'
p1608
g5
tp1609
a(g489
g489
S'NN'
p1610
S'I-NP'
p1611
g5
tp1612
a(g300
g300
g300
g5
g5
tp1613
a(S'participants'
p1614
S'participant'
p1615
S'NNS'
p1616
S'B-NP'
p1617
g5
tp1618
a(S're-interviewed'
p1619
S're-interviewe'
p1620
S'VBN'
p1621
S'B-VP'
p1622
g5
tp1623
a(S'in'
p1624
S'in'
p1625
S'IN'
p1626
S'B-PP'
p1627
g5
tp1628
a(S'the'
p1629
S'the'
p1630
S'DT'
p1631
S'B-NP'
p1632
g5
tp1633
a(S'verbal'
p1634
S'verbal'
p1635
S'JJ'
p1636
S'I-NP'
p1637
g5
tp1638
a(S'group'
p1639
S'group'
p1640
S'NN'
p1641
S'I-NP'
p1642
g5
tp1643
a(g133
g133
g133
g5
g5
tp1644
a(S'27'
p1645
S'27'
p1646
S'CD'
p1647
S'B-NP'
p1648
g5
tp1649
a(g269
g269
g269
g5
g5
tp1650
a(S'29'
p1651
S'29'
p1652
S'CD'
p1653
S'B-NP'
p1654
g5
tp1655
a(g489
g489
S'NN'
p1656
S'I-NP'
p1657
g5
tp1658
a(g300
g300
g300
g5
g5
tp1659
a(S'changed'
p1660
S'change'
p1661
S'VBD'
p1662
S'B-VP'
p1663
g5
tp1664
a(S'their'
p1665
S'their'
p1666
S'PRP$'
p1667
S'B-NP'
p1668
g5
tp1669
a(S'preferences'
p1670
S'preference'
p1671
S'NNS'
p1672
S'I-NP'
p1673
g5
tp1674
a(g269
g269
g269
g5
g5
tp1675
a(S'kappa=0.35'
p1676
S'kappa=0.35'
p1677
S'CD'
p1678
S'B-NP'
p1679
g5
tp1680
a(g300
g300
g300
g5
g5
tp1681
a(g571
g571
g571
g5
g5
tp1682
a(S'Among'
p1683
S'Among'
p1684
S'IN'
p1685
S'B-PP'
p1686
g5
tp1687
a(S'the'
p1688
S'the'
p1689
S'DT'
p1690
S'B-NP'
p1691
g5
tp1692
a(S'84/94'
p1693
S'84/94'
p1694
S'CD'
p1695
S'I-NP'
p1696
g5
tp1697
a(g269
g269
g269
g5
g5
tp1698
a(S'89'
p1699
S'89'
p1700
S'CD'
p1701
S'B-NP'
p1702
g5
tp1703
a(g489
g489
S'NN'
p1704
S'I-NP'
p1705
g5
tp1706
a(g300
g300
g300
g5
g5
tp1707
a(S'participants'
p1708
S'participant'
p1709
S'NNS'
p1710
S'B-NP'
p1711
g5
tp1712
a(S're-interviewed'
p1713
S're-interviewe'
p1714
S'VBN'
p1715
S'B-VP'
p1716
g5
tp1717
a(S'in'
p1718
S'in'
p1719
S'IN'
p1720
S'B-PP'
p1721
g5
tp1722
a(S'the'
p1723
S'the'
p1724
S'DT'
p1725
S'B-NP'
p1726
g5
tp1727
a(S'video'
p1728
S'video'
p1729
S'NN'
p1730
S'I-NP'
p1731
g5
tp1732
a(S'group'
p1733
S'group'
p1734
S'NN'
p1735
S'I-NP'
p1736
g5
tp1737
a(g133
g133
g133
g5
g5
tp1738
a(S'five'
p1739
S'five'
p1740
S'CD'
p1741
S'B-NP'
p1742
g5
tp1743
a(g269
g269
g269
g5
g5
tp1744
a(S'6'
p1745
g1745
S'CD'
p1746
S'B-NP'
p1747
g5
tp1748
a(g489
g489
S'NN'
p1749
S'I-NP'
p1750
g5
tp1751
a(g300
g300
g300
g5
g5
tp1752
a(S'changed'
p1753
S'change'
p1754
S'VBD'
p1755
S'B-VP'
p1756
g5
tp1757
a(S'their'
p1758
S'their'
p1759
S'PRP$'
p1760
S'B-NP'
p1761
g5
tp1762
a(S'preferences'
p1763
S'preference'
p1764
S'NNS'
p1765
S'I-NP'
p1766
g5
tp1767
a(g269
g269
g269
g5
g5
tp1768
a(S'kappa=0.79'
p1769
S'kappa=0.79'
p1770
S'CD'
p1771
S'B-NP'
p1772
g5
tp1773
a(g300
g300
g300
g5
g5
tp1774
a(g269
g269
g269
g5
g5
tp1775
a(S'P'
p1776
g1776
S'NN'
p1777
S'B-NP'
p1778
g5
tp1779
a(S'<'
p1780
g1780
S'JJR'
p1781
S'B-NP'
p1782
g5
tp1783
a(S'0.001'
p1784
S'0.001'
p1785
S'CD'
p1786
S'I-NP'
p1787
g5
tp1788
a(S'for'
p1789
S'for'
p1790
S'IN'
p1791
S'B-PP'
p1792
g5
tp1793
a(S'difference'
p1794
S'difference'
p1795
S'NN'
p1796
S'B-NP'
p1797
g5
tp1798
a(g300
g300
g300
g5
g5
tp1799
a(g571
g571
g571
g5
g5
tp1800
a(S'CONCLUSION'
p1801
S'CONCLUSION'
p1802
S'NN'
p1803
S'B-NP'
p1804
g5
tp1805
a(g7
g7
g7
g5
g5
tp1806
a(S'Older'
p1807
S'Old'
p1808
S'JJR'
p1809
S'B-NP'
p1810
g5
tp1811
a(S'people'
p1812
S'people'
p1813
S'NNS'
p1814
S'I-NP'
p1815
g5
tp1816
a(S'who'
p1817
S'who'
p1818
S'WP'
p1819
S'B-NP'
p1820
g5
tp1821
a(S'view'
p1822
S'view'
p1823
S'VBP'
p1824
S'B-VP'
p1825
g5
tp1826
a(g34
g34
S'DT'
p1827
S'B-NP'
p1828
g5
tp1829
a(S'video'
p1830
S'video'
p1831
S'NN'
p1832
S'I-NP'
p1833
g5
tp1834
a(S'depiction'
p1835
S'depiction'
p1836
S'NN'
p1837
S'I-NP'
p1838
g5
tp1839
a(S'of'
p1840
S'of'
p1841
S'IN'
p1842
S'B-PP'
p1843
g5
tp1844
a(g34
g34
S'DT'
p1845
S'B-NP'
p1846
g5
tp1847
a(S'patient'
p1848
S'patient'
p1849
S'NN'
p1850
S'I-NP'
p1851
g5
tp1852
a(S'with'
p1853
S'with'
p1854
S'IN'
p1855
S'B-PP'
p1856
g5
tp1857
a(S'advanced'
p1858
S'advance'
p1859
S'VBN'
p1860
S'B-NP'
p1861
g5
tp1862
a(S'dementia'
p1863
S'dementia'
p1864
S'NN'
p1865
S'I-NP'
p1866
g5
tp1867
a(S'after'
p1868
S'after'
p1869
S'IN'
p1870
S'B-PP'
p1871
g5
tp1872
a(S'hearing'
p1873
S'hear'
p1874
S'VBG'
p1875
S'B-VP'
p1876
g5
tp1877
a(g34
g34
S'DT'
p1878
S'B-NP'
p1879
g5
tp1880
a(S'verbal'
p1881
S'verbal'
p1882
S'JJ'
p1883
S'I-NP'
p1884
g5
tp1885
a(S'description'
p1886
S'description'
p1887
S'NN'
p1888
S'I-NP'
p1889
g5
tp1890
a(S'of'
p1891
S'of'
p1892
S'IN'
p1893
S'B-PP'
p1894
g5
tp1895
a(S'the'
p1896
S'the'
p1897
S'DT'
p1898
S'B-NP'
p1899
g5
tp1900
a(S'condition'
p1901
S'condition'
p1902
S'NN'
p1903
S'I-NP'
p1904
g5
tp1905
a(S'are'
p1906
S'be'
p1907
S'VBP'
p1908
S'B-VP'
p1909
g5
tp1910
a(S'more'
p1911
S'more'
p1912
S'RBR'
p1913
S'B-ADJP'
p1914
g5
tp1915
a(S'likely'
p1916
S'likely'
p1917
S'JJ'
p1918
S'I-ADJP'
p1919
g5
tp1920
a(S'to'
p1921
S'to'
p1922
S'TO'
p1923
S'B-VP'
p1924
g5
tp1925
a(S'opt'
p1926
S'opt'
p1927
S'VB'
p1928
S'I-VP'
p1929
g5
tp1930
a(S'for'
p1931
S'for'
p1932
S'IN'
p1933
S'B-PP'
p1934
g5
tp1935
a(S'comfort'
p1936
S'comfort'
p1937
S'NN'
p1938
S'B-NP'
p1939
g5
tp1940
a(S'as'
p1941
S'as'
p1942
S'IN'
p1943
S'B-PP'
p1944
g5
tp1945
a(S'their'
p1946
S'their'
p1947
S'PRP$'
p1948
S'B-NP'
p1949
g5
tp1950
a(S'goal'
p1951
S'goal'
p1952
S'NN'
p1953
S'I-NP'
p1954
g5
tp1955
a(S'of'
p1956
S'of'
p1957
S'IN'
p1958
S'B-PP'
p1959
g5
tp1960
a(S'care'
p1961
S'care'
p1962
S'NN'
p1963
S'B-NP'
p1964
g5
tp1965
a(S'compared'
p1966
S'compare'
p1967
S'VBN'
p1968
S'B-PP'
p1969
g5
tp1970
a(S'with'
p1971
S'with'
p1972
S'IN'
p1973
S'B-PP'
p1974
g5
tp1975
a(S'those'
p1976
S'those'
p1977
S'DT'
p1978
S'B-NP'
p1979
g5
tp1980
a(S'who'
p1981
S'who'
p1982
S'WP'
p1983
S'B-NP'
p1984
g5
tp1985
a(S'solely'
p1986
S'solely'
p1987
S'RB'
p1988
S'B-ADVP'
p1989
g5
tp1990
a(S'listen'
p1991
S'listen'
p1992
S'VBP'
p1993
S'B-VP'
p1994
g5
tp1995
a(S'to'
p1996
S'to'
p1997
S'TO'
p1998
S'B-PP'
p1999
g5
tp2000
a(g34
g34
S'DT'
p2001
S'B-NP'
p2002
g5
tp2003
a(S'verbal'
p2004
S'verbal'
p2005
S'JJ'
p2006
S'I-NP'
p2007
g5
tp2008
a(S'description.'
p2009
S'description.'
p2010
S'NN'
p2011
S'I-NP'
p2012
g5
tp2013
a(S'They'
p2014
S'They'
p2015
S'PRP'
p2016
S'B-NP'
p2017
g5
tp2018
a(S'also'
p2019
S'also'
p2020
S'RB'
p2021
S'B-ADVP'
p2022
g5
tp2023
a(S'have'
p2024
S'have'
p2025
S'VBP'
p2026
S'B-VP'
p2027
g5
tp2028
a(S'more'
p2029
S'more'
p2030
S'RBR'
p2031
S'B-NP'
p2032
g5
tp2033
a(S'stable'
p2034
S'stable'
p2035
S'JJ'
p2036
S'I-NP'
p2037
g5
tp2038
a(S'preferences'
p2039
S'preference'
p2040
S'NNS'
p2041
S'I-NP'
p2042
g5
tp2043
a(S'over'
p2044
S'over'
p2045
S'IN'
p2046
S'B-PP'
p2047
g5
tp2048
a(S'time.'
p2049
S'time.'
p2050
S'NN'
p2051
S'B-NP'
p2052
g5
tp2053
a(S'TRIAL'
p2054
S'TRIAL'
p2055
S'NN'
p2056
S'B-NP'
p2057
g5
tp2058
a(S'REGISTRATION'
p2059
S'REGISTRATION'
p2060
S'NN'
p2061
S'I-NP'
p2062
g5
tp2063
a(g7
g7
g7
g5
g5
tp2064
a(S'Clinicaltrials.gov'
p2065
S'Clinicaltrials.gov'
p2066
S'NNP'
p2067
S'B-NP'
p2068
g5
tp2069
a(S'NCT00704886'
p2070
S'NCT00704886'
p2071
S'NN'
p2072
S'B-NP'
p2073
g5
tp2074
a(g571
g571
g571
g5
g5
tp2075
a.