(lp0
(S'OBJECTIVE'
p1
S'OBJECTIVE'
p2
S'NN'
p3
S'B-NP'
p4
S'O'
p5
tp6
a(S':'
p7
g7
g7
g5
g5
tp8
a(S'To'
p9
S'To'
p10
S'TO'
p11
S'B-VP'
p12
g5
tp13
a(S'determine'
p14
S'determine'
p15
S'VB'
p16
S'I-VP'
p17
g5
tp18
a(S'whether'
p19
S'whether'
p20
S'IN'
p21
S'B-SBAR'
p22
g5
tp23
a(S'dietary'
p24
S'dietary'
p25
S'JJ'
p26
S'B-NP'
p27
g5
tp28
a(S'intervention'
p29
S'intervention'
p30
S'NN'
p31
S'I-NP'
p32
g5
tp33
a(S'or'
p34
S'or'
p35
S'CC'
p36
S'I-NP'
p37
g5
tp38
a(S'knee'
p39
S'knee'
p40
S'NN'
p41
S'I-NP'
p42
g5
tp43
a(S'strengthening'
p44
S'strengthen'
p45
S'VBG'
p46
S'B-VP'
p47
g5
tp48
a(S'exercise'
p49
S'exercise'
p50
S'NN'
p51
S'B-NP'
p52
g5
tp53
a(S','
p54
g54
g54
g5
g5
tp55
a(S'or'
p56
S'or'
p57
S'CC'
p58
g5
g5
tp59
a(S'both'
p60
S'both'
p61
S'DT'
p62
S'B-NP'
p63
g5
tp64
a(g54
g54
g54
g5
g5
tp65
a(S'can'
p66
S'can'
p67
S'MD'
p68
S'B-VP'
p69
g5
tp70
a(S'reduce'
p71
S'reduce'
p72
S'VB'
p73
S'I-VP'
p74
g5
tp75
a(S'knee'
p76
S'knee'
p77
S'NN'
p78
S'B-NP'
p79
g5
tp80
a(S'pain'
p81
S'pain'
p82
S'NN'
p83
S'I-NP'
p84
g5
tp85
a(S'and'
p86
S'and'
p87
S'CC'
p88
g5
g5
tp89
a(S'improve'
p90
S'improve'
p91
S'VB'
p92
S'B-VP'
p93
g5
tp94
a(S'knee'
p95
S'knee'
p96
S'NN'
p97
S'B-NP'
p98
g5
tp99
a(S'function'
p100
S'function'
p101
S'NN'
p102
S'I-NP'
p103
g5
tp104
a(S'in'
p105
S'in'
p106
S'IN'
p107
S'B-PP'
p108
g5
tp109
a(S'overweight'
p110
S'overweight'
p111
S'JJ'
p112
S'B-NP'
p113
g5
tp114
a(S'and'
p115
S'and'
p116
S'CC'
p117
S'I-NP'
p118
g5
tp119
a(S'obese'
p120
S'obese'
p121
S'JJ'
p122
S'I-NP'
p123
g5
tp124
a(S'adults'
p125
S'adult'
p126
S'NNS'
p127
S'I-NP'
p128
g5
tp129
a(S'in'
p130
S'in'
p131
S'IN'
p132
S'B-PP'
p133
g5
tp134
a(S'the'
p135
S'the'
p136
S'DT'
p137
S'B-NP'
p138
g5
tp139
a(S'community.'
p140
S'community.'
p141
S'NN'
p142
S'I-NP'
p143
g5
tp144
a(S'DESIGN'
p145
S'DESIGN'
p146
S'NN'
p147
S'B-NP'
p148
g5
tp149
a(g7
g7
g7
g5
g5
tp150
a(S'Pragmatic'
p151
S'Pragmatic'
p152
S'JJ'
p153
S'B-NP'
p154
g5
tp155
a(S'factorial'
p156
S'factorial'
p157
S'JJ'
p158
S'I-NP'
p159
g5
tp160
a(S'randomised'
p161
S'randomise'
p162
S'VBN'
p163
S'I-NP'
p164
g5
tp165
a(S'controlled'
p166
S'control'
p167
S'VBN'
p168
S'I-NP'
p169
g5
tp170
a(S'trial.'
p171
S'trial.'
p172
S'NN'
p173
S'I-NP'
p174
g5
tp175
a(S'SETTING'
p176
S'SETTING'
p177
S'NN'
p178
S'B-NP'
p179
g5
tp180
a(g7
g7
g7
g5
g5
tp181
a(S'Five'
p182
S'Five'
p183
S'CD'
p184
S'B-NP'
p185
g5
tp186
a(S'general'
p187
S'general'
p188
S'JJ'
p189
S'I-NP'
p190
g5
tp191
a(S'practices'
p192
S'practice'
p193
S'NNS'
p194
S'I-NP'
p195
g5
tp196
a(S'in'
p197
S'in'
p198
S'IN'
p199
S'B-PP'
p200
g5
tp201
a(S'Nottingham.'
p202
S'Nottingham.'
p203
S'NNP'
p204
S'B-NP'
p205
g5
tp206
a(S'PARTICIPANTS'
p207
S'PARTICIPANTS'
p208
S'NNS'
p209
S'B-NP'
p210
g5
tp211
a(g7
g7
g7
g5
g5
tp212
a(S'389'
p213
S'389'
p214
S'CD'
p215
S'B-NP'
p216
g5
tp217
a(S'men'
p218
S'man'
p219
S'NNS'
p220
S'I-NP'
p221
g5
tp222
a(S'and'
p223
S'and'
p224
S'CC'
p225
S'I-NP'
p226
g5
tp227
a(S'women'
p228
S'woman'
p229
S'NNS'
p230
S'I-NP'
p231
g5
tp232
a(S'aged'
p233
S'age'
p234
S'VBN'
p235
S'B-ADJP'
p236
g5
tp237
a(S'45'
p238
S'45'
p239
S'CD'
p240
S'B-NP'
p241
g5
tp242
a(S'and'
p243
S'and'
p244
S'CC'
p245
S'I-NP'
p246
g5
tp247
a(S'over'
p248
S'over'
p249
S'RB'
p250
S'I-NP'
p251
g5
tp252
a(S'with'
p253
S'with'
p254
S'IN'
p255
S'B-PP'
p256
g5
tp257
a(S'a'
p258
g258
S'DT'
p259
S'B-NP'
p260
g5
tp261
a(S'body'
p262
S'body'
p263
S'NN'
p264
S'I-NP'
p265
g5
tp266
a(S'mass'
p267
S'mass'
p268
S'NN'
p269
S'I-NP'
p270
g5
tp271
a(S'index'
p272
S'index'
p273
S'NN'
p274
S'I-NP'
p275
g5
tp276
a(S'('
p277
g277
g277
g5
g5
tp278
a(S'BMI'
p279
S'BMI'
p280
S'NN'
p281
S'B-NP'
p282
g5
tp283
a(S')'
p284
g284
g284
g5
g5
tp285
a(S'of'
p286
S'of'
p287
S'IN'
p288
S'B-PP'
p289
g5
tp290
a(S'>'
p291
g291
S'SYM'
p292
S'B-NP'
p293
g5
tp294
a(S'or'
p295
S'or'
p296
S'CC'
p297
g5
g5
tp298
a(S'='
p299
g299
S'SYM'
p300
S'B-VP'
p301
g5
tp302
a(S'28.0'
p303
S'28.0'
p304
S'CD'
p305
S'B-NP'
p306
g5
tp307
a(S'and'
p308
S'and'
p309
S'CC'
p310
g5
g5
tp311
a(S'self'
p312
S'self'
p313
S'PRP'
p314
S'B-NP'
p315
g5
tp316
a(S'reported'
p317
S'report'
p318
S'VBD'
p319
S'B-VP'
p320
g5
tp321
a(S'knee'
p322
S'knee'
p323
S'NN'
p324
S'B-NP'
p325
g5
tp326
a(S'pain.'
p327
S'pain.'
p328
S'NN'
p329
S'I-NP'
p330
g5
tp331
a(S'INTERVENTIONS'
p332
S'INTERVENTIONS'
p333
S'NNS'
p334
S'B-NP'
p335
g5
tp336
a(g7
g7
g7
g5
g5
tp337
a(S'Participants'
p338
S'Participant'
p339
S'NNS'
p340
S'B-NP'
p341
g5
tp342
a(S'were'
p343
S'be'
p344
S'VBD'
p345
S'B-VP'
p346
g5
tp347
a(S'randomised'
p348
S'randomise'
p349
S'VBN'
p350
S'I-VP'
p351
g5
tp352
a(S'to'
p353
S'to'
p354
S'TO'
p355
S'B-PP'
p356
g5
tp357
a(S'dietary'
p358
S'dietary'
p359
S'JJ'
p360
S'B-NP'
p361
g5
tp362
a(S'intervention'
p363
S'intervention'
p364
S'NN'
p365
S'I-NP'
p366
g5
tp367
a(S'plus'
p368
S'plus'
p369
S'CC'
p370
g5
g5
tp371
a(S'quadriceps'
p372
S'quadricep'
p373
S'VBZ'
p374
S'B-VP'
p375
g5
tp376
a(S'strengthening'
p377
S'strengthen'
p378
S'VBG'
p379
S'I-VP'
p380
g5
tp381
a(S'exercises'
p382
S'exercise'
p383
S'NNS'
p384
S'B-NP'
p385
g5
tp386
a(S';'
p387
g387
g7
g5
g5
tp388
a(S'dietary'
p389
S'dietary'
p390
S'JJ'
p391
S'B-NP'
p392
g5
tp393
a(S'intervention'
p394
S'intervention'
p395
S'NN'
p396
S'I-NP'
p397
g5
tp398
a(S'alone'
p399
S'alone'
p400
S'RB'
p401
S'B-NP'
p402
g5
tp403
a(g387
g387
g7
g5
g5
tp404
a(S'quadriceps'
p405
S'quadricep'
p406
S'VBZ'
p407
S'B-VP'
p408
g5
tp409
a(S'strengthening'
p410
S'strengthening'
p411
S'NN'
p412
S'B-NP'
p413
g5
tp414
a(S'exercises'
p415
S'exercise'
p416
S'VBZ'
p417
S'B-VP'
p418
g5
tp419
a(S'alone'
p420
S'alone'
p421
S'RB'
p422
S'B-ADVP'
p423
g5
tp424
a(g387
g387
g7
g5
g5
tp425
a(S'advice'
p426
S'advice'
p427
S'NN'
p428
S'B-NP'
p429
g5
tp430
a(S'leaflet'
p431
S'leaflet'
p432
S'NN'
p433
S'I-NP'
p434
g5
tp435
a(S'only'
p436
S'only'
p437
S'RB'
p438
S'B-ADVP'
p439
g5
tp440
a(g277
g277
g277
g5
g5
tp441
a(S'control'
p442
S'control'
p443
S'NN'
p444
S'B-NP'
p445
g5
tp446
a(S'group'
p447
S'group'
p448
S'NN'
p449
S'I-NP'
p450
g5
tp451
a(g284
g284
g284
g5
g5
tp452
a(S'.'
p453
g453
g453
g5
g5
tp454
a(S'Dietary'
p455
S'Dietary'
p456
S'JJ'
p457
S'B-NP'
p458
g5
tp459
a(S'intervention'
p460
S'intervention'
p461
S'NN'
p462
S'I-NP'
p463
g5
tp464
a(S'consisted'
p465
S'consist'
p466
S'VBD'
p467
S'B-VP'
p468
g5
tp469
a(S'of'
p470
S'of'
p471
S'IN'
p472
S'B-PP'
p473
g5
tp474
a(S'individualised'
p475
S'individualise'
p476
S'VBN'
p477
S'B-NP'
p478
g5
tp479
a(S'healthy'
p480
S'healthy'
p481
S'JJ'
p482
S'I-NP'
p483
g5
tp484
a(S'eating'
p485
S'eating'
p486
S'NN'
p487
S'I-NP'
p488
g5
tp489
a(S'advice'
p490
S'advice'
p491
S'NN'
p492
S'I-NP'
p493
g5
tp494
a(S'that'
p495
S'that'
p496
S'WDT'
p497
S'B-NP'
p498
g5
tp499
a(S'would'
p500
S'would'
p501
S'MD'
p502
S'B-VP'
p503
g5
tp504
a(S'reduce'
p505
S'reduce'
p506
S'VB'
p507
S'I-VP'
p508
g5
tp509
a(S'normal'
p510
S'normal'
p511
S'JJ'
p512
S'B-NP'
p513
g5
tp514
a(S'intake'
p515
S'intake'
p516
S'NN'
p517
S'I-NP'
p518
g5
tp519
a(S'by'
p520
S'by'
p521
S'IN'
p522
S'B-PP'
p523
g5
tp524
a(S'2.5'
p525
S'2.5'
p526
S'CD'
p527
S'B-NP'
p528
g5
tp529
a(S'MJ'
p530
S'MJ'
p531
S'NN'
p532
S'I-NP'
p533
g5
tp534
a(g277
g277
g277
g5
g5
tp535
a(S'600'
p536
S'600'
p537
S'CD'
p538
S'B-NP'
p539
g5
tp540
a(S'kcal'
p541
S'kcal'
p542
S'JJ'
p543
S'I-NP'
p544
g5
tp545
a(g284
g284
g284
g5
g5
tp546
a(g258
g258
S'DT'
p547
S'B-NP'
p548
g5
tp549
a(S'day.'
p550
S'day.'
p551
S'NN'
p552
S'I-NP'
p553
g5
tp554
a(S'Interventions'
p555
S'Intervention'
p556
S'NNS'
p557
S'B-NP'
p558
g5
tp559
a(S'were'
p560
S'be'
p561
S'VBD'
p562
S'B-VP'
p563
g5
tp564
a(S'delivered'
p565
S'deliver'
p566
S'VBN'
p567
S'I-VP'
p568
g5
tp569
a(S'at'
p570
S'at'
p571
S'IN'
p572
S'B-PP'
p573
g5
tp574
a(S'home'
p575
S'home'
p576
S'NN'
p577
S'B-NP'
p578
g5
tp579
a(S'visits'
p580
S'visit'
p581
S'NNS'
p582
S'I-NP'
p583
g5
tp584
a(S'over'
p585
S'over'
p586
S'IN'
p587
S'B-PP'
p588
g5
tp589
a(g258
g258
S'DT'
p590
S'B-NP'
p591
g5
tp592
a(S'two'
p593
S'two'
p594
S'CD'
p595
S'I-NP'
p596
g5
tp597
a(S'year'
p598
S'year'
p599
S'NN'
p600
S'I-NP'
p601
g5
tp602
a(S'period.'
p603
S'period.'
p604
S'NN'
p605
S'I-NP'
p606
g5
tp607
a(S'MAIN'
p608
S'MAIN'
p609
S'NNP'
p610
S'B-NP'
p611
g5
tp612
a(S'OUTCOME'
p613
S'OUTCOME'
p614
S'NNP'
p615
S'I-NP'
p616
g5
tp617
a(S'MEASURES'
p618
S'MEASURES'
p619
S'NNP'
p620
S'I-NP'
p621
g5
tp622
a(g7
g7
g7
g5
g5
tp623
a(S'The'
p624
S'The'
p625
S'DT'
p626
S'B-NP'
p627
g5
tp628
a(S'primary'
p629
S'primary'
p630
S'JJ'
p631
S'I-NP'
p632
g5
tp633
a(S'outcome'
p634
S'outcome'
p635
S'NN'
p636
S'I-NP'
p637
g5
tp638
a(S'was'
p639
S'be'
p640
S'VBD'
p641
S'B-VP'
p642
g5
tp643
a(S'severity'
p644
S'severity'
p645
S'NN'
p646
S'B-NP'
p647
g5
tp648
a(S'of'
p649
S'of'
p650
S'IN'
p651
S'B-PP'
p652
g5
tp653
a(S'knee'
p654
S'knee'
p655
S'NN'
p656
S'B-NP'
p657
g5
tp658
a(S'pain'
p659
S'pain'
p660
S'NN'
p661
S'I-NP'
p662
g5
tp663
a(S'scored'
p664
S'score'
p665
S'VBN'
p666
S'B-VP'
p667
g5
tp668
a(S'with'
p669
S'with'
p670
S'IN'
p671
S'B-PP'
p672
g5
tp673
a(S'the'
p674
S'the'
p675
S'DT'
p676
S'B-NP'
p677
g5
tp678
a(S'Western'
p679
S'Western'
p680
S'NNP'
p681
S'I-NP'
p682
g5
tp683
a(S'Ontario'
p684
S'Ontario'
p685
S'NNP'
p686
S'I-NP'
p687
g5
tp688
a(S'McMaster'
p689
S'McMaster'
p690
S'NNP'
p691
S'I-NP'
p692
g5
tp693
a(g277
g277
g277
g5
g5
tp694
a(S'WOMAC'
p695
S'WOMAC'
p696
S'NNP'
p697
g5
g5
tp698
a(g284
g284
g284
g5
g5
tp699
a(S'osteoarthritis'
p700
S'osteoarthritis'
p701
S'NN'
p702
S'B-NP'
p703
g5
tp704
a(S'index'
p705
S'index'
p706
S'NN'
p707
S'I-NP'
p708
g5
tp709
a(S'at'
p710
S'at'
p711
S'IN'
p712
S'B-PP'
p713
g5
tp714
a(S'6'
p715
g715
S'CD'
p716
S'B-NP'
p717
g5
tp718
a(g54
g54
g54
S'I-NP'
p719
g5
tp720
a(S'12'
p721
S'12'
p722
S'CD'
p723
S'I-NP'
p724
g5
tp725
a(g54
g54
g54
g5
g5
tp726
a(S'and'
p727
S'and'
p728
S'CC'
p729
g5
g5
tp730
a(S'24'
p731
S'24'
p732
S'CD'
p733
S'B-NP'
p734
g5
tp735
a(S'months.'
p736
S'months.'
p737
S'NNS'
p738
S'I-NP'
p739
g5
tp740
a(S'Secondary'
p741
S'Secondary'
p742
S'JJ'
p743
S'B-NP'
p744
g5
tp745
a(S'outcomes'
p746
S'outcome'
p747
S'NNS'
p748
S'I-NP'
p749
g5
tp750
a(g277
g277
g277
g5
g5
tp751
a(S'all'
p752
S'all'
p753
S'DT'
p754
S'B-NP'
p755
g5
tp756
a(S'at'
p757
S'at'
p758
S'IN'
p759
S'B-PP'
p760
g5
tp761
a(S'24'
p762
S'24'
p763
S'CD'
p764
S'B-NP'
p765
g5
tp766
a(S'months'
p767
S'month'
p768
S'NNS'
p769
S'I-NP'
p770
g5
tp771
a(g284
g284
g284
g5
g5
tp772
a(S'included'
p773
S'include'
p774
S'VBD'
p775
S'B-VP'
p776
g5
tp777
a(S'WOMAC'
p778
S'WOMAC'
p779
S'NN'
p780
S'B-NP'
p781
g5
tp782
a(S'knee'
p783
S'knee'
p784
S'NN'
p785
S'I-NP'
p786
g5
tp787
a(S'physical'
p788
S'physical'
p789
S'JJ'
p790
S'I-NP'
p791
g5
tp792
a(S'function'
p793
S'function'
p794
S'NN'
p795
S'I-NP'
p796
g5
tp797
a(S'and'
p798
S'and'
p799
S'CC'
p800
S'I-NP'
p801
g5
tp802
a(S'stiffness'
p803
S'stiffness'
p804
S'NN'
p805
S'I-NP'
p806
g5
tp807
a(S'scores'
p808
S'score'
p809
S'NNS'
p810
S'I-NP'
p811
g5
tp812
a(S'and'
p813
S'and'
p814
S'CC'
p815
g5
g5
tp816
a(S'selected'
p817
S'select'
p818
S'VBN'
p819
S'B-NP'
p820
g5
tp821
a(S'domains'
p822
S'domain'
p823
S'NNS'
p824
S'I-NP'
p825
g5
tp826
a(S'on'
p827
S'on'
p828
S'IN'
p829
S'B-PP'
p830
g5
tp831
a(S'the'
p832
S'the'
p833
S'DT'
p834
S'B-NP'
p835
g5
tp836
a(S'SF-36'
p837
S'SF-36'
p838
S'NN'
p839
S'I-NP'
p840
S'B-protein'
p841
tp842
a(S'and'
p843
S'and'
p844
S'CC'
p845
g5
g5
tp846
a(S'the'
p847
S'the'
p848
S'DT'
p849
S'B-NP'
p850
g5
tp851
a(S'hospital'
p852
S'hospital'
p853
S'NN'
p854
S'I-NP'
p855
g5
tp856
a(S'anxiety'
p857
S'anxiety'
p858
S'NN'
p859
S'I-NP'
p860
g5
tp861
a(S'and'
p862
S'and'
p863
S'CC'
p864
g5
g5
tp865
a(S'depression'
p866
S'depression'
p867
S'NN'
p868
S'B-NP'
p869
g5
tp870
a(S'index.'
p871
S'index.'
p872
S'NN'
p873
S'I-NP'
p874
g5
tp875
a(S'RESULTS'
p876
S'RESULTS'
p877
S'NNS'
p878
S'B-NP'
p879
g5
tp880
a(g7
g7
g7
g5
g5
tp881
a(S'289'
p882
S'289'
p883
S'CD'
p884
S'B-NP'
p885
g5
tp886
a(g277
g277
g277
g5
g5
tp887
a(S'74'
p888
S'74'
p889
S'CD'
p890
S'B-NP'
p891
g5
tp892
a(S'%'
p893
g893
S'NN'
p894
S'I-NP'
p895
g5
tp896
a(g284
g284
g284
g5
g5
tp897
a(S'participants'
p898
S'participant'
p899
S'NNS'
p900
S'B-NP'
p901
g5
tp902
a(S'completed'
p903
S'complete'
p904
S'VBD'
p905
S'B-VP'
p906
g5
tp907
a(S'the'
p908
S'the'
p909
S'DT'
p910
S'B-NP'
p911
g5
tp912
a(S'trial.'
p913
S'trial.'
p914
S'NN'
p915
S'I-NP'
p916
g5
tp917
a(S'There'
p918
S'There'
p919
S'EX'
p920
S'B-NP'
p921
g5
tp922
a(S'was'
p923
S'be'
p924
S'VBD'
p925
S'B-VP'
p926
g5
tp927
a(g258
g258
S'DT'
p928
S'B-NP'
p929
g5
tp930
a(S'significant'
p931
S'significant'
p932
S'JJ'
p933
S'I-NP'
p934
g5
tp935
a(S'reduction'
p936
S'reduction'
p937
S'NN'
p938
S'I-NP'
p939
g5
tp940
a(S'in'
p941
S'in'
p942
S'IN'
p943
S'B-PP'
p944
g5
tp945
a(S'knee'
p946
S'knee'
p947
S'NN'
p948
S'B-NP'
p949
g5
tp950
a(S'pain'
p951
S'pain'
p952
S'NN'
p953
S'I-NP'
p954
g5
tp955
a(S'in'
p956
S'in'
p957
S'IN'
p958
S'B-PP'
p959
g5
tp960
a(S'the'
p961
S'the'
p962
S'DT'
p963
S'B-NP'
p964
g5
tp965
a(S'knee'
p966
S'knee'
p967
S'NN'
p968
S'I-NP'
p969
g5
tp970
a(S'exercise'
p971
S'exercise'
p972
S'NN'
p973
S'I-NP'
p974
g5
tp975
a(S'groups'
p976
S'group'
p977
S'NNS'
p978
S'I-NP'
p979
g5
tp980
a(S'compared'
p981
S'compare'
p982
S'VBN'
p983
S'B-PP'
p984
g5
tp985
a(S'with'
p986
S'with'
p987
S'IN'
p988
S'B-PP'
p989
g5
tp990
a(S'those'
p991
S'those'
p992
S'DT'
p993
S'B-NP'
p994
g5
tp995
a(S'in'
p996
S'in'
p997
S'IN'
p998
S'B-PP'
p999
g5
tp1000
a(S'the'
p1001
S'the'
p1002
S'DT'
p1003
S'B-NP'
p1004
g5
tp1005
a(S'non-exercise'
p1006
S'non-exercise'
p1007
S'JJ'
p1008
S'I-NP'
p1009
g5
tp1010
a(S'groups'
p1011
S'group'
p1012
S'NNS'
p1013
S'I-NP'
p1014
g5
tp1015
a(S'at'
p1016
S'at'
p1017
S'IN'
p1018
S'B-PP'
p1019
g5
tp1020
a(S'24'
p1021
S'24'
p1022
S'CD'
p1023
S'B-NP'
p1024
g5
tp1025
a(S'months'
p1026
S'month'
p1027
S'NNS'
p1028
S'I-NP'
p1029
g5
tp1030
a(g277
g277
g277
g5
g5
tp1031
a(S'percentage'
p1032
S'percentage'
p1033
S'NN'
p1034
S'B-NP'
p1035
g5
tp1036
a(S'risk'
p1037
S'risk'
p1038
S'NN'
p1039
S'I-NP'
p1040
g5
tp1041
a(S'difference'
p1042
S'difference'
p1043
S'NN'
p1044
S'I-NP'
p1045
g5
tp1046
a(S'11.61'
p1047
S'11.61'
p1048
S'CD'
p1049
S'I-NP'
p1050
g5
tp1051
a(g54
g54
g54
g5
g5
tp1052
a(S'95'
p1053
S'95'
p1054
S'CD'
p1055
S'B-NP'
p1056
g5
tp1057
a(g893
g893
S'NN'
p1058
S'I-NP'
p1059
g5
tp1060
a(S'confidence'
p1061
S'confidence'
p1062
S'NN'
p1063
S'I-NP'
p1064
g5
tp1065
a(S'interval'
p1066
S'interval'
p1067
S'NN'
p1068
S'I-NP'
p1069
g5
tp1070
a(S'1.81'
p1071
S'1.81'
p1072
S'CD'
p1073
S'B-NP'
p1074
g5
tp1075
a(g893
g893
S'NN'
p1076
S'I-NP'
p1077
g5
tp1078
a(S'to'
p1079
S'to'
p1080
S'TO'
p1081
S'B-PP'
p1082
g5
tp1083
a(S'21.41'
p1084
S'21.41'
p1085
S'CD'
p1086
S'B-NP'
p1087
g5
tp1088
a(g893
g893
S'NN'
p1089
S'I-NP'
p1090
g5
tp1091
a(g284
g284
g284
g5
g5
tp1092
a(g453
g453
g453
g5
g5
tp1093
a(S'The'
p1094
S'The'
p1095
S'DT'
p1096
S'B-NP'
p1097
g5
tp1098
a(S'absolute'
p1099
S'absolute'
p1100
S'JJ'
p1101
S'I-NP'
p1102
g5
tp1103
a(S'effect'
p1104
S'effect'
p1105
S'NN'
p1106
S'I-NP'
p1107
g5
tp1108
a(S'size'
p1109
S'size'
p1110
S'NN'
p1111
S'I-NP'
p1112
g5
tp1113
a(g277
g277
g277
g5
g5
tp1114
a(S'0.25'
p1115
S'0.25'
p1116
S'CD'
p1117
S'B-NP'
p1118
g5
tp1119
a(g284
g284
g284
g5
g5
tp1120
a(S'was'
p1121
S'be'
p1122
S'VBD'
p1123
S'B-VP'
p1124
g5
tp1125
a(S'moderate.'
p1126
S'moderate.'
p1127
S'JJ'
p1128
S'B-ADJP'
p1129
g5
tp1130
a(S'The'
p1131
S'The'
p1132
S'DT'
p1133
S'B-NP'
p1134
g5
tp1135
a(S'number'
p1136
S'number'
p1137
S'NN'
p1138
S'I-NP'
p1139
g5
tp1140
a(S'needed'
p1141
S'need'
p1142
S'VBN'
p1143
S'B-VP'
p1144
g5
tp1145
a(S'to'
p1146
S'to'
p1147
S'TO'
p1148
S'B-VP'
p1149
g5
tp1150
a(S'treat'
p1151
S'treat'
p1152
S'VB'
p1153
S'I-VP'
p1154
g5
tp1155
a(S'to'
p1156
S'to'
p1157
S'TO'
p1158
S'I-VP'
p1159
g5
tp1160
a(S'benefit'
p1161
S'benefit'
p1162
S'VB'
p1163
S'I-VP'
p1164
g5
tp1165
a(S'from'
p1166
S'from'
p1167
S'IN'
p1168
S'B-PP'
p1169
g5
tp1170
a(g258
g258
S'DT'
p1171
S'B-NP'
p1172
g5
tp1173
a(g291
g291
S'SYM'
p1174
S'I-NP'
p1175
g5
tp1176
a(S'or'
p1177
S'or'
p1178
S'CC'
p1179
g5
g5
tp1180
a(g299
g299
S'SYM'
p1181
S'B-VP'
p1182
g5
tp1183
a(S'30'
p1184
S'30'
p1185
S'CD'
p1186
S'B-NP'
p1187
g5
tp1188
a(g893
g893
S'NN'
p1189
S'I-NP'
p1190
g5
tp1191
a(S'improvement'
p1192
S'improvement'
p1193
S'NN'
p1194
S'I-NP'
p1195
g5
tp1196
a(S'in'
p1197
S'in'
p1198
S'IN'
p1199
S'B-PP'
p1200
g5
tp1201
a(S'knee'
p1202
S'knee'
p1203
S'NN'
p1204
S'B-NP'
p1205
g5
tp1206
a(S'pain'
p1207
S'pain'
p1208
S'NN'
p1209
S'I-NP'
p1210
g5
tp1211
a(S'at'
p1212
S'at'
p1213
S'IN'
p1214
S'B-PP'
p1215
g5
tp1216
a(S'24'
p1217
S'24'
p1218
S'CD'
p1219
S'B-NP'
p1220
g5
tp1221
a(S'months'
p1222
S'month'
p1223
S'NNS'
p1224
S'I-NP'
p1225
g5
tp1226
a(S'was'
p1227
S'be'
p1228
S'VBD'
p1229
S'B-VP'
p1230
g5
tp1231
a(S'9'
p1232
g1232
S'CD'
p1233
S'B-NP'
p1234
g5
tp1235
a(g277
g277
g277
g5
g5
tp1236
a(S'5'
p1237
g1237
S'CD'
p1238
S'B-NP'
p1239
g5
tp1240
a(S'to'
p1241
S'to'
p1242
S'TO'
p1243
g5
g5
tp1244
a(S'55'
p1245
S'55'
p1246
S'CD'
p1247
S'B-NP'
p1248
g5
tp1249
a(g284
g284
g284
g5
g5
tp1250
a(g453
g453
g453
g5
g5
tp1251
a(S'In'
p1252
S'In'
p1253
S'IN'
p1254
S'B-PP'
p1255
g5
tp1256
a(S'those'
p1257
S'those'
p1258
S'DT'
p1259
S'B-NP'
p1260
g5
tp1261
a(S'randomised'
p1262
S'randomise'
p1263
S'VBN'
p1264
S'B-VP'
p1265
g5
tp1266
a(S'to'
p1267
S'to'
p1268
S'TO'
p1269
S'B-VP'
p1270
g5
tp1271
a(S'knee'
p1272
S'knee'
p1273
S'VB'
p1274
S'I-VP'
p1275
g5
tp1276
a(S'exercise'
p1277
S'exercise'
p1278
S'NN'
p1279
S'B-NP'
p1280
g5
tp1281
a(S'improvement'
p1282
S'improvement'
p1283
S'NN'
p1284
S'I-NP'
p1285
g5
tp1286
a(S'in'
p1287
S'in'
p1288
S'IN'
p1289
S'B-PP'
p1290
g5
tp1291
a(S'function'
p1292
S'function'
p1293
S'NN'
p1294
S'B-NP'
p1295
g5
tp1296
a(S'was'
p1297
S'be'
p1298
S'VBD'
p1299
S'B-VP'
p1300
g5
tp1301
a(S'evident'
p1302
S'evident'
p1303
S'JJ'
p1304
S'B-ADJP'
p1305
g5
tp1306
a(S'at'
p1307
S'at'
p1308
S'IN'
p1309
S'B-PP'
p1310
g5
tp1311
a(S'24'
p1312
S'24'
p1313
S'CD'
p1314
S'B-NP'
p1315
g5
tp1316
a(S'months'
p1317
S'month'
p1318
S'NNS'
p1319
S'I-NP'
p1320
g5
tp1321
a(g277
g277
g277
g5
g5
tp1322
a(S'mean'
p1323
S'mean'
p1324
S'JJ'
p1325
S'B-NP'
p1326
g5
tp1327
a(S'difference'
p1328
S'difference'
p1329
S'NN'
p1330
S'I-NP'
p1331
g5
tp1332
a(S'-3.64'
p1333
S'-3.64'
p1334
S'CD'
p1335
S'I-NP'
p1336
g5
tp1337
a(g54
g54
g54
S'I-NP'
p1338
g5
tp1339
a(S'-6.01'
p1340
S'-6.01'
p1341
S'CD'
p1342
S'I-NP'
p1343
g5
tp1344
a(S'to'
p1345
S'to'
p1346
S'TO'
p1347
S'B-PP'
p1348
g5
tp1349
a(S'-1.27'
p1350
S'-1.27'
p1351
S'CD'
p1352
S'B-NP'
p1353
g5
tp1354
a(g284
g284
g284
g5
g5
tp1355
a(g453
g453
g453
g5
g5
tp1356
a(S'The'
p1357
S'The'
p1358
S'DT'
p1359
S'B-NP'
p1360
g5
tp1361
a(S'mean'
p1362
S'mean'
p1363
S'JJ'
p1364
S'I-NP'
p1365
g5
tp1366
a(S'difference'
p1367
S'difference'
p1368
S'NN'
p1369
S'I-NP'
p1370
g5
tp1371
a(S'in'
p1372
S'in'
p1373
S'IN'
p1374
S'B-PP'
p1375
g5
tp1376
a(S'weight'
p1377
S'weight'
p1378
S'NN'
p1379
S'B-NP'
p1380
g5
tp1381
a(S'loss'
p1382
S'loss'
p1383
S'NN'
p1384
S'I-NP'
p1385
g5
tp1386
a(S'at'
p1387
S'at'
p1388
S'IN'
p1389
S'B-PP'
p1390
g5
tp1391
a(S'24'
p1392
S'24'
p1393
S'CD'
p1394
S'B-NP'
p1395
g5
tp1396
a(S'months'
p1397
S'month'
p1398
S'NNS'
p1399
S'I-NP'
p1400
g5
tp1401
a(S'in'
p1402
S'in'
p1403
S'IN'
p1404
S'B-PP'
p1405
g5
tp1406
a(S'the'
p1407
S'the'
p1408
S'DT'
p1409
S'B-NP'
p1410
g5
tp1411
a(S'dietary'
p1412
S'dietary'
p1413
S'JJ'
p1414
S'I-NP'
p1415
g5
tp1416
a(S'intervention'
p1417
S'intervention'
p1418
S'NN'
p1419
S'I-NP'
p1420
g5
tp1421
a(S'group'
p1422
S'group'
p1423
S'NN'
p1424
S'I-NP'
p1425
g5
tp1426
a(S'compared'
p1427
S'compare'
p1428
S'VBN'
p1429
S'B-PP'
p1430
g5
tp1431
a(S'with'
p1432
S'with'
p1433
S'IN'
p1434
S'B-PP'
p1435
g5
tp1436
a(S'no'
p1437
S'no'
p1438
S'DT'
p1439
S'B-NP'
p1440
g5
tp1441
a(S'dietary'
p1442
S'dietary'
p1443
S'JJ'
p1444
S'I-NP'
p1445
g5
tp1446
a(S'intervention'
p1447
S'intervention'
p1448
S'NN'
p1449
S'I-NP'
p1450
g5
tp1451
a(S'was'
p1452
S'be'
p1453
S'VBD'
p1454
S'B-VP'
p1455
g5
tp1456
a(S'2.95'
p1457
S'2.95'
p1458
S'CD'
p1459
S'B-NP'
p1460
g5
tp1461
a(S'kg'
p1462
S'kg'
p1463
S'NN'
p1464
S'I-NP'
p1465
g5
tp1466
a(g277
g277
g277
g5
g5
tp1467
a(S'1.44'
p1468
S'1.44'
p1469
S'CD'
p1470
S'B-NP'
p1471
g5
tp1472
a(S'to'
p1473
S'to'
p1474
S'TO'
p1475
g5
g5
tp1476
a(S'4.46'
p1477
S'4.46'
p1478
S'CD'
p1479
S'B-NP'
p1480
g5
tp1481
a(g284
g284
g284
g5
g5
tp1482
a(g387
g387
g7
g5
g5
tp1483
a(S'for'
p1484
S'for'
p1485
S'IN'
p1486
S'B-PP'
p1487
g5
tp1488
a(S'exercise'
p1489
S'exercise'
p1490
S'NN'
p1491
S'B-NP'
p1492
g5
tp1493
a(S'versus'
p1494
S'versus'
p1495
S'IN'
p1496
S'B-PP'
p1497
g5
tp1498
a(S'no'
p1499
S'no'
p1500
S'DT'
p1501
S'B-NP'
p1502
g5
tp1503
a(S'exercise'
p1504
S'exercise'
p1505
S'NN'
p1506
S'I-NP'
p1507
g5
tp1508
a(S'the'
p1509
S'the'
p1510
S'DT'
p1511
S'B-NP'
p1512
g5
tp1513
a(S'difference'
p1514
S'difference'
p1515
S'NN'
p1516
S'I-NP'
p1517
g5
tp1518
a(S'was'
p1519
S'be'
p1520
S'VBD'
p1521
S'B-VP'
p1522
g5
tp1523
a(S'0.43'
p1524
S'0.43'
p1525
S'CD'
p1526
S'B-NP'
p1527
g5
tp1528
a(S'kg'
p1529
S'kg'
p1530
S'NN'
p1531
S'I-NP'
p1532
g5
tp1533
a(g277
g277
g277
g5
g5
tp1534
a(S'-0.82'
p1535
S'-0.82'
p1536
S'CD'
p1537
S'B-NP'
p1538
g5
tp1539
a(S'to'
p1540
S'to'
p1541
S'TO'
p1542
g5
g5
tp1543
a(S'1.68'
p1544
S'1.68'
p1545
S'CD'
p1546
S'B-NP'
p1547
g5
tp1548
a(g284
g284
g284
g5
g5
tp1549
a(g453
g453
g453
g5
g5
tp1550
a(S'This'
p1551
S'This'
p1552
S'DT'
p1553
S'B-NP'
p1554
g5
tp1555
a(S'difference'
p1556
S'difference'
p1557
S'NN'
p1558
S'I-NP'
p1559
g5
tp1560
a(S'in'
p1561
S'in'
p1562
S'IN'
p1563
S'B-PP'
p1564
g5
tp1565
a(S'weight'
p1566
S'weight'
p1567
S'NN'
p1568
S'B-NP'
p1569
g5
tp1570
a(S'loss'
p1571
S'loss'
p1572
S'NN'
p1573
S'I-NP'
p1574
g5
tp1575
a(S'was'
p1576
S'be'
p1577
S'VBD'
p1578
S'B-VP'
p1579
g5
tp1580
a(S'not'
p1581
S'not'
p1582
S'RB'
p1583
S'I-VP'
p1584
g5
tp1585
a(S'associated'
p1586
S'associate'
p1587
S'VBN'
p1588
S'I-VP'
p1589
g5
tp1590
a(S'with'
p1591
S'with'
p1592
S'IN'
p1593
S'B-PP'
p1594
g5
tp1595
a(S'improvement'
p1596
S'improvement'
p1597
S'NN'
p1598
S'B-NP'
p1599
g5
tp1600
a(S'in'
p1601
S'in'
p1602
S'IN'
p1603
S'B-PP'
p1604
g5
tp1605
a(S'knee'
p1606
S'knee'
p1607
S'NN'
p1608
S'B-NP'
p1609
g5
tp1610
a(S'pain'
p1611
S'pain'
p1612
S'NN'
p1613
S'I-NP'
p1614
g5
tp1615
a(S'or'
p1616
S'or'
p1617
S'CC'
p1618
S'I-NP'
p1619
g5
tp1620
a(S'function'
p1621
S'function'
p1622
S'NN'
p1623
S'I-NP'
p1624
g5
tp1625
a(S'but'
p1626
S'but'
p1627
S'CC'
p1628
g5
g5
tp1629
a(S'was'
p1630
S'be'
p1631
S'VBD'
p1632
S'B-VP'
p1633
g5
tp1634
a(S'associated'
p1635
S'associate'
p1636
S'VBN'
p1637
S'I-VP'
p1638
g5
tp1639
a(S'with'
p1640
S'with'
p1641
S'IN'
p1642
S'B-PP'
p1643
g5
tp1644
a(g258
g258
S'DT'
p1645
S'B-NP'
p1646
g5
tp1647
a(S'reduction'
p1648
S'reduction'
p1649
S'NN'
p1650
S'I-NP'
p1651
g5
tp1652
a(S'in'
p1653
S'in'
p1654
S'IN'
p1655
S'B-PP'
p1656
g5
tp1657
a(S'depression'
p1658
S'depression'
p1659
S'NN'
p1660
S'B-NP'
p1661
g5
tp1662
a(g277
g277
g277
g5
g5
tp1663
a(S'absolute'
p1664
S'absolute'
p1665
S'JJ'
p1666
S'B-NP'
p1667
g5
tp1668
a(S'effect'
p1669
S'effect'
p1670
S'NN'
p1671
S'I-NP'
p1672
g5
tp1673
a(S'size'
p1674
S'size'
p1675
S'NN'
p1676
S'I-NP'
p1677
g5
tp1678
a(S'0.19'
p1679
S'0.19'
p1680
S'CD'
p1681
S'I-NP'
p1682
g5
tp1683
a(g284
g284
g284
g5
g5
tp1684
a(g453
g453
g453
g5
g5
tp1685
a(S'CONCLUSIONS'
p1686
S'CONCLUSIONS'
p1687
S'NNS'
p1688
S'B-NP'
p1689
g5
tp1690
a(g7
g7
g7
g5
g5
tp1691
a(S'A'
p1692
g1692
S'DT'
p1693
S'B-NP'
p1694
g5
tp1695
a(S'home'
p1696
S'home'
p1697
S'NN'
p1698
S'I-NP'
p1699
g5
tp1700
a(S'based'
p1701
S'base'
p1702
S'VBN'
p1703
S'B-VP'
p1704
g5
tp1705
a(g54
g54
g54
g5
g5
tp1706
a(S'self'
p1707
S'self'
p1708
S'PRP'
p1709
S'B-NP'
p1710
g5
tp1711
a(S'managed'
p1712
S'manage'
p1713
S'VBD'
p1714
S'B-VP'
p1715
g5
tp1716
a(S'programme'
p1717
S'programme'
p1718
S'NN'
p1719
S'B-NP'
p1720
g5
tp1721
a(S'of'
p1722
S'of'
p1723
S'IN'
p1724
S'B-PP'
p1725
g5
tp1726
a(S'simple'
p1727
S'simple'
p1728
S'JJ'
p1729
S'B-NP'
p1730
g5
tp1731
a(S'knee'
p1732
S'knee'
p1733
S'NN'
p1734
S'I-NP'
p1735
g5
tp1736
a(S'strengthening'
p1737
S'strengthen'
p1738
S'VBG'
p1739
S'B-VP'
p1740
g5
tp1741
a(S'exercises'
p1742
S'exercise'
p1743
S'NNS'
p1744
S'B-NP'
p1745
g5
tp1746
a(S'over'
p1747
S'over'
p1748
S'IN'
p1749
S'B-PP'
p1750
g5
tp1751
a(g258
g258
S'DT'
p1752
S'B-NP'
p1753
g5
tp1754
a(S'two'
p1755
S'two'
p1756
S'CD'
p1757
S'I-NP'
p1758
g5
tp1759
a(S'year'
p1760
S'year'
p1761
S'NN'
p1762
S'I-NP'
p1763
g5
tp1764
a(S'period'
p1765
S'period'
p1766
S'NN'
p1767
S'I-NP'
p1768
g5
tp1769
a(S'can'
p1770
S'can'
p1771
S'MD'
p1772
S'B-VP'
p1773
g5
tp1774
a(S'significantly'
p1775
S'significantly'
p1776
S'RB'
p1777
S'I-VP'
p1778
g5
tp1779
a(S'reduce'
p1780
S'reduce'
p1781
S'VB'
p1782
S'I-VP'
p1783
g5
tp1784
a(S'knee'
p1785
S'knee'
p1786
S'NN'
p1787
S'B-NP'
p1788
g5
tp1789
a(S'pain'
p1790
S'pain'
p1791
S'NN'
p1792
S'I-NP'
p1793
g5
tp1794
a(S'and'
p1795
S'and'
p1796
S'CC'
p1797
g5
g5
tp1798
a(S'improve'
p1799
S'improve'
p1800
S'VB'
p1801
S'B-VP'
p1802
g5
tp1803
a(S'knee'
p1804
S'knee'
p1805
S'NN'
p1806
S'B-NP'
p1807
g5
tp1808
a(S'function'
p1809
S'function'
p1810
S'NN'
p1811
S'I-NP'
p1812
g5
tp1813
a(S'in'
p1814
S'in'
p1815
S'IN'
p1816
S'B-PP'
p1817
g5
tp1818
a(S'overweight'
p1819
S'overweight'
p1820
S'JJ'
p1821
S'B-NP'
p1822
g5
tp1823
a(S'and'
p1824
S'and'
p1825
S'CC'
p1826
S'I-NP'
p1827
g5
tp1828
a(S'obese'
p1829
S'obese'
p1830
S'JJ'
p1831
S'I-NP'
p1832
g5
tp1833
a(S'people'
p1834
S'people'
p1835
S'NNS'
p1836
S'I-NP'
p1837
g5
tp1838
a(S'with'
p1839
S'with'
p1840
S'IN'
p1841
S'B-PP'
p1842
g5
tp1843
a(S'knee'
p1844
S'knee'
p1845
S'NN'
p1846
S'B-NP'
p1847
g5
tp1848
a(S'pain.'
p1849
S'pain.'
p1850
S'NN'
p1851
S'I-NP'
p1852
g5
tp1853
a(g1692
g1692
S'DT'
p1854
S'B-NP'
p1855
g5
tp1856
a(S'moderate'
p1857
S'moderate'
p1858
S'JJ'
p1859
S'I-NP'
p1860
g5
tp1861
a(S'sustained'
p1862
S'sustain'
p1863
S'VBN'
p1864
S'I-NP'
p1865
g5
tp1866
a(S'weight'
p1867
S'weight'
p1868
S'NN'
p1869
S'I-NP'
p1870
g5
tp1871
a(S'loss'
p1872
S'loss'
p1873
S'NN'
p1874
S'I-NP'
p1875
g5
tp1876
a(S'is'
p1877
S'be'
p1878
S'VBZ'
p1879
S'B-VP'
p1880
g5
tp1881
a(S'achievable'
p1882
S'achievable'
p1883
S'JJ'
p1884
S'B-ADJP'
p1885
g5
tp1886
a(S'with'
p1887
S'with'
p1888
S'IN'
p1889
S'B-PP'
p1890
g5
tp1891
a(S'dietary'
p1892
S'dietary'
p1893
S'JJ'
p1894
S'B-NP'
p1895
g5
tp1896
a(S'intervention'
p1897
S'intervention'
p1898
S'NN'
p1899
S'I-NP'
p1900
g5
tp1901
a(S'and'
p1902
S'and'
p1903
S'CC'
p1904
g5
g5
tp1905
a(S'is'
p1906
S'be'
p1907
S'VBZ'
p1908
S'B-VP'
p1909
g5
tp1910
a(S'associated'
p1911
S'associate'
p1912
S'VBN'
p1913
S'I-VP'
p1914
g5
tp1915
a(S'with'
p1916
S'with'
p1917
S'IN'
p1918
S'B-PP'
p1919
g5
tp1920
a(S'reduced'
p1921
S'reduce'
p1922
S'VBN'
p1923
S'B-NP'
p1924
g5
tp1925
a(S'depression'
p1926
S'depression'
p1927
S'NN'
p1928
S'I-NP'
p1929
g5
tp1930
a(S'but'
p1931
S'but'
p1932
S'CC'
p1933
g5
g5
tp1934
a(S'is'
p1935
S'be'
p1936
S'VBZ'
p1937
S'B-VP'
p1938
g5
tp1939
a(S'without'
p1940
S'without'
p1941
S'IN'
p1942
S'B-PP'
p1943
g5
tp1944
a(S'apparent'
p1945
S'apparent'
p1946
S'JJ'
p1947
S'B-NP'
p1948
g5
tp1949
a(S'influence'
p1950
S'influence'
p1951
S'NN'
p1952
S'I-NP'
p1953
g5
tp1954
a(S'on'
p1955
S'on'
p1956
S'IN'
p1957
S'B-PP'
p1958
g5
tp1959
a(S'pain'
p1960
S'pain'
p1961
S'NN'
p1962
S'B-NP'
p1963
g5
tp1964
a(S'or'
p1965
S'or'
p1966
S'CC'
p1967
g5
g5
tp1968
a(S'function.'
p1969
S'function.'
p1970
S'VB'
p1971
S'B-VP'
p1972
g5
tp1973
a(S'TRIAL'
p1974
S'TRIAL'
p1975
S'NN'
p1976
S'B-NP'
p1977
g5
tp1978
a(S'REGISTRATION'
p1979
S'REGISTRATION'
p1980
S'NN'
p1981
S'I-NP'
p1982
g5
tp1983
a(g7
g7
g7
g5
g5
tp1984
a(S'Current'
p1985
S'Current'
p1986
S'NNP'
p1987
S'B-NP'
p1988
g5
tp1989
a(S'Controlled'
p1990
S'Controlled'
p1991
S'NNP'
p1992
S'I-NP'
p1993
g5
tp1994
a(S'Trials'
p1995
S'Trial'
p1996
S'NNPS'
p1997
S'I-NP'
p1998
g5
tp1999
a(S'ISRCTN93206785'
p2000
S'ISRCTN93206785'
p2001
S'NNP'
p2002
S'I-NP'
p2003
g5
tp2004
a(g453
g453
g453
g5
g5
tp2005
a.