(lp0
(S'OBJECTIVE'
p1
S'OBJECTIVE'
p2
S'NN'
p3
S'B-NP'
p4
S'O'
p5
tp6
a(S':'
p7
g7
g7
g5
g5
tp8
a(S'To'
p9
S'To'
p10
S'TO'
p11
S'B-VP'
p12
g5
tp13
a(S'compare'
p14
S'compare'
p15
S'VB'
p16
S'I-VP'
p17
g5
tp18
a(S'the'
p19
S'the'
p20
S'DT'
p21
S'B-NP'
p22
g5
tp23
a(S'clinical'
p24
S'clinical'
p25
S'JJ'
p26
S'I-NP'
p27
g5
tp28
a(S'effectiveness'
p29
S'effectiveness'
p30
S'NN'
p31
S'I-NP'
p32
g5
tp33
a(S'of'
p34
S'of'
p35
S'IN'
p36
S'B-PP'
p37
g5
tp38
a(S'a'
p39
g39
S'DT'
p40
S'B-NP'
p41
g5
tp42
a(S'programme'
p43
S'programme'
p44
S'NN'
p45
S'I-NP'
p46
g5
tp47
a(S'of'
p48
S'of'
p49
S'IN'
p50
S'B-PP'
p51
g5
tp52
a(S'physiotherapy'
p53
S'physiotherapy'
p54
S'NN'
p55
S'B-NP'
p56
g5
tp57
a(S'and'
p58
S'and'
p59
S'CC'
p60
g5
g5
tp61
a(S'occupational'
p62
S'occupational'
p63
S'JJ'
p64
S'B-NP'
p65
g5
tp66
a(S'therapy'
p67
S'therapy'
p68
S'NN'
p69
S'I-NP'
p70
g5
tp71
a(S'with'
p72
S'with'
p73
S'IN'
p74
S'B-PP'
p75
g5
tp76
a(S'standard'
p77
S'standard'
p78
S'JJ'
p79
S'B-NP'
p80
g5
tp81
a(S'care'
p82
S'care'
p83
S'NN'
p84
S'I-NP'
p85
g5
tp86
a(S'in'
p87
S'in'
p88
S'IN'
p89
S'B-PP'
p90
g5
tp91
a(S'care'
p92
S'care'
p93
S'NN'
p94
S'B-NP'
p95
g5
tp96
a(S'home'
p97
S'home'
p98
S'NN'
p99
S'I-NP'
p100
g5
tp101
a(S'residents'
p102
S'resident'
p103
S'NNS'
p104
S'I-NP'
p105
g5
tp106
a(S'who'
p107
S'who'
p108
S'WP'
p109
S'B-NP'
p110
g5
tp111
a(S'have'
p112
S'have'
p113
S'VBP'
p114
S'B-VP'
p115
g5
tp116
a(S'mobility'
p117
S'mobility'
p118
S'NN'
p119
S'B-NP'
p120
g5
tp121
a(S'limitations'
p122
S'limitation'
p123
S'NNS'
p124
S'I-NP'
p125
g5
tp126
a(S'and'
p127
S'and'
p128
S'CC'
p129
g5
g5
tp130
a(S'are'
p131
S'be'
p132
S'VBP'
p133
S'B-VP'
p134
g5
tp135
a(S'dependent'
p136
S'dependent'
p137
S'JJ'
p138
S'B-ADJP'
p139
g5
tp140
a(S'in'
p141
S'in'
p142
S'IN'
p143
S'B-PP'
p144
g5
tp145
a(S'performing'
p146
S'perform'
p147
S'VBG'
p148
S'B-VP'
p149
g5
tp150
a(S'activities'
p151
S'activity'
p152
S'NNS'
p153
S'B-NP'
p154
g5
tp155
a(S'of'
p156
S'of'
p157
S'IN'
p158
S'B-PP'
p159
g5
tp160
a(S'daily'
p161
S'daily'
p162
S'JJ'
p163
S'B-NP'
p164
g5
tp165
a(S'living.'
p166
S'living.'
p167
S'NN'
p168
S'I-NP'
p169
g5
tp170
a(S'DESIGN'
p171
S'DESIGN'
p172
S'NN'
p173
S'B-NP'
p174
g5
tp175
a(g7
g7
g7
g5
g5
tp176
a(S'Cluster'
p177
S'Cluster'
p178
S'NNP'
p179
S'B-NP'
p180
g5
tp181
a(S'randomised'
p182
S'randomise'
p183
S'VBD'
p184
S'B-VP'
p185
g5
tp186
a(S'controlled'
p187
S'control'
p188
S'VBN'
p189
S'B-NP'
p190
g5
tp191
a(S'trial'
p192
S'trial'
p193
S'NN'
p194
S'I-NP'
p195
g5
tp196
a(S','
p197
g197
g197
g5
g5
tp198
a(S'with'
p199
S'with'
p200
S'IN'
p201
S'B-PP'
p202
g5
tp203
a(S'random'
p204
S'random'
p205
S'JJ'
p206
S'B-NP'
p207
g5
tp208
a(S'allocation'
p209
S'allocation'
p210
S'NN'
p211
S'I-NP'
p212
g5
tp213
a(S'at'
p214
S'at'
p215
S'IN'
p216
S'B-PP'
p217
g5
tp218
a(S'the'
p219
S'the'
p220
S'DT'
p221
S'B-NP'
p222
g5
tp223
a(S'level'
p224
S'level'
p225
S'NN'
p226
S'I-NP'
p227
g5
tp228
a(S'of'
p229
S'of'
p230
S'IN'
p231
S'B-PP'
p232
g5
tp233
a(S'care'
p234
S'care'
p235
S'NN'
p236
S'B-NP'
p237
g5
tp238
a(S'home.'
p239
S'home.'
p240
S'NN'
p241
S'I-NP'
p242
g5
tp243
a(S'SETTING'
p244
S'SETTING'
p245
S'NN'
p246
S'B-NP'
p247
g5
tp248
a(g7
g7
g7
g5
g5
tp249
a(S'Care'
p250
S'Care'
p251
S'VB'
p252
S'B-VP'
p253
g5
tp254
a(S'homes'
p255
S'home'
p256
S'NNS'
p257
S'B-NP'
p258
g5
tp259
a(S'within'
p260
S'within'
p261
S'IN'
p262
S'B-PP'
p263
g5
tp264
a(S'the'
p265
S'the'
p266
S'DT'
p267
S'B-NP'
p268
g5
tp269
a(S'NHS'
p270
S'NHS'
p271
S'NNP'
p272
S'I-NP'
p273
g5
tp274
a(S'South'
p275
S'South'
p276
S'NNP'
p277
S'I-NP'
p278
g5
tp279
a(S'Birmingham'
p280
S'Birmingham'
p281
S'NNP'
p282
S'I-NP'
p283
g5
tp284
a(S'primary'
p285
S'primary'
p286
S'JJ'
p287
S'I-NP'
p288
g5
tp289
a(S'care'
p290
S'care'
p291
S'NN'
p292
S'I-NP'
p293
g5
tp294
a(S'trust'
p295
S'trust'
p296
S'NN'
p297
S'I-NP'
p298
g5
tp299
a(S'and'
p300
S'and'
p301
S'CC'
p302
g5
g5
tp303
a(S'the'
p304
S'the'
p305
S'DT'
p306
S'B-NP'
p307
g5
tp308
a(S'NHS'
p309
S'NHS'
p310
S'NNP'
p311
S'I-NP'
p312
g5
tp313
a(S'Birmingham'
p314
S'Birmingham'
p315
S'NNP'
p316
S'I-NP'
p317
g5
tp318
a(S'East'
p319
S'East'
p320
S'NNP'
p321
S'I-NP'
p322
g5
tp323
a(S'and'
p324
S'and'
p325
S'CC'
p326
g5
g5
tp327
a(S'North'
p328
S'North'
p329
S'NNP'
p330
S'B-NP'
p331
g5
tp332
a(S'primary'
p333
S'primary'
p334
S'JJ'
p335
S'I-NP'
p336
g5
tp337
a(S'care'
p338
S'care'
p339
S'NN'
p340
S'I-NP'
p341
g5
tp342
a(S'trust'
p343
S'trust'
p344
S'NN'
p345
S'I-NP'
p346
g5
tp347
a(S'that'
p348
S'that'
p349
S'WDT'
p350
S'B-NP'
p351
g5
tp352
a(S'had'
p353
S'have'
p354
S'VBD'
p355
S'B-VP'
p356
g5
tp357
a(S'more'
p358
S'more'
p359
S'JJR'
p360
S'B-NP'
p361
g5
tp362
a(S'than'
p363
S'than'
p364
S'IN'
p365
S'I-NP'
p366
g5
tp367
a(S'five'
p368
S'five'
p369
S'CD'
p370
S'I-NP'
p371
g5
tp372
a(S'beds'
p373
S'bed'
p374
S'NNS'
p375
S'I-NP'
p376
g5
tp377
a(S'and'
p378
S'and'
p379
S'CC'
p380
g5
g5
tp381
a(S'provided'
p382
S'provide'
p383
S'VBN'
p384
S'B-VP'
p385
g5
tp386
a(S'for'
p387
S'for'
p388
S'IN'
p389
S'B-PP'
p390
g5
tp391
a(S'people'
p392
S'people'
p393
S'NNS'
p394
S'B-NP'
p395
g5
tp396
a(S'in'
p397
S'in'
p398
S'IN'
p399
S'B-PP'
p400
g5
tp401
a(S'the'
p402
S'the'
p403
S'DT'
p404
S'B-NP'
p405
g5
tp406
a(S'care'
p407
S'care'
p408
S'NN'
p409
S'I-NP'
p410
g5
tp411
a(S'categories'
p412
S'category'
p413
S'NNS'
p414
S'I-NP'
p415
g5
tp416
a(S'``'
p417
S'``'
p418
S'``'
p419
g5
g5
tp420
a(S'physical'
p421
S'physical'
p422
S'JJ'
p423
S'B-NP'
p424
g5
tp425
a(S'disability'
p426
S'disability'
p427
S'NN'
p428
S'I-NP'
p429
g5
tp430
a(S"''"
p431
S"''"
p432
S"''"
p433
g5
g5
tp434
a(S'and'
p435
S'and'
p436
S'CC'
p437
g5
g5
tp438
a(S'``'
p439
S'``'
p440
S'``'
p441
g5
g5
tp442
a(S'older'
p443
S'old'
p444
S'JJR'
p445
S'B-NP'
p446
g5
tp447
a(S'people.'
p448
S'people.'
p449
S'NNS'
p450
S'I-NP'
p451
g5
tp452
a(S"''"
p453
S"''"
p454
S"''"
p455
g5
g5
tp456
a(S'PARTICIPANTS'
p457
S'PARTICIPANTS'
p458
S'NNS'
p459
S'B-NP'
p460
g5
tp461
a(g7
g7
g7
g5
g5
tp462
a(S'Care'
p463
S'Care'
p464
S'VB'
p465
S'B-VP'
p466
g5
tp467
a(S'home'
p468
S'home'
p469
S'NN'
p470
S'B-NP'
p471
g5
tp472
a(S'residents'
p473
S'resident'
p474
S'NNS'
p475
S'I-NP'
p476
g5
tp477
a(S'with'
p478
S'with'
p479
S'IN'
p480
S'B-PP'
p481
g5
tp482
a(S'mobility'
p483
S'mobility'
p484
S'NN'
p485
S'B-NP'
p486
g5
tp487
a(S'limitations'
p488
S'limitation'
p489
S'NNS'
p490
S'I-NP'
p491
g5
tp492
a(g197
g197
g197
g5
g5
tp493
a(S'limitations'
p494
S'limitation'
p495
S'NNS'
p496
S'B-NP'
p497
g5
tp498
a(S'in'
p499
S'in'
p500
S'IN'
p501
S'B-PP'
p502
g5
tp503
a(S'activities'
p504
S'activity'
p505
S'NNS'
p506
S'B-NP'
p507
g5
tp508
a(S'of'
p509
S'of'
p510
S'IN'
p511
S'B-PP'
p512
g5
tp513
a(S'daily'
p514
S'daily'
p515
S'JJ'
p516
S'B-NP'
p517
g5
tp518
a(S'living'
p519
S'living'
p520
S'NN'
p521
S'I-NP'
p522
g5
tp523
a(S'('
p524
g524
g524
g5
g5
tp525
a(S'as'
p526
S'as'
p527
S'IN'
p528
S'B-SBAR'
p529
g5
tp530
a(S'screened'
p531
S'screen'
p532
S'VBN'
p533
S'B-VP'
p534
g5
tp535
a(S'by'
p536
S'by'
p537
S'IN'
p538
S'B-PP'
p539
g5
tp540
a(S'the'
p541
S'the'
p542
S'DT'
p543
S'B-NP'
p544
g5
tp545
a(S'Barthel'
p546
S'Barthel'
p547
S'NNP'
p548
S'I-NP'
p549
g5
tp550
a(S'index'
p551
S'index'
p552
S'NN'
p553
S'I-NP'
p554
g5
tp555
a(S')'
p556
g556
g556
g5
g5
tp557
a(g197
g197
g197
g5
g5
tp558
a(S'and'
p559
S'and'
p560
S'CC'
p561
g5
g5
tp562
a(S'not'
p563
S'not'
p564
S'RB'
p565
S'B-VP'
p566
g5
tp567
a(S'receiving'
p568
S'receive'
p569
S'VBG'
p570
S'I-VP'
p571
g5
tp572
a(S'end'
p573
S'end'
p574
S'NN'
p575
S'B-NP'
p576
g5
tp577
a(S'of'
p578
S'of'
p579
S'IN'
p580
S'B-PP'
p581
g5
tp582
a(S'life'
p583
S'life'
p584
S'NN'
p585
S'B-NP'
p586
g5
tp587
a(S'care'
p588
S'care'
p589
S'NN'
p590
S'I-NP'
p591
g5
tp592
a(S'were'
p593
S'be'
p594
S'VBD'
p595
S'B-VP'
p596
g5
tp597
a(S'eligible'
p598
S'eligible'
p599
S'JJ'
p600
S'B-ADJP'
p601
g5
tp602
a(S'to'
p603
S'to'
p604
S'TO'
p605
S'B-VP'
p606
g5
tp607
a(S'take'
p608
S'take'
p609
S'VB'
p610
S'I-VP'
p611
g5
tp612
a(S'part'
p613
S'part'
p614
S'NN'
p615
S'B-NP'
p616
g5
tp617
a(S'in'
p618
S'in'
p619
S'IN'
p620
S'B-PP'
p621
g5
tp622
a(S'the'
p623
S'the'
p624
S'DT'
p625
S'B-NP'
p626
g5
tp627
a(S'study.'
p628
S'study.'
p629
S'NN'
p630
S'I-NP'
p631
g5
tp632
a(S'INTERVENTION'
p633
S'INTERVENTION'
p634
S'NN'
p635
S'B-NP'
p636
g5
tp637
a(g7
g7
g7
g5
g5
tp638
a(S'A'
p639
g639
S'DT'
p640
S'B-NP'
p641
g5
tp642
a(S'targeted'
p643
S'target'
p644
S'VBN'
p645
S'I-NP'
p646
g5
tp647
a(S'three'
p648
S'three'
p649
S'CD'
p650
S'I-NP'
p651
g5
tp652
a(S'month'
p653
S'month'
p654
S'NN'
p655
S'I-NP'
p656
g5
tp657
a(S'occupational'
p658
S'occupational'
p659
S'JJ'
p660
S'I-NP'
p661
g5
tp662
a(S'therapy'
p663
S'therapy'
p664
S'NN'
p665
S'I-NP'
p666
g5
tp667
a(S'and'
p668
S'and'
p669
S'CC'
p670
S'I-NP'
p671
g5
tp672
a(S'physiotherapy'
p673
S'physiotherapy'
p674
S'NN'
p675
S'I-NP'
p676
g5
tp677
a(S'programme.'
p678
S'programme.'
p679
S'NN'
p680
S'I-NP'
p681
g5
tp682
a(S'MAIN'
p683
S'MAIN'
p684
S'NNP'
p685
S'B-NP'
p686
g5
tp687
a(S'OUTCOME'
p688
S'OUTCOME'
p689
S'NNP'
p690
S'I-NP'
p691
g5
tp692
a(S'MEASURES'
p693
S'MEASURES'
p694
S'NNP'
p695
S'I-NP'
p696
g5
tp697
a(g7
g7
g7
g5
g5
tp698
a(S'Scores'
p699
S'Score'
p700
S'NNS'
p701
S'B-NP'
p702
g5
tp703
a(S'on'
p704
S'on'
p705
S'IN'
p706
S'B-PP'
p707
g5
tp708
a(S'the'
p709
S'the'
p710
S'DT'
p711
S'B-NP'
p712
g5
tp713
a(S'Barthel'
p714
S'Barthel'
p715
S'NNP'
p716
S'I-NP'
p717
g5
tp718
a(S'index'
p719
S'index'
p720
S'NN'
p721
S'I-NP'
p722
g5
tp723
a(S'and'
p724
S'and'
p725
S'CC'
p726
g5
g5
tp727
a(S'the'
p728
S'the'
p729
S'DT'
p730
S'B-NP'
p731
g5
tp732
a(S'Rivermead'
p733
S'Rivermead'
p734
S'NNP'
p735
S'I-NP'
p736
g5
tp737
a(S'mobility'
p738
S'mobility'
p739
S'NN'
p740
S'I-NP'
p741
g5
tp742
a(S'index.'
p743
S'index.'
p744
S'NN'
p745
S'I-NP'
p746
g5
tp747
a(S'RESULTS'
p748
S'RESULTS'
p749
S'NNS'
p750
S'B-NP'
p751
g5
tp752
a(g7
g7
g7
g5
g5
tp753
a(S'24'
p754
S'24'
p755
S'CD'
p756
S'B-NP'
p757
g5
tp758
a(S'of'
p759
S'of'
p760
S'IN'
p761
S'B-PP'
p762
g5
tp763
a(S'77'
p764
S'77'
p765
S'CD'
p766
S'B-NP'
p767
g5
tp768
a(S'nursing'
p769
S'nursing'
p770
S'NN'
p771
S'I-NP'
p772
g5
tp773
a(S'and'
p774
S'and'
p775
S'CC'
p776
g5
g5
tp777
a(S'residential'
p778
S'residential'
p779
S'JJ'
p780
S'B-NP'
p781
g5
tp782
a(S'homes'
p783
S'home'
p784
S'NNS'
p785
S'I-NP'
p786
g5
tp787
a(S'that'
p788
S'that'
p789
S'WDT'
p790
S'B-NP'
p791
g5
tp792
a(S'catered'
p793
S'cater'
p794
S'VBD'
p795
S'B-VP'
p796
g5
tp797
a(S'for'
p798
S'for'
p799
S'IN'
p800
S'B-PP'
p801
g5
tp802
a(S'residents'
p803
S'resident'
p804
S'NNS'
p805
S'B-NP'
p806
g5
tp807
a(S'with'
p808
S'with'
p809
S'IN'
p810
S'B-PP'
p811
g5
tp812
a(S'mobility'
p813
S'mobility'
p814
S'NN'
p815
S'B-NP'
p816
g5
tp817
a(S'limitations'
p818
S'limitation'
p819
S'NNS'
p820
S'I-NP'
p821
g5
tp822
a(S'and'
p823
S'and'
p824
S'CC'
p825
g5
g5
tp826
a(S'dependency'
p827
S'dependency'
p828
S'NN'
p829
S'B-NP'
p830
g5
tp831
a(S'for'
p832
S'for'
p833
S'IN'
p834
S'B-PP'
p835
g5
tp836
a(S'activities'
p837
S'activity'
p838
S'NNS'
p839
S'B-NP'
p840
g5
tp841
a(S'of'
p842
S'of'
p843
S'IN'
p844
S'B-PP'
p845
g5
tp846
a(S'daily'
p847
S'daily'
p848
S'JJ'
p849
S'B-NP'
p850
g5
tp851
a(S'living'
p852
S'living'
p853
S'NN'
p854
S'I-NP'
p855
g5
tp856
a(S'were'
p857
S'be'
p858
S'VBD'
p859
S'B-VP'
p860
g5
tp861
a(S'selected'
p862
S'select'
p863
S'VBN'
p864
S'I-VP'
p865
g5
tp866
a(S'for'
p867
S'for'
p868
S'IN'
p869
S'B-PP'
p870
g5
tp871
a(S'study'
p872
S'study'
p873
S'NN'
p874
S'B-NP'
p875
g5
tp876
a(g7
g7
g7
g5
g5
tp877
a(S'12'
p878
S'12'
p879
S'CD'
p880
S'B-NP'
p881
g5
tp882
a(S'were'
p883
S'be'
p884
S'VBD'
p885
S'B-VP'
p886
g5
tp887
a(S'randomly'
p888
S'randomly'
p889
S'RB'
p890
S'I-VP'
p891
g5
tp892
a(S'allocated'
p893
S'allocate'
p894
S'VBN'
p895
S'I-VP'
p896
g5
tp897
a(S'to'
p898
S'to'
p899
S'TO'
p900
S'B-PP'
p901
g5
tp902
a(S'the'
p903
S'the'
p904
S'DT'
p905
S'B-NP'
p906
g5
tp907
a(S'intervention'
p908
S'intervention'
p909
S'NN'
p910
S'I-NP'
p911
g5
tp912
a(S'arm'
p913
S'arm'
p914
S'NN'
p915
S'I-NP'
p916
g5
tp917
a(g524
g524
g524
g5
g5
tp918
a(S'128'
p919
S'128'
p920
S'CD'
p921
S'B-NP'
p922
g5
tp923
a(S'residents'
p924
S'resident'
p925
S'NNS'
p926
S'I-NP'
p927
g5
tp928
a(g197
g197
g197
g5
g5
tp929
a(S'mean'
p930
S'mean'
p931
S'JJ'
p932
S'B-NP'
p933
g5
tp934
a(S'age'
p935
S'age'
p936
S'NN'
p937
S'I-NP'
p938
g5
tp939
a(S'86'
p940
S'86'
p941
S'CD'
p942
S'B-NP'
p943
g5
tp944
a(S'years'
p945
S'year'
p946
S'NNS'
p947
S'I-NP'
p948
g5
tp949
a(g556
g556
g556
g5
g5
tp950
a(S'and'
p951
S'and'
p952
S'CC'
p953
g5
g5
tp954
a(S'12'
p955
S'12'
p956
S'CD'
p957
S'B-NP'
p958
g5
tp959
a(S'to'
p960
S'to'
p961
S'TO'
p962
S'B-PP'
p963
g5
tp964
a(S'the'
p965
S'the'
p966
S'DT'
p967
S'B-NP'
p968
g5
tp969
a(S'control'
p970
S'control'
p971
S'NN'
p972
S'I-NP'
p973
g5
tp974
a(S'arm'
p975
S'arm'
p976
S'NN'
p977
S'I-NP'
p978
g5
tp979
a(g524
g524
g524
g5
g5
tp980
a(S'121'
p981
S'121'
p982
S'CD'
p983
S'B-NP'
p984
g5
tp985
a(S'residents'
p986
S'resident'
p987
S'NNS'
p988
S'I-NP'
p989
g5
tp990
a(g197
g197
g197
g5
g5
tp991
a(S'mean'
p992
S'mean'
p993
S'JJ'
p994
S'B-NP'
p995
g5
tp996
a(S'age'
p997
S'age'
p998
S'NN'
p999
S'I-NP'
p1000
g5
tp1001
a(S'84'
p1002
S'84'
p1003
S'CD'
p1004
S'B-NP'
p1005
g5
tp1006
a(S'years'
p1007
S'year'
p1008
S'NNS'
p1009
S'I-NP'
p1010
g5
tp1011
a(g556
g556
g556
g5
g5
tp1012
a(S'.'
p1013
g1013
g1013
g5
g5
tp1014
a(S'Participants'
p1015
S'Participant'
p1016
S'NNS'
p1017
S'B-NP'
p1018
g5
tp1019
a(S'were'
p1020
S'be'
p1021
S'VBD'
p1022
S'B-VP'
p1023
g5
tp1024
a(S'evaluated'
p1025
S'evaluate'
p1026
S'VBN'
p1027
S'I-VP'
p1028
g5
tp1029
a(S'by'
p1030
S'by'
p1031
S'IN'
p1032
S'B-PP'
p1033
g5
tp1034
a(S'independent'
p1035
S'independent'
p1036
S'JJ'
p1037
S'B-NP'
p1038
g5
tp1039
a(S'assessors'
p1040
S'assessor'
p1041
S'NNS'
p1042
S'I-NP'
p1043
g5
tp1044
a(S'blind'
p1045
S'blind'
p1046
S'VBP'
p1047
S'B-VP'
p1048
g5
tp1049
a(S'to'
p1050
S'to'
p1051
S'TO'
p1052
S'I-VP'
p1053
g5
tp1054
a(S'study'
p1055
S'study'
p1056
S'VB'
p1057
S'I-VP'
p1058
g5
tp1059
a(S'arm'
p1060
S'arm'
p1061
S'NN'
p1062
S'B-NP'
p1063
g5
tp1064
a(S'allocation'
p1065
S'allocation'
p1066
S'NN'
p1067
S'I-NP'
p1068
g5
tp1069
a(S'before'
p1070
S'before'
p1071
S'IN'
p1072
S'B-PP'
p1073
g5
tp1074
a(S'randomisation'
p1075
S'randomisation'
p1076
S'NN'
p1077
S'B-NP'
p1078
g5
tp1079
a(g524
g524
g524
g5
g5
tp1080
a(S'0'
p1081
g1081
S'CD'
p1082
S'B-NP'
p1083
g5
tp1084
a(S'months'
p1085
S'month'
p1086
S'NNS'
p1087
S'I-NP'
p1088
g5
tp1089
a(g556
g556
g556
g5
g5
tp1090
a(g197
g197
g197
g5
g5
tp1091
a(S'three'
p1092
S'three'
p1093
S'CD'
p1094
S'B-NP'
p1095
g5
tp1096
a(S'months'
p1097
S'month'
p1098
S'NNS'
p1099
S'I-NP'
p1100
g5
tp1101
a(S'after'
p1102
S'after'
p1103
S'IN'
p1104
S'B-SBAR'
p1105
g5
tp1106
a(S'randomisation'
p1107
S'randomisation'
p1108
S'NN'
p1109
S'B-NP'
p1110
g5
tp1111
a(g524
g524
g524
g5
g5
tp1112
a(S'at'
p1113
S'at'
p1114
S'IN'
p1115
S'B-PP'
p1116
g5
tp1117
a(S'the'
p1118
S'the'
p1119
S'DT'
p1120
S'B-NP'
p1121
g5
tp1122
a(S'end'
p1123
S'end'
p1124
S'NN'
p1125
S'I-NP'
p1126
g5
tp1127
a(S'of'
p1128
S'of'
p1129
S'IN'
p1130
S'B-PP'
p1131
g5
tp1132
a(S'the'
p1133
S'the'
p1134
S'DT'
p1135
S'B-NP'
p1136
g5
tp1137
a(S'treatment'
p1138
S'treatment'
p1139
S'NN'
p1140
S'I-NP'
p1141
g5
tp1142
a(S'period'
p1143
S'period'
p1144
S'NN'
p1145
S'I-NP'
p1146
g5
tp1147
a(S'for'
p1148
S'for'
p1149
S'IN'
p1150
S'B-PP'
p1151
g5
tp1152
a(S'patients'
p1153
S'patient'
p1154
S'NNS'
p1155
S'B-NP'
p1156
g5
tp1157
a(S'who'
p1158
S'who'
p1159
S'WP'
p1160
S'B-NP'
p1161
g5
tp1162
a(S'received'
p1163
S'receive'
p1164
S'VBD'
p1165
S'B-VP'
p1166
g5
tp1167
a(S'the'
p1168
S'the'
p1169
S'DT'
p1170
S'B-NP'
p1171
g5
tp1172
a(S'intervention'
p1173
S'intervention'
p1174
S'NN'
p1175
S'I-NP'
p1176
g5
tp1177
a(g556
g556
g556
g5
g5
tp1178
a(g197
g197
g197
g5
g5
tp1179
a(S'and'
p1180
S'and'
p1181
S'CC'
p1182
g5
g5
tp1183
a(S'again'
p1184
S'again'
p1185
S'RB'
p1186
S'B-ADVP'
p1187
g5
tp1188
a(S'at'
p1189
S'at'
p1190
S'IN'
p1191
S'B-PP'
p1192
g5
tp1193
a(S'six'
p1194
S'six'
p1195
S'CD'
p1196
S'B-NP'
p1197
g5
tp1198
a(S'months'
p1199
S'month'
p1200
S'NNS'
p1201
S'I-NP'
p1202
g5
tp1203
a(S'after'
p1204
S'after'
p1205
S'IN'
p1206
S'B-SBAR'
p1207
g5
tp1208
a(S'randomisation.'
p1209
S'randomisation.'
p1210
S'NN'
p1211
S'B-NP'
p1212
g5
tp1213
a(S'After'
p1214
S'After'
p1215
S'IN'
p1216
S'B-PP'
p1217
g5
tp1218
a(S'adjusting'
p1219
S'adjust'
p1220
S'VBG'
p1221
S'B-VP'
p1222
g5
tp1223
a(S'for'
p1224
S'for'
p1225
S'IN'
p1226
S'B-PP'
p1227
g5
tp1228
a(S'home'
p1229
S'home'
p1230
S'NN'
p1231
S'B-NP'
p1232
g5
tp1233
a(S'effect'
p1234
S'effect'
p1235
S'NN'
p1236
S'I-NP'
p1237
g5
tp1238
a(S'and'
p1239
S'and'
p1240
S'CC'
p1241
S'I-NP'
p1242
g5
tp1243
a(S'baseline'
p1244
S'baseline'
p1245
S'NN'
p1246
S'I-NP'
p1247
g5
tp1248
a(S'characteristics'
p1249
S'characteristic'
p1250
S'NNS'
p1251
S'I-NP'
p1252
g5
tp1253
a(g197
g197
g197
g5
g5
tp1254
a(S'no'
p1255
S'no'
p1256
S'DT'
p1257
S'B-NP'
p1258
g5
tp1259
a(S'significant'
p1260
S'significant'
p1261
S'JJ'
p1262
S'I-NP'
p1263
g5
tp1264
a(S'differences'
p1265
S'difference'
p1266
S'NNS'
p1267
S'I-NP'
p1268
g5
tp1269
a(S'were'
p1270
S'be'
p1271
S'VBD'
p1272
S'B-VP'
p1273
g5
tp1274
a(S'found'
p1275
S'find'
p1276
S'VBN'
p1277
S'I-VP'
p1278
g5
tp1279
a(S'in'
p1280
S'in'
p1281
S'IN'
p1282
S'B-PP'
p1283
g5
tp1284
a(S'mean'
p1285
S'mean'
p1286
S'JJ'
p1287
S'B-NP'
p1288
g5
tp1289
a(S'Barthel'
p1290
S'Barthel'
p1291
S'NNP'
p1292
S'I-NP'
p1293
g5
tp1294
a(S'index'
p1295
S'index'
p1296
S'NN'
p1297
S'I-NP'
p1298
g5
tp1299
a(S'scores'
p1300
S'score'
p1301
S'NNS'
p1302
S'I-NP'
p1303
g5
tp1304
a(S'at'
p1305
S'at'
p1306
S'IN'
p1307
S'B-PP'
p1308
g5
tp1309
a(S'six'
p1310
S'six'
p1311
S'CD'
p1312
S'B-NP'
p1313
g5
tp1314
a(S'months'
p1315
S'month'
p1316
S'NNS'
p1317
S'I-NP'
p1318
g5
tp1319
a(S'post-randomisation'
p1320
S'post-randomisation'
p1321
S'JJ'
p1322
S'B-ADJP'
p1323
g5
tp1324
a(S'between'
p1325
S'between'
p1326
S'IN'
p1327
S'B-PP'
p1328
g5
tp1329
a(S'treatment'
p1330
S'treatment'
p1331
S'NN'
p1332
S'B-NP'
p1333
g5
tp1334
a(S'arms'
p1335
S'arm'
p1336
S'NNS'
p1337
S'I-NP'
p1338
g5
tp1339
a(g524
g524
g524
g5
g5
tp1340
a(S'mean'
p1341
S'mean'
p1342
S'JJ'
p1343
S'B-NP'
p1344
g5
tp1345
a(S'effect'
p1346
S'effect'
p1347
S'NN'
p1348
S'I-NP'
p1349
g5
tp1350
a(S'0.08'
p1351
S'0.08'
p1352
S'CD'
p1353
S'I-NP'
p1354
g5
tp1355
a(g197
g197
g197
S'I-NP'
p1356
g5
tp1357
a(S'95'
p1358
S'95'
p1359
S'CD'
p1360
S'I-NP'
p1361
g5
tp1362
a(S'%'
p1363
g1363
S'NN'
p1364
S'I-NP'
p1365
g5
tp1366
a(S'confidence'
p1367
S'confidence'
p1368
S'NN'
p1369
S'I-NP'
p1370
g5
tp1371
a(S'interval'
p1372
S'interval'
p1373
S'NN'
p1374
S'I-NP'
p1375
g5
tp1376
a(S'-1.14'
p1377
S'-1.14'
p1378
S'CD'
p1379
S'I-NP'
p1380
g5
tp1381
a(S'to'
p1382
S'to'
p1383
S'TO'
p1384
S'B-PP'
p1385
g5
tp1386
a(S'1.30'
p1387
S'1.30'
p1388
S'CD'
p1389
S'B-NP'
p1390
g5
tp1391
a(S';'
p1392
g1392
g7
g5
g5
tp1393
a(S'P=0.90'
p1394
S'P=0.90'
p1395
S'NN'
p1396
S'B-NP'
p1397
g5
tp1398
a(g556
g556
g556
g5
g5
tp1399
a(g197
g197
g197
g5
g5
tp1400
a(S'across'
p1401
S'across'
p1402
S'IN'
p1403
S'B-PP'
p1404
g5
tp1405
a(S'assessments'
p1406
S'assessment'
p1407
S'NNS'
p1408
S'B-NP'
p1409
g5
tp1410
a(g524
g524
g524
g5
g5
tp1411
a(S'-0.01'
p1412
S'-0.01'
p1413
S'CD'
p1414
S'B-NP'
p1415
g5
tp1416
a(g197
g197
g197
g5
g5
tp1417
a(S'-0.63'
p1418
S'-0.63'
p1419
S'CD'
p1420
S'B-NP'
p1421
g5
tp1422
a(S'to'
p1423
S'to'
p1424
S'TO'
p1425
S'B-PP'
p1426
g5
tp1427
a(S'0.60'
p1428
S'0.60'
p1429
S'CD'
p1430
S'B-NP'
p1431
g5
tp1432
a(g1392
g1392
g7
g5
g5
tp1433
a(S'P=0.96'
p1434
S'P=0.96'
p1435
S'NN'
p1436
S'B-NP'
p1437
g5
tp1438
a(g556
g556
g556
g5
g5
tp1439
a(g197
g197
g197
g5
g5
tp1440
a(S'or'
p1441
S'or'
p1442
S'CC'
p1443
g5
g5
tp1444
a(S'in'
p1445
S'in'
p1446
S'IN'
p1447
S'B-PP'
p1448
g5
tp1449
a(S'the'
p1450
S'the'
p1451
S'DT'
p1452
S'B-NP'
p1453
g5
tp1454
a(S'interaction'
p1455
S'interaction'
p1456
S'NN'
p1457
S'I-NP'
p1458
g5
tp1459
a(S'between'
p1460
S'between'
p1461
S'IN'
p1462
S'B-PP'
p1463
g5
tp1464
a(S'assessment'
p1465
S'assessment'
p1466
S'NN'
p1467
S'B-NP'
p1468
g5
tp1469
a(S'and'
p1470
S'and'
p1471
S'CC'
p1472
g5
g5
tp1473
a(S'intervention'
p1474
S'intervention'
p1475
S'NN'
p1476
S'B-NP'
p1477
g5
tp1478
a(g524
g524
g524
g5
g5
tp1479
a(S'0.42'
p1480
S'0.42'
p1481
S'CD'
p1482
S'B-NP'
p1483
g5
tp1484
a(g197
g197
g197
g5
g5
tp1485
a(S'-0.48'
p1486
S'-0.48'
p1487
S'CD'
p1488
S'B-NP'
p1489
g5
tp1490
a(S'to'
p1491
S'to'
p1492
S'TO'
p1493
S'B-PP'
p1494
g5
tp1495
a(S'1.32'
p1496
S'1.32'
p1497
S'CD'
p1498
S'B-NP'
p1499
g5
tp1500
a(g1392
g1392
g7
g5
g5
tp1501
a(S'P=0.36'
p1502
S'P=0.36'
p1503
S'NN'
p1504
S'B-NP'
p1505
g5
tp1506
a(g556
g556
g556
g5
g5
tp1507
a(g1013
g1013
g1013
g5
g5
tp1508
a(S'Similarly'
p1509
S'Similarly'
p1510
S'RB'
p1511
S'B-ADVP'
p1512
g5
tp1513
a(g197
g197
g197
g5
g5
tp1514
a(S'no'
p1515
S'no'
p1516
S'DT'
p1517
S'B-NP'
p1518
g5
tp1519
a(S'significant'
p1520
S'significant'
p1521
S'JJ'
p1522
S'I-NP'
p1523
g5
tp1524
a(S'differences'
p1525
S'difference'
p1526
S'NNS'
p1527
S'I-NP'
p1528
g5
tp1529
a(S'were'
p1530
S'be'
p1531
S'VBD'
p1532
S'B-VP'
p1533
g5
tp1534
a(S'found'
p1535
S'find'
p1536
S'VBN'
p1537
S'I-VP'
p1538
g5
tp1539
a(S'in'
p1540
S'in'
p1541
S'IN'
p1542
S'B-PP'
p1543
g5
tp1544
a(S'the'
p1545
S'the'
p1546
S'DT'
p1547
S'B-NP'
p1548
g5
tp1549
a(S'mean'
p1550
S'mean'
p1551
S'JJ'
p1552
S'I-NP'
p1553
g5
tp1554
a(S'Rivermead'
p1555
S'Rivermead'
p1556
S'NNP'
p1557
S'I-NP'
p1558
g5
tp1559
a(S'mobility'
p1560
S'mobility'
p1561
S'NN'
p1562
S'I-NP'
p1563
g5
tp1564
a(S'index'
p1565
S'index'
p1566
S'NN'
p1567
S'I-NP'
p1568
g5
tp1569
a(S'scores'
p1570
S'score'
p1571
S'NNS'
p1572
S'I-NP'
p1573
g5
tp1574
a(S'between'
p1575
S'between'
p1576
S'IN'
p1577
S'B-PP'
p1578
g5
tp1579
a(S'treatment'
p1580
S'treatment'
p1581
S'NN'
p1582
S'B-NP'
p1583
g5
tp1584
a(S'arms'
p1585
S'arm'
p1586
S'NNS'
p1587
S'I-NP'
p1588
g5
tp1589
a(g524
g524
g524
g5
g5
tp1590
a(S'0.62'
p1591
S'0.62'
p1592
S'CD'
p1593
S'B-NP'
p1594
g5
tp1595
a(g197
g197
g197
g5
g5
tp1596
a(S'-0.51'
p1597
S'-0.51'
p1598
S'CD'
p1599
S'B-NP'
p1600
g5
tp1601
a(S'to'
p1602
S'to'
p1603
S'TO'
p1604
S'B-PP'
p1605
g5
tp1606
a(S'1.76'
p1607
S'1.76'
p1608
S'CD'
p1609
S'B-NP'
p1610
g5
tp1611
a(g1392
g1392
g7
g5
g5
tp1612
a(S'P=0.28'
p1613
S'P=0.28'
p1614
S'NN'
p1615
S'B-NP'
p1616
g5
tp1617
a(g556
g556
g556
g5
g5
tp1618
a(g197
g197
g197
g5
g5
tp1619
a(S'across'
p1620
S'across'
p1621
S'IN'
p1622
S'B-PP'
p1623
g5
tp1624
a(S'assessments'
p1625
S'assessment'
p1626
S'NNS'
p1627
S'B-NP'
p1628
g5
tp1629
a(g524
g524
g524
g5
g5
tp1630
a(S'-0.15'
p1631
S'-0.15'
p1632
S'CD'
p1633
S'B-NP'
p1634
g5
tp1635
a(g197
g197
g197
g5
g5
tp1636
a(S'-0.65'
p1637
S'-0.65'
p1638
S'CD'
p1639
S'B-NP'
p1640
g5
tp1641
a(S'to'
p1642
S'to'
p1643
S'TO'
p1644
S'B-PP'
p1645
g5
tp1646
a(S'0.35'
p1647
S'0.35'
p1648
S'CD'
p1649
S'B-NP'
p1650
g5
tp1651
a(g1392
g1392
g7
g5
g5
tp1652
a(S'P=0.55'
p1653
S'P=0.55'
p1654
S'NN'
p1655
S'B-NP'
p1656
g5
tp1657
a(g556
g556
g556
g5
g5
tp1658
a(g197
g197
g197
g5
g5
tp1659
a(S'or'
p1660
S'or'
p1661
S'CC'
p1662
g5
g5
tp1663
a(S'interaction'
p1664
S'interaction'
p1665
S'NN'
p1666
S'B-NP'
p1667
g5
tp1668
a(g524
g524
g524
g5
g5
tp1669
a(S'0.71'
p1670
S'0.71'
p1671
S'CD'
p1672
S'B-NP'
p1673
g5
tp1674
a(g197
g197
g197
g5
g5
tp1675
a(S'-0.02'
p1676
S'-0.02'
p1677
S'CD'
p1678
S'B-NP'
p1679
g5
tp1680
a(S'to'
p1681
S'to'
p1682
S'TO'
p1683
S'B-PP'
p1684
g5
tp1685
a(S'1.44'
p1686
S'1.44'
p1687
S'CD'
p1688
S'B-NP'
p1689
g5
tp1690
a(g1392
g1392
g7
g5
g5
tp1691
a(S'P=0.06'
p1692
S'P=0.06'
p1693
S'NN'
p1694
S'B-NP'
p1695
g5
tp1696
a(g556
g556
g556
g5
g5
tp1697
a(g1013
g1013
g1013
g5
g5
tp1698
a(S'CONCLUSIONS'
p1699
S'CONCLUSIONS'
p1700
S'NNS'
p1701
S'B-NP'
p1702
g5
tp1703
a(g7
g7
g7
g5
g5
tp1704
a(S'The'
p1705
S'The'
p1706
S'DT'
p1707
S'B-NP'
p1708
g5
tp1709
a(S'three'
p1710
S'three'
p1711
S'CD'
p1712
S'I-NP'
p1713
g5
tp1714
a(S'month'
p1715
S'month'
p1716
S'NN'
p1717
S'I-NP'
p1718
g5
tp1719
a(S'occupational'
p1720
S'occupational'
p1721
S'JJ'
p1722
S'I-NP'
p1723
g5
tp1724
a(S'therapy'
p1725
S'therapy'
p1726
S'NN'
p1727
S'I-NP'
p1728
g5
tp1729
a(S'and'
p1730
S'and'
p1731
S'CC'
p1732
S'I-NP'
p1733
g5
tp1734
a(S'physiotherapy'
p1735
S'physiotherapy'
p1736
S'NN'
p1737
S'I-NP'
p1738
g5
tp1739
a(S'programme'
p1740
S'programme'
p1741
S'NN'
p1742
S'I-NP'
p1743
g5
tp1744
a(S'had'
p1745
S'have'
p1746
S'VBD'
p1747
S'B-VP'
p1748
g5
tp1749
a(S'no'
p1750
S'no'
p1751
S'DT'
p1752
S'B-NP'
p1753
g5
tp1754
a(S'significant'
p1755
S'significant'
p1756
S'JJ'
p1757
S'I-NP'
p1758
g5
tp1759
a(S'effect'
p1760
S'effect'
p1761
S'NN'
p1762
S'I-NP'
p1763
g5
tp1764
a(S'on'
p1765
S'on'
p1766
S'IN'
p1767
S'B-PP'
p1768
g5
tp1769
a(S'mobility'
p1770
S'mobility'
p1771
S'NN'
p1772
S'B-NP'
p1773
g5
tp1774
a(S'and'
p1775
S'and'
p1776
S'CC'
p1777
S'I-NP'
p1778
g5
tp1779
a(S'independence.'
p1780
S'independence.'
p1781
S'NN'
p1782
S'I-NP'
p1783
g5
tp1784
a(S'On'
p1785
S'On'
p1786
S'IN'
p1787
S'B-PP'
p1788
g5
tp1789
a(S'the'
p1790
S'the'
p1791
S'DT'
p1792
S'B-NP'
p1793
g5
tp1794
a(S'other'
p1795
S'other'
p1796
S'JJ'
p1797
S'I-NP'
p1798
g5
tp1799
a(S'hand'
p1800
S'hand'
p1801
S'NN'
p1802
S'I-NP'
p1803
g5
tp1804
a(g197
g197
g197
g5
g5
tp1805
a(S'the'
p1806
S'the'
p1807
S'DT'
p1808
S'B-NP'
p1809
g5
tp1810
a(S'variation'
p1811
S'variation'
p1812
S'NN'
p1813
S'I-NP'
p1814
g5
tp1815
a(S'in'
p1816
S'in'
p1817
S'IN'
p1818
S'B-PP'
p1819
g5
tp1820
a(S'residents'
p1821
S'resident'
p1822
S'NNS'
p1823
S'B-NP'
p1824
g5
tp1825
a(S"'"
p1826
g1826
S'POS'
p1827
S'B-NP'
p1828
g5
tp1829
a(S'functional'
p1830
S'functional'
p1831
S'JJ'
p1832
S'I-NP'
p1833
g5
tp1834
a(S'ability'
p1835
S'ability'
p1836
S'NN'
p1837
S'I-NP'
p1838
g5
tp1839
a(g197
g197
g197
g5
g5
tp1840
a(S'the'
p1841
S'the'
p1842
S'DT'
p1843
S'B-NP'
p1844
g5
tp1845
a(S'prevalence'
p1846
S'prevalence'
p1847
S'NN'
p1848
S'I-NP'
p1849
g5
tp1850
a(S'of'
p1851
S'of'
p1852
S'IN'
p1853
S'B-PP'
p1854
g5
tp1855
a(S'cognitive'
p1856
S'cognitive'
p1857
S'JJ'
p1858
S'B-NP'
p1859
g5
tp1860
a(S'impairment'
p1861
S'impairment'
p1862
S'NN'
p1863
S'I-NP'
p1864
g5
tp1865
a(g197
g197
g197
g5
g5
tp1866
a(S'and'
p1867
S'and'
p1868
S'CC'
p1869
g5
g5
tp1870
a(S'the'
p1871
S'the'
p1872
S'DT'
p1873
S'B-NP'
p1874
g5
tp1875
a(S'prevalence'
p1876
S'prevalence'
p1877
S'NN'
p1878
S'I-NP'
p1879
g5
tp1880
a(S'of'
p1881
S'of'
p1882
S'IN'
p1883
S'B-PP'
p1884
g5
tp1885
a(S'depression'
p1886
S'depression'
p1887
S'NN'
p1888
S'B-NP'
p1889
g5
tp1890
a(S'were'
p1891
S'be'
p1892
S'VBD'
p1893
S'B-VP'
p1894
g5
tp1895
a(S'considerably'
p1896
S'considerably'
p1897
S'RB'
p1898
S'B-ADJP'
p1899
g5
tp1900
a(S'higher'
p1901
S'high'
p1902
S'JJR'
p1903
S'I-ADJP'
p1904
g5
tp1905
a(S'in'
p1906
S'in'
p1907
S'IN'
p1908
S'B-PP'
p1909
g5
tp1910
a(S'this'
p1911
S'this'
p1912
S'DT'
p1913
S'B-NP'
p1914
g5
tp1915
a(S'sample'
p1916
S'sample'
p1917
S'NN'
p1918
S'I-NP'
p1919
g5
tp1920
a(S'than'
p1921
S'than'
p1922
S'IN'
p1923
S'B-SBAR'
p1924
g5
tp1925
a(S'expected'
p1926
S'expect'
p1927
S'VBN'
p1928
S'B-VP'
p1929
g5
tp1930
a(S'on'
p1931
S'on'
p1932
S'IN'
p1933
S'B-PP'
p1934
g5
tp1935
a(S'the'
p1936
S'the'
p1937
S'DT'
p1938
S'B-NP'
p1939
g5
tp1940
a(S'basis'
p1941
S'basis'
p1942
S'NN'
p1943
S'I-NP'
p1944
g5
tp1945
a(S'of'
p1946
S'of'
p1947
S'IN'
p1948
S'B-PP'
p1949
g5
tp1950
a(S'previous'
p1951
S'previous'
p1952
S'JJ'
p1953
S'B-NP'
p1954
g5
tp1955
a(S'work.'
p1956
S'work.'
p1957
S'NNS'
p1958
S'I-NP'
p1959
g5
tp1960
a(S'Further'
p1961
S'Further'
p1962
S'JJ'
p1963
S'B-NP'
p1964
g5
tp1965
a(S'research'
p1966
S'research'
p1967
S'NN'
p1968
S'I-NP'
p1969
g5
tp1970
a(S'to'
p1971
S'to'
p1972
S'TO'
p1973
S'B-VP'
p1974
g5
tp1975
a(S'clarify'
p1976
S'clarify'
p1977
S'VB'
p1978
S'I-VP'
p1979
g5
tp1980
a(S'the'
p1981
S'the'
p1982
S'DT'
p1983
S'B-NP'
p1984
g5
tp1985
a(S'efficacy'
p1986
S'efficacy'
p1987
S'NN'
p1988
S'I-NP'
p1989
g5
tp1990
a(S'of'
p1991
S'of'
p1992
S'IN'
p1993
S'B-PP'
p1994
g5
tp1995
a(S'occupational'
p1996
S'occupational'
p1997
S'JJ'
p1998
S'B-NP'
p1999
g5
tp2000
a(S'therapy'
p2001
S'therapy'
p2002
S'NN'
p2003
S'I-NP'
p2004
g5
tp2005
a(S'and'
p2006
S'and'
p2007
S'CC'
p2008
S'I-NP'
p2009
g5
tp2010
a(S'physiotherapy'
p2011
S'physiotherapy'
p2012
S'NN'
p2013
S'I-NP'
p2014
g5
tp2015
a(S'is'
p2016
S'be'
p2017
S'VBZ'
p2018
S'B-VP'
p2019
g5
tp2020
a(S'required'
p2021
S'require'
p2022
S'VBN'
p2023
S'I-VP'
p2024
g5
tp2025
a(S'if'
p2026
S'if'
p2027
S'IN'
p2028
S'B-SBAR'
p2029
g5
tp2030
a(S'access'
p2031
S'access'
p2032
S'NN'
p2033
S'B-NP'
p2034
g5
tp2035
a(S'to'
p2036
S'to'
p2037
S'TO'
p2038
S'B-PP'
p2039
g5
tp2040
a(S'therapy'
p2041
S'therapy'
p2042
S'NN'
p2043
S'B-NP'
p2044
g5
tp2045
a(S'services'
p2046
S'service'
p2047
S'NNS'
p2048
S'I-NP'
p2049
g5
tp2050
a(S'is'
p2051
S'be'
p2052
S'VBZ'
p2053
S'B-VP'
p2054
g5
tp2055
a(S'to'
p2056
S'to'
p2057
S'TO'
p2058
S'B-VP'
p2059
g5
tp2060
a(S'be'
p2061
S'be'
p2062
S'VB'
p2063
S'I-VP'
p2064
g5
tp2065
a(S'recommended'
p2066
S'recommend'
p2067
S'VBN'
p2068
S'I-VP'
p2069
g5
tp2070
a(S'in'
p2071
S'in'
p2072
S'IN'
p2073
S'B-PP'
p2074
g5
tp2075
a(S'this'
p2076
S'this'
p2077
S'DT'
p2078
S'B-NP'
p2079
g5
tp2080
a(S'population.'
p2081
S'population.'
p2082
S'NN'
p2083
S'I-NP'
p2084
g5
tp2085
a(S'TRIAL'
p2086
S'TRIAL'
p2087
S'NN'
p2088
S'B-NP'
p2089
g5
tp2090
a(S'REGISTRATION'
p2091
S'REGISTRATION'
p2092
S'NN'
p2093
S'I-NP'
p2094
g5
tp2095
a(g7
g7
g7
g5
g5
tp2096
a(S'ISRCTN79859980'
p2097
S'ISRCTN79859980'
p2098
S'NN'
p2099
S'B-NP'
p2100
g5
tp2101
a(g1013
g1013
g1013
g5
g5
tp2102
a.