(lp0
(S'OBJECTIVE'
p1
S'OBJECTIVE'
p2
S'NN'
p3
S'B-NP'
p4
S'O'
p5
tp6
a(S':'
p7
g7
g7
g5
g5
tp8
a(S'To'
p9
S'To'
p10
S'TO'
p11
S'B-VP'
p12
g5
tp13
a(S'evaluate'
p14
S'evaluate'
p15
S'VB'
p16
S'I-VP'
p17
g5
tp18
a(S'the'
p19
S'the'
p20
S'DT'
p21
S'B-NP'
p22
g5
tp23
a(S'effectiveness'
p24
S'effectiveness'
p25
S'NN'
p26
S'I-NP'
p27
g5
tp28
a(S'of'
p29
S'of'
p30
S'IN'
p31
S'B-PP'
p32
g5
tp33
a(S'treatment'
p34
S'treatment'
p35
S'NN'
p36
S'B-NP'
p37
g5
tp38
a(S'with'
p39
S'with'
p40
S'IN'
p41
S'B-PP'
p42
g5
tp43
a(S'collar'
p44
S'collar'
p45
S'NN'
p46
S'B-NP'
p47
g5
tp48
a(S'or'
p49
S'or'
p50
S'CC'
p51
S'I-NP'
p52
g5
tp53
a(S'physiotherapy'
p54
S'physiotherapy'
p55
S'NN'
p56
S'I-NP'
p57
g5
tp58
a(S'compared'
p59
S'compare'
p60
S'VBN'
p61
S'B-PP'
p62
g5
tp63
a(S'with'
p64
S'with'
p65
S'IN'
p66
S'B-PP'
p67
g5
tp68
a(S'a'
p69
g69
S'DT'
p70
S'B-NP'
p71
g5
tp72
a(S'wait'
p73
S'wait'
p74
S'NN'
p75
S'I-NP'
p76
g5
tp77
a(S'and'
p78
S'and'
p79
S'CC'
p80
g5
g5
tp81
a(S'see'
p82
S'see'
p83
S'VB'
p84
S'B-VP'
p85
g5
tp86
a(S'policy'
p87
S'policy'
p88
S'NN'
p89
S'B-NP'
p90
g5
tp91
a(S'in'
p92
S'in'
p93
S'IN'
p94
S'B-PP'
p95
g5
tp96
a(S'recent'
p97
S'recent'
p98
S'JJ'
p99
S'B-NP'
p100
g5
tp101
a(S'onset'
p102
S'onset'
p103
S'NN'
p104
S'I-NP'
p105
g5
tp106
a(S'cervical'
p107
S'cervical'
p108
S'JJ'
p109
S'I-NP'
p110
g5
tp111
a(S'radiculopathy.'
p112
S'radiculopathy.'
p113
S'NN'
p114
S'I-NP'
p115
g5
tp116
a(S'DESIGN'
p117
S'DESIGN'
p118
S'NN'
p119
S'B-NP'
p120
g5
tp121
a(g7
g7
g7
g5
g5
tp122
a(S'Randomised'
p123
S'Randomise'
p124
S'VBN'
p125
S'B-VP'
p126
g5
tp127
a(S'controlled'
p128
S'control'
p129
S'VBN'
p130
S'B-NP'
p131
g5
tp132
a(S'trial.'
p133
S'trial.'
p134
S'NN'
p135
S'I-NP'
p136
g5
tp137
a(S'SETTING'
p138
S'SETTING'
p139
S'NN'
p140
S'B-NP'
p141
g5
tp142
a(g7
g7
g7
g5
g5
tp143
a(S'Neurology'
p144
S'Neurology'
p145
S'NNP'
p146
S'B-NP'
p147
g5
tp148
a(S'outpatient'
p149
S'outpatient'
p150
S'NN'
p151
S'I-NP'
p152
g5
tp153
a(S'clinics'
p154
S'clinic'
p155
S'NNS'
p156
S'I-NP'
p157
g5
tp158
a(S'in'
p159
S'in'
p160
S'IN'
p161
S'B-PP'
p162
g5
tp163
a(S'three'
p164
S'three'
p165
S'CD'
p166
S'B-NP'
p167
g5
tp168
a(S'Dutch'
p169
S'Dutch'
p170
S'JJ'
p171
S'I-NP'
p172
g5
tp173
a(S'hospitals.'
p174
S'hospitals.'
p175
S'NNS'
p176
S'I-NP'
p177
g5
tp178
a(S'PARTICIPANTS'
p179
S'PARTICIPANTS'
p180
S'NNS'
p181
S'B-NP'
p182
g5
tp183
a(g7
g7
g7
g5
g5
tp184
a(S'205'
p185
S'205'
p186
S'CD'
p187
S'B-NP'
p188
g5
tp189
a(S'patients'
p190
S'patient'
p191
S'NNS'
p192
S'I-NP'
p193
g5
tp194
a(S'with'
p195
S'with'
p196
S'IN'
p197
S'B-PP'
p198
g5
tp199
a(S'symptoms'
p200
S'symptom'
p201
S'NNS'
p202
S'B-NP'
p203
g5
tp204
a(S'and'
p205
S'and'
p206
S'CC'
p207
S'I-NP'
p208
g5
tp209
a(S'signs'
p210
S'sign'
p211
S'NNS'
p212
S'I-NP'
p213
g5
tp214
a(S'of'
p215
S'of'
p216
S'IN'
p217
S'B-PP'
p218
g5
tp219
a(S'cervical'
p220
S'cervical'
p221
S'JJ'
p222
S'B-NP'
p223
g5
tp224
a(S'radiculopathy'
p225
S'radiculopathy'
p226
S'NN'
p227
S'I-NP'
p228
g5
tp229
a(S'of'
p230
S'of'
p231
S'IN'
p232
S'B-PP'
p233
g5
tp234
a(S'less'
p235
S'less'
p236
S'JJR'
p237
S'B-NP'
p238
g5
tp239
a(S'than'
p240
S'than'
p241
S'IN'
p242
S'I-NP'
p243
g5
tp244
a(S'one'
p245
S'one'
p246
S'CD'
p247
S'I-NP'
p248
g5
tp249
a(S'month'
p250
S'month'
p251
S'NN'
p252
S'I-NP'
p253
g5
tp254
a(S"'s"
p255
S"'s"
p256
S'POS'
p257
S'B-NP'
p258
g5
tp259
a(S'duration'
p260
S'duration'
p261
S'NN'
p262
S'I-NP'
p263
g5
tp264
a(S'INTERVENTIONS'
p265
S'INTERVENTIONS'
p266
S'NN'
p267
S'I-NP'
p268
g5
tp269
a(g7
g7
g7
g5
g5
tp270
a(S'Treatment'
p271
S'Treatment'
p272
S'NN'
p273
S'B-NP'
p274
g5
tp275
a(S'with'
p276
S'with'
p277
S'IN'
p278
S'B-PP'
p279
g5
tp280
a(g69
g69
S'DT'
p281
S'B-NP'
p282
g5
tp283
a(S'semi-hard'
p284
S'semi-hard'
p285
S'JJ'
p286
S'I-NP'
p287
g5
tp288
a(S'collar'
p289
S'collar'
p290
S'NN'
p291
S'I-NP'
p292
g5
tp293
a(S'and'
p294
S'and'
p295
S'CC'
p296
g5
g5
tp297
a(S'taking'
p298
S'take'
p299
S'VBG'
p300
S'B-VP'
p301
g5
tp302
a(S'rest'
p303
S'rest'
p304
S'NN'
p305
S'B-NP'
p306
g5
tp307
a(S'for'
p308
S'for'
p309
S'IN'
p310
S'B-PP'
p311
g5
tp312
a(S'three'
p313
S'three'
p314
S'CD'
p315
S'B-NP'
p316
g5
tp317
a(S'to'
p318
S'to'
p319
S'TO'
p320
S'I-NP'
p321
g5
tp322
a(S'six'
p323
S'six'
p324
S'CD'
p325
S'I-NP'
p326
g5
tp327
a(S'weeks'
p328
S'week'
p329
S'NNS'
p330
S'I-NP'
p331
g5
tp332
a(S';'
p333
g333
g7
g5
g5
tp334
a(S'12'
p335
S'12'
p336
S'CD'
p337
S'B-NP'
p338
g5
tp339
a(S'twice'
p340
S'twice'
p341
S'JJ'
p342
S'I-NP'
p343
g5
tp344
a(S'weekly'
p345
S'weekly'
p346
S'JJ'
p347
S'I-NP'
p348
g5
tp349
a(S'sessions'
p350
S'session'
p351
S'NNS'
p352
S'I-NP'
p353
g5
tp354
a(S'of'
p355
S'of'
p356
S'IN'
p357
S'B-PP'
p358
g5
tp359
a(S'physiotherapy'
p360
S'physiotherapy'
p361
S'NN'
p362
S'B-NP'
p363
g5
tp364
a(S'and'
p365
S'and'
p366
S'CC'
p367
S'I-NP'
p368
g5
tp369
a(S'home'
p370
S'home'
p371
S'NN'
p372
S'I-NP'
p373
g5
tp374
a(S'exercises'
p375
S'exercise'
p376
S'NNS'
p377
S'I-NP'
p378
g5
tp379
a(S'for'
p380
S'for'
p381
S'IN'
p382
S'B-PP'
p383
g5
tp384
a(S'six'
p385
S'six'
p386
S'CD'
p387
S'B-NP'
p388
g5
tp389
a(S'weeks'
p390
S'week'
p391
S'NNS'
p392
S'I-NP'
p393
g5
tp394
a(g333
g333
g7
g5
g5
tp395
a(S'or'
p396
S'or'
p397
S'CC'
p398
g5
g5
tp399
a(S'continuation'
p400
S'continuation'
p401
S'NN'
p402
S'B-NP'
p403
g5
tp404
a(S'of'
p405
S'of'
p406
S'IN'
p407
S'B-PP'
p408
g5
tp409
a(S'daily'
p410
S'daily'
p411
S'JJ'
p412
S'B-NP'
p413
g5
tp414
a(S'activities'
p415
S'activity'
p416
S'NNS'
p417
S'I-NP'
p418
g5
tp419
a(S'as'
p420
S'as'
p421
S'RB'
p422
S'B-ADVP'
p423
g5
tp424
a(S'much'
p425
S'much'
p426
S'RB'
p427
S'I-ADVP'
p428
g5
tp429
a(S'as'
p430
S'as'
p431
S'IN'
p432
S'B-PP'
p433
g5
tp434
a(S'possible'
p435
S'possible'
p436
S'JJ'
p437
S'B-ADJP'
p438
g5
tp439
a(S'without'
p440
S'without'
p441
S'IN'
p442
S'B-PP'
p443
g5
tp444
a(S'specific'
p445
S'specific'
p446
S'JJ'
p447
S'B-NP'
p448
g5
tp449
a(S'treatment'
p450
S'treatment'
p451
S'NN'
p452
S'I-NP'
p453
g5
tp454
a(S'('
p455
g455
g455
g5
g5
tp456
a(S'control'
p457
S'control'
p458
S'NN'
p459
S'B-NP'
p460
g5
tp461
a(S'group'
p462
S'group'
p463
S'NN'
p464
S'I-NP'
p465
g5
tp466
a(S')'
p467
g467
g467
g5
g5
tp468
a(S'.'
p469
g469
g469
g5
g5
tp470
a(S'MAIN'
p471
S'MAIN'
p472
S'NNP'
p473
S'B-NP'
p474
g5
tp475
a(S'OUTCOME'
p476
S'OUTCOME'
p477
S'NNP'
p478
S'I-NP'
p479
g5
tp480
a(S'MEASURES'
p481
S'MEASURES'
p482
S'NNP'
p483
S'I-NP'
p484
g5
tp485
a(g7
g7
g7
g5
g5
tp486
a(S'Time'
p487
S'Time'
p488
S'NN'
p489
S'B-NP'
p490
g5
tp491
a(S'course'
p492
S'course'
p493
S'NN'
p494
S'I-NP'
p495
g5
tp496
a(S'of'
p497
S'of'
p498
S'IN'
p499
S'B-PP'
p500
g5
tp501
a(S'changes'
p502
S'change'
p503
S'NNS'
p504
S'B-NP'
p505
g5
tp506
a(S'in'
p507
S'in'
p508
S'IN'
p509
S'B-PP'
p510
g5
tp511
a(S'pain'
p512
S'pain'
p513
S'NN'
p514
S'B-NP'
p515
g5
tp516
a(S'scores'
p517
S'score'
p518
S'NNS'
p519
S'I-NP'
p520
g5
tp521
a(S'for'
p522
S'for'
p523
S'IN'
p524
S'B-PP'
p525
g5
tp526
a(S'arm'
p527
S'arm'
p528
S'NN'
p529
S'B-NP'
p530
g5
tp531
a(S'and'
p532
S'and'
p533
S'CC'
p534
S'I-NP'
p535
g5
tp536
a(S'neck'
p537
S'neck'
p538
S'NN'
p539
S'I-NP'
p540
g5
tp541
a(S'pain'
p542
S'pain'
p543
S'NN'
p544
S'I-NP'
p545
g5
tp546
a(S'on'
p547
S'on'
p548
S'IN'
p549
S'B-PP'
p550
g5
tp551
a(g69
g69
S'DT'
p552
S'B-NP'
p553
g5
tp554
a(S'100'
p555
S'100'
p556
S'CD'
p557
S'I-NP'
p558
g5
tp559
a(S'mm'
p560
S'mm'
p561
S'NN'
p562
S'I-NP'
p563
g5
tp564
a(S'visual'
p565
S'visual'
p566
S'JJ'
p567
S'I-NP'
p568
g5
tp569
a(S'analogue'
p570
S'analogue'
p571
S'NN'
p572
S'I-NP'
p573
g5
tp574
a(S'scale'
p575
S'scale'
p576
S'NN'
p577
S'I-NP'
p578
g5
tp579
a(S'and'
p580
S'and'
p581
S'CC'
p582
S'B-PP'
p583
g5
tp584
a(S'in'
p585
S'in'
p586
S'IN'
p587
S'B-PP'
p588
g5
tp589
a(S'the'
p590
S'the'
p591
S'DT'
p592
S'B-NP'
p593
g5
tp594
a(S'neck'
p595
S'neck'
p596
S'NN'
p597
S'I-NP'
p598
g5
tp599
a(S'disability'
p600
S'disability'
p601
S'NN'
p602
S'I-NP'
p603
g5
tp604
a(S'index'
p605
S'index'
p606
S'NN'
p607
S'I-NP'
p608
g5
tp609
a(S'during'
p610
S'during'
p611
S'IN'
p612
S'B-PP'
p613
g5
tp614
a(S'the'
p615
S'the'
p616
S'DT'
p617
S'B-NP'
p618
g5
tp619
a(S'first'
p620
S'first'
p621
S'JJ'
p622
S'I-NP'
p623
g5
tp624
a(S'six'
p625
S'six'
p626
S'CD'
p627
S'I-NP'
p628
g5
tp629
a(S'weeks.'
p630
S'weeks.'
p631
S'NNS'
p632
S'I-NP'
p633
g5
tp634
a(S'RESULTS'
p635
S'RESULTS'
p636
S'NNS'
p637
S'B-NP'
p638
g5
tp639
a(g7
g7
g7
g5
g5
tp640
a(S'In'
p641
S'In'
p642
S'IN'
p643
S'B-PP'
p644
g5
tp645
a(S'the'
p646
S'the'
p647
S'DT'
p648
S'B-NP'
p649
g5
tp650
a(S'wait'
p651
S'wait'
p652
S'NN'
p653
S'I-NP'
p654
g5
tp655
a(S'and'
p656
S'and'
p657
S'CC'
p658
g5
g5
tp659
a(S'see'
p660
S'see'
p661
S'VB'
p662
S'B-VP'
p663
g5
tp664
a(S'group'
p665
S'group'
p666
S'NN'
p667
S'B-NP'
p668
g5
tp669
a(S','
p670
g670
g670
g5
g5
tp671
a(S'arm'
p672
S'arm'
p673
S'NN'
p674
S'B-NP'
p675
g5
tp676
a(S'pain'
p677
S'pain'
p678
S'NN'
p679
S'I-NP'
p680
g5
tp681
a(S'diminished'
p682
S'diminish'
p683
S'VBN'
p684
S'B-VP'
p685
g5
tp686
a(S'by'
p687
S'by'
p688
S'IN'
p689
S'B-PP'
p690
g5
tp691
a(S'3'
p692
g692
S'CD'
p693
S'B-NP'
p694
g5
tp695
a(S'mm/week'
p696
S'mm/week'
p697
S'NN'
p698
S'I-NP'
p699
g5
tp700
a(S'on'
p701
S'on'
p702
S'IN'
p703
S'B-PP'
p704
g5
tp705
a(S'the'
p706
S'the'
p707
S'DT'
p708
S'B-NP'
p709
g5
tp710
a(S'visual'
p711
S'visual'
p712
S'JJ'
p713
S'I-NP'
p714
g5
tp715
a(S'analogue'
p716
S'analogue'
p717
S'NN'
p718
S'I-NP'
p719
g5
tp720
a(S'scale'
p721
S'scale'
p722
S'NN'
p723
S'I-NP'
p724
g5
tp725
a(g455
g455
g455
g5
g5
tp726
a(S'beta=-3.1mm'
p727
S'beta=-3.1mm'
p728
S'NN'
p729
S'B-NP'
p730
g5
tp731
a(g670
g670
g670
g5
g5
tp732
a(S'95'
p733
S'95'
p734
S'CD'
p735
S'B-NP'
p736
g5
tp737
a(S'%'
p738
g738
S'NN'
p739
S'I-NP'
p740
g5
tp741
a(S'confidence'
p742
S'confidence'
p743
S'NN'
p744
S'I-NP'
p745
g5
tp746
a(S'interval'
p747
S'interval'
p748
S'NN'
p749
S'I-NP'
p750
g5
tp751
a(S'-4.0'
p752
S'-4.0'
p753
S'CD'
p754
S'B-NP'
p755
g5
tp756
a(S'to'
p757
S'to'
p758
S'TO'
p759
S'I-NP'
p760
g5
tp761
a(S'-2.2'
p762
S'-2.2'
p763
S'CD'
p764
S'I-NP'
p765
g5
tp766
a(S'mm'
p767
S'mm'
p768
S'NN'
p769
S'I-NP'
p770
g5
tp771
a(g467
g467
g467
g5
g5
tp772
a(S'and'
p773
S'and'
p774
S'CC'
p775
g5
g5
tp776
a(S'by'
p777
S'by'
p778
S'IN'
p779
S'B-PP'
p780
g5
tp781
a(S'19'
p782
S'19'
p783
S'CD'
p784
S'B-NP'
p785
g5
tp786
a(S'mm'
p787
S'mm'
p788
S'NN'
p789
S'I-NP'
p790
g5
tp791
a(S'in'
p792
S'in'
p793
S'IN'
p794
S'B-PP'
p795
g5
tp796
a(S'total'
p797
S'total'
p798
S'NN'
p799
S'B-NP'
p800
g5
tp801
a(S'over'
p802
S'over'
p803
S'IN'
p804
S'B-PP'
p805
g5
tp806
a(S'six'
p807
S'six'
p808
S'CD'
p809
S'B-NP'
p810
g5
tp811
a(S'weeks.'
p812
S'weeks.'
p813
S'NNS'
p814
S'I-NP'
p815
g5
tp816
a(S'Patients'
p817
S'Patient'
p818
S'NNS'
p819
S'B-NP'
p820
g5
tp821
a(S'who'
p822
S'who'
p823
S'WP'
p824
S'B-NP'
p825
g5
tp826
a(S'were'
p827
S'be'
p828
S'VBD'
p829
S'B-VP'
p830
g5
tp831
a(S'treated'
p832
S'treat'
p833
S'VBN'
p834
S'I-VP'
p835
g5
tp836
a(S'with'
p837
S'with'
p838
S'IN'
p839
S'B-PP'
p840
g5
tp841
a(S'cervical'
p842
S'cervical'
p843
S'JJ'
p844
S'B-NP'
p845
g5
tp846
a(S'collar'
p847
S'collar'
p848
S'NN'
p849
S'I-NP'
p850
g5
tp851
a(S'or'
p852
S'or'
p853
S'CC'
p854
S'I-NP'
p855
g5
tp856
a(S'physiotherapy'
p857
S'physiotherapy'
p858
S'NN'
p859
S'I-NP'
p860
g5
tp861
a(S'achieved'
p862
S'achieve'
p863
S'VBD'
p864
S'B-VP'
p865
g5
tp866
a(S'additional'
p867
S'additional'
p868
S'JJ'
p869
S'B-NP'
p870
g5
tp871
a(S'pain'
p872
S'pain'
p873
S'NN'
p874
S'I-NP'
p875
g5
tp876
a(S'reduction'
p877
S'reduction'
p878
S'NN'
p879
S'I-NP'
p880
g5
tp881
a(g455
g455
g455
g5
g5
tp882
a(S'collar'
p883
S'collar'
p884
S'NN'
p885
S'B-NP'
p886
g5
tp887
a(g7
g7
g7
g5
g5
tp888
a(S'beta=-1.9'
p889
S'beta=-1.9'
p890
S'NN'
p891
S'B-NP'
p892
g5
tp893
a(S'mm'
p894
S'mm'
p895
S'NN'
p896
S'I-NP'
p897
g5
tp898
a(g670
g670
g670
g5
g5
tp899
a(S'-3.3'
p900
S'-3.3'
p901
S'CD'
p902
S'B-NP'
p903
g5
tp904
a(S'to'
p905
S'to'
p906
S'TO'
p907
S'I-NP'
p908
g5
tp909
a(S'-0.5'
p910
S'-0.5'
p911
S'CD'
p912
S'I-NP'
p913
g5
tp914
a(S'mm'
p915
S'mm'
p916
S'NN'
p917
S'I-NP'
p918
g5
tp919
a(g333
g333
g7
g5
g5
tp920
a(S'physiotherapy'
p921
S'physiotherapy'
p922
S'NN'
p923
S'B-NP'
p924
g5
tp925
a(g7
g7
g7
g5
g5
tp926
a(S'beta=-1.9'
p927
S'beta=-1.9'
p928
S'NN'
p929
S'B-NP'
p930
g5
tp931
a(g670
g670
g670
g5
g5
tp932
a(S'-3.3'
p933
S'-3.3'
p934
S'CD'
p935
S'B-NP'
p936
g5
tp937
a(S'to'
p938
S'to'
p939
S'TO'
p940
S'B-PP'
p941
g5
tp942
a(S'-0.8'
p943
S'-0.8'
p944
S'CD'
p945
S'B-NP'
p946
g5
tp947
a(g467
g467
g467
g5
g5
tp948
a(g670
g670
g670
g5
g5
tp949
a(S'resulting'
p950
S'result'
p951
S'VBG'
p952
S'B-VP'
p953
g5
tp954
a(S'in'
p955
S'in'
p956
S'IN'
p957
S'B-PP'
p958
g5
tp959
a(S'an'
p960
S'an'
p961
S'DT'
p962
S'B-NP'
p963
g5
tp964
a(S'extra'
p965
S'extra'
p966
S'JJ'
p967
S'I-NP'
p968
g5
tp969
a(S'pain'
p970
S'pain'
p971
S'NN'
p972
S'I-NP'
p973
g5
tp974
a(S'reduction'
p975
S'reduction'
p976
S'NN'
p977
S'I-NP'
p978
g5
tp979
a(S'compared'
p980
S'compare'
p981
S'VBN'
p982
S'B-PP'
p983
g5
tp984
a(S'with'
p985
S'with'
p986
S'IN'
p987
S'B-PP'
p988
g5
tp989
a(S'the'
p990
S'the'
p991
S'DT'
p992
S'B-NP'
p993
g5
tp994
a(S'control'
p995
S'control'
p996
S'NN'
p997
S'I-NP'
p998
g5
tp999
a(S'group'
p1000
S'group'
p1001
S'NN'
p1002
S'I-NP'
p1003
g5
tp1004
a(S'of'
p1005
S'of'
p1006
S'IN'
p1007
S'B-PP'
p1008
g5
tp1009
a(S'12'
p1010
S'12'
p1011
S'CD'
p1012
S'B-NP'
p1013
g5
tp1014
a(S'mm'
p1015
S'mm'
p1016
S'NN'
p1017
S'I-NP'
p1018
g5
tp1019
a(S'after'
p1020
S'after'
p1021
S'IN'
p1022
S'B-PP'
p1023
g5
tp1024
a(S'six'
p1025
S'six'
p1026
S'CD'
p1027
S'B-NP'
p1028
g5
tp1029
a(S'weeks.'
p1030
S'weeks.'
p1031
S'NNS'
p1032
S'I-NP'
p1033
g5
tp1034
a(S'In'
p1035
S'In'
p1036
S'IN'
p1037
S'B-PP'
p1038
g5
tp1039
a(S'the'
p1040
S'the'
p1041
S'DT'
p1042
S'B-NP'
p1043
g5
tp1044
a(S'wait'
p1045
S'wait'
p1046
S'NN'
p1047
S'I-NP'
p1048
g5
tp1049
a(S'and'
p1050
S'and'
p1051
S'CC'
p1052
g5
g5
tp1053
a(S'see'
p1054
S'see'
p1055
S'VB'
p1056
S'B-VP'
p1057
g5
tp1058
a(S'group'
p1059
S'group'
p1060
S'NN'
p1061
S'B-NP'
p1062
g5
tp1063
a(g670
g670
g670
g5
g5
tp1064
a(S'neck'
p1065
S'neck'
p1066
S'NN'
p1067
S'B-NP'
p1068
g5
tp1069
a(S'pain'
p1070
S'pain'
p1071
S'NN'
p1072
S'I-NP'
p1073
g5
tp1074
a(S'did'
p1075
S'do'
p1076
S'VBD'
p1077
S'B-VP'
p1078
g5
tp1079
a(S'not'
p1080
S'not'
p1081
S'RB'
p1082
S'I-VP'
p1083
g5
tp1084
a(S'decrease'
p1085
S'decrease'
p1086
S'VB'
p1087
S'I-VP'
p1088
g5
tp1089
a(S'significantly'
p1090
S'significantly'
p1091
S'RB'
p1092
S'B-ADVP'
p1093
g5
tp1094
a(S'in'
p1095
S'in'
p1096
S'IN'
p1097
S'B-PP'
p1098
g5
tp1099
a(S'the'
p1100
S'the'
p1101
S'DT'
p1102
S'B-NP'
p1103
g5
tp1104
a(S'first'
p1105
S'first'
p1106
S'JJ'
p1107
S'I-NP'
p1108
g5
tp1109
a(S'six'
p1110
S'six'
p1111
S'CD'
p1112
S'I-NP'
p1113
g5
tp1114
a(S'weeks'
p1115
S'week'
p1116
S'NNS'
p1117
S'I-NP'
p1118
g5
tp1119
a(g455
g455
g455
g5
g5
tp1120
a(S'beta=-0.9'
p1121
S'beta=-0.9'
p1122
S'NN'
p1123
S'B-NP'
p1124
g5
tp1125
a(S'mm'
p1126
S'mm'
p1127
S'NN'
p1128
S'I-NP'
p1129
g5
tp1130
a(g670
g670
g670
g5
g5
tp1131
a(S'-2.0'
p1132
S'-2.0'
p1133
S'CD'
p1134
S'B-NP'
p1135
g5
tp1136
a(S'to'
p1137
S'to'
p1138
S'TO'
p1139
S'B-PP'
p1140
g5
tp1141
a(S'0.3'
p1142
S'0.3'
p1143
S'CD'
p1144
S'B-NP'
p1145
g5
tp1146
a(g467
g467
g467
g5
g5
tp1147
a(g469
g469
g469
g5
g5
tp1148
a(S'Treatment'
p1149
S'Treatment'
p1150
S'NN'
p1151
S'B-NP'
p1152
g5
tp1153
a(S'with'
p1154
S'with'
p1155
S'IN'
p1156
S'B-PP'
p1157
g5
tp1158
a(S'the'
p1159
S'the'
p1160
S'DT'
p1161
S'B-NP'
p1162
g5
tp1163
a(S'collar'
p1164
S'collar'
p1165
S'NN'
p1166
S'I-NP'
p1167
g5
tp1168
a(S'resulted'
p1169
S'result'
p1170
S'VBD'
p1171
S'B-VP'
p1172
g5
tp1173
a(S'in'
p1174
S'in'
p1175
S'IN'
p1176
S'B-PP'
p1177
g5
tp1178
a(g69
g69
S'DT'
p1179
S'B-NP'
p1180
g5
tp1181
a(S'weekly'
p1182
S'weekly'
p1183
S'JJ'
p1184
S'I-NP'
p1185
g5
tp1186
a(S'reduction'
p1187
S'reduction'
p1188
S'NN'
p1189
S'I-NP'
p1190
g5
tp1191
a(S'on'
p1192
S'on'
p1193
S'IN'
p1194
S'B-PP'
p1195
g5
tp1196
a(S'the'
p1197
S'the'
p1198
S'DT'
p1199
S'B-NP'
p1200
g5
tp1201
a(S'visual'
p1202
S'visual'
p1203
S'JJ'
p1204
S'I-NP'
p1205
g5
tp1206
a(S'analogue'
p1207
S'analogue'
p1208
S'NN'
p1209
S'I-NP'
p1210
g5
tp1211
a(S'scale'
p1212
S'scale'
p1213
S'NN'
p1214
S'I-NP'
p1215
g5
tp1216
a(S'of'
p1217
S'of'
p1218
S'IN'
p1219
S'B-PP'
p1220
g5
tp1221
a(S'2.8'
p1222
S'2.8'
p1223
S'CD'
p1224
S'B-NP'
p1225
g5
tp1226
a(S'mm'
p1227
S'mm'
p1228
S'NN'
p1229
S'I-NP'
p1230
g5
tp1231
a(g455
g455
g455
g5
g5
tp1232
a(S'-4.2'
p1233
S'-4.2'
p1234
S'CD'
p1235
S'B-NP'
p1236
g5
tp1237
a(S'to'
p1238
S'to'
p1239
S'TO'
p1240
g5
g5
tp1241
a(S'-1.3'
p1242
S'-1.3'
p1243
S'CD'
p1244
S'B-NP'
p1245
g5
tp1246
a(g467
g467
g467
g5
g5
tp1247
a(g670
g670
g670
g5
g5
tp1248
a(S'amounting'
p1249
S'amounte'
p1250
S'VBG'
p1251
S'B-VP'
p1252
g5
tp1253
a(S'to'
p1254
S'to'
p1255
S'TO'
p1256
S'B-PP'
p1257
g5
tp1258
a(S'17'
p1259
S'17'
p1260
S'CD'
p1261
S'B-NP'
p1262
g5
tp1263
a(S'mm'
p1264
S'mm'
p1265
S'NN'
p1266
S'I-NP'
p1267
g5
tp1268
a(S'in'
p1269
S'in'
p1270
S'IN'
p1271
S'B-PP'
p1272
g5
tp1273
a(S'six'
p1274
S'six'
p1275
S'CD'
p1276
S'B-NP'
p1277
g5
tp1278
a(S'weeks'
p1279
S'week'
p1280
S'NNS'
p1281
S'I-NP'
p1282
g5
tp1283
a(g670
g670
g670
g5
g5
tp1284
a(S'whereas'
p1285
S'whereas'
p1286
S'IN'
p1287
g5
g5
tp1288
a(S'physiotherapy'
p1289
S'physiotherapy'
p1290
S'NN'
p1291
S'B-NP'
p1292
g5
tp1293
a(S'gave'
p1294
S'give'
p1295
S'VBD'
p1296
S'B-VP'
p1297
g5
tp1298
a(g69
g69
S'DT'
p1299
S'B-NP'
p1300
g5
tp1301
a(S'weekly'
p1302
S'weekly'
p1303
S'JJ'
p1304
S'I-NP'
p1305
g5
tp1306
a(S'reduction'
p1307
S'reduction'
p1308
S'NN'
p1309
S'I-NP'
p1310
g5
tp1311
a(S'of'
p1312
S'of'
p1313
S'IN'
p1314
S'B-PP'
p1315
g5
tp1316
a(S'2.4'
p1317
S'2.4'
p1318
S'CD'
p1319
S'B-NP'
p1320
g5
tp1321
a(S'mm'
p1322
S'mm'
p1323
S'NN'
p1324
S'I-NP'
p1325
g5
tp1326
a(g455
g455
g455
g5
g5
tp1327
a(S'-3.9'
p1328
S'-3.9'
p1329
S'CD'
p1330
S'B-NP'
p1331
g5
tp1332
a(S'to'
p1333
S'to'
p1334
S'TO'
p1335
g5
g5
tp1336
a(S'-0.8'
p1337
S'-0.8'
p1338
S'CD'
p1339
S'B-NP'
p1340
g5
tp1341
a(g467
g467
g467
g5
g5
tp1342
a(S'resulting'
p1343
S'result'
p1344
S'VBG'
p1345
S'B-VP'
p1346
g5
tp1347
a(S'in'
p1348
S'in'
p1349
S'IN'
p1350
S'B-PP'
p1351
g5
tp1352
a(g69
g69
S'DT'
p1353
S'B-NP'
p1354
g5
tp1355
a(S'decrease'
p1356
S'decrease'
p1357
S'NN'
p1358
S'I-NP'
p1359
g5
tp1360
a(S'of'
p1361
S'of'
p1362
S'IN'
p1363
S'B-PP'
p1364
g5
tp1365
a(S'14'
p1366
S'14'
p1367
S'CD'
p1368
S'B-NP'
p1369
g5
tp1370
a(S'mm'
p1371
S'mm'
p1372
S'NN'
p1373
S'I-NP'
p1374
g5
tp1375
a(S'after'
p1376
S'after'
p1377
S'IN'
p1378
S'B-PP'
p1379
g5
tp1380
a(S'six'
p1381
S'six'
p1382
S'CD'
p1383
S'B-NP'
p1384
g5
tp1385
a(S'weeks.'
p1386
S'weeks.'
p1387
S'NNS'
p1388
S'I-NP'
p1389
g5
tp1390
a(S'Compared'
p1391
S'Compare'
p1392
S'VBN'
p1393
S'B-PP'
p1394
g5
tp1395
a(S'with'
p1396
S'with'
p1397
S'IN'
p1398
S'B-PP'
p1399
g5
tp1400
a(g69
g69
S'DT'
p1401
S'B-NP'
p1402
g5
tp1403
a(S'wait'
p1404
S'wait'
p1405
S'NN'
p1406
S'I-NP'
p1407
g5
tp1408
a(S'and'
p1409
S'and'
p1410
S'CC'
p1411
g5
g5
tp1412
a(S'see'
p1413
S'see'
p1414
S'VB'
p1415
S'B-VP'
p1416
g5
tp1417
a(S'policy'
p1418
S'policy'
p1419
S'NN'
p1420
S'B-NP'
p1421
g5
tp1422
a(g670
g670
g670
g5
g5
tp1423
a(S'the'
p1424
S'the'
p1425
S'DT'
p1426
S'B-NP'
p1427
g5
tp1428
a(S'neck'
p1429
S'neck'
p1430
S'NN'
p1431
S'I-NP'
p1432
g5
tp1433
a(S'disability'
p1434
S'disability'
p1435
S'NN'
p1436
S'I-NP'
p1437
g5
tp1438
a(S'index'
p1439
S'index'
p1440
S'NN'
p1441
S'I-NP'
p1442
g5
tp1443
a(S'showed'
p1444
S'show'
p1445
S'VBD'
p1446
S'B-VP'
p1447
g5
tp1448
a(g69
g69
S'DT'
p1449
S'B-NP'
p1450
g5
tp1451
a(S'significant'
p1452
S'significant'
p1453
S'JJ'
p1454
S'I-NP'
p1455
g5
tp1456
a(S'change'
p1457
S'change'
p1458
S'NN'
p1459
S'I-NP'
p1460
g5
tp1461
a(S'with'
p1462
S'with'
p1463
S'IN'
p1464
S'B-PP'
p1465
g5
tp1466
a(S'the'
p1467
S'the'
p1468
S'DT'
p1469
S'B-NP'
p1470
g5
tp1471
a(S'use'
p1472
S'use'
p1473
S'NN'
p1474
S'I-NP'
p1475
g5
tp1476
a(S'of'
p1477
S'of'
p1478
S'IN'
p1479
S'B-PP'
p1480
g5
tp1481
a(S'the'
p1482
S'the'
p1483
S'DT'
p1484
S'B-NP'
p1485
g5
tp1486
a(S'collar'
p1487
S'collar'
p1488
S'NN'
p1489
S'I-NP'
p1490
g5
tp1491
a(S'and'
p1492
S'and'
p1493
S'CC'
p1494
S'I-NP'
p1495
g5
tp1496
a(S'rest'
p1497
S'rest'
p1498
S'NN'
p1499
S'I-NP'
p1500
g5
tp1501
a(g455
g455
g455
g5
g5
tp1502
a(S'beta=-0.9'
p1503
S'beta=-0.9'
p1504
S'NN'
p1505
S'B-NP'
p1506
g5
tp1507
a(S'mm'
p1508
S'mm'
p1509
S'NN'
p1510
S'B-NP'
p1511
g5
tp1512
a(g670
g670
g670
g5
g5
tp1513
a(S'-1.6'
p1514
S'-1.6'
p1515
S'CD'
p1516
S'B-NP'
p1517
g5
tp1518
a(S'to'
p1519
S'to'
p1520
S'TO'
p1521
S'B-PP'
p1522
g5
tp1523
a(S'-0.1'
p1524
S'-0.1'
p1525
S'CD'
p1526
S'B-NP'
p1527
g5
tp1528
a(g467
g467
g467
g5
g5
tp1529
a(S'and'
p1530
S'and'
p1531
S'CC'
p1532
g5
g5
tp1533
a(g69
g69
S'DT'
p1534
S'B-NP'
p1535
g5
tp1536
a(S'non-significant'
p1537
S'non-significant'
p1538
S'JJ'
p1539
S'I-NP'
p1540
g5
tp1541
a(S'effect'
p1542
S'effect'
p1543
S'NN'
p1544
S'I-NP'
p1545
g5
tp1546
a(S'with'
p1547
S'with'
p1548
S'IN'
p1549
S'B-PP'
p1550
g5
tp1551
a(S'physiotherapy'
p1552
S'physiotherapy'
p1553
S'NN'
p1554
S'B-NP'
p1555
g5
tp1556
a(S'and'
p1557
S'and'
p1558
S'CC'
p1559
S'I-NP'
p1560
g5
tp1561
a(S'home'
p1562
S'home'
p1563
S'NN'
p1564
S'I-NP'
p1565
g5
tp1566
a(S'exercises.'
p1567
S'exercises.'
p1568
S'NNS'
p1569
S'I-NP'
p1570
g5
tp1571
a(S'CONCLUSION'
p1572
S'CONCLUSION'
p1573
S'NN'
p1574
S'B-NP'
p1575
g5
tp1576
a(g7
g7
g7
g5
g5
tp1577
a(S'A'
p1578
g1578
S'DT'
p1579
S'B-NP'
p1580
g5
tp1581
a(S'semi-hard'
p1582
S'semi-hard'
p1583
S'JJ'
p1584
S'I-NP'
p1585
g5
tp1586
a(S'cervical'
p1587
S'cervical'
p1588
S'JJ'
p1589
S'I-NP'
p1590
g5
tp1591
a(S'collar'
p1592
S'collar'
p1593
S'NN'
p1594
S'I-NP'
p1595
g5
tp1596
a(S'and'
p1597
S'and'
p1598
S'CC'
p1599
S'I-NP'
p1600
g5
tp1601
a(S'rest'
p1602
S'rest'
p1603
S'NN'
p1604
S'I-NP'
p1605
g5
tp1606
a(S'for'
p1607
S'for'
p1608
S'IN'
p1609
S'B-PP'
p1610
g5
tp1611
a(S'three'
p1612
S'three'
p1613
S'CD'
p1614
S'B-NP'
p1615
g5
tp1616
a(S'to'
p1617
S'to'
p1618
S'TO'
p1619
S'I-NP'
p1620
g5
tp1621
a(S'six'
p1622
S'six'
p1623
S'CD'
p1624
S'I-NP'
p1625
g5
tp1626
a(S'weeks'
p1627
S'week'
p1628
S'NNS'
p1629
S'I-NP'
p1630
g5
tp1631
a(S'or'
p1632
S'or'
p1633
S'CC'
p1634
S'I-NP'
p1635
g5
tp1636
a(S'physiotherapy'
p1637
S'physiotherapy'
p1638
S'NN'
p1639
S'I-NP'
p1640
g5
tp1641
a(S'accompanied'
p1642
S'accompany'
p1643
S'VBN'
p1644
S'B-VP'
p1645
g5
tp1646
a(S'by'
p1647
S'by'
p1648
S'IN'
p1649
S'B-PP'
p1650
g5
tp1651
a(S'home'
p1652
S'home'
p1653
S'NN'
p1654
S'B-NP'
p1655
g5
tp1656
a(S'exercises'
p1657
S'exercise'
p1658
S'NNS'
p1659
S'I-NP'
p1660
g5
tp1661
a(S'for'
p1662
S'for'
p1663
S'IN'
p1664
S'B-PP'
p1665
g5
tp1666
a(S'six'
p1667
S'six'
p1668
S'CD'
p1669
S'B-NP'
p1670
g5
tp1671
a(S'weeks'
p1672
S'week'
p1673
S'NNS'
p1674
S'I-NP'
p1675
g5
tp1676
a(S'reduced'
p1677
S'reduce'
p1678
S'VBD'
p1679
S'B-VP'
p1680
g5
tp1681
a(S'neck'
p1682
S'neck'
p1683
S'NN'
p1684
S'B-NP'
p1685
g5
tp1686
a(S'and'
p1687
S'and'
p1688
S'CC'
p1689
S'I-NP'
p1690
g5
tp1691
a(S'arm'
p1692
S'arm'
p1693
S'NN'
p1694
S'I-NP'
p1695
g5
tp1696
a(S'pain'
p1697
S'pain'
p1698
S'NN'
p1699
S'I-NP'
p1700
g5
tp1701
a(S'substantially'
p1702
S'substantially'
p1703
S'RB'
p1704
S'B-VP'
p1705
g5
tp1706
a(S'compared'
p1707
S'compare'
p1708
S'VBN'
p1709
S'I-VP'
p1710
g5
tp1711
a(S'with'
p1712
S'with'
p1713
S'IN'
p1714
S'B-PP'
p1715
g5
tp1716
a(g69
g69
S'DT'
p1717
S'B-NP'
p1718
g5
tp1719
a(S'wait'
p1720
S'wait'
p1721
S'NN'
p1722
S'I-NP'
p1723
g5
tp1724
a(S'and'
p1725
S'and'
p1726
S'CC'
p1727
g5
g5
tp1728
a(S'see'
p1729
S'see'
p1730
S'VB'
p1731
S'B-VP'
p1732
g5
tp1733
a(S'policy'
p1734
S'policy'
p1735
S'NN'
p1736
S'B-NP'
p1737
g5
tp1738
a(S'in'
p1739
S'in'
p1740
S'IN'
p1741
S'B-PP'
p1742
g5
tp1743
a(S'the'
p1744
S'the'
p1745
S'DT'
p1746
S'B-NP'
p1747
g5
tp1748
a(S'early'
p1749
S'early'
p1750
S'JJ'
p1751
S'I-NP'
p1752
g5
tp1753
a(S'phase'
p1754
S'phase'
p1755
S'NN'
p1756
S'I-NP'
p1757
g5
tp1758
a(S'of'
p1759
S'of'
p1760
S'IN'
p1761
S'B-PP'
p1762
g5
tp1763
a(S'cervical'
p1764
S'cervical'
p1765
S'JJ'
p1766
S'B-NP'
p1767
g5
tp1768
a(S'radiculopathy.'
p1769
S'radiculopathy.'
p1770
S'NN'
p1771
S'I-NP'
p1772
g5
tp1773
a(S'TRIAL'
p1774
S'TRIAL'
p1775
S'NN'
p1776
S'B-NP'
p1777
g5
tp1778
a(S'REGISTRATION'
p1779
S'REGISTRATION'
p1780
S'NN'
p1781
S'I-NP'
p1782
g5
tp1783
a(g7
g7
g7
g5
g5
tp1784
a(S'Clinical'
p1785
S'Clinical'
p1786
S'JJ'
p1787
S'B-NP'
p1788
g5
tp1789
a(S'trials'
p1790
S'trial'
p1791
S'NNS'
p1792
S'I-NP'
p1793
g5
tp1794
a(S'NCT00129714'
p1795
S'NCT00129714'
p1796
S'NN'
p1797
S'I-NP'
p1798
g5
tp1799
a(g469
g469
g469
g5
g5
tp1800
a.