(lp0
(S'OBJECTIVE'
p1
S'OBJECTIVE'
p2
S'NN'
p3
S'B-NP'
p4
S'O'
p5
tp6
a(S':'
p7
g7
g7
g5
g5
tp8
a(S'To'
p9
S'To'
p10
S'TO'
p11
S'B-VP'
p12
g5
tp13
a(S'assess'
p14
S'assess'
p15
S'VB'
p16
S'I-VP'
p17
g5
tp18
a(S'the'
p19
S'the'
p20
S'DT'
p21
S'B-NP'
p22
g5
tp23
a(S'effect'
p24
S'effect'
p25
S'NN'
p26
S'I-NP'
p27
g5
tp28
a(S'of'
p29
S'of'
p30
S'IN'
p31
S'B-PP'
p32
g5
tp33
a(S'a'
p34
g34
S'DT'
p35
S'B-NP'
p36
g5
tp37
a(S'multimodal'
p38
S'multimodal'
p39
S'JJ'
p40
S'I-NP'
p41
g5
tp42
a(S'group'
p43
S'group'
p44
S'NN'
p45
S'I-NP'
p46
g5
tp47
a(S'exercise'
p48
S'exercise'
p49
S'NN'
p50
S'I-NP'
p51
g5
tp52
a(S'intervention'
p53
S'intervention'
p54
S'NN'
p55
S'I-NP'
p56
g5
tp57
a(S','
p58
g58
g58
g5
g5
tp59
a(S'as'
p60
S'as'
p61
S'IN'
p62
S'B-PP'
p63
g5
tp64
a(S'an'
p65
S'an'
p66
S'DT'
p67
S'B-NP'
p68
g5
tp69
a(S'adjunct'
p70
S'adjunct'
p71
S'JJ'
p72
S'I-NP'
p73
g5
tp74
a(S'to'
p75
S'to'
p76
S'TO'
p77
S'B-PP'
p78
g5
tp79
a(S'conventional'
p80
S'conventional'
p81
S'JJ'
p82
S'B-NP'
p83
g5
tp84
a(S'care'
p85
S'care'
p86
S'NN'
p87
S'I-NP'
p88
g5
tp89
a(g58
g58
g58
g5
g5
tp90
a(S'on'
p91
S'on'
p92
S'IN'
p93
S'B-PP'
p94
g5
tp95
a(S'fatigue'
p96
S'fatigue'
p97
S'NN'
p98
S'B-NP'
p99
g5
tp100
a(g58
g58
g58
g5
g5
tp101
a(S'physical'
p102
S'physical'
p103
S'JJ'
p104
S'B-NP'
p105
g5
tp106
a(S'capacity'
p107
S'capacity'
p108
S'NN'
p109
S'I-NP'
p110
g5
tp111
a(g58
g58
g58
g5
g5
tp112
a(S'general'
p113
S'general'
p114
S'JJ'
p115
S'B-NP'
p116
g5
tp117
a(S'wellbeing'
p118
S'wellbeing'
p119
S'NN'
p120
S'I-NP'
p121
g5
tp122
a(g58
g58
g58
g5
g5
tp123
a(S'physical'
p124
S'physical'
p125
S'JJ'
p126
S'B-NP'
p127
g5
tp128
a(S'activity'
p129
S'activity'
p130
S'NN'
p131
S'I-NP'
p132
g5
tp133
a(g58
g58
g58
g5
g5
tp134
a(S'and'
p135
S'and'
p136
S'CC'
p137
g5
g5
tp138
a(S'quality'
p139
S'quality'
p140
S'NN'
p141
S'B-NP'
p142
g5
tp143
a(S'of'
p144
S'of'
p145
S'IN'
p146
S'B-PP'
p147
g5
tp148
a(S'life'
p149
S'life'
p150
S'NN'
p151
S'B-NP'
p152
g5
tp153
a(S'in'
p154
S'in'
p155
S'IN'
p156
S'B-PP'
p157
g5
tp158
a(S'patients'
p159
S'patient'
p160
S'NNS'
p161
S'B-NP'
p162
g5
tp163
a(S'with'
p164
S'with'
p165
S'IN'
p166
S'B-PP'
p167
g5
tp168
a(S'cancer'
p169
S'cancer'
p170
S'NN'
p171
S'B-NP'
p172
g5
tp173
a(S'who'
p174
S'who'
p175
S'WP'
p176
S'B-NP'
p177
g5
tp178
a(S'were'
p179
S'be'
p180
S'VBD'
p181
S'B-VP'
p182
g5
tp183
a(S'undergoing'
p184
S'undergo'
p185
S'VBG'
p186
S'I-VP'
p187
g5
tp188
a(S'adjuvant'
p189
S'adjuvant'
p190
S'JJ'
p191
S'B-NP'
p192
g5
tp193
a(S'chemotherapy'
p194
S'chemotherapy'
p195
S'NN'
p196
S'I-NP'
p197
g5
tp198
a(S'or'
p199
S'or'
p200
S'CC'
p201
S'I-NP'
p202
g5
tp203
a(S'treatment'
p204
S'treatment'
p205
S'NN'
p206
S'I-NP'
p207
g5
tp208
a(S'for'
p209
S'for'
p210
S'IN'
p211
S'B-PP'
p212
g5
tp213
a(S'advanced'
p214
S'advance'
p215
S'VBN'
p216
S'B-NP'
p217
g5
tp218
a(S'disease.'
p219
S'disease.'
p220
S'NN'
p221
S'I-NP'
p222
g5
tp223
a(S'DESIGN'
p224
S'DESIGN'
p225
S'NN'
p226
S'B-NP'
p227
g5
tp228
a(g7
g7
g7
g5
g5
tp229
a(S'Randomised'
p230
S'Randomise'
p231
S'VBN'
p232
S'B-VP'
p233
g5
tp234
a(S'controlled'
p235
S'control'
p236
S'VBN'
p237
S'B-NP'
p238
g5
tp239
a(S'trial.'
p240
S'trial.'
p241
S'NN'
p242
S'I-NP'
p243
g5
tp244
a(S'SETTING'
p245
S'SETTING'
p246
S'NN'
p247
S'B-NP'
p248
g5
tp249
a(g7
g7
g7
g5
g5
tp250
a(S'Two'
p251
S'Two'
p252
S'CD'
p253
S'B-NP'
p254
g5
tp255
a(S'university'
p256
S'university'
p257
S'NN'
p258
S'I-NP'
p259
g5
tp260
a(S'hospitals'
p261
S'hospital'
p262
S'NNS'
p263
S'I-NP'
p264
g5
tp265
a(S'in'
p266
S'in'
p267
S'IN'
p268
S'B-PP'
p269
g5
tp270
a(S'Copenhagen'
p271
S'Copenhagen'
p272
S'NN'
p273
S'B-NP'
p274
g5
tp275
a(g58
g58
g58
g5
g5
tp276
a(S'Denmark.'
p277
S'Denmark.'
p278
S'NNP'
p279
S'B-NP'
p280
g5
tp281
a(S'PARTICIPANTS'
p282
S'PARTICIPANTS'
p283
S'NNS'
p284
S'B-NP'
p285
g5
tp286
a(g7
g7
g7
g5
g5
tp287
a(S'269'
p288
S'269'
p289
S'CD'
p290
S'B-NP'
p291
g5
tp292
a(S'patients'
p293
S'patient'
p294
S'NNS'
p295
S'I-NP'
p296
g5
tp297
a(S'with'
p298
S'with'
p299
S'IN'
p300
S'B-PP'
p301
g5
tp302
a(S'cancer'
p303
S'cancer'
p304
S'NN'
p305
S'B-NP'
p306
g5
tp307
a(S';'
p308
g308
g7
g5
g5
tp309
a(S'73'
p310
S'73'
p311
S'CD'
p312
S'B-NP'
p313
g5
tp314
a(S'men'
p315
S'man'
p316
S'NNS'
p317
S'I-NP'
p318
g5
tp319
a(g58
g58
g58
g5
g5
tp320
a(S'196'
p321
S'196'
p322
S'CD'
p323
S'B-NP'
p324
g5
tp325
a(S'women'
p326
S'woman'
p327
S'NNS'
p328
S'I-NP'
p329
g5
tp330
a(g58
g58
g58
g5
g5
tp331
a(S'mean'
p332
S'mean'
p333
S'JJ'
p334
S'B-NP'
p335
g5
tp336
a(S'age'
p337
S'age'
p338
S'NN'
p339
S'I-NP'
p340
g5
tp341
a(S'47'
p342
S'47'
p343
S'CD'
p344
S'B-NP'
p345
g5
tp346
a(S'years'
p347
S'year'
p348
S'NNS'
p349
S'I-NP'
p350
g5
tp351
a(S'('
p352
g352
g352
g5
g5
tp353
a(S'range'
p354
S'range'
p355
S'NN'
p356
S'B-NP'
p357
g5
tp358
a(S'20-65'
p359
S'20-65'
p360
S'CD'
p361
S'I-NP'
p362
g5
tp363
a(S')'
p364
g364
g364
g5
g5
tp365
a(S'representing'
p366
S'represent'
p367
S'VBG'
p368
S'B-VP'
p369
g5
tp370
a(S'21'
p371
S'21'
p372
S'CD'
p373
S'B-NP'
p374
g5
tp375
a(S'diagnoses.'
p376
S'diagnoses.'
p377
S'NN'
p378
S'I-NP'
p379
g5
tp380
a(S'Main'
p381
S'Main'
p382
S'NNP'
p383
S'B-NP'
p384
g5
tp385
a(S'exclusion'
p386
S'exclusion'
p387
S'NN'
p388
S'I-NP'
p389
g5
tp390
a(S'criteria'
p391
S'criterion'
p392
S'NNS'
p393
S'I-NP'
p394
g5
tp395
a(S'were'
p396
S'be'
p397
S'VBD'
p398
S'B-VP'
p399
g5
tp400
a(S'brain'
p401
S'brain'
p402
S'NN'
p403
S'B-NP'
p404
g5
tp405
a(S'or'
p406
S'or'
p407
S'CC'
p408
S'I-NP'
p409
g5
tp410
a(S'bone'
p411
S'bone'
p412
S'NN'
p413
S'I-NP'
p414
g5
tp415
a(S'metastases.'
p416
S'metastases.'
p417
S'NNS'
p418
S'I-NP'
p419
g5
tp420
a(S'235'
p421
S'235'
p422
S'CD'
p423
S'B-NP'
p424
g5
tp425
a(S'patients'
p426
S'patient'
p427
S'NNS'
p428
S'I-NP'
p429
g5
tp430
a(S'completed'
p431
S'complete'
p432
S'VBD'
p433
S'B-VP'
p434
g5
tp435
a(S'follow-up.'
p436
S'follow-up.'
p437
S'JJ'
p438
S'B-ADJP'
p439
g5
tp440
a(S'INTERVENTION'
p441
S'INTERVENTION'
p442
S'NN'
p443
S'B-NP'
p444
g5
tp445
a(g7
g7
g7
g5
g5
tp446
a(S'Supervised'
p447
S'Supervise'
p448
S'VBN'
p449
S'B-NP'
p450
g5
tp451
a(S'exercise'
p452
S'exercise'
p453
S'NN'
p454
S'I-NP'
p455
g5
tp456
a(S'comprising'
p457
S'comprise'
p458
S'VBG'
p459
S'B-VP'
p460
g5
tp461
a(S'high'
p462
S'high'
p463
S'JJ'
p464
S'B-NP'
p465
g5
tp466
a(S'intensity'
p467
S'intensity'
p468
S'NN'
p469
S'I-NP'
p470
g5
tp471
a(S'cardiovascular'
p472
S'cardiovascular'
p473
S'JJ'
p474
S'I-NP'
p475
g5
tp476
a(S'and'
p477
S'and'
p478
S'CC'
p479
S'I-NP'
p480
g5
tp481
a(S'resistance'
p482
S'resistance'
p483
S'NN'
p484
S'I-NP'
p485
g5
tp486
a(S'training'
p487
S'training'
p488
S'NN'
p489
S'I-NP'
p490
g5
tp491
a(g58
g58
g58
g5
g5
tp492
a(S'relaxation'
p493
S'relaxation'
p494
S'NN'
p495
S'B-NP'
p496
g5
tp497
a(S'and'
p498
S'and'
p499
S'CC'
p500
g5
g5
tp501
a(S'body'
p502
S'body'
p503
S'NN'
p504
S'B-NP'
p505
g5
tp506
a(S'awareness'
p507
S'awareness'
p508
S'NN'
p509
S'I-NP'
p510
g5
tp511
a(S'training'
p512
S'training'
p513
S'NN'
p514
S'I-NP'
p515
g5
tp516
a(g58
g58
g58
g5
g5
tp517
a(S'massage'
p518
S'massage'
p519
S'NN'
p520
S'B-NP'
p521
g5
tp522
a(g58
g58
g58
g5
g5
tp523
a(S'nine'
p524
S'nine'
p525
S'CD'
p526
S'B-NP'
p527
g5
tp528
a(S'hours'
p529
S'hour'
p530
S'NNS'
p531
S'I-NP'
p532
g5
tp533
a(S'weekly'
p534
S'weekly'
p535
S'RB'
p536
S'B-ADVP'
p537
g5
tp538
a(S'for'
p539
S'for'
p540
S'IN'
p541
S'B-PP'
p542
g5
tp543
a(S'six'
p544
S'six'
p545
S'CD'
p546
S'B-NP'
p547
g5
tp548
a(S'weeks'
p549
S'week'
p550
S'NNS'
p551
S'I-NP'
p552
g5
tp553
a(S'in'
p554
S'in'
p555
S'IN'
p556
S'B-PP'
p557
g5
tp558
a(S'addition'
p559
S'addition'
p560
S'NN'
p561
S'B-NP'
p562
g5
tp563
a(S'to'
p564
S'to'
p565
S'TO'
p566
S'B-PP'
p567
g5
tp568
a(S'conventional'
p569
S'conventional'
p570
S'JJ'
p571
S'B-NP'
p572
g5
tp573
a(S'care'
p574
S'care'
p575
S'NN'
p576
S'I-NP'
p577
g5
tp578
a(g58
g58
g58
g5
g5
tp579
a(S'compared'
p580
S'compare'
p581
S'VBN'
p582
S'B-PP'
p583
g5
tp584
a(S'with'
p585
S'with'
p586
S'IN'
p587
S'B-PP'
p588
g5
tp589
a(S'conventional'
p590
S'conventional'
p591
S'JJ'
p592
S'B-NP'
p593
g5
tp594
a(S'care.'
p595
S'care.'
p596
S'NN'
p597
S'I-NP'
p598
g5
tp599
a(S'MAIN'
p600
S'MAIN'
p601
S'NNP'
p602
S'B-NP'
p603
g5
tp604
a(S'OUTCOME'
p605
S'OUTCOME'
p606
S'NNP'
p607
S'I-NP'
p608
g5
tp609
a(S'MEASURES'
p610
S'MEASURES'
p611
S'NNP'
p612
S'I-NP'
p613
g5
tp614
a(g7
g7
g7
g5
g5
tp615
a(S'European'
p616
S'European'
p617
S'JJ'
p618
S'B-NP'
p619
g5
tp620
a(S'Organization'
p621
S'Organization'
p622
S'NNP'
p623
S'I-NP'
p624
g5
tp625
a(S'for'
p626
S'for'
p627
S'IN'
p628
S'B-PP'
p629
g5
tp630
a(S'Research'
p631
S'Research'
p632
S'NNP'
p633
S'B-NP'
p634
g5
tp635
a(S'and'
p636
S'and'
p637
S'CC'
p638
S'I-NP'
p639
g5
tp640
a(S'Treatment'
p641
S'Treatment'
p642
S'NNP'
p643
S'I-NP'
p644
g5
tp645
a(S'of'
p646
S'of'
p647
S'IN'
p648
S'B-PP'
p649
g5
tp650
a(S'Cancer'
p651
S'Cancer'
p652
S'NNP'
p653
S'B-NP'
p654
g5
tp655
a(S'Quality'
p656
S'Quality'
p657
S'NNP'
p658
S'I-NP'
p659
g5
tp660
a(S'of'
p661
S'of'
p662
S'IN'
p663
S'B-PP'
p664
g5
tp665
a(S'Life'
p666
S'Life'
p667
S'NNP'
p668
S'B-NP'
p669
g5
tp670
a(S'Questionnaire'
p671
S'Questionnaire'
p672
S'NNP'
p673
S'B-NP'
p674
g5
tp675
a(g352
g352
g352
g5
g5
tp676
a(S'EORTC'
p677
S'EORTC'
p678
S'NN'
p679
S'B-NP'
p680
S'B-protein'
p681
tp682
a(S'QLQ-C30'
p683
S'QLQ-C30'
p684
S'NN'
p685
S'I-NP'
p686
S'I-protein'
p687
tp688
a(g364
g364
g364
g5
g5
tp689
a(g58
g58
g58
g5
g5
tp690
a(S'Medical'
p691
S'Medical'
p692
S'NNP'
p693
S'B-NP'
p694
g5
tp695
a(S'Outcomes'
p696
S'Outcomes'
p697
S'NNP'
p698
S'I-NP'
p699
g5
tp700
a(S'Study'
p701
S'Study'
p702
S'NNP'
p703
S'I-NP'
p704
g5
tp705
a(S'Short'
p706
S'Short'
p707
S'NNP'
p708
S'I-NP'
p709
g5
tp710
a(S'Form'
p711
S'Form'
p712
S'NNP'
p713
S'I-NP'
p714
g5
tp715
a(g352
g352
g352
g5
g5
tp716
a(S'MOS'
p717
S'MOS'
p718
S'NN'
p719
S'B-NP'
p720
S'B-protein'
p721
tp722
a(S'SF-36'
p723
S'SF-36'
p724
S'NN'
p725
S'I-NP'
p726
S'I-protein'
p727
tp728
a(g364
g364
g364
g5
g5
tp729
a(g58
g58
g58
g5
g5
tp730
a(S'Leisure'
p731
S'Leisure'
p732
S'NNP'
p733
S'B-NP'
p734
g5
tp735
a(S'Time'
p736
S'Time'
p737
S'NNP'
p738
S'I-NP'
p739
g5
tp740
a(S'Physical'
p741
S'Physical'
p742
S'NNP'
p743
S'I-NP'
p744
g5
tp745
a(S'Activity'
p746
S'Activity'
p747
S'NNP'
p748
S'I-NP'
p749
g5
tp750
a(S'Questionnaire'
p751
S'Questionnaire'
p752
S'NNP'
p753
S'I-NP'
p754
g5
tp755
a(g58
g58
g58
g5
g5
tp756
a(S'muscular'
p757
S'muscular'
p758
S'JJ'
p759
S'B-NP'
p760
g5
tp761
a(S'strength'
p762
S'strength'
p763
S'NN'
p764
S'I-NP'
p765
g5
tp766
a(g352
g352
g352
g5
g5
tp767
a(S'one'
p768
S'one'
p769
S'CD'
p770
S'B-NP'
p771
g5
tp772
a(S'repetition'
p773
S'repetition'
p774
S'NN'
p775
S'I-NP'
p776
g5
tp777
a(S'maximum'
p778
S'maximum'
p779
S'NN'
p780
S'I-NP'
p781
g5
tp782
a(g364
g364
g364
g5
g5
tp783
a(g58
g58
g58
g5
g5
tp784
a(S'maximum'
p785
S'maximum'
p786
S'JJ'
p787
S'B-NP'
p788
g5
tp789
a(S'oxygen'
p790
S'oxygen'
p791
S'NN'
p792
S'I-NP'
p793
g5
tp794
a(S'consumption'
p795
S'consumption'
p796
S'NN'
p797
S'I-NP'
p798
g5
tp799
a(g352
g352
g352
g5
g5
tp800
a(S'Vo'
p801
S'Vo'
p802
S'NN'
p803
S'B-NP'
p804
S'B-protein'
p805
tp806
a(g352
g352
g352
S'B-LST'
p807
S'I-protein'
p808
tp809
a(S'2'
p810
g810
S'LS'
p811
S'I-LST'
p812
S'I-protein'
p813
tp814
a(g364
g364
g364
g5
S'I-protein'
p815
tp816
a(S'max'
p817
S'max'
p818
S'NN'
p819
S'B-NP'
p820
S'I-protein'
p821
tp822
a(g364
g364
g364
g5
g5
tp823
a(S'.'
p824
g824
g824
g5
g5
tp825
a(S'Statistical'
p826
S'Statistical'
p827
S'JJ'
p828
S'B-NP'
p829
g5
tp830
a(S'methods'
p831
S'method'
p832
S'NNS'
p833
S'I-NP'
p834
g5
tp835
a(S'The'
p836
S'The'
p837
S'DT'
p838
S'B-NP'
p839
g5
tp840
a(S'general'
p841
S'general'
p842
S'JJ'
p843
S'I-NP'
p844
g5
tp845
a(S'linear'
p846
S'linear'
p847
S'JJ'
p848
S'I-NP'
p849
g5
tp850
a(S'model'
p851
S'model'
p852
S'NN'
p853
S'I-NP'
p854
g5
tp855
a(S'was'
p856
S'be'
p857
S'VBD'
p858
S'B-VP'
p859
g5
tp860
a(S'used'
p861
S'use'
p862
S'VBN'
p863
S'I-VP'
p864
g5
tp865
a(S'for'
p866
S'for'
p867
S'IN'
p868
S'B-PP'
p869
g5
tp870
a(S'continuous'
p871
S'continuous'
p872
S'JJ'
p873
S'B-NP'
p874
g5
tp875
a(S'outcome'
p876
S'outcome'
p877
S'NN'
p878
S'I-NP'
p879
g5
tp880
a(S'while'
p881
S'while'
p882
S'IN'
p883
S'B-SBAR'
p884
g5
tp885
a(S'analysis'
p886
S'analysis'
p887
S'NN'
p888
S'B-NP'
p889
g5
tp890
a(S'of'
p891
S'of'
p892
S'IN'
p893
S'B-PP'
p894
g5
tp895
a(S'associates'
p896
S'associate'
p897
S'NNS'
p898
S'B-NP'
p899
g5
tp900
a(S'between'
p901
S'between'
p902
S'IN'
p903
S'B-PP'
p904
g5
tp905
a(S'categorical'
p906
S'categorical'
p907
S'JJ'
p908
S'B-NP'
p909
g5
tp910
a(S'outcomes'
p911
S'outcome'
p912
S'NNS'
p913
S'I-NP'
p914
g5
tp915
a(S'was'
p916
S'be'
p917
S'VBD'
p918
S'B-VP'
p919
g5
tp920
a(S'performed'
p921
S'perform'
p922
S'VBN'
p923
S'I-VP'
p924
g5
tp925
a(S'as'
p926
S'as'
p927
S'IN'
p928
S'B-PP'
p929
g5
tp930
a(S'analysis'
p931
S'analysis'
p932
S'NN'
p933
S'B-NP'
p934
g5
tp935
a(S'of'
p936
S'of'
p937
S'IN'
p938
S'B-PP'
p939
g5
tp940
a(S'marginal'
p941
S'marginal'
p942
S'JJ'
p943
S'B-NP'
p944
g5
tp945
a(S'homogeneity'
p946
S'homogeneity'
p947
S'NN'
p948
S'I-NP'
p949
g5
tp950
a(S'in'
p951
S'in'
p952
S'IN'
p953
S'B-PP'
p954
g5
tp955
a(S'contingency'
p956
S'contingency'
p957
S'NN'
p958
S'B-NP'
p959
g5
tp960
a(S'tables.'
p961
S'tables.'
p962
S'NN'
p963
S'I-NP'
p964
g5
tp965
a(S'RESULTS'
p966
S'RESULTS'
p967
S'NNS'
p968
S'B-NP'
p969
g5
tp970
a(g7
g7
g7
g5
g5
tp971
a(S'Adjusted'
p972
S'Adjust'
p973
S'VBN'
p974
S'B-VP'
p975
g5
tp976
a(S'for'
p977
S'for'
p978
S'IN'
p979
S'B-PP'
p980
g5
tp981
a(S'baseline'
p982
S'baseline'
p983
S'NN'
p984
S'B-NP'
p985
g5
tp986
a(S'score'
p987
S'score'
p988
S'NN'
p989
S'I-NP'
p990
g5
tp991
a(g58
g58
g58
g5
g5
tp992
a(S'disease'
p993
S'disease'
p994
S'NN'
p995
S'B-NP'
p996
g5
tp997
a(g58
g58
g58
g5
g5
tp998
a(S'and'
p999
S'and'
p1000
S'CC'
p1001
g5
g5
tp1002
a(S'demographic'
p1003
S'demographic'
p1004
S'JJ'
p1005
S'B-NP'
p1006
g5
tp1007
a(S'covariates'
p1008
S'covariate'
p1009
S'NNS'
p1010
S'I-NP'
p1011
g5
tp1012
a(g58
g58
g58
g5
g5
tp1013
a(S'the'
p1014
S'the'
p1015
S'DT'
p1016
S'B-NP'
p1017
g5
tp1018
a(S'intervention'
p1019
S'intervention'
p1020
S'NN'
p1021
S'I-NP'
p1022
g5
tp1023
a(S'group'
p1024
S'group'
p1025
S'NN'
p1026
S'I-NP'
p1027
g5
tp1028
a(S'showed'
p1029
S'show'
p1030
S'VBD'
p1031
S'B-VP'
p1032
g5
tp1033
a(S'an'
p1034
S'an'
p1035
S'DT'
p1036
S'B-NP'
p1037
g5
tp1038
a(S'estimated'
p1039
S'estimate'
p1040
S'VBN'
p1041
S'I-NP'
p1042
g5
tp1043
a(S'improvement'
p1044
S'improvement'
p1045
S'NN'
p1046
S'I-NP'
p1047
g5
tp1048
a(S'at'
p1049
S'at'
p1050
S'IN'
p1051
S'B-PP'
p1052
g5
tp1053
a(S'six'
p1054
S'six'
p1055
S'CD'
p1056
S'B-NP'
p1057
g5
tp1058
a(S'weeks'
p1059
S'week'
p1060
S'NNS'
p1061
S'I-NP'
p1062
g5
tp1063
a(S'for'
p1064
S'for'
p1065
S'IN'
p1066
S'B-PP'
p1067
g5
tp1068
a(S'the'
p1069
S'the'
p1070
S'DT'
p1071
S'B-NP'
p1072
g5
tp1073
a(S'primary'
p1074
S'primary'
p1075
S'JJ'
p1076
S'I-NP'
p1077
g5
tp1078
a(S'outcome'
p1079
S'outcome'
p1080
S'NN'
p1081
S'I-NP'
p1082
g5
tp1083
a(g58
g58
g58
g5
g5
tp1084
a(S'fatigue'
p1085
S'fatigue'
p1086
S'NN'
p1087
S'B-NP'
p1088
g5
tp1089
a(g58
g58
g58
g5
g5
tp1090
a(S'of'
p1091
S'of'
p1092
S'IN'
p1093
S'B-PP'
p1094
g5
tp1095
a(S'-6.6'
p1096
S'-6.6'
p1097
S'CD'
p1098
S'B-NP'
p1099
g5
tp1100
a(S'points'
p1101
S'point'
p1102
S'NNS'
p1103
S'I-NP'
p1104
g5
tp1105
a(g352
g352
g352
g5
g5
tp1106
a(S'95'
p1107
S'95'
p1108
S'CD'
p1109
S'B-NP'
p1110
g5
tp1111
a(S'%'
p1112
g1112
S'NN'
p1113
S'I-NP'
p1114
g5
tp1115
a(S'confidence'
p1116
S'confidence'
p1117
S'NN'
p1118
S'I-NP'
p1119
g5
tp1120
a(S'interval'
p1121
S'interval'
p1122
S'NN'
p1123
S'I-NP'
p1124
g5
tp1125
a(S'-12.3'
p1126
S'-12.3'
p1127
S'CD'
p1128
S'I-NP'
p1129
g5
tp1130
a(S'to'
p1131
S'to'
p1132
S'TO'
p1133
S'B-PP'
p1134
g5
tp1135
a(S'-0.9'
p1136
S'-0.9'
p1137
S'CD'
p1138
S'B-NP'
p1139
g5
tp1140
a(g58
g58
g58
g5
g5
tp1141
a(S'P=0.02'
p1142
S'P=0.02'
p1143
S'NN'
p1144
S'B-NP'
p1145
g5
tp1146
a(g308
g308
g7
g5
g5
tp1147
a(S'effect'
p1148
S'effect'
p1149
S'NN'
p1150
S'B-NP'
p1151
g5
tp1152
a(S'size=0.33'
p1153
S'size=0.33'
p1154
S'NN'
p1155
S'I-NP'
p1156
g5
tp1157
a(g58
g58
g58
g5
g5
tp1158
a(S'0.04'
p1159
S'0.04'
p1160
S'CD'
p1161
S'B-NP'
p1162
g5
tp1163
a(S'to'
p1164
S'to'
p1165
S'TO'
p1166
S'B-PP'
p1167
g5
tp1168
a(S'0.61'
p1169
S'0.61'
p1170
S'CD'
p1171
S'B-NP'
p1172
g5
tp1173
a(g364
g364
g364
g5
g5
tp1174
a(g824
g824
g824
g5
g5
tp1175
a(S'Significant'
p1176
S'Significant'
p1177
S'JJ'
p1178
S'B-NP'
p1179
g5
tp1180
a(S'effects'
p1181
S'effect'
p1182
S'NNS'
p1183
S'I-NP'
p1184
g5
tp1185
a(S'were'
p1186
S'be'
p1187
S'VBD'
p1188
S'B-VP'
p1189
g5
tp1190
a(S'seen'
p1191
S'see'
p1192
S'VBN'
p1193
S'I-VP'
p1194
g5
tp1195
a(S'on'
p1196
S'on'
p1197
S'IN'
p1198
S'B-PP'
p1199
g5
tp1200
a(S'vitality'
p1201
S'vitality'
p1202
S'NN'
p1203
S'B-NP'
p1204
g5
tp1205
a(g352
g352
g352
S'I-NP'
p1206
g5
tp1207
a(S'effect'
p1208
S'effect'
p1209
S'NN'
p1210
S'I-NP'
p1211
g5
tp1212
a(S'size'
p1213
S'size'
p1214
S'NN'
p1215
S'I-NP'
p1216
g5
tp1217
a(S'0.55'
p1218
S'0.55'
p1219
S'CD'
p1220
S'I-NP'
p1221
g5
tp1222
a(g58
g58
g58
S'I-NP'
p1223
g5
tp1224
a(S'95'
p1225
S'95'
p1226
S'CD'
p1227
S'I-NP'
p1228
g5
tp1229
a(g1112
g1112
S'NN'
p1230
S'I-NP'
p1231
g5
tp1232
a(S'CI'
p1233
S'CI'
p1234
S'NN'
p1235
S'I-NP'
p1236
g5
tp1237
a(S'0.27'
p1238
S'0.27'
p1239
S'CD'
p1240
S'I-NP'
p1241
g5
tp1242
a(S'to'
p1243
S'to'
p1244
S'TO'
p1245
S'B-PP'
p1246
g5
tp1247
a(S'0.82'
p1248
S'0.82'
p1249
S'CD'
p1250
S'B-NP'
p1251
g5
tp1252
a(g364
g364
g364
g5
g5
tp1253
a(g58
g58
g58
g5
g5
tp1254
a(S'physical'
p1255
S'physical'
p1256
S'JJ'
p1257
S'B-NP'
p1258
g5
tp1259
a(S'functioning'
p1260
S'functioning'
p1261
S'NN'
p1262
S'I-NP'
p1263
g5
tp1264
a(g352
g352
g352
g5
g5
tp1265
a(S'0.37'
p1266
S'0.37'
p1267
S'CD'
p1268
S'B-NP'
p1269
g5
tp1270
a(g58
g58
g58
g5
g5
tp1271
a(S'0.09'
p1272
S'0.09'
p1273
S'CD'
p1274
S'B-NP'
p1275
g5
tp1276
a(S'to'
p1277
S'to'
p1278
S'TO'
p1279
S'B-PP'
p1280
g5
tp1281
a(S'0.65'
p1282
S'0.65'
p1283
S'CD'
p1284
S'B-NP'
p1285
g5
tp1286
a(g364
g364
g364
g5
g5
tp1287
a(g58
g58
g58
g5
g5
tp1288
a(S'role'
p1289
S'role'
p1290
S'NN'
p1291
S'B-NP'
p1292
g5
tp1293
a(S'physical'
p1294
S'physical'
p1295
S'JJ'
p1296
S'B-ADJP'
p1297
g5
tp1298
a(g352
g352
g352
g5
g5
tp1299
a(S'0.37'
p1300
S'0.37'
p1301
S'CD'
p1302
S'B-NP'
p1303
g5
tp1304
a(g58
g58
g58
g5
g5
tp1305
a(S'0.10'
p1306
S'0.10'
p1307
S'CD'
p1308
S'B-NP'
p1309
g5
tp1310
a(S'to'
p1311
S'to'
p1312
S'TO'
p1313
S'B-PP'
p1314
g5
tp1315
a(S'0.64'
p1316
S'0.64'
p1317
S'CD'
p1318
S'B-NP'
p1319
g5
tp1320
a(g364
g364
g364
g5
g5
tp1321
a(g58
g58
g58
g5
g5
tp1322
a(S'role'
p1323
S'role'
p1324
S'NN'
p1325
S'B-NP'
p1326
g5
tp1327
a(S'emotional'
p1328
S'emotional'
p1329
S'JJ'
p1330
S'B-ADJP'
p1331
g5
tp1332
a(g352
g352
g352
g5
g5
tp1333
a(S'0.32'
p1334
S'0.32'
p1335
S'CD'
p1336
S'B-NP'
p1337
g5
tp1338
a(g58
g58
g58
g5
g5
tp1339
a(S'0.05'
p1340
S'0.05'
p1341
S'CD'
p1342
S'B-NP'
p1343
g5
tp1344
a(S'to'
p1345
S'to'
p1346
S'TO'
p1347
S'B-PP'
p1348
g5
tp1349
a(S'0.59'
p1350
S'0.59'
p1351
S'CD'
p1352
S'B-NP'
p1353
g5
tp1354
a(g364
g364
g364
g5
g5
tp1355
a(g58
g58
g58
g5
g5
tp1356
a(S'and'
p1357
S'and'
p1358
S'CC'
p1359
g5
g5
tp1360
a(S'mental'
p1361
S'mental'
p1362
S'JJ'
p1363
S'B-NP'
p1364
g5
tp1365
a(S'health'
p1366
S'health'
p1367
S'NN'
p1368
S'I-NP'
p1369
g5
tp1370
a(g352
g352
g352
g5
g5
tp1371
a(S'0.28'
p1372
S'0.28'
p1373
S'CD'
p1374
S'B-NP'
p1375
g5
tp1376
a(g58
g58
g58
g5
g5
tp1377
a(S'0.02'
p1378
S'0.02'
p1379
S'CD'
p1380
S'B-NP'
p1381
g5
tp1382
a(S'to'
p1383
S'to'
p1384
S'TO'
p1385
S'B-PP'
p1386
g5
tp1387
a(S'0.56'
p1388
S'0.56'
p1389
S'CD'
p1390
S'B-NP'
p1391
g5
tp1392
a(g364
g364
g364
g5
g5
tp1393
a(S'scores.'
p1394
S'scores.'
p1395
g824
g5
g5
tp1396
a(S'Improvement'
p1397
S'Improvement'
p1398
S'NN'
p1399
S'B-NP'
p1400
g5
tp1401
a(S'was'
p1402
S'be'
p1403
S'VBD'
p1404
S'B-VP'
p1405
g5
tp1406
a(S'noted'
p1407
S'note'
p1408
S'VBN'
p1409
S'I-VP'
p1410
g5
tp1411
a(S'in'
p1412
S'in'
p1413
S'IN'
p1414
S'B-PP'
p1415
g5
tp1416
a(S'physical'
p1417
S'physical'
p1418
S'JJ'
p1419
S'B-NP'
p1420
g5
tp1421
a(S'capacity'
p1422
S'capacity'
p1423
S'NN'
p1424
S'I-NP'
p1425
g5
tp1426
a(g7
g7
g7
g5
g5
tp1427
a(S'estimated'
p1428
S'estimate'
p1429
S'VBN'
p1430
S'B-NP'
p1431
g5
tp1432
a(S'mean'
p1433
S'mean'
p1434
S'JJ'
p1435
S'I-NP'
p1436
g5
tp1437
a(S'difference'
p1438
S'difference'
p1439
S'NN'
p1440
S'I-NP'
p1441
g5
tp1442
a(S'between'
p1443
S'between'
p1444
S'IN'
p1445
S'B-PP'
p1446
g5
tp1447
a(S'groups'
p1448
S'group'
p1449
S'NNS'
p1450
S'B-NP'
p1451
g5
tp1452
a(S'for'
p1453
S'for'
p1454
S'IN'
p1455
S'B-PP'
p1456
g5
tp1457
a(S'maximum'
p1458
S'maximum'
p1459
S'JJ'
p1460
S'B-NP'
p1461
g5
tp1462
a(S'oxygen'
p1463
S'oxygen'
p1464
S'NN'
p1465
S'I-NP'
p1466
g5
tp1467
a(S'consumption'
p1468
S'consumption'
p1469
S'NN'
p1470
S'I-NP'
p1471
g5
tp1472
a(S'was'
p1473
S'be'
p1474
S'VBD'
p1475
S'B-VP'
p1476
g5
tp1477
a(S'0.16'
p1478
S'0.16'
p1479
S'CD'
p1480
S'B-NP'
p1481
g5
tp1482
a(S'l/min'
p1483
S'l/min'
p1484
S'NN'
p1485
S'I-NP'
p1486
g5
tp1487
a(g352
g352
g352
g5
g5
tp1488
a(S'95'
p1489
S'95'
p1490
S'CD'
p1491
S'B-NP'
p1492
g5
tp1493
a(g1112
g1112
S'NN'
p1494
S'I-NP'
p1495
g5
tp1496
a(S'CI'
p1497
S'CI'
p1498
S'NN'
p1499
S'I-NP'
p1500
g5
tp1501
a(S'0.1'
p1502
S'0.1'
p1503
S'CD'
p1504
S'I-NP'
p1505
g5
tp1506
a(S'to'
p1507
S'to'
p1508
S'TO'
p1509
S'B-PP'
p1510
g5
tp1511
a(S'0.2'
p1512
S'0.2'
p1513
S'CD'
p1514
S'B-NP'
p1515
g5
tp1516
a(g58
g58
g58
g5
g5
tp1517
a(S'P'
p1518
g1518
S'NN'
p1519
S'B-NP'
p1520
g5
tp1521
a(S'<'
p1522
g1522
S'SYM'
p1523
S'B-NP'
p1524
g5
tp1525
a(S'0.0001'
p1526
S'0.0001'
p1527
S'CD'
p1528
S'I-NP'
p1529
g5
tp1530
a(g364
g364
g364
g5
g5
tp1531
a(S'and'
p1532
S'and'
p1533
S'CC'
p1534
g5
g5
tp1535
a(S'for'
p1536
S'for'
p1537
S'IN'
p1538
S'B-PP'
p1539
g5
tp1540
a(S'muscular'
p1541
S'muscular'
p1542
S'JJ'
p1543
S'B-NP'
p1544
g5
tp1545
a(S'strength'
p1546
S'strength'
p1547
S'NN'
p1548
S'I-NP'
p1549
g5
tp1550
a(g352
g352
g352
g5
g5
tp1551
a(S'leg'
p1552
S'leg'
p1553
S'NN'
p1554
S'B-NP'
p1555
g5
tp1556
a(S'press'
p1557
S'press'
p1558
S'NN'
p1559
S'I-NP'
p1560
g5
tp1561
a(g364
g364
g364
g5
g5
tp1562
a(S'was'
p1563
S'be'
p1564
S'VBD'
p1565
S'B-VP'
p1566
g5
tp1567
a(S'29.7'
p1568
S'29.7'
p1569
S'CD'
p1570
S'B-NP'
p1571
g5
tp1572
a(S'kg'
p1573
S'kg'
p1574
S'NN'
p1575
S'I-NP'
p1576
g5
tp1577
a(g352
g352
g352
g5
g5
tp1578
a(S'23.4'
p1579
S'23.4'
p1580
S'CD'
p1581
S'B-NP'
p1582
g5
tp1583
a(S'to'
p1584
S'to'
p1585
S'TO'
p1586
g5
g5
tp1587
a(S'34.9'
p1588
S'34.9'
p1589
S'CD'
p1590
S'B-NP'
p1591
g5
tp1592
a(g58
g58
g58
g5
g5
tp1593
a(g1518
g1518
S'NN'
p1594
S'B-NP'
p1595
g5
tp1596
a(g1522
g1522
S'SYM'
p1597
S'B-NP'
p1598
g5
tp1599
a(S'0.0001'
p1600
S'0.0001'
p1601
S'CD'
p1602
S'I-NP'
p1603
g5
tp1604
a(g364
g364
g364
g5
g5
tp1605
a(g824
g824
g824
g5
g5
tp1606
a(S'No'
p1607
S'No'
p1608
S'DT'
p1609
S'B-NP'
p1610
g5
tp1611
a(S'significant'
p1612
S'significant'
p1613
S'JJ'
p1614
S'I-NP'
p1615
g5
tp1616
a(S'effect'
p1617
S'effect'
p1618
S'NN'
p1619
S'I-NP'
p1620
g5
tp1621
a(S'was'
p1622
S'be'
p1623
S'VBD'
p1624
S'B-VP'
p1625
g5
tp1626
a(S'seen'
p1627
S'see'
p1628
S'VBN'
p1629
S'I-VP'
p1630
g5
tp1631
a(S'on'
p1632
S'on'
p1633
S'IN'
p1634
S'B-PP'
p1635
g5
tp1636
a(S'global'
p1637
S'global'
p1638
S'JJ'
p1639
S'B-NP'
p1640
g5
tp1641
a(S'health'
p1642
S'health'
p1643
S'NN'
p1644
S'I-NP'
p1645
g5
tp1646
a(S'status/quality'
p1647
S'status/quality'
p1648
S'NN'
p1649
S'I-NP'
p1650
g5
tp1651
a(S'of'
p1652
S'of'
p1653
S'IN'
p1654
S'B-PP'
p1655
g5
tp1656
a(S'life.'
p1657
S'life.'
p1658
S'NN'
p1659
S'B-NP'
p1660
g5
tp1661
a(S'CONCLUSION'
p1662
S'CONCLUSION'
p1663
S'NN'
p1664
S'B-NP'
p1665
g5
tp1666
a(g7
g7
g7
g5
g5
tp1667
a(S'A'
p1668
g1668
S'DT'
p1669
S'B-NP'
p1670
g5
tp1671
a(S'supervised'
p1672
S'supervise'
p1673
S'VBN'
p1674
S'I-NP'
p1675
g5
tp1676
a(S'multimodal'
p1677
S'multimodal'
p1678
S'JJ'
p1679
S'I-NP'
p1680
g5
tp1681
a(S'exercise'
p1682
S'exercise'
p1683
S'NN'
p1684
S'I-NP'
p1685
g5
tp1686
a(S'intervention'
p1687
S'intervention'
p1688
S'NN'
p1689
S'I-NP'
p1690
g5
tp1691
a(S'including'
p1692
S'include'
p1693
S'VBG'
p1694
S'B-PP'
p1695
g5
tp1696
a(S'high'
p1697
S'high'
p1698
S'JJ'
p1699
S'B-NP'
p1700
g5
tp1701
a(S'and'
p1702
S'and'
p1703
S'CC'
p1704
S'I-NP'
p1705
g5
tp1706
a(S'low'
p1707
S'low'
p1708
S'JJ'
p1709
S'I-NP'
p1710
g5
tp1711
a(S'intensity'
p1712
S'intensity'
p1713
S'NN'
p1714
S'I-NP'
p1715
g5
tp1716
a(S'components'
p1717
S'component'
p1718
S'NNS'
p1719
S'I-NP'
p1720
g5
tp1721
a(S'was'
p1722
S'be'
p1723
S'VBD'
p1724
S'B-VP'
p1725
g5
tp1726
a(S'feasible'
p1727
S'feasible'
p1728
S'JJ'
p1729
S'B-ADJP'
p1730
g5
tp1731
a(S'and'
p1732
S'and'
p1733
S'CC'
p1734
g5
g5
tp1735
a(S'could'
p1736
S'could'
p1737
S'MD'
p1738
S'B-VP'
p1739
g5
tp1740
a(S'safely'
p1741
S'safely'
p1742
S'RB'
p1743
S'I-VP'
p1744
g5
tp1745
a(S'be'
p1746
S'be'
p1747
S'VB'
p1748
S'I-VP'
p1749
g5
tp1750
a(S'used'
p1751
S'use'
p1752
S'VBN'
p1753
S'I-VP'
p1754
g5
tp1755
a(S'in'
p1756
S'in'
p1757
S'IN'
p1758
S'B-PP'
p1759
g5
tp1760
a(S'patients'
p1761
S'patient'
p1762
S'NNS'
p1763
S'B-NP'
p1764
g5
tp1765
a(S'with'
p1766
S'with'
p1767
S'IN'
p1768
S'B-PP'
p1769
g5
tp1770
a(S'various'
p1771
S'various'
p1772
S'JJ'
p1773
S'B-NP'
p1774
g5
tp1775
a(S'cancers'
p1776
S'cancer'
p1777
S'NNS'
p1778
S'I-NP'
p1779
g5
tp1780
a(S'who'
p1781
S'who'
p1782
S'WP'
p1783
S'B-NP'
p1784
g5
tp1785
a(S'were'
p1786
S'be'
p1787
S'VBD'
p1788
S'B-VP'
p1789
g5
tp1790
a(S'receiving'
p1791
S'receive'
p1792
S'VBG'
p1793
S'I-VP'
p1794
g5
tp1795
a(S'adjuvant'
p1796
S'adjuvant'
p1797
S'JJ'
p1798
S'B-NP'
p1799
g5
tp1800
a(S'chemotherapy'
p1801
S'chemotherapy'
p1802
S'NN'
p1803
S'I-NP'
p1804
g5
tp1805
a(S'or'
p1806
S'or'
p1807
S'CC'
p1808
S'I-NP'
p1809
g5
tp1810
a(S'treatment'
p1811
S'treatment'
p1812
S'NN'
p1813
S'I-NP'
p1814
g5
tp1815
a(S'for'
p1816
S'for'
p1817
S'IN'
p1818
S'B-PP'
p1819
g5
tp1820
a(S'advanced'
p1821
S'advance'
p1822
S'VBN'
p1823
S'B-NP'
p1824
g5
tp1825
a(S'disease.'
p1826
S'disease.'
p1827
S'NN'
p1828
S'I-NP'
p1829
g5
tp1830
a(S'The'
p1831
S'The'
p1832
S'DT'
p1833
S'B-NP'
p1834
g5
tp1835
a(S'intervention'
p1836
S'intervention'
p1837
S'NN'
p1838
S'I-NP'
p1839
g5
tp1840
a(S'reduced'
p1841
S'reduce'
p1842
S'VBD'
p1843
S'B-VP'
p1844
g5
tp1845
a(S'fatigue'
p1846
S'fatigue'
p1847
S'NN'
p1848
S'B-NP'
p1849
g5
tp1850
a(S'and'
p1851
S'and'
p1852
S'CC'
p1853
g5
g5
tp1854
a(S'improved'
p1855
S'improve'
p1856
S'VBN'
p1857
S'B-NP'
p1858
g5
tp1859
a(S'vitality'
p1860
S'vitality'
p1861
S'NN'
p1862
S'I-NP'
p1863
g5
tp1864
a(g58
g58
g58
g5
g5
tp1865
a(S'aerobic'
p1866
S'aerobic'
p1867
S'JJ'
p1868
S'B-NP'
p1869
g5
tp1870
a(S'capacity'
p1871
S'capacity'
p1872
S'NN'
p1873
S'I-NP'
p1874
g5
tp1875
a(g58
g58
g58
g5
g5
tp1876
a(S'muscular'
p1877
S'muscular'
p1878
S'JJ'
p1879
S'B-NP'
p1880
g5
tp1881
a(S'strength'
p1882
S'strength'
p1883
S'NN'
p1884
S'I-NP'
p1885
g5
tp1886
a(g58
g58
g58
g5
g5
tp1887
a(S'and'
p1888
S'and'
p1889
S'CC'
p1890
g5
g5
tp1891
a(S'physical'
p1892
S'physical'
p1893
S'JJ'
p1894
S'B-NP'
p1895
g5
tp1896
a(S'and'
p1897
S'and'
p1898
S'CC'
p1899
S'I-NP'
p1900
g5
tp1901
a(S'functional'
p1902
S'functional'
p1903
S'JJ'
p1904
S'I-NP'
p1905
g5
tp1906
a(S'activity'
p1907
S'activity'
p1908
S'NN'
p1909
S'I-NP'
p1910
g5
tp1911
a(g58
g58
g58
g5
g5
tp1912
a(S'and'
p1913
S'and'
p1914
S'CC'
p1915
g5
g5
tp1916
a(S'emotional'
p1917
S'emotional'
p1918
S'JJ'
p1919
S'B-NP'
p1920
g5
tp1921
a(S'wellbeing'
p1922
S'wellbeing'
p1923
S'NN'
p1924
S'I-NP'
p1925
g5
tp1926
a(g58
g58
g58
g5
g5
tp1927
a(S'but'
p1928
S'but'
p1929
S'CC'
p1930
g5
g5
tp1931
a(S'not'
p1932
S'not'
p1933
S'RB'
p1934
g5
g5
tp1935
a(S'quality'
p1936
S'quality'
p1937
S'NN'
p1938
S'B-NP'
p1939
g5
tp1940
a(S'of'
p1941
S'of'
p1942
S'IN'
p1943
S'B-PP'
p1944
g5
tp1945
a(S'life.'
p1946
S'life.'
p1947
S'NN'
p1948
S'B-NP'
p1949
g5
tp1950
a(S'TRIAL'
p1951
S'TRIAL'
p1952
S'NN'
p1953
S'B-NP'
p1954
g5
tp1955
a(S'REGISTRATION'
p1956
S'REGISTRATION'
p1957
S'NN'
p1958
S'I-NP'
p1959
g5
tp1960
a(g7
g7
g7
g5
g5
tp1961
a(S'Current'
p1962
S'Current'
p1963
S'JJ'
p1964
S'B-NP'
p1965
g5
tp1966
a(S'Controlled'
p1967
S'Controlled'
p1968
S'JJ'
p1969
S'I-NP'
p1970
g5
tp1971
a(S'trials'
p1972
S'trial'
p1973
S'NNS'
p1974
S'I-NP'
p1975
g5
tp1976
a(S'ISRCTN05322922'
p1977
S'ISRCTN05322922'
p1978
S'NN'
p1979
S'I-NP'
p1980
g5
tp1981
a(g824
g824
g824
g5
g5
tp1982
a.