(lp0
(S'OBJECTIVE'
p1
S'OBJECTIVE'
p2
S'NN'
p3
S'B-NP'
p4
S'O'
p5
tp6
a(S':'
p7
g7
g7
g5
g5
tp8
a(S'To'
p9
S'To'
p10
S'TO'
p11
S'B-VP'
p12
g5
tp13
a(S'test'
p14
S'test'
p15
S'VB'
p16
S'I-VP'
p17
g5
tp18
a(S'the'
p19
S'the'
p20
S'DT'
p21
S'B-NP'
p22
g5
tp23
a(S'effectiveness'
p24
S'effectiveness'
p25
S'NN'
p26
S'I-NP'
p27
g5
tp28
a(S'of'
p29
S'of'
p30
S'IN'
p31
S'B-PP'
p32
g5
tp33
a(S'a'
p34
g34
S'DT'
p35
S'B-NP'
p36
g5
tp37
a(S'complex'
p38
S'complex'
p39
S'JJ'
p40
S'I-NP'
p41
g5
tp42
a(S'intervention'
p43
S'intervention'
p44
S'NN'
p45
S'I-NP'
p46
g5
tp47
a(S'designed'
p48
S'design'
p49
S'VBN'
p50
S'B-VP'
p51
g5
tp52
a(S','
p53
g53
g53
g5
g5
tp54
a(S'within'
p55
S'within'
p56
S'IN'
p57
S'B-PP'
p58
g5
tp59
a(g34
g34
S'DT'
p60
S'B-NP'
p61
g5
tp62
a(S'theoretical'
p63
S'theoretical'
p64
S'JJ'
p65
S'I-NP'
p66
g5
tp67
a(S'framework'
p68
S'framework'
p69
S'NN'
p70
S'I-NP'
p71
g5
tp72
a(g53
g53
g53
g5
g5
tp73
a(S'to'
p74
S'to'
p75
S'TO'
p76
S'B-VP'
p77
g5
tp78
a(S'improve'
p79
S'improve'
p80
S'VB'
p81
S'I-VP'
p82
g5
tp83
a(S'outcomes'
p84
S'outcome'
p85
S'NNS'
p86
S'B-NP'
p87
g5
tp88
a(S'for'
p89
S'for'
p90
S'IN'
p91
S'B-PP'
p92
g5
tp93
a(S'patients'
p94
S'patient'
p95
S'NNS'
p96
S'B-NP'
p97
g5
tp98
a(S'with'
p99
S'with'
p100
S'IN'
p101
S'B-PP'
p102
g5
tp103
a(S'coronary'
p104
S'coronary'
p105
S'JJ'
p106
S'B-NP'
p107
g5
tp108
a(S'heart'
p109
S'heart'
p110
S'NN'
p111
S'I-NP'
p112
g5
tp113
a(S'disease.'
p114
S'disease.'
p115
S'NN'
p116
S'I-NP'
p117
g5
tp118
a(S'DESIGN'
p119
S'DESIGN'
p120
S'NN'
p121
S'B-NP'
p122
g5
tp123
a(g7
g7
g7
g5
g5
tp124
a(S'Cluster'
p125
S'Cluster'
p126
S'NNP'
p127
S'B-NP'
p128
g5
tp129
a(S'randomised'
p130
S'randomise'
p131
S'VBD'
p132
S'B-VP'
p133
g5
tp134
a(S'controlled'
p135
S'control'
p136
S'VBN'
p137
S'I-VP'
p138
g5
tp139
a(S'multicentre'
p140
S'multicentre'
p141
S'JJ'
p142
S'B-NP'
p143
g5
tp144
a(S'trial.'
p145
S'trial.'
p146
S'NN'
p147
S'I-NP'
p148
g5
tp149
a(S'SETTING'
p150
S'SETTING'
p151
S'NN'
p152
S'B-NP'
p153
g5
tp154
a(g7
g7
g7
g5
g5
tp155
a(S'General'
p156
S'General'
p157
S'JJ'
p158
S'B-NP'
p159
g5
tp160
a(S'practices'
p161
S'practice'
p162
S'NNS'
p163
S'I-NP'
p164
g5
tp165
a(S'in'
p166
S'in'
p167
S'IN'
p168
S'B-PP'
p169
g5
tp170
a(S'Northern'
p171
S'Northern'
p172
S'JJ'
p173
S'B-NP'
p174
g5
tp175
a(S'Ireland'
p176
S'Ireland'
p177
S'NNP'
p178
S'I-NP'
p179
g5
tp180
a(S'and'
p181
S'and'
p182
S'CC'
p183
g5
g5
tp184
a(S'the'
p185
S'the'
p186
S'DT'
p187
S'B-NP'
p188
g5
tp189
a(S'Republic'
p190
S'Republic'
p191
S'NNP'
p192
S'I-NP'
p193
g5
tp194
a(S'of'
p195
S'of'
p196
S'IN'
p197
S'B-PP'
p198
g5
tp199
a(S'Ireland'
p200
S'Ireland'
p201
S'NNP'
p202
S'B-NP'
p203
g5
tp204
a(g53
g53
g53
g5
g5
tp205
a(S'regions'
p206
S'region'
p207
S'NNS'
p208
S'B-NP'
p209
g5
tp210
a(S'with'
p211
S'with'
p212
S'IN'
p213
S'B-PP'
p214
g5
tp215
a(S'different'
p216
S'different'
p217
S'JJ'
p218
S'B-NP'
p219
g5
tp220
a(S'healthcare'
p221
S'healthcare'
p222
S'NN'
p223
S'I-NP'
p224
g5
tp225
a(S'systems.'
p226
S'systems.'
p227
S'NN'
p228
S'I-NP'
p229
g5
tp230
a(S'PARTICIPANTS'
p231
S'PARTICIPANTS'
p232
S'NNS'
p233
S'B-NP'
p234
g5
tp235
a(g7
g7
g7
g5
g5
tp236
a(S'903'
p237
S'903'
p238
S'CD'
p239
S'B-NP'
p240
g5
tp241
a(S'patients'
p242
S'patient'
p243
S'NNS'
p244
S'I-NP'
p245
g5
tp246
a(S'with'
p247
S'with'
p248
S'IN'
p249
S'B-PP'
p250
g5
tp251
a(S'established'
p252
S'establish'
p253
S'VBN'
p254
S'B-NP'
p255
g5
tp256
a(S'coronary'
p257
S'coronary'
p258
S'JJ'
p259
S'I-NP'
p260
g5
tp261
a(S'heart'
p262
S'heart'
p263
S'NN'
p264
S'I-NP'
p265
g5
tp266
a(S'disease'
p267
S'disease'
p268
S'NN'
p269
S'I-NP'
p270
g5
tp271
a(S'registered'
p272
S'register'
p273
S'VBD'
p274
S'B-VP'
p275
g5
tp276
a(S'with'
p277
S'with'
p278
S'IN'
p279
S'B-PP'
p280
g5
tp281
a(S'one'
p282
S'one'
p283
S'CD'
p284
S'B-NP'
p285
g5
tp286
a(S'of'
p287
S'of'
p288
S'IN'
p289
S'B-PP'
p290
g5
tp291
a(S'48'
p292
S'48'
p293
S'CD'
p294
S'B-NP'
p295
g5
tp296
a(S'practices.'
p297
S'practices.'
p298
S'NNS'
p299
S'I-NP'
p300
g5
tp301
a(S'INTERVENTION'
p302
S'INTERVENTION'
p303
S'NN'
p304
S'B-NP'
p305
g5
tp306
a(g7
g7
g7
g5
g5
tp307
a(S'Tailored'
p308
S'Tailor'
p309
S'VBN'
p310
S'B-NP'
p311
g5
tp312
a(S'care'
p313
S'care'
p314
S'NN'
p315
S'I-NP'
p316
g5
tp317
a(S'plans'
p318
S'plan'
p319
S'NNS'
p320
S'I-NP'
p321
g5
tp322
a(S'for'
p323
S'for'
p324
S'IN'
p325
S'B-PP'
p326
g5
tp327
a(S'practices'
p328
S'practice'
p329
S'NNS'
p330
S'B-NP'
p331
g5
tp332
a(S'('
p333
g333
g333
g5
g5
tp334
a(S'practice'
p335
S'practice'
p336
S'NN'
p337
S'B-NP'
p338
g5
tp339
a(S'based'
p340
S'base'
p341
S'VBN'
p342
S'I-NP'
p343
g5
tp344
a(S'training'
p345
S'training'
p346
S'NN'
p347
S'I-NP'
p348
g5
tp349
a(S'in'
p350
S'in'
p351
S'IN'
p352
S'B-PP'
p353
g5
tp354
a(S'prescribing'
p355
S'prescribe'
p356
S'VBG'
p357
S'B-VP'
p358
g5
tp359
a(S'and'
p360
S'and'
p361
S'CC'
p362
g5
g5
tp363
a(S'behaviour'
p364
S'behaviour'
p365
S'NN'
p366
S'B-NP'
p367
g5
tp368
a(S'change'
p369
S'change'
p370
S'NN'
p371
S'I-NP'
p372
g5
tp373
a(g53
g53
g53
g5
g5
tp374
a(S'administrative'
p375
S'administrative'
p376
S'JJ'
p377
S'B-NP'
p378
g5
tp379
a(S'support'
p380
S'support'
p381
S'NN'
p382
S'I-NP'
p383
g5
tp384
a(g53
g53
g53
g5
g5
tp385
a(S'quarterly'
p386
S'quarterly'
p387
S'JJ'
p388
S'B-NP'
p389
g5
tp390
a(S'newsletter'
p391
S'newsletter'
p392
S'NN'
p393
S'I-NP'
p394
g5
tp395
a(S')'
p396
g396
g396
g5
g5
tp397
a(g53
g53
g53
g5
g5
tp398
a(S'and'
p399
S'and'
p400
S'CC'
p401
g5
g5
tp402
a(S'tailored'
p403
S'tailor'
p404
S'VBN'
p405
S'B-NP'
p406
g5
tp407
a(S'care'
p408
S'care'
p409
S'NN'
p410
S'I-NP'
p411
g5
tp412
a(S'plans'
p413
S'plan'
p414
S'NNS'
p415
S'I-NP'
p416
g5
tp417
a(S'for'
p418
S'for'
p419
S'IN'
p420
S'B-PP'
p421
g5
tp422
a(S'patients'
p423
S'patient'
p424
S'NNS'
p425
S'B-NP'
p426
g5
tp427
a(g333
g333
g333
g5
g5
tp428
a(S'motivational'
p429
S'motivational'
p430
S'JJ'
p431
S'B-NP'
p432
g5
tp433
a(S'interviewing'
p434
S'interviewing'
p435
S'NN'
p436
S'I-NP'
p437
g5
tp438
a(g53
g53
g53
g5
g5
tp439
a(S'goal'
p440
S'goal'
p441
S'NN'
p442
S'B-NP'
p443
g5
tp444
a(S'identification'
p445
S'identification'
p446
S'NN'
p447
S'I-NP'
p448
g5
tp449
a(g53
g53
g53
g5
g5
tp450
a(S'and'
p451
S'and'
p452
S'CC'
p453
g5
g5
tp454
a(S'target'
p455
S'target'
p456
S'NN'
p457
S'B-NP'
p458
g5
tp459
a(S'setting'
p460
S'set'
p461
S'VBG'
p462
S'B-VP'
p463
g5
tp464
a(S'for'
p465
S'for'
p466
S'IN'
p467
S'B-PP'
p468
g5
tp469
a(S'lifestyle'
p470
S'lifestyle'
p471
S'NN'
p472
S'B-NP'
p473
g5
tp474
a(S'change'
p475
S'change'
p476
S'NN'
p477
S'I-NP'
p478
g5
tp479
a(g396
g396
g396
g5
g5
tp480
a(S'with'
p481
S'with'
p482
S'IN'
p483
S'B-PP'
p484
g5
tp485
a(S'reviews'
p486
S'review'
p487
S'NNS'
p488
S'B-NP'
p489
g5
tp490
a(S'every'
p491
S'every'
p492
S'DT'
p493
S'B-NP'
p494
g5
tp495
a(S'four'
p496
S'four'
p497
S'CD'
p498
S'I-NP'
p499
g5
tp500
a(S'months'
p501
S'month'
p502
S'NNS'
p503
S'I-NP'
p504
g5
tp505
a(S'at'
p506
S'at'
p507
S'IN'
p508
S'B-PP'
p509
g5
tp510
a(S'the'
p511
S'the'
p512
S'DT'
p513
S'B-NP'
p514
g5
tp515
a(S'practices.'
p516
S'practices.'
p517
S'NN'
p518
S'I-NP'
p519
g5
tp520
a(S'Control'
p521
S'Control'
p522
S'NN'
p523
S'B-NP'
p524
g5
tp525
a(S'practices'
p526
S'practice'
p527
S'NNS'
p528
S'I-NP'
p529
g5
tp530
a(S'provided'
p531
S'provide'
p532
S'VBD'
p533
S'B-VP'
p534
g5
tp535
a(S'usual'
p536
S'usual'
p537
S'JJ'
p538
S'B-NP'
p539
g5
tp540
a(S'care.'
p541
S'care.'
p542
S'NN'
p543
S'I-NP'
p544
g5
tp545
a(S'MAIN'
p546
S'MAIN'
p547
S'NNP'
p548
S'B-NP'
p549
g5
tp550
a(S'OUTCOME'
p551
S'OUTCOME'
p552
S'NNP'
p553
S'I-NP'
p554
g5
tp555
a(S'MEASURES'
p556
S'MEASURES'
p557
S'NNP'
p558
S'I-NP'
p559
g5
tp560
a(g7
g7
g7
g5
g5
tp561
a(S'The'
p562
S'The'
p563
S'DT'
p564
S'B-NP'
p565
g5
tp566
a(S'proportion'
p567
S'proportion'
p568
S'NN'
p569
S'I-NP'
p570
g5
tp571
a(S'of'
p572
S'of'
p573
S'IN'
p574
S'B-PP'
p575
g5
tp576
a(S'patients'
p577
S'patient'
p578
S'NNS'
p579
S'B-NP'
p580
g5
tp581
a(S'at'
p582
S'at'
p583
S'IN'
p584
S'B-PP'
p585
g5
tp586
a(S'18'
p587
S'18'
p588
S'CD'
p589
S'B-NP'
p590
g5
tp591
a(S'month'
p592
S'month'
p593
S'NN'
p594
S'I-NP'
p595
g5
tp596
a(S'follow-up'
p597
S'follow-up'
p598
S'NN'
p599
S'I-NP'
p600
g5
tp601
a(S'above'
p602
S'above'
p603
S'IN'
p604
S'B-PP'
p605
g5
tp606
a(S'target'
p607
S'target'
p608
S'NN'
p609
S'B-NP'
p610
g5
tp611
a(S'levels'
p612
S'level'
p613
S'NNS'
p614
S'I-NP'
p615
g5
tp616
a(S'for'
p617
S'for'
p618
S'IN'
p619
S'B-PP'
p620
g5
tp621
a(S'blood'
p622
S'blood'
p623
S'NN'
p624
S'B-NP'
p625
g5
tp626
a(S'pressure'
p627
S'pressure'
p628
S'NN'
p629
S'I-NP'
p630
g5
tp631
a(S'and'
p632
S'and'
p633
S'CC'
p634
g5
g5
tp635
a(S'total'
p636
S'total'
p637
S'JJ'
p638
S'B-NP'
p639
g5
tp640
a(S'cholesterol'
p641
S'cholesterol'
p642
S'NN'
p643
S'I-NP'
p644
g5
tp645
a(S'concentration'
p646
S'concentration'
p647
S'NN'
p648
S'I-NP'
p649
g5
tp650
a(g53
g53
g53
g5
g5
tp651
a(S'and'
p652
S'and'
p653
S'CC'
p654
g5
g5
tp655
a(S'those'
p656
S'those'
p657
S'DT'
p658
S'B-NP'
p659
g5
tp660
a(S'admitted'
p661
S'admit'
p662
S'VBN'
p663
S'B-VP'
p664
g5
tp665
a(S'to'
p666
S'to'
p667
S'TO'
p668
S'B-PP'
p669
g5
tp670
a(S'hospital'
p671
S'hospital'
p672
S'NN'
p673
S'B-NP'
p674
g5
tp675
a(g53
g53
g53
g5
g5
tp676
a(S'and'
p677
S'and'
p678
S'CC'
p679
g5
g5
tp680
a(S'changes'
p681
S'change'
p682
S'NNS'
p683
S'B-NP'
p684
g5
tp685
a(S'in'
p686
S'in'
p687
S'IN'
p688
S'B-PP'
p689
g5
tp690
a(S'physical'
p691
S'physical'
p692
S'JJ'
p693
S'B-NP'
p694
g5
tp695
a(S'and'
p696
S'and'
p697
S'CC'
p698
S'I-NP'
p699
g5
tp700
a(S'mental'
p701
S'mental'
p702
S'JJ'
p703
S'I-NP'
p704
g5
tp705
a(S'health'
p706
S'health'
p707
S'NN'
p708
S'I-NP'
p709
g5
tp710
a(S'status'
p711
S'status'
p712
S'NN'
p713
S'I-NP'
p714
g5
tp715
a(g333
g333
g333
g5
g5
tp716
a(S'SF-12'
p717
S'SF-12'
p718
S'NN'
p719
S'B-NP'
p720
S'B-protein'
p721
tp722
a(g396
g396
g396
g5
g5
tp723
a(S'.'
p724
g724
g724
g5
g5
tp725
a(S'RESULTS'
p726
S'RESULTS'
p727
S'NNS'
p728
S'B-NP'
p729
g5
tp730
a(g7
g7
g7
g5
g5
tp731
a(S'At'
p732
S'At'
p733
S'IN'
p734
S'B-PP'
p735
g5
tp736
a(S'baseline'
p737
S'baseline'
p738
S'NN'
p739
S'B-NP'
p740
g5
tp741
a(S'the'
p742
S'the'
p743
S'DT'
p744
S'B-NP'
p745
g5
tp746
a(S'numbers'
p747
S'number'
p748
S'NNS'
p749
S'I-NP'
p750
g5
tp751
a(g333
g333
g333
g5
g5
tp752
a(S'proportions'
p753
S'proportion'
p754
S'NNS'
p755
S'B-NP'
p756
g5
tp757
a(g396
g396
g396
g5
g5
tp758
a(S'of'
p759
S'of'
p760
S'IN'
p761
S'B-PP'
p762
g5
tp763
a(S'patients'
p764
S'patient'
p765
S'NNS'
p766
S'B-NP'
p767
g5
tp768
a(S'above'
p769
S'above'
p770
S'IN'
p771
S'B-PP'
p772
g5
tp773
a(S'the'
p774
S'the'
p775
S'DT'
p776
S'B-NP'
p777
g5
tp778
a(S'recommended'
p779
S'recommend'
p780
S'VBN'
p781
S'I-NP'
p782
g5
tp783
a(S'limits'
p784
S'limit'
p785
S'NNS'
p786
S'I-NP'
p787
g5
tp788
a(S'were'
p789
S'be'
p790
S'VBD'
p791
S'B-VP'
p792
g5
tp793
a(g7
g7
g7
g5
g5
tp794
a(S'systolic'
p795
S'systolic'
p796
S'JJ'
p797
S'B-NP'
p798
g5
tp799
a(S'blood'
p800
S'blood'
p801
S'NN'
p802
S'I-NP'
p803
g5
tp804
a(S'pressure'
p805
S'pressure'
p806
S'NN'
p807
S'I-NP'
p808
g5
tp809
a(S'greater'
p810
S'great'
p811
S'JJR'
p812
S'B-ADJP'
p813
g5
tp814
a(S'than'
p815
S'than'
p816
S'IN'
p817
S'B-PP'
p818
g5
tp819
a(S'140'
p820
S'140'
p821
S'CD'
p822
S'B-NP'
p823
g5
tp824
a(S'mm'
p825
S'mm'
p826
S'NN'
p827
S'I-NP'
p828
g5
tp829
a(S'Hg'
p830
S'Hg'
p831
S'NN'
p832
S'I-NP'
p833
g5
tp834
a(g333
g333
g333
g5
g5
tp835
a(S'305/899'
p836
S'305/899'
p837
S'CD'
p838
S'B-NP'
p839
g5
tp840
a(S';'
p841
g841
g7
g5
g5
tp842
a(S'33.9'
p843
S'33.9'
p844
S'CD'
p845
S'B-NP'
p846
g5
tp847
a(S'%'
p848
g848
S'NN'
p849
S'I-NP'
p850
g5
tp851
a(g53
g53
g53
g5
g5
tp852
a(S'95'
p853
S'95'
p854
S'CD'
p855
S'B-NP'
p856
g5
tp857
a(g848
g848
S'NN'
p858
S'I-NP'
p859
g5
tp860
a(S'confidence'
p861
S'confidence'
p862
S'NN'
p863
S'I-NP'
p864
g5
tp865
a(S'interval'
p866
S'interval'
p867
S'NN'
p868
S'I-NP'
p869
g5
tp870
a(S'30.8'
p871
S'30.8'
p872
S'CD'
p873
S'B-NP'
p874
g5
tp875
a(g848
g848
S'NN'
p876
S'I-NP'
p877
g5
tp878
a(S'to'
p879
S'to'
p880
S'TO'
p881
S'B-PP'
p882
g5
tp883
a(S'33.9'
p884
S'33.9'
p885
S'CD'
p886
S'B-NP'
p887
g5
tp888
a(g848
g848
S'NN'
p889
S'I-NP'
p890
g5
tp891
a(g396
g396
g396
g5
g5
tp892
a(g53
g53
g53
g5
g5
tp893
a(S'diastolic'
p894
S'diastolic'
p895
S'JJ'
p896
S'B-NP'
p897
g5
tp898
a(S'blood'
p899
S'blood'
p900
S'NN'
p901
S'I-NP'
p902
g5
tp903
a(S'pressure'
p904
S'pressure'
p905
S'NN'
p906
S'I-NP'
p907
g5
tp908
a(S'greater'
p909
S'great'
p910
S'JJR'
p911
S'B-NP'
p912
g5
tp913
a(S'than'
p914
S'than'
p915
S'IN'
p916
S'I-NP'
p917
g5
tp918
a(S'90'
p919
S'90'
p920
S'CD'
p921
S'I-NP'
p922
g5
tp923
a(S'mm'
p924
S'mm'
p925
S'NN'
p926
S'I-NP'
p927
g5
tp928
a(S'Hg'
p929
S'Hg'
p930
S'NN'
p931
S'I-NP'
p932
g5
tp933
a(g333
g333
g333
g5
g5
tp934
a(S'111/901'
p935
S'111/901'
p936
S'CD'
p937
S'B-NP'
p938
g5
tp939
a(g841
g841
g7
g5
g5
tp940
a(S'12.3'
p941
S'12.3'
p942
S'CD'
p943
S'B-NP'
p944
g5
tp945
a(g848
g848
S'NN'
p946
S'I-NP'
p947
g5
tp948
a(g53
g53
g53
g5
g5
tp949
a(S'10.2'
p950
S'10.2'
p951
S'CD'
p952
S'B-NP'
p953
g5
tp954
a(g848
g848
S'NN'
p955
S'I-NP'
p956
g5
tp957
a(S'to'
p958
S'to'
p959
S'TO'
p960
S'B-PP'
p961
g5
tp962
a(S'14.5'
p963
S'14.5'
p964
S'CD'
p965
S'B-NP'
p966
g5
tp967
a(g848
g848
S'NN'
p968
S'I-NP'
p969
g5
tp970
a(g396
g396
g396
g5
g5
tp971
a(g53
g53
g53
g5
g5
tp972
a(S'and'
p973
S'and'
p974
S'CC'
p975
g5
g5
tp976
a(S'total'
p977
S'total'
p978
S'JJ'
p979
S'B-NP'
p980
g5
tp981
a(S'cholesterol'
p982
S'cholesterol'
p983
S'NN'
p984
S'I-NP'
p985
g5
tp986
a(S'concentration'
p987
S'concentration'
p988
S'NN'
p989
S'I-NP'
p990
g5
tp991
a(S'greater'
p992
S'great'
p993
S'JJR'
p994
S'B-ADJP'
p995
g5
tp996
a(S'than'
p997
S'than'
p998
S'IN'
p999
S'B-PP'
p1000
g5
tp1001
a(S'5'
p1002
g1002
S'CD'
p1003
S'B-NP'
p1004
g5
tp1005
a(S'mmol/l'
p1006
S'mmol/l'
p1007
S'NN'
p1008
S'I-NP'
p1009
g5
tp1010
a(g333
g333
g333
g5
g5
tp1011
a(S'188/860'
p1012
S'188/860'
p1013
S'CD'
p1014
S'B-NP'
p1015
g5
tp1016
a(g841
g841
g7
g5
g5
tp1017
a(S'20.8'
p1018
S'20.8'
p1019
S'CD'
p1020
S'B-NP'
p1021
g5
tp1022
a(g848
g848
S'NN'
p1023
S'I-NP'
p1024
g5
tp1025
a(g53
g53
g53
g5
g5
tp1026
a(S'19.1'
p1027
S'19.1'
p1028
S'CD'
p1029
S'B-NP'
p1030
g5
tp1031
a(g848
g848
S'NN'
p1032
S'I-NP'
p1033
g5
tp1034
a(S'to'
p1035
S'to'
p1036
S'TO'
p1037
S'B-PP'
p1038
g5
tp1039
a(S'24.6'
p1040
S'24.6'
p1041
S'CD'
p1042
S'B-NP'
p1043
g5
tp1044
a(g848
g848
S'NN'
p1045
S'I-NP'
p1046
g5
tp1047
a(g396
g396
g396
g5
g5
tp1048
a(g724
g724
g724
g5
g5
tp1049
a(S'At'
p1050
S'At'
p1051
S'IN'
p1052
S'B-PP'
p1053
g5
tp1054
a(S'the'
p1055
S'the'
p1056
S'DT'
p1057
S'B-NP'
p1058
g5
tp1059
a(S'18'
p1060
S'18'
p1061
S'CD'
p1062
S'I-NP'
p1063
g5
tp1064
a(S'month'
p1065
S'month'
p1066
S'NN'
p1067
S'I-NP'
p1068
g5
tp1069
a(S'follow-up'
p1070
S'follow-up'
p1071
S'NN'
p1072
S'I-NP'
p1073
g5
tp1074
a(S'there'
p1075
S'there'
p1076
S'EX'
p1077
S'B-NP'
p1078
g5
tp1079
a(S'were'
p1080
S'be'
p1081
S'VBD'
p1082
S'B-VP'
p1083
g5
tp1084
a(S'no'
p1085
S'no'
p1086
S'DT'
p1087
S'B-NP'
p1088
g5
tp1089
a(S'significant'
p1090
S'significant'
p1091
S'JJ'
p1092
S'I-NP'
p1093
g5
tp1094
a(S'differences'
p1095
S'difference'
p1096
S'NNS'
p1097
S'I-NP'
p1098
g5
tp1099
a(S'between'
p1100
S'between'
p1101
S'IN'
p1102
S'B-PP'
p1103
g5
tp1104
a(S'intervention'
p1105
S'intervention'
p1106
S'NN'
p1107
S'B-NP'
p1108
g5
tp1109
a(S'and'
p1110
S'and'
p1111
S'CC'
p1112
S'I-NP'
p1113
g5
tp1114
a(S'control'
p1115
S'control'
p1116
S'NN'
p1117
S'I-NP'
p1118
g5
tp1119
a(S'groups'
p1120
S'group'
p1121
S'NNS'
p1122
S'I-NP'
p1123
g5
tp1124
a(S'in'
p1125
S'in'
p1126
S'IN'
p1127
S'B-PP'
p1128
g5
tp1129
a(S'the'
p1130
S'the'
p1131
S'DT'
p1132
S'B-NP'
p1133
g5
tp1134
a(S'numbers'
p1135
S'number'
p1136
S'NNS'
p1137
S'I-NP'
p1138
g5
tp1139
a(g333
g333
g333
g5
g5
tp1140
a(S'proportions'
p1141
S'proportion'
p1142
S'NNS'
p1143
S'B-NP'
p1144
g5
tp1145
a(g396
g396
g396
g5
g5
tp1146
a(S'of'
p1147
S'of'
p1148
S'IN'
p1149
S'B-PP'
p1150
g5
tp1151
a(S'patients'
p1152
S'patient'
p1153
S'NNS'
p1154
S'B-NP'
p1155
g5
tp1156
a(S'above'
p1157
S'above'
p1158
S'IN'
p1159
S'B-PP'
p1160
g5
tp1161
a(S'the'
p1162
S'the'
p1163
S'DT'
p1164
S'B-NP'
p1165
g5
tp1166
a(S'recommended'
p1167
S'recommend'
p1168
S'VBN'
p1169
S'I-NP'
p1170
g5
tp1171
a(S'limits'
p1172
S'limit'
p1173
S'NNS'
p1174
S'I-NP'
p1175
g5
tp1176
a(g7
g7
g7
g5
g5
tp1177
a(S'systolic'
p1178
S'systolic'
p1179
S'JJ'
p1180
S'B-NP'
p1181
g5
tp1182
a(S'blood'
p1183
S'blood'
p1184
S'NN'
p1185
S'I-NP'
p1186
g5
tp1187
a(S'pressure'
p1188
S'pressure'
p1189
S'NN'
p1190
S'I-NP'
p1191
g5
tp1192
a(g53
g53
g53
g5
g5
tp1193
a(S'intervention'
p1194
S'intervention'
p1195
S'NN'
p1196
S'B-NP'
p1197
g5
tp1198
a(S'98/360'
p1199
S'98/360'
p1200
S'CD'
p1201
S'I-NP'
p1202
g5
tp1203
a(g333
g333
g333
g5
g5
tp1204
a(S'27.2'
p1205
S'27.2'
p1206
S'CD'
p1207
S'B-NP'
p1208
g5
tp1209
a(g848
g848
S'NN'
p1210
S'I-NP'
p1211
g5
tp1212
a(g396
g396
g396
g5
g5
tp1213
a(S'v'
p1214
g1214
S'NN'
p1215
S'B-NP'
p1216
g5
tp1217
a(S'control'
p1218
S'control'
p1219
S'NN'
p1220
S'I-NP'
p1221
g5
tp1222
a(g53
g53
g53
g5
g5
tp1223
a(S'133/405'
p1224
S'133/405'
p1225
S'CD'
p1226
S'B-NP'
p1227
g5
tp1228
a(g333
g333
g333
g5
g5
tp1229
a(S'32.8'
p1230
S'32.8'
p1231
S'CD'
p1232
S'B-NP'
p1233
g5
tp1234
a(g848
g848
S'NN'
p1235
S'I-NP'
p1236
g5
tp1237
a(g396
g396
g396
g5
g5
tp1238
a(g53
g53
g53
g5
g5
tp1239
a(S'odds'
p1240
S'odd'
p1241
S'VBZ'
p1242
S'B-VP'
p1243
g5
tp1244
a(S'ratio'
p1245
S'ratio'
p1246
S'NN'
p1247
S'B-NP'
p1248
g5
tp1249
a(S'1.51'
p1250
S'1.51'
p1251
S'CD'
p1252
S'I-NP'
p1253
g5
tp1254
a(g333
g333
g333
g5
g5
tp1255
a(S'95'
p1256
S'95'
p1257
S'CD'
p1258
S'B-NP'
p1259
g5
tp1260
a(g848
g848
S'NN'
p1261
S'I-NP'
p1262
g5
tp1263
a(S'confidence'
p1264
S'confidence'
p1265
S'NN'
p1266
S'I-NP'
p1267
g5
tp1268
a(S'interval'
p1269
S'interval'
p1270
S'NN'
p1271
S'I-NP'
p1272
g5
tp1273
a(S'0.99'
p1274
S'0.99'
p1275
S'CD'
p1276
S'I-NP'
p1277
g5
tp1278
a(S'to'
p1279
S'to'
p1280
S'TO'
p1281
S'B-PP'
p1282
g5
tp1283
a(S'2.30'
p1284
S'2.30'
p1285
S'CD'
p1286
S'B-NP'
p1287
g5
tp1288
a(g841
g841
g7
g5
g5
tp1289
a(S'P=0.06'
p1290
S'P=0.06'
p1291
S'NN'
p1292
S'B-NP'
p1293
g5
tp1294
a(g396
g396
g396
g5
g5
tp1295
a(g841
g841
g7
g5
g5
tp1296
a(S'diastolic'
p1297
S'diastolic'
p1298
S'JJ'
p1299
S'B-NP'
p1300
g5
tp1301
a(S'blood'
p1302
S'blood'
p1303
S'NN'
p1304
S'I-NP'
p1305
g5
tp1306
a(S'pressure'
p1307
S'pressure'
p1308
S'NN'
p1309
S'I-NP'
p1310
g5
tp1311
a(g53
g53
g53
g5
g5
tp1312
a(S'intervention'
p1313
S'intervention'
p1314
S'NN'
p1315
S'B-NP'
p1316
g5
tp1317
a(S'32/360'
p1318
S'32/360'
p1319
S'CD'
p1320
S'I-NP'
p1321
g5
tp1322
a(g333
g333
g333
g5
g5
tp1323
a(S'8.9'
p1324
S'8.9'
p1325
S'CD'
p1326
S'B-NP'
p1327
g5
tp1328
a(g848
g848
S'NN'
p1329
S'I-NP'
p1330
g5
tp1331
a(g396
g396
g396
g5
g5
tp1332
a(g1214
g1214
S'NN'
p1333
S'B-NP'
p1334
g5
tp1335
a(S'control'
p1336
S'control'
p1337
S'NN'
p1338
S'I-NP'
p1339
g5
tp1340
a(g53
g53
g53
g5
g5
tp1341
a(S'40/405'
p1342
S'40/405'
p1343
S'CD'
p1344
S'B-NP'
p1345
g5
tp1346
a(g333
g333
g333
g5
g5
tp1347
a(S'9.9'
p1348
S'9.9'
p1349
S'CD'
p1350
S'B-NP'
p1351
g5
tp1352
a(g848
g848
S'NN'
p1353
S'I-NP'
p1354
g5
tp1355
a(g396
g396
g396
g5
g5
tp1356
a(g53
g53
g53
g5
g5
tp1357
a(S'1.40'
p1358
S'1.40'
p1359
S'CD'
p1360
S'B-NP'
p1361
g5
tp1362
a(g333
g333
g333
g5
g5
tp1363
a(S'0.75'
p1364
S'0.75'
p1365
S'CD'
p1366
S'B-NP'
p1367
g5
tp1368
a(S'to'
p1369
S'to'
p1370
S'TO'
p1371
g5
g5
tp1372
a(S'2.64'
p1373
S'2.64'
p1374
S'CD'
p1375
S'B-NP'
p1376
g5
tp1377
a(g841
g841
g7
g5
g5
tp1378
a(S'P=0.29'
p1379
S'P=0.29'
p1380
S'NN'
p1381
S'B-NP'
p1382
g5
tp1383
a(g396
g396
g396
g5
g5
tp1384
a(g841
g841
g7
g5
g5
tp1385
a(S'and'
p1386
S'and'
p1387
S'CC'
p1388
g5
g5
tp1389
a(S'total'
p1390
S'total'
p1391
S'JJ'
p1392
S'B-NP'
p1393
g5
tp1394
a(S'cholesterol'
p1395
S'cholesterol'
p1396
S'NN'
p1397
S'I-NP'
p1398
g5
tp1399
a(S'concentration'
p1400
S'concentration'
p1401
S'NN'
p1402
S'I-NP'
p1403
g5
tp1404
a(g53
g53
g53
g5
g5
tp1405
a(S'intervention'
p1406
S'intervention'
p1407
S'NN'
p1408
S'B-NP'
p1409
g5
tp1410
a(S'52/342'
p1411
S'52/342'
p1412
S'CD'
p1413
S'I-NP'
p1414
g5
tp1415
a(g333
g333
g333
g5
g5
tp1416
a(S'15.2'
p1417
S'15.2'
p1418
S'CD'
p1419
S'B-NP'
p1420
g5
tp1421
a(g848
g848
S'NN'
p1422
S'I-NP'
p1423
g5
tp1424
a(g396
g396
g396
g5
g5
tp1425
a(g1214
g1214
S'NN'
p1426
S'B-NP'
p1427
g5
tp1428
a(S'control'
p1429
S'control'
p1430
S'NN'
p1431
S'I-NP'
p1432
g5
tp1433
a(g53
g53
g53
g5
g5
tp1434
a(S'64/391'
p1435
S'64/391'
p1436
S'CD'
p1437
S'B-NP'
p1438
g5
tp1439
a(g333
g333
g333
g5
g5
tp1440
a(S'16.4'
p1441
S'16.4'
p1442
S'CD'
p1443
S'B-NP'
p1444
g5
tp1445
a(g848
g848
S'NN'
p1446
S'I-NP'
p1447
g5
tp1448
a(g396
g396
g396
g5
g5
tp1449
a(g53
g53
g53
g5
g5
tp1450
a(S'1.13'
p1451
S'1.13'
p1452
S'CD'
p1453
S'B-NP'
p1454
g5
tp1455
a(g333
g333
g333
g5
g5
tp1456
a(S'0.63'
p1457
S'0.63'
p1458
S'CD'
p1459
S'B-NP'
p1460
g5
tp1461
a(S'to'
p1462
S'to'
p1463
S'TO'
p1464
g5
g5
tp1465
a(S'2.03'
p1466
S'2.03'
p1467
S'CD'
p1468
S'B-NP'
p1469
g5
tp1470
a(g841
g841
g7
g5
g5
tp1471
a(S'P=0.65'
p1472
S'P=0.65'
p1473
S'NN'
p1474
S'B-NP'
p1475
g5
tp1476
a(g396
g396
g396
g5
g5
tp1477
a(g724
g724
g724
g5
g5
tp1478
a(S'The'
p1479
S'The'
p1480
S'DT'
p1481
S'B-NP'
p1482
g5
tp1483
a(S'number'
p1484
S'number'
p1485
S'NN'
p1486
S'I-NP'
p1487
g5
tp1488
a(S'of'
p1489
S'of'
p1490
S'IN'
p1491
S'B-PP'
p1492
g5
tp1493
a(S'patients'
p1494
S'patient'
p1495
S'NNS'
p1496
S'B-NP'
p1497
g5
tp1498
a(S'admitted'
p1499
S'admit'
p1500
S'VBN'
p1501
S'B-VP'
p1502
g5
tp1503
a(S'to'
p1504
S'to'
p1505
S'TO'
p1506
S'B-PP'
p1507
g5
tp1508
a(S'hospital'
p1509
S'hospital'
p1510
S'NN'
p1511
S'B-NP'
p1512
g5
tp1513
a(S'over'
p1514
S'over'
p1515
S'IN'
p1516
S'B-PP'
p1517
g5
tp1518
a(S'the'
p1519
S'the'
p1520
S'DT'
p1521
S'B-NP'
p1522
g5
tp1523
a(S'18'
p1524
S'18'
p1525
S'CD'
p1526
S'I-NP'
p1527
g5
tp1528
a(S'month'
p1529
S'month'
p1530
S'NN'
p1531
S'I-NP'
p1532
g5
tp1533
a(S'study'
p1534
S'study'
p1535
S'NN'
p1536
S'I-NP'
p1537
g5
tp1538
a(S'period'
p1539
S'period'
p1540
S'NN'
p1541
S'I-NP'
p1542
g5
tp1543
a(S'significantly'
p1544
S'significantly'
p1545
S'RB'
p1546
S'B-VP'
p1547
g5
tp1548
a(S'decreased'
p1549
S'decrease'
p1550
S'VBN'
p1551
S'I-VP'
p1552
g5
tp1553
a(S'in'
p1554
S'in'
p1555
S'IN'
p1556
S'B-PP'
p1557
g5
tp1558
a(S'the'
p1559
S'the'
p1560
S'DT'
p1561
S'B-NP'
p1562
g5
tp1563
a(S'intervention'
p1564
S'intervention'
p1565
S'NN'
p1566
S'I-NP'
p1567
g5
tp1568
a(S'group'
p1569
S'group'
p1570
S'NN'
p1571
S'I-NP'
p1572
g5
tp1573
a(S'compared'
p1574
S'compare'
p1575
S'VBN'
p1576
S'B-PP'
p1577
g5
tp1578
a(S'with'
p1579
S'with'
p1580
S'IN'
p1581
S'B-PP'
p1582
g5
tp1583
a(S'the'
p1584
S'the'
p1585
S'DT'
p1586
S'B-NP'
p1587
g5
tp1588
a(S'control'
p1589
S'control'
p1590
S'NN'
p1591
S'I-NP'
p1592
g5
tp1593
a(S'group'
p1594
S'group'
p1595
S'NN'
p1596
S'I-NP'
p1597
g5
tp1598
a(g7
g7
g7
g5
g5
tp1599
a(S'107/415'
p1600
S'107/415'
p1601
S'CD'
p1602
S'B-NP'
p1603
g5
tp1604
a(g333
g333
g333
g5
g5
tp1605
a(S'25.8'
p1606
S'25.8'
p1607
S'CD'
p1608
S'B-NP'
p1609
g5
tp1610
a(g848
g848
S'NN'
p1611
S'I-NP'
p1612
g5
tp1613
a(g396
g396
g396
g5
g5
tp1614
a(g1214
g1214
S'NN'
p1615
S'B-NP'
p1616
g5
tp1617
a(S'148/435'
p1618
S'148/435'
p1619
S'CD'
p1620
S'I-NP'
p1621
g5
tp1622
a(g333
g333
g333
g5
g5
tp1623
a(S'34.0'
p1624
S'34.0'
p1625
S'CD'
p1626
S'B-NP'
p1627
g5
tp1628
a(g848
g848
S'NN'
p1629
S'I-NP'
p1630
g5
tp1631
a(g396
g396
g396
g5
g5
tp1632
a(g53
g53
g53
g5
g5
tp1633
a(S'1.56'
p1634
S'1.56'
p1635
S'CD'
p1636
S'B-NP'
p1637
g5
tp1638
a(g333
g333
g333
g5
g5
tp1639
a(S'1.53'
p1640
S'1.53'
p1641
S'CD'
p1642
S'B-NP'
p1643
g5
tp1644
a(S'to'
p1645
S'to'
p1646
S'TO'
p1647
g5
g5
tp1648
a(S'2.60'
p1649
S'2.60'
p1650
S'CD'
p1651
S'B-NP'
p1652
g5
tp1653
a(g841
g841
g7
g5
g5
tp1654
a(S'P=0.03'
p1655
S'P=0.03'
p1656
S'NN'
p1657
S'B-NP'
p1658
g5
tp1659
a(g396
g396
g396
g5
g5
tp1660
a(g724
g724
g724
g5
g5
tp1661
a(S'CONCLUSIONS'
p1662
S'CONCLUSIONS'
p1663
S'NNS'
p1664
S'B-NP'
p1665
g5
tp1666
a(g7
g7
g7
g5
g5
tp1667
a(S'Admissions'
p1668
S'Admission'
p1669
S'NNS'
p1670
S'B-NP'
p1671
g5
tp1672
a(S'to'
p1673
S'to'
p1674
S'TO'
p1675
S'B-PP'
p1676
g5
tp1677
a(S'hospital'
p1678
S'hospital'
p1679
S'NN'
p1680
S'B-NP'
p1681
g5
tp1682
a(S'were'
p1683
S'be'
p1684
S'VBD'
p1685
S'B-VP'
p1686
g5
tp1687
a(S'significantly'
p1688
S'significantly'
p1689
S'RB'
p1690
S'I-VP'
p1691
g5
tp1692
a(S'reduced'
p1693
S'reduce'
p1694
S'VBN'
p1695
S'I-VP'
p1696
g5
tp1697
a(S'after'
p1698
S'after'
p1699
S'IN'
p1700
S'B-PP'
p1701
g5
tp1702
a(S'an'
p1703
S'an'
p1704
S'DT'
p1705
S'B-NP'
p1706
g5
tp1707
a(S'intensive'
p1708
S'intensive'
p1709
S'JJ'
p1710
S'I-NP'
p1711
g5
tp1712
a(S'18'
p1713
S'18'
p1714
S'CD'
p1715
S'I-NP'
p1716
g5
tp1717
a(S'month'
p1718
S'month'
p1719
S'NN'
p1720
S'I-NP'
p1721
g5
tp1722
a(S'intervention'
p1723
S'intervention'
p1724
S'NN'
p1725
S'I-NP'
p1726
g5
tp1727
a(S'to'
p1728
S'to'
p1729
S'TO'
p1730
S'B-VP'
p1731
g5
tp1732
a(S'improve'
p1733
S'improve'
p1734
S'VB'
p1735
S'I-VP'
p1736
g5
tp1737
a(S'outcomes'
p1738
S'outcome'
p1739
S'NNS'
p1740
S'B-NP'
p1741
g5
tp1742
a(S'for'
p1743
S'for'
p1744
S'IN'
p1745
S'B-PP'
p1746
g5
tp1747
a(S'patients'
p1748
S'patient'
p1749
S'NNS'
p1750
S'B-NP'
p1751
g5
tp1752
a(S'with'
p1753
S'with'
p1754
S'IN'
p1755
S'B-PP'
p1756
g5
tp1757
a(S'coronary'
p1758
S'coronary'
p1759
S'JJ'
p1760
S'B-NP'
p1761
g5
tp1762
a(S'heart'
p1763
S'heart'
p1764
S'NN'
p1765
S'I-NP'
p1766
g5
tp1767
a(S'disease'
p1768
S'disease'
p1769
S'NN'
p1770
S'I-NP'
p1771
g5
tp1772
a(g53
g53
g53
g5
g5
tp1773
a(S'but'
p1774
S'but'
p1775
S'CC'
p1776
g5
g5
tp1777
a(S'no'
p1778
S'no'
p1779
S'DT'
p1780
S'B-NP'
p1781
g5
tp1782
a(S'other'
p1783
S'other'
p1784
S'JJ'
p1785
S'I-NP'
p1786
g5
tp1787
a(S'clinical'
p1788
S'clinical'
p1789
S'JJ'
p1790
S'I-NP'
p1791
g5
tp1792
a(S'benefits'
p1793
S'benefit'
p1794
S'NNS'
p1795
S'I-NP'
p1796
g5
tp1797
a(S'were'
p1798
S'be'
p1799
S'VBD'
p1800
S'B-VP'
p1801
g5
tp1802
a(S'shown'
p1803
S'show'
p1804
S'VBN'
p1805
S'I-VP'
p1806
g5
tp1807
a(g53
g53
g53
g5
g5
tp1808
a(S'possibly'
p1809
S'possibly'
p1810
S'RB'
p1811
S'B-ADVP'
p1812
g5
tp1813
a(S'because'
p1814
S'because'
p1815
S'IN'
p1816
S'B-PP'
p1817
g5
tp1818
a(S'of'
p1819
S'of'
p1820
S'IN'
p1821
S'I-PP'
p1822
g5
tp1823
a(g34
g34
S'DT'
p1824
S'B-NP'
p1825
g5
tp1826
a(S'ceiling'
p1827
S'ceiling'
p1828
S'NN'
p1829
S'I-NP'
p1830
g5
tp1831
a(S'effect'
p1832
S'effect'
p1833
S'NN'
p1834
S'I-NP'
p1835
g5
tp1836
a(S'related'
p1837
S'relate'
p1838
S'VBN'
p1839
S'B-VP'
p1840
g5
tp1841
a(S'to'
p1842
S'to'
p1843
S'TO'
p1844
S'B-PP'
p1845
g5
tp1846
a(S'improved'
p1847
S'improve'
p1848
S'VBN'
p1849
S'B-NP'
p1850
g5
tp1851
a(S'management'
p1852
S'management'
p1853
S'NN'
p1854
S'I-NP'
p1855
g5
tp1856
a(S'of'
p1857
S'of'
p1858
S'IN'
p1859
S'B-PP'
p1860
g5
tp1861
a(S'the'
p1862
S'the'
p1863
S'DT'
p1864
S'B-NP'
p1865
g5
tp1866
a(S'disease.'
p1867
S'disease.'
p1868
S'NN'
p1869
S'I-NP'
p1870
g5
tp1871
a(S'TRIAL'
p1872
S'TRIAL'
p1873
S'NN'
p1874
S'B-NP'
p1875
g5
tp1876
a(S'REGISTRATION'
p1877
S'REGISTRATION'
p1878
S'NN'
p1879
S'I-NP'
p1880
g5
tp1881
a(g7
g7
g7
g5
g5
tp1882
a(S'Current'
p1883
S'Current'
p1884
S'JJ'
p1885
S'B-NP'
p1886
g5
tp1887
a(S'Controlled'
p1888
S'Controlled'
p1889
S'JJ'
p1890
S'I-NP'
p1891
g5
tp1892
a(S'Trials'
p1893
S'Trial'
p1894
S'NNS'
p1895
S'I-NP'
p1896
g5
tp1897
a(S'ISRCTN24081411'
p1898
S'ISRCTN24081411'
p1899
S'NN'
p1900
S'I-NP'
p1901
g5
tp1902
a(g724
g724
g724
g5
g5
tp1903
a.