(lp0
(S'OBJECTIVE'
p1
S'OBJECTIVE'
p2
S'NN'
p3
S'B-NP'
p4
S'O'
p5
tp6
a(S':'
p7
g7
g7
g5
g5
tp8
a(S'To'
p9
S'To'
p10
S'TO'
p11
S'B-VP'
p12
g5
tp13
a(S'determine'
p14
S'determine'
p15
S'VB'
p16
S'I-VP'
p17
g5
tp18
a(S'whether'
p19
S'whether'
p20
S'IN'
p21
S'B-SBAR'
p22
g5
tp23
a(S'modifying'
p24
S'modify'
p25
S'VBG'
p26
S'B-VP'
p27
g5
tp28
a(S'eating'
p29
S'eat'
p30
S'VBG'
p31
S'B-NP'
p32
g5
tp33
a(S'behaviour'
p34
S'behaviour'
p35
S'NN'
p36
S'I-NP'
p37
g5
tp38
a(S'with'
p39
S'with'
p40
S'IN'
p41
S'B-PP'
p42
g5
tp43
a(S'use'
p44
S'use'
p45
S'NN'
p46
S'B-NP'
p47
g5
tp48
a(S'of'
p49
S'of'
p50
S'IN'
p51
S'B-PP'
p52
g5
tp53
a(S'a'
p54
g54
S'DT'
p55
S'B-NP'
p56
g5
tp57
a(S'feedback'
p58
S'feedback'
p59
S'NN'
p60
S'I-NP'
p61
g5
tp62
a(S'device'
p63
S'device'
p64
S'NN'
p65
S'I-NP'
p66
g5
tp67
a(S'facilitates'
p68
S'facilitate'
p69
S'VBZ'
p70
S'B-VP'
p71
g5
tp72
a(S'weight'
p73
S'weight'
p74
S'NN'
p75
S'B-NP'
p76
g5
tp77
a(S'loss'
p78
S'loss'
p79
S'NN'
p80
S'I-NP'
p81
g5
tp82
a(S'in'
p83
S'in'
p84
S'IN'
p85
S'B-PP'
p86
g5
tp87
a(S'obese'
p88
S'obese'
p89
S'JJ'
p90
S'B-NP'
p91
g5
tp92
a(S'adolescents.'
p93
S'adolescents.'
p94
S'NNS'
p95
S'I-NP'
p96
g5
tp97
a(S'DESIGN'
p98
S'DESIGN'
p99
S'NN'
p100
S'B-NP'
p101
g5
tp102
a(g7
g7
g7
g5
g5
tp103
a(S'Randomised'
p104
S'Randomise'
p105
S'VBN'
p106
S'B-VP'
p107
g5
tp108
a(S'controlled'
p109
S'control'
p110
S'VBN'
p111
S'B-NP'
p112
g5
tp113
a(S'trial'
p114
S'trial'
p115
S'NN'
p116
S'I-NP'
p117
g5
tp118
a(S'with'
p119
S'with'
p120
S'IN'
p121
S'B-PP'
p122
g5
tp123
a(S'12'
p124
S'12'
p125
S'CD'
p126
S'B-NP'
p127
g5
tp128
a(S'month'
p129
S'month'
p130
S'NN'
p131
S'I-NP'
p132
g5
tp133
a(S'intervention.'
p134
S'intervention.'
p135
S'NN'
p136
S'I-NP'
p137
g5
tp138
a(S'SETTING'
p139
S'SETTING'
p140
S'NN'
p141
S'B-NP'
p142
g5
tp143
a(g7
g7
g7
g5
g5
tp144
a(S'Hospital'
p145
S'Hospital'
p146
S'NN'
p147
S'B-NP'
p148
g5
tp149
a(S'based'
p150
S'based'
p151
S'JJ'
p152
S'I-NP'
p153
g5
tp154
a(S'obesity'
p155
S'obesity'
p156
S'NN'
p157
S'I-NP'
p158
g5
tp159
a(S'clinic.'
p160
S'clinic.'
p161
S'NN'
p162
S'I-NP'
p163
g5
tp164
a(S'PARTICIPANTS'
p165
S'PARTICIPANTS'
p166
S'NNS'
p167
S'B-NP'
p168
g5
tp169
a(g7
g7
g7
g5
g5
tp170
a(S'106'
p171
S'106'
p172
S'CD'
p173
S'B-NP'
p174
g5
tp175
a(S'newly'
p176
S'newly'
p177
S'RB'
p178
S'I-NP'
p179
g5
tp180
a(S'referred'
p181
S'refer'
p182
S'VBN'
p183
S'I-NP'
p184
g5
tp185
a(S'obese'
p186
S'obese'
p187
S'JJ'
p188
S'I-NP'
p189
g5
tp190
a(S'young'
p191
S'young'
p192
S'JJ'
p193
S'I-NP'
p194
g5
tp195
a(S'people'
p196
S'people'
p197
S'NNS'
p198
S'I-NP'
p199
g5
tp200
a(S'aged'
p201
S'age'
p202
S'VBN'
p203
S'B-VP'
p204
g5
tp205
a(S'9-17.'
p206
S'9-17.'
p207
S'CD'
p208
S'B-NP'
p209
g5
tp210
a(S'INTERVENTIONS'
p211
S'INTERVENTIONS'
p212
S'NNS'
p213
S'B-NP'
p214
g5
tp215
a(g7
g7
g7
g5
g5
tp216
a(S'A'
p217
g217
S'DT'
p218
S'B-NP'
p219
g5
tp220
a(S'computerised'
p221
S'computerised'
p222
S'JJ'
p223
S'I-NP'
p224
g5
tp225
a(S'device'
p226
S'device'
p227
S'NN'
p228
S'I-NP'
p229
g5
tp230
a(S','
p231
g231
g231
g5
g5
tp232
a(S'Mandometer'
p233
S'Mandometer'
p234
S'NNP'
p235
S'B-NP'
p236
g5
tp237
a(g231
g231
g231
g5
g5
tp238
a(S'providing'
p239
S'provide'
p240
S'VBG'
p241
S'B-VP'
p242
g5
tp243
a(S'real'
p244
S'real'
p245
S'JJ'
p246
S'B-NP'
p247
g5
tp248
a(S'time'
p249
S'time'
p250
S'NN'
p251
S'I-NP'
p252
g5
tp253
a(S'feedback'
p254
S'feedback'
p255
S'NN'
p256
S'I-NP'
p257
g5
tp258
a(S'to'
p259
S'to'
p260
S'TO'
p261
S'B-PP'
p262
g5
tp263
a(S'participants'
p264
S'participant'
p265
S'NNS'
p266
S'B-NP'
p267
g5
tp268
a(S'during'
p269
S'during'
p270
S'IN'
p271
S'B-PP'
p272
g5
tp273
a(S'meals'
p274
S'meal'
p275
S'NNS'
p276
S'B-NP'
p277
g5
tp278
a(S'to'
p279
S'to'
p280
S'TO'
p281
S'B-VP'
p282
g5
tp283
a(S'slow'
p284
S'slow'
p285
S'VB'
p286
S'I-VP'
p287
g5
tp288
a(S'down'
p289
S'down'
p290
S'RP'
p291
S'B-PRT'
p292
g5
tp293
a(S'speed'
p294
S'speed'
p295
S'NN'
p296
S'B-NP'
p297
g5
tp298
a(S'of'
p299
S'of'
p300
S'IN'
p301
S'B-PP'
p302
g5
tp303
a(S'eating'
p304
S'eat'
p305
S'VBG'
p306
S'B-VP'
p307
g5
tp308
a(S'and'
p309
S'and'
p310
S'CC'
p311
g5
g5
tp312
a(S'reduce'
p313
S'reduce'
p314
S'VB'
p315
S'B-VP'
p316
g5
tp317
a(S'total'
p318
S'total'
p319
S'JJ'
p320
S'B-NP'
p321
g5
tp322
a(S'intake'
p323
S'intake'
p324
S'NN'
p325
S'I-NP'
p326
g5
tp327
a(S';'
p328
g328
g7
g5
g5
tp329
a(S'standard'
p330
S'standard'
p331
S'JJ'
p332
S'B-NP'
p333
g5
tp334
a(S'lifestyle'
p335
S'lifestyle'
p336
S'NN'
p337
S'I-NP'
p338
g5
tp339
a(S'modification'
p340
S'modification'
p341
S'NN'
p342
S'I-NP'
p343
g5
tp344
a(S'therapy.'
p345
S'therapy.'
p346
S'RB'
p347
S'B-ADVP'
p348
g5
tp349
a(S'MAIN'
p350
S'MAIN'
p351
S'NNP'
p352
S'B-NP'
p353
g5
tp354
a(S'OUTCOME'
p355
S'OUTCOME'
p356
S'NNP'
p357
S'I-NP'
p358
g5
tp359
a(S'MEASURES'
p360
S'MEASURES'
p361
S'NNP'
p362
S'I-NP'
p363
g5
tp364
a(g7
g7
g7
g5
g5
tp365
a(S'Change'
p366
S'Change'
p367
S'NN'
p368
S'B-NP'
p369
g5
tp370
a(S'in'
p371
S'in'
p372
S'IN'
p373
S'B-PP'
p374
g5
tp375
a(S'body'
p376
S'body'
p377
S'NN'
p378
S'B-NP'
p379
g5
tp380
a(S'mass'
p381
S'mass'
p382
S'NN'
p383
S'I-NP'
p384
g5
tp385
a(S'index'
p386
S'index'
p387
S'NN'
p388
S'I-NP'
p389
g5
tp390
a(S'('
p391
g391
g391
g5
g5
tp392
a(S'BMI'
p393
S'BMI'
p394
S'NN'
p395
S'B-NP'
p396
g5
tp397
a(S')'
p398
g398
g398
g5
g5
tp399
a(S'standard'
p400
S'standard'
p401
S'JJ'
p402
S'B-NP'
p403
g5
tp404
a(S'deviation'
p405
S'deviation'
p406
S'NN'
p407
S'I-NP'
p408
g5
tp409
a(S'score'
p410
S'score'
p411
S'NN'
p412
S'I-NP'
p413
g5
tp414
a(g391
g391
g391
g5
g5
tp415
a(S'SDS'
p416
S'SDS'
p417
S'NN'
p418
S'B-NP'
p419
g5
tp420
a(g398
g398
g398
g5
g5
tp421
a(S'over'
p422
S'over'
p423
S'IN'
p424
S'B-PP'
p425
g5
tp426
a(S'12'
p427
S'12'
p428
S'CD'
p429
S'B-NP'
p430
g5
tp431
a(S'months'
p432
S'month'
p433
S'NNS'
p434
S'I-NP'
p435
g5
tp436
a(S'with'
p437
S'with'
p438
S'IN'
p439
S'B-PP'
p440
g5
tp441
a(S'assessment'
p442
S'assessment'
p443
S'NN'
p444
S'B-NP'
p445
g5
tp446
a(S'18'
p447
S'18'
p448
S'CD'
p449
S'I-NP'
p450
g5
tp451
a(S'months'
p452
S'month'
p453
S'NNS'
p454
S'I-NP'
p455
g5
tp456
a(S'after'
p457
S'after'
p458
S'IN'
p459
S'B-PP'
p460
g5
tp461
a(S'the'
p462
S'the'
p463
S'DT'
p464
S'B-NP'
p465
g5
tp466
a(S'start'
p467
S'start'
p468
S'NN'
p469
S'I-NP'
p470
g5
tp471
a(S'of'
p472
S'of'
p473
S'IN'
p474
S'B-PP'
p475
g5
tp476
a(S'the'
p477
S'the'
p478
S'DT'
p479
S'B-NP'
p480
g5
tp481
a(S'intervention.'
p482
S'intervention.'
p483
S'NN'
p484
S'I-NP'
p485
g5
tp486
a(S'Secondary'
p487
S'Secondary'
p488
S'JJ'
p489
S'B-NP'
p490
g5
tp491
a(S'outcomes'
p492
S'outcome'
p493
S'NNS'
p494
S'I-NP'
p495
g5
tp496
a(S'were'
p497
S'be'
p498
S'VBD'
p499
S'B-VP'
p500
g5
tp501
a(S'body'
p502
S'body'
p503
S'NN'
p504
S'B-NP'
p505
g5
tp506
a(S'fat'
p507
S'fat'
p508
S'NN'
p509
S'I-NP'
p510
g5
tp511
a(S'SDS'
p512
S'SDS'
p513
S'NN'
p514
S'I-NP'
p515
g5
tp516
a(g231
g231
g231
g5
g5
tp517
a(S'metabolic'
p518
S'metabolic'
p519
S'JJ'
p520
S'B-NP'
p521
g5
tp522
a(S'status'
p523
S'status'
p524
S'NN'
p525
S'I-NP'
p526
g5
tp527
a(g231
g231
g231
g5
g5
tp528
a(S'quality'
p529
S'quality'
p530
S'NN'
p531
S'B-NP'
p532
g5
tp533
a(S'of'
p534
S'of'
p535
S'IN'
p536
S'B-PP'
p537
g5
tp538
a(S'life'
p539
S'life'
p540
S'NN'
p541
S'B-NP'
p542
g5
tp543
a(S'evaluation'
p544
S'evaluation'
p545
S'NN'
p546
S'I-NP'
p547
g5
tp548
a(g231
g231
g231
g5
g5
tp549
a(S'change'
p550
S'change'
p551
S'NN'
p552
S'B-NP'
p553
g5
tp554
a(S'in'
p555
S'in'
p556
S'IN'
p557
S'B-PP'
p558
g5
tp559
a(S'portion'
p560
S'portion'
p561
S'NN'
p562
S'B-NP'
p563
g5
tp564
a(S'size'
p565
S'size'
p566
S'NN'
p567
S'I-NP'
p568
g5
tp569
a(g231
g231
g231
g5
g5
tp570
a(S'and'
p571
S'and'
p572
S'CC'
p573
g5
g5
tp574
a(S'eating'
p575
S'eat'
p576
S'VBG'
p577
S'B-VP'
p578
g5
tp579
a(S'speed.'
p580
S'speed.'
p581
S'NN'
p582
S'B-NP'
p583
g5
tp584
a(S'RESULTS'
p585
S'RESULTS'
p586
S'NNS'
p587
S'B-NP'
p588
g5
tp589
a(g7
g7
g7
g5
g5
tp590
a(S'Using'
p591
S'Use'
p592
S'VBG'
p593
S'B-VP'
p594
g5
tp595
a(S'the'
p596
S'the'
p597
S'DT'
p598
S'B-NP'
p599
g5
tp600
a(S'last'
p601
S'last'
p602
S'JJ'
p603
S'I-NP'
p604
g5
tp605
a(S'available'
p606
S'available'
p607
S'JJ'
p608
S'I-NP'
p609
g5
tp610
a(S'data'
p611
S'datum'
p612
S'NNS'
p613
S'I-NP'
p614
g5
tp615
a(S'on'
p616
S'on'
p617
S'IN'
p618
S'B-PP'
p619
g5
tp620
a(S'all'
p621
S'all'
p622
S'DT'
p623
S'B-NP'
p624
g5
tp625
a(S'participants'
p626
S'participant'
p627
S'NNS'
p628
S'I-NP'
p629
g5
tp630
a(g391
g391
g391
g5
g5
tp631
a(S'n=106'
p632
S'n=106'
p633
S'NN'
p634
S'B-NP'
p635
S'B-protein'
p636
tp637
a(g398
g398
g398
g5
g5
tp638
a(g231
g231
g231
g5
g5
tp639
a(S'those'
p640
S'those'
p641
S'DT'
p642
S'B-NP'
p643
g5
tp644
a(S'in'
p645
S'in'
p646
S'IN'
p647
S'B-PP'
p648
g5
tp649
a(S'the'
p650
S'the'
p651
S'DT'
p652
S'B-NP'
p653
g5
tp654
a(S'Mandometer'
p655
S'Mandometer'
p656
S'NNP'
p657
S'I-NP'
p658
g5
tp659
a(S'group'
p660
S'group'
p661
S'NN'
p662
S'I-NP'
p663
g5
tp664
a(S'had'
p665
S'have'
p666
S'VBD'
p667
S'B-VP'
p668
g5
tp669
a(S'significantly'
p670
S'significantly'
p671
S'RB'
p672
S'B-NP'
p673
g5
tp674
a(S'lower'
p675
S'low'
p676
S'JJR'
p677
S'I-NP'
p678
g5
tp679
a(S'mean'
p680
S'mean'
p681
S'JJ'
p682
S'I-NP'
p683
g5
tp684
a(S'BMI'
p685
S'BMI'
p686
S'NN'
p687
S'I-NP'
p688
g5
tp689
a(S'SDS'
p690
S'SDS'
p691
S'NN'
p692
S'I-NP'
p693
g5
tp694
a(S'at'
p695
S'at'
p696
S'IN'
p697
S'B-PP'
p698
g5
tp699
a(S'12'
p700
S'12'
p701
S'CD'
p702
S'B-NP'
p703
g5
tp704
a(S'months'
p705
S'month'
p706
S'NNS'
p707
S'I-NP'
p708
g5
tp709
a(S'compared'
p710
S'compare'
p711
S'VBN'
p712
S'B-PP'
p713
g5
tp714
a(S'with'
p715
S'with'
p716
S'IN'
p717
S'B-PP'
p718
g5
tp719
a(S'standard'
p720
S'standard'
p721
S'JJ'
p722
S'B-NP'
p723
g5
tp724
a(S'care'
p725
S'care'
p726
S'NN'
p727
S'I-NP'
p728
g5
tp729
a(g391
g391
g391
g5
g5
tp730
a(S'baseline'
p731
S'baseline'
p732
S'NN'
p733
S'B-NP'
p734
g5
tp735
a(S'adjusted'
p736
S'adjust'
p737
S'VBN'
p738
S'B-VP'
p739
g5
tp740
a(S'mean'
p741
S'mean'
p742
S'JJ'
p743
S'B-NP'
p744
g5
tp745
a(S'difference'
p746
S'difference'
p747
S'NN'
p748
S'I-NP'
p749
g5
tp750
a(S'0.24'
p751
S'0.24'
p752
S'CD'
p753
S'I-NP'
p754
g5
tp755
a(g231
g231
g231
g5
g5
tp756
a(S'95'
p757
S'95'
p758
S'CD'
p759
S'B-NP'
p760
g5
tp761
a(S'%'
p762
g762
S'NN'
p763
S'I-NP'
p764
g5
tp765
a(S'confidence'
p766
S'confidence'
p767
S'NN'
p768
S'I-NP'
p769
g5
tp770
a(S'interval'
p771
S'interval'
p772
S'NN'
p773
S'I-NP'
p774
g5
tp775
a(S'0.11'
p776
S'0.11'
p777
S'CD'
p778
S'B-NP'
p779
g5
tp780
a(S'to'
p781
S'to'
p782
S'TO'
p783
S'I-NP'
p784
g5
tp785
a(S'0.36'
p786
S'0.36'
p787
S'CD'
p788
S'I-NP'
p789
g5
tp790
a(g398
g398
g398
g5
g5
tp791
a(S'.'
p792
g792
g792
g5
g5
tp793
a(S'Similar'
p794
S'Similar'
p795
S'JJ'
p796
S'B-NP'
p797
g5
tp798
a(S'results'
p799
S'result'
p800
S'NNS'
p801
S'I-NP'
p802
g5
tp803
a(S'were'
p804
S'be'
p805
S'VBD'
p806
S'B-VP'
p807
g5
tp808
a(S'obtained'
p809
S'obtain'
p810
S'VBN'
p811
S'I-VP'
p812
g5
tp813
a(S'when'
p814
S'when'
p815
S'WRB'
p816
S'B-ADVP'
p817
g5
tp818
a(S'analyses'
p819
S'analysis'
p820
S'NNS'
p821
S'B-NP'
p822
g5
tp823
a(S'included'
p824
S'include'
p825
S'VBD'
p826
S'B-VP'
p827
g5
tp828
a(S'only'
p829
S'only'
p830
S'RB'
p831
S'B-NP'
p832
g5
tp833
a(S'the'
p834
S'the'
p835
S'DT'
p836
S'I-NP'
p837
g5
tp838
a(S'91'
p839
S'91'
p840
S'CD'
p841
S'I-NP'
p842
g5
tp843
a(S'who'
p844
S'who'
p845
S'WP'
p846
S'B-NP'
p847
g5
tp848
a(S'attended'
p849
S'attend'
p850
S'VBD'
p851
S'B-VP'
p852
g5
tp853
a(S'per'
p854
S'per'
p855
S'IN'
p856
S'B-PP'
p857
g5
tp858
a(S'protocol'
p859
S'protocol'
p860
S'NN'
p861
S'B-NP'
p862
g5
tp863
a(g391
g391
g391
g5
g5
tp864
a(S'baseline'
p865
S'baseline'
p866
S'NN'
p867
S'B-NP'
p868
g5
tp869
a(S'adjusted'
p870
S'adjust'
p871
S'VBN'
p872
S'B-VP'
p873
g5
tp874
a(S'mean'
p875
S'mean'
p876
S'JJ'
p877
S'B-NP'
p878
g5
tp879
a(S'difference'
p880
S'difference'
p881
S'NN'
p882
S'I-NP'
p883
g5
tp884
a(S'0.27'
p885
S'0.27'
p886
S'CD'
p887
S'I-NP'
p888
g5
tp889
a(g231
g231
g231
g5
g5
tp890
a(S'0.14'
p891
S'0.14'
p892
S'CD'
p893
S'B-NP'
p894
g5
tp895
a(S'to'
p896
S'to'
p897
S'TO'
p898
S'B-PP'
p899
g5
tp900
a(S'0.41'
p901
S'0.41'
p902
S'CD'
p903
S'B-NP'
p904
g5
tp905
a(g328
g328
g7
g5
g5
tp906
a(S'P'
p907
g907
S'NN'
p908
S'B-NP'
p909
g5
tp910
a(S'<'
p911
g911
S'SYM'
p912
S'B-NP'
p913
g5
tp914
a(S'0.001'
p915
S'0.001'
p916
S'CD'
p917
S'I-NP'
p918
g5
tp919
a(g398
g398
g398
g5
g5
tp920
a(g231
g231
g231
g5
g5
tp921
a(S'with'
p922
S'with'
p923
S'IN'
p924
S'B-PP'
p925
g5
tp926
a(S'the'
p927
S'the'
p928
S'DT'
p929
S'B-NP'
p930
g5
tp931
a(S'difference'
p932
S'difference'
p933
S'NN'
p934
S'I-NP'
p935
g5
tp936
a(S'maintained'
p937
S'maintain'
p938
S'VBN'
p939
S'B-VP'
p940
g5
tp941
a(S'at'
p942
S'at'
p943
S'IN'
p944
S'B-PP'
p945
g5
tp946
a(S'18'
p947
S'18'
p948
S'CD'
p949
S'B-NP'
p950
g5
tp951
a(S'months'
p952
S'month'
p953
S'NNS'
p954
S'I-NP'
p955
g5
tp956
a(g391
g391
g391
g5
g5
tp957
a(S'0.27'
p958
S'0.27'
p959
S'CD'
p960
S'B-NP'
p961
g5
tp962
a(g231
g231
g231
g5
g5
tp963
a(S'0.11'
p964
S'0.11'
p965
S'CD'
p966
S'B-NP'
p967
g5
tp968
a(S'to'
p969
S'to'
p970
S'TO'
p971
S'B-PP'
p972
g5
tp973
a(S'0.43'
p974
S'0.43'
p975
S'CD'
p976
S'B-NP'
p977
g5
tp978
a(g328
g328
g7
g5
g5
tp979
a(S'P=0.001'
p980
S'P=0.001'
p981
S'NN'
p982
S'B-NP'
p983
g5
tp984
a(g398
g398
g398
g5
g5
tp985
a(g391
g391
g391
g5
g5
tp986
a(S'n=87'
p987
S'n=87'
p988
S'NN'
p989
S'B-NP'
p990
g5
tp991
a(g398
g398
g398
g5
g5
tp992
a(g792
g792
g792
g5
g5
tp993
a(S'The'
p994
S'The'
p995
S'DT'
p996
S'B-NP'
p997
g5
tp998
a(S'mean'
p999
S'mean'
p1000
S'JJ'
p1001
S'I-NP'
p1002
g5
tp1003
a(S'meal'
p1004
S'meal'
p1005
S'JJ'
p1006
S'I-NP'
p1007
g5
tp1008
a(S'size'
p1009
S'size'
p1010
S'NN'
p1011
S'I-NP'
p1012
g5
tp1013
a(S'in'
p1014
S'in'
p1015
S'IN'
p1016
S'B-PP'
p1017
g5
tp1018
a(S'the'
p1019
S'the'
p1020
S'DT'
p1021
S'B-NP'
p1022
g5
tp1023
a(S'Mandometer'
p1024
S'Mandometer'
p1025
S'NNP'
p1026
S'I-NP'
p1027
g5
tp1028
a(S'group'
p1029
S'group'
p1030
S'NN'
p1031
S'I-NP'
p1032
g5
tp1033
a(S'fell'
p1034
S'fall'
p1035
S'VBD'
p1036
S'B-VP'
p1037
g5
tp1038
a(S'by'
p1039
S'by'
p1040
S'IN'
p1041
S'B-PP'
p1042
g5
tp1043
a(S'45'
p1044
S'45'
p1045
S'CD'
p1046
S'B-NP'
p1047
g5
tp1048
a(S'g'
p1049
g1049
S'NN'
p1050
S'I-NP'
p1051
g5
tp1052
a(g391
g391
g391
g5
g5
tp1053
a(S'7'
p1054
g1054
S'CD'
p1055
S'B-NP'
p1056
g5
tp1057
a(S'to'
p1058
S'to'
p1059
S'TO'
p1060
g5
g5
tp1061
a(S'84'
p1062
S'84'
p1063
S'CD'
p1064
S'B-NP'
p1065
g5
tp1066
a(g1049
g1049
S'NN'
p1067
S'I-NP'
p1068
g5
tp1069
a(g398
g398
g398
g5
g5
tp1070
a(g792
g792
g792
g5
g5
tp1071
a(S'Mean'
p1072
S'Mean'
p1073
S'JJ'
p1074
S'B-NP'
p1075
g5
tp1076
a(S'body'
p1077
S'body'
p1078
S'NN'
p1079
S'I-NP'
p1080
g5
tp1081
a(S'fat'
p1082
S'fat'
p1083
S'NN'
p1084
S'I-NP'
p1085
g5
tp1086
a(S'SDS'
p1087
S'SDS'
p1088
S'NN'
p1089
S'I-NP'
p1090
g5
tp1091
a(S'adjusted'
p1092
S'adjust'
p1093
S'VBN'
p1094
S'B-VP'
p1095
g5
tp1096
a(S'for'
p1097
S'for'
p1098
S'IN'
p1099
S'B-PP'
p1100
g5
tp1101
a(S'baseline'
p1102
S'baseline'
p1103
S'NN'
p1104
S'B-NP'
p1105
g5
tp1106
a(S'levels'
p1107
S'level'
p1108
S'NNS'
p1109
S'I-NP'
p1110
g5
tp1111
a(S'was'
p1112
S'be'
p1113
S'VBD'
p1114
S'B-VP'
p1115
g5
tp1116
a(S'significantly'
p1117
S'significantly'
p1118
S'RB'
p1119
S'B-ADJP'
p1120
g5
tp1121
a(S'lower'
p1122
S'low'
p1123
S'JJR'
p1124
S'I-ADJP'
p1125
g5
tp1126
a(S'at'
p1127
S'at'
p1128
S'IN'
p1129
S'B-PP'
p1130
g5
tp1131
a(S'12'
p1132
S'12'
p1133
S'CD'
p1134
S'B-NP'
p1135
g5
tp1136
a(S'months'
p1137
S'month'
p1138
S'NNS'
p1139
S'I-NP'
p1140
g5
tp1141
a(g391
g391
g391
g5
g5
tp1142
a(S'0.24'
p1143
S'0.24'
p1144
S'CD'
p1145
S'B-NP'
p1146
g5
tp1147
a(g231
g231
g231
g5
g5
tp1148
a(S'0.10'
p1149
S'0.10'
p1150
S'CD'
p1151
S'B-NP'
p1152
g5
tp1153
a(S'to'
p1154
S'to'
p1155
S'TO'
p1156
S'B-PP'
p1157
g5
tp1158
a(S'0.39'
p1159
S'0.39'
p1160
S'CD'
p1161
S'B-NP'
p1162
g5
tp1163
a(g328
g328
g7
g5
g5
tp1164
a(S'P=0.001'
p1165
S'P=0.001'
p1166
S'NN'
p1167
S'B-NP'
p1168
g5
tp1169
a(g398
g398
g398
g5
g5
tp1170
a(g792
g792
g792
g5
g5
tp1171
a(S'Those'
p1172
S'Those'
p1173
S'DT'
p1174
S'B-NP'
p1175
g5
tp1176
a(S'in'
p1177
S'in'
p1178
S'IN'
p1179
S'B-PP'
p1180
g5
tp1181
a(S'the'
p1182
S'the'
p1183
S'DT'
p1184
S'B-NP'
p1185
g5
tp1186
a(S'Mandometer'
p1187
S'Mandometer'
p1188
S'NNP'
p1189
S'I-NP'
p1190
g5
tp1191
a(S'group'
p1192
S'group'
p1193
S'NN'
p1194
S'I-NP'
p1195
g5
tp1196
a(S'also'
p1197
S'also'
p1198
S'RB'
p1199
S'B-ADVP'
p1200
g5
tp1201
a(S'had'
p1202
S'have'
p1203
S'VBD'
p1204
S'B-VP'
p1205
g5
tp1206
a(S'greater'
p1207
S'great'
p1208
S'JJR'
p1209
S'B-NP'
p1210
g5
tp1211
a(S'improvement'
p1212
S'improvement'
p1213
S'NN'
p1214
S'I-NP'
p1215
g5
tp1216
a(S'in'
p1217
S'in'
p1218
S'IN'
p1219
S'B-PP'
p1220
g5
tp1221
a(S'concentration'
p1222
S'concentration'
p1223
S'NN'
p1224
S'B-NP'
p1225
g5
tp1226
a(S'of'
p1227
S'of'
p1228
S'IN'
p1229
S'B-PP'
p1230
g5
tp1231
a(S'high'
p1232
S'high'
p1233
S'JJ'
p1234
S'B-NP'
p1235
g5
tp1236
a(S'density'
p1237
S'density'
p1238
S'NN'
p1239
S'I-NP'
p1240
g5
tp1241
a(S'lipoprotein'
p1242
S'lipoprotein'
p1243
S'NN'
p1244
S'I-NP'
p1245
g5
tp1246
a(S'cholesterol'
p1247
S'cholesterol'
p1248
S'NN'
p1249
S'I-NP'
p1250
g5
tp1251
a(g391
g391
g391
g5
g5
tp1252
a(S'P=0.043'
p1253
S'P=0.043'
p1254
S'NN'
p1255
S'B-NP'
p1256
g5
tp1257
a(g398
g398
g398
g5
g5
tp1258
a(g792
g792
g792
g5
g5
tp1259
a(S'CONCLUSIONS'
p1260
S'CONCLUSIONS'
p1261
S'NNS'
p1262
S'B-NP'
p1263
g5
tp1264
a(g7
g7
g7
g5
g5
tp1265
a(S'Retraining'
p1266
S'Retraining'
p1267
S'NN'
p1268
S'B-NP'
p1269
g5
tp1270
a(S'eating'
p1271
S'eat'
p1272
S'VBG'
p1273
S'B-VP'
p1274
g5
tp1275
a(S'behaviour'
p1276
S'behaviour'
p1277
S'NN'
p1278
S'B-NP'
p1279
g5
tp1280
a(S'with'
p1281
S'with'
p1282
S'IN'
p1283
S'B-PP'
p1284
g5
tp1285
a(g54
g54
S'DT'
p1286
S'B-NP'
p1287
g5
tp1288
a(S'feedback'
p1289
S'feedback'
p1290
S'NN'
p1291
S'I-NP'
p1292
g5
tp1293
a(S'device'
p1294
S'device'
p1295
S'NN'
p1296
S'I-NP'
p1297
g5
tp1298
a(S'is'
p1299
S'be'
p1300
S'VBZ'
p1301
S'B-VP'
p1302
g5
tp1303
a(g54
g54
S'DT'
p1304
S'B-NP'
p1305
g5
tp1306
a(S'useful'
p1307
S'useful'
p1308
S'JJ'
p1309
S'I-NP'
p1310
g5
tp1311
a(S'adjunct'
p1312
S'adjunct'
p1313
S'NN'
p1314
S'I-NP'
p1315
g5
tp1316
a(S'to'
p1317
S'to'
p1318
S'TO'
p1319
S'B-PP'
p1320
g5
tp1321
a(S'standard'
p1322
S'standard'
p1323
S'JJ'
p1324
S'B-NP'
p1325
g5
tp1326
a(S'lifestyle'
p1327
S'lifestyle'
p1328
S'NN'
p1329
S'I-NP'
p1330
g5
tp1331
a(S'modification'
p1332
S'modification'
p1333
S'NN'
p1334
S'I-NP'
p1335
g5
tp1336
a(S'in'
p1337
S'in'
p1338
S'IN'
p1339
S'B-PP'
p1340
g5
tp1341
a(S'treating'
p1342
S'treat'
p1343
S'VBG'
p1344
S'B-VP'
p1345
g5
tp1346
a(S'obesity'
p1347
S'obesity'
p1348
S'NN'
p1349
S'B-NP'
p1350
g5
tp1351
a(S'among'
p1352
S'among'
p1353
S'IN'
p1354
S'B-PP'
p1355
g5
tp1356
a(S'adolescents.'
p1357
S'adolescents.'
p1358
S'NN'
p1359
S'B-NP'
p1360
g5
tp1361
a(S'TRIAL'
p1362
S'TRIAL'
p1363
S'NN'
p1364
S'B-NP'
p1365
g5
tp1366
a(S'REGISTRATION'
p1367
S'REGISTRATION'
p1368
S'NN'
p1369
S'I-NP'
p1370
g5
tp1371
a(g7
g7
g7
g5
g5
tp1372
a(S'ClinicalTrials.gov'
p1373
S'ClinicalTrials.gov'
p1374
S'NNP'
p1375
S'B-NP'
p1376
g5
tp1377
a(S'NCT00407420'
p1378
S'NCT00407420'
p1379
S'NN'
p1380
S'B-NP'
p1381
g5
tp1382
a(g792
g792
g792
g5
g5
tp1383
a.