(dp0
(F0.001
F0.001
tp1
(dp2
S'P'
p3
(F0.6124729221297458
F0.48610985431182696
F0.5420240137221269
tp4
ss(F0.001
F0.01
tp5
(dp6
g3
(F0.6395812850615927
F0.5003619581938286
F0.5614703119843627
tp7
ss(F0.0001
I0
tp8
(dp9
g3
(F0.5952085181898846
F0.45525291828793774
F0.5159074012356757
tp10
ss(F0.0001
F0.0001
tp11
(dp12
g3
(F0.5971143817360065
F0.46624739842548185
F0.5236280487804877
tp13
ss(F0.001
I0
tp14
(dp15
g3
(F0.5973070120385691
F0.47366754139896844
F0.5283504504277171
tp16
ss(I0
F0.1
tp17
(dp18
g3
(F0.7263316962599169
F0.43493801465930687
F0.5440756147946911
tp19
ss(F0.0001
F0.01
tp20
(dp21
g3
(F0.6460489322246815
F0.48864356166862727
F0.5564285530281563
tp22
ss(F0.1
F0.0001
tp23
(dp24
g3
(F0.6669244037352049
F0.5073296534250294
F0.5762816394706411
tp25
ss(F0.1
F0.01
tp26
(dp27
g3
(F0.6841975915458344
F0.5038458058094291
F0.5803324821512325
tp28
ss(F0.001
F0.1
tp29
(dp30
g3
(F0.6967877897694617
F0.49366573160799926
F0.5778978310955748
tp31
ss(F0.0001
I1
tp32
(dp33
g3
(F0.7294062894754338
F0.49638041806171385
F0.5907438817543009
tp34
ss(F0.01
I0
tp35
(dp36
g3
(F0.6168068162833436
F0.5011311193557144
F0.5529843480865723
tp37
ss(F0.1
I0
tp38
(dp39
g3
(F0.6717013049782503
F0.5030313998733146
F0.5752574119107983
tp40
ss(I0
F0.0001
tp41
(dp42
g3
(F0.7186819567426331
F0.4480137544113655
F0.5519509476031216
tp43
ss(F0.01
F0.001
tp44
(dp45
g3
(F0.6196049743964887
F0.4981902090308569
F0.552303563815113
tp46
ss(I1
F0.1
tp47
(dp48
g3
(F0.7441893424036281
F0.47516061894851147
F0.5799966863643895
tp49
ss(F0.0001
F0.001
tp50
(dp51
g3
(F0.6047921151013934
F0.48307845443851233
F0.5371264714760036
tp52
ss(F0.001
F0.0001
tp53
(dp54
g3
(F0.5975745438362261
F0.4860193647633698
F0.5360546933479714
tp55
ss(I1
I1
tp56
(dp57
g3
(F0.75
F0.47493439507736857
F0.5815834672281013
tp58
ss(F0.01
I1
tp59
(dp60
g3
(F0.7345376401853468
F0.49488734051217087
F0.5913551212391533
tp61
ss(I0
I0
tp62
(dp63
g3
(F0.7203660662405578
F0.4487376707990227
F0.5529969333705047
tp64
ss(I1
F0.0001
tp65
(dp66
g3
(F0.7469888104910555
F0.47421047868971133
F0.5801345030858218
tp67
ss(F0.1
F0.1
tp68
(dp69
g3
(F0.7083413600462338
F0.4990951045154285
F0.5855872594558726
tp70
ss(F0.1
I1
tp71
(dp72
g3
(F0.7243725231175694
F0.49619943896479957
F0.5889587025401428
tp73
ss(I0
F0.01
tp74
(dp75
g3
(F0.7238060781476121
F0.4525834766084517
F0.5569289015088246
tp76
ss(I1
I0
tp77
(dp78
g3
(F0.7389314020224105
F0.48932223328205593
F0.5887636779356524
tp79
ss(I1
F0.001
tp80
(dp81
g3
(F0.741556636553162
F0.4828069857931409
F0.5848405129891484
tp82
ss(I0
I1
tp83
(dp84
g3
(F0.7092465038614068
F0.46122522848610986
F0.5589581905414668
tp85
ss(F0.01
F0.0001
tp86
(dp87
g3
(F0.6134883979745145
F0.498823635870057
F0.5502458014124223
tp88
ss(F0.1
F0.001
tp89
(dp90
g3
(F0.670060606060606
F0.5002262238711429
F0.5728200611367287
tp91
ss(F0.0001
F0.1
tp92
(dp93
g3
(F0.693194706994329
F0.49773776128857117
F0.5794269461708628
tp94
ss(I0
F0.001
tp95
(dp96
g3
(F0.7193276138662202
F0.46660935661931047
F0.5660418782074151
tp97
ss(F0.001
I1
tp98
(dp99
g3
(F0.7388320867357442
F0.48715048411908424
F0.587157464212679
tp100
ss(F0.01
F0.01
tp101
(dp102
g3
(F0.649821892169293
F0.48696950502216996
F0.5567308935729989
tp103
ss(I1
F0.01
tp104
(dp105
g3
(F0.7288770053475936
F0.4933490181883992
F0.5884194053208137
tp106
ss(F0.01
F0.1
tp107
(dp108
g3
(F0.7028478964401295
F0.4913130033481133
F0.5783446953557734
tp109
ss.