(dp0
(F0.001
F0.001
tp1
(dp2
S'P'
p3
(F0.6368473150210344
F0.4657497059089675
F0.5380233105106361
tp4
ss(F0.001
F0.01
tp5
(dp6
g3
(F0.6565750371471025
F0.47982083069405485
F0.5544518220316829
tp7
ss(F0.0001
F0.0001
tp8
(dp9
g3
(F0.6313303099017384
F0.45348837209302323
F0.5278319026804992
tp10
ss(F0.0001
F0.01
tp11
(dp12
g3
(F0.6590572556762093
F0.48330467830965523
F0.5576611850691725
tp13
ss(F0.001
F0.1
tp14
(dp15
g3
(F0.708297349365575
F0.4823997828250837
F0.5739200645942674
tp16
ss(F0.0001
I1
tp17
(dp18
g3
(F0.7572342591246183
F0.47122432359062527
F0.5809348505131637
tp19
ss(F0.1
F0.01
tp20
(dp21
g3
(F0.6958159825500694
F0.4762917383042259
F0.5654964948564368
tp22
ss(F0.01
F0.001
tp23
(dp24
g3
(F0.6458493808141257
F0.49316803909148493
F0.5592755073244567
tp25
ss(I1
F0.1
tp26
(dp27
g3
(F0.7683870483059124
F0.46276355080988146
F0.5776409793013865
tp28
ss(F0.0001
F0.001
tp29
(dp30
g3
(F0.6417854697130051
F0.4664283775223962
F0.5402331979562427
tp31
ss(F0.001
F0.0001
tp32
(dp33
g3
(F0.6309210123169312
F0.46584019545742467
F0.535956898571094
tp34
ss(I1
I1
tp35
(dp36
g3
(F0.7356880992667795
F0.47212921907519684
F0.5751529515515625
tp37
ss(F0.01
I1
tp38
(dp39
g3
(F0.7542173976822649
F0.46525201339245315
F0.5754980971569286
tp40
ss(I1
F0.0001
tp41
(dp42
g3
(F0.7617853190704537
F0.467197538684282
F0.5791850127604677
tp43
ss(F0.1
F0.1
tp44
(dp45
g3
(F0.7202309034769768
F0.4854764274726269
F0.5800000000000001
tp46
ss(F0.1
I1
tp47
(dp48
g3
(F0.7433616111455963
F0.48764817663559856
F0.5889456572224803
tp49
ss(F0.1
F0.0001
tp50
(dp51
g3
(F0.6953677393775193
F0.47611075920731155
F0.5652208943198603
tp52
ss(I1
F0.001
tp53
(dp54
g3
(F0.7318141980718668
F0.491132024251199
F0.5877893596859347
tp55
ss(F0.01
F0.0001
tp56
(dp57
g3
(F0.6297571795470465
F0.48814586915211294
F0.5499821583320589
tp58
ss(F0.1
F0.001
tp59
(dp60
g3
(F0.7025654553848183
F0.48199257985702654
F0.5717429223131625
tp61
ss(F0.0001
F0.1
tp62
(dp63
g3
(F0.7102866327350656
F0.4798660754682834
F0.572770967219312
tp64
ss(F0.001
I1
tp65
(dp66
g3
(F0.7405692966698908
F0.48497873495611254
F0.5861220472440944
tp67
ss(F0.01
F0.01
tp68
(dp69
g3
(F0.6768698770491803
F0.4782372635960547
F0.5604751047245347
tp70
ss(I1
F0.01
tp71
(dp72
g3
(F0.7265515632291181
F0.49312279431725636
F0.5874996631000189
tp73
ss(F0.01
F0.1
tp74
(dp75
g3
(F0.6959034614163226
F0.4957469912225138
F0.5790155098158375
tp76
ss.