(lp0
(dp1
S'I'
p2
(F0.25841414717626926
F0.06645151826316562
F0.1057176196032672
tp3
sa(dp4
g2
(F0.29860302677532014
F0.07020665115642534
F0.11368421052631578
tp5
sa(dp6
g2
(F0.2641509433962264
F0.08024691358024691
F0.12309773419005748
tp7
sa(dp8
g2
(F0.2643614054656999
F0.0718835304822566
F0.11303207344700131
tp9
sa(dp10
g2
(F0.23923923923923923
F0.076223887737203
F0.11561252872173175
tp11
sa.