(lp0
(dp1
S'I'
p2
(F0.25225733634311515
F0.06557136570338859
F0.10408662242403074
tp3
sa(dp4
g2
(F0.32396251673360105
F0.06623785411249487
F0.10998750142029316
tp5
sa(dp6
g2
(F0.25449101796407186
F0.07495590828924162
F0.11580381471389646
tp7
sa(dp8
g2
(F0.2704225352112676
F0.07279344858962693
F0.11470904528617516
tp9
sa(dp10
g2
(F0.23579688285570638
F0.07478870993461968
F0.1135593220338983
tp11
sa.