(dp0
(F0.001
F0.001
tp1
(dp2
S'I'
p3
(F0.27476979742173113
F0.08224917309812568
F0.12660161221892235
tp4
ss(F0.001
F0.01
tp5
(dp6
g3
(F0.2865853658536585
F0.07772877618522601
F0.12228967909800519
tp7
ss(F0.0001
I0
tp8
(dp9
g3
(F0.26653239342061097
F0.08754134509371554
F0.1317951697236285
tp10
ss(F0.0001
F0.0001
tp11
(dp12
g3
(F0.26632653061224487
F0.08632855567805954
F0.13039134054954205
tp13
ss(F0.001
I0
tp14
(dp15
g3
(F0.2676767676767677
F0.087651598676957
F0.13205980066445183
tp16
ss(I0
F0.1
tp17
(dp18
g3
(F0.3548387096774194
F0.014553472987872107
F0.027960177928405005
tp19
ss(F0.0001
F0.01
tp20
(dp21
g3
(F0.28641772671317195
F0.07695700110253584
F0.12131745893803772
tp22
ss(I0
F0.01
tp23
(dp24
g3
(F0.32894736842105265
F0.022050716648291068
F0.041330853482124404
tp25
ss(F0.1
F0.01
tp26
(dp27
g3
(F0.28306490971205467
F0.0639470782800441
F0.1043259285907006
tp28
ss(F0.001
F0.1
tp29
(dp30
g3
(F0.29691358024691356
F0.05303197353914002
F0.08999064546304958
tp31
ss(F0.01
I0
tp32
(dp33
g3
(F0.2759728668332738
F0.08522601984564498
F0.13023334175722348
tp34
ss(F0.1
I0
tp35
(dp36
g3
(F0.27729556875285516
F0.06692392502756339
F0.10782485123012699
tp37
ss(I0
F0.0001
tp38
(dp39
g3
(F0.24752475247524752
F0.008269018743109152
F0.01600341406166649
tp40
ss(F0.01
F0.001
tp41
(dp42
g3
(F0.2773480662983425
F0.08302094818081587
F0.1277895630038184
tp43
ss(F0.0001
F0.001
tp44
(dp45
g3
(F0.27600147004777653
F0.08280044101433297
F0.12738529386820455
tp46
ss(F0.001
F0.0001
tp47
(dp48
g3
(F0.2689917127071823
F0.08588754134509372
F0.13020223967909075
tp49
ss(I0
I0
tp50
(dp51
g3
(F0.2836624775583483
F0.017420066152149943
F0.032824348187389635
tp52
ss(F0.1
F0.1
tp53
(dp54
g3
(F0.30102389078498293
F0.048621830209481805
F0.08372093023255812
tp55
ss(F0.1
F0.0001
tp56
(dp57
g3
(F0.2789838337182448
F0.06659316427783903
F0.10752113929684022
tp58
ss(F0.01
F0.0001
tp59
(dp60
g3
(F0.27319025100036376
F0.08280044101433297
F0.12708350960318132
tp61
ss(F0.1
F0.001
tp62
(dp63
g3
(F0.2802607076350093
F0.06637265711135612
F0.10732750935995722
tp64
ss(F0.0001
F0.1
tp65
(dp66
g3
(F0.29634002361275086
F0.055347298787210585
F0.09327387588257154
tp67
ss(I0
F0.001
tp68
(dp69
g3
(F0.31362007168458783
F0.019294377067254686
F0.03635230577482343
tp70
ss(F0.01
F0.01
tp71
(dp72
g3
(F0.28829568788501025
F0.07739801543550165
F0.12203389830508474
tp73
ss(F0.01
F0.1
tp74
(dp75
g3
(F0.30263965623081646
F0.05435501653803749
F0.0921581456210861
tp76
ss.