(lp0
(dp1
S'I'
p2
(F0.22595473833097596
F0.09373624761625349
F0.13250388802488336
tp3
sa(dp4
g2
(F0.23042337954289996
F0.0841658683454222
F0.12329591018444268
tp5
sa(dp6
g2
(F0.22861842105263158
F0.10214579659024103
F0.14120276310442909
tp7
sa(dp8
g2
(F0.22106325706594884
F0.09963603275705187
F0.13736148860547776
tp9
sa(dp10
g2
(F0.21654423506866816
F0.10811672779461011
F0.14422463305679645
tp11
sa.