(dp0
(F0.001
F0.001
tp1
(dp2
S'I'
p3
(F0.25524833589349716
F0.10992282249173098
F0.1536683107274969
tp4
ss(F0.001
F0.01
tp5
(dp6
g3
(F0.2654718566227947
F0.10452039691289967
F0.1499881338501701
tp7
ss(F0.0001
I0
tp8
(dp9
g3
(F0.23480970398397508
F0.1163175303197354
F0.15557030155570303
tp10
ss(F0.0001
F0.0001
tp11
(dp12
g3
(F0.23619351894112278
F0.11411245865490628
F0.15388046387154325
tp13
ss(F0.001
I0
tp14
(dp15
g3
(F0.23919172932330826
F0.11223814773980155
F0.15278403121716946
tp16
ss(I0
F0.1
tp17
(dp18
g3
(F0.2879932829554996
F0.03781697905181918
F0.06685508235064809
tp19
ss(F0.0001
F0.01
tp20
(dp21
g3
(F0.26143609647906846
F0.10396912899669239
F0.14877336909363414
tp22
ss(I0
F0.01
tp23
(dp24
g3
(F0.3300124533001245
F0.029217199558985666
F0.053681758330801174
tp25
ss(F0.1
F0.01
tp26
(dp27
g3
(F0.27531645569620256
F0.08632855567805954
F0.13144200100721842
tp28
ss(F0.001
F0.1
tp29
(dp30
g3
(F0.2906534954407295
F0.08434399117971333
F0.1307468808750641
tp31
ss(F0.01
I0
tp32
(dp33
g3
(F0.25424151696606784
F0.112348401323043
F0.15583422541673037
tp34
ss(F0.1
I0
tp35
(dp36
g3
(F0.26253687315634217
F0.08831312017640573
F0.13216731292797623
tp37
ss(I0
F0.0001
tp38
(dp39
g3
(F0.27149321266968324
F0.05953693495038589
F0.09765801609548783
tp40
ss(F0.01
F0.001
tp41
(dp42
g3
(F0.257128045619492
F0.10937155457552371
F0.15346534653465346
tp43
ss(F0.0001
F0.001
tp44
(dp45
g3
(F0.24380362249761678
F0.11278941565600882
F0.15422885572139305
tp46
ss(F0.001
F0.0001
tp47
(dp48
g3
(F0.23982451864489399
F0.10848952590959206
F0.14939649282623546
tp49
ss(I0
I0
tp50
(dp51
g3
(F0.23947667804323094
F0.0464167585446527
F0.07776135943849279
tp52
ss(F0.1
F0.1
tp53
(dp54
g3
(F0.28304405874499333
F0.0701212789415656
F0.11239727843067952
tp55
ss(F0.1
F0.0001
tp56
(dp57
g3
(F0.25680159256801594
F0.08533627342888644
F0.12810327706057598
tp58
ss(F0.01
F0.0001
tp59
(dp60
g3
(F0.2596082320852963
F0.11543550165380374
F0.1598107303670915
tp61
ss(F0.1
F0.001
tp62
(dp63
g3
(F0.2631402745229327
F0.0866593164277839
F0.1303806917143568
tp64
ss(F0.0001
F0.1
tp65
(dp66
g3
(F0.279178674351585
F0.08544652701212789
F0.13084585514097585
tp67
ss(I0
F0.001
tp68
(dp69
g3
(F0.2807377049180328
F0.045314222712238145
F0.07803303588380481
tp70
ss(F0.01
F0.01
tp71
(dp72
g3
(F0.2654424040066778
F0.1051819184123484
F0.15066329753632343
tp73
ss(F0.01
F0.1
tp74
(dp75
g3
(F0.27761627906976744
F0.08423373759647189
F0.12925054982236509
tp76
ss.