(dp0
(F0.001
F0.001
tp1
(dp2
S'I'
p3
(F0.26938136256851997
F0.07585446527012128
F0.11837577426015142
tp4
ss(F0.001
F0.01
tp5
(dp6
g3
(F0.28433945756780404
F0.07166482910694598
F0.11447692849594927
tp7
ss(F0.001
I0
tp8
(dp9
g3
(F0.2589118198874296
F0.07607497243660419
F0.1175969322539412
tp10
ss(I0
F0.1
tp11
(dp12
g3
(F0.2980392156862745
F0.02513781697905182
F0.04636502287747839
tp13
ss(F0.001
F0.1
tp14
(dp15
g3
(F0.3190140845070423
F0.04994487320837927
F0.0863679694947569
tp16
ss(F0.01
I0
tp17
(dp18
g3
(F0.2676056338028169
F0.0733186328555678
F0.1151016875811337
tp19
ss(F0.1
I0
tp20
(dp21
g3
(F0.28480078701426464
F0.06383682469680264
F0.10429613617941097
tp22
ss(F0.1
F0.01
tp23
(dp24
g3
(F0.2933972310969116
F0.060749724366041896
F0.10065765436609427
tp25
ss(F0.01
F0.001
tp26
(dp27
g3
(F0.2668032786885246
F0.07177508269018743
F0.11311902693310165
tp28
ss(I1
F0.1
tp29
(dp30
g3
(F0.2783661119515885
F0.020286659316427785
F0.03781728496557394
tp31
ss(I1
I1
tp32
(dp33
g3
(F0.25925925925925924
F0.006174200661521499
F0.012061167348696963
tp34
ss(F0.01
I1
tp35
(dp36
g3
(F0.3150684931506849
F0.012679162072767364
F0.02437731849496555
tp37
ss(I0
I0
tp38
(dp39
g3
(F0.25118483412322273
F0.046747519294377066
F0.07882506042015244
tp40
ss(F0.1
F0.1
tp41
(dp42
g3
(F0.31644583008573657
F0.044762954796030874
F0.0784313725490196
tp43
ss(F0.1
I1
tp44
(dp45
g3
(F0.2991202346041056
F0.011245865490628445
F0.021676761236850493
tp46
ss(I0
F0.01
tp47
(dp48
g3
(F0.28640192539109505
F0.02624035281146637
F0.04807595192404808
tp49
ss(I1
I0
tp50
(dp51
g3
(F0.3025
F0.026681367144432193
F0.049037487335359675
tp52
ss(I1
F0.001
tp53
(dp54
g3
(F0.2965779467680608
F0.02579933847850055
F0.04746931737498732
tp55
ss(I0
I1
tp56
(dp57
g3
(F0.27954545454545454
F0.027122381477398014
F0.04944723618090452
tp58
ss(F0.1
F0.001
tp59
(dp60
g3
(F0.28005865102639294
F0.06317530319735391
F0.10309463835912198
tp61
ss(I0
F0.001
tp62
(dp63
g3
(F0.26808176100628933
F0.037596471885336276
F0.0659446915490234
tp64
ss(F0.001
I1
tp65
(dp66
g3
(F0.3183023872679045
F0.013230429988974642
F0.025404890441409974
tp67
ss(F0.01
F0.01
tp68
(dp69
g3
(F0.27790432801822323
F0.06725468577728776
F0.1083000443852641
tp70
ss(I1
F0.01
tp71
(dp72
g3
(F0.30526315789473685
F0.02557883131201764
F0.04720244150559512
tp73
ss(F0.01
F0.1
tp74
(dp75
g3
(F0.3191948238677211
F0.04895259095920618
F0.0848867221106969
tp76
ss.