(dp0
(F0.001
F0.001
tp1
(dp2
S'I'
p3
(F0.24316031705446178
F0.10485115766262404
F0.14652183961174023
tp4
ss(F0.001
F0.01
tp5
(dp6
g3
(F0.26393210749646395
F0.10286659316427783
F0.14803649345497819
tp7
ss(F0.001
I0
tp8
(dp9
g3
(F0.2367103694874851
F0.10948180815876515
F0.1497173011684885
tp10
ss(I0
F0.1
tp11
(dp12
g3
(F0.29374275782155274
F0.05589856670341786
F0.09392367543534641
tp13
ss(F0.001
F0.1
tp14
(dp15
g3
(F0.285084202085004
F0.07839029768467475
F0.12296783120027671
tp16
ss(F0.01
I0
tp17
(dp18
g3
(F0.24034334763948498
F0.10496141124586549
F0.14611311487990175
tp19
ss(F0.1
I0
tp20
(dp21
g3
(F0.2720281960909965
F0.09360529217199559
F0.13928307768025594
tp22
ss(F0.1
F0.01
tp23
(dp24
g3
(F0.27434257285003555
F0.08511576626240352
F0.12992258498821943
tp25
ss(F0.01
F0.001
tp26
(dp27
g3
(F0.24427480916030533
F0.10584343991179714
F0.1476923076923077
tp28
ss(I1
F0.1
tp29
(dp30
g3
(F0.33639705882352944
F0.04035281146637266
F0.07206142941523923
tp31
ss(I1
I1
tp32
(dp33
g3
(F0.39279869067103107
F0.026460859977949284
F0.049581654787728545
tp34
ss(F0.01
I1
tp35
(dp36
g3
(F0.3555776892430279
F0.03936052921719956
F0.07087552114353782
tp37
ss(I0
I0
tp38
(dp39
g3
(F0.28303850156087407
F0.059977949283351706
F0.09898107714701602
tp40
ss(F0.1
F0.1
tp41
(dp42
g3
(F0.28546409807355516
F0.07188533627342888
F0.11484939228465739
tp43
ss(F0.1
I1
tp44
(dp45
g3
(F0.3735763097949886
F0.036163175303197355
F0.06594290309609972
tp46
ss(I0
F0.01
tp47
(dp48
g3
(F0.2627358490566038
F0.06141124586549063
F0.09955317247542449
tp49
ss(I1
I0
tp50
(dp51
g3
(F0.31511254019292606
F0.04321940463065049
F0.07601318596082994
tp52
ss(I1
F0.001
tp53
(dp54
g3
(F0.3080684596577017
F0.04167585446527012
F0.07341944255608429
tp55
ss(I0
I1
tp56
(dp57
g3
(F0.3055105348460292
F0.04156560088202867
F0.07317546583850933
tp58
ss(F0.1
F0.001
tp59
(dp60
g3
(F0.25810678021618083
F0.08687982359426681
F0.13000082487833045
tp61
ss(I0
F0.001
tp62
(dp63
g3
(F0.31227038941954444
F0.046857772877618525
F0.08148787268718244
tp64
ss(F0.001
I1
tp65
(dp66
g3
(F0.36548223350253806
F0.03969128996692393
F0.07160616608652412
tp67
ss(F0.01
F0.01
tp68
(dp69
g3
(F0.2645441389290883
F0.10077177508269018
F0.14594810379241518
tp70
ss(I1
F0.01
tp71
(dp72
g3
(F0.3122497998398719
F0.04299889746416759
F0.07558871983719352
tp73
ss(F0.01
F0.1
tp74
(dp75
g3
(F0.2805226623111474
F0.07574421168687982
F0.11928118760309055
tp76
ss.