(dp0
(F0.001
F0.001
tp1
(dp2
S'I'
p3
(F0.18428141340516557
F0.12822491730981256
F0.15122553800143032
tp4
ss(F0.001
F0.01
tp5
(dp6
g3
(F0.22200605274535234
F0.11323042998897465
F0.14997079439252337
tp7
ss(F0.0001
I0
tp8
(dp9
g3
(F0.17567177116440336
F0.1340683572216097
F0.15207603801900949
tp10
ss(F0.0001
F0.0001
tp11
(dp12
g3
(F0.18615642628449458
F0.13461962513781697
F0.15624800051186893
tp13
ss(F0.001
I0
tp14
(dp15
g3
(F0.18057820607857672
F0.13428886438809262
F0.15403098324375591
tp16
ss(I0
F0.1
tp17
(dp18
g3
(F0.28191268191268193
F0.07475192943770673
F0.11816993464052288
tp19
ss(F0.0001
F0.01
tp20
(dp21
g3
(F0.21714031971580816
F0.10782800441014333
F0.14409901281862386
tp22
ss(I0
F0.01
tp23
(dp24
g3
(F0.2878980891719745
F0.07475192943770673
F0.11868708971553611
tp25
ss(F0.1
F0.01
tp26
(dp27
g3
(F0.25368248772504093
F0.08544652701212789
F0.12783505154639177
tp28
ss(F0.001
F0.1
tp29
(dp30
g3
(F0.26351606805293004
F0.07684674751929438
F0.11899274434485704
tp31
ss(F0.01
I0
tp32
(dp33
g3
(F0.18877279971666372
F0.1175303197353914
F0.14486648094040905
tp34
ss(F0.1
I0
tp35
(dp36
g3
(F0.2376063361689645
F0.08930540242557883
F0.12981809439858963
tp37
ss(I0
F0.0001
tp38
(dp39
g3
(F0.3156498673740053
F0.05248070562293274
F0.0899981092834184
tp40
ss(F0.01
F0.001
tp41
(dp42
g3
(F0.19711988030671404
F0.11620727673649393
F0.14621627245612817
tp43
ss(F0.0001
F0.001
tp44
(dp45
g3
(F0.18697068403908795
F0.12657111356119075
F0.1509533201840894
tp46
ss(F0.001
F0.0001
tp47
(dp48
g3
(F0.18128483426224698
F0.1362734288864388
F0.1555891238670695
tp49
ss(I0
I0
tp50
(dp51
g3
(F0.26504751847940866
F0.08302094818081587
F0.12643774662077073
tp52
ss(F0.1
F0.1
tp53
(dp54
g3
(F0.2985216976633286
F0.06901874310915104
F0.11211605623712724
tp55
ss(F0.1
F0.0001
tp56
(dp57
g3
(F0.24405469678953626
F0.09051819184123484
F0.13205726234518256
tp58
ss(F0.01
F0.0001
tp59
(dp60
g3
(F0.1921921921921922
F0.11995589856670341
F0.14771570158169847
tp61
ss(F0.1
F0.001
tp62
(dp63
g3
(F0.2390846130683529
F0.08754134509371554
F0.12815753369381003
tp64
ss(F0.0001
F0.1
tp65
(dp66
g3
(F0.25568598679383714
F0.07684674751929438
F0.1181756527636487
tp67
ss(I0
F0.001
tp68
(dp69
g3
(F0.2643809523809524
F0.07651598676957001
F0.11868319794784096
tp70
ss(F0.01
F0.01
tp71
(dp72
g3
(F0.2237344794651385
F0.10330760749724366
F0.1413486197013124
tp73
ss(F0.01
F0.1
tp74
(dp75
g3
(F0.2680577849117175
F0.07364939360529217
F0.11555094274346997
tp76
ss.