(lp0
(dp1
S'I'
p2
(F0.17773180364867405
F0.13862402816488192
F0.1557606724905225
tp3
sa(dp4
g2
(F0.190297730585051
F0.12508553441905024
F0.15094962840627582
tp5
sa(dp6
g2
(F0.185117636330476
F0.14917695473251028
F0.16521526816961016
tp7
sa(dp8
g2
(F0.18023255813953487
F0.15514103730664242
F0.16674816625916872
tp9
sa(dp10
g2
(F0.170007423904974
F0.14606920746292457
F0.1571318294879492
tp11
sa.