(dp0
(I0
I0
tp1
(dp2
S'I'
p3
(F0.25551804726045185
F0.10848952590959206
F0.15231019270954257
tp4
ss(F1e-05
F0.0001
tp5
(dp6
g3
(F0.16321090047393366
F0.1822491730981257
F0.17220543806646527
tp7
ss(F1e-05
F1e-05
tp8
(dp9
g3
(F0.14993748883729238
F0.18511576626240353
F0.1656798894809552
tp10
ss(F0.0001
I0
tp11
(dp12
g3
(F0.15626484278521896
F0.18136714443219404
F0.16788283921008318
tp13
ss(F1e-05
I0
tp14
(dp15
g3
(F0.15505781662569426
F0.18776185226019845
F0.16984989777090712
tp16
ss(F0.0001
F0.0001
tp17
(dp18
g3
(F0.16638147961751384
F0.1822491730981257
F0.17395422257300713
tp19
ss(F1e-05
F0.001
tp20
(dp21
g3
(F0.17597551644988524
F0.15214994487320838
F0.16319772942289498
tp22
ss(I0
F0.0001
tp23
(dp24
g3
(F0.2630410654827969
F0.10452039691289967
F0.14959760138866973
tp25
ss(F0.001
I0
tp26
(dp27
g3
(F0.1705263157894737
F0.16968026460859978
F0.17010223818734457
tp28
ss(I0
F0.001
tp29
(dp30
g3
(F0.25538376587520706
F0.1019845644983462
F0.1457611093602269
tp31
ss(F0.0001
F0.001
tp32
(dp33
g3
(F0.17964290052228835
F0.16306504961411245
F0.17095301392822054
tp34
ss(F0.001
F1e-05
tp35
(dp36
g3
(F0.16619622897143502
F0.16229327453142228
F0.16422156523679368
tp37
ss(I0
F1e-05
tp38
(dp39
g3
(F0.2598110465116279
F0.07883131201764057
F0.1209609203180511
tp40
ss(F0.001
F0.0001
tp41
(dp42
g3
(F0.1695919762935947
F0.16405733186328555
F0.1667787491593813
tp43
ss(F0.0001
F1e-05
tp44
(dp45
g3
(F0.16391817608362622
F0.20055126791620728
F0.18039371250061983
tp46
ss(F0.001
F0.001
tp47
(dp48
g3
(F0.18281908386570614
F0.14829106945975745
F0.16375479393681136
tp49
ss.