(dp0
(F0.01
F0.0001
tp1
(dp2
S'I'
p3
(F0.20776040685628178
F0.12160970231532525
F0.15341817928924126
tp4
ss(F0.001
F0.001
tp5
(dp6
g3
(F0.20218831869317305
F0.14465270121278942
F0.16864837071791244
tp7
ss(F0.001
F0.01
tp8
(dp9
g3
(F0.23091725465041693
F0.11907386990077178
F0.1571251909507529
tp10
ss(F0.0001
F0.0001
tp11
(dp12
g3
(F0.1746127056562988
F0.16030871003307606
F0.16715525665344602
tp13
ss(F0.01
F0.001
tp14
(dp15
g3
(F0.21213918544879398
F0.11830209481808159
F0.1518969422423556
tp16
ss(F0.0001
F0.01
tp17
(dp18
g3
(F0.23083230832308324
F0.12414553472987871
F0.16145683969027816
tp19
ss(F0.0001
F0.001
tp20
(dp21
g3
(F0.19280946601941748
F0.14013230429988974
F0.16230366492146595
tp22
ss(F0.01
F0.01
tp23
(dp24
g3
(F0.2346545866364666
F0.11422271223814774
F0.15365220615498704
tp25
ss(F0.001
F0.0001
tp26
(dp27
g3
(F0.18538565629228687
F0.15104740904079383
F0.16646415552855406
tp28
ss.