(dp0
(F0.001
F0.001
tp1
(dp2
S'I'
p3
(F0.27127461910070605
F0.0804851157662624
F0.12413910381770256
tp4
ss(F0.001
F0.01
tp5
(dp6
g3
(F0.27898248540450377
F0.07375964718853363
F0.11667247994419254
tp7
ss(F0.0001
I0
tp8
(dp9
g3
(F0.2624113475177305
F0.08158765159867695
F0.12447434819175777
tp10
ss(F0.0001
F0.0001
tp11
(dp12
g3
(F0.25795176511709195
F0.08136714443219405
F0.12371134020618556
tp13
ss(F0.001
I0
tp14
(dp15
g3
(F0.25709281961471103
F0.08092613009922822
F0.12310272536687632
tp16
ss(I0
F0.1
tp17
(dp18
g3
(F0.25680933852140075
F0.02183020948180816
F0.04023981302713139
tp19
ss(F0.0001
F0.01
tp20
(dp21
g3
(F0.2825112107623318
F0.07640573318632855
F0.12028117677688101
tp22
ss(I0
F0.01
tp23
(dp24
g3
(F0.23357664233576642
F0.014112458654906285
F0.02661676024121439
tp25
ss(F0.1
F0.01
tp26
(dp27
g3
(F0.2876064333017975
F0.06703417861080485
F0.10872675250357654
tp28
ss(F0.001
F0.1
tp29
(dp30
g3
(F0.3225605966438782
F0.057221609702315324
F0.09720011237007212
tp31
ss(F0.01
I0
tp32
(dp33
g3
(F0.27034779490856936
F0.08313120176405733
F0.12716080613879754
tp34
ss(F0.1
I0
tp35
(dp36
g3
(F0.2800365463682047
F0.06758544652701212
F0.1088906652455813
tp37
ss(I0
F0.0001
tp38
(dp39
g3
(F0.2120822622107969
F0.018191841234840134
F0.033509341998375304
tp40
ss(F0.01
F0.001
tp41
(dp42
g3
(F0.2746748278500383
F0.07916207276736494
F0.12290311537144813
tp43
ss(F0.0001
F0.001
tp44
(dp45
g3
(F0.27158671586715866
F0.08114663726571114
F0.12495755517826826
tp46
ss(F0.001
F0.0001
tp47
(dp48
g3
(F0.2591164095371669
F0.0814773980154355
F0.12397248783761113
tp49
ss(I0
I0
tp50
(dp51
g3
(F0.2671156004489338
F0.02624035281146637
F0.047786366830639485
tp52
ss(F0.1
F0.1
tp53
(dp54
g3
(F0.3175133689839572
F0.05237045203969129
F0.08991103539655498
tp55
ss(F0.1
F0.0001
tp56
(dp57
g3
(F0.27564102564102566
F0.06637265711135612
F0.10698418340145727
tp58
ss(F0.01
F0.0001
tp59
(dp60
g3
(F0.27415238789646373
F0.08291069459757443
F0.12731736222805384
tp61
ss(F0.1
F0.001
tp62
(dp63
g3
(F0.2781577747378021
F0.06725468577728776
F0.1083192755038622
tp64
ss(F0.0001
F0.1
tp65
(dp66
g3
(F0.31693989071038253
F0.05755237045203969
F0.09741532145189885
tp67
ss(I0
F0.001
tp68
(dp69
g3
(F0.2384428223844282
F0.021609702315325247
F0.03962798220784472
tp70
ss(F0.01
F0.01
tp71
(dp72
g3
(F0.28649789029535866
F0.07486218302094819
F0.11870629370629372
tp73
ss(F0.01
F0.1
tp74
(dp75
g3
(F0.3130644190246839
F0.05733186328555678
F0.0969154785201752
tp76
ss.