(dp0
(F0.001
F0.001
tp1
(dp2
S'P'
p3
(F0.6286462456610438
F0.4670618043615962
F0.535939568569426
tp4
ss(F0.001
F0.01
tp5
(dp6
g3
(F0.6467076700434153
F0.485250203601484
F0.5544641472367264
tp7
ss(F0.0001
I0
tp8
(dp9
g3
(F0.5994971264367817
F0.45308116912496604
F0.5161057568417255
tp10
ss(F0.0001
F0.0001
tp11
(dp12
g3
(F0.6174765663542181
F0.4530359243507375
F0.5226264418811003
tp13
ss(F0.001
I0
tp14
(dp15
g3
(F0.5968381686310064
F0.4765632069495973
F0.5299622641509434
tp16
ss(I0
F0.1
tp17
(dp18
g3
(F0.6990767641552069
F0.4899104153470274
F0.5760953419701524
tp19
ss(F0.0001
F0.01
tp20
(dp21
g3
(F0.6423797977408481
F0.491448737670799
F0.5568685755299787
tp22
ss(F0.1
F0.0001
tp23
(dp24
g3
(F0.6853191625584224
F0.48430006334268394
F0.5675353251504467
tp25
ss(F0.1
F0.01
tp26
(dp27
g3
(F0.69585013659425
F0.48402859469731246
F0.5709253922510407
tp28
ss(F0.001
F0.1
tp29
(dp30
g3
(F0.7118505942275043
F0.4742557234639399
F0.5692562522062617
tp31
ss(F0.0001
I1
tp32
(dp33
g3
(F0.7388038345972242
F0.46724278345851056
F0.5724501108647451
tp34
ss(F0.01
I0
tp35
(dp36
g3
(F0.6157954545454546
F0.4903628630893132
F0.5459674575588132
tp37
ss(F0.1
I0
tp38
(dp39
g3
(F0.6853151314110743
F0.4860646095375984
F0.5687437132722749
tp40
ss(I0
F0.0001
tp41
(dp42
g3
(F0.6936624085328041
F0.5061080445208579
F0.5852254891702418
tp43
ss(F0.01
F0.001
tp44
(dp45
g3
(F0.6250653348045764
F0.48696950502216996
F0.5474428422471453
tp46
ss(I1
F0.1
tp47
(dp48
g3
(F0.741732171942497
F0.4738937652701113
F0.5783066007785108
tp49
ss(F0.0001
F0.001
tp50
(dp51
g3
(F0.612351790031081
F0.48135915301782645
F0.5390110446853784
tp52
ss(F0.001
F0.0001
tp53
(dp54
g3
(F0.601177336276674
F0.4805447470817121
F0.5341346274736604
tp55
ss(I1
I1
tp56
(dp57
g3
(F0.7662928397772724
F0.4420866889874219
F0.5606977878518348
tp58
ss(F0.01
I1
tp59
(dp60
g3
(F0.7425478166726813
F0.46547823726359605
F0.5722390633256389
tp61
ss(I0
I0
tp62
(dp63
g3
(F0.7235947258848022
F0.4717672608813682
F0.5711546888694128
tp64
ss(I1
F0.0001
tp65
(dp66
g3
(F0.7503596087456847
F0.47203872952673964
F0.579514525356885
tp67
ss(F0.1
F0.1
tp68
(dp69
g3
(F0.7230842197980893
F0.4828522305673695
F0.5790401779658718
tp70
ss(F0.1
I1
tp71
(dp72
g3
(F0.7467887199173188
F0.4576961360962809
F0.5675493716337523
tp73
ss(I0
F0.01
tp74
(dp75
g3
(F0.718247560205013
F0.4628540403583386
F0.5629385059843169
tp76
ss(I1
I0
tp77
(dp78
g3
(F0.7492160723401152
F0.46484481042439596
F0.5737260924193774
tp79
ss(I1
F0.001
tp80
(dp81
g3
(F0.7524702121476315
F0.4686001266853678
F0.5775386159594045
tp82
ss(I0
I1
tp83
(dp84
g3
(F0.7190753007976206
F0.4813139082435979
F0.5766478751084129
tp85
ss(F0.01
F0.0001
tp86
(dp87
g3
(F0.615191319246145
F0.48737670799022714
F0.5438755932545694
tp88
ss(F0.1
F0.001
tp89
(dp90
g3
(F0.6824708059472911
F0.48389286037462675
F0.5662774998014455
tp91
ss(F0.0001
F0.1
tp92
(dp93
g3
(F0.7161188499279489
F0.4721744638494254
F0.569107021131561
tp94
ss(I0
F0.001
tp95
(dp96
g3
(F0.7200886791103482
F0.4555696317075378
F0.5580712207288346
tp97
ss(F0.001
I1
tp98
(dp99
g3
(F0.7448695397244209
F0.45982264048502397
F0.5686230627203043
tp100
ss(F0.01
F0.01
tp101
(dp102
g3
(F0.6536825073410439
F0.49352999728531355
F0.5624274923302998
tp103
ss(I1
F0.01
tp104
(dp105
g3
(F0.746385029770343
F0.4764274726269116
F0.5816072908036454
tp106
ss(F0.01
F0.1
tp107
(dp108
g3
(F0.7091561938958707
F0.48253551714776943
F0.574297945666514
tp109
ss.