(dp0
(F0.001
F0.001
tp1
(dp2
S'P'
p3
(F0.5938773262856514
F0.4880101348294272
F0.5357639578780052
tp4
ss(F0.001
F0.01
tp5
(dp6
g3
(F0.6282627239124253
F0.4998642656773143
F0.5567566205558495
tp7
ss(F0.0001
I0
tp8
(dp9
g3
(F0.5738358703589282
F0.4622206135191385
F0.5120160380904648
tp10
ss(F0.0001
F0.0001
tp11
(dp12
g3
(F0.5819351230425056
F0.4707718758483395
F0.5204842178980541
tp13
ss(F0.001
I0
tp14
(dp15
g3
(F0.5770069808027923
F0.47868971133834043
F0.5232701914041249
tp16
ss(I0
F0.1
tp17
(dp18
g3
(F0.7367298578199052
F0.42199800922993397
F0.5366204476152121
tp19
ss(F0.0001
F0.01
tp20
(dp21
g3
(F0.6373567969764969
F0.4883268482490272
F0.5529767394200226
tp22
ss(F0.1
F0.0001
tp23
(dp24
g3
(F0.6738890929122292
F0.49814496425662835
F0.5728407908428721
tp25
ss(F0.1
F0.01
tp26
(dp27
g3
(F0.6835935051093975
F0.4933490181883992
F0.5730954195464221
tp28
ss(F0.001
F0.1
tp29
(dp30
g3
(F0.703076237182345
F0.4994570627092571
F0.5840277226675132
tp31
ss(F0.0001
I1
tp32
(dp33
g3
(F0.7512434421203243
F0.4988688806442856
F0.5995812827972484
tp34
ss(F0.01
I0
tp35
(dp36
g3
(F0.5981308411214953
F0.4806804814043978
F0.5330122416215132
tp37
ss(F0.1
I0
tp38
(dp39
g3
(F0.6683760683760683
F0.4953397882544566
F0.5689932955667585
tp40
ss(I0
F0.0001
tp41
(dp42
g3
(F0.7269311064718162
F0.47262691159171116
F0.5728229874972581
tp43
ss(F0.01
F0.001
tp44
(dp45
g3
(F0.6081134527374428
F0.48696950502216996
F0.5408406823949148
tp46
ss(I1
F0.1
tp47
(dp48
g3
(F0.7400406904246243
F0.5101800742014297
F0.6039797530731942
tp49
ss(F0.0001
F0.001
tp50
(dp51
g3
(F0.5909925958915548
F0.48031852321056917
F0.5299388493697741
tp52
ss(F0.001
F0.0001
tp53
(dp54
g3
(F0.5796346079991221
F0.47801103972491177
F0.5239405886582855
tp55
ss(I1
I1
tp56
(dp57
g3
(F0.7627289773546805
F0.4785087322414261
F0.5880782918149466
tp58
ss(F0.01
I1
tp59
(dp60
g3
(F0.7504266502832958
F0.49737580309474255
F0.5982422247013687
tp61
ss(I0
I0
tp62
(dp63
g3
(F0.7236797733863897
F0.4854764274726269
F0.5811151127839909
tp64
ss(I1
F0.0001
tp65
(dp66
g3
(F0.744654856444716
F0.49638041806171385
F0.59568345323741
tp67
ss(F0.1
F0.1
tp68
(dp69
g3
(F0.7172563823661142
F0.5071939191023437
F0.5942063555166839
tp70
ss(F0.1
I1
tp71
(dp72
g3
(F0.7540750760906324
F0.5044339878744005
F0.6044948084691083
tp73
ss(I0
F0.01
tp74
(dp75
g3
(F0.7408007895107853
F0.47547733236811146
F0.5791997354497355
tp76
ss(I1
I0
tp77
(dp78
g3
(F0.7375749500333111
F0.5009048954845715
F0.5966264281095063
tp79
ss(I1
F0.001
tp80
(dp81
g3
(F0.7468345719790807
F0.4910415347027418
F0.592509690451493
tp82
ss(I0
I1
tp83
(dp84
g3
(F0.7457395556194722
F0.4692335535245679
F0.5760226610014163
tp85
ss(F0.01
F0.0001
tp86
(dp87
g3
(F0.5881586094513851
F0.4899104153470274
F0.5345576619273301
tp88
ss(F0.1
F0.001
tp89
(dp90
g3
(F0.6768521364893944
F0.4980997194823998
F0.5738785935830271
tp91
ss(F0.0001
F0.1
tp92
(dp93
g3
(F0.7017845761631613
F0.4981902090308569
F0.5827159187129551
tp94
ss(I0
F0.001
tp95
(dp96
g3
(F0.7225726734733693
F0.5027146864537146
F0.5929187011393048
tp97
ss(F0.001
I1
tp98
(dp99
g3
(F0.7456791790440184
F0.4997285313546285
F0.5984179444113344
tp100
ss(F0.01
F0.01
tp101
(dp102
g3
(F0.6422089091879708
F0.4898651705727988
F0.5557865557865558
tp103
ss(I1
F0.01
tp104
(dp105
g3
(F0.7445191067671214
F0.4962899285132567
F0.5955748608660242
tp106
ss(F0.01
F0.1
tp107
(dp108
g3
(F0.7064651013187521
F0.4968781105782282
F0.5834196615932212
tp109
ss.