(lp0
(dp1
S'P'
p2
(F0.7392767031118587
F0.4599385178886781
F0.5670739083101488
tp3
sa(dp4
g2
(F0.7389811104751002
F0.4749524802256423
F0.5782538912321302
tp5
sa(dp6
g2
(F0.7404512170987532
F0.4652160397886229
F0.5714176625558397
tp7
sa(dp8
g2
(F0.7301798800799467
F0.4687194525904203
F0.570939534883721
tp9
sa(dp10
g2
(F0.7317784256559767
F0.484462458984752
F0.5829752641969573
tp11
sa.