(dp0
(F0.001
F0.001
tp1
(dp2
S'P'
p3
(F0.5859821571665154
F0.4962899285132567
F0.5374194654712036
tp4
ss(F0.001
F0.01
tp5
(dp6
g3
(F0.6334902097495787
F0.49330377341417064
F0.5546765700913183
tp7
ss(F0.001
I0
tp8
(dp9
g3
(F0.5613347955506814
F0.48633607818296987
F0.5211510023999418
tp10
ss(I0
F0.1
tp11
(dp12
g3
(F0.7548596929127902
F0.45154284680119444
F0.5650709169662826
tp13
ss(F0.001
F0.1
tp14
(dp15
g3
(F0.6930385642426877
F0.5049316803909148
F0.5842167255594818
tp16
ss(F0.01
I0
tp17
(dp18
g3
(F0.5930590842748257
F0.49638041806171385
F0.5404300386689983
tp19
ss(F0.1
I0
tp20
(dp21
g3
(F0.6714457831325301
F0.5042982535517148
F0.5759909048627978
tp22
ss(F0.1
F0.01
tp23
(dp24
g3
(F0.6816873813751301
F0.5037553162609718
F0.5793677637569923
tp25
ss(F0.01
F0.001
tp26
(dp27
g3
(F0.602324819908317
F0.4993665731607999
F0.5460347301241775
tp28
ss(I1
F0.1
tp29
(dp30
g3
(F0.7411187965885434
F0.49932132838657134
F0.5966534209174709
tp31
ss(I1
I1
tp32
(dp33
g3
(F0.7555837384626224
F0.48520495882725545
F0.5909353905496624
tp34
ss(F0.01
I1
tp35
(dp36
g3
(F0.7392660428694671
F0.5040267849063433
F0.5993919991391138
tp37
ss(I0
I0
tp38
(dp39
g3
(F0.7353956635823782
F0.48185684553434077
F0.5822217362781543
tp40
ss(F0.1
F0.1
tp41
(dp42
g3
(F0.7168396770472895
F0.5061532892950864
F0.5933488914819136
tp43
ss(F0.1
I1
tp44
(dp45
g3
(F0.7554680070642575
F0.503212378970229
F0.6040625678905062
tp46
ss(I0
F0.01
tp47
(dp48
g3
(F0.7420345763680526
F0.46995746991222515
F0.5754570637119114
tp49
ss(I1
I0
tp50
(dp51
g3
(F0.7475331745491663
F0.49701384490091394
F0.597059542897519
tp52
ss(I1
F0.001
tp53
(dp54
g3
(F0.748347562654916
F0.49176545109039904
F0.5935128051111231
tp55
ss(I0
I1
tp56
(dp57
g3
(F0.7252361673414305
F0.4862908334087413
F0.5822003141758302
tp58
ss(F0.1
F0.001
tp59
(dp60
g3
(F0.6789822874185891
F0.5047054565197719
F0.5790143001738859
tp61
ss(I0
F0.001
tp62
(dp63
g3
(F0.7335635452637281
F0.49018188399239887
F0.5876705269724173
tp64
ss(F0.001
I1
tp65
(dp66
g3
(F0.7596537034492236
F0.5002262238711429
F0.6032300305543431
tp67
ss(F0.01
F0.01
tp68
(dp69
g3
(F0.6323638226421537
F0.502669441679486
F0.5601068790804365
tp70
ss(I1
F0.01
tp71
(dp72
g3
(F0.7433581296493093
F0.5063795131662293
F0.6024005597717854
tp73
ss(F0.01
F0.1
tp74
(dp75
g3
(F0.6941015939961546
F0.5063342683920007
F0.5855330281229562
tp76
ss.