(lp0
(dp1
S'P'
p2
(F0.7492364402317009
F0.4653018510039898
F0.5740800516462234
tp3
sa(dp4
g2
(F0.7252998809632818
F0.4856827518548041
F0.581784796180683
tp5
sa(dp6
g2
(F0.7394509651760598
F0.4739198010568853
F0.5776312798363265
tp7
sa(dp8
g2
(F0.7356375965341873
F0.47721163245356796
F0.5788927592084785
tp9
sa(dp10
g2
(F0.7324540290748051
F0.4894807952132793
F0.5868106440416505
tp11
sa.