(dp0
(F0.001
F0.001
tp1
(dp2
S'P'
p3
(F0.593057160147439
F0.48773866618405576
F0.5352665160505474
tp4
ss(F0.001
F0.01
tp5
(dp6
g3
(F0.6327571051860533
F0.48855307212017013
F0.5513825414251794
tp7
ss(F0.001
I0
tp8
(dp9
g3
(F0.5799651378145767
F0.48172111121165506
F0.5262975778546712
tp10
ss(I0
F0.1
tp11
(dp12
g3
(F0.7313000276014353
F0.4795041172744548
F0.5792206372629393
tp13
ss(F0.001
F0.1
tp14
(dp15
g3
(F0.6981756841184555
F0.5056103520043435
F0.5864910255064554
tp16
ss(F0.01
I0
tp17
(dp18
g3
(F0.6032207559830015
F0.4881006243778844
F0.5395888560996349
tp19
ss(F0.1
I0
tp20
(dp21
g3
(F0.6720166625827003
F0.4963351732874853
F0.5709675740384115
tp22
ss(F0.1
F0.01
tp23
(dp24
g3
(F0.6902715925484538
F0.4979187403854855
F0.578525430411355
tp25
ss(F0.01
F0.001
tp26
(dp27
g3
(F0.6149395950314787
F0.4905438421862275
F0.545742833413032
tp28
ss(I1
F0.1
tp29
(dp30
g3
(F0.7478324663198613
F0.5073296534250294
F0.6045395729997844
tp31
ss(I1
I1
tp32
(dp33
g3
(F0.7637448501207558
F0.4864718125056556
F0.5943615257048092
tp34
ss(F0.01
I1
tp35
(dp36
g3
(F0.7479324951253951
F0.5033028685186861
F0.6017038539553753
tp37
ss(I0
I0
tp38
(dp39
g3
(F0.7237531000275558
F0.47534159804542575
F0.5738161559888579
tp40
ss(F0.1
F0.1
tp41
(dp42
g3
(F0.7168759610456177
F0.5062437788435435
F0.5934234950941395
tp43
ss(F0.1
I1
tp44
(dp45
g3
(F0.74175287917236
F0.5157904262057732
F0.6084705505590989
tp46
ss(I0
F0.01
tp47
(dp48
g3
(F0.7192160485680349
F0.49312279431725636
F0.5850869658578485
tp49
ss(I1
I0
tp50
(dp51
g3
(F0.7499831206535683
F0.5025789521310289
F0.6018475875707745
tp52
ss(I1
F0.001
tp53
(dp54
g3
(F0.7475184009723816
F0.500859650710343
F0.5998211915147246
tp55
ss(I0
I1
tp56
(dp57
g3
(F0.7298758926714276
F0.4762917383042259
F0.5764271047227926
tp58
ss(F0.1
F0.001
tp59
(dp60
g3
(F0.6775882244256944
F0.49778300606279974
F0.5739325491014372
tp61
ss(I0
F0.001
tp62
(dp63
g3
(F0.7374317128829265
F0.48249027237354086
F0.583321937477778
tp64
ss(F0.001
I1
tp65
(dp66
g3
(F0.7460328088382993
F0.5041172744548005
F0.6016686016686017
tp67
ss(F0.01
F0.01
tp68
(dp69
g3
(F0.64784626368396
F0.4926703465749706
F0.5597018761243897
tp70
ss(I1
F0.01
tp71
(dp72
g3
(F0.7314396384764364
F0.5126232920097729
F0.602787827197276
tp73
ss(F0.01
F0.1
tp74
(dp75
g3
(F0.7057359790722899
F0.5004524477422858
F0.5856254136333554
tp76
ss.