(lp0
(dp1
S'P'
p2
(F0.7557745285018013
F0.46654457453070836
F0.576940186840296
tp3
sa(dp4
g2
(F0.7348428143712575
F0.48157459071678216
F0.5818424269363264
tp5
sa(dp6
g2
(F0.726083707025411
F0.4831830898352502
F0.5802381574526858
tp7
sa(dp8
g2
(F0.7300675059295749
F0.4889418377321603
F0.5856567874130991
tp9
sa(dp10
g2
(F0.7436770428015564
F0.49186128803963197
F0.592107810866282
tp11
sa.