(dp0
(F0.001
F0.001
tp1
(dp2
S'P'
p3
(F0.5694663364107183
F0.11442403402407023
F0.1905587160456618
tp4
ss(F0.001
F0.01
tp5
(dp6
g3
(F0.5655581444609193
F0.12080354719029952
F0.19908287663572305
tp7
ss(F0.001
I0
tp8
(dp9
g3
(F0.5846376113652781
F0.10985431182698398
F0.18495524661969145
tp10
ss(I0
F0.1
tp11
(dp12
g3
(F0.5730056238283691
F0.12446837390281422
F0.20451250789874734
tp13
ss(F0.001
F0.1
tp14
(dp15
g3
(F0.5699674569967457
F0.11094018640846982
F0.18572943493410088
tp16
ss(F0.01
I0
tp17
(dp18
g3
(F0.5662192393736017
F0.11451452357252738
F0.19050127954237542
tp19
ss(F0.1
I0
tp20
(dp21
g3
(F0.5369196154632849
F0.11876753235001357
F0.19450928087140157
tp22
ss(F0.1
F0.01
tp23
(dp24
g3
(F0.5396071659831643
F0.1131119355714415
F0.1870207593042828
tp25
ss(F0.01
F0.001
tp26
(dp27
g3
(F0.5815138282387191
F0.10845172382589811
F0.1828096400244051
tp28
ss(I1
F0.1
tp29
(dp30
g3
(F0.5712070874861572
F0.11668627273549904
F0.19378592628771088
tp31
ss(I1
I1
tp32
(dp33
g3
(F0.5581835383159887
F0.10677766717944077
F0.17926319787314848
tp34
ss(F0.01
I1
tp35
(dp36
g3
(F0.5494761350407451
F0.10677766717944077
F0.17880819790127664
tp37
ss(I0
I0
tp38
(dp39
g3
(F0.5690834473324213
F0.13175278255361506
F0.21396818398912526
tp40
ss(F0.1
F0.1
tp41
(dp42
g3
(F0.5395585075210002
F0.12496606641932857
F0.20293156019249844
tp43
ss(F0.1
I1
tp44
(dp45
g3
(F0.5358166189111748
F0.11845081893041354
F0.19401215354972579
tp46
ss(I0
F0.01
tp47
(dp48
g3
(F0.5743313290483102
F0.12532802461315717
F0.20575673166202416
tp49
ss(I1
I0
tp50
(dp51
g3
(F0.5694160418086799
F0.11338340421681296
F0.18911066671697543
tp52
ss(I1
F0.001
tp53
(dp54
g3
(F0.5561486347772532
F0.122568093385214
F0.2008675342008675
tp55
ss(I0
I1
tp56
(dp57
g3
(F0.5822949600148782
F0.14166138810967333
F0.22788311073910986
tp58
ss(F0.1
F0.001
tp59
(dp60
g3
(F0.5687848383500558
F0.1154194190570989
F0.19189829615977735
tp61
ss(I0
F0.001
tp62
(dp63
g3
(F0.5829290206648697
F0.14677404759750248
F0.2345031987566415
tp64
ss(F0.001
I1
tp65
(dp66
g3
(F0.5703405017921147
F0.11519319518595603
F0.19167356771813598
tp67
ss(F0.01
F0.01
tp68
(dp69
g3
(F0.563302346170872
F0.11514795041172744
F0.19120961682945153
tp70
ss(I1
F0.01
tp71
(dp72
g3
(F0.5448822095857027
F0.12139172925527102
F0.19854954488270554
tp73
ss(F0.01
F0.1
tp74
(dp75
g3
(F0.5383806519453207
F0.1389919464301873
F0.22094361334867663
tp76
ss.