(dp0
(F0.01
I1
tp1
(dp2
S'P'
p3
(F0.7786479250334672
F0.5263324586010316
F0.6280978348901247
tp4
ss(F0.1
F0.1
tp5
(dp6
g3
(F0.7236974578404228
F0.5203601484028595
F0.605411380744328
tp7
ss(F0.1
I1
tp8
(dp9
g3
(F0.7641236583327977
F0.5379151208035472
F0.6313693210482993
tp10
ss(F0.1
F0.01
tp11
(dp12
g3
(F0.6870736297341802
F0.5285946973124604
F0.5975042193013861
tp13
ss(I1
F0.1
tp14
(dp15
g3
(F0.7745721592026752
F0.5344765179621753
F0.6325060905415896
tp16
ss(F0.01
F0.01
tp17
(dp18
g3
(F0.6434583014537107
F0.49466111664102796
F0.5593328728928452
tp19
ss(I1
F0.01
tp20
(dp21
g3
(F0.7703820650457847
F0.5519410008144059
F0.6431188549437226
tp22
ss(I1
I1
tp23
(dp24
g3
(F0.7886162374095856
F0.5278255361505746
F0.6323892126304377
tp25
ss(F0.01
F0.1
tp26
(dp27
g3
(F0.7082363304599509
F0.5092751787168582
F0.59249901302803
tp28
ss.