(dp0
(F0.01
I1
tp1
(dp2
S'P'
p3
(F0.7651805794417251
F0.5233915482761741
F0.6216012896292316
tp4
ss(F0.1
F0.1
tp5
(dp6
g3
(F0.7202373593769317
F0.5271921093113745
F0.6087774294670847
tp7
ss(F0.1
I1
tp8
(dp9
g3
(F0.773632334457895
F0.5291376346032033
F0.6284424621832935
tp10
ss(F0.1
F0.01
tp11
(dp12
g3
(F0.6969678702754838
F0.5231200796308026
F0.597658370163604
tp13
ss(I1
F0.1
tp14
(dp15
g3
(F0.772533266382124
F0.5568726812053207
F0.6472103907030552
tp16
ss(F0.01
F0.01
tp17
(dp18
g3
(F0.6362394718870931
F0.5058365758754864
F0.5635932852749912
tp19
ss(I1
F0.01
tp20
(dp21
g3
(F0.7673582644888692
F0.55053841281332
F0.6411127795779658
tp22
ss(I1
I1
tp23
(dp24
g3
(F0.7932673002275465
F0.5362863089313185
F0.6399416909620991
tp25
ss(F0.01
F0.1
tp26
(dp27
g3
(F0.6983201704901592
F0.5040720296805719
F0.5855055707378599
tp28
ss.