(dp0
(F0.01
I1
tp1
(dp2
S'P'
p3
(F0.7592417658542729
F0.5454709980997194
F0.6348437376583028
tp4
ss(F0.1
F0.1
tp5
(dp6
g3
(F0.7182303491440143
F0.5295900823454891
F0.6096512930024219
tp7
ss(F0.1
I1
tp8
(dp9
g3
(F0.7623230535894844
F0.5457877115193195
F0.6361335231767126
tp10
ss(F0.1
F0.01
tp11
(dp12
g3
(F0.68991835285765
F0.5275993122794317
F0.5979386729566197
tp13
ss(I1
F0.1
tp14
(dp15
g3
(F0.7903479973736047
F0.5446113473893766
F0.644862316511304
tp16
ss(F0.01
F0.01
tp17
(dp18
g3
(F0.639768115942029
F0.49932132838657134
F0.5608863590160602
tp19
ss(I1
F0.01
tp20
(dp21
g3
(F0.7751111111111111
F0.5523482037824631
F0.6450385712776074
tp22
ss(I1
I1
tp23
(dp24
g3
(F0.7757568048842534
F0.5518957560401774
F0.6449532067889812
tp25
ss(F0.01
F0.1
tp26
(dp27
g3
(F0.7013414482672959
F0.5109492353633155
F0.5911946393047848
tp28
ss.