(lp0
(dp1
S'P'
p2
(F0.9361702127659575
F0.20657276995305165
F0.3384615384615385
tp3
sa(dp4
g2
(F0.8087248322147651
F0.9377431906614786
F0.8684684684684686
tp5
sa(dp6
g2
(F0.8820754716981132
F0.9211822660098522
F0.9012048192771083
tp7
sa(dp8
g2
(F0.6019417475728155
F0.23076923076923078
F0.3336322869955157
tp9
sa(dp10
g2
(F0.7298578199052133
F0.5992217898832685
F0.6581196581196581
tp11
sa.