(dp0
(F0.01
I1
tp1
(dp2
S'P'
p3
(F0.9145907473309609
F0.3609550561797753
F0.5176233635448138
tp4
ss(F0.1
F0.1
tp5
(dp6
g3
(F0.9205298013245033
F0.3904494382022472
F0.5483234714003945
tp7
ss(F0.1
I1
tp8
(dp9
g3
(F0.9205298013245033
F0.3904494382022472
F0.5483234714003945
tp10
ss(F0.1
F0.01
tp11
(dp12
g3
(F0.9230769230769231
F0.4044943820224719
F0.5625
tp13
ss(I1
F0.1
tp14
(dp15
g3
(F0.9205298013245033
F0.3904494382022472
F0.5483234714003945
tp16
ss(F0.01
F0.01
tp17
(dp18
g3
(F0.9230769230769231
F0.4044943820224719
F0.5625
tp19
ss(I1
F0.01
tp20
(dp21
g3
(F0.9111111111111111
F0.3455056179775281
F0.5010183299389003
tp22
ss(I1
I1
tp23
(dp24
g3
(F0.9036144578313253
F0.3160112359550562
F0.4682622268470344
tp25
ss(F0.01
F0.1
tp26
(dp27
g3
(F0.9205298013245033
F0.3904494382022472
F0.5483234714003945
tp28
ss.