(lp0
(S'Novel'
p1
S'Novel'
p2
S'JJ'
p3
S'B-NP'
p4
S'O'
p5
tp6
a(S'population'
p7
S'population'
p8
S'NN'
p9
S'I-NP'
p10
g5
tp11
a(S'pharmacokinetic'
p12
S'pharmacokinetic'
p13
S'JJ'
p14
S'I-NP'
p15
g5
tp16
a(S'method'
p17
S'method'
p18
S'NN'
p19
S'I-NP'
p20
g5
tp21
a(S'compared'
p22
S'compare'
p23
S'VBN'
p24
S'B-VP'
p25
g5
tp26
a(S'to'
p27
S'to'
p28
S'TO'
p29
S'B-PP'
p30
g5
tp31
a(S'the'
p32
S'the'
p33
S'DT'
p34
S'B-NP'
p35
g5
tp36
a(S'standard'
p37
S'standard'
p38
S'JJ'
p39
S'I-NP'
p40
g5
tp41
a(S'noncompartmental'
p42
S'noncompartmental'
p43
S'JJ'
p44
S'I-NP'
p45
g5
tp46
a(S'approach'
p47
S'approach'
p48
S'NN'
p49
S'I-NP'
p50
g5
tp51
a(S'to'
p52
S'to'
p53
S'TO'
p54
S'B-VP'
p55
g5
tp56
a(S'assess'
p57
S'assess'
p58
S'VB'
p59
S'I-VP'
p60
g5
tp61
a(S'bioequivalence'
p62
S'bioequivalence'
p63
S'NN'
p64
S'B-NP'
p65
g5
tp66
a(S'of'
p67
S'of'
p68
S'IN'
p69
S'B-PP'
p70
g5
tp71
a(S'iron'
p72
S'iron'
p73
S'NN'
p74
S'B-NP'
p75
g5
tp76
a(S'gluconate'
p77
S'gluconate'
p78
S'NN'
p79
S'I-NP'
p80
g5
tp81
a(S'formulations'
p82
S'formulation'
p83
S'NNS'
p84
S'I-NP'
p85
g5
tp86
a(S'.'
p87
g87
g87
g5
g5
tp88
a(S'PURPOSE'
p89
S'PURPOSE'
p90
S'NN'
p91
S'B-NP'
p92
S'B-protein'
p93
tp94
a(S'Iron-containing'
p95
S'Iron-containing'
p96
S'JJ'
p97
S'I-NP'
p98
S'I-protein'
p99
tp100
a(S'products'
p101
S'product'
p102
S'NNS'
p103
S'I-NP'
p104
S'I-protein'
p105
tp106
a(S'are'
p107
S'be'
p108
S'VBP'
p109
S'B-VP'
p110
g5
tp111
a(S'atypical'
p112
S'atypical'
p113
S'JJ'
p114
S'B-ADJP'
p115
g5
tp116
a(S'in'
p117
S'in'
p118
S'IN'
p119
S'B-PP'
p120
g5
tp121
a(S'terms'
p122
S'term'
p123
S'NNS'
p124
S'B-NP'
p125
g5
tp126
a(S'of'
p127
S'of'
p128
S'IN'
p129
S'B-PP'
p130
g5
tp131
a(S'their'
p132
S'their'
p133
S'PRP$'
p134
S'B-NP'
p135
g5
tp136
a(S'pharmacokinetic'
p137
S'pharmacokinetic'
p138
S'JJ'
p139
S'I-NP'
p140
g5
tp141
a(S'properties'
p142
S'property'
p143
S'NNS'
p144
S'I-NP'
p145
g5
tp146
a(S'because'
p147
S'because'
p148
S'IN'
p149
S'B-SBAR'
p150
g5
tp151
a(S'iron'
p152
S'iron'
p153
S'NN'
p154
S'B-NP'
p155
g5
tp156
a(S'is'
p157
S'be'
p158
S'VBZ'
p159
S'B-VP'
p160
g5
tp161
a(S'only'
p162
S'only'
p163
S'RB'
p164
S'I-VP'
p165
g5
tp166
a(S'removed'
p167
S'remove'
p168
S'VBN'
p169
S'I-VP'
p170
g5
tp171
a(S'by'
p172
S'by'
p173
S'IN'
p174
S'B-PP'
p175
g5
tp176
a(S'plasma'
p177
S'plasma'
p178
S'NN'
p179
S'B-NP'
p180
g5
tp181
a(S'sampling'
p182
S'sampling'
p183
S'NN'
p184
S'I-NP'
p185
g5
tp186
a(S'and'
p187
S'and'
p188
S'CC'
p189
g5
g5
tp190
a(S'is'
p191
S'be'
p192
S'VBZ'
p193
S'B-VP'
p194
g5
tp195
a(S'non-linear.'
p196
S'non-linear.'
p197
S'JJ'
p198
S'B-ADJP'
p199
g5
tp200
a(S'This'
p201
S'This'
p202
S'DT'
p203
S'B-NP'
p204
g5
tp205
a(S'study'
p206
S'study'
p207
S'NN'
p208
S'I-NP'
p209
g5
tp210
a(S'aims'
p211
S'aim'
p212
S'VBZ'
p213
S'B-VP'
p214
g5
tp215
a(S'to'
p216
S'to'
p217
S'TO'
p218
S'I-VP'
p219
g5
tp220
a(S'present'
p221
S'present'
p222
S'VB'
p223
S'I-VP'
p224
g5
tp225
a(S'a'
p226
g226
S'DT'
p227
S'B-NP'
p228
g5
tp229
a(S'novel'
p230
S'novel'
p231
S'JJ'
p232
S'I-NP'
p233
g5
tp234
a(S'way'
p235
S'way'
p236
S'NN'
p237
S'I-NP'
p238
g5
tp239
a(S'of'
p240
S'of'
p241
S'IN'
p242
S'B-PP'
p243
g5
tp244
a(S'assessing'
p245
S'assess'
p246
S'VBG'
p247
S'B-VP'
p248
g5
tp249
a(S'the'
p250
S'the'
p251
S'DT'
p252
S'B-NP'
p253
g5
tp254
a(S'relative'
p255
S'relative'
p256
S'JJ'
p257
S'I-NP'
p258
g5
tp259
a(S'bioavailability'
p260
S'bioavailability'
p261
S'NN'
p262
S'I-NP'
p263
g5
tp264
a(S'of'
p265
S'of'
p266
S'IN'
p267
S'B-PP'
p268
g5
tp269
a(S'two'
p270
S'two'
p271
S'CD'
p272
S'B-NP'
p273
g5
tp274
a(S'sodium'
p275
S'sodium'
p276
S'NN'
p277
S'I-NP'
p278
S'B-protein'
p279
tp280
a(S'ferric'
p281
S'ferric'
p282
S'JJ'
p283
S'I-NP'
p284
S'I-protein'
p285
tp286
a(S'gluconate'
p287
S'gluconate'
p288
S'NN'
p289
S'I-NP'
p290
S'I-protein'
p291
tp292
a(S'complex'
p293
S'complex'
p294
S'NN'
p295
S'I-NP'
p296
S'I-protein'
p297
tp298
a(S'('
p299
g299
g299
g5
g5
tp300
a(S'SFGC'
p301
S'SFGC'
p302
S'NN'
p303
S'B-NP'
p304
g5
tp305
a(S')'
p306
g306
g306
g5
g5
tp307
a(S'formulations'
p308
S'formulation'
p309
S'NNS'
p310
S'B-NP'
p311
g5
tp312
a(S'and'
p313
S'and'
p314
S'CC'
p315
g5
g5
tp316
a(S'compare'
p317
S'compare'
p318
S'VB'
p319
S'B-VP'
p320
g5
tp321
a(S'this'
p322
S'this'
p323
S'DT'
p324
S'B-NP'
p325
g5
tp326
a(S'approach'
p327
S'approach'
p328
S'NN'
p329
S'I-NP'
p330
g5
tp331
a(S'to'
p332
S'to'
p333
S'TO'
p334
S'B-PP'
p335
g5
tp336
a(g226
g226
S'DT'
p337
S'B-NP'
p338
g5
tp339
a(S'standard'
p340
S'standard'
p341
S'NN'
p342
S'I-NP'
p343
g5
tp344
a(S'previously'
p345
S'previously'
p346
S'RB'
p347
S'B-NP'
p348
g5
tp349
a(S'published'
p350
S'publish'
p351
S'VBN'
p352
S'I-NP'
p353
g5
tp354
a(S'noncompartmental'
p355
S'noncompartmental'
p356
S'JJ'
p357
S'I-NP'
p358
g5
tp359
a(S'approach'
p360
S'approach'
p361
S'NN'
p362
S'I-NP'
p363
g5
tp364
a(g87
g87
g87
g5
g5
tp365
a(S'METHODS'
p366
S'METHODS'
p367
S'NNS'
p368
S'B-NP'
p369
g5
tp370
a(S'Data'
p371
S'Datum'
p372
S'NNS'
p373
S'I-NP'
p374
g5
tp375
a(S'were'
p376
S'be'
p377
S'VBD'
p378
S'B-VP'
p379
g5
tp380
a(S'from'
p381
S'from'
p382
S'IN'
p383
S'B-PP'
p384
g5
tp385
a(S'open-label'
p386
S'open-label'
p387
S'NN'
p388
S'B-NP'
p389
g5
tp390
a(S','
p391
g391
g391
g5
g5
tp392
a(S'randomized'
p393
S'randomize'
p394
S'VBN'
p395
S'B-NP'
p396
g5
tp397
a(g391
g391
g391
S'I-NP'
p398
g5
tp399
a(S'single-dose'
p400
S'single-dose'
p401
S'JJ'
p402
S'I-NP'
p403
g5
tp404
a(S'studies'
p405
S'study'
p406
S'NNS'
p407
S'I-NP'
p408
g5
tp409
a(g299
g299
g299
g5
g5
tp410
a(S'Study'
p411
S'Study'
p412
S'NN'
p413
S'B-NP'
p414
g5
tp415
a(S'1'
p416
g416
S'CD'
p417
S'I-NP'
p418
g5
tp419
a(S'was'
p420
S'be'
p421
S'VBD'
p422
S'B-VP'
p423
g5
tp424
a(S'parallel'
p425
S'parallel'
p426
S'JJ'
p427
S'B-ADJP'
p428
g5
tp429
a(S'whereas'
p430
S'whereas'
p431
S'IN'
p432
S'B-PP'
p433
g5
tp434
a(S'Study'
p435
S'Study'
p436
S'NN'
p437
S'B-NP'
p438
S'B-protein'
p439
tp440
a(S'2'
p441
g441
S'CD'
p442
S'I-NP'
p443
S'I-protein'
p444
tp445
a(S'was'
p446
S'be'
p447
S'VBD'
p448
S'B-VP'
p449
g5
tp450
a(S'crossover'
p451
S'crossover'
p452
S'NN'
p453
S'B-NP'
p454
g5
tp455
a(g306
g306
g306
g5
g5
tp456
a(g87
g87
g87
g5
g5
tp457
a(S'Subjects'
p458
S'Subject'
p459
S'NNPS'
p460
S'B-NP'
p461
g5
tp462
a(S'with'
p463
S'with'
p464
S'IN'
p465
S'B-PP'
p466
g5
tp467
a(S'low'
p468
S'low'
p469
S'JJ'
p470
S'B-NP'
p471
g5
tp472
a(S'but'
p473
S'but'
p474
S'CC'
p475
S'I-NP'
p476
g5
tp477
a(S'normal'
p478
S'normal'
p479
S'JJ'
p480
S'I-NP'
p481
g5
tp482
a(S'iron'
p483
S'iron'
p484
S'NN'
p485
S'I-NP'
p486
g5
tp487
a(S'levels'
p488
S'level'
p489
S'NNS'
p490
S'I-NP'
p491
g5
tp492
a(S'were'
p493
S'be'
p494
S'VBD'
p495
S'B-VP'
p496
g5
tp497
a(S'infused'
p498
S'infuse'
p499
S'VBN'
p500
S'I-VP'
p501
g5
tp502
a(S'IV'
p503
S'IV'
p504
S'CD'
p505
S'B-NP'
p506
g5
tp507
a(S'SFGC'
p508
S'SFGC'
p509
S'NN'
p510
S'I-NP'
p511
g5
tp512
a(S'in'
p513
S'in'
p514
S'IN'
p515
S'B-PP'
p516
g5
tp517
a(S'sucrose'
p518
S'sucrose'
p519
S'NN'
p520
S'B-NP'
p521
g5
tp522
a(S'by'
p523
S'by'
p524
S'IN'
p525
S'B-PP'
p526
g5
tp527
a(S'GeneraMedix'
p528
S'GeneraMedix'
p529
S'NNP'
p530
S'B-NP'
p531
g5
tp532
a(S'Inc.'
p533
S'Inc.'
p534
S'NNP'
p535
S'I-NP'
p536
g5
tp537
a(S'and/or'
p538
S'and/or'
p539
S'CC'
p540
g5
g5
tp541
a(S'Ferrlecit'
p542
S'Ferrlecit'
p543
S'NNP'
p544
S'B-NP'
p545
g5
tp546
a(S'\xc2\xae'
p547
S'\xc2\xae'
p548
S'NNP'
p549
S'I-NP'
p550
g5
tp551
a(S'Injection'
p552
S'Injection'
p553
S'NNP'
p554
S'I-NP'
p555
g5
tp556
a(g299
g299
g299
g5
g5
tp557
a(S'Watson'
p558
S'Watson'
p559
S'NNP'
p560
S'B-NP'
p561
g5
tp562
a(S'Laboratories'
p563
S'Laboratories'
p564
S'NNP'
p565
S'I-NP'
p566
g5
tp567
a(S'Inc.'
p568
S'Inc.'
p569
S'NNP'
p570
S'I-NP'
p571
g5
tp572
a(g306
g306
g306
g5
g5
tp573
a(g87
g87
g87
g5
g5
tp574
a(S'In'
p575
S'In'
p576
S'IN'
p577
S'B-PP'
p578
g5
tp579
a(S'Study'
p580
S'Study'
p581
S'NNP'
p582
S'B-NP'
p583
g5
tp584
a(g416
g416
S'CD'
p585
S'I-NP'
p586
g5
tp587
a(g299
g299
g299
g5
g5
tp588
a(S'n=240'
p589
S'n=240'
p590
S'NN'
p591
S'B-NP'
p592
S'B-protein'
p593
tp594
a(g306
g306
g306
g5
g5
tp595
a(g391
g391
g391
g5
g5
tp596
a(S'125'
p597
S'125'
p598
S'CD'
p599
S'B-NP'
p600
g5
tp601
a(S'mg'
p602
S'mg'
p603
S'NN'
p604
S'I-NP'
p605
g5
tp606
a(S'was'
p607
S'be'
p608
S'VBD'
p609
S'B-VP'
p610
g5
tp611
a(S'infused'
p612
S'infuse'
p613
S'VBN'
p614
S'I-VP'
p615
g5
tp616
a(S'over'
p617
S'over'
p618
S'IN'
p619
S'B-PP'
p620
g5
tp621
a(S'10'
p622
S'10'
p623
S'CD'
p624
S'B-NP'
p625
g5
tp626
a(S'minutes.'
p627
S'minutes.'
p628
S'NNS'
p629
S'I-NP'
p630
g5
tp631
a(S'In'
p632
S'In'
p633
S'IN'
p634
S'B-PP'
p635
g5
tp636
a(S'Study'
p637
S'Study'
p638
S'NN'
p639
S'B-NP'
p640
g5
tp641
a(g441
g441
S'CD'
p642
S'I-NP'
p643
g5
tp644
a(g299
g299
g299
g5
g5
tp645
a(S'n=29'
p646
S'n=29'
p647
S'NN'
p648
S'B-NP'
p649
S'B-protein'
p650
tp651
a(g306
g306
g306
g5
g5
tp652
a(g391
g391
g391
g5
g5
tp653
a(S'62.5'
p654
S'62.5'
p655
S'CD'
p656
S'B-NP'
p657
g5
tp658
a(S'mg'
p659
S'mg'
p660
S'NN'
p661
S'I-NP'
p662
g5
tp663
a(S'was'
p664
S'be'
p665
S'VBD'
p666
S'B-VP'
p667
g5
tp668
a(S'infused'
p669
S'infuse'
p670
S'VBN'
p671
S'I-VP'
p672
g5
tp673
a(S'over'
p674
S'over'
p675
S'IN'
p676
S'B-PP'
p677
g5
tp678
a(S'30'
p679
S'30'
p680
S'CD'
p681
S'B-NP'
p682
g5
tp683
a(S'minutes.'
p684
S'minutes.'
p685
S'JJ'
p686
S'I-NP'
p687
g5
tp688
a(S'Samples'
p689
S'Sample'
p690
S'NNS'
p691
S'I-NP'
p692
g5
tp693
a(S'were'
p694
S'be'
p695
S'VBD'
p696
S'B-VP'
p697
g5
tp698
a(S'assayed'
p699
S'assay'
p700
S'VBN'
p701
S'I-VP'
p702
g5
tp703
a(S'for'
p704
S'for'
p705
S'IN'
p706
S'B-PP'
p707
g5
tp708
a(S'total'
p709
S'total'
p710
S'JJ'
p711
S'B-NP'
p712
g5
tp713
a(S'iron'
p714
S'iron'
p715
S'NN'
p716
S'I-NP'
p717
g5
tp718
a(g299
g299
g299
g5
g5
tp719
a(S'TI'
p720
S'TI'
p721
S'NN'
p722
S'B-NP'
p723
g5
tp724
a(g306
g306
g306
g5
g5
tp725
a(S'and'
p726
S'and'
p727
S'CC'
p728
g5
g5
tp729
a(S'transferrin-bound'
p730
S'transferrin-bound'
p731
S'JJ'
p732
S'B-NP'
p733
g5
tp734
a(S'iron'
p735
S'iron'
p736
S'NN'
p737
S'I-NP'
p738
g5
tp739
a(g299
g299
g299
g5
g5
tp740
a(S'TBI'
p741
S'TBI'
p742
S'NN'
p743
S'B-NP'
p744
g5
tp745
a(g306
g306
g306
g5
g5
tp746
a(S'over'
p747
S'over'
p748
S'IN'
p749
S'B-NP'
p750
g5
tp751
a(S'36'
p752
S'36'
p753
S'CD'
p754
S'I-NP'
p755
g5
tp756
a(S'hours'
p757
S'hour'
p758
S'NNS'
p759
S'I-NP'
p760
g5
tp761
a(g299
g299
g299
g5
g5
tp762
a(S'Study'
p763
S'Study'
p764
S'NN'
p765
S'B-NP'
p766
g5
tp767
a(g416
g416
S'CD'
p768
S'I-NP'
p769
g5
tp770
a(g306
g306
g306
g5
g5
tp771
a(S'or'
p772
S'or'
p773
S'CC'
p774
g5
g5
tp775
a(S'72'
p776
S'72'
p777
S'CD'
p778
S'B-NP'
p779
g5
tp780
a(S'hours'
p781
S'hour'
p782
S'NNS'
p783
S'I-NP'
p784
g5
tp785
a(g299
g299
g299
g5
g5
tp786
a(S'Study'
p787
S'Study'
p788
S'NN'
p789
S'B-NP'
p790
g5
tp791
a(g441
g441
S'CD'
p792
S'I-NP'
p793
g5
tp794
a(g306
g306
g306
g5
g5
tp795
a(S'post-dose.'
p796
S'post-dose.'
p797
S'JJ'
p798
S'B-NP'
p799
g5
tp800
a(S'Studies'
p801
S'Study'
p802
S'NNS'
p803
S'I-NP'
p804
g5
tp805
a(g416
g416
S'CD'
p806
S'B-NP'
p807
g5
tp808
a(S'and'
p809
S'and'
p810
S'CC'
p811
S'I-NP'
p812
g5
tp813
a(g441
g441
S'CD'
p814
S'I-NP'
p815
g5
tp816
a(S'used'
p817
S'use'
p818
S'VBN'
p819
S'B-VP'
p820
g5
tp821
a(S'standard'
p822
S'standard'
p823
S'JJ'
p824
S'B-NP'
p825
g5
tp826
a(S'noncompartmental'
p827
S'noncompartmental'
p828
S'JJ'
p829
S'I-NP'
p830
g5
tp831
a(S'analysis.'
p832
S'analysis.'
p833
S'NN'
p834
S'I-NP'
p835
g5
tp836
a(S'Study'
p837
S'Study'
p838
S'NN'
p839
S'I-NP'
p840
g5
tp841
a(g441
g441
S'CD'
p842
S'I-NP'
p843
g5
tp844
a(S'also'
p845
S'also'
p846
S'RB'
p847
S'B-ADVP'
p848
g5
tp849
a(S'used'
p850
S'use'
p851
S'VBN'
p852
S'B-VP'
p853
g5
tp854
a(S'population'
p855
S'population'
p856
S'NN'
p857
S'B-NP'
p858
g5
tp859
a(S'PK'
p860
S'PK'
p861
S'NN'
p862
S'I-NP'
p863
g5
tp864
a(g299
g299
g299
g5
g5
tp865
a(S'PPK'
p866
S'PPK'
p867
S'NN'
p868
S'B-NP'
p869
S'B-protein'
p870
tp871
a(g306
g306
g306
g5
g5
tp872
a(S'analyses'
p873
S'analysis'
p874
S'NNS'
p875
S'B-NP'
p876
g5
tp877
a(S'with'
p878
S'with'
p879
S'IN'
p880
S'B-PP'
p881
g5
tp882
a(S'ADAPT'
p883
S'ADAPT'
p884
S'NN'
p885
S'B-NP'
p886
S'B-protein'
p887
tp888
a(S'5\xc2\xae.'
p889
S'5\xc2\xae.'
p890
S'LS'
p891
S'B-LST'
p892
g5
tp893
a(S'The'
p894
S'The'
p895
S'DT'
p896
S'B-NP'
p897
g5
tp898
a(S'final'
p899
S'final'
p900
S'JJ'
p901
S'I-NP'
p902
g5
tp903
a(S'model'
p904
S'model'
p905
S'NN'
p906
S'I-NP'
p907
g5
tp908
a(S'predicted'
p909
S'predict'
p910
S'VBD'
p911
S'B-VP'
p912
g5
tp913
a(S'SFGC'
p914
S'SFGC'
p915
S'NN'
p916
S'B-NP'
p917
g5
tp918
a(S'area-under-the-curve'
p919
S'area-under-the-curve'
p920
S'NN'
p921
S'I-NP'
p922
g5
tp923
a(g299
g299
g299
g5
g5
tp924
a(S'AUCpred'
p925
S'AUCpre'
p926
S'VBN'
p927
S'B-VP'
p928
g5
tp929
a(g306
g306
g306
g5
g5
tp930
a(S'and'
p931
S'and'
p932
S'CC'
p933
g5
g5
tp934
a(S'maximal'
p935
S'maximal'
p936
S'JJ'
p937
S'B-NP'
p938
g5
tp939
a(S'concentration'
p940
S'concentration'
p941
S'NN'
p942
S'I-NP'
p943
g5
tp944
a(g299
g299
g299
g5
g5
tp945
a(S'Cmaxpred'
p946
S'Cmaxpre'
p947
S'VBN'
p948
S'B-VP'
p949
g5
tp950
a(g306
g306
g306
g5
g5
tp951
a(g87
g87
g87
g5
g5
tp952
a(S'Analyses'
p953
S'Analysis'
p954
S'NNS'
p955
S'B-NP'
p956
g5
tp957
a(S'of'
p958
S'of'
p959
S'IN'
p960
S'B-PP'
p961
g5
tp962
a(S'variance'
p963
S'variance'
p964
S'NN'
p965
S'B-NP'
p966
g5
tp967
a(S'was'
p968
S'be'
p969
S'VBD'
p970
S'B-VP'
p971
g5
tp972
a(S'conducted'
p973
S'conduct'
p974
S'VBN'
p975
S'I-VP'
p976
g5
tp977
a(S'on'
p978
S'on'
p979
S'IN'
p980
S'B-PP'
p981
g5
tp982
a(S'ln-transformed'
p983
S'ln-transformed'
p984
S'JJ'
p985
S'B-NP'
p986
g5
tp987
a(S'PK'
p988
S'PK'
p989
S'NN'
p990
S'I-NP'
p991
g5
tp992
a(S'parameters.'
p993
S'parameters.'
p994
S'NN'
p995
S'I-NP'
p996
g5
tp997
a(S'Ratios'
p998
S'Ratio'
p999
S'NNS'
p1000
S'I-NP'
p1001
g5
tp1002
a(S'of'
p1003
S'of'
p1004
S'IN'
p1005
S'B-PP'
p1006
g5
tp1007
a(S'means'
p1008
S'mean'
p1009
S'NNS'
p1010
S'B-NP'
p1011
g5
tp1012
a(S'and'
p1013
S'and'
p1014
S'CC'
p1015
g5
g5
tp1016
a(S'90'
p1017
S'90'
p1018
S'CD'
p1019
S'B-NP'
p1020
g5
tp1021
a(S'%'
p1022
g1022
S'NN'
p1023
S'I-NP'
p1024
g5
tp1025
a(S'confidence'
p1026
S'confidence'
p1027
S'NN'
p1028
S'I-NP'
p1029
g5
tp1030
a(S'intervals'
p1031
S'interval'
p1032
S'NNS'
p1033
S'I-NP'
p1034
g5
tp1035
a(g299
g299
g299
g5
g5
tp1036
a(S'CIs'
p1037
S'CI'
p1038
S'NNS'
p1039
S'B-NP'
p1040
S'B-protein'
p1041
tp1042
a(g306
g306
g306
g5
g5
tp1043
a(S'were'
p1044
S'be'
p1045
S'VBD'
p1046
S'B-VP'
p1047
g5
tp1048
a(S'estimated.'
p1049
S'estimated.'
p1050
S'VBN'
p1051
S'I-VP'
p1052
g5
tp1053
a(S'Bioequivalence'
p1054
S'Bioequivalence'
p1055
S'NNP'
p1056
S'B-NP'
p1057
g5
tp1058
a(S'was'
p1059
S'be'
p1060
S'VBD'
p1061
S'B-VP'
p1062
g5
tp1063
a(S'demonstrated'
p1064
S'demonstrate'
p1065
S'VBN'
p1066
S'I-VP'
p1067
g5
tp1068
a(S'if'
p1069
S'if'
p1070
S'IN'
p1071
S'B-SBAR'
p1072
g5
tp1073
a(S'values'
p1074
S'value'
p1075
S'NNS'
p1076
S'B-NP'
p1077
g5
tp1078
a(S'were'
p1079
S'be'
p1080
S'VBD'
p1081
S'B-VP'
p1082
g5
tp1083
a(S'within'
p1084
S'within'
p1085
S'IN'
p1086
S'B-PP'
p1087
g5
tp1088
a(S'80-125'
p1089
S'80-125'
p1090
S'CD'
p1091
S'B-NP'
p1092
g5
tp1093
a(g1022
g1022
S'NN'
p1094
S'I-NP'
p1095
g5
tp1096
a(g87
g87
g87
g5
g5
tp1097
a(S'RESULTS'
p1098
S'RESULTS'
p1099
S'NNS'
p1100
S'B-NP'
p1101
g5
tp1102
a(S'For'
p1103
S'For'
p1104
S'IN'
p1105
S'B-PP'
p1106
g5
tp1107
a(S'Study'
p1108
S'Study'
p1109
S'NN'
p1110
S'B-NP'
p1111
g5
tp1112
a(g416
g416
S'CD'
p1113
S'I-NP'
p1114
g5
tp1115
a(g391
g391
g391
g5
g5
tp1116
a(S'ratios'
p1117
S'ratio'
p1118
S'NNS'
p1119
S'B-NP'
p1120
g5
tp1121
a(S'and'
p1122
S'and'
p1123
S'CC'
p1124
g5
g5
tp1125
a(S'90'
p1126
S'90'
p1127
S'CD'
p1128
S'B-NP'
p1129
g5
tp1130
a(g1022
g1022
S'NN'
p1131
S'I-NP'
p1132
g5
tp1133
a(S'CIs'
p1134
S'CI'
p1135
S'NNS'
p1136
S'I-NP'
p1137
g5
tp1138
a(S'for'
p1139
S'for'
p1140
S'IN'
p1141
S'B-PP'
p1142
g5
tp1143
a(S'TI'
p1144
S'TI'
p1145
S'NN'
p1146
S'B-NP'
p1147
g5
tp1148
a(S'baseline-corrected'
p1149
S'baseline-corrected'
p1150
S'JJ'
p1151
S'I-NP'
p1152
g5
tp1153
a(S'Cmax'
p1154
S'Cmax'
p1155
S'NN'
p1156
S'I-NP'
p1157
g5
tp1158
a(S'and'
p1159
S'and'
p1160
S'CC'
p1161
S'I-NP'
p1162
g5
tp1163
a(S'AUC0-36'
p1164
S'AUC0-36'
p1165
S'NN'
p1166
S'I-NP'
p1167
g5
tp1168
a(S'were'
p1169
S'be'
p1170
S'VBD'
p1171
S'B-VP'
p1172
g5
tp1173
a(S'100.4'
p1174
S'100.4'
p1175
S'CD'
p1176
S'B-NP'
p1177
g5
tp1178
a(g299
g299
g299
g5
g5
tp1179
a(S'96.5'
p1180
S'96.5'
p1181
S'CD'
p1182
S'B-NP'
p1183
g5
tp1184
a(S'-'
p1185
g1185
S'HYPH'
p1186
g5
g5
tp1187
a(S'104.5'
p1188
S'104.5'
p1189
S'CD'
p1190
S'B-NP'
p1191
g5
tp1192
a(g306
g306
g306
g5
g5
tp1193
a(S'and'
p1194
S'and'
p1195
S'CC'
p1196
g5
g5
tp1197
a(S'99.7'
p1198
S'99.7'
p1199
S'CD'
p1200
S'B-NP'
p1201
g5
tp1202
a(g299
g299
g299
g5
g5
tp1203
a(S'94.2'
p1204
S'94.2'
p1205
S'CD'
p1206
S'B-NP'
p1207
g5
tp1208
a(g1185
g1185
S'HYPH'
p1209
g5
g5
tp1210
a(S'105.5'
p1211
S'105.5'
p1212
S'CD'
p1213
S'B-NP'
p1214
g5
tp1215
a(g306
g306
g306
g5
g5
tp1216
a(g87
g87
g87
g5
g5
tp1217
a(S'For'
p1218
S'For'
p1219
S'IN'
p1220
S'B-PP'
p1221
g5
tp1222
a(S'TBI'
p1223
S'TBI'
p1224
S'NNP'
p1225
S'B-NP'
p1226
g5
tp1227
a(g391
g391
g391
g5
g5
tp1228
a(S'results'
p1229
S'result'
p1230
S'VBZ'
p1231
S'B-VP'
p1232
g5
tp1233
a(S'for'
p1234
S'for'
p1235
S'IN'
p1236
S'B-PP'
p1237
g5
tp1238
a(S'TI'
p1239
S'TI'
p1240
S'NN'
p1241
S'B-NP'
p1242
g5
tp1243
a(S'baseline-corrected'
p1244
S'baseline-corrected'
p1245
S'JJ'
p1246
S'I-NP'
p1247
g5
tp1248
a(S'Cmax'
p1249
S'Cmax'
p1250
S'NN'
p1251
S'I-NP'
p1252
g5
tp1253
a(S'and'
p1254
S'and'
p1255
S'CC'
p1256
S'I-NP'
p1257
g5
tp1258
a(S'AUC0-36'
p1259
S'AUC0-36'
p1260
S'NN'
p1261
S'I-NP'
p1262
g5
tp1263
a(S'were'
p1264
S'be'
p1265
S'VBD'
p1266
S'B-VP'
p1267
g5
tp1268
a(S'86.8'
p1269
S'86.8'
p1270
S'CD'
p1271
S'B-NP'
p1272
g5
tp1273
a(g299
g299
g299
g5
g5
tp1274
a(S'82.7'
p1275
S'82.7'
p1276
S'CD'
p1277
S'B-NP'
p1278
g5
tp1279
a(g1185
g1185
S'HYPH'
p1280
g5
g5
tp1281
a(S'91.1'
p1282
S'91.1'
p1283
S'CD'
p1284
S'B-NP'
p1285
g5
tp1286
a(g306
g306
g306
g5
g5
tp1287
a(S'and'
p1288
S'and'
p1289
S'CC'
p1290
g5
g5
tp1291
a(S'92.4'
p1292
S'92.4'
p1293
S'CD'
p1294
S'B-NP'
p1295
g5
tp1296
a(g299
g299
g299
g5
g5
tp1297
a(S'85.6'
p1298
S'85.6'
p1299
S'CD'
p1300
S'B-NP'
p1301
g5
tp1302
a(g1185
g1185
S'HYPH'
p1303
g5
g5
tp1304
a(S'99.7'
p1305
S'99.7'
p1306
S'CD'
p1307
S'B-NP'
p1308
g5
tp1309
a(g306
g306
g306
g5
g5
tp1310
a(g87
g87
g87
g5
g5
tp1311
a(S'For'
p1312
S'For'
p1313
S'IN'
p1314
S'B-PP'
p1315
g5
tp1316
a(S'Study'
p1317
S'Study'
p1318
S'NNP'
p1319
S'B-NP'
p1320
g5
tp1321
a(g441
g441
S'CD'
p1322
S'I-NP'
p1323
g5
tp1324
a(g391
g391
g391
g5
g5
tp1325
a(g226
g226
S'DT'
p1326
S'B-NP'
p1327
g5
tp1328
a(S'multi-compartmental'
p1329
S'multi-compartmental'
p1330
S'JJ'
p1331
S'I-NP'
p1332
g5
tp1333
a(S'model'
p1334
S'model'
p1335
S'NN'
p1336
S'I-NP'
p1337
g5
tp1338
a(S'simultaneously'
p1339
S'simultaneously'
p1340
S'RB'
p1341
S'B-ADVP'
p1342
g5
tp1343
a(S'described'
p1344
S'describe'
p1345
S'VBD'
p1346
S'B-VP'
p1347
g5
tp1348
a(S'the'
p1349
S'the'
p1350
S'DT'
p1351
S'B-NP'
p1352
g5
tp1353
a(S'PK'
p1354
S'PK'
p1355
S'NN'
p1356
S'I-NP'
p1357
S'B-protein'
p1358
tp1359
a(S'of'
p1360
S'of'
p1361
S'IN'
p1362
S'B-PP'
p1363
g5
tp1364
a(S'TI'
p1365
S'TI'
p1366
S'NNP'
p1367
S'B-NP'
p1368
g5
tp1369
a(g391
g391
g391
g5
g5
tp1370
a(S'TBI'
p1371
S'TBI'
p1372
S'NNP'
p1373
S'B-NP'
p1374
g5
tp1375
a(S'and'
p1376
S'and'
p1377
S'CC'
p1378
g5
g5
tp1379
a(S'SFGC.'
p1380
S'SFGC.'
p1381
S'NNP'
p1382
S'B-NP'
p1383
g5
tp1384
a(S'Ratios'
p1385
S'Ratios'
p1386
S'NNP'
p1387
S'I-NP'
p1388
g5
tp1389
a(S'and'
p1390
S'and'
p1391
S'CC'
p1392
g5
g5
tp1393
a(S'90'
p1394
S'90'
p1395
S'CD'
p1396
S'B-NP'
p1397
g5
tp1398
a(g1022
g1022
S'NN'
p1399
S'I-NP'
p1400
g5
tp1401
a(S'CIs'
p1402
S'CI'
p1403
S'NNS'
p1404
S'I-NP'
p1405
g5
tp1406
a(S'for'
p1407
S'for'
p1408
S'IN'
p1409
S'B-PP'
p1410
g5
tp1411
a(S'SFGC'
p1412
S'SFGC'
p1413
S'NNP'
p1414
S'B-NP'
p1415
g5
tp1416
a(S'Cmaxpred'
p1417
S'Cmaxpred'
p1418
S'NNP'
p1419
S'I-NP'
p1420
g5
tp1421
a(S'and'
p1422
S'and'
p1423
S'CC'
p1424
g5
g5
tp1425
a(S'AUCpred'
p1426
S'AUCpred'
p1427
S'NNP'
p1428
S'B-NP'
p1429
g5
tp1430
a(S'were'
p1431
S'be'
p1432
S'VBD'
p1433
S'B-VP'
p1434
g5
tp1435
a(S'89.9'
p1436
S'89.9'
p1437
S'CD'
p1438
S'B-NP'
p1439
g5
tp1440
a(g299
g299
g299
g5
g5
tp1441
a(S'85.9'
p1442
S'85.9'
p1443
S'CD'
p1444
S'B-NP'
p1445
g5
tp1446
a(g1185
g1185
S'HYPH'
p1447
g5
g5
tp1448
a(S'94.0'
p1449
S'94.0'
p1450
S'CD'
p1451
S'B-NP'
p1452
g5
tp1453
a(g306
g306
g306
g5
g5
tp1454
a(S'and'
p1455
S'and'
p1456
S'CC'
p1457
g5
g5
tp1458
a(S'89.7'
p1459
S'89.7'
p1460
S'CD'
p1461
S'B-NP'
p1462
g5
tp1463
a(g299
g299
g299
g5
g5
tp1464
a(S'85.7'
p1465
S'85.7'
p1466
S'CD'
p1467
S'B-NP'
p1468
g5
tp1469
a(g1185
g1185
S'HYPH'
p1470
g5
g5
tp1471
a(S'93.9'
p1472
S'93.9'
p1473
S'CD'
p1474
S'B-NP'
p1475
g5
tp1476
a(g306
g306
g306
g5
g5
tp1477
a(g391
g391
g391
g5
g5
tp1478
a(S'while'
p1479
S'while'
p1480
S'IN'
p1481
S'B-SBAR'
p1482
g5
tp1483
a(S'ratios'
p1484
S'ratio'
p1485
S'NNS'
p1486
S'B-NP'
p1487
g5
tp1488
a(S'and'
p1489
S'and'
p1490
S'CC'
p1491
g5
g5
tp1492
a(S'90'
p1493
S'90'
p1494
S'CD'
p1495
S'B-NP'
p1496
g5
tp1497
a(g1022
g1022
S'NN'
p1498
S'I-NP'
p1499
g5
tp1500
a(S'CI'
p1501
S'CI'
p1502
S'NN'
p1503
S'I-NP'
p1504
g5
tp1505
a(S'obtained'
p1506
S'obtain'
p1507
S'VBN'
p1508
S'B-VP'
p1509
g5
tp1510
a(S'from'
p1511
S'from'
p1512
S'IN'
p1513
S'B-PP'
p1514
g5
tp1515
a(S'the'
p1516
S'the'
p1517
S'DT'
p1518
S'B-NP'
p1519
g5
tp1520
a(S'noncompartmental'
p1521
S'noncompartmental'
p1522
S'JJ'
p1523
S'I-NP'
p1524
g5
tp1525
a(S'analysis'
p1526
S'analysis'
p1527
S'NN'
p1528
S'I-NP'
p1529
g5
tp1530
a(S'of'
p1531
S'of'
p1532
S'IN'
p1533
S'B-PP'
p1534
g5
tp1535
a(S'Study'
p1536
S'Study'
p1537
S'NN'
p1538
S'B-NP'
p1539
S'B-protein'
p1540
tp1541
a(g441
g441
S'CD'
p1542
S'I-NP'
p1543
S'I-protein'
p1544
tp1545
a(S'did'
p1546
S'do'
p1547
S'VBD'
p1548
S'B-VP'
p1549
g5
tp1550
a(S'not'
p1551
S'not'
p1552
S'RB'
p1553
S'I-VP'
p1554
g5
tp1555
a(S'meet'
p1556
S'meet'
p1557
S'VB'
p1558
S'I-VP'
p1559
g5
tp1560
a(S'BE'
p1561
S'BE'
p1562
S'NN'
p1563
S'B-NP'
p1564
g5
tp1565
a(S'criteria'
p1566
S'criterion'
p1567
S'NNS'
p1568
S'I-NP'
p1569
g5
tp1570
a(S'because'
p1571
S'because'
p1572
S'IN'
p1573
S'B-PP'
p1574
g5
tp1575
a(S'of'
p1576
S'of'
p1577
S'IN'
p1578
S'I-PP'
p1579
g5
tp1580
a(S'low'
p1581
S'low'
p1582
S'JJ'
p1583
S'B-NP'
p1584
g5
tp1585
a(S'power'
p1586
S'power'
p1587
S'NN'
p1588
S'I-NP'
p1589
g5
tp1590
a(g87
g87
g87
g5
g5
tp1591
a(S'CONCLUSIONS'
p1592
S'CONCLUSIONS'
p1593
S'NNS'
p1594
S'B-NP'
p1595
g5
tp1596
a(S'Both'
p1597
S'Both'
p1598
S'CC'
p1599
g5
g5
tp1600
a(S'the'
p1601
S'the'
p1602
S'DT'
p1603
S'B-NP'
p1604
g5
tp1605
a(S'standard'
p1606
S'standard'
p1607
S'JJ'
p1608
S'I-NP'
p1609
g5
tp1610
a(S'and'
p1611
S'and'
p1612
S'CC'
p1613
S'I-NP'
p1614
g5
tp1615
a(S'PPK'
p1616
S'PPK'
p1617
S'NN'
p1618
S'I-NP'
p1619
S'B-protein'
p1620
tp1621
a(S'modeling'
p1622
S'modeling'
p1623
S'NN'
p1624
S'I-NP'
p1625
g5
tp1626
a(S'approach'
p1627
S'approach'
p1628
S'NN'
p1629
S'I-NP'
p1630
g5
tp1631
a(S'suggested'
p1632
S'suggest'
p1633
S'VBD'
p1634
S'B-VP'
p1635
g5
tp1636
a(S'bioequivalence'
p1637
S'bioequivalence'
p1638
S'NN'
p1639
S'B-NP'
p1640
g5
tp1641
a(S'between'
p1642
S'between'
p1643
S'IN'
p1644
S'B-PP'
p1645
g5
tp1646
a(S'the'
p1647
S'the'
p1648
S'DT'
p1649
S'B-NP'
p1650
g5
tp1651
a(S'iron'
p1652
S'iron'
p1653
S'NN'
p1654
S'I-NP'
p1655
g5
tp1656
a(S'products.'
p1657
S'products.'
p1658
S'NN'
p1659
S'I-NP'
p1660
g5
tp1661
a(S'However'
p1662
S'However'
p1663
S'RB'
p1664
S'B-ADVP'
p1665
g5
tp1666
a(g391
g391
g391
g5
g5
tp1667
a(S'with'
p1668
S'with'
p1669
S'IN'
p1670
S'B-PP'
p1671
g5
tp1672
a(S'the'
p1673
S'the'
p1674
S'DT'
p1675
S'B-NP'
p1676
g5
tp1677
a(S'PPK'
p1678
S'PPK'
p1679
S'NN'
p1680
S'I-NP'
p1681
S'B-protein'
p1682
tp1683
a(S'method'
p1684
S'method'
p1685
S'NN'
p1686
S'I-NP'
p1687
g5
tp1688
a(g391
g391
g391
g5
g5
tp1689
a(S'less'
p1690
S'less'
p1691
S'CC'
p1692
S'B-PP'
p1693
g5
tp1694
a(S'subjects'
p1695
S'subject'
p1696
S'NNS'
p1697
S'B-NP'
p1698
g5
tp1699
a(S'were'
p1700
S'be'
p1701
S'VBD'
p1702
S'B-VP'
p1703
g5
tp1704
a(S'required'
p1705
S'require'
p1706
S'VBN'
p1707
S'I-VP'
p1708
g5
tp1709
a(S'to'
p1710
S'to'
p1711
S'TO'
p1712
S'B-VP'
p1713
g5
tp1714
a(S'meet'
p1715
S'meet'
p1716
S'VB'
p1717
S'I-VP'
p1718
g5
tp1719
a(S'study'
p1720
S'study'
p1721
S'NN'
p1722
S'B-NP'
p1723
g5
tp1724
a(S'objectives'
p1725
S'objective'
p1726
S'NNS'
p1727
S'I-NP'
p1728
g5
tp1729
a(S'compared'
p1730
S'compare'
p1731
S'VBN'
p1732
S'B-VP'
p1733
g5
tp1734
a(S'to'
p1735
S'to'
p1736
S'TO'
p1737
S'B-PP'
p1738
g5
tp1739
a(S'the'
p1740
S'the'
p1741
S'DT'
p1742
S'B-NP'
p1743
g5
tp1744
a(S'standard'
p1745
S'standard'
p1746
S'JJ'
p1747
S'I-NP'
p1748
g5
tp1749
a(S'noncompartmental'
p1750
S'noncompartmental'
p1751
S'JJ'
p1752
S'I-NP'
p1753
g5
tp1754
a(S'approach'
p1755
S'approach'
p1756
S'NN'
p1757
S'I-NP'
p1758
g5
tp1759
a(S'which'
p1760
S'which'
p1761
S'WDT'
p1762
S'B-NP'
p1763
g5
tp1764
a(S'required'
p1765
S'require'
p1766
S'VBD'
p1767
S'B-VP'
p1768
g5
tp1769
a(S'considerably'
p1770
S'considerably'
p1771
S'RB'
p1772
S'B-NP'
p1773
g5
tp1774
a(S'more'
p1775
S'more'
p1776
S'JJR'
p1777
S'I-NP'
p1778
g5
tp1779
a(S'subjects'
p1780
S'subject'
p1781
S'NNS'
p1782
S'I-NP'
p1783
g5
tp1784
a(g299
g299
g299
g5
g5
tp1785
a(S'29'
p1786
S'29'
p1787
S'CD'
p1788
S'B-NP'
p1789
g5
tp1790
a(S'vs'
p1791
S'vs'
p1792
S'CC'
p1793
S'I-NP'
p1794
g5
tp1795
a(S'240'
p1796
S'240'
p1797
S'CD'
p1798
S'I-NP'
p1799
g5
tp1800
a(g306
g306
g306
g5
g5
tp1801
a(g87
g87
g87
g5
g5
tp1802
a.