(lp0
(S'A'
p1
g1
S'DT'
p2
S'B-NP'
p3
S'O'
p4
tp5
a(S'randomized'
p6
S'randomize'
p7
S'VBN'
p8
S'I-NP'
p9
g4
tp10
a(S','
p11
g11
g11
S'I-NP'
p12
g4
tp13
a(S'prospective'
p14
S'prospective'
p15
S'JJ'
p16
S'I-NP'
p17
g4
tp18
a(S'trial'
p19
S'trial'
p20
S'NN'
p21
S'I-NP'
p22
g4
tp23
a(S'of'
p24
S'of'
p25
S'IN'
p26
S'B-PP'
p27
g4
tp28
a(S'adjuvant'
p29
S'adjuvant'
p30
S'JJ'
p31
S'B-NP'
p32
g4
tp33
a(S'chemotherapy'
p34
S'chemotherapy'
p35
S'NN'
p36
S'I-NP'
p37
g4
tp38
a(S'in'
p39
S'in'
p40
S'IN'
p41
S'B-PP'
p42
g4
tp43
a(S'adults'
p44
S'adult'
p45
S'NNS'
p46
S'B-NP'
p47
g4
tp48
a(S'with'
p49
S'with'
p50
S'IN'
p51
S'B-PP'
p52
g4
tp53
a(S'soft'
p54
S'soft'
p55
S'JJ'
p56
S'B-NP'
p57
g4
tp58
a(S'tissue'
p59
S'tissue'
p60
S'NN'
p61
S'I-NP'
p62
g4
tp63
a(S'sarcomas'
p64
S'sarcoma'
p65
S'NNS'
p66
S'I-NP'
p67
g4
tp68
a(S'of'
p69
S'of'
p70
S'IN'
p71
S'B-PP'
p72
g4
tp73
a(S'the'
p74
S'the'
p75
S'DT'
p76
S'B-NP'
p77
g4
tp78
a(S'head'
p79
S'head'
p80
S'NN'
p81
S'I-NP'
p82
g4
tp83
a(S'and'
p84
S'and'
p85
S'CC'
p86
S'I-NP'
p87
g4
tp88
a(S'neck'
p89
S'neck'
p90
S'NN'
p91
S'I-NP'
p92
g4
tp93
a(g11
g11
g11
g4
g4
tp94
a(S'breast'
p95
S'breast'
p96
S'NN'
p97
S'B-NP'
p98
g4
tp99
a(g11
g11
g11
g4
g4
tp100
a(S'and'
p101
S'and'
p102
S'CC'
p103
g4
g4
tp104
a(S'trunk'
p105
S'trunk'
p106
S'NN'
p107
S'B-NP'
p108
g4
tp109
a(S'.'
p110
g110
g110
g4
g4
tp111
a(S'Since'
p112
S'Since'
p113
S'IN'
p114
S'B-PP'
p115
g4
tp116
a(S'1977'
p117
S'1977'
p118
S'CD'
p119
S'B-NP'
p120
g4
tp121
a(g11
g11
g11
g4
g4
tp122
a(S'31'
p123
S'31'
p124
S'CD'
p125
S'B-NP'
p126
g4
tp127
a(S'patients'
p128
S'patient'
p129
S'NNS'
p130
S'I-NP'
p131
g4
tp132
a(S'were'
p133
S'be'
p134
S'VBD'
p135
S'B-VP'
p136
g4
tp137
a(S'entered'
p138
S'enter'
p139
S'VBN'
p140
S'I-VP'
p141
g4
tp142
a(S'in'
p143
S'in'
p144
S'IN'
p145
S'B-PP'
p146
g4
tp147
a(S'a'
p148
g148
S'DT'
p149
S'B-NP'
p150
g4
tp151
a(S'randomized'
p152
S'randomize'
p153
S'VBN'
p154
S'I-NP'
p155
g4
tp156
a(g11
g11
g11
S'I-NP'
p157
g4
tp158
a(S'prospective'
p159
S'prospective'
p160
S'JJ'
p161
S'I-NP'
p162
g4
tp163
a(S'study'
p164
S'study'
p165
S'NN'
p166
S'I-NP'
p167
g4
tp168
a(S'testing'
p169
S'test'
p170
S'VBG'
p171
S'B-VP'
p172
g4
tp173
a(S'the'
p174
S'the'
p175
S'DT'
p176
S'B-NP'
p177
g4
tp178
a(S'efficacy'
p179
S'efficacy'
p180
S'NN'
p181
S'I-NP'
p182
g4
tp183
a(S'of'
p184
S'of'
p185
S'IN'
p186
S'B-PP'
p187
g4
tp188
a(S'adjuvant'
p189
S'adjuvant'
p190
S'JJ'
p191
S'B-NP'
p192
g4
tp193
a(S'chemotherapy'
p194
S'chemotherapy'
p195
S'NN'
p196
S'I-NP'
p197
g4
tp198
a(S'after'
p199
S'after'
p200
S'IN'
p201
S'B-PP'
p202
g4
tp203
a(S'aggressive'
p204
S'aggressive'
p205
S'JJ'
p206
S'B-NP'
p207
g4
tp208
a(S'local'
p209
S'local'
p210
S'JJ'
p211
S'I-NP'
p212
g4
tp213
a(S'treatment'
p214
S'treatment'
p215
S'NN'
p216
S'I-NP'
p217
g4
tp218
a(S'of'
p219
S'of'
p220
S'IN'
p221
S'B-PP'
p222
g4
tp223
a(S'high-grade'
p224
S'high-grade'
p225
S'JJ'
p226
S'B-NP'
p227
g4
tp228
a(S'sarcomas'
p229
S'sarcoma'
p230
S'NNS'
p231
S'I-NP'
p232
g4
tp233
a(S'of'
p234
S'of'
p235
S'IN'
p236
S'B-PP'
p237
g4
tp238
a(S'the'
p239
S'the'
p240
S'DT'
p241
S'B-NP'
p242
g4
tp243
a(S'head'
p244
S'head'
p245
S'NN'
p246
S'I-NP'
p247
g4
tp248
a(g11
g11
g11
g4
g4
tp249
a(S'neck'
p250
S'neck'
p251
S'NN'
p252
S'B-NP'
p253
g4
tp254
a(g11
g11
g11
g4
g4
tp255
a(S'breast'
p256
S'breast'
p257
S'NN'
p258
S'B-NP'
p259
g4
tp260
a(g11
g11
g11
g4
g4
tp261
a(S'and'
p262
S'and'
p263
S'CC'
p264
g4
g4
tp265
a(S'trunk'
p266
S'trunk'
p267
S'NN'
p268
S'B-NP'
p269
g4
tp270
a(S'('
p271
g271
g271
g4
g4
tp272
a(S'excluding'
p273
S'exclude'
p274
S'VBG'
p275
S'B-VP'
p276
g4
tp277
a(S'retroperitoneal'
p278
S'retroperitoneal'
p279
S'JJ'
p280
S'B-NP'
p281
g4
tp282
a(S'sarcomas'
p283
S'sarcoma'
p284
S'NNS'
p285
S'I-NP'
p286
g4
tp287
a(S')'
p288
g288
g288
g4
g4
tp289
a(g110
g110
g110
g4
g4
tp290
a(S'All'
p291
S'All'
p292
S'DT'
p293
S'B-NP'
p294
g4
tp295
a(S'patients'
p296
S'patient'
p297
S'NNS'
p298
S'I-NP'
p299
g4
tp300
a(S'had'
p301
S'have'
p302
S'VBD'
p303
S'B-VP'
p304
g4
tp305
a(S'complete'
p306
S'complete'
p307
S'JJ'
p308
S'B-NP'
p309
g4
tp310
a(S'resection'
p311
S'resection'
p312
S'NN'
p313
S'I-NP'
p314
g4
tp315
a(S'of'
p316
S'of'
p317
S'IN'
p318
S'B-PP'
p319
g4
tp320
a(S'gross'
p321
S'gross'
p322
S'JJ'
p323
S'B-NP'
p324
g4
tp325
a(S'tumor'
p326
S'tumor'
p327
S'NN'
p328
S'I-NP'
p329
g4
tp330
a(S'and'
p331
S'and'
p332
S'CC'
p333
g4
g4
tp334
a(S'underwent'
p335
S'undergo'
p336
S'VBD'
p337
S'B-VP'
p338
g4
tp339
a(S'postoperative'
p340
S'postoperative'
p341
S'JJ'
p342
S'B-NP'
p343
g4
tp344
a(S'radiotherapy'
p345
S'radiotherapy'
p346
S'NN'
p347
S'I-NP'
p348
g4
tp349
a(g271
g271
g271
g4
g4
tp350
a(S'6000-6300'
p351
S'6000-6300'
p352
S'CD'
p353
S'B-NP'
p354
g4
tp355
a(S'rads'
p356
S'rad'
p357
S'NNS'
p358
S'I-NP'
p359
g4
tp360
a(S'over'
p361
S'over'
p362
S'IN'
p363
S'B-PP'
p364
g4
tp365
a(S'7-8'
p366
S'7-8'
p367
S'CD'
p368
S'B-NP'
p369
g4
tp370
a(S'weeks'
p371
S'week'
p372
S'NNS'
p373
S'I-NP'
p374
g4
tp375
a(g288
g288
g288
g4
g4
tp376
a(g110
g110
g110
g4
g4
tp377
a(S'Seventeen'
p378
S'Seventeen'
p379
S'CD'
p380
S'B-NP'
p381
g4
tp382
a(S'patients'
p383
S'patient'
p384
S'NNS'
p385
S'I-NP'
p386
g4
tp387
a(S'received'
p388
S'receive'
p389
S'VBD'
p390
S'B-VP'
p391
g4
tp392
a(S'adjuvant'
p393
S'adjuvant'
p394
S'JJ'
p395
S'B-NP'
p396
g4
tp397
a(S'chemotherapy'
p398
S'chemotherapy'
p399
S'NN'
p400
S'I-NP'
p401
g4
tp402
a(S'consisting'
p403
S'consist'
p404
S'VBG'
p405
S'B-VP'
p406
g4
tp407
a(S'of'
p408
S'of'
p409
S'IN'
p410
S'B-PP'
p411
g4
tp412
a(S'doxorubicin'
p413
S'doxorubicin'
p414
S'NN'
p415
S'B-NP'
p416
g4
tp417
a(g271
g271
g271
g4
g4
tp418
a(S'less'
p419
S'less'
p420
S'JJR'
p421
S'B-ADJP'
p422
g4
tp423
a(S'than'
p424
S'than'
p425
S'IN'
p426
S'B-PP'
p427
g4
tp428
a(S'or'
p429
S'or'
p430
S'CC'
p431
g4
g4
tp432
a(S'equal'
p433
S'equal'
p434
S'JJ'
p435
S'B-ADJP'
p436
g4
tp437
a(S'to'
p438
S'to'
p439
S'TO'
p440
S'B-PP'
p441
g4
tp442
a(S'550'
p443
S'550'
p444
S'CD'
p445
S'B-NP'
p446
g4
tp447
a(S'mg/m2'
p448
S'mg/m2'
p449
S'NN'
p450
S'I-NP'
p451
g4
tp452
a(g288
g288
g288
g4
g4
tp453
a(g11
g11
g11
g4
g4
tp454
a(S'cyclophosphamide'
p455
S'cyclophosphamide'
p456
S'NN'
p457
S'B-NP'
p458
g4
tp459
a(g271
g271
g271
g4
g4
tp460
a(S'less'
p461
S'less'
p462
S'JJR'
p463
S'B-ADJP'
p464
g4
tp465
a(S'than'
p466
S'than'
p467
S'IN'
p468
S'B-PP'
p469
g4
tp470
a(S'or'
p471
S'or'
p472
S'CC'
p473
g4
g4
tp474
a(S'equal'
p475
S'equal'
p476
S'JJ'
p477
S'B-ADJP'
p478
g4
tp479
a(S'to'
p480
S'to'
p481
S'TO'
p482
S'B-PP'
p483
g4
tp484
a(S'5500'
p485
S'5500'
p486
S'CD'
p487
S'B-NP'
p488
g4
tp489
a(S'mg/m2'
p490
S'mg/m2'
p491
S'NN'
p492
S'I-NP'
p493
g4
tp494
a(g288
g288
g288
g4
g4
tp495
a(g11
g11
g11
g4
g4
tp496
a(S'and'
p497
S'and'
p498
S'CC'
p499
g4
g4
tp500
a(S'methotrexate'
p501
S'methotrexate'
p502
S'NN'
p503
S'B-NP'
p504
g4
tp505
a(g271
g271
g271
g4
g4
tp506
a(S'less'
p507
S'less'
p508
S'JJR'
p509
S'B-ADJP'
p510
g4
tp511
a(S'than'
p512
S'than'
p513
S'IN'
p514
S'B-PP'
p515
g4
tp516
a(S'or'
p517
S'or'
p518
S'CC'
p519
g4
g4
tp520
a(S'equal'
p521
S'equal'
p522
S'JJ'
p523
S'B-ADJP'
p524
g4
tp525
a(S'to'
p526
S'to'
p527
S'TO'
p528
S'B-PP'
p529
g4
tp530
a(S'1000'
p531
S'1000'
p532
S'CD'
p533
S'B-NP'
p534
g4
tp535
a(S'mg/kg'
p536
S'mg/kg'
p537
S'NN'
p538
S'I-NP'
p539
g4
tp540
a(g288
g288
g288
g4
g4
tp541
a(g110
g110
g110
g4
g4
tp542
a(S'Three-year'
p543
S'Three-year'
p544
S'JJ'
p545
S'B-NP'
p546
g4
tp547
a(S'actuarial'
p548
S'actuarial'
p549
S'JJ'
p550
S'I-NP'
p551
g4
tp552
a(S'disease-free'
p553
S'disease-free'
p554
S'JJ'
p555
S'I-NP'
p556
g4
tp557
a(S'survival'
p558
S'survival'
p559
S'NN'
p560
S'I-NP'
p561
g4
tp562
a(S'in'
p563
S'in'
p564
S'IN'
p565
S'B-PP'
p566
g4
tp567
a(S'the'
p568
S'the'
p569
S'DT'
p570
S'B-NP'
p571
g4
tp572
a(S'chemotherapy'
p573
S'chemotherapy'
p574
S'NN'
p575
S'I-NP'
p576
g4
tp577
a(S'arm'
p578
S'arm'
p579
S'NN'
p580
S'I-NP'
p581
g4
tp582
a(S'was'
p583
S'be'
p584
S'VBD'
p585
S'B-VP'
p586
g4
tp587
a(S'77'
p588
S'77'
p589
S'CD'
p590
S'B-NP'
p591
g4
tp592
a(S'%'
p593
g593
S'NN'
p594
S'I-NP'
p595
g4
tp596
a(g11
g11
g11
g4
g4
tp597
a(S'compared'
p598
S'compare'
p599
S'VBN'
p600
S'B-PP'
p601
g4
tp602
a(S'to'
p603
S'to'
p604
S'TO'
p605
S'B-PP'
p606
g4
tp607
a(S'49'
p608
S'49'
p609
S'CD'
p610
S'B-NP'
p611
g4
tp612
a(g593
g593
S'NN'
p613
S'I-NP'
p614
g4
tp615
a(S'in'
p616
S'in'
p617
S'IN'
p618
S'B-PP'
p619
g4
tp620
a(S'the'
p621
S'the'
p622
S'DT'
p623
S'B-NP'
p624
g4
tp625
a(S'no-chemotherapy'
p626
S'no-chemotherapy'
p627
S'JJ'
p628
S'I-NP'
p629
g4
tp630
a(S'arm'
p631
S'arm'
p632
S'NN'
p633
S'I-NP'
p634
g4
tp635
a(g271
g271
g271
g4
g4
tp636
a(S'P'
p637
g637
S'NN'
p638
S'B-NP'
p639
g4
tp640
a(S'='
p641
g641
S'SYM'
p642
S'B-VP'
p643
g4
tp644
a(S'0.075'
p645
S'0.075'
p646
S'CD'
p647
S'B-NP'
p648
g4
tp649
a(g288
g288
g288
g4
g4
tp650
a(g110
g110
g110
g4
g4
tp651
a(S'Three-year'
p652
S'Three-year'
p653
S'JJ'
p654
S'B-NP'
p655
g4
tp656
a(S'overall'
p657
S'overall'
p658
S'JJ'
p659
S'I-NP'
p660
g4
tp661
a(S'actuarial'
p662
S'actuarial'
p663
S'JJ'
p664
S'I-NP'
p665
g4
tp666
a(S'survivals'
p667
S'survival'
p668
S'NNS'
p669
S'I-NP'
p670
g4
tp671
a(S'in'
p672
S'in'
p673
S'IN'
p674
S'B-PP'
p675
g4
tp676
a(S'the'
p677
S'the'
p678
S'DT'
p679
S'B-NP'
p680
g4
tp681
a(S'two'
p682
S'two'
p683
S'CD'
p684
S'I-NP'
p685
g4
tp686
a(S'treatment'
p687
S'treatment'
p688
S'NN'
p689
S'I-NP'
p690
g4
tp691
a(S'arms'
p692
S'arm'
p693
S'NNS'
p694
S'I-NP'
p695
g4
tp696
a(g11
g11
g11
g4
g4
tp697
a(S'however'
p698
S'however'
p699
S'RB'
p700
S'B-ADVP'
p701
g4
tp702
a(g11
g11
g11
g4
g4
tp703
a(S'were'
p704
S'be'
p705
S'VBD'
p706
S'B-VP'
p707
g4
tp708
a(S'68'
p709
S'68'
p710
S'CD'
p711
S'B-NP'
p712
g4
tp713
a(g593
g593
S'NN'
p714
S'I-NP'
p715
g4
tp716
a(S'and'
p717
S'and'
p718
S'CC'
p719
g4
g4
tp720
a(S'58'
p721
S'58'
p722
S'CD'
p723
S'B-NP'
p724
g4
tp725
a(g593
g593
S'NN'
p726
S'I-NP'
p727
g4
tp728
a(g11
g11
g11
g4
g4
tp729
a(S'respectively'
p730
S'respectively'
p731
S'RB'
p732
S'B-ADVP'
p733
g4
tp734
a(g271
g271
g271
g4
g4
tp735
a(g637
g637
S'NN'
p736
S'B-NP'
p737
g4
tp738
a(g641
g641
S'SYM'
p739
S'B-VP'
p740
g4
tp741
a(S'0.38'
p742
S'0.38'
p743
S'CD'
p744
S'B-NP'
p745
g4
tp746
a(g288
g288
g288
g4
g4
tp747
a(g110
g110
g110
g4
g4
tp748
a(S'Considering'
p749
S'Consider'
p750
S'VBG'
p751
S'B-VP'
p752
g4
tp753
a(S'only'
p754
S'only'
p755
S'JJ'
p756
S'B-NP'
p757
g4
tp758
a(S'patients'
p759
S'patient'
p760
S'NNS'
p761
S'I-NP'
p762
g4
tp763
a(S'with'
p764
S'with'
p765
S'IN'
p766
S'B-PP'
p767
g4
tp768
a(S'tumors'
p769
S'tumor'
p770
S'NNS'
p771
S'B-NP'
p772
g4
tp773
a(S'of'
p774
S'of'
p775
S'IN'
p776
S'B-PP'
p777
g4
tp778
a(S'the'
p779
S'the'
p780
S'DT'
p781
S'B-NP'
p782
g4
tp783
a(S'trunk'
p784
S'trunk'
p785
S'NN'
p786
S'I-NP'
p787
g4
tp788
a(g271
g271
g271
g4
g4
tp789
a(S'22'
p790
S'22'
p791
S'CD'
p792
S'B-NP'
p793
g4
tp794
a(S'patients'
p795
S'patient'
p796
S'NNS'
p797
S'I-NP'
p798
g4
tp799
a(g288
g288
g288
g4
g4
tp800
a(g11
g11
g11
g4
g4
tp801
a(S'3-year'
p802
S'3-year'
p803
S'JJ'
p804
S'B-NP'
p805
g4
tp806
a(S'actuarial'
p807
S'actuarial'
p808
S'JJ'
p809
S'I-NP'
p810
g4
tp811
a(S'disease-free'
p812
S'disease-free'
p813
S'JJ'
p814
S'I-NP'
p815
g4
tp816
a(S'survival'
p817
S'survival'
p818
S'NN'
p819
S'I-NP'
p820
g4
tp821
a(S'in'
p822
S'in'
p823
S'IN'
p824
S'B-PP'
p825
g4
tp826
a(S'the'
p827
S'the'
p828
S'DT'
p829
S'B-NP'
p830
g4
tp831
a(S'chemotherapy'
p832
S'chemotherapy'
p833
S'NN'
p834
S'I-NP'
p835
g4
tp836
a(S'arm'
p837
S'arm'
p838
S'NN'
p839
S'I-NP'
p840
g4
tp841
a(S'was'
p842
S'be'
p843
S'VBD'
p844
S'B-VP'
p845
g4
tp846
a(S'92'
p847
S'92'
p848
S'CD'
p849
S'B-NP'
p850
g4
tp851
a(g593
g593
S'NN'
p852
S'I-NP'
p853
g4
tp854
a(g11
g11
g11
g4
g4
tp855
a(S'compared'
p856
S'compare'
p857
S'VBN'
p858
S'B-PP'
p859
g4
tp860
a(S'to'
p861
S'to'
p862
S'TO'
p863
S'B-PP'
p864
g4
tp865
a(S'47'
p866
S'47'
p867
S'CD'
p868
S'B-NP'
p869
g4
tp870
a(g593
g593
S'NN'
p871
S'I-NP'
p872
g4
tp873
a(S'in'
p874
S'in'
p875
S'IN'
p876
S'B-PP'
p877
g4
tp878
a(S'the'
p879
S'the'
p880
S'DT'
p881
S'B-NP'
p882
g4
tp883
a(S'no-chemotherapy'
p884
S'no-chemotherapy'
p885
S'JJ'
p886
S'I-NP'
p887
g4
tp888
a(S'arm'
p889
S'arm'
p890
S'NN'
p891
S'I-NP'
p892
g4
tp893
a(g271
g271
g271
g4
g4
tp894
a(g637
g637
S'NN'
p895
S'B-NP'
p896
g4
tp897
a(g641
g641
S'SYM'
p898
S'B-VP'
p899
g4
tp900
a(S'0.006'
p901
S'0.006'
p902
S'CD'
p903
S'B-NP'
p904
g4
tp905
a(g288
g288
g288
g4
g4
tp906
a(g110
g110
g110
g4
g4
tp907
a(S'Actuarial'
p908
S'Actuarial'
p909
S'JJ'
p910
S'B-NP'
p911
g4
tp912
a(S'3-year'
p913
S'3-year'
p914
S'JJ'
p915
S'I-NP'
p916
g4
tp917
a(S'overall'
p918
S'overall'
p919
S'JJ'
p920
S'I-NP'
p921
g4
tp922
a(S'survival'
p923
S'survival'
p924
S'NN'
p925
S'I-NP'
p926
g4
tp927
a(S'in'
p928
S'in'
p929
S'IN'
p930
S'B-PP'
p931
g4
tp932
a(S'the'
p933
S'the'
p934
S'DT'
p935
S'B-NP'
p936
g4
tp937
a(S'chemotherapy'
p938
S'chemotherapy'
p939
S'NN'
p940
S'I-NP'
p941
g4
tp942
a(S'arm'
p943
S'arm'
p944
S'NN'
p945
S'I-NP'
p946
g4
tp947
a(S'was'
p948
S'be'
p949
S'VBD'
p950
S'B-VP'
p951
g4
tp952
a(S'82'
p953
S'82'
p954
S'CD'
p955
S'B-NP'
p956
g4
tp957
a(g593
g593
S'NN'
p958
S'I-NP'
p959
g4
tp960
a(g11
g11
g11
g4
g4
tp961
a(S'compared'
p962
S'compare'
p963
S'VBN'
p964
S'B-PP'
p965
g4
tp966
a(S'to'
p967
S'to'
p968
S'TO'
p969
S'B-PP'
p970
g4
tp971
a(S'61'
p972
S'61'
p973
S'CD'
p974
S'B-NP'
p975
g4
tp976
a(g593
g593
S'NN'
p977
S'I-NP'
p978
g4
tp979
a(S'in'
p980
S'in'
p981
S'IN'
p982
S'B-PP'
p983
g4
tp984
a(S'the'
p985
S'the'
p986
S'DT'
p987
S'B-NP'
p988
g4
tp989
a(S'no-chemotherapy'
p990
S'no-chemotherapy'
p991
S'JJ'
p992
S'I-NP'
p993
g4
tp994
a(S'arm'
p995
S'arm'
p996
S'NN'
p997
S'I-NP'
p998
g4
tp999
a(g271
g271
g271
g4
g4
tp1000
a(g637
g637
S'NN'
p1001
S'B-NP'
p1002
g4
tp1003
a(g641
g641
S'SYM'
p1004
S'B-VP'
p1005
g4
tp1006
a(S'0.18'
p1007
S'0.18'
p1008
S'CD'
p1009
S'B-NP'
p1010
g4
tp1011
a(g288
g288
g288
g4
g4
tp1012
a(g110
g110
g110
g4
g4
tp1013
a(S'An'
p1014
S'An'
p1015
S'DT'
p1016
S'B-NP'
p1017
g4
tp1018
a(S'additional'
p1019
S'additional'
p1020
S'JJ'
p1021
S'I-NP'
p1022
g4
tp1023
a(S'26'
p1024
S'26'
p1025
S'CD'
p1026
S'I-NP'
p1027
g4
tp1028
a(S'patients'
p1029
S'patient'
p1030
S'NNS'
p1031
S'I-NP'
p1032
g4
tp1033
a(S'were'
p1034
S'be'
p1035
S'VBD'
p1036
S'B-VP'
p1037
g4
tp1038
a(S'treated'
p1039
S'treat'
p1040
S'VBN'
p1041
S'I-VP'
p1042
g4
tp1043
a(S'in'
p1044
S'in'
p1045
S'IN'
p1046
S'B-PP'
p1047
g4
tp1048
a(S'an'
p1049
S'an'
p1050
S'DT'
p1051
S'B-NP'
p1052
g4
tp1053
a(S'identical'
p1054
S'identical'
p1055
S'JJ'
p1056
S'I-NP'
p1057
g4
tp1058
a(S'fashion'
p1059
S'fashion'
p1060
S'NN'
p1061
S'I-NP'
p1062
g4
tp1063
a(g11
g11
g11
g4
g4
tp1064
a(S'but'
p1065
S'but'
p1066
S'CC'
p1067
g4
g4
tp1068
a(S'were'
p1069
S'be'
p1070
S'VBD'
p1071
S'B-VP'
p1072
g4
tp1073
a(S'not'
p1074
S'not'
p1075
S'RB'
p1076
g4
g4
tp1077
a(S'part'
p1078
S'part'
p1079
S'NN'
p1080
S'B-NP'
p1081
g4
tp1082
a(S'of'
p1083
S'of'
p1084
S'IN'
p1085
S'B-PP'
p1086
g4
tp1087
a(S'the'
p1088
S'the'
p1089
S'DT'
p1090
S'B-NP'
p1091
g4
tp1092
a(S'randomized'
p1093
S'randomize'
p1094
S'VBN'
p1095
S'I-NP'
p1096
g4
tp1097
a(S'trial'
p1098
S'trial'
p1099
S'NN'
p1100
S'I-NP'
p1101
g4
tp1102
a(S'because'
p1103
S'because'
p1104
S'IN'
p1105
S'B-PP'
p1106
g4
tp1107
a(S'of'
p1108
S'of'
p1109
S'IN'
p1110
S'I-PP'
p1111
g4
tp1112
a(S'contraindications'
p1113
S'contraindication'
p1114
S'NNS'
p1115
S'B-NP'
p1116
g4
tp1117
a(S'to'
p1118
S'to'
p1119
S'TO'
p1120
S'B-PP'
p1121
g4
tp1122
a(S'chemotherapy'
p1123
S'chemotherapy'
p1124
S'NN'
p1125
S'B-NP'
p1126
g4
tp1127
a(g11
g11
g11
g4
g4
tp1128
a(S'refusal'
p1129
S'refusal'
p1130
S'NN'
p1131
S'B-NP'
p1132
g4
tp1133
a(S'to'
p1134
S'to'
p1135
S'TO'
p1136
S'B-VP'
p1137
g4
tp1138
a(S'enter'
p1139
S'enter'
p1140
S'VB'
p1141
S'I-VP'
p1142
g4
tp1143
a(S'the'
p1144
S'the'
p1145
S'DT'
p1146
S'B-NP'
p1147
g4
tp1148
a(S'randomized'
p1149
S'randomize'
p1150
S'VBN'
p1151
S'I-NP'
p1152
g4
tp1153
a(S'trial'
p1154
S'trial'
p1155
S'NN'
p1156
S'I-NP'
p1157
g4
tp1158
a(g11
g11
g11
g4
g4
tp1159
a(S'or'
p1160
S'or'
p1161
S'CC'
p1162
g4
g4
tp1163
a(S'because'
p1164
S'because'
p1165
S'IN'
p1166
S'B-SBAR'
p1167
g4
tp1168
a(S'they'
p1169
S'they'
p1170
S'PRP'
p1171
S'B-NP'
p1172
g4
tp1173
a(S'were'
p1174
S'be'
p1175
S'VBD'
p1176
S'B-VP'
p1177
g4
tp1178
a(S'treated'
p1179
S'treat'
p1180
S'VBN'
p1181
S'I-VP'
p1182
g4
tp1183
a(S'before'
p1184
S'before'
p1185
S'IN'
p1186
S'B-PP'
p1187
g4
tp1188
a(S'1977'
p1189
S'1977'
p1190
S'CD'
p1191
S'B-NP'
p1192
g4
tp1193
a(S'in'
p1194
S'in'
p1195
S'IN'
p1196
S'B-PP'
p1197
g4
tp1198
a(g148
g148
S'DT'
p1199
S'B-NP'
p1200
g4
tp1201
a(S'trial'
p1202
S'trial'
p1203
S'NN'
p1204
S'I-NP'
p1205
g4
tp1206
a(S'in'
p1207
S'in'
p1208
S'IN'
p1209
S'B-PP'
p1210
g4
tp1211
a(S'which'
p1212
S'which'
p1213
S'WDT'
p1214
S'B-NP'
p1215
g4
tp1216
a(S'all'
p1217
S'all'
p1218
S'DT'
p1219
S'B-NP'
p1220
g4
tp1221
a(S'patients'
p1222
S'patient'
p1223
S'NNS'
p1224
S'I-NP'
p1225
g4
tp1226
a(S'received'
p1227
S'receive'
p1228
S'VBD'
p1229
S'B-VP'
p1230
g4
tp1231
a(S'chemotherapy.'
p1232
S'chemotherapy.'
p1233
S'NN'
p1234
S'B-NP'
p1235
g4
tp1236
a(S'Considering'
p1237
S'Consider'
p1238
S'VBG'
p1239
S'B-VP'
p1240
g4
tp1241
a(S'the'
p1242
S'the'
p1243
S'DT'
p1244
S'B-NP'
p1245
g4
tp1246
a(S'entire'
p1247
S'entire'
p1248
S'JJ'
p1249
S'I-NP'
p1250
g4
tp1251
a(S'group'
p1252
S'group'
p1253
S'NN'
p1254
S'I-NP'
p1255
g4
tp1256
a(S'of'
p1257
S'of'
p1258
S'IN'
p1259
S'B-PP'
p1260
g4
tp1261
a(S'57'
p1262
S'57'
p1263
S'CD'
p1264
S'B-NP'
p1265
g4
tp1266
a(S'patients'
p1267
S'patient'
p1268
S'NNS'
p1269
S'I-NP'
p1270
g4
tp1271
a(g11
g11
g11
g4
g4
tp1272
a(S'follow-up'
p1273
S'follow-up'
p1274
S'NN'
p1275
S'B-NP'
p1276
g4
tp1277
a(S'ranged'
p1278
S'range'
p1279
S'VBD'
p1280
S'B-VP'
p1281
g4
tp1282
a(S'from'
p1283
S'from'
p1284
S'IN'
p1285
S'B-PP'
p1286
g4
tp1287
a(S'10'
p1288
S'10'
p1289
S'CD'
p1290
S'B-NP'
p1291
g4
tp1292
a(S'to'
p1293
S'to'
p1294
S'TO'
p1295
S'I-NP'
p1296
g4
tp1297
a(S'86'
p1298
S'86'
p1299
S'CD'
p1300
S'I-NP'
p1301
g4
tp1302
a(S'months'
p1303
S'month'
p1304
S'NNS'
p1305
S'I-NP'
p1306
g4
tp1307
a(g271
g271
g271
g4
g4
tp1308
a(S'median'
p1309
S'median'
p1310
S'NN'
p1311
S'B-NP'
p1312
g4
tp1313
a(g11
g11
g11
g4
g4
tp1314
a(S'35'
p1315
S'35'
p1316
S'CD'
p1317
S'B-NP'
p1318
g4
tp1319
a(S'months'
p1320
S'month'
p1321
S'NNS'
p1322
S'I-NP'
p1323
g4
tp1324
a(g288
g288
g288
g4
g4
tp1325
a(g110
g110
g110
g4
g4
tp1326
a(S'Local'
p1327
S'Local'
p1328
S'JJ'
p1329
S'B-NP'
p1330
g4
tp1331
a(S'control'
p1332
S'control'
p1333
S'NN'
p1334
S'I-NP'
p1335
g4
tp1336
a(S'was'
p1337
S'be'
p1338
S'VBD'
p1339
S'B-VP'
p1340
g4
tp1341
a(S'achieved'
p1342
S'achieve'
p1343
S'VBN'
p1344
S'I-VP'
p1345
g4
tp1346
a(S'in'
p1347
S'in'
p1348
S'IN'
p1349
S'B-PP'
p1350
g4
tp1351
a(S'46'
p1352
S'46'
p1353
S'CD'
p1354
S'B-NP'
p1355
g4
tp1356
a(S'patients'
p1357
S'patient'
p1358
S'NNS'
p1359
S'I-NP'
p1360
g4
tp1361
a(g271
g271
g271
g4
g4
tp1362
a(S'81'
p1363
S'81'
p1364
S'CD'
p1365
S'B-NP'
p1366
g4
tp1367
a(g593
g593
S'NN'
p1368
S'I-NP'
p1369
g4
tp1370
a(g288
g288
g288
g4
g4
tp1371
a(S';'
p1372
g1372
S':'
p1373
g4
g4
tp1374
a(S'3-year'
p1375
S'3-year'
p1376
S'JJ'
p1377
S'B-NP'
p1378
g4
tp1379
a(S'actuarial'
p1380
S'actuarial'
p1381
S'JJ'
p1382
S'I-NP'
p1383
g4
tp1384
a(S'disease-free'
p1385
S'disease-free'
p1386
S'JJ'
p1387
S'I-NP'
p1388
g4
tp1389
a(S'and'
p1390
S'and'
p1391
S'CC'
p1392
S'I-NP'
p1393
g4
tp1394
a(S'overall'
p1395
S'overall'
p1396
S'JJ'
p1397
S'I-NP'
p1398
g4
tp1399
a(S'survivals'
p1400
S'survival'
p1401
S'NNS'
p1402
S'I-NP'
p1403
g4
tp1404
a(S'were'
p1405
S'be'
p1406
S'VBD'
p1407
S'B-VP'
p1408
g4
tp1409
a(S'67'
p1410
S'67'
p1411
S'CD'
p1412
S'B-NP'
p1413
g4
tp1414
a(g593
g593
S'NN'
p1415
S'I-NP'
p1416
g4
tp1417
a(S'and'
p1418
S'and'
p1419
S'CC'
p1420
g4
g4
tp1421
a(S'77'
p1422
S'77'
p1423
S'CD'
p1424
S'B-NP'
p1425
g4
tp1426
a(g593
g593
S'NN'
p1427
S'I-NP'
p1428
g4
tp1429
a(g11
g11
g11
g4
g4
tp1430
a(S'respectively.'
p1431
S'respectively.'
p1432
S'NN'
p1433
S'B-NP'
p1434
g4
tp1435
a(g1
g1
S'NN'
p1436
S'I-NP'
p1437
g4
tp1438
a(S'tendency'
p1439
S'tendency'
p1440
S'NN'
p1441
S'I-NP'
p1442
g4
tp1443
a(S'toward'
p1444
S'toward'
p1445
S'IN'
p1446
S'B-PP'
p1447
g4
tp1448
a(S'improved'
p1449
S'improve'
p1450
S'VBN'
p1451
S'B-NP'
p1452
g4
tp1453
a(S'disease-free'
p1454
S'disease-free'
p1455
S'JJ'
p1456
S'I-NP'
p1457
g4
tp1458
a(S'survival'
p1459
S'survival'
p1460
S'NN'
p1461
S'I-NP'
p1462
g4
tp1463
a(S'was'
p1464
S'be'
p1465
S'VBD'
p1466
S'B-VP'
p1467
g4
tp1468
a(S'apparent'
p1469
S'apparent'
p1470
S'JJ'
p1471
S'B-ADJP'
p1472
g4
tp1473
a(S'among'
p1474
S'among'
p1475
S'IN'
p1476
S'B-PP'
p1477
g4
tp1478
a(S'patients'
p1479
S'patient'
p1480
S'NNS'
p1481
S'B-NP'
p1482
g4
tp1483
a(S'treated'
p1484
S'treat'
p1485
S'VBN'
p1486
S'B-VP'
p1487
g4
tp1488
a(S'with'
p1489
S'with'
p1490
S'IN'
p1491
S'B-PP'
p1492
g4
tp1493
a(S'chemotherapy'
p1494
S'chemotherapy'
p1495
S'NN'
p1496
S'B-NP'
p1497
g4
tp1498
a(g271
g271
g271
g4
g4
tp1499
a(g637
g637
S'NN'
p1500
S'B-NP'
p1501
g4
tp1502
a(g641
g641
S'SYM'
p1503
S'B-VP'
p1504
g4
tp1505
a(S'0.018'
p1506
S'0.018'
p1507
S'CD'
p1508
S'B-NP'
p1509
g4
tp1510
a(g288
g288
g288
g4
g4
tp1511
a(g11
g11
g11
g4
g4
tp1512
a(S'but'
p1513
S'but'
p1514
S'CC'
p1515
g4
g4
tp1516
a(S'there'
p1517
S'there'
p1518
S'EX'
p1519
S'B-NP'
p1520
g4
tp1521
a(S'was'
p1522
S'be'
p1523
S'VBD'
p1524
S'B-VP'
p1525
g4
tp1526
a(S'no'
p1527
S'no'
p1528
S'DT'
p1529
S'B-NP'
p1530
g4
tp1531
a(S'statistically'
p1532
S'statistically'
p1533
S'RB'
p1534
S'I-NP'
p1535
g4
tp1536
a(S'significant'
p1537
S'significant'
p1538
S'JJ'
p1539
S'I-NP'
p1540
g4
tp1541
a(S'improvement'
p1542
S'improvement'
p1543
S'NN'
p1544
S'I-NP'
p1545
g4
tp1546
a(S'in'
p1547
S'in'
p1548
S'IN'
p1549
S'B-PP'
p1550
g4
tp1551
a(S'overall'
p1552
S'overall'
p1553
S'JJ'
p1554
S'B-NP'
p1555
g4
tp1556
a(S'actuarial'
p1557
S'actuarial'
p1558
S'JJ'
p1559
S'I-NP'
p1560
g4
tp1561
a(S'survival'
p1562
S'survival'
p1563
S'NN'
p1564
S'I-NP'
p1565
g4
tp1566
a(g271
g271
g271
g4
g4
tp1567
a(g637
g637
S'NN'
p1568
S'B-NP'
p1569
g4
tp1570
a(g641
g641
S'SYM'
p1571
S'B-VP'
p1572
g4
tp1573
a(S'0.46'
p1574
S'0.46'
p1575
S'CD'
p1576
S'B-NP'
p1577
g4
tp1578
a(g288
g288
g288
g4
g4
tp1579
a(g110
g110
g110
g4
g4
tp1580
a(S'The'
p1581
S'The'
p1582
S'DT'
p1583
S'B-NP'
p1584
g4
tp1585
a(S'subgroup'
p1586
S'subgroup'
p1587
S'NN'
p1588
S'I-NP'
p1589
g4
tp1590
a(S'of'
p1591
S'of'
p1592
S'IN'
p1593
S'B-PP'
p1594
g4
tp1595
a(S'patients'
p1596
S'patient'
p1597
S'NNS'
p1598
S'B-NP'
p1599
g4
tp1600
a(S'with'
p1601
S'with'
p1602
S'IN'
p1603
S'B-PP'
p1604
g4
tp1605
a(S'sarcomas'
p1606
S'sarcoma'
p1607
S'NNS'
p1608
S'B-NP'
p1609
g4
tp1610
a(S'of'
p1611
S'of'
p1612
S'IN'
p1613
S'B-PP'
p1614
g4
tp1615
a(S'the'
p1616
S'the'
p1617
S'DT'
p1618
S'B-NP'
p1619
g4
tp1620
a(S'trunk'
p1621
S'trunk'
p1622
S'NN'
p1623
S'I-NP'
p1624
g4
tp1625
a(g271
g271
g271
g4
g4
tp1626
a(S'39'
p1627
S'39'
p1628
S'CD'
p1629
S'B-NP'
p1630
g4
tp1631
a(S'patients'
p1632
S'patient'
p1633
S'NNS'
p1634
S'I-NP'
p1635
g4
tp1636
a(g288
g288
g288
g4
g4
tp1637
a(S'demonstrated'
p1638
S'demonstrate'
p1639
S'VBD'
p1640
S'B-VP'
p1641
g4
tp1642
a(S'the'
p1643
S'the'
p1644
S'DT'
p1645
S'B-NP'
p1646
g4
tp1647
a(S'greatest'
p1648
S'great'
p1649
S'JJS'
p1650
S'I-NP'
p1651
g4
tp1652
a(S'benefit'
p1653
S'benefit'
p1654
S'NN'
p1655
S'I-NP'
p1656
g4
tp1657
a(S'from'
p1658
S'from'
p1659
S'IN'
p1660
S'B-PP'
p1661
g4
tp1662
a(S'chemotherapy'
p1663
S'chemotherapy'
p1664
S'NN'
p1665
S'B-NP'
p1666
g4
tp1667
a(g11
g11
g11
g4
g4
tp1668
a(S'with'
p1669
S'with'
p1670
S'IN'
p1671
S'B-PP'
p1672
g4
tp1673
a(S'regard'
p1674
S'regard'
p1675
S'NN'
p1676
S'B-NP'
p1677
g4
tp1678
a(S'to'
p1679
S'to'
p1680
S'TO'
p1681
S'B-PP'
p1682
g4
tp1683
a(S'disease-free'
p1684
S'disease-free'
p1685
S'JJ'
p1686
S'B-NP'
p1687
g4
tp1688
a(S'survival'
p1689
S'survival'
p1690
S'NN'
p1691
S'I-NP'
p1692
g4
tp1693
a(g271
g271
g271
g4
g4
tp1694
a(g637
g637
S'NN'
p1695
S'B-NP'
p1696
g4
tp1697
a(S'less'
p1698
S'less'
p1699
S'JJR'
p1700
S'B-ADJP'
p1701
g4
tp1702
a(S'than'
p1703
S'than'
p1704
S'IN'
p1705
S'B-PP'
p1706
g4
tp1707
a(S'or'
p1708
S'or'
p1709
S'CC'
p1710
g4
g4
tp1711
a(S'equal'
p1712
S'equal'
p1713
S'JJ'
p1714
S'B-ADJP'
p1715
g4
tp1716
a(S'to'
p1717
S'to'
p1718
S'TO'
p1719
S'B-PP'
p1720
g4
tp1721
a(S'0.001'
p1722
S'0.001'
p1723
S'CD'
p1724
S'B-NP'
p1725
g4
tp1726
a(g288
g288
g288
g4
g4
tp1727
a(g110
g110
g110
g4
g4
tp1728
a(S'The'
p1729
S'The'
p1730
S'DT'
p1731
S'B-NP'
p1732
g4
tp1733
a(S'most'
p1734
S'most'
p1735
S'RBS'
p1736
S'I-NP'
p1737
g4
tp1738
a(S'significant'
p1739
S'significant'
p1740
S'JJ'
p1741
S'I-NP'
p1742
g4
tp1743
a(S'toxicity'
p1744
S'toxicity'
p1745
S'NN'
p1746
S'I-NP'
p1747
g4
tp1748
a(S'associated'
p1749
S'associate'
p1750
S'VBN'
p1751
S'B-VP'
p1752
g4
tp1753
a(S'with'
p1754
S'with'
p1755
S'IN'
p1756
S'B-PP'
p1757
g4
tp1758
a(S'chemotherapy'
p1759
S'chemotherapy'
p1760
S'NN'
p1761
S'B-NP'
p1762
g4
tp1763
a(S'was'
p1764
S'be'
p1765
S'VBD'
p1766
S'B-VP'
p1767
g4
tp1768
a(S'doxorubicin-induced'
p1769
S'doxorubicin-induced'
p1770
S'JJ'
p1771
S'B-NP'
p1772
g4
tp1773
a(S'cardiomyopathy'
p1774
S'cardiomyopathy'
p1775
S'NN'
p1776
S'I-NP'
p1777
g4
tp1778
a(g11
g11
g11
g4
g4
tp1779
a(S'which'
p1780
S'which'
p1781
S'WDT'
p1782
S'B-NP'
p1783
g4
tp1784
a(S'resulted'
p1785
S'result'
p1786
S'VBD'
p1787
S'B-VP'
p1788
g4
tp1789
a(S'in'
p1790
S'in'
p1791
S'IN'
p1792
S'B-PP'
p1793
g4
tp1794
a(S'clinically'
p1795
S'clinically'
p1796
S'RB'
p1797
S'B-NP'
p1798
g4
tp1799
a(S'apparent'
p1800
S'apparent'
p1801
S'JJ'
p1802
S'I-NP'
p1803
g4
tp1804
a(S'congestive'
p1805
S'congestive'
p1806
S'JJ'
p1807
S'I-NP'
p1808
g4
tp1809
a(S'heart'
p1810
S'heart'
p1811
S'NN'
p1812
S'I-NP'
p1813
g4
tp1814
a(S'failure'
p1815
S'failure'
p1816
S'NN'
p1817
S'I-NP'
p1818
g4
tp1819
a(S'in'
p1820
S'in'
p1821
S'IN'
p1822
S'B-PP'
p1823
g4
tp1824
a(S'five'
p1825
S'five'
p1826
S'CD'
p1827
S'B-NP'
p1828
g4
tp1829
a(S'patients.'
p1830
S'patients.'
p1831
S'NNS'
p1832
S'I-NP'
p1833
g4
tp1834
a(S'Thus'
p1835
S'Thus'
p1836
S'RB'
p1837
S'B-ADVP'
p1838
g4
tp1839
a(g11
g11
g11
g4
g4
tp1840
a(S'the'
p1841
S'the'
p1842
S'DT'
p1843
S'B-NP'
p1844
g4
tp1845
a(S'use'
p1846
S'use'
p1847
S'NN'
p1848
S'I-NP'
p1849
g4
tp1850
a(S'of'
p1851
S'of'
p1852
S'IN'
p1853
S'B-PP'
p1854
g4
tp1855
a(S'chemotherapy'
p1856
S'chemotherapy'
p1857
S'NN'
p1858
S'B-NP'
p1859
g4
tp1860
a(S'when'
p1861
S'when'
p1862
S'WRB'
p1863
S'B-ADVP'
p1864
g4
tp1865
a(S'combined'
p1866
S'combine'
p1867
S'VBN'
p1868
S'B-VP'
p1869
g4
tp1870
a(S'with'
p1871
S'with'
p1872
S'IN'
p1873
S'B-PP'
p1874
g4
tp1875
a(S'aggressive'
p1876
S'aggressive'
p1877
S'JJ'
p1878
S'B-NP'
p1879
g4
tp1880
a(S'local'
p1881
S'local'
p1882
S'JJ'
p1883
S'I-NP'
p1884
g4
tp1885
a(S'measures'
p1886
S'measure'
p1887
S'NNS'
p1888
S'I-NP'
p1889
g4
tp1890
a(S'appears'
p1891
S'appear'
p1892
S'VBZ'
p1893
S'B-VP'
p1894
g4
tp1895
a(S'to'
p1896
S'to'
p1897
S'TO'
p1898
S'I-VP'
p1899
g4
tp1900
a(S'improve'
p1901
S'improve'
p1902
S'VB'
p1903
S'I-VP'
p1904
g4
tp1905
a(S'disease-free'
p1906
S'disease-free'
p1907
S'JJ'
p1908
S'B-NP'
p1909
g4
tp1910
a(S'survival'
p1911
S'survival'
p1912
S'NN'
p1913
S'I-NP'
p1914
g4
tp1915
a(g11
g11
g11
g4
g4
tp1916
a(S'but'
p1917
S'but'
p1918
S'CC'
p1919
g4
g4
tp1920
a(S'additional'
p1921
S'additional'
p1922
S'JJ'
p1923
S'B-NP'
p1924
g4
tp1925
a(S'patients'
p1926
S'patient'
p1927
S'NNS'
p1928
S'I-NP'
p1929
g4
tp1930
a(S'and'
p1931
S'and'
p1932
S'CC'
p1933
g4
g4
tp1934
a(S'longer'
p1935
S'long'
p1936
S'JJR'
p1937
S'B-NP'
p1938
g4
tp1939
a(S'follow-up'
p1940
S'follow-up'
p1941
S'NN'
p1942
S'I-NP'
p1943
g4
tp1944
a(S'are'
p1945
S'be'
p1946
S'VBP'
p1947
S'B-VP'
p1948
g4
tp1949
a(S'necessary'
p1950
S'necessary'
p1951
S'JJ'
p1952
S'B-ADJP'
p1953
g4
tp1954
a(S'to'
p1955
S'to'
p1956
S'TO'
p1957
S'B-VP'
p1958
g4
tp1959
a(S'determine'
p1960
S'determine'
p1961
S'VB'
p1962
S'I-VP'
p1963
g4
tp1964
a(S'if'
p1965
S'if'
p1966
S'IN'
p1967
S'B-SBAR'
p1968
g4
tp1969
a(S'improved'
p1970
S'improve'
p1971
S'VBN'
p1972
S'B-NP'
p1973
g4
tp1974
a(S'overall'
p1975
S'overall'
p1976
S'JJ'
p1977
S'I-NP'
p1978
g4
tp1979
a(S'survival'
p1980
S'survival'
p1981
S'NN'
p1982
S'I-NP'
p1983
g4
tp1984
a(S'will'
p1985
S'will'
p1986
S'MD'
p1987
S'B-VP'
p1988
g4
tp1989
a(S'result'
p1990
S'result'
p1991
S'VB'
p1992
S'I-VP'
p1993
g4
tp1994
a(g110
g110
g110
g4
g4
tp1995
a.