(lp0
(S'The'
p1
S'The'
p2
S'DT'
p3
S'B-NP'
p4
S'O'
p5
tp6
a(S'effect'
p7
S'effect'
p8
S'NN'
p9
S'I-NP'
p10
g5
tp11
a(S'of'
p12
S'of'
p13
S'IN'
p14
S'B-PP'
p15
g5
tp16
a(S'body'
p17
S'body'
p18
S'NN'
p19
S'B-NP'
p20
g5
tp21
a(S'weight'
p22
S'weight'
p23
S'NN'
p24
S'I-NP'
p25
g5
tp26
a(S'changes'
p27
S'change'
p28
S'NNS'
p29
S'I-NP'
p30
g5
tp31
a(S'and'
p32
S'and'
p33
S'CC'
p34
g5
g5
tp35
a(S'endurance'
p36
S'endurance'
p37
S'NN'
p38
S'B-NP'
p39
g5
tp40
a(S'training'
p41
S'training'
p42
S'NN'
p43
S'I-NP'
p44
g5
tp45
a(S'on'
p46
S'on'
p47
S'IN'
p48
S'B-PP'
p49
g5
tp50
a(S'24h'
p51
S'24h'
p52
S'NN'
p53
S'B-NP'
p54
g5
tp55
a(S'substrate'
p56
S'substrate'
p57
S'NN'
p58
S'I-NP'
p59
g5
tp60
a(S'oxidation'
p61
S'oxidation'
p62
S'NN'
p63
S'I-NP'
p64
g5
tp65
a(S'.'
p66
g66
g66
g5
g5
tp67
a(S'OBJECTIVE'
p68
S'OBJECTIVE'
p69
S'NN'
p70
S'B-NP'
p71
g5
tp72
a(S'To'
p73
S'To'
p74
S'TO'
p75
S'B-VP'
p76
g5
tp77
a(S'investigate'
p78
S'investigate'
p79
S'VB'
p80
S'I-VP'
p81
g5
tp82
a(S'the'
p83
S'the'
p84
S'DT'
p85
S'B-NP'
p86
g5
tp87
a(S'effect'
p88
S'effect'
p89
S'NN'
p90
S'I-NP'
p91
g5
tp92
a(S'of'
p93
S'of'
p94
S'IN'
p95
S'B-PP'
p96
g5
tp97
a(S'exercise'
p98
S'exercise'
p99
S'NN'
p100
S'B-NP'
p101
g5
tp102
a(S'training'
p103
S'training'
p104
S'NN'
p105
S'I-NP'
p106
g5
tp107
a(S'and'
p108
S'and'
p109
S'CC'
p110
g5
g5
tp111
a(S'dietary'
p112
S'dietary'
p113
S'JJ'
p114
S'B-NP'
p115
g5
tp116
a(S'macronutrient'
p117
S'macronutrient'
p118
S'NN'
p119
S'I-NP'
p120
g5
tp121
a(S'composition'
p122
S'composition'
p123
S'NN'
p124
S'I-NP'
p125
g5
tp126
a(S'on'
p127
S'on'
p128
S'IN'
p129
S'B-PP'
p130
g5
tp131
a(S'24'
p132
S'24'
p133
S'CD'
p134
S'B-NP'
p135
g5
tp136
a(S'h'
p137
g137
S'NN'
p138
S'I-NP'
p139
g5
tp140
a(S'substrate'
p141
S'substrate'
p142
S'NN'
p143
S'I-NP'
p144
g5
tp145
a(S'oxidation'
p146
S'oxidation'
p147
S'NN'
p148
S'I-NP'
p149
g5
tp150
a(S'in'
p151
S'in'
p152
S'IN'
p153
S'B-PP'
p154
g5
tp155
a(S'male'
p156
S'male'
p157
S'JJ'
p158
S'B-NP'
p159
g5
tp160
a(S','
p161
g161
g161
S'I-NP'
p162
g5
tp163
a(S'obese'
p164
S'obese'
p165
S'JJ'
p166
S'I-NP'
p167
g5
tp168
a(S'subjects'
p169
S'subject'
p170
S'NNS'
p171
S'I-NP'
p172
g5
tp173
a(g66
g66
g66
g5
g5
tp174
a(S'DESIGN'
p175
S'DESIGN'
p176
S'NN'
p177
S'B-NP'
p178
g5
tp179
a(S'A'
p180
g180
S'DT'
p181
S'B-NP'
p182
g5
tp183
a(S'16'
p184
S'16'
p185
S'CD'
p186
S'I-NP'
p187
g5
tp188
a(S'month'
p189
S'month'
p190
S'NN'
p191
S'I-NP'
p192
g5
tp193
a(S'exercise'
p194
S'exercise'
p195
S'NN'
p196
S'I-NP'
p197
g5
tp198
a(S'intervention'
p199
S'intervention'
p200
S'NN'
p201
S'I-NP'
p202
g5
tp203
a(S'study'
p204
S'study'
p205
S'NN'
p206
S'I-NP'
p207
g5
tp208
a(S'was'
p209
S'be'
p210
S'VBD'
p211
S'B-VP'
p212
g5
tp213
a(S'executed'
p214
S'execute'
p215
S'VBN'
p216
S'I-VP'
p217
g5
tp218
a(g161
g161
g161
g5
g5
tp219
a(S'including'
p220
S'include'
p221
S'VBG'
p222
S'B-PP'
p223
g5
tp224
a(S'a'
p225
g225
S'DT'
p226
S'B-NP'
p227
g5
tp228
a(S'weight'
p229
S'weight'
p230
S'NN'
p231
S'I-NP'
p232
g5
tp233
a(S'loss'
p234
S'loss'
p235
S'NN'
p236
S'I-NP'
p237
g5
tp238
a(S'period'
p239
S'period'
p240
S'NN'
p241
S'I-NP'
p242
g5
tp243
a(S'with'
p244
S'with'
p245
S'IN'
p246
S'B-PP'
p247
g5
tp248
a(g225
g225
S'DT'
p249
S'B-NP'
p250
g5
tp251
a(S'very'
p252
S'very'
p253
S'RB'
p254
S'I-NP'
p255
g5
tp256
a(S'low'
p257
S'low'
p258
S'JJ'
p259
S'I-NP'
p260
g5
tp261
a(S'energy'
p262
S'energy'
p263
S'NN'
p264
S'I-NP'
p265
g5
tp266
a(S'diet'
p267
S'diet'
p268
S'NN'
p269
S'I-NP'
p270
g5
tp271
a(S'('
p272
g272
g272
g5
g5
tp273
a(S'VLED'
p274
S'VLED'
p275
S'VBN'
p276
S'B-VP'
p277
g5
tp278
a(S')'
p279
g279
g279
g5
g5
tp280
a(S'for'
p281
S'for'
p282
S'IN'
p283
S'B-PP'
p284
g5
tp285
a(S'2'
p286
g286
S'CD'
p287
S'B-NP'
p288
g5
tp289
a(S'months'
p290
S'month'
p291
S'NNS'
p292
S'I-NP'
p293
g5
tp294
a(S'at'
p295
S'at'
p296
S'IN'
p297
S'B-PP'
p298
g5
tp299
a(S'the'
p300
S'the'
p301
S'DT'
p302
S'B-NP'
p303
g5
tp304
a(S'start'
p305
S'start'
p306
S'NN'
p307
S'I-NP'
p308
g5
tp309
a(S'of'
p310
S'of'
p311
S'IN'
p312
S'B-PP'
p313
g5
tp314
a(S'the'
p315
S'the'
p316
S'DT'
p317
S'B-NP'
p318
g5
tp319
a(S'study'
p320
S'study'
p321
S'NN'
p322
S'I-NP'
p323
g5
tp324
a(g66
g66
g66
g5
g5
tp325
a(S'SUBJECTS'
p326
S'SUBJECTS'
p327
S'NNS'
p328
S'B-NP'
p329
g5
tp330
a(S'Twelve'
p331
S'Twelve'
p332
S'CD'
p333
S'I-NP'
p334
g5
tp335
a(S'male'
p336
S'male'
p337
S'JJ'
p338
S'I-NP'
p339
g5
tp340
a(g161
g161
g161
S'I-NP'
p341
g5
tp342
a(S'obese'
p343
S'obese'
p344
S'JJ'
p345
S'I-NP'
p346
g5
tp347
a(S'subjects'
p348
S'subject'
p349
S'NNS'
p350
S'I-NP'
p351
g5
tp352
a(g272
g272
g272
g5
g5
tp353
a(S'age'
p354
S'age'
p355
S'NN'
p356
S'B-NP'
p357
g5
tp358
a(S'36.3+/-5.1'
p359
S'36.3+/-5.1'
p360
S'CD'
p361
S'I-NP'
p362
g5
tp363
a(S'y'
p364
g364
S'NN'
p365
S'I-NP'
p366
g5
tp367
a(S';'
p368
g368
S':'
p369
g5
g5
tp370
a(S'body'
p371
S'body'
p372
S'NN'
p373
S'B-NP'
p374
g5
tp375
a(S'weight'
p376
S'weight'
p377
S'NN'
p378
S'I-NP'
p379
g5
tp380
a(S'94.6+/-13.9'
p381
S'94.6+/-13.9'
p382
S'CD'
p383
S'B-NP'
p384
g5
tp385
a(S'kg'
p386
S'kg'
p387
S'NN'
p388
S'I-NP'
p389
g5
tp390
a(g368
g368
g369
g5
g5
tp391
a(S'body'
p392
S'body'
p393
S'NN'
p394
S'B-NP'
p395
g5
tp396
a(S'mass'
p397
S'mass'
p398
S'NN'
p399
S'I-NP'
p400
g5
tp401
a(S'index'
p402
S'index'
p403
S'NN'
p404
S'I-NP'
p405
g5
tp406
a(g161
g161
g161
g5
g5
tp407
a(S'BMI'
p408
S'BMI'
p409
S'NN'
p410
S'B-NP'
p411
g5
tp412
a(S'30.8+/-3.0'
p413
S'30.8+/-3.0'
p414
S'CD'
p415
S'I-NP'
p416
g5
tp417
a(S'kg/m2'
p418
S'kg/m2'
p419
S'NN'
p420
S'I-NP'
p421
g5
tp422
a(g279
g279
g279
g5
g5
tp423
a(S'and'
p424
S'and'
p425
S'CC'
p426
g5
g5
tp427
a(S'in'
p428
S'in'
p429
S'IN'
p430
S'B-PP'
p431
g5
tp432
a(S'an'
p433
S'an'
p434
S'DT'
p435
S'B-NP'
p436
g5
tp437
a(S'additional'
p438
S'additional'
p439
S'JJ'
p440
S'I-NP'
p441
g5
tp442
a(S'study'
p443
S'study'
p444
S'NN'
p445
S'I-NP'
p446
g5
tp447
a(S'15'
p448
S'15'
p449
S'CD'
p450
S'I-NP'
p451
g5
tp452
a(S'lean'
p453
S'lean'
p454
S'JJ'
p455
S'I-NP'
p456
g5
tp457
a(g161
g161
g161
S'I-NP'
p458
g5
tp459
a(S'well-trained'
p460
S'well-trained'
p461
S'JJ'
p462
S'I-NP'
p463
g5
tp464
a(S'subjects'
p465
S'subject'
p466
S'NNS'
p467
S'I-NP'
p468
g5
tp469
a(g272
g272
g272
g5
g5
tp470
a(S'age'
p471
S'age'
p472
S'NN'
p473
S'B-NP'
p474
g5
tp475
a(S'36.2+/-7.2'
p476
S'36.2+/-7.2'
p477
S'CD'
p478
S'I-NP'
p479
g5
tp480
a(g364
g364
S'NN'
p481
S'I-NP'
p482
g5
tp483
a(g368
g368
g369
g5
g5
tp484
a(S'body'
p485
S'body'
p486
S'NN'
p487
S'B-NP'
p488
g5
tp489
a(S'weight'
p490
S'weight'
p491
S'NN'
p492
S'I-NP'
p493
g5
tp494
a(S'72.2+/-5.9'
p495
S'72.2+/-5.9'
p496
S'CD'
p497
S'B-NP'
p498
g5
tp499
a(S'kg'
p500
S'kg'
p501
S'NN'
p502
S'I-NP'
p503
g5
tp504
a(g368
g368
g369
g5
g5
tp505
a(S'BMI'
p506
S'BMI'
p507
S'NN'
p508
S'B-NP'
p509
g5
tp510
a(S'22.3+/-1.7'
p511
S'22.3+/-1.7'
p512
S'CD'
p513
S'I-NP'
p514
g5
tp515
a(S'kg/m2'
p516
S'kg/m2'
p517
S'NN'
p518
S'I-NP'
p519
g5
tp520
a(g279
g279
g279
g5
g5
tp521
a(S'participated'
p522
S'participate'
p523
S'VBD'
p524
S'B-VP'
p525
g5
tp526
a(g66
g66
g66
g5
g5
tp527
a(S'MEASUREMENTS'
p528
S'MEASUREMENTS'
p529
S'NNS'
p530
S'B-NP'
p531
g5
tp532
a(S'Substrate'
p533
S'Substrate'
p534
S'NN'
p535
S'I-NP'
p536
g5
tp537
a(S'oxidation'
p538
S'oxidation'
p539
S'NN'
p540
S'I-NP'
p541
g5
tp542
a(S'was'
p543
S'be'
p544
S'VBD'
p545
S'B-VP'
p546
g5
tp547
a(S'measured'
p548
S'measure'
p549
S'VBN'
p550
S'I-VP'
p551
g5
tp552
a(S'during'
p553
S'during'
p554
S'IN'
p555
S'B-PP'
p556
g5
tp557
a(g225
g225
S'DT'
p558
S'B-NP'
p559
g5
tp560
a(S'standardized'
p561
S'standardized'
p562
S'JJ'
p563
S'I-NP'
p564
g5
tp565
a(S'36'
p566
S'36'
p567
S'CD'
p568
S'I-NP'
p569
g5
tp570
a(g137
g137
S'NN'
p571
S'I-NP'
p572
g5
tp573
a(S'stay'
p574
S'stay'
p575
S'NN'
p576
S'I-NP'
p577
g5
tp578
a(S'in'
p579
S'in'
p580
S'IN'
p581
S'B-PP'
p582
g5
tp583
a(S'the'
p584
S'the'
p585
S'DT'
p586
S'B-NP'
p587
g5
tp588
a(S'respiration'
p589
S'respiration'
p590
S'NN'
p591
S'I-NP'
p592
g5
tp593
a(S'chamber'
p594
S'chamber'
p595
S'NN'
p596
S'I-NP'
p597
g5
tp598
a(S'at'
p599
S'at'
p600
S'IN'
p601
S'B-PP'
p602
g5
tp603
a(S'the'
p604
S'the'
p605
S'DT'
p606
S'B-NP'
p607
g5
tp608
a(S'start'
p609
S'start'
p610
S'NN'
p611
S'I-NP'
p612
g5
tp613
a(S'of'
p614
S'of'
p615
S'IN'
p616
S'B-PP'
p617
g5
tp618
a(S'the'
p619
S'the'
p620
S'DT'
p621
S'B-NP'
p622
g5
tp623
a(S'study'
p624
S'study'
p625
S'NN'
p626
S'I-NP'
p627
g5
tp628
a(g272
g272
g272
g5
g5
tp629
a(S'0'
p630
g630
S'CD'
p631
S'B-NP'
p632
g5
tp633
a(S'months'
p634
S'month'
p635
S'NNS'
p636
S'I-NP'
p637
g5
tp638
a(g279
g279
g279
g5
g5
tp639
a(g161
g161
g161
g5
g5
tp640
a(S'and'
p641
S'and'
p642
S'CC'
p643
g5
g5
tp644
a(S'at'
p645
S'at'
p646
S'IN'
p647
S'B-PP'
p648
g5
tp649
a(S'4'
p650
g650
S'CD'
p651
S'B-NP'
p652
g5
tp653
a(g161
g161
g161
S'I-NP'
p654
g5
tp655
a(S'10'
p656
S'10'
p657
S'CD'
p658
S'I-NP'
p659
g5
tp660
a(S'and'
p661
S'and'
p662
S'CC'
p663
S'I-NP'
p664
g5
tp665
a(S'16'
p666
S'16'
p667
S'CD'
p668
S'I-NP'
p669
g5
tp670
a(S'months.'
p671
S'months.'
p672
S'NNS'
p673
S'I-NP'
p674
g5
tp675
a(S'In'
p676
S'In'
p677
S'IN'
p678
S'B-PP'
p679
g5
tp680
a(S'the'
p681
S'the'
p682
S'DT'
p683
S'B-NP'
p684
g5
tp685
a(S'respiration'
p686
S'respiration'
p687
S'NN'
p688
S'I-NP'
p689
g5
tp690
a(S'chamber'
p691
S'chamber'
p692
S'NN'
p693
S'I-NP'
p694
g5
tp695
a(S'subjects'
p696
S'subject'
p697
S'NNS'
p698
S'I-NP'
p699
g5
tp700
a(S'were'
p701
S'be'
p702
S'VBD'
p703
S'B-VP'
p704
g5
tp705
a(S'randomly'
p706
S'randomly'
p707
S'RB'
p708
S'I-VP'
p709
g5
tp710
a(S'assigned'
p711
S'assign'
p712
S'VBN'
p713
S'I-VP'
p714
g5
tp715
a(S'to'
p716
S'to'
p717
S'TO'
p718
S'B-PP'
p719
g5
tp720
a(g225
g225
S'DT'
p721
S'B-NP'
p722
g5
tp723
a(S'high-fat'
p724
S'high-fat'
p725
S'JJ'
p726
S'I-NP'
p727
g5
tp728
a(g272
g272
g272
g5
g5
tp729
a(S'Hi.F'
p730
S'Hi.F'
p731
S'NN'
p732
S'B-NP'
p733
g5
tp734
a(g279
g279
g279
g5
g5
tp735
a(S'diet'
p736
S'diet'
p737
S'NN'
p738
S'B-NP'
p739
g5
tp740
a(g272
g272
g272
g5
g5
tp741
a(S'60'
p742
S'60'
p743
S'CD'
p744
S'B-NP'
p745
g5
tp746
a(S'%'
p747
g747
S'NN'
p748
S'I-NP'
p749
g5
tp750
a(S'of'
p751
S'of'
p752
S'IN'
p753
S'B-PP'
p754
g5
tp755
a(S'energy'
p756
S'energy'
p757
S'NN'
p758
S'B-NP'
p759
g5
tp760
a(g272
g272
g272
g5
g5
tp761
a(S'En'
p762
S'En'
p763
S'NN'
p764
S'B-NP'
p765
g5
tp766
a(g747
g747
S'NN'
p767
S'I-NP'
p768
g5
tp769
a(g279
g279
g279
g5
g5
tp770
a(S'fat'
p771
S'fat'
p772
S'NN'
p773
S'B-NP'
p774
g5
tp775
a(g279
g279
g279
g5
g5
tp776
a(S'or'
p777
S'or'
p778
S'CC'
p779
g5
g5
tp780
a(g225
g225
S'DT'
p781
S'B-NP'
p782
g5
tp783
a(S'reduced-fat'
p784
S'reduced-fat'
p785
S'NN'
p786
S'I-NP'
p787
g5
tp788
a(g272
g272
g272
g5
g5
tp789
a(S'Red.F'
p790
S'Red.F'
p791
S'NN'
p792
S'B-NP'
p793
S'B-protein'
p794
tp795
a(g279
g279
g279
g5
g5
tp796
a(S'diet'
p797
S'diet'
p798
S'NN'
p799
S'B-NP'
p800
g5
tp801
a(g272
g272
g272
g5
g5
tp802
a(S'30'
p803
S'30'
p804
S'CD'
p805
S'B-NP'
p806
g5
tp807
a(S'En'
p808
S'En'
p809
S'NN'
p810
S'I-NP'
p811
g5
tp812
a(g747
g747
S'NN'
p813
S'I-NP'
p814
g5
tp815
a(S'fat'
p816
S'fat'
p817
S'NN'
p818
S'I-NP'
p819
g5
tp820
a(g279
g279
g279
g5
g5
tp821
a(g66
g66
g66
g5
g5
tp822
a(S'The'
p823
S'The'
p824
S'DT'
p825
S'B-NP'
p826
g5
tp827
a(S'well-trained'
p828
S'well-trained'
p829
S'JJ'
p830
S'I-NP'
p831
g5
tp832
a(S'group'
p833
S'group'
p834
S'NN'
p835
S'I-NP'
p836
g5
tp837
a(S'was'
p838
S'be'
p839
S'VBD'
p840
S'B-VP'
p841
g5
tp842
a(S'measured'
p843
S'measure'
p844
S'VBN'
p845
S'I-VP'
p846
g5
tp847
a(S'once'
p848
S'once'
p849
S'RB'
p850
S'B-ADVP'
p851
g5
tp852
a(S'in'
p853
S'in'
p854
S'IN'
p855
S'B-PP'
p856
g5
tp857
a(S'the'
p858
S'the'
p859
S'DT'
p860
S'B-NP'
p861
g5
tp862
a(S'respiration'
p863
S'respiration'
p864
S'NN'
p865
S'I-NP'
p866
g5
tp867
a(S'chamber'
p868
S'chamber'
p869
S'NN'
p870
S'I-NP'
p871
g5
tp872
a(S'for'
p873
S'for'
p874
S'IN'
p875
S'B-PP'
p876
g5
tp877
a(S'36'
p878
S'36'
p879
S'CD'
p880
S'B-NP'
p881
g5
tp882
a(g137
g137
S'NN'
p883
S'I-NP'
p884
g5
tp885
a(S'according'
p886
S'accord'
p887
S'VBG'
p888
S'B-PP'
p889
g5
tp890
a(S'to'
p891
S'to'
p892
S'TO'
p893
S'B-PP'
p894
g5
tp895
a(S'the'
p896
S'the'
p897
S'DT'
p898
S'B-NP'
p899
g5
tp900
a(S'same'
p901
S'same'
p902
S'JJ'
p903
S'I-NP'
p904
g5
tp905
a(S'protocol'
p906
S'protocol'
p907
S'NN'
p908
S'I-NP'
p909
g5
tp910
a(g66
g66
g66
g5
g5
tp911
a(S'RESULTS'
p912
S'RESULTS'
p913
S'NNS'
p914
S'B-NP'
p915
g5
tp916
a(S'At'
p917
S'At'
p918
S'IN'
p919
S'B-PP'
p920
g5
tp921
a(S'any'
p922
S'any'
p923
S'DT'
p924
S'B-NP'
p925
g5
tp926
a(S'time'
p927
S'time'
p928
S'NN'
p929
S'I-NP'
p930
g5
tp931
a(S'point'
p932
S'point'
p933
S'NN'
p934
S'I-NP'
p935
g5
tp936
a(g161
g161
g161
g5
g5
tp937
a(S'independent'
p938
S'independent'
p939
S'JJ'
p940
S'B-ADJP'
p941
g5
tp942
a(S'of'
p943
S'of'
p944
S'IN'
p945
S'B-PP'
p946
g5
tp947
a(S'the'
p948
S'the'
p949
S'DT'
p950
S'B-NP'
p951
g5
tp952
a(S'diet'
p953
S'diet'
p954
S'NN'
p955
S'I-NP'
p956
g5
tp957
a(S'consumed'
p958
S'consume'
p959
S'VBN'
p960
S'B-VP'
p961
g5
tp962
a(g161
g161
g161
g5
g5
tp963
a(S'the'
p964
S'the'
p965
S'DT'
p966
S'B-NP'
p967
g5
tp968
a(S'24'
p969
S'24'
p970
S'CD'
p971
S'I-NP'
p972
g5
tp973
a(g137
g137
S'NN'
p974
S'I-NP'
p975
g5
tp976
a(S'carbohydrate'
p977
S'carbohydrate'
p978
S'NN'
p979
S'I-NP'
p980
g5
tp981
a(g272
g272
g272
g5
g5
tp982
a(S'CHO'
p983
S'CHO'
p984
S'NN'
p985
S'B-NP'
p986
g5
tp987
a(g279
g279
g279
g5
g5
tp988
a(S'balances'
p989
S'balance'
p990
S'NNS'
p991
S'B-NP'
p992
g5
tp993
a(S'in'
p994
S'in'
p995
S'IN'
p996
S'B-PP'
p997
g5
tp998
a(S'the'
p999
S'the'
p1000
S'DT'
p1001
S'B-NP'
p1002
g5
tp1003
a(S'chamber'
p1004
S'chamber'
p1005
S'NN'
p1006
S'I-NP'
p1007
g5
tp1008
a(S'were'
p1009
S'be'
p1010
S'VBD'
p1011
S'B-VP'
p1012
g5
tp1013
a(S'mostly'
p1014
S'mostly'
p1015
S'RB'
p1016
S'B-ADJP'
p1017
g5
tp1018
a(S'negative'
p1019
S'negative'
p1020
S'JJ'
p1021
S'I-ADJP'
p1022
g5
tp1023
a(g272
g272
g272
g5
g5
tp1024
a(S'means'
p1025
S'mean'
p1026
S'NNS'
p1027
S'B-NP'
p1028
g5
tp1029
a(S'ranging'
p1030
S'range'
p1031
S'VBG'
p1032
S'B-VP'
p1033
g5
tp1034
a(S'from'
p1035
S'from'
p1036
S'IN'
p1037
S'B-PP'
p1038
g5
tp1039
a(S'+31'
p1040
S'+31'
p1041
S'CD'
p1042
S'B-NP'
p1043
g5
tp1044
a(S'to'
p1045
S'to'
p1046
S'TO'
p1047
S'I-NP'
p1048
g5
tp1049
a(S'-98'
p1050
S'-98'
p1051
S'CD'
p1052
S'I-NP'
p1053
g5
tp1054
a(S'g/d'
p1055
S'g/d'
p1056
S'NN'
p1057
S'I-NP'
p1058
g5
tp1059
a(g279
g279
g279
g5
g5
tp1060
a(S'and'
p1061
S'and'
p1062
S'CC'
p1063
g5
g5
tp1064
a(S'the'
p1065
S'the'
p1066
S'DT'
p1067
S'B-NP'
p1068
g5
tp1069
a(S'fat'
p1070
S'fat'
p1071
S'JJ'
p1072
S'I-NP'
p1073
g5
tp1074
a(S'balances'
p1075
S'balance'
p1076
S'NNS'
p1077
S'I-NP'
p1078
g5
tp1079
a(S'mostly'
p1080
S'mostly'
p1081
S'RB'
p1082
S'B-ADJP'
p1083
g5
tp1084
a(S'positive'
p1085
S'positive'
p1086
S'JJ'
p1087
S'I-ADJP'
p1088
g5
tp1089
a(g272
g272
g272
g5
g5
tp1090
a(S'means'
p1091
S'mean'
p1092
S'NNS'
p1093
S'B-NP'
p1094
g5
tp1095
a(S'ranging'
p1096
S'range'
p1097
S'VBG'
p1098
S'B-VP'
p1099
g5
tp1100
a(S'from'
p1101
S'from'
p1102
S'IN'
p1103
S'B-PP'
p1104
g5
tp1105
a(S'-26'
p1106
S'-26'
p1107
S'CD'
p1108
S'B-NP'
p1109
g5
tp1110
a(S'to'
p1111
S'to'
p1112
S'TO'
p1113
S'I-NP'
p1114
g5
tp1115
a(S'+38'
p1116
S'+38'
p1117
S'CD'
p1118
S'I-NP'
p1119
g5
tp1120
a(S'g/d'
p1121
S'g/d'
p1122
S'NN'
p1123
S'I-NP'
p1124
g5
tp1125
a(g279
g279
g279
g5
g5
tp1126
a(S'for'
p1127
S'for'
p1128
S'IN'
p1129
S'B-PP'
p1130
g5
tp1131
a(S'the'
p1132
S'the'
p1133
S'DT'
p1134
S'B-NP'
p1135
g5
tp1136
a(S'obese'
p1137
S'obese'
p1138
S'NN'
p1139
S'I-NP'
p1140
g5
tp1141
a(g225
g225
S'DT'
p1142
S'B-NP'
p1143
g5
tp1144
a(S'well'
p1145
S'well'
p1146
S'NN'
p1147
S'I-NP'
p1148
g5
tp1149
a(S'as'
p1150
S'as'
p1151
S'IN'
p1152
S'B-PP'
p1153
g5
tp1154
a(S'for'
p1155
S'for'
p1156
S'IN'
p1157
S'B-PP'
p1158
g5
tp1159
a(S'the'
p1160
S'the'
p1161
S'DT'
p1162
S'B-NP'
p1163
g5
tp1164
a(S'lean'
p1165
S'lean'
p1166
S'JJ'
p1167
S'I-NP'
p1168
g5
tp1169
a(g161
g161
g161
S'I-NP'
p1170
g5
tp1171
a(S'well-trained'
p1172
S'well-trained'
p1173
S'JJ'
p1174
S'I-NP'
p1175
g5
tp1176
a(S'group.'
p1177
S'group.'
p1178
S'NN'
p1179
S'I-NP'
p1180
g5
tp1181
a(S'For'
p1182
S'For'
p1183
S'IN'
p1184
S'B-PP'
p1185
g5
tp1186
a(S'both'
p1187
S'both'
p1188
S'DT'
p1189
S'B-NP'
p1190
g5
tp1191
a(S'diets'
p1192
S'diet'
p1193
S'NNS'
p1194
S'I-NP'
p1195
g5
tp1196
a(S'an'
p1197
S'an'
p1198
S'DT'
p1199
S'B-NP'
p1200
g5
tp1201
a(S'increased'
p1202
S'increase'
p1203
S'VBN'
p1204
S'I-NP'
p1205
g5
tp1206
a(S'shortage'
p1207
S'shortage'
p1208
S'NN'
p1209
S'I-NP'
p1210
g5
tp1211
a(S'of'
p1212
S'of'
p1213
S'IN'
p1214
S'B-PP'
p1215
g5
tp1216
a(S'70'
p1217
S'70'
p1218
S'CD'
p1219
S'B-NP'
p1220
g5
tp1221
a(S'g'
p1222
g1222
S'NN'
p1223
S'I-NP'
p1224
g5
tp1225
a(S'of'
p1226
S'of'
p1227
S'IN'
p1228
S'B-PP'
p1229
g5
tp1230
a(S'CHO'
p1231
S'CHO'
p1232
S'NN'
p1233
S'B-NP'
p1234
S'B-protein'
p1235
tp1236
a(S'was'
p1237
S'be'
p1238
S'VBD'
p1239
S'B-VP'
p1240
g5
tp1241
a(S'found'
p1242
S'find'
p1243
S'VBN'
p1244
S'I-VP'
p1245
g5
tp1246
a(S'at'
p1247
S'at'
p1248
S'IN'
p1249
S'B-PP'
p1250
g5
tp1251
a(S'16'
p1252
S'16'
p1253
S'CD'
p1254
S'B-NP'
p1255
g5
tp1256
a(S'months'
p1257
S'month'
p1258
S'NNS'
p1259
S'I-NP'
p1260
g5
tp1261
a(S'compared'
p1262
S'compare'
p1263
S'VBN'
p1264
S'B-PP'
p1265
g5
tp1266
a(S'with'
p1267
S'with'
p1268
S'IN'
p1269
S'B-PP'
p1270
g5
tp1271
a(g650
g650
S'CD'
p1272
S'B-NP'
p1273
g5
tp1274
a(S'months'
p1275
S'month'
p1276
S'NNS'
p1277
S'I-NP'
p1278
g5
tp1279
a(g161
g161
g161
g5
g5
tp1280
a(S'and'
p1281
S'and'
p1282
S'CC'
p1283
g5
g5
tp1284
a(S'an'
p1285
S'an'
p1286
S'DT'
p1287
S'B-NP'
p1288
g5
tp1289
a(S'increase'
p1290
S'increase'
p1291
S'NN'
p1292
S'I-NP'
p1293
g5
tp1294
a(S'in'
p1295
S'in'
p1296
S'IN'
p1297
S'B-PP'
p1298
g5
tp1299
a(S'fat'
p1300
S'fat'
p1301
S'JJ'
p1302
S'B-NP'
p1303
g5
tp1304
a(S'balance'
p1305
S'balance'
p1306
S'NN'
p1307
S'I-NP'
p1308
g5
tp1309
a(S'of'
p1310
S'of'
p1311
S'IN'
p1312
S'B-PP'
p1313
g5
tp1314
a(S'33'
p1315
S'33'
p1316
S'CD'
p1317
S'B-NP'
p1318
g5
tp1319
a(g1222
g1222
S'NN'
p1320
S'I-NP'
p1321
g5
tp1322
a(S'during'
p1323
S'during'
p1324
S'IN'
p1325
S'B-PP'
p1326
g5
tp1327
a(S'the'
p1328
S'the'
p1329
S'DT'
p1330
S'B-NP'
p1331
g5
tp1332
a(S'same'
p1333
S'same'
p1334
S'JJ'
p1335
S'I-NP'
p1336
g5
tp1337
a(S'time'
p1338
S'time'
p1339
S'NN'
p1340
S'I-NP'
p1341
g5
tp1342
a(S'period'
p1343
S'period'
p1344
S'NN'
p1345
S'I-NP'
p1346
g5
tp1347
a(S'in'
p1348
S'in'
p1349
S'IN'
p1350
S'B-PP'
p1351
g5
tp1352
a(S'the'
p1353
S'the'
p1354
S'DT'
p1355
S'B-NP'
p1356
g5
tp1357
a(S'obese'
p1358
S'obese'
p1359
S'JJ'
p1360
S'I-NP'
p1361
g5
tp1362
a(S'subjects'
p1363
S'subject'
p1364
S'NNS'
p1365
S'I-NP'
p1366
g5
tp1367
a(g161
g161
g161
g5
g5
tp1368
a(S'indicating'
p1369
S'indicate'
p1370
S'VBG'
p1371
S'B-VP'
p1372
g5
tp1373
a(S'that'
p1374
S'that'
p1375
S'IN'
p1376
S'B-SBAR'
p1377
g5
tp1378
a(S'CHO'
p1379
S'CHO'
p1380
S'NN'
p1381
S'B-NP'
p1382
g5
tp1383
a(S'oxidation'
p1384
S'oxidation'
p1385
S'NN'
p1386
S'I-NP'
p1387
g5
tp1388
a(S'had'
p1389
S'have'
p1390
S'VBD'
p1391
S'B-VP'
p1392
g5
tp1393
a(S'increased'
p1394
S'increase'
p1395
S'VBN'
p1396
S'I-VP'
p1397
g5
tp1398
a(S'with'
p1399
S'with'
p1400
S'IN'
p1401
S'B-PP'
p1402
g5
tp1403
a(S'12'
p1404
S'12'
p1405
S'CD'
p1406
S'B-NP'
p1407
g5
tp1408
a(S'months'
p1409
S'month'
p1410
S'NNS'
p1411
S'I-NP'
p1412
g5
tp1413
a(S'endurance'
p1414
S'endurance'
p1415
S'NN'
p1416
S'I-NP'
p1417
g5
tp1418
a(S'training.'
p1419
S'training.'
p1420
S'NN'
p1421
S'I-NP'
p1422
g5
tp1423
a(S'In'
p1424
S'In'
p1425
S'IN'
p1426
S'B-PP'
p1427
g5
tp1428
a(S'the'
p1429
S'the'
p1430
S'DT'
p1431
S'B-NP'
p1432
g5
tp1433
a(S'well-trained'
p1434
S'well-trained'
p1435
S'JJ'
p1436
S'I-NP'
p1437
g5
tp1438
a(S'group'
p1439
S'group'
p1440
S'NN'
p1441
S'I-NP'
p1442
g5
tp1443
a(S'the'
p1444
S'the'
p1445
S'DT'
p1446
S'B-NP'
p1447
g5
tp1448
a(S'24h'
p1449
S'24h'
p1450
S'JJ'
p1451
S'I-NP'
p1452
g5
tp1453
a(S'CHO'
p1454
S'CHO'
p1455
S'NN'
p1456
S'I-NP'
p1457
g5
tp1458
a(S'balance'
p1459
S'balance'
p1460
S'NN'
p1461
S'I-NP'
p1462
g5
tp1463
a(S'was'
p1464
S'be'
p1465
S'VBD'
p1466
S'B-VP'
p1467
g5
tp1468
a(S'even'
p1469
S'even'
p1470
S'RB'
p1471
S'B-ADJP'
p1472
g5
tp1473
a(S'more'
p1474
S'more'
p1475
S'RBR'
p1476
S'I-ADJP'
p1477
g5
tp1478
a(S'negative'
p1479
S'negative'
p1480
S'JJ'
p1481
S'I-ADJP'
p1482
g5
tp1483
a(S'for'
p1484
S'for'
p1485
S'IN'
p1486
S'B-PP'
p1487
g5
tp1488
a(S'both'
p1489
S'both'
p1490
S'DT'
p1491
S'B-NP'
p1492
g5
tp1493
a(S'types'
p1494
S'type'
p1495
S'NNS'
p1496
S'I-NP'
p1497
g5
tp1498
a(S'of'
p1499
S'of'
p1500
S'IN'
p1501
S'B-PP'
p1502
g5
tp1503
a(S'diet'
p1504
S'diet'
p1505
S'NN'
p1506
S'B-NP'
p1507
g5
tp1508
a(g272
g272
g272
g5
g5
tp1509
a(S'-103'
p1510
S'-103'
p1511
S'CD'
p1512
S'B-NP'
p1513
g5
tp1514
a(S'to'
p1515
S'to'
p1516
S'TO'
p1517
g5
g5
tp1518
a(S'-185'
p1519
S'-185'
p1520
S'CD'
p1521
S'B-NP'
p1522
g5
tp1523
a(S'g/d'
p1524
S'g/d'
p1525
S'NN'
p1526
S'I-NP'
p1527
g5
tp1528
a(S'for'
p1529
S'for'
p1530
S'IN'
p1531
S'B-PP'
p1532
g5
tp1533
a(S'the'
p1534
S'the'
p1535
S'DT'
p1536
S'B-NP'
p1537
g5
tp1538
a(S'Red.F'
p1539
S'Red.F'
p1540
S'NN'
p1541
S'I-NP'
p1542
S'B-protein'
p1543
tp1544
a(S'and'
p1545
S'and'
p1546
S'CC'
p1547
S'I-NP'
p1548
g5
tp1549
a(S'Hi.F'
p1550
S'Hi.F'
p1551
S'NN'
p1552
S'I-NP'
p1553
g5
tp1554
a(S'diet'
p1555
S'diet'
p1556
S'NN'
p1557
S'I-NP'
p1558
g5
tp1559
a(g161
g161
g161
g5
g5
tp1560
a(S'respectively'
p1561
S'respectively'
p1562
S'RB'
p1563
S'B-ADVP'
p1564
g5
tp1565
a(g279
g279
g279
g5
g5
tp1566
a(S'under'
p1567
S'under'
p1568
S'IN'
p1569
S'B-PP'
p1570
g5
tp1571
a(S'similar'
p1572
S'similar'
p1573
S'JJ'
p1574
S'B-NP'
p1575
g5
tp1576
a(S'conditions'
p1577
S'condition'
p1578
S'NNS'
p1579
S'I-NP'
p1580
g5
tp1581
a(S'compared'
p1582
S'compare'
p1583
S'VBN'
p1584
S'B-PP'
p1585
g5
tp1586
a(S'with'
p1587
S'with'
p1588
S'IN'
p1589
S'B-PP'
p1590
g5
tp1591
a(S'the'
p1592
S'the'
p1593
S'DT'
p1594
S'B-NP'
p1595
g5
tp1596
a(S'trained'
p1597
S'trained'
p1598
S'JJ'
p1599
S'I-NP'
p1600
g5
tp1601
a(S'obese'
p1602
S'obese'
p1603
S'JJ'
p1604
S'I-NP'
p1605
g5
tp1606
a(S'group'
p1607
S'group'
p1608
S'NN'
p1609
S'I-NP'
p1610
g5
tp1611
a(g66
g66
g66
g5
g5
tp1612
a(S'CONCLUSION'
p1613
S'CONCLUSION'
p1614
S'NN'
p1615
S'B-NP'
p1616
g5
tp1617
a(S'The'
p1618
S'The'
p1619
S'DT'
p1620
S'B-NP'
p1621
g5
tp1622
a(S'changes'
p1623
S'change'
p1624
S'NNS'
p1625
S'I-NP'
p1626
g5
tp1627
a(S'in'
p1628
S'in'
p1629
S'IN'
p1630
S'B-PP'
p1631
g5
tp1632
a(S'24'
p1633
S'24'
p1634
S'CD'
p1635
S'B-NP'
p1636
g5
tp1637
a(g137
g137
S'NN'
p1638
S'I-NP'
p1639
g5
tp1640
a(S'substrate'
p1641
S'substrate'
p1642
S'NN'
p1643
S'I-NP'
p1644
g5
tp1645
a(S'utilization'
p1646
S'utilization'
p1647
S'NN'
p1648
S'I-NP'
p1649
g5
tp1650
a(S'in'
p1651
S'in'
p1652
S'IN'
p1653
S'B-PP'
p1654
g5
tp1655
a(S'the'
p1656
S'the'
p1657
S'DT'
p1658
S'B-NP'
p1659
g5
tp1660
a(S'obese'
p1661
S'obese'
p1662
S'NN'
p1663
S'I-NP'
p1664
g5
tp1665
a(g161
g161
g161
g5
g5
tp1666
a(S'as'
p1667
S'as'
p1668
S'RB'
p1669
S'B-CONJP'
p1670
g5
tp1671
a(S'well'
p1672
S'well'
p1673
S'RB'
p1674
S'I-CONJP'
p1675
g5
tp1676
a(S'as'
p1677
S'as'
p1678
S'IN'
p1679
S'I-CONJP'
p1680
g5
tp1681
a(S'in'
p1682
S'in'
p1683
S'IN'
p1684
S'B-PP'
p1685
g5
tp1686
a(S'the'
p1687
S'the'
p1688
S'DT'
p1689
S'B-NP'
p1690
g5
tp1691
a(S'well-trained'
p1692
S'well-trained'
p1693
S'JJ'
p1694
S'I-NP'
p1695
g5
tp1696
a(S'group'
p1697
S'group'
p1698
S'NN'
p1699
S'I-NP'
p1700
g5
tp1701
a(g161
g161
g161
g5
g5
tp1702
a(S'suggest'
p1703
S'suggest'
p1704
S'VBP'
p1705
S'B-VP'
p1706
g5
tp1707
a(S'that'
p1708
S'that'
p1709
S'IN'
p1710
S'B-SBAR'
p1711
g5
tp1712
a(S'endurance'
p1713
S'endurance'
p1714
S'NN'
p1715
S'B-NP'
p1716
g5
tp1717
a(S'training'
p1718
S'training'
p1719
S'NN'
p1720
S'I-NP'
p1721
g5
tp1722
a(S'increased'
p1723
S'increase'
p1724
S'VBD'
p1725
S'B-VP'
p1726
g5
tp1727
a(S'the'
p1728
S'the'
p1729
S'DT'
p1730
S'B-NP'
p1731
g5
tp1732
a(S'reliance'
p1733
S'reliance'
p1734
S'NN'
p1735
S'I-NP'
p1736
g5
tp1737
a(S'on'
p1738
S'on'
p1739
S'IN'
p1740
S'B-PP'
p1741
g5
tp1742
a(S'carbohydrate'
p1743
S'carbohydrate'
p1744
S'NN'
p1745
S'B-NP'
p1746
g5
tp1747
a(S'oxidation'
p1748
S'oxidation'
p1749
S'NN'
p1750
S'I-NP'
p1751
g5
tp1752
a(S'and'
p1753
S'and'
p1754
S'CC'
p1755
g5
g5
tp1756
a(S'therefore'
p1757
S'therefore'
p1758
S'RB'
p1759
S'B-ADVP'
p1760
g5
tp1761
a(S'did'
p1762
S'do'
p1763
S'VBD'
p1764
S'B-VP'
p1765
g5
tp1766
a(S'not'
p1767
S'not'
p1768
S'RB'
p1769
S'I-VP'
p1770
g5
tp1771
a(S'increase'
p1772
S'increase'
p1773
S'VB'
p1774
S'I-VP'
p1775
g5
tp1776
a(S'24'
p1777
S'24'
p1778
S'CD'
p1779
S'B-NP'
p1780
g5
tp1781
a(S'fat'
p1782
S'fat'
p1783
S'JJ'
p1784
S'I-NP'
p1785
g5
tp1786
a(S'oxidation'
p1787
S'oxidation'
p1788
S'NN'
p1789
S'I-NP'
p1790
g5
tp1791
a(g66
g66
g66
g5
g5
tp1792
a.