(lp0
(S'Low-dose'
p1
S'Low-dose'
p2
S'JJ'
p3
S'B-NP'
p4
S'O'
p5
tp6
a(S','
p7
g7
g7
S'I-NP'
p8
g5
tp9
a(S'vaginally'
p10
S'vaginally'
p11
S'RB'
p12
S'I-NP'
p13
g5
tp14
a(S'administered'
p15
S'administer'
p16
S'VBN'
p17
S'I-NP'
p18
g5
tp19
a(S'estrogens'
p20
S'estrogen'
p21
S'NNS'
p22
S'I-NP'
p23
g5
tp24
a(S'may'
p25
S'may'
p26
S'MD'
p27
S'B-VP'
p28
g5
tp29
a(S'enhance'
p30
S'enhance'
p31
S'VB'
p32
S'I-VP'
p33
g5
tp34
a(S'local'
p35
S'local'
p36
S'JJ'
p37
S'B-NP'
p38
g5
tp39
a(S'benefits'
p40
S'benefit'
p41
S'NNS'
p42
S'I-NP'
p43
g5
tp44
a(S'of'
p45
S'of'
p46
S'IN'
p47
S'B-PP'
p48
g5
tp49
a(S'systemic'
p50
S'systemic'
p51
S'JJ'
p52
S'B-NP'
p53
g5
tp54
a(S'therapy'
p55
S'therapy'
p56
S'NN'
p57
S'I-NP'
p58
g5
tp59
a(S'in'
p60
S'in'
p61
S'IN'
p62
S'B-PP'
p63
g5
tp64
a(S'the'
p65
S'the'
p66
S'DT'
p67
S'B-NP'
p68
g5
tp69
a(S'treatment'
p70
S'treatment'
p71
S'NN'
p72
S'I-NP'
p73
g5
tp74
a(S'of'
p75
S'of'
p76
S'IN'
p77
S'B-PP'
p78
g5
tp79
a(S'urogenital'
p80
S'urogenital'
p81
S'JJ'
p82
S'B-NP'
p83
g5
tp84
a(S'atrophy'
p85
S'atrophy'
p86
S'NN'
p87
S'I-NP'
p88
g5
tp89
a(S'in'
p90
S'in'
p91
S'IN'
p92
S'B-PP'
p93
g5
tp94
a(S'postmenopausal'
p95
S'postmenopausal'
p96
S'JJ'
p97
S'B-NP'
p98
g5
tp99
a(S'women'
p100
S'woman'
p101
S'NNS'
p102
S'I-NP'
p103
g5
tp104
a(S'on'
p105
S'on'
p106
S'IN'
p107
S'B-PP'
p108
g5
tp109
a(S'hormone'
p110
S'hormone'
p111
S'NN'
p112
S'B-NP'
p113
g5
tp114
a(S'therapy'
p115
S'therapy'
p116
S'NN'
p117
S'I-NP'
p118
g5
tp119
a(S'.'
p120
g120
g120
g5
g5
tp121
a(S'BACKGROUND'
p122
S'BACKGROUND'
p123
S'NN'
p124
S'B-NP'
p125
g5
tp126
a(S'When'
p127
S'When'
p128
S'WRB'
p129
S'B-ADVP'
p130
g5
tp131
a(S'genital'
p132
S'genital'
p133
S'JJ'
p134
S'B-NP'
p135
g5
tp136
a(S'atrophy'
p137
S'atrophy'
p138
S'NN'
p139
S'I-NP'
p140
g5
tp141
a(S'exists'
p142
S'exist'
p143
S'VBZ'
p144
S'B-VP'
p145
g5
tp146
a(g7
g7
g7
g5
g5
tp147
a(S'systemic'
p148
S'systemic'
p149
S'JJ'
p150
S'B-NP'
p151
g5
tp152
a(S'hormone'
p153
S'hormone'
p154
S'NN'
p155
S'I-NP'
p156
g5
tp157
a(S'therapy'
p158
S'therapy'
p159
S'NN'
p160
S'I-NP'
p161
g5
tp162
a(S'('
p163
g163
g163
g5
g5
tp164
a(S'HT'
p165
S'HT'
p166
S'NN'
p167
S'B-NP'
p168
g5
tp169
a(S')'
p170
g170
g170
g5
g5
tp171
a(S'has'
p172
S'have'
p173
S'VBZ'
p174
S'B-VP'
p175
g5
tp176
a(S'a'
p177
g177
S'DT'
p178
S'B-NP'
p179
g5
tp180
a(S'timing'
p181
S'timing'
p182
S'NN'
p183
S'I-NP'
p184
g5
tp185
a(S'until'
p186
S'until'
p187
S'IN'
p188
S'B-SBAR'
p189
g5
tp190
a(S'to'
p191
S'to'
p192
S'TO'
p193
S'B-VP'
p194
g5
tp195
a(S'induce'
p196
S'induce'
p197
S'VB'
p198
S'I-VP'
p199
g5
tp200
a(S'vaginal'
p201
S'vaginal'
p202
S'JJ'
p203
S'B-NP'
p204
g5
tp205
a(S'proliferation'
p206
S'proliferation'
p207
S'NN'
p208
S'I-NP'
p209
g5
tp210
a(S'and'
p211
S'and'
p212
S'CC'
p213
g5
g5
tp214
a(S'symptomatic'
p215
S'symptomatic'
p216
S'JJ'
p217
S'B-NP'
p218
g5
tp219
a(S'relieve.'
p220
S'relieve.'
p221
S'NN'
p222
S'I-NP'
p223
g5
tp224
a(S'Thus'
p225
S'Thus'
p226
S'RB'
p227
S'B-ADVP'
p228
g5
tp229
a(g7
g7
g7
g5
g5
tp230
a(S'in'
p231
S'in'
p232
S'IN'
p233
S'B-SBAR'
p234
g5
tp235
a(S'order'
p236
S'order'
p237
S'NN'
p238
g5
g5
tp239
a(S'to'
p240
S'to'
p241
S'TO'
p242
S'B-VP'
p243
g5
tp244
a(S'obtain'
p245
S'obtain'
p246
S'VB'
p247
S'I-VP'
p248
g5
tp249
a(g177
g177
S'DT'
p250
S'B-NP'
p251
g5
tp252
a(S'prompt'
p253
S'prompt'
p254
S'JJ'
p255
S'I-NP'
p256
g5
tp257
a(S'improvement'
p258
S'improvement'
p259
S'NN'
p260
S'I-NP'
p261
g5
tp262
a(g7
g7
g7
g5
g5
tp263
a(S'the'
p264
S'the'
p265
S'DT'
p266
S'B-NP'
p267
g5
tp268
a(S'association'
p269
S'association'
p270
S'NN'
p271
S'I-NP'
p272
g5
tp273
a(S'of'
p274
S'of'
p275
S'IN'
p276
S'B-PP'
p277
g5
tp278
a(S'local'
p279
S'local'
p280
S'JJ'
p281
S'B-NP'
p282
g5
tp283
a(S'therapy'
p284
S'therapy'
p285
S'NN'
p286
S'I-NP'
p287
g5
tp288
a(S'acting'
p289
S'act'
p290
S'VBG'
p291
S'B-VP'
p292
g5
tp293
a(S'on'
p294
S'on'
p295
S'IN'
p296
S'B-PP'
p297
g5
tp298
a(S'the'
p299
S'the'
p300
S'DT'
p301
S'B-NP'
p302
g5
tp303
a(S'genital'
p304
S'genital'
p305
S'JJ'
p306
S'I-NP'
p307
g5
tp308
a(S'epithelium'
p309
S'epithelium'
p310
S'NN'
p311
S'I-NP'
p312
g5
tp313
a(S'to'
p314
S'to'
p315
S'TO'
p316
S'B-PP'
p317
g5
tp318
a(S'the'
p319
S'the'
p320
S'DT'
p321
S'B-NP'
p322
g5
tp323
a(S'systemic'
p324
S'systemic'
p325
S'JJ'
p326
S'I-NP'
p327
g5
tp328
a(S'treatment'
p329
S'treatment'
p330
S'NN'
p331
S'I-NP'
p332
g5
tp333
a(S'should'
p334
S'should'
p335
S'MD'
p336
S'B-VP'
p337
g5
tp338
a(S'be'
p339
S'be'
p340
S'VB'
p341
S'I-VP'
p342
g5
tp343
a(S'considered'
p344
S'consider'
p345
S'VBN'
p346
S'I-VP'
p347
g5
tp348
a(g120
g120
g120
g5
g5
tp349
a(S'OBJECTIVE'
p350
S'OBJECTIVE'
p351
S'NN'
p352
S'B-NP'
p353
g5
tp354
a(S'To'
p355
S'To'
p356
S'TO'
p357
S'B-VP'
p358
g5
tp359
a(S'evaluate'
p360
S'evaluate'
p361
S'VB'
p362
S'I-VP'
p363
g5
tp364
a(S'the'
p365
S'the'
p366
S'DT'
p367
S'B-NP'
p368
g5
tp369
a(S'effects'
p370
S'effect'
p371
S'NNS'
p372
S'I-NP'
p373
g5
tp374
a(S'of'
p375
S'of'
p376
S'IN'
p377
S'B-PP'
p378
g5
tp379
a(g177
g177
S'DT'
p380
S'B-NP'
p381
g5
tp382
a(S'combined'
p383
S'combined'
p384
S'JJ'
p385
S'I-NP'
p386
g5
tp387
a(S'therapy'
p388
S'therapy'
p389
S'NN'
p390
S'I-NP'
p391
g5
tp392
a(S'consisting'
p393
S'consist'
p394
S'VBG'
p395
S'B-VP'
p396
g5
tp397
a(S'of'
p398
S'of'
p399
S'IN'
p400
S'B-PP'
p401
g5
tp402
a(S'vaginal'
p403
S'vaginal'
p404
S'JJ'
p405
S'B-NP'
p406
g5
tp407
a(S'estriol'
p408
S'estriol'
p409
S'NN'
p410
S'I-NP'
p411
g5
tp412
a(S'with'
p413
S'with'
p414
S'IN'
p415
S'B-PP'
p416
g5
tp417
a(S'transdermal'
p418
S'transdermal'
p419
S'JJ'
p420
S'B-NP'
p421
g5
tp422
a(S'17-beta-estradiol'
p423
S'17-beta-estradiol'
p424
S'NN'
p425
S'I-NP'
p426
g5
tp427
a(g163
g163
g163
g5
g5
tp428
a(S'50'
p429
S'50'
p430
S'CD'
p431
S'B-NP'
p432
g5
tp433
a(S'microg/day'
p434
S'microg/day'
p435
S'NN'
p436
S'I-NP'
p437
g5
tp438
a(g170
g170
g170
g5
g5
tp439
a(S'plus'
p440
S'plus'
p441
S'CC'
p442
g5
g5
tp443
a(S'medroxyprogesterone'
p444
S'medroxyprogesterone'
p445
S'NN'
p446
S'B-NP'
p447
g5
tp448
a(S'acetate'
p449
S'acetate'
p450
S'NN'
p451
S'I-NP'
p452
g5
tp453
a(g163
g163
g163
g5
g5
tp454
a(S'5'
p455
g455
S'CD'
p456
S'B-NP'
p457
g5
tp458
a(S'mg/day'
p459
S'mg/day'
p460
S'NN'
p461
S'I-NP'
p462
g5
tp463
a(g170
g170
g170
g5
g5
tp464
a(S'per'
p465
S'per'
p466
S'IN'
p467
S'B-PP'
p468
g5
tp469
a(S'os'
p470
S'o'
p471
S'NNS'
p472
S'B-NP'
p473
g5
tp474
a(S'in'
p475
S'in'
p476
S'IN'
p477
S'B-PP'
p478
g5
tp479
a(S'shortening'
p480
S'shorten'
p481
S'VBG'
p482
S'B-VP'
p483
g5
tp484
a(S'the'
p485
S'the'
p486
S'DT'
p487
S'B-NP'
p488
g5
tp489
a(S'period'
p490
S'period'
p491
S'NN'
p492
S'I-NP'
p493
g5
tp494
a(S'of'
p495
S'of'
p496
S'IN'
p497
S'B-PP'
p498
g5
tp499
a(S'uro-genital'
p500
S'uro-genital'
p501
S'JJ'
p502
S'B-NP'
p503
g5
tp504
a(S'symptoms'
p505
S'symptom'
p506
S'NNS'
p507
S'I-NP'
p508
g5
tp509
a(g120
g120
g120
g5
g5
tp510
a(S'SUBJECTS'
p511
S'SUBJECTS'
p512
S'NNS'
p513
S'B-NP'
p514
g5
tp515
a(S'AND'
p516
S'AND'
p517
S'CC'
p518
S'I-NP'
p519
g5
tp520
a(S'METHODS'
p521
S'METHODS'
p522
S'NNS'
p523
S'I-NP'
p524
g5
tp525
a(S'In'
p526
S'In'
p527
S'IN'
p528
S'B-PP'
p529
g5
tp530
a(g177
g177
S'DT'
p531
S'B-NP'
p532
g5
tp533
a(S'randomized'
p534
S'randomize'
p535
S'VBN'
p536
S'I-NP'
p537
g5
tp538
a(g7
g7
g7
S'I-NP'
p539
g5
tp540
a(S'double'
p541
S'double'
p542
S'JJ'
p543
S'I-NP'
p544
g5
tp545
a(S'blind'
p546
S'blind'
p547
S'JJ'
p548
S'I-NP'
p549
g5
tp550
a(g7
g7
g7
g5
g5
tp551
a(S'controlled'
p552
S'control'
p553
S'VBN'
p554
S'B-VP'
p555
g5
tp556
a(S'with'
p557
S'with'
p558
S'IN'
p559
S'B-PP'
p560
g5
tp561
a(S'placebo'
p562
S'placebo'
p563
S'NN'
p564
S'B-NP'
p565
g5
tp566
a(S'study'
p567
S'study'
p568
S'NN'
p569
S'I-NP'
p570
g5
tp571
a(g7
g7
g7
g5
g5
tp572
a(S'27'
p573
S'27'
p574
S'CD'
p575
S'B-NP'
p576
g5
tp577
a(S'women'
p578
S'woman'
p579
S'NNS'
p580
S'I-NP'
p581
g5
tp582
a(S'with'
p583
S'with'
p584
S'IN'
p585
S'B-PP'
p586
g5
tp587
a(S'climacteric'
p588
S'climacteric'
p589
S'JJ'
p590
S'B-NP'
p591
g5
tp592
a(S'symptoms'
p593
S'symptom'
p594
S'NNS'
p595
S'I-NP'
p596
g5
tp597
a(S'and'
p598
S'and'
p599
S'CC'
p600
g5
g5
tp601
a(S'atrophic'
p602
S'atrophic'
p603
S'JJ'
p604
S'B-NP'
p605
g5
tp606
a(S'vaginitis'
p607
S'vaginitis'
p608
S'NN'
p609
S'I-NP'
p610
g5
tp611
a(S'were'
p612
S'be'
p613
S'VBD'
p614
S'B-VP'
p615
g5
tp616
a(S'treated'
p617
S'treat'
p618
S'VBN'
p619
S'I-VP'
p620
g5
tp621
a(S'for'
p622
S'for'
p623
S'IN'
p624
S'B-PP'
p625
g5
tp626
a(S'4'
p627
g627
S'CD'
p628
S'B-NP'
p629
g5
tp630
a(S'months'
p631
S'month'
p632
S'NNS'
p633
S'I-NP'
p634
g5
tp635
a(S'with'
p636
S'with'
p637
S'IN'
p638
S'B-PP'
p639
g5
tp640
a(S'HT'
p641
S'HT'
p642
S'NN'
p643
S'B-NP'
p644
g5
tp645
a(S'plus'
p646
S'plus'
p647
S'CC'
p648
g5
g5
tp649
a(S'vaginal'
p650
S'vaginal'
p651
S'JJ'
p652
S'B-NP'
p653
g5
tp654
a(S'estriol'
p655
S'estriol'
p656
S'NN'
p657
S'I-NP'
p658
g5
tp659
a(S'0.5'
p660
S'0.5'
p661
S'CD'
p662
S'I-NP'
p663
g5
tp664
a(S'mg/day'
p665
S'mg/day'
p666
S'NN'
p667
S'I-NP'
p668
g5
tp669
a(g163
g163
g163
g5
g5
tp670
a(S'group'
p671
S'group'
p672
S'NN'
p673
S'B-NP'
p674
g5
tp675
a(S'E'
p676
g676
S'NN'
p677
S'I-NP'
p678
g5
tp679
a(g170
g170
g170
g5
g5
tp680
a(S'or'
p681
S'or'
p682
S'CC'
p683
g5
g5
tp684
a(S'placebo'
p685
S'placebo'
p686
S'NN'
p687
S'B-NP'
p688
g5
tp689
a(g163
g163
g163
g5
g5
tp690
a(S'group'
p691
S'group'
p692
S'NN'
p693
S'B-NP'
p694
g5
tp695
a(S'P'
p696
g696
S'NN'
p697
S'I-NP'
p698
g5
tp699
a(g170
g170
g170
g5
g5
tp700
a(g120
g120
g120
g5
g5
tp701
a(S'Patients'
p702
S'Patient'
p703
S'NNPS'
p704
S'B-NP'
p705
g5
tp706
a(S'use'
p707
S'use'
p708
S'VBP'
p709
S'B-VP'
p710
g5
tp711
a(S'the'
p712
S'the'
p713
S'DT'
p714
S'B-NP'
p715
g5
tp716
a(S'local'
p717
S'local'
p718
S'JJ'
p719
S'I-NP'
p720
g5
tp721
a(S'medication'
p722
S'medication'
p723
S'NN'
p724
S'I-NP'
p725
g5
tp726
a(S'daily'
p727
S'daily'
p728
S'RB'
p729
S'B-ADVP'
p730
g5
tp731
a(S'for'
p732
S'for'
p733
S'IN'
p734
S'B-PP'
p735
g5
tp736
a(S'the'
p737
S'the'
p738
S'DT'
p739
S'B-NP'
p740
g5
tp741
a(S'first'
p742
S'first'
p743
S'JJ'
p744
S'I-NP'
p745
g5
tp746
a(S'3'
p747
g747
S'CD'
p748
S'I-NP'
p749
g5
tp750
a(S'weeks'
p751
S'week'
p752
S'NNS'
p753
S'I-NP'
p754
g5
tp755
a(S'and'
p756
S'and'
p757
S'CC'
p758
g5
g5
tp759
a(S'twice-weekly'
p760
S'twice-weekly'
p761
S'JJ'
p762
S'B-ADJP'
p763
g5
tp764
a(S'thereafter.'
p765
S'thereafter.'
p766
S'RB'
p767
S'B-PP'
p768
g5
tp769
a(S'Before'
p770
S'Before'
p771
S'IN'
p772
S'I-PP'
p773
g5
tp774
a(S'entering'
p775
S'enter'
p776
S'VBG'
p777
S'B-VP'
p778
g5
tp779
a(S'in'
p780
S'in'
p781
S'IN'
p782
S'B-PP'
p783
g5
tp784
a(S'the'
p785
S'the'
p786
S'DT'
p787
S'B-NP'
p788
g5
tp789
a(S'study'
p790
S'study'
p791
S'NN'
p792
S'I-NP'
p793
g5
tp794
a(g7
g7
g7
g5
g5
tp795
a(S'patients'
p796
S'patient'
p797
S'NNS'
p798
S'B-NP'
p799
g5
tp800
a(S'were'
p801
S'be'
p802
S'VBD'
p803
S'B-VP'
p804
g5
tp805
a(S'asked'
p806
S'ask'
p807
S'VBN'
p808
S'I-VP'
p809
g5
tp810
a(S'about'
p811
S'about'
p812
S'IN'
p813
S'B-PP'
p814
g5
tp815
a(S'HT'
p816
S'HT'
p817
S'NN'
p818
S'B-NP'
p819
g5
tp820
a(S'and'
p821
S'and'
p822
S'CC'
p823
g5
g5
tp824
a(S'selected'
p825
S'select'
p826
S'VBN'
p827
S'B-VP'
p828
g5
tp829
a(S'for'
p830
S'for'
p831
S'IN'
p832
S'B-PP'
p833
g5
tp834
a(S'inclusion.'
p835
S'inclusion.'
p836
S'NN'
p837
S'B-NP'
p838
g5
tp839
a(S'In'
p840
S'In'
p841
S'IN'
p842
S'B-PP'
p843
g5
tp844
a(S'the'
p845
S'the'
p846
S'DT'
p847
S'B-NP'
p848
g5
tp849
a(S'first'
p850
S'first'
p851
S'JJ'
p852
S'I-NP'
p853
g5
tp854
a(S'visit'
p855
S'visit'
p856
S'NN'
p857
S'I-NP'
p858
g5
tp859
a(g7
g7
g7
g5
g5
tp860
a(S'electible'
p861
S'electible'
p862
S'JJ'
p863
S'B-NP'
p864
g5
tp865
a(S'patients'
p866
S'patient'
p867
S'NNS'
p868
S'I-NP'
p869
g5
tp870
a(S'after'
p871
S'after'
p872
S'IN'
p873
S'B-PP'
p874
g5
tp875
a(S'written'
p876
S'write'
p877
S'VBN'
p878
S'B-NP'
p879
g5
tp880
a(S'informed'
p881
S'inform'
p882
S'VBN'
p883
S'I-NP'
p884
g5
tp885
a(S'consent'
p886
S'consent'
p887
S'NN'
p888
S'I-NP'
p889
g5
tp890
a(S'were'
p891
S'be'
p892
S'VBD'
p893
S'B-VP'
p894
g5
tp895
a(S'randomized'
p896
S'randomize'
p897
S'VBN'
p898
S'I-VP'
p899
g5
tp900
a(S'to'
p901
S'to'
p902
S'TO'
p903
S'I-VP'
p904
g5
tp905
a(S'receive'
p906
S'receive'
p907
S'VB'
p908
S'I-VP'
p909
g5
tp910
a(S'HT'
p911
S'HT'
p912
S'NN'
p913
S'B-NP'
p914
g5
tp915
a(S'plus'
p916
S'plus'
p917
S'CC'
p918
S'I-NP'
p919
g5
tp920
a(S'local'
p921
S'local'
p922
S'JJ'
p923
S'I-NP'
p924
g5
tp925
a(S'estriol'
p926
S'estriol'
p927
S'NN'
p928
S'I-NP'
p929
g5
tp930
a(S'or'
p931
S'or'
p932
S'CC'
p933
S'I-NP'
p934
g5
tp935
a(S'placebo.'
p936
S'placebo.'
p937
S'NN'
p938
S'I-NP'
p939
g5
tp940
a(S'All'
p941
S'All'
p942
S'PDT'
p943
S'B-NP'
p944
g5
tp945
a(S'the'
p946
S'the'
p947
S'DT'
p948
S'I-NP'
p949
g5
tp950
a(S'subjects'
p951
S'subject'
p952
S'NNS'
p953
S'I-NP'
p954
g5
tp955
a(S'had'
p956
S'have'
p957
S'VBD'
p958
S'B-VP'
p959
g5
tp960
a(S'baseline'
p961
S'baseline'
p962
S'NN'
p963
S'B-NP'
p964
g5
tp965
a(S'studies'
p966
S'study'
p967
S'NNS'
p968
S'I-NP'
p969
g5
tp970
a(g7
g7
g7
g5
g5
tp971
a(S'including'
p972
S'include'
p973
S'VBG'
p974
S'B-PP'
p975
g5
tp976
a(S'medical'
p977
S'medical'
p978
S'JJ'
p979
S'B-NP'
p980
g5
tp981
a(S'history'
p982
S'history'
p983
S'NN'
p984
S'I-NP'
p985
g5
tp986
a(g7
g7
g7
g5
g5
tp987
a(S'physical'
p988
S'physical'
p989
S'JJ'
p990
S'B-NP'
p991
g5
tp992
a(S'examination'
p993
S'examination'
p994
S'NN'
p995
S'I-NP'
p996
g5
tp997
a(g7
g7
g7
g5
g5
tp998
a(S'blood'
p999
S'blood'
p1000
S'NN'
p1001
S'B-NP'
p1002
g5
tp1003
a(S'and'
p1004
S'and'
p1005
S'CC'
p1006
g5
g5
tp1007
a(S'urine'
p1008
S'urine'
p1009
S'NN'
p1010
S'B-NP'
p1011
g5
tp1012
a(S'analysis.'
p1013
S'analysis.'
p1014
S'NN'
p1015
S'I-NP'
p1016
g5
tp1017
a(S'In'
p1018
S'In'
p1019
S'IN'
p1020
S'B-SBAR'
p1021
g5
tp1022
a(S'order'
p1023
S'order'
p1024
S'NN'
p1025
g5
g5
tp1026
a(S'to'
p1027
S'to'
p1028
S'TO'
p1029
S'B-VP'
p1030
g5
tp1031
a(S'evaluate'
p1032
S'evaluate'
p1033
S'VB'
p1034
S'I-VP'
p1035
g5
tp1036
a(S'the'
p1037
S'the'
p1038
S'DT'
p1039
S'B-NP'
p1040
g5
tp1041
a(S'effect'
p1042
S'effect'
p1043
S'NN'
p1044
S'I-NP'
p1045
g5
tp1046
a(S'of'
p1047
S'of'
p1048
S'IN'
p1049
S'B-PP'
p1050
g5
tp1051
a(S'local'
p1052
S'local'
p1053
S'JJ'
p1054
S'B-NP'
p1055
g5
tp1056
a(S'treatment'
p1057
S'treatment'
p1058
S'NN'
p1059
S'I-NP'
p1060
g5
tp1061
a(S'on'
p1062
S'on'
p1063
S'IN'
p1064
S'B-PP'
p1065
g5
tp1066
a(S'urinary'
p1067
S'urinary'
p1068
S'JJ'
p1069
S'B-NP'
p1070
g5
tp1071
a(S'and'
p1072
S'and'
p1073
S'CC'
p1074
S'I-NP'
p1075
g5
tp1076
a(S'genital'
p1077
S'genital'
p1078
S'JJ'
p1079
S'I-NP'
p1080
g5
tp1081
a(S'symptoms'
p1082
S'symptom'
p1083
S'NNS'
p1084
S'I-NP'
p1085
g5
tp1086
a(g7
g7
g7
g5
g5
tp1087
a(g177
g177
S'DT'
p1088
S'B-NP'
p1089
g5
tp1090
a(S'score'
p1091
S'score'
p1092
S'NN'
p1093
S'I-NP'
p1094
g5
tp1095
a(S'for'
p1096
S'for'
p1097
S'IN'
p1098
S'B-PP'
p1099
g5
tp1100
a(S'genital'
p1101
S'genital'
p1102
S'JJ'
p1103
S'B-NP'
p1104
g5
tp1105
a(g7
g7
g7
S'I-NP'
p1106
g5
tp1107
a(S'urinary'
p1108
S'urinary'
p1109
S'JJ'
p1110
S'I-NP'
p1111
g5
tp1112
a(S'and'
p1113
S'and'
p1114
S'CC'
p1115
S'I-NP'
p1116
g5
tp1117
a(S'colposcopic'
p1118
S'colposcopic'
p1119
S'JJ'
p1120
S'I-NP'
p1121
g5
tp1122
a(S'complaints'
p1123
S'complaint'
p1124
S'NNS'
p1125
S'I-NP'
p1126
g5
tp1127
a(g163
g163
g163
g5
g5
tp1128
a(S'0'
p1129
g1129
S'CD'
p1130
S'B-NP'
p1131
g5
tp1132
a(S'minimum-100'
p1133
S'minimum-100'
p1134
S'NN'
p1135
S'I-NP'
p1136
g5
tp1137
a(S'maximum'
p1138
S'maximum'
p1139
S'NN'
p1140
S'I-NP'
p1141
g5
tp1142
a(g170
g170
g170
g5
g5
tp1143
a(S'was'
p1144
S'be'
p1145
S'VBD'
p1146
S'B-VP'
p1147
g5
tp1148
a(S'developed.'
p1149
S'developed.'
p1150
S'VBN'
p1151
S'I-VP'
p1152
g5
tp1153
a(S'This'
p1154
S'This'
p1155
S'DT'
p1156
S'B-NP'
p1157
g5
tp1158
a(S'score'
p1159
S'score'
p1160
S'NN'
p1161
S'I-NP'
p1162
g5
tp1163
a(S'and'
p1164
S'and'
p1165
S'CC'
p1166
S'I-NP'
p1167
g5
tp1168
a(S'Blatt-Kuperman'
p1169
S'Blatt-Kuperman'
p1170
S'NN'
p1171
S'I-NP'
p1172
g5
tp1173
a(S'were'
p1174
S'be'
p1175
S'VBD'
p1176
S'B-VP'
p1177
g5
tp1178
a(S'recorded'
p1179
S'record'
p1180
S'VBN'
p1181
S'I-VP'
p1182
g5
tp1183
a(S'and'
p1184
S'and'
p1185
S'CC'
p1186
g5
g5
tp1187
a(S'performed'
p1188
S'perform'
p1189
S'VBN'
p1190
S'B-VP'
p1191
g5
tp1192
a(S'in'
p1193
S'in'
p1194
S'IN'
p1195
S'B-PP'
p1196
g5
tp1197
a(S'every'
p1198
S'every'
p1199
S'DT'
p1200
S'B-NP'
p1201
g5
tp1202
a(S'control'
p1203
S'control'
p1204
S'NN'
p1205
S'I-NP'
p1206
g5
tp1207
a(g120
g120
g120
g5
g5
tp1208
a(S'RESULTS'
p1209
S'RESULTS'
p1210
S'NNS'
p1211
S'B-NP'
p1212
g5
tp1213
a(S'There'
p1214
S'There'
p1215
S'EX'
p1216
S'B-NP'
p1217
g5
tp1218
a(S'were'
p1219
S'be'
p1220
S'VBD'
p1221
S'B-VP'
p1222
g5
tp1223
a(S'no'
p1224
S'no'
p1225
S'DT'
p1226
S'B-NP'
p1227
g5
tp1228
a(S'differences'
p1229
S'difference'
p1230
S'NNS'
p1231
S'I-NP'
p1232
g5
tp1233
a(S'on'
p1234
S'on'
p1235
S'IN'
p1236
S'B-PP'
p1237
g5
tp1238
a(S'climacteric'
p1239
S'climacteric'
p1240
S'JJ'
p1241
S'B-NP'
p1242
g5
tp1243
a(S'symptoms'
p1244
S'symptom'
p1245
S'NNS'
p1246
S'I-NP'
p1247
g5
tp1248
a(S'relief'
p1249
S'relief'
p1250
S'NN'
p1251
S'I-NP'
p1252
g5
tp1253
a(S'between'
p1254
S'between'
p1255
S'IN'
p1256
S'B-PP'
p1257
g5
tp1258
a(S'the'
p1259
S'the'
p1260
S'DT'
p1261
S'B-NP'
p1262
g5
tp1263
a(S'two'
p1264
S'two'
p1265
S'CD'
p1266
S'I-NP'
p1267
g5
tp1268
a(S'groups.'
p1269
S'groups.'
p1270
S'NNS'
p1271
S'I-NP'
p1272
g5
tp1273
a(S'Additionally'
p1274
S'Additionally'
p1275
S'RB'
p1276
S'B-ADVP'
p1277
g5
tp1278
a(g7
g7
g7
g5
g5
tp1279
a(S'the'
p1280
S'the'
p1281
S'DT'
p1282
S'B-NP'
p1283
g5
tp1284
a(S'improvement'
p1285
S'improvement'
p1286
S'NN'
p1287
S'I-NP'
p1288
g5
tp1289
a(S'in'
p1290
S'in'
p1291
S'IN'
p1292
S'B-PP'
p1293
g5
tp1294
a(S'urinary'
p1295
S'urinary'
p1296
S'JJ'
p1297
S'B-NP'
p1298
g5
tp1299
a(S'symptoms'
p1300
S'symptom'
p1301
S'NNS'
p1302
S'I-NP'
p1303
g5
tp1304
a(S'at'
p1305
S'at'
p1306
S'IN'
p1307
S'B-PP'
p1308
g5
tp1309
a(S'the'
p1310
S'the'
p1311
S'DT'
p1312
S'B-NP'
p1313
g5
tp1314
a(S'end'
p1315
S'end'
p1316
S'NN'
p1317
S'I-NP'
p1318
g5
tp1319
a(S'of'
p1320
S'of'
p1321
S'IN'
p1322
S'B-PP'
p1323
g5
tp1324
a(S'the'
p1325
S'the'
p1326
S'DT'
p1327
S'B-NP'
p1328
g5
tp1329
a(S'study'
p1330
S'study'
p1331
S'NN'
p1332
S'I-NP'
p1333
g5
tp1334
a(S'was'
p1335
S'be'
p1336
S'VBD'
p1337
S'B-VP'
p1338
g5
tp1339
a(S'similar'
p1340
S'similar'
p1341
S'JJ'
p1342
S'B-ADJP'
p1343
g5
tp1344
a(S'for'
p1345
S'for'
p1346
S'IN'
p1347
S'B-PP'
p1348
g5
tp1349
a(S'both'
p1350
S'both'
p1351
S'DT'
p1352
S'B-NP'
p1353
g5
tp1354
a(S'groups'
p1355
S'group'
p1356
S'NNS'
p1357
S'I-NP'
p1358
g5
tp1359
a(g163
g163
g163
g5
g5
tp1360
a(S'from'
p1361
S'from'
p1362
S'IN'
p1363
S'B-PP'
p1364
g5
tp1365
a(S'16.5'
p1366
S'16.5'
p1367
S'CD'
p1368
S'B-NP'
p1369
g5
tp1370
a(S'+/-'
p1371
S'+/-'
p1372
S'SYM'
p1373
S'I-NP'
p1374
g5
tp1375
a(S'6.1'
p1376
S'6.1'
p1377
S'CD'
p1378
S'I-NP'
p1379
g5
tp1380
a(S'to'
p1381
S'to'
p1382
S'TO'
p1383
S'I-NP'
p1384
g5
tp1385
a(S'8.5'
p1386
S'8.5'
p1387
S'CD'
p1388
S'I-NP'
p1389
g5
tp1390
a(S'+/-'
p1391
S'+/-'
p1392
S'SYM'
p1393
S'I-NP'
p1394
g5
tp1395
a(S'2.4'
p1396
S'2.4'
p1397
S'CD'
p1398
S'I-NP'
p1399
g5
tp1400
a(S'for'
p1401
S'for'
p1402
S'IN'
p1403
S'B-PP'
p1404
g5
tp1405
a(g676
g676
S'NN'
p1406
S'B-NP'
p1407
g5
tp1408
a(S'group'
p1409
S'group'
p1410
S'NN'
p1411
S'I-NP'
p1412
g5
tp1413
a(S'and'
p1414
S'and'
p1415
S'CC'
p1416
S'B-PP'
p1417
g5
tp1418
a(S'from'
p1419
S'from'
p1420
S'IN'
p1421
S'B-PP'
p1422
g5
tp1423
a(S'15.8'
p1424
S'15.8'
p1425
S'CD'
p1426
S'B-NP'
p1427
g5
tp1428
a(S'+/-'
p1429
S'+/-'
p1430
S'SYM'
p1431
S'I-NP'
p1432
g5
tp1433
a(S'7.8'
p1434
S'7.8'
p1435
S'CD'
p1436
S'I-NP'
p1437
g5
tp1438
a(S'to'
p1439
S'to'
p1440
S'TO'
p1441
S'I-NP'
p1442
g5
tp1443
a(S'8.8'
p1444
S'8.8'
p1445
S'CD'
p1446
S'I-NP'
p1447
g5
tp1448
a(S'+/-'
p1449
S'+/-'
p1450
S'SYM'
p1451
S'I-NP'
p1452
g5
tp1453
a(S'2.7'
p1454
S'2.7'
p1455
S'CD'
p1456
S'I-NP'
p1457
g5
tp1458
a(S'for'
p1459
S'for'
p1460
S'IN'
p1461
S'B-PP'
p1462
g5
tp1463
a(g696
g696
S'NN'
p1464
S'B-NP'
p1465
g5
tp1466
a(S'group'
p1467
S'group'
p1468
S'NN'
p1469
S'I-NP'
p1470
g5
tp1471
a(S';'
p1472
g1472
S':'
p1473
g5
g5
tp1474
a(g696
g696
S'NN'
p1475
S'B-NP'
p1476
g5
tp1477
a(S'<'
p1478
g1478
S'JJR'
p1479
S'B-NP'
p1480
g5
tp1481
a(S'0.01'
p1482
S'0.01'
p1483
S'CD'
p1484
S'I-NP'
p1485
g5
tp1486
a(S'versus'
p1487
S'versus'
p1488
S'CC'
p1489
g5
g5
tp1490
a(S'basal'
p1491
S'basal'
p1492
S'JJ'
p1493
S'B-ADJP'
p1494
g5
tp1495
a(g170
g170
g170
g5
g5
tp1496
a(g1472
g1472
g1473
g5
g5
tp1497
a(S'however'
p1498
S'however'
p1499
S'RB'
p1500
S'B-ADVP'
p1501
g5
tp1502
a(g7
g7
g7
g5
g5
tp1503
a(S'those'
p1504
S'those'
p1505
S'DT'
p1506
S'B-NP'
p1507
g5
tp1508
a(S'women'
p1509
S'woman'
p1510
S'NNS'
p1511
S'I-NP'
p1512
g5
tp1513
a(S'in'
p1514
S'in'
p1515
S'IN'
p1516
S'B-PP'
p1517
g5
tp1518
a(S'group'
p1519
S'group'
p1520
S'NN'
p1521
S'B-NP'
p1522
g5
tp1523
a(g676
g676
S'NN'
p1524
S'I-NP'
p1525
g5
tp1526
a(S'reached'
p1527
S'reach'
p1528
S'VBD'
p1529
S'B-VP'
p1530
g5
tp1531
a(S'significant'
p1532
S'significant'
p1533
S'JJ'
p1534
S'B-NP'
p1535
g5
tp1536
a(S'improvement'
p1537
S'improvement'
p1538
S'NN'
p1539
S'I-NP'
p1540
g5
tp1541
a(S'on'
p1542
S'on'
p1543
S'IN'
p1544
S'B-PP'
p1545
g5
tp1546
a(S'urinary'
p1547
S'urinary'
p1548
S'JJ'
p1549
S'B-NP'
p1550
g5
tp1551
a(S'complaints'
p1552
S'complaint'
p1553
S'NNS'
p1554
S'I-NP'
p1555
g5
tp1556
a(S'since'
p1557
S'since'
p1558
S'IN'
p1559
S'B-PP'
p1560
g5
tp1561
a(S'the'
p1562
S'the'
p1563
S'DT'
p1564
S'B-NP'
p1565
g5
tp1566
a(S'first'
p1567
S'first'
p1568
S'JJ'
p1569
S'I-NP'
p1570
g5
tp1571
a(S'month'
p1572
S'month'
p1573
S'NN'
p1574
S'I-NP'
p1575
g5
tp1576
a(S'of'
p1577
S'of'
p1578
S'IN'
p1579
S'B-PP'
p1580
g5
tp1581
a(S'treatment.'
p1582
S'treatment.'
p1583
S'NN'
p1584
S'B-NP'
p1585
g5
tp1586
a(S'Additionally'
p1587
S'Additionally'
p1588
S'RB'
p1589
S'B-ADVP'
p1590
g5
tp1591
a(g7
g7
g7
g5
g5
tp1592
a(g177
g177
S'DT'
p1593
S'B-NP'
p1594
g5
tp1595
a(S'significant'
p1596
S'significant'
p1597
S'JJ'
p1598
S'I-NP'
p1599
g5
tp1600
a(S'difference'
p1601
S'difference'
p1602
S'NN'
p1603
S'I-NP'
p1604
g5
tp1605
a(S'between'
p1606
S'between'
p1607
S'IN'
p1608
S'B-PP'
p1609
g5
tp1610
a(g676
g676
S'NN'
p1611
S'B-NP'
p1612
g5
tp1613
a(S'and'
p1614
S'and'
p1615
S'CC'
p1616
S'I-NP'
p1617
g5
tp1618
a(g696
g696
S'NN'
p1619
S'I-NP'
p1620
g5
tp1621
a(S'was'
p1622
S'be'
p1623
S'VBD'
p1624
S'B-VP'
p1625
g5
tp1626
a(S'observed'
p1627
S'observe'
p1628
S'VBN'
p1629
S'I-VP'
p1630
g5
tp1631
a(S'at'
p1632
S'at'
p1633
S'IN'
p1634
S'B-PP'
p1635
g5
tp1636
a(S'months'
p1637
S'month'
p1638
S'NNS'
p1639
S'B-NP'
p1640
g5
tp1641
a(S'2'
p1642
g1642
S'CD'
p1643
S'I-NP'
p1644
g5
tp1645
a(S'and'
p1646
S'and'
p1647
S'CC'
p1648
S'I-NP'
p1649
g5
tp1650
a(g747
g747
S'CD'
p1651
S'I-NP'
p1652
g5
tp1653
a(g7
g7
g7
g5
g5
tp1654
a(S'although'
p1655
S'although'
p1656
S'IN'
p1657
S'B-SBAR'
p1658
g5
tp1659
a(S'no'
p1660
S'no'
p1661
S'DT'
p1662
S'B-NP'
p1663
g5
tp1664
a(S'differences'
p1665
S'difference'
p1666
S'NNS'
p1667
S'I-NP'
p1668
g5
tp1669
a(S'were'
p1670
S'be'
p1671
S'VBD'
p1672
S'B-VP'
p1673
g5
tp1674
a(S'detected'
p1675
S'detect'
p1676
S'VBN'
p1677
S'I-VP'
p1678
g5
tp1679
a(S'at'
p1680
S'at'
p1681
S'IN'
p1682
S'B-PP'
p1683
g5
tp1684
a(S'the'
p1685
S'the'
p1686
S'DT'
p1687
S'B-NP'
p1688
g5
tp1689
a(S'end'
p1690
S'end'
p1691
S'NN'
p1692
S'I-NP'
p1693
g5
tp1694
a(S'of'
p1695
S'of'
p1696
S'IN'
p1697
S'B-PP'
p1698
g5
tp1699
a(S'the'
p1700
S'the'
p1701
S'DT'
p1702
S'B-NP'
p1703
g5
tp1704
a(S'study.'
p1705
S'study.'
p1706
S'NN'
p1707
S'I-NP'
p1708
g5
tp1709
a(S'Papanicolaou'
p1710
S'Papanicolaou'
p1711
S'NNP'
p1712
S'I-NP'
p1713
g5
tp1714
a(S'smear'
p1715
S'smear'
p1716
S'NN'
p1717
S'I-NP'
p1718
g5
tp1719
a(S'showed'
p1720
S'show'
p1721
S'VBD'
p1722
S'B-VP'
p1723
g5
tp1724
a(S'reactive'
p1725
S'reactive'
p1726
S'JJ'
p1727
S'B-NP'
p1728
g5
tp1729
a(S'or'
p1730
S'or'
p1731
S'CC'
p1732
S'I-NP'
p1733
g5
tp1734
a(S'reparative'
p1735
S'reparative'
p1736
S'JJ'
p1737
S'I-NP'
p1738
g5
tp1739
a(S'changes'
p1740
S'change'
p1741
S'NNS'
p1742
S'I-NP'
p1743
g5
tp1744
a(S'and'
p1745
S'and'
p1746
S'CC'
p1747
g5
g5
tp1748
a(S'karyopyknotic'
p1749
S'karyopyknotic'
p1750
S'JJ'
p1751
S'B-NP'
p1752
g5
tp1753
a(S'index'
p1754
S'index'
p1755
S'NN'
p1756
S'I-NP'
p1757
g5
tp1758
a(S'exhibited'
p1759
S'exhibit'
p1760
S'VBD'
p1761
S'B-VP'
p1762
g5
tp1763
a(g177
g177
S'DT'
p1764
S'B-NP'
p1765
g5
tp1766
a(S'significant'
p1767
S'significant'
p1768
S'JJ'
p1769
S'I-NP'
p1770
g5
tp1771
a(S'increase'
p1772
S'increase'
p1773
S'NN'
p1774
S'I-NP'
p1775
g5
tp1776
a(S'in'
p1777
S'in'
p1778
S'IN'
p1779
S'B-PP'
p1780
g5
tp1781
a(S'superficial'
p1782
S'superficial'
p1783
S'JJ'
p1784
S'B-NP'
p1785
S'B-cell_type'
p1786
tp1787
a(S'cells'
p1788
S'cell'
p1789
S'NNS'
p1790
S'I-NP'
p1791
S'I-cell_type'
p1792
tp1793
a(S'in'
p1794
S'in'
p1795
S'IN'
p1796
S'B-PP'
p1797
g5
tp1798
a(S'both'
p1799
S'both'
p1800
S'CC'
p1801
g5
g5
tp1802
a(S'groups'
p1803
S'group'
p1804
S'NNS'
p1805
S'B-NP'
p1806
g5
tp1807
a(S'and'
p1808
S'and'
p1809
S'CC'
p1810
S'B-PP'
p1811
g5
tp1812
a(S'at'
p1813
S'at'
p1814
S'IN'
p1815
S'B-PP'
p1816
g5
tp1817
a(S'the'
p1818
S'the'
p1819
S'DT'
p1820
S'B-NP'
p1821
g5
tp1822
a(S'end'
p1823
S'end'
p1824
S'NN'
p1825
S'I-NP'
p1826
g5
tp1827
a(S'of'
p1828
S'of'
p1829
S'IN'
p1830
S'B-PP'
p1831
g5
tp1832
a(S'the'
p1833
S'the'
p1834
S'DT'
p1835
S'B-NP'
p1836
g5
tp1837
a(S'study'
p1838
S'study'
p1839
S'NN'
p1840
S'I-NP'
p1841
g5
tp1842
a(g120
g120
g120
g5
g5
tp1843
a(S'CONCLUSIONS'
p1844
S'CONCLUSIONS'
p1845
S'NNS'
p1846
S'B-NP'
p1847
g5
tp1848
a(S'Adding'
p1849
S'Add'
p1850
S'VBG'
p1851
S'B-VP'
p1852
g5
tp1853
a(S'vaginal'
p1854
S'vaginal'
p1855
S'JJ'
p1856
S'B-NP'
p1857
g5
tp1858
a(S'estriol'
p1859
S'estriol'
p1860
S'NN'
p1861
S'I-NP'
p1862
g5
tp1863
a(S'to'
p1864
S'to'
p1865
S'TO'
p1866
S'B-PP'
p1867
g5
tp1868
a(S'HRT'
p1869
S'HRT'
p1870
S'NN'
p1871
S'B-NP'
p1872
S'B-protein'
p1873
tp1874
a(S'may'
p1875
S'may'
p1876
S'MD'
p1877
S'B-VP'
p1878
g5
tp1879
a(S'shorten'
p1880
S'shorten'
p1881
S'VB'
p1882
S'I-VP'
p1883
g5
tp1884
a(S'the'
p1885
S'the'
p1886
S'DT'
p1887
S'B-NP'
p1888
g5
tp1889
a(S'latency'
p1890
S'latency'
p1891
S'NN'
p1892
S'I-NP'
p1893
g5
tp1894
a(S'period'
p1895
S'period'
p1896
S'NN'
p1897
S'I-NP'
p1898
g5
tp1899
a(S'for'
p1900
S'for'
p1901
S'IN'
p1902
S'B-PP'
p1903
g5
tp1904
a(S'urinary'
p1905
S'urinary'
p1906
S'JJ'
p1907
S'B-NP'
p1908
g5
tp1909
a(S'symptoms'
p1910
S'symptom'
p1911
S'NNS'
p1912
S'I-NP'
p1913
g5
tp1914
a(g120
g120
g120
g5
g5
tp1915
a.