(lp0
(S'Inhibition'
p1
S'Inhibition'
p2
S'NN'
p3
S'B-NP'
p4
S'O'
p5
tp6
a(S'of'
p7
S'of'
p8
S'IN'
p9
S'B-PP'
p10
g5
tp11
a(S'PCSK9'
p12
S'PCSK9'
p13
S'NN'
p14
S'B-NP'
p15
S'B-protein'
p16
tp17
a(S'with'
p18
S'with'
p19
S'IN'
p20
S'B-PP'
p21
g5
tp22
a(S'evolocumab'
p23
S'evolocumab'
p24
S'NN'
p25
S'B-NP'
p26
S'B-protein'
p27
tp28
a(S'in'
p29
S'in'
p30
S'IN'
p31
S'B-PP'
p32
g5
tp33
a(S'homozygous'
p34
S'homozygous'
p35
S'JJ'
p36
S'B-NP'
p37
g5
tp38
a(S'familial'
p39
S'familial'
p40
S'JJ'
p41
S'I-NP'
p42
g5
tp43
a(S'hypercholesterolaemia'
p44
S'hypercholesterolaemia'
p45
S'NN'
p46
S'I-NP'
p47
g5
tp48
a(S'('
p49
g49
g49
g5
g5
tp50
a(S'TESLA'
p51
S'TESLA'
p52
S'NN'
p53
S'B-NP'
p54
g5
tp55
a(S'Part'
p56
S'Part'
p57
S'NNP'
p58
S'I-NP'
p59
g5
tp60
a(S'B'
p61
g61
S'NNP'
p62
S'I-NP'
p63
g5
tp64
a(S')'
p65
g65
g65
g5
g5
tp66
a(S':'
p67
g67
g67
g5
g5
tp68
a(S'a'
p69
g69
S'DT'
p70
S'B-NP'
p71
g5
tp72
a(S'randomised'
p73
S'randomise'
p74
S'VBN'
p75
S'I-NP'
p76
g5
tp77
a(S','
p78
g78
g78
S'I-NP'
p79
g5
tp80
a(S'double-blind'
p81
S'double-blind'
p82
S'JJ'
p83
S'I-NP'
p84
g5
tp85
a(g78
g78
g78
S'I-NP'
p86
g5
tp87
a(S'placebo-controlled'
p88
S'placebo-controlled'
p89
S'JJ'
p90
S'I-NP'
p91
g5
tp92
a(S'trial'
p93
S'trial'
p94
S'NN'
p95
S'I-NP'
p96
g5
tp97
a(S'.'
p98
g98
g98
g5
g5
tp99
a(S'BACKGROUND'
p100
S'BACKGROUND'
p101
S'NN'
p102
S'B-NP'
p103
g5
tp104
a(S'Homozygous'
p105
S'Homozygous'
p106
S'JJ'
p107
S'I-NP'
p108
g5
tp109
a(S'familial'
p110
S'familial'
p111
S'JJ'
p112
S'I-NP'
p113
g5
tp114
a(S'hypercholesterolaemia'
p115
S'hypercholesterolaemia'
p116
S'NN'
p117
S'I-NP'
p118
g5
tp119
a(S'is'
p120
S'be'
p121
S'VBZ'
p122
S'B-VP'
p123
g5
tp124
a(g69
g69
S'DT'
p125
S'B-NP'
p126
g5
tp127
a(S'rare'
p128
S'rare'
p129
S'JJ'
p130
S'I-NP'
p131
g5
tp132
a(g78
g78
g78
S'I-NP'
p133
g5
tp134
a(S'serious'
p135
S'serious'
p136
S'JJ'
p137
S'I-NP'
p138
g5
tp139
a(S'disorder'
p140
S'disorder'
p141
S'NN'
p142
S'I-NP'
p143
g5
tp144
a(S'caused'
p145
S'cause'
p146
S'VBN'
p147
S'B-VP'
p148
g5
tp149
a(S'by'
p150
S'by'
p151
S'IN'
p152
S'B-PP'
p153
g5
tp154
a(S'very'
p155
S'very'
p156
S'RB'
p157
S'B-NP'
p158
g5
tp159
a(S'low'
p160
S'low'
p161
S'JJ'
p162
S'I-NP'
p163
g5
tp164
a(S'or'
p165
S'or'
p166
S'CC'
p167
S'I-NP'
p168
g5
tp169
a(S'absent'
p170
S'absent'
p171
S'JJ'
p172
S'I-NP'
p173
g5
tp174
a(S'plasma'
p175
S'plasma'
p176
S'NN'
p177
S'I-NP'
p178
g5
tp179
a(S'clearance'
p180
S'clearance'
p181
S'NN'
p182
S'I-NP'
p183
g5
tp184
a(S'of'
p185
S'of'
p186
S'IN'
p187
S'B-PP'
p188
g5
tp189
a(S'LDL'
p190
S'LDL'
p191
S'NN'
p192
S'B-NP'
p193
S'B-protein'
p194
tp195
a(g78
g78
g78
g5
g5
tp196
a(S'substantially'
p197
S'substantially'
p198
S'RB'
p199
S'B-VP'
p200
g5
tp201
a(S'raised'
p202
S'raise'
p203
S'VBD'
p204
S'I-VP'
p205
g5
tp206
a(S'LDL'
p207
S'LDL'
p208
S'NN'
p209
S'B-NP'
p210
g5
tp211
a(S'cholesterol'
p212
S'cholesterol'
p213
S'NN'
p214
S'I-NP'
p215
g5
tp216
a(g78
g78
g78
g5
g5
tp217
a(S'and'
p218
S'and'
p219
S'CC'
p220
g5
g5
tp221
a(S'accelerated'
p222
S'accelerate'
p223
S'VBD'
p224
S'B-VP'
p225
g5
tp226
a(S'development'
p227
S'development'
p228
S'NN'
p229
S'B-NP'
p230
g5
tp231
a(S'of'
p232
S'of'
p233
S'IN'
p234
S'B-PP'
p235
g5
tp236
a(S'cardiovascular'
p237
S'cardiovascular'
p238
S'JJ'
p239
S'B-NP'
p240
g5
tp241
a(S'disease.'
p242
S'disease.'
p243
S'NN'
p244
S'I-NP'
p245
g5
tp246
a(S'Conventional'
p247
S'Conventional'
p248
S'JJ'
p249
S'I-NP'
p250
g5
tp251
a(S'lipid-lowering'
p252
S'lipid-lowering'
p253
S'NN'
p254
S'I-NP'
p255
g5
tp256
a(S'treatments'
p257
S'treatment'
p258
S'NNS'
p259
S'I-NP'
p260
g5
tp261
a(S'are'
p262
S'be'
p263
S'VBP'
p264
S'B-VP'
p265
g5
tp266
a(S'modestly'
p267
S'modestly'
p268
S'RB'
p269
S'B-NP'
p270
g5
tp271
a(S'effective.'
p272
S'effective.'
p273
S'JJ'
p274
S'I-NP'
p275
g5
tp276
a(S'Evolocumab'
p277
S'Evolocumab'
p278
S'NNP'
p279
S'I-NP'
p280
g5
tp281
a(g78
g78
g78
g5
g5
tp282
a(g69
g69
S'DT'
p283
S'B-NP'
p284
g5
tp285
a(S'monoclonal'
p286
S'monoclonal'
p287
S'JJ'
p288
S'I-NP'
p289
S'B-protein'
p290
tp291
a(S'antibody'
p292
S'antibody'
p293
S'NN'
p294
S'I-NP'
p295
S'I-protein'
p296
tp297
a(S'to'
p298
S'to'
p299
S'TO'
p300
S'B-PP'
p301
g5
tp302
a(S'proprotein'
p303
S'proprotein'
p304
S'NN'
p305
S'B-NP'
p306
g5
tp307
a(S'convertase'
p308
S'convertase'
p309
S'NN'
p310
S'I-NP'
p311
g5
tp312
a(S'subtilisin/kexin'
p313
S'subtilisin/kexin'
p314
S'NN'
p315
S'I-NP'
p316
g5
tp317
a(S'type'
p318
S'type'
p319
S'NN'
p320
S'I-NP'
p321
g5
tp322
a(S'9'
p323
g323
S'CD'
p324
S'I-NP'
p325
g5
tp326
a(g49
g49
g49
g5
g5
tp327
a(S'PCSK9'
p328
S'PCSK9'
p329
S'NN'
p330
S'B-NP'
p331
S'B-protein'
p332
tp333
a(g65
g65
g65
g5
g5
tp334
a(g78
g78
g78
g5
g5
tp335
a(S'reduced'
p336
S'reduce'
p337
S'VBD'
p338
S'B-VP'
p339
g5
tp340
a(S'LDL'
p341
S'LDL'
p342
S'NN'
p343
S'B-NP'
p344
S'B-protein'
p345
tp346
a(S'cholesterol'
p347
S'cholesterol'
p348
S'NN'
p349
S'I-NP'
p350
g5
tp351
a(S'by'
p352
S'by'
p353
S'IN'
p354
S'B-PP'
p355
g5
tp356
a(S'16'
p357
S'16'
p358
S'CD'
p359
S'B-NP'
p360
g5
tp361
a(S'%'
p362
g362
S'NN'
p363
S'I-NP'
p364
g5
tp365
a(S'in'
p366
S'in'
p367
S'IN'
p368
S'B-PP'
p369
g5
tp370
a(g69
g69
S'DT'
p371
S'B-NP'
p372
g5
tp373
a(S'pilot'
p374
S'pilot'
p375
S'NN'
p376
S'I-NP'
p377
g5
tp378
a(S'study.'
p379
S'study.'
p380
S'NN'
p381
S'I-NP'
p382
g5
tp383
a(S'We'
p384
S'We'
p385
S'PRP'
p386
S'B-NP'
p387
g5
tp388
a(S'now'
p389
S'now'
p390
S'RB'
p391
S'B-ADVP'
p392
g5
tp393
a(S'report'
p394
S'report'
p395
S'VBP'
p396
S'B-VP'
p397
g5
tp398
a(S'results'
p399
S'result'
p400
S'NNS'
p401
S'B-NP'
p402
g5
tp403
a(S'with'
p404
S'with'
p405
S'IN'
p406
S'B-PP'
p407
g5
tp408
a(S'evolocumab'
p409
S'evolocumab'
p410
S'NN'
p411
S'B-NP'
p412
S'B-protein'
p413
tp414
a(S'in'
p415
S'in'
p416
S'IN'
p417
S'B-PP'
p418
g5
tp419
a(g69
g69
S'DT'
p420
S'B-NP'
p421
g5
tp422
a(S'randomised'
p423
S'randomise'
p424
S'VBN'
p425
S'I-NP'
p426
g5
tp427
a(g78
g78
g78
S'I-NP'
p428
g5
tp429
a(S'double-blind'
p430
S'double-blind'
p431
S'JJ'
p432
S'I-NP'
p433
g5
tp434
a(g78
g78
g78
S'I-NP'
p435
g5
tp436
a(S'placebo-controlled'
p437
S'placebo-controlled'
p438
S'JJ'
p439
S'I-NP'
p440
g5
tp441
a(S'phase'
p442
S'phase'
p443
S'NN'
p444
S'I-NP'
p445
g5
tp446
a(S'3'
p447
g447
S'CD'
p448
S'I-NP'
p449
g5
tp450
a(S'trial'
p451
S'trial'
p452
S'NN'
p453
S'I-NP'
p454
g5
tp455
a(g98
g98
g98
g5
g5
tp456
a(S'METHODS'
p457
S'METHODS'
p458
S'NNS'
p459
S'B-NP'
p460
g5
tp461
a(S'This'
p462
S'This'
p463
S'DT'
p464
S'B-NP'
p465
g5
tp466
a(S'randomised'
p467
S'randomise'
p468
S'VBN'
p469
S'I-NP'
p470
g5
tp471
a(g78
g78
g78
S'I-NP'
p472
g5
tp473
a(S'double-blind'
p474
S'double-blind'
p475
S'JJ'
p476
S'I-NP'
p477
g5
tp478
a(g78
g78
g78
S'I-NP'
p479
g5
tp480
a(S'placebo-controlled'
p481
S'placebo-controlled'
p482
S'JJ'
p483
S'I-NP'
p484
g5
tp485
a(S'phase'
p486
S'phase'
p487
S'NN'
p488
S'I-NP'
p489
g5
tp490
a(g447
g447
S'CD'
p491
S'I-NP'
p492
g5
tp493
a(S'trial'
p494
S'trial'
p495
S'NN'
p496
S'I-NP'
p497
g5
tp498
a(S'was'
p499
S'be'
p500
S'VBD'
p501
S'B-VP'
p502
g5
tp503
a(S'undertaken'
p504
S'undertake'
p505
S'VBN'
p506
S'I-VP'
p507
g5
tp508
a(S'at'
p509
S'at'
p510
S'IN'
p511
S'B-PP'
p512
g5
tp513
a(S'17'
p514
S'17'
p515
S'CD'
p516
S'B-NP'
p517
S'B-DNA'
p518
tp519
a(S'sites'
p520
S'site'
p521
S'NNS'
p522
S'I-NP'
p523
S'I-DNA'
p524
tp525
a(S'in'
p526
S'in'
p527
S'IN'
p528
S'B-PP'
p529
g5
tp530
a(S'ten'
p531
S'ten'
p532
S'CD'
p533
S'B-NP'
p534
g5
tp535
a(S'countries'
p536
S'country'
p537
S'NNS'
p538
S'I-NP'
p539
g5
tp540
a(S'in'
p541
S'in'
p542
S'IN'
p543
S'B-PP'
p544
g5
tp545
a(S'North'
p546
S'North'
p547
S'NNP'
p548
S'B-NP'
p549
g5
tp550
a(S'America'
p551
S'America'
p552
S'NNP'
p553
S'I-NP'
p554
g5
tp555
a(g78
g78
g78
g5
g5
tp556
a(S'Europe'
p557
S'Europe'
p558
S'NNP'
p559
S'B-NP'
p560
g5
tp561
a(g78
g78
g78
g5
g5
tp562
a(S'the'
p563
S'the'
p564
S'DT'
p565
S'B-NP'
p566
g5
tp567
a(S'Middle'
p568
S'Middle'
p569
S'NNP'
p570
S'I-NP'
p571
g5
tp572
a(S'East'
p573
S'East'
p574
S'NNP'
p575
S'I-NP'
p576
g5
tp577
a(g78
g78
g78
g5
g5
tp578
a(S'and'
p579
S'and'
p580
S'CC'
p581
g5
g5
tp582
a(S'South'
p583
S'South'
p584
S'NNP'
p585
S'B-NP'
p586
g5
tp587
a(S'Africa.'
p588
S'Africa.'
p589
S'NNP'
p590
S'I-NP'
p591
g5
tp592
a(S'50'
p593
S'50'
p594
S'CD'
p595
S'I-NP'
p596
g5
tp597
a(S'eligible'
p598
S'eligible'
p599
S'JJ'
p600
S'I-NP'
p601
g5
tp602
a(S'patients'
p603
S'patient'
p604
S'NNS'
p605
S'I-NP'
p606
g5
tp607
a(g49
g49
g49
g5
g5
tp608
a(S'aged'
p609
S'age'
p610
S'VBN'
p611
S'B-VP'
p612
g5
tp613
a(S'\xe2\x89\xa512'
p614
S'\xe2\x89\xa512'
p615
S'CD'
p616
S'B-NP'
p617
g5
tp618
a(S'years'
p619
S'year'
p620
S'NNS'
p621
S'I-NP'
p622
g5
tp623
a(g65
g65
g65
g5
g5
tp624
a(S'with'
p625
S'with'
p626
S'IN'
p627
S'B-PP'
p628
g5
tp629
a(S'homozygous'
p630
S'homozygous'
p631
S'JJ'
p632
S'B-NP'
p633
g5
tp634
a(S'familial'
p635
S'familial'
p636
S'JJ'
p637
S'I-NP'
p638
g5
tp639
a(S'hypercholesterolaemia'
p640
S'hypercholesterolaemia'
p641
S'NN'
p642
S'I-NP'
p643
g5
tp644
a(g78
g78
g78
g5
g5
tp645
a(S'on'
p646
S'on'
p647
S'IN'
p648
S'B-PP'
p649
g5
tp650
a(S'stable'
p651
S'stable'
p652
S'JJ'
p653
S'B-NP'
p654
g5
tp655
a(S'lipid-regulating'
p656
S'lipid-regulating'
p657
S'JJ'
p658
S'I-NP'
p659
g5
tp660
a(S'therapy'
p661
S'therapy'
p662
S'NN'
p663
S'I-NP'
p664
g5
tp665
a(S'for'
p666
S'for'
p667
S'IN'
p668
S'B-PP'
p669
g5
tp670
a(S'at'
p671
S'at'
p672
S'IN'
p673
S'B-NP'
p674
g5
tp675
a(S'least'
p676
S'least'
p677
S'JJS'
p678
S'I-NP'
p679
g5
tp680
a(S'4'
p681
g681
S'CD'
p682
S'I-NP'
p683
g5
tp684
a(S'weeks'
p685
S'week'
p686
S'NNS'
p687
S'I-NP'
p688
g5
tp689
a(g78
g78
g78
g5
g5
tp690
a(S'and'
p691
S'and'
p692
S'CC'
p693
g5
g5
tp694
a(S'not'
p695
S'not'
p696
S'RB'
p697
S'B-VP'
p698
g5
tp699
a(S'receiving'
p700
S'receive'
p701
S'VBG'
p702
S'I-VP'
p703
g5
tp704
a(S'lipoprotein'
p705
S'lipoprotein'
p706
S'NN'
p707
S'B-NP'
p708
g5
tp709
a(S'apheresis'
p710
S'apheresis'
p711
S'NN'
p712
S'I-NP'
p713
g5
tp714
a(g78
g78
g78
g5
g5
tp715
a(S'were'
p716
S'be'
p717
S'VBD'
p718
S'B-VP'
p719
g5
tp720
a(S'randomly'
p721
S'randomly'
p722
S'RB'
p723
S'I-VP'
p724
g5
tp725
a(S'allocated'
p726
S'allocate'
p727
S'VBN'
p728
S'I-VP'
p729
g5
tp730
a(S'by'
p731
S'by'
p732
S'IN'
p733
S'B-PP'
p734
g5
tp735
a(g69
g69
S'DT'
p736
S'B-NP'
p737
g5
tp738
a(S'computer-generated'
p739
S'computer-generated'
p740
S'JJ'
p741
S'I-NP'
p742
S'B-DNA'
p743
tp744
a(S'randomisation'
p745
S'randomisation'
p746
S'NN'
p747
S'I-NP'
p748
S'I-DNA'
p749
tp750
a(S'sequence'
p751
S'sequence'
p752
S'NN'
p753
S'I-NP'
p754
S'I-DNA'
p755
tp756
a(S'in'
p757
S'in'
p758
S'IN'
p759
S'B-PP'
p760
g5
tp761
a(g69
g69
S'DT'
p762
S'B-NP'
p763
g5
tp764
a(S'2'
p765
g765
S'CD'
p766
S'I-NP'
p767
g5
tp768
a(g67
g67
S'SYM'
p769
S'I-NP'
p770
g5
tp771
a(S'1'
p772
g772
S'CD'
p773
S'I-NP'
p774
g5
tp775
a(S'ratio'
p776
S'ratio'
p777
S'NN'
p778
S'I-NP'
p779
g5
tp780
a(S'to'
p781
S'to'
p782
S'TO'
p783
S'B-VP'
p784
g5
tp785
a(S'receive'
p786
S'receive'
p787
S'VB'
p788
S'I-VP'
p789
g5
tp790
a(S'subcutaneous'
p791
S'subcutaneous'
p792
S'JJ'
p793
S'B-NP'
p794
g5
tp795
a(S'evolocumab'
p796
S'evolocumab'
p797
S'NN'
p798
S'I-NP'
p799
g5
tp800
a(S'420'
p801
S'420'
p802
S'CD'
p803
S'I-NP'
p804
g5
tp805
a(S'mg'
p806
S'mg'
p807
S'NN'
p808
S'I-NP'
p809
g5
tp810
a(S'or'
p811
S'or'
p812
S'CC'
p813
S'I-NP'
p814
g5
tp815
a(S'placebo'
p816
S'placebo'
p817
S'NN'
p818
S'I-NP'
p819
S'B-protein'
p820
tp821
a(S'every'
p822
S'every'
p823
S'DT'
p824
S'B-NP'
p825
S'I-protein'
p826
tp827
a(g681
g681
S'CD'
p828
S'I-NP'
p829
S'I-protein'
p830
tp831
a(S'weeks'
p832
S'week'
p833
S'NNS'
p834
S'I-NP'
p835
S'I-protein'
p836
tp837
a(S'for'
p838
S'for'
p839
S'IN'
p840
S'B-PP'
p841
g5
tp842
a(S'12'
p843
S'12'
p844
S'CD'
p845
S'B-NP'
p846
g5
tp847
a(S'weeks.'
p848
S'weeks.'
p849
S'NN'
p850
S'I-NP'
p851
g5
tp852
a(S'Randomisation'
p853
S'Randomisation'
p854
S'NN'
p855
S'I-NP'
p856
g5
tp857
a(S'was'
p858
S'be'
p859
S'VBD'
p860
S'B-VP'
p861
g5
tp862
a(S'stratified'
p863
S'stratify'
p864
S'VBN'
p865
S'I-VP'
p866
g5
tp867
a(S'by'
p868
S'by'
p869
S'IN'
p870
S'B-PP'
p871
g5
tp872
a(S'LDL'
p873
S'LDL'
p874
S'NN'
p875
S'B-NP'
p876
S'B-protein'
p877
tp878
a(S'cholesterol'
p879
S'cholesterol'
p880
S'NN'
p881
S'I-NP'
p882
g5
tp883
a(S'at'
p884
S'at'
p885
S'IN'
p886
S'B-PP'
p887
g5
tp888
a(S'screening'
p889
S'screening'
p890
S'NN'
p891
S'B-NP'
p892
g5
tp893
a(g49
g49
g49
g5
g5
tp894
a(S'<'
p895
g895
S'SYM'
p896
g5
g5
tp897
a(S'11'
p898
S'11'
p899
S'CD'
p900
S'B-NP'
p901
g5
tp902
a(S'mmol/L'
p903
S'mmol/L'
p904
S'NN'
p905
S'I-NP'
p906
g5
tp907
a(S'or'
p908
S'or'
p909
S'CC'
p910
S'I-NP'
p911
g5
tp912
a(S'\xe2\x89\xa511'
p913
S'\xe2\x89\xa511'
p914
S'NN'
p915
S'I-NP'
p916
g5
tp917
a(S'mmol/L'
p918
S'mmol/L'
p919
S'NN'
p920
S'I-NP'
p921
g5
tp922
a(g65
g65
g65
g5
g5
tp923
a(S'and'
p924
S'and'
p925
S'CC'
p926
g5
g5
tp927
a(S'implemented'
p928
S'implement'
p929
S'VBN'
p930
S'B-VP'
p931
g5
tp932
a(S'by'
p933
S'by'
p934
S'IN'
p935
S'B-PP'
p936
g5
tp937
a(g69
g69
S'DT'
p938
S'B-NP'
p939
g5
tp940
a(S'computerised'
p941
S'computerised'
p942
S'JJ'
p943
S'I-NP'
p944
g5
tp945
a(S'interactive'
p946
S'interactive'
p947
S'JJ'
p948
S'I-NP'
p949
g5
tp950
a(S'voice-response'
p951
S'voice-response'
p952
S'JJ'
p953
S'I-NP'
p954
g5
tp955
a(S'system.'
p956
S'system.'
p957
S'NN'
p958
S'I-NP'
p959
g5
tp960
a(S'Patients'
p961
S'Patient'
p962
S'NNS'
p963
S'I-NP'
p964
g5
tp965
a(g78
g78
g78
g5
g5
tp966
a(S'study'
p967
S'study'
p968
S'NN'
p969
S'B-NP'
p970
g5
tp971
a(S'personnel'
p972
S'personnel'
p973
S'NNS'
p974
S'I-NP'
p975
g5
tp976
a(g78
g78
g78
g5
g5
tp977
a(S'and'
p978
S'and'
p979
S'CC'
p980
g5
g5
tp981
a(S'the'
p982
S'the'
p983
S'DT'
p984
S'B-NP'
p985
g5
tp986
a(S'funder'
p987
S'funder'
p988
S'NN'
p989
S'I-NP'
p990
g5
tp991
a(S'were'
p992
S'be'
p993
S'VBD'
p994
S'B-VP'
p995
g5
tp996
a(S'masked'
p997
S'mask'
p998
S'VBN'
p999
S'I-VP'
p1000
g5
tp1001
a(S'to'
p1002
S'to'
p1003
S'TO'
p1004
S'B-PP'
p1005
g5
tp1006
a(S'treatment'
p1007
S'treatment'
p1008
S'NN'
p1009
S'B-NP'
p1010
g5
tp1011
a(S'and'
p1012
S'and'
p1013
S'CC'
p1014
S'B-PP'
p1015
g5
tp1016
a(S'to'
p1017
S'to'
p1018
S'TO'
p1019
S'B-PP'
p1020
g5
tp1021
a(S'the'
p1022
S'the'
p1023
S'DT'
p1024
S'B-NP'
p1025
g5
tp1026
a(S'efficacy'
p1027
S'efficacy'
p1028
S'NN'
p1029
S'I-NP'
p1030
g5
tp1031
a(S'results'
p1032
S'result'
p1033
S'VBZ'
p1034
S'B-VP'
p1035
g5
tp1036
a(S'by'
p1037
S'by'
p1038
S'IN'
p1039
S'B-PP'
p1040
g5
tp1041
a(S'the'
p1042
S'the'
p1043
S'DT'
p1044
S'B-NP'
p1045
g5
tp1046
a(S'central'
p1047
S'central'
p1048
S'JJ'
p1049
S'I-NP'
p1050
g5
tp1051
a(S'laboratory'
p1052
S'laboratory'
p1053
S'NN'
p1054
S'I-NP'
p1055
g5
tp1056
a(S'not'
p1057
S'not'
p1058
S'RB'
p1059
S'B-VP'
p1060
g5
tp1061
a(S'returning'
p1062
S'return'
p1063
S'VBG'
p1064
S'I-VP'
p1065
g5
tp1066
a(S'LDL'
p1067
S'LDL'
p1068
S'NN'
p1069
S'B-NP'
p1070
g5
tp1071
a(S'cholesterol'
p1072
S'cholesterol'
p1073
S'NN'
p1074
S'I-NP'
p1075
g5
tp1076
a(S'or'
p1077
S'or'
p1078
S'CC'
p1079
g5
g5
tp1080
a(S'any'
p1081
S'any'
p1082
S'DT'
p1083
S'B-NP'
p1084
g5
tp1085
a(S'lipid'
p1086
S'lipid'
p1087
S'NN'
p1088
S'I-NP'
p1089
g5
tp1090
a(S'results'
p1091
S'result'
p1092
S'VBZ'
p1093
S'B-VP'
p1094
g5
tp1095
a(S'to'
p1096
S'to'
p1097
S'TO'
p1098
S'B-PP'
p1099
g5
tp1100
a(S'the'
p1101
S'the'
p1102
S'DT'
p1103
S'B-NP'
p1104
g5
tp1105
a(S'clinical'
p1106
S'clinical'
p1107
S'JJ'
p1108
S'I-NP'
p1109
g5
tp1110
a(S'sites'
p1111
S'site'
p1112
S'NNS'
p1113
S'I-NP'
p1114
g5
tp1115
a(S'after'
p1116
S'after'
p1117
S'IN'
p1118
S'B-PP'
p1119
g5
tp1120
a(S'the'
p1121
S'the'
p1122
S'DT'
p1123
S'B-NP'
p1124
g5
tp1125
a(S'baseline'
p1126
S'baseline'
p1127
S'NN'
p1128
S'I-NP'
p1129
g5
tp1130
a(S'visit.'
p1131
S'visit.'
p1132
S'NN'
p1133
S'I-NP'
p1134
g5
tp1135
a(S'The'
p1136
S'The'
p1137
S'DT'
p1138
S'B-NP'
p1139
g5
tp1140
a(S'primary'
p1141
S'primary'
p1142
S'JJ'
p1143
S'I-NP'
p1144
g5
tp1145
a(S'endpoint'
p1146
S'endpoint'
p1147
S'NN'
p1148
S'I-NP'
p1149
g5
tp1150
a(S'was'
p1151
S'be'
p1152
S'VBD'
p1153
S'B-VP'
p1154
g5
tp1155
a(S'percentage'
p1156
S'percentage'
p1157
S'NN'
p1158
S'B-NP'
p1159
g5
tp1160
a(S'change'
p1161
S'change'
p1162
S'NN'
p1163
S'I-NP'
p1164
g5
tp1165
a(S'in'
p1166
S'in'
p1167
S'IN'
p1168
S'B-PP'
p1169
g5
tp1170
a(S'ultracentrifugation'
p1171
S'ultracentrifugation'
p1172
S'NN'
p1173
S'B-NP'
p1174
g5
tp1175
a(S'LDL'
p1176
S'LDL'
p1177
S'NN'
p1178
S'I-NP'
p1179
g5
tp1180
a(S'cholesterol'
p1181
S'cholesterol'
p1182
S'NN'
p1183
S'I-NP'
p1184
g5
tp1185
a(S'from'
p1186
S'from'
p1187
S'IN'
p1188
S'B-PP'
p1189
g5
tp1190
a(S'baseline'
p1191
S'baseline'
p1192
S'NN'
p1193
S'B-NP'
p1194
g5
tp1195
a(S'at'
p1196
S'at'
p1197
S'IN'
p1198
S'B-PP'
p1199
g5
tp1200
a(S'week'
p1201
S'week'
p1202
S'NN'
p1203
S'B-NP'
p1204
g5
tp1205
a(S'12'
p1206
S'12'
p1207
S'CD'
p1208
S'I-NP'
p1209
g5
tp1210
a(S'compared'
p1211
S'compare'
p1212
S'VBN'
p1213
S'B-PP'
p1214
g5
tp1215
a(S'with'
p1216
S'with'
p1217
S'IN'
p1218
S'B-PP'
p1219
g5
tp1220
a(S'placebo'
p1221
S'placebo'
p1222
S'NN'
p1223
S'B-NP'
p1224
g5
tp1225
a(g78
g78
g78
g5
g5
tp1226
a(S'analysed'
p1227
S'analyse'
p1228
S'VBN'
p1229
S'B-VP'
p1230
g5
tp1231
a(S'by'
p1232
S'by'
p1233
S'IN'
p1234
S'B-PP'
p1235
g5
tp1236
a(S'intention-to-treat.'
p1237
S'intention-to-treat.'
p1238
S'JJ'
p1239
S'B-NP'
p1240
g5
tp1241
a(S'This'
p1242
S'This'
p1243
S'DT'
p1244
S'I-NP'
p1245
g5
tp1246
a(S'trial'
p1247
S'trial'
p1248
S'NN'
p1249
S'I-NP'
p1250
g5
tp1251
a(S'is'
p1252
S'be'
p1253
S'VBZ'
p1254
S'B-VP'
p1255
g5
tp1256
a(S'registered'
p1257
S'register'
p1258
S'VBN'
p1259
S'I-VP'
p1260
g5
tp1261
a(S'with'
p1262
S'with'
p1263
S'IN'
p1264
S'B-PP'
p1265
g5
tp1266
a(S'ClinicalTrials.gov'
p1267
S'ClinicalTrials.gov'
p1268
S'NN'
p1269
S'B-NP'
p1270
g5
tp1271
a(g78
g78
g78
g5
g5
tp1272
a(S'number'
p1273
S'number'
p1274
S'NN'
p1275
S'B-NP'
p1276
g5
tp1277
a(S'NCT01588496'
p1278
S'NCT01588496'
p1279
S'NN'
p1280
S'I-NP'
p1281
g5
tp1282
a(g98
g98
g98
g5
g5
tp1283
a(S'FINDINGS'
p1284
S'FINDINGS'
p1285
S'NNS'
p1286
S'B-NP'
p1287
g5
tp1288
a(S'Of'
p1289
S'Of'
p1290
S'IN'
p1291
S'B-PP'
p1292
g5
tp1293
a(S'the'
p1294
S'the'
p1295
S'DT'
p1296
S'B-NP'
p1297
g5
tp1298
a(S'50'
p1299
S'50'
p1300
S'CD'
p1301
S'I-NP'
p1302
g5
tp1303
a(S'eligible'
p1304
S'eligible'
p1305
S'JJ'
p1306
S'I-NP'
p1307
g5
tp1308
a(S'patients'
p1309
S'patient'
p1310
S'NNS'
p1311
S'I-NP'
p1312
g5
tp1313
a(S'randomly'
p1314
S'randomly'
p1315
S'RB'
p1316
S'B-VP'
p1317
g5
tp1318
a(S'assigned'
p1319
S'assign'
p1320
S'VBN'
p1321
S'I-VP'
p1322
g5
tp1323
a(S'to'
p1324
S'to'
p1325
S'TO'
p1326
S'B-PP'
p1327
g5
tp1328
a(S'the'
p1329
S'the'
p1330
S'DT'
p1331
S'B-NP'
p1332
g5
tp1333
a(S'two'
p1334
S'two'
p1335
S'CD'
p1336
S'I-NP'
p1337
g5
tp1338
a(S'treatment'
p1339
S'treatment'
p1340
S'NN'
p1341
S'I-NP'
p1342
g5
tp1343
a(S'groups'
p1344
S'group'
p1345
S'NNS'
p1346
S'I-NP'
p1347
g5
tp1348
a(g78
g78
g78
g5
g5
tp1349
a(S'49'
p1350
S'49'
p1351
S'CD'
p1352
S'B-NP'
p1353
g5
tp1354
a(S'actually'
p1355
S'actually'
p1356
S'RB'
p1357
S'B-ADVP'
p1358
g5
tp1359
a(S'received'
p1360
S'receive'
p1361
S'VBD'
p1362
S'B-VP'
p1363
g5
tp1364
a(S'the'
p1365
S'the'
p1366
S'DT'
p1367
S'B-NP'
p1368
g5
tp1369
a(S'study'
p1370
S'study'
p1371
S'NN'
p1372
S'I-NP'
p1373
g5
tp1374
a(S'drug'
p1375
S'drug'
p1376
S'NN'
p1377
S'I-NP'
p1378
g5
tp1379
a(S'and'
p1380
S'and'
p1381
S'CC'
p1382
g5
g5
tp1383
a(S'completed'
p1384
S'complete'
p1385
S'VBD'
p1386
S'B-VP'
p1387
g5
tp1388
a(S'the'
p1389
S'the'
p1390
S'DT'
p1391
S'B-NP'
p1392
g5
tp1393
a(S'study'
p1394
S'study'
p1395
S'NN'
p1396
S'I-NP'
p1397
g5
tp1398
a(g49
g49
g49
g5
g5
tp1399
a(S'16'
p1400
S'16'
p1401
S'CD'
p1402
S'B-NP'
p1403
g5
tp1404
a(S'in'
p1405
S'in'
p1406
S'IN'
p1407
S'B-PP'
p1408
g5
tp1409
a(S'the'
p1410
S'the'
p1411
S'DT'
p1412
S'B-NP'
p1413
g5
tp1414
a(S'placebo'
p1415
S'placebo'
p1416
S'NN'
p1417
S'I-NP'
p1418
g5
tp1419
a(S'group'
p1420
S'group'
p1421
S'NN'
p1422
S'I-NP'
p1423
g5
tp1424
a(S'and'
p1425
S'and'
p1426
S'CC'
p1427
g5
g5
tp1428
a(S'33'
p1429
S'33'
p1430
S'CD'
p1431
S'B-NP'
p1432
g5
tp1433
a(S'in'
p1434
S'in'
p1435
S'IN'
p1436
S'B-PP'
p1437
g5
tp1438
a(S'the'
p1439
S'the'
p1440
S'DT'
p1441
S'B-NP'
p1442
g5
tp1443
a(S'evolocumab'
p1444
S'evolocumab'
p1445
S'NN'
p1446
S'I-NP'
p1447
g5
tp1448
a(S'group'
p1449
S'group'
p1450
S'NN'
p1451
S'I-NP'
p1452
g5
tp1453
a(g65
g65
g65
g5
g5
tp1454
a(g98
g98
g98
g5
g5
tp1455
a(S'Compared'
p1456
S'Compare'
p1457
S'VBN'
p1458
S'B-VP'
p1459
g5
tp1460
a(S'with'
p1461
S'with'
p1462
S'IN'
p1463
S'B-PP'
p1464
g5
tp1465
a(S'placebo'
p1466
S'placebo'
p1467
S'NN'
p1468
S'B-NP'
p1469
g5
tp1470
a(g78
g78
g78
g5
g5
tp1471
a(S'evolocumab'
p1472
S'evolocumab'
p1473
S'NN'
p1474
S'B-NP'
p1475
g5
tp1476
a(S'significantly'
p1477
S'significantly'
p1478
S'RB'
p1479
S'B-ADVP'
p1480
g5
tp1481
a(S'reduced'
p1482
S'reduce'
p1483
S'VBD'
p1484
S'B-VP'
p1485
g5
tp1486
a(S'ultracentrifugation'
p1487
S'ultracentrifugation'
p1488
S'NN'
p1489
S'B-NP'
p1490
g5
tp1491
a(S'LDL'
p1492
S'LDL'
p1493
S'NN'
p1494
S'I-NP'
p1495
g5
tp1496
a(S'cholesterol'
p1497
S'cholesterol'
p1498
S'NN'
p1499
S'I-NP'
p1500
g5
tp1501
a(S'at'
p1502
S'at'
p1503
S'IN'
p1504
S'B-PP'
p1505
g5
tp1506
a(S'12'
p1507
S'12'
p1508
S'CD'
p1509
S'B-NP'
p1510
g5
tp1511
a(S'weeks'
p1512
S'week'
p1513
S'NNS'
p1514
S'I-NP'
p1515
g5
tp1516
a(S'by'
p1517
S'by'
p1518
S'IN'
p1519
S'B-PP'
p1520
g5
tp1521
a(S'30\xc2\xb79'
p1522
S'30\xc2\xb79'
p1523
S'CD'
p1524
S'B-NP'
p1525
g5
tp1526
a(g362
g362
S'NN'
p1527
S'I-NP'
p1528
g5
tp1529
a(g49
g49
g49
g5
g5
tp1530
a(S'95'
p1531
S'95'
p1532
S'CD'
p1533
S'B-NP'
p1534
g5
tp1535
a(g362
g362
S'NN'
p1536
S'I-NP'
p1537
g5
tp1538
a(S'CI'
p1539
S'CI'
p1540
S'NN'
p1541
S'I-NP'
p1542
g5
tp1543
a(S'-43\xc2\xb79'
p1544
S'-43\xc2\xb79'
p1545
S'CD'
p1546
S'B-NP'
p1547
g5
tp1548
a(g362
g362
S'NN'
p1549
S'I-NP'
p1550
g5
tp1551
a(S'to'
p1552
S'to'
p1553
S'TO'
p1554
S'B-PP'
p1555
g5
tp1556
a(S'-18\xc2\xb70'
p1557
S'-18\xc2\xb70'
p1558
S'CD'
p1559
S'B-NP'
p1560
g5
tp1561
a(g362
g362
S'NN'
p1562
S'I-NP'
p1563
g5
tp1564
a(S';'
p1565
g1565
g67
g5
g5
tp1566
a(S'p'
p1567
g1567
S'NN'
p1568
S'B-NP'
p1569
g5
tp1570
a(g895
g895
S'JJR'
p1571
S'B-NP'
p1572
g5
tp1573
a(S'0\xc2\xb70001'
p1574
S'0\xc2\xb70001'
p1575
S'CD'
p1576
S'I-NP'
p1577
g5
tp1578
a(g65
g65
g65
g5
g5
tp1579
a(g98
g98
g98
g5
g5
tp1580
a(S'Treatment-emergent'
p1581
S'Treatment-emergent'
p1582
S'JJ'
p1583
S'B-NP'
p1584
g5
tp1585
a(S'adverse'
p1586
S'adverse'
p1587
S'JJ'
p1588
S'I-NP'
p1589
g5
tp1590
a(S'events'
p1591
S'event'
p1592
S'NNS'
p1593
S'I-NP'
p1594
g5
tp1595
a(S'occurred'
p1596
S'occur'
p1597
S'VBD'
p1598
S'B-VP'
p1599
g5
tp1600
a(S'in'
p1601
S'in'
p1602
S'IN'
p1603
S'B-PP'
p1604
g5
tp1605
a(S'ten'
p1606
S'ten'
p1607
S'CD'
p1608
S'B-NP'
p1609
g5
tp1610
a(g49
g49
g49
g5
g5
tp1611
a(S'63'
p1612
S'63'
p1613
S'CD'
p1614
S'B-NP'
p1615
g5
tp1616
a(g362
g362
S'NN'
p1617
S'I-NP'
p1618
g5
tp1619
a(g65
g65
g65
g5
g5
tp1620
a(S'of'
p1621
S'of'
p1622
S'IN'
p1623
S'B-PP'
p1624
g5
tp1625
a(S'16'
p1626
S'16'
p1627
S'CD'
p1628
S'B-NP'
p1629
g5
tp1630
a(S'patients'
p1631
S'patient'
p1632
S'NNS'
p1633
S'I-NP'
p1634
g5
tp1635
a(S'in'
p1636
S'in'
p1637
S'IN'
p1638
S'B-PP'
p1639
g5
tp1640
a(S'the'
p1641
S'the'
p1642
S'DT'
p1643
S'B-NP'
p1644
g5
tp1645
a(S'placebo'
p1646
S'placebo'
p1647
S'NN'
p1648
S'I-NP'
p1649
g5
tp1650
a(S'group'
p1651
S'group'
p1652
S'NN'
p1653
S'I-NP'
p1654
g5
tp1655
a(S'and'
p1656
S'and'
p1657
S'CC'
p1658
g5
g5
tp1659
a(S'12'
p1660
S'12'
p1661
S'CD'
p1662
S'B-NP'
p1663
g5
tp1664
a(g49
g49
g49
g5
g5
tp1665
a(S'36'
p1666
S'36'
p1667
S'CD'
p1668
S'B-NP'
p1669
g5
tp1670
a(g362
g362
S'NN'
p1671
S'I-NP'
p1672
g5
tp1673
a(g65
g65
g65
g5
g5
tp1674
a(S'of'
p1675
S'of'
p1676
S'IN'
p1677
S'B-PP'
p1678
g5
tp1679
a(S'33'
p1680
S'33'
p1681
S'CD'
p1682
S'B-NP'
p1683
g5
tp1684
a(S'in'
p1685
S'in'
p1686
S'IN'
p1687
S'B-PP'
p1688
g5
tp1689
a(S'the'
p1690
S'the'
p1691
S'DT'
p1692
S'B-NP'
p1693
g5
tp1694
a(S'evolocumab'
p1695
S'evolocumab'
p1696
S'NN'
p1697
S'I-NP'
p1698
g5
tp1699
a(S'group.'
p1700
S'group.'
p1701
S'NN'
p1702
S'I-NP'
p1703
g5
tp1704
a(S'No'
p1705
S'No'
p1706
S'DT'
p1707
S'B-NP'
p1708
g5
tp1709
a(S'serious'
p1710
S'serious'
p1711
S'JJ'
p1712
S'I-NP'
p1713
g5
tp1714
a(S'clinical'
p1715
S'clinical'
p1716
S'JJ'
p1717
S'I-NP'
p1718
g5
tp1719
a(S'or'
p1720
S'or'
p1721
S'CC'
p1722
S'I-NP'
p1723
g5
tp1724
a(S'laboratory'
p1725
S'laboratory'
p1726
S'JJ'
p1727
S'I-NP'
p1728
g5
tp1729
a(S'adverse'
p1730
S'adverse'
p1731
S'JJ'
p1732
S'I-NP'
p1733
g5
tp1734
a(S'events'
p1735
S'event'
p1736
S'NNS'
p1737
S'I-NP'
p1738
g5
tp1739
a(S'occurred'
p1740
S'occur'
p1741
S'VBD'
p1742
S'B-VP'
p1743
g5
tp1744
a(g78
g78
g78
g5
g5
tp1745
a(S'and'
p1746
S'and'
p1747
S'CC'
p1748
g5
g5
tp1749
a(S'no'
p1750
S'no'
p1751
S'DT'
p1752
S'B-NP'
p1753
g5
tp1754
a(S'anti-evolocumab'
p1755
S'anti-evolocumab'
p1756
S'JJ'
p1757
S'I-NP'
p1758
S'B-protein'
p1759
tp1760
a(S'antibody'
p1761
S'antibody'
p1762
S'NN'
p1763
S'I-NP'
p1764
S'I-protein'
p1765
tp1766
a(S'development'
p1767
S'development'
p1768
S'NN'
p1769
S'I-NP'
p1770
g5
tp1771
a(S'was'
p1772
S'be'
p1773
S'VBD'
p1774
S'B-VP'
p1775
g5
tp1776
a(S'detected'
p1777
S'detect'
p1778
S'VBN'
p1779
S'I-VP'
p1780
g5
tp1781
a(S'during'
p1782
S'during'
p1783
S'IN'
p1784
S'B-PP'
p1785
g5
tp1786
a(S'the'
p1787
S'the'
p1788
S'DT'
p1789
S'B-NP'
p1790
g5
tp1791
a(S'study'
p1792
S'study'
p1793
S'NN'
p1794
S'I-NP'
p1795
g5
tp1796
a(g98
g98
g98
g5
g5
tp1797
a(S'INTERPRETATION'
p1798
S'INTERPRETATION'
p1799
S'NN'
p1800
S'B-NP'
p1801
g5
tp1802
a(S'In'
p1803
S'In'
p1804
S'IN'
p1805
S'B-PP'
p1806
g5
tp1807
a(S'patients'
p1808
S'patient'
p1809
S'NNS'
p1810
S'B-NP'
p1811
g5
tp1812
a(S'with'
p1813
S'with'
p1814
S'IN'
p1815
S'B-PP'
p1816
g5
tp1817
a(S'homozygous'
p1818
S'homozygous'
p1819
S'JJ'
p1820
S'B-NP'
p1821
g5
tp1822
a(S'familial'
p1823
S'familial'
p1824
S'JJ'
p1825
S'I-NP'
p1826
g5
tp1827
a(S'hypercholesterolaemia'
p1828
S'hypercholesterolaemia'
p1829
S'NN'
p1830
S'I-NP'
p1831
g5
tp1832
a(S'receiving'
p1833
S'receive'
p1834
S'VBG'
p1835
S'B-VP'
p1836
g5
tp1837
a(S'stable'
p1838
S'stable'
p1839
S'JJ'
p1840
S'B-NP'
p1841
g5
tp1842
a(S'background'
p1843
S'background'
p1844
S'NN'
p1845
S'I-NP'
p1846
g5
tp1847
a(S'lipid-lowering'
p1848
S'lipid-lowering'
p1849
S'NN'
p1850
S'I-NP'
p1851
g5
tp1852
a(S'treatment'
p1853
S'treatment'
p1854
S'NN'
p1855
S'I-NP'
p1856
g5
tp1857
a(S'and'
p1858
S'and'
p1859
S'CC'
p1860
S'B-PP'
p1861
g5
tp1862
a(S'not'
p1863
S'not'
p1864
S'RB'
p1865
S'B-PP'
p1866
g5
tp1867
a(S'on'
p1868
S'on'
p1869
S'IN'
p1870
S'I-PP'
p1871
g5
tp1872
a(S'apheresis'
p1873
S'apheresis'
p1874
S'NN'
p1875
S'B-NP'
p1876
g5
tp1877
a(g78
g78
g78
g5
g5
tp1878
a(S'evolocumab'
p1879
S'evolocumab'
p1880
S'NN'
p1881
S'B-NP'
p1882
S'B-protein'
p1883
tp1884
a(S'420'
p1885
S'420'
p1886
S'CD'
p1887
S'I-NP'
p1888
S'I-protein'
p1889
tp1890
a(S'mg'
p1891
S'mg'
p1892
S'NN'
p1893
S'I-NP'
p1894
S'I-protein'
p1895
tp1896
a(S'administered'
p1897
S'administer'
p1898
S'VBN'
p1899
S'B-VP'
p1900
S'I-protein'
p1901
tp1902
a(S'every'
p1903
S'every'
p1904
S'DT'
p1905
S'B-NP'
p1906
S'I-protein'
p1907
tp1908
a(g681
g681
S'CD'
p1909
S'I-NP'
p1910
S'I-protein'
p1911
tp1912
a(S'weeks'
p1913
S'week'
p1914
S'NNS'
p1915
S'I-NP'
p1916
S'I-protein'
p1917
tp1918
a(S'was'
p1919
S'be'
p1920
S'VBD'
p1921
S'B-VP'
p1922
g5
tp1923
a(S'well'
p1924
S'well'
p1925
S'RB'
p1926
S'I-VP'
p1927
g5
tp1928
a(S'tolerated'
p1929
S'tolerate'
p1930
S'VBN'
p1931
S'I-VP'
p1932
g5
tp1933
a(S'and'
p1934
S'and'
p1935
S'CC'
p1936
g5
g5
tp1937
a(S'significantly'
p1938
S'significantly'
p1939
S'RB'
p1940
S'B-VP'
p1941
g5
tp1942
a(S'reduced'
p1943
S'reduce'
p1944
S'VBD'
p1945
S'I-VP'
p1946
g5
tp1947
a(S'LDL'
p1948
S'LDL'
p1949
S'NN'
p1950
S'B-NP'
p1951
S'B-protein'
p1952
tp1953
a(S'cholesterol'
p1954
S'cholesterol'
p1955
S'NN'
p1956
S'I-NP'
p1957
g5
tp1958
a(S'compared'
p1959
S'compare'
p1960
S'VBN'
p1961
S'B-PP'
p1962
g5
tp1963
a(S'with'
p1964
S'with'
p1965
S'IN'
p1966
S'B-PP'
p1967
g5
tp1968
a(S'placebo'
p1969
S'placebo'
p1970
S'NN'
p1971
S'B-NP'
p1972
g5
tp1973
a(g98
g98
g98
g5
g5
tp1974
a(S'FUNDING'
p1975
S'FUNDING'
p1976
S'VBG'
p1977
S'B-VP'
p1978
g5
tp1979
a(S'Amgen'
p1980
S'Amgen'
p1981
S'NNP'
p1982
S'B-NP'
p1983
g5
tp1984
a(S'Inc'
p1985
S'Inc'
p1986
S'NNP'
p1987
S'I-NP'
p1988
g5
tp1989
a(g98
g98
g98
g5
g5
tp1990
a.