(lp0
(S'Parenteral'
p1
S'Parenteral'
p2
S'JJ'
p3
S'B-NP'
p4
S'B-protein'
p5
tp6
a(S'troxerutin'
p7
S'troxerutin'
p8
S'NN'
p9
S'I-NP'
p10
S'I-protein'
p11
tp12
a(S'and'
p13
S'and'
p14
S'CC'
p15
S'I-NP'
p16
S'O'
p17
tp18
a(S'carbazochrome'
p19
S'carbazochrome'
p20
S'NN'
p21
S'I-NP'
p22
g17
tp23
a(S'combination'
p24
S'combination'
p25
S'NN'
p26
S'I-NP'
p27
g17
tp28
a(S'in'
p29
S'in'
p30
S'IN'
p31
S'B-PP'
p32
g17
tp33
a(S'the'
p34
S'the'
p35
S'DT'
p36
S'B-NP'
p37
g17
tp38
a(S'treatment'
p39
S'treatment'
p40
S'NN'
p41
S'I-NP'
p42
g17
tp43
a(S'of'
p44
S'of'
p45
S'IN'
p46
S'B-PP'
p47
g17
tp48
a(S'post-hemorrhoidectomy'
p49
S'post-hemorrhoidectomy'
p50
S'JJ'
p51
S'B-NP'
p52
g17
tp53
a(S'status'
p54
S'status'
p55
S'NN'
p56
S'I-NP'
p57
g17
tp58
a(S':'
p59
g59
g59
g17
g17
tp60
a(S'a'
p61
g61
S'DT'
p62
S'B-NP'
p63
g17
tp64
a(S'randomized'
p65
S'randomize'
p66
S'VBN'
p67
S'I-NP'
p68
g17
tp69
a(S','
p70
g70
g70
S'I-NP'
p71
g17
tp72
a(S'double-blind'
p73
S'double-blind'
p74
S'JJ'
p75
S'I-NP'
p76
g17
tp77
a(g70
g70
g70
S'I-NP'
p78
g17
tp79
a(S'placebo-controlled'
p80
S'placebo-controlled'
p81
S'JJ'
p82
S'I-NP'
p83
g17
tp84
a(g70
g70
g70
S'I-NP'
p85
g17
tp86
a(S'phase'
p87
S'phase'
p88
S'NN'
p89
S'I-NP'
p90
g17
tp91
a(S'IV'
p92
S'IV'
p93
S'CD'
p94
S'I-NP'
p95
g17
tp96
a(S'study'
p97
S'study'
p98
S'NN'
p99
S'I-NP'
p100
g17
tp101
a(S'.'
p102
g102
g102
g17
g17
tp103
a(S'Flavonoids'
p104
S'Flavonoid'
p105
S'NNS'
p106
S'B-NP'
p107
g17
tp108
a(g70
g70
g70
g17
g17
tp109
a(S'such'
p110
S'such'
p111
S'JJ'
p112
S'B-PP'
p113
g17
tp114
a(S'as'
p115
S'as'
p116
S'IN'
p117
S'I-PP'
p118
g17
tp119
a(S'troxerutin'
p120
S'troxerutin'
p121
S'NN'
p122
S'B-NP'
p123
S'B-protein'
p124
tp125
a(g70
g70
g70
g17
g17
tp126
a(S'have'
p127
S'have'
p128
S'VBP'
p129
S'B-VP'
p130
g17
tp131
a(S'been'
p132
S'be'
p133
S'VBN'
p134
S'I-VP'
p135
g17
tp136
a(S'shown'
p137
S'show'
p138
S'VBN'
p139
S'I-VP'
p140
g17
tp141
a(S'to'
p142
S'to'
p143
S'TO'
p144
S'I-VP'
p145
g17
tp146
a(S'be'
p147
S'be'
p148
S'VB'
p149
S'I-VP'
p150
g17
tp151
a(S'safe'
p152
S'safe'
p153
S'JJ'
p154
S'B-NP'
p155
g17
tp156
a(S'and'
p157
S'and'
p158
S'CC'
p159
S'I-NP'
p160
g17
tp161
a(S'effective'
p162
S'effective'
p163
S'JJ'
p164
S'I-NP'
p165
g17
tp166
a(S'agents'
p167
S'agent'
p168
S'NNS'
p169
S'I-NP'
p170
g17
tp171
a(S'for'
p172
S'for'
p173
S'IN'
p174
S'B-PP'
p175
g17
tp176
a(S'the'
p177
S'the'
p178
S'DT'
p179
S'B-NP'
p180
g17
tp181
a(S'treatment'
p182
S'treatment'
p183
S'NN'
p184
S'I-NP'
p185
g17
tp186
a(S'of'
p187
S'of'
p188
S'IN'
p189
S'B-PP'
p190
g17
tp191
a(S'chronic'
p192
S'chronic'
p193
S'JJ'
p194
S'B-NP'
p195
g17
tp196
a(S'venous'
p197
S'venous'
p198
S'JJ'
p199
S'I-NP'
p200
g17
tp201
a(S'insufficiency.'
p202
S'insufficiency.'
p203
S'NN'
p204
S'I-NP'
p205
g17
tp206
a(S'The'
p207
S'The'
p208
S'DT'
p209
S'B-NP'
p210
g17
tp211
a(S'fixed'
p212
S'fix'
p213
S'VBN'
p214
S'I-NP'
p215
g17
tp216
a(S'combination'
p217
S'combination'
p218
S'NN'
p219
S'I-NP'
p220
g17
tp221
a(S'between'
p222
S'between'
p223
S'IN'
p224
S'B-PP'
p225
g17
tp226
a(S'troxerutin'
p227
S'troxerutin'
p228
S'NN'
p229
S'B-NP'
p230
g17
tp231
a(S'150'
p232
S'150'
p233
S'CD'
p234
S'I-NP'
p235
g17
tp236
a(S'mg'
p237
S'mg'
p238
S'NN'
p239
S'I-NP'
p240
g17
tp241
a(S'and'
p242
S'and'
p243
S'CC'
p244
S'I-NP'
p245
g17
tp246
a(S'carbazochrome'
p247
S'carbazochrome'
p248
S'NN'
p249
S'I-NP'
p250
g17
tp251
a(S'1.5'
p252
S'1.5'
p253
S'CD'
p254
S'I-NP'
p255
g17
tp256
a(S'mg'
p257
S'mg'
p258
S'NN'
p259
S'I-NP'
p260
g17
tp261
a(S'('
p262
g262
g262
g17
g17
tp263
a(S'Fleboside'
p264
S'Fleboside'
p265
S'NN'
p266
S'B-NP'
p267
g17
tp268
a(S'ampoules'
p269
S'ampoule'
p270
S'NNS'
p271
S'I-NP'
p272
g17
tp273
a(S')'
p274
g274
g274
g17
g17
tp275
a(S'was'
p276
S'be'
p277
S'VBD'
p278
S'B-VP'
p279
g17
tp280
a(S'previously'
p281
S'previously'
p282
S'RB'
p283
S'I-VP'
p284
g17
tp285
a(S'shown'
p286
S'show'
p287
S'VBN'
p288
S'I-VP'
p289
g17
tp290
a(S'to'
p291
S'to'
p292
S'TO'
p293
S'I-VP'
p294
g17
tp295
a(S'have'
p296
S'have'
p297
S'VB'
p298
S'I-VP'
p299
g17
tp300
a(g61
g61
S'DT'
p301
S'B-NP'
p302
g17
tp303
a(S'good'
p304
S'good'
p305
S'JJ'
p306
S'I-NP'
p307
g17
tp308
a(S'efficacy'
p309
S'efficacy'
p310
S'NN'
p311
S'I-NP'
p312
g17
tp313
a(S'and'
p314
S'and'
p315
S'CC'
p316
S'I-NP'
p317
g17
tp318
a(S'safety'
p319
S'safety'
p320
S'NN'
p321
S'I-NP'
p322
g17
tp323
a(S'profile'
p324
S'profile'
p325
S'NN'
p326
S'I-NP'
p327
g17
tp328
a(S'in'
p329
S'in'
p330
S'IN'
p331
S'B-PP'
p332
g17
tp333
a(S'non-surgical'
p334
S'non-surgical'
p335
S'JJ'
p336
S'B-NP'
p337
g17
tp338
a(S'patients'
p339
S'patient'
p340
S'NNS'
p341
S'I-NP'
p342
g17
tp343
a(S'with'
p344
S'with'
p345
S'IN'
p346
S'B-PP'
p347
g17
tp348
a(S'acute'
p349
S'acute'
p350
S'JJ'
p351
S'B-NP'
p352
g17
tp353
a(S'uncomplicated'
p354
S'uncomplicated'
p355
S'JJ'
p356
S'I-NP'
p357
g17
tp358
a(S'hemorrhoids.'
p359
S'hemorrhoids.'
p360
S'NN'
p361
S'I-NP'
p362
g17
tp363
a(S'The'
p364
S'The'
p365
S'DT'
p366
S'B-NP'
p367
g17
tp368
a(S'purpose'
p369
S'purpose'
p370
S'NN'
p371
S'I-NP'
p372
g17
tp373
a(S'of'
p374
S'of'
p375
S'IN'
p376
S'B-PP'
p377
g17
tp378
a(S'this'
p379
S'this'
p380
S'DT'
p381
S'B-NP'
p382
g17
tp383
a(S'randomized'
p384
S'randomize'
p385
S'VBN'
p386
S'I-NP'
p387
g17
tp388
a(g70
g70
g70
S'I-NP'
p389
g17
tp390
a(S'double-blind'
p391
S'double-blind'
p392
S'JJ'
p393
S'I-NP'
p394
g17
tp395
a(g70
g70
g70
S'I-NP'
p396
g17
tp397
a(S'placebo-controlled'
p398
S'placebo-controlled'
p399
S'JJ'
p400
S'I-NP'
p401
g17
tp402
a(S'study'
p403
S'study'
p404
S'NN'
p405
S'I-NP'
p406
g17
tp407
a(S'was'
p408
S'be'
p409
S'VBD'
p410
S'B-VP'
p411
g17
tp412
a(S'to'
p413
S'to'
p414
S'TO'
p415
S'B-VP'
p416
g17
tp417
a(S'investigate'
p418
S'investigate'
p419
S'VB'
p420
S'I-VP'
p421
g17
tp422
a(S'the'
p423
S'the'
p424
S'DT'
p425
S'B-NP'
p426
g17
tp427
a(S'efficacy'
p428
S'efficacy'
p429
S'NN'
p430
S'I-NP'
p431
g17
tp432
a(S'and'
p433
S'and'
p434
S'CC'
p435
S'I-NP'
p436
g17
tp437
a(S'tolerability'
p438
S'tolerability'
p439
S'NN'
p440
S'I-NP'
p441
g17
tp442
a(S'of'
p443
S'of'
p444
S'IN'
p445
S'B-PP'
p446
g17
tp447
a(S'the'
p448
S'the'
p449
S'DT'
p450
S'B-NP'
p451
g17
tp452
a(S'active'
p453
S'active'
p454
S'JJ'
p455
S'I-NP'
p456
g17
tp457
a(S'combination'
p458
S'combination'
p459
S'NN'
p460
S'I-NP'
p461
g17
tp462
a(S'in'
p463
S'in'
p464
S'IN'
p465
S'B-PP'
p466
g17
tp467
a(S'the'
p468
S'the'
p469
S'DT'
p470
S'B-NP'
p471
g17
tp472
a(S'treatment'
p473
S'treatment'
p474
S'NN'
p475
S'I-NP'
p476
g17
tp477
a(S'of'
p478
S'of'
p479
S'IN'
p480
S'B-PP'
p481
g17
tp482
a(S'post-hemorrhoidectomy'
p483
S'post-hemorrhoidectomy'
p484
S'JJ'
p485
S'B-NP'
p486
g17
tp487
a(S'patients.'
p488
S'patients.'
p489
S'NN'
p490
S'I-NP'
p491
g17
tp492
a(S'30'
p493
S'30'
p494
S'CD'
p495
S'B-NP'
p496
g17
tp497
a(S'patients'
p498
S'patient'
p499
S'NNS'
p500
S'I-NP'
p501
g17
tp502
a(S'were'
p503
S'be'
p504
S'VBD'
p505
S'B-VP'
p506
g17
tp507
a(S'randomized'
p508
S'randomize'
p509
S'VBN'
p510
S'I-VP'
p511
g17
tp512
a(S'to'
p513
S'to'
p514
S'TO'
p515
S'I-VP'
p516
g17
tp517
a(S'receive'
p518
S'receive'
p519
S'VB'
p520
S'I-VP'
p521
g17
tp522
a(S'one'
p523
S'one'
p524
S'CD'
p525
S'B-NP'
p526
g17
tp527
a(S'of'
p528
S'of'
p529
S'IN'
p530
S'B-PP'
p531
g17
tp532
a(S'two'
p533
S'two'
p534
S'CD'
p535
S'B-NP'
p536
g17
tp537
a(S'treatments'
p538
S'treatment'
p539
S'NNS'
p540
S'I-NP'
p541
g17
tp542
a(g59
g59
g59
g17
g17
tp543
a(S'troxerutin'
p544
S'troxerutin'
p545
S'NN'
p546
S'B-NP'
p547
g17
tp548
a(S'150'
p549
S'150'
p550
S'CD'
p551
S'I-NP'
p552
g17
tp553
a(S'mg'
p554
S'mg'
p555
S'NN'
p556
S'I-NP'
p557
g17
tp558
a(S'and'
p559
S'and'
p560
S'CC'
p561
S'I-NP'
p562
g17
tp563
a(S'carbazochrome'
p564
S'carbazochrome'
p565
S'NN'
p566
S'I-NP'
p567
g17
tp568
a(S'1.5'
p569
S'1.5'
p570
S'CD'
p571
S'I-NP'
p572
g17
tp573
a(S'mg'
p574
S'mg'
p575
S'NN'
p576
S'I-NP'
p577
g17
tp578
a(g70
g70
g70
g17
g17
tp579
a(S'or'
p580
S'or'
p581
S'CC'
p582
g17
g17
tp583
a(S'placebo'
p584
S'placebo'
p585
S'NN'
p586
S'B-NP'
p587
g17
tp588
a(g70
g70
g70
g17
g17
tp589
a(S'i.m.'
p590
S'i.m.'
p591
S'RB'
p592
S'B-NP'
p593
g17
tp594
a(S'3'
p595
g595
S'CD'
p596
S'I-NP'
p597
g17
tp598
a(S'ml'
p599
S'ml'
p600
S'NN'
p601
S'I-NP'
p602
g17
tp603
a(S'ampoules'
p604
S'ampoule'
p605
S'NNS'
p606
S'I-NP'
p607
g17
tp608
a(S'twice'
p609
S'twice'
p610
S'RB'
p611
S'B-NP'
p612
g17
tp613
a(g61
g61
S'DT'
p614
S'I-NP'
p615
g17
tp616
a(S'day'
p617
S'day'
p618
S'NN'
p619
S'I-NP'
p620
g17
tp621
a(S'for'
p622
S'for'
p623
S'IN'
p624
S'B-PP'
p625
g17
tp626
a(S'five'
p627
S'five'
p628
S'CD'
p629
S'B-NP'
p630
g17
tp631
a(S'consecutive'
p632
S'consecutive'
p633
S'JJ'
p634
S'I-NP'
p635
g17
tp636
a(S'days'
p637
S'day'
p638
S'NNS'
p639
S'I-NP'
p640
g17
tp641
a(S'after'
p642
S'after'
p643
S'IN'
p644
S'B-PP'
p645
g17
tp646
a(S'the'
p647
S'the'
p648
S'DT'
p649
S'B-NP'
p650
g17
tp651
a(S'surgical'
p652
S'surgical'
p653
S'JJ'
p654
S'I-NP'
p655
g17
tp656
a(S'procedure'
p657
S'procedure'
p658
S'NN'
p659
S'I-NP'
p660
g17
tp661
a(g70
g70
g70
g17
g17
tp662
a(S'starting'
p663
S'start'
p664
S'VBG'
p665
S'B-VP'
p666
g17
tp667
a(S'from'
p668
S'from'
p669
S'IN'
p670
S'B-PP'
p671
g17
tp672
a(S'the'
p673
S'the'
p674
S'DT'
p675
S'B-NP'
p676
g17
tp677
a(S'day'
p678
S'day'
p679
S'NN'
p680
S'I-NP'
p681
g17
tp682
a(S'of'
p683
S'of'
p684
S'IN'
p685
S'B-PP'
p686
g17
tp687
a(S'surgery.'
p688
S'surgery.'
p689
S'NN'
p690
S'B-NP'
p691
g17
tp692
a(S'Efficacy'
p693
S'Efficacy'
p694
S'NN'
p695
S'I-NP'
p696
g17
tp697
a(S'parameters'
p698
S'parameter'
p699
S'NNS'
p700
S'I-NP'
p701
g17
tp702
a(S'were'
p703
S'be'
p704
S'VBD'
p705
S'B-VP'
p706
g17
tp707
a(S'assessed'
p708
S'assess'
p709
S'VBN'
p710
S'I-VP'
p711
g17
tp712
a(S'as'
p713
S'as'
p714
S'IN'
p715
S'B-SBAR'
p716
g17
tp717
a(S'follows'
p718
S'follow'
p719
S'VBZ'
p720
S'B-VP'
p721
g17
tp722
a(g59
g59
g59
g17
g17
tp723
a(S'at'
p724
S'at'
p725
S'IN'
p726
S'B-PP'
p727
g17
tp728
a(S'baseline'
p729
S'baseline'
p730
S'NN'
p731
S'B-NP'
p732
g17
tp733
a(g262
g262
g262
g17
g17
tp734
a(S'T1'
p735
S'T1'
p736
S'NN'
p737
S'B-NP'
p738
g17
tp739
a(g274
g274
g274
g17
g17
tp740
a(g70
g70
g70
g17
g17
tp741
a(S'after'
p742
S'after'
p743
S'IN'
p744
S'B-PP'
p745
g17
tp746
a(S'the'
p747
S'the'
p748
S'DT'
p749
S'B-NP'
p750
g17
tp751
a(S'first'
p752
S'first'
p753
S'JJ'
p754
S'I-NP'
p755
g17
tp756
a(S'administration'
p757
S'administration'
p758
S'NN'
p759
S'I-NP'
p760
g17
tp761
a(g262
g262
g262
g17
g17
tp762
a(S'T2'
p763
S'T2'
p764
S'NN'
p765
S'B-NP'
p766
g17
tp767
a(S';'
p768
g768
g59
g17
g17
tp769
a(S'day'
p770
S'day'
p771
S'NN'
p772
S'B-NP'
p773
g17
tp774
a(S'of'
p775
S'of'
p776
S'IN'
p777
S'B-PP'
p778
g17
tp779
a(S'surgery'
p780
S'surgery'
p781
S'NN'
p782
S'B-NP'
p783
g17
tp784
a(g274
g274
g274
g17
g17
tp785
a(g70
g70
g70
g17
g17
tp786
a(S'the'
p787
S'the'
p788
S'DT'
p789
S'B-NP'
p790
g17
tp791
a(S'second'
p792
S'second'
p793
S'JJ'
p794
S'I-NP'
p795
g17
tp796
a(S'day'
p797
S'day'
p798
S'NN'
p799
S'I-NP'
p800
g17
tp801
a(S'after'
p802
S'after'
p803
S'IN'
p804
S'B-PP'
p805
g17
tp806
a(S'the'
p807
S'the'
p808
S'DT'
p809
S'B-NP'
p810
g17
tp811
a(S'surgical'
p812
S'surgical'
p813
S'JJ'
p814
S'I-NP'
p815
g17
tp816
a(S'procedure'
p817
S'procedure'
p818
S'NN'
p819
S'I-NP'
p820
g17
tp821
a(g262
g262
g262
g17
g17
tp822
a(S'T3'
p823
S'T3'
p824
S'NN'
p825
S'B-NP'
p826
g17
tp827
a(g274
g274
g274
g17
g17
tp828
a(g70
g70
g70
g17
g17
tp829
a(S'and'
p830
S'and'
p831
S'CC'
p832
g17
g17
tp833
a(S'the'
p834
S'the'
p835
S'DT'
p836
S'B-NP'
p837
g17
tp838
a(S'fifth'
p839
S'fifth'
p840
S'JJ'
p841
S'I-NP'
p842
g17
tp843
a(S'day'
p844
S'day'
p845
S'NN'
p846
S'I-NP'
p847
g17
tp848
a(S'after'
p849
S'after'
p850
S'IN'
p851
S'B-PP'
p852
g17
tp853
a(S'the'
p854
S'the'
p855
S'DT'
p856
S'B-NP'
p857
g17
tp858
a(S'surgical'
p859
S'surgical'
p860
S'JJ'
p861
S'I-NP'
p862
g17
tp863
a(S'procedure'
p864
S'procedure'
p865
S'NN'
p866
S'I-NP'
p867
g17
tp868
a(g262
g262
g262
g17
g17
tp869
a(S'T4'
p870
S'T4'
p871
S'NN'
p872
S'B-NP'
p873
g17
tp874
a(g274
g274
g274
g17
g17
tp875
a(g768
g768
g59
g17
g17
tp876
a(S'hemorrhoidal'
p877
S'hemorrhoidal'
p878
S'JJ'
p879
S'B-NP'
p880
g17
tp881
a(S'symptoms'
p882
S'symptom'
p883
S'NNS'
p884
S'I-NP'
p885
g17
tp886
a(S'based'
p887
S'base'
p888
S'VBN'
p889
S'B-VP'
p890
g17
tp891
a(S'on'
p892
S'on'
p893
S'IN'
p894
S'B-PP'
p895
g17
tp896
a(g61
g61
S'DT'
p897
S'B-NP'
p898
g17
tp899
a(S'visual'
p900
S'visual'
p901
S'JJ'
p902
S'I-NP'
p903
g17
tp904
a(S'analogue'
p905
S'analogue'
p906
S'NN'
p907
S'I-NP'
p908
g17
tp909
a(S'scale'
p910
S'scale'
p911
S'NN'
p912
S'I-NP'
p913
g17
tp914
a(g262
g262
g262
g17
g17
tp915
a(S'VAS'
p916
S'VAS'
p917
S'NN'
p918
S'B-NP'
p919
g17
tp920
a(g274
g274
g274
g17
g17
tp921
a(g59
g59
g59
g17
g17
tp922
a(S'pain'
p923
S'pain'
p924
S'NN'
p925
S'B-NP'
p926
g17
tp927
a(g70
g70
g70
g17
g17
tp928
a(S'discharge'
p929
S'discharge'
p930
S'NN'
p931
S'B-NP'
p932
g17
tp933
a(g70
g70
g70
g17
g17
tp934
a(S'bleeding'
p935
S'bleeding'
p936
S'NN'
p937
S'B-NP'
p938
g17
tp939
a(g70
g70
g70
g17
g17
tp940
a(S'inflammation'
p941
S'inflammation'
p942
S'NN'
p943
S'B-NP'
p944
g17
tp945
a(g70
g70
g70
g17
g17
tp946
a(S'and'
p947
S'and'
p948
S'CC'
p949
g17
g17
tp950
a(S'pruritus'
p951
S'pruritus'
p952
S'NN'
p953
S'B-NP'
p954
g17
tp955
a(g768
g768
g59
g17
g17
tp956
a(S'analgesic'
p957
S'analgesic'
p958
S'JJ'
p959
S'B-NP'
p960
g17
tp961
a(S'intake'
p962
S'intake'
p963
S'NN'
p964
S'I-NP'
p965
g17
tp966
a(g70
g70
g70
g17
g17
tp967
a(S'if'
p968
S'if'
p969
S'IN'
p970
S'B-SBAR'
p971
g17
tp972
a(S'any'
p973
S'any'
p974
S'DT'
p975
S'B-NP'
p976
g17
tp977
a(g768
g768
g59
g17
g17
tp978
a(S'time'
p979
S'time'
p980
S'NN'
p981
S'B-NP'
p982
g17
tp983
a(S'to'
p984
S'to'
p985
S'TO'
p986
S'B-VP'
p987
g17
tp988
a(S'restore'
p989
S'restore'
p990
S'VB'
p991
S'I-VP'
p992
g17
tp993
a(g61
g61
S'DT'
p994
S'B-NP'
p995
g17
tp996
a(S'physiological'
p997
S'physiological'
p998
S'JJ'
p999
S'I-NP'
p1000
g17
tp1001
a(S'defecation'
p1002
S'defecation'
p1003
S'NN'
p1004
S'I-NP'
p1005
g17
tp1006
a(g768
g768
g59
g17
g17
tp1007
a(S'edema'
p1008
S'edema'
p1009
S'NN'
p1010
S'B-NP'
p1011
g17
tp1012
a(S'evaluation'
p1013
S'evaluation'
p1014
S'NN'
p1015
S'I-NP'
p1016
g17
tp1017
a(g262
g262
g262
g17
g17
tp1018
a(S'based'
p1019
S'base'
p1020
S'VBN'
p1021
S'B-PP'
p1022
g17
tp1023
a(S'on'
p1024
S'on'
p1025
S'IN'
p1026
S'B-PP'
p1027
g17
tp1028
a(g61
g61
S'DT'
p1029
S'B-NP'
p1030
g17
tp1031
a(S'four-point'
p1032
S'four-point'
p1033
S'JJ'
p1034
S'I-NP'
p1035
g17
tp1036
a(S'scale'
p1037
S'scale'
p1038
S'NN'
p1039
S'I-NP'
p1040
g17
tp1041
a(g59
g59
g59
g17
g17
tp1042
a(S'0'
p1043
g1043
S'CD'
p1044
S'B-NP'
p1045
g17
tp1046
a(S'='
p1047
g1047
S'SYM'
p1048
S'B-VP'
p1049
g17
tp1050
a(S'absent'
p1051
S'absent'
p1052
S'JJ'
p1053
S'B-ADJP'
p1054
g17
tp1055
a(g768
g768
g59
g17
g17
tp1056
a(S'1'
p1057
g1057
S'CD'
p1058
S'B-NP'
p1059
g17
tp1060
a(g1047
g1047
S'JJ'
p1061
S'I-NP'
p1062
g17
tp1063
a(S'mild'
p1064
S'mild'
p1065
S'JJ'
p1066
S'I-NP'
p1067
g17
tp1068
a(g768
g768
g59
g17
g17
tp1069
a(S'2'
p1070
g1070
S'CD'
p1071
S'B-NP'
p1072
g17
tp1073
a(g1047
g1047
S'SYM'
p1074
S'B-VP'
p1075
g17
tp1076
a(S'moderate'
p1077
S'moderate'
p1078
S'JJ'
p1079
S'B-ADJP'
p1080
g17
tp1081
a(g768
g768
g59
g17
g17
tp1082
a(g595
g595
S'CD'
p1083
S'B-NP'
p1084
g17
tp1085
a(g1047
g1047
S'SYM'
p1086
S'B-VP'
p1087
g17
tp1088
a(S'severe'
p1089
S'severe'
p1090
S'JJ'
p1091
S'B-ADJP'
p1092
g17
tp1093
a(g274
g274
g274
g17
g17
tp1094
a(g768
g768
g59
g17
g17
tp1095
a(S'camera'
p1096
S'camera'
p1097
S'NN'
p1098
S'B-NP'
p1099
g17
tp1100
a(S'pictures'
p1101
S'picture'
p1102
S'NNS'
p1103
S'I-NP'
p1104
g17
tp1105
a(S'taken'
p1106
S'take'
p1107
S'VBN'
p1108
S'B-VP'
p1109
g17
tp1110
a(S'at'
p1111
S'at'
p1112
S'IN'
p1113
S'B-PP'
p1114
g17
tp1115
a(S'T1'
p1116
S'T1'
p1117
S'NN'
p1118
S'B-NP'
p1119
S'B-DNA'
p1120
tp1121
a(S'and'
p1122
S'and'
p1123
S'CC'
p1124
S'I-NP'
p1125
g17
tp1126
a(S'T4'
p1127
S'T4'
p1128
S'NN'
p1129
S'I-NP'
p1130
g17
tp1131
a(g262
g262
g262
g17
g17
tp1132
a(S'in'
p1133
S'in'
p1134
S'IN'
p1135
S'B-PP'
p1136
g17
tp1137
a(S'selected'
p1138
S'select'
p1139
S'VBN'
p1140
S'B-NP'
p1141
g17
tp1142
a(S'patients'
p1143
S'patient'
p1144
S'NNS'
p1145
S'I-NP'
p1146
g17
tp1147
a(g274
g274
g274
g17
g17
tp1148
a(g768
g768
g59
g17
g17
tp1149
a(S'and'
p1150
S'and'
p1151
S'CC'
p1152
g17
g17
tp1153
a(S'blood'
p1154
S'blood'
p1155
S'NN'
p1156
S'B-NP'
p1157
g17
tp1158
a(S'coagulation'
p1159
S'coagulation'
p1160
S'NN'
p1161
S'I-NP'
p1162
g17
tp1163
a(S'tests.'
p1164
S'tests.'
p1165
S'NN'
p1166
S'I-NP'
p1167
g17
tp1168
a(S'Analysis'
p1169
S'Analysis'
p1170
S'NN'
p1171
S'I-NP'
p1172
g17
tp1173
a(S'between'
p1174
S'between'
p1175
S'IN'
p1176
S'B-PP'
p1177
g17
tp1178
a(S'treatment'
p1179
S'treatment'
p1180
S'NN'
p1181
S'B-NP'
p1182
g17
tp1183
a(S'groups'
p1184
S'group'
p1185
S'NNS'
p1186
S'I-NP'
p1187
g17
tp1188
a(S'revealed'
p1189
S'reveal'
p1190
S'VBD'
p1191
S'B-VP'
p1192
g17
tp1193
a(g61
g61
S'DT'
p1194
S'B-NP'
p1195
g17
tp1196
a(S'highly'
p1197
S'highly'
p1198
S'RB'
p1199
S'I-NP'
p1200
g17
tp1201
a(S'significant'
p1202
S'significant'
p1203
S'JJ'
p1204
S'I-NP'
p1205
g17
tp1206
a(S'difference'
p1207
S'difference'
p1208
S'NN'
p1209
S'I-NP'
p1210
g17
tp1211
a(S'at'
p1212
S'at'
p1213
S'IN'
p1214
S'B-PP'
p1215
g17
tp1216
a(S'T3'
p1217
S'T3'
p1218
S'NN'
p1219
S'B-NP'
p1220
S'B-DNA'
p1221
tp1222
a(S'and'
p1223
S'and'
p1224
S'CC'
p1225
S'I-NP'
p1226
g17
tp1227
a(S'T4'
p1228
S'T4'
p1229
S'NN'
p1230
S'I-NP'
p1231
g17
tp1232
a(S'for'
p1233
S'for'
p1234
S'IN'
p1235
S'B-PP'
p1236
g17
tp1237
a(S'the'
p1238
S'the'
p1239
S'DT'
p1240
S'B-NP'
p1241
g17
tp1242
a(S'total'
p1243
S'total'
p1244
S'JJ'
p1245
S'I-NP'
p1246
g17
tp1247
a(S'VAS'
p1248
S'VAS'
p1249
S'NN'
p1250
S'I-NP'
p1251
g17
tp1252
a(S'score'
p1253
S'score'
p1254
S'NN'
p1255
S'I-NP'
p1256
g17
tp1257
a(g262
g262
g262
g17
g17
tp1258
a(S'p'
p1259
g1259
S'NN'
p1260
S'B-NP'
p1261
g17
tp1262
a(g1047
g1047
S'SYM'
p1263
S'B-VP'
p1264
g17
tp1265
a(S'0.007'
p1266
S'0.007'
p1267
S'CD'
p1268
S'B-NP'
p1269
g17
tp1270
a(S'and'
p1271
S'and'
p1272
S'CC'
p1273
g17
g17
tp1274
a(g1259
g1259
S'NN'
p1275
S'B-NP'
p1276
g17
tp1277
a(g1047
g1047
S'SYM'
p1278
S'B-VP'
p1279
g17
tp1280
a(S'0.001'
p1281
S'0.001'
p1282
S'CD'
p1283
S'B-NP'
p1284
g17
tp1285
a(g70
g70
g70
g17
g17
tp1286
a(S'respectively'
p1287
S'respectively'
p1288
S'RB'
p1289
S'B-ADVP'
p1290
g17
tp1291
a(g274
g274
g274
g17
g17
tp1292
a(S'in'
p1293
S'in'
p1294
S'IN'
p1295
S'B-PP'
p1296
g17
tp1297
a(S'favor'
p1298
S'favor'
p1299
S'NN'
p1300
S'B-NP'
p1301
g17
tp1302
a(S'of'
p1303
S'of'
p1304
S'IN'
p1305
S'B-PP'
p1306
g17
tp1307
a(S'the'
p1308
S'the'
p1309
S'DT'
p1310
S'B-NP'
p1311
g17
tp1312
a(S'active'
p1313
S'active'
p1314
S'JJ'
p1315
S'I-NP'
p1316
g17
tp1317
a(S'combination'
p1318
S'combination'
p1319
S'NN'
p1320
S'I-NP'
p1321
g17
tp1322
a(S'treatment.'
p1323
S'treatment.'
p1324
S'NN'
p1325
S'I-NP'
p1326
g17
tp1327
a(S'A'
p1328
g1328
S'NN'
p1329
S'I-NP'
p1330
g17
tp1331
a(S'statistically'
p1332
S'statistically'
p1333
S'RB'
p1334
S'B-NP'
p1335
g17
tp1336
a(S'significant'
p1337
S'significant'
p1338
S'JJ'
p1339
S'I-NP'
p1340
g17
tp1341
a(S'difference'
p1342
S'difference'
p1343
S'NN'
p1344
S'I-NP'
p1345
g17
tp1346
a(S'was'
p1347
S'be'
p1348
S'VBD'
p1349
S'B-VP'
p1350
g17
tp1351
a(S'also'
p1352
S'also'
p1353
S'RB'
p1354
S'I-VP'
p1355
g17
tp1356
a(S'observed'
p1357
S'observe'
p1358
S'VBN'
p1359
S'I-VP'
p1360
g17
tp1361
a(S'for'
p1362
S'for'
p1363
S'IN'
p1364
S'B-PP'
p1365
g17
tp1366
a(S'bleeding'
p1367
S'bleeding'
p1368
S'NN'
p1369
S'B-NP'
p1370
g17
tp1371
a(S'and'
p1372
S'and'
p1373
S'CC'
p1374
S'I-NP'
p1375
g17
tp1376
a(S'pruritus'
p1377
S'pruritus'
p1378
S'NN'
p1379
S'I-NP'
p1380
g17
tp1381
a(S'at'
p1382
S'at'
p1383
S'IN'
p1384
S'B-PP'
p1385
g17
tp1386
a(S'T3'
p1387
S'T3'
p1388
S'NN'
p1389
S'B-NP'
p1390
g17
tp1391
a(S'and'
p1392
S'and'
p1393
S'CC'
p1394
S'B-PP'
p1395
g17
tp1396
a(S'for'
p1397
S'for'
p1398
S'IN'
p1399
S'B-PP'
p1400
g17
tp1401
a(S'these'
p1402
S'these'
p1403
S'DT'
p1404
S'B-NP'
p1405
g17
tp1406
a(S'two'
p1407
S'two'
p1408
S'CD'
p1409
S'I-NP'
p1410
g17
tp1411
a(S'parameters'
p1412
S'parameter'
p1413
S'NNS'
p1414
S'I-NP'
p1415
g17
tp1416
a(S'and'
p1417
S'and'
p1418
S'CC'
p1419
g17
g17
tp1420
a(S'both'
p1421
S'both'
p1422
S'CC'
p1423
g17
g17
tp1424
a(S'inflammation'
p1425
S'inflammation'
p1426
S'NN'
p1427
S'B-NP'
p1428
g17
tp1429
a(S'and'
p1430
S'and'
p1431
S'CC'
p1432
S'I-NP'
p1433
g17
tp1434
a(S'edema'
p1435
S'edema'
p1436
S'NN'
p1437
S'I-NP'
p1438
g17
tp1439
a(S'at'
p1440
S'at'
p1441
S'IN'
p1442
S'B-PP'
p1443
g17
tp1444
a(S'T4'
p1445
S'T4'
p1446
S'NN'
p1447
S'B-NP'
p1448
g17
tp1449
a(g262
g262
g262
g17
g17
tp1450
a(g1259
g1259
S'NN'
p1451
S'B-NP'
p1452
g17
tp1453
a(S'<'
p1454
g1454
S'SYM'
p1455
g17
g17
tp1456
a(S'0.001'
p1457
S'0.001'
p1458
S'CD'
p1459
S'B-NP'
p1460
g17
tp1461
a(g274
g274
g274
g17
g17
tp1462
a(S'in'
p1463
S'in'
p1464
S'IN'
p1465
S'B-PP'
p1466
g17
tp1467
a(S'favor'
p1468
S'favor'
p1469
S'NN'
p1470
S'B-NP'
p1471
g17
tp1472
a(S'of'
p1473
S'of'
p1474
S'IN'
p1475
S'B-PP'
p1476
g17
tp1477
a(S'the'
p1478
S'the'
p1479
S'DT'
p1480
S'B-NP'
p1481
g17
tp1482
a(S'active'
p1483
S'active'
p1484
S'JJ'
p1485
S'I-NP'
p1486
g17
tp1487
a(S'combination'
p1488
S'combination'
p1489
S'NN'
p1490
S'I-NP'
p1491
g17
tp1492
a(S'group.'
p1493
S'group.'
p1494
S'NN'
p1495
S'I-NP'
p1496
g17
tp1497
a(S'No'
p1498
S'No'
p1499
S'DT'
p1500
S'B-NP'
p1501
g17
tp1502
a(S'adverse'
p1503
S'adverse'
p1504
S'JJ'
p1505
S'I-NP'
p1506
g17
tp1507
a(S'events'
p1508
S'event'
p1509
S'NNS'
p1510
S'I-NP'
p1511
g17
tp1512
a(S'were'
p1513
S'be'
p1514
S'VBD'
p1515
S'B-VP'
p1516
g17
tp1517
a(S'reported.'
p1518
S'reported.'
p1519
S'NN'
p1520
S'B-NP'
p1521
g17
tp1522
a(S'Neither'
p1523
S'Neither'
p1524
S'CC'
p1525
g17
g17
tp1526
a(S'the'
p1527
S'the'
p1528
S'DT'
p1529
S'B-NP'
p1530
g17
tp1531
a(S'active'
p1532
S'active'
p1533
S'JJ'
p1534
S'I-NP'
p1535
g17
tp1536
a(S'combination'
p1537
S'combination'
p1538
S'NN'
p1539
S'I-NP'
p1540
g17
tp1541
a(S'nor'
p1542
S'nor'
p1543
S'CC'
p1544
S'I-NP'
p1545
g17
tp1546
a(S'placebo'
p1547
S'placebo'
p1548
S'NN'
p1549
S'I-NP'
p1550
g17
tp1551
a(S'affected'
p1552
S'affect'
p1553
S'VBD'
p1554
S'B-VP'
p1555
g17
tp1556
a(S'blood'
p1557
S'blood'
p1558
S'NN'
p1559
S'B-NP'
p1560
g17
tp1561
a(S'coagulation'
p1562
S'coagulation'
p1563
S'NN'
p1564
S'I-NP'
p1565
g17
tp1566
a(S'tests.'
p1567
S'tests.'
p1568
S'NN'
p1569
S'I-NP'
p1570
g17
tp1571
a(S'We'
p1572
S'We'
p1573
S'PRP'
p1574
S'B-NP'
p1575
g17
tp1576
a(S'conclude'
p1577
S'conclude'
p1578
S'VBP'
p1579
S'B-VP'
p1580
g17
tp1581
a(S'that'
p1582
S'that'
p1583
S'IN'
p1584
S'B-SBAR'
p1585
g17
tp1586
a(S'intramuscular'
p1587
S'intramuscular'
p1588
S'JJ'
p1589
S'B-NP'
p1590
g17
tp1591
a(S'administration'
p1592
S'administration'
p1593
S'NN'
p1594
S'I-NP'
p1595
g17
tp1596
a(S'of'
p1597
S'of'
p1598
S'IN'
p1599
S'B-PP'
p1600
g17
tp1601
a(S'the'
p1602
S'the'
p1603
S'DT'
p1604
S'B-NP'
p1605
g17
tp1606
a(S'fixed'
p1607
S'fix'
p1608
S'VBN'
p1609
S'I-NP'
p1610
g17
tp1611
a(S'combination'
p1612
S'combination'
p1613
S'NN'
p1614
S'I-NP'
p1615
g17
tp1616
a(S'of'
p1617
S'of'
p1618
S'IN'
p1619
S'B-PP'
p1620
g17
tp1621
a(S'troxerutin'
p1622
S'troxerutin'
p1623
S'NN'
p1624
S'B-NP'
p1625
g17
tp1626
a(S'150'
p1627
S'150'
p1628
S'CD'
p1629
S'I-NP'
p1630
g17
tp1631
a(S'mg'
p1632
S'mg'
p1633
S'NN'
p1634
S'I-NP'
p1635
g17
tp1636
a(S'and'
p1637
S'and'
p1638
S'CC'
p1639
S'I-NP'
p1640
g17
tp1641
a(S'carbazochrome'
p1642
S'carbazochrome'
p1643
S'NN'
p1644
S'I-NP'
p1645
g17
tp1646
a(S'1.5'
p1647
S'1.5'
p1648
S'CD'
p1649
S'I-NP'
p1650
g17
tp1651
a(S'mg'
p1652
S'mg'
p1653
S'NN'
p1654
S'I-NP'
p1655
g17
tp1656
a(S'is'
p1657
S'be'
p1658
S'VBZ'
p1659
S'B-VP'
p1660
g17
tp1661
a(S'effective'
p1662
S'effective'
p1663
S'JJ'
p1664
S'B-ADJP'
p1665
g17
tp1666
a(g70
g70
g70
g17
g17
tp1667
a(S'well'
p1668
S'well'
p1669
S'RB'
p1670
S'B-ADJP'
p1671
g17
tp1672
a(S'tolerated'
p1673
S'tolerate'
p1674
S'VBN'
p1675
S'I-ADJP'
p1676
g17
tp1677
a(S'and'
p1678
S'and'
p1679
S'CC'
p1680
g17
g17
tp1681
a(S'superior'
p1682
S'superior'
p1683
S'JJ'
p1684
S'B-ADJP'
p1685
g17
tp1686
a(S'to'
p1687
S'to'
p1688
S'TO'
p1689
S'B-PP'
p1690
g17
tp1691
a(S'placebo'
p1692
S'placebo'
p1693
S'NN'
p1694
S'B-NP'
p1695
g17
tp1696
a(S'in'
p1697
S'in'
p1698
S'IN'
p1699
S'B-PP'
p1700
g17
tp1701
a(S'improving'
p1702
S'improve'
p1703
S'VBG'
p1704
S'B-VP'
p1705
g17
tp1706
a(S'hemorrhoidal'
p1707
S'hemorrhoidal'
p1708
S'JJ'
p1709
S'B-NP'
p1710
g17
tp1711
a(S'and'
p1712
S'and'
p1713
S'CC'
p1714
S'I-NP'
p1715
g17
tp1716
a(S'post-surgical'
p1717
S'post-surgical'
p1718
S'JJ'
p1719
S'I-NP'
p1720
g17
tp1721
a(S'symptoms'
p1722
S'symptom'
p1723
S'NNS'
p1724
S'I-NP'
p1725
g17
tp1726
a(S'during'
p1727
S'during'
p1728
S'IN'
p1729
S'B-PP'
p1730
g17
tp1731
a(S'the'
p1732
S'the'
p1733
S'DT'
p1734
S'B-NP'
p1735
g17
tp1736
a(S'five'
p1737
S'five'
p1738
S'CD'
p1739
S'I-NP'
p1740
g17
tp1741
a(S'days'
p1742
S'day'
p1743
S'NNS'
p1744
S'I-NP'
p1745
g17
tp1746
a(S'following'
p1747
S'follow'
p1748
S'VBG'
p1749
S'B-PP'
p1750
g17
tp1751
a(S'surgery'
p1752
S'surgery'
p1753
S'NN'
p1754
S'B-NP'
p1755
g17
tp1756
a(g102
g102
g102
g17
g17
tp1757
a.