(lp0
(S'Heparin'
p1
S'Heparin'
p2
S'NN'
p3
S'B-NP'
p4
S'O'
p5
tp6
a(S'plus'
p7
S'plus'
p8
S'CC'
p9
S'I-NP'
p10
g5
tp11
a(S'dipyridamole'
p12
S'dipyridamole'
p13
S'NN'
p14
S'I-NP'
p15
g5
tp16
a(S'in'
p17
S'in'
p18
S'IN'
p19
S'B-PP'
p20
g5
tp21
a(S'childhood'
p22
S'childhood'
p23
S'NN'
p24
S'B-NP'
p25
g5
tp26
a(S'hemolytic-uremic'
p27
S'hemolytic-uremic'
p28
S'JJ'
p29
S'I-NP'
p30
g5
tp31
a(S'syndrome'
p32
S'syndrome'
p33
S'NN'
p34
S'I-NP'
p35
g5
tp36
a(S':'
p37
g37
g37
g5
g5
tp38
a(S'a'
p39
g39
S'DT'
p40
S'B-NP'
p41
g5
tp42
a(S'prospective'
p43
S'prospective'
p44
S'JJ'
p45
S'I-NP'
p46
g5
tp47
a(S','
p48
g48
g48
S'I-NP'
p49
g5
tp50
a(S'randomized'
p51
S'randomize'
p52
S'VBN'
p53
S'I-NP'
p54
g5
tp55
a(S'study'
p56
S'study'
p57
S'NN'
p58
S'I-NP'
p59
g5
tp60
a(S'.'
p61
g61
g61
g5
g5
tp62
a(S'From'
p63
S'From'
p64
S'IN'
p65
S'B-PP'
p66
g5
tp67
a(S'1976'
p68
S'1976'
p69
S'CD'
p70
S'B-NP'
p71
g5
tp72
a(S'to'
p73
S'to'
p74
S'TO'
p75
S'B-PP'
p76
g5
tp77
a(S'1985'
p78
S'1985'
p79
S'CD'
p80
S'B-NP'
p81
g5
tp82
a(g48
g48
g48
g5
g5
tp83
a(g39
g39
S'DT'
p84
S'B-NP'
p85
g5
tp86
a(S'total'
p87
S'total'
p88
S'NN'
p89
S'I-NP'
p90
g5
tp91
a(S'of'
p92
S'of'
p93
S'IN'
p94
S'B-PP'
p95
g5
tp96
a(S'58'
p97
S'58'
p98
S'CD'
p99
S'B-NP'
p100
g5
tp101
a(S'infants'
p102
S'infant'
p103
S'NNS'
p104
S'I-NP'
p105
g5
tp106
a(S'and'
p107
S'and'
p108
S'CC'
p109
S'I-NP'
p110
g5
tp111
a(S'children'
p112
S'child'
p113
S'NNS'
p114
S'I-NP'
p115
g5
tp116
a(S'with'
p117
S'with'
p118
S'IN'
p119
S'B-PP'
p120
g5
tp121
a(S'the'
p122
S'the'
p123
S'DT'
p124
S'B-NP'
p125
g5
tp126
a(S'hemolytic-uremic'
p127
S'hemolytic-uremic'
p128
S'JJ'
p129
S'I-NP'
p130
g5
tp131
a(S'syndrome'
p132
S'syndrome'
p133
S'NN'
p134
S'I-NP'
p135
g5
tp136
a(S'were'
p137
S'be'
p138
S'VBD'
p139
S'B-VP'
p140
g5
tp141
a(S'randomly'
p142
S'randomly'
p143
S'RB'
p144
S'I-VP'
p145
g5
tp146
a(S'assigned'
p147
S'assign'
p148
S'VBN'
p149
S'I-VP'
p150
g5
tp151
a(S'to'
p152
S'to'
p153
S'TO'
p154
S'B-PP'
p155
g5
tp156
a(S'treatment'
p157
S'treatment'
p158
S'NN'
p159
S'B-NP'
p160
g5
tp161
a(S'either'
p162
S'either'
p163
S'CC'
p164
S'B-PP'
p165
g5
tp166
a(S'with'
p167
S'with'
p168
S'IN'
p169
S'I-PP'
p170
g5
tp171
a(S'heparin'
p172
S'heparin'
p173
S'NN'
p174
S'B-NP'
p175
g5
tp176
a(S'and'
p177
S'and'
p178
S'CC'
p179
S'I-NP'
p180
g5
tp181
a(S'dipyridamole'
p182
S'dipyridamole'
p183
S'NN'
p184
S'I-NP'
p185
g5
tp186
a(S'or'
p187
S'or'
p188
S'CC'
p189
S'B-PP'
p190
g5
tp191
a(S'with'
p192
S'with'
p193
S'IN'
p194
S'B-PP'
p195
g5
tp196
a(S'supportive'
p197
S'supportive'
p198
S'JJ'
p199
S'B-NP'
p200
g5
tp201
a(S'management'
p202
S'management'
p203
S'NN'
p204
S'I-NP'
p205
g5
tp206
a(S'only.'
p207
S'only.'
p208
S'RB'
p209
S'B-ADVP'
p210
g5
tp211
a(S'In'
p212
S'In'
p213
S'IN'
p214
S'B-PP'
p215
g5
tp216
a(S'the'
p217
S'the'
p218
S'DT'
p219
S'B-NP'
p220
g5
tp221
a(S'treatment'
p222
S'treatment'
p223
S'NN'
p224
S'I-NP'
p225
g5
tp226
a(S'group'
p227
S'group'
p228
S'NN'
p229
S'I-NP'
p230
g5
tp231
a(g48
g48
g48
g5
g5
tp232
a(S'two'
p233
S'two'
p234
S'CD'
p235
S'B-NP'
p236
g5
tp237
a(S'patients'
p238
S'patient'
p239
S'NNS'
p240
S'I-NP'
p241
g5
tp242
a(S'died'
p243
S'die'
p244
S'VBD'
p245
S'B-VP'
p246
g5
tp247
a(S'in'
p248
S'in'
p249
S'IN'
p250
S'B-PP'
p251
g5
tp252
a(S'the'
p253
S'the'
p254
S'DT'
p255
S'B-NP'
p256
g5
tp257
a(S'early'
p258
S'early'
p259
S'JJ'
p260
S'I-NP'
p261
g5
tp262
a(S'weeks'
p263
S'week'
p264
S'NNS'
p265
S'I-NP'
p266
g5
tp267
a(S'of'
p268
S'of'
p269
S'IN'
p270
S'B-PP'
p271
g5
tp272
a(S'the'
p273
S'the'
p274
S'DT'
p275
S'B-NP'
p276
g5
tp277
a(S'disease.'
p278
S'disease.'
p279
S'NN'
p280
S'I-NP'
p281
g5
tp282
a(S'Analysis'
p283
S'Analysis'
p284
S'NN'
p285
S'I-NP'
p286
g5
tp287
a(S'of'
p288
S'of'
p289
S'IN'
p290
S'B-PP'
p291
g5
tp292
a(S'clinical'
p293
S'clinical'
p294
S'JJ'
p295
S'B-NP'
p296
g5
tp297
a(S'and'
p298
S'and'
p299
S'CC'
p300
S'I-NP'
p301
g5
tp302
a(S'laboratory'
p303
S'laboratory'
p304
S'NN'
p305
S'I-NP'
p306
g5
tp307
a(S'data'
p308
S'datum'
p309
S'NNS'
p310
S'I-NP'
p311
g5
tp312
a(S'showed'
p313
S'show'
p314
S'VBD'
p315
S'B-VP'
p316
g5
tp317
a(S'no'
p318
S'no'
p319
S'DT'
p320
S'B-NP'
p321
g5
tp322
a(S'significant'
p323
S'significant'
p324
S'JJ'
p325
S'I-NP'
p326
g5
tp327
a(S'difference'
p328
S'difference'
p329
S'NN'
p330
S'I-NP'
p331
g5
tp332
a(S'between'
p333
S'between'
p334
S'IN'
p335
S'B-PP'
p336
g5
tp337
a(S'either'
p338
S'either'
p339
S'CC'
p340
g5
g5
tp341
a(S'group'
p342
S'group'
p343
S'NN'
p344
S'B-NP'
p345
g5
tp346
a(S'of'
p347
S'of'
p348
S'IN'
p349
S'B-PP'
p350
g5
tp351
a(S'patients'
p352
S'patient'
p353
S'NNS'
p354
S'B-NP'
p355
g5
tp356
a(S'as'
p357
S'as'
p358
S'IN'
p359
S'B-PP'
p360
g5
tp361
a(S'to'
p362
S'to'
p363
S'TO'
p364
S'B-PP'
p365
g5
tp366
a(S'the'
p367
S'the'
p368
S'DT'
p369
S'B-NP'
p370
g5
tp371
a(S'evolution'
p372
S'evolution'
p373
S'NN'
p374
S'I-NP'
p375
g5
tp376
a(S'of'
p377
S'of'
p378
S'IN'
p379
S'B-PP'
p380
g5
tp381
a(S'their'
p382
S'their'
p383
S'PRP$'
p384
S'B-NP'
p385
g5
tp386
a(S'illness'
p387
S'illness'
p388
S'NN'
p389
S'I-NP'
p390
g5
tp391
a(S'except'
p392
S'except'
p393
S'IN'
p394
S'B-PP'
p395
g5
tp396
a(S'for'
p397
S'for'
p398
S'IN'
p399
S'B-PP'
p400
g5
tp401
a(g39
g39
S'DT'
p402
S'B-NP'
p403
g5
tp404
a(S'significantly'
p405
S'significantly'
p406
S'RB'
p407
S'I-NP'
p408
g5
tp409
a(S'higher'
p410
S'high'
p411
S'JJR'
p412
S'I-NP'
p413
g5
tp414
a(S'incidence'
p415
S'incidence'
p416
S'NN'
p417
S'I-NP'
p418
g5
tp419
a(S'of'
p420
S'of'
p421
S'IN'
p422
S'B-PP'
p423
g5
tp424
a(S'anuria'
p425
S'anuria'
p426
S'NN'
p427
S'B-NP'
p428
g5
tp429
a(S'and'
p430
S'and'
p431
S'CC'
p432
g5
g5
tp433
a(g39
g39
S'DT'
p434
S'B-NP'
p435
g5
tp436
a(S'significantly'
p437
S'significantly'
p438
S'RB'
p439
S'I-NP'
p440
g5
tp441
a(S'faster'
p442
S'fast'
p443
S'JJR'
p444
S'I-NP'
p445
g5
tp446
a(S'recovery'
p447
S'recovery'
p448
S'NN'
p449
S'I-NP'
p450
g5
tp451
a(S'from'
p452
S'from'
p453
S'IN'
p454
S'B-PP'
p455
g5
tp456
a(S'hypertension'
p457
S'hypertension'
p458
S'NN'
p459
S'B-NP'
p460
g5
tp461
a(S'in'
p462
S'in'
p463
S'IN'
p464
S'B-PP'
p465
g5
tp466
a(S'the'
p467
S'the'
p468
S'DT'
p469
S'B-NP'
p470
g5
tp471
a(S'treated'
p472
S'treat'
p473
S'VBN'
p474
S'I-NP'
p475
g5
tp476
a(S'group.'
p477
S'group.'
p478
S'NN'
p479
S'I-NP'
p480
g5
tp481
a(S'Renal'
p482
S'Renal'
p483
S'JJ'
p484
S'I-NP'
p485
g5
tp486
a(S'biopsy'
p487
S'biopsy'
p488
S'NN'
p489
S'I-NP'
p490
g5
tp491
a(S'studies'
p492
S'study'
p493
S'NNS'
p494
S'I-NP'
p495
g5
tp496
a(S'showed'
p497
S'show'
p498
S'VBD'
p499
S'B-VP'
p500
g5
tp501
a(S'no'
p502
S'no'
p503
S'DT'
p504
S'B-NP'
p505
g5
tp506
a(S'differences'
p507
S'difference'
p508
S'NNS'
p509
S'I-NP'
p510
g5
tp511
a(S'between'
p512
S'between'
p513
S'IN'
p514
S'B-PP'
p515
g5
tp516
a(S'the'
p517
S'the'
p518
S'DT'
p519
S'B-NP'
p520
g5
tp521
a(S'two'
p522
S'two'
p523
S'CD'
p524
S'I-NP'
p525
g5
tp526
a(S'groups'
p527
S'group'
p528
S'NNS'
p529
S'I-NP'
p530
g5
tp531
a(S'in'
p532
S'in'
p533
S'IN'
p534
S'B-PP'
p535
g5
tp536
a(S'terms'
p537
S'term'
p538
S'NNS'
p539
S'B-NP'
p540
g5
tp541
a(S'of'
p542
S'of'
p543
S'IN'
p544
S'B-PP'
p545
g5
tp546
a(S'incidence'
p547
S'incidence'
p548
S'NN'
p549
S'B-NP'
p550
g5
tp551
a(S'and'
p552
S'and'
p553
S'CC'
p554
S'I-NP'
p555
g5
tp556
a(S'severity'
p557
S'severity'
p558
S'NN'
p559
S'I-NP'
p560
g5
tp561
a(S'of'
p562
S'of'
p563
S'IN'
p564
S'B-PP'
p565
g5
tp566
a(S'the'
p567
S'the'
p568
S'DT'
p569
S'B-NP'
p570
g5
tp571
a(S'histologic'
p572
S'histologic'
p573
S'JJ'
p574
S'I-NP'
p575
g5
tp576
a(S'lesions.'
p577
S'lesions.'
p578
S'NN'
p579
S'I-NP'
p580
g5
tp581
a(S'The'
p582
S'The'
p583
S'DT'
p584
S'B-NP'
p585
g5
tp586
a(S'long-term'
p587
S'long-term'
p588
S'JJ'
p589
S'I-NP'
p590
g5
tp591
a(S'data'
p592
S'data'
p593
S'NN'
p594
S'I-NP'
p595
g5
tp596
a(S'on'
p597
S'on'
p598
S'IN'
p599
S'B-PP'
p600
g5
tp601
a(S'blood'
p602
S'blood'
p603
S'NN'
p604
S'B-NP'
p605
g5
tp606
a(S'pressure'
p607
S'pressure'
p608
S'NN'
p609
S'I-NP'
p610
g5
tp611
a(S'and'
p612
S'and'
p613
S'CC'
p614
g5
g5
tp615
a(S'creatinine'
p616
S'creatinine'
p617
S'NN'
p618
S'B-NP'
p619
g5
tp620
a(S'clearance'
p621
S'clearance'
p622
S'NN'
p623
S'I-NP'
p624
g5
tp625
a(S'values'
p626
S'value'
p627
S'NNS'
p628
S'I-NP'
p629
g5
tp630
a(S'in'
p631
S'in'
p632
S'IN'
p633
S'B-PP'
p634
g5
tp635
a(S'the'
p636
S'the'
p637
S'DT'
p638
S'B-NP'
p639
g5
tp640
a(S'survivors'
p641
S'survivor'
p642
S'NNS'
p643
S'I-NP'
p644
g5
tp645
a(S'were'
p646
S'be'
p647
S'VBD'
p648
S'B-VP'
p649
g5
tp650
a(S'similar'
p651
S'similar'
p652
S'JJ'
p653
S'B-ADJP'
p654
g5
tp655
a(S'in'
p656
S'in'
p657
S'IN'
p658
S'B-PP'
p659
g5
tp660
a(S'both'
p661
S'both'
p662
S'DT'
p663
S'B-NP'
p664
g5
tp665
a(S'groups.'
p666
S'groups.'
p667
S'NNS'
p668
S'I-NP'
p669
g5
tp670
a(S'This'
p671
S'This'
p672
S'DT'
p673
S'B-NP'
p674
g5
tp675
a(S'study'
p676
S'study'
p677
S'NN'
p678
S'I-NP'
p679
g5
tp680
a(S'indicates'
p681
S'indicate'
p682
S'VBZ'
p683
S'B-VP'
p684
g5
tp685
a(S'that'
p686
S'that'
p687
S'IN'
p688
S'B-SBAR'
p689
g5
tp690
a(S'treatment'
p691
S'treatment'
p692
S'NN'
p693
S'B-NP'
p694
g5
tp695
a(S'with'
p696
S'with'
p697
S'IN'
p698
S'B-PP'
p699
g5
tp700
a(S'heparin'
p701
S'heparin'
p702
S'NN'
p703
S'B-NP'
p704
g5
tp705
a(S'and'
p706
S'and'
p707
S'CC'
p708
S'I-NP'
p709
g5
tp710
a(S'dipyridamole'
p711
S'dipyridamole'
p712
S'NN'
p713
S'I-NP'
p714
g5
tp715
a(S'has'
p716
S'have'
p717
S'VBZ'
p718
S'B-VP'
p719
g5
tp720
a(S'no'
p721
S'no'
p722
S'DT'
p723
S'B-NP'
p724
g5
tp725
a(S'benefit'
p726
S'benefit'
p727
S'NN'
p728
S'I-NP'
p729
g5
tp730
a(S'over'
p731
S'over'
p732
S'IN'
p733
S'B-PP'
p734
g5
tp735
a(S'symptomatic'
p736
S'symptomatic'
p737
S'JJ'
p738
S'B-NP'
p739
g5
tp740
a(S'therapy'
p741
S'therapy'
p742
S'NN'
p743
S'I-NP'
p744
g5
tp745
a(S'alone'
p746
S'alone'
p747
S'RB'
p748
S'B-ADVP'
p749
g5
tp750
a(S'in'
p751
S'in'
p752
S'IN'
p753
S'B-PP'
p754
g5
tp755
a(S'the'
p756
S'the'
p757
S'DT'
p758
S'B-NP'
p759
g5
tp760
a(S'typical'
p761
S'typical'
p762
S'JJ'
p763
S'I-NP'
p764
g5
tp765
a(S'form'
p766
S'form'
p767
S'NN'
p768
S'I-NP'
p769
g5
tp770
a(S'of'
p771
S'of'
p772
S'IN'
p773
S'B-PP'
p774
g5
tp775
a(S'childhood'
p776
S'childhood'
p777
S'NN'
p778
S'B-NP'
p779
g5
tp780
a(S'hemolytic-uremic'
p781
S'hemolytic-uremic'
p782
S'JJ'
p783
S'I-NP'
p784
g5
tp785
a(S'syndrome'
p786
S'syndrome'
p787
S'NN'
p788
S'I-NP'
p789
g5
tp790
a(g61
g61
g61
g5
g5
tp791
a.