(lp0
(S'['
p1
g1
S'('
p2
S'O'
p3
g3
tp4
a(S'A'
p5
g5
S'DT'
p6
S'B-NP'
p7
g3
tp8
a(S'controlled'
p9
S'control'
p10
S'VBN'
p11
S'I-NP'
p12
g3
tp13
a(S'study'
p14
S'study'
p15
S'NN'
p16
S'I-NP'
p17
g3
tp18
a(S'of'
p19
S'of'
p20
S'IN'
p21
S'B-PP'
p22
g3
tp23
a(S'treating'
p24
S'treat'
p25
S'VBG'
p26
S'B-VP'
p27
g3
tp28
a(S'haemophilia'
p29
S'haemophilia'
p30
S'NN'
p31
S'B-NP'
p32
g3
tp33
a(g5
g5
S'NN'
p34
S'I-NP'
p35
g3
tp36
a(S'on'
p37
S'on'
p38
S'IN'
p39
S'B-PP'
p40
g3
tp41
a(S'an'
p42
S'an'
p43
S'DT'
p44
S'B-NP'
p45
g3
tp46
a(S'out-patient'
p47
S'out-patient'
p48
S'JJ'
p49
S'I-NP'
p50
g3
tp51
a(S'basis'
p52
S'basis'
p53
S'NN'
p54
S'I-NP'
p55
g3
tp56
a(g2
g2
g2
g3
g3
tp57
a(S'author'
p58
S'author'
p59
S'NN'
p60
S'B-NP'
p61
g3
tp62
a(S"'s"
p63
S"'s"
p64
S'POS'
p65
S'B-NP'
p66
g3
tp67
a(S'transl'
p68
S'transl'
p69
S'NN'
p70
S'I-NP'
p71
g3
tp72
a(S')'
p73
g73
g73
g3
g3
tp74
a(S']'
p75
g75
g73
g3
g3
tp76
a(S'.'
p77
g77
g77
g3
g3
tp78
a(S'For'
p79
S'For'
p80
S'IN'
p81
S'B-PP'
p82
g3
tp83
a(S'six'
p84
S'six'
p85
S'CD'
p86
S'B-NP'
p87
g3
tp88
a(S'months'
p89
S'month'
p90
S'NNS'
p91
S'I-NP'
p92
g3
tp93
a(S'36'
p94
S'36'
p95
S'CD'
p96
S'B-NP'
p97
g3
tp98
a(S'U'
p99
g99
S'NN'
p100
S'I-NP'
p101
g3
tp102
a(S'factor'
p103
S'factor'
p104
S'NN'
p105
S'I-NP'
p106
g3
tp107
a(S'VIII'
p108
S'VIII'
p109
S'CD'
p110
S'B-NP'
p111
g3
tp112
a(S'concentrates'
p113
S'concentrate'
p114
S'NNS'
p115
S'I-NP'
p116
g3
tp117
a(S'per'
p118
S'per'
p119
S'IN'
p120
S'B-PP'
p121
g3
tp122
a(S'kg'
p123
S'kg'
p124
S'NN'
p125
S'B-NP'
p126
g3
tp127
a(S'bodyweight'
p128
S'bodyweight'
p129
S'NN'
p130
S'I-NP'
p131
g3
tp132
a(S'and'
p133
S'and'
p134
S'CC'
p135
S'I-NP'
p136
g3
tp137
a(S'week'
p138
S'week'
p139
S'NN'
p140
S'I-NP'
p141
g3
tp142
a(S'were'
p143
S'be'
p144
S'VBD'
p145
S'B-VP'
p146
g3
tp147
a(S'administered'
p148
S'administer'
p149
S'VBN'
p150
S'I-VP'
p151
g3
tp152
a(S'to'
p153
S'to'
p154
S'TO'
p155
S'B-PP'
p156
g3
tp157
a(S'six'
p158
S'six'
p159
S'CD'
p160
S'B-NP'
p161
g3
tp162
a(S'out-patients'
p163
S'out-patient'
p164
S'NNS'
p165
S'I-NP'
p166
g3
tp167
a(S'with'
p168
S'with'
p169
S'IN'
p170
S'B-PP'
p171
g3
tp172
a(S'severe'
p173
S'severe'
p174
S'JJ'
p175
S'B-NP'
p176
g3
tp177
a(S'haemophilia'
p178
S'haemophilia'
p179
S'NN'
p180
S'I-NP'
p181
g3
tp182
a(S'A.'
p183
S'A.'
p184
S'NN'
p185
S'I-NP'
p186
g3
tp187
a(S'The'
p188
S'The'
p189
S'DT'
p190
S'B-NP'
p191
g3
tp192
a(S'injection'
p193
S'injection'
p194
S'NN'
p195
S'I-NP'
p196
g3
tp197
a(S'regimen'
p198
S'regimen'
p199
S'NN'
p200
S'I-NP'
p201
g3
tp202
a(S'was'
p203
S'be'
p204
S'VBD'
p205
S'B-VP'
p206
g3
tp207
a(S'changed'
p208
S'change'
p209
S'VBN'
p210
S'I-VP'
p211
g3
tp212
a(S'in'
p213
S'in'
p214
S'IN'
p215
S'B-PP'
p216
g3
tp217
a(S'every'
p218
S'every'
p219
S'DT'
p220
S'B-NP'
p221
g3
tp222
a(S'patient'
p223
S'patient'
p224
S'NN'
p225
S'I-NP'
p226
g3
tp227
a(S'every'
p228
S'every'
p229
S'DT'
p230
S'B-NP'
p231
g3
tp232
a(S'two'
p233
S'two'
p234
S'CD'
p235
S'I-NP'
p236
g3
tp237
a(S'months'
p238
S'month'
p239
S'NNS'
p240
S'I-NP'
p241
g3
tp242
a(S','
p243
g243
g243
g3
g3
tp244
a(S'from'
p245
S'from'
p246
S'IN'
p247
S'B-PP'
p248
g3
tp249
a(S'36'
p250
S'36'
p251
S'CD'
p252
S'B-NP'
p253
g3
tp254
a(S'U/kg'
p255
S'U/kg'
p256
S'NN'
p257
S'I-NP'
p258
g3
tp259
a(S'once'
p260
S'once'
p261
S'RB'
p262
S'B-ADVP'
p263
g3
tp264
a(S'to'
p265
S'to'
p266
S'TO'
p267
S'B-PP'
p268
g3
tp269
a(S'18'
p270
S'18'
p271
S'CD'
p272
S'B-NP'
p273
g3
tp274
a(S'U/kg'
p275
S'U/kg'
p276
S'NN'
p277
S'I-NP'
p278
g3
tp279
a(S'twice'
p280
S'twice'
p281
S'RB'
p282
S'B-ADVP'
p283
g3
tp284
a(S'and'
p285
S'and'
p286
S'CC'
p287
g3
g3
tp288
a(S'12'
p289
S'12'
p290
S'CD'
p291
S'B-NP'
p292
g3
tp293
a(S'U/kg'
p294
S'U/kg'
p295
S'NN'
p296
S'I-NP'
p297
g3
tp298
a(S'three'
p299
S'three'
p300
S'CD'
p301
S'B-NP'
p302
g3
tp303
a(S'times'
p304
S'time'
p305
S'NNS'
p306
S'I-NP'
p307
g3
tp308
a(g243
g243
g243
g3
g3
tp309
a(S'intravenously.'
p310
S'intravenously.'
p311
S'FW'
p312
S'B-PP'
p313
g3
tp314
a(S'The'
p315
S'The'
p316
S'DT'
p317
S'B-NP'
p318
g3
tp319
a(S'six'
p320
S'six'
p321
S'CD'
p322
S'I-NP'
p323
g3
tp324
a(S'possible'
p325
S'possible'
p326
S'JJ'
p327
S'I-NP'
p328
g3
tp329
a(S'combinations'
p330
S'combination'
p331
S'NNS'
p332
S'I-NP'
p333
g3
tp334
a(S'of'
p335
S'of'
p336
S'IN'
p337
S'B-PP'
p338
g3
tp339
a(S'these'
p340
S'these'
p341
S'DT'
p342
S'B-NP'
p343
g3
tp344
a(S'three'
p345
S'three'
p346
S'CD'
p347
S'I-NP'
p348
g3
tp349
a(S'dosage'
p350
S'dosage'
p351
S'NN'
p352
S'I-NP'
p353
g3
tp354
a(S'schedules'
p355
S'schedule'
p356
S'NNS'
p357
S'I-NP'
p358
g3
tp359
a(S'were'
p360
S'be'
p361
S'VBD'
p362
S'B-VP'
p363
g3
tp364
a(S'used'
p365
S'use'
p366
S'VBN'
p367
S'I-VP'
p368
g3
tp369
a(S'in'
p370
S'in'
p371
S'IN'
p372
S'B-PP'
p373
g3
tp374
a(S'the'
p375
S'the'
p376
S'DT'
p377
S'B-NP'
p378
g3
tp379
a(S'patients'
p380
S'patient'
p381
S'NNS'
p382
S'I-NP'
p383
g3
tp384
a(S'in'
p385
S'in'
p386
S'IN'
p387
S'B-PP'
p388
g3
tp389
a(S'a'
p390
g390
S'DT'
p391
S'B-NP'
p392
g3
tp393
a(S'strictly'
p394
S'strictly'
p395
S'RB'
p396
S'I-NP'
p397
g3
tp398
a(S'randomised'
p399
S'randomise'
p400
S'VBN'
p401
S'I-NP'
p402
g3
tp403
a(S'manner'
p404
S'manner'
p405
S'NN'
p406
S'I-NP'
p407
g3
tp408
a(g243
g243
g243
g3
g3
tp409
a(S'and'
p410
S'and'
p411
S'CC'
p412
g3
g3
tp413
a(S'all'
p414
S'all'
p415
S'DT'
p416
S'B-NP'
p417
g3
tp418
a(S'patients'
p419
S'patient'
p420
S'NNS'
p421
S'I-NP'
p422
g3
tp423
a(S'were'
p424
S'be'
p425
S'VBD'
p426
S'B-VP'
p427
g3
tp428
a(S'treated'
p429
S'treat'
p430
S'VBN'
p431
S'I-VP'
p432
g3
tp433
a(S'during'
p434
S'during'
p435
S'IN'
p436
S'B-PP'
p437
g3
tp438
a(S'the'
p439
S'the'
p440
S'DT'
p441
S'B-NP'
p442
g3
tp443
a(S'same'
p444
S'same'
p445
S'JJ'
p446
S'I-NP'
p447
g3
tp448
a(S'period.'
p449
S'period.'
p450
S'NN'
p451
S'I-NP'
p452
g3
tp453
a(S'In'
p454
S'In'
p455
S'IN'
p456
S'B-PP'
p457
g3
tp458
a(S'the'
p459
S'the'
p460
S'DT'
p461
S'B-NP'
p462
g3
tp463
a(S'pre-trial'
p464
S'pre-trial'
p465
S'JJ'
p466
S'I-NP'
p467
g3
tp468
a(S'period'
p469
S'period'
p470
S'NN'
p471
S'I-NP'
p472
g3
tp473
a(g2
g2
g2
g3
g3
tp474
a(S'treatment'
p475
S'treatment'
p476
S'NN'
p477
S'B-NP'
p478
g3
tp479
a(S'as'
p480
S'as'
p481
S'IN'
p482
S'B-SBAR'
p483
g3
tp484
a(S'needed'
p485
S'need'
p486
S'VBN'
p487
S'B-VP'
p488
g3
tp489
a(g73
g73
g73
g3
g3
tp490
a(S'there'
p491
S'there'
p492
S'EX'
p493
S'B-NP'
p494
g3
tp495
a(S'were'
p496
S'be'
p497
S'VBD'
p498
S'B-VP'
p499
g3
tp500
a(S'an'
p501
S'an'
p502
S'DT'
p503
S'B-NP'
p504
g3
tp505
a(S'average'
p506
S'average'
p507
S'NN'
p508
S'I-NP'
p509
g3
tp510
a(S'of'
p511
S'of'
p512
S'IN'
p513
S'B-PP'
p514
g3
tp515
a(S'35'
p516
S'35'
p517
S'CD'
p518
S'B-NP'
p519
g3
tp520
a(S'bleedings'
p521
S'bleeding'
p522
S'NNS'
p523
S'I-NP'
p524
g3
tp525
a(S'per'
p526
S'per'
p527
S'IN'
p528
S'B-PP'
p529
g3
tp530
a(S'two'
p531
S'two'
p532
S'CD'
p533
S'B-NP'
p534
g3
tp535
a(S'months.'
p536
S'months.'
p537
S'NNS'
p538
S'I-NP'
p539
g3
tp540
a(S'On'
p541
S'On'
p542
S'IN'
p543
S'B-PP'
p544
g3
tp545
a(S'continual'
p546
S'continual'
p547
S'JJ'
p548
S'B-NP'
p549
g3
tp550
a(S'treatment'
p551
S'treatment'
p552
S'NN'
p553
S'I-NP'
p554
g3
tp555
a(S'there'
p556
S'there'
p557
S'EX'
p558
S'B-NP'
p559
g3
tp560
a(S'were'
p561
S'be'
p562
S'VBD'
p563
S'B-VP'
p564
g3
tp565
a(S'21'
p566
S'21'
p567
S'CD'
p568
S'B-NP'
p569
g3
tp570
a(S'bleedings'
p571
S'bleeding'
p572
S'NNS'
p573
S'I-NP'
p574
g3
tp575
a(S'on'
p576
S'on'
p577
S'IN'
p578
S'B-PP'
p579
g3
tp580
a(S'weekly'
p581
S'weekly'
p582
S'JJ'
p583
S'B-NP'
p584
g3
tp585
a(S'injections'
p586
S'injection'
p587
S'NNS'
p588
S'I-NP'
p589
g3
tp590
a(S'of'
p591
S'of'
p592
S'IN'
p593
S'B-PP'
p594
g3
tp595
a(S'36'
p596
S'36'
p597
S'CD'
p598
S'B-NP'
p599
g3
tp600
a(g99
g99
S'NN'
p601
S'I-NP'
p602
g3
tp603
a(S'factor'
p604
S'factor'
p605
S'NN'
p606
S'I-NP'
p607
g3
tp608
a(S'VIII'
p609
S'VIII'
p610
S'CD'
p611
S'I-NP'
p612
g3
tp613
a(S'per'
p614
S'per'
p615
S'IN'
p616
S'B-PP'
p617
g3
tp618
a(S'kg'
p619
S'kg'
p620
S'NN'
p621
S'B-NP'
p622
g3
tp623
a(g243
g243
g243
g3
g3
tp624
a(S'14'
p625
S'14'
p626
S'CD'
p627
S'B-NP'
p628
g3
tp629
a(S'on'
p630
S'on'
p631
S'IN'
p632
S'B-PP'
p633
g3
tp634
a(S'twice'
p635
S'twice'
p636
S'JJ'
p637
S'B-NP'
p638
g3
tp639
a(S'weekly'
p640
S'weekly'
p641
S'JJ'
p642
S'I-NP'
p643
g3
tp644
a(S'18'
p645
S'18'
p646
S'CD'
p647
S'I-NP'
p648
g3
tp649
a(S'U/kg'
p650
S'U/kg'
p651
S'NN'
p652
S'I-NP'
p653
g3
tp654
a(S'and'
p655
S'and'
p656
S'CC'
p657
g3
g3
tp658
a(S'none'
p659
S'none'
p660
S'NN'
p661
S'B-NP'
p662
g3
tp663
a(S'on'
p664
S'on'
p665
S'IN'
p666
S'B-PP'
p667
g3
tp668
a(S'12'
p669
S'12'
p670
S'CD'
p671
S'B-NP'
p672
g3
tp673
a(S'U/kg'
p674
S'U/kg'
p675
S'NN'
p676
S'I-NP'
p677
g3
tp678
a(g243
g243
g243
g3
g3
tp679
a(S'three'
p680
S'three'
p681
S'CD'
p682
S'B-NP'
p683
g3
tp684
a(S'times'
p685
S'time'
p686
S'NNS'
p687
S'I-NP'
p688
g3
tp689
a(S'weekly.'
p690
S'weekly.'
p691
S'VBP'
p692
S'B-VP'
p693
g3
tp694
a(S'The'
p695
S'The'
p696
S'DT'
p697
S'B-NP'
p698
g3
tp699
a(S'differences'
p700
S'difference'
p701
S'NNS'
p702
S'I-NP'
p703
g3
tp704
a(S'are'
p705
S'be'
p706
S'VBP'
p707
S'B-VP'
p708
g3
tp709
a(S'statistically'
p710
S'statistically'
p711
S'RB'
p712
S'B-ADVP'
p713
g3
tp714
a(S'significant.'
p715
S'significant.'
p716
S'RB'
p717
S'B-ADVP'
p718
g3
tp719
a(S'The'
p720
S'The'
p721
S'DT'
p722
S'B-NP'
p723
g3
tp724
a(S'absence'
p725
S'absence'
p726
S'NN'
p727
S'I-NP'
p728
g3
tp729
a(S'of'
p730
S'of'
p731
S'IN'
p732
S'B-PP'
p733
g3
tp734
a(S'bleeding'
p735
S'bleed'
p736
S'VBG'
p737
S'B-VP'
p738
g3
tp739
a(S'on'
p740
S'on'
p741
S'IN'
p742
S'B-PP'
p743
g3
tp744
a(S'the'
p745
S'the'
p746
S'DT'
p747
S'B-NP'
p748
g3
tp749
a(S'last'
p750
S'last'
p751
S'JJ'
p752
S'I-NP'
p753
g3
tp754
a(S'dosage'
p755
S'dosage'
p756
S'NN'
p757
S'I-NP'
p758
g3
tp759
a(S'schedule'
p760
S'schedule'
p761
S'NN'
p762
S'I-NP'
p763
g3
tp764
a(S'was'
p765
S'be'
p766
S'VBD'
p767
S'B-VP'
p768
g3
tp769
a(S'achieved'
p770
S'achieve'
p771
S'VBN'
p772
S'I-VP'
p773
g3
tp774
a(S'during'
p775
S'during'
p776
S'IN'
p777
S'B-PP'
p778
g3
tp779
a(S'normal'
p780
S'normal'
p781
S'JJ'
p782
S'B-NP'
p783
g3
tp784
a(S'working.'
p785
S'working.'
p786
S'NN'
p787
S'I-NP'
p788
g3
tp789
a(S'Days'
p790
S'Day'
p791
S'NNS'
p792
S'I-NP'
p793
g3
tp794
a(S'lost'
p795
S'lose'
p796
S'VBN'
p797
S'B-VP'
p798
g3
tp799
a(S'from'
p800
S'from'
p801
S'IN'
p802
S'B-PP'
p803
g3
tp804
a(S'work'
p805
S'work'
p806
S'NN'
p807
S'B-NP'
p808
g3
tp809
a(S'per'
p810
S'per'
p811
S'IN'
p812
S'B-PP'
p813
g3
tp814
a(S'patient'
p815
S'patient'
p816
S'NN'
p817
S'B-NP'
p818
g3
tp819
a(S'per'
p820
S'per'
p821
S'IN'
p822
S'B-PP'
p823
g3
tp824
a(S'month'
p825
S'month'
p826
S'NN'
p827
S'B-NP'
p828
g3
tp829
a(S'was'
p830
S'be'
p831
S'VBD'
p832
S'B-VP'
p833
g3
tp834
a(S'zero'
p835
S'zero'
p836
S'CD'
p837
S'B-NP'
p838
g3
tp839
a(S'on'
p840
S'on'
p841
S'IN'
p842
S'B-PP'
p843
g3
tp844
a(S'three'
p845
S'three'
p846
S'CD'
p847
S'B-NP'
p848
g3
tp849
a(S'times'
p850
S'time'
p851
S'NNS'
p852
S'I-NP'
p853
g3
tp854
a(S'12'
p855
S'12'
p856
S'CD'
p857
S'I-NP'
p858
g3
tp859
a(S'U/kg'
p860
S'U/kg'
p861
S'NN'
p862
S'I-NP'
p863
g3
tp864
a(g243
g243
g243
g3
g3
tp865
a(S'0.4'
p866
S'0.4'
p867
S'CD'
p868
S'B-NP'
p869
g3
tp870
a(S'day'
p871
S'day'
p872
S'NN'
p873
S'I-NP'
p874
g3
tp875
a(S'on'
p876
S'on'
p877
S'IN'
p878
S'B-PP'
p879
g3
tp880
a(S'twice'
p881
S'twice'
p882
S'JJ'
p883
S'B-NP'
p884
g3
tp885
a(S'18'
p886
S'18'
p887
S'CD'
p888
S'I-NP'
p889
g3
tp890
a(S'U/kg'
p891
S'U/kg'
p892
S'NN'
p893
S'I-NP'
p894
g3
tp895
a(S'and'
p896
S'and'
p897
S'CC'
p898
g3
g3
tp899
a(S'once'
p900
S'once'
p901
S'RB'
p902
S'B-ADVP'
p903
g3
tp904
a(S'36'
p905
S'36'
p906
S'CD'
p907
S'B-NP'
p908
g3
tp909
a(S'U/kg'
p910
S'U/kg'
p911
S'NN'
p912
S'I-NP'
p913
g3
tp914
a(g243
g243
g243
g3
g3
tp915
a(S'while'
p916
S'while'
p917
S'IN'
p918
S'B-SBAR'
p919
g3
tp920
a(S'it'
p921
S'it'
p922
S'PRP'
p923
S'B-NP'
p924
g3
tp925
a(S'had'
p926
S'have'
p927
S'VBD'
p928
S'B-VP'
p929
g3
tp930
a(S'been'
p931
S'be'
p932
S'VBN'
p933
S'I-VP'
p934
g3
tp935
a(S'five'
p936
S'five'
p937
S'CD'
p938
S'B-NP'
p939
g3
tp940
a(S'days'
p941
S'day'
p942
S'NNS'
p943
S'I-NP'
p944
g3
tp945
a(S'in'
p946
S'in'
p947
S'IN'
p948
S'B-PP'
p949
g3
tp950
a(S'the'
p951
S'the'
p952
S'DT'
p953
S'B-NP'
p954
g3
tp955
a(S'pre-trial'
p956
S'pre-trial'
p957
S'JJ'
p958
S'I-NP'
p959
g3
tp960
a(S'period.'
p961
S'period.'
p962
S'NN'
p963
S'I-NP'
p964
g3
tp965
a(S'In'
p966
S'In'
p967
S'IN'
p968
S'B-PP'
p969
g3
tp970
a(S'addition'
p971
S'addition'
p972
S'NN'
p973
S'B-NP'
p974
g3
tp975
a(S'to'
p976
S'to'
p977
S'TO'
p978
S'B-VP'
p979
g3
tp980
a(S'freedom'
p981
S'freedom'
p982
S'VB'
p983
S'I-VP'
p984
g3
tp985
a(S'from'
p986
S'from'
p987
S'IN'
p988
S'B-PP'
p989
g3
tp990
a(S'bleeding'
p991
S'bleed'
p992
S'VBG'
p993
S'B-VP'
p994
g3
tp995
a(S'and'
p996
S'and'
p997
S'CC'
p998
g3
g3
tp999
a(S'no'
p1000
S'no'
p1001
S'DT'
p1002
S'B-NP'
p1003
g3
tp1004
a(S'lost'
p1005
S'lose'
p1006
S'VBN'
p1007
S'I-NP'
p1008
g3
tp1009
a(S'days'
p1010
S'day'
p1011
S'NNS'
p1012
S'I-NP'
p1013
g3
tp1014
a(S'from'
p1015
S'from'
p1016
S'IN'
p1017
S'B-PP'
p1018
g3
tp1019
a(S'work'
p1020
S'work'
p1021
S'NN'
p1022
S'B-NP'
p1023
g3
tp1024
a(g243
g243
g243
g3
g3
tp1025
a(S'there'
p1026
S'there'
p1027
S'EX'
p1028
S'B-NP'
p1029
g3
tp1030
a(S'was'
p1031
S'be'
p1032
S'VBD'
p1033
S'B-VP'
p1034
g3
tp1035
a(S'increased'
p1036
S'increase'
p1037
S'VBN'
p1038
S'I-VP'
p1039
g3
tp1040
a(S'mobility'
p1041
S'mobility'
p1042
S'NN'
p1043
S'B-NP'
p1044
g3
tp1045
a(S'and'
p1046
S'and'
p1047
S'CC'
p1048
g3
g3
tp1049
a(S'physical'
p1050
S'physical'
p1051
S'JJ'
p1052
S'B-NP'
p1053
g3
tp1054
a(S'capacity'
p1055
S'capacity'
p1056
S'NN'
p1057
S'I-NP'
p1058
g3
tp1059
a(g77
g77
g77
g3
g3
tp1060
a.