(lp0
(S'Afatinib'
p1
S'Afatinib'
p2
S'NN'
p3
S'B-NP'
p4
S'O'
p5
tp6
a(S'versus'
p7
S'versus'
p8
S'CC'
p9
S'I-NP'
p10
g5
tp11
a(S'methotrexate'
p12
S'methotrexate'
p13
S'NN'
p14
S'I-NP'
p15
g5
tp16
a(S'as'
p17
S'as'
p18
S'IN'
p19
S'B-PP'
p20
g5
tp21
a(S'second-line'
p22
S'second-line'
p23
S'JJ'
p24
S'B-NP'
p25
g5
tp26
a(S'treatment'
p27
S'treatment'
p28
S'NN'
p29
S'I-NP'
p30
g5
tp31
a(S'in'
p32
S'in'
p33
S'IN'
p34
S'B-PP'
p35
g5
tp36
a(S'patients'
p37
S'patient'
p38
S'NNS'
p39
S'B-NP'
p40
g5
tp41
a(S'with'
p42
S'with'
p43
S'IN'
p44
S'B-PP'
p45
g5
tp46
a(S'recurrent'
p47
S'recurrent'
p48
S'JJ'
p49
S'B-NP'
p50
g5
tp51
a(S'or'
p52
S'or'
p53
S'CC'
p54
S'I-NP'
p55
g5
tp56
a(S'metastatic'
p57
S'metastatic'
p58
S'JJ'
p59
S'I-NP'
p60
g5
tp61
a(S'squamous-cell'
p62
S'squamous-cell'
p63
S'JJ'
p64
S'I-NP'
p65
g5
tp66
a(S'carcinoma'
p67
S'carcinoma'
p68
S'NN'
p69
S'I-NP'
p70
g5
tp71
a(S'of'
p72
S'of'
p73
S'IN'
p74
S'B-PP'
p75
g5
tp76
a(S'the'
p77
S'the'
p78
S'DT'
p79
S'B-NP'
p80
g5
tp81
a(S'head'
p82
S'head'
p83
S'NN'
p84
S'I-NP'
p85
g5
tp86
a(S'and'
p87
S'and'
p88
S'CC'
p89
S'I-NP'
p90
g5
tp91
a(S'neck'
p92
S'neck'
p93
S'NN'
p94
S'I-NP'
p95
g5
tp96
a(S'progressing'
p97
S'progress'
p98
S'VBG'
p99
S'B-VP'
p100
g5
tp101
a(S'on'
p102
S'on'
p103
S'IN'
p104
S'B-PP'
p105
g5
tp106
a(S'or'
p107
S'or'
p108
S'CC'
p109
S'B-PP'
p110
g5
tp111
a(S'after'
p112
S'after'
p113
S'IN'
p114
S'B-PP'
p115
g5
tp116
a(S'platinum-based'
p117
S'platinum-based'
p118
S'JJ'
p119
S'B-NP'
p120
g5
tp121
a(S'therapy'
p122
S'therapy'
p123
S'NN'
p124
S'I-NP'
p125
g5
tp126
a(S'('
p127
g127
g127
g5
g5
tp128
a(S'LUX-Head'
p129
S'LUX-Head'
p130
S'NNP'
p131
S'B-NP'
p132
g5
tp133
a(S'&'
p134
g134
S'CC'
p135
S'I-NP'
p136
g5
tp137
a(S'Neck'
p138
S'Neck'
p139
S'NNP'
p140
S'I-NP'
p141
g5
tp142
a(S'1'
p143
g143
S'CD'
p144
S'I-NP'
p145
g5
tp146
a(S')'
p147
g147
g147
g5
g5
tp148
a(S':'
p149
g149
g149
g5
g5
tp150
a(S'an'
p151
S'an'
p152
S'DT'
p153
S'B-NP'
p154
g5
tp155
a(S'open-label'
p156
S'open-label'
p157
S'NN'
p158
S'I-NP'
p159
g5
tp160
a(S','
p161
g161
g161
g5
g5
tp162
a(S'randomised'
p163
S'randomise'
p164
S'VBD'
p165
S'B-VP'
p166
g5
tp167
a(S'phase'
p168
S'phase'
p169
S'NN'
p170
S'B-NP'
p171
g5
tp172
a(S'3'
p173
g173
S'CD'
p174
S'I-NP'
p175
g5
tp176
a(S'trial'
p177
S'trial'
p178
S'NN'
p179
S'I-NP'
p180
g5
tp181
a(S'.'
p182
g182
g182
g5
g5
tp183
a(S'BACKGROUND'
p184
S'BACKGROUND'
p185
S'NN'
p186
S'B-NP'
p187
g5
tp188
a(S'Patients'
p189
S'Patient'
p190
S'NNS'
p191
S'I-NP'
p192
g5
tp193
a(S'with'
p194
S'with'
p195
S'IN'
p196
S'B-PP'
p197
g5
tp198
a(S'recurrent'
p199
S'recurrent'
p200
S'JJ'
p201
S'B-NP'
p202
g5
tp203
a(S'or'
p204
S'or'
p205
S'CC'
p206
S'I-NP'
p207
g5
tp208
a(S'metastatic'
p209
S'metastatic'
p210
S'JJ'
p211
S'I-NP'
p212
g5
tp213
a(S'squamous-cell'
p214
S'squamous-cell'
p215
S'JJ'
p216
S'I-NP'
p217
g5
tp218
a(S'carcinoma'
p219
S'carcinoma'
p220
S'NN'
p221
S'I-NP'
p222
g5
tp223
a(S'of'
p224
S'of'
p225
S'IN'
p226
S'B-PP'
p227
g5
tp228
a(S'the'
p229
S'the'
p230
S'DT'
p231
S'B-NP'
p232
g5
tp233
a(S'head'
p234
S'head'
p235
S'NN'
p236
S'I-NP'
p237
g5
tp238
a(S'and'
p239
S'and'
p240
S'CC'
p241
S'I-NP'
p242
g5
tp243
a(S'neck'
p244
S'neck'
p245
S'NN'
p246
S'I-NP'
p247
g5
tp248
a(g127
g127
g127
g5
g5
tp249
a(S'HNSCC'
p250
S'HNSCC'
p251
S'NN'
p252
S'B-NP'
p253
g5
tp254
a(g147
g147
g147
g5
g5
tp255
a(S'progressing'
p256
S'progress'
p257
S'VBG'
p258
S'B-VP'
p259
g5
tp260
a(S'after'
p261
S'after'
p262
S'IN'
p263
S'B-PP'
p264
g5
tp265
a(S'first-line'
p266
S'first-line'
p267
S'JJ'
p268
S'B-NP'
p269
g5
tp270
a(S'platinum'
p271
S'platinum'
p272
S'NN'
p273
S'I-NP'
p274
g5
tp275
a(S'regimens'
p276
S'regimen'
p277
S'NNS'
p278
S'I-NP'
p279
g5
tp280
a(S'have'
p281
S'have'
p282
S'VBP'
p283
S'B-VP'
p284
g5
tp285
a(S'a'
p286
g286
S'DT'
p287
S'B-NP'
p288
g5
tp289
a(S'poor'
p290
S'poor'
p291
S'JJ'
p292
S'I-NP'
p293
g5
tp294
a(S'prognosis'
p295
S'prognosis'
p296
S'NN'
p297
S'I-NP'
p298
g5
tp299
a(S'and'
p300
S'and'
p301
S'CC'
p302
g5
g5
tp303
a(S'few'
p304
S'few'
p305
S'JJ'
p306
S'B-NP'
p307
g5
tp308
a(S'treatment'
p309
S'treatment'
p310
S'NN'
p311
S'I-NP'
p312
g5
tp313
a(S'options.'
p314
S'options.'
p315
S'IN'
p316
S'B-PP'
p317
g5
tp318
a(S'Afatinib'
p319
S'Afatinib'
p320
S'NNP'
p321
S'B-NP'
p322
g5
tp323
a(g161
g161
g161
g5
g5
tp324
a(S'an'
p325
S'an'
p326
S'DT'
p327
S'B-NP'
p328
g5
tp329
a(S'irreversible'
p330
S'irreversible'
p331
S'JJ'
p332
S'I-NP'
p333
g5
tp334
a(S'ERBB'
p335
S'ERBB'
p336
S'NN'
p337
S'I-NP'
p338
g5
tp339
a(S'family'
p340
S'family'
p341
S'NN'
p342
S'I-NP'
p343
g5
tp344
a(S'blocker'
p345
S'blocker'
p346
S'NN'
p347
S'I-NP'
p348
g5
tp349
a(g161
g161
g161
g5
g5
tp350
a(S'has'
p351
S'have'
p352
S'VBZ'
p353
S'B-VP'
p354
g5
tp355
a(S'shown'
p356
S'show'
p357
S'VBN'
p358
S'I-VP'
p359
g5
tp360
a(S'efficacy'
p361
S'efficacy'
p362
S'NN'
p363
S'B-NP'
p364
g5
tp365
a(S'in'
p366
S'in'
p367
S'IN'
p368
S'B-PP'
p369
g5
tp370
a(g286
g286
S'DT'
p371
S'B-NP'
p372
g5
tp373
a(S'phase'
p374
S'phase'
p375
S'NN'
p376
S'I-NP'
p377
g5
tp378
a(S'2'
p379
g379
S'CD'
p380
S'I-NP'
p381
g5
tp382
a(S'study'
p383
S'study'
p384
S'NN'
p385
S'I-NP'
p386
g5
tp387
a(S'in'
p388
S'in'
p389
S'IN'
p390
S'B-PP'
p391
g5
tp392
a(S'this'
p393
S'this'
p394
S'DT'
p395
S'B-NP'
p396
g5
tp397
a(S'setting.'
p398
S'setting.'
p399
S'FW'
p400
S'I-NP'
p401
g5
tp402
a(S'We'
p403
S'We'
p404
S'PRP'
p405
S'B-NP'
p406
g5
tp407
a(S'aimed'
p408
S'aim'
p409
S'VBD'
p410
S'B-VP'
p411
g5
tp412
a(S'to'
p413
S'to'
p414
S'TO'
p415
S'I-VP'
p416
g5
tp417
a(S'assess'
p418
S'assess'
p419
S'VB'
p420
S'I-VP'
p421
g5
tp422
a(S'the'
p423
S'the'
p424
S'DT'
p425
S'B-NP'
p426
g5
tp427
a(S'efficacy'
p428
S'efficacy'
p429
S'NN'
p430
S'I-NP'
p431
g5
tp432
a(S'and'
p433
S'and'
p434
S'CC'
p435
S'I-NP'
p436
g5
tp437
a(S'safety'
p438
S'safety'
p439
S'NN'
p440
S'I-NP'
p441
g5
tp442
a(S'of'
p443
S'of'
p444
S'IN'
p445
S'B-PP'
p446
g5
tp447
a(S'afatinib'
p448
S'afatinib'
p449
S'NN'
p450
S'B-NP'
p451
g5
tp452
a(S'compared'
p453
S'compare'
p454
S'VBN'
p455
S'B-PP'
p456
g5
tp457
a(S'with'
p458
S'with'
p459
S'IN'
p460
S'B-PP'
p461
g5
tp462
a(S'methotrexate'
p463
S'methotrexate'
p464
S'NN'
p465
S'B-NP'
p466
g5
tp467
a(S'as'
p468
S'as'
p469
S'IN'
p470
S'B-PP'
p471
g5
tp472
a(S'second-line'
p473
S'second-line'
p474
S'JJ'
p475
S'B-NP'
p476
g5
tp477
a(S'treatment'
p478
S'treatment'
p479
S'NN'
p480
S'I-NP'
p481
g5
tp482
a(S'in'
p483
S'in'
p484
S'IN'
p485
S'B-PP'
p486
g5
tp487
a(S'patients'
p488
S'patient'
p489
S'NNS'
p490
S'B-NP'
p491
g5
tp492
a(S'with'
p493
S'with'
p494
S'IN'
p495
S'B-PP'
p496
g5
tp497
a(S'recurrent'
p498
S'recurrent'
p499
S'JJ'
p500
S'B-NP'
p501
g5
tp502
a(S'or'
p503
S'or'
p504
S'CC'
p505
S'I-NP'
p506
g5
tp507
a(S'metastatic'
p508
S'metastatic'
p509
S'JJ'
p510
S'I-NP'
p511
g5
tp512
a(S'HNSCC'
p513
S'HNSCC'
p514
S'NN'
p515
S'I-NP'
p516
g5
tp517
a(S'progressing'
p518
S'progress'
p519
S'VBG'
p520
S'B-VP'
p521
g5
tp522
a(S'on'
p523
S'on'
p524
S'IN'
p525
S'B-PP'
p526
g5
tp527
a(S'or'
p528
S'or'
p529
S'CC'
p530
S'B-PP'
p531
g5
tp532
a(S'after'
p533
S'after'
p534
S'IN'
p535
S'B-PP'
p536
g5
tp537
a(S'platinum-based'
p538
S'platinum-based'
p539
S'JJ'
p540
S'B-NP'
p541
g5
tp542
a(S'therapy'
p543
S'therapy'
p544
S'NN'
p545
S'I-NP'
p546
g5
tp547
a(g182
g182
g182
g5
g5
tp548
a(S'METHODS'
p549
S'METHODS'
p550
S'NNS'
p551
S'B-NP'
p552
g5
tp553
a(S'In'
p554
S'In'
p555
S'IN'
p556
S'B-PP'
p557
g5
tp558
a(S'this'
p559
S'this'
p560
S'DT'
p561
S'B-NP'
p562
g5
tp563
a(S'open-label'
p564
S'open-label'
p565
S'NN'
p566
S'I-NP'
p567
g5
tp568
a(g161
g161
g161
g5
g5
tp569
a(S'phase'
p570
S'phase'
p571
S'NN'
p572
S'B-NP'
p573
g5
tp574
a(g173
g173
S'CD'
p575
S'I-NP'
p576
g5
tp577
a(g161
g161
g161
g5
g5
tp578
a(S'randomised'
p579
S'randomise'
p580
S'VBN'
p581
S'B-VP'
p582
g5
tp583
a(S'controlled'
p584
S'control'
p585
S'VBN'
p586
S'B-NP'
p587
g5
tp588
a(S'trial'
p589
S'trial'
p590
S'NN'
p591
S'I-NP'
p592
g5
tp593
a(S'conducted'
p594
S'conduct'
p595
S'VBN'
p596
S'B-VP'
p597
g5
tp598
a(S'in'
p599
S'in'
p600
S'IN'
p601
S'B-PP'
p602
g5
tp603
a(S'101'
p604
S'101'
p605
S'CD'
p606
S'B-NP'
p607
g5
tp608
a(S'centres'
p609
S'centre'
p610
S'NNS'
p611
S'I-NP'
p612
g5
tp613
a(S'in'
p614
S'in'
p615
S'IN'
p616
S'B-PP'
p617
g5
tp618
a(S'19'
p619
S'19'
p620
S'CD'
p621
S'B-NP'
p622
g5
tp623
a(S'countries'
p624
S'country'
p625
S'NNS'
p626
S'I-NP'
p627
g5
tp628
a(g161
g161
g161
g5
g5
tp629
a(S'we'
p630
S'we'
p631
S'PRP'
p632
S'B-NP'
p633
g5
tp634
a(S'enrolled'
p635
S'enrol'
p636
S'VBD'
p637
S'B-VP'
p638
g5
tp639
a(S'patients'
p640
S'patient'
p641
S'NNS'
p642
S'B-NP'
p643
g5
tp644
a(S'aged'
p645
S'age'
p646
S'VBN'
p647
S'B-VP'
p648
g5
tp649
a(S'18'
p650
S'18'
p651
S'CD'
p652
S'B-NP'
p653
g5
tp654
a(S'years'
p655
S'year'
p656
S'NNS'
p657
S'I-NP'
p658
g5
tp659
a(S'or'
p660
S'or'
p661
S'CC'
p662
g5
g5
tp663
a(S'older'
p664
S'old'
p665
S'JJR'
p666
S'B-ADJP'
p667
g5
tp668
a(S'with'
p669
S'with'
p670
S'IN'
p671
S'B-PP'
p672
g5
tp673
a(S'histologically'
p674
S'histologically'
p675
S'RB'
p676
S'B-ADVP'
p677
g5
tp678
a(S'or'
p679
S'or'
p680
S'CC'
p681
S'I-ADVP'
p682
g5
tp683
a(S'cytologically'
p684
S'cytologically'
p685
S'RB'
p686
S'B-NP'
p687
g5
tp688
a(S'confirmed'
p689
S'confirm'
p690
S'VBN'
p691
S'I-NP'
p692
g5
tp693
a(S'HNSCC'
p694
S'HNSCC'
p695
S'NN'
p696
S'I-NP'
p697
g5
tp698
a(S'that'
p699
S'that'
p700
S'WDT'
p701
S'B-NP'
p702
g5
tp703
a(S'was'
p704
S'be'
p705
S'VBD'
p706
S'B-VP'
p707
g5
tp708
a(S'recurrent'
p709
S'recurrent'
p710
S'JJ'
p711
S'B-ADJP'
p712
g5
tp713
a(g161
g161
g161
g5
g5
tp714
a(S'metastatic'
p715
S'metastatic'
p716
S'JJ'
p717
S'B-ADJP'
p718
g5
tp719
a(g161
g161
g161
g5
g5
tp720
a(S'or'
p721
S'or'
p722
S'CC'
p723
g5
g5
tp724
a(S'both'
p725
S'both'
p726
S'DT'
p727
g5
g5
tp728
a(S'who'
p729
S'who'
p730
S'WP'
p731
S'B-NP'
p732
g5
tp733
a(S'had'
p734
S'have'
p735
S'VBD'
p736
S'B-VP'
p737
g5
tp738
a(S'progressed'
p739
S'progress'
p740
S'VBN'
p741
S'I-VP'
p742
g5
tp743
a(S'on'
p744
S'on'
p745
S'IN'
p746
S'B-PP'
p747
g5
tp748
a(S'or'
p749
S'or'
p750
S'CC'
p751
S'I-PP'
p752
g5
tp753
a(S'after'
p754
S'after'
p755
S'IN'
p756
S'I-PP'
p757
g5
tp758
a(S'first-line'
p759
S'first-line'
p760
S'JJ'
p761
S'B-NP'
p762
g5
tp763
a(S'platinum-based'
p764
S'platinum-based'
p765
S'JJ'
p766
S'I-NP'
p767
g5
tp768
a(S'therapy'
p769
S'therapy'
p770
S'NN'
p771
S'I-NP'
p772
g5
tp773
a(g161
g161
g161
g5
g5
tp774
a(S'were'
p775
S'be'
p776
S'VBD'
p777
S'B-VP'
p778
g5
tp779
a(S'not'
p780
S'not'
p781
S'RB'
p782
g5
g5
tp783
a(S'amenable'
p784
S'amenable'
p785
S'JJ'
p786
S'B-ADJP'
p787
g5
tp788
a(S'for'
p789
S'for'
p790
S'IN'
p791
S'B-PP'
p792
g5
tp793
a(S'salvage'
p794
S'salvage'
p795
S'NN'
p796
S'B-NP'
p797
g5
tp798
a(S'surgery'
p799
S'surgery'
p800
S'NN'
p801
S'I-NP'
p802
g5
tp803
a(S'or'
p804
S'or'
p805
S'CC'
p806
S'I-NP'
p807
g5
tp808
a(S'radiotherapy'
p809
S'radiotherapy'
p810
S'NN'
p811
S'I-NP'
p812
g5
tp813
a(g161
g161
g161
g5
g5
tp814
a(S'and'
p815
S'and'
p816
S'CC'
p817
g5
g5
tp818
a(S'who'
p819
S'who'
p820
S'WP'
p821
S'B-NP'
p822
g5
tp823
a(S'had'
p824
S'have'
p825
S'VBD'
p826
S'B-VP'
p827
g5
tp828
a(S'an'
p829
S'an'
p830
S'DT'
p831
S'B-NP'
p832
g5
tp833
a(S'Eastern'
p834
S'Eastern'
p835
S'NNP'
p836
S'I-NP'
p837
g5
tp838
a(S'Cooperative'
p839
S'Cooperative'
p840
S'NNP'
p841
S'I-NP'
p842
g5
tp843
a(S'Oncology'
p844
S'Oncology'
p845
S'NNP'
p846
S'I-NP'
p847
g5
tp848
a(S'Group'
p849
S'Group'
p850
S'NNP'
p851
S'I-NP'
p852
g5
tp853
a(g127
g127
g127
g5
g5
tp854
a(S'ECOG'
p855
S'ECOG'
p856
S'NN'
p857
S'B-NP'
p858
g5
tp859
a(g147
g147
g147
g5
g5
tp860
a(S'performance'
p861
S'performance'
p862
S'NN'
p863
S'B-NP'
p864
g5
tp865
a(S'status'
p866
S'status'
p867
S'NN'
p868
S'I-NP'
p869
g5
tp870
a(S'of'
p871
S'of'
p872
S'IN'
p873
S'B-PP'
p874
g5
tp875
a(S'0'
p876
g876
S'CD'
p877
S'B-NP'
p878
g5
tp879
a(S'or'
p880
S'or'
p881
S'CC'
p882
S'I-NP'
p883
g5
tp884
a(S'1.'
p885
S'1.'
p886
S'CD'
p887
S'I-NP'
p888
g5
tp889
a(S'Previous'
p890
S'Previous'
p891
S'JJ'
p892
S'I-NP'
p893
g5
tp894
a(S'treatment'
p895
S'treatment'
p896
S'NN'
p897
S'I-NP'
p898
g5
tp899
a(S'with'
p900
S'with'
p901
S'IN'
p902
S'B-PP'
p903
g5
tp904
a(S'more'
p905
S'more'
p906
S'JJR'
p907
S'B-NP'
p908
g5
tp909
a(S'than'
p910
S'than'
p911
S'IN'
p912
S'I-NP'
p913
g5
tp914
a(S'one'
p915
S'one'
p916
S'CD'
p917
S'I-NP'
p918
g5
tp919
a(S'systemic'
p920
S'systemic'
p921
S'JJ'
p922
S'I-NP'
p923
g5
tp924
a(S'regimen'
p925
S'regimen'
p926
S'NN'
p927
S'I-NP'
p928
g5
tp929
a(S'in'
p930
S'in'
p931
S'IN'
p932
S'B-PP'
p933
g5
tp934
a(S'this'
p935
S'this'
p936
S'DT'
p937
S'B-NP'
p938
g5
tp939
a(S'setting'
p940
S'setting'
p941
S'NN'
p942
S'I-NP'
p943
g5
tp944
a(S'was'
p945
S'be'
p946
S'VBD'
p947
S'B-VP'
p948
g5
tp949
a(S'not'
p950
S'not'
p951
S'RB'
p952
S'I-VP'
p953
g5
tp954
a(S'allowed'
p955
S'allow'
p956
S'VBN'
p957
S'I-VP'
p958
g5
tp959
a(S';'
p960
g960
g149
g5
g5
tp961
a(S'previous'
p962
S'previous'
p963
S'JJ'
p964
S'B-NP'
p965
g5
tp966
a(S'treatment'
p967
S'treatment'
p968
S'NN'
p969
S'I-NP'
p970
g5
tp971
a(S'with'
p972
S'with'
p973
S'IN'
p974
S'B-PP'
p975
g5
tp976
a(S'EGFR-targeted'
p977
S'EGFR-targeted'
p978
S'JJ'
p979
S'B-NP'
p980
g5
tp981
a(S'antibody'
p982
S'antibody'
p983
S'NN'
p984
S'I-NP'
p985
g5
tp986
a(S'therapy'
p987
S'therapy'
p988
S'NN'
p989
S'I-NP'
p990
g5
tp991
a(g127
g127
g127
g5
g5
tp992
a(S'but'
p993
S'but'
p994
S'CC'
p995
g5
g5
tp996
a(S'not'
p997
S'not'
p998
S'RB'
p999
g5
g5
tp1000
a(S'EGFR-targeted'
p1001
S'EGFR-targeted'
p1002
S'JJ'
p1003
S'B-NP'
p1004
S'B-protein'
p1005
tp1006
a(S'tyrosine-kinase'
p1007
S'tyrosine-kinase'
p1008
S'NN'
p1009
S'I-NP'
p1010
S'I-protein'
p1011
tp1012
a(S'inhibitors'
p1013
S'inhibitor'
p1014
S'NNS'
p1015
S'I-NP'
p1016
g5
tp1017
a(g147
g147
g147
g5
g5
tp1018
a(S'was'
p1019
S'be'
p1020
S'VBD'
p1021
S'B-VP'
p1022
g5
tp1023
a(S'allowed.'
p1024
S'allowed.'
p1025
S'VBN'
p1026
S'I-VP'
p1027
g5
tp1028
a(S'We'
p1029
S'We'
p1030
S'PRP'
p1031
S'B-NP'
p1032
g5
tp1033
a(S'randomly'
p1034
S'randomly'
p1035
S'RB'
p1036
S'B-ADVP'
p1037
g5
tp1038
a(S'assigned'
p1039
S'assign'
p1040
S'VBD'
p1041
S'B-VP'
p1042
g5
tp1043
a(S'eligible'
p1044
S'eligible'
p1045
S'JJ'
p1046
S'B-NP'
p1047
g5
tp1048
a(S'patients'
p1049
S'patient'
p1050
S'NNS'
p1051
S'I-NP'
p1052
g5
tp1053
a(S'in'
p1054
S'in'
p1055
S'IN'
p1056
S'B-PP'
p1057
g5
tp1058
a(g286
g286
S'DT'
p1059
S'B-NP'
p1060
g5
tp1061
a(g379
g379
S'CD'
p1062
S'I-NP'
p1063
g5
tp1064
a(g149
g149
S'SYM'
p1065
S'I-NP'
p1066
g5
tp1067
a(g143
g143
S'CD'
p1068
S'I-NP'
p1069
g5
tp1070
a(S'ratio'
p1071
S'ratio'
p1072
S'NN'
p1073
S'I-NP'
p1074
g5
tp1075
a(S'to'
p1076
S'to'
p1077
S'TO'
p1078
S'B-VP'
p1079
g5
tp1080
a(S'receive'
p1081
S'receive'
p1082
S'VB'
p1083
S'I-VP'
p1084
g5
tp1085
a(S'oral'
p1086
S'oral'
p1087
S'JJ'
p1088
S'B-NP'
p1089
g5
tp1090
a(S'afatinib'
p1091
S'afatinib'
p1092
S'NN'
p1093
S'I-NP'
p1094
g5
tp1095
a(g127
g127
g127
g5
g5
tp1096
a(S'40'
p1097
S'40'
p1098
S'CD'
p1099
S'B-NP'
p1100
g5
tp1101
a(S'mg/day'
p1102
S'mg/day'
p1103
S'NN'
p1104
S'I-NP'
p1105
g5
tp1106
a(g147
g147
g147
g5
g5
tp1107
a(S'or'
p1108
S'or'
p1109
S'CC'
p1110
g5
g5
tp1111
a(S'intravenous'
p1112
S'intravenous'
p1113
S'JJ'
p1114
S'B-NP'
p1115
g5
tp1116
a(S'methotrexate'
p1117
S'methotrexate'
p1118
S'NN'
p1119
S'I-NP'
p1120
g5
tp1121
a(g127
g127
g127
g5
g5
tp1122
a(S'40'
p1123
S'40'
p1124
S'CD'
p1125
S'B-NP'
p1126
g5
tp1127
a(S'mg/m'
p1128
S'mg/m'
p1129
S'NN'
p1130
S'I-NP'
p1131
g5
tp1132
a(g127
g127
g127
g5
g5
tp1133
a(g379
g379
S'CD'
p1134
S'B-NP'
p1135
g5
tp1136
a(g147
g147
g147
g5
g5
tp1137
a(S'per'
p1138
S'per'
p1139
S'IN'
p1140
S'B-PP'
p1141
g5
tp1142
a(S'week'
p1143
S'week'
p1144
S'NN'
p1145
S'B-NP'
p1146
g5
tp1147
a(g147
g147
g147
g5
g5
tp1148
a(g161
g161
g161
g5
g5
tp1149
a(S'stratified'
p1150
S'stratify'
p1151
S'VBN'
p1152
S'B-VP'
p1153
g5
tp1154
a(S'by'
p1155
S'by'
p1156
S'IN'
p1157
S'B-PP'
p1158
g5
tp1159
a(S'ECOG'
p1160
S'ECOG'
p1161
S'NN'
p1162
S'B-NP'
p1163
g5
tp1164
a(S'performance'
p1165
S'performance'
p1166
S'NN'
p1167
S'I-NP'
p1168
g5
tp1169
a(S'status'
p1170
S'status'
p1171
S'NN'
p1172
S'I-NP'
p1173
g5
tp1174
a(S'and'
p1175
S'and'
p1176
S'CC'
p1177
g5
g5
tp1178
a(S'previous'
p1179
S'previous'
p1180
S'JJ'
p1181
S'B-NP'
p1182
g5
tp1183
a(S'EGFR-targeted'
p1184
S'EGFR-targeted'
p1185
S'JJ'
p1186
S'I-NP'
p1187
g5
tp1188
a(S'antibody'
p1189
S'antibody'
p1190
S'NN'
p1191
S'I-NP'
p1192
g5
tp1193
a(S'therapy'
p1194
S'therapy'
p1195
S'NN'
p1196
S'I-NP'
p1197
g5
tp1198
a(S'for'
p1199
S'for'
p1200
S'IN'
p1201
S'B-PP'
p1202
g5
tp1203
a(S'recurrent'
p1204
S'recurrent'
p1205
S'JJ'
p1206
S'B-NP'
p1207
g5
tp1208
a(S'or'
p1209
S'or'
p1210
S'CC'
p1211
S'I-NP'
p1212
g5
tp1213
a(S'metastatic'
p1214
S'metastatic'
p1215
S'JJ'
p1216
S'I-NP'
p1217
g5
tp1218
a(S'disease.'
p1219
S'disease.'
p1220
S'NN'
p1221
S'I-NP'
p1222
g5
tp1223
a(S'Randomisation'
p1224
S'Randomisation'
p1225
S'NN'
p1226
S'I-NP'
p1227
g5
tp1228
a(S'was'
p1229
S'be'
p1230
S'VBD'
p1231
S'B-VP'
p1232
g5
tp1233
a(S'done'
p1234
S'do'
p1235
S'VBN'
p1236
S'I-VP'
p1237
g5
tp1238
a(S'centrally'
p1239
S'centrally'
p1240
S'RB'
p1241
S'B-ADVP'
p1242
g5
tp1243
a(S'with'
p1244
S'with'
p1245
S'IN'
p1246
S'B-PP'
p1247
g5
tp1248
a(S'an'
p1249
S'an'
p1250
S'DT'
p1251
S'B-NP'
p1252
g5
tp1253
a(S'interactive'
p1254
S'interactive'
p1255
S'JJ'
p1256
S'I-NP'
p1257
g5
tp1258
a(S'voice'
p1259
S'voice'
p1260
S'NN'
p1261
S'I-NP'
p1262
g5
tp1263
a(S'or'
p1264
S'or'
p1265
S'CC'
p1266
g5
g5
tp1267
a(S'web-based'
p1268
S'web-based'
p1269
S'JJ'
p1270
S'B-NP'
p1271
g5
tp1272
a(S'response'
p1273
S'response'
p1274
S'NN'
p1275
S'I-NP'
p1276
g5
tp1277
a(S'system.'
p1278
S'system.'
p1279
S'NN'
p1280
S'I-NP'
p1281
g5
tp1282
a(S'Clinicians'
p1283
S'Clinician'
p1284
S'NNS'
p1285
S'I-NP'
p1286
g5
tp1287
a(S'and'
p1288
S'and'
p1289
S'CC'
p1290
g5
g5
tp1291
a(S'patients'
p1292
S'patient'
p1293
S'NNS'
p1294
S'B-NP'
p1295
g5
tp1296
a(S'were'
p1297
S'be'
p1298
S'VBD'
p1299
S'B-VP'
p1300
g5
tp1301
a(S'not'
p1302
S'not'
p1303
S'RB'
p1304
S'I-VP'
p1305
g5
tp1306
a(S'masked'
p1307
S'mask'
p1308
S'VBN'
p1309
S'I-VP'
p1310
g5
tp1311
a(S'to'
p1312
S'to'
p1313
S'TO'
p1314
S'B-PP'
p1315
g5
tp1316
a(S'treatment'
p1317
S'treatment'
p1318
S'NN'
p1319
S'B-NP'
p1320
g5
tp1321
a(S'allocation'
p1322
S'allocation'
p1323
S'NN'
p1324
S'I-NP'
p1325
g5
tp1326
a(g960
g960
g149
g5
g5
tp1327
a(S'independent'
p1328
S'independent'
p1329
S'JJ'
p1330
S'B-NP'
p1331
g5
tp1332
a(S'review'
p1333
S'review'
p1334
S'NN'
p1335
S'I-NP'
p1336
g5
tp1337
a(S'of'
p1338
S'of'
p1339
S'IN'
p1340
S'B-PP'
p1341
g5
tp1342
a(S'tumour'
p1343
S'tumour'
p1344
S'NN'
p1345
S'B-NP'
p1346
g5
tp1347
a(S'response'
p1348
S'response'
p1349
S'NN'
p1350
S'I-NP'
p1351
g5
tp1352
a(S'was'
p1353
S'be'
p1354
S'VBD'
p1355
S'B-VP'
p1356
g5
tp1357
a(S'done'
p1358
S'do'
p1359
S'VBN'
p1360
S'I-VP'
p1361
g5
tp1362
a(S'in'
p1363
S'in'
p1364
S'IN'
p1365
S'B-PP'
p1366
g5
tp1367
a(g286
g286
S'DT'
p1368
S'B-NP'
p1369
g5
tp1370
a(S'blinded'
p1371
S'blinded'
p1372
S'JJ'
p1373
S'I-NP'
p1374
g5
tp1375
a(S'manner.'
p1376
S'manner.'
p1377
S'NN'
p1378
S'I-NP'
p1379
g5
tp1380
a(S'The'
p1381
S'The'
p1382
S'DT'
p1383
S'B-NP'
p1384
g5
tp1385
a(S'primary'
p1386
S'primary'
p1387
S'JJ'
p1388
S'I-NP'
p1389
g5
tp1390
a(S'endpoint'
p1391
S'endpoint'
p1392
S'NN'
p1393
S'I-NP'
p1394
g5
tp1395
a(S'was'
p1396
S'be'
p1397
S'VBD'
p1398
S'B-VP'
p1399
g5
tp1400
a(S'progression-free'
p1401
S'progression-free'
p1402
S'JJ'
p1403
S'B-NP'
p1404
g5
tp1405
a(S'survival'
p1406
S'survival'
p1407
S'NN'
p1408
S'I-NP'
p1409
g5
tp1410
a(S'as'
p1411
S'as'
p1412
S'IN'
p1413
S'B-SBAR'
p1414
g5
tp1415
a(S'assessed'
p1416
S'assess'
p1417
S'VBN'
p1418
S'B-VP'
p1419
g5
tp1420
a(S'by'
p1421
S'by'
p1422
S'IN'
p1423
S'B-PP'
p1424
g5
tp1425
a(S'an'
p1426
S'an'
p1427
S'DT'
p1428
S'B-NP'
p1429
g5
tp1430
a(S'independent'
p1431
S'independent'
p1432
S'JJ'
p1433
S'I-NP'
p1434
g5
tp1435
a(g161
g161
g161
S'I-NP'
p1436
g5
tp1437
a(S'central'
p1438
S'central'
p1439
S'JJ'
p1440
S'I-NP'
p1441
g5
tp1442
a(S'imaging'
p1443
S'imaging'
p1444
S'NN'
p1445
S'I-NP'
p1446
g5
tp1447
a(S'review'
p1448
S'review'
p1449
S'NN'
p1450
S'I-NP'
p1451
g5
tp1452
a(S'committee.'
p1453
S'committee.'
p1454
S'NN'
p1455
S'I-NP'
p1456
g5
tp1457
a(S'Efficacy'
p1458
S'Efficacy'
p1459
S'NN'
p1460
S'I-NP'
p1461
g5
tp1462
a(S'analyses'
p1463
S'analysis'
p1464
S'NNS'
p1465
S'I-NP'
p1466
g5
tp1467
a(S'were'
p1468
S'be'
p1469
S'VBD'
p1470
S'B-VP'
p1471
g5
tp1472
a(S'done'
p1473
S'do'
p1474
S'VBN'
p1475
S'I-VP'
p1476
g5
tp1477
a(S'in'
p1478
S'in'
p1479
S'IN'
p1480
S'B-PP'
p1481
g5
tp1482
a(S'the'
p1483
S'the'
p1484
S'DT'
p1485
S'B-NP'
p1486
g5
tp1487
a(S'intention-to-treat'
p1488
S'intention-to-treat'
p1489
S'JJ'
p1490
S'I-NP'
p1491
g5
tp1492
a(S'population'
p1493
S'population'
p1494
S'NN'
p1495
S'I-NP'
p1496
g5
tp1497
a(S'and'
p1498
S'and'
p1499
S'CC'
p1500
S'I-NP'
p1501
g5
tp1502
a(S'safety'
p1503
S'safety'
p1504
S'NN'
p1505
S'I-NP'
p1506
g5
tp1507
a(S'analyses'
p1508
S'analysis'
p1509
S'NNS'
p1510
S'I-NP'
p1511
g5
tp1512
a(S'were'
p1513
S'be'
p1514
S'VBD'
p1515
S'B-VP'
p1516
g5
tp1517
a(S'done'
p1518
S'do'
p1519
S'VBN'
p1520
S'I-VP'
p1521
g5
tp1522
a(S'in'
p1523
S'in'
p1524
S'IN'
p1525
S'B-PP'
p1526
g5
tp1527
a(S'patients'
p1528
S'patient'
p1529
S'NNS'
p1530
S'B-NP'
p1531
g5
tp1532
a(S'who'
p1533
S'who'
p1534
S'WP'
p1535
S'B-NP'
p1536
g5
tp1537
a(S'received'
p1538
S'receive'
p1539
S'VBD'
p1540
S'B-VP'
p1541
g5
tp1542
a(S'at'
p1543
S'at'
p1544
S'IN'
p1545
S'B-NP'
p1546
g5
tp1547
a(S'least'
p1548
S'least'
p1549
S'JJS'
p1550
S'I-NP'
p1551
g5
tp1552
a(S'one'
p1553
S'one'
p1554
S'CD'
p1555
S'I-NP'
p1556
g5
tp1557
a(S'dose'
p1558
S'dose'
p1559
S'NN'
p1560
S'I-NP'
p1561
g5
tp1562
a(S'of'
p1563
S'of'
p1564
S'IN'
p1565
S'B-PP'
p1566
g5
tp1567
a(S'study'
p1568
S'study'
p1569
S'NN'
p1570
S'B-NP'
p1571
g5
tp1572
a(S'drug.'
p1573
S'drug.'
p1574
S'VBP'
p1575
S'B-VP'
p1576
g5
tp1577
a(S'This'
p1578
S'This'
p1579
S'DT'
p1580
S'B-NP'
p1581
g5
tp1582
a(S'ongoing'
p1583
S'ongoing'
p1584
S'JJ'
p1585
S'I-NP'
p1586
g5
tp1587
a(S'study'
p1588
S'study'
p1589
S'NN'
p1590
S'I-NP'
p1591
g5
tp1592
a(S'is'
p1593
S'be'
p1594
S'VBZ'
p1595
S'B-VP'
p1596
g5
tp1597
a(S'registered'
p1598
S'register'
p1599
S'VBN'
p1600
S'I-VP'
p1601
g5
tp1602
a(S'with'
p1603
S'with'
p1604
S'IN'
p1605
S'B-PP'
p1606
g5
tp1607
a(S'ClinicalTrials.gov'
p1608
S'ClinicalTrials.gov'
p1609
S'NN'
p1610
S'B-NP'
p1611
g5
tp1612
a(g161
g161
g161
g5
g5
tp1613
a(S'number'
p1614
S'number'
p1615
S'NN'
p1616
S'B-NP'
p1617
g5
tp1618
a(S'NCT01345682'
p1619
S'NCT01345682'
p1620
S'NN'
p1621
S'I-NP'
p1622
g5
tp1623
a(g182
g182
g182
g5
g5
tp1624
a(S'FINDINGS'
p1625
S'FINDINGS'
p1626
S'NNP'
p1627
S'B-NP'
p1628
g5
tp1629
a(S'Between'
p1630
S'Between'
p1631
S'NNP'
p1632
S'I-NP'
p1633
g5
tp1634
a(S'Jan'
p1635
S'Jan'
p1636
S'NNP'
p1637
S'I-NP'
p1638
g5
tp1639
a(S'10'
p1640
S'10'
p1641
S'CD'
p1642
S'I-NP'
p1643
g5
tp1644
a(g161
g161
g161
S'I-NP'
p1645
g5
tp1646
a(S'2012'
p1647
S'2012'
p1648
S'CD'
p1649
S'I-NP'
p1650
g5
tp1651
a(g161
g161
g161
g5
g5
tp1652
a(S'and'
p1653
S'and'
p1654
S'CC'
p1655
g5
g5
tp1656
a(S'Dec'
p1657
S'Dec'
p1658
S'NNP'
p1659
S'B-NP'
p1660
g5
tp1661
a(S'12'
p1662
S'12'
p1663
S'CD'
p1664
S'I-NP'
p1665
g5
tp1666
a(g161
g161
g161
S'I-NP'
p1667
g5
tp1668
a(S'2013'
p1669
S'2013'
p1670
S'CD'
p1671
S'I-NP'
p1672
g5
tp1673
a(g161
g161
g161
g5
g5
tp1674
a(S'we'
p1675
S'we'
p1676
S'PRP'
p1677
S'B-NP'
p1678
g5
tp1679
a(S'enrolled'
p1680
S'enrol'
p1681
S'VBD'
p1682
S'B-VP'
p1683
g5
tp1684
a(S'483'
p1685
S'483'
p1686
S'CD'
p1687
S'B-NP'
p1688
g5
tp1689
a(S'patients'
p1690
S'patient'
p1691
S'NNS'
p1692
S'I-NP'
p1693
g5
tp1694
a(S'and'
p1695
S'and'
p1696
S'CC'
p1697
g5
g5
tp1698
a(S'randomly'
p1699
S'randomly'
p1700
S'RB'
p1701
S'B-VP'
p1702
g5
tp1703
a(S'assigned'
p1704
S'assign'
p1705
S'VBN'
p1706
S'I-VP'
p1707
g5
tp1708
a(S'322'
p1709
S'322'
p1710
S'CD'
p1711
S'B-NP'
p1712
g5
tp1713
a(S'to'
p1714
S'to'
p1715
S'TO'
p1716
S'B-VP'
p1717
g5
tp1718
a(S'afatinib'
p1719
S'afatinib'
p1720
S'VB'
p1721
S'I-VP'
p1722
g5
tp1723
a(S'and'
p1724
S'and'
p1725
S'CC'
p1726
g5
g5
tp1727
a(S'161'
p1728
S'161'
p1729
S'CD'
p1730
S'B-NP'
p1731
g5
tp1732
a(S'to'
p1733
S'to'
p1734
S'TO'
p1735
S'B-PP'
p1736
g5
tp1737
a(S'methotrexate.'
p1738
S'methotrexate.'
p1739
S'NN'
p1740
S'B-NP'
p1741
g5
tp1742
a(S'After'
p1743
S'After'
p1744
S'IN'
p1745
S'B-PP'
p1746
g5
tp1747
a(g286
g286
S'DT'
p1748
S'B-NP'
p1749
g5
tp1750
a(S'median'
p1751
S'median'
p1752
S'JJ'
p1753
S'I-NP'
p1754
g5
tp1755
a(S'follow-up'
p1756
S'follow-up'
p1757
S'NN'
p1758
S'I-NP'
p1759
g5
tp1760
a(S'of'
p1761
S'of'
p1762
S'IN'
p1763
S'B-PP'
p1764
g5
tp1765
a(S'6\xc2\xb77'
p1766
S'6\xc2\xb77'
p1767
S'CD'
p1768
S'B-NP'
p1769
g5
tp1770
a(S'months'
p1771
S'month'
p1772
S'NNS'
p1773
S'I-NP'
p1774
g5
tp1775
a(g127
g127
g127
g5
g5
tp1776
a(S'IQR'
p1777
S'IQR'
p1778
S'NN'
p1779
S'B-NP'
p1780
S'B-protein'
p1781
tp1782
a(S'3\xc2\xb71-9\xc2\xb70'
p1783
S'3\xc2\xb71-9\xc2\xb70'
p1784
S'CD'
p1785
S'I-NP'
p1786
S'I-protein'
p1787
tp1788
a(g147
g147
g147
g5
g5
tp1789
a(g161
g161
g161
g5
g5
tp1790
a(S'progression-free'
p1791
S'progression-free'
p1792
S'JJ'
p1793
S'B-NP'
p1794
g5
tp1795
a(S'survival'
p1796
S'survival'
p1797
S'NN'
p1798
S'I-NP'
p1799
g5
tp1800
a(S'was'
p1801
S'be'
p1802
S'VBD'
p1803
S'B-VP'
p1804
g5
tp1805
a(S'longer'
p1806
S'longer'
p1807
S'RBR'
p1808
S'B-ADVP'
p1809
g5
tp1810
a(S'in'
p1811
S'in'
p1812
S'IN'
p1813
S'B-PP'
p1814
g5
tp1815
a(S'the'
p1816
S'the'
p1817
S'DT'
p1818
S'B-NP'
p1819
g5
tp1820
a(S'afatinib'
p1821
S'afatinib'
p1822
S'JJ'
p1823
S'I-NP'
p1824
g5
tp1825
a(S'group'
p1826
S'group'
p1827
S'NN'
p1828
S'I-NP'
p1829
g5
tp1830
a(S'than'
p1831
S'than'
p1832
S'IN'
p1833
S'B-PP'
p1834
g5
tp1835
a(S'in'
p1836
S'in'
p1837
S'IN'
p1838
S'B-PP'
p1839
g5
tp1840
a(S'the'
p1841
S'the'
p1842
S'DT'
p1843
S'B-NP'
p1844
g5
tp1845
a(S'methotrexate'
p1846
S'methotrexate'
p1847
S'NN'
p1848
S'I-NP'
p1849
g5
tp1850
a(S'group'
p1851
S'group'
p1852
S'NN'
p1853
S'I-NP'
p1854
g5
tp1855
a(g127
g127
g127
g5
g5
tp1856
a(S'median'
p1857
S'median'
p1858
S'NN'
p1859
S'B-NP'
p1860
g5
tp1861
a(S'2\xc2\xb76'
p1862
S'2\xc2\xb76'
p1863
S'CD'
p1864
S'B-NP'
p1865
g5
tp1866
a(S'months'
p1867
S'month'
p1868
S'NNS'
p1869
S'I-NP'
p1870
g5
tp1871
a(S'['
p1872
g1872
g127
g5
g5
tp1873
a(S'95'
p1874
S'95'
p1875
S'CD'
p1876
S'B-NP'
p1877
g5
tp1878
a(S'%'
p1879
g1879
S'NN'
p1880
S'I-NP'
p1881
g5
tp1882
a(S'CI'
p1883
S'CI'
p1884
S'NN'
p1885
S'I-NP'
p1886
g5
tp1887
a(S'2\xc2\xb70-2\xc2\xb77'
p1888
S'2\xc2\xb70-2\xc2\xb77'
p1889
S'CD'
p1890
S'I-NP'
p1891
g5
tp1892
a(S']'
p1893
g1893
g147
g5
g5
tp1894
a(S'for'
p1895
S'for'
p1896
S'IN'
p1897
S'B-PP'
p1898
g5
tp1899
a(S'the'
p1900
S'the'
p1901
S'DT'
p1902
S'B-NP'
p1903
g5
tp1904
a(S'afatinib'
p1905
S'afatinib'
p1906
S'JJ'
p1907
S'I-NP'
p1908
g5
tp1909
a(S'group'
p1910
S'group'
p1911
S'NN'
p1912
S'I-NP'
p1913
g5
tp1914
a(S'vs'
p1915
S'vs'
p1916
S'IN'
p1917
S'B-PP'
p1918
g5
tp1919
a(S'1\xc2\xb77'
p1920
S'1\xc2\xb77'
p1921
S'CD'
p1922
S'B-NP'
p1923
g5
tp1924
a(S'months'
p1925
S'month'
p1926
S'NNS'
p1927
S'I-NP'
p1928
g5
tp1929
a(g1872
g1872
g127
g5
g5
tp1930
a(S'1\xc2\xb75-2\xc2\xb74'
p1931
S'1\xc2\xb75-2\xc2\xb74'
p1932
S'CD'
p1933
S'B-NP'
p1934
g5
tp1935
a(g1893
g1893
g147
g5
g5
tp1936
a(S'for'
p1937
S'for'
p1938
S'IN'
p1939
S'B-PP'
p1940
g5
tp1941
a(S'the'
p1942
S'the'
p1943
S'DT'
p1944
S'B-NP'
p1945
g5
tp1946
a(S'methotrexate'
p1947
S'methotrexate'
p1948
S'NN'
p1949
S'I-NP'
p1950
g5
tp1951
a(S'group'
p1952
S'group'
p1953
S'NN'
p1954
S'I-NP'
p1955
g5
tp1956
a(g960
g960
g149
g5
g5
tp1957
a(S'hazard'
p1958
S'hazard'
p1959
S'NN'
p1960
S'B-NP'
p1961
g5
tp1962
a(S'ratio'
p1963
S'ratio'
p1964
S'NN'
p1965
S'I-NP'
p1966
g5
tp1967
a(g1872
g1872
g127
g5
g5
tp1968
a(S'HR'
p1969
S'HR'
p1970
S'NN'
p1971
S'B-NP'
p1972
g5
tp1973
a(g1893
g1893
g147
g5
g5
tp1974
a(S'0\xc2\xb780'
p1975
S'0\xc2\xb780'
p1976
S'CD'
p1977
S'B-NP'
p1978
g5
tp1979
a(g1872
g1872
g127
g5
g5
tp1980
a(S'95'
p1981
S'95'
p1982
S'CD'
p1983
S'B-NP'
p1984
g5
tp1985
a(g1879
g1879
S'NN'
p1986
S'I-NP'
p1987
g5
tp1988
a(S'CI'
p1989
S'CI'
p1990
S'NN'
p1991
S'I-NP'
p1992
g5
tp1993
a(S'0\xc2\xb765-0\xc2\xb798'
p1994
S'0\xc2\xb765-0\xc2\xb798'
p1995
S'CD'
p1996
S'I-NP'
p1997
g5
tp1998
a(g1893
g1893
g147
g5
g5
tp1999
a(g161
g161
g161
g5
g5
tp2000
a(S'p=0\xc2\xb7030'
p2001
S'p=0\xc2\xb7030'
p2002
S'NN'
p2003
S'B-NP'
p2004
g5
tp2005
a(g147
g147
g147
g5
g5
tp2006
a(g182
g182
g182
g5
g5
tp2007
a(S'The'
p2008
S'The'
p2009
S'DT'
p2010
S'B-NP'
p2011
g5
tp2012
a(S'most'
p2013
S'most'
p2014
S'RBS'
p2015
S'I-NP'
p2016
g5
tp2017
a(S'frequent'
p2018
S'frequent'
p2019
S'JJ'
p2020
S'I-NP'
p2021
g5
tp2022
a(S'grade'
p2023
S'grade'
p2024
S'NN'
p2025
S'I-NP'
p2026
g5
tp2027
a(g173
g173
S'CD'
p2028
S'B-NP'
p2029
g5
tp2030
a(S'or'
p2031
S'or'
p2032
S'CC'
p2033
S'I-NP'
p2034
g5
tp2035
a(S'4'
p2036
g2036
S'CD'
p2037
S'I-NP'
p2038
g5
tp2039
a(S'drug-related'
p2040
S'drug-related'
p2041
S'JJ'
p2042
S'I-NP'
p2043
g5
tp2044
a(S'adverse'
p2045
S'adverse'
p2046
S'JJ'
p2047
S'I-NP'
p2048
g5
tp2049
a(S'events'
p2050
S'event'
p2051
S'NNS'
p2052
S'I-NP'
p2053
g5
tp2054
a(S'were'
p2055
S'be'
p2056
S'VBD'
p2057
S'B-VP'
p2058
g5
tp2059
a(S'rash'
p2060
S'rash'
p2061
S'NN'
p2062
S'B-NP'
p2063
g5
tp2064
a(S'or'
p2065
S'or'
p2066
S'CC'
p2067
S'I-NP'
p2068
g5
tp2069
a(S'acne'
p2070
S'acne'
p2071
S'NN'
p2072
S'I-NP'
p2073
g5
tp2074
a(g127
g127
g127
g5
g5
tp2075
a(S'31'
p2076
S'31'
p2077
S'CD'
p2078
S'B-NP'
p2079
g5
tp2080
a(g1872
g1872
g127
g5
g5
tp2081
a(S'10'
p2082
S'10'
p2083
S'CD'
p2084
S'B-NP'
p2085
g5
tp2086
a(g1879
g1879
S'NN'
p2087
S'I-NP'
p2088
g5
tp2089
a(g1893
g1893
g147
g5
g5
tp2090
a(S'of'
p2091
S'of'
p2092
S'IN'
p2093
S'B-PP'
p2094
g5
tp2095
a(S'320'
p2096
S'320'
p2097
S'CD'
p2098
S'B-NP'
p2099
g5
tp2100
a(S'patients'
p2101
S'patient'
p2102
S'NNS'
p2103
S'I-NP'
p2104
g5
tp2105
a(S'in'
p2106
S'in'
p2107
S'IN'
p2108
S'B-PP'
p2109
g5
tp2110
a(S'the'
p2111
S'the'
p2112
S'DT'
p2113
S'B-NP'
p2114
g5
tp2115
a(S'afatinib'
p2116
S'afatinib'
p2117
S'JJ'
p2118
S'I-NP'
p2119
g5
tp2120
a(S'group'
p2121
S'group'
p2122
S'NN'
p2123
S'I-NP'
p2124
g5
tp2125
a(S'vs'
p2126
S'vs'
p2127
S'IN'
p2128
S'B-PP'
p2129
g5
tp2130
a(S'none'
p2131
S'none'
p2132
S'NN'
p2133
S'B-NP'
p2134
g5
tp2135
a(S'of'
p2136
S'of'
p2137
S'IN'
p2138
S'B-PP'
p2139
g5
tp2140
a(S'160'
p2141
S'160'
p2142
S'CD'
p2143
S'B-NP'
p2144
g5
tp2145
a(S'patients'
p2146
S'patient'
p2147
S'NNS'
p2148
S'I-NP'
p2149
g5
tp2150
a(S'in'
p2151
S'in'
p2152
S'IN'
p2153
S'B-PP'
p2154
g5
tp2155
a(S'the'
p2156
S'the'
p2157
S'DT'
p2158
S'B-NP'
p2159
g5
tp2160
a(S'methotrexate'
p2161
S'methotrexate'
p2162
S'NN'
p2163
S'I-NP'
p2164
g5
tp2165
a(S'group'
p2166
S'group'
p2167
S'NN'
p2168
S'I-NP'
p2169
g5
tp2170
a(g147
g147
g147
g5
g5
tp2171
a(g161
g161
g161
g5
g5
tp2172
a(S'diarrhoea'
p2173
S'diarrhoea'
p2174
S'NN'
p2175
S'B-NP'
p2176
g5
tp2177
a(g127
g127
g127
g5
g5
tp2178
a(S'30'
p2179
S'30'
p2180
S'CD'
p2181
S'B-NP'
p2182
g5
tp2183
a(g1872
g1872
g127
g5
g5
tp2184
a(S'9'
p2185
g2185
S'CD'
p2186
S'B-NP'
p2187
g5
tp2188
a(g1879
g1879
S'NN'
p2189
S'I-NP'
p2190
g5
tp2191
a(g1893
g1893
g147
g5
g5
tp2192
a(S'vs'
p2193
S'vs'
p2194
S'IN'
p2195
S'B-PP'
p2196
g5
tp2197
a(S'three'
p2198
S'three'
p2199
S'CD'
p2200
S'B-NP'
p2201
g5
tp2202
a(g1872
g1872
g127
S'I-NP'
p2203
g5
tp2204
a(g379
g379
S'CD'
p2205
S'I-NP'
p2206
g5
tp2207
a(g1879
g1879
S'NN'
p2208
S'I-NP'
p2209
g5
tp2210
a(g1893
g1893
g147
g5
g5
tp2211
a(g147
g147
g147
g5
g5
tp2212
a(g161
g161
g161
g5
g5
tp2213
a(S'stomatitis'
p2214
S'stomatitis'
p2215
S'NN'
p2216
S'B-NP'
p2217
g5
tp2218
a(g127
g127
g127
g5
g5
tp2219
a(S'20'
p2220
S'20'
p2221
S'CD'
p2222
S'B-NP'
p2223
g5
tp2224
a(g1872
g1872
g127
g5
g5
tp2225
a(S'6'
p2226
g2226
S'CD'
p2227
S'B-NP'
p2228
g5
tp2229
a(g1879
g1879
S'NN'
p2230
S'I-NP'
p2231
g5
tp2232
a(g1893
g1893
g147
g5
g5
tp2233
a(S'vs'
p2234
S'vs'
p2235
S'IN'
p2236
S'B-PP'
p2237
g5
tp2238
a(S'13'
p2239
S'13'
p2240
S'CD'
p2241
S'B-NP'
p2242
g5
tp2243
a(g1872
g1872
g127
g5
g5
tp2244
a(S'8'
p2245
g2245
S'CD'
p2246
S'B-NP'
p2247
g5
tp2248
a(g1879
g1879
S'NN'
p2249
S'I-NP'
p2250
g5
tp2251
a(g1893
g1893
g147
g5
g5
tp2252
a(g147
g147
g147
g5
g5
tp2253
a(g161
g161
g161
g5
g5
tp2254
a(S'fatigue'
p2255
S'fatigue'
p2256
S'NN'
p2257
S'B-NP'
p2258
g5
tp2259
a(g127
g127
g127
g5
g5
tp2260
a(S'18'
p2261
S'18'
p2262
S'CD'
p2263
S'B-NP'
p2264
g5
tp2265
a(g1872
g1872
g127
g5
g5
tp2266
a(g2226
g2226
S'CD'
p2267
S'B-NP'
p2268
g5
tp2269
a(g1879
g1879
S'NN'
p2270
S'I-NP'
p2271
g5
tp2272
a(g1893
g1893
g147
g5
g5
tp2273
a(S'vs'
p2274
S'vs'
p2275
S'IN'
p2276
S'B-NP'
p2277
g5
tp2278
a(S'five'
p2279
S'five'
p2280
S'CD'
p2281
S'I-NP'
p2282
g5
tp2283
a(g1872
g1872
g127
S'I-NP'
p2284
g5
tp2285
a(g173
g173
S'CD'
p2286
S'I-NP'
p2287
g5
tp2288
a(g1879
g1879
S'NN'
p2289
S'I-NP'
p2290
g5
tp2291
a(g1893
g1893
g147
g5
g5
tp2292
a(g147
g147
g147
g5
g5
tp2293
a(g161
g161
g161
g5
g5
tp2294
a(S'and'
p2295
S'and'
p2296
S'CC'
p2297
g5
g5
tp2298
a(S'neutropenia'
p2299
S'neutropenia'
p2300
S'NN'
p2301
S'B-NP'
p2302
g5
tp2303
a(g127
g127
g127
g5
g5
tp2304
a(g143
g143
S'CD'
p2305
S'B-NP'
p2306
g5
tp2307
a(g1872
g1872
g127
g5
g5
tp2308
a(S'<'
p2309
g2309
S'SYM'
p2310
g5
g5
tp2311
a(g143
g143
S'CD'
p2312
S'B-NP'
p2313
g5
tp2314
a(g1879
g1879
S'NN'
p2315
S'I-NP'
p2316
g5
tp2317
a(g1893
g1893
g147
g5
g5
tp2318
a(S'vs'
p2319
S'vs'
p2320
S'IN'
p2321
S'B-PP'
p2322
g5
tp2323
a(S'11'
p2324
S'11'
p2325
S'CD'
p2326
S'B-NP'
p2327
g5
tp2328
a(g1872
g1872
g127
g5
g5
tp2329
a(S'7'
p2330
g2330
S'CD'
p2331
S'B-NP'
p2332
g5
tp2333
a(g1879
g1879
S'NN'
p2334
S'I-NP'
p2335
g5
tp2336
a(g1893
g1893
g147
g5
g5
tp2337
a(g147
g147
g147
g5
g5
tp2338
a(g960
g960
g149
g5
g5
tp2339
a(S'serious'
p2340
S'serious'
p2341
S'JJ'
p2342
S'B-NP'
p2343
g5
tp2344
a(S'adverse'
p2345
S'adverse'
p2346
S'JJ'
p2347
S'I-NP'
p2348
g5
tp2349
a(S'events'
p2350
S'event'
p2351
S'NNS'
p2352
S'I-NP'
p2353
g5
tp2354
a(S'occurred'
p2355
S'occur'
p2356
S'VBD'
p2357
S'B-VP'
p2358
g5
tp2359
a(S'in'
p2360
S'in'
p2361
S'IN'
p2362
S'B-PP'
p2363
g5
tp2364
a(S'44'
p2365
S'44'
p2366
S'CD'
p2367
S'B-NP'
p2368
g5
tp2369
a(g127
g127
g127
g5
g5
tp2370
a(S'14'
p2371
S'14'
p2372
S'CD'
p2373
S'B-NP'
p2374
g5
tp2375
a(g1879
g1879
S'NN'
p2376
S'I-NP'
p2377
g5
tp2378
a(g147
g147
g147
g5
g5
tp2379
a(S'of'
p2380
S'of'
p2381
S'IN'
p2382
S'B-PP'
p2383
g5
tp2384
a(S'afatinib-treated'
p2385
S'afatinib-treated'
p2386
S'JJ'
p2387
S'B-NP'
p2388
g5
tp2389
a(S'patients'
p2390
S'patient'
p2391
S'NNS'
p2392
S'I-NP'
p2393
g5
tp2394
a(S'and'
p2395
S'and'
p2396
S'CC'
p2397
g5
g5
tp2398
a(S'18'
p2399
S'18'
p2400
S'CD'
p2401
S'B-NP'
p2402
g5
tp2403
a(g127
g127
g127
g5
g5
tp2404
a(S'11'
p2405
S'11'
p2406
S'CD'
p2407
S'B-NP'
p2408
g5
tp2409
a(g1879
g1879
S'NN'
p2410
S'I-NP'
p2411
g5
tp2412
a(g147
g147
g147
g5
g5
tp2413
a(S'of'
p2414
S'of'
p2415
S'IN'
p2416
S'B-PP'
p2417
g5
tp2418
a(S'methotrexate-treated'
p2419
S'methotrexate-treated'
p2420
S'JJ'
p2421
S'B-NP'
p2422
g5
tp2423
a(S'patients'
p2424
S'patient'
p2425
S'NNS'
p2426
S'I-NP'
p2427
g5
tp2428
a(g182
g182
g182
g5
g5
tp2429
a(S'INTERPRETATION'
p2430
S'INTERPRETATION'
p2431
S'NN'
p2432
S'B-NP'
p2433
S'B-protein'
p2434
tp2435
a(S'Afatinib'
p2436
S'Afatinib'
p2437
S'NN'
p2438
S'I-NP'
p2439
S'I-protein'
p2440
tp2441
a(S'was'
p2442
S'be'
p2443
S'VBD'
p2444
S'B-VP'
p2445
g5
tp2446
a(S'associated'
p2447
S'associate'
p2448
S'VBN'
p2449
S'I-VP'
p2450
g5
tp2451
a(S'with'
p2452
S'with'
p2453
S'IN'
p2454
S'B-PP'
p2455
g5
tp2456
a(S'significant'
p2457
S'significant'
p2458
S'JJ'
p2459
S'B-NP'
p2460
g5
tp2461
a(S'improvements'
p2462
S'improvement'
p2463
S'NNS'
p2464
S'I-NP'
p2465
g5
tp2466
a(S'in'
p2467
S'in'
p2468
S'IN'
p2469
S'B-PP'
p2470
g5
tp2471
a(S'progression-free'
p2472
S'progression-free'
p2473
S'JJ'
p2474
S'B-NP'
p2475
g5
tp2476
a(S'survival'
p2477
S'survival'
p2478
S'NN'
p2479
S'I-NP'
p2480
g5
tp2481
a(S'and'
p2482
S'and'
p2483
S'CC'
p2484
g5
g5
tp2485
a(S'had'
p2486
S'have'
p2487
S'VBD'
p2488
S'B-VP'
p2489
g5
tp2490
a(g286
g286
S'DT'
p2491
S'B-NP'
p2492
g5
tp2493
a(S'manageable'
p2494
S'manageable'
p2495
S'JJ'
p2496
S'I-NP'
p2497
g5
tp2498
a(S'safety'
p2499
S'safety'
p2500
S'NN'
p2501
S'I-NP'
p2502
g5
tp2503
a(S'profile.'
p2504
S'profile.'
p2505
S'NN'
p2506
S'I-NP'
p2507
g5
tp2508
a(S'These'
p2509
S'These'
p2510
S'DT'
p2511
S'B-NP'
p2512
g5
tp2513
a(S'findings'
p2514
S'finding'
p2515
S'NNS'
p2516
S'I-NP'
p2517
g5
tp2518
a(S'provide'
p2519
S'provide'
p2520
S'VBP'
p2521
S'B-VP'
p2522
g5
tp2523
a(S'important'
p2524
S'important'
p2525
S'JJ'
p2526
S'B-NP'
p2527
g5
tp2528
a(S'new'
p2529
S'new'
p2530
S'JJ'
p2531
S'I-NP'
p2532
g5
tp2533
a(S'insights'
p2534
S'insight'
p2535
S'NNS'
p2536
S'I-NP'
p2537
g5
tp2538
a(S'into'
p2539
S'into'
p2540
S'IN'
p2541
S'B-PP'
p2542
g5
tp2543
a(S'the'
p2544
S'the'
p2545
S'DT'
p2546
S'B-NP'
p2547
g5
tp2548
a(S'treatment'
p2549
S'treatment'
p2550
S'NN'
p2551
S'I-NP'
p2552
g5
tp2553
a(S'of'
p2554
S'of'
p2555
S'IN'
p2556
S'B-PP'
p2557
g5
tp2558
a(S'this'
p2559
S'this'
p2560
S'DT'
p2561
S'B-NP'
p2562
g5
tp2563
a(S'patient'
p2564
S'patient'
p2565
S'NN'
p2566
S'I-NP'
p2567
g5
tp2568
a(S'population'
p2569
S'population'
p2570
S'NN'
p2571
S'I-NP'
p2572
g5
tp2573
a(S'and'
p2574
S'and'
p2575
S'CC'
p2576
g5
g5
tp2577
a(S'support'
p2578
S'support'
p2579
S'NN'
p2580
S'B-VP'
p2581
g5
tp2582
a(S'further'
p2583
S'further'
p2584
S'JJ'
p2585
S'B-NP'
p2586
g5
tp2587
a(S'investigations'
p2588
S'investigation'
p2589
S'NNS'
p2590
S'I-NP'
p2591
g5
tp2592
a(S'with'
p2593
S'with'
p2594
S'IN'
p2595
S'B-PP'
p2596
g5
tp2597
a(S'irreversible'
p2598
S'irreversible'
p2599
S'JJ'
p2600
S'B-NP'
p2601
g5
tp2602
a(S'ERBB'
p2603
S'ERBB'
p2604
S'NN'
p2605
S'I-NP'
p2606
g5
tp2607
a(S'family'
p2608
S'family'
p2609
S'NN'
p2610
S'I-NP'
p2611
g5
tp2612
a(S'blockers'
p2613
S'blocker'
p2614
S'NNS'
p2615
S'I-NP'
p2616
g5
tp2617
a(S'in'
p2618
S'in'
p2619
S'IN'
p2620
S'B-PP'
p2621
g5
tp2622
a(S'HNSCC'
p2623
S'HNSCC'
p2624
S'NN'
p2625
S'B-NP'
p2626
S'B-cell_type'
p2627
tp2628
a(g182
g182
g182
g5
g5
tp2629
a(S'FUNDING'
p2630
S'FUNDING'
p2631
S'VBG'
p2632
S'B-VP'
p2633
g5
tp2634
a(S'Boehringer'
p2635
S'Boehringer'
p2636
S'NNP'
p2637
S'B-NP'
p2638
g5
tp2639
a(S'Ingelheim'
p2640
S'Ingelheim'
p2641
S'NNP'
p2642
S'I-NP'
p2643
g5
tp2644
a(g182
g182
g182
g5
g5
tp2645
a.