(lp0
(S'Oxygen'
p1
S'Oxygen'
p2
S'NN'
p3
S'B-NP'
p4
S'O'
p5
tp6
a(S'saturation'
p7
S'saturation'
p8
S'NN'
p9
S'I-NP'
p10
g5
tp11
a(S'targets'
p12
S'target'
p13
S'NNS'
p14
S'I-NP'
p15
g5
tp16
a(S'in'
p17
S'in'
p18
S'IN'
p19
S'B-PP'
p20
g5
tp21
a(S'infants'
p22
S'infant'
p23
S'NNS'
p24
S'B-NP'
p25
g5
tp26
a(S'with'
p27
S'with'
p28
S'IN'
p29
S'B-PP'
p30
g5
tp31
a(S'bronchiolitis'
p32
S'bronchiolitis'
p33
S'NN'
p34
S'B-NP'
p35
g5
tp36
a(S'('
p37
g37
g37
g5
g5
tp38
a(S'BIDS'
p39
S'BIDS'
p40
S'NN'
p41
S'B-NP'
p42
g5
tp43
a(S')'
p44
g44
g44
g5
g5
tp45
a(S':'
p46
g46
g46
g5
g5
tp47
a(S'a'
p48
g48
S'DT'
p49
S'B-NP'
p50
g5
tp51
a(S'double-blind'
p52
S'double-blind'
p53
S'JJ'
p54
S'I-NP'
p55
g5
tp56
a(S','
p57
g57
g57
S'I-NP'
p58
g5
tp59
a(S'randomised'
p60
S'randomise'
p61
S'VBN'
p62
S'I-NP'
p63
g5
tp64
a(g57
g57
g57
S'I-NP'
p65
g5
tp66
a(S'equivalence'
p67
S'equivalence'
p68
S'NN'
p69
S'I-NP'
p70
g5
tp71
a(S'trial'
p72
S'trial'
p73
S'NN'
p74
S'I-NP'
p75
g5
tp76
a(S'.'
p77
g77
g77
g5
g5
tp78
a(S'BACKGROUND'
p79
S'BACKGROUND'
p80
S'NN'
p81
S'B-NP'
p82
g5
tp83
a(S'The'
p84
S'The'
p85
S'DT'
p86
S'B-NP'
p87
g5
tp88
a(S'American'
p89
S'American'
p90
S'NNP'
p91
S'I-NP'
p92
g5
tp93
a(S'Academy'
p94
S'Academy'
p95
S'NNP'
p96
S'I-NP'
p97
g5
tp98
a(S'of'
p99
S'of'
p100
S'IN'
p101
S'B-PP'
p102
g5
tp103
a(S'Pediatrics'
p104
S'Pediatrics'
p105
S'NNP'
p106
S'B-NP'
p107
g5
tp108
a(S'recommends'
p109
S'recommend'
p110
S'VBZ'
p111
S'B-VP'
p112
g5
tp113
a(g48
g48
S'DT'
p114
S'B-NP'
p115
g5
tp116
a(S'permissive'
p117
S'permissive'
p118
S'JJ'
p119
S'I-NP'
p120
g5
tp121
a(S'hypoxaemic'
p122
S'hypoxaemic'
p123
S'JJ'
p124
S'I-NP'
p125
g5
tp126
a(S'target'
p127
S'target'
p128
S'NN'
p129
S'I-NP'
p130
g5
tp131
a(S'for'
p132
S'for'
p133
S'IN'
p134
S'B-PP'
p135
g5
tp136
a(S'an'
p137
S'an'
p138
S'DT'
p139
S'B-NP'
p140
g5
tp141
a(S'oxygen'
p142
S'oxygen'
p143
S'NN'
p144
S'I-NP'
p145
g5
tp146
a(S'saturation'
p147
S'saturation'
p148
S'NN'
p149
S'I-NP'
p150
g5
tp151
a(S'of'
p152
S'of'
p153
S'IN'
p154
S'B-PP'
p155
g5
tp156
a(S'90'
p157
S'90'
p158
S'CD'
p159
S'B-NP'
p160
g5
tp161
a(S'%'
p162
g162
S'NN'
p163
S'I-NP'
p164
g5
tp165
a(S'for'
p166
S'for'
p167
S'IN'
p168
S'B-PP'
p169
g5
tp170
a(S'children'
p171
S'child'
p172
S'NNS'
p173
S'B-NP'
p174
g5
tp175
a(S'with'
p176
S'with'
p177
S'IN'
p178
S'B-PP'
p179
g5
tp180
a(S'bronchiolitis'
p181
S'bronchiolitis'
p182
S'NN'
p183
S'B-NP'
p184
g5
tp185
a(g57
g57
g57
g5
g5
tp186
a(S'which'
p187
S'which'
p188
S'WDT'
p189
S'B-NP'
p190
g5
tp191
a(S'is'
p192
S'be'
p193
S'VBZ'
p194
S'B-VP'
p195
g5
tp196
a(S'consistent'
p197
S'consistent'
p198
S'JJ'
p199
S'B-ADJP'
p200
g5
tp201
a(S'with'
p202
S'with'
p203
S'IN'
p204
S'B-PP'
p205
g5
tp206
a(S'the'
p207
S'the'
p208
S'DT'
p209
S'B-NP'
p210
g5
tp211
a(S'WHO'
p212
S'WHO'
p213
S'NN'
p214
S'I-NP'
p215
g5
tp216
a(S'recommendations'
p217
S'recommendation'
p218
S'NNS'
p219
S'I-NP'
p220
g5
tp221
a(S'for'
p222
S'for'
p223
S'IN'
p224
S'B-PP'
p225
g5
tp226
a(S'targets'
p227
S'target'
p228
S'NNS'
p229
S'B-NP'
p230
g5
tp231
a(S'in'
p232
S'in'
p233
S'IN'
p234
S'B-PP'
p235
g5
tp236
a(S'children'
p237
S'child'
p238
S'NNS'
p239
S'B-NP'
p240
g5
tp241
a(S'with'
p242
S'with'
p243
S'IN'
p244
S'B-PP'
p245
g5
tp246
a(S'lower'
p247
S'low'
p248
S'JJR'
p249
S'B-NP'
p250
g5
tp251
a(S'respiratory'
p252
S'respiratory'
p253
S'JJ'
p254
S'I-NP'
p255
g5
tp256
a(S'tract'
p257
S'tract'
p258
S'NN'
p259
S'I-NP'
p260
g5
tp261
a(S'infections.'
p262
S'infections.'
p263
S'NN'
p264
S'I-NP'
p265
g5
tp266
a(S'No'
p267
S'No'
p268
S'DT'
p269
S'B-NP'
p270
g5
tp271
a(S'evidence'
p272
S'evidence'
p273
S'NN'
p274
S'I-NP'
p275
g5
tp276
a(S'exists'
p277
S'exist'
p278
S'VBZ'
p279
S'B-VP'
p280
g5
tp281
a(S'to'
p282
S'to'
p283
S'TO'
p284
S'I-VP'
p285
g5
tp286
a(S'support'
p287
S'support'
p288
S'VB'
p289
S'I-VP'
p290
g5
tp291
a(S'this'
p292
S'this'
p293
S'DT'
p294
S'B-NP'
p295
g5
tp296
a(S'threshold.'
p297
S'threshold.'
p298
S'NN'
p299
S'I-NP'
p300
g5
tp301
a(S'We'
p302
S'We'
p303
S'PRP'
p304
S'B-NP'
p305
g5
tp306
a(S'aimed'
p307
S'aim'
p308
S'VBD'
p309
S'B-VP'
p310
g5
tp311
a(S'to'
p312
S'to'
p313
S'TO'
p314
S'I-VP'
p315
g5
tp316
a(S'assess'
p317
S'assess'
p318
S'VB'
p319
S'I-VP'
p320
g5
tp321
a(S'whether'
p322
S'whether'
p323
S'IN'
p324
S'B-SBAR'
p325
g5
tp326
a(S'the'
p327
S'the'
p328
S'DT'
p329
S'B-NP'
p330
g5
tp331
a(S'90'
p332
S'90'
p333
S'CD'
p334
S'I-NP'
p335
g5
tp336
a(g162
g162
S'NN'
p337
S'I-NP'
p338
g5
tp339
a(S'or'
p340
S'or'
p341
S'CC'
p342
g5
g5
tp343
a(S'higher'
p344
S'high'
p345
S'JJR'
p346
S'B-NP'
p347
g5
tp348
a(S'target'
p349
S'target'
p350
S'NN'
p351
S'I-NP'
p352
g5
tp353
a(S'for'
p354
S'for'
p355
S'IN'
p356
S'B-PP'
p357
g5
tp358
a(S'management'
p359
S'management'
p360
S'NN'
p361
S'B-NP'
p362
g5
tp363
a(S'of'
p364
S'of'
p365
S'IN'
p366
S'B-PP'
p367
g5
tp368
a(S'oxygen'
p369
S'oxygen'
p370
S'NN'
p371
S'B-NP'
p372
g5
tp373
a(S'supplementation'
p374
S'supplementation'
p375
S'NN'
p376
S'I-NP'
p377
g5
tp378
a(S'was'
p379
S'be'
p380
S'VBD'
p381
S'B-VP'
p382
g5
tp383
a(S'equivalent'
p384
S'equivalent'
p385
S'JJ'
p386
S'B-ADJP'
p387
g5
tp388
a(S'to'
p389
S'to'
p390
S'TO'
p391
S'B-PP'
p392
g5
tp393
a(g48
g48
S'DT'
p394
S'B-NP'
p395
g5
tp396
a(S'normoxic'
p397
S'normoxic'
p398
S'JJ'
p399
S'I-NP'
p400
g5
tp401
a(S'94'
p402
S'94'
p403
S'CD'
p404
S'I-NP'
p405
g5
tp406
a(g162
g162
S'NN'
p407
S'I-NP'
p408
g5
tp409
a(S'or'
p410
S'or'
p411
S'CC'
p412
g5
g5
tp413
a(S'higher'
p414
S'high'
p415
S'JJR'
p416
S'B-NP'
p417
g5
tp418
a(S'target'
p419
S'target'
p420
S'NN'
p421
S'I-NP'
p422
g5
tp423
a(S'for'
p424
S'for'
p425
S'IN'
p426
S'B-PP'
p427
g5
tp428
a(S'infants'
p429
S'infant'
p430
S'NNS'
p431
S'B-NP'
p432
g5
tp433
a(S'admitted'
p434
S'admit'
p435
S'VBN'
p436
S'B-VP'
p437
g5
tp438
a(S'to'
p439
S'to'
p440
S'TO'
p441
S'B-PP'
p442
g5
tp443
a(S'hospital'
p444
S'hospital'
p445
S'NN'
p446
S'B-NP'
p447
g5
tp448
a(S'with'
p449
S'with'
p450
S'IN'
p451
S'B-PP'
p452
g5
tp453
a(S'viral'
p454
S'viral'
p455
S'JJ'
p456
S'B-NP'
p457
g5
tp458
a(S'bronchiolitis'
p459
S'bronchiolitis'
p460
S'NN'
p461
S'I-NP'
p462
g5
tp463
a(g77
g77
g77
g5
g5
tp464
a(S'METHODS'
p465
S'METHODS'
p466
S'NNS'
p467
S'B-NP'
p468
g5
tp469
a(S'We'
p470
S'We'
p471
S'PRP'
p472
S'B-NP'
p473
g5
tp474
a(S'did'
p475
S'do'
p476
S'VBD'
p477
S'B-VP'
p478
g5
tp479
a(g48
g48
S'DT'
p480
S'B-NP'
p481
g5
tp482
a(S'parallel-group'
p483
S'parallel-group'
p484
S'NN'
p485
S'I-NP'
p486
g5
tp487
a(g57
g57
g57
g5
g5
tp488
a(S'randomised'
p489
S'randomise'
p490
S'VBN'
p491
S'B-VP'
p492
g5
tp493
a(g57
g57
g57
g5
g5
tp494
a(S'controlled'
p495
S'control'
p496
S'VBN'
p497
S'B-VP'
p498
g5
tp499
a(g57
g57
g57
g5
g5
tp500
a(S'equivalence'
p501
S'equivalence'
p502
S'NN'
p503
S'B-NP'
p504
g5
tp505
a(S'trial'
p506
S'trial'
p507
S'NN'
p508
S'I-NP'
p509
g5
tp510
a(S'of'
p511
S'of'
p512
S'IN'
p513
S'B-PP'
p514
g5
tp515
a(S'infants'
p516
S'infant'
p517
S'NNS'
p518
S'B-NP'
p519
g5
tp520
a(S'aged'
p521
S'age'
p522
S'VBN'
p523
S'B-VP'
p524
g5
tp525
a(S'6'
p526
g526
S'CD'
p527
S'B-NP'
p528
g5
tp529
a(S'weeks'
p530
S'week'
p531
S'NNS'
p532
S'I-NP'
p533
g5
tp534
a(S'to'
p535
S'to'
p536
S'TO'
p537
S'B-PP'
p538
g5
tp539
a(S'12'
p540
S'12'
p541
S'CD'
p542
S'B-NP'
p543
g5
tp544
a(S'months'
p545
S'month'
p546
S'NNS'
p547
S'I-NP'
p548
g5
tp549
a(S'of'
p550
S'of'
p551
S'IN'
p552
S'B-PP'
p553
g5
tp554
a(S'age'
p555
S'age'
p556
S'NN'
p557
S'B-NP'
p558
g5
tp559
a(S'with'
p560
S'with'
p561
S'IN'
p562
S'B-PP'
p563
g5
tp564
a(S'physician-diagnosed'
p565
S'physician-diagnosed'
p566
S'JJ'
p567
S'B-NP'
p568
g5
tp569
a(S'bronchiolitis'
p570
S'bronchiolitis'
p571
S'NN'
p572
S'I-NP'
p573
g5
tp574
a(S'newly'
p575
S'newly'
p576
S'RB'
p577
S'B-VP'
p578
g5
tp579
a(S'admitted'
p580
S'admit'
p581
S'VBN'
p582
S'I-VP'
p583
g5
tp584
a(S'into'
p585
S'into'
p586
S'IN'
p587
S'B-PP'
p588
g5
tp589
a(S'eight'
p590
S'eight'
p591
S'CD'
p592
S'B-NP'
p593
g5
tp594
a(S'paediatric'
p595
S'paediatric'
p596
S'JJ'
p597
S'I-NP'
p598
g5
tp599
a(S'hospital'
p600
S'hospital'
p601
S'NN'
p602
S'I-NP'
p603
g5
tp604
a(S'units'
p605
S'unit'
p606
S'NNS'
p607
S'I-NP'
p608
g5
tp609
a(S'in'
p610
S'in'
p611
S'IN'
p612
S'B-PP'
p613
g5
tp614
a(S'the'
p615
S'the'
p616
S'DT'
p617
S'B-NP'
p618
g5
tp619
a(S'UK'
p620
S'UK'
p621
S'NN'
p622
S'I-NP'
p623
g5
tp624
a(g37
g37
g37
g5
g5
tp625
a(S'the'
p626
S'the'
p627
S'DT'
p628
S'B-NP'
p629
g5
tp630
a(S'Bronchiolitis'
p631
S'Bronchiolitis'
p632
S'NNP'
p633
S'I-NP'
p634
g5
tp635
a(S'of'
p636
S'of'
p637
S'IN'
p638
S'B-PP'
p639
g5
tp640
a(S'Infancy'
p641
S'Infancy'
p642
S'NNP'
p643
S'B-NP'
p644
g5
tp645
a(S'Discharge'
p646
S'Discharge'
p647
S'NNP'
p648
S'I-NP'
p649
g5
tp650
a(S'Study'
p651
S'Study'
p652
S'NNP'
p653
S'I-NP'
p654
g5
tp655
a(S'['
p656
g656
g37
g5
g5
tp657
a(S'BIDS'
p658
S'BIDS'
p659
S'NNP'
p660
S'B-NP'
p661
g5
tp662
a(S']'
p663
g663
g44
g5
g5
tp664
a(g44
g44
g44
g5
g5
tp665
a(g77
g77
g77
g5
g5
tp666
a(S'A'
p667
g667
S'DT'
p668
S'B-NP'
p669
g5
tp670
a(S'central'
p671
S'central'
p672
S'JJ'
p673
S'I-NP'
p674
g5
tp675
a(S'computer'
p676
S'computer'
p677
S'NN'
p678
S'I-NP'
p679
g5
tp680
a(S'randomly'
p681
S'randomly'
p682
S'RB'
p683
S'B-VP'
p684
g5
tp685
a(S'allocated'
p686
S'allocate'
p687
S'VBN'
p688
S'I-VP'
p689
g5
tp690
a(g37
g37
g37
g5
g5
tp691
a(S'1'
p692
g692
S'CD'
p693
S'B-NP'
p694
g5
tp695
a(g46
g46
S'SYM'
p696
g5
g5
tp697
a(g692
g692
S'CD'
p698
g5
g5
tp699
a(g44
g44
g44
g5
g5
tp700
a(S'infants'
p701
S'infant'
p702
S'NNS'
p703
S'B-NP'
p704
g5
tp705
a(g57
g57
g57
g5
g5
tp706
a(S'in'
p707
S'in'
p708
S'IN'
p709
S'B-PP'
p710
g5
tp711
a(S'varying'
p712
S'vary'
p713
S'VBG'
p714
S'B-VP'
p715
g5
tp716
a(S'length'
p717
S'length'
p718
S'NN'
p719
S'B-NP'
p720
g5
tp721
a(S'blocks'
p722
S'block'
p723
S'NNS'
p724
S'I-NP'
p725
g5
tp726
a(S'of'
p727
S'of'
p728
S'IN'
p729
S'B-PP'
p730
g5
tp731
a(S'four'
p732
S'four'
p733
S'CD'
p734
S'B-NP'
p735
g5
tp736
a(S'and'
p737
S'and'
p738
S'CC'
p739
S'I-NP'
p740
g5
tp741
a(S'six'
p742
S'six'
p743
S'CD'
p744
S'I-NP'
p745
g5
tp746
a(S'and'
p747
S'and'
p748
S'CC'
p749
g5
g5
tp750
a(S'without'
p751
S'without'
p752
S'IN'
p753
S'B-PP'
p754
g5
tp755
a(S'stratification'
p756
S'stratification'
p757
S'NN'
p758
S'B-NP'
p759
g5
tp760
a(g57
g57
g57
g5
g5
tp761
a(S'to'
p762
S'to'
p763
S'TO'
p764
S'B-VP'
p765
g5
tp766
a(S'be'
p767
S'be'
p768
S'VB'
p769
S'I-VP'
p770
g5
tp771
a(S'clipped'
p772
S'clip'
p773
S'VBN'
p774
S'I-VP'
p775
g5
tp776
a(S'to'
p777
S'to'
p778
S'TO'
p779
S'B-PP'
p780
g5
tp781
a(S'standard'
p782
S'standard'
p783
S'JJ'
p784
S'B-NP'
p785
g5
tp786
a(S'oximeters'
p787
S'oximeter'
p788
S'NNS'
p789
S'I-NP'
p790
g5
tp791
a(g37
g37
g37
g5
g5
tp792
a(S'patients'
p793
S'patient'
p794
S'NNS'
p795
S'B-NP'
p796
g5
tp797
a(S'treated'
p798
S'treat'
p799
S'VBN'
p800
S'B-VP'
p801
g5
tp802
a(S'with'
p803
S'with'
p804
S'IN'
p805
S'B-PP'
p806
g5
tp807
a(S'oxygen'
p808
S'oxygen'
p809
S'NN'
p810
S'B-NP'
p811
g5
tp812
a(S'if'
p813
S'if'
p814
S'IN'
p815
S'B-SBAR'
p816
g5
tp817
a(S'pulse'
p818
S'pulse'
p819
S'NN'
p820
S'B-NP'
p821
g5
tp822
a(S'oxygen'
p823
S'oxygen'
p824
S'NN'
p825
S'I-NP'
p826
g5
tp827
a(S'saturation'
p828
S'saturation'
p829
S'NN'
p830
S'I-NP'
p831
g5
tp832
a(g656
g656
g37
g5
g5
tp833
a(S'SpO2'
p834
S'SpO2'
p835
S'NN'
p836
S'B-NP'
p837
g5
tp838
a(g663
g663
g44
g5
g5
tp839
a(S'<'
p840
g840
S'SYM'
p841
g5
g5
tp842
a(S'94'
p843
S'94'
p844
S'CD'
p845
S'B-NP'
p846
g5
tp847
a(g162
g162
S'NN'
p848
S'I-NP'
p849
g5
tp850
a(g44
g44
g44
g5
g5
tp851
a(S'or'
p852
S'or'
p853
S'CC'
p854
g5
g5
tp855
a(S'modified'
p856
S'modify'
p857
S'VBN'
p858
S'B-NP'
p859
g5
tp860
a(S'oximeters'
p861
S'oximeter'
p862
S'NNS'
p863
S'I-NP'
p864
g5
tp865
a(g37
g37
g37
g5
g5
tp866
a(S'displayed'
p867
S'display'
p868
S'VBD'
p869
S'B-VP'
p870
g5
tp871
a(g48
g48
S'DT'
p872
S'B-NP'
p873
g5
tp874
a(S'measured'
p875
S'measure'
p876
S'VBN'
p877
S'I-NP'
p878
g5
tp879
a(S'value'
p880
S'value'
p881
S'NN'
p882
S'I-NP'
p883
g5
tp884
a(S'of'
p885
S'of'
p886
S'IN'
p887
S'B-PP'
p888
g5
tp889
a(S'90'
p890
S'90'
p891
S'CD'
p892
S'B-NP'
p893
g5
tp894
a(g162
g162
S'NN'
p895
S'I-NP'
p896
g5
tp897
a(S'as'
p898
S'as'
p899
S'IN'
p900
S'B-SBAR'
p901
g5
tp902
a(S'94'
p903
S'94'
p904
S'CD'
p905
S'B-NP'
p906
g5
tp907
a(g162
g162
S'NN'
p908
S'I-NP'
p909
g5
tp910
a(g57
g57
g57
g5
g5
tp911
a(S'therefore'
p912
S'therefore'
p913
S'RB'
p914
S'B-ADVP'
p915
g5
tp916
a(S'oxygen'
p917
S'oxygen'
p918
S'NN'
p919
S'B-NP'
p920
g5
tp921
a(S'not'
p922
S'not'
p923
S'RB'
p924
S'B-VP'
p925
g5
tp926
a(S'given'
p927
S'give'
p928
S'VBN'
p929
S'I-VP'
p930
g5
tp931
a(S'until'
p932
S'until'
p933
S'IN'
p934
S'B-PP'
p935
g5
tp936
a(S'SpO2'
p937
S'SpO2'
p938
S'NN'
p939
S'B-NP'
p940
g5
tp941
a(g840
g840
S'SYM'
p942
g5
g5
tp943
a(S'90'
p944
S'90'
p945
S'CD'
p946
S'B-NP'
p947
g5
tp948
a(g162
g162
S'NN'
p949
S'I-NP'
p950
g5
tp951
a(g44
g44
g44
g5
g5
tp952
a(g77
g77
g77
g5
g5
tp953
a(S'All'
p954
S'All'
p955
S'DT'
p956
S'B-NP'
p957
g5
tp958
a(S'parents'
p959
S'parent'
p960
S'NNS'
p961
S'I-NP'
p962
g5
tp963
a(g57
g57
g57
g5
g5
tp964
a(S'clinical'
p965
S'clinical'
p966
S'JJ'
p967
S'B-NP'
p968
g5
tp969
a(S'staff'
p970
S'staff'
p971
S'NN'
p972
S'I-NP'
p973
g5
tp974
a(g57
g57
g57
g5
g5
tp975
a(S'and'
p976
S'and'
p977
S'CC'
p978
g5
g5
tp979
a(S'outcome'
p980
S'outcome'
p981
S'NN'
p982
S'B-NP'
p983
g5
tp984
a(S'assessors'
p985
S'assessor'
p986
S'NNS'
p987
S'I-NP'
p988
g5
tp989
a(S'were'
p990
S'be'
p991
S'VBD'
p992
S'B-VP'
p993
g5
tp994
a(S'masked'
p995
S'mask'
p996
S'VBN'
p997
S'I-VP'
p998
g5
tp999
a(S'to'
p1000
S'to'
p1001
S'TO'
p1002
S'B-VP'
p1003
g5
tp1004
a(S'allocation.'
p1005
S'allocation.'
p1006
S'VB'
p1007
S'I-VP'
p1008
g5
tp1009
a(S'The'
p1010
S'The'
p1011
S'DT'
p1012
S'B-NP'
p1013
g5
tp1014
a(S'primary'
p1015
S'primary'
p1016
S'JJ'
p1017
S'I-NP'
p1018
g5
tp1019
a(S'outcome'
p1020
S'outcome'
p1021
S'NN'
p1022
S'I-NP'
p1023
g5
tp1024
a(S'was'
p1025
S'be'
p1026
S'VBD'
p1027
S'B-VP'
p1028
g5
tp1029
a(S'time'
p1030
S'time'
p1031
S'NN'
p1032
S'B-NP'
p1033
g5
tp1034
a(S'to'
p1035
S'to'
p1036
S'TO'
p1037
S'B-PP'
p1038
g5
tp1039
a(S'resolution'
p1040
S'resolution'
p1041
S'NN'
p1042
S'B-NP'
p1043
g5
tp1044
a(S'of'
p1045
S'of'
p1046
S'IN'
p1047
S'B-PP'
p1048
g5
tp1049
a(S'cough'
p1050
S'cough'
p1051
S'NN'
p1052
S'B-NP'
p1053
g5
tp1054
a(g37
g37
g37
g5
g5
tp1055
a(S'prespecified'
p1056
S'prespecifie'
p1057
S'VBN'
p1058
S'B-NP'
p1059
g5
tp1060
a(S'equivalence'
p1061
S'equivalence'
p1062
S'NN'
p1063
S'I-NP'
p1064
g5
tp1065
a(S'limits'
p1066
S'limit'
p1067
S'NNS'
p1068
S'I-NP'
p1069
g5
tp1070
a(S'of'
p1071
S'of'
p1072
S'IN'
p1073
S'B-PP'
p1074
g5
tp1075
a(S'plus'
p1076
S'plus'
p1077
S'CC'
p1078
S'B-NP'
p1079
g5
tp1080
a(S'or'
p1081
S'or'
p1082
S'CC'
p1083
g5
g5
tp1084
a(S'minus'
p1085
S'minus'
p1086
S'CC'
p1087
g5
g5
tp1088
a(S'2'
p1089
g1089
S'CD'
p1090
S'B-NP'
p1091
g5
tp1092
a(S'days'
p1093
S'day'
p1094
S'NNS'
p1095
S'I-NP'
p1096
g5
tp1097
a(g44
g44
g44
g5
g5
tp1098
a(S'in'
p1099
S'in'
p1100
S'IN'
p1101
S'B-PP'
p1102
g5
tp1103
a(S'the'
p1104
S'the'
p1105
S'DT'
p1106
S'B-NP'
p1107
g5
tp1108
a(S'intention-to-treat'
p1109
S'intention-to-treat'
p1110
S'JJ'
p1111
S'I-NP'
p1112
g5
tp1113
a(S'population.'
p1114
S'population.'
p1115
S'NN'
p1116
S'I-NP'
p1117
g5
tp1118
a(S'This'
p1119
S'This'
p1120
S'DT'
p1121
S'B-NP'
p1122
g5
tp1123
a(S'trial'
p1124
S'trial'
p1125
S'NN'
p1126
S'I-NP'
p1127
g5
tp1128
a(S'is'
p1129
S'be'
p1130
S'VBZ'
p1131
S'B-VP'
p1132
g5
tp1133
a(S'registered'
p1134
S'register'
p1135
S'VBN'
p1136
S'I-VP'
p1137
g5
tp1138
a(S'with'
p1139
S'with'
p1140
S'IN'
p1141
S'B-PP'
p1142
g5
tp1143
a(S'ISRCTN'
p1144
S'ISRCTN'
p1145
S'NN'
p1146
S'B-NP'
p1147
S'B-protein'
p1148
tp1149
a(g57
g57
g57
g5
g5
tp1150
a(S'number'
p1151
S'number'
p1152
S'NN'
p1153
S'B-NP'
p1154
g5
tp1155
a(S'ISRCTN28405428'
p1156
S'ISRCTN28405428'
p1157
S'NN'
p1158
S'I-NP'
p1159
g5
tp1160
a(g77
g77
g77
g5
g5
tp1161
a(S'FINDINGS'
p1162
S'FINDINGS'
p1163
S'NNP'
p1164
S'B-NP'
p1165
g5
tp1166
a(S'Between'
p1167
S'Between'
p1168
S'NNP'
p1169
S'I-NP'
p1170
g5
tp1171
a(S'Oct'
p1172
S'Oct'
p1173
S'NNP'
p1174
S'I-NP'
p1175
g5
tp1176
a(S'3'
p1177
g1177
S'CD'
p1178
S'I-NP'
p1179
g5
tp1180
a(g57
g57
g57
g5
g5
tp1181
a(S'and'
p1182
S'and'
p1183
S'CC'
p1184
g5
g5
tp1185
a(S'March'
p1186
S'March'
p1187
S'NNP'
p1188
S'B-NP'
p1189
g5
tp1190
a(S'30'
p1191
S'30'
p1192
S'CD'
p1193
S'I-NP'
p1194
g5
tp1195
a(g57
g57
g57
S'I-NP'
p1196
g5
tp1197
a(S'2012'
p1198
S'2012'
p1199
S'CD'
p1200
S'I-NP'
p1201
g5
tp1202
a(g57
g57
g57
g5
g5
tp1203
a(S'and'
p1204
S'and'
p1205
S'CC'
p1206
g5
g5
tp1207
a(S'Oct'
p1208
S'Oct'
p1209
S'NN'
p1210
S'B-NP'
p1211
S'B-protein'
p1212
tp1213
a(g692
g692
S'CD'
p1214
S'I-NP'
p1215
S'I-protein'
p1216
tp1217
a(g57
g57
g57
g5
g5
tp1218
a(S'and'
p1219
S'and'
p1220
S'CC'
p1221
g5
g5
tp1222
a(S'March'
p1223
S'March'
p1224
S'NNP'
p1225
S'B-NP'
p1226
g5
tp1227
a(S'29'
p1228
S'29'
p1229
S'CD'
p1230
S'I-NP'
p1231
g5
tp1232
a(g57
g57
g57
S'I-NP'
p1233
g5
tp1234
a(S'2013'
p1235
S'2013'
p1236
S'CD'
p1237
S'I-NP'
p1238
g5
tp1239
a(g57
g57
g57
g5
g5
tp1240
a(S'we'
p1241
S'we'
p1242
S'PRP'
p1243
S'B-NP'
p1244
g5
tp1245
a(S'randomly'
p1246
S'randomly'
p1247
S'RB'
p1248
S'B-ADVP'
p1249
g5
tp1250
a(S'assigned'
p1251
S'assign'
p1252
S'VBD'
p1253
S'B-VP'
p1254
g5
tp1255
a(S'308'
p1256
S'308'
p1257
S'CD'
p1258
S'B-NP'
p1259
g5
tp1260
a(S'infants'
p1261
S'infant'
p1262
S'NNS'
p1263
S'I-NP'
p1264
g5
tp1265
a(S'to'
p1266
S'to'
p1267
S'TO'
p1268
S'B-PP'
p1269
g5
tp1270
a(S'standard'
p1271
S'standard'
p1272
S'JJ'
p1273
S'B-NP'
p1274
g5
tp1275
a(S'oximeters'
p1276
S'oximeter'
p1277
S'NNS'
p1278
S'I-NP'
p1279
g5
tp1280
a(S'and'
p1281
S'and'
p1282
S'CC'
p1283
g5
g5
tp1284
a(S'307'
p1285
S'307'
p1286
S'CD'
p1287
S'B-NP'
p1288
g5
tp1289
a(S'infants'
p1290
S'infant'
p1291
S'NNS'
p1292
S'I-NP'
p1293
g5
tp1294
a(S'to'
p1295
S'to'
p1296
S'TO'
p1297
S'B-VP'
p1298
g5
tp1299
a(S'modified'
p1300
S'modify'
p1301
S'VBN'
p1302
S'I-VP'
p1303
g5
tp1304
a(S'oximeters.'
p1305
S'oximeters.'
p1306
S'RP'
p1307
S'B-PRT'
p1308
g5
tp1309
a(S'Cough'
p1310
S'Cough'
p1311
S'NNP'
p1312
S'B-NP'
p1313
g5
tp1314
a(S'resolved'
p1315
S'resolve'
p1316
S'VBN'
p1317
S'B-VP'
p1318
g5
tp1319
a(S'by'
p1320
S'by'
p1321
S'IN'
p1322
S'B-PP'
p1323
g5
tp1324
a(S'15\xc2\xb70'
p1325
S'15\xc2\xb70'
p1326
S'CD'
p1327
S'B-NP'
p1328
g5
tp1329
a(S'days'
p1330
S'day'
p1331
S'NNS'
p1332
S'I-NP'
p1333
g5
tp1334
a(g37
g37
g37
g5
g5
tp1335
a(S'median'
p1336
S'median'
p1337
S'NN'
p1338
S'B-NP'
p1339
g5
tp1340
a(g44
g44
g44
g5
g5
tp1341
a(S'in'
p1342
S'in'
p1343
S'IN'
p1344
S'B-PP'
p1345
g5
tp1346
a(S'both'
p1347
S'both'
p1348
S'DT'
p1349
S'B-NP'
p1350
g5
tp1351
a(S'groups'
p1352
S'group'
p1353
S'NNS'
p1354
S'I-NP'
p1355
g5
tp1356
a(g37
g37
g37
g5
g5
tp1357
a(S'95'
p1358
S'95'
p1359
S'CD'
p1360
S'B-NP'
p1361
g5
tp1362
a(g162
g162
S'NN'
p1363
S'I-NP'
p1364
g5
tp1365
a(S'CI'
p1366
S'CI'
p1367
S'NN'
p1368
S'I-NP'
p1369
g5
tp1370
a(S'for'
p1371
S'for'
p1372
S'IN'
p1373
S'B-PP'
p1374
g5
tp1375
a(S'difference'
p1376
S'difference'
p1377
S'NN'
p1378
S'B-NP'
p1379
g5
tp1380
a(S'-1'
p1381
S'-1'
p1382
S'CD'
p1383
S'I-NP'
p1384
g5
tp1385
a(S'to'
p1386
S'to'
p1387
S'TO'
p1388
S'B-PP'
p1389
g5
tp1390
a(g1089
g1089
S'CD'
p1391
S'B-NP'
p1392
g5
tp1393
a(g44
g44
g44
g5
g5
tp1394
a(S'and'
p1395
S'and'
p1396
S'CC'
p1397
g5
g5
tp1398
a(S'so'
p1399
S'so'
p1400
S'RB'
p1401
S'B-ADVP'
p1402
g5
tp1403
a(S'oxygen'
p1404
S'oxygen'
p1405
S'NN'
p1406
S'B-NP'
p1407
g5
tp1408
a(S'thresholds'
p1409
S'threshold'
p1410
S'NNS'
p1411
S'I-NP'
p1412
g5
tp1413
a(S'were'
p1414
S'be'
p1415
S'VBD'
p1416
S'B-VP'
p1417
g5
tp1418
a(S'equivalent.'
p1419
S'equivalent.'
p1420
S'FW'
p1421
S'B-ADJP'
p1422
g5
tp1423
a(S'We'
p1424
S'We'
p1425
S'PRP'
p1426
S'B-NP'
p1427
g5
tp1428
a(S'recorded'
p1429
S'record'
p1430
S'VBD'
p1431
S'B-VP'
p1432
g5
tp1433
a(S'35'
p1434
S'35'
p1435
S'CD'
p1436
S'B-NP'
p1437
g5
tp1438
a(S'serious'
p1439
S'serious'
p1440
S'JJ'
p1441
S'I-NP'
p1442
g5
tp1443
a(S'adverse'
p1444
S'adverse'
p1445
S'JJ'
p1446
S'I-NP'
p1447
g5
tp1448
a(S'events'
p1449
S'event'
p1450
S'NNS'
p1451
S'I-NP'
p1452
g5
tp1453
a(S'in'
p1454
S'in'
p1455
S'IN'
p1456
S'B-PP'
p1457
g5
tp1458
a(S'32'
p1459
S'32'
p1460
S'CD'
p1461
S'B-NP'
p1462
g5
tp1463
a(S'infants'
p1464
S'infant'
p1465
S'NNS'
p1466
S'I-NP'
p1467
g5
tp1468
a(S'in'
p1469
S'in'
p1470
S'IN'
p1471
S'B-PP'
p1472
g5
tp1473
a(S'the'
p1474
S'the'
p1475
S'DT'
p1476
S'B-NP'
p1477
g5
tp1478
a(S'standard'
p1479
S'standard'
p1480
S'JJ'
p1481
S'I-NP'
p1482
g5
tp1483
a(S'care'
p1484
S'care'
p1485
S'NN'
p1486
S'I-NP'
p1487
g5
tp1488
a(S'group'
p1489
S'group'
p1490
S'NN'
p1491
S'I-NP'
p1492
g5
tp1493
a(S'and'
p1494
S'and'
p1495
S'CC'
p1496
g5
g5
tp1497
a(S'25'
p1498
S'25'
p1499
S'CD'
p1500
S'B-NP'
p1501
g5
tp1502
a(S'serious'
p1503
S'serious'
p1504
S'JJ'
p1505
S'I-NP'
p1506
g5
tp1507
a(S'adverse'
p1508
S'adverse'
p1509
S'JJ'
p1510
S'I-NP'
p1511
g5
tp1512
a(S'events'
p1513
S'event'
p1514
S'NNS'
p1515
S'I-NP'
p1516
g5
tp1517
a(S'in'
p1518
S'in'
p1519
S'IN'
p1520
S'B-PP'
p1521
g5
tp1522
a(S'24'
p1523
S'24'
p1524
S'CD'
p1525
S'B-NP'
p1526
g5
tp1527
a(S'infants'
p1528
S'infant'
p1529
S'NNS'
p1530
S'I-NP'
p1531
g5
tp1532
a(S'in'
p1533
S'in'
p1534
S'IN'
p1535
S'B-PP'
p1536
g5
tp1537
a(S'the'
p1538
S'the'
p1539
S'DT'
p1540
S'B-NP'
p1541
g5
tp1542
a(S'modified'
p1543
S'modify'
p1544
S'VBN'
p1545
S'I-NP'
p1546
g5
tp1547
a(S'care'
p1548
S'care'
p1549
S'NN'
p1550
S'I-NP'
p1551
g5
tp1552
a(S'group.'
p1553
S'group.'
p1554
S'NN'
p1555
S'I-NP'
p1556
g5
tp1557
a(S'In'
p1558
S'In'
p1559
S'IN'
p1560
S'B-PP'
p1561
g5
tp1562
a(S'the'
p1563
S'the'
p1564
S'DT'
p1565
S'B-NP'
p1566
g5
tp1567
a(S'standard'
p1568
S'standard'
p1569
S'JJ'
p1570
S'I-NP'
p1571
g5
tp1572
a(S'care'
p1573
S'care'
p1574
S'NN'
p1575
S'I-NP'
p1576
g5
tp1577
a(S'group'
p1578
S'group'
p1579
S'NN'
p1580
S'I-NP'
p1581
g5
tp1582
a(g57
g57
g57
g5
g5
tp1583
a(S'eight'
p1584
S'eight'
p1585
S'CD'
p1586
S'B-NP'
p1587
g5
tp1588
a(S'infants'
p1589
S'infant'
p1590
S'NNS'
p1591
S'I-NP'
p1592
g5
tp1593
a(S'transferred'
p1594
S'transfer'
p1595
S'VBN'
p1596
S'B-VP'
p1597
g5
tp1598
a(S'to'
p1599
S'to'
p1600
S'TO'
p1601
S'B-PP'
p1602
g5
tp1603
a(g48
g48
S'DT'
p1604
S'B-NP'
p1605
g5
tp1606
a(S'high-dependency'
p1607
S'high-dependency'
p1608
S'JJ'
p1609
S'I-NP'
p1610
g5
tp1611
a(S'unit'
p1612
S'unit'
p1613
S'NN'
p1614
S'I-NP'
p1615
g5
tp1616
a(g57
g57
g57
g5
g5
tp1617
a(S'23'
p1618
S'23'
p1619
S'CD'
p1620
S'B-NP'
p1621
g5
tp1622
a(S'were'
p1623
S'be'
p1624
S'VBD'
p1625
S'B-VP'
p1626
g5
tp1627
a(S'readmitted'
p1628
S'readmitte'
p1629
S'VBN'
p1630
S'I-VP'
p1631
g5
tp1632
a(g57
g57
g57
g5
g5
tp1633
a(S'and'
p1634
S'and'
p1635
S'CC'
p1636
g5
g5
tp1637
a(S'one'
p1638
S'one'
p1639
S'CD'
p1640
S'B-NP'
p1641
g5
tp1642
a(S'had'
p1643
S'have'
p1644
S'VBD'
p1645
S'B-VP'
p1646
g5
tp1647
a(g48
g48
S'DT'
p1648
S'B-NP'
p1649
g5
tp1650
a(S'prolonged'
p1651
S'prolonged'
p1652
S'JJ'
p1653
S'I-NP'
p1654
g5
tp1655
a(S'hospital'
p1656
S'hospital'
p1657
S'NN'
p1658
S'I-NP'
p1659
g5
tp1660
a(S'stay.'
p1661
S'stay.'
p1662
S'NN'
p1663
S'I-NP'
p1664
g5
tp1665
a(S'In'
p1666
S'In'
p1667
S'IN'
p1668
S'B-PP'
p1669
g5
tp1670
a(S'the'
p1671
S'the'
p1672
S'DT'
p1673
S'B-NP'
p1674
g5
tp1675
a(S'modified'
p1676
S'modify'
p1677
S'VBN'
p1678
S'I-NP'
p1679
g5
tp1680
a(S'care'
p1681
S'care'
p1682
S'NN'
p1683
S'I-NP'
p1684
g5
tp1685
a(S'group'
p1686
S'group'
p1687
S'NN'
p1688
S'I-NP'
p1689
g5
tp1690
a(g57
g57
g57
g5
g5
tp1691
a(S'12'
p1692
S'12'
p1693
S'CD'
p1694
S'B-NP'
p1695
g5
tp1696
a(S'infants'
p1697
S'infant'
p1698
S'NNS'
p1699
S'I-NP'
p1700
g5
tp1701
a(S'were'
p1702
S'be'
p1703
S'VBD'
p1704
S'B-VP'
p1705
g5
tp1706
a(S'transferred'
p1707
S'transfer'
p1708
S'VBN'
p1709
S'I-VP'
p1710
g5
tp1711
a(S'to'
p1712
S'to'
p1713
S'TO'
p1714
S'B-PP'
p1715
g5
tp1716
a(g48
g48
S'DT'
p1717
S'B-NP'
p1718
g5
tp1719
a(S'high-dependency'
p1720
S'high-dependency'
p1721
S'JJ'
p1722
S'I-NP'
p1723
g5
tp1724
a(S'unit'
p1725
S'unit'
p1726
S'NN'
p1727
S'I-NP'
p1728
g5
tp1729
a(S'and'
p1730
S'and'
p1731
S'CC'
p1732
g5
g5
tp1733
a(S'12'
p1734
S'12'
p1735
S'CD'
p1736
S'B-NP'
p1737
g5
tp1738
a(S'were'
p1739
S'be'
p1740
S'VBD'
p1741
S'B-VP'
p1742
g5
tp1743
a(S'readmitted'
p1744
S'readmitte'
p1745
S'VBN'
p1746
S'I-VP'
p1747
g5
tp1748
a(S'to'
p1749
S'to'
p1750
S'TO'
p1751
S'B-VP'
p1752
g5
tp1753
a(S'hospital.'
p1754
S'hospital.'
p1755
S'VB'
p1756
S'I-VP'
p1757
g5
tp1758
a(S'Recorded'
p1759
S'Record'
p1760
S'VBN'
p1761
S'B-NP'
p1762
g5
tp1763
a(S'adverse'
p1764
S'adverse'
p1765
S'JJ'
p1766
S'I-NP'
p1767
g5
tp1768
a(S'events'
p1769
S'event'
p1770
S'NNS'
p1771
S'I-NP'
p1772
g5
tp1773
a(S'did'
p1774
S'do'
p1775
S'VBD'
p1776
S'B-VP'
p1777
g5
tp1778
a(S'not'
p1779
S'not'
p1780
S'RB'
p1781
S'I-VP'
p1782
g5
tp1783
a(S'differ'
p1784
S'differ'
p1785
S'VB'
p1786
S'I-VP'
p1787
g5
tp1788
a(S'significantly'
p1789
S'significantly'
p1790
S'RB'
p1791
S'B-ADVP'
p1792
g5
tp1793
a(g77
g77
g77
g5
g5
tp1794
a(S'INTERPRETATION'
p1795
S'INTERPRETATION'
p1796
S'NN'
p1797
S'B-NP'
p1798
g5
tp1799
a(S'Management'
p1800
S'Management'
p1801
S'NN'
p1802
S'I-NP'
p1803
g5
tp1804
a(S'of'
p1805
S'of'
p1806
S'IN'
p1807
S'B-PP'
p1808
g5
tp1809
a(S'infants'
p1810
S'infant'
p1811
S'NNS'
p1812
S'B-NP'
p1813
g5
tp1814
a(S'with'
p1815
S'with'
p1816
S'IN'
p1817
S'B-PP'
p1818
g5
tp1819
a(S'bronchiolitis'
p1820
S'bronchiolitis'
p1821
S'NN'
p1822
S'B-NP'
p1823
g5
tp1824
a(S'to'
p1825
S'to'
p1826
S'TO'
p1827
S'B-PP'
p1828
g5
tp1829
a(S'an'
p1830
S'an'
p1831
S'DT'
p1832
S'B-NP'
p1833
g5
tp1834
a(S'oxygen'
p1835
S'oxygen'
p1836
S'NN'
p1837
S'I-NP'
p1838
g5
tp1839
a(S'saturation'
p1840
S'saturation'
p1841
S'NN'
p1842
S'I-NP'
p1843
g5
tp1844
a(S'target'
p1845
S'target'
p1846
S'NN'
p1847
S'I-NP'
p1848
g5
tp1849
a(S'of'
p1850
S'of'
p1851
S'IN'
p1852
S'B-PP'
p1853
g5
tp1854
a(S'90'
p1855
S'90'
p1856
S'CD'
p1857
S'B-NP'
p1858
g5
tp1859
a(g162
g162
S'NN'
p1860
S'I-NP'
p1861
g5
tp1862
a(S'or'
p1863
S'or'
p1864
S'CC'
p1865
g5
g5
tp1866
a(S'higher'
p1867
S'high'
p1868
S'JJR'
p1869
S'B-ADJP'
p1870
g5
tp1871
a(S'is'
p1872
S'be'
p1873
S'VBZ'
p1874
S'B-VP'
p1875
g5
tp1876
a(S'as'
p1877
S'as'
p1878
S'RB'
p1879
S'B-ADJP'
p1880
g5
tp1881
a(S'safe'
p1882
S'safe'
p1883
S'JJ'
p1884
S'I-ADJP'
p1885
g5
tp1886
a(S'and'
p1887
S'and'
p1888
S'CC'
p1889
g5
g5
tp1890
a(S'clinically'
p1891
S'clinically'
p1892
S'RB'
p1893
S'B-ADJP'
p1894
g5
tp1895
a(S'effective'
p1896
S'effective'
p1897
S'JJ'
p1898
S'I-ADJP'
p1899
g5
tp1900
a(S'as'
p1901
S'as'
p1902
S'IN'
p1903
S'B-PP'
p1904
g5
tp1905
a(S'one'
p1906
S'one'
p1907
S'CD'
p1908
S'B-NP'
p1909
g5
tp1910
a(S'of'
p1911
S'of'
p1912
S'IN'
p1913
S'B-PP'
p1914
g5
tp1915
a(S'94'
p1916
S'94'
p1917
S'CD'
p1918
S'B-NP'
p1919
g5
tp1920
a(g162
g162
S'NN'
p1921
S'I-NP'
p1922
g5
tp1923
a(S'or'
p1924
S'or'
p1925
S'CC'
p1926
g5
g5
tp1927
a(S'higher.'
p1928
S'higher.'
p1929
S'JJR'
p1930
S'B-NP'
p1931
g5
tp1932
a(S'Future'
p1933
S'Future'
p1934
S'JJ'
p1935
S'I-NP'
p1936
g5
tp1937
a(S'research'
p1938
S'research'
p1939
S'NN'
p1940
S'I-NP'
p1941
g5
tp1942
a(S'should'
p1943
S'should'
p1944
S'MD'
p1945
S'B-VP'
p1946
g5
tp1947
a(S'assess'
p1948
S'assess'
p1949
S'VB'
p1950
S'I-VP'
p1951
g5
tp1952
a(S'the'
p1953
S'the'
p1954
S'DT'
p1955
S'B-NP'
p1956
g5
tp1957
a(S'benefits'
p1958
S'benefit'
p1959
S'NNS'
p1960
S'I-NP'
p1961
g5
tp1962
a(S'and'
p1963
S'and'
p1964
S'CC'
p1965
S'I-NP'
p1966
g5
tp1967
a(S'risks'
p1968
S'risk'
p1969
S'NNS'
p1970
S'I-NP'
p1971
g5
tp1972
a(S'of'
p1973
S'of'
p1974
S'IN'
p1975
S'B-PP'
p1976
g5
tp1977
a(S'different'
p1978
S'different'
p1979
S'JJ'
p1980
S'B-NP'
p1981
g5
tp1982
a(S'oxygen'
p1983
S'oxygen'
p1984
S'NN'
p1985
S'I-NP'
p1986
g5
tp1987
a(S'saturation'
p1988
S'saturation'
p1989
S'NN'
p1990
S'I-NP'
p1991
g5
tp1992
a(S'targets'
p1993
S'target'
p1994
S'NNS'
p1995
S'I-NP'
p1996
g5
tp1997
a(S'in'
p1998
S'in'
p1999
S'IN'
p2000
S'B-PP'
p2001
g5
tp2002
a(S'acute'
p2003
S'acute'
p2004
S'JJ'
p2005
S'B-NP'
p2006
g5
tp2007
a(S'respiratory'
p2008
S'respiratory'
p2009
S'JJ'
p2010
S'I-NP'
p2011
g5
tp2012
a(S'infection'
p2013
S'infection'
p2014
S'NN'
p2015
S'I-NP'
p2016
g5
tp2017
a(S'in'
p2018
S'in'
p2019
S'IN'
p2020
S'B-PP'
p2021
g5
tp2022
a(S'older'
p2023
S'old'
p2024
S'JJR'
p2025
S'B-NP'
p2026
g5
tp2027
a(S'children'
p2028
S'child'
p2029
S'NNS'
p2030
S'I-NP'
p2031
g5
tp2032
a(g57
g57
g57
g5
g5
tp2033
a(S'particularly'
p2034
S'particularly'
p2035
S'RB'
p2036
S'B-ADVP'
p2037
g5
tp2038
a(S'in'
p2039
S'in'
p2040
S'IN'
p2041
S'B-PP'
p2042
g5
tp2043
a(S'developing'
p2044
S'develop'
p2045
S'VBG'
p2046
S'B-VP'
p2047
g5
tp2048
a(S'nations'
p2049
S'nation'
p2050
S'NNS'
p2051
S'B-NP'
p2052
g5
tp2053
a(S'where'
p2054
S'where'
p2055
S'WRB'
p2056
S'B-ADVP'
p2057
g5
tp2058
a(S'resources'
p2059
S'resource'
p2060
S'NNS'
p2061
S'B-NP'
p2062
g5
tp2063
a(S'are'
p2064
S'be'
p2065
S'VBP'
p2066
S'B-VP'
p2067
g5
tp2068
a(S'scarce'
p2069
S'scarce'
p2070
S'JJ'
p2071
S'B-ADJP'
p2072
g5
tp2073
a(g77
g77
g77
g5
g5
tp2074
a(S'FUNDING'
p2075
S'FUNDING'
p2076
S'VBG'
p2077
S'B-VP'
p2078
g5
tp2079
a(S'National'
p2080
S'National'
p2081
S'NNP'
p2082
S'B-NP'
p2083
g5
tp2084
a(S'Institute'
p2085
S'Institute'
p2086
S'NNP'
p2087
S'I-NP'
p2088
g5
tp2089
a(S'for'
p2090
S'for'
p2091
S'IN'
p2092
S'B-PP'
p2093
g5
tp2094
a(S'Health'
p2095
S'Health'
p2096
S'NNP'
p2097
S'B-NP'
p2098
g5
tp2099
a(S'Research'
p2100
S'Research'
p2101
S'NNP'
p2102
S'I-NP'
p2103
g5
tp2104
a(g57
g57
g57
g5
g5
tp2105
a(S'Health'
p2106
S'Health'
p2107
S'NNP'
p2108
S'B-NP'
p2109
g5
tp2110
a(S'Technology'
p2111
S'Technology'
p2112
S'NNP'
p2113
S'I-NP'
p2114
g5
tp2115
a(S'Assessment'
p2116
S'Assessment'
p2117
S'NNP'
p2118
S'I-NP'
p2119
g5
tp2120
a(S'programme'
p2121
S'programme'
p2122
S'NN'
p2123
S'I-NP'
p2124
g5
tp2125
a(g77
g77
g77
g5
g5
tp2126
a.