(lp0
(S'Contingency'
p1
S'Contingency'
p2
S'NN'
p3
S'B-NP'
p4
S'O'
p5
tp6
a(S'management'
p7
S'management'
p8
S'NN'
p9
S'I-NP'
p10
g5
tp11
a(S'for'
p12
S'for'
p13
S'IN'
p14
S'B-PP'
p15
g5
tp16
a(S'the'
p17
S'the'
p18
S'DT'
p19
S'B-NP'
p20
g5
tp21
a(S'treatment'
p22
S'treatment'
p23
S'NN'
p24
S'I-NP'
p25
g5
tp26
a(S'of'
p27
S'of'
p28
S'IN'
p29
S'B-PP'
p30
g5
tp31
a(S'antipsychotic-induced'
p32
S'antipsychotic-induced'
p33
S'JJ'
p34
S'B-NP'
p35
S'B-protein'
p36
tp37
a(S'weight'
p38
S'weight'
p39
S'NN'
p40
S'I-NP'
p41
S'I-protein'
p42
tp43
a(S'gain'
p44
S'gain'
p45
S'NN'
p46
S'I-NP'
p47
S'I-protein'
p48
tp49
a(S':'
p50
g50
g50
g5
g5
tp51
a(S'a'
p52
g52
S'DT'
p53
S'B-NP'
p54
g5
tp55
a(S'randomized'
p56
S'randomize'
p57
S'VBN'
p58
S'I-NP'
p59
g5
tp60
a(S'controlled'
p61
S'control'
p62
S'VBN'
p63
S'I-NP'
p64
g5
tp65
a(S'pilot'
p66
S'pilot'
p67
S'NN'
p68
S'I-NP'
p69
g5
tp70
a(S'study'
p71
S'study'
p72
S'NN'
p73
S'I-NP'
p74
g5
tp75
a(S'.'
p76
g76
g76
g5
g5
tp77
a(S'OBJECTIVE'
p78
S'OBJECTIVE'
p79
S'NN'
p80
S'B-NP'
p81
S'B-protein'
p82
tp83
a(S'Weight'
p84
S'Weight'
p85
S'NN'
p86
S'I-NP'
p87
S'I-protein'
p88
tp89
a(S'gain'
p90
S'gain'
p91
S'NN'
p92
S'I-NP'
p93
S'I-protein'
p94
tp95
a(S'is'
p96
S'be'
p97
S'VBZ'
p98
S'B-VP'
p99
g5
tp100
a(S'common'
p101
S'common'
p102
S'JJ'
p103
S'B-ADJP'
p104
g5
tp105
a(S'for'
p106
S'for'
p107
S'IN'
p108
S'B-PP'
p109
g5
tp110
a(S'individuals'
p111
S'individual'
p112
S'NNS'
p113
S'B-NP'
p114
g5
tp115
a(S'with'
p116
S'with'
p117
S'IN'
p118
S'B-PP'
p119
g5
tp120
a(S'serious'
p121
S'serious'
p122
S'JJ'
p123
S'B-NP'
p124
g5
tp125
a(S'mental'
p126
S'mental'
p127
S'JJ'
p128
S'I-NP'
p129
g5
tp130
a(S'illness'
p131
S'illness'
p132
S'NN'
p133
S'I-NP'
p134
g5
tp135
a(S'('
p136
g136
g136
g5
g5
tp137
a(S'SMI'
p138
S'SMI'
p139
S'NN'
p140
S'B-NP'
p141
g5
tp142
a(S')'
p143
g143
g143
g5
g5
tp144
a(S'receiving'
p145
S'receive'
p146
S'VBG'
p147
S'B-VP'
p148
g5
tp149
a(S'antipsychotic'
p150
S'antipsychotic'
p151
S'JJ'
p152
S'B-NP'
p153
g5
tp154
a(S'drug'
p155
S'drug'
p156
S'NN'
p157
S'I-NP'
p158
g5
tp159
a(S'therapy.'
p160
S'therapy.'
p161
S'NN'
p162
S'I-NP'
p163
g5
tp164
a(S'Contingency'
p165
S'Contingency'
p166
S'NN'
p167
S'I-NP'
p168
g5
tp169
a(S'management'
p170
S'management'
p171
S'NN'
p172
S'I-NP'
p173
g5
tp174
a(g136
g136
g136
g5
g5
tp175
a(S'CM'
p176
S'CM'
p177
S'NN'
p178
S'B-NP'
p179
g5
tp180
a(g143
g143
g143
g5
g5
tp181
a(S'is'
p182
S'be'
p183
S'VBZ'
p184
S'B-VP'
p185
g5
tp186
a(g52
g52
S'DT'
p187
S'B-NP'
p188
g5
tp189
a(S'behavioral'
p190
S'behavioral'
p191
S'JJ'
p192
S'I-NP'
p193
g5
tp194
a(S'intervention'
p195
S'intervention'
p196
S'NN'
p197
S'I-NP'
p198
g5
tp199
a(S'that'
p200
S'that'
p201
S'WDT'
p202
S'B-NP'
p203
g5
tp204
a(S'rewards'
p205
S'reward'
p206
S'VBZ'
p207
S'B-VP'
p208
g5
tp209
a(S'positive'
p210
S'positive'
p211
S'JJ'
p212
S'B-NP'
p213
g5
tp214
a(S'performance'
p215
S'performance'
p216
S'NN'
p217
S'I-NP'
p218
g5
tp219
a(S'and'
p220
S'and'
p221
S'CC'
p222
g5
g5
tp223
a(S'has'
p224
S'have'
p225
S'VBZ'
p226
S'B-VP'
p227
g5
tp228
a(S'demonstrated'
p229
S'demonstrate'
p230
S'VBN'
p231
S'I-VP'
p232
g5
tp233
a(S'effectiveness'
p234
S'effectiveness'
p235
S'NN'
p236
S'B-NP'
p237
g5
tp238
a(S'in'
p239
S'in'
p240
S'IN'
p241
S'B-PP'
p242
g5
tp243
a(S'reducing'
p244
S'reduce'
p245
S'VBG'
p246
S'B-VP'
p247
g5
tp248
a(S'drug'
p249
S'drug'
p250
S'NN'
p251
S'B-NP'
p252
g5
tp253
a(S'use'
p254
S'use'
p255
S'NN'
p256
S'I-NP'
p257
g5
tp258
a(S'in'
p259
S'in'
p260
S'IN'
p261
S'B-PP'
p262
g5
tp263
a(S'SMI'
p264
S'SMI'
p265
S'NN'
p266
S'B-NP'
p267
g5
tp268
a(S'populations.'
p269
S'populations.'
p270
S'NN'
p271
S'I-NP'
p272
g5
tp273
a(S'This'
p274
S'This'
p275
S'DT'
p276
S'B-NP'
p277
g5
tp278
a(S'study'
p279
S'study'
p280
S'NN'
p281
S'I-NP'
p282
g5
tp283
a(S'evaluated'
p284
S'evaluate'
p285
S'VBD'
p286
S'B-VP'
p287
g5
tp288
a(S'the'
p289
S'the'
p290
S'DT'
p291
S'B-NP'
p292
g5
tp293
a(S'feasibility'
p294
S'feasibility'
p295
S'NN'
p296
S'I-NP'
p297
g5
tp298
a(S'of'
p299
S'of'
p300
S'IN'
p301
S'B-PP'
p302
g5
tp303
a(S'using'
p304
S'use'
p305
S'VBG'
p306
S'B-VP'
p307
g5
tp308
a(S'CM'
p309
S'CM'
p310
S'NN'
p311
S'B-NP'
p312
g5
tp313
a(S'to'
p314
S'to'
p315
S'TO'
p316
S'B-VP'
p317
g5
tp318
a(S'promote'
p319
S'promote'
p320
S'VB'
p321
S'I-VP'
p322
g5
tp323
a(S'weight'
p324
S'weight'
p325
S'NN'
p326
S'B-NP'
p327
g5
tp328
a(S'loss'
p329
S'loss'
p330
S'NN'
p331
S'I-NP'
p332
g5
tp333
a(S'in'
p334
S'in'
p335
S'IN'
p336
S'B-PP'
p337
g5
tp338
a(S'individuals'
p339
S'individual'
p340
S'NNS'
p341
S'B-NP'
p342
g5
tp343
a(S'with'
p344
S'with'
p345
S'IN'
p346
S'B-PP'
p347
g5
tp348
a(S'SMI'
p349
S'SMI'
p350
S'NN'
p351
S'B-NP'
p352
S'B-protein'
p353
tp354
a(S'over'
p355
S'over'
p356
S'IN'
p357
S'B-PP'
p358
S'I-protein'
p359
tp360
a(S'8'
p361
g361
S'CD'
p362
S'B-NP'
p363
S'I-protein'
p364
tp365
a(S'weeks'
p366
S'week'
p367
S'NNS'
p368
S'I-NP'
p369
S'I-protein'
p370
tp371
a(g76
g76
g76
g5
g5
tp372
a(S'METHOD'
p373
S'METHOD'
p374
S'NN'
p375
S'B-NP'
p376
g5
tp377
a(S'30'
p378
S'30'
p379
S'CD'
p380
S'I-NP'
p381
g5
tp382
a(S'individuals'
p383
S'individual'
p384
S'NNS'
p385
S'I-NP'
p386
g5
tp387
a(g136
g136
g136
g5
g5
tp388
a(S'BMI'
p389
S'BMI'
p390
S'NN'
p391
S'B-NP'
p392
g5
tp393
a(S'\xe2\x89\xa5'
p394
S'\xe2\x89\xa5'
p395
S'NN'
p396
S'I-NP'
p397
g5
tp398
a(S'28'
p399
S'28'
p400
S'CD'
p401
S'B-NP'
p402
g5
tp403
a(S'kg/m'
p404
S'kg/m'
p405
S'NN'
p406
S'I-NP'
p407
g5
tp408
a(g136
g136
g136
g5
g5
tp409
a(S'2'
p410
g410
S'CD'
p411
S'B-NP'
p412
g5
tp413
a(g143
g143
g143
g5
g5
tp414
a(g143
g143
g143
g5
g5
tp415
a(S'were'
p416
S'be'
p417
S'VBD'
p418
S'B-VP'
p419
g5
tp420
a(S'randomized'
p421
S'randomize'
p422
S'VBN'
p423
S'I-VP'
p424
g5
tp425
a(S'to'
p426
S'to'
p427
S'TO'
p428
S'B-PP'
p429
g5
tp430
a(S'one'
p431
S'one'
p432
S'CD'
p433
S'B-NP'
p434
g5
tp435
a(S'of'
p436
S'of'
p437
S'IN'
p438
S'B-PP'
p439
g5
tp440
a(S'three'
p441
S'three'
p442
S'CD'
p443
S'B-NP'
p444
g5
tp445
a(S'conditions'
p446
S'condition'
p447
S'NNS'
p448
S'I-NP'
p449
g5
tp450
a(g50
g50
g50
g5
g5
tp451
a(S'i'
p452
g452
S'LS'
p453
S'B-LST'
p454
g5
tp455
a(g143
g143
g143
g5
g5
tp456
a(S'The'
p457
S'The'
p458
S'DT'
p459
S'B-NP'
p460
g5
tp461
a(S'combination'
p462
S'combination'
p463
S'NN'
p464
S'I-NP'
p465
g5
tp466
a(S'of'
p467
S'of'
p468
S'IN'
p469
S'B-PP'
p470
g5
tp471
a(g52
g52
S'DT'
p472
S'B-NP'
p473
g5
tp474
a(S'standardized'
p475
S'standardized'
p476
S'JJ'
p477
S'I-NP'
p478
g5
tp479
a(S'lifestyle'
p480
S'lifestyle'
p481
S'NN'
p482
S'I-NP'
p483
g5
tp484
a(S'modification'
p485
S'modification'
p486
S'NN'
p487
S'I-NP'
p488
g5
tp489
a(g136
g136
g136
g5
g5
tp490
a(S'LM'
p491
S'LM'
p492
S'NN'
p493
S'B-NP'
p494
g5
tp495
a(g143
g143
g143
g5
g5
tp496
a(S'program'
p497
S'program'
p498
S'NN'
p499
S'B-NP'
p500
g5
tp501
a(S'for'
p502
S'for'
p503
S'IN'
p504
S'B-PP'
p505
g5
tp506
a(S'individuals'
p507
S'individual'
p508
S'NNS'
p509
S'B-NP'
p510
g5
tp511
a(S'with'
p512
S'with'
p513
S'IN'
p514
S'B-PP'
p515
g5
tp516
a(S'SMI'
p517
S'SMI'
p518
S'NN'
p519
S'B-NP'
p520
S'B-protein'
p521
tp522
a(S'and'
p523
S'and'
p524
S'CC'
p525
S'I-NP'
p526
g5
tp527
a(S'payment'
p528
S'payment'
p529
S'NN'
p530
S'I-NP'
p531
g5
tp532
a(S'for'
p533
S'for'
p534
S'IN'
p535
S'B-PP'
p536
g5
tp537
a(S'group'
p538
S'group'
p539
S'NN'
p540
S'B-NP'
p541
g5
tp542
a(S'attendance'
p543
S'attendance'
p544
S'NN'
p545
S'I-NP'
p546
g5
tp547
a(g136
g136
g136
g5
g5
tp548
a(S'CM'
p549
S'CM'
p550
S'NN'
p551
S'B-NP'
p552
g5
tp553
a(g136
g136
g136
g5
g5
tp554
a(S'attendance'
p555
S'attendance'
p556
S'NN'
p557
S'B-NP'
p558
g5
tp559
a(g143
g143
g143
g5
g5
tp560
a(g143
g143
g143
g5
g5
tp561
a(S','
p562
g562
g562
g5
g5
tp563
a(S'ii'
p564
S'ii'
p565
S'LS'
p566
S'B-LST'
p567
g5
tp568
a(g143
g143
g143
g5
g5
tp569
a(S'The'
p570
S'The'
p571
S'DT'
p572
S'B-NP'
p573
g5
tp574
a(S'combination'
p575
S'combination'
p576
S'NN'
p577
S'I-NP'
p578
g5
tp579
a(S'of'
p580
S'of'
p581
S'IN'
p582
S'B-PP'
p583
g5
tp584
a(S'LM'
p585
S'LM'
p586
S'NN'
p587
S'B-NP'
p588
g5
tp589
a(S'and'
p590
S'and'
p591
S'CC'
p592
S'I-NP'
p593
g5
tp594
a(S'payment'
p595
S'payment'
p596
S'NN'
p597
S'I-NP'
p598
g5
tp599
a(S'for'
p600
S'for'
p601
S'IN'
p602
S'B-PP'
p603
g5
tp604
a(S'weight'
p605
S'weight'
p606
S'NN'
p607
S'B-NP'
p608
g5
tp609
a(S'loss'
p610
S'loss'
p611
S'NN'
p612
S'I-NP'
p613
g5
tp614
a(g136
g136
g136
g5
g5
tp615
a(S'CM'
p616
S'CM'
p617
S'NN'
p618
S'B-NP'
p619
g5
tp620
a(g136
g136
g136
g5
g5
tp621
a(S'weight'
p622
S'weight'
p623
S'NN'
p624
S'B-NP'
p625
g5
tp626
a(g143
g143
g143
g5
g5
tp627
a(g143
g143
g143
g5
g5
tp628
a(g562
g562
g562
g5
g5
tp629
a(S'and'
p630
S'and'
p631
S'CC'
p632
g5
g5
tp633
a(S'iii'
p634
S'iii'
p635
S'NN'
p636
S'B-NP'
p637
g5
tp638
a(g143
g143
g143
g5
g5
tp639
a(S'waitlist'
p640
S'waitlist'
p641
S'NN'
p642
S'B-NP'
p643
g5
tp644
a(S'control'
p645
S'control'
p646
S'NN'
p647
S'I-NP'
p648
g5
tp649
a(g136
g136
g136
g5
g5
tp650
a(S'CON'
p651
S'CON'
p652
S'NN'
p653
S'B-NP'
p654
g5
tp655
a(g143
g143
g143
g5
g5
tp656
a(g76
g76
g76
g5
g5
tp657
a(S'After'
p658
S'After'
p659
S'IN'
p660
S'B-PP'
p661
g5
tp662
a(S'the'
p663
S'the'
p664
S'DT'
p665
S'B-NP'
p666
g5
tp667
a(S'waitlist'
p668
S'waitlist'
p669
S'NN'
p670
S'I-NP'
p671
g5
tp672
a(S'period'
p673
S'period'
p674
S'NN'
p675
S'I-NP'
p676
g5
tp677
a(g562
g562
g562
g5
g5
tp678
a(S'those'
p679
S'those'
p680
S'DT'
p681
S'B-NP'
p682
g5
tp683
a(S'participants'
p684
S'participant'
p685
S'NNS'
p686
S'I-NP'
p687
g5
tp688
a(S'joined'
p689
S'join'
p690
S'VBD'
p691
S'B-VP'
p692
g5
tp693
a(g52
g52
S'DT'
p694
S'B-NP'
p695
g5
tp696
a(S'LM'
p697
S'LM'
p698
S'NN'
p699
S'I-NP'
p700
g5
tp701
a(S'group'
p702
S'group'
p703
S'NN'
p704
S'I-NP'
p705
g5
tp706
a(S'and'
p707
S'and'
p708
S'CC'
p709
g5
g5
tp710
a(S'received'
p711
S'receive'
p712
S'VBD'
p713
S'B-VP'
p714
g5
tp715
a(S'payment'
p716
S'payment'
p717
S'NN'
p718
S'B-NP'
p719
g5
tp720
a(S'for'
p721
S'for'
p722
S'IN'
p723
S'B-PP'
p724
g5
tp725
a(S'behavioral'
p726
S'behavioral'
p727
S'JJ'
p728
S'B-NP'
p729
g5
tp730
a(S'change'
p731
S'change'
p732
S'NN'
p733
S'I-NP'
p734
g5
tp735
a(g136
g136
g136
g5
g5
tp736
a(S'CM'
p737
S'CM'
p738
S'NN'
p739
S'B-NP'
p740
g5
tp741
a(g136
g136
g136
g5
g5
tp742
a(S'behavior'
p743
S'behavior'
p744
S'NN'
p745
S'B-NP'
p746
g5
tp747
a(g143
g143
g143
g5
g5
tp748
a(g143
g143
g143
g5
g5
tp749
a(g76
g76
g76
g5
g5
tp750
a(S'RESULTS'
p751
S'RESULTS'
p752
S'NNS'
p753
S'B-NP'
p754
g5
tp755
a(S'Subjects'
p756
S'Subject'
p757
S'NNS'
p758
S'I-NP'
p759
g5
tp760
a(S'in'
p761
S'in'
p762
S'IN'
p763
S'B-PP'
p764
g5
tp765
a(S'the'
p766
S'the'
p767
S'DT'
p768
S'B-NP'
p769
g5
tp770
a(S'CM'
p771
S'CM'
p772
S'NN'
p773
S'I-NP'
p774
g5
tp775
a(g136
g136
g136
g5
g5
tp776
a(S'attendance'
p777
S'attendance'
p778
S'NN'
p779
S'B-NP'
p780
g5
tp781
a(g143
g143
g143
g5
g5
tp782
a(S'and'
p783
S'and'
p784
S'CC'
p785
g5
g5
tp786
a(S'in'
p787
S'in'
p788
S'IN'
p789
S'B-PP'
p790
g5
tp791
a(S'the'
p792
S'the'
p793
S'DT'
p794
S'B-NP'
p795
g5
tp796
a(S'CM'
p797
S'CM'
p798
S'NN'
p799
S'I-NP'
p800
g5
tp801
a(g136
g136
g136
g5
g5
tp802
a(S'weight'
p803
S'weight'
p804
S'NN'
p805
S'B-NP'
p806
g5
tp807
a(g143
g143
g143
g5
g5
tp808
a(S'group'
p809
S'group'
p810
S'NN'
p811
S'B-NP'
p812
g5
tp813
a(S'lost'
p814
S'lose'
p815
S'VBD'
p816
S'B-VP'
p817
g5
tp818
a(g52
g52
S'DT'
p819
S'B-NP'
p820
g5
tp821
a(S'mean'
p822
S'mean'
p823
S'NN'
p824
S'I-NP'
p825
g5
tp826
a(S'of'
p827
S'of'
p828
S'IN'
p829
S'B-PP'
p830
g5
tp831
a(S'1.16'
p832
S'1.16'
p833
S'CD'
p834
S'B-NP'
p835
g5
tp836
a(S'kg'
p837
S'kg'
p838
S'NN'
p839
S'I-NP'
p840
g5
tp841
a(S'and'
p842
S'and'
p843
S'CC'
p844
g5
g5
tp845
a(S'1.23'
p846
S'1.23'
p847
S'CD'
p848
S'B-NP'
p849
g5
tp850
a(S'kg'
p851
S'kg'
p852
S'NN'
p853
S'I-NP'
p854
g5
tp855
a(g562
g562
g562
g5
g5
tp856
a(S'respectively'
p857
S'respectively'
p858
S'RB'
p859
S'B-ADVP'
p860
g5
tp861
a(g562
g562
g562
g5
g5
tp862
a(S'while'
p863
S'while'
p864
S'IN'
p865
S'B-SBAR'
p866
g5
tp867
a(S'subjects'
p868
S'subject'
p869
S'NNS'
p870
S'B-NP'
p871
g5
tp872
a(S'in'
p873
S'in'
p874
S'IN'
p875
S'B-PP'
p876
g5
tp877
a(S'the'
p878
S'the'
p879
S'DT'
p880
S'B-NP'
p881
g5
tp882
a(S'CON'
p883
S'CON'
p884
S'NN'
p885
S'I-NP'
p886
g5
tp887
a(S'gained'
p888
S'gain'
p889
S'VBD'
p890
S'B-VP'
p891
g5
tp892
a(g52
g52
S'DT'
p893
S'B-NP'
p894
g5
tp895
a(S'mean'
p896
S'mean'
p897
S'NN'
p898
S'I-NP'
p899
g5
tp900
a(S'of'
p901
S'of'
p902
S'IN'
p903
S'B-PP'
p904
g5
tp905
a(S'0.68'
p906
S'0.68'
p907
S'CD'
p908
S'B-NP'
p909
g5
tp910
a(S'kg.'
p911
S'kg.'
p912
S'NN'
p913
S'I-NP'
p914
g5
tp915
a(S'Subjects'
p916
S'Subject'
p917
S'NNS'
p918
S'I-NP'
p919
g5
tp920
a(S'receiving'
p921
S'receive'
p922
S'VBG'
p923
S'B-VP'
p924
g5
tp925
a(S'CM'
p926
S'CM'
p927
S'NN'
p928
S'B-NP'
p929
g5
tp930
a(g136
g136
g136
g5
g5
tp931
a(S'behavior'
p932
S'behavior'
p933
S'NN'
p934
S'B-NP'
p935
g5
tp936
a(g143
g143
g143
g5
g5
tp937
a(g562
g562
g562
g5
g5
tp938
a(S'lost'
p939
S'lose'
p940
S'VBD'
p941
S'B-VP'
p942
g5
tp943
a(g52
g52
S'DT'
p944
S'B-NP'
p945
g5
tp946
a(S'mean'
p947
S'mean'
p948
S'NN'
p949
S'I-NP'
p950
g5
tp951
a(S'of'
p952
S'of'
p953
S'IN'
p954
S'B-PP'
p955
g5
tp956
a(S'2.54'
p957
S'2.54'
p958
S'CD'
p959
S'B-NP'
p960
g5
tp961
a(S'kg'
p962
S'kg'
p963
S'NN'
p964
S'I-NP'
p965
g5
tp966
a(g562
g562
g562
g5
g5
tp967
a(S'which'
p968
S'which'
p969
S'WDT'
p970
S'B-NP'
p971
g5
tp972
a(S'was'
p973
S'be'
p974
S'VBD'
p975
S'B-VP'
p976
g5
tp977
a(g52
g52
S'DT'
p978
S'B-NP'
p979
g5
tp980
a(S'significant'
p981
S'significant'
p982
S'JJ'
p983
S'I-NP'
p984
g5
tp985
a(S'weight'
p986
S'weight'
p987
S'NN'
p988
S'I-NP'
p989
g5
tp990
a(S'loss'
p991
S'loss'
p992
S'NN'
p993
S'I-NP'
p994
g5
tp995
a(S'compared'
p996
S'compare'
p997
S'VBN'
p998
S'B-VP'
p999
g5
tp1000
a(S'to'
p1001
S'to'
p1002
S'TO'
p1003
S'B-PP'
p1004
g5
tp1005
a(S'the'
p1006
S'the'
p1007
S'DT'
p1008
S'B-NP'
p1009
g5
tp1010
a(S'control'
p1011
S'control'
p1012
S'NN'
p1013
S'I-NP'
p1014
g5
tp1015
a(S'period'
p1016
S'period'
p1017
S'NN'
p1018
S'I-NP'
p1019
g5
tp1020
a(g76
g76
g76
g5
g5
tp1021
a(S'CONCLUSION'
p1022
S'CONCLUSION'
p1023
S'NN'
p1024
S'B-NP'
p1025
g5
tp1026
a(S'LM'
p1027
S'LM'
p1028
S'NN'
p1029
S'I-NP'
p1030
g5
tp1031
a(S'supplemented'
p1032
S'supplement'
p1033
S'VBN'
p1034
S'B-VP'
p1035
g5
tp1036
a(S'with'
p1037
S'with'
p1038
S'IN'
p1039
S'B-PP'
p1040
g5
tp1041
a(S'CM'
p1042
S'CM'
p1043
S'NN'
p1044
S'B-NP'
p1045
g5
tp1046
a(S'may'
p1047
S'may'
p1048
S'MD'
p1049
S'B-VP'
p1050
g5
tp1051
a(S'facilitate'
p1052
S'facilitate'
p1053
S'VB'
p1054
S'I-VP'
p1055
g5
tp1056
a(S'weight'
p1057
S'weight'
p1058
S'NN'
p1059
S'B-NP'
p1060
g5
tp1061
a(S'loss'
p1062
S'loss'
p1063
S'NN'
p1064
S'I-NP'
p1065
g5
tp1066
a(S'in'
p1067
S'in'
p1068
S'IN'
p1069
S'B-PP'
p1070
g5
tp1071
a(S'patients'
p1072
S'patient'
p1073
S'NNS'
p1074
S'B-NP'
p1075
g5
tp1076
a(S'taking'
p1077
S'take'
p1078
S'VBG'
p1079
S'B-VP'
p1080
g5
tp1081
a(S'antipsychotic'
p1082
S'antipsychotic'
p1083
S'JJ'
p1084
S'B-NP'
p1085
g5
tp1086
a(S'medications'
p1087
S'medication'
p1088
S'NNS'
p1089
S'I-NP'
p1090
g5
tp1091
a(S';'
p1092
g1092
g50
g5
g5
tp1093
a(S'financial'
p1094
S'financial'
p1095
S'JJ'
p1096
S'B-NP'
p1097
g5
tp1098
a(S'reimbursement'
p1099
S'reimbursement'
p1100
S'NN'
p1101
S'I-NP'
p1102
g5
tp1103
a(S'for'
p1104
S'for'
p1105
S'IN'
p1106
S'B-PP'
p1107
g5
tp1108
a(S'behavioral'
p1109
S'behavioral'
p1110
S'JJ'
p1111
S'B-NP'
p1112
g5
tp1113
a(S'change'
p1114
S'change'
p1115
S'NN'
p1116
S'I-NP'
p1117
g5
tp1118
a(S'may'
p1119
S'may'
p1120
S'MD'
p1121
S'B-VP'
p1122
g5
tp1123
a(S'be'
p1124
S'be'
p1125
S'VB'
p1126
S'I-VP'
p1127
g5
tp1128
a(S'particularly'
p1129
S'particularly'
p1130
S'RB'
p1131
S'B-ADJP'
p1132
g5
tp1133
a(S'effective'
p1134
S'effective'
p1135
S'JJ'
p1136
S'I-ADJP'
p1137
g5
tp1138
a(S'in'
p1139
S'in'
p1140
S'IN'
p1141
S'B-PP'
p1142
g5
tp1143
a(S'this'
p1144
S'this'
p1145
S'DT'
p1146
S'B-NP'
p1147
g5
tp1148
a(S'population'
p1149
S'population'
p1150
S'NN'
p1151
S'I-NP'
p1152
g5
tp1153
a(g76
g76
g76
g5
g5
tp1154
a.