(lp0
(S'A'
p1
g1
S'DT'
p2
S'B-NP'
p3
S'O'
p4
tp5
a(S'comparison'
p6
S'comparison'
p7
S'NN'
p8
S'I-NP'
p9
g4
tp10
a(S'of'
p11
S'of'
p12
S'IN'
p13
S'B-PP'
p14
g4
tp15
a(S'albuterol'
p16
S'albuterol'
p17
S'NN'
p18
S'B-NP'
p19
g4
tp20
a(S'solution'
p21
S'solution'
p22
S'NN'
p23
S'I-NP'
p24
g4
tp25
a(S'nebulized'
p26
S'nebulize'
p27
S'VBD'
p28
S'B-VP'
p29
g4
tp30
a(S'versus'
p31
S'versus'
p32
S'CC'
p33
g4
g4
tp34
a(S'albuterol'
p35
S'albuterol'
p36
S'NN'
p37
S'B-NP'
p38
g4
tp39
a(S'powder'
p40
S'powder'
p41
S'NN'
p42
S'I-NP'
p43
g4
tp44
a(S'given'
p45
S'give'
p46
S'VBN'
p47
S'B-VP'
p48
g4
tp49
a(S'by'
p50
S'by'
p51
S'IN'
p52
S'B-PP'
p53
g4
tp54
a(S'breath'
p55
S'breath'
p56
S'NN'
p57
S'B-NP'
p58
g4
tp59
a(S'activated'
p60
S'activate'
p61
S'VBN'
p62
S'B-VP'
p63
g4
tp64
a(S'metered'
p65
S'meter'
p66
S'VBD'
p67
S'B-VP'
p68
g4
tp69
a(S'dose'
p70
S'dose'
p71
S'NN'
p72
S'B-NP'
p73
g4
tp74
a(S'inhaler'
p75
S'inhaler'
p76
S'NN'
p77
S'I-NP'
p78
g4
tp79
a(S'.'
p80
g80
g80
g4
g4
tp81
a(S'The'
p82
S'The'
p83
S'DT'
p84
S'B-NP'
p85
g4
tp86
a(S'goal'
p87
S'goal'
p88
S'NN'
p89
S'I-NP'
p90
g4
tp91
a(S'of'
p92
S'of'
p93
S'IN'
p94
S'B-PP'
p95
g4
tp96
a(S'the'
p97
S'the'
p98
S'DT'
p99
S'B-NP'
p100
g4
tp101
a(S'present'
p102
S'present'
p103
S'JJ'
p104
S'I-NP'
p105
g4
tp106
a(S'study'
p107
S'study'
p108
S'NN'
p109
S'I-NP'
p110
g4
tp111
a(S'was'
p112
S'be'
p113
S'VBD'
p114
S'B-VP'
p115
g4
tp116
a(S'to'
p117
S'to'
p118
S'TO'
p119
S'B-VP'
p120
g4
tp121
a(S'compare'
p122
S'compare'
p123
S'VB'
p124
S'I-VP'
p125
g4
tp126
a(S'the'
p127
S'the'
p128
S'DT'
p129
S'B-NP'
p130
g4
tp131
a(S'efficacy'
p132
S'efficacy'
p133
S'NN'
p134
S'I-NP'
p135
g4
tp136
a(S'of'
p137
S'of'
p138
S'IN'
p139
S'B-PP'
p140
g4
tp141
a(S'nebulized'
p142
S'nebulized'
p143
S'JJ'
p144
S'B-NP'
p145
g4
tp146
a(S'vs'
p147
S'vs'
p148
S'IN'
p149
S'B-PP'
p150
g4
tp151
a(S'powdered'
p152
S'powdered'
p153
S'JJ'
p154
S'B-NP'
p155
g4
tp156
a(S'albuterol'
p157
S'albuterol'
p158
S'NN'
p159
S'I-NP'
p160
g4
tp161
a(S'in'
p162
S'in'
p163
S'IN'
p164
S'B-PP'
p165
g4
tp166
a(S'patients'
p167
S'patient'
p168
S'NNS'
p169
S'B-NP'
p170
g4
tp171
a(S'with'
p172
S'with'
p173
S'IN'
p174
S'B-PP'
p175
g4
tp176
a(S'exacerbated'
p177
S'exacerbated'
p178
S'JJ'
p179
S'B-NP'
p180
g4
tp181
a(S'bronchial'
p182
S'bronchial'
p183
S'JJ'
p184
S'I-NP'
p185
g4
tp186
a(S'asthma'
p187
S'asthma'
p188
S'NN'
p189
S'I-NP'
p190
g4
tp191
a(S'who'
p192
S'who'
p193
S'WP'
p194
S'B-NP'
p195
g4
tp196
a(S'required'
p197
S'require'
p198
S'VBD'
p199
S'B-VP'
p200
g4
tp201
a(S'hospitalization.'
p202
S'hospitalization.'
p203
S'NN'
p204
S'B-NP'
p205
g4
tp206
a(S'From'
p207
S'From'
p208
S'IN'
p209
S'B-PP'
p210
g4
tp211
a(S'January'
p212
S'January'
p213
S'NNP'
p214
S'B-NP'
p215
g4
tp216
a(S'to'
p217
S'to'
p218
S'TO'
p219
S'B-PP'
p220
g4
tp221
a(S'May'
p222
S'May'
p223
S'NNP'
p224
S'B-NP'
p225
g4
tp226
a(S'1990'
p227
S'1990'
p228
S'CD'
p229
S'I-NP'
p230
g4
tp231
a(S'known'
p232
S'know'
p233
S'VBN'
p234
S'I-NP'
p235
g4
tp236
a(S'asthmatics'
p237
S'asthmatic'
p238
S'NNS'
p239
S'I-NP'
p240
g4
tp241
a(S'admitted'
p242
S'admit'
p243
S'VBN'
p244
S'B-VP'
p245
g4
tp246
a(S'with'
p247
S'with'
p248
S'IN'
p249
S'B-PP'
p250
g4
tp251
a(S'acute'
p252
S'acute'
p253
S'JJ'
p254
S'B-NP'
p255
g4
tp256
a(S'exacerbation'
p257
S'exacerbation'
p258
S'NN'
p259
S'I-NP'
p260
g4
tp261
a(S'were'
p262
S'be'
p263
S'VBD'
p264
S'B-VP'
p265
g4
tp266
a(S'included'
p267
S'include'
p268
S'VBN'
p269
S'I-VP'
p270
g4
tp271
a(S'by'
p272
S'by'
p273
S'IN'
p274
S'B-PP'
p275
g4
tp276
a(S'established'
p277
S'establish'
p278
S'VBN'
p279
S'B-NP'
p280
g4
tp281
a(S'criteria.'
p282
S'criteria.'
p283
S'NN'
p284
S'I-NP'
p285
g4
tp286
a(S'Two'
p287
S'Two'
p288
S'CD'
p289
S'B-NP'
p290
g4
tp291
a(S'groups'
p292
S'group'
p293
S'NNS'
p294
S'I-NP'
p295
g4
tp296
a(S'were'
p297
S'be'
p298
S'VBD'
p299
S'B-VP'
p300
g4
tp301
a(S'randomized.'
p302
S'randomized.'
p303
S'VBN'
p304
S'I-VP'
p305
g4
tp306
a(S'Group'
p307
S'Group'
p308
S'NN'
p309
S'B-NP'
p310
g4
tp311
a(S'I'
p312
g312
S'CD'
p313
S'I-NP'
p314
g4
tp315
a(S'for'
p316
S'for'
p317
S'IN'
p318
S'B-PP'
p319
g4
tp320
a(S'Albuterol'
p321
S'Albuterol'
p322
S'NNP'
p323
S'B-NP'
p324
S'B-protein'
p325
tp326
a(S'powder'
p327
S'powder'
p328
S'NN'
p329
S'I-NP'
p330
S'I-protein'
p331
tp332
a(S'200'
p333
S'200'
p334
S'CD'
p335
S'B-NP'
p336
S'I-protein'
p337
tp338
a(S'micrograms'
p339
S'microgram'
p340
S'NNS'
p341
S'I-NP'
p342
S'I-protein'
p343
tp344
a(S'inhaled'
p345
S'inhale'
p346
S'VBD'
p347
S'B-VP'
p348
S'I-protein'
p349
tp350
a(S'q'
p351
g351
S'NN'
p352
S'B-NP'
p353
S'I-protein'
p354
tp355
a(S'4'
p356
g356
S'CD'
p357
S'I-NP'
p358
S'I-protein'
p359
tp360
a(S'hours.'
p361
S'hours.'
p362
S'NN'
p363
S'I-NP'
p364
S'I-protein'
p365
tp366
a(S'Group'
p367
S'Group'
p368
S'NN'
p369
S'I-NP'
p370
S'I-protein'
p371
tp372
a(S'II'
p373
S'II'
p374
S'CD'
p375
S'I-NP'
p376
S'I-protein'
p377
tp378
a(S'with'
p379
S'with'
p380
S'IN'
p381
S'B-PP'
p382
g4
tp383
a(S'Albuterol'
p384
S'Albuterol'
p385
S'NNP'
p386
S'B-NP'
p387
g4
tp388
a(S'nebulized'
p389
S'nebulize'
p390
S'VBD'
p391
S'B-VP'
p392
g4
tp393
a(S'solution'
p394
S'solution'
p395
S'NN'
p396
S'B-NP'
p397
g4
tp398
a(S'2.5'
p399
S'2.5'
p400
S'CD'
p401
S'I-NP'
p402
g4
tp403
a(S'mg'
p404
S'mg'
p405
S'NN'
p406
S'I-NP'
p407
g4
tp408
a(S'inhaled'
p409
S'inhale'
p410
S'VBD'
p411
S'B-VP'
p412
g4
tp413
a(g351
g351
S'NN'
p414
S'B-NP'
p415
g4
tp416
a(g356
g356
S'CD'
p417
S'I-NP'
p418
g4
tp419
a(S'hrs.'
p420
S'hrs.'
p421
S'NN'
p422
S'I-NP'
p423
g4
tp424
a(S'Force'
p425
S'Force'
p426
S'NNP'
p427
S'I-NP'
p428
g4
tp429
a(S'Vital'
p430
S'Vital'
p431
S'NNP'
p432
S'I-NP'
p433
g4
tp434
a(S'Capacity'
p435
S'Capacity'
p436
S'NNP'
p437
S'I-NP'
p438
g4
tp439
a(S'and'
p440
S'and'
p441
S'CC'
p442
g4
g4
tp443
a(S'Force'
p444
S'Force'
p445
S'NNP'
p446
S'B-NP'
p447
g4
tp448
a(S'Expiratory'
p449
S'Expiratory'
p450
S'NNP'
p451
S'I-NP'
p452
g4
tp453
a(S'Volume'
p454
S'Volume'
p455
S'NNP'
p456
S'I-NP'
p457
g4
tp458
a(S'in'
p459
S'in'
p460
S'IN'
p461
S'B-PP'
p462
g4
tp463
a(S'one'
p464
S'one'
p465
S'CD'
p466
S'B-NP'
p467
g4
tp468
a(S'second'
p469
S'second'
p470
S'JJ'
p471
S'I-NP'
p472
g4
tp473
a(S'were'
p474
S'be'
p475
S'VBD'
p476
S'B-VP'
p477
g4
tp478
a(S'measured'
p479
S'measure'
p480
S'VBN'
p481
S'I-VP'
p482
g4
tp483
a(S'with'
p484
S'with'
p485
S'IN'
p486
S'B-PP'
p487
g4
tp488
a(S'a'
p489
g489
S'DT'
p490
S'B-NP'
p491
g4
tp492
a(S'pressure'
p493
S'pressure'
p494
S'NN'
p495
S'I-NP'
p496
g4
tp497
a(S'differential'
p498
S'differential'
p499
S'JJ'
p500
S'I-NP'
p501
g4
tp502
a(S'transducer'
p503
S'transducer'
p504
S'NN'
p505
S'I-NP'
p506
g4
tp507
a(S'upon'
p508
S'upon'
p509
S'IN'
p510
S'B-PP'
p511
g4
tp512
a(S'admission'
p513
S'admission'
p514
S'NN'
p515
S'B-NP'
p516
g4
tp517
a(S','
p518
g518
g518
g4
g4
tp519
a(S'30'
p520
S'30'
p521
S'CD'
p522
S'B-NP'
p523
g4
tp524
a(S'minutes'
p525
S'minute'
p526
S'NNS'
p527
S'I-NP'
p528
g4
tp529
a(S'and'
p530
S'and'
p531
S'CC'
p532
S'I-NP'
p533
g4
tp534
a(S'24-hours'
p535
S'24-hour'
p536
S'NNS'
p537
S'I-NP'
p538
g4
tp539
a(S'following'
p540
S'follow'
p541
S'VBG'
p542
S'B-PP'
p543
g4
tp544
a(S'therapies.'
p545
S'therapies.'
p546
S'RB'
p547
S'B-NP'
p548
g4
tp549
a(S'Absolute'
p550
S'Absolute'
p551
S'JJ'
p552
S'I-NP'
p553
g4
tp554
a(S'FEV1'
p555
S'FEV1'
p556
S'NN'
p557
S'I-NP'
p558
g4
tp559
a(S'improvement'
p560
S'improvement'
p561
S'NN'
p562
S'I-NP'
p563
g4
tp564
a(S'was'
p565
S'be'
p566
S'VBD'
p567
S'B-VP'
p568
g4
tp569
a(S'calculated.'
p570
S'calculated.'
p571
S'JJ'
p572
S'B-NP'
p573
g4
tp574
a(S'Statistical'
p575
S'Statistical'
p576
S'JJ'
p577
S'I-NP'
p578
g4
tp579
a(S'analysis'
p580
S'analysis'
p581
S'NN'
p582
S'I-NP'
p583
g4
tp584
a(S'was'
p585
S'be'
p586
S'VBD'
p587
S'B-VP'
p588
g4
tp589
a(S'performed'
p590
S'perform'
p591
S'VBN'
p592
S'I-VP'
p593
g4
tp594
a(S'using'
p595
S'use'
p596
S'VBG'
p597
S'B-VP'
p598
g4
tp599
a(S'student'
p600
S'student'
p601
S'NN'
p602
S'B-NP'
p603
g4
tp604
a(S"'s"
p605
S"'s"
p606
S'POS'
p607
S'B-NP'
p608
g4
tp609
a(S'T-Test'
p610
S'T-Test'
p611
S'NNP'
p612
S'I-NP'
p613
g4
tp614
a(S'and'
p615
S'and'
p616
S'CC'
p617
S'I-NP'
p618
g4
tp619
a(S'Fisher'
p620
S'Fisher'
p621
S'NNP'
p622
S'I-NP'
p623
g4
tp624
a(S"'s"
p625
S"'s"
p626
S'POS'
p627
S'B-NP'
p628
g4
tp629
a(S'exact'
p630
S'exact'
p631
S'JJ'
p632
S'I-NP'
p633
g4
tp634
a(S'Test'
p635
S'Test'
p636
S'NN'
p637
S'I-NP'
p638
g4
tp639
a(S'with'
p640
S'with'
p641
S'IN'
p642
S'B-PP'
p643
g4
tp644
a(S'significance'
p645
S'significance'
p646
S'NN'
p647
S'B-NP'
p648
g4
tp649
a(S'established'
p650
S'establish'
p651
S'VBN'
p652
S'B-VP'
p653
g4
tp654
a(S'at'
p655
S'at'
p656
S'IN'
p657
S'B-PP'
p658
g4
tp659
a(S'p'
p660
g660
S'NN'
p661
S'B-NP'
p662
g4
tp663
a(S'>'
p664
g664
S'SYM'
p665
g4
g4
tp666
a(S'0.01'
p667
S'0.01'
p668
S'CD'
p669
S'B-NP'
p670
g4
tp671
a(S'%'
p672
g672
S'NN'
p673
S'I-NP'
p674
g4
tp675
a(g80
g80
g80
g4
g4
tp676
a(S'Fifteen'
p677
S'Fifteen'
p678
S'CD'
p679
S'B-NP'
p680
g4
tp681
a(S'patients'
p682
S'patient'
p683
S'NNS'
p684
S'I-NP'
p685
g4
tp686
a(S'enrolled'
p687
S'enrol'
p688
S'VBN'
p689
S'B-VP'
p690
g4
tp691
a(S'in'
p692
S'in'
p693
S'IN'
p694
S'B-PP'
p695
g4
tp696
a(S'both'
p697
S'both'
p698
S'DT'
p699
S'B-NP'
p700
g4
tp701
a(S'groups'
p702
S'group'
p703
S'NNS'
p704
S'I-NP'
p705
g4
tp706
a(g518
g518
g518
g4
g4
tp707
a(S'two'
p708
S'two'
p709
S'CD'
p710
S'B-NP'
p711
g4
tp712
a(S'patients'
p713
S'patient'
p714
S'NNS'
p715
S'I-NP'
p716
g4
tp717
a(S'of'
p718
S'of'
p719
S'IN'
p720
S'B-PP'
p721
g4
tp722
a(S'group'
p723
S'group'
p724
S'NN'
p725
S'B-NP'
p726
g4
tp727
a(g312
g312
S'PRP'
p728
S'B-NP'
p729
g4
tp730
a(S'were'
p731
S'be'
p732
S'VBD'
p733
S'B-VP'
p734
g4
tp735
a(S'excluded'
p736
S'exclude'
p737
S'VBN'
p738
S'I-VP'
p739
g4
tp740
a(S'from'
p741
S'from'
p742
S'IN'
p743
S'B-PP'
p744
g4
tp745
a(S'the'
p746
S'the'
p747
S'DT'
p748
S'B-NP'
p749
g4
tp750
a(S'statistic'
p751
S'statistic'
p752
S'JJ'
p753
S'I-NP'
p754
g4
tp755
a(S'analysis'
p756
S'analysis'
p757
S'NN'
p758
S'I-NP'
p759
g4
tp760
a(S'due'
p761
S'due'
p762
S'JJ'
p763
S'B-ADJP'
p764
g4
tp765
a(S'to'
p766
S'to'
p767
S'TO'
p768
S'B-VP'
p769
g4
tp770
a(S'refusal'
p771
S'refusal'
p772
S'VB'
p773
S'I-VP'
p774
g4
tp775
a(S'to'
p776
S'to'
p777
S'TO'
p778
S'I-VP'
p779
g4
tp780
a(S'continue'
p781
S'continue'
p782
S'VB'
p783
S'I-VP'
p784
g4
tp785
a(S'with'
p786
S'with'
p787
S'IN'
p788
S'B-PP'
p789
g4
tp790
a(S'the'
p791
S'the'
p792
S'DT'
p793
S'B-NP'
p794
g4
tp795
a(S'therapy.'
p796
S'therapy.'
p797
S'NN'
p798
S'I-NP'
p799
g4
tp800
a(S'Both'
p801
S'Both'
p802
S'DT'
p803
S'B-NP'
p804
g4
tp805
a(S'groups'
p806
S'group'
p807
S'NNS'
p808
S'I-NP'
p809
g4
tp810
a(S'were'
p811
S'be'
p812
S'VBD'
p813
S'B-VP'
p814
g4
tp815
a(S'comparable'
p816
S'comparable'
p817
S'JJ'
p818
S'B-ADJP'
p819
g4
tp820
a(S'with'
p821
S'with'
p822
S'IN'
p823
S'B-PP'
p824
g4
tp825
a(S'respect'
p826
S'respect'
p827
S'NN'
p828
S'B-NP'
p829
g4
tp830
a(S'to'
p831
S'to'
p832
S'TO'
p833
S'B-PP'
p834
g4
tp835
a(S'sex'
p836
S'sex'
p837
S'NN'
p838
S'B-NP'
p839
g4
tp840
a(g518
g518
g518
g4
g4
tp841
a(S'asthma'
p842
S'asthma'
p843
S'NN'
p844
S'B-NP'
p845
g4
tp846
a(S'exacerbations/year'
p847
S'exacerbations/year'
p848
S'NN'
p849
S'I-NP'
p850
g4
tp851
a(g518
g518
g518
g4
g4
tp852
a(S'smoking'
p853
S'smoking'
p854
S'NN'
p855
S'B-NP'
p856
g4
tp857
a(S'history'
p858
S'history'
p859
S'NN'
p860
S'I-NP'
p861
g4
tp862
a(S'and'
p863
S'and'
p864
S'CC'
p865
S'I-NP'
p866
g4
tp867
a(S'hospital'
p868
S'hospital'
p869
S'NN'
p870
S'I-NP'
p871
g4
tp872
a(S'length'
p873
S'length'
p874
S'NN'
p875
S'I-NP'
p876
g4
tp877
a(S'of'
p878
S'of'
p879
S'IN'
p880
S'B-PP'
p881
g4
tp882
a(S'stay.'
p883
S'stay.'
p884
S'NN'
p885
S'B-NP'
p886
g4
tp887
a(S'FVC'
p888
S'FVC'
p889
S'NN'
p890
S'I-NP'
p891
g4
tp892
a(S'and'
p893
S'and'
p894
S'CC'
p895
S'I-NP'
p896
g4
tp897
a(S'FEV1'
p898
S'FEV1'
p899
S'NN'
p900
S'I-NP'
p901
g4
tp902
a(S'were'
p903
S'be'
p904
S'VBD'
p905
S'B-VP'
p906
g4
tp907
a(S'comparable'
p908
S'comparable'
p909
S'JJ'
p910
S'B-NP'
p911
g4
tp912
a(S'also.'
p913
S'also.'
p914
S'NN'
p915
S'I-NP'
p916
g4
tp917
a(S'In'
p918
S'In'
p919
S'IN'
p920
S'B-PP'
p921
g4
tp922
a(S'contrast'
p923
S'contrast'
p924
S'NN'
p925
S'B-NP'
p926
g4
tp927
a(g518
g518
g518
g4
g4
tp928
a(S'there'
p929
S'there'
p930
S'EX'
p931
S'B-NP'
p932
g4
tp933
a(S'were'
p934
S'be'
p935
S'VBD'
p936
S'B-VP'
p937
g4
tp938
a(S'significant'
p939
S'significant'
p940
S'JJ'
p941
S'B-NP'
p942
g4
tp943
a(S'difference'
p944
S'difference'
p945
S'NN'
p946
S'I-NP'
p947
g4
tp948
a(S'when'
p949
S'when'
p950
S'WRB'
p951
S'B-ADVP'
p952
g4
tp953
a(S'the'
p954
S'the'
p955
S'DT'
p956
S'B-NP'
p957
g4
tp958
a(S'absolute'
p959
S'absolute'
p960
S'JJ'
p961
S'I-NP'
p962
g4
tp963
a(S'improvement'
p964
S'improvement'
p965
S'NN'
p966
S'I-NP'
p967
g4
tp968
a(S'were'
p969
S'be'
p970
S'VBD'
p971
S'B-VP'
p972
g4
tp973
a(S'compared.'
p974
S'compared.'
p975
S'VBN'
p976
S'I-VP'
p977
g4
tp978
a(S'The'
p979
S'The'
p980
S'DT'
p981
S'B-NP'
p982
g4
tp983
a(S'mean'
p984
S'mean'
p985
S'NN'
p986
S'I-NP'
p987
g4
tp988
a(S'+/-'
p989
S'+/-'
p990
S'SYM'
p991
S'B-VP'
p992
g4
tp993
a(S'SE'
p994
S'SE'
p995
S'NN'
p996
S'B-NP'
p997
g4
tp998
a(S'for'
p999
S'for'
p1000
S'IN'
p1001
S'B-PP'
p1002
g4
tp1003
a(S'FEV1'
p1004
S'FEV1'
p1005
S'NN'
p1006
S'B-NP'
p1007
g4
tp1008
a(S'absolute'
p1009
S'absolute'
p1010
S'JJ'
p1011
S'I-NP'
p1012
g4
tp1013
a(S'improvement'
p1014
S'improvement'
p1015
S'NN'
p1016
S'I-NP'
p1017
g4
tp1018
a(S'at'
p1019
S'at'
p1020
S'IN'
p1021
S'B-PP'
p1022
g4
tp1023
a(S'the'
p1024
S'the'
p1025
S'DT'
p1026
S'B-NP'
p1027
g4
tp1028
a(S'first'
p1029
S'first'
p1030
S'JJ'
p1031
S'I-NP'
p1032
g4
tp1033
a(S'30'
p1034
S'30'
p1035
S'CD'
p1036
S'I-NP'
p1037
g4
tp1038
a(S'min'
p1039
S'min'
p1040
S'NN'
p1041
S'I-NP'
p1042
g4
tp1043
a(S'was'
p1044
S'be'
p1045
S'VBD'
p1046
S'B-VP'
p1047
g4
tp1048
a(S'0.42'
p1049
S'0.42'
p1050
S'CD'
p1051
S'B-NP'
p1052
g4
tp1053
a(S'+/-'
p1054
S'+/-'
p1055
S'SYM'
p1056
S'I-NP'
p1057
g4
tp1058
a(S'0.08'
p1059
S'0.08'
p1060
S'CD'
p1061
S'I-NP'
p1062
g4
tp1063
a(S'lts'
p1064
S'lt'
p1065
S'NNS'
p1066
S'I-NP'
p1067
g4
tp1068
a(S'for'
p1069
S'for'
p1070
S'IN'
p1071
S'B-PP'
p1072
g4
tp1073
a(S'the'
p1074
S'the'
p1075
S'DT'
p1076
S'B-NP'
p1077
g4
tp1078
a(S'Group'
p1079
S'Group'
p1080
S'NN'
p1081
S'I-NP'
p1082
g4
tp1083
a(g312
g312
S'CD'
p1084
S'I-NP'
p1085
g4
tp1086
a(S'versus'
p1087
S'versus'
p1088
S'CC'
p1089
S'I-NP'
p1090
g4
tp1091
a(S'0.65'
p1092
S'0.65'
p1093
S'CD'
p1094
S'I-NP'
p1095
g4
tp1096
a(S'+/-'
p1097
S'+/-'
p1098
S'CC'
p1099
S'I-NP'
p1100
g4
tp1101
a(S'0.6'
p1102
S'0.6'
p1103
S'CD'
p1104
S'I-NP'
p1105
g4
tp1106
a(S'lts'
p1107
S'lt'
p1108
S'NNS'
p1109
S'I-NP'
p1110
g4
tp1111
a(S'in'
p1112
S'in'
p1113
S'IN'
p1114
S'B-PP'
p1115
g4
tp1116
a(S'the'
p1117
S'the'
p1118
S'DT'
p1119
S'B-NP'
p1120
g4
tp1121
a(S'Group'
p1122
S'Group'
p1123
S'NNP'
p1124
S'I-NP'
p1125
g4
tp1126
a(S'II.'
p1127
S'II.'
p1128
S'NNP'
p1129
S'I-NP'
p1130
g4
tp1131
a(S'In'
p1132
S'In'
p1133
S'IN'
p1134
S'B-PP'
p1135
g4
tp1136
a(S'the'
p1137
S'the'
p1138
S'DT'
p1139
S'B-NP'
p1140
g4
tp1141
a(S'next'
p1142
S'next'
p1143
S'JJ'
p1144
S'I-NP'
p1145
g4
tp1146
a(S'24'
p1147
S'24'
p1148
S'CD'
p1149
S'I-NP'
p1150
g4
tp1151
a(S'hours'
p1152
S'hour'
p1153
S'NNS'
p1154
S'I-NP'
p1155
g4
tp1156
a(g518
g518
g518
g4
g4
tp1157
a(S'Group'
p1158
S'Group'
p1159
S'NN'
p1160
S'B-NP'
p1161
g4
tp1162
a(g312
g312
S'PRP'
p1163
S'B-NP'
p1164
g4
tp1165
a(S'was'
p1166
S'be'
p1167
S'VBD'
p1168
S'B-VP'
p1169
g4
tp1170
a(S'0.16'
p1171
S'0.16'
p1172
S'CD'
p1173
S'B-NP'
p1174
g4
tp1175
a(S'+/-'
p1176
S'+/-'
p1177
S'SYM'
p1178
S'I-NP'
p1179
g4
tp1180
a(S'0.2'
p1181
S'0.2'
p1182
S'CD'
p1183
S'I-NP'
p1184
g4
tp1185
a(S'lts'
p1186
S'lt'
p1187
S'NNS'
p1188
S'I-NP'
p1189
g4
tp1190
a(S'versus'
p1191
S'versus'
p1192
S'IN'
p1193
S'B-PP'
p1194
g4
tp1195
a(S'0.30'
p1196
S'0.30'
p1197
S'CD'
p1198
S'B-NP'
p1199
g4
tp1200
a(S'+/-'
p1201
S'+/-'
p1202
S'SYM'
p1203
S'I-NP'
p1204
g4
tp1205
a(S'0.7'
p1206
S'0.7'
p1207
S'CD'
p1208
S'I-NP'
p1209
g4
tp1210
a(S'lts'
p1211
S'lt'
p1212
S'NNS'
p1213
S'I-NP'
p1214
g4
tp1215
a(S'in'
p1216
S'in'
p1217
S'IN'
p1218
S'B-PP'
p1219
g4
tp1220
a(S'Group'
p1221
S'Group'
p1222
S'NN'
p1223
S'B-NP'
p1224
S'B-cell_line'
p1225
tp1226
a(S'II'
p1227
S'II'
p1228
S'CD'
p1229
S'I-NP'
p1230
S'I-cell_line'
p1231
tp1232
a(S'('
p1233
g1233
g1233
g4
g4
tp1234
a(g660
g660
S'NN'
p1235
S'B-NP'
p1236
g4
tp1237
a(g664
g664
S'JJR'
p1238
S'B-NP'
p1239
g4
tp1240
a(S'.01'
p1241
S'.01'
p1242
S'CD'
p1243
S'I-NP'
p1244
g4
tp1245
a(S')'
p1246
g1246
g1246
g4
g4
tp1247
a(g80
g80
g80
g4
g4
tp1248
a(S'We'
p1249
S'We'
p1250
S'PRP'
p1251
S'B-NP'
p1252
g4
tp1253
a(S'conclude'
p1254
S'conclude'
p1255
S'VBP'
p1256
S'B-VP'
p1257
g4
tp1258
a(S'that'
p1259
S'that'
p1260
S'IN'
p1261
S'B-SBAR'
p1262
g4
tp1263
a(S'although'
p1264
S'although'
p1265
S'IN'
p1266
S'B-SBAR'
p1267
g4
tp1268
a(S'the'
p1269
S'the'
p1270
S'DT'
p1271
S'B-NP'
p1272
g4
tp1273
a(S'dose'
p1274
S'dose'
p1275
S'NN'
p1276
S'I-NP'
p1277
g4
tp1278
a(S'equivalence'
p1279
S'equivalence'
p1280
S'NN'
p1281
S'I-NP'
p1282
g4
tp1283
a(S'of'
p1284
S'of'
p1285
S'IN'
p1286
S'B-PP'
p1287
g4
tp1288
a(S'both'
p1289
S'both'
p1290
S'DT'
p1291
S'B-NP'
p1292
g4
tp1293
a(S'delivery'
p1294
S'delivery'
p1295
S'NN'
p1296
S'I-NP'
p1297
g4
tp1298
a(S'systems'
p1299
S'system'
p1300
S'NNS'
p1301
S'I-NP'
p1302
g4
tp1303
a(S'have'
p1304
S'have'
p1305
S'VBP'
p1306
S'B-VP'
p1307
g4
tp1308
a(S'not'
p1309
S'not'
p1310
S'RB'
p1311
S'I-VP'
p1312
g4
tp1313
a(S'been'
p1314
S'be'
p1315
S'VBN'
p1316
S'I-VP'
p1317
g4
tp1318
a(S'established'
p1319
S'establish'
p1320
S'VBN'
p1321
S'I-VP'
p1322
g4
tp1323
a(S'in'
p1324
S'in'
p1325
S'IN'
p1326
S'B-PP'
p1327
g4
tp1328
a(S'our'
p1329
S'our'
p1330
S'PRP$'
p1331
S'B-NP'
p1332
g4
tp1333
a(S'study'
p1334
S'study'
p1335
S'NN'
p1336
S'I-NP'
p1337
g4
tp1338
a(g518
g518
g518
g4
g4
tp1339
a(S'the'
p1340
S'the'
p1341
S'DT'
p1342
S'B-NP'
p1343
g4
tp1344
a(S'nebulized'
p1345
S'nebulize'
p1346
S'VBN'
p1347
S'I-NP'
p1348
g4
tp1349
a(S'solution'
p1350
S'solution'
p1351
S'NN'
p1352
S'I-NP'
p1353
g4
tp1354
a(S'was'
p1355
S'be'
p1356
S'VBD'
p1357
S'B-VP'
p1358
g4
tp1359
a(S'more'
p1360
S'more'
p1361
S'RBR'
p1362
S'B-ADJP'
p1363
g4
tp1364
a(S'effective'
p1365
S'effective'
p1366
S'JJ'
p1367
S'I-ADJP'
p1368
g4
tp1369
a(S'during'
p1370
S'during'
p1371
S'IN'
p1372
S'B-PP'
p1373
g4
tp1374
a(S'the'
p1375
S'the'
p1376
S'DT'
p1377
S'B-NP'
p1378
g4
tp1379
a(S'first'
p1380
S'first'
p1381
S'JJ'
p1382
S'I-NP'
p1383
g4
tp1384
a(S'24'
p1385
S'24'
p1386
S'CD'
p1387
S'I-NP'
p1388
g4
tp1389
a(S'hours'
p1390
S'hour'
p1391
S'NNS'
p1392
S'I-NP'
p1393
g4
tp1394
a(S'of'
p1395
S'of'
p1396
S'IN'
p1397
S'B-PP'
p1398
g4
tp1399
a(S'hospitalization'
p1400
S'hospitalization'
p1401
S'NN'
p1402
S'B-NP'
p1403
g4
tp1404
a(S'than'
p1405
S'than'
p1406
S'IN'
p1407
S'B-PP'
p1408
g4
tp1409
a(S'the'
p1410
S'the'
p1411
S'DT'
p1412
S'B-NP'
p1413
g4
tp1414
a(S'dry'
p1415
S'dry'
p1416
S'JJ'
p1417
S'I-NP'
p1418
g4
tp1419
a(S'powder'
p1420
S'powder'
p1421
S'NN'
p1422
S'I-NP'
p1423
g4
tp1424
a(g80
g80
g80
g4
g4
tp1425
a.