(lp0
(S'Comparison'
p1
S'Comparison'
p2
S'NN'
p3
S'B-NP'
p4
S'O'
p5
tp6
a(S'of'
p7
S'of'
p8
S'IN'
p9
S'B-PP'
p10
g5
tp11
a(S'insulin'
p12
S'insulin'
p13
S'NN'
p14
S'B-NP'
p15
g5
tp16
a(S'glargine'
p17
S'glargine'
p18
S'NN'
p19
S'I-NP'
p20
g5
tp21
a(S'and'
p22
S'and'
p23
S'CC'
p24
S'I-NP'
p25
g5
tp26
a(S'liraglutide'
p27
S'liraglutide'
p28
S'NN'
p29
S'I-NP'
p30
g5
tp31
a(S'added'
p32
S'add'
p33
S'VBN'
p34
S'B-VP'
p35
g5
tp36
a(S'to'
p37
S'to'
p38
S'TO'
p39
S'B-PP'
p40
g5
tp41
a(S'oral'
p42
S'oral'
p43
S'JJ'
p44
S'B-NP'
p45
g5
tp46
a(S'agents'
p47
S'agent'
p48
S'NNS'
p49
S'I-NP'
p50
g5
tp51
a(S'in'
p52
S'in'
p53
S'IN'
p54
S'B-PP'
p55
g5
tp56
a(S'patients'
p57
S'patient'
p58
S'NNS'
p59
S'B-NP'
p60
g5
tp61
a(S'with'
p62
S'with'
p63
S'IN'
p64
S'B-PP'
p65
g5
tp66
a(S'poorly'
p67
S'poorly'
p68
S'RB'
p69
S'B-NP'
p70
g5
tp71
a(S'controlled'
p72
S'control'
p73
S'VBN'
p74
S'I-NP'
p75
g5
tp76
a(S'type'
p77
S'type'
p78
S'NN'
p79
S'I-NP'
p80
g5
tp81
a(S'2'
p82
g82
S'CD'
p83
S'I-NP'
p84
g5
tp85
a(S'diabetes'
p86
S'diabete'
p87
S'NNS'
p88
S'I-NP'
p89
g5
tp90
a(S'.'
p91
g91
g91
g5
g5
tp92
a(S'AIM'
p93
S'AIM'
p94
S'NN'
p95
S'B-NP'
p96
g5
tp97
a(S'To'
p98
S'To'
p99
S'TO'
p100
S'B-VP'
p101
g5
tp102
a(S'compare'
p103
S'compare'
p104
S'VB'
p105
S'I-VP'
p106
g5
tp107
a(S'safety'
p108
S'safety'
p109
S'NN'
p110
S'B-NP'
p111
g5
tp112
a(S'and'
p113
S'and'
p114
S'CC'
p115
S'I-NP'
p116
g5
tp117
a(S'efficacy'
p118
S'efficacy'
p119
S'NN'
p120
S'I-NP'
p121
g5
tp122
a(S'of'
p123
S'of'
p124
S'IN'
p125
S'B-PP'
p126
g5
tp127
a(S'insulin'
p128
S'insulin'
p129
S'NN'
p130
S'B-NP'
p131
g5
tp132
a(S'glargine'
p133
S'glargine'
p134
S'NN'
p135
S'I-NP'
p136
g5
tp137
a(S'and'
p138
S'and'
p139
S'CC'
p140
g5
g5
tp141
a(S'liraglutide'
p142
S'liraglutide'
p143
S'NN'
p144
S'B-NP'
p145
g5
tp146
a(S'in'
p147
S'in'
p148
S'IN'
p149
S'B-PP'
p150
g5
tp151
a(S'patients'
p152
S'patient'
p153
S'NNS'
p154
S'B-NP'
p155
g5
tp156
a(S'with'
p157
S'with'
p158
S'IN'
p159
S'B-PP'
p160
g5
tp161
a(S'type'
p162
S'type'
p163
S'NN'
p164
S'B-NP'
p165
g5
tp166
a(g82
g82
S'CD'
p167
S'I-NP'
p168
g5
tp169
a(S'diabetes'
p170
S'diabete'
p171
S'NNS'
p172
S'I-NP'
p173
g5
tp174
a(S'('
p175
g175
g175
g5
g5
tp176
a(S'T2DM'
p177
S'T2DM'
p178
S'NN'
p179
S'B-NP'
p180
g5
tp181
a(S')'
p182
g182
g182
g5
g5
tp183
a(g91
g91
g91
g5
g5
tp184
a(S'METHODS'
p185
S'METHODS'
p186
S'NNS'
p187
S'B-NP'
p188
g5
tp189
a(S'This'
p190
S'This'
p191
S'DT'
p192
S'B-NP'
p193
g5
tp194
a(S'randomized'
p195
S'randomize'
p196
S'VBN'
p197
S'I-NP'
p198
g5
tp199
a(S','
p200
g200
g200
S'I-NP'
p201
g5
tp202
a(S'multinational'
p203
S'multinational'
p204
S'JJ'
p205
S'I-NP'
p206
g5
tp207
a(g200
g200
g200
S'I-NP'
p208
g5
tp209
a(S'open-label'
p210
S'open-label'
p211
S'JJ'
p212
S'I-NP'
p213
g5
tp214
a(S'trial'
p215
S'trial'
p216
S'NN'
p217
S'I-NP'
p218
g5
tp219
a(S'included'
p220
S'include'
p221
S'VBD'
p222
S'B-VP'
p223
g5
tp224
a(S'subjects'
p225
S'subject'
p226
S'NNS'
p227
S'B-NP'
p228
g5
tp229
a(S'treated'
p230
S'treat'
p231
S'VBN'
p232
S'B-VP'
p233
g5
tp234
a(S'for'
p235
S'for'
p236
S'IN'
p237
S'B-PP'
p238
g5
tp239
a(S'T2DM'
p240
S'T2DM'
p241
S'NN'
p242
S'B-NP'
p243
g5
tp244
a(S'with'
p245
S'with'
p246
S'IN'
p247
S'B-PP'
p248
g5
tp249
a(S'metformin\xe2\x80\x89\xc2\xb1\xe2\x80\x89sulphonylurea'
p250
S'metformin\xe2\x80\x89\xc2\xb1\xe2\x80\x89sulphonylurea'
p251
S'NN'
p252
S'B-NP'
p253
g5
tp254
a(g200
g200
g200
g5
g5
tp255
a(S'who'
p256
S'who'
p257
S'WP'
p258
S'B-NP'
p259
g5
tp260
a(S'had'
p261
S'have'
p262
S'VBD'
p263
S'B-VP'
p264
g5
tp265
a(S'glycated'
p266
S'glycate'
p267
S'VBN'
p268
S'I-VP'
p269
g5
tp270
a(S'haemoglobin'
p271
S'haemoglobin'
p272
S'NN'
p273
S'B-NP'
p274
g5
tp275
a(g175
g175
g175
g5
g5
tp276
a(S'HbA1c'
p277
S'HbA1c'
p278
S'NN'
p279
S'B-NP'
p280
g5
tp281
a(g182
g182
g182
g5
g5
tp282
a(S'levels'
p283
S'level'
p284
S'NNS'
p285
S'B-NP'
p286
g5
tp287
a(S'of'
p288
S'of'
p289
S'IN'
p290
S'B-PP'
p291
g5
tp292
a(S'7.5-12'
p293
S'7.5-12'
p294
S'CD'
p295
S'B-NP'
p296
g5
tp297
a(S'%'
p298
g298
S'NN'
p299
S'I-NP'
p300
g5
tp301
a(g91
g91
g91
S'B-NP'
p302
g5
tp303
a(S'Subjects'
p304
S'Subject'
p305
S'NNPS'
p306
S'I-NP'
p307
g5
tp308
a(S'were'
p309
S'be'
p310
S'VBD'
p311
S'B-VP'
p312
g5
tp313
a(S'assigned'
p314
S'assign'
p315
S'VBN'
p316
S'I-VP'
p317
g5
tp318
a(S'to'
p319
S'to'
p320
S'TO'
p321
S'B-PP'
p322
g5
tp323
a(S'24\xe2\x80\x89weeks'
p324
S'24\xe2\x80\x89week'
p325
S'NNS'
p326
S'B-NP'
p327
g5
tp328
a(S'of'
p329
S'of'
p330
S'IN'
p331
S'B-PP'
p332
g5
tp333
a(S'insulin'
p334
S'insulin'
p335
S'NN'
p336
S'B-NP'
p337
g5
tp338
a(S'glargine'
p339
S'glargine'
p340
S'NN'
p341
S'I-NP'
p342
g5
tp343
a(g200
g200
g200
g5
g5
tp344
a(S'titrated'
p345
S'titrate'
p346
S'VBN'
p347
S'B-VP'
p348
g5
tp349
a(S'to'
p350
S'to'
p351
S'TO'
p352
S'I-VP'
p353
g5
tp354
a(S'target'
p355
S'target'
p356
S'VB'
p357
S'I-VP'
p358
g5
tp359
a(S'fasting'
p360
S'fast'
p361
S'VBG'
p362
S'I-VP'
p363
g5
tp364
a(S'plasma'
p365
S'plasma'
p366
S'NN'
p367
S'B-NP'
p368
g5
tp369
a(S'glucose'
p370
S'glucose'
p371
S'NN'
p372
S'I-NP'
p373
g5
tp374
a(S'of'
p375
S'of'
p376
S'IN'
p377
S'B-PP'
p378
g5
tp379
a(S'4.0-5.5\xe2\x80\x89mmol/L'
p380
S'4.0-5.5\xe2\x80\x89mmol/L'
p381
S'NN'
p382
S'B-NP'
p383
g5
tp384
a(S'or'
p385
S'or'
p386
S'CC'
p387
S'I-NP'
p388
g5
tp389
a(S'liraglutide'
p390
S'liraglutide'
p391
S'NN'
p392
S'I-NP'
p393
g5
tp394
a(g200
g200
g200
g5
g5
tp395
a(S'escalated'
p396
S'escalate'
p397
S'VBN'
p398
S'B-VP'
p399
g5
tp400
a(S'to'
p401
S'to'
p402
S'TO'
p403
S'B-PP'
p404
g5
tp405
a(S'the'
p406
S'the'
p407
S'DT'
p408
S'B-NP'
p409
g5
tp410
a(S'highest'
p411
S'high'
p412
S'JJS'
p413
S'I-NP'
p414
g5
tp415
a(S'approved'
p416
S'approve'
p417
S'VBN'
p418
S'I-NP'
p419
g5
tp420
a(S'clinical'
p421
S'clinical'
p422
S'JJ'
p423
S'I-NP'
p424
g5
tp425
a(S'dose'
p426
S'dose'
p427
S'NN'
p428
S'I-NP'
p429
g5
tp430
a(S'of'
p431
S'of'
p432
S'IN'
p433
S'B-PP'
p434
g5
tp435
a(S'1.8\xe2\x80\x89mg'
p436
S'1.8\xe2\x80\x89mg'
p437
S'CD'
p438
S'B-NP'
p439
g5
tp440
a(S'daily.'
p441
S'daily.'
p442
S'NN'
p443
S'I-NP'
p444
g5
tp445
a(S'The'
p446
S'The'
p447
S'DT'
p448
S'B-NP'
p449
g5
tp450
a(S'trial'
p451
S'trial'
p452
S'NN'
p453
S'I-NP'
p454
g5
tp455
a(S'was'
p456
S'be'
p457
S'VBD'
p458
S'B-VP'
p459
g5
tp460
a(S'powered'
p461
S'power'
p462
S'VBN'
p463
S'I-VP'
p464
g5
tp465
a(S'to'
p466
S'to'
p467
S'TO'
p468
S'I-VP'
p469
g5
tp470
a(S'detect'
p471
S'detect'
p472
S'VB'
p473
S'I-VP'
p474
g5
tp475
a(S'superiority'
p476
S'superiority'
p477
S'NN'
p478
S'B-NP'
p479
g5
tp480
a(S'of'
p481
S'of'
p482
S'IN'
p483
S'B-PP'
p484
g5
tp485
a(S'glargine'
p486
S'glargine'
p487
S'NN'
p488
S'B-NP'
p489
g5
tp490
a(S'over'
p491
S'over'
p492
S'IN'
p493
S'B-PP'
p494
g5
tp495
a(S'liraglutide'
p496
S'liraglutide'
p497
S'NN'
p498
S'B-NP'
p499
g5
tp500
a(S'in'
p501
S'in'
p502
S'IN'
p503
S'B-PP'
p504
g5
tp505
a(S'percentage'
p506
S'percentage'
p507
S'NN'
p508
S'B-NP'
p509
g5
tp510
a(S'of'
p511
S'of'
p512
S'IN'
p513
S'B-PP'
p514
g5
tp515
a(S'people'
p516
S'people'
p517
S'NNS'
p518
S'B-NP'
p519
g5
tp520
a(S'reaching'
p521
S'reach'
p522
S'VBG'
p523
S'B-VP'
p524
g5
tp525
a(S'HbA1c'
p526
S'HbA1c'
p527
S'NN'
p528
S'B-NP'
p529
g5
tp530
a(S'<'
p531
g531
S'SYM'
p532
g5
g5
tp533
a(S'7'
p534
g534
S'CD'
p535
S'B-NP'
p536
g5
tp537
a(g298
g298
S'NN'
p538
S'I-NP'
p539
g5
tp540
a(g91
g91
g91
g5
g5
tp541
a(S'RESULTS'
p542
S'RESULTS'
p543
S'NNS'
p544
S'B-NP'
p545
g5
tp546
a(S'The'
p547
S'The'
p548
S'DT'
p549
S'B-NP'
p550
g5
tp551
a(S'mean'
p552
S'mean'
p553
S'JJ'
p554
S'I-NP'
p555
g5
tp556
a(S'['
p557
g557
g175
g5
g5
tp558
a(S'standard'
p559
S'standard'
p560
S'JJ'
p561
S'B-NP'
p562
g5
tp563
a(S'deviation'
p564
S'deviation'
p565
S'NN'
p566
S'I-NP'
p567
g5
tp568
a(g175
g175
g175
g5
g5
tp569
a(S's.d.'
p570
S's.d.'
p571
S'NN'
p572
S'B-NP'
p573
g5
tp574
a(g182
g182
g182
g5
g5
tp575
a(S']'
p576
g576
g182
g5
g5
tp577
a(S'age'
p578
S'age'
p579
S'NN'
p580
S'B-NP'
p581
g5
tp582
a(S'of'
p583
S'of'
p584
S'IN'
p585
S'B-PP'
p586
g5
tp587
a(S'the'
p588
S'the'
p589
S'DT'
p590
S'B-NP'
p591
g5
tp592
a(S'participants'
p593
S'participant'
p594
S'NNS'
p595
S'I-NP'
p596
g5
tp597
a(S'was'
p598
S'be'
p599
S'VBD'
p600
S'B-VP'
p601
g5
tp602
a(S'57'
p603
S'57'
p604
S'CD'
p605
S'B-NP'
p606
g5
tp607
a(g175
g175
g175
g5
g5
tp608
a(S'9'
p609
g609
S'CD'
p610
S'B-NP'
p611
g5
tp612
a(g182
g182
g182
g5
g5
tp613
a(S'\xe2\x80\x89years'
p614
S'\xe2\x80\x89year'
p615
S'NNS'
p616
S'B-NP'
p617
g5
tp618
a(g200
g200
g200
g5
g5
tp619
a(S'the'
p620
S'the'
p621
S'DT'
p622
S'B-NP'
p623
g5
tp624
a(S'duration'
p625
S'duration'
p626
S'NN'
p627
S'I-NP'
p628
g5
tp629
a(S'of'
p630
S'of'
p631
S'IN'
p632
S'B-PP'
p633
g5
tp634
a(S'diabetes'
p635
S'diabetes'
p636
S'NN'
p637
S'B-NP'
p638
g5
tp639
a(S'was'
p640
S'be'
p641
S'VBD'
p642
S'B-VP'
p643
g5
tp644
a(g609
g609
S'CD'
p645
S'B-NP'
p646
g5
tp647
a(g175
g175
S'NN'
p648
S'I-NP'
p649
g5
tp650
a(S'6'
p651
g651
S'CD'
p652
S'B-NP'
p653
g5
tp654
a(g182
g182
g182
g5
g5
tp655
a(S'\xe2\x80\x89years'
p656
S'\xe2\x80\x89year'
p657
S'NNS'
p658
S'B-NP'
p659
g5
tp660
a(g200
g200
g200
g5
g5
tp661
a(S'body'
p662
S'body'
p663
S'NN'
p664
S'B-NP'
p665
g5
tp666
a(S'mass'
p667
S'mass'
p668
S'NN'
p669
S'I-NP'
p670
g5
tp671
a(S'index'
p672
S'index'
p673
S'NN'
p674
S'I-NP'
p675
g5
tp676
a(S'was'
p677
S'be'
p678
S'VBD'
p679
S'B-VP'
p680
g5
tp681
a(S'31.9'
p682
S'31.9'
p683
S'CD'
p684
S'B-NP'
p685
g5
tp686
a(g175
g175
g175
g5
g5
tp687
a(S'4.2'
p688
S'4.2'
p689
S'CD'
p690
S'B-NP'
p691
g5
tp692
a(g182
g182
g182
g5
g5
tp693
a(S'\xe2\x80\x89kg/m'
p694
S'\xe2\x80\x89kg/m'
p695
S'NN'
p696
S'B-NP'
p697
g5
tp698
a(g175
g175
g175
g5
g5
tp699
a(g82
g82
S'CD'
p700
S'B-NP'
p701
g5
tp702
a(g182
g182
g182
g5
g5
tp703
a(S'and'
p704
S'and'
p705
S'CC'
p706
g5
g5
tp707
a(S'HbA1c'
p708
S'HbA1c'
p709
S'NN'
p710
S'B-NP'
p711
S'B-protein'
p712
tp713
a(S'level'
p714
S'level'
p715
S'NN'
p716
S'I-NP'
p717
g5
tp718
a(S'was'
p719
S'be'
p720
S'VBD'
p721
S'B-VP'
p722
g5
tp723
a(S'9.0'
p724
S'9.0'
p725
S'CD'
p726
S'B-NP'
p727
g5
tp728
a(g175
g175
g175
g5
g5
tp729
a(S'1.1'
p730
S'1.1'
p731
S'CD'
p732
S'B-NP'
p733
g5
tp734
a(g182
g182
g182
g5
g5
tp735
a(g298
g298
S'NN'
p736
S'B-NP'
p737
g5
tp738
a(g91
g91
g91
g5
g5
tp739
a(S'Equal'
p740
S'Equal'
p741
S'JJ'
p742
S'B-NP'
p743
g5
tp744
a(S'numbers'
p745
S'number'
p746
S'NNS'
p747
S'I-NP'
p748
g5
tp749
a(g175
g175
g175
g5
g5
tp750
a(S'n\xe2\x80\x89=\xe2\x80\x89489'
p751
S'n\xe2\x80\x89=\xe2\x80\x89489'
p752
S'NN'
p753
S'B-NP'
p754
g5
tp755
a(g182
g182
g182
g5
g5
tp756
a(S'were'
p757
S'be'
p758
S'VBD'
p759
S'B-VP'
p760
g5
tp761
a(S'allocated'
p762
S'allocate'
p763
S'VBN'
p764
S'I-VP'
p765
g5
tp766
a(S'to'
p767
S'to'
p768
S'TO'
p769
S'B-PP'
p770
g5
tp771
a(S'glargine'
p772
S'glargine'
p773
S'NN'
p774
S'B-NP'
p775
g5
tp776
a(S'and'
p777
S'and'
p778
S'CC'
p779
S'I-NP'
p780
g5
tp781
a(S'liraglutide.'
p782
S'liraglutide.'
p783
S'NN'
p784
S'I-NP'
p785
g5
tp786
a(S'Similar'
p787
S'Similar'
p788
S'JJ'
p789
S'I-NP'
p790
g5
tp791
a(S'numbers'
p792
S'number'
p793
S'NNS'
p794
S'I-NP'
p795
g5
tp796
a(S'of'
p797
S'of'
p798
S'IN'
p799
S'B-PP'
p800
g5
tp801
a(S'subjects'
p802
S'subject'
p803
S'NNS'
p804
S'B-NP'
p805
g5
tp806
a(S'in'
p807
S'in'
p808
S'IN'
p809
S'B-PP'
p810
g5
tp811
a(S'both'
p812
S'both'
p813
S'DT'
p814
S'B-NP'
p815
g5
tp816
a(S'groups'
p817
S'group'
p818
S'NNS'
p819
S'I-NP'
p820
g5
tp821
a(S'attained'
p822
S'attain'
p823
S'VBD'
p824
S'B-VP'
p825
g5
tp826
a(S'an'
p827
S'an'
p828
S'DT'
p829
S'B-NP'
p830
g5
tp831
a(S'HbA1c'
p832
S'HbA1c'
p833
S'NN'
p834
S'I-NP'
p835
g5
tp836
a(S'level'
p837
S'level'
p838
S'NN'
p839
S'I-NP'
p840
g5
tp841
a(S'of'
p842
S'of'
p843
S'IN'
p844
S'B-PP'
p845
g5
tp846
a(g531
g531
S'SYM'
p847
S'B-NP'
p848
g5
tp849
a(g534
g534
S'CD'
p850
S'B-NP'
p851
g5
tp852
a(g298
g298
S'NN'
p853
S'I-NP'
p854
g5
tp855
a(g175
g175
g175
g5
g5
tp856
a(S'48.4'
p857
S'48.4'
p858
S'CD'
p859
S'B-NP'
p860
g5
tp861
a(S'vs.'
p862
S'vs.'
p863
S'IN'
p864
S'B-PP'
p865
g5
tp866
a(S'45.9'
p867
S'45.9'
p868
S'CD'
p869
S'B-NP'
p870
g5
tp871
a(g298
g298
S'NN'
p872
S'I-NP'
p873
g5
tp874
a(g182
g182
g182
g5
g5
tp875
a(S';'
p876
g876
S':'
p877
g5
g5
tp878
a(S'therefore'
p879
S'therefore'
p880
S'RB'
p881
S'B-ADVP'
p882
g5
tp883
a(g200
g200
g200
g5
g5
tp884
a(S'superiority'
p885
S'superiority'
p886
S'NN'
p887
S'B-NP'
p888
g5
tp889
a(S'of'
p890
S'of'
p891
S'IN'
p892
S'B-PP'
p893
g5
tp894
a(S'glargine'
p895
S'glargine'
p896
S'NN'
p897
S'B-NP'
p898
g5
tp899
a(S'over'
p900
S'over'
p901
S'IN'
p902
S'B-PP'
p903
g5
tp904
a(S'liraglutide'
p905
S'liraglutide'
p906
S'NN'
p907
S'B-NP'
p908
g5
tp909
a(S'was'
p910
S'be'
p911
S'VBD'
p912
S'B-VP'
p913
g5
tp914
a(S'not'
p915
S'not'
p916
S'RB'
p917
S'I-VP'
p918
g5
tp919
a(S'observed'
p920
S'observe'
p921
S'VBN'
p922
S'I-VP'
p923
g5
tp924
a(g175
g175
g175
g5
g5
tp925
a(S'p\xe2\x80\x89=\xe2\x80\x890.44'
p926
S'p\xe2\x80\x89=\xe2\x80\x890.44'
p927
S'NN'
p928
S'B-NP'
p929
S'B-protein'
p930
tp931
a(g182
g182
g182
g5
g5
tp932
a(g91
g91
g91
g5
g5
tp933
a(S'Subjects'
p934
S'Subject'
p935
S'NNPS'
p936
S'B-NP'
p937
g5
tp938
a(S'treated'
p939
S'treat'
p940
S'VBN'
p941
S'B-VP'
p942
g5
tp943
a(S'with'
p944
S'with'
p945
S'IN'
p946
S'B-PP'
p947
g5
tp948
a(S'glargine'
p949
S'glargine'
p950
S'NN'
p951
S'B-NP'
p952
g5
tp953
a(S'had'
p954
S'have'
p955
S'VBD'
p956
S'B-VP'
p957
g5
tp958
a(S'greater'
p959
S'great'
p960
S'JJR'
p961
S'B-NP'
p962
g5
tp963
a(S'reductions'
p964
S'reduction'
p965
S'NNS'
p966
S'I-NP'
p967
g5
tp968
a(S'of'
p969
S'of'
p970
S'IN'
p971
S'B-PP'
p972
g5
tp973
a(S'HbA1c'
p974
S'HbA1c'
p975
S'NN'
p976
S'B-NP'
p977
S'B-protein'
p978
tp979
a(g557
g557
g175
g5
g5
tp980
a(S'-1.94'
p981
S'-1.94'
p982
S'CD'
p983
S'B-NP'
p984
g5
tp985
a(g298
g298
S'NN'
p986
S'I-NP'
p987
g5
tp988
a(g175
g175
g175
g5
g5
tp989
a(S'0.05'
p990
S'0.05'
p991
S'CD'
p992
S'B-NP'
p993
g5
tp994
a(g182
g182
g182
g5
g5
tp995
a(S'and'
p996
S'and'
p997
S'CC'
p998
g5
g5
tp999
a(S'-1.79'
p1000
S'-1.79'
p1001
S'CD'
p1002
S'B-NP'
p1003
g5
tp1004
a(g298
g298
S'NN'
p1005
S'I-NP'
p1006
g5
tp1007
a(g175
g175
g175
g5
g5
tp1008
a(S'0.05'
p1009
S'0.05'
p1010
S'CD'
p1011
S'B-NP'
p1012
g5
tp1013
a(g182
g182
g182
g5
g5
tp1014
a(g876
g876
g877
g5
g5
tp1015
a(S'p\xe2\x80\x89=\xe2\x80\x890.019'
p1016
S'p\xe2\x80\x89=\xe2\x80\x890.019'
p1017
S'NN'
p1018
S'B-NP'
p1019
g5
tp1020
a(g576
g576
g182
g5
g5
tp1021
a(S'and'
p1022
S'and'
p1023
S'CC'
p1024
g5
g5
tp1025
a(S'fasting'
p1026
S'fast'
p1027
S'VBG'
p1028
S'B-VP'
p1029
g5
tp1030
a(S'plasma'
p1031
S'plasma'
p1032
S'NN'
p1033
S'B-NP'
p1034
g5
tp1035
a(S'glucose'
p1036
S'glucose'
p1037
S'NN'
p1038
S'I-NP'
p1039
g5
tp1040
a(g557
g557
g175
g5
g5
tp1041
a(S'6.2'
p1042
S'6.2'
p1043
S'CD'
p1044
S'B-NP'
p1045
g5
tp1046
a(g175
g175
g175
g5
g5
tp1047
a(S'1.6'
p1048
S'1.6'
p1049
S'CD'
p1050
S'B-NP'
p1051
g5
tp1052
a(g182
g182
g182
g5
g5
tp1053
a(S'and'
p1054
S'and'
p1055
S'CC'
p1056
g5
g5
tp1057
a(S'7.9'
p1058
S'7.9'
p1059
S'CD'
p1060
S'B-NP'
p1061
g5
tp1062
a(g175
g175
g175
g5
g5
tp1063
a(S'2.2'
p1064
S'2.2'
p1065
S'CD'
p1066
S'B-NP'
p1067
g5
tp1068
a(g182
g182
g182
g5
g5
tp1069
a(S'mmol/L'
p1070
S'mmol/L'
p1071
S'NN'
p1072
S'B-NP'
p1073
g5
tp1074
a(g876
g876
g877
g5
g5
tp1075
a(S'p\xe2\x80\x89'
p1076
S'p\xe2\x80\x89'
p1077
S'NN'
p1078
S'B-NP'
p1079
g5
tp1080
a(g531
g531
S'SYM'
p1081
S'B-NP'
p1082
g5
tp1083
a(S'\xe2\x80\x890.001'
p1084
S'\xe2\x80\x890.001'
p1085
S'CD'
p1086
S'I-NP'
p1087
g5
tp1088
a(g576
g576
g182
g5
g5
tp1089
a(S'than'
p1090
S'than'
p1091
S'IN'
p1092
S'B-PP'
p1093
g5
tp1094
a(S'those'
p1095
S'those'
p1096
S'DT'
p1097
S'B-NP'
p1098
g5
tp1099
a(S'receiving'
p1100
S'receive'
p1101
S'VBG'
p1102
S'I-NP'
p1103
g5
tp1104
a(S'liraglutide.'
p1105
S'liraglutide.'
p1106
S'NN'
p1107
S'I-NP'
p1108
g5
tp1109
a(S'The'
p1110
S'The'
p1111
S'DT'
p1112
S'B-NP'
p1113
g5
tp1114
a(S'liraglutide'
p1115
S'liraglutide'
p1116
S'NN'
p1117
S'I-NP'
p1118
g5
tp1119
a(S'group'
p1120
S'group'
p1121
S'NN'
p1122
S'I-NP'
p1123
g5
tp1124
a(S'reported'
p1125
S'report'
p1126
S'VBD'
p1127
S'B-VP'
p1128
g5
tp1129
a(S'a'
p1130
g1130
S'DT'
p1131
S'B-NP'
p1132
g5
tp1133
a(S'greater'
p1134
S'great'
p1135
S'JJR'
p1136
S'I-NP'
p1137
g5
tp1138
a(S'number'
p1139
S'number'
p1140
S'NN'
p1141
S'I-NP'
p1142
g5
tp1143
a(S'of'
p1144
S'of'
p1145
S'IN'
p1146
S'B-PP'
p1147
g5
tp1148
a(S'gastrointestinal'
p1149
S'gastrointestinal'
p1150
S'JJ'
p1151
S'B-NP'
p1152
g5
tp1153
a(S'treatment-emergent'
p1154
S'treatment-emergent'
p1155
S'JJ'
p1156
S'I-NP'
p1157
g5
tp1158
a(S'adverse'
p1159
S'adverse'
p1160
S'JJ'
p1161
S'I-NP'
p1162
g5
tp1163
a(S'events'
p1164
S'event'
p1165
S'NNS'
p1166
S'I-NP'
p1167
g5
tp1168
a(g175
g175
g175
g5
g5
tp1169
a(S'p\xe2\x80\x89'
p1170
S'p\xe2\x80\x89'
p1171
S'NN'
p1172
S'B-NP'
p1173
g5
tp1174
a(g531
g531
S'SYM'
p1175
g5
g5
tp1176
a(S'\xe2\x80\x890.001'
p1177
S'\xe2\x80\x890.001'
p1178
S'CD'
p1179
S'B-NP'
p1180
g5
tp1181
a(g182
g182
g182
g5
g5
tp1182
a(g91
g91
g91
g5
g5
tp1183
a(S'The'
p1184
S'The'
p1185
S'DT'
p1186
S'B-NP'
p1187
g5
tp1188
a(S'mean'
p1189
S'mean'
p1190
S'JJ'
p1191
S'I-NP'
p1192
g5
tp1193
a(g175
g175
g175
g5
g5
tp1194
a(S's.d.'
p1195
S's.d.'
p1196
S'JJ'
p1197
S'B-ADJP'
p1198
g5
tp1199
a(g182
g182
g182
g5
g5
tp1200
a(S'weight'
p1201
S'weight'
p1202
S'NN'
p1203
S'B-NP'
p1204
g5
tp1205
a(S'change'
p1206
S'change'
p1207
S'NN'
p1208
S'I-NP'
p1209
g5
tp1210
a(S'was'
p1211
S'be'
p1212
S'VBD'
p1213
S'B-VP'
p1214
g5
tp1215
a(S'+2.0'
p1216
S'+2.0'
p1217
S'CD'
p1218
S'B-NP'
p1219
g5
tp1220
a(g175
g175
g175
g5
g5
tp1221
a(S'4.0'
p1222
S'4.0'
p1223
S'CD'
p1224
S'B-NP'
p1225
g5
tp1226
a(g182
g182
g182
g5
g5
tp1227
a(S'\xe2\x80\x89kg'
p1228
S'\xe2\x80\x89kg'
p1229
S'NN'
p1230
S'B-NP'
p1231
g5
tp1232
a(S'for'
p1233
S'for'
p1234
S'IN'
p1235
S'B-PP'
p1236
g5
tp1237
a(S'glargine'
p1238
S'glargine'
p1239
S'NN'
p1240
S'B-NP'
p1241
g5
tp1242
a(S'and'
p1243
S'and'
p1244
S'CC'
p1245
g5
g5
tp1246
a(S'-3.0'
p1247
S'-3.0'
p1248
S'CD'
p1249
S'B-NP'
p1250
g5
tp1251
a(g175
g175
g175
g5
g5
tp1252
a(S'3.6'
p1253
S'3.6'
p1254
S'CD'
p1255
S'B-NP'
p1256
g5
tp1257
a(g182
g182
g182
g5
g5
tp1258
a(S'\xe2\x80\x89kg'
p1259
S'\xe2\x80\x89kg'
p1260
S'NN'
p1261
S'B-NP'
p1262
g5
tp1263
a(S'for'
p1264
S'for'
p1265
S'IN'
p1266
S'B-PP'
p1267
g5
tp1268
a(S'liraglutide'
p1269
S'liraglutide'
p1270
S'NN'
p1271
S'B-NP'
p1272
g5
tp1273
a(g175
g175
g175
g5
g5
tp1274
a(S'p\xe2\x80\x89'
p1275
S'p\xe2\x80\x89'
p1276
S'NN'
p1277
S'B-NP'
p1278
g5
tp1279
a(g531
g531
S'SYM'
p1280
g5
g5
tp1281
a(S'\xe2\x80\x890.001'
p1282
S'\xe2\x80\x890.001'
p1283
S'CD'
p1284
S'B-NP'
p1285
g5
tp1286
a(g182
g182
g182
g5
g5
tp1287
a(g91
g91
g91
g5
g5
tp1288
a(S'Symptomatic'
p1289
S'Symptomatic'
p1290
S'JJ'
p1291
S'B-NP'
p1292
g5
tp1293
a(S'hypoglycaemia'
p1294
S'hypoglycaemia'
p1295
S'NN'
p1296
S'I-NP'
p1297
g5
tp1298
a(S'was'
p1299
S'be'
p1300
S'VBD'
p1301
S'B-VP'
p1302
g5
tp1303
a(S'more'
p1304
S'more'
p1305
S'RBR'
p1306
S'B-ADJP'
p1307
g5
tp1308
a(S'common'
p1309
S'common'
p1310
S'JJ'
p1311
S'I-ADJP'
p1312
g5
tp1313
a(S'with'
p1314
S'with'
p1315
S'IN'
p1316
S'B-PP'
p1317
g5
tp1318
a(S'glargine'
p1319
S'glargine'
p1320
S'NN'
p1321
S'B-NP'
p1322
g5
tp1323
a(g175
g175
g175
g5
g5
tp1324
a(S'p\xe2\x80\x89'
p1325
S'p\xe2\x80\x89'
p1326
S'NN'
p1327
S'B-NP'
p1328
g5
tp1329
a(g531
g531
S'SYM'
p1330
g5
g5
tp1331
a(S'\xe2\x80\x890.001'
p1332
S'\xe2\x80\x890.001'
p1333
S'CD'
p1334
S'B-NP'
p1335
g5
tp1336
a(g182
g182
g182
g5
g5
tp1337
a(g91
g91
g91
g5
g5
tp1338
a(S'A'
p1339
g1339
S'DT'
p1340
S'B-NP'
p1341
g5
tp1342
a(S'greater'
p1343
S'great'
p1344
S'JJR'
p1345
S'I-NP'
p1346
g5
tp1347
a(S'number'
p1348
S'number'
p1349
S'NN'
p1350
S'I-NP'
p1351
g5
tp1352
a(S'of'
p1353
S'of'
p1354
S'IN'
p1355
S'B-PP'
p1356
g5
tp1357
a(S'subjects'
p1358
S'subject'
p1359
S'NNS'
p1360
S'B-NP'
p1361
g5
tp1362
a(S'in'
p1363
S'in'
p1364
S'IN'
p1365
S'B-PP'
p1366
g5
tp1367
a(S'the'
p1368
S'the'
p1369
S'DT'
p1370
S'B-NP'
p1371
g5
tp1372
a(S'liraglutide'
p1373
S'liraglutide'
p1374
S'NN'
p1375
S'I-NP'
p1376
g5
tp1377
a(S'arm'
p1378
S'arm'
p1379
S'NN'
p1380
S'I-NP'
p1381
g5
tp1382
a(S'withdrew'
p1383
S'withdraw'
p1384
S'VBD'
p1385
S'B-VP'
p1386
g5
tp1387
a(S'as'
p1388
S'as'
p1389
S'IN'
p1390
S'B-PP'
p1391
g5
tp1392
a(g1130
g1130
S'DT'
p1393
S'B-NP'
p1394
g5
tp1395
a(S'result'
p1396
S'result'
p1397
S'NN'
p1398
S'I-NP'
p1399
g5
tp1400
a(S'of'
p1401
S'of'
p1402
S'IN'
p1403
S'B-PP'
p1404
g5
tp1405
a(S'adverse'
p1406
S'adverse'
p1407
S'JJ'
p1408
S'B-NP'
p1409
g5
tp1410
a(S'events'
p1411
S'event'
p1412
S'NNS'
p1413
S'I-NP'
p1414
g5
tp1415
a(g175
g175
g175
g5
g5
tp1416
a(S'p\xe2\x80\x89'
p1417
S'p\xe2\x80\x89'
p1418
S'NN'
p1419
S'B-NP'
p1420
g5
tp1421
a(g531
g531
S'SYM'
p1422
g5
g5
tp1423
a(S'\xe2\x80\x890.001'
p1424
S'\xe2\x80\x890.001'
p1425
S'CD'
p1426
S'B-NP'
p1427
g5
tp1428
a(g182
g182
g182
g5
g5
tp1429
a(g91
g91
g91
g5
g5
tp1430
a(S'CONCLUSION'
p1431
S'CONCLUSION'
p1432
S'NN'
p1433
S'B-NP'
p1434
g5
tp1435
a(S'Adding'
p1436
S'Add'
p1437
S'VBG'
p1438
S'B-VP'
p1439
g5
tp1440
a(S'either'
p1441
S'either'
p1442
S'CC'
p1443
g5
g5
tp1444
a(S'insulin'
p1445
S'insulin'
p1446
S'NN'
p1447
S'B-NP'
p1448
g5
tp1449
a(S'glargine'
p1450
S'glargine'
p1451
S'NN'
p1452
S'I-NP'
p1453
g5
tp1454
a(S'or'
p1455
S'or'
p1456
S'CC'
p1457
g5
g5
tp1458
a(S'liraglutide'
p1459
S'liraglutide'
p1460
S'NN'
p1461
S'B-NP'
p1462
g5
tp1463
a(S'to'
p1464
S'to'
p1465
S'TO'
p1466
S'B-PP'
p1467
g5
tp1468
a(S'subjects'
p1469
S'subject'
p1470
S'NNS'
p1471
S'B-NP'
p1472
g5
tp1473
a(S'with'
p1474
S'with'
p1475
S'IN'
p1476
S'B-PP'
p1477
g5
tp1478
a(S'poorly'
p1479
S'poorly'
p1480
S'RB'
p1481
S'B-NP'
p1482
g5
tp1483
a(S'controlled'
p1484
S'control'
p1485
S'VBN'
p1486
S'I-NP'
p1487
g5
tp1488
a(S'T2DM'
p1489
S'T2DM'
p1490
S'NN'
p1491
S'I-NP'
p1492
g5
tp1493
a(S'reduces'
p1494
S'reduce'
p1495
S'VBZ'
p1496
S'B-VP'
p1497
g5
tp1498
a(S'HbA1c'
p1499
S'HbA1c'
p1500
S'NN'
p1501
S'B-NP'
p1502
S'B-protein'
p1503
tp1504
a(S'substantially'
p1505
S'substantially'
p1506
S'RB'
p1507
S'B-ADVP'
p1508
g5
tp1509
a(g200
g200
g200
g5
g5
tp1510
a(S'with'
p1511
S'with'
p1512
S'IN'
p1513
S'B-PP'
p1514
g5
tp1515
a(S'nearly'
p1516
S'nearly'
p1517
S'RB'
p1518
S'B-NP'
p1519
g5
tp1520
a(S'half'
p1521
S'half'
p1522
S'NN'
p1523
S'I-NP'
p1524
g5
tp1525
a(S'of'
p1526
S'of'
p1527
S'IN'
p1528
S'B-PP'
p1529
g5
tp1530
a(S'subjects'
p1531
S'subject'
p1532
S'NNS'
p1533
S'B-NP'
p1534
g5
tp1535
a(S'reaching'
p1536
S'reach'
p1537
S'VBG'
p1538
S'B-VP'
p1539
g5
tp1540
a(S'target'
p1541
S'target'
p1542
S'NN'
p1543
S'B-NP'
p1544
g5
tp1545
a(S'levels'
p1546
S'level'
p1547
S'NNS'
p1548
S'I-NP'
p1549
g5
tp1550
a(S'of'
p1551
S'of'
p1552
S'IN'
p1553
S'B-PP'
p1554
g5
tp1555
a(g534
g534
S'CD'
p1556
S'B-NP'
p1557
g5
tp1558
a(g298
g298
S'NN'
p1559
S'I-NP'
p1560
g5
tp1561
a(g91
g91
g91
g5
g5
tp1562
a.