(lp0
(S'Abacavir'
p1
S'Abacavir'
p2
S'NN'
p3
S'B-NP'
p4
S'O'
p5
tp6
a(S'once'
p7
S'once'
p8
S'RB'
p9
S'B-VP'
p10
g5
tp11
a(S'or'
p12
S'or'
p13
S'CC'
p14
S'I-VP'
p15
g5
tp16
a(S'twice'
p17
S'twice'
p18
S'RB'
p19
S'I-VP'
p20
g5
tp21
a(S'daily'
p22
S'daily'
p23
S'RB'
p24
S'I-VP'
p25
g5
tp26
a(S'combined'
p27
S'combine'
p28
S'VBN'
p29
S'I-VP'
p30
g5
tp31
a(S'with'
p32
S'with'
p33
S'IN'
p34
S'B-PP'
p35
g5
tp36
a(S'once-daily'
p37
S'once-daily'
p38
S'JJ'
p39
S'B-NP'
p40
g5
tp41
a(S'lamivudine'
p42
S'lamivudine'
p43
S'NN'
p44
S'I-NP'
p45
g5
tp46
a(S'and'
p47
S'and'
p48
S'CC'
p49
S'I-NP'
p50
g5
tp51
a(S'efavirenz'
p52
S'efavirenz'
p53
S'NN'
p54
S'I-NP'
p55
g5
tp56
a(S'for'
p57
S'for'
p58
S'IN'
p59
S'B-PP'
p60
g5
tp61
a(S'the'
p62
S'the'
p63
S'DT'
p64
S'B-NP'
p65
g5
tp66
a(S'treatment'
p67
S'treatment'
p68
S'NN'
p69
S'I-NP'
p70
g5
tp71
a(S'of'
p72
S'of'
p73
S'IN'
p74
S'B-PP'
p75
g5
tp76
a(S'antiretroviral-naive'
p77
S'antiretroviral-naive'
p78
S'JJ'
p79
S'B-NP'
p80
g5
tp81
a(S'HIV-infected'
p82
S'HIV-infected'
p83
S'JJ'
p84
S'I-NP'
p85
g5
tp86
a(S'adults'
p87
S'adult'
p88
S'NNS'
p89
S'I-NP'
p90
g5
tp91
a(S':'
p92
g92
g92
g5
g5
tp93
a(S'results'
p94
S'result'
p95
S'NNS'
p96
S'B-NP'
p97
g5
tp98
a(S'of'
p99
S'of'
p100
S'IN'
p101
S'B-PP'
p102
g5
tp103
a(S'the'
p104
S'the'
p105
S'DT'
p106
S'B-NP'
p107
g5
tp108
a(S'Ziagen'
p109
S'Ziagen'
p110
S'NNP'
p111
S'I-NP'
p112
g5
tp113
a(S'Once'
p114
S'Once'
p115
S'NNP'
p116
S'I-NP'
p117
g5
tp118
a(S'Daily'
p119
S'Daily'
p120
S'NNP'
p121
S'I-NP'
p122
g5
tp123
a(S'in'
p124
S'in'
p125
S'IN'
p126
S'B-PP'
p127
g5
tp128
a(S'Antiretroviral'
p129
S'Antiretroviral'
p130
S'JJ'
p131
S'B-NP'
p132
g5
tp133
a(S'Combination'
p134
S'Combination'
p135
S'NNP'
p136
S'I-NP'
p137
g5
tp138
a(S'Study'
p139
S'Study'
p140
S'NNP'
p141
S'I-NP'
p142
g5
tp143
a(S'.'
p144
g144
g144
g5
g5
tp145
a(S'The'
p146
S'The'
p147
S'DT'
p148
S'B-NP'
p149
g5
tp150
a(S'long'
p151
S'long'
p152
S'JJ'
p153
S'I-NP'
p154
g5
tp155
a(S'intracellular'
p156
S'intracellular'
p157
S'JJ'
p158
S'I-NP'
p159
g5
tp160
a(S'half-life'
p161
S'half-life'
p162
S'NN'
p163
S'I-NP'
p164
g5
tp165
a(S'of'
p166
S'of'
p167
S'IN'
p168
S'B-PP'
p169
g5
tp170
a(S'abacavir'
p171
S'abacavir'
p172
S'NN'
p173
S'B-NP'
p174
g5
tp175
a(S'('
p176
g176
g176
g5
g5
tp177
a(S'ABC'
p178
S'ABC'
p179
S'NN'
p180
S'B-NP'
p181
g5
tp182
a(S')'
p183
g183
g183
g5
g5
tp184
a(S'supports'
p185
S'support'
p186
S'VBZ'
p187
S'B-VP'
p188
g5
tp189
a(S'its'
p190
S'its'
p191
S'PRP$'
p192
S'B-NP'
p193
g5
tp194
a(S'once-daily'
p195
S'once-daily'
p196
S'JJ'
p197
S'I-NP'
p198
g5
tp199
a(S'use'
p200
S'use'
p201
S'NN'
p202
S'I-NP'
p203
g5
tp204
a(S','
p205
g205
g205
g5
g5
tp206
a(S'and'
p207
S'and'
p208
S'CC'
p209
g5
g5
tp210
a(S'this'
p211
S'this'
p212
S'DT'
p213
S'B-NP'
p214
g5
tp215
a(S'would'
p216
S'would'
p217
S'MD'
p218
S'B-VP'
p219
g5
tp220
a(S'be'
p221
S'be'
p222
S'VB'
p223
S'I-VP'
p224
g5
tp225
a(S'expected'
p226
S'expect'
p227
S'VBN'
p228
S'I-VP'
p229
g5
tp230
a(S'to'
p231
S'to'
p232
S'TO'
p233
S'I-VP'
p234
g5
tp235
a(S'simplify'
p236
S'simplify'
p237
S'VB'
p238
S'I-VP'
p239
g5
tp240
a(S'treatment'
p241
S'treatment'
p242
S'NN'
p243
S'B-NP'
p244
g5
tp245
a(S'if'
p246
S'if'
p247
S'IN'
p248
S'B-SBAR'
p249
g5
tp250
a(S'ABC'
p251
S'ABC'
p252
S'NNP'
p253
S'B-NP'
p254
g5
tp255
a(S'could'
p256
S'could'
p257
S'MD'
p258
S'B-VP'
p259
g5
tp260
a(S'be'
p261
S'be'
p262
S'VB'
p263
S'I-VP'
p264
g5
tp265
a(S'given'
p266
S'give'
p267
S'VBN'
p268
S'I-VP'
p269
g5
tp270
a(S'as'
p271
S'as'
p272
S'IN'
p273
S'B-PP'
p274
g5
tp275
a(S'part'
p276
S'part'
p277
S'NN'
p278
S'B-NP'
p279
g5
tp280
a(S'of'
p281
S'of'
p282
S'IN'
p283
S'B-PP'
p284
g5
tp285
a(S'a'
p286
g286
S'DT'
p287
S'B-NP'
p288
g5
tp289
a(S'complete'
p290
S'complete'
p291
S'JJ'
p292
S'I-NP'
p293
g5
tp294
a(S'once-daily'
p295
S'once-daily'
p296
S'JJ'
p297
S'I-NP'
p298
g5
tp299
a(S'regimen.'
p300
S'regimen.'
p301
S'NN'
p302
S'I-NP'
p303
g5
tp304
a(S'A'
p305
g305
S'NN'
p306
S'I-NP'
p307
g5
tp308
a(S'randomized'
p309
S'randomize'
p310
S'VBD'
p311
S'B-VP'
p312
g5
tp313
a(S'double-blind'
p314
S'double-blind'
p315
S'JJ'
p316
S'B-NP'
p317
g5
tp318
a(S'clinical'
p319
S'clinical'
p320
S'JJ'
p321
S'I-NP'
p322
g5
tp323
a(S'trial'
p324
S'trial'
p325
S'NN'
p326
S'I-NP'
p327
g5
tp328
a(S'compared'
p329
S'compare'
p330
S'VBD'
p331
S'B-VP'
p332
g5
tp333
a(S'the'
p334
S'the'
p335
S'DT'
p336
S'B-NP'
p337
g5
tp338
a(S'efficacy'
p339
S'efficacy'
p340
S'NN'
p341
S'I-NP'
p342
g5
tp343
a(S'and'
p344
S'and'
p345
S'CC'
p346
S'I-NP'
p347
g5
tp348
a(S'safety'
p349
S'safety'
p350
S'NN'
p351
S'I-NP'
p352
g5
tp353
a(S'of'
p354
S'of'
p355
S'IN'
p356
S'B-PP'
p357
g5
tp358
a(S'600'
p359
S'600'
p360
S'CD'
p361
S'B-NP'
p362
g5
tp363
a(S'mg'
p364
S'mg'
p365
S'NN'
p366
S'I-NP'
p367
g5
tp368
a(S'of'
p369
S'of'
p370
S'IN'
p371
S'B-PP'
p372
g5
tp373
a(S'ABC'
p374
S'ABC'
p375
S'NNP'
p376
S'B-NP'
p377
g5
tp378
a(S'administered'
p379
S'administer'
p380
S'VBN'
p381
S'B-VP'
p382
g5
tp383
a(S'once'
p384
S'once'
p385
S'RB'
p386
S'B-ADVP'
p387
g5
tp388
a(S'daily'
p389
S'daily'
p390
S'RB'
p391
S'I-ADVP'
p392
g5
tp393
a(g176
g176
g176
g5
g5
tp394
a(S'n'
p395
g395
S'NN'
p396
S'B-NP'
p397
g5
tp398
a(S'='
p399
g399
S'SYM'
p400
S'B-VP'
p401
g5
tp402
a(S'384'
p403
S'384'
p404
S'CD'
p405
S'B-NP'
p406
g5
tp407
a(g183
g183
g183
g5
g5
tp408
a(S'versus'
p409
S'versus'
p410
S'IN'
p411
S'B-PP'
p412
g5
tp413
a(S'300'
p414
S'300'
p415
S'CD'
p416
S'B-NP'
p417
g5
tp418
a(S'mg'
p419
S'mg'
p420
S'NN'
p421
S'I-NP'
p422
g5
tp423
a(S'of'
p424
S'of'
p425
S'IN'
p426
S'B-PP'
p427
g5
tp428
a(S'ABC'
p429
S'ABC'
p430
S'NNP'
p431
S'B-NP'
p432
g5
tp433
a(S'administered'
p434
S'administer'
p435
S'VBN'
p436
S'B-VP'
p437
g5
tp438
a(S'twice'
p439
S'twice'
p440
S'RB'
p441
S'B-ADVP'
p442
g5
tp443
a(S'daily'
p444
S'daily'
p445
S'RB'
p446
S'I-ADVP'
p447
g5
tp448
a(g176
g176
g176
g5
g5
tp449
a(g395
g395
S'NN'
p450
S'B-NP'
p451
g5
tp452
a(g399
g399
S'SYM'
p453
S'B-VP'
p454
g5
tp455
a(S'386'
p456
S'386'
p457
S'CD'
p458
S'B-NP'
p459
g5
tp460
a(g183
g183
g183
g5
g5
tp461
a(S'in'
p462
S'in'
p463
S'IN'
p464
S'B-PP'
p465
g5
tp466
a(S'combination'
p467
S'combination'
p468
S'NN'
p469
S'B-NP'
p470
g5
tp471
a(S'with'
p472
S'with'
p473
S'IN'
p474
S'B-PP'
p475
g5
tp476
a(S'300'
p477
S'300'
p478
S'CD'
p479
S'B-NP'
p480
g5
tp481
a(S'mg'
p482
S'mg'
p483
S'NN'
p484
S'I-NP'
p485
g5
tp486
a(S'of'
p487
S'of'
p488
S'IN'
p489
S'B-PP'
p490
g5
tp491
a(S'lamivudine'
p492
S'lamivudine'
p493
S'NN'
p494
S'B-NP'
p495
g5
tp496
a(g176
g176
g176
g5
g5
tp497
a(S'3TC'
p498
S'3TC'
p499
S'NN'
p500
S'B-NP'
p501
g5
tp502
a(g183
g183
g183
g5
g5
tp503
a(S'and'
p504
S'and'
p505
S'CC'
p506
g5
g5
tp507
a(S'600'
p508
S'600'
p509
S'CD'
p510
S'B-NP'
p511
g5
tp512
a(S'mg'
p513
S'mg'
p514
S'NN'
p515
S'I-NP'
p516
g5
tp517
a(S'of'
p518
S'of'
p519
S'IN'
p520
S'B-PP'
p521
g5
tp522
a(S'efavirenz'
p523
S'efavirenz'
p524
S'NN'
p525
S'B-NP'
p526
g5
tp527
a(g176
g176
g176
g5
g5
tp528
a(S'EFV'
p529
S'EFV'
p530
S'NN'
p531
S'B-NP'
p532
g5
tp533
a(g183
g183
g183
g5
g5
tp534
a(S'administered'
p535
S'administer'
p536
S'VBN'
p537
S'B-VP'
p538
g5
tp539
a(S'once'
p540
S'once'
p541
S'RB'
p542
S'B-ADVP'
p543
g5
tp544
a(S'daily'
p545
S'daily'
p546
S'RB'
p547
S'I-ADVP'
p548
g5
tp549
a(S'in'
p550
S'in'
p551
S'IN'
p552
S'B-PP'
p553
g5
tp554
a(S'antiretroviral-naive'
p555
S'antiretroviral-naive'
p556
S'JJ'
p557
S'B-NP'
p558
g5
tp559
a(S'patients'
p560
S'patient'
p561
S'NNS'
p562
S'I-NP'
p563
g5
tp564
a(S'over'
p565
S'over'
p566
S'IN'
p567
S'B-PP'
p568
g5
tp569
a(S'48'
p570
S'48'
p571
S'CD'
p572
S'B-NP'
p573
g5
tp574
a(S'weeks.'
p575
S'weeks.'
p576
S'NNS'
p577
S'I-NP'
p578
g5
tp579
a(S'The'
p580
S'The'
p581
S'DT'
p582
S'B-NP'
p583
g5
tp584
a(S'baseline'
p585
S'baseline'
p586
S'NN'
p587
S'I-NP'
p588
g5
tp589
a(S'median'
p590
S'median'
p591
S'JJ'
p592
S'I-NP'
p593
g5
tp594
a(S'plasma'
p595
S'plasma'
p596
S'NN'
p597
S'I-NP'
p598
g5
tp599
a(S'HIV-1'
p600
S'HIV-1'
p601
S'NN'
p602
S'I-NP'
p603
g5
tp604
a(S'RNA'
p605
S'RNA'
p606
S'NN'
p607
S'I-NP'
p608
g5
tp609
a(S'level'
p610
S'level'
p611
S'NN'
p612
S'I-NP'
p613
g5
tp614
a(S'was'
p615
S'be'
p616
S'VBD'
p617
S'B-VP'
p618
g5
tp619
a(S'4.89'
p620
S'4.89'
p621
S'CD'
p622
S'B-NP'
p623
g5
tp624
a(S'log10'
p625
S'log10'
p626
S'CD'
p627
S'I-NP'
p628
g5
tp629
a(S'copies/mL'
p630
S'copies/mL'
p631
S'NN'
p632
S'I-NP'
p633
g5
tp634
a(g176
g176
g176
g5
g5
tp635
a(S'44'
p636
S'44'
p637
S'CD'
p638
S'B-NP'
p639
g5
tp640
a(S'%'
p641
g641
S'NN'
p642
S'I-NP'
p643
g5
tp644
a(S'with'
p645
S'with'
p646
S'IN'
p647
S'B-PP'
p648
g5
tp649
a(S'viral'
p650
S'viral'
p651
S'JJ'
p652
S'B-NP'
p653
g5
tp654
a(S'load'
p655
S'load'
p656
S'NN'
p657
S'I-NP'
p658
g5
tp659
a(S'>'
p660
g660
S'SYM'
p661
g5
g5
tp662
a(S'100'
p663
S'100'
p664
S'CD'
p665
S'B-NP'
p666
g5
tp667
a(g205
g205
g205
g5
g5
tp668
a(S'000'
p669
S'000'
p670
S'CD'
p671
S'B-NP'
p672
g5
tp673
a(S'copies/mL'
p674
S'copies/mL'
p675
S'NN'
p676
S'I-NP'
p677
g5
tp678
a(g183
g183
g183
g5
g5
tp679
a(g205
g205
g205
g5
g5
tp680
a(S'and'
p681
S'and'
p682
S'CC'
p683
g5
g5
tp684
a(S'the'
p685
S'the'
p686
S'DT'
p687
S'B-NP'
p688
g5
tp689
a(S'median'
p690
S'median'
p691
S'JJ'
p692
S'I-NP'
p693
g5
tp694
a(S'CD4'
p695
S'CD4'
p696
S'NN'
p697
S'I-NP'
p698
g5
tp699
a(S'cell'
p700
S'cell'
p701
S'NN'
p702
S'I-NP'
p703
g5
tp704
a(S'count'
p705
S'count'
p706
S'NN'
p707
S'I-NP'
p708
g5
tp709
a(S'was'
p710
S'be'
p711
S'VBD'
p712
S'B-VP'
p713
g5
tp714
a(S'262'
p715
S'262'
p716
S'CD'
p717
S'B-NP'
p718
g5
tp719
a(S'cells/mm.'
p720
S'cells/mm.'
p721
S'NNS'
p722
S'I-NP'
p723
g5
tp724
a(S'ABC'
p725
S'ABC'
p726
S'NNP'
p727
S'B-NP'
p728
g5
tp729
a(S'administered'
p730
S'administer'
p731
S'VBN'
p732
S'B-VP'
p733
g5
tp734
a(S'once'
p735
S'once'
p736
S'RB'
p737
S'B-ADVP'
p738
g5
tp739
a(S'daily'
p740
S'daily'
p741
S'RB'
p742
S'I-ADVP'
p743
g5
tp744
a(S'was'
p745
S'be'
p746
S'VBD'
p747
S'B-VP'
p748
g5
tp749
a(S'non-inferior'
p750
S'non-inferior'
p751
S'JJ'
p752
S'B-ADJP'
p753
g5
tp754
a(S'to'
p755
S'to'
p756
S'TO'
p757
S'B-PP'
p758
g5
tp759
a(S'the'
p760
S'the'
p761
S'DT'
p762
S'B-NP'
p763
g5
tp764
a(S'twice-daily'
p765
S'twice-daily'
p766
S'JJ'
p767
S'I-NP'
p768
g5
tp769
a(S'regimen'
p770
S'regimen'
p771
S'NN'
p772
S'I-NP'
p773
g5
tp774
a(g205
g205
g205
g5
g5
tp775
a(S'with'
p776
S'with'
p777
S'IN'
p778
S'B-PP'
p779
g5
tp780
a(S'66'
p781
S'66'
p782
S'CD'
p783
S'B-NP'
p784
g5
tp785
a(g641
g641
S'NN'
p786
S'I-NP'
p787
g5
tp788
a(S'and'
p789
S'and'
p790
S'CC'
p791
g5
g5
tp792
a(S'68'
p793
S'68'
p794
S'CD'
p795
S'B-NP'
p796
g5
tp797
a(g641
g641
S'NN'
p798
S'I-NP'
p799
g5
tp800
a(S'of'
p801
S'of'
p802
S'IN'
p803
S'B-PP'
p804
g5
tp805
a(S'patients'
p806
S'patient'
p807
S'NNS'
p808
S'B-NP'
p809
g5
tp810
a(S'in'
p811
S'in'
p812
S'IN'
p813
S'B-PP'
p814
g5
tp815
a(S'these'
p816
S'these'
p817
S'DT'
p818
S'B-NP'
p819
g5
tp820
a(S'respective'
p821
S'respective'
p822
S'JJ'
p823
S'I-NP'
p824
g5
tp825
a(S'treatment'
p826
S'treatment'
p827
S'NN'
p828
S'I-NP'
p829
g5
tp830
a(S'arms'
p831
S'arm'
p832
S'NNS'
p833
S'I-NP'
p834
g5
tp835
a(S'achieving'
p836
S'achieve'
p837
S'VBG'
p838
S'B-VP'
p839
g5
tp840
a(g286
g286
S'DT'
p841
S'B-NP'
p842
g5
tp843
a(S'confirmed'
p844
S'confirm'
p845
S'VBN'
p846
S'I-NP'
p847
g5
tp848
a(S'plasma'
p849
S'plasma'
p850
S'NN'
p851
S'I-NP'
p852
g5
tp853
a(S'HIV-1'
p854
S'HIV-1'
p855
S'NN'
p856
S'I-NP'
p857
g5
tp858
a(S'RNA'
p859
S'RNA'
p860
S'NN'
p861
S'I-NP'
p862
g5
tp863
a(S'level'
p864
S'level'
p865
S'NN'
p866
S'I-NP'
p867
g5
tp868
a(S'<'
p869
g869
S'SYM'
p870
S'B-NP'
p871
g5
tp872
a(S'50'
p873
S'50'
p874
S'CD'
p875
S'B-NP'
p876
g5
tp877
a(S'copies/mL'
p878
S'copies/mL'
p879
S'NN'
p880
S'I-NP'
p881
g5
tp882
a(g176
g176
g176
g5
g5
tp883
a(S'95'
p884
S'95'
p885
S'CD'
p886
S'B-NP'
p887
g5
tp888
a(g641
g641
S'NN'
p889
S'I-NP'
p890
g5
tp891
a(S'confidence'
p892
S'confidence'
p893
S'NN'
p894
S'I-NP'
p895
g5
tp896
a(S'interval'
p897
S'interval'
p898
S'NN'
p899
S'I-NP'
p900
g5
tp901
a(g92
g92
g92
g5
g5
tp902
a(S'-8.4'
p903
S'-8.4'
p904
S'CD'
p905
S'B-NP'
p906
g5
tp907
a(g641
g641
S'NN'
p908
S'I-NP'
p909
g5
tp910
a(g205
g205
g205
g5
g5
tp911
a(S'4.9'
p912
S'4.9'
p913
S'CD'
p914
S'B-NP'
p915
g5
tp916
a(g641
g641
S'NN'
p917
S'I-NP'
p918
g5
tp919
a(g183
g183
g183
g5
g5
tp920
a(g144
g144
g144
g5
g5
tp921
a(S'The'
p922
S'The'
p923
S'DT'
p924
S'B-NP'
p925
g5
tp926
a(S'ABC'
p927
S'ABC'
p928
S'NNP'
p929
S'I-NP'
p930
g5
tp931
a(S'once-daily'
p932
S'once-daily'
p933
S'JJ'
p934
S'I-NP'
p935
g5
tp936
a(S'and'
p937
S'and'
p938
S'CC'
p939
S'I-NP'
p940
g5
tp941
a(S'twice-daily'
p942
S'twice-daily'
p943
S'JJ'
p944
S'I-NP'
p945
g5
tp946
a(S'regimens'
p947
S'regimen'
p948
S'NNS'
p949
S'I-NP'
p950
g5
tp951
a(S'were'
p952
S'be'
p953
S'VBD'
p954
S'B-VP'
p955
g5
tp956
a(S'similar'
p957
S'similar'
p958
S'JJ'
p959
S'B-ADJP'
p960
g5
tp961
a(S'with'
p962
S'with'
p963
S'IN'
p964
S'B-PP'
p965
g5
tp966
a(S'respect'
p967
S'respect'
p968
S'NN'
p969
S'B-NP'
p970
g5
tp971
a(S'to'
p972
S'to'
p973
S'TO'
p974
S'B-PP'
p975
g5
tp976
a(S'infrequency'
p977
S'infrequency'
p978
S'NN'
p979
S'B-NP'
p980
g5
tp981
a(S'of'
p982
S'of'
p983
S'IN'
p984
S'B-PP'
p985
g5
tp986
a(S'virologic'
p987
S'virologic'
p988
S'JJ'
p989
S'B-NP'
p990
g5
tp991
a(S'failure'
p992
S'failure'
p993
S'NN'
p994
S'I-NP'
p995
g5
tp996
a(g176
g176
g176
g5
g5
tp997
a(S'10'
p998
S'10'
p999
S'CD'
p1000
S'B-NP'
p1001
g5
tp1002
a(g641
g641
S'NN'
p1003
S'I-NP'
p1004
g5
tp1005
a(S'vs.'
p1006
S'vs.'
p1007
S'IN'
p1008
S'B-PP'
p1009
g5
tp1010
a(S'8'
p1011
g1011
S'CD'
p1012
S'B-NP'
p1013
g5
tp1014
a(g641
g641
S'NN'
p1015
S'I-NP'
p1016
g5
tp1017
a(g183
g183
g183
g5
g5
tp1018
a(g205
g205
g205
g5
g5
tp1019
a(S'emergence'
p1020
S'emergence'
p1021
S'NN'
p1022
S'B-NP'
p1023
g5
tp1024
a(S'of'
p1025
S'of'
p1026
S'IN'
p1027
S'B-PP'
p1028
g5
tp1029
a(S'resistance'
p1030
S'resistance'
p1031
S'NN'
p1032
S'B-NP'
p1033
g5
tp1034
a(S'mutations'
p1035
S'mutation'
p1036
S'NNS'
p1037
S'I-NP'
p1038
g5
tp1039
a(g205
g205
g205
g5
g5
tp1040
a(S'CD4'
p1041
S'CD4'
p1042
S'NN'
p1043
S'B-NP'
p1044
S'B-protein'
p1045
tp1046
a(S'cell'
p1047
S'cell'
p1048
S'NN'
p1049
S'I-NP'
p1050
g5
tp1051
a(S'increases'
p1052
S'increase'
p1053
S'NNS'
p1054
S'I-NP'
p1055
g5
tp1056
a(S'from'
p1057
S'from'
p1058
S'IN'
p1059
S'B-PP'
p1060
g5
tp1061
a(S'baseline'
p1062
S'baseline'
p1063
S'NN'
p1064
S'B-NP'
p1065
g5
tp1066
a(g176
g176
g176
g5
g5
tp1067
a(S'median'
p1068
S'median'
p1069
S'NN'
p1070
S'B-NP'
p1071
g5
tp1072
a(g205
g205
g205
g5
g5
tp1073
a(S'188'
p1074
S'188'
p1075
S'CD'
p1076
S'B-NP'
p1077
g5
tp1078
a(S'vs.'
p1079
S'vs.'
p1080
S'IN'
p1081
S'B-PP'
p1082
g5
tp1083
a(S'200'
p1084
S'200'
p1085
S'CD'
p1086
S'B-NP'
p1087
g5
tp1088
a(S'cells/mm'
p1089
S'cells/mm'
p1090
S'NN'
p1091
S'I-NP'
p1092
g5
tp1093
a(g183
g183
g183
g5
g5
tp1094
a(g205
g205
g205
g5
g5
tp1095
a(S'safety'
p1096
S'safety'
p1097
S'NN'
p1098
S'B-NP'
p1099
g5
tp1100
a(S'profile'
p1101
S'profile'
p1102
S'NN'
p1103
S'I-NP'
p1104
g5
tp1105
a(g205
g205
g205
g5
g5
tp1106
a(S'and'
p1107
S'and'
p1108
S'CC'
p1109
g5
g5
tp1110
a(S'incidence'
p1111
S'incidence'
p1112
S'NN'
p1113
S'B-NP'
p1114
g5
tp1115
a(S'of'
p1116
S'of'
p1117
S'IN'
p1118
S'B-PP'
p1119
g5
tp1120
a(S'ABC-related'
p1121
S'ABC-related'
p1122
S'JJ'
p1123
S'B-NP'
p1124
g5
tp1125
a(S'hypersensitivity'
p1126
S'hypersensitivity'
p1127
S'NN'
p1128
S'I-NP'
p1129
g5
tp1130
a(S'reactions'
p1131
S'reaction'
p1132
S'NNS'
p1133
S'I-NP'
p1134
g5
tp1135
a(g176
g176
g176
g5
g5
tp1136
a(S'9'
p1137
g1137
S'CD'
p1138
S'B-NP'
p1139
g5
tp1140
a(g641
g641
S'NN'
p1141
S'I-NP'
p1142
g5
tp1143
a(S'vs.'
p1144
S'vs.'
p1145
S'IN'
p1146
S'B-PP'
p1147
g5
tp1148
a(S'7'
p1149
g1149
S'CD'
p1150
S'B-NP'
p1151
g5
tp1152
a(g641
g641
S'NN'
p1153
S'I-NP'
p1154
g5
tp1155
a(g183
g183
g183
g5
g5
tp1156
a(g144
g144
g144
g5
g5
tp1157
a(S'ABC'
p1158
S'ABC'
p1159
S'NNP'
p1160
S'B-NP'
p1161
g5
tp1162
a(S'administered'
p1163
S'administer'
p1164
S'VBD'
p1165
S'B-VP'
p1166
g5
tp1167
a(S'once'
p1168
S'once'
p1169
S'RB'
p1170
S'B-ADVP'
p1171
g5
tp1172
a(S'daily'
p1173
S'daily'
p1174
S'RB'
p1175
S'I-ADVP'
p1176
g5
tp1177
a(S'in'
p1178
S'in'
p1179
S'IN'
p1180
S'B-PP'
p1181
g5
tp1182
a(S'combination'
p1183
S'combination'
p1184
S'NN'
p1185
S'B-NP'
p1186
g5
tp1187
a(S'with'
p1188
S'with'
p1189
S'IN'
p1190
S'B-PP'
p1191
g5
tp1192
a(S'3TC'
p1193
S'3TC'
p1194
S'NN'
p1195
S'B-NP'
p1196
g5
tp1197
a(S'and'
p1198
S'and'
p1199
S'CC'
p1200
S'I-NP'
p1201
g5
tp1202
a(S'EFV'
p1203
S'EFV'
p1204
S'NN'
p1205
S'I-NP'
p1206
S'B-protein'
p1207
tp1208
a(S'administered'
p1209
S'administer'
p1210
S'VBN'
p1211
S'B-VP'
p1212
g5
tp1213
a(S'once'
p1214
S'once'
p1215
S'RB'
p1216
S'B-ADVP'
p1217
g5
tp1218
a(S'daily'
p1219
S'daily'
p1220
S'RB'
p1221
S'I-ADVP'
p1222
g5
tp1223
a(S'was'
p1224
S'be'
p1225
S'VBD'
p1226
S'B-VP'
p1227
g5
tp1228
a(S'non-inferior'
p1229
S'non-inferior'
p1230
S'JJ'
p1231
S'B-ADJP'
p1232
g5
tp1233
a(S'to'
p1234
S'to'
p1235
S'TO'
p1236
S'B-PP'
p1237
g5
tp1238
a(S'the'
p1239
S'the'
p1240
S'DT'
p1241
S'B-NP'
p1242
g5
tp1243
a(S'ABC'
p1244
S'ABC'
p1245
S'NNP'
p1246
S'I-NP'
p1247
g5
tp1248
a(S'twice-daily'
p1249
S'twice-daily'
p1250
S'JJ'
p1251
S'I-NP'
p1252
g5
tp1253
a(S'dosing'
p1254
S'dosing'
p1255
S'NN'
p1256
S'I-NP'
p1257
g5
tp1258
a(S'schedule'
p1259
S'schedule'
p1260
S'NN'
p1261
S'I-NP'
p1262
g5
tp1263
a(S'when'
p1264
S'when'
p1265
S'WRB'
p1266
S'B-ADVP'
p1267
g5
tp1268
a(S'combined'
p1269
S'combine'
p1270
S'VBN'
p1271
S'B-VP'
p1272
g5
tp1273
a(S'with'
p1274
S'with'
p1275
S'IN'
p1276
S'B-PP'
p1277
g5
tp1278
a(S'3TC'
p1279
S'3TC'
p1280
S'NN'
p1281
S'B-NP'
p1282
g5
tp1283
a(S'and'
p1284
S'and'
p1285
S'CC'
p1286
S'I-NP'
p1287
g5
tp1288
a(S'EFV'
p1289
S'EFV'
p1290
S'NN'
p1291
S'I-NP'
p1292
S'B-protein'
p1293
tp1294
a(S'over'
p1295
S'over'
p1296
S'IN'
p1297
S'B-PP'
p1298
g5
tp1299
a(S'48'
p1300
S'48'
p1301
S'CD'
p1302
S'B-NP'
p1303
g5
tp1304
a(S'weeks'
p1305
S'week'
p1306
S'NNS'
p1307
S'I-NP'
p1308
g5
tp1309
a(g144
g144
g144
g5
g5
tp1310
a.