(lp0
(S'['
p1
g1
S'('
p2
S'O'
p3
g3
tp4
a(S'The'
p5
S'The'
p6
S'DT'
p7
S'B-NP'
p8
g3
tp9
a(S'equipotency'
p10
S'equipotency'
p11
S'NN'
p12
S'I-NP'
p13
g3
tp14
a(S'of'
p15
S'of'
p16
S'IN'
p17
S'B-PP'
p18
g3
tp19
a(S'ropivacaine'
p20
S'ropivacaine'
p21
S'NN'
p22
S'B-NP'
p23
g3
tp24
a(S','
p25
g25
g25
g3
g3
tp26
a(S'bupivacaine'
p27
S'bupivacaine'
p28
S'NN'
p29
S'B-NP'
p30
g3
tp31
a(S'and'
p32
S'and'
p33
S'CC'
p34
g3
g3
tp35
a(S'etidocaine'
p36
S'etidocaine'
p37
S'NN'
p38
S'B-NP'
p39
g3
tp40
a(S']'
p41
g41
S')'
p42
g3
g3
tp43
a(S'.'
p44
g44
g44
g3
g3
tp45
a(S'Ropivacaine'
p46
S'Ropivacaine'
p47
S'NNP'
p48
S'B-NP'
p49
g3
tp50
a(g25
g25
g25
g3
g3
tp51
a(S'congenerate'
p52
S'congenerate'
p53
S'VBP'
p54
S'B-VP'
p55
g3
tp56
a(S'to'
p57
S'to'
p58
S'TO'
p59
S'B-PP'
p60
g3
tp61
a(S'bupivacaine'
p62
S'bupivacaine'
p63
S'NN'
p64
S'B-NP'
p65
g3
tp66
a(S'and'
p67
S'and'
p68
S'CC'
p69
S'I-NP'
p70
g3
tp71
a(S'mepivacaine'
p72
S'mepivacaine'
p73
S'NN'
p74
S'I-NP'
p75
g3
tp76
a(S'has'
p77
S'have'
p78
S'VBZ'
p79
S'B-VP'
p80
g3
tp81
a(S'been'
p82
S'be'
p83
S'VBN'
p84
S'I-VP'
p85
g3
tp86
a(S'widely'
p87
S'widely'
p88
S'RB'
p89
S'I-VP'
p90
g3
tp91
a(S'studied'
p92
S'study'
p93
S'VBN'
p94
S'I-VP'
p95
g3
tp96
a(S'in'
p97
S'in'
p98
S'IN'
p99
S'B-PP'
p100
g3
tp101
a(S'laboratory'
p102
S'laboratory'
p103
S'NN'
p104
S'B-NP'
p105
g3
tp106
a(S'animals'
p107
S'animal'
p108
S'NNS'
p109
S'I-NP'
p110
g3
tp111
a(g25
g25
g25
g3
g3
tp112
a(S'but'
p113
S'but'
p114
S'CC'
p115
g3
g3
tp116
a(S'there'
p117
S'there'
p118
S'EX'
p119
S'B-NP'
p120
g3
tp121
a(S'have'
p122
S'have'
p123
S'VBP'
p124
S'B-VP'
p125
g3
tp126
a(S'been'
p127
S'be'
p128
S'VBN'
p129
S'I-VP'
p130
g3
tp131
a(S'few'
p132
S'few'
p133
S'JJ'
p134
S'B-NP'
p135
g3
tp136
a(S'investigations'
p137
S'investigation'
p138
S'NNS'
p139
S'I-NP'
p140
g3
tp141
a(S'of'
p142
S'of'
p143
S'IN'
p144
S'B-PP'
p145
g3
tp146
a(S'its'
p147
S'its'
p148
S'PRP$'
p149
S'B-NP'
p150
g3
tp151
a(S'efficacy'
p152
S'efficacy'
p153
S'NN'
p154
S'I-NP'
p155
g3
tp156
a(S'in'
p157
S'in'
p158
S'IN'
p159
S'B-PP'
p160
g3
tp161
a(S'human'
p162
S'human'
p163
S'JJ'
p164
S'B-NP'
p165
g3
tp166
a(S'epidural'
p167
S'epidural'
p168
S'JJ'
p169
S'I-NP'
p170
g3
tp171
a(S'anesthesia'
p172
S'anesthesia'
p173
S'NN'
p174
S'I-NP'
p175
g3
tp176
a(S'and'
p177
S'and'
p178
S'CC'
p179
S'I-NP'
p180
g3
tp181
a(S'peripheral'
p182
S'peripheral'
p183
S'JJ'
p184
S'I-NP'
p185
g3
tp186
a(S'nerve'
p187
S'nerve'
p188
S'NN'
p189
S'I-NP'
p190
g3
tp191
a(S'blocks.'
p192
S'blocks.'
p193
S'NN'
p194
S'I-NP'
p195
g3
tp196
a(S'The'
p197
S'The'
p198
S'DT'
p199
S'B-NP'
p200
g3
tp201
a(S'aim'
p202
S'aim'
p203
S'NN'
p204
S'I-NP'
p205
g3
tp206
a(S'of'
p207
S'of'
p208
S'IN'
p209
S'B-PP'
p210
g3
tp211
a(S'this'
p212
S'this'
p213
S'DT'
p214
S'B-NP'
p215
g3
tp216
a(S'study'
p217
S'study'
p218
S'NN'
p219
S'I-NP'
p220
g3
tp221
a(S'was'
p222
S'be'
p223
S'VBD'
p224
S'B-VP'
p225
g3
tp226
a(S'to'
p227
S'to'
p228
S'TO'
p229
S'B-VP'
p230
g3
tp231
a(S'compare'
p232
S'compare'
p233
S'VB'
p234
S'I-VP'
p235
g3
tp236
a(S'the'
p237
S'the'
p238
S'DT'
p239
S'B-NP'
p240
g3
tp241
a(S'three'
p242
S'three'
p243
S'CD'
p244
S'I-NP'
p245
g3
tp246
a(S'long-acting'
p247
S'long-acting'
p248
S'JJ'
p249
S'I-NP'
p250
g3
tp251
a(S'local'
p252
S'local'
p253
S'JJ'
p254
S'I-NP'
p255
g3
tp256
a(S'anesthetics'
p257
S'anesthetic'
p258
S'NNS'
p259
S'I-NP'
p260
g3
tp261
a(g2
g2
g2
g3
g3
tp262
a(S'bupivacaine'
p263
S'bupivacaine'
p264
S'NN'
p265
S'B-NP'
p266
g3
tp267
a(S'0.75'
p268
S'0.75'
p269
S'CD'
p270
S'B-NP'
p271
g3
tp272
a(S'%'
p273
g273
S'NN'
p274
S'I-NP'
p275
g3
tp276
a(g25
g25
g25
g3
g3
tp277
a(S'ropivacaine'
p278
S'ropivacaine'
p279
S'NN'
p280
S'B-NP'
p281
g3
tp282
a(S'1'
p283
g283
S'CD'
p284
S'I-NP'
p285
g3
tp286
a(g273
g273
S'NN'
p287
S'I-NP'
p288
g3
tp289
a(S'and'
p290
S'and'
p291
S'CC'
p292
S'I-NP'
p293
g3
tp294
a(S'etidocaine'
p295
S'etidocaine'
p296
S'NN'
p297
S'I-NP'
p298
g3
tp299
a(g283
g283
S'CD'
p300
S'I-NP'
p301
g3
tp302
a(g273
g273
S'NN'
p303
S'I-NP'
p304
g3
tp305
a(g42
g42
g42
g3
g3
tp306
a(S'and'
p307
S'and'
p308
S'CC'
p309
g3
g3
tp310
a(S'to'
p311
S'to'
p312
S'TO'
p313
S'B-VP'
p314
g3
tp315
a(S'try'
p316
S'try'
p317
S'VB'
p318
S'I-VP'
p319
g3
tp320
a(g25
g25
g25
g3
g3
tp321
a(S'with'
p322
S'with'
p323
S'IN'
p324
S'B-PP'
p325
g3
tp326
a(S'reference'
p327
S'reference'
p328
S'NN'
p329
S'B-NP'
p330
g3
tp331
a(S'to'
p332
S'to'
p333
S'TO'
p334
S'B-PP'
p335
g3
tp336
a(S'previous'
p337
S'previous'
p338
S'JJ'
p339
S'B-NP'
p340
g3
tp341
a(S'studies'
p342
S'study'
p343
S'NNS'
p344
S'I-NP'
p345
g3
tp346
a(g25
g25
g25
g3
g3
tp347
a(S'to'
p348
S'to'
p349
S'TO'
p350
S'B-VP'
p351
g3
tp352
a(S'make'
p353
S'make'
p354
S'VB'
p355
S'I-VP'
p356
g3
tp357
a(S'some'
p358
S'some'
p359
S'DT'
p360
S'B-NP'
p361
g3
tp362
a(S'statement'
p363
S'statement'
p364
S'NN'
p365
S'I-NP'
p366
g3
tp367
a(S'about'
p368
S'about'
p369
S'IN'
p370
S'B-PP'
p371
g3
tp372
a(S'the'
p373
S'the'
p374
S'DT'
p375
S'B-NP'
p376
g3
tp377
a(S'equipotency'
p378
S'equipotency'
p379
S'NN'
p380
S'I-NP'
p381
g3
tp382
a(S'of'
p383
S'of'
p384
S'IN'
p385
S'B-PP'
p386
g3
tp387
a(S'ropivacaine'
p388
S'ropivacaine'
p389
S'NN'
p390
S'B-NP'
p391
g3
tp392
a(S'relative'
p393
S'relative'
p394
S'JJ'
p395
S'B-ADJP'
p396
g3
tp397
a(S'to'
p398
S'to'
p399
S'TO'
p400
S'B-PP'
p401
g3
tp402
a(S'bupivacaine'
p403
S'bupivacaine'
p404
S'NN'
p405
S'B-NP'
p406
g3
tp407
a(S'and'
p408
S'and'
p409
S'CC'
p410
g3
g3
tp411
a(S'etidocaine.'
p412
S'etidocaine.'
p413
S'FW'
p414
S'B-NP'
p415
g3
tp416
a(S'METHODS.'
p417
S'METHODS.'
p418
S'NNP'
p419
S'I-NP'
p420
g3
tp421
a(S'In'
p422
S'In'
p423
S'IN'
p424
S'B-PP'
p425
g3
tp426
a(S'a'
p427
g427
S'DT'
p428
S'B-NP'
p429
g3
tp430
a(S'double'
p431
S'double'
p432
S'JJ'
p433
S'I-NP'
p434
g3
tp435
a(S'blind'
p436
S'blind'
p437
S'JJ'
p438
S'I-NP'
p439
g3
tp440
a(S'randomized'
p441
S'randomize'
p442
S'VBN'
p443
S'I-NP'
p444
g3
tp445
a(S'study'
p446
S'study'
p447
S'NN'
p448
S'I-NP'
p449
g3
tp450
a(g25
g25
g25
g3
g3
tp451
a(S'epidural'
p452
S'epidural'
p453
S'JJ'
p454
S'B-NP'
p455
g3
tp456
a(S'anesthesia'
p457
S'anesthesia'
p458
S'NN'
p459
S'I-NP'
p460
g3
tp461
a(S'was'
p462
S'be'
p463
S'VBD'
p464
S'B-VP'
p465
g3
tp466
a(S'carried'
p467
S'carry'
p468
S'VBN'
p469
S'I-VP'
p470
g3
tp471
a(S'out'
p472
S'out'
p473
S'RP'
p474
S'B-PRT'
p475
g3
tp476
a(S'with'
p477
S'with'
p478
S'IN'
p479
S'B-PP'
p480
g3
tp481
a(S'20'
p482
S'20'
p483
S'CD'
p484
S'B-NP'
p485
g3
tp486
a(S'ml'
p487
S'ml'
p488
S'NN'
p489
S'I-NP'
p490
g3
tp491
a(S'bupivacaine'
p492
S'bupivacaine'
p493
S'NN'
p494
S'I-NP'
p495
g3
tp496
a(S'0.75'
p497
S'0.75'
p498
S'CD'
p499
S'B-NP'
p500
g3
tp501
a(g273
g273
S'NN'
p502
S'I-NP'
p503
g3
tp504
a(g2
g2
g2
g3
g3
tp505
a(S'n'
p506
g506
S'NN'
p507
S'B-NP'
p508
g3
tp509
a(S'='
p510
g510
S'SYM'
p511
S'B-VP'
p512
g3
tp513
a(S'24'
p514
S'24'
p515
S'CD'
p516
S'B-NP'
p517
g3
tp518
a(g42
g42
g42
g3
g3
tp519
a(S'and'
p520
S'and'
p521
S'CC'
p522
g3
g3
tp523
a(S'ropivacaine'
p524
S'ropivacaine'
p525
S'NN'
p526
S'B-NP'
p527
g3
tp528
a(g283
g283
S'CD'
p529
S'I-NP'
p530
g3
tp531
a(g273
g273
S'NN'
p532
S'I-NP'
p533
g3
tp534
a(g2
g2
g2
g3
g3
tp535
a(g506
g506
S'NN'
p536
S'B-NP'
p537
g3
tp538
a(g510
g510
S'SYM'
p539
S'B-VP'
p540
g3
tp541
a(S'21'
p542
S'21'
p543
S'CD'
p544
S'B-NP'
p545
g3
tp546
a(g42
g42
g42
g3
g3
tp547
a(g44
g44
g44
g3
g3
tp548
a(S'Following'
p549
S'Follow'
p550
S'VBG'
p551
S'B-VP'
p552
g3
tp553
a(S'this'
p554
S'this'
p555
S'DT'
p556
S'B-NP'
p557
g3
tp558
a(S'study'
p559
S'study'
p560
S'NN'
p561
S'I-NP'
p562
g3
tp563
a(S'epidural'
p564
S'epidural'
p565
S'JJ'
p566
S'I-NP'
p567
g3
tp568
a(S'anesthesia'
p569
S'anesthesia'
p570
S'NN'
p571
S'I-NP'
p572
g3
tp573
a(S'was'
p574
S'be'
p575
S'VBD'
p576
S'B-VP'
p577
g3
tp578
a(S'carried'
p579
S'carry'
p580
S'VBN'
p581
S'I-VP'
p582
g3
tp583
a(S'out'
p584
S'out'
p585
S'RP'
p586
S'B-PRT'
p587
g3
tp588
a(S'with'
p589
S'with'
p590
S'IN'
p591
S'B-PP'
p592
g3
tp593
a(S'20'
p594
S'20'
p595
S'CD'
p596
S'B-NP'
p597
g3
tp598
a(S'ml'
p599
S'ml'
p600
S'NN'
p601
S'I-NP'
p602
g3
tp603
a(S'etidocaine'
p604
S'etidocaine'
p605
S'NN'
p606
S'I-NP'
p607
g3
tp608
a(g283
g283
S'CD'
p609
S'B-NP'
p610
g3
tp611
a(g273
g273
S'NN'
p612
S'I-NP'
p613
g3
tp614
a(g2
g2
g2
g3
g3
tp615
a(g506
g506
S'NN'
p616
S'B-NP'
p617
g3
tp618
a(g510
g510
S'SYM'
p619
S'B-VP'
p620
g3
tp621
a(S'20'
p622
S'20'
p623
S'CD'
p624
S'B-NP'
p625
g3
tp626
a(g42
g42
g42
g3
g3
tp627
a(S'in'
p628
S'in'
p629
S'IN'
p630
S'B-PP'
p631
g3
tp632
a(S'an'
p633
S'an'
p634
S'DT'
p635
S'B-NP'
p636
g3
tp637
a(S'open'
p638
S'open'
p639
S'JJ'
p640
S'I-NP'
p641
g3
tp642
a(S'study.'
p643
S'study.'
p644
S'NN'
p645
S'I-NP'
p646
g3
tp647
a(S'Patients'
p648
S'Patient'
p649
S'NNS'
p650
S'I-NP'
p651
g3
tp652
a(S'with'
p653
S'with'
p654
S'IN'
p655
S'B-PP'
p656
g3
tp657
a(S'ASA'
p658
S'ASA'
p659
S'NN'
p660
S'B-NP'
p661
g3
tp662
a(S'I'
p663
g663
S'CD'
p664
S'I-NP'
p665
g3
tp666
a(S'or'
p667
S'or'
p668
S'CC'
p669
S'I-NP'
p670
g3
tp671
a(S'II'
p672
S'II'
p673
S'CD'
p674
S'I-NP'
p675
g3
tp676
a(S'were'
p677
S'be'
p678
S'VBD'
p679
S'B-VP'
p680
g3
tp681
a(S'enrolled'
p682
S'enrol'
p683
S'VBN'
p684
S'I-VP'
p685
g3
tp686
a(S'in'
p687
S'in'
p688
S'IN'
p689
S'B-PP'
p690
g3
tp691
a(S'the'
p692
S'the'
p693
S'DT'
p694
S'B-NP'
p695
g3
tp696
a(S'study.'
p697
S'study.'
p698
S'NN'
p699
S'I-NP'
p700
g3
tp701
a(S'All'
p702
S'All'
p703
S'DT'
p704
S'B-NP'
p705
g3
tp706
a(S'patients'
p707
S'patient'
p708
S'NNS'
p709
S'I-NP'
p710
g3
tp711
a(S'were'
p712
S'be'
p713
S'VBD'
p714
S'B-VP'
p715
g3
tp716
a(S'scheduled'
p717
S'schedule'
p718
S'VBN'
p719
S'I-VP'
p720
g3
tp721
a(S'for'
p722
S'for'
p723
S'IN'
p724
S'B-PP'
p725
g3
tp726
a(S'varicose'
p727
S'varicose'
p728
S'NN'
p729
S'B-NP'
p730
g3
tp731
a(S'vein'
p732
S'vein'
p733
S'NN'
p734
S'I-NP'
p735
g3
tp736
a(S'stripping.'
p737
S'stripping.'
p738
S'NN'
p739
S'I-NP'
p740
g3
tp741
a(S'Male'
p742
S'Male'
p743
S'JJ'
p744
S'I-NP'
p745
g3
tp746
a(S'and'
p747
S'and'
p748
S'CC'
p749
S'I-NP'
p750
g3
tp751
a(S'female'
p752
S'female'
p753
S'JJ'
p754
S'I-NP'
p755
g3
tp756
a(S'patients'
p757
S'patient'
p758
S'NNS'
p759
S'I-NP'
p760
g3
tp761
a(S'aged'
p762
S'age'
p763
S'VBN'
p764
S'B-VP'
p765
g3
tp766
a(S'18-70'
p767
S'18-70'
p768
S'CD'
p769
S'B-NP'
p770
g3
tp771
a(S'years'
p772
S'year'
p773
S'NNS'
p774
S'I-NP'
p775
g3
tp776
a(S'and'
p777
S'and'
p778
S'CC'
p779
g3
g3
tp780
a(S'weighing'
p781
S'weigh'
p782
S'VBG'
p783
S'B-VP'
p784
g3
tp785
a(S'50-100'
p786
S'50-100'
p787
S'CD'
p788
S'B-NP'
p789
g3
tp790
a(S'kg'
p791
S'kg'
p792
S'NN'
p793
S'I-NP'
p794
g3
tp795
a(S'were'
p796
S'be'
p797
S'VBD'
p798
S'B-VP'
p799
g3
tp800
a(S'included'
p801
S'include'
p802
S'VBN'
p803
S'I-VP'
p804
g3
tp805
a(S'in'
p806
S'in'
p807
S'IN'
p808
S'B-PP'
p809
g3
tp810
a(S'the'
p811
S'the'
p812
S'DT'
p813
S'B-NP'
p814
g3
tp815
a(S'study.'
p816
S'study.'
p817
S'NN'
p818
S'I-NP'
p819
g3
tp820
a(S'Patients'
p821
S'Patient'
p822
S'NNS'
p823
S'I-NP'
p824
g3
tp825
a(S'were'
p826
S'be'
p827
S'VBD'
p828
S'B-VP'
p829
g3
tp830
a(S'all'
p831
S'all'
p832
S'DT'
p833
g3
g3
tp834
a(S'placed'
p835
S'place'
p836
S'VBN'
p837
S'B-VP'
p838
g3
tp839
a(S'in'
p840
S'in'
p841
S'IN'
p842
S'B-PP'
p843
g3
tp844
a(g427
g427
S'DT'
p845
S'B-NP'
p846
g3
tp847
a(S'sitting'
p848
S'sit'
p849
S'VBG'
p850
S'I-NP'
p851
g3
tp852
a(S'position'
p853
S'position'
p854
S'NN'
p855
S'I-NP'
p856
g3
tp857
a(g25
g25
g25
g3
g3
tp858
a(S'after'
p859
S'after'
p860
S'IN'
p861
S'B-PP'
p862
g3
tp863
a(S'which'
p864
S'which'
p865
S'WDT'
p866
S'B-NP'
p867
g3
tp868
a(S'the'
p869
S'the'
p870
S'DT'
p871
S'B-NP'
p872
g3
tp873
a(S'epidural'
p874
S'epidural'
p875
S'JJ'
p876
S'I-NP'
p877
g3
tp878
a(S'space'
p879
S'space'
p880
S'NN'
p881
S'I-NP'
p882
g3
tp883
a(S'was'
p884
S'be'
p885
S'VBD'
p886
S'B-VP'
p887
g3
tp888
a(S'identified'
p889
S'identify'
p890
S'VBN'
p891
S'I-VP'
p892
g3
tp893
a(S'by'
p894
S'by'
p895
S'IN'
p896
S'B-PP'
p897
g3
tp898
a(S'the'
p899
S'the'
p900
S'DT'
p901
S'B-NP'
p902
g3
tp903
a(S'``'
p904
S'``'
p905
S'``'
p906
S'I-NP'
p907
g3
tp908
a(S'loss'
p909
S'loss'
p910
S'NN'
p911
S'I-NP'
p912
g3
tp913
a(S'of'
p914
S'of'
p915
S'IN'
p916
S'B-PP'
p917
g3
tp918
a(S'resistance'
p919
S'resistance'
p920
S'NN'
p921
S'B-NP'
p922
g3
tp923
a(S"''"
p924
S"''"
p925
S"''"
p926
S'B-NP'
p927
g3
tp928
a(S'technique'
p929
S'technique'
p930
S'NN'
p931
S'I-NP'
p932
g3
tp933
a(S'and'
p934
S'and'
p935
S'CC'
p936
g3
g3
tp937
a(g427
g427
S'DT'
p938
S'B-NP'
p939
g3
tp940
a(S'midline'
p941
S'midline'
p942
S'NN'
p943
S'I-NP'
p944
g3
tp945
a(S'approach'
p946
S'approach'
p947
S'NN'
p948
S'I-NP'
p949
g3
tp950
a(g25
g25
g25
g3
g3
tp951
a(S'at'
p952
S'at'
p953
S'IN'
p954
S'B-PP'
p955
g3
tp956
a(S'the'
p957
S'the'
p958
S'DT'
p959
S'B-NP'
p960
g3
tp961
a(S'L-3/4'
p962
S'L-3/4'
p963
S'NN'
p964
S'I-NP'
p965
g3
tp966
a(S'interspace.'
p967
S'interspace.'
p968
S'JJ'
p969
S'I-NP'
p970
g3
tp971
a(S'Injections'
p972
S'Injection'
p973
S'NNS'
p974
S'I-NP'
p975
g3
tp976
a(S'of'
p977
S'of'
p978
S'IN'
p979
S'B-PP'
p980
g3
tp981
a(S'3'
p982
g982
S'CD'
p983
S'B-NP'
p984
g3
tp985
a(S'ml'
p986
S'ml'
p987
S'NN'
p988
S'I-NP'
p989
g3
tp990
a(S'of'
p991
S'of'
p992
S'IN'
p993
S'B-PP'
p994
g3
tp995
a(S'the'
p996
S'the'
p997
S'DT'
p998
S'B-NP'
p999
g3
tp1000
a(S'local'
p1001
S'local'
p1002
S'JJ'
p1003
S'I-NP'
p1004
g3
tp1005
a(S'anesthetic'
p1006
S'anesthetic'
p1007
S'NN'
p1008
S'I-NP'
p1009
g3
tp1010
a(S'were'
p1011
S'be'
p1012
S'VBD'
p1013
S'B-VP'
p1014
g3
tp1015
a(S'given'
p1016
S'give'
p1017
S'VBN'
p1018
S'I-VP'
p1019
g3
tp1020
a(g25
g25
g25
g3
g3
tp1021
a(S'followed'
p1022
S'follow'
p1023
S'VBN'
p1024
S'B-VP'
p1025
g3
tp1026
a(S'by'
p1027
S'by'
p1028
S'IN'
p1029
S'B-PP'
p1030
g3
tp1031
a(S'the'
p1032
S'the'
p1033
S'DT'
p1034
S'B-NP'
p1035
g3
tp1036
a(S'remainder'
p1037
S'remainder'
p1038
S'NN'
p1039
S'I-NP'
p1040
g3
tp1041
a(S'of'
p1042
S'of'
p1043
S'IN'
p1044
S'B-PP'
p1045
g3
tp1046
a(S'the'
p1047
S'the'
p1048
S'DT'
p1049
S'B-NP'
p1050
g3
tp1051
a(S'local'
p1052
S'local'
p1053
S'JJ'
p1054
S'I-NP'
p1055
g3
tp1056
a(S'anesthetic'
p1057
S'anesthetic'
p1058
S'NN'
p1059
S'I-NP'
p1060
g3
tp1061
a(S'at'
p1062
S'at'
p1063
S'IN'
p1064
S'B-PP'
p1065
g3
tp1066
a(S'10'
p1067
S'10'
p1068
S'CD'
p1069
S'B-NP'
p1070
g3
tp1071
a(S'ml/min'
p1072
S'ml/min'
p1073
S'NN'
p1074
S'I-NP'
p1075
g3
tp1076
a(g283
g283
S'CD'
p1077
S'B-NP'
p1078
g3
tp1079
a(S'min'
p1080
S'min'
p1081
S'NN'
p1082
S'I-NP'
p1083
g3
tp1084
a(S'later.'
p1085
S'later.'
p1086
S'RB'
p1087
S'B-VP'
p1088
g3
tp1089
a(S'Following'
p1090
S'Follow'
p1091
S'VBG'
p1092
S'I-VP'
p1093
g3
tp1094
a(S'injection'
p1095
S'injection'
p1096
S'NN'
p1097
S'B-NP'
p1098
g3
tp1099
a(S'patients'
p1100
S'patient'
p1101
S'NNS'
p1102
S'I-NP'
p1103
g3
tp1104
a(S'were'
p1105
S'be'
p1106
S'VBD'
p1107
S'B-VP'
p1108
g3
tp1109
a(S'immediately'
p1110
S'immediately'
p1111
S'RB'
p1112
S'I-VP'
p1113
g3
tp1114
a(S'positioned'
p1115
S'position'
p1116
S'VBN'
p1117
S'I-VP'
p1118
g3
tp1119
a(S'supine.'
p1120
S'supine.'
p1121
S'NN'
p1122
S'B-NP'
p1123
g3
tp1124
a(S'Analgesia'
p1125
S'Analgesia'
p1126
S'NNP'
p1127
S'I-NP'
p1128
g3
tp1129
a(S'was'
p1130
S'be'
p1131
S'VBD'
p1132
S'B-VP'
p1133
g3
tp1134
a(S'determined'
p1135
S'determine'
p1136
S'VBN'
p1137
S'I-VP'
p1138
g3
tp1139
a(S'by'
p1140
S'by'
p1141
S'IN'
p1142
S'B-PP'
p1143
g3
tp1144
a(S'the'
p1145
S'the'
p1146
S'DT'
p1147
S'B-NP'
p1148
g3
tp1149
a(S'pin-prick'
p1150
S'pin-prick'
p1151
S'JJ'
p1152
S'I-NP'
p1153
g3
tp1154
a(S'method'
p1155
S'method'
p1156
S'NN'
p1157
S'I-NP'
p1158
g3
tp1159
a(S'and'
p1160
S'and'
p1161
S'CC'
p1162
S'I-NP'
p1163
g3
tp1164
a(S'motor'
p1165
S'motor'
p1166
S'NN'
p1167
S'I-NP'
p1168
g3
tp1169
a(S'blockade'
p1170
S'blockade'
p1171
S'NN'
p1172
S'I-NP'
p1173
g3
tp1174
a(S'was'
p1175
S'be'
p1176
S'VBD'
p1177
S'B-VP'
p1178
g3
tp1179
a(S'assessed'
p1180
S'assess'
p1181
S'VBN'
p1182
S'I-VP'
p1183
g3
tp1184
a(S'according'
p1185
S'accord'
p1186
S'VBG'
p1187
S'B-PP'
p1188
g3
tp1189
a(S'to'
p1190
S'to'
p1191
S'TO'
p1192
S'B-PP'
p1193
g3
tp1194
a(S'the'
p1195
S'the'
p1196
S'DT'
p1197
S'B-NP'
p1198
g3
tp1199
a(S'Bromage'
p1200
S'Bromage'
p1201
S'NNP'
p1202
S'I-NP'
p1203
g3
tp1204
a(S'scale.'
p1205
S'scale.'
p1206
S'NNP'
p1207
S'I-NP'
p1208
g3
tp1209
a(S'Heart'
p1210
S'Heart'
p1211
S'NNP'
p1212
S'I-NP'
p1213
g3
tp1214
a(S'rate'
p1215
S'rate'
p1216
S'NN'
p1217
S'I-NP'
p1218
g3
tp1219
a(S'and'
p1220
S'and'
p1221
S'CC'
p1222
S'I-NP'
p1223
g3
tp1224
a(S'blood'
p1225
S'blood'
p1226
S'NN'
p1227
S'I-NP'
p1228
g3
tp1229
a(S'pressure'
p1230
S'pressure'
p1231
S'NN'
p1232
S'I-NP'
p1233
g3
tp1234
a(S'were'
p1235
S'be'
p1236
S'VBD'
p1237
S'B-VP'
p1238
g3
tp1239
a(S'monitored'
p1240
S'monitor'
p1241
S'VBN'
p1242
S'I-VP'
p1243
g3
tp1244
a(S'until'
p1245
S'until'
p1246
S'IN'
p1247
S'B-PP'
p1248
g3
tp1249
a(g982
g982
S'CD'
p1250
S'B-NP'
p1251
g3
tp1252
a(S'h'
p1253
g1253
S'NN'
p1254
S'I-NP'
p1255
g3
tp1256
a(S'after'
p1257
S'after'
p1258
S'IN'
p1259
S'B-PP'
p1260
g3
tp1261
a(S'injection.'
p1262
S'injection.'
p1263
S'FW'
p1264
S'B-NP'
p1265
g3
tp1266
a(S'RESULTS.'
p1267
S'RESULTS.'
p1268
S'NNP'
p1269
S'I-NP'
p1270
g3
tp1271
a(S'The'
p1272
S'The'
p1273
S'DT'
p1274
S'B-NP'
p1275
g3
tp1276
a(S'latency'
p1277
S'latency'
p1278
S'NN'
p1279
S'I-NP'
p1280
g3
tp1281
a(S'of'
p1282
S'of'
p1283
S'IN'
p1284
S'B-PP'
p1285
g3
tp1286
a(S'analgesia'
p1287
S'analgesia'
p1288
S'NN'
p1289
S'B-NP'
p1290
g3
tp1291
a(S'for'
p1292
S'for'
p1293
S'IN'
p1294
S'B-PP'
p1295
g3
tp1296
a(S'the'
p1297
S'the'
p1298
S'DT'
p1299
S'B-NP'
p1300
g3
tp1301
a(S'first'
p1302
S'first'
p1303
S'JJ'
p1304
S'I-NP'
p1305
g3
tp1306
a(S'blocked'
p1307
S'block'
p1308
S'VBN'
p1309
S'I-NP'
p1310
g3
tp1311
a(S'segment'
p1312
S'segment'
p1313
S'NN'
p1314
S'I-NP'
p1315
g3
tp1316
a(g2
g2
g2
g3
g3
tp1317
a(S'T'
p1318
g1318
S'NN'
p1319
S'B-NP'
p1320
g3
tp1321
a(S'12'
p1322
S'12'
p1323
S'CD'
p1324
S'I-NP'
p1325
g3
tp1326
a(S'for'
p1327
S'for'
p1328
S'IN'
p1329
S'B-PP'
p1330
g3
tp1331
a(S'bupivacaine'
p1332
S'bupivacaine'
p1333
S'NN'
p1334
S'B-NP'
p1335
g3
tp1336
a(S'and'
p1337
S'and'
p1338
S'CC'
p1339
S'I-NP'
p1340
g3
tp1341
a(S'ropivacaine'
p1342
S'ropivacaine'
p1343
S'NN'
p1344
S'I-NP'
p1345
g3
tp1346
a(S'and'
p1347
S'and'
p1348
S'CC'
p1349
S'I-NP'
p1350
g3
tp1351
a(S'L-1'
p1352
S'L-1'
p1353
S'NN'
p1354
S'I-NP'
p1355
S'B-protein'
p1356
tp1357
a(S'for'
p1358
S'for'
p1359
S'IN'
p1360
S'B-PP'
p1361
g3
tp1362
a(S'etidocaine'
p1363
S'etidocaine'
p1364
S'NN'
p1365
S'B-NP'
p1366
g3
tp1367
a(g42
g42
g42
g3
g3
tp1368
a(S'was'
p1369
S'be'
p1370
S'VBD'
p1371
S'B-VP'
p1372
g3
tp1373
a(S'6.0'
p1374
S'6.0'
p1375
S'CD'
p1376
S'B-NP'
p1377
g3
tp1378
a(S'min'
p1379
S'min'
p1380
S'NN'
p1381
S'I-NP'
p1382
g3
tp1383
a(S'for'
p1384
S'for'
p1385
S'IN'
p1386
S'B-PP'
p1387
g3
tp1388
a(S'bupivacaine'
p1389
S'bupivacaine'
p1390
S'NN'
p1391
S'B-NP'
p1392
g3
tp1393
a(S'0.75'
p1394
S'0.75'
p1395
S'CD'
p1396
S'I-NP'
p1397
g3
tp1398
a(g25
g25
g25
S'I-NP'
p1399
g3
tp1400
a(S'5.5'
p1401
S'5.5'
p1402
S'CD'
p1403
S'I-NP'
p1404
g3
tp1405
a(S'min'
p1406
S'min'
p1407
S'NN'
p1408
S'I-NP'
p1409
g3
tp1410
a(S'for'
p1411
S'for'
p1412
S'IN'
p1413
S'B-PP'
p1414
g3
tp1415
a(S'ropivacaine'
p1416
S'ropivacaine'
p1417
S'NN'
p1418
S'B-NP'
p1419
g3
tp1420
a(g283
g283
S'CD'
p1421
S'I-NP'
p1422
g3
tp1423
a(g273
g273
S'NN'
p1424
S'I-NP'
p1425
g3
tp1426
a(g25
g25
g25
g3
g3
tp1427
a(S'and'
p1428
S'and'
p1429
S'CC'
p1430
g3
g3
tp1431
a(S'5.2'
p1432
S'5.2'
p1433
S'CD'
p1434
S'B-NP'
p1435
g3
tp1436
a(S'min'
p1437
S'min'
p1438
S'NN'
p1439
S'I-NP'
p1440
g3
tp1441
a(S'for'
p1442
S'for'
p1443
S'IN'
p1444
S'B-PP'
p1445
g3
tp1446
a(S'etidocaine'
p1447
S'etidocaine'
p1448
S'NN'
p1449
S'B-NP'
p1450
g3
tp1451
a(g283
g283
S'CD'
p1452
S'I-NP'
p1453
g3
tp1454
a(g273
g273
S'NN'
p1455
S'I-NP'
p1456
g3
tp1457
a(g25
g25
g25
g3
g3
tp1458
a(S'and'
p1459
S'and'
p1460
S'CC'
p1461
g3
g3
tp1462
a(S'the'
p1463
S'the'
p1464
S'DT'
p1465
S'B-NP'
p1466
g3
tp1467
a(S'highest'
p1468
S'high'
p1469
S'JJS'
p1470
S'I-NP'
p1471
g3
tp1472
a(S'thoracic'
p1473
S'thoracic'
p1474
S'JJ'
p1475
S'I-NP'
p1476
g3
tp1477
a(S'dermatome'
p1478
S'dermatome'
p1479
S'NN'
p1480
S'I-NP'
p1481
g3
tp1482
a(g2
g2
g2
g3
g3
tp1483
a(g1318
g1318
S'NN'
p1484
S'B-NP'
p1485
g3
tp1486
a(S'5'
p1487
g1487
S'CD'
p1488
S'I-NP'
p1489
g3
tp1490
a(S'for'
p1491
S'for'
p1492
S'IN'
p1493
S'B-PP'
p1494
g3
tp1495
a(S'bupivacaine'
p1496
S'bupivacaine'
p1497
S'NN'
p1498
S'B-NP'
p1499
g3
tp1500
a(g25
g25
g25
g3
g3
tp1501
a(g1318
g1318
S'NN'
p1502
S'B-NP'
p1503
S'B-DNA'
p1504
tp1505
a(S'4'
p1506
g1506
S'CD'
p1507
S'I-NP'
p1508
S'I-DNA'
p1509
tp1510
a(S'for'
p1511
S'for'
p1512
S'IN'
p1513
S'B-PP'
p1514
g3
tp1515
a(S'ropivacaine'
p1516
S'ropivacaine'
p1517
S'NN'
p1518
S'B-NP'
p1519
g3
tp1520
a(S'and'
p1521
S'and'
p1522
S'CC'
p1523
g3
g3
tp1524
a(g1318
g1318
S'NN'
p1525
S'B-NP'
p1526
S'B-protein'
p1527
tp1528
a(S'7'
p1529
g1529
S'CD'
p1530
S'B-NP'
p1531
S'I-protein'
p1532
tp1533
a(S'for'
p1534
S'for'
p1535
S'IN'
p1536
S'B-PP'
p1537
g3
tp1538
a(S'etidocaine'
p1539
S'etidocaine'
p1540
S'NN'
p1541
S'B-NP'
p1542
g3
tp1543
a(g42
g42
g42
g3
g3
tp1544
a(S'was'
p1545
S'be'
p1546
S'VBD'
p1547
S'B-VP'
p1548
g3
tp1549
a(S'reached'
p1550
S'reach'
p1551
S'VBN'
p1552
S'I-VP'
p1553
g3
tp1554
a(S'after'
p1555
S'after'
p1556
S'IN'
p1557
S'B-PP'
p1558
g3
tp1559
a(S'24'
p1560
S'24'
p1561
S'CD'
p1562
S'B-NP'
p1563
g3
tp1564
a(S'+/-'
p1565
S'+/-'
p1566
S'SYM'
p1567
S'I-NP'
p1568
g3
tp1569
a(S'10'
p1570
S'10'
p1571
S'CD'
p1572
S'I-NP'
p1573
g3
tp1574
a(g25
g25
g25
S'I-NP'
p1575
g3
tp1576
a(S'26'
p1577
S'26'
p1578
S'CD'
p1579
S'I-NP'
p1580
g3
tp1581
a(S'+/-'
p1582
S'+/-'
p1583
S'SYM'
p1584
S'I-NP'
p1585
g3
tp1586
a(S'9'
p1587
g1587
S'CD'
p1588
S'I-NP'
p1589
g3
tp1590
a(g25
g25
g25
g3
g3
tp1591
a(S'and'
p1592
S'and'
p1593
S'CC'
p1594
g3
g3
tp1595
a(S'30'
p1596
S'30'
p1597
S'CD'
p1598
S'B-NP'
p1599
g3
tp1600
a(S'+/-'
p1601
S'+/-'
p1602
S'SYM'
p1603
S'I-NP'
p1604
g3
tp1605
a(S'18'
p1606
S'18'
p1607
S'CD'
p1608
S'I-NP'
p1609
g3
tp1610
a(S'min'
p1611
S'min'
p1612
S'NN'
p1613
S'I-NP'
p1614
g3
tp1615
a(S'for'
p1616
S'for'
p1617
S'IN'
p1618
S'B-PP'
p1619
g3
tp1620
a(S'bupivacaine'
p1621
S'bupivacaine'
p1622
S'NN'
p1623
S'B-NP'
p1624
g3
tp1625
a(g25
g25
g25
g3
g3
tp1626
a(S'ropivacaine'
p1627
S'ropivacaine'
p1628
S'NN'
p1629
S'B-NP'
p1630
g3
tp1631
a(g25
g25
g25
g3
g3
tp1632
a(S'and'
p1633
S'and'
p1634
S'CC'
p1635
g3
g3
tp1636
a(S'etidocaine'
p1637
S'etidocaine'
p1638
S'NN'
p1639
S'B-NP'
p1640
g3
tp1641
a(g25
g25
g25
g3
g3
tp1642
a(S'respectively.'
p1643
S'respectively.'
p1644
S'VB'
p1645
S'B-VP'
p1646
g3
tp1647
a(S'The'
p1648
S'The'
p1649
S'DT'
p1650
S'B-NP'
p1651
g3
tp1652
a(S'duration'
p1653
S'duration'
p1654
S'NN'
p1655
S'I-NP'
p1656
g3
tp1657
a(S'of'
p1658
S'of'
p1659
S'IN'
p1660
S'B-PP'
p1661
g3
tp1662
a(S'sensory'
p1663
S'sensory'
p1664
S'JJ'
p1665
S'B-NP'
p1666
g3
tp1667
a(S'anesthesia'
p1668
S'anesthesia'
p1669
S'NN'
p1670
S'I-NP'
p1671
g3
tp1672
a(S'at'
p1673
S'at'
p1674
S'IN'
p1675
S'B-PP'
p1676
g3
tp1677
a(S'the'
p1678
S'the'
p1679
S'DT'
p1680
S'B-NP'
p1681
g3
tp1682
a(g1318
g1318
S'NN'
p1683
S'I-NP'
p1684
g3
tp1685
a(S'10'
p1686
S'10'
p1687
S'CD'
p1688
S'I-NP'
p1689
g3
tp1690
a(S'dermatomal'
p1691
S'dermatomal'
p1692
S'JJ'
p1693
S'I-NP'
p1694
g3
tp1695
a(S'level'
p1696
S'level'
p1697
S'NN'
p1698
S'I-NP'
p1699
g3
tp1700
a(S'was'
p1701
S'be'
p1702
S'VBD'
p1703
S'B-VP'
p1704
g3
tp1705
a(S'257'
p1706
S'257'
p1707
S'CD'
p1708
S'B-NP'
p1709
g3
tp1710
a(S'+/-'
p1711
S'+/-'
p1712
S'SYM'
p1713
S'I-NP'
p1714
g3
tp1715
a(S'102'
p1716
S'102'
p1717
S'CD'
p1718
S'I-NP'
p1719
g3
tp1720
a(g25
g25
g25
S'I-NP'
p1721
g3
tp1722
a(S'278'
p1723
S'278'
p1724
S'CD'
p1725
S'I-NP'
p1726
g3
tp1727
a(S'+/-'
p1728
S'+/-'
p1729
S'SYM'
p1730
S'I-NP'
p1731
g3
tp1732
a(S'67'
p1733
S'67'
p1734
S'CD'
p1735
S'I-NP'
p1736
g3
tp1737
a(g25
g25
g25
g3
g3
tp1738
a(S'and'
p1739
S'and'
p1740
S'CC'
p1741
g3
g3
tp1742
a(S'191'
p1743
S'191'
p1744
S'CD'
p1745
S'B-NP'
p1746
g3
tp1747
a(S'+/-'
p1748
S'+/-'
p1749
S'SYM'
p1750
S'I-NP'
p1751
g3
tp1752
a(S'86'
p1753
S'86'
p1754
S'CD'
p1755
S'I-NP'
p1756
g3
tp1757
a(S'min'
p1758
S'min'
p1759
S'NN'
p1760
S'I-NP'
p1761
g3
tp1762
a(S'for'
p1763
S'for'
p1764
S'IN'
p1765
S'B-PP'
p1766
g3
tp1767
a(S'bupivacaine'
p1768
S'bupivacaine'
p1769
S'NN'
p1770
S'B-NP'
p1771
g3
tp1772
a(g25
g25
g25
g3
g3
tp1773
a(S'ropivacaine'
p1774
S'ropivacaine'
p1775
S'NN'
p1776
S'B-NP'
p1777
g3
tp1778
a(g25
g25
g25
g3
g3
tp1779
a(S'and'
p1780
S'and'
p1781
S'CC'
p1782
g3
g3
tp1783
a(S'etidocaine'
p1784
S'etidocaine'
p1785
S'NN'
p1786
S'B-NP'
p1787
g3
tp1788
a(g25
g25
g25
g3
g3
tp1789
a(S'respectively.'
p1790
S'respectively.'
p1791
S'VBP'
p1792
S'B-VP'
p1793
g3
tp1794
a(S'The'
p1795
S'The'
p1796
S'DT'
p1797
S'B-NP'
p1798
g3
tp1799
a(S'two-segment'
p1800
S'two-segment'
p1801
S'JJ'
p1802
S'I-NP'
p1803
g3
tp1804
a(S'regression'
p1805
S'regression'
p1806
S'NN'
p1807
S'I-NP'
p1808
g3
tp1809
a(S'time'
p1810
S'time'
p1811
S'NN'
p1812
S'I-NP'
p1813
g3
tp1814
a(S'was'
p1815
S'be'
p1816
S'VBD'
p1817
S'B-VP'
p1818
g3
tp1819
a(S'199'
p1820
S'199'
p1821
S'CD'
p1822
S'B-NP'
p1823
g3
tp1824
a(S'+/-'
p1825
S'+/-'
p1826
S'SYM'
p1827
S'I-NP'
p1828
g3
tp1829
a(S'80'
p1830
S'80'
p1831
S'CD'
p1832
S'I-NP'
p1833
g3
tp1834
a(S'min'
p1835
S'min'
p1836
S'NN'
p1837
S'I-NP'
p1838
g3
tp1839
a(S'for'
p1840
S'for'
p1841
S'IN'
p1842
S'B-PP'
p1843
g3
tp1844
a(S'bupivacaine'
p1845
S'bupivacaine'
p1846
S'NN'
p1847
S'B-NP'
p1848
g3
tp1849
a(g25
g25
g25
g3
g3
tp1850
a(S'201'
p1851
S'201'
p1852
S'CD'
p1853
S'B-NP'
p1854
g3
tp1855
a(S'+/-'
p1856
S'+/-'
p1857
S'SYM'
p1858
S'I-NP'
p1859
g3
tp1860
a(S'52'
p1861
S'52'
p1862
S'CD'
p1863
S'I-NP'
p1864
g3
tp1865
a(S'min'
p1866
S'min'
p1867
S'NN'
p1868
S'I-NP'
p1869
g3
tp1870
a(S'for'
p1871
S'for'
p1872
S'IN'
p1873
S'B-PP'
p1874
g3
tp1875
a(S'ropivacaine'
p1876
S'ropivacaine'
p1877
S'NN'
p1878
S'B-NP'
p1879
g3
tp1880
a(g25
g25
g25
g3
g3
tp1881
a(S'and'
p1882
S'and'
p1883
S'CC'
p1884
g3
g3
tp1885
a(S'174'
p1886
S'174'
p1887
S'CD'
p1888
S'B-NP'
p1889
g3
tp1890
a(S'+/-'
p1891
S'+/-'
p1892
S'SYM'
p1893
S'I-NP'
p1894
g3
tp1895
a(S'81'
p1896
S'81'
p1897
S'CD'
p1898
S'I-NP'
p1899
g3
tp1900
a(S'min'
p1901
S'min'
p1902
S'NN'
p1903
S'I-NP'
p1904
g3
tp1905
a(S'for'
p1906
S'for'
p1907
S'IN'
p1908
S'B-PP'
p1909
g3
tp1910
a(S'etidocaine.'
p1911
S'etidocaine.'
p1912
S'FW'
p1913
S'B-NP'
p1914
g3
tp1915
a(S'The'
p1916
S'The'
p1917
S'DT'
p1918
S'B-NP'
p1919
g3
tp1920
a(S'total'
p1921
S'total'
p1922
S'JJ'
p1923
S'I-NP'
p1924
g3
tp1925
a(S'duration'
p1926
S'duration'
p1927
S'NN'
p1928
S'I-NP'
p1929
g3
tp1930
a(S'of'
p1931
S'of'
p1932
S'IN'
p1933
S'B-PP'
p1934
g3
tp1935
a(S'sensory'
p1936
S'sensory'
p1937
S'JJ'
p1938
S'B-NP'
p1939
g3
tp1940
a(S'block'
p1941
S'block'
p1942
S'NN'
p1943
S'I-NP'
p1944
g3
tp1945
a(S'was'
p1946
S'be'
p1947
S'VBD'
p1948
S'B-VP'
p1949
g3
tp1950
a(S'340'
p1951
S'340'
p1952
S'CD'
p1953
S'B-NP'
p1954
g3
tp1955
a(S'+/-'
p1956
S'+/-'
p1957
S'SYM'
p1958
S'I-NP'
p1959
g3
tp1960
a(S'103'
p1961
S'103'
p1962
S'CD'
p1963
S'I-NP'
p1964
g3
tp1965
a(S'min'
p1966
S'min'
p1967
S'NN'
p1968
S'I-NP'
p1969
g3
tp1970
a(S'for'
p1971
S'for'
p1972
S'IN'
p1973
S'B-PP'
p1974
g3
tp1975
a(S'bupivacaine'
p1976
S'bupivacaine'
p1977
S'NN'
p1978
S'B-NP'
p1979
g3
tp1980
a(g25
g25
g25
g3
g3
tp1981
a(S'428'
p1982
S'428'
p1983
S'CD'
p1984
S'B-NP'
p1985
g3
tp1986
a(S'+/-'
p1987
S'+/-'
p1988
S'SYM'
p1989
S'I-NP'
p1990
g3
tp1991
a(S'65'
p1992
S'65'
p1993
S'CD'
p1994
S'I-NP'
p1995
g3
tp1996
a(S'min'
p1997
S'min'
p1998
S'NN'
p1999
S'I-NP'
p2000
g3
tp2001
a(S'for'
p2002
S'for'
p2003
S'IN'
p2004
S'B-PP'
p2005
g3
tp2006
a(S'ropivacaine'
p2007
S'ropivacaine'
p2008
S'NN'
p2009
S'B-NP'
p2010
g3
tp2011
a(S'and'
p2012
S'and'
p2013
S'CC'
p2014
g3
g3
tp2015
a(S'223'
p2016
S'223'
p2017
S'CD'
p2018
S'B-NP'
p2019
g3
tp2020
a(S'+/-'
p2021
S'+/-'
p2022
S'SYM'
p2023
S'I-NP'
p2024
g3
tp2025
a(S'62'
p2026
S'62'
p2027
S'CD'
p2028
S'I-NP'
p2029
g3
tp2030
a(S'min'
p2031
S'min'
p2032
S'NN'
p2033
S'I-NP'
p2034
g3
tp2035
a(S'for'
p2036
S'for'
p2037
S'IN'
p2038
S'B-PP'
p2039
g3
tp2040
a(S'etidocaine'
p2041
S'etidocaine'
p2042
S'NN'
p2043
S'B-NP'
p2044
g3
tp2045
a(g25
g25
g25
g3
g3
tp2046
a(S'respectively.'
p2047
S'respectively.'
p2048
S'NN'
p2049
S'B-NP'
p2050
g3
tp2051
a(S'In'
p2052
S'In'
p2053
S'IN'
p2054
S'B-PP'
p2055
g3
tp2056
a(S'the'
p2057
S'the'
p2058
S'DT'
p2059
S'B-NP'
p2060
g3
tp2061
a(S'ropivacaine'
p2062
S'ropivacaine'
p2063
S'NN'
p2064
S'I-NP'
p2065
g3
tp2066
a(S'and'
p2067
S'and'
p2068
S'CC'
p2069
S'I-NP'
p2070
g3
tp2071
a(S'bupivacaine'
p2072
S'bupivacaine'
p2073
S'NN'
p2074
S'I-NP'
p2075
g3
tp2076
a(S'groups'
p2077
S'group'
p2078
S'NNS'
p2079
S'I-NP'
p2080
g3
tp2081
a(S'sensory'
p2082
S'sensory'
p2083
S'VBP'
p2084
S'B-VP'
p2085
g3
tp2086
a(S'anesthesia'
p2087
S'anesthesia'
p2088
S'NN'
p2089
S'B-NP'
p2090
g3
tp2091
a(S'was'
p2092
S'be'
p2093
S'VBD'
p2094
S'B-VP'
p2095
g3
tp2096
a(S'considered'
p2097
S'consider'
p2098
S'VBN'
p2099
S'I-VP'
p2100
g3
tp2101
a(S'adequate'
p2102
S'adequate'
p2103
S'JJ'
p2104
S'B-ADJP'
p2105
g3
tp2106
a(S'for'
p2107
S'for'
p2108
S'IN'
p2109
S'B-PP'
p2110
g3
tp2111
a(S'surgery'
p2112
S'surgery'
p2113
S'NN'
p2114
S'B-NP'
p2115
g3
tp2116
a(S'in'
p2117
S'in'
p2118
S'IN'
p2119
S'B-PP'
p2120
g3
tp2121
a(S'all'
p2122
S'all'
p2123
S'DT'
p2124
S'B-NP'
p2125
g3
tp2126
a(S'cases'
p2127
S'case'
p2128
S'NNS'
p2129
S'I-NP'
p2130
g3
tp2131
a(S'but'
p2132
S'but'
p2133
S'CC'
p2134
g3
g3
tp2135
a(S'one'
p2136
S'one'
p2137
S'CD'
p2138
S'B-NP'
p2139
g3
tp2140
a(S'in'
p2141
S'in'
p2142
S'IN'
p2143
S'B-PP'
p2144
g3
tp2145
a(S'each'
p2146
S'each'
p2147
S'DT'
p2148
S'B-NP'
p2149
g3
tp2150
a(S'group'
p2151
S'group'
p2152
S'NN'
p2153
S'I-NP'
p2154
g3
tp2155
a(S';'
p2156
g2156
S':'
p2157
g3
g3
tp2158
a(S'in'
p2159
S'in'
p2160
S'IN'
p2161
S'B-PP'
p2162
g3
tp2163
a(S'the'
p2164
S'the'
p2165
S'DT'
p2166
S'B-NP'
p2167
g3
tp2168
a(S'etidocaine'
p2169
S'etidocaine'
p2170
S'NN'
p2171
S'I-NP'
p2172
g3
tp2173
a(S'group'
p2174
S'group'
p2175
S'NN'
p2176
S'I-NP'
p2177
g3
tp2178
a(g25
g25
g25
g3
g3
tp2179
a(S'however'
p2180
S'however'
p2181
S'RB'
p2182
S'B-NP'
p2183
g3
tp2184
a(S'60'
p2185
S'60'
p2186
S'CD'
p2187
S'I-NP'
p2188
g3
tp2189
a(g273
g273
S'NN'
p2190
S'I-NP'
p2191
g3
tp2192
a(S'of'
p2193
S'of'
p2194
S'IN'
p2195
S'B-PP'
p2196
g3
tp2197
a(S'the'
p2198
S'the'
p2199
S'DT'
p2200
S'B-NP'
p2201
g3
tp2202
a(S'patients'
p2203
S'patient'
p2204
S'NNS'
p2205
S'I-NP'
p2206
g3
tp2207
a(S'showed'
p2208
S'show'
p2209
S'VBD'
p2210
S'B-VP'
p2211
g3
tp2212
a(S'inadequate'
p2213
S'inadequate'
p2214
S'JJ'
p2215
S'B-NP'
p2216
g3
tp2217
a(S'analgesia'
p2218
S'analgesia'
p2219
S'NN'
p2220
S'I-NP'
p2221
g3
tp2222
a(S'and'
p2223
S'and'
p2224
S'CC'
p2225
g3
g3
tp2226
a(S'all'
p2227
S'all'
p2228
S'PDT'
p2229
S'B-NP'
p2230
g3
tp2231
a(S'these'
p2232
S'these'
p2233
S'DT'
p2234
S'I-NP'
p2235
g3
tp2236
a(S'patients'
p2237
S'patient'
p2238
S'NNS'
p2239
S'I-NP'
p2240
g3
tp2241
a(g2
g2
g2
g3
g3
tp2242
a(S'12/20'
p2243
S'12/20'
p2244
S'CD'
p2245
S'B-NP'
p2246
g3
tp2247
a(g42
g42
g42
g3
g3
tp2248
a(S'required'
p2249
S'require'
p2250
S'VBD'
p2251
S'B-VP'
p2252
g3
tp2253
a(S'additional'
p2254
S'additional'
p2255
S'JJ'
p2256
S'B-NP'
p2257
g3
tp2258
a(S'analgesics.'
p2259
S'analgesics.'
p2260
S'NN'
p2261
S'I-NP'
p2262
g3
tp2263
a(S'Bupivacaine'
p2264
S'Bupivacaine'
p2265
S'NN'
p2266
S'I-NP'
p2267
g3
tp2268
a(S'achieved'
p2269
S'achieve'
p2270
S'VBD'
p2271
S'B-VP'
p2272
g3
tp2273
a(S'an'
p2274
S'an'
p2275
S'DT'
p2276
S'B-NP'
p2277
g3
tp2278
a(S'average'
p2279
S'average'
p2280
S'NN'
p2281
S'I-NP'
p2282
g3
tp2283
a(S'of'
p2284
S'of'
p2285
S'IN'
p2286
S'B-PP'
p2287
g3
tp2288
a(S'motor'
p2289
S'motor'
p2290
S'NN'
p2291
S'B-NP'
p2292
g3
tp2293
a(S'block'
p2294
S'block'
p2295
S'NN'
p2296
S'I-NP'
p2297
g3
tp2298
a(S'2.1'
p2299
S'2.1'
p2300
S'CD'
p2301
S'I-NP'
p2302
g3
tp2303
a(g25
g25
g25
g3
g3
tp2304
a(S'ropivacaine'
p2305
S'ropivacaine'
p2306
S'NN'
p2307
S'B-NP'
p2308
g3
tp2309
a(S'2.3'
p2310
S'2.3'
p2311
S'CD'
p2312
S'I-NP'
p2313
g3
tp2314
a(g25
g25
g25
g3
g3
tp2315
a(S'and'
p2316
S'and'
p2317
S'CC'
p2318
g3
g3
tp2319
a(S'etidocaine'
p2320
S'etidocaine'
p2321
S'NN'
p2322
S'B-NP'
p2323
g3
tp2324
a(S'2.4.'
p2325
S'2.4.'
p2326
S'CD'
p2327
S'I-NP'
p2328
g3
tp2329
a(S'CONCLUSION.'
p2330
S'CONCLUSION.'
p2331
S'NN'
p2332
S'I-NP'
p2333
g3
tp2334
a(S'The'
p2335
S'The'
p2336
S'DT'
p2337
S'B-NP'
p2338
g3
tp2339
a(S'results'
p2340
S'result'
p2341
S'NNS'
p2342
S'I-NP'
p2343
g3
tp2344
a(S'of'
p2345
S'of'
p2346
S'IN'
p2347
S'B-PP'
p2348
g3
tp2349
a(S'this'
p2350
S'this'
p2351
S'DT'
p2352
S'B-NP'
p2353
g3
tp2354
a(S'study'
p2355
S'study'
p2356
S'NN'
p2357
S'I-NP'
p2358
g3
tp2359
a(S'indicate'
p2360
S'indicate'
p2361
S'VBP'
p2362
S'B-VP'
p2363
g3
tp2364
a(S'that'
p2365
S'that'
p2366
S'IN'
p2367
S'B-SBAR'
p2368
g3
tp2369
a(S'ropivacaine'
p2370
S'ropivacaine'
p2371
S'NN'
p2372
S'B-NP'
p2373
g3
tp2374
a(S'is'
p2375
S'be'
p2376
S'VBZ'
p2377
S'B-VP'
p2378
g3
tp2379
a(S'an'
p2380
S'an'
p2381
S'DT'
p2382
S'B-NP'
p2383
g3
tp2384
a(S'effective'
p2385
S'effective'
p2386
S'JJ'
p2387
S'I-NP'
p2388
g3
tp2389
a(S'local'
p2390
S'local'
p2391
S'JJ'
p2392
S'I-NP'
p2393
g3
tp2394
a(S'anesthetic'
p2395
S'anesthetic'
p2396
S'JJ'
p2397
S'I-NP'
p2398
g3
tp2399
a(S'agent.'
p2400
S'agent.'
p2401
S'NN'
p2402
S'I-NP'
p2403
g3
tp2404
a(S'Its'
p2405
S'Its'
p2406
S'PRP$'
p2407
S'B-NP'
p2408
g3
tp2409
a(S'potency'
p2410
S'potency'
p2411
S'NN'
p2412
S'I-NP'
p2413
g3
tp2414
a(S'is'
p2415
S'be'
p2416
S'VBZ'
p2417
S'B-VP'
p2418
g3
tp2419
a(S'about'
p2420
S'about'
p2421
S'RB'
p2422
S'B-ADJP'
p2423
g3
tp2424
a(S'equal'
p2425
S'equal'
p2426
S'JJ'
p2427
S'I-ADJP'
p2428
g3
tp2429
a(S'to'
p2430
S'to'
p2431
S'TO'
p2432
S'B-PP'
p2433
g3
tp2434
a(S'that'
p2435
S'that'
p2436
S'DT'
p2437
S'B-NP'
p2438
g3
tp2439
a(S'of'
p2440
S'of'
p2441
S'IN'
p2442
S'B-PP'
p2443
g3
tp2444
a(S'bupivacaine'
p2445
S'bupivacaine'
p2446
S'NN'
p2447
S'B-NP'
p2448
g3
tp2449
a(S'and'
p2450
S'and'
p2451
S'CC'
p2452
g3
g3
tp2453
a(S'much'
p2454
S'much'
p2455
S'RB'
p2456
S'B-ADJP'
p2457
g3
tp2458
a(S'higher'
p2459
S'high'
p2460
S'JJR'
p2461
S'I-ADJP'
p2462
g3
tp2463
a(S'than'
p2464
S'than'
p2465
S'IN'
p2466
S'B-PP'
p2467
g3
tp2468
a(S'that'
p2469
S'that'
p2470
S'DT'
p2471
S'B-NP'
p2472
g3
tp2473
a(S'of'
p2474
S'of'
p2475
S'IN'
p2476
S'B-PP'
p2477
g3
tp2478
a(S'etidocaine'
p2479
S'etidocaine'
p2480
S'NN'
p2481
S'B-NP'
p2482
g3
tp2483
a(S'...'
p2484
S'...'
p2485
g2157
g3
g3
tp2486
a.