(lp0
(S'Mediation'
p1
S'Mediation'
p2
S'NN'
p3
S'B-NP'
p4
S'O'
p5
tp6
a(S'analysis'
p7
S'analysis'
p8
S'NN'
p9
S'I-NP'
p10
g5
tp11
a(S'demonstrates'
p12
S'demonstrate'
p13
S'VBZ'
p14
S'B-VP'
p15
g5
tp16
a(S'that'
p17
S'that'
p18
S'IN'
p19
S'B-SBAR'
p20
g5
tp21
a(S'trans-eQTLs'
p22
S'trans-eQTL'
p23
S'NNS'
p24
S'B-NP'
p25
g5
tp26
a(S'are'
p27
S'be'
p28
S'VBP'
p29
S'B-VP'
p30
g5
tp31
a(S'often'
p32
S'often'
p33
S'RB'
p34
S'I-VP'
p35
g5
tp36
a(S'explained'
p37
S'explain'
p38
S'VBN'
p39
S'I-VP'
p40
g5
tp41
a(S'by'
p42
S'by'
p43
S'IN'
p44
S'B-PP'
p45
g5
tp46
a(S'cis-mediation'
p47
S'cis-mediation'
p48
S'NN'
p49
S'B-NP'
p50
g5
tp51
a(S':'
p52
g52
g52
g5
g5
tp53
a(S'a'
p54
g54
S'DT'
p55
S'B-NP'
p56
g5
tp57
a(S'genome-wide'
p58
S'genome-wide'
p59
S'JJ'
p60
S'I-NP'
p61
g5
tp62
a(S'analysis'
p63
S'analysis'
p64
S'NN'
p65
S'I-NP'
p66
g5
tp67
a(S'among'
p68
S'among'
p69
S'IN'
p70
S'B-PP'
p71
g5
tp72
a(S'1'
p73
g73
S'CD'
p74
S'B-NP'
p75
g5
tp76
a(S','
p77
g77
g77
S'I-NP'
p78
g5
tp79
a(S'800'
p80
S'800'
p81
S'CD'
p82
S'I-NP'
p83
g5
tp84
a(S'South'
p85
S'South'
p86
S'NNP'
p87
S'I-NP'
p88
g5
tp89
a(S'Asians'
p90
S'Asian'
p91
S'NNPS'
p92
S'I-NP'
p93
g5
tp94
a(S'.'
p95
g95
g95
g5
g5
tp96
a(S'A'
p97
g97
S'DT'
p98
S'B-NP'
p99
g5
tp100
a(S'large'
p101
S'large'
p102
S'JJ'
p103
S'I-NP'
p104
g5
tp105
a(S'fraction'
p106
S'fraction'
p107
S'NN'
p108
S'I-NP'
p109
g5
tp110
a(S'of'
p111
S'of'
p112
S'IN'
p113
S'B-PP'
p114
g5
tp115
a(S'human'
p116
S'human'
p117
S'JJ'
p118
S'B-NP'
p119
S'B-DNA'
p120
tp121
a(S'genes'
p122
S'gene'
p123
S'NNS'
p124
S'I-NP'
p125
S'I-DNA'
p126
tp127
a(S'are'
p128
S'be'
p129
S'VBP'
p130
S'B-VP'
p131
g5
tp132
a(S'regulated'
p133
S'regulate'
p134
S'VBN'
p135
S'I-VP'
p136
g5
tp137
a(S'by'
p138
S'by'
p139
S'IN'
p140
S'B-PP'
p141
g5
tp142
a(S'genetic'
p143
S'genetic'
p144
S'JJ'
p145
S'B-NP'
p146
g5
tp147
a(S'variation'
p148
S'variation'
p149
S'NN'
p150
S'I-NP'
p151
g5
tp152
a(S'near'
p153
S'near'
p154
S'IN'
p155
S'B-PP'
p156
g5
tp157
a(S'the'
p158
S'the'
p159
S'DT'
p160
S'B-NP'
p161
g5
tp162
a(S'transcribed'
p163
S'transcribe'
p164
S'VBN'
p165
S'I-NP'
p166
S'B-DNA'
p167
tp168
a(S'sequence'
p169
S'sequence'
p170
S'NN'
p171
S'I-NP'
p172
S'I-DNA'
p173
tp174
a(S'('
p175
g175
g175
g5
g5
tp176
a(S'cis-eQTL'
p177
S'cis-eQTL'
p178
S'NN'
p179
S'B-NP'
p180
S'B-DNA'
p181
tp182
a(g77
g77
g77
g5
S'I-DNA'
p183
tp184
a(S'expression'
p185
S'expression'
p186
S'NN'
p187
S'B-NP'
p188
S'I-DNA'
p189
tp190
a(S'quantitative'
p191
S'quantitative'
p192
S'JJ'
p193
S'I-NP'
p194
S'I-DNA'
p195
tp196
a(S'trait'
p197
S'trait'
p198
S'NN'
p199
S'I-NP'
p200
S'I-DNA'
p201
tp202
a(S'locus'
p203
S'locus'
p204
S'NN'
p205
S'I-NP'
p206
S'I-DNA'
p207
tp208
a(S')'
p209
g209
g209
g5
g5
tp210
a(g77
g77
g77
g5
g5
tp211
a(S'and'
p212
S'and'
p213
S'CC'
p214
g5
g5
tp215
a(S'many'
p216
S'many'
p217
S'JJ'
p218
S'B-NP'
p219
g5
tp220
a(S'cis-eQTLs'
p221
S'cis-eQTL'
p222
S'NNS'
p223
S'I-NP'
p224
g5
tp225
a(S'have'
p226
S'have'
p227
S'VBP'
p228
S'B-VP'
p229
g5
tp230
a(S'implications'
p231
S'implication'
p232
S'NNS'
p233
S'B-NP'
p234
g5
tp235
a(S'for'
p236
S'for'
p237
S'IN'
p238
S'B-PP'
p239
g5
tp240
a(S'human'
p241
S'human'
p242
S'JJ'
p243
S'B-NP'
p244
g5
tp245
a(S'disease.'
p246
S'disease.'
p247
S'NN'
p248
S'I-NP'
p249
g5
tp250
a(S'Less'
p251
S'Less'
p252
S'NNP'
p253
S'B-NP'
p254
g5
tp255
a(S'is'
p256
S'be'
p257
S'VBZ'
p258
S'B-VP'
p259
g5
tp260
a(S'known'
p261
S'know'
p262
S'VBN'
p263
S'I-VP'
p264
g5
tp265
a(S'regarding'
p266
S'regard'
p267
S'VBG'
p268
S'I-VP'
p269
g5
tp270
a(S'the'
p271
S'the'
p272
S'DT'
p273
S'B-NP'
p274
g5
tp275
a(S'effects'
p276
S'effect'
p277
S'NNS'
p278
S'I-NP'
p279
g5
tp280
a(S'of'
p281
S'of'
p282
S'IN'
p283
S'B-PP'
p284
g5
tp285
a(S'genetic'
p286
S'genetic'
p287
S'JJ'
p288
S'B-NP'
p289
g5
tp290
a(S'variation'
p291
S'variation'
p292
S'NN'
p293
S'I-NP'
p294
g5
tp295
a(S'on'
p296
S'on'
p297
S'IN'
p298
S'B-PP'
p299
g5
tp300
a(S'expression'
p301
S'expression'
p302
S'NN'
p303
S'B-NP'
p304
g5
tp305
a(S'of'
p306
S'of'
p307
S'IN'
p308
S'B-PP'
p309
g5
tp310
a(S'distant'
p311
S'distant'
p312
S'JJ'
p313
S'B-NP'
p314
S'B-DNA'
p315
tp316
a(S'genes'
p317
S'gene'
p318
S'NNS'
p319
S'I-NP'
p320
S'I-DNA'
p321
tp322
a(g175
g175
g175
g5
g5
tp323
a(S'trans-eQTLs'
p324
S'trans-eQTL'
p325
S'NNS'
p326
S'B-NP'
p327
g5
tp328
a(g209
g209
g209
g5
g5
tp329
a(S'and'
p330
S'and'
p331
S'CC'
p332
g5
g5
tp333
a(S'their'
p334
S'their'
p335
S'PRP$'
p336
S'B-NP'
p337
g5
tp338
a(S'biological'
p339
S'biological'
p340
S'JJ'
p341
S'I-NP'
p342
g5
tp343
a(S'mechanisms.'
p344
S'mechanisms.'
p345
S'NN'
p346
S'I-NP'
p347
g5
tp348
a(S'In'
p349
S'In'
p350
S'IN'
p351
S'B-PP'
p352
g5
tp353
a(S'this'
p354
S'this'
p355
S'DT'
p356
S'B-NP'
p357
g5
tp358
a(S'work'
p359
S'work'
p360
S'NN'
p361
S'I-NP'
p362
g5
tp363
a(g77
g77
g77
g5
g5
tp364
a(S'we'
p365
S'we'
p366
S'PRP'
p367
S'B-NP'
p368
g5
tp369
a(S'use'
p370
S'use'
p371
S'VBP'
p372
S'B-VP'
p373
g5
tp374
a(S'genome-wide'
p375
S'genome-wide'
p376
S'JJ'
p377
S'B-NP'
p378
g5
tp379
a(S'data'
p380
S'datum'
p381
S'NNS'
p382
S'I-NP'
p383
g5
tp384
a(S'on'
p385
S'on'
p386
S'IN'
p387
S'B-PP'
p388
g5
tp389
a(S'SNPs'
p390
S'SNP'
p391
S'NNS'
p392
S'B-NP'
p393
g5
tp394
a(S'and'
p395
S'and'
p396
S'CC'
p397
g5
g5
tp398
a(S'array-based'
p399
S'array-based'
p400
S'JJ'
p401
S'B-NP'
p402
g5
tp403
a(S'expression'
p404
S'expression'
p405
S'NN'
p406
S'I-NP'
p407
g5
tp408
a(S'measures'
p409
S'measure'
p410
S'NNS'
p411
S'I-NP'
p412
g5
tp413
a(S'from'
p414
S'from'
p415
S'IN'
p416
S'B-PP'
p417
g5
tp418
a(S'mononuclear'
p419
S'mononuclear'
p420
S'JJ'
p421
S'B-NP'
p422
S'B-cell_type'
p423
tp424
a(S'cells'
p425
S'cell'
p426
S'NNS'
p427
S'I-NP'
p428
S'I-cell_type'
p429
tp430
a(S'obtained'
p431
S'obtain'
p432
S'VBN'
p433
S'B-VP'
p434
g5
tp435
a(S'from'
p436
S'from'
p437
S'IN'
p438
S'B-PP'
p439
g5
tp440
a(g54
g54
S'DT'
p441
S'B-NP'
p442
g5
tp443
a(S'population-based'
p444
S'population-based'
p445
S'JJ'
p446
S'I-NP'
p447
g5
tp448
a(S'cohort'
p449
S'cohort'
p450
S'NN'
p451
S'I-NP'
p452
g5
tp453
a(S'of'
p454
S'of'
p455
S'IN'
p456
S'B-PP'
p457
g5
tp458
a(g73
g73
S'CD'
p459
S'B-NP'
p460
g5
tp461
a(g77
g77
g77
S'I-NP'
p462
g5
tp463
a(S'799'
p464
S'799'
p465
S'CD'
p466
S'I-NP'
p467
g5
tp468
a(S'Bangladeshi'
p469
S'Bangladeshi'
p470
S'NNP'
p471
S'I-NP'
p472
g5
tp473
a(S'individuals'
p474
S'individual'
p475
S'NNS'
p476
S'I-NP'
p477
g5
tp478
a(S'to'
p479
S'to'
p480
S'TO'
p481
S'B-VP'
p482
g5
tp483
a(S'characterize'
p484
S'characterize'
p485
S'VB'
p486
S'I-VP'
p487
g5
tp488
a(S'cis-'
p489
S'cis-'
p490
S'JJ'
p491
S'B-NP'
p492
g5
tp493
a(S'and'
p494
S'and'
p495
S'CC'
p496
S'I-NP'
p497
g5
tp498
a(S'trans-eQTLs'
p499
S'trans-eQTLs'
p500
S'JJ'
p501
S'I-NP'
p502
g5
tp503
a(S'and'
p504
S'and'
p505
S'CC'
p506
S'I-NP'
p507
g5
tp508
a(S'determine'
p509
S'determine'
p510
S'JJ'
p511
S'I-NP'
p512
g5
tp513
a(S'if'
p514
S'if'
p515
S'IN'
p516
S'B-SBAR'
p517
g5
tp518
a(S'observed'
p519
S'observe'
p520
S'VBN'
p521
S'B-NP'
p522
g5
tp523
a(S'trans-eQTL'
p524
S'trans-eQTL'
p525
S'NN'
p526
S'I-NP'
p527
g5
tp528
a(S'associations'
p529
S'association'
p530
S'NNS'
p531
S'I-NP'
p532
g5
tp533
a(S'are'
p534
S'be'
p535
S'VBP'
p536
S'B-VP'
p537
g5
tp538
a(S'mediated'
p539
S'mediate'
p540
S'VBN'
p541
S'I-VP'
p542
g5
tp543
a(S'by'
p544
S'by'
p545
S'IN'
p546
S'B-PP'
p547
g5
tp548
a(S'expression'
p549
S'expression'
p550
S'NN'
p551
S'B-NP'
p552
g5
tp553
a(S'of'
p554
S'of'
p555
S'IN'
p556
S'B-PP'
p557
g5
tp558
a(S'transcripts'
p559
S'transcript'
p560
S'NNS'
p561
S'B-NP'
p562
g5
tp563
a(S'in'
p564
S'in'
p565
S'IN'
p566
S'B-PP'
p567
g5
tp568
a(S'cis'
p569
S'cis'
p570
S'NN'
p571
S'B-NP'
p572
g5
tp573
a(S'with'
p574
S'with'
p575
S'IN'
p576
S'B-PP'
p577
g5
tp578
a(S'the'
p579
S'the'
p580
S'DT'
p581
S'B-NP'
p582
g5
tp583
a(S'SNPs'
p584
S'SNP'
p585
S'NNS'
p586
S'I-NP'
p587
S'B-protein'
p588
tp589
a(S'showing'
p590
S'show'
p591
S'VBG'
p592
S'B-VP'
p593
g5
tp594
a(S'trans-association'
p595
S'trans-association'
p596
S'NN'
p597
S'B-NP'
p598
g5
tp599
a(g77
g77
g77
g5
g5
tp600
a(S'using'
p601
S'use'
p602
S'VBG'
p603
S'B-VP'
p604
g5
tp605
a(S'Sobel'
p606
S'Sobel'
p607
S'NNP'
p608
S'B-NP'
p609
g5
tp610
a(S'tests'
p611
S'test'
p612
S'NNS'
p613
S'I-NP'
p614
g5
tp615
a(S'of'
p616
S'of'
p617
S'IN'
p618
S'B-PP'
p619
g5
tp620
a(S'mediation.'
p621
S'mediation.'
p622
S'NN'
p623
S'B-NP'
p624
g5
tp625
a(S'We'
p626
S'We'
p627
S'PRP'
p628
S'B-NP'
p629
g5
tp630
a(S'observed'
p631
S'observe'
p632
S'VBD'
p633
S'B-VP'
p634
g5
tp635
a(S'434'
p636
S'434'
p637
S'CD'
p638
S'B-NP'
p639
g5
tp640
a(S'independent'
p641
S'independent'
p642
S'JJ'
p643
S'I-NP'
p644
g5
tp645
a(S'trans-eQTL'
p646
S'trans-eQTL'
p647
S'NN'
p648
S'I-NP'
p649
g5
tp650
a(S'associations'
p651
S'association'
p652
S'NNS'
p653
S'I-NP'
p654
g5
tp655
a(S'at'
p656
S'at'
p657
S'IN'
p658
S'B-PP'
p659
g5
tp660
a(g54
g54
S'DT'
p661
S'B-NP'
p662
g5
tp663
a(S'false-discovery'
p664
S'false-discovery'
p665
S'JJ'
p666
S'I-NP'
p667
g5
tp668
a(S'rate'
p669
S'rate'
p670
S'NN'
p671
S'I-NP'
p672
g5
tp673
a(S'of'
p674
S'of'
p675
S'IN'
p676
S'B-PP'
p677
g5
tp678
a(S'0.05'
p679
S'0.05'
p680
S'CD'
p681
S'B-NP'
p682
g5
tp683
a(g77
g77
g77
g5
g5
tp684
a(S'and'
p685
S'and'
p686
S'CC'
p687
g5
g5
tp688
a(S'189'
p689
S'189'
p690
S'CD'
p691
S'B-NP'
p692
g5
tp693
a(S'of'
p694
S'of'
p695
S'IN'
p696
S'B-PP'
p697
g5
tp698
a(S'these'
p699
S'these'
p700
S'DT'
p701
S'B-NP'
p702
g5
tp703
a(S'trans-eQTLs'
p704
S'trans-eQTL'
p705
S'NNS'
p706
S'I-NP'
p707
g5
tp708
a(S'were'
p709
S'be'
p710
S'VBD'
p711
S'B-VP'
p712
g5
tp713
a(S'also'
p714
S'also'
p715
S'RB'
p716
S'B-ADVP'
p717
g5
tp718
a(S'cis-eQTLs'
p719
S'cis-eQTL'
p720
S'NNS'
p721
S'B-NP'
p722
g5
tp723
a(g175
g175
g175
g5
g5
tp724
a(S'enrichment'
p725
S'enrichment'
p726
S'NN'
p727
S'B-NP'
p728
g5
tp729
a(S'P'
p730
g730
S'NN'
p731
S'I-NP'
p732
g5
tp733
a(S'<'
p734
g734
S'SYM'
p735
S'B-NP'
p736
g5
tp737
a(S'0.0001'
p738
S'0.0001'
p739
S'CD'
p740
S'I-NP'
p741
g5
tp742
a(g209
g209
g209
g5
g5
tp743
a(g95
g95
g95
g5
g5
tp744
a(S'Among'
p745
S'Among'
p746
S'IN'
p747
S'B-PP'
p748
g5
tp749
a(S'these'
p750
S'these'
p751
S'DT'
p752
S'B-NP'
p753
g5
tp754
a(S'189'
p755
S'189'
p756
S'CD'
p757
S'I-NP'
p758
g5
tp759
a(S'trans-eQTL'
p760
S'trans-eQTL'
p761
S'NN'
p762
S'I-NP'
p763
g5
tp764
a(S'associations'
p765
S'association'
p766
S'NNS'
p767
S'I-NP'
p768
g5
tp769
a(g77
g77
g77
g5
g5
tp770
a(S'39'
p771
S'39'
p772
S'CD'
p773
S'B-NP'
p774
g5
tp775
a(S'were'
p776
S'be'
p777
S'VBD'
p778
S'B-VP'
p779
g5
tp780
a(S'significantly'
p781
S'significantly'
p782
S'RB'
p783
S'I-VP'
p784
g5
tp785
a(S'attenuated'
p786
S'attenuate'
p787
S'VBN'
p788
S'I-VP'
p789
g5
tp790
a(S'after'
p791
S'after'
p792
S'IN'
p793
S'B-PP'
p794
g5
tp795
a(S'adjusting'
p796
S'adjust'
p797
S'VBG'
p798
S'B-VP'
p799
g5
tp800
a(S'for'
p801
S'for'
p802
S'IN'
p803
S'B-PP'
p804
g5
tp805
a(g54
g54
S'DT'
p806
S'B-NP'
p807
g5
tp808
a(S'cis-mediator'
p809
S'cis-mediator'
p810
S'NN'
p811
S'I-NP'
p812
S'B-protein'
p813
tp814
a(S'based'
p815
S'base'
p816
S'VBN'
p817
S'B-PP'
p818
g5
tp819
a(S'on'
p820
S'on'
p821
S'IN'
p822
S'B-PP'
p823
g5
tp824
a(S'Sobel'
p825
S'Sobel'
p826
S'NNP'
p827
S'B-NP'
p828
g5
tp829
a(g730
g730
S'NN'
p830
S'I-NP'
p831
g5
tp832
a(g734
g734
S'SYM'
p833
g5
g5
tp834
a(S'10-5.'
p835
S'10-5.'
p836
S'CD'
p837
S'B-NP'
p838
g5
tp839
a(S'We'
p840
S'We'
p841
S'PRP'
p842
S'B-NP'
p843
g5
tp844
a(S'attempted'
p845
S'attempt'
p846
S'VBD'
p847
S'B-VP'
p848
g5
tp849
a(S'to'
p850
S'to'
p851
S'TO'
p852
S'I-VP'
p853
g5
tp854
a(S'replicate'
p855
S'replicate'
p856
S'VB'
p857
S'I-VP'
p858
g5
tp859
a(S'21'
p860
S'21'
p861
S'CD'
p862
S'B-NP'
p863
g5
tp864
a(S'of'
p865
S'of'
p866
S'IN'
p867
S'B-PP'
p868
g5
tp869
a(S'these'
p870
S'these'
p871
S'DT'
p872
S'B-NP'
p873
g5
tp874
a(S'mediation'
p875
S'mediation'
p876
S'NN'
p877
S'I-NP'
p878
g5
tp879
a(S'signals'
p880
S'signal'
p881
S'NNS'
p882
S'I-NP'
p883
g5
tp884
a(S'in'
p885
S'in'
p886
S'IN'
p887
S'B-PP'
p888
g5
tp889
a(S'two'
p890
S'two'
p891
S'CD'
p892
S'B-NP'
p893
g5
tp894
a(S'European'
p895
S'European'
p896
S'JJ'
p897
S'I-NP'
p898
g5
tp899
a(S'cohorts'
p900
S'cohort'
p901
S'NNS'
p902
S'I-NP'
p903
g5
tp904
a(g77
g77
g77
g5
g5
tp905
a(S'and'
p906
S'and'
p907
S'CC'
p908
g5
g5
tp909
a(S'while'
p910
S'while'
p911
S'IN'
p912
S'B-SBAR'
p913
g5
tp914
a(S'only'
p915
S'only'
p916
S'RB'
p917
S'B-NP'
p918
g5
tp919
a(S'7'
p920
g920
S'CD'
p921
S'I-NP'
p922
g5
tp923
a(S'trans-eQTL'
p924
S'trans-eQTL'
p925
S'NN'
p926
S'I-NP'
p927
g5
tp928
a(S'associations'
p929
S'association'
p930
S'NNS'
p931
S'I-NP'
p932
g5
tp933
a(S'were'
p934
S'be'
p935
S'VBD'
p936
S'B-VP'
p937
g5
tp938
a(S'present'
p939
S'present'
p940
S'JJ'
p941
S'B-ADJP'
p942
g5
tp943
a(S'in'
p944
S'in'
p945
S'IN'
p946
S'B-PP'
p947
g5
tp948
a(S'one'
p949
S'one'
p950
S'CD'
p951
S'B-NP'
p952
g5
tp953
a(S'or'
p954
S'or'
p955
S'CC'
p956
g5
g5
tp957
a(S'both'
p958
S'both'
p959
S'DT'
p960
S'B-NP'
p961
g5
tp962
a(S'cohorts'
p963
S'cohort'
p964
S'NNS'
p965
S'I-NP'
p966
g5
tp967
a(g77
g77
g77
g5
g5
tp968
a(S'6'
p969
g969
S'CD'
p970
S'B-NP'
p971
g5
tp972
a(S'showed'
p973
S'show'
p974
S'VBD'
p975
S'B-VP'
p976
g5
tp977
a(S'evidence'
p978
S'evidence'
p979
S'NN'
p980
S'B-NP'
p981
g5
tp982
a(S'of'
p983
S'of'
p984
S'IN'
p985
S'B-PP'
p986
g5
tp987
a(S'cis-mediation.'
p988
S'cis-mediation.'
p989
S'JJ'
p990
S'B-NP'
p991
g5
tp992
a(S'Analyses'
p993
S'Analysis'
p994
S'NNS'
p995
S'I-NP'
p996
g5
tp997
a(S'of'
p998
S'of'
p999
S'IN'
p1000
S'B-PP'
p1001
g5
tp1002
a(S'simulated'
p1003
S'simulated'
p1004
S'JJ'
p1005
S'B-NP'
p1006
g5
tp1007
a(S'data'
p1008
S'datum'
p1009
S'NNS'
p1010
S'I-NP'
p1011
g5
tp1012
a(S'show'
p1013
S'show'
p1014
S'VBP'
p1015
S'B-VP'
p1016
g5
tp1017
a(S'that'
p1018
S'that'
p1019
S'IN'
p1020
S'B-SBAR'
p1021
g5
tp1022
a(S'complete'
p1023
S'complete'
p1024
S'JJ'
p1025
S'B-NP'
p1026
g5
tp1027
a(S'mediation'
p1028
S'mediation'
p1029
S'NN'
p1030
S'I-NP'
p1031
g5
tp1032
a(S'will'
p1033
S'will'
p1034
S'MD'
p1035
S'B-VP'
p1036
g5
tp1037
a(S'be'
p1038
S'be'
p1039
S'VB'
p1040
S'I-VP'
p1041
g5
tp1042
a(S'observed'
p1043
S'observe'
p1044
S'VBN'
p1045
S'I-VP'
p1046
g5
tp1047
a(S'as'
p1048
S'as'
p1049
S'IN'
p1050
S'B-PP'
p1051
g5
tp1052
a(S'partial'
p1053
S'partial'
p1054
S'JJ'
p1055
S'B-NP'
p1056
g5
tp1057
a(S'mediation'
p1058
S'mediation'
p1059
S'NN'
p1060
S'I-NP'
p1061
g5
tp1062
a(S'in'
p1063
S'in'
p1064
S'IN'
p1065
S'B-PP'
p1066
g5
tp1067
a(S'the'
p1068
S'the'
p1069
S'DT'
p1070
S'B-NP'
p1071
g5
tp1072
a(S'presence'
p1073
S'presence'
p1074
S'NN'
p1075
S'I-NP'
p1076
g5
tp1077
a(S'of'
p1078
S'of'
p1079
S'IN'
p1080
S'B-PP'
p1081
g5
tp1082
a(S'mediator'
p1083
S'mediator'
p1084
S'NN'
p1085
S'B-NP'
p1086
g5
tp1087
a(S'measurement'
p1088
S'measurement'
p1089
S'NN'
p1090
S'I-NP'
p1091
g5
tp1092
a(S'error'
p1093
S'error'
p1094
S'NN'
p1095
S'I-NP'
p1096
g5
tp1097
a(S'or'
p1098
S'or'
p1099
S'CC'
p1100
g5
g5
tp1101
a(S'imperfect'
p1102
S'imperfect'
p1103
S'JJ'
p1104
S'B-NP'
p1105
g5
tp1106
a(S'LD'
p1107
S'LD'
p1108
S'NN'
p1109
S'I-NP'
p1110
g5
tp1111
a(S'between'
p1112
S'between'
p1113
S'IN'
p1114
S'B-PP'
p1115
g5
tp1116
a(S'measured'
p1117
S'measure'
p1118
S'VBN'
p1119
S'B-NP'
p1120
g5
tp1121
a(S'and'
p1122
S'and'
p1123
S'CC'
p1124
S'I-NP'
p1125
g5
tp1126
a(S'causal'
p1127
S'causal'
p1128
S'JJ'
p1129
S'I-NP'
p1130
g5
tp1131
a(S'variants.'
p1132
S'variants.'
p1133
S'NN'
p1134
S'I-NP'
p1135
g5
tp1136
a(S'Our'
p1137
S'Our'
p1138
S'PRP$'
p1139
S'B-NP'
p1140
g5
tp1141
a(S'data'
p1142
S'datum'
p1143
S'NNS'
p1144
S'I-NP'
p1145
g5
tp1146
a(S'demonstrates'
p1147
S'demonstrate'
p1148
S'VBZ'
p1149
S'B-VP'
p1150
g5
tp1151
a(S'that'
p1152
S'that'
p1153
S'IN'
p1154
S'B-SBAR'
p1155
g5
tp1156
a(S'trans-associations'
p1157
S'trans-association'
p1158
S'NNS'
p1159
S'B-NP'
p1160
g5
tp1161
a(S'can'
p1162
S'can'
p1163
S'MD'
p1164
S'B-VP'
p1165
g5
tp1166
a(S'become'
p1167
S'become'
p1168
S'VB'
p1169
S'I-VP'
p1170
g5
tp1171
a(S'significantly'
p1172
S'significantly'
p1173
S'RB'
p1174
S'B-ADJP'
p1175
g5
tp1176
a(S'stronger'
p1177
S'strong'
p1178
S'JJR'
p1179
S'I-ADJP'
p1180
g5
tp1181
a(S'or'
p1182
S'or'
p1183
S'CC'
p1184
g5
g5
tp1185
a(S'switch'
p1186
S'switch'
p1187
S'VB'
p1188
S'B-VP'
p1189
g5
tp1190
a(S'directions'
p1191
S'direction'
p1192
S'NNS'
p1193
S'B-NP'
p1194
g5
tp1195
a(S'after'
p1196
S'after'
p1197
S'IN'
p1198
S'B-PP'
p1199
g5
tp1200
a(S'adjusting'
p1201
S'adjust'
p1202
S'VBG'
p1203
S'B-VP'
p1204
g5
tp1205
a(S'for'
p1206
S'for'
p1207
S'IN'
p1208
S'B-PP'
p1209
g5
tp1210
a(g54
g54
S'DT'
p1211
S'B-NP'
p1212
g5
tp1213
a(S'potential'
p1214
S'potential'
p1215
S'JJ'
p1216
S'I-NP'
p1217
g5
tp1218
a(S'mediator.'
p1219
S'mediator.'
p1220
S'NN'
p1221
S'I-NP'
p1222
g5
tp1223
a(S'Using'
p1224
S'Use'
p1225
S'VBG'
p1226
S'B-VP'
p1227
g5
tp1228
a(S'simulated'
p1229
S'simulated'
p1230
S'JJ'
p1231
S'B-NP'
p1232
g5
tp1233
a(S'data'
p1234
S'datum'
p1235
S'NNS'
p1236
S'I-NP'
p1237
g5
tp1238
a(g77
g77
g77
g5
g5
tp1239
a(S'we'
p1240
S'we'
p1241
S'PRP'
p1242
S'B-NP'
p1243
g5
tp1244
a(S'demonstrate'
p1245
S'demonstrate'
p1246
S'VBP'
p1247
S'B-VP'
p1248
g5
tp1249
a(S'that'
p1250
S'that'
p1251
S'IN'
p1252
S'B-SBAR'
p1253
g5
tp1254
a(S'this'
p1255
S'this'
p1256
S'DT'
p1257
S'B-NP'
p1258
g5
tp1259
a(S'phenomenon'
p1260
S'phenomenon'
p1261
S'NN'
p1262
S'I-NP'
p1263
g5
tp1264
a(S'is'
p1265
S'be'
p1266
S'VBZ'
p1267
S'B-VP'
p1268
g5
tp1269
a(S'expected'
p1270
S'expect'
p1271
S'VBN'
p1272
S'I-VP'
p1273
g5
tp1274
a(S'in'
p1275
S'in'
p1276
S'IN'
p1277
S'B-PP'
p1278
g5
tp1279
a(S'the'
p1280
S'the'
p1281
S'DT'
p1282
S'I-PP'
p1283
g5
tp1284
a(S'presence'
p1285
S'presence'
p1286
S'NN'
p1287
S'I-PP'
p1288
g5
tp1289
a(S'of'
p1290
S'of'
p1291
S'IN'
p1292
S'I-PP'
p1293
g5
tp1294
a(S'strong'
p1295
S'strong'
p1296
S'JJ'
p1297
S'B-NP'
p1298
g5
tp1299
a(S'cis-trans'
p1300
S'cis-trans'
p1301
S'JJ'
p1302
S'I-NP'
p1303
g5
tp1304
a(S'confounding'
p1305
S'confounding'
p1306
S'NN'
p1307
S'I-NP'
p1308
g5
tp1309
a(S'and'
p1310
S'and'
p1311
S'CC'
p1312
g5
g5
tp1313
a(S'when'
p1314
S'when'
p1315
S'WRB'
p1316
S'B-ADVP'
p1317
g5
tp1318
a(S'the'
p1319
S'the'
p1320
S'DT'
p1321
S'B-NP'
p1322
g5
tp1323
a(S'measured'
p1324
S'measure'
p1325
S'VBN'
p1326
S'I-NP'
p1327
g5
tp1328
a(S'cis-transcript'
p1329
S'cis-transcript'
p1330
S'NN'
p1331
S'I-NP'
p1332
g5
tp1333
a(S'is'
p1334
S'be'
p1335
S'VBZ'
p1336
S'B-VP'
p1337
g5
tp1338
a(S'correlated'
p1339
S'correlate'
p1340
S'VBN'
p1341
S'I-VP'
p1342
g5
tp1343
a(S'with'
p1344
S'with'
p1345
S'IN'
p1346
S'B-PP'
p1347
g5
tp1348
a(S'the'
p1349
S'the'
p1350
S'DT'
p1351
S'B-NP'
p1352
g5
tp1353
a(S'true'
p1354
S'true'
p1355
S'JJ'
p1356
S'I-NP'
p1357
g5
tp1358
a(g175
g175
g175
g5
g5
tp1359
a(S'unmeasured'
p1360
S'unmeasured'
p1361
S'JJ'
p1362
S'B-ADJP'
p1363
g5
tp1364
a(g209
g209
g209
g5
g5
tp1365
a(S'mediator.'
p1366
S'mediator.'
p1367
S'NN'
p1368
S'B-NP'
p1369
g5
tp1370
a(S'In'
p1371
S'In'
p1372
S'IN'
p1373
S'B-PP'
p1374
g5
tp1375
a(S'conclusion'
p1376
S'conclusion'
p1377
S'NN'
p1378
S'B-NP'
p1379
g5
tp1380
a(g77
g77
g77
g5
g5
tp1381
a(S'by'
p1382
S'by'
p1383
S'IN'
p1384
S'B-PP'
p1385
g5
tp1386
a(S'applying'
p1387
S'apply'
p1388
S'VBG'
p1389
S'B-VP'
p1390
g5
tp1391
a(S'mediation'
p1392
S'mediation'
p1393
S'NN'
p1394
S'B-NP'
p1395
g5
tp1396
a(S'analysis'
p1397
S'analysis'
p1398
S'NN'
p1399
S'I-NP'
p1400
g5
tp1401
a(S'to'
p1402
S'to'
p1403
S'TO'
p1404
S'B-PP'
p1405
g5
tp1406
a(S'eQTL'
p1407
S'eQTL'
p1408
S'NN'
p1409
S'B-NP'
p1410
g5
tp1411
a(S'data'
p1412
S'datum'
p1413
S'NNS'
p1414
S'I-NP'
p1415
g5
tp1416
a(g77
g77
g77
g5
g5
tp1417
a(S'we'
p1418
S'we'
p1419
S'PRP'
p1420
S'B-NP'
p1421
g5
tp1422
a(S'show'
p1423
S'show'
p1424
S'VBP'
p1425
S'B-VP'
p1426
g5
tp1427
a(S'that'
p1428
S'that'
p1429
S'IN'
p1430
S'B-SBAR'
p1431
g5
tp1432
a(g54
g54
S'DT'
p1433
S'B-NP'
p1434
g5
tp1435
a(S'substantial'
p1436
S'substantial'
p1437
S'JJ'
p1438
S'I-NP'
p1439
g5
tp1440
a(S'fraction'
p1441
S'fraction'
p1442
S'NN'
p1443
S'I-NP'
p1444
g5
tp1445
a(S'of'
p1446
S'of'
p1447
S'IN'
p1448
S'B-PP'
p1449
g5
tp1450
a(S'observed'
p1451
S'observe'
p1452
S'VBN'
p1453
S'B-NP'
p1454
g5
tp1455
a(S'trans-eQTL'
p1456
S'trans-eQTL'
p1457
S'NN'
p1458
S'I-NP'
p1459
g5
tp1460
a(S'associations'
p1461
S'association'
p1462
S'NNS'
p1463
S'I-NP'
p1464
g5
tp1465
a(S'can'
p1466
S'can'
p1467
S'MD'
p1468
S'B-VP'
p1469
g5
tp1470
a(S'be'
p1471
S'be'
p1472
S'VB'
p1473
S'I-VP'
p1474
g5
tp1475
a(S'explained'
p1476
S'explain'
p1477
S'VBN'
p1478
S'I-VP'
p1479
g5
tp1480
a(S'by'
p1481
S'by'
p1482
S'IN'
p1483
S'B-PP'
p1484
g5
tp1485
a(S'cis-mediation.'
p1486
S'cis-mediation.'
p1487
S'JJ'
p1488
S'B-NP'
p1489
g5
tp1490
a(S'Future'
p1491
S'Future'
p1492
S'JJ'
p1493
S'I-NP'
p1494
g5
tp1495
a(S'studies'
p1496
S'study'
p1497
S'NNS'
p1498
S'I-NP'
p1499
g5
tp1500
a(S'should'
p1501
S'should'
p1502
S'MD'
p1503
S'B-VP'
p1504
g5
tp1505
a(S'focus'
p1506
S'focus'
p1507
S'VB'
p1508
S'I-VP'
p1509
g5
tp1510
a(S'on'
p1511
S'on'
p1512
S'IN'
p1513
S'B-PP'
p1514
g5
tp1515
a(S'understanding'
p1516
S'understand'
p1517
S'VBG'
p1518
S'B-VP'
p1519
g5
tp1520
a(S'the'
p1521
S'the'
p1522
S'DT'
p1523
S'B-NP'
p1524
g5
tp1525
a(S'mechanisms'
p1526
S'mechanism'
p1527
S'NNS'
p1528
S'I-NP'
p1529
g5
tp1530
a(S'underlying'
p1531
S'underlie'
p1532
S'VBG'
p1533
S'B-VP'
p1534
g5
tp1535
a(S'widespread'
p1536
S'widespread'
p1537
S'JJ'
p1538
S'B-NP'
p1539
g5
tp1540
a(S'cis-mediation'
p1541
S'cis-mediation'
p1542
S'NN'
p1543
S'I-NP'
p1544
g5
tp1545
a(S'and'
p1546
S'and'
p1547
S'CC'
p1548
g5
g5
tp1549
a(S'their'
p1550
S'their'
p1551
S'PRP$'
p1552
S'B-NP'
p1553
g5
tp1554
a(S'relevance'
p1555
S'relevance'
p1556
S'NN'
p1557
S'I-NP'
p1558
g5
tp1559
a(S'to'
p1560
S'to'
p1561
S'TO'
p1562
S'B-PP'
p1563
g5
tp1564
a(S'disease'
p1565
S'disease'
p1566
S'NN'
p1567
S'B-NP'
p1568
g5
tp1569
a(S'biology'
p1570
S'biology'
p1571
S'NN'
p1572
S'I-NP'
p1573
g5
tp1574
a(g77
g77
g77
g5
g5
tp1575
a(S'as'
p1576
S'as'
p1577
S'RB'
p1578
S'B-CONJP'
p1579
g5
tp1580
a(S'well'
p1581
S'well'
p1582
S'RB'
p1583
S'I-CONJP'
p1584
g5
tp1585
a(S'as'
p1586
S'as'
p1587
S'IN'
p1588
S'I-CONJP'
p1589
g5
tp1590
a(S'using'
p1591
S'use'
p1592
S'VBG'
p1593
S'B-VP'
p1594
g5
tp1595
a(S'mediation'
p1596
S'mediation'
p1597
S'NN'
p1598
S'B-NP'
p1599
g5
tp1600
a(S'analysis'
p1601
S'analysis'
p1602
S'NN'
p1603
S'I-NP'
p1604
g5
tp1605
a(S'to'
p1606
S'to'
p1607
S'TO'
p1608
S'B-VP'
p1609
g5
tp1610
a(S'improve'
p1611
S'improve'
p1612
S'VB'
p1613
S'I-VP'
p1614
g5
tp1615
a(S'eQTL'
p1616
S'eQTL'
p1617
S'NN'
p1618
S'B-NP'
p1619
g5
tp1620
a(S'discovery'
p1621
S'discovery'
p1622
S'NN'
p1623
S'I-NP'
p1624
g5
tp1625
a(g95
g95
g95
g5
g5
tp1626
a.