(lp0
(S'Using'
p1
S'Use'
p2
S'VBG'
p3
S'B-VP'
p4
S'O'
p5
tp6
a(S'repeated'
p7
S'repeat'
p8
S'VBN'
p9
S'B-NP'
p10
g5
tp11
a(S'measures'
p12
S'measure'
p13
S'NNS'
p14
S'I-NP'
p15
g5
tp16
a(S'of'
p17
S'of'
p18
S'IN'
p19
S'B-PP'
p20
g5
tp21
a(S'symptom'
p22
S'symptom'
p23
S'NN'
p24
S'B-NP'
p25
g5
tp26
a(S'score'
p27
S'score'
p28
S'NN'
p29
S'I-NP'
p30
g5
tp31
a(S','
p32
g32
g32
g5
g5
tp33
a(S'uroflowmetry'
p34
S'uroflowmetry'
p35
S'NN'
p36
S'B-NP'
p37
g5
tp38
a(S'and'
p39
S'and'
p40
S'CC'
p41
g5
g5
tp42
a(S'prostate'
p43
S'prostate'
p44
S'NN'
p45
S'B-NP'
p46
S'B-protein'
p47
tp48
a(S'specific'
p49
S'specific'
p50
S'JJ'
p51
S'I-NP'
p52
S'I-protein'
p53
tp54
a(S'antigen'
p55
S'antigen'
p56
S'NN'
p57
S'I-NP'
p58
S'I-protein'
p59
tp60
a(S'in'
p61
S'in'
p62
S'IN'
p63
S'B-PP'
p64
g5
tp65
a(S'the'
p66
S'the'
p67
S'DT'
p68
S'B-NP'
p69
g5
tp70
a(S'clinical'
p71
S'clinical'
p72
S'JJ'
p73
S'I-NP'
p74
g5
tp75
a(S'management'
p76
S'management'
p77
S'NN'
p78
S'I-NP'
p79
g5
tp80
a(S'of'
p81
S'of'
p82
S'IN'
p83
S'B-PP'
p84
g5
tp85
a(S'prostate'
p86
S'prostate'
p87
S'NN'
p88
S'B-NP'
p89
g5
tp90
a(S'disease.'
p91
S'disease.'
p92
S'NN'
p93
S'I-NP'
p94
g5
tp95
a(S'Benign'
p96
S'Benign'
p97
S'NNP'
p98
S'I-NP'
p99
g5
tp100
a(S'Prostatic'
p101
S'Prostatic'
p102
S'NNP'
p103
S'I-NP'
p104
g5
tp105
a(S'Hyperplasia'
p106
S'Hyperplasia'
p107
S'NNP'
p108
S'I-NP'
p109
g5
tp110
a(S'Treatment'
p111
S'Treatment'
p112
S'NNP'
p113
S'I-NP'
p114
g5
tp115
a(S'Outcomes'
p116
S'Outcomes'
p117
S'NNP'
p118
S'I-NP'
p119
g5
tp120
a(S'Study'
p121
S'Study'
p122
S'NNP'
p123
S'I-NP'
p124
g5
tp125
a(S'Group'
p126
S'Group'
p127
S'NNP'
p128
S'I-NP'
p129
g5
tp130
a(S'.'
p131
g131
g131
g5
g5
tp132
a(S'Measurements'
p133
S'Measurement'
p134
S'NNS'
p135
S'B-NP'
p136
g5
tp137
a(S'of'
p138
S'of'
p139
S'IN'
p140
S'B-PP'
p141
g5
tp142
a(S'American'
p143
S'American'
p144
S'NNP'
p145
S'B-NP'
p146
g5
tp147
a(S'Urological'
p148
S'Urological'
p149
S'NNP'
p150
S'I-NP'
p151
g5
tp152
a(S'Association'
p153
S'Association'
p154
S'NNP'
p155
S'I-NP'
p156
g5
tp157
a(S'symptom'
p158
S'symptom'
p159
S'NN'
p160
S'I-NP'
p161
g5
tp162
a(S'score'
p163
S'score'
p164
S'NN'
p165
S'I-NP'
p166
g5
tp167
a(g32
g32
g32
g5
g5
tp168
a(S'peak'
p169
S'peak'
p170
S'JJ'
p171
S'B-NP'
p172
g5
tp173
a(S'urine'
p174
S'urine'
p175
S'NN'
p176
S'I-NP'
p177
g5
tp178
a(S'flow'
p179
S'flow'
p180
S'NN'
p181
S'I-NP'
p182
g5
tp183
a(S'rate'
p184
S'rate'
p185
S'NN'
p186
S'I-NP'
p187
g5
tp188
a(S'and'
p189
S'and'
p190
S'CC'
p191
g5
g5
tp192
a(S'prostate'
p193
S'prostate'
p194
S'NN'
p195
S'B-NP'
p196
S'B-protein'
p197
tp198
a(S'specific'
p199
S'specific'
p200
S'JJ'
p201
S'I-NP'
p202
S'I-protein'
p203
tp204
a(S'antigen'
p205
S'antigen'
p206
S'NN'
p207
S'I-NP'
p208
S'I-protein'
p209
tp210
a(S'('
p211
g211
g211
g5
g5
tp212
a(S'PSA'
p213
S'PSA'
p214
S'NN'
p215
S'B-NP'
p216
S'B-protein'
p217
tp218
a(S')'
p219
g219
g219
g5
g5
tp220
a(S'are'
p221
S'be'
p222
S'VBP'
p223
S'B-VP'
p224
g5
tp225
a(S'often'
p226
S'often'
p227
S'RB'
p228
S'I-VP'
p229
g5
tp230
a(S'followed'
p231
S'follow'
p232
S'VBN'
p233
S'I-VP'
p234
g5
tp235
a(S'over'
p236
S'over'
p237
S'IN'
p238
S'B-PP'
p239
g5
tp240
a(S'time'
p241
S'time'
p242
S'NN'
p243
S'B-NP'
p244
g5
tp245
a(S'in'
p246
S'in'
p247
S'IN'
p248
S'B-PP'
p249
g5
tp250
a(S'urological'
p251
S'urological'
p252
S'JJ'
p253
S'B-NP'
p254
g5
tp255
a(S'management.'
p256
S'management.'
p257
S'NN'
p258
S'I-NP'
p259
g5
tp260
a(S'However'
p261
S'However'
p262
S'RB'
p263
S'B-ADVP'
p264
g5
tp265
a(g32
g32
g32
g5
g5
tp266
a(S'their'
p267
S'their'
p268
S'PRP$'
p269
S'B-NP'
p270
g5
tp271
a(S'interpretation'
p272
S'interpretation'
p273
S'NN'
p274
S'I-NP'
p275
g5
tp276
a(S'is'
p277
S'be'
p278
S'VBZ'
p279
S'B-VP'
p280
g5
tp281
a(S'confounded'
p282
S'confound'
p283
S'VBN'
p284
S'I-VP'
p285
g5
tp286
a(S'by'
p287
S'by'
p288
S'IN'
p289
S'B-PP'
p290
g5
tp291
a(S'within-patient'
p292
S'within-patient'
p293
S'JJ'
p294
S'B-NP'
p295
g5
tp296
a(S'variability'
p297
S'variability'
p298
S'NN'
p299
S'I-NP'
p300
g5
tp301
a(S'due'
p302
S'due'
p303
S'JJ'
p304
S'B-ADJP'
p305
g5
tp306
a(S'to'
p307
S'to'
p308
S'TO'
p309
S'B-VP'
p310
g5
tp311
a(S'chance.'
p312
S'chance.'
p313
S'VB'
p314
S'I-VP'
p315
g5
tp316
a(S'Data'
p317
S'Data'
p318
S'NN'
p319
S'B-NP'
p320
g5
tp321
a(S'from'
p322
S'from'
p323
S'IN'
p324
S'B-PP'
p325
g5
tp326
a(S'2'
p327
g327
S'CD'
p328
S'B-NP'
p329
g5
tp330
a(S'clinical'
p331
S'clinical'
p332
S'JJ'
p333
S'I-NP'
p334
g5
tp335
a(S'trials'
p336
S'trial'
p337
S'NNS'
p338
S'I-NP'
p339
g5
tp340
a(S'are'
p341
S'be'
p342
S'VBP'
p343
S'B-VP'
p344
g5
tp345
a(S'used'
p346
S'use'
p347
S'VBN'
p348
S'I-VP'
p349
g5
tp350
a(S'to'
p351
S'to'
p352
S'TO'
p353
S'B-VP'
p354
g5
tp355
a(S'examine'
p356
S'examine'
p357
S'VB'
p358
S'I-VP'
p359
g5
tp360
a(S'the'
p361
S'the'
p362
S'DT'
p363
S'B-NP'
p364
g5
tp365
a(S'magnitude'
p366
S'magnitude'
p367
S'NN'
p368
S'I-NP'
p369
g5
tp370
a(S'of'
p371
S'of'
p372
S'IN'
p373
S'B-PP'
p374
g5
tp375
a(S'this'
p376
S'this'
p377
S'DT'
p378
S'B-NP'
p379
g5
tp380
a(S'variation.'
p381
S'variation.'
p382
S'FW'
p383
S'I-NP'
p384
g5
tp385
a(S'When'
p386
S'When'
p387
S'WRB'
p388
S'B-ADVP'
p389
g5
tp390
a(S'these'
p391
S'these'
p392
S'DT'
p393
S'B-NP'
p394
g5
tp395
a(S'measures'
p396
S'measure'
p397
S'NNS'
p398
S'I-NP'
p399
g5
tp400
a(S'are'
p401
S'be'
p402
S'VBP'
p403
S'B-VP'
p404
g5
tp405
a(S'repeated'
p406
S'repeat'
p407
S'VBN'
p408
S'I-VP'
p409
g5
tp410
a(S'at'
p411
S'at'
p412
S'IN'
p413
S'B-PP'
p414
g5
tp415
a(S'a'
p416
g416
S'DT'
p417
S'B-NP'
p418
g5
tp419
a(S'short'
p420
S'short'
p421
S'JJ'
p422
S'I-NP'
p423
g5
tp424
a(S'interval'
p425
S'interval'
p426
S'NN'
p427
S'I-NP'
p428
g5
tp429
a(S'variation'
p430
S'variation'
p431
S'NN'
p432
S'I-NP'
p433
g5
tp434
a(S'is'
p435
S'be'
p436
S'VBZ'
p437
S'B-VP'
p438
g5
tp439
a(S'modest'
p440
S'modest'
p441
S'JJ'
p442
S'B-ADJP'
p443
g5
tp444
a(S'and'
p445
S'and'
p446
S'CC'
p447
g5
g5
tp448
a(S'might'
p449
S'might'
p450
S'MD'
p451
S'B-VP'
p452
g5
tp453
a(S'easily'
p454
S'easily'
p455
S'RB'
p456
S'I-VP'
p457
g5
tp458
a(S'be'
p459
S'be'
p460
S'VB'
p461
S'I-VP'
p462
g5
tp463
a(S'misinterpreted'
p464
S'misinterpret'
p465
S'VBN'
p466
S'I-VP'
p467
g5
tp468
a(S'as'
p469
S'as'
p470
S'IN'
p471
S'B-PP'
p472
g5
tp473
a(g416
g416
S'DT'
p474
S'B-NP'
p475
g5
tp476
a(S'true'
p477
S'true'
p478
S'JJ'
p479
S'I-NP'
p480
g5
tp481
a(S'change'
p482
S'change'
p483
S'NN'
p484
S'I-NP'
p485
g5
tp486
a(S'in'
p487
S'in'
p488
S'IN'
p489
S'B-PP'
p490
g5
tp491
a(S'patient'
p492
S'patient'
p493
S'NN'
p494
S'B-NP'
p495
g5
tp496
a(S'condition.'
p497
S'condition.'
p498
S'NN'
p499
S'I-NP'
p500
g5
tp501
a(S'For'
p502
S'For'
p503
S'IN'
p504
S'B-PP'
p505
g5
tp506
a(S'example'
p507
S'example'
p508
S'NN'
p509
S'B-NP'
p510
g5
tp511
a(g32
g32
g32
g5
g5
tp512
a(S'approximately'
p513
S'approximately'
p514
S'RB'
p515
S'B-NP'
p516
g5
tp517
a(S'20'
p518
S'20'
p519
S'CD'
p520
S'I-NP'
p521
g5
tp522
a(S'%'
p523
g523
S'NN'
p524
S'I-NP'
p525
g5
tp526
a(S'of'
p527
S'of'
p528
S'IN'
p529
S'B-PP'
p530
g5
tp531
a(S'patients'
p532
S'patient'
p533
S'NNS'
p534
S'B-NP'
p535
g5
tp536
a(S'might'
p537
S'might'
p538
S'MD'
p539
S'B-VP'
p540
g5
tp541
a(S'be'
p542
S'be'
p543
S'VB'
p544
S'I-VP'
p545
g5
tp546
a(S'expected'
p547
S'expect'
p548
S'VBN'
p549
S'I-VP'
p550
g5
tp551
a(S'to'
p552
S'to'
p553
S'TO'
p554
S'I-VP'
p555
g5
tp556
a(S'have'
p557
S'have'
p558
S'VB'
p559
S'I-VP'
p560
g5
tp561
a(g416
g416
S'DT'
p562
S'B-NP'
p563
g5
tp564
a(S'chance'
p565
S'chance'
p566
S'NN'
p567
S'I-NP'
p568
g5
tp569
a(S'increase'
p570
S'increase'
p571
S'NN'
p572
S'I-NP'
p573
g5
tp574
a(S'or'
p575
S'or'
p576
S'CC'
p577
g5
g5
tp578
a(S'decrease'
p579
S'decrease'
p580
S'NN'
p581
S'B-NP'
p582
g5
tp583
a(S'in'
p584
S'in'
p585
S'IN'
p586
S'B-PP'
p587
g5
tp588
a(S'symptom'
p589
S'symptom'
p590
S'NN'
p591
S'B-NP'
p592
g5
tp593
a(S'score'
p594
S'score'
p595
S'NN'
p596
S'I-NP'
p597
g5
tp598
a(S'by'
p599
S'by'
p600
S'IN'
p601
S'B-PP'
p602
g5
tp603
a(S'at'
p604
S'at'
p605
S'IN'
p606
S'B-NP'
p607
g5
tp608
a(S'least'
p609
S'least'
p610
S'JJS'
p611
S'I-NP'
p612
g5
tp613
a(S'4.9'
p614
S'4.9'
p615
S'CD'
p616
S'I-NP'
p617
g5
tp618
a(S'points'
p619
S'point'
p620
S'NNS'
p621
S'I-NP'
p622
g5
tp623
a(g32
g32
g32
g5
g5
tp624
a(S'in'
p625
S'in'
p626
S'IN'
p627
S'B-PP'
p628
g5
tp629
a(S'peak'
p630
S'peak'
p631
S'NN'
p632
S'B-NP'
p633
g5
tp634
a(S'urine'
p635
S'urine'
p636
S'NN'
p637
S'I-NP'
p638
g5
tp639
a(S'flow'
p640
S'flow'
p641
S'NN'
p642
S'I-NP'
p643
g5
tp644
a(S'rate'
p645
S'rate'
p646
S'NN'
p647
S'I-NP'
p648
g5
tp649
a(S'by'
p650
S'by'
p651
S'IN'
p652
S'B-PP'
p653
g5
tp654
a(S'at'
p655
S'at'
p656
S'IN'
p657
S'B-NP'
p658
g5
tp659
a(S'least'
p660
S'least'
p661
S'JJS'
p662
S'I-NP'
p663
g5
tp664
a(S'4.1'
p665
S'4.1'
p666
S'CD'
p667
S'I-NP'
p668
g5
tp669
a(S'ml.'
p670
S'ml.'
p671
S'NN'
p672
S'I-NP'
p673
g5
tp674
a(S'per'
p675
S'per'
p676
S'IN'
p677
S'B-PP'
p678
g5
tp679
a(S'second'
p680
S'second'
p681
S'NN'
p682
S'B-NP'
p683
g5
tp684
a(S'or'
p685
S'or'
p686
S'CC'
p687
S'B-PP'
p688
g5
tp689
a(S'in'
p690
S'in'
p691
S'IN'
p692
S'B-PP'
p693
g5
tp694
a(S'PSA'
p695
S'PSA'
p696
S'NN'
p697
S'B-NP'
p698
S'B-protein'
p699
tp700
a(S'by'
p701
S'by'
p702
S'IN'
p703
S'B-PP'
p704
g5
tp705
a(S'at'
p706
S'at'
p707
S'IN'
p708
S'B-NP'
p709
g5
tp710
a(S'least'
p711
S'least'
p712
S'JJS'
p713
S'I-NP'
p714
g5
tp715
a(S'1.6'
p716
S'1.6'
p717
S'CD'
p718
S'I-NP'
p719
g5
tp720
a(S'ng./ml.'
p721
S'ng./ml.'
p722
S'JJ'
p723
S'I-NP'
p724
g5
tp725
a(S'Clinicians'
p726
S'Clinician'
p727
S'NNPS'
p728
S'I-NP'
p729
g5
tp730
a(S'can'
p731
S'can'
p732
S'MD'
p733
S'B-VP'
p734
g5
tp735
a(S'use'
p736
S'use'
p737
S'VB'
p738
S'I-VP'
p739
g5
tp740
a(S'these'
p741
S'these'
p742
S'DT'
p743
S'B-NP'
p744
g5
tp745
a(S'data'
p746
S'datum'
p747
S'NNS'
p748
S'I-NP'
p749
g5
tp750
a(S'to'
p751
S'to'
p752
S'TO'
p753
S'B-VP'
p754
g5
tp755
a(S'help'
p756
S'help'
p757
S'VB'
p758
S'I-VP'
p759
g5
tp760
a(S'interpret'
p761
S'interpret'
p762
S'VB'
p763
S'I-VP'
p764
g5
tp765
a(S'repeated'
p766
S'repeat'
p767
S'VBN'
p768
S'B-NP'
p769
g5
tp770
a(S'measures'
p771
S'measure'
p772
S'NNS'
p773
S'I-NP'
p774
g5
tp775
a(S'of'
p776
S'of'
p777
S'IN'
p778
S'B-PP'
p779
g5
tp780
a(S'these'
p781
S'these'
p782
S'DT'
p783
S'B-NP'
p784
g5
tp785
a(S'variables'
p786
S'variable'
p787
S'NNS'
p788
S'I-NP'
p789
g5
tp790
a(S'in'
p791
S'in'
p792
S'IN'
p793
S'B-PP'
p794
g5
tp795
a(S'patients'
p796
S'patient'
p797
S'NNS'
p798
S'B-NP'
p799
g5
tp800
a(g32
g32
g32
g5
g5
tp801
a(S'and'
p802
S'and'
p803
S'CC'
p804
g5
g5
tp805
a(S'can'
p806
S'can'
p807
S'MD'
p808
S'B-VP'
p809
g5
tp810
a(S'consider'
p811
S'consider'
p812
S'VB'
p813
S'I-VP'
p814
g5
tp815
a(S'obtaining'
p816
S'obtain'
p817
S'VBG'
p818
S'I-VP'
p819
g5
tp820
a(S'paired'
p821
S'paired'
p822
S'JJ'
p823
S'B-NP'
p824
g5
tp825
a(S'measurements'
p826
S'measurement'
p827
S'NNS'
p828
S'I-NP'
p829
g5
tp830
a(S'to'
p831
S'to'
p832
S'TO'
p833
S'B-VP'
p834
g5
tp835
a(S'decrease'
p836
S'decrease'
p837
S'VB'
p838
S'I-VP'
p839
g5
tp840
a(S'the'
p841
S'the'
p842
S'DT'
p843
S'B-NP'
p844
g5
tp845
a(S'effect'
p846
S'effect'
p847
S'NN'
p848
S'I-NP'
p849
g5
tp850
a(S'of'
p851
S'of'
p852
S'IN'
p853
S'B-PP'
p854
g5
tp855
a(S'chance'
p856
S'chance'
p857
S'NN'
p858
S'B-NP'
p859
g5
tp860
a(S'variation'
p861
S'variation'
p862
S'NN'
p863
S'I-NP'
p864
g5
tp865
a(S'when'
p866
S'when'
p867
S'WRB'
p868
S'B-ADVP'
p869
g5
tp870
a(S'they'
p871
S'they'
p872
S'PRP'
p873
S'B-NP'
p874
g5
tp875
a(S'plan'
p876
S'plan'
p877
S'VBP'
p878
S'B-VP'
p879
g5
tp880
a(S'on'
p881
S'on'
p882
S'IN'
p883
S'B-PP'
p884
g5
tp885
a(S'following'
p886
S'follow'
p887
S'VBG'
p888
S'B-VP'
p889
g5
tp890
a(S'them'
p891
S'them'
p892
S'PRP'
p893
S'B-NP'
p894
g5
tp895
a(S'over'
p896
S'over'
p897
S'IN'
p898
S'B-PP'
p899
g5
tp900
a(S'time'
p901
S'time'
p902
S'NN'
p903
S'B-NP'
p904
g5
tp905
a(g131
g131
g131
g5
g5
tp906
a.