(lp0
(S'Lung'
p1
S'Lung'
p2
S'NN'
p3
S'B-NP'
p4
S'O'
p5
tp6
a(S'cancer'
p7
S'cancer'
p8
S'NN'
p9
S'I-NP'
p10
g5
tp11
a(S'diagnosis'
p12
S'diagnosis'
p13
S'NN'
p14
S'I-NP'
p15
g5
tp16
a(S'and'
p17
S'and'
p18
S'CC'
p19
S'I-NP'
p20
g5
tp21
a(S'staging'
p22
S'staging'
p23
S'NN'
p24
S'I-NP'
p25
g5
tp26
a(S'with'
p27
S'with'
p28
S'IN'
p29
S'B-PP'
p30
g5
tp31
a(S'endobronchial'
p32
S'endobronchial'
p33
S'JJ'
p34
S'B-NP'
p35
g5
tp36
a(S'ultrasound-guided'
p37
S'ultrasound-guided'
p38
S'JJ'
p39
S'I-NP'
p40
g5
tp41
a(S'transbronchial'
p42
S'transbronchial'
p43
S'JJ'
p44
S'I-NP'
p45
g5
tp46
a(S'needle'
p47
S'needle'
p48
S'NN'
p49
S'I-NP'
p50
g5
tp51
a(S'aspiration'
p52
S'aspiration'
p53
S'NN'
p54
S'I-NP'
p55
g5
tp56
a(S'compared'
p57
S'compare'
p58
S'VBN'
p59
S'B-PP'
p60
g5
tp61
a(S'with'
p62
S'with'
p63
S'IN'
p64
S'B-PP'
p65
g5
tp66
a(S'conventional'
p67
S'conventional'
p68
S'JJ'
p69
S'B-NP'
p70
g5
tp71
a(S'approaches'
p72
S'approach'
p73
S'NNS'
p74
S'I-NP'
p75
g5
tp76
a(S':'
p77
g77
g77
g5
g5
tp78
a(S'an'
p79
S'an'
p80
S'DT'
p81
S'B-NP'
p82
g5
tp83
a(S'open-label'
p84
S'open-label'
p85
S'JJ'
p86
S'I-NP'
p87
g5
tp88
a(S','
p89
g89
g89
S'I-NP'
p90
g5
tp91
a(S'pragmatic'
p92
S'pragmatic'
p93
S'JJ'
p94
S'I-NP'
p95
g5
tp96
a(g89
g89
g89
g5
g5
tp97
a(S'randomised'
p98
S'randomise'
p99
S'VBD'
p100
S'B-VP'
p101
g5
tp102
a(S'controlled'
p103
S'control'
p104
S'VBN'
p105
S'B-NP'
p106
g5
tp107
a(S'trial'
p108
S'trial'
p109
S'NN'
p110
S'I-NP'
p111
g5
tp112
a(S'.'
p113
g113
g113
g5
g5
tp114
a(S'BACKGROUND'
p115
S'BACKGROUND'
p116
S'NN'
p117
S'B-NP'
p118
g5
tp119
a(S'The'
p120
S'The'
p121
S'DT'
p122
S'B-NP'
p123
g5
tp124
a(S'diagnosis'
p125
S'diagnosis'
p126
S'NN'
p127
S'I-NP'
p128
g5
tp129
a(S'and'
p130
S'and'
p131
S'CC'
p132
S'I-NP'
p133
g5
tp134
a(S'staging'
p135
S'staging'
p136
S'NN'
p137
S'I-NP'
p138
g5
tp139
a(S'of'
p140
S'of'
p141
S'IN'
p142
S'B-PP'
p143
g5
tp144
a(S'lung'
p145
S'lung'
p146
S'NN'
p147
S'B-NP'
p148
g5
tp149
a(S'cancer'
p150
S'cancer'
p151
S'NN'
p152
S'I-NP'
p153
g5
tp154
a(S'is'
p155
S'be'
p156
S'VBZ'
p157
S'B-VP'
p158
g5
tp159
a(S'an'
p160
S'an'
p161
S'DT'
p162
S'B-NP'
p163
g5
tp164
a(S'important'
p165
S'important'
p166
S'JJ'
p167
S'I-NP'
p168
g5
tp169
a(S'process'
p170
S'process'
p171
S'NN'
p172
S'I-NP'
p173
g5
tp174
a(S'that'
p175
S'that'
p176
S'WDT'
p177
S'B-NP'
p178
g5
tp179
a(S'identifies'
p180
S'identify'
p181
S'VBZ'
p182
S'B-VP'
p183
g5
tp184
a(S'treatment'
p185
S'treatment'
p186
S'NN'
p187
S'B-NP'
p188
g5
tp189
a(S'options'
p190
S'option'
p191
S'NNS'
p192
S'I-NP'
p193
g5
tp194
a(S'and'
p195
S'and'
p196
S'CC'
p197
S'I-NP'
p198
g5
tp199
a(S'guides'
p200
S'guide'
p201
S'NNS'
p202
S'I-NP'
p203
g5
tp204
a(S'disease'
p205
S'disease'
p206
S'NN'
p207
S'I-NP'
p208
g5
tp209
a(S'prognosis.'
p210
S'prognosis.'
p211
S'NN'
p212
S'I-NP'
p213
g5
tp214
a(S'We'
p215
S'We'
p216
S'PRP'
p217
S'B-NP'
p218
g5
tp219
a(S'aimed'
p220
S'aim'
p221
S'VBD'
p222
S'B-VP'
p223
g5
tp224
a(S'to'
p225
S'to'
p226
S'TO'
p227
S'I-VP'
p228
g5
tp229
a(S'assess'
p230
S'assess'
p231
S'VB'
p232
S'I-VP'
p233
g5
tp234
a(S'endobronchial'
p235
S'endobronchial'
p236
S'JJ'
p237
S'B-NP'
p238
g5
tp239
a(S'ultrasound-guided'
p240
S'ultrasound-guided'
p241
S'JJ'
p242
S'I-NP'
p243
g5
tp244
a(S'transbronchial'
p245
S'transbronchial'
p246
S'JJ'
p247
S'I-NP'
p248
g5
tp249
a(S'needle'
p250
S'needle'
p251
S'NN'
p252
S'I-NP'
p253
g5
tp254
a(S'aspiration'
p255
S'aspiration'
p256
S'NN'
p257
S'I-NP'
p258
g5
tp259
a(S'as'
p260
S'as'
p261
S'IN'
p262
S'B-PP'
p263
g5
tp264
a(S'an'
p265
S'an'
p266
S'DT'
p267
S'B-NP'
p268
g5
tp269
a(S'initial'
p270
S'initial'
p271
S'JJ'
p272
S'I-NP'
p273
g5
tp274
a(S'investigation'
p275
S'investigation'
p276
S'NN'
p277
S'I-NP'
p278
g5
tp279
a(S'technique'
p280
S'technique'
p281
S'NN'
p282
S'I-NP'
p283
g5
tp284
a(S'for'
p285
S'for'
p286
S'IN'
p287
S'B-PP'
p288
g5
tp289
a(S'patients'
p290
S'patient'
p291
S'NNS'
p292
S'B-NP'
p293
g5
tp294
a(S'with'
p295
S'with'
p296
S'IN'
p297
S'B-PP'
p298
g5
tp299
a(S'suspected'
p300
S'suspect'
p301
S'VBN'
p302
S'B-NP'
p303
g5
tp304
a(S'lung'
p305
S'lung'
p306
S'NN'
p307
S'I-NP'
p308
g5
tp309
a(S'cancer'
p310
S'cancer'
p311
S'NN'
p312
S'I-NP'
p313
g5
tp314
a(g113
g113
g113
g5
g5
tp315
a(S'METHODS'
p316
S'METHODS'
p317
S'NNS'
p318
S'B-NP'
p319
g5
tp320
a(S'In'
p321
S'In'
p322
S'IN'
p323
S'B-PP'
p324
g5
tp325
a(S'this'
p326
S'this'
p327
S'DT'
p328
S'B-NP'
p329
g5
tp330
a(S'open-label'
p331
S'open-label'
p332
S'JJ'
p333
S'I-NP'
p334
g5
tp335
a(g89
g89
g89
S'I-NP'
p336
g5
tp337
a(S'multicentre'
p338
S'multicentre'
p339
S'JJ'
p340
S'I-NP'
p341
g5
tp342
a(g89
g89
g89
S'I-NP'
p343
g5
tp344
a(S'pragmatic'
p345
S'pragmatic'
p346
S'JJ'
p347
S'I-NP'
p348
g5
tp349
a(g89
g89
g89
g5
g5
tp350
a(S'randomised'
p351
S'randomise'
p352
S'VBD'
p353
S'B-VP'
p354
g5
tp355
a(S'controlled'
p356
S'control'
p357
S'VBN'
p358
S'I-VP'
p359
g5
tp360
a(S'trial'
p361
S'trial'
p362
S'NN'
p363
S'B-NP'
p364
g5
tp365
a(g89
g89
g89
g5
g5
tp366
a(S'we'
p367
S'we'
p368
S'PRP'
p369
S'B-NP'
p370
g5
tp371
a(S'recruited'
p372
S'recruit'
p373
S'VBD'
p374
S'B-VP'
p375
g5
tp376
a(S'patients'
p377
S'patient'
p378
S'NNS'
p379
S'B-NP'
p380
g5
tp381
a(S'who'
p382
S'who'
p383
S'WP'
p384
S'B-NP'
p385
g5
tp386
a(S'had'
p387
S'have'
p388
S'VBD'
p389
S'B-VP'
p390
g5
tp391
a(S'undergone'
p392
S'undergo'
p393
S'VBN'
p394
S'I-VP'
p395
g5
tp396
a(S'a'
p397
g397
S'DT'
p398
S'B-NP'
p399
g5
tp400
a(S'CT'
p401
S'CT'
p402
S'NN'
p403
S'I-NP'
p404
g5
tp405
a(S'scan'
p406
S'scan'
p407
S'NN'
p408
S'I-NP'
p409
g5
tp410
a(S'and'
p411
S'and'
p412
S'CC'
p413
g5
g5
tp414
a(S'had'
p415
S'have'
p416
S'VBD'
p417
S'B-VP'
p418
g5
tp419
a(S'suspected'
p420
S'suspect'
p421
S'VBN'
p422
S'I-VP'
p423
g5
tp424
a(S'stage'
p425
S'stage'
p426
S'NN'
p427
S'B-NP'
p428
g5
tp429
a(S'I'
p430
g430
S'CD'
p431
S'I-NP'
p432
g5
tp433
a(S'to'
p434
S'to'
p435
S'TO'
p436
S'I-NP'
p437
g5
tp438
a(S'IIIA'
p439
S'IIIA'
p440
S'CD'
p441
S'I-NP'
p442
g5
tp443
a(S'lung'
p444
S'lung'
p445
S'NN'
p446
S'I-NP'
p447
g5
tp448
a(S'cancer'
p449
S'cancer'
p450
S'NN'
p451
S'I-NP'
p452
g5
tp453
a(g89
g89
g89
g5
g5
tp454
a(S'from'
p455
S'from'
p456
S'IN'
p457
S'B-PP'
p458
g5
tp459
a(S'six'
p460
S'six'
p461
S'CD'
p462
S'B-NP'
p463
g5
tp464
a(S'UK'
p465
S'UK'
p466
S'NN'
p467
S'I-NP'
p468
g5
tp469
a(S'centres'
p470
S'centre'
p471
S'NNS'
p472
S'I-NP'
p473
g5
tp474
a(S'and'
p475
S'and'
p476
S'CC'
p477
g5
g5
tp478
a(S'randomly'
p479
S'randomly'
p480
S'RB'
p481
S'B-VP'
p482
g5
tp483
a(S'assigned'
p484
S'assign'
p485
S'VBD'
p486
S'I-VP'
p487
g5
tp488
a(S'them'
p489
S'them'
p490
S'PRP'
p491
S'B-NP'
p492
g5
tp493
a(S'to'
p494
S'to'
p495
S'TO'
p496
S'B-PP'
p497
g5
tp498
a(S'either'
p499
S'either'
p500
S'CC'
p501
g5
g5
tp502
a(S'endobronchial'
p503
S'endobronchial'
p504
S'JJ'
p505
S'B-NP'
p506
g5
tp507
a(S'ultrasound-guided'
p508
S'ultrasound-guided'
p509
S'JJ'
p510
S'I-NP'
p511
g5
tp512
a(S'transbronchial'
p513
S'transbronchial'
p514
S'JJ'
p515
S'I-NP'
p516
g5
tp517
a(S'needle'
p518
S'needle'
p519
S'NN'
p520
S'I-NP'
p521
g5
tp522
a(S'aspiration'
p523
S'aspiration'
p524
S'NN'
p525
S'I-NP'
p526
g5
tp527
a(S'('
p528
g528
g528
g5
g5
tp529
a(S'EBUS-TBNA'
p530
S'EBUS-TBNA'
p531
S'NN'
p532
S'B-NP'
p533
S'B-protein'
p534
tp535
a(S')'
p536
g536
g536
g5
g5
tp537
a(S'or'
p538
S'or'
p539
S'CC'
p540
g5
g5
tp541
a(S'conventional'
p542
S'conventional'
p543
S'JJ'
p544
S'B-NP'
p545
g5
tp546
a(S'diagnosis'
p547
S'diagnosis'
p548
S'NN'
p549
S'I-NP'
p550
g5
tp551
a(S'and'
p552
S'and'
p553
S'CC'
p554
g5
g5
tp555
a(S'staging'
p556
S'staging'
p557
S'NN'
p558
S'B-NP'
p559
g5
tp560
a(g528
g528
g528
g5
g5
tp561
a(S'CDS'
p562
S'CDS'
p563
S'NN'
p564
S'B-NP'
p565
S'B-protein'
p566
tp567
a(g536
g536
g536
g5
g5
tp568
a(g89
g89
g89
g5
g5
tp569
a(S'for'
p570
S'for'
p571
S'IN'
p572
S'B-PP'
p573
g5
tp574
a(S'further'
p575
S'further'
p576
S'JJ'
p577
S'B-NP'
p578
g5
tp579
a(S'investigation'
p580
S'investigation'
p581
S'NN'
p582
S'I-NP'
p583
g5
tp584
a(S'and'
p585
S'and'
p586
S'CC'
p587
S'I-NP'
p588
g5
tp589
a(S'staging.'
p590
S'staging.'
p591
S'NN'
p592
S'I-NP'
p593
g5
tp594
a(S'If'
p595
S'If'
p596
S'IN'
p597
S'B-SBAR'
p598
g5
tp599
a(g397
g397
S'DT'
p600
S'B-NP'
p601
g5
tp602
a(S'target'
p603
S'target'
p604
S'NN'
p605
S'I-NP'
p606
g5
tp607
a(S'node'
p608
S'node'
p609
S'NN'
p610
S'I-NP'
p611
g5
tp612
a(S'could'
p613
S'could'
p614
S'MD'
p615
S'B-VP'
p616
g5
tp617
a(S'not'
p618
S'not'
p619
S'RB'
p620
S'I-VP'
p621
g5
tp622
a(S'be'
p623
S'be'
p624
S'VB'
p625
S'I-VP'
p626
g5
tp627
a(S'accessed'
p628
S'access'
p629
S'VBN'
p630
S'I-VP'
p631
g5
tp632
a(S'by'
p633
S'by'
p634
S'IN'
p635
S'B-PP'
p636
g5
tp637
a(S'EBUS-TBNA'
p638
S'EBUS-TBNA'
p639
S'NN'
p640
S'B-NP'
p641
S'B-protein'
p642
tp643
a(g89
g89
g89
g5
g5
tp644
a(S'then'
p645
S'then'
p646
S'RB'
p647
S'B-ADVP'
p648
g5
tp649
a(S'endoscopic'
p650
S'endoscopic'
p651
S'JJ'
p652
S'B-NP'
p653
g5
tp654
a(S'ultrasound-guided'
p655
S'ultrasound-guided'
p656
S'JJ'
p657
S'I-NP'
p658
g5
tp659
a(S'fine'
p660
S'fine'
p661
S'JJ'
p662
S'I-NP'
p663
g5
tp664
a(S'needle'
p665
S'needle'
p666
S'NN'
p667
S'I-NP'
p668
g5
tp669
a(S'aspiration'
p670
S'aspiration'
p671
S'NN'
p672
S'I-NP'
p673
g5
tp674
a(g528
g528
g528
g5
g5
tp675
a(S'EUS-FNA'
p676
S'EUS-FNA'
p677
S'NN'
p678
S'B-NP'
p679
S'B-protein'
p680
tp681
a(g536
g536
g536
g5
g5
tp682
a(S'was'
p683
S'be'
p684
S'VBD'
p685
S'B-VP'
p686
g5
tp687
a(S'allowed'
p688
S'allow'
p689
S'VBN'
p690
S'I-VP'
p691
g5
tp692
a(S'as'
p693
S'as'
p694
S'IN'
p695
S'B-PP'
p696
g5
tp697
a(S'an'
p698
S'an'
p699
S'DT'
p700
S'B-NP'
p701
g5
tp702
a(S'alternative'
p703
S'alternative'
p704
S'JJ'
p705
S'I-NP'
p706
g5
tp707
a(S'procedure.'
p708
S'procedure.'
p709
S'NN'
p710
S'I-NP'
p711
g5
tp712
a(S'Randomisation'
p713
S'Randomisation'
p714
S'NN'
p715
S'I-NP'
p716
g5
tp717
a(S'was'
p718
S'be'
p719
S'VBD'
p720
S'B-VP'
p721
g5
tp722
a(S'stratified'
p723
S'stratify'
p724
S'VBN'
p725
S'I-VP'
p726
g5
tp727
a(S'according'
p728
S'accord'
p729
S'VBG'
p730
S'B-PP'
p731
g5
tp732
a(S'to'
p733
S'to'
p734
S'TO'
p735
S'B-PP'
p736
g5
tp737
a(S'the'
p738
S'the'
p739
S'DT'
p740
S'B-NP'
p741
g5
tp742
a(S'presence'
p743
S'presence'
p744
S'NN'
p745
S'I-NP'
p746
g5
tp747
a(S'of'
p748
S'of'
p749
S'IN'
p750
S'B-PP'
p751
g5
tp752
a(S'mediastinal'
p753
S'mediastinal'
p754
S'JJ'
p755
S'B-NP'
p756
g5
tp757
a(S'lymph'
p758
S'lymph'
p759
S'NN'
p760
S'I-NP'
p761
g5
tp762
a(S'nodes'
p763
S'node'
p764
S'NNS'
p765
S'I-NP'
p766
g5
tp767
a(S'measuring'
p768
S'measure'
p769
S'VBG'
p770
S'B-VP'
p771
g5
tp772
a(S'1'
p773
g773
S'CD'
p774
S'B-NP'
p775
g5
tp776
a(S'cm'
p777
S'cm'
p778
S'NN'
p779
S'I-NP'
p780
g5
tp781
a(S'or'
p782
S'or'
p783
S'CC'
p784
S'I-NP'
p785
g5
tp786
a(S'more'
p787
S'more'
p788
S'JJR'
p789
S'I-NP'
p790
g5
tp791
a(S'in'
p792
S'in'
p793
S'IN'
p794
S'B-PP'
p795
g5
tp796
a(S'the'
p797
S'the'
p798
S'DT'
p799
S'B-NP'
p800
g5
tp801
a(S'short'
p802
S'short'
p803
S'JJ'
p804
S'I-NP'
p805
g5
tp806
a(S'axis'
p807
S'axis'
p808
S'NN'
p809
S'I-NP'
p810
g5
tp811
a(S'and'
p812
S'and'
p813
S'CC'
p814
S'B-PP'
p815
g5
tp816
a(S'by'
p817
S'by'
p818
S'IN'
p819
S'B-PP'
p820
g5
tp821
a(S'recruiting'
p822
S'recruit'
p823
S'VBG'
p824
S'B-VP'
p825
g5
tp826
a(S'centre.'
p827
S'centre.'
p828
S'NN'
p829
S'B-NP'
p830
g5
tp831
a(S'We'
p832
S'We'
p833
S'PRP'
p834
S'B-NP'
p835
g5
tp836
a(S'used'
p837
S'use'
p838
S'VBD'
p839
S'B-VP'
p840
g5
tp841
a(g397
g397
S'DT'
p842
S'B-NP'
p843
g5
tp844
a(S'telephone'
p845
S'telephone'
p846
S'NN'
p847
S'I-NP'
p848
g5
tp849
a(S'randomisation'
p850
S'randomisation'
p851
S'NN'
p852
S'I-NP'
p853
g5
tp854
a(S'method'
p855
S'method'
p856
S'NN'
p857
S'I-NP'
p858
g5
tp859
a(S'with'
p860
S'with'
p861
S'IN'
p862
S'B-PP'
p863
g5
tp864
a(S'permuted'
p865
S'permuted'
p866
S'JJ'
p867
S'B-NP'
p868
g5
tp869
a(S'blocks'
p870
S'block'
p871
S'NNS'
p872
S'I-NP'
p873
g5
tp874
a(S'of'
p875
S'of'
p876
S'IN'
p877
S'B-PP'
p878
g5
tp879
a(S'four'
p880
S'four'
p881
S'CD'
p882
S'B-NP'
p883
g5
tp884
a(S'generated'
p885
S'generate'
p886
S'VBN'
p887
S'B-VP'
p888
g5
tp889
a(S'by'
p890
S'by'
p891
S'IN'
p892
S'B-PP'
p893
g5
tp894
a(g397
g397
S'DT'
p895
S'B-NP'
p896
g5
tp897
a(S'computer.'
p898
S'computer.'
p899
S'NN'
p900
S'I-NP'
p901
g5
tp902
a(S'Because'
p903
S'Because'
p904
S'IN'
p905
S'B-PP'
p906
g5
tp907
a(S'of'
p908
S'of'
p909
S'IN'
p910
S'I-PP'
p911
g5
tp912
a(S'the'
p913
S'the'
p914
S'DT'
p915
S'B-NP'
p916
g5
tp917
a(S'nature'
p918
S'nature'
p919
S'NN'
p920
S'I-NP'
p921
g5
tp922
a(S'of'
p923
S'of'
p924
S'IN'
p925
S'B-PP'
p926
g5
tp927
a(S'the'
p928
S'the'
p929
S'DT'
p930
S'B-NP'
p931
g5
tp932
a(S'intervention'
p933
S'intervention'
p934
S'NN'
p935
S'I-NP'
p936
g5
tp937
a(g89
g89
g89
g5
g5
tp938
a(S'masking'
p939
S'mask'
p940
S'VBG'
p941
S'B-VP'
p942
g5
tp943
a(S'of'
p944
S'of'
p945
S'IN'
p946
S'B-PP'
p947
g5
tp948
a(S'participants'
p949
S'participant'
p950
S'NNS'
p951
S'B-NP'
p952
g5
tp953
a(S'and'
p954
S'and'
p955
S'CC'
p956
g5
g5
tp957
a(S'consenting'
p958
S'consenting'
p959
S'NN'
p960
S'B-NP'
p961
g5
tp962
a(S'investigators'
p963
S'investigator'
p964
S'NNS'
p965
S'I-NP'
p966
g5
tp967
a(S'was'
p968
S'be'
p969
S'VBD'
p970
S'B-VP'
p971
g5
tp972
a(S'not'
p973
S'not'
p974
S'RB'
p975
S'I-VP'
p976
g5
tp977
a(S'possible.'
p978
S'possible.'
p979
S'VB'
p980
S'I-VP'
p981
g5
tp982
a(S'The'
p983
S'The'
p984
S'DT'
p985
S'B-NP'
p986
g5
tp987
a(S'primary'
p988
S'primary'
p989
S'JJ'
p990
S'I-NP'
p991
g5
tp992
a(S'endpoint'
p993
S'endpoint'
p994
S'NN'
p995
S'I-NP'
p996
g5
tp997
a(S'was'
p998
S'be'
p999
S'VBD'
p1000
S'B-VP'
p1001
g5
tp1002
a(S'the'
p1003
S'the'
p1004
S'DT'
p1005
S'B-NP'
p1006
g5
tp1007
a(S'time-to-treatment'
p1008
S'time-to-treatment'
p1009
S'NN'
p1010
S'I-NP'
p1011
g5
tp1012
a(S'decision'
p1013
S'decision'
p1014
S'NN'
p1015
S'I-NP'
p1016
g5
tp1017
a(S'after'
p1018
S'after'
p1019
S'IN'
p1020
S'B-PP'
p1021
g5
tp1022
a(S'completion'
p1023
S'completion'
p1024
S'NN'
p1025
S'B-NP'
p1026
g5
tp1027
a(S'of'
p1028
S'of'
p1029
S'IN'
p1030
S'B-PP'
p1031
g5
tp1032
a(S'the'
p1033
S'the'
p1034
S'DT'
p1035
S'B-NP'
p1036
g5
tp1037
a(S'diagnostic'
p1038
S'diagnostic'
p1039
S'JJ'
p1040
S'I-NP'
p1041
g5
tp1042
a(S'and'
p1043
S'and'
p1044
S'CC'
p1045
S'I-NP'
p1046
g5
tp1047
a(S'staging'
p1048
S'stag'
p1049
S'VBG'
p1050
S'I-NP'
p1051
g5
tp1052
a(S'investigations'
p1053
S'investigation'
p1054
S'NNS'
p1055
S'I-NP'
p1056
g5
tp1057
a(S'and'
p1058
S'and'
p1059
S'CC'
p1060
g5
g5
tp1061
a(S'analysis'
p1062
S'analysis'
p1063
S'NN'
p1064
S'B-NP'
p1065
g5
tp1066
a(S'was'
p1067
S'be'
p1068
S'VBD'
p1069
S'B-VP'
p1070
g5
tp1071
a(S'by'
p1072
S'by'
p1073
S'IN'
p1074
S'B-PP'
p1075
g5
tp1076
a(S'intention-to-diagnose.'
p1077
S'intention-to-diagnose.'
p1078
S'JJ'
p1079
S'B-NP'
p1080
g5
tp1081
a(S'This'
p1082
S'This'
p1083
S'DT'
p1084
S'I-NP'
p1085
g5
tp1086
a(S'trial'
p1087
S'trial'
p1088
S'NN'
p1089
S'I-NP'
p1090
g5
tp1091
a(S'is'
p1092
S'be'
p1093
S'VBZ'
p1094
S'B-VP'
p1095
g5
tp1096
a(S'registered'
p1097
S'register'
p1098
S'VBN'
p1099
S'I-VP'
p1100
g5
tp1101
a(S'with'
p1102
S'with'
p1103
S'IN'
p1104
S'B-PP'
p1105
g5
tp1106
a(S'ClinicalTrials.gov'
p1107
S'ClinicalTrials.gov'
p1108
S'NN'
p1109
S'B-NP'
p1110
g5
tp1111
a(g89
g89
g89
g5
g5
tp1112
a(S'number'
p1113
S'number'
p1114
S'NN'
p1115
S'B-NP'
p1116
g5
tp1117
a(S'NCT00652769'
p1118
S'NCT00652769'
p1119
S'NN'
p1120
S'I-NP'
p1121
g5
tp1122
a(g113
g113
g113
g5
g5
tp1123
a(S'FINDINGS'
p1124
S'FINDINGS'
p1125
S'NNP'
p1126
S'B-NP'
p1127
g5
tp1128
a(S'Between'
p1129
S'Between'
p1130
S'NNP'
p1131
S'I-NP'
p1132
g5
tp1133
a(S'June'
p1134
S'June'
p1135
S'NNP'
p1136
S'I-NP'
p1137
g5
tp1138
a(S'10'
p1139
S'10'
p1140
S'CD'
p1141
S'I-NP'
p1142
g5
tp1143
a(g89
g89
g89
S'I-NP'
p1144
g5
tp1145
a(S'2008'
p1146
S'2008'
p1147
S'CD'
p1148
S'I-NP'
p1149
g5
tp1150
a(g89
g89
g89
g5
g5
tp1151
a(S'and'
p1152
S'and'
p1153
S'CC'
p1154
g5
g5
tp1155
a(S'July'
p1156
S'July'
p1157
S'NNP'
p1158
S'B-NP'
p1159
S'B-protein'
p1160
tp1161
a(S'4'
p1162
g1162
S'CD'
p1163
S'I-NP'
p1164
S'I-protein'
p1165
tp1166
a(g89
g89
g89
S'I-NP'
p1167
g5
tp1168
a(S'2011'
p1169
S'2011'
p1170
S'CD'
p1171
S'I-NP'
p1172
g5
tp1173
a(g89
g89
g89
g5
g5
tp1174
a(S'we'
p1175
S'we'
p1176
S'PRP'
p1177
S'B-NP'
p1178
g5
tp1179
a(S'randomly'
p1180
S'randomly'
p1181
S'RB'
p1182
S'B-ADVP'
p1183
g5
tp1184
a(S'allocated'
p1185
S'allocate'
p1186
S'VBD'
p1187
S'B-VP'
p1188
g5
tp1189
a(S'133'
p1190
S'133'
p1191
S'CD'
p1192
S'B-NP'
p1193
g5
tp1194
a(S'patients'
p1195
S'patient'
p1196
S'NNS'
p1197
S'I-NP'
p1198
g5
tp1199
a(S'to'
p1200
S'to'
p1201
S'TO'
p1202
S'B-PP'
p1203
g5
tp1204
a(S'treatment'
p1205
S'treatment'
p1206
S'NN'
p1207
S'B-NP'
p1208
g5
tp1209
a(g77
g77
g77
g5
g5
tp1210
a(S'66'
p1211
S'66'
p1212
S'CD'
p1213
S'B-NP'
p1214
g5
tp1215
a(S'to'
p1216
S'to'
p1217
S'TO'
p1218
S'B-PP'
p1219
g5
tp1220
a(S'EBUS-TBNA'
p1221
S'EBUS-TBNA'
p1222
S'NN'
p1223
S'B-NP'
p1224
g5
tp1225
a(S'and'
p1226
S'and'
p1227
S'CC'
p1228
g5
g5
tp1229
a(S'67'
p1230
S'67'
p1231
S'CD'
p1232
S'B-NP'
p1233
g5
tp1234
a(S'to'
p1235
S'to'
p1236
S'TO'
p1237
S'B-PP'
p1238
g5
tp1239
a(S'CDS'
p1240
S'CDS'
p1241
S'NN'
p1242
S'B-NP'
p1243
g5
tp1244
a(g528
g528
g528
g5
g5
tp1245
a(S'one'
p1246
S'one'
p1247
S'CD'
p1248
S'B-NP'
p1249
g5
tp1250
a(S'later'
p1251
S'later'
p1252
S'RB'
p1253
S'B-ADVP'
p1254
g5
tp1255
a(S'withdrew'
p1256
S'withdraw'
p1257
S'VBD'
p1258
S'B-VP'
p1259
g5
tp1260
a(S'consent'
p1261
S'consent'
p1262
S'NN'
p1263
S'B-NP'
p1264
g5
tp1265
a(g536
g536
g536
g5
g5
tp1266
a(g113
g113
g113
g5
g5
tp1267
a(S'Two'
p1268
S'Two'
p1269
S'CD'
p1270
S'B-NP'
p1271
g5
tp1272
a(S'patients'
p1273
S'patient'
p1274
S'NNS'
p1275
S'I-NP'
p1276
g5
tp1277
a(S'from'
p1278
S'from'
p1279
S'IN'
p1280
S'B-PP'
p1281
g5
tp1282
a(S'the'
p1283
S'the'
p1284
S'DT'
p1285
S'B-NP'
p1286
g5
tp1287
a(S'EBUS-TBNA'
p1288
S'EBUS-TBNA'
p1289
S'NN'
p1290
S'I-NP'
p1291
g5
tp1292
a(S'group'
p1293
S'group'
p1294
S'NN'
p1295
S'I-NP'
p1296
g5
tp1297
a(S'underwent'
p1298
S'undergo'
p1299
S'VBD'
p1300
S'B-VP'
p1301
g5
tp1302
a(S'EUS-FNA.'
p1303
S'EUS-FNA.'
p1304
S'NNP'
p1305
S'B-NP'
p1306
g5
tp1307
a(S'The'
p1308
S'The'
p1309
S'DT'
p1310
S'B-NP'
p1311
g5
tp1312
a(S'median'
p1313
S'median'
p1314
S'JJ'
p1315
S'I-NP'
p1316
g5
tp1317
a(S'time'
p1318
S'time'
p1319
S'NN'
p1320
S'I-NP'
p1321
g5
tp1322
a(S'to'
p1323
S'to'
p1324
S'TO'
p1325
S'B-PP'
p1326
g5
tp1327
a(S'treatment'
p1328
S'treatment'
p1329
S'NN'
p1330
S'B-NP'
p1331
g5
tp1332
a(S'decision'
p1333
S'decision'
p1334
S'NN'
p1335
S'I-NP'
p1336
g5
tp1337
a(S'was'
p1338
S'be'
p1339
S'VBD'
p1340
S'B-VP'
p1341
g5
tp1342
a(S'shorter'
p1343
S'short'
p1344
S'JJR'
p1345
S'B-ADJP'
p1346
g5
tp1347
a(S'with'
p1348
S'with'
p1349
S'IN'
p1350
S'B-PP'
p1351
g5
tp1352
a(S'EBUS-TBNA'
p1353
S'EBUS-TBNA'
p1354
S'NN'
p1355
S'B-NP'
p1356
S'B-protein'
p1357
tp1358
a(g528
g528
g528
g5
g5
tp1359
a(S'14'
p1360
S'14'
p1361
S'CD'
p1362
S'B-NP'
p1363
g5
tp1364
a(S'days'
p1365
S'day'
p1366
S'NNS'
p1367
S'I-NP'
p1368
g5
tp1369
a(S';'
p1370
g1370
g77
g5
g5
tp1371
a(S'95'
p1372
S'95'
p1373
S'CD'
p1374
S'B-NP'
p1375
g5
tp1376
a(S'%'
p1377
g1377
S'NN'
p1378
S'I-NP'
p1379
g5
tp1380
a(S'CI'
p1381
S'CI'
p1382
S'NN'
p1383
S'I-NP'
p1384
g5
tp1385
a(S'14-15'
p1386
S'14-15'
p1387
S'CD'
p1388
S'I-NP'
p1389
g5
tp1390
a(g536
g536
g536
g5
g5
tp1391
a(S'than'
p1392
S'than'
p1393
S'IN'
p1394
S'B-PP'
p1395
g5
tp1396
a(S'with'
p1397
S'with'
p1398
S'IN'
p1399
S'B-PP'
p1400
g5
tp1401
a(S'CDS'
p1402
S'CDS'
p1403
S'NN'
p1404
S'B-NP'
p1405
S'B-protein'
p1406
tp1407
a(g528
g528
g528
g5
g5
tp1408
a(S'29'
p1409
S'29'
p1410
S'CD'
p1411
S'B-NP'
p1412
g5
tp1413
a(S'days'
p1414
S'day'
p1415
S'NNS'
p1416
S'I-NP'
p1417
g5
tp1418
a(g1370
g1370
g77
g5
g5
tp1419
a(S'23-35'
p1420
S'23-35'
p1421
S'CD'
p1422
S'B-NP'
p1423
g5
tp1424
a(g536
g536
g536
g5
g5
tp1425
a(S'resulting'
p1426
S'result'
p1427
S'VBG'
p1428
S'B-VP'
p1429
g5
tp1430
a(S'in'
p1431
S'in'
p1432
S'IN'
p1433
S'B-PP'
p1434
g5
tp1435
a(g397
g397
S'DT'
p1436
S'B-NP'
p1437
g5
tp1438
a(S'hazard'
p1439
S'hazard'
p1440
S'NN'
p1441
S'I-NP'
p1442
g5
tp1443
a(S'ratio'
p1444
S'ratio'
p1445
S'NN'
p1446
S'I-NP'
p1447
g5
tp1448
a(S'of'
p1449
S'of'
p1450
S'IN'
p1451
S'B-PP'
p1452
g5
tp1453
a(S'1\xc2\xb798'
p1454
S'1\xc2\xb798'
p1455
S'CD'
p1456
S'B-NP'
p1457
g5
tp1458
a(g89
g89
g89
g5
g5
tp1459
a(g528
g528
g528
g5
g5
tp1460
a(S'1\xc2\xb739-2\xc2\xb782'
p1461
S'1\xc2\xb739-2\xc2\xb782'
p1462
S'CD'
p1463
S'B-NP'
p1464
g5
tp1465
a(g89
g89
g89
g5
g5
tp1466
a(S'p'
p1467
g1467
S'NN'
p1468
S'B-NP'
p1469
g5
tp1470
a(S'<'
p1471
g1471
S'SYM'
p1472
S'B-NP'
p1473
g5
tp1474
a(S'0\xc2\xb70001'
p1475
S'0\xc2\xb70001'
p1476
S'CD'
p1477
S'I-NP'
p1478
g5
tp1479
a(g536
g536
g536
g5
g5
tp1480
a(g113
g113
g113
g5
g5
tp1481
a(S'One'
p1482
S'One'
p1483
S'CD'
p1484
S'B-NP'
p1485
g5
tp1486
a(S'patient'
p1487
S'patient'
p1488
S'NN'
p1489
S'I-NP'
p1490
g5
tp1491
a(S'in'
p1492
S'in'
p1493
S'IN'
p1494
S'B-PP'
p1495
g5
tp1496
a(S'each'
p1497
S'each'
p1498
S'DT'
p1499
S'B-NP'
p1500
g5
tp1501
a(S'group'
p1502
S'group'
p1503
S'NN'
p1504
S'I-NP'
p1505
g5
tp1506
a(S'had'
p1507
S'have'
p1508
S'VBD'
p1509
S'B-VP'
p1510
g5
tp1511
a(g397
g397
S'DT'
p1512
S'B-NP'
p1513
g5
tp1514
a(S'pneumothorax'
p1515
S'pneumothorax'
p1516
S'NN'
p1517
S'I-NP'
p1518
g5
tp1519
a(S'from'
p1520
S'from'
p1521
S'IN'
p1522
S'B-PP'
p1523
g5
tp1524
a(g397
g397
S'DT'
p1525
S'B-NP'
p1526
g5
tp1527
a(S'CT-guided'
p1528
S'CT-guided'
p1529
S'JJ'
p1530
S'I-NP'
p1531
g5
tp1532
a(S'biopsy'
p1533
S'biopsy'
p1534
S'NN'
p1535
S'I-NP'
p1536
g5
tp1537
a(S'sample'
p1538
S'sample'
p1539
S'NN'
p1540
S'I-NP'
p1541
g5
tp1542
a(g1370
g1370
g77
g5
g5
tp1543
a(S'the'
p1544
S'the'
p1545
S'DT'
p1546
S'B-NP'
p1547
g5
tp1548
a(S'patient'
p1549
S'patient'
p1550
S'NN'
p1551
S'I-NP'
p1552
g5
tp1553
a(S'from'
p1554
S'from'
p1555
S'IN'
p1556
S'B-PP'
p1557
g5
tp1558
a(S'the'
p1559
S'the'
p1560
S'DT'
p1561
S'B-NP'
p1562
g5
tp1563
a(S'CDS'
p1564
S'CDS'
p1565
S'NN'
p1566
S'I-NP'
p1567
g5
tp1568
a(S'group'
p1569
S'group'
p1570
S'NN'
p1571
S'I-NP'
p1572
g5
tp1573
a(S'needed'
p1574
S'need'
p1575
S'VBD'
p1576
S'B-VP'
p1577
g5
tp1578
a(S'intercostal'
p1579
S'intercostal'
p1580
S'JJ'
p1581
S'B-NP'
p1582
g5
tp1583
a(S'drainage'
p1584
S'drainage'
p1585
S'NN'
p1586
S'I-NP'
p1587
g5
tp1588
a(S'and'
p1589
S'and'
p1590
S'CC'
p1591
g5
g5
tp1592
a(S'was'
p1593
S'be'
p1594
S'VBD'
p1595
S'B-VP'
p1596
g5
tp1597
a(S'admitted'
p1598
S'admit'
p1599
S'VBN'
p1600
S'I-VP'
p1601
g5
tp1602
a(S'to'
p1603
S'to'
p1604
S'TO'
p1605
S'B-PP'
p1606
g5
tp1607
a(S'hospital'
p1608
S'hospital'
p1609
S'NN'
p1610
S'B-NP'
p1611
g5
tp1612
a(g113
g113
g113
g5
g5
tp1613
a(S'INTERPRETATION'
p1614
S'INTERPRETATION'
p1615
S'NN'
p1616
S'B-NP'
p1617
g5
tp1618
a(S'Transbronchial'
p1619
S'Transbronchial'
p1620
S'JJ'
p1621
S'I-NP'
p1622
g5
tp1623
a(S'needle'
p1624
S'needle'
p1625
S'NN'
p1626
S'I-NP'
p1627
g5
tp1628
a(S'aspiration'
p1629
S'aspiration'
p1630
S'NN'
p1631
S'I-NP'
p1632
g5
tp1633
a(S'guided'
p1634
S'guide'
p1635
S'VBN'
p1636
S'B-VP'
p1637
g5
tp1638
a(S'by'
p1639
S'by'
p1640
S'IN'
p1641
S'B-PP'
p1642
g5
tp1643
a(S'endobronchial'
p1644
S'endobronchial'
p1645
S'JJ'
p1646
S'B-NP'
p1647
g5
tp1648
a(S'ultrasound'
p1649
S'ultrasound'
p1650
S'NN'
p1651
S'I-NP'
p1652
g5
tp1653
a(S'should'
p1654
S'should'
p1655
S'MD'
p1656
S'B-VP'
p1657
g5
tp1658
a(S'be'
p1659
S'be'
p1660
S'VB'
p1661
S'I-VP'
p1662
g5
tp1663
a(S'considered'
p1664
S'consider'
p1665
S'VBN'
p1666
S'I-VP'
p1667
g5
tp1668
a(S'as'
p1669
S'as'
p1670
S'IN'
p1671
S'B-PP'
p1672
g5
tp1673
a(S'the'
p1674
S'the'
p1675
S'DT'
p1676
S'B-NP'
p1677
g5
tp1678
a(S'initial'
p1679
S'initial'
p1680
S'JJ'
p1681
S'I-NP'
p1682
g5
tp1683
a(S'investigation'
p1684
S'investigation'
p1685
S'NN'
p1686
S'I-NP'
p1687
g5
tp1688
a(S'for'
p1689
S'for'
p1690
S'IN'
p1691
S'B-PP'
p1692
g5
tp1693
a(S'patients'
p1694
S'patient'
p1695
S'NNS'
p1696
S'B-NP'
p1697
g5
tp1698
a(S'with'
p1699
S'with'
p1700
S'IN'
p1701
S'B-PP'
p1702
g5
tp1703
a(S'suspected'
p1704
S'suspect'
p1705
S'VBN'
p1706
S'B-NP'
p1707
g5
tp1708
a(S'lung'
p1709
S'lung'
p1710
S'NN'
p1711
S'I-NP'
p1712
g5
tp1713
a(S'cancer'
p1714
S'cancer'
p1715
S'NN'
p1716
S'I-NP'
p1717
g5
tp1718
a(g89
g89
g89
g5
g5
tp1719
a(S'because'
p1720
S'because'
p1721
S'IN'
p1722
S'B-SBAR'
p1723
g5
tp1724
a(S'it'
p1725
S'it'
p1726
S'PRP'
p1727
S'B-NP'
p1728
g5
tp1729
a(S'reduces'
p1730
S'reduce'
p1731
S'VBZ'
p1732
S'B-VP'
p1733
g5
tp1734
a(S'the'
p1735
S'the'
p1736
S'DT'
p1737
S'B-NP'
p1738
g5
tp1739
a(S'time'
p1740
S'time'
p1741
S'NN'
p1742
S'I-NP'
p1743
g5
tp1744
a(S'to'
p1745
S'to'
p1746
S'TO'
p1747
S'B-PP'
p1748
g5
tp1749
a(S'treatment'
p1750
S'treatment'
p1751
S'NN'
p1752
S'B-NP'
p1753
g5
tp1754
a(S'decision'
p1755
S'decision'
p1756
S'NN'
p1757
S'I-NP'
p1758
g5
tp1759
a(S'compared'
p1760
S'compare'
p1761
S'VBN'
p1762
S'B-PP'
p1763
g5
tp1764
a(S'with'
p1765
S'with'
p1766
S'IN'
p1767
S'B-PP'
p1768
g5
tp1769
a(S'conventional'
p1770
S'conventional'
p1771
S'JJ'
p1772
S'B-NP'
p1773
g5
tp1774
a(S'diagnosis'
p1775
S'diagnosis'
p1776
S'NN'
p1777
S'I-NP'
p1778
g5
tp1779
a(S'and'
p1780
S'and'
p1781
S'CC'
p1782
g5
g5
tp1783
a(S'staging'
p1784
S'stag'
p1785
S'VBG'
p1786
S'B-VP'
p1787
g5
tp1788
a(S'techniques'
p1789
S'technique'
p1790
S'NNS'
p1791
S'B-NP'
p1792
g5
tp1793
a(g113
g113
g113
g5
g5
tp1794
a(S'FUNDING'
p1795
S'FUNDING'
p1796
S'VBG'
p1797
S'B-VP'
p1798
g5
tp1799
a(S'UK'
p1800
S'UK'
p1801
S'NNP'
p1802
S'B-NP'
p1803
g5
tp1804
a(S'Medical'
p1805
S'Medical'
p1806
S'NNP'
p1807
S'I-NP'
p1808
g5
tp1809
a(S'Research'
p1810
S'Research'
p1811
S'NNP'
p1812
S'I-NP'
p1813
g5
tp1814
a(S'Council'
p1815
S'Council'
p1816
S'NNP'
p1817
S'I-NP'
p1818
g5
tp1819
a(g113
g113
g113
g5
g5
tp1820
a.