(lp0
(S'Etanercept'
p1
S'Etanercept'
p2
S'NN'
p3
S'B-NP'
p4
S'O'
p5
tp6
a(S'plus'
p7
S'plus'
p8
S'CC'
p9
g5
g5
tp10
a(S'standard'
p11
S'standard'
p12
S'JJ'
p13
S'B-NP'
p14
g5
tp15
a(S'therapy'
p16
S'therapy'
p17
S'NN'
p18
S'I-NP'
p19
g5
tp20
a(S'for'
p21
S'for'
p22
S'IN'
p23
S'B-PP'
p24
g5
tp25
a(S'Wegener'
p26
S'Wegener'
p27
S'NNP'
p28
S'B-NP'
p29
g5
tp30
a(S"'s"
p31
S"'s"
p32
S'POS'
p33
S'B-NP'
p34
g5
tp35
a(S'granulomatosis'
p36
S'granulomatosis'
p37
S'NN'
p38
S'I-NP'
p39
g5
tp40
a(S'.'
p41
g41
g41
g5
g5
tp42
a(S'BACKGROUND'
p43
S'BACKGROUND'
p44
S'NN'
p45
S'B-NP'
p46
g5
tp47
a(S'The'
p48
S'The'
p49
S'DT'
p50
S'B-NP'
p51
g5
tp52
a(S'majority'
p53
S'majority'
p54
S'NN'
p55
S'I-NP'
p56
g5
tp57
a(S'of'
p58
S'of'
p59
S'IN'
p60
S'B-PP'
p61
g5
tp62
a(S'patients'
p63
S'patient'
p64
S'NNS'
p65
S'B-NP'
p66
g5
tp67
a(S'with'
p68
S'with'
p69
S'IN'
p70
S'B-PP'
p71
g5
tp72
a(S'Wegener'
p73
S'Wegener'
p74
S'NNP'
p75
S'B-NP'
p76
g5
tp77
a(S"'s"
p78
S"'s"
p79
S'POS'
p80
S'B-NP'
p81
g5
tp82
a(S'granulomatosis'
p83
S'granulomatosis'
p84
S'NN'
p85
S'I-NP'
p86
g5
tp87
a(S'have'
p88
S'have'
p89
S'VBP'
p90
S'B-VP'
p91
g5
tp92
a(S'disease'
p93
S'disease'
p94
S'NN'
p95
S'B-NP'
p96
g5
tp97
a(S'flares'
p98
S'flare'
p99
S'NNS'
p100
S'I-NP'
p101
g5
tp102
a(S'after'
p103
S'after'
p104
S'IN'
p105
S'B-PP'
p106
g5
tp107
a(S'conventional'
p108
S'conventional'
p109
S'JJ'
p110
S'B-NP'
p111
g5
tp112
a(S'medications'
p113
S'medication'
p114
S'NNS'
p115
S'I-NP'
p116
g5
tp117
a(S'are'
p118
S'be'
p119
S'VBP'
p120
S'B-VP'
p121
g5
tp122
a(S'tapered.'
p123
S'tapered.'
p124
S'VBN'
p125
S'I-VP'
p126
g5
tp127
a(S'There'
p128
S'There'
p129
S'EX'
p130
S'B-NP'
p131
g5
tp132
a(S'is'
p133
S'be'
p134
S'VBZ'
p135
S'B-VP'
p136
g5
tp137
a(S'no'
p138
S'no'
p139
S'DT'
p140
S'B-NP'
p141
g5
tp142
a(S'consistently'
p143
S'consistently'
p144
S'RB'
p145
S'I-NP'
p146
g5
tp147
a(S'safe'
p148
S'safe'
p149
S'JJ'
p150
S'I-NP'
p151
g5
tp152
a(S','
p153
g153
g153
S'I-NP'
p154
g5
tp155
a(S'effective'
p156
S'effective'
p157
S'JJ'
p158
S'I-NP'
p159
g5
tp160
a(S'treatment'
p161
S'treatment'
p162
S'NN'
p163
S'I-NP'
p164
g5
tp165
a(S'for'
p166
S'for'
p167
S'IN'
p168
S'B-PP'
p169
g5
tp170
a(S'the'
p171
S'the'
p172
S'DT'
p173
S'B-NP'
p174
g5
tp175
a(S'maintenance'
p176
S'maintenance'
p177
S'NN'
p178
S'I-NP'
p179
g5
tp180
a(S'of'
p181
S'of'
p182
S'IN'
p183
S'B-PP'
p184
g5
tp185
a(S'remission'
p186
S'remission'
p187
S'NN'
p188
S'B-NP'
p189
g5
tp190
a(g41
g41
g41
g5
g5
tp191
a(S'METHODS'
p192
S'METHODS'
p193
S'NNS'
p194
S'B-NP'
p195
g5
tp196
a(S'We'
p197
S'We'
p198
S'PRP'
p199
S'B-NP'
p200
g5
tp201
a(S'conducted'
p202
S'conduct'
p203
S'VBD'
p204
S'B-VP'
p205
g5
tp206
a(S'a'
p207
g207
S'DT'
p208
S'B-NP'
p209
g5
tp210
a(S'randomized'
p211
S'randomize'
p212
S'VBN'
p213
S'I-NP'
p214
g5
tp215
a(g153
g153
g153
S'I-NP'
p216
g5
tp217
a(S'placebo-controlled'
p218
S'placebo-controlled'
p219
S'JJ'
p220
S'I-NP'
p221
g5
tp222
a(S'trial'
p223
S'trial'
p224
S'NN'
p225
S'I-NP'
p226
g5
tp227
a(S'at'
p228
S'at'
p229
S'IN'
p230
S'B-PP'
p231
g5
tp232
a(S'eight'
p233
S'eight'
p234
S'CD'
p235
S'B-NP'
p236
g5
tp237
a(S'centers'
p238
S'center'
p239
S'NNS'
p240
S'I-NP'
p241
g5
tp242
a(S'to'
p243
S'to'
p244
S'TO'
p245
S'B-VP'
p246
g5
tp247
a(S'evaluate'
p248
S'evaluate'
p249
S'VB'
p250
S'I-VP'
p251
g5
tp252
a(S'etanercept'
p253
S'etanercept'
p254
S'NN'
p255
S'B-NP'
p256
g5
tp257
a(S'for'
p258
S'for'
p259
S'IN'
p260
S'B-PP'
p261
g5
tp262
a(S'the'
p263
S'the'
p264
S'DT'
p265
S'B-NP'
p266
g5
tp267
a(S'maintenance'
p268
S'maintenance'
p269
S'NN'
p270
S'I-NP'
p271
g5
tp272
a(S'of'
p273
S'of'
p274
S'IN'
p275
S'B-PP'
p276
g5
tp277
a(S'remission'
p278
S'remission'
p279
S'NN'
p280
S'B-NP'
p281
g5
tp282
a(S'in'
p283
S'in'
p284
S'IN'
p285
S'B-PP'
p286
g5
tp287
a(S'180'
p288
S'180'
p289
S'CD'
p290
S'B-NP'
p291
g5
tp292
a(S'patients'
p293
S'patient'
p294
S'NNS'
p295
S'I-NP'
p296
g5
tp297
a(S'with'
p298
S'with'
p299
S'IN'
p300
S'B-PP'
p301
g5
tp302
a(S'Wegener'
p303
S'Wegener'
p304
S'NNP'
p305
S'B-NP'
p306
g5
tp307
a(S"'s"
p308
S"'s"
p309
S'POS'
p310
S'B-NP'
p311
g5
tp312
a(S'granulomatosis.'
p313
S'granulomatosis.'
p314
S'NN'
p315
S'I-NP'
p316
g5
tp317
a(S'The'
p318
S'The'
p319
S'DT'
p320
S'B-NP'
p321
g5
tp322
a(S'primary'
p323
S'primary'
p324
S'JJ'
p325
S'I-NP'
p326
g5
tp327
a(S'outcome'
p328
S'outcome'
p329
S'NN'
p330
S'I-NP'
p331
g5
tp332
a(S'was'
p333
S'be'
p334
S'VBD'
p335
S'B-VP'
p336
g5
tp337
a(S'sustained'
p338
S'sustained'
p339
S'JJ'
p340
S'B-NP'
p341
g5
tp342
a(S'remission'
p343
S'remission'
p344
S'NN'
p345
S'I-NP'
p346
g5
tp347
a(g153
g153
g153
g5
g5
tp348
a(S'defined'
p349
S'define'
p350
S'VBN'
p351
S'B-VP'
p352
g5
tp353
a(S'as'
p354
S'as'
p355
S'IN'
p356
S'B-PP'
p357
g5
tp358
a(g207
g207
S'DT'
p359
S'B-NP'
p360
g5
tp361
a(S'Birmingham'
p362
S'Birmingham'
p363
S'NNP'
p364
S'I-NP'
p365
g5
tp366
a(S'Vasculitis'
p367
S'Vasculitis'
p368
S'NNP'
p369
S'I-NP'
p370
g5
tp371
a(S'Activity'
p372
S'Activity'
p373
S'NNP'
p374
S'I-NP'
p375
g5
tp376
a(S'Score'
p377
S'Score'
p378
S'NNP'
p379
S'I-NP'
p380
g5
tp381
a(S'for'
p382
S'for'
p383
S'IN'
p384
S'B-PP'
p385
g5
tp386
a(S'Wegener'
p387
S'Wegener'
p388
S'NNP'
p389
S'B-NP'
p390
g5
tp391
a(S"'s"
p392
S"'s"
p393
S'POS'
p394
S'B-NP'
p395
g5
tp396
a(S'Granulomatosis'
p397
S'Granulomatosis'
p398
S'NN'
p399
S'I-NP'
p400
g5
tp401
a(S'of'
p402
S'of'
p403
S'IN'
p404
S'B-PP'
p405
g5
tp406
a(S'0'
p407
g407
S'CD'
p408
S'B-NP'
p409
g5
tp410
a(S'for'
p411
S'for'
p412
S'IN'
p413
S'B-PP'
p414
g5
tp415
a(S'at'
p416
S'at'
p417
S'IN'
p418
S'B-NP'
p419
g5
tp420
a(S'least'
p421
S'least'
p422
S'JJS'
p423
S'I-NP'
p424
g5
tp425
a(S'six'
p426
S'six'
p427
S'CD'
p428
S'I-NP'
p429
g5
tp430
a(S'months'
p431
S'month'
p432
S'NNS'
p433
S'I-NP'
p434
g5
tp435
a(S'('
p436
g436
g436
g5
g5
tp437
a(S'scores'
p438
S'score'
p439
S'NNS'
p440
S'B-NP'
p441
g5
tp442
a(S'can'
p443
S'can'
p444
S'MD'
p445
S'B-VP'
p446
g5
tp447
a(S'range'
p448
S'range'
p449
S'VB'
p450
S'I-VP'
p451
g5
tp452
a(S'from'
p453
S'from'
p454
S'IN'
p455
S'B-PP'
p456
g5
tp457
a(g407
g407
S'CD'
p458
S'B-NP'
p459
g5
tp460
a(S'to'
p461
S'to'
p462
S'TO'
p463
S'B-PP'
p464
g5
tp465
a(S'67'
p466
S'67'
p467
S'CD'
p468
S'B-NP'
p469
g5
tp470
a(g153
g153
g153
g5
g5
tp471
a(S'with'
p472
S'with'
p473
S'IN'
p474
S'B-PP'
p475
g5
tp476
a(S'higher'
p477
S'high'
p478
S'JJR'
p479
S'B-NP'
p480
g5
tp481
a(S'scores'
p482
S'score'
p483
S'NNS'
p484
S'I-NP'
p485
g5
tp486
a(S'indicating'
p487
S'indicate'
p488
S'VBG'
p489
S'B-VP'
p490
g5
tp491
a(S'more'
p492
S'more'
p493
S'RBR'
p494
S'B-NP'
p495
g5
tp496
a(S'active'
p497
S'active'
p498
S'JJ'
p499
S'I-NP'
p500
g5
tp501
a(S'disease'
p502
S'disease'
p503
S'NN'
p504
S'I-NP'
p505
g5
tp506
a(S')'
p507
g507
g507
g5
g5
tp508
a(g41
g41
g41
g5
g5
tp509
a(S'In'
p510
S'In'
p511
S'IN'
p512
S'B-PP'
p513
g5
tp514
a(S'addition'
p515
S'addition'
p516
S'NN'
p517
S'B-NP'
p518
g5
tp519
a(S'to'
p520
S'to'
p521
S'TO'
p522
S'B-VP'
p523
g5
tp524
a(S'etanercept'
p525
S'etanercept'
p526
S'VB'
p527
S'I-VP'
p528
g5
tp529
a(S'or'
p530
S'or'
p531
S'CC'
p532
g5
g5
tp533
a(S'placebo'
p534
S'placebo'
p535
S'NN'
p536
S'B-NP'
p537
g5
tp538
a(g153
g153
g153
g5
g5
tp539
a(S'patients'
p540
S'patient'
p541
S'NNS'
p542
S'B-NP'
p543
g5
tp544
a(S'received'
p545
S'receive'
p546
S'VBD'
p547
S'B-VP'
p548
g5
tp549
a(S'standard'
p550
S'standard'
p551
S'JJ'
p552
S'B-NP'
p553
g5
tp554
a(S'therapy'
p555
S'therapy'
p556
S'NN'
p557
S'I-NP'
p558
g5
tp559
a(g436
g436
g436
g5
g5
tp560
a(S'glucocorticoids'
p561
S'glucocorticoid'
p562
S'NNS'
p563
S'B-NP'
p564
g5
tp565
a(S'plus'
p566
S'plus'
p567
S'CC'
p568
g5
g5
tp569
a(S'cyclophosphamide'
p570
S'cyclophosphamide'
p571
S'NN'
p572
S'B-NP'
p573
g5
tp574
a(S'or'
p575
S'or'
p576
S'CC'
p577
S'I-NP'
p578
g5
tp579
a(S'methotrexate'
p580
S'methotrexate'
p581
S'NN'
p582
S'I-NP'
p583
g5
tp584
a(g507
g507
g507
g5
g5
tp585
a(g41
g41
g41
g5
g5
tp586
a(S'After'
p587
S'After'
p588
S'IN'
p589
S'B-PP'
p590
g5
tp591
a(S'remission'
p592
S'remission'
p593
S'NN'
p594
S'B-NP'
p595
g5
tp596
a(g153
g153
g153
g5
g5
tp597
a(S'standard'
p598
S'standard'
p599
S'JJ'
p600
S'B-NP'
p601
g5
tp602
a(S'medications'
p603
S'medication'
p604
S'NNS'
p605
S'I-NP'
p606
g5
tp607
a(S'were'
p608
S'be'
p609
S'VBD'
p610
S'B-VP'
p611
g5
tp612
a(S'tapered'
p613
S'taper'
p614
S'VBN'
p615
S'I-VP'
p616
g5
tp617
a(S'according'
p618
S'accord'
p619
S'VBG'
p620
S'B-PP'
p621
g5
tp622
a(S'to'
p623
S'to'
p624
S'TO'
p625
S'B-PP'
p626
g5
tp627
a(S'the'
p628
S'the'
p629
S'DT'
p630
S'B-NP'
p631
g5
tp632
a(S'protocol'
p633
S'protocol'
p634
S'NN'
p635
S'I-NP'
p636
g5
tp637
a(g41
g41
g41
g5
g5
tp638
a(S'RESULTS'
p639
S'RESULTS'
p640
S'NNS'
p641
S'B-NP'
p642
g5
tp643
a(S'The'
p644
S'The'
p645
S'DT'
p646
S'B-NP'
p647
g5
tp648
a(S'mean'
p649
S'mean'
p650
S'JJ'
p651
S'I-NP'
p652
g5
tp653
a(S'follow-up'
p654
S'follow-up'
p655
S'NN'
p656
S'I-NP'
p657
g5
tp658
a(S'for'
p659
S'for'
p660
S'IN'
p661
S'B-PP'
p662
g5
tp663
a(S'the'
p664
S'the'
p665
S'DT'
p666
S'B-NP'
p667
g5
tp668
a(S'overall'
p669
S'overall'
p670
S'JJ'
p671
S'I-NP'
p672
g5
tp673
a(S'cohort'
p674
S'cohort'
p675
S'NN'
p676
S'I-NP'
p677
g5
tp678
a(S'was'
p679
S'be'
p680
S'VBD'
p681
S'B-VP'
p682
g5
tp683
a(S'27'
p684
S'27'
p685
S'CD'
p686
S'B-NP'
p687
g5
tp688
a(S'months.'
p689
S'months.'
p690
S'NNS'
p691
S'I-NP'
p692
g5
tp693
a(S'Of'
p694
S'Of'
p695
S'IN'
p696
S'B-PP'
p697
g5
tp698
a(S'the'
p699
S'the'
p700
S'DT'
p701
S'B-NP'
p702
g5
tp703
a(S'174'
p704
S'174'
p705
S'CD'
p706
S'I-NP'
p707
g5
tp708
a(S'patients'
p709
S'patient'
p710
S'NNS'
p711
S'I-NP'
p712
g5
tp713
a(S'who'
p714
S'who'
p715
S'WP'
p716
S'B-NP'
p717
g5
tp718
a(S'could'
p719
S'could'
p720
S'MD'
p721
S'B-VP'
p722
g5
tp723
a(S'be'
p724
S'be'
p725
S'VB'
p726
S'I-VP'
p727
g5
tp728
a(S'evaluated'
p729
S'evaluate'
p730
S'VBN'
p731
S'I-VP'
p732
g5
tp733
a(g153
g153
g153
g5
g5
tp734
a(S'126'
p735
S'126'
p736
S'CD'
p737
S'B-NP'
p738
g5
tp739
a(g436
g436
g436
g5
g5
tp740
a(S'72.4'
p741
S'72.4'
p742
S'CD'
p743
S'B-NP'
p744
g5
tp745
a(S'percent'
p746
S'percent'
p747
S'NN'
p748
S'I-NP'
p749
g5
tp750
a(g507
g507
g507
g5
g5
tp751
a(S'had'
p752
S'have'
p753
S'VBD'
p754
S'B-VP'
p755
g5
tp756
a(g207
g207
S'DT'
p757
S'B-NP'
p758
g5
tp759
a(S'sustained'
p760
S'sustained'
p761
S'JJ'
p762
S'I-NP'
p763
g5
tp764
a(S'remission'
p765
S'remission'
p766
S'NN'
p767
S'I-NP'
p768
g5
tp769
a(g153
g153
g153
g5
g5
tp770
a(S'but'
p771
S'but'
p772
S'CC'
p773
g5
g5
tp774
a(S'only'
p775
S'only'
p776
S'RB'
p777
S'B-NP'
p778
g5
tp779
a(S'86'
p780
S'86'
p781
S'CD'
p782
S'I-NP'
p783
g5
tp784
a(g436
g436
g436
g5
g5
tp785
a(S'49.4'
p786
S'49.4'
p787
S'CD'
p788
S'B-NP'
p789
g5
tp790
a(S'percent'
p791
S'percent'
p792
S'NN'
p793
S'I-NP'
p794
g5
tp795
a(g507
g507
g507
g5
g5
tp796
a(S'remained'
p797
S'remain'
p798
S'VBD'
p799
S'B-VP'
p800
g5
tp801
a(S'in'
p802
S'in'
p803
S'IN'
p804
S'B-PP'
p805
g5
tp806
a(S'remission'
p807
S'remission'
p808
S'NN'
p809
S'B-NP'
p810
g5
tp811
a(S'for'
p812
S'for'
p813
S'IN'
p814
S'B-PP'
p815
g5
tp816
a(S'the'
p817
S'the'
p818
S'DT'
p819
S'B-NP'
p820
g5
tp821
a(S'remainder'
p822
S'remainder'
p823
S'NN'
p824
S'I-NP'
p825
g5
tp826
a(S'of'
p827
S'of'
p828
S'IN'
p829
S'B-PP'
p830
g5
tp831
a(S'the'
p832
S'the'
p833
S'DT'
p834
S'B-NP'
p835
g5
tp836
a(S'trial.'
p837
S'trial.'
p838
S'NN'
p839
S'I-NP'
p840
S'B-DNA'
p841
tp842
a(S'There'
p843
S'There'
p844
S'EX'
p845
S'B-NP'
p846
S'I-DNA'
p847
tp848
a(S'were'
p849
S'be'
p850
S'VBD'
p851
S'B-VP'
p852
g5
tp853
a(S'no'
p854
S'no'
p855
S'DT'
p856
S'B-NP'
p857
g5
tp858
a(S'significant'
p859
S'significant'
p860
S'JJ'
p861
S'I-NP'
p862
g5
tp863
a(S'differences'
p864
S'difference'
p865
S'NNS'
p866
S'I-NP'
p867
g5
tp868
a(S'between'
p869
S'between'
p870
S'IN'
p871
S'B-PP'
p872
g5
tp873
a(S'the'
p874
S'the'
p875
S'DT'
p876
S'B-NP'
p877
g5
tp878
a(S'etanercept'
p879
S'etanercept'
p880
S'NN'
p881
S'I-NP'
p882
g5
tp883
a(S'and'
p884
S'and'
p885
S'CC'
p886
S'I-NP'
p887
g5
tp888
a(S'control'
p889
S'control'
p890
S'NN'
p891
S'I-NP'
p892
g5
tp893
a(S'groups'
p894
S'group'
p895
S'NNS'
p896
S'I-NP'
p897
g5
tp898
a(S'in'
p899
S'in'
p900
S'IN'
p901
S'B-PP'
p902
g5
tp903
a(S'the'
p904
S'the'
p905
S'DT'
p906
S'B-NP'
p907
g5
tp908
a(S'rates'
p909
S'rate'
p910
S'NNS'
p911
S'I-NP'
p912
g5
tp913
a(S'of'
p914
S'of'
p915
S'IN'
p916
S'B-PP'
p917
g5
tp918
a(S'sustained'
p919
S'sustained'
p920
S'JJ'
p921
S'B-NP'
p922
g5
tp923
a(S'remission'
p924
S'remission'
p925
S'NN'
p926
S'I-NP'
p927
g5
tp928
a(g436
g436
g436
g5
g5
tp929
a(S'69.7'
p930
S'69.7'
p931
S'CD'
p932
S'B-NP'
p933
g5
tp934
a(S'percent'
p935
S'percent'
p936
S'NN'
p937
S'I-NP'
p938
g5
tp939
a(S'vs.'
p940
S'vs.'
p941
S'IN'
p942
S'B-PP'
p943
g5
tp944
a(S'75.3'
p945
S'75.3'
p946
S'CD'
p947
S'B-NP'
p948
g5
tp949
a(S'percent'
p950
S'percent'
p951
S'NN'
p952
S'I-NP'
p953
g5
tp954
a(g153
g153
g153
g5
g5
tp955
a(S'P=0.39'
p956
S'P=0.39'
p957
S'NN'
p958
S'B-NP'
p959
S'B-protein'
p960
tp961
a(g507
g507
g507
g5
g5
tp962
a(g153
g153
g153
g5
g5
tp963
a(S'sustained'
p964
S'sustained'
p965
S'JJ'
p966
S'B-NP'
p967
g5
tp968
a(S'periods'
p969
S'period'
p970
S'NNS'
p971
S'I-NP'
p972
g5
tp973
a(S'of'
p974
S'of'
p975
S'IN'
p976
S'B-PP'
p977
g5
tp978
a(S'low-level'
p979
S'low-level'
p980
S'JJ'
p981
S'B-NP'
p982
g5
tp983
a(S'disease'
p984
S'disease'
p985
S'NN'
p986
S'I-NP'
p987
g5
tp988
a(S'activity'
p989
S'activity'
p990
S'NN'
p991
S'I-NP'
p992
g5
tp993
a(g436
g436
g436
g5
g5
tp994
a(S'86.5'
p995
S'86.5'
p996
S'CD'
p997
S'B-NP'
p998
g5
tp999
a(S'percent'
p1000
S'percent'
p1001
S'NN'
p1002
S'I-NP'
p1003
g5
tp1004
a(S'vs.'
p1005
S'vs.'
p1006
S'IN'
p1007
S'B-PP'
p1008
g5
tp1009
a(S'90.6'
p1010
S'90.6'
p1011
S'CD'
p1012
S'B-NP'
p1013
g5
tp1014
a(S'percent'
p1015
S'percent'
p1016
S'NN'
p1017
S'I-NP'
p1018
g5
tp1019
a(g153
g153
g153
g5
g5
tp1020
a(S'P=0.32'
p1021
S'P=0.32'
p1022
S'NN'
p1023
S'B-NP'
p1024
S'B-protein'
p1025
tp1026
a(g507
g507
g507
g5
g5
tp1027
a(g153
g153
g153
g5
g5
tp1028
a(S'or'
p1029
S'or'
p1030
S'CC'
p1031
g5
g5
tp1032
a(S'the'
p1033
S'the'
p1034
S'DT'
p1035
S'B-NP'
p1036
g5
tp1037
a(S'time'
p1038
S'time'
p1039
S'NN'
p1040
S'I-NP'
p1041
g5
tp1042
a(S'required'
p1043
S'require'
p1044
S'VBN'
p1045
S'B-VP'
p1046
g5
tp1047
a(S'to'
p1048
S'to'
p1049
S'TO'
p1050
S'B-VP'
p1051
g5
tp1052
a(S'achieve'
p1053
S'achieve'
p1054
S'VB'
p1055
S'I-VP'
p1056
g5
tp1057
a(S'those'
p1058
S'those'
p1059
S'DT'
p1060
S'B-NP'
p1061
g5
tp1062
a(S'measures.'
p1063
S'measures.'
p1064
S'NN'
p1065
S'I-NP'
p1066
g5
tp1067
a(S'Disease'
p1068
S'Disease'
p1069
S'NN'
p1070
S'I-NP'
p1071
g5
tp1072
a(S'flares'
p1073
S'flare'
p1074
S'NNS'
p1075
S'I-NP'
p1076
g5
tp1077
a(S'were'
p1078
S'be'
p1079
S'VBD'
p1080
S'B-VP'
p1081
g5
tp1082
a(S'common'
p1083
S'common'
p1084
S'JJ'
p1085
S'B-ADJP'
p1086
g5
tp1087
a(S'in'
p1088
S'in'
p1089
S'IN'
p1090
S'B-PP'
p1091
g5
tp1092
a(S'both'
p1093
S'both'
p1094
S'DT'
p1095
S'B-NP'
p1096
g5
tp1097
a(S'groups'
p1098
S'group'
p1099
S'NNS'
p1100
S'I-NP'
p1101
g5
tp1102
a(g153
g153
g153
g5
g5
tp1103
a(S'with'
p1104
S'with'
p1105
S'IN'
p1106
S'B-PP'
p1107
g5
tp1108
a(S'118'
p1109
S'118'
p1110
S'CD'
p1111
S'B-NP'
p1112
S'B-DNA'
p1113
tp1114
a(S'flares'
p1115
S'flare'
p1116
S'NNS'
p1117
S'I-NP'
p1118
S'I-DNA'
p1119
tp1120
a(S'in'
p1121
S'in'
p1122
S'IN'
p1123
S'B-PP'
p1124
g5
tp1125
a(S'the'
p1126
S'the'
p1127
S'DT'
p1128
S'B-NP'
p1129
g5
tp1130
a(S'etanercept'
p1131
S'etanercept'
p1132
S'JJ'
p1133
S'I-NP'
p1134
g5
tp1135
a(S'group'
p1136
S'group'
p1137
S'NN'
p1138
S'I-NP'
p1139
g5
tp1140
a(g436
g436
g436
g5
g5
tp1141
a(S'23'
p1142
S'23'
p1143
S'CD'
p1144
S'B-NP'
p1145
g5
tp1146
a(S'severe'
p1147
S'severe'
p1148
S'JJ'
p1149
S'I-NP'
p1150
g5
tp1151
a(S'and'
p1152
S'and'
p1153
S'CC'
p1154
g5
g5
tp1155
a(S'95'
p1156
S'95'
p1157
S'CD'
p1158
S'B-NP'
p1159
g5
tp1160
a(S'limited'
p1161
S'limited'
p1162
S'JJ'
p1163
S'I-NP'
p1164
g5
tp1165
a(g507
g507
g507
g5
g5
tp1166
a(S'and'
p1167
S'and'
p1168
S'CC'
p1169
g5
g5
tp1170
a(S'134'
p1171
S'134'
p1172
S'CD'
p1173
S'B-NP'
p1174
g5
tp1175
a(S'in'
p1176
S'in'
p1177
S'IN'
p1178
S'B-PP'
p1179
g5
tp1180
a(S'the'
p1181
S'the'
p1182
S'DT'
p1183
S'B-NP'
p1184
g5
tp1185
a(S'control'
p1186
S'control'
p1187
S'NN'
p1188
S'I-NP'
p1189
g5
tp1190
a(S'group'
p1191
S'group'
p1192
S'NN'
p1193
S'I-NP'
p1194
g5
tp1195
a(g436
g436
g436
g5
g5
tp1196
a(S'25'
p1197
S'25'
p1198
S'CD'
p1199
S'B-NP'
p1200
g5
tp1201
a(S'severe'
p1202
S'severe'
p1203
S'JJ'
p1204
S'I-NP'
p1205
g5
tp1206
a(S'and'
p1207
S'and'
p1208
S'CC'
p1209
g5
g5
tp1210
a(S'109'
p1211
S'109'
p1212
S'CD'
p1213
S'B-NP'
p1214
g5
tp1215
a(S'limited'
p1216
S'limit'
p1217
S'VBN'
p1218
S'B-VP'
p1219
g5
tp1220
a(g507
g507
g507
g5
g5
tp1221
a(g41
g41
g41
g5
g5
tp1222
a(S'There'
p1223
S'There'
p1224
S'EX'
p1225
S'B-NP'
p1226
g5
tp1227
a(S'was'
p1228
S'be'
p1229
S'VBD'
p1230
S'B-VP'
p1231
g5
tp1232
a(S'no'
p1233
S'no'
p1234
S'DT'
p1235
S'B-NP'
p1236
g5
tp1237
a(S'significant'
p1238
S'significant'
p1239
S'JJ'
p1240
S'I-NP'
p1241
g5
tp1242
a(S'difference'
p1243
S'difference'
p1244
S'NN'
p1245
S'I-NP'
p1246
g5
tp1247
a(S'between'
p1248
S'between'
p1249
S'IN'
p1250
S'B-PP'
p1251
g5
tp1252
a(S'the'
p1253
S'the'
p1254
S'DT'
p1255
S'B-NP'
p1256
g5
tp1257
a(S'etanercept'
p1258
S'etanercept'
p1259
S'NN'
p1260
S'I-NP'
p1261
g5
tp1262
a(S'and'
p1263
S'and'
p1264
S'CC'
p1265
S'I-NP'
p1266
g5
tp1267
a(S'control'
p1268
S'control'
p1269
S'NN'
p1270
S'I-NP'
p1271
g5
tp1272
a(S'groups'
p1273
S'group'
p1274
S'NNS'
p1275
S'I-NP'
p1276
g5
tp1277
a(S'in'
p1278
S'in'
p1279
S'IN'
p1280
S'B-PP'
p1281
g5
tp1282
a(S'the'
p1283
S'the'
p1284
S'DT'
p1285
S'B-NP'
p1286
g5
tp1287
a(S'relative'
p1288
S'relative'
p1289
S'JJ'
p1290
S'I-NP'
p1291
g5
tp1292
a(S'risk'
p1293
S'risk'
p1294
S'NN'
p1295
S'I-NP'
p1296
g5
tp1297
a(S'of'
p1298
S'of'
p1299
S'IN'
p1300
S'B-PP'
p1301
g5
tp1302
a(S'disease'
p1303
S'disease'
p1304
S'NN'
p1305
S'B-NP'
p1306
g5
tp1307
a(S'flares'
p1308
S'flare'
p1309
S'NNS'
p1310
S'I-NP'
p1311
g5
tp1312
a(S'per'
p1313
S'per'
p1314
S'IN'
p1315
S'B-PP'
p1316
g5
tp1317
a(S'100'
p1318
S'100'
p1319
S'CD'
p1320
S'B-NP'
p1321
g5
tp1322
a(S'person-years'
p1323
S'person-year'
p1324
S'NNS'
p1325
S'I-NP'
p1326
g5
tp1327
a(S'of'
p1328
S'of'
p1329
S'IN'
p1330
S'B-PP'
p1331
g5
tp1332
a(S'follow-up'
p1333
S'follow-up'
p1334
S'NN'
p1335
S'B-NP'
p1336
g5
tp1337
a(g436
g436
g436
g5
g5
tp1338
a(S'0.89'
p1339
S'0.89'
p1340
S'CD'
p1341
S'B-NP'
p1342
g5
tp1343
a(g153
g153
g153
g5
g5
tp1344
a(S'P=0.54'
p1345
S'P=0.54'
p1346
S'NN'
p1347
S'B-NP'
p1348
g5
tp1349
a(g507
g507
g507
g5
g5
tp1350
a(g41
g41
g41
g5
g5
tp1351
a(S'During'
p1352
S'During'
p1353
S'IN'
p1354
S'B-PP'
p1355
g5
tp1356
a(S'the'
p1357
S'the'
p1358
S'DT'
p1359
S'B-NP'
p1360
g5
tp1361
a(S'study'
p1362
S'study'
p1363
S'NN'
p1364
S'I-NP'
p1365
g5
tp1366
a(g153
g153
g153
g5
g5
tp1367
a(S'56.2'
p1368
S'56.2'
p1369
S'CD'
p1370
S'B-NP'
p1371
g5
tp1372
a(S'percent'
p1373
S'percent'
p1374
S'NN'
p1375
S'I-NP'
p1376
g5
tp1377
a(S'of'
p1378
S'of'
p1379
S'IN'
p1380
S'B-PP'
p1381
g5
tp1382
a(S'patients'
p1383
S'patient'
p1384
S'NNS'
p1385
S'B-NP'
p1386
g5
tp1387
a(S'in'
p1388
S'in'
p1389
S'IN'
p1390
S'B-PP'
p1391
g5
tp1392
a(S'the'
p1393
S'the'
p1394
S'DT'
p1395
S'B-NP'
p1396
g5
tp1397
a(S'etanercept'
p1398
S'etanercept'
p1399
S'JJ'
p1400
S'I-NP'
p1401
g5
tp1402
a(S'group'
p1403
S'group'
p1404
S'NN'
p1405
S'I-NP'
p1406
g5
tp1407
a(S'and'
p1408
S'and'
p1409
S'CC'
p1410
g5
g5
tp1411
a(S'57.1'
p1412
S'57.1'
p1413
S'CD'
p1414
S'B-NP'
p1415
g5
tp1416
a(S'percent'
p1417
S'percent'
p1418
S'NN'
p1419
S'I-NP'
p1420
g5
tp1421
a(S'of'
p1422
S'of'
p1423
S'IN'
p1424
S'B-PP'
p1425
g5
tp1426
a(S'those'
p1427
S'those'
p1428
S'DT'
p1429
S'B-NP'
p1430
g5
tp1431
a(S'in'
p1432
S'in'
p1433
S'IN'
p1434
S'B-PP'
p1435
g5
tp1436
a(S'the'
p1437
S'the'
p1438
S'DT'
p1439
S'B-NP'
p1440
g5
tp1441
a(S'control'
p1442
S'control'
p1443
S'NN'
p1444
S'I-NP'
p1445
g5
tp1446
a(S'group'
p1447
S'group'
p1448
S'NN'
p1449
S'I-NP'
p1450
g5
tp1451
a(S'had'
p1452
S'have'
p1453
S'VBD'
p1454
S'B-VP'
p1455
g5
tp1456
a(S'at'
p1457
S'at'
p1458
S'IN'
p1459
S'B-NP'
p1460
g5
tp1461
a(S'least'
p1462
S'least'
p1463
S'JJS'
p1464
S'I-NP'
p1465
g5
tp1466
a(S'one'
p1467
S'one'
p1468
S'CD'
p1469
S'I-NP'
p1470
g5
tp1471
a(S'severe'
p1472
S'severe'
p1473
S'JJ'
p1474
S'I-NP'
p1475
g5
tp1476
a(S'or'
p1477
S'or'
p1478
S'CC'
p1479
S'I-NP'
p1480
g5
tp1481
a(S'life-threatening'
p1482
S'life-threatening'
p1483
S'JJ'
p1484
S'I-NP'
p1485
g5
tp1486
a(S'adverse'
p1487
S'adverse'
p1488
S'JJ'
p1489
S'I-NP'
p1490
g5
tp1491
a(S'event'
p1492
S'event'
p1493
S'NN'
p1494
S'I-NP'
p1495
g5
tp1496
a(S'or'
p1497
S'or'
p1498
S'CC'
p1499
g5
g5
tp1500
a(S'died'
p1501
S'die'
p1502
S'VBD'
p1503
S'B-VP'
p1504
g5
tp1505
a(g436
g436
g436
g5
g5
tp1506
a(S'P=0.90'
p1507
S'P=0.90'
p1508
S'NN'
p1509
S'B-NP'
p1510
g5
tp1511
a(g507
g507
g507
g5
g5
tp1512
a(g41
g41
g41
g5
g5
tp1513
a(S'Solid'
p1514
S'Solid'
p1515
S'JJ'
p1516
S'B-NP'
p1517
g5
tp1518
a(S'cancers'
p1519
S'cancer'
p1520
S'NNS'
p1521
S'I-NP'
p1522
g5
tp1523
a(S'developed'
p1524
S'develop'
p1525
S'VBD'
p1526
S'B-VP'
p1527
g5
tp1528
a(S'in'
p1529
S'in'
p1530
S'IN'
p1531
S'B-PP'
p1532
g5
tp1533
a(S'six'
p1534
S'six'
p1535
S'CD'
p1536
S'B-NP'
p1537
g5
tp1538
a(S'patients'
p1539
S'patient'
p1540
S'NNS'
p1541
S'I-NP'
p1542
g5
tp1543
a(S'in'
p1544
S'in'
p1545
S'IN'
p1546
S'B-PP'
p1547
g5
tp1548
a(S'the'
p1549
S'the'
p1550
S'DT'
p1551
S'B-NP'
p1552
g5
tp1553
a(S'etanercept'
p1554
S'etanercept'
p1555
S'JJ'
p1556
S'I-NP'
p1557
g5
tp1558
a(S'group'
p1559
S'group'
p1560
S'NN'
p1561
S'I-NP'
p1562
g5
tp1563
a(g153
g153
g153
g5
g5
tp1564
a(S'as'
p1565
S'as'
p1566
S'IN'
p1567
S'B-SBAR'
p1568
g5
tp1569
a(S'compared'
p1570
S'compare'
p1571
S'VBN'
p1572
S'B-PP'
p1573
g5
tp1574
a(S'with'
p1575
S'with'
p1576
S'IN'
p1577
S'B-PP'
p1578
g5
tp1579
a(S'none'
p1580
S'none'
p1581
S'NN'
p1582
S'B-NP'
p1583
g5
tp1584
a(S'in'
p1585
S'in'
p1586
S'IN'
p1587
S'B-PP'
p1588
g5
tp1589
a(S'the'
p1590
S'the'
p1591
S'DT'
p1592
S'B-NP'
p1593
g5
tp1594
a(S'control'
p1595
S'control'
p1596
S'NN'
p1597
S'I-NP'
p1598
g5
tp1599
a(S'group'
p1600
S'group'
p1601
S'NN'
p1602
S'I-NP'
p1603
g5
tp1604
a(g436
g436
g436
g5
g5
tp1605
a(S'P=0.01'
p1606
S'P=0.01'
p1607
S'NN'
p1608
S'B-NP'
p1609
g5
tp1610
a(g507
g507
g507
g5
g5
tp1611
a(g41
g41
g41
g5
g5
tp1612
a(S'CONCLUSIONS'
p1613
S'CONCLUSIONS'
p1614
S'NNS'
p1615
S'B-NP'
p1616
g5
tp1617
a(S'Etanercept'
p1618
S'Etanercept'
p1619
S'NN'
p1620
S'I-NP'
p1621
g5
tp1622
a(S'is'
p1623
S'be'
p1624
S'VBZ'
p1625
S'B-VP'
p1626
g5
tp1627
a(S'not'
p1628
S'not'
p1629
S'RB'
p1630
g5
g5
tp1631
a(S'effective'
p1632
S'effective'
p1633
S'JJ'
p1634
S'B-ADJP'
p1635
g5
tp1636
a(S'for'
p1637
S'for'
p1638
S'IN'
p1639
S'B-PP'
p1640
g5
tp1641
a(S'the'
p1642
S'the'
p1643
S'DT'
p1644
S'B-NP'
p1645
g5
tp1646
a(S'maintenance'
p1647
S'maintenance'
p1648
S'NN'
p1649
S'I-NP'
p1650
g5
tp1651
a(S'of'
p1652
S'of'
p1653
S'IN'
p1654
S'B-PP'
p1655
g5
tp1656
a(S'remission'
p1657
S'remission'
p1658
S'NN'
p1659
S'B-NP'
p1660
g5
tp1661
a(S'in'
p1662
S'in'
p1663
S'IN'
p1664
S'B-PP'
p1665
g5
tp1666
a(S'patients'
p1667
S'patient'
p1668
S'NNS'
p1669
S'B-NP'
p1670
g5
tp1671
a(S'with'
p1672
S'with'
p1673
S'IN'
p1674
S'B-PP'
p1675
g5
tp1676
a(S'Wegener'
p1677
S'Wegener'
p1678
S'NNP'
p1679
S'B-NP'
p1680
g5
tp1681
a(S"'s"
p1682
S"'s"
p1683
S'POS'
p1684
S'B-NP'
p1685
g5
tp1686
a(S'granulomatosis.'
p1687
S'granulomatosis.'
p1688
S'NN'
p1689
S'I-NP'
p1690
g5
tp1691
a(S'Durable'
p1692
S'Durable'
p1693
S'JJ'
p1694
S'I-NP'
p1695
g5
tp1696
a(S'remissions'
p1697
S'remission'
p1698
S'NNS'
p1699
S'I-NP'
p1700
g5
tp1701
a(S'were'
p1702
S'be'
p1703
S'VBD'
p1704
S'B-VP'
p1705
g5
tp1706
a(S'achieved'
p1707
S'achieve'
p1708
S'VBN'
p1709
S'I-VP'
p1710
g5
tp1711
a(S'in'
p1712
S'in'
p1713
S'IN'
p1714
S'B-PP'
p1715
g5
tp1716
a(S'only'
p1717
S'only'
p1718
S'RB'
p1719
S'B-NP'
p1720
g5
tp1721
a(g207
g207
S'DT'
p1722
S'I-NP'
p1723
g5
tp1724
a(S'minority'
p1725
S'minority'
p1726
S'NN'
p1727
S'I-NP'
p1728
g5
tp1729
a(S'of'
p1730
S'of'
p1731
S'IN'
p1732
S'B-PP'
p1733
g5
tp1734
a(S'the'
p1735
S'the'
p1736
S'DT'
p1737
S'B-NP'
p1738
g5
tp1739
a(S'patients'
p1740
S'patient'
p1741
S'NNS'
p1742
S'I-NP'
p1743
g5
tp1744
a(g153
g153
g153
g5
g5
tp1745
a(S'and'
p1746
S'and'
p1747
S'CC'
p1748
g5
g5
tp1749
a(S'there'
p1750
S'there'
p1751
S'EX'
p1752
S'B-NP'
p1753
g5
tp1754
a(S'was'
p1755
S'be'
p1756
S'VBD'
p1757
S'B-VP'
p1758
g5
tp1759
a(g207
g207
S'DT'
p1760
S'B-NP'
p1761
g5
tp1762
a(S'high'
p1763
S'high'
p1764
S'JJ'
p1765
S'I-NP'
p1766
g5
tp1767
a(S'rate'
p1768
S'rate'
p1769
S'NN'
p1770
S'I-NP'
p1771
g5
tp1772
a(S'of'
p1773
S'of'
p1774
S'IN'
p1775
S'B-PP'
p1776
g5
tp1777
a(S'treatment-related'
p1778
S'treatment-related'
p1779
S'JJ'
p1780
S'B-NP'
p1781
g5
tp1782
a(S'complications'
p1783
S'complication'
p1784
S'NNS'
p1785
S'I-NP'
p1786
g5
tp1787
a(g41
g41
g41
g5
g5
tp1788
a.