(lp0
(S'A'
p1
g1
S'DT'
p2
S'B-NP'
p3
S'O'
p4
tp5
a(S'step-by-step'
p6
S'step-by-step'
p7
S'JJ'
p8
S'I-NP'
p9
g4
tp10
a(S'introduction'
p11
S'introduction'
p12
S'NN'
p13
S'I-NP'
p14
g4
tp15
a(S'to'
p16
S'to'
p17
S'TO'
p18
S'B-PP'
p19
g4
tp20
a(S'vegetables'
p21
S'vegetable'
p22
S'NNS'
p23
S'B-NP'
p24
g4
tp25
a(S'at'
p26
S'at'
p27
S'IN'
p28
S'B-PP'
p29
g4
tp30
a(S'the'
p31
S'the'
p32
S'DT'
p33
S'B-NP'
p34
g4
tp35
a(S'beginning'
p36
S'beginning'
p37
S'NN'
p38
S'I-NP'
p39
g4
tp40
a(S'of'
p41
S'of'
p42
S'IN'
p43
S'B-PP'
p44
g4
tp45
a(S'complementary'
p46
S'complementary'
p47
S'JJ'
p48
S'B-NP'
p49
g4
tp50
a(S'feeding.'
p51
S'feeding.'
p52
S'NN'
p53
S'I-NP'
p54
g4
tp55
a(S'The'
p56
S'The'
p57
S'DT'
p58
S'B-NP'
p59
g4
tp60
a(S'effects'
p61
S'effect'
p62
S'NNS'
p63
S'I-NP'
p64
g4
tp65
a(S'of'
p66
S'of'
p67
S'IN'
p68
S'B-PP'
p69
g4
tp70
a(S'early'
p71
S'early'
p72
S'JJ'
p73
S'B-NP'
p74
g4
tp75
a(S'and'
p76
S'and'
p77
S'CC'
p78
S'I-NP'
p79
g4
tp80
a(S'repeated'
p81
S'repeat'
p82
S'VBN'
p83
S'I-NP'
p84
g4
tp85
a(S'exposure'
p86
S'exposure'
p87
S'NN'
p88
S'I-NP'
p89
g4
tp90
a(S'.'
p91
g91
g91
g4
g4
tp92
a(S'Breastfeeding'
p93
S'Breastfeeding'
p94
S'NN'
p95
S'B-NP'
p96
g4
tp97
a(S'('
p98
g98
g98
g4
g4
tp99
a(S'BF'
p100
S'BF'
p101
S'NN'
p102
S'B-NP'
p103
S'B-protein'
p104
tp105
a(S')'
p106
g106
g106
g4
g4
tp107
a(S'is'
p108
S'be'
p109
S'VBZ'
p110
S'B-VP'
p111
g4
tp112
a(S'associated'
p113
S'associate'
p114
S'VBN'
p115
S'I-VP'
p116
g4
tp117
a(S'with'
p118
S'with'
p119
S'IN'
p120
S'B-PP'
p121
g4
tp122
a(S'willingness'
p123
S'willingness'
p124
S'NN'
p125
S'B-NP'
p126
g4
tp127
a(S'to'
p128
S'to'
p129
S'TO'
p130
S'B-VP'
p131
g4
tp132
a(S'accept'
p133
S'accept'
p134
S'VB'
p135
S'I-VP'
p136
g4
tp137
a(S'vegetables.'
p138
S'vegetables.'
p139
S'NN'
p140
S'B-NP'
p141
g4
tp142
a(S'This'
p143
S'This'
p144
S'DT'
p145
S'B-NP'
p146
g4
tp147
a(S'may'
p148
S'may'
p149
S'MD'
p150
S'B-VP'
p151
g4
tp152
a(S'be'
p153
S'be'
p154
S'VB'
p155
S'I-VP'
p156
g4
tp157
a(S'due'
p158
S'due'
p159
S'JJ'
p160
S'B-ADVP'
p161
g4
tp162
a(S'to'
p163
S'to'
p164
S'TO'
p165
S'B-PP'
p166
g4
tp167
a(S'the'
p168
S'the'
p169
S'DT'
p170
S'B-NP'
p171
g4
tp172
a(S'variety'
p173
S'variety'
p174
S'NN'
p175
S'I-NP'
p176
g4
tp177
a(S'of'
p178
S'of'
p179
S'IN'
p180
S'B-PP'
p181
g4
tp182
a(S'flavours'
p183
S'flavour'
p184
S'NNS'
p185
S'B-NP'
p186
g4
tp187
a(S'delivered'
p188
S'deliver'
p189
S'VBN'
p190
S'B-VP'
p191
g4
tp192
a(S'via'
p193
S'via'
p194
S'IN'
p195
S'B-PP'
p196
g4
tp197
a(S'breast'
p198
S'breast'
p199
S'NN'
p200
S'B-NP'
p201
g4
tp202
a(S'milk.'
p203
S'milk.'
p204
S'NN'
p205
S'I-NP'
p206
g4
tp207
a(S'Some'
p208
S'Some'
p209
S'DT'
p210
S'B-NP'
p211
g4
tp212
a(S'mothers'
p213
S'mother'
p214
S'NNS'
p215
S'I-NP'
p216
g4
tp217
a(S'add'
p218
S'add'
p219
S'VBP'
p220
S'B-VP'
p221
g4
tp222
a(S'vegetables'
p223
S'vegetable'
p224
S'NNS'
p225
S'B-NP'
p226
g4
tp227
a(S'to'
p228
S'to'
p229
S'TO'
p230
S'B-VP'
p231
g4
tp232
a(S'milk'
p233
S'milk'
p234
S'VB'
p235
S'I-VP'
p236
g4
tp237
a(S'during'
p238
S'during'
p239
S'IN'
p240
S'B-PP'
p241
g4
tp242
a(S'complementary'
p243
S'complementary'
p244
S'JJ'
p245
S'B-NP'
p246
g4
tp247
a(S'feeding'
p248
S'feeding'
p249
S'NN'
p250
S'I-NP'
p251
g4
tp252
a(g98
g98
g98
g4
g4
tp253
a(S'CF'
p254
S'CF'
p255
S'NN'
p256
S'B-NP'
p257
g4
tp258
a(g106
g106
g106
g4
g4
tp259
a(S'to'
p260
S'to'
p261
S'TO'
p262
S'B-VP'
p263
g4
tp264
a(S'enhance'
p265
S'enhance'
p266
S'VB'
p267
S'I-VP'
p268
g4
tp269
a(S'acceptance.'
p270
S'acceptance.'
p271
S'RP'
p272
S'B-PRT'
p273
g4
tp274
a(S'The'
p275
S'The'
p276
S'DT'
p277
S'B-NP'
p278
g4
tp279
a(S'present'
p280
S'present'
p281
S'JJ'
p282
S'I-NP'
p283
g4
tp284
a(S'study'
p285
S'study'
p286
S'NN'
p287
S'I-NP'
p288
g4
tp289
a(S'tested'
p290
S'test'
p291
S'VBD'
p292
S'B-VP'
p293
g4
tp294
a(S'a'
p295
g295
S'DT'
p296
S'B-NP'
p297
g4
tp298
a(S'step-by-step'
p299
S'step-by-step'
p300
S'JJ'
p301
S'I-NP'
p302
g4
tp303
a(S'exposure'
p304
S'exposure'
p305
S'NN'
p306
S'I-NP'
p307
g4
tp308
a(S'to'
p309
S'to'
p310
S'TO'
p311
S'B-PP'
p312
g4
tp313
a(S'vegetables'
p314
S'vegetable'
p315
S'NNS'
p316
S'B-NP'
p317
g4
tp318
a(S'in'
p319
S'in'
p320
S'IN'
p321
S'B-PP'
p322
g4
tp323
a(S'milk'
p324
S'milk'
p325
S'NN'
p326
S'B-NP'
p327
g4
tp328
a(S'then'
p329
S'then'
p330
S'RB'
p331
S'I-NP'
p332
g4
tp333
a(S'rice'
p334
S'rice'
p335
S'NN'
p336
S'B-VP'
p337
g4
tp338
a(S'during'
p339
S'during'
p340
S'IN'
p341
S'B-PP'
p342
g4
tp343
a(S'CF'
p344
S'CF'
p345
S'NN'
p346
S'B-NP'
p347
g4
tp348
a(S','
p349
g349
g349
g4
g4
tp350
a(S'on'
p351
S'on'
p352
S'IN'
p353
S'B-PP'
p354
g4
tp355
a(S'intake'
p356
S'intake'
p357
S'NN'
p358
S'B-NP'
p359
g4
tp360
a(S'and'
p361
S'and'
p362
S'CC'
p363
S'I-NP'
p364
g4
tp365
a(S'liking'
p366
S'liking'
p367
S'NN'
p368
S'I-NP'
p369
g4
tp370
a(S'of'
p371
S'of'
p372
S'IN'
p373
S'B-PP'
p374
g4
tp375
a(S'vegetables.'
p376
S'vegetables.'
p377
S'NN'
p378
S'B-NP'
p379
S'B-protein'
p380
tp381
a(S'Just'
p382
S'Just'
p383
S'RB'
p384
S'B-ADVP'
p385
S'I-protein'
p386
tp387
a(S'before'
p388
S'before'
p389
S'IN'
p390
S'B-PP'
p391
S'I-protein'
p392
tp393
a(S'CF'
p394
S'CF'
p395
S'NN'
p396
S'B-NP'
p397
S'I-protein'
p398
tp399
a(g349
g349
g349
g4
g4
tp400
a(S'enrolled'
p401
S'enrol'
p402
S'VBN'
p403
S'B-NP'
p404
g4
tp405
a(S'mothers'
p406
S'mother'
p407
S'NNS'
p408
S'I-NP'
p409
g4
tp410
a(S'were'
p411
S'be'
p412
S'VBD'
p413
S'B-VP'
p414
g4
tp415
a(S'randomised'
p416
S'randomise'
p417
S'VBN'
p418
S'I-VP'
p419
g4
tp420
a(S'to'
p421
S'to'
p422
S'TO'
p423
S'B-PP'
p424
g4
tp425
a(S'an'
p426
S'an'
p427
S'DT'
p428
S'B-NP'
p429
g4
tp430
a(S'intervention'
p431
S'intervention'
p432
S'NN'
p433
S'I-NP'
p434
g4
tp435
a(g98
g98
g98
g4
g4
tp436
a(S'IG'
p437
S'IG'
p438
S'NN'
p439
S'B-NP'
p440
S'B-protein'
p441
tp442
a(g349
g349
g349
g4
g4
tp443
a(S'n\xe2\x80\x89=\xe2\x80\x8918'
p444
S'n\xe2\x80\x89=\xe2\x80\x8918'
p445
S'CD'
p446
S'B-NP'
p447
g4
tp448
a(S';'
p449
g449
S':'
p450
g4
g4
tp451
a(S'6'
p452
g452
S'CD'
p453
S'B-NP'
p454
g4
tp455
a(S'BF'
p456
S'BF'
p457
S'NN'
p458
S'I-NP'
p459
g4
tp460
a(g106
g106
g106
g4
g4
tp461
a(S'or'
p462
S'or'
p463
S'CC'
p464
g4
g4
tp465
a(S'control'
p466
S'control'
p467
S'NN'
p468
S'B-NP'
p469
g4
tp470
a(S'group'
p471
S'group'
p472
S'NN'
p473
S'I-NP'
p474
g4
tp475
a(g98
g98
g98
g4
g4
tp476
a(S'CG'
p477
S'CG'
p478
S'NN'
p479
S'B-NP'
p480
g4
tp481
a(g349
g349
g349
g4
g4
tp482
a(S'n\xe2\x80\x89=\xe2\x80\x8918'
p483
S'n\xe2\x80\x89=\xe2\x80\x8918'
p484
S'CD'
p485
S'B-NP'
p486
g4
tp487
a(g449
g449
g450
g4
g4
tp488
a(g452
g452
S'CD'
p489
S'B-NP'
p490
g4
tp491
a(S'BF'
p492
S'BF'
p493
S'NN'
p494
S'I-NP'
p495
g4
tp496
a(g106
g106
g106
g4
g4
tp497
a(g91
g91
g91
g4
g4
tp498
a(S'IG'
p499
S'IG'
p500
S'NN'
p501
S'B-NP'
p502
S'B-protein'
p503
tp504
a(S'infants'
p505
S'infant'
p506
S'NNS'
p507
S'I-NP'
p508
S'I-protein'
p509
tp510
a(S'received'
p511
S'receive'
p512
S'VBD'
p513
S'B-VP'
p514
S'I-protein'
p515
tp516
a(S'12'
p517
S'12'
p518
S'CD'
p519
S'B-NP'
p520
S'I-protein'
p521
tp522
a(S'daily'
p523
S'daily'
p524
S'JJ'
p525
S'I-NP'
p526
g4
tp527
a(S'exposures'
p528
S'exposure'
p529
S'NNS'
p530
S'I-NP'
p531
g4
tp532
a(S'to'
p533
S'to'
p534
S'TO'
p535
S'B-PP'
p536
g4
tp537
a(S'vegetable'
p538
S'vegetable'
p539
S'JJ'
p540
S'B-NP'
p541
g4
tp542
a(S'puree'
p543
S'puree'
p544
S'NN'
p545
S'I-NP'
p546
g4
tp547
a(S'added'
p548
S'add'
p549
S'VBN'
p550
S'B-VP'
p551
g4
tp552
a(S'to'
p553
S'to'
p554
S'TO'
p555
S'I-VP'
p556
g4
tp557
a(S'milk'
p558
S'milk'
p559
S'VB'
p560
S'I-VP'
p561
g4
tp562
a(g98
g98
g98
g4
g4
tp563
a(S'days'
p564
S'day'
p565
S'NNS'
p566
S'B-NP'
p567
g4
tp568
a(S'1-12'
p569
S'1-12'
p570
S'CD'
p571
S'B-NP'
p572
g4
tp573
a(g106
g106
g106
g4
g4
tp574
a(g349
g349
g349
g4
g4
tp575
a(S'then'
p576
S'then'
p577
S'RB'
p578
g4
g4
tp579
a(S'12\xe2\x80\x89\xc3\x97\xe2\x80\x892'
p580
S'12\xe2\x80\x89\xc3\x97\xe2\x80\x892'
p581
S'CD'
p582
S'B-NP'
p583
g4
tp584
a(S'daily'
p585
S'daily'
p586
S'JJ'
p587
S'I-NP'
p588
g4
tp589
a(S'exposures'
p590
S'exposure'
p591
S'NNS'
p592
S'I-NP'
p593
g4
tp594
a(S'to'
p595
S'to'
p596
S'TO'
p597
S'B-PP'
p598
g4
tp599
a(S'vegetable'
p600
S'vegetable'
p601
S'JJ'
p602
S'B-NP'
p603
g4
tp604
a(S'puree'
p605
S'puree'
p606
S'NN'
p607
S'I-NP'
p608
g4
tp609
a(S'added'
p610
S'add'
p611
S'VBN'
p612
S'B-VP'
p613
g4
tp614
a(S'to'
p615
S'to'
p616
S'TO'
p617
S'B-VP'
p618
g4
tp619
a(S'rice'
p620
S'rice'
p621
S'VB'
p622
S'I-VP'
p623
g4
tp624
a(S'at'
p625
S'at'
p626
S'IN'
p627
S'B-PP'
p628
g4
tp629
a(S'home'
p630
S'home'
p631
S'NN'
p632
S'B-NP'
p633
g4
tp634
a(g98
g98
g98
g4
g4
tp635
a(S'days'
p636
S'day'
p637
S'NNS'
p638
S'B-NP'
p639
g4
tp640
a(S'13-24'
p641
S'13-24'
p642
S'CD'
p643
S'B-NP'
p644
g4
tp645
a(g106
g106
g106
g4
g4
tp646
a(g91
g91
g91
g4
g4
tp647
a(S'Plain'
p648
S'Plain'
p649
S'NN'
p650
S'B-NP'
p651
S'B-protein'
p652
tp653
a(S'milk'
p654
S'milk'
p655
S'NN'
p656
S'I-NP'
p657
S'I-protein'
p658
tp659
a(S'and'
p660
S'and'
p661
S'CC'
p662
S'I-NP'
p663
g4
tp664
a(S'rice'
p665
S'rice'
p666
S'NN'
p667
S'I-NP'
p668
g4
tp669
a(S'were'
p670
S'be'
p671
S'VBD'
p672
S'B-VP'
p673
g4
tp674
a(S'given'
p675
S'give'
p676
S'VBN'
p677
S'I-VP'
p678
g4
tp679
a(S'to'
p680
S'to'
p681
S'TO'
p682
S'B-PP'
p683
g4
tp684
a(S'CG.'
p685
S'CG.'
p686
S'NNP'
p687
S'B-NP'
p688
g4
tp689
a(S'Then'
p690
S'Then'
p691
S'NNP'
p692
S'I-NP'
p693
g4
tp694
a(S'both'
p695
S'both'
p696
S'DT'
p697
S'B-NP'
p698
g4
tp699
a(S'received'
p700
S'receive'
p701
S'VBD'
p702
S'B-VP'
p703
g4
tp704
a(S'11'
p705
S'11'
p706
S'CD'
p707
S'B-NP'
p708
g4
tp709
a(S'daily'
p710
S'daily'
p711
S'JJ'
p712
S'I-NP'
p713
g4
tp714
a(S'exposures'
p715
S'exposure'
p716
S'NNS'
p717
S'I-NP'
p718
g4
tp719
a(S'to'
p720
S'to'
p721
S'TO'
p722
S'B-PP'
p723
g4
tp724
a(S'vegetable'
p725
S'vegetable'
p726
S'JJ'
p727
S'B-NP'
p728
g4
tp729
a(S'puree.'
p730
S'puree.'
p731
S'NN'
p732
S'I-NP'
p733
g4
tp734
a(S'Intake'
p735
S'Intake'
p736
S'NN'
p737
S'I-NP'
p738
g4
tp739
a(S'was'
p740
S'be'
p741
S'VBD'
p742
S'B-VP'
p743
g4
tp744
a(S'weighed'
p745
S'weigh'
p746
S'VBN'
p747
S'I-VP'
p748
g4
tp749
a(S'and'
p750
S'and'
p751
S'CC'
p752
g4
g4
tp753
a(S'liking'
p754
S'like'
p755
S'VBG'
p756
S'B-VP'
p757
g4
tp758
a(S'rated'
p759
S'rat'
p760
S'VBN'
p761
S'I-VP'
p762
g4
tp763
a(S'on'
p764
S'on'
p765
S'IN'
p766
S'B-PP'
p767
g4
tp768
a(S'days'
p769
S'day'
p770
S'NNS'
p771
S'B-NP'
p772
g4
tp773
a(S'25-26'
p774
S'25-26'
p775
S'CD'
p776
S'B-NP'
p777
g4
tp778
a(S'and'
p779
S'and'
p780
S'CC'
p781
S'I-NP'
p782
g4
tp783
a(S'33-35'
p784
S'33-35'
p785
S'CD'
p786
S'I-NP'
p787
g4
tp788
a(S'after'
p789
S'after'
p790
S'IN'
p791
S'B-PP'
p792
g4
tp793
a(S'the'
p794
S'the'
p795
S'DT'
p796
S'B-NP'
p797
g4
tp798
a(S'start'
p799
S'start'
p800
S'NN'
p801
S'I-NP'
p802
g4
tp803
a(S'of'
p804
S'of'
p805
S'IN'
p806
S'B-PP'
p807
g4
tp808
a(S'CF'
p809
S'CF'
p810
S'NN'
p811
S'B-NP'
p812
S'B-protein'
p813
tp814
a(S'in'
p815
S'in'
p816
S'IN'
p817
S'B-PP'
p818
g4
tp819
a(S'the'
p820
S'the'
p821
S'DT'
p822
S'B-NP'
p823
g4
tp824
a(S'laboratory'
p825
S'laboratory'
p826
S'NN'
p827
S'I-NP'
p828
g4
tp829
a(g349
g349
g349
g4
g4
tp830
a(S'supplemented'
p831
S'supplement'
p832
S'VBN'
p833
S'B-VP'
p834
g4
tp835
a(S'by'
p836
S'by'
p837
S'IN'
p838
S'B-PP'
p839
g4
tp840
a(S'the'
p841
S'the'
p842
S'DT'
p843
S'B-NP'
p844
g4
tp845
a(S'same'
p846
S'same'
p847
S'JJ'
p848
S'I-NP'
p849
g4
tp850
a(S'data'
p851
S'datum'
p852
S'NNS'
p853
S'I-NP'
p854
g4
tp855
a(S'recorded'
p856
S'record'
p857
S'VBN'
p858
S'B-VP'
p859
g4
tp860
a(S'at'
p861
S'at'
p862
S'IN'
p863
S'B-PP'
p864
g4
tp865
a(S'home.'
p866
S'home.'
p867
S'NN'
p868
S'B-NP'
p869
g4
tp870
a(S'Vegetables'
p871
S'Vegetable'
p872
S'NNS'
p873
S'I-NP'
p874
g4
tp875
a(S'were'
p876
S'be'
p877
S'VBD'
p878
S'B-VP'
p879
g4
tp880
a(S'rotated'
p881
S'rotate'
p882
S'VBN'
p883
S'I-VP'
p884
g4
tp885
a(S'daily'
p886
S'daily'
p887
S'RB'
p888
S'B-ADVP'
p889
g4
tp890
a(g98
g98
g98
g4
g4
tp891
a(S'carrots'
p892
S'carrot'
p893
S'NNS'
p894
S'B-NP'
p895
g4
tp896
a(g349
g349
g349
g4
g4
tp897
a(S'green'
p898
S'green'
p899
S'JJ'
p900
S'B-NP'
p901
g4
tp902
a(S'beans'
p903
S'bean'
p904
S'NNS'
p905
S'I-NP'
p906
g4
tp907
a(g349
g349
g349
g4
g4
tp908
a(S'spinach'
p909
S'spinach'
p910
S'NN'
p911
S'B-NP'
p912
g4
tp913
a(g349
g349
g349
g4
g4
tp914
a(S'broccoli'
p915
S'broccoli'
p916
S'NN'
p917
S'B-NP'
p918
g4
tp919
a(g106
g106
g106
g4
g4
tp920
a(g91
g91
g91
g4
g4
tp921
a(S'Intake'
p922
S'Intake'
p923
S'NN'
p924
S'B-NP'
p925
g4
tp926
a(g349
g349
g349
S'I-NP'
p927
g4
tp928
a(S'liking'
p929
S'liking'
p930
S'NN'
p931
S'I-NP'
p932
g4
tp933
a(S'and'
p934
S'and'
p935
S'CC'
p936
S'I-NP'
p937
g4
tp938
a(S'pace'
p939
S'pace'
p940
S'NN'
p941
S'I-NP'
p942
g4
tp943
a(S'of'
p944
S'of'
p945
S'IN'
p946
S'B-PP'
p947
g4
tp948
a(S'eating'
p949
S'eating'
p950
S'NN'
p951
S'B-NP'
p952
g4
tp953
a(S'were'
p954
S'be'
p955
S'VBD'
p956
S'B-VP'
p957
g4
tp958
a(S'greater'
p959
S'great'
p960
S'JJR'
p961
S'B-ADJP'
p962
g4
tp963
a(S'for'
p964
S'for'
p965
S'IN'
p966
S'B-PP'
p967
g4
tp968
a(S'IG'
p969
S'IG'
p970
S'NN'
p971
S'B-NP'
p972
S'B-protein'
p973
tp974
a(S'than'
p975
S'than'
p976
S'IN'
p977
S'B-PP'
p978
g4
tp979
a(S'CG'
p980
S'CG'
p981
S'NN'
p982
S'B-NP'
p983
g4
tp984
a(S'infants.'
p985
S'infants.'
p986
S'NN'
p987
S'I-NP'
p988
g4
tp989
a(S'Intake'
p990
S'Intake'
p991
S'NN'
p992
S'I-NP'
p993
g4
tp994
a(S'and'
p995
S'and'
p996
S'CC'
p997
S'I-NP'
p998
g4
tp999
a(S'liking'
p1000
S'liking'
p1001
S'NN'
p1002
S'I-NP'
p1003
g4
tp1004
a(S'of'
p1005
S'of'
p1006
S'IN'
p1007
S'B-PP'
p1008
g4
tp1009
a(S'carrots'
p1010
S'carrot'
p1011
S'NNS'
p1012
S'B-NP'
p1013
g4
tp1014
a(S'were'
p1015
S'be'
p1016
S'VBD'
p1017
S'B-VP'
p1018
g4
tp1019
a(S'greater'
p1020
S'great'
p1021
S'JJR'
p1022
S'B-ADJP'
p1023
g4
tp1024
a(S'than'
p1025
S'than'
p1026
S'IN'
p1027
S'B-PP'
p1028
g4
tp1029
a(S'green'
p1030
S'green'
p1031
S'JJ'
p1032
S'B-NP'
p1033
g4
tp1034
a(S'beans.'
p1035
S'beans.'
p1036
S'NN'
p1037
S'I-NP'
p1038
g4
tp1039
a(S'However'
p1040
S'However'
p1041
S'RB'
p1042
S'B-ADVP'
p1043
g4
tp1044
a(g349
g349
g349
g4
g4
tp1045
a(S'at'
p1046
S'at'
p1047
S'IN'
p1048
S'B-PP'
p1049
g4
tp1050
a(S'6m'
p1051
S'6m'
p1052
S'NN'
p1053
S'B-NP'
p1054
g4
tp1055
a(S'then'
p1056
S'then'
p1057
S'RB'
p1058
S'B-VP'
p1059
g4
tp1060
a(S'18m'
p1061
S'18m'
p1062
S'RB'
p1063
S'I-VP'
p1064
g4
tp1065
a(S'follow'
p1066
S'follow'
p1067
S'VB'
p1068
S'I-VP'
p1069
g4
tp1070
a(S'up'
p1071
S'up'
p1072
S'RP'
p1073
S'B-PRT'
p1074
g4
tp1075
a(g349
g349
g349
g4
g4
tp1076
a(S'vegetable'
p1077
S'vegetable'
p1078
S'JJ'
p1079
S'B-ADJP'
p1080
g4
tp1081
a(g98
g98
g98
g4
g4
tp1082
a(S'carrot\xe2\x80\x89'
p1083
S'carrot\xe2\x80\x89'
p1084
S'NN'
p1085
S'B-NP'
p1086
g4
tp1087
a(S'>'
p1088
g1088
S'SYM'
p1089
g4
g4
tp1090
a(S'\xe2\x80\x89green'
p1091
S'\xe2\x80\x89green'
p1092
S'JJ'
p1093
S'B-NP'
p1094
g4
tp1095
a(S'beans'
p1096
S'bean'
p1097
S'NNS'
p1098
S'I-NP'
p1099
g4
tp1100
a(g106
g106
g106
g4
g4
tp1101
a(S'but'
p1102
S'but'
p1103
S'CC'
p1104
S'B-NP'
p1105
g4
tp1106
a(S'not'
p1107
S'not'
p1108
S'RB'
p1109
S'I-NP'
p1110
g4
tp1111
a(S'group'
p1112
S'group'
p1113
S'NN'
p1114
S'B-NP'
p1115
g4
tp1116
a(S'differences'
p1117
S'difference'
p1118
S'NNS'
p1119
S'I-NP'
p1120
g4
tp1121
a(S'were'
p1122
S'be'
p1123
S'VBD'
p1124
S'B-VP'
p1125
g4
tp1126
a(S'observed.'
p1127
S'observed.'
p1128
S'VBN'
p1129
S'I-VP'
p1130
g4
tp1131
a(S'Mothers'
p1132
S'Mothers'
p1133
S'NNP'
p1134
S'B-NP'
p1135
g4
tp1136
a(S'reported'
p1137
S'report'
p1138
S'VBD'
p1139
S'B-VP'
p1140
g4
tp1141
a(S'appreciation'
p1142
S'appreciation'
p1143
S'NN'
p1144
S'B-NP'
p1145
g4
tp1146
a(S'of'
p1147
S'of'
p1148
S'IN'
p1149
S'B-PP'
p1150
g4
tp1151
a(S'the'
p1152
S'the'
p1153
S'DT'
p1154
S'B-NP'
p1155
g4
tp1156
a(S'structure'
p1157
S'structure'
p1158
S'NN'
p1159
S'I-NP'
p1160
g4
tp1161
a(S'and'
p1162
S'and'
p1163
S'CC'
p1164
S'I-NP'
p1165
g4
tp1166
a(S'guidance'
p1167
S'guidance'
p1168
S'NN'
p1169
S'I-NP'
p1170
g4
tp1171
a(S'of'
p1172
S'of'
p1173
S'IN'
p1174
S'B-PP'
p1175
g4
tp1176
a(S'this'
p1177
S'this'
p1178
S'DT'
p1179
S'B-NP'
p1180
g4
tp1181
a(S'systematic'
p1182
S'systematic'
p1183
S'JJ'
p1184
S'I-NP'
p1185
g4
tp1186
a(S'approach.'
p1187
S'approach.'
p1188
S'NN'
p1189
S'I-NP'
p1190
g4
tp1191
a(S'Early'
p1192
S'Early'
p1193
S'JJ'
p1194
S'I-NP'
p1195
g4
tp1196
a(S'exposure'
p1197
S'exposure'
p1198
S'NN'
p1199
S'I-NP'
p1200
g4
tp1201
a(S'to'
p1202
S'to'
p1203
S'TO'
p1204
S'B-PP'
p1205
g4
tp1206
a(S'vegetables'
p1207
S'vegetable'
p1208
S'NNS'
p1209
S'B-NP'
p1210
g4
tp1211
a(S'in'
p1212
S'in'
p1213
S'IN'
p1214
S'B-PP'
p1215
g4
tp1216
a(g295
g295
S'DT'
p1217
S'B-NP'
p1218
g4
tp1219
a(S'step-by-step'
p1220
S'step-by-step'
p1221
S'JJ'
p1222
S'I-NP'
p1223
g4
tp1224
a(S'method'
p1225
S'method'
p1226
S'NN'
p1227
S'I-NP'
p1228
g4
tp1229
a(S'could'
p1230
S'could'
p1231
S'MD'
p1232
S'B-VP'
p1233
g4
tp1234
a(S'be'
p1235
S'be'
p1236
S'VB'
p1237
S'I-VP'
p1238
g4
tp1239
a(S'included'
p1240
S'include'
p1241
S'VBN'
p1242
S'I-VP'
p1243
g4
tp1244
a(S'in'
p1245
S'in'
p1246
S'IN'
p1247
S'B-PP'
p1248
g4
tp1249
a(S'CF'
p1250
S'CF'
p1251
S'NN'
p1252
S'B-NP'
p1253
S'B-cell_line'
p1254
tp1255
a(S'guidelines'
p1256
S'guideline'
p1257
S'NNS'
p1258
S'I-NP'
p1259
S'I-cell_line'
p1260
tp1261
a(S'and'
p1262
S'and'
p1263
S'CC'
p1264
g4
g4
tp1265
a(S'longer'
p1266
S'long'
p1267
S'JJR'
p1268
S'B-NP'
p1269
g4
tp1270
a(S'term'
p1271
S'term'
p1272
S'NN'
p1273
S'I-NP'
p1274
g4
tp1275
a(S'benefits'
p1276
S'benefit'
p1277
S'NNS'
p1278
S'I-NP'
p1279
g4
tp1280
a(S'assessed'
p1281
S'assess'
p1282
S'VBN'
p1283
S'B-VP'
p1284
g4
tp1285
a(S'by'
p1286
S'by'
p1287
S'IN'
p1288
S'B-PP'
p1289
g4
tp1290
a(S'extending'
p1291
S'extend'
p1292
S'VBG'
p1293
S'B-VP'
p1294
g4
tp1295
a(S'the'
p1296
S'the'
p1297
S'DT'
p1298
S'B-NP'
p1299
g4
tp1300
a(S'exposure'
p1301
S'exposure'
p1302
S'NN'
p1303
S'I-NP'
p1304
g4
tp1305
a(S'period'
p1306
S'period'
p1307
S'NN'
p1308
S'I-NP'
p1309
g4
tp1310
a(g91
g91
g91
g4
g4
tp1311
a.