(lp0
(S'Clinical'
p1
S'Clinical'
p2
S'JJ'
p3
S'B-NP'
p4
S'O'
p5
tp6
a(S'efficacy'
p7
S'efficacy'
p8
S'NN'
p9
S'I-NP'
p10
g5
tp11
a(S'of'
p12
S'of'
p13
S'IN'
p14
S'B-PP'
p15
g5
tp16
a(S'antazoline'
p17
S'antazoline'
p18
S'NN'
p19
S'B-NP'
p20
g5
tp21
a(S'in'
p22
S'in'
p23
S'IN'
p24
S'B-PP'
p25
g5
tp26
a(S'rapid'
p27
S'rapid'
p28
S'JJ'
p29
S'B-NP'
p30
g5
tp31
a(S'cardioversion'
p32
S'cardioversion'
p33
S'NN'
p34
S'I-NP'
p35
g5
tp36
a(S'of'
p37
S'of'
p38
S'IN'
p39
S'B-PP'
p40
g5
tp41
a(S'paroxysmal'
p42
S'paroxysmal'
p43
S'JJ'
p44
S'B-NP'
p45
g5
tp46
a(S'atrial'
p47
S'atrial'
p48
S'JJ'
p49
S'I-NP'
p50
g5
tp51
a(S'fibrillation'
p52
S'fibrillation'
p53
S'NN'
p54
S'I-NP'
p55
g5
tp56
a(S'--'
p57
S'--'
p58
S':'
p59
g5
g5
tp60
a(S'a'
p61
g61
S'DT'
p62
S'B-NP'
p63
g5
tp64
a(S'protocol'
p65
S'protocol'
p66
S'NN'
p67
S'I-NP'
p68
g5
tp69
a(S'of'
p70
S'of'
p71
S'IN'
p72
S'B-PP'
p73
g5
tp74
a(g61
g61
S'DT'
p75
S'B-NP'
p76
g5
tp77
a(S'single'
p78
S'single'
p79
S'JJ'
p80
S'I-NP'
p81
g5
tp82
a(S'center'
p83
S'center'
p84
S'NN'
p85
S'I-NP'
p86
g5
tp87
a(S','
p88
g88
g88
g5
g5
tp89
a(S'randomized'
p90
S'randomize'
p91
S'VBN'
p92
S'B-NP'
p93
g5
tp94
a(g88
g88
g88
S'I-NP'
p95
g5
tp96
a(S'double-blind'
p97
S'double-blind'
p98
S'JJ'
p99
S'I-NP'
p100
g5
tp101
a(g88
g88
g88
S'I-NP'
p102
g5
tp103
a(S'placebo-controlled'
p104
S'placebo-controlled'
p105
S'JJ'
p106
S'I-NP'
p107
g5
tp108
a(S'study'
p109
S'study'
p110
S'NN'
p111
S'I-NP'
p112
g5
tp113
a(S'('
p114
g114
g114
g5
g5
tp115
a(S'the'
p116
S'the'
p117
S'DT'
p118
S'B-NP'
p119
g5
tp120
a(S'AnPAF'
p121
S'AnPAF'
p122
S'NNP'
p123
S'I-NP'
p124
g5
tp125
a(S'Study'
p126
S'Study'
p127
S'NNP'
p128
S'I-NP'
p129
g5
tp130
a(S')'
p131
g131
g131
g5
g5
tp132
a(S'.'
p133
g133
g133
g5
g5
tp134
a(S'BACKGROUND'
p135
S'BACKGROUND'
p136
S'NN'
p137
S'B-NP'
p138
g5
tp139
a(S'Rapid'
p140
S'Rapid'
p141
S'JJ'
p142
S'I-NP'
p143
g5
tp144
a(S'conversion'
p145
S'conversion'
p146
S'NN'
p147
S'I-NP'
p148
g5
tp149
a(S'of'
p150
S'of'
p151
S'IN'
p152
S'B-PP'
p153
g5
tp154
a(S'atrial'
p155
S'atrial'
p156
S'JJ'
p157
S'B-NP'
p158
g5
tp159
a(S'fibrillation'
p160
S'fibrillation'
p161
S'NN'
p162
S'I-NP'
p163
g5
tp164
a(g114
g114
g114
g5
g5
tp165
a(S'AF'
p166
S'AF'
p167
S'NN'
p168
S'B-NP'
p169
g5
tp170
a(g131
g131
g131
g5
g5
tp171
a(S'to'
p172
S'to'
p173
S'TO'
p174
S'B-PP'
p175
g5
tp176
a(S'sinus'
p177
S'sinus'
p178
S'NN'
p179
S'B-NP'
p180
g5
tp181
a(S'rhythm'
p182
S'rhythm'
p183
S'NN'
p184
S'I-NP'
p185
g5
tp186
a(S'may'
p187
S'may'
p188
S'MD'
p189
S'B-VP'
p190
g5
tp191
a(S'be'
p192
S'be'
p193
S'VB'
p194
S'I-VP'
p195
g5
tp196
a(S'achieved'
p197
S'achieve'
p198
S'VBN'
p199
S'I-VP'
p200
g5
tp201
a(S'by'
p202
S'by'
p203
S'IN'
p204
S'B-PP'
p205
g5
tp206
a(S'the'
p207
S'the'
p208
S'DT'
p209
S'B-NP'
p210
g5
tp211
a(S'administration'
p212
S'administration'
p213
S'NN'
p214
S'I-NP'
p215
g5
tp216
a(S'of'
p217
S'of'
p218
S'IN'
p219
S'B-PP'
p220
g5
tp221
a(S'class'
p222
S'class'
p223
S'NN'
p224
S'B-NP'
p225
g5
tp226
a(S'IA'
p227
S'IA'
p228
S'NN'
p229
S'I-NP'
p230
g5
tp231
a(g88
g88
g88
g5
g5
tp232
a(S'IC'
p233
S'IC'
p234
S'NN'
p235
S'B-NP'
p236
g5
tp237
a(S'and'
p238
S'and'
p239
S'CC'
p240
g5
g5
tp241
a(S'III'
p242
S'III'
p243
S'CD'
p244
S'B-NP'
p245
g5
tp246
a(S'antiarrhythmic'
p247
S'antiarrhythmic'
p248
S'JJ'
p249
S'I-NP'
p250
g5
tp251
a(S'drugs'
p252
S'drug'
p253
S'NNS'
p254
S'I-NP'
p255
g5
tp256
a(S'or'
p257
S'or'
p258
S'CC'
p259
g5
g5
tp260
a(S'vernakalant'
p261
S'vernakalant'
p262
S'JJ'
p263
S'B-NP'
p264
g5
tp265
a(S'hydrochloride.'
p266
S'hydrochloride.'
p267
S'NN'
p268
S'I-NP'
p269
g5
tp270
a(S'However'
p271
S'However'
p272
S'RB'
p273
S'B-ADVP'
p274
g5
tp275
a(g88
g88
g88
g5
g5
tp276
a(S'that'
p277
S'that'
p278
S'DT'
p279
S'B-NP'
p280
g5
tp281
a(S'treatment'
p282
S'treatment'
p283
S'NN'
p284
S'I-NP'
p285
g5
tp286
a(S'may'
p287
S'may'
p288
S'MD'
p289
S'B-VP'
p290
g5
tp291
a(S'be'
p292
S'be'
p293
S'VB'
p294
S'I-VP'
p295
g5
tp296
a(S'related'
p297
S'related'
p298
S'JJ'
p299
S'B-ADJP'
p300
g5
tp301
a(S'to'
p302
S'to'
p303
S'TO'
p304
S'B-PP'
p305
g5
tp306
a(S'potential'
p307
S'potential'
p308
S'JJ'
p309
S'B-NP'
p310
g5
tp311
a(S'pro-arrhythmia'
p312
S'pro-arrhythmia'
p313
S'NN'
p314
S'I-NP'
p315
g5
tp316
a(g88
g88
g88
g5
g5
tp317
a(S'lack'
p318
S'lack'
p319
S'NN'
p320
S'B-NP'
p321
g5
tp322
a(S'of'
p323
S'of'
p324
S'IN'
p325
S'B-PP'
p326
g5
tp327
a(S'efficacy'
p328
S'efficacy'
p329
S'NN'
p330
S'B-NP'
p331
g5
tp332
a(S'or'
p333
S'or'
p334
S'CC'
p335
g5
g5
tp336
a(S'the'
p337
S'the'
p338
S'DT'
p339
S'B-NP'
p340
g5
tp341
a(S'exceptionally'
p342
S'exceptionally'
p343
S'RB'
p344
S'I-NP'
p345
g5
tp346
a(S'high'
p347
S'high'
p348
S'JJ'
p349
S'I-NP'
p350
g5
tp351
a(S'cost'
p352
S'cost'
p353
S'NN'
p354
S'I-NP'
p355
g5
tp356
a(S'of'
p357
S'of'
p358
S'IN'
p359
S'B-PP'
p360
g5
tp361
a(g61
g61
S'DT'
p362
S'B-NP'
p363
g5
tp364
a(S'compound'
p365
S'compound'
p366
S'NN'
p367
S'I-NP'
p368
g5
tp369
a(S'used.'
p370
S'used.'
p371
S'JJ'
p372
S'I-NP'
p373
g5
tp374
a(S'Antazoline'
p375
S'Antazoline'
p376
S'NN'
p377
S'I-NP'
p378
g5
tp379
a(S'is'
p380
S'be'
p381
S'VBZ'
p382
S'B-VP'
p383
g5
tp384
a(g61
g61
S'DT'
p385
S'B-NP'
p386
g5
tp387
a(S'first'
p388
S'first'
p389
S'JJ'
p390
S'I-NP'
p391
g5
tp392
a(S'generation'
p393
S'generation'
p394
S'NN'
p395
S'I-NP'
p396
g5
tp397
a(S'antihistaminic'
p398
S'antihistaminic'
p399
S'JJ'
p400
S'I-NP'
p401
g5
tp402
a(S'agent'
p403
S'agent'
p404
S'NN'
p405
S'I-NP'
p406
g5
tp407
a(S'with'
p408
S'with'
p409
S'IN'
p410
S'B-PP'
p411
g5
tp412
a(S'chinidin-like'
p413
S'chinidin-like'
p414
S'JJ'
p415
S'B-NP'
p416
g5
tp417
a(S'properties.'
p418
S'properties.'
p419
S'NN'
p420
S'I-NP'
p421
g5
tp422
a(S'When'
p423
S'When'
p424
S'WRB'
p425
S'B-ADVP'
p426
g5
tp427
a(S'administered'
p428
S'administer'
p429
S'VBN'
p430
S'B-VP'
p431
g5
tp432
a(S'intravenously'
p433
S'intravenously'
p434
S'RB'
p435
S'B-ADVP'
p436
g5
tp437
a(g88
g88
g88
g5
g5
tp438
a(S'antazoline'
p439
S'antazoline'
p440
S'NN'
p441
S'B-NP'
p442
g5
tp443
a(S'exerts'
p444
S'exert'
p445
S'VBZ'
p446
S'B-VP'
p447
g5
tp448
a(g61
g61
S'DT'
p449
S'B-NP'
p450
g5
tp451
a(S'strong'
p452
S'strong'
p453
S'JJ'
p454
S'I-NP'
p455
g5
tp456
a(S'antiarrhythmic'
p457
S'antiarrhythmic'
p458
S'JJ'
p459
S'I-NP'
p460
g5
tp461
a(S'effect'
p462
S'effect'
p463
S'NN'
p464
S'I-NP'
p465
g5
tp466
a(S'on'
p467
S'on'
p468
S'IN'
p469
S'B-PP'
p470
g5
tp471
a(S'supraventricular'
p472
S'supraventricular'
p473
S'JJ'
p474
S'B-NP'
p475
g5
tp476
a(S'arrhythmia'
p477
S'arrhythmia'
p478
S'NN'
p479
S'I-NP'
p480
g5
tp481
a(g88
g88
g88
g5
g5
tp482
a(S'especially'
p483
S'especially'
p484
S'RB'
p485
S'B-ADVP'
p486
g5
tp487
a(S'on'
p488
S'on'
p489
S'IN'
p490
S'B-PP'
p491
g5
tp492
a(S'AF'
p493
S'AF'
p494
S'NN'
p495
S'B-NP'
p496
g5
tp497
a(g88
g88
g88
g5
g5
tp498
a(S'facilitating'
p499
S'facilitate'
p500
S'VBG'
p501
S'B-VP'
p502
g5
tp503
a(S'rapid'
p504
S'rapid'
p505
S'JJ'
p506
S'B-NP'
p507
g5
tp508
a(S'conversion'
p509
S'conversion'
p510
S'NN'
p511
S'I-NP'
p512
g5
tp513
a(S'to'
p514
S'to'
p515
S'TO'
p516
S'B-PP'
p517
g5
tp518
a(S'sinus'
p519
S'sinus'
p520
S'NN'
p521
S'B-NP'
p522
g5
tp523
a(S'rhythm.'
p524
S'rhythm.'
p525
S'NN'
p526
S'I-NP'
p527
g5
tp528
a(S'Despite'
p529
S'Despite'
p530
S'IN'
p531
S'B-PP'
p532
g5
tp533
a(g61
g61
S'DT'
p534
S'B-NP'
p535
g5
tp536
a(S'relative'
p537
S'relative'
p538
S'JJ'
p539
S'I-NP'
p540
g5
tp541
a(S'lack'
p542
S'lack'
p543
S'NN'
p544
S'I-NP'
p545
g5
tp546
a(S'of'
p547
S'of'
p548
S'IN'
p549
S'B-PP'
p550
g5
tp551
a(S'published'
p552
S'publish'
p553
S'VBN'
p554
S'B-NP'
p555
g5
tp556
a(S'data'
p557
S'datum'
p558
S'NNS'
p559
S'I-NP'
p560
g5
tp561
a(S'antazoline'
p562
S'antazoline'
p563
S'NN'
p564
S'I-NP'
p565
g5
tp566
a(S'has'
p567
S'have'
p568
S'VBZ'
p569
S'B-VP'
p570
g5
tp571
a(S'been'
p572
S'be'
p573
S'VBN'
p574
S'I-VP'
p575
g5
tp576
a(S'marketed'
p577
S'market'
p578
S'VBN'
p579
S'I-VP'
p580
g5
tp581
a(S'in'
p582
S'in'
p583
S'IN'
p584
S'B-PP'
p585
g5
tp586
a(S'Poland'
p587
S'Poland'
p588
S'NNP'
p589
S'B-NP'
p590
g5
tp591
a(S'and'
p592
S'and'
p593
S'CC'
p594
g5
g5
tp595
a(S'widely'
p596
S'widely'
p597
S'RB'
p598
S'B-VP'
p599
g5
tp600
a(S'used'
p601
S'use'
p602
S'VBN'
p603
S'I-VP'
p604
g5
tp605
a(S'in'
p606
S'in'
p607
S'IN'
p608
S'B-PP'
p609
g5
tp610
a(S'cardiology'
p611
S'cardiology'
p612
S'NN'
p613
S'B-NP'
p614
g5
tp615
a(S'wards'
p616
S'ward'
p617
S'NNS'
p618
S'I-NP'
p619
g5
tp620
a(S'and'
p621
S'and'
p622
S'CC'
p623
g5
g5
tp624
a(S'emergency'
p625
S'emergency'
p626
S'NN'
p627
S'B-NP'
p628
g5
tp629
a(S'rooms'
p630
S'room'
p631
S'NNS'
p632
S'I-NP'
p633
g5
tp634
a(S'for'
p635
S'for'
p636
S'IN'
p637
S'B-PP'
p638
g5
tp639
a(S'many'
p640
S'many'
p641
S'JJ'
p642
S'B-NP'
p643
g5
tp644
a(S'years'
p645
S'year'
p646
S'NNS'
p647
S'I-NP'
p648
g5
tp649
a(S'due'
p650
S'due'
p651
S'IN'
p652
S'B-PP'
p653
g5
tp654
a(S'to'
p655
S'to'
p656
S'TO'
p657
S'I-PP'
p658
g5
tp659
a(S'its'
p660
S'its'
p661
S'PRP$'
p662
S'B-NP'
p663
g5
tp664
a(S'efficacy'
p665
S'efficacy'
p666
S'NN'
p667
S'I-NP'
p668
g5
tp669
a(g88
g88
g88
S'I-NP'
p670
g5
tp671
a(S'safety'
p672
S'safety'
p673
S'NN'
p674
S'I-NP'
p675
g5
tp676
a(S'and'
p677
S'and'
p678
S'CC'
p679
S'I-NP'
p680
g5
tp681
a(S'rapid'
p682
S'rapid'
p683
S'JJ'
p684
S'I-NP'
p685
g5
tp686
a(S'onset'
p687
S'onset'
p688
S'NN'
p689
S'I-NP'
p690
g5
tp691
a(S'of'
p692
S'of'
p693
S'IN'
p694
S'B-PP'
p695
g5
tp696
a(S'action'
p697
S'action'
p698
S'NN'
p699
S'B-NP'
p700
g5
tp701
a(S'within'
p702
S'within'
p703
S'IN'
p704
S'B-PP'
p705
g5
tp706
a(S'minutes'
p707
S'minute'
p708
S'NNS'
p709
S'B-NP'
p710
g5
tp711
a(S'of'
p712
S'of'
p713
S'IN'
p714
S'B-PP'
p715
g5
tp716
a(S'administration'
p717
S'administration'
p718
S'NN'
p719
S'B-NP'
p720
g5
tp721
a(g133
g133
g133
g5
g5
tp722
a(S'METHODS/DESIGN'
p723
S'METHODS/DESIGN'
p724
S'NN'
p725
S'B-NP'
p726
g5
tp727
a(S'A'
p728
g728
S'NN'
p729
S'I-NP'
p730
g5
tp731
a(S'randomized'
p732
S'randomize'
p733
S'VBN'
p734
S'B-VP'
p735
g5
tp736
a(g88
g88
g88
g5
g5
tp737
a(S'double'
p738
S'double'
p739
S'RB'
p740
S'B-NP'
p741
g5
tp742
a(S'blind'
p743
S'blind'
p744
S'JJ'
p745
S'I-NP'
p746
g5
tp747
a(g88
g88
g88
S'I-NP'
p748
g5
tp749
a(S'placebo-controlled'
p750
S'placebo-controlled'
p751
S'JJ'
p752
S'I-NP'
p753
g5
tp754
a(g88
g88
g88
S'I-NP'
p755
g5
tp756
a(S'superiority'
p757
S'superiority'
p758
S'NN'
p759
S'I-NP'
p760
g5
tp761
a(S'clinical'
p762
S'clinical'
p763
S'JJ'
p764
S'I-NP'
p765
g5
tp766
a(S'trial'
p767
S'trial'
p768
S'NN'
p769
S'I-NP'
p770
g5
tp771
a(S'was'
p772
S'be'
p773
S'VBD'
p774
S'B-VP'
p775
g5
tp776
a(S'designed'
p777
S'design'
p778
S'VBN'
p779
S'I-VP'
p780
g5
tp781
a(S'to'
p782
S'to'
p783
S'TO'
p784
S'B-VP'
p785
g5
tp786
a(S'assess'
p787
S'assess'
p788
S'VB'
p789
S'I-VP'
p790
g5
tp791
a(S'clinical'
p792
S'clinical'
p793
S'JJ'
p794
S'B-NP'
p795
g5
tp796
a(S'efficacy'
p797
S'efficacy'
p798
S'NN'
p799
S'I-NP'
p800
g5
tp801
a(S'of'
p802
S'of'
p803
S'IN'
p804
S'B-PP'
p805
g5
tp806
a(S'antazoline'
p807
S'antazoline'
p808
S'NN'
p809
S'B-NP'
p810
g5
tp811
a(S'in'
p812
S'in'
p813
S'IN'
p814
S'B-PP'
p815
g5
tp816
a(S'rapid'
p817
S'rapid'
p818
S'JJ'
p819
S'B-NP'
p820
g5
tp821
a(S'conversion'
p822
S'conversion'
p823
S'NN'
p824
S'I-NP'
p825
g5
tp826
a(S'of'
p827
S'of'
p828
S'IN'
p829
S'B-PP'
p830
g5
tp831
a(S'AF'
p832
S'AF'
p833
S'NN'
p834
S'B-NP'
p835
g5
tp836
a(S'to'
p837
S'to'
p838
S'TO'
p839
S'B-PP'
p840
g5
tp841
a(S'sinus'
p842
S'sinus'
p843
S'NN'
p844
S'B-NP'
p845
g5
tp846
a(S'rhythm.'
p847
S'rhythm.'
p848
S'NN'
p849
S'I-NP'
p850
g5
tp851
a(S'Eligible'
p852
S'Eligible'
p853
S'JJ'
p854
S'B-NP'
p855
g5
tp856
a(S'patients'
p857
S'patient'
p858
S'NNS'
p859
S'I-NP'
p860
g5
tp861
a(S'will'
p862
S'will'
p863
S'MD'
p864
S'B-VP'
p865
g5
tp866
a(S'present'
p867
S'present'
p868
S'VB'
p869
S'I-VP'
p870
g5
tp871
a(S'AF'
p872
S'AF'
p873
S'NN'
p874
S'B-NP'
p875
g5
tp876
a(S'lasting'
p877
S'last'
p878
S'VBG'
p879
S'B-VP'
p880
g5
tp881
a(S'less'
p882
S'less'
p883
S'JJR'
p884
S'B-NP'
p885
g5
tp886
a(S'than'
p887
S'than'
p888
S'IN'
p889
S'I-NP'
p890
g5
tp891
a(S'43'
p892
S'43'
p893
S'CD'
p894
S'I-NP'
p895
g5
tp896
a(S'hours'
p897
S'hour'
p898
S'NNS'
p899
S'I-NP'
p900
g5
tp901
a(g88
g88
g88
g5
g5
tp902
a(S'will'
p903
S'will'
p904
S'MD'
p905
S'B-VP'
p906
g5
tp907
a(S'be'
p908
S'be'
p909
S'VB'
p910
S'I-VP'
p911
g5
tp912
a(S'in'
p913
S'in'
p914
S'IN'
p915
S'B-PP'
p916
g5
tp917
a(S'stable'
p918
S'stable'
p919
S'JJ'
p920
S'B-NP'
p921
g5
tp922
a(S'cardio-pulmonary'
p923
S'cardio-pulmonary'
p924
S'JJ'
p925
S'I-NP'
p926
g5
tp927
a(S'condition'
p928
S'condition'
p929
S'NN'
p930
S'I-NP'
p931
g5
tp932
a(S'and'
p933
S'and'
p934
S'CC'
p935
g5
g5
tp936
a(S'will'
p937
S'will'
p938
S'MD'
p939
S'B-VP'
p940
g5
tp941
a(S'have'
p942
S'have'
p943
S'VB'
p944
S'I-VP'
p945
g5
tp946
a(S'no'
p947
S'no'
p948
S'DT'
p949
S'B-NP'
p950
g5
tp951
a(S'prior'
p952
S'prior'
p953
S'JJ'
p954
S'I-NP'
p955
g5
tp956
a(S'history'
p957
S'history'
p958
S'NN'
p959
S'I-NP'
p960
g5
tp961
a(S'of'
p962
S'of'
p963
S'IN'
p964
S'B-PP'
p965
g5
tp966
a(S'advanced'
p967
S'advance'
p968
S'VBN'
p969
S'B-NP'
p970
g5
tp971
a(S'heart'
p972
S'heart'
p973
S'NN'
p974
S'I-NP'
p975
g5
tp976
a(S'failure'
p977
S'failure'
p978
S'NN'
p979
S'I-NP'
p980
g5
tp981
a(S'or'
p982
S'or'
p983
S'CC'
p984
g5
g5
tp985
a(S'significant'
p986
S'significant'
p987
S'JJ'
p988
S'B-NP'
p989
g5
tp990
a(S'valvular'
p991
S'valvular'
p992
S'JJ'
p993
S'I-NP'
p994
g5
tp995
a(S'disease.'
p996
S'disease.'
p997
S'NN'
p998
S'I-NP'
p999
g5
tp1000
a(S'Long-term'
p1001
S'Long-term'
p1002
S'JJ'
p1003
S'I-NP'
p1004
g5
tp1005
a(S'antiarrhythmic'
p1006
S'antiarrhythmic'
p1007
S'JJ'
p1008
S'I-NP'
p1009
g5
tp1010
a(S'therapy'
p1011
S'therapy'
p1012
S'NN'
p1013
S'I-NP'
p1014
g5
tp1015
a(S'is'
p1016
S'be'
p1017
S'VBZ'
p1018
S'B-VP'
p1019
g5
tp1020
a(S'not'
p1021
S'not'
p1022
S'RB'
p1023
S'I-VP'
p1024
g5
tp1025
a(S'considered'
p1026
S'consider'
p1027
S'VBN'
p1028
S'I-VP'
p1029
g5
tp1030
a(S'an'
p1031
S'an'
p1032
S'DT'
p1033
S'B-NP'
p1034
g5
tp1035
a(S'exclusion'
p1036
S'exclusion'
p1037
S'NN'
p1038
S'I-NP'
p1039
g5
tp1040
a(S'criterion.'
p1041
S'criterion.'
p1042
S'NN'
p1043
S'I-NP'
p1044
g5
tp1045
a(S'Subjects'
p1046
S'Subject'
p1047
S'NNS'
p1048
S'I-NP'
p1049
g5
tp1050
a(S'who'
p1051
S'who'
p1052
S'WP'
p1053
S'B-NP'
p1054
g5
tp1055
a(S'fulfill'
p1056
S'fulfill'
p1057
S'VBP'
p1058
S'B-VP'
p1059
g5
tp1060
a(S'selection'
p1061
S'selection'
p1062
S'NN'
p1063
S'B-NP'
p1064
g5
tp1065
a(S'criteria'
p1066
S'criterion'
p1067
S'NNS'
p1068
S'I-NP'
p1069
g5
tp1070
a(S'will'
p1071
S'will'
p1072
S'MD'
p1073
S'B-VP'
p1074
g5
tp1075
a(S'be'
p1076
S'be'
p1077
S'VB'
p1078
S'I-VP'
p1079
g5
tp1080
a(S'randomly'
p1081
S'randomly'
p1082
S'RB'
p1083
S'I-VP'
p1084
g5
tp1085
a(S'assigned'
p1086
S'assign'
p1087
S'VBN'
p1088
S'I-VP'
p1089
g5
tp1090
a(S'to'
p1091
S'to'
p1092
S'TO'
p1093
S'I-VP'
p1094
g5
tp1095
a(S'receive'
p1096
S'receive'
p1097
S'VB'
p1098
S'I-VP'
p1099
g5
tp1100
a(S'intravenously'
p1101
S'intravenously'
p1102
S'RB'
p1103
S'B-ADVP'
p1104
g5
tp1105
a(S'either'
p1106
S'either'
p1107
S'CC'
p1108
g5
g5
tp1109
a(S'antazoline'
p1110
S'antazoline'
p1111
S'NN'
p1112
S'B-NP'
p1113
g5
tp1114
a(S'or'
p1115
S'or'
p1116
S'CC'
p1117
S'I-NP'
p1118
g5
tp1119
a(S'placebo'
p1120
S'placebo'
p1121
S'NN'
p1122
S'I-NP'
p1123
g5
tp1124
a(S'in'
p1125
S'in'
p1126
S'IN'
p1127
S'B-PP'
p1128
g5
tp1129
a(S'divided'
p1130
S'divide'
p1131
S'VBN'
p1132
S'B-NP'
p1133
g5
tp1134
a(S'doses'
p1135
S'dose'
p1136
S'NNS'
p1137
S'I-NP'
p1138
g5
tp1139
a(S'and'
p1140
S'and'
p1141
S'CC'
p1142
g5
g5
tp1143
a(S'observed'
p1144
S'observe'
p1145
S'VBN'
p1146
S'B-VP'
p1147
g5
tp1148
a(S'for'
p1149
S'for'
p1150
S'IN'
p1151
S'B-PP'
p1152
g5
tp1153
a(S'1.5'
p1154
S'1.5'
p1155
S'CD'
p1156
S'B-NP'
p1157
g5
tp1158
a(S'hours'
p1159
S'hour'
p1160
S'NNS'
p1161
S'I-NP'
p1162
g5
tp1163
a(S'after'
p1164
S'after'
p1165
S'IN'
p1166
S'B-PP'
p1167
g5
tp1168
a(S'conversion'
p1169
S'conversion'
p1170
S'NN'
p1171
S'B-NP'
p1172
g5
tp1173
a(S'to'
p1174
S'to'
p1175
S'TO'
p1176
S'B-PP'
p1177
g5
tp1178
a(S'sinus'
p1179
S'sinus'
p1180
S'NN'
p1181
S'B-NP'
p1182
g5
tp1183
a(S'rhythm'
p1184
S'rhythm'
p1185
S'NN'
p1186
S'I-NP'
p1187
g5
tp1188
a(S'or'
p1189
S'or'
p1190
S'CC'
p1191
S'B-PP'
p1192
g5
tp1193
a(S'after'
p1194
S'after'
p1195
S'IN'
p1196
S'B-PP'
p1197
g5
tp1198
a(S'the'
p1199
S'the'
p1200
S'DT'
p1201
S'B-NP'
p1202
g5
tp1203
a(S'last'
p1204
S'last'
p1205
S'JJ'
p1206
S'I-NP'
p1207
g5
tp1208
a(S'i.v.'
p1209
S'i.v.'
p1210
S'JJ'
p1211
S'I-NP'
p1212
g5
tp1213
a(S'bolus.'
p1214
S'bolus.'
p1215
S'NN'
p1216
S'I-NP'
p1217
g5
tp1218
a(S'Primary'
p1219
S'Primary'
p1220
S'JJ'
p1221
S'I-NP'
p1222
g5
tp1223
a(S'end'
p1224
S'end'
p1225
S'NN'
p1226
S'I-NP'
p1227
g5
tp1228
a(S'point'
p1229
S'point'
p1230
S'NN'
p1231
S'I-NP'
p1232
g5
tp1233
a(S'will'
p1234
S'will'
p1235
S'MD'
p1236
S'B-VP'
p1237
g5
tp1238
a(S'be'
p1239
S'be'
p1240
S'VB'
p1241
S'I-VP'
p1242
g5
tp1243
a(S'the'
p1244
S'the'
p1245
S'DT'
p1246
S'B-NP'
p1247
g5
tp1248
a(S'conversion'
p1249
S'conversion'
p1250
S'NN'
p1251
S'I-NP'
p1252
g5
tp1253
a(S'of'
p1254
S'of'
p1255
S'IN'
p1256
S'B-PP'
p1257
g5
tp1258
a(S'AF'
p1259
S'AF'
p1260
S'NN'
p1261
S'B-NP'
p1262
g5
tp1263
a(S'to'
p1264
S'to'
p1265
S'TO'
p1266
S'B-PP'
p1267
g5
tp1268
a(S'sinus'
p1269
S'sinus'
p1270
S'NN'
p1271
S'B-NP'
p1272
g5
tp1273
a(S'rhythm'
p1274
S'rhythm'
p1275
S'NN'
p1276
S'I-NP'
p1277
g5
tp1278
a(S'confirmed'
p1279
S'confirm'
p1280
S'VBN'
p1281
S'B-VP'
p1282
g5
tp1283
a(S'in'
p1284
S'in'
p1285
S'IN'
p1286
S'B-PP'
p1287
g5
tp1288
a(S'an'
p1289
S'an'
p1290
S'DT'
p1291
S'B-NP'
p1292
g5
tp1293
a(S'electrocardiogram'
p1294
S'electrocardiogram'
p1295
S'NN'
p1296
S'I-NP'
p1297
g5
tp1298
a(g114
g114
g114
g5
g5
tp1299
a(S'ECG'
p1300
S'ECG'
p1301
S'NN'
p1302
S'B-NP'
p1303
g5
tp1304
a(g131
g131
g131
g5
g5
tp1305
a(S'during'
p1306
S'during'
p1307
S'IN'
p1308
S'B-PP'
p1309
g5
tp1310
a(S'the'
p1311
S'the'
p1312
S'DT'
p1313
S'B-NP'
p1314
g5
tp1315
a(S'observation'
p1316
S'observation'
p1317
S'NN'
p1318
S'I-NP'
p1319
g5
tp1320
a(S'period.'
p1321
S'period.'
p1322
S'NN'
p1323
S'I-NP'
p1324
g5
tp1325
a(S'Secondary'
p1326
S'Secondary'
p1327
S'JJ'
p1328
S'I-NP'
p1329
g5
tp1330
a(S'end'
p1331
S'end'
p1332
S'NN'
p1333
S'I-NP'
p1334
g5
tp1335
a(S'points'
p1336
S'point'
p1337
S'NNS'
p1338
S'I-NP'
p1339
g5
tp1340
a(S'will'
p1341
S'will'
p1342
S'MD'
p1343
S'B-VP'
p1344
g5
tp1345
a(S'be'
p1346
S'be'
p1347
S'VB'
p1348
S'I-VP'
p1349
g5
tp1350
a(S'comprised'
p1351
S'comprise'
p1352
S'VBN'
p1353
S'I-VP'
p1354
g5
tp1355
a(S'of'
p1356
S'of'
p1357
S'IN'
p1358
S'B-PP'
p1359
g5
tp1360
a(S'time'
p1361
S'time'
p1362
S'NN'
p1363
S'B-NP'
p1364
g5
tp1365
a(S'to'
p1366
S'to'
p1367
S'TO'
p1368
S'B-PP'
p1369
g5
tp1370
a(S'conversion'
p1371
S'conversion'
p1372
S'NN'
p1373
S'B-NP'
p1374
g5
tp1375
a(S'and'
p1376
S'and'
p1377
S'CC'
p1378
S'I-NP'
p1379
g5
tp1380
a(S'return'
p1381
S'return'
p1382
S'NN'
p1383
S'I-NP'
p1384
g5
tp1385
a(S'of'
p1386
S'of'
p1387
S'IN'
p1388
S'B-PP'
p1389
g5
tp1390
a(S'AF'
p1391
S'AF'
p1392
S'NN'
p1393
S'B-NP'
p1394
g5
tp1395
a(S'during'
p1396
S'during'
p1397
S'IN'
p1398
S'B-PP'
p1399
g5
tp1400
a(S'the'
p1401
S'the'
p1402
S'DT'
p1403
S'B-NP'
p1404
g5
tp1405
a(S'observation'
p1406
S'observation'
p1407
S'NN'
p1408
S'I-NP'
p1409
g5
tp1410
a(S'period.'
p1411
S'period.'
p1412
S'NN'
p1413
S'I-NP'
p1414
g5
tp1415
a(S'Special'
p1416
S'Special'
p1417
S'JJ'
p1418
S'I-NP'
p1419
g5
tp1420
a(S'consideration'
p1421
S'consideration'
p1422
S'NN'
p1423
S'I-NP'
p1424
g5
tp1425
a(S'will'
p1426
S'will'
p1427
S'MD'
p1428
S'B-VP'
p1429
g5
tp1430
a(S'be'
p1431
S'be'
p1432
S'VB'
p1433
S'I-VP'
p1434
g5
tp1435
a(S'given'
p1436
S'give'
p1437
S'VBN'
p1438
S'I-VP'
p1439
g5
tp1440
a(S'to'
p1441
S'to'
p1442
S'TO'
p1443
S'B-PP'
p1444
g5
tp1445
a(S'the'
p1446
S'the'
p1447
S'DT'
p1448
S'B-NP'
p1449
g5
tp1450
a(S'observation'
p1451
S'observation'
p1452
S'NN'
p1453
S'I-NP'
p1454
g5
tp1455
a(S'of'
p1456
S'of'
p1457
S'IN'
p1458
S'B-PP'
p1459
g5
tp1460
a(S'any'
p1461
S'any'
p1462
S'DT'
p1463
S'B-NP'
p1464
g5
tp1465
a(S'adverse'
p1466
S'adverse'
p1467
S'JJ'
p1468
S'I-NP'
p1469
g5
tp1470
a(S'events.'
p1471
S'events.'
p1472
S'NN'
p1473
S'I-NP'
p1474
g5
tp1475
a(g728
g728
S'NN'
p1476
S'I-NP'
p1477
g5
tp1478
a(S'sample'
p1479
S'sample'
p1480
S'NN'
p1481
S'I-NP'
p1482
g5
tp1483
a(S'size'
p1484
S'size'
p1485
S'NN'
p1486
S'I-NP'
p1487
g5
tp1488
a(S'of'
p1489
S'of'
p1490
S'IN'
p1491
S'B-PP'
p1492
g5
tp1493
a(S'80'
p1494
S'80'
p1495
S'CD'
p1496
S'B-NP'
p1497
g5
tp1498
a(S'patients'
p1499
S'patient'
p1500
S'NNS'
p1501
S'I-NP'
p1502
g5
tp1503
a(S'was'
p1504
S'be'
p1505
S'VBD'
p1506
S'B-VP'
p1507
g5
tp1508
a(S'calculated'
p1509
S'calculate'
p1510
S'VBN'
p1511
S'I-VP'
p1512
g5
tp1513
a(S'based'
p1514
S'base'
p1515
S'VBN'
p1516
S'B-PP'
p1517
g5
tp1518
a(S'on'
p1519
S'on'
p1520
S'IN'
p1521
S'B-PP'
p1522
g5
tp1523
a(S'the'
p1524
S'the'
p1525
S'DT'
p1526
S'B-NP'
p1527
g5
tp1528
a(S'following'
p1529
S'follow'
p1530
S'VBG'
p1531
S'I-NP'
p1532
g5
tp1533
a(S'assumptions'
p1534
S'assumption'
p1535
S'NNS'
p1536
S'I-NP'
p1537
g5
tp1538
a(g59
g59
g59
g5
g5
tp1539
a(S'two-tailed'
p1540
S'two-tailed'
p1541
S'JJ'
p1542
S'B-NP'
p1543
g5
tp1544
a(S'test'
p1545
S'test'
p1546
S'NN'
p1547
S'I-NP'
p1548
g5
tp1549
a(g88
g88
g88
g5
g5
tp1550
a(g61
g61
S'DT'
p1551
S'B-NP'
p1552
g5
tp1553
a(S'type'
p1554
S'type'
p1555
S'NN'
p1556
S'I-NP'
p1557
g5
tp1558
a(S'I'
p1559
g1559
S'CD'
p1560
S'I-NP'
p1561
g5
tp1562
a(S'error'
p1563
S'error'
p1564
S'NN'
p1565
S'I-NP'
p1566
g5
tp1567
a(S'of'
p1568
S'of'
p1569
S'IN'
p1570
S'B-PP'
p1571
g5
tp1572
a(S'0.01'
p1573
S'0.01'
p1574
S'CD'
p1575
S'B-NP'
p1576
g5
tp1577
a(g88
g88
g88
g5
g5
tp1578
a(g61
g61
S'DT'
p1579
S'B-NP'
p1580
g5
tp1581
a(S'power'
p1582
S'power'
p1583
S'NN'
p1584
S'I-NP'
p1585
g5
tp1586
a(S'of'
p1587
S'of'
p1588
S'IN'
p1589
S'B-PP'
p1590
g5
tp1591
a(S'90'
p1592
S'90'
p1593
S'CD'
p1594
S'B-NP'
p1595
g5
tp1596
a(S'%'
p1597
g1597
S'NN'
p1598
S'I-NP'
p1599
g5
tp1600
a(g88
g88
g88
g5
g5
tp1601
a(S'efficacy'
p1602
S'efficacy'
p1603
S'NN'
p1604
S'B-NP'
p1605
g5
tp1606
a(S'of'
p1607
S'of'
p1608
S'IN'
p1609
S'B-PP'
p1610
g5
tp1611
a(S'placebo'
p1612
S'placebo'
p1613
S'NN'
p1614
S'B-NP'
p1615
g5
tp1616
a(S'5'
p1617
g1617
S'CD'
p1618
S'B-NP'
p1619
g5
tp1620
a(g1597
g1597
S'NN'
p1621
S'I-NP'
p1622
g5
tp1623
a(g88
g88
g88
g5
g5
tp1624
a(S'efficacy'
p1625
S'efficacy'
p1626
S'NN'
p1627
S'B-NP'
p1628
g5
tp1629
a(S'of'
p1630
S'of'
p1631
S'IN'
p1632
S'B-PP'
p1633
g5
tp1634
a(S'antazoline'
p1635
S'antazoline'
p1636
S'NN'
p1637
S'B-NP'
p1638
g5
tp1639
a(S'50'
p1640
S'50'
p1641
S'CD'
p1642
S'B-NP'
p1643
g5
tp1644
a(g1597
g1597
S'NN'
p1645
S'I-NP'
p1646
g5
tp1647
a(S'and'
p1648
S'and'
p1649
S'CC'
p1650
g5
g5
tp1651
a(S'20'
p1652
S'20'
p1653
S'CD'
p1654
S'B-NP'
p1655
g5
tp1656
a(g1597
g1597
S'NN'
p1657
S'I-NP'
p1658
g5
tp1659
a(S'drop-out'
p1660
S'drop-out'
p1661
S'JJ'
p1662
S'I-NP'
p1663
g5
tp1664
a(S'rate'
p1665
S'rate'
p1666
S'NN'
p1667
S'I-NP'
p1668
g5
tp1669
a(S'to'
p1670
S'to'
p1671
S'TO'
p1672
S'B-VP'
p1673
g5
tp1674
a(S'fulfill'
p1675
S'fulfill'
p1676
S'VB'
p1677
S'I-VP'
p1678
g5
tp1679
a(S'the'
p1680
S'the'
p1681
S'DT'
p1682
S'B-NP'
p1683
g5
tp1684
a(S'criteria'
p1685
S'criterion'
p1686
S'NNS'
p1687
S'I-NP'
p1688
g5
tp1689
a(S'of'
p1690
S'of'
p1691
S'IN'
p1692
S'B-PP'
p1693
g5
tp1694
a(S'intention-to-treat'
p1695
S'intention-to-treat'
p1696
S'JJ'
p1697
S'B-NP'
p1698
g5
tp1699
a(S'analysis.'
p1700
S'analysis.'
p1701
S'NN'
p1702
S'I-NP'
p1703
g5
tp1704
a(S'Due'
p1705
S'Due'
p1706
S'JJ'
p1707
S'B-PP'
p1708
g5
tp1709
a(S'to'
p1710
S'to'
p1711
S'TO'
p1712
S'I-PP'
p1713
g5
tp1714
a(S'the'
p1715
S'the'
p1716
S'DT'
p1717
S'B-NP'
p1718
g5
tp1719
a(S'presumed'
p1720
S'presume'
p1721
S'VBN'
p1722
S'I-NP'
p1723
g5
tp1724
a(S'lack'
p1725
S'lack'
p1726
S'NN'
p1727
S'I-NP'
p1728
g5
tp1729
a(S'of'
p1730
S'of'
p1731
S'IN'
p1732
S'B-PP'
p1733
g5
tp1734
a(S'statistical'
p1735
S'statistical'
p1736
S'JJ'
p1737
S'B-NP'
p1738
g5
tp1739
a(S'power'
p1740
S'power'
p1741
S'NN'
p1742
S'I-NP'
p1743
g5
tp1744
a(g88
g88
g88
g5
g5
tp1745
a(S'the'
p1746
S'the'
p1747
S'DT'
p1748
S'B-NP'
p1749
g5
tp1750
a(S'secondary'
p1751
S'secondary'
p1752
S'JJ'
p1753
S'I-NP'
p1754
g5
tp1755
a(S'end'
p1756
S'end'
p1757
S'NN'
p1758
S'I-NP'
p1759
g5
tp1760
a(S'points'
p1761
S'point'
p1762
S'NNS'
p1763
S'I-NP'
p1764
g5
tp1765
a(S'and'
p1766
S'and'
p1767
S'CC'
p1768
g5
g5
tp1769
a(S'safety'
p1770
S'safety'
p1771
S'NN'
p1772
S'B-NP'
p1773
g5
tp1774
a(S'endpoints'
p1775
S'endpoint'
p1776
S'NNS'
p1777
S'I-NP'
p1778
g5
tp1779
a(S'will'
p1780
S'will'
p1781
S'MD'
p1782
S'B-VP'
p1783
g5
tp1784
a(S'be'
p1785
S'be'
p1786
S'VB'
p1787
S'I-VP'
p1788
g5
tp1789
a(S'considered'
p1790
S'consider'
p1791
S'VBN'
p1792
S'I-VP'
p1793
g5
tp1794
a(S'exploratory'
p1795
S'exploratory'
p1796
S'JJ'
p1797
S'B-ADJP'
p1798
g5
tp1799
a(g133
g133
g133
g5
g5
tp1800
a(S'CLINICAL'
p1801
S'CLINICAL'
p1802
S'NNP'
p1803
S'B-NP'
p1804
g5
tp1805
a(S'TRIALS'
p1806
S'TRIALS'
p1807
S'NNP'
p1808
S'I-NP'
p1809
g5
tp1810
a(S'REGISTRY'
p1811
S'REGISTRY'
p1812
S'NNP'
p1813
S'I-NP'
p1814
g5
tp1815
a(S'ClinicalTrials.gov'
p1816
S'ClinicalTrials.gov'
p1817
S'NNP'
p1818
S'I-NP'
p1819
g5
tp1820
a(g88
g88
g88
g5
g5
tp1821
a(S'NCT01527279'
p1822
S'NCT01527279'
p1823
S'NNP'
p1824
S'B-NP'
p1825
g5
tp1826
a(g133
g133
g133
g5
g5
tp1827
a.