(lp0
(S'Caudal'
p1
S'Caudal'
p2
S'JJ'
p3
S'B-NP'
p4
S'O'
p5
tp6
a(S'neostigmine'
p7
S'neostigmine'
p8
S'NN'
p9
S'I-NP'
p10
g5
tp11
a(S'with'
p12
S'with'
p13
S'IN'
p14
S'B-PP'
p15
g5
tp16
a(S'bupivacaine'
p17
S'bupivacaine'
p18
S'NN'
p19
S'B-NP'
p20
g5
tp21
a(S'produces'
p22
S'produce'
p23
S'VBZ'
p24
S'B-VP'
p25
g5
tp26
a(S'a'
p27
g27
S'DT'
p28
S'B-NP'
p29
g5
tp30
a(S'dose-independent'
p31
S'dose-independent'
p32
S'JJ'
p33
S'I-NP'
p34
g5
tp35
a(S'analgesic'
p36
S'analgesic'
p37
S'JJ'
p38
S'I-NP'
p39
g5
tp40
a(S'effect'
p41
S'effect'
p42
S'NN'
p43
S'I-NP'
p44
g5
tp45
a(S'in'
p46
S'in'
p47
S'IN'
p48
S'B-PP'
p49
g5
tp50
a(S'children'
p51
S'child'
p52
S'NNS'
p53
S'B-NP'
p54
g5
tp55
a(S'.'
p56
g56
g56
g5
g5
tp57
a(S'PURPOSE'
p58
S'PURPOSE'
p59
S'NN'
p60
S'B-NP'
p61
g5
tp62
a(S'To'
p63
S'To'
p64
S'TO'
p65
S'B-VP'
p66
g5
tp67
a(S'evaluate'
p68
S'evaluate'
p69
S'VB'
p70
S'I-VP'
p71
g5
tp72
a(S'the'
p73
S'the'
p74
S'DT'
p75
S'B-NP'
p76
g5
tp77
a(S'analgesic'
p78
S'analgesic'
p79
S'JJ'
p80
S'I-NP'
p81
g5
tp82
a(S'efficacy'
p83
S'efficacy'
p84
S'NN'
p85
S'I-NP'
p86
g5
tp87
a(S'and'
p88
S'and'
p89
S'CC'
p90
S'I-NP'
p91
g5
tp92
a(S'duration'
p93
S'duration'
p94
S'NN'
p95
S'I-NP'
p96
g5
tp97
a(S'of'
p98
S'of'
p99
S'IN'
p100
S'B-PP'
p101
g5
tp102
a(S'varying'
p103
S'vary'
p104
S'VBG'
p105
S'B-NP'
p106
g5
tp107
a(S'doses'
p108
S'dose'
p109
S'NNS'
p110
S'I-NP'
p111
g5
tp112
a(S'of'
p113
S'of'
p114
S'IN'
p115
S'B-PP'
p116
g5
tp117
a(S'caudal'
p118
S'caudal'
p119
S'JJ'
p120
S'B-NP'
p121
g5
tp122
a(S'neostigmine'
p123
S'neostigmine'
p124
S'NN'
p125
S'I-NP'
p126
g5
tp127
a(S'with'
p128
S'with'
p129
S'IN'
p130
S'B-PP'
p131
g5
tp132
a(S'plain'
p133
S'plain'
p134
S'JJ'
p135
S'B-NP'
p136
g5
tp137
a(S'bupivacaine'
p138
S'bupivacaine'
p139
S'NN'
p140
S'I-NP'
p141
g5
tp142
a(S'and'
p143
S'and'
p144
S'CC'
p145
g5
g5
tp146
a(S'its'
p147
S'its'
p148
S'PRP$'
p149
S'B-NP'
p150
g5
tp151
a(S'side'
p152
S'side'
p153
S'NN'
p154
S'I-NP'
p155
g5
tp156
a(S'effects'
p157
S'effect'
p158
S'NNS'
p159
S'I-NP'
p160
g5
tp161
a(S'in'
p162
S'in'
p163
S'IN'
p164
S'B-PP'
p165
g5
tp166
a(S'children'
p167
S'child'
p168
S'NNS'
p169
S'B-NP'
p170
g5
tp171
a(S'undergoing'
p172
S'undergo'
p173
S'VBG'
p174
S'B-VP'
p175
g5
tp176
a(S'genito-urinary'
p177
S'genito-urinary'
p178
S'JJ'
p179
S'B-NP'
p180
g5
tp181
a(S'surgery'
p182
S'surgery'
p183
S'NN'
p184
S'I-NP'
p185
g5
tp186
a(g56
g56
g56
g5
g5
tp187
a(S'METHODS'
p188
S'METHODS'
p189
S'NNS'
p190
S'B-NP'
p191
g5
tp192
a(S'In'
p193
S'In'
p194
S'IN'
p195
S'B-PP'
p196
g5
tp197
a(g27
g27
S'DT'
p198
S'B-NP'
p199
g5
tp200
a(S'randomized'
p201
S'randomize'
p202
S'VBN'
p203
S'I-NP'
p204
g5
tp205
a(S'double-blind'
p206
S'double-blind'
p207
S'JJ'
p208
S'I-NP'
p209
g5
tp210
a(S'prospective'
p211
S'prospective'
p212
S'JJ'
p213
S'I-NP'
p214
g5
tp215
a(S'study'
p216
S'study'
p217
S'NN'
p218
S'I-NP'
p219
g5
tp220
a(S'80'
p221
S'80'
p222
S'CD'
p223
S'B-NP'
p224
g5
tp225
a(S'boys'
p226
S'boy'
p227
S'NNS'
p228
S'I-NP'
p229
g5
tp230
a(S'aged'
p231
S'age'
p232
S'VBN'
p233
S'B-ADJP'
p234
g5
tp235
a(S'two'
p236
S'two'
p237
S'CD'
p238
S'B-NP'
p239
g5
tp240
a(S'to'
p241
S'to'
p242
S'TO'
p243
S'I-NP'
p244
g5
tp245
a(S'eight'
p246
S'eight'
p247
S'CD'
p248
S'I-NP'
p249
g5
tp250
a(S'years'
p251
S'year'
p252
S'NNS'
p253
S'I-NP'
p254
g5
tp255
a(S'scheduled'
p256
S'schedule'
p257
S'VBN'
p258
S'B-VP'
p259
g5
tp260
a(S'for'
p261
S'for'
p262
S'IN'
p263
S'B-PP'
p264
g5
tp265
a(S'surgical'
p266
S'surgical'
p267
S'JJ'
p268
S'B-NP'
p269
g5
tp270
a(S'repair'
p271
S'repair'
p272
S'NN'
p273
S'I-NP'
p274
g5
tp275
a(S'of'
p276
S'of'
p277
S'IN'
p278
S'B-PP'
p279
g5
tp280
a(S'hypospadias'
p281
S'hypospadia'
p282
S'NNS'
p283
S'B-NP'
p284
g5
tp285
a(S'were'
p286
S'be'
p287
S'VBD'
p288
S'B-VP'
p289
g5
tp290
a(S'allocated'
p291
S'allocate'
p292
S'VBN'
p293
S'I-VP'
p294
g5
tp295
a(S'randomly'
p296
S'randomly'
p297
S'RB'
p298
S'B-ADVP'
p299
g5
tp300
a(S'to'
p301
S'to'
p302
S'TO'
p303
S'B-PP'
p304
g5
tp305
a(S'one'
p306
S'one'
p307
S'CD'
p308
S'B-NP'
p309
g5
tp310
a(S'of'
p311
S'of'
p312
S'IN'
p313
S'B-PP'
p314
g5
tp315
a(S'four'
p316
S'four'
p317
S'CD'
p318
S'B-NP'
p319
g5
tp320
a(S'groups'
p321
S'group'
p322
S'NNS'
p323
S'I-NP'
p324
g5
tp325
a(S'('
p326
g326
g326
g5
g5
tp327
a(S'n'
p328
g328
S'NN'
p329
S'B-NP'
p330
g5
tp331
a(S'='
p332
g332
S'SYM'
p333
S'B-VP'
p334
g5
tp335
a(S'20'
p336
S'20'
p337
S'CD'
p338
S'B-NP'
p339
g5
tp340
a(S'each'
p341
S'each'
p342
S'DT'
p343
S'B-NP'
p344
g5
tp345
a(S')'
p346
g346
g346
g5
g5
tp347
a(S'and'
p348
S'and'
p349
S'CC'
p350
g5
g5
tp351
a(S'received'
p352
S'receive'
p353
S'VBD'
p354
S'B-VP'
p355
g5
tp356
a(S'either'
p357
S'either'
p358
S'CC'
p359
g5
g5
tp360
a(S'only'
p361
S'only'
p362
S'RB'
p363
S'B-NP'
p364
g5
tp365
a(S'caudal'
p366
S'caudal'
p367
S'JJ'
p368
S'I-NP'
p369
g5
tp370
a(S'0.25'
p371
S'0.25'
p372
S'CD'
p373
S'I-NP'
p374
g5
tp375
a(S'%'
p376
g376
S'NN'
p377
S'I-NP'
p378
g5
tp379
a(S'plain'
p380
S'plain'
p381
S'JJ'
p382
S'I-NP'
p383
g5
tp384
a(S'bupivacaine'
p385
S'bupivacaine'
p386
S'NN'
p387
S'I-NP'
p388
g5
tp389
a(S'0.5'
p390
S'0.5'
p391
S'CD'
p392
S'I-NP'
p393
g5
tp394
a(S'mL.kg'
p395
S'mL.kg'
p396
S'NN'
p397
S'I-NP'
p398
g5
tp399
a(g326
g326
g326
g5
g5
tp400
a(S'-1'
p401
S'-1'
p402
S'CD'
p403
S'B-NP'
p404
g5
tp405
a(g346
g346
g346
g5
g5
tp406
a(g326
g326
g326
g5
g5
tp407
a(S'Group'
p408
S'Group'
p409
S'NN'
p410
S'B-NP'
p411
g5
tp412
a(S'I'
p413
g413
S'CD'
p414
S'I-NP'
p415
g5
tp416
a(g346
g346
g346
g5
g5
tp417
a(S'or'
p418
S'or'
p419
S'CC'
p420
g5
g5
tp421
a(S'0.25'
p422
S'0.25'
p423
S'CD'
p424
S'B-NP'
p425
g5
tp426
a(g376
g376
S'NN'
p427
S'I-NP'
p428
g5
tp429
a(S'plain'
p430
S'plain'
p431
S'JJ'
p432
S'I-NP'
p433
g5
tp434
a(S'bupivacaine'
p435
S'bupivacaine'
p436
S'NN'
p437
S'I-NP'
p438
g5
tp439
a(S'0.5'
p440
S'0.5'
p441
S'CD'
p442
S'I-NP'
p443
g5
tp444
a(S'mL.kg'
p445
S'mL.kg'
p446
S'NN'
p447
S'I-NP'
p448
g5
tp449
a(g326
g326
g326
g5
g5
tp450
a(S'-1'
p451
S'-1'
p452
S'CD'
p453
S'B-NP'
p454
g5
tp455
a(g346
g346
g346
g5
g5
tp456
a(S'with'
p457
S'with'
p458
S'IN'
p459
S'B-PP'
p460
g5
tp461
a(S'neostigmine'
p462
S'neostigmine'
p463
S'NN'
p464
S'B-NP'
p465
g5
tp466
a(g326
g326
g326
g5
g5
tp467
a(S'Groups'
p468
S'Group'
p469
S'NNS'
p470
S'B-NP'
p471
g5
tp472
a(S'II-IV'
p473
S'II-IV'
p474
S'NN'
p475
S'I-NP'
p476
g5
tp477
a(g346
g346
g346
g5
g5
tp478
a(S'in'
p479
S'in'
p480
S'IN'
p481
S'B-PP'
p482
g5
tp483
a(S'doses'
p484
S'dose'
p485
S'NNS'
p486
S'B-NP'
p487
g5
tp488
a(S'of'
p489
S'of'
p490
S'IN'
p491
S'B-PP'
p492
g5
tp493
a(S'2'
p494
g494
S'CD'
p495
S'B-NP'
p496
g5
tp497
a(S','
p498
g498
g498
S'I-NP'
p499
g5
tp500
a(S'3'
p501
g501
S'CD'
p502
S'I-NP'
p503
g5
tp504
a(S'and'
p505
S'and'
p506
S'CC'
p507
S'I-NP'
p508
g5
tp509
a(S'4'
p510
g510
S'CD'
p511
S'I-NP'
p512
g5
tp513
a(S'microg.kg'
p514
S'microg.kg'
p515
S'NN'
p516
S'I-NP'
p517
g5
tp518
a(g326
g326
g326
g5
g5
tp519
a(S'-1'
p520
S'-1'
p521
S'CD'
p522
S'B-NP'
p523
g5
tp524
a(g346
g346
g346
g5
g5
tp525
a(S'respectively.'
p526
S'respectively.'
p527
S'VBP'
p528
S'B-VP'
p529
g5
tp530
a(S'Postoperative'
p531
S'Postoperative'
p532
S'JJ'
p533
S'B-NP'
p534
S'B-protein'
p535
tp536
a(S'pain'
p537
S'pain'
p538
S'NN'
p539
S'I-NP'
p540
S'I-protein'
p541
tp542
a(S'was'
p543
S'be'
p544
S'VBD'
p545
S'B-VP'
p546
g5
tp547
a(S'assessed'
p548
S'assess'
p549
S'VBN'
p550
S'I-VP'
p551
g5
tp552
a(S'for'
p553
S'for'
p554
S'IN'
p555
S'B-PP'
p556
g5
tp557
a(S'24'
p558
S'24'
p559
S'CD'
p560
S'B-NP'
p561
g5
tp562
a(S'hr'
p563
S'hr'
p564
S'NN'
p565
S'I-NP'
p566
g5
tp567
a(S'using'
p568
S'use'
p569
S'VBG'
p570
S'B-VP'
p571
g5
tp572
a(S'an'
p573
S'an'
p574
S'DT'
p575
S'B-NP'
p576
g5
tp577
a(S'objective'
p578
S'objective'
p579
S'JJ'
p580
S'I-NP'
p581
g5
tp582
a(S'pain'
p583
S'pain'
p584
S'NN'
p585
S'I-NP'
p586
g5
tp587
a(S'score.'
p588
S'score.'
p589
S'NN'
p590
S'I-NP'
p591
g5
tp592
a(S'Blood'
p593
S'Blood'
p594
S'NN'
p595
S'I-NP'
p596
g5
tp597
a(S'pressure'
p598
S'pressure'
p599
S'NN'
p600
S'I-NP'
p601
g5
tp602
a(g498
g498
g498
g5
g5
tp603
a(S'heart'
p604
S'heart'
p605
S'NN'
p606
S'B-NP'
p607
g5
tp608
a(S'rate'
p609
S'rate'
p610
S'NN'
p611
S'I-NP'
p612
g5
tp613
a(g498
g498
g498
g5
g5
tp614
a(S'oxygen'
p615
S'oxygen'
p616
S'NN'
p617
S'B-NP'
p618
g5
tp619
a(S'saturation'
p620
S'saturation'
p621
S'NN'
p622
S'I-NP'
p623
g5
tp624
a(g498
g498
g498
g5
g5
tp625
a(S'total'
p626
S'total'
p627
S'JJ'
p628
S'B-NP'
p629
g5
tp630
a(S'amount'
p631
S'amount'
p632
S'NN'
p633
S'I-NP'
p634
g5
tp635
a(S'of'
p636
S'of'
p637
S'IN'
p638
S'B-PP'
p639
g5
tp640
a(S'analgesic'
p641
S'analgesic'
p642
S'JJ'
p643
S'B-NP'
p644
g5
tp645
a(S'consumed'
p646
S'consumed'
p647
S'JJ'
p648
S'I-NP'
p649
g5
tp650
a(S'and'
p651
S'and'
p652
S'CC'
p653
S'I-NP'
p654
g5
tp655
a(S'adverse'
p656
S'adverse'
p657
S'JJ'
p658
S'I-NP'
p659
g5
tp660
a(S'effects'
p661
S'effect'
p662
S'NNS'
p663
S'I-NP'
p664
g5
tp665
a(S'were'
p666
S'be'
p667
S'VBD'
p668
S'B-VP'
p669
g5
tp670
a(S'also'
p671
S'also'
p672
S'RB'
p673
S'I-VP'
p674
g5
tp675
a(S'recorded'
p676
S'record'
p677
S'VBN'
p678
S'I-VP'
p679
g5
tp680
a(g56
g56
g56
g5
g5
tp681
a(S'RESULTS'
p682
S'RESULTS'
p683
S'NNS'
p684
S'B-NP'
p685
g5
tp686
a(S'The'
p687
S'The'
p688
S'DT'
p689
S'B-NP'
p690
g5
tp691
a(S'duration'
p692
S'duration'
p693
S'NN'
p694
S'I-NP'
p695
g5
tp696
a(S'of'
p697
S'of'
p698
S'IN'
p699
S'B-PP'
p700
g5
tp701
a(S'postoperative'
p702
S'postoperative'
p703
S'JJ'
p704
S'B-NP'
p705
g5
tp706
a(S'analgesia'
p707
S'analgesia'
p708
S'NN'
p709
S'I-NP'
p710
g5
tp711
a(S'in'
p712
S'in'
p713
S'IN'
p714
S'B-PP'
p715
g5
tp716
a(S'Group'
p717
S'Group'
p718
S'NN'
p719
S'B-NP'
p720
g5
tp721
a(g413
g413
S'CD'
p722
S'I-NP'
p723
g5
tp724
a(g326
g326
g326
g5
g5
tp725
a(S'5.1'
p726
S'5.1'
p727
S'CD'
p728
S'B-NP'
p729
g5
tp730
a(S'+/-'
p731
S'+/-'
p732
S'SYM'
p733
S'I-NP'
p734
g5
tp735
a(S'2.3'
p736
S'2.3'
p737
S'CD'
p738
S'I-NP'
p739
g5
tp740
a(S'hr'
p741
S'hr'
p742
S'NN'
p743
S'I-NP'
p744
g5
tp745
a(g346
g346
g346
g5
g5
tp746
a(S'was'
p747
S'be'
p748
S'VBD'
p749
S'B-VP'
p750
g5
tp751
a(S'significantly'
p752
S'significantly'
p753
S'RB'
p754
S'B-ADJP'
p755
g5
tp756
a(S'shorter'
p757
S'short'
p758
S'JJR'
p759
S'I-ADJP'
p760
g5
tp761
a(S'than'
p762
S'than'
p763
S'IN'
p764
S'B-PP'
p765
g5
tp766
a(S'in'
p767
S'in'
p768
S'IN'
p769
S'B-PP'
p770
g5
tp771
a(S'the'
p772
S'the'
p773
S'DT'
p774
S'B-NP'
p775
g5
tp776
a(S'other'
p777
S'other'
p778
S'JJ'
p779
S'I-NP'
p780
g5
tp781
a(S'three'
p782
S'three'
p783
S'CD'
p784
S'I-NP'
p785
g5
tp786
a(S'groups'
p787
S'group'
p788
S'NNS'
p789
S'I-NP'
p790
g5
tp791
a(g326
g326
g326
g5
g5
tp792
a(S'II'
p793
S'II'
p794
S'CD'
p795
S'B-NP'
p796
g5
tp797
a(S'-16.6'
p798
S'-16.6'
p799
S'CD'
p800
S'I-NP'
p801
g5
tp802
a(S'+/-'
p803
S'+/-'
p804
S'SYM'
p805
S'B-NP'
p806
g5
tp807
a(S'4.9'
p808
S'4.9'
p809
S'CD'
p810
S'B-NP'
p811
g5
tp812
a(S'hr'
p813
S'hr'
p814
S'NN'
p815
S'I-NP'
p816
g5
tp817
a(S';'
p818
g818
S':'
p819
g5
g5
tp820
a(S'III'
p821
S'III'
p822
S'CD'
p823
S'B-NP'
p824
g5
tp825
a(S'-'
p826
g826
S'HYPH'
p827
S'I-NP'
p828
g5
tp829
a(S'17.2'
p830
S'17.2'
p831
S'CD'
p832
S'I-NP'
p833
g5
tp834
a(S'+/-'
p835
S'+/-'
p836
S'SYM'
p837
S'I-NP'
p838
g5
tp839
a(S'5.5'
p840
S'5.5'
p841
S'CD'
p842
S'I-NP'
p843
g5
tp844
a(S'hr'
p845
S'hr'
p846
S'NN'
p847
S'I-NP'
p848
g5
tp849
a(g818
g818
g819
g5
g5
tp850
a(S'IV'
p851
S'IV'
p852
S'CD'
p853
S'B-NP'
p854
g5
tp855
a(g826
g826
S'HYPH'
p856
S'I-NP'
p857
g5
tp858
a(S'17.0'
p859
S'17.0'
p860
S'CD'
p861
S'I-NP'
p862
g5
tp863
a(S'+/-'
p864
S'+/-'
p865
S'SYM'
p866
S'I-NP'
p867
g5
tp868
a(S'5.8'
p869
S'5.8'
p870
S'CD'
p871
S'I-NP'
p872
g5
tp873
a(S'hr'
p874
S'hr'
p875
S'NN'
p876
S'I-NP'
p877
g5
tp878
a(g818
g818
g819
g5
g5
tp879
a(S'P'
p880
g880
S'NN'
p881
S'B-NP'
p882
g5
tp883
a(S'<'
p884
g884
S'SYM'
p885
S'B-NP'
p886
g5
tp887
a(S'0.05'
p888
S'0.05'
p889
S'CD'
p890
S'I-NP'
p891
g5
tp892
a(g346
g346
g346
g5
g5
tp893
a(g56
g56
g56
g5
g5
tp894
a(S'Total'
p895
S'Total'
p896
S'JJ'
p897
S'B-NP'
p898
g5
tp899
a(S'analgesic'
p900
S'analgesic'
p901
S'JJ'
p902
S'I-NP'
p903
g5
tp904
a(g326
g326
g326
g5
g5
tp905
a(S'paracetamol'
p906
S'paracetamol'
p907
S'NN'
p908
S'B-NP'
p909
g5
tp910
a(g346
g346
g346
g5
g5
tp911
a(S'consumption'
p912
S'consumption'
p913
S'NN'
p914
S'B-NP'
p915
g5
tp916
a(S'was'
p917
S'be'
p918
S'VBD'
p919
S'B-VP'
p920
g5
tp921
a(S'significantly'
p922
S'significantly'
p923
S'RB'
p924
S'B-ADJP'
p925
g5
tp926
a(S'more'
p927
S'more'
p928
S'JJR'
p929
S'I-ADJP'
p930
g5
tp931
a(S'in'
p932
S'in'
p933
S'IN'
p934
S'B-PP'
p935
g5
tp936
a(S'Group'
p937
S'Group'
p938
S'NN'
p939
S'B-NP'
p940
g5
tp941
a(g413
g413
S'CD'
p942
S'I-NP'
p943
g5
tp944
a(g326
g326
g326
g5
g5
tp945
a(S'697.6'
p946
S'697.6'
p947
S'CD'
p948
S'B-NP'
p949
g5
tp950
a(S'+/-'
p951
S'+/-'
p952
S'SYM'
p953
S'I-NP'
p954
g5
tp955
a(S'240.7'
p956
S'240.7'
p957
S'CD'
p958
S'I-NP'
p959
g5
tp960
a(S'mg'
p961
S'mg'
p962
S'NN'
p963
S'I-NP'
p964
g5
tp965
a(g346
g346
g346
g5
g5
tp966
a(S'than'
p967
S'than'
p968
S'IN'
p969
S'B-PP'
p970
g5
tp971
a(S'in'
p972
S'in'
p973
S'IN'
p974
S'B-PP'
p975
g5
tp976
a(S'the'
p977
S'the'
p978
S'DT'
p979
S'B-NP'
p980
g5
tp981
a(S'groups'
p982
S'group'
p983
S'NNS'
p984
S'I-NP'
p985
g5
tp986
a(S'receiving'
p987
S'receive'
p988
S'VBG'
p989
S'B-VP'
p990
g5
tp991
a(S'caudal'
p992
S'caudal'
p993
S'JJ'
p994
S'B-NP'
p995
g5
tp996
a(S'neostigmine'
p997
S'neostigmine'
p998
S'NN'
p999
S'I-NP'
p1000
g5
tp1001
a(g326
g326
g326
g5
g5
tp1002
a(S'II'
p1003
S'II'
p1004
S'CD'
p1005
S'B-NP'
p1006
g5
tp1007
a(g826
g826
S'HYPH'
p1008
S'I-NP'
p1009
g5
tp1010
a(S'248.0'
p1011
S'248.0'
p1012
S'CD'
p1013
S'I-NP'
p1014
g5
tp1015
a(S'+/-'
p1016
S'+/-'
p1017
S'SYM'
p1018
S'I-NP'
p1019
g5
tp1020
a(S'178.4'
p1021
S'178.4'
p1022
S'CD'
p1023
S'I-NP'
p1024
g5
tp1025
a(g818
g818
g819
g5
g5
tp1026
a(S'III'
p1027
S'III'
p1028
S'CD'
p1029
S'B-NP'
p1030
g5
tp1031
a(g826
g826
S'HYPH'
p1032
S'I-NP'
p1033
g5
tp1034
a(S'270.2'
p1035
S'270.2'
p1036
S'CD'
p1037
S'I-NP'
p1038
g5
tp1039
a(S'+/-'
p1040
S'+/-'
p1041
S'CC'
p1042
S'I-NP'
p1043
g5
tp1044
a(S'180.8'
p1045
S'180.8'
p1046
S'CD'
p1047
S'I-NP'
p1048
g5
tp1049
a(S'and'
p1050
S'and'
p1051
S'CC'
p1052
S'I-NP'
p1053
g5
tp1054
a(S'IV'
p1055
S'IV'
p1056
S'CD'
p1057
S'I-NP'
p1058
g5
tp1059
a(S'-230.6'
p1060
S'-230.6'
p1061
S'CD'
p1062
S'I-NP'
p1063
g5
tp1064
a(S'+/-'
p1065
S'+/-'
p1066
S'SYM'
p1067
S'B-NP'
p1068
g5
tp1069
a(S'166.9'
p1070
S'166.9'
p1071
S'CD'
p1072
S'B-NP'
p1073
g5
tp1074
a(S'mg'
p1075
S'mg'
p1076
S'NN'
p1077
S'I-NP'
p1078
g5
tp1079
a(g818
g818
g819
g5
g5
tp1080
a(g880
g880
S'NN'
p1081
S'B-NP'
p1082
g5
tp1083
a(g884
g884
S'SYM'
p1084
S'B-NP'
p1085
g5
tp1086
a(S'0.05'
p1087
S'0.05'
p1088
S'CD'
p1089
S'I-NP'
p1090
g5
tp1091
a(g346
g346
g346
g5
g5
tp1092
a(g56
g56
g56
g5
g5
tp1093
a(S'Groups'
p1094
S'Group'
p1095
S'NNS'
p1096
S'B-NP'
p1097
S'B-protein'
p1098
tp1099
a(S'II'
p1100
S'II'
p1101
S'CD'
p1102
S'I-NP'
p1103
S'I-protein'
p1104
tp1105
a(g498
g498
g498
S'I-NP'
p1106
g5
tp1107
a(S'III'
p1108
S'III'
p1109
S'CD'
p1110
S'I-NP'
p1111
g5
tp1112
a(S'and'
p1113
S'and'
p1114
S'CC'
p1115
S'I-NP'
p1116
g5
tp1117
a(S'IV'
p1118
S'IV'
p1119
S'CD'
p1120
S'I-NP'
p1121
g5
tp1122
a(S'were'
p1123
S'be'
p1124
S'VBD'
p1125
S'B-VP'
p1126
g5
tp1127
a(S'comparable'
p1128
S'comparable'
p1129
S'JJ'
p1130
S'B-ADJP'
p1131
g5
tp1132
a(S'with'
p1133
S'with'
p1134
S'IN'
p1135
S'B-PP'
p1136
g5
tp1137
a(S'regards'
p1138
S'regard'
p1139
S'NNS'
p1140
S'B-NP'
p1141
g5
tp1142
a(S'to'
p1143
S'to'
p1144
S'TO'
p1145
S'B-PP'
p1146
g5
tp1147
a(S'duration'
p1148
S'duration'
p1149
S'NN'
p1150
S'B-NP'
p1151
g5
tp1152
a(S'of'
p1153
S'of'
p1154
S'IN'
p1155
S'B-PP'
p1156
g5
tp1157
a(S'postoperative'
p1158
S'postoperative'
p1159
S'JJ'
p1160
S'B-NP'
p1161
g5
tp1162
a(S'analgesia'
p1163
S'analgesia'
p1164
S'NN'
p1165
S'I-NP'
p1166
g5
tp1167
a(S'and'
p1168
S'and'
p1169
S'CC'
p1170
g5
g5
tp1171
a(S'total'
p1172
S'total'
p1173
S'JJ'
p1174
S'B-NP'
p1175
g5
tp1176
a(S'analgesic'
p1177
S'analgesic'
p1178
S'JJ'
p1179
S'I-NP'
p1180
g5
tp1181
a(S'consumption'
p1182
S'consumption'
p1183
S'NN'
p1184
S'I-NP'
p1185
g5
tp1186
a(g326
g326
g326
g5
g5
tp1187
a(g880
g880
S'NN'
p1188
S'B-NP'
p1189
g5
tp1190
a(S'>'
p1191
g1191
S'JJR'
p1192
S'B-NP'
p1193
g5
tp1194
a(S'0.05'
p1195
S'0.05'
p1196
S'CD'
p1197
S'I-NP'
p1198
g5
tp1199
a(g346
g346
g346
g5
g5
tp1200
a(g56
g56
g56
g5
g5
tp1201
a(S'Incidence'
p1202
S'Incidence'
p1203
S'NN'
p1204
S'B-NP'
p1205
g5
tp1206
a(S'of'
p1207
S'of'
p1208
S'IN'
p1209
S'B-PP'
p1210
g5
tp1211
a(S'nausea'
p1212
S'nausea'
p1213
S'NN'
p1214
S'B-NP'
p1215
g5
tp1216
a(S'and'
p1217
S'and'
p1218
S'CC'
p1219
S'I-NP'
p1220
g5
tp1221
a(S'vomiting'
p1222
S'vomiting'
p1223
S'NN'
p1224
S'I-NP'
p1225
g5
tp1226
a(S'were'
p1227
S'be'
p1228
S'VBD'
p1229
S'B-VP'
p1230
g5
tp1231
a(S'comparable'
p1232
S'comparable'
p1233
S'JJ'
p1234
S'B-ADJP'
p1235
g5
tp1236
a(S'in'
p1237
S'in'
p1238
S'IN'
p1239
S'B-PP'
p1240
g5
tp1241
a(S'all'
p1242
S'all'
p1243
S'DT'
p1244
S'B-NP'
p1245
g5
tp1246
a(S'four'
p1247
S'four'
p1248
S'CD'
p1249
S'I-NP'
p1250
g5
tp1251
a(S'groups.'
p1252
S'groups.'
p1253
S'NNS'
p1254
S'I-NP'
p1255
g5
tp1256
a(S'No'
p1257
S'No'
p1258
S'DT'
p1259
S'B-NP'
p1260
g5
tp1261
a(S'significant'
p1262
S'significant'
p1263
S'JJ'
p1264
S'I-NP'
p1265
g5
tp1266
a(S'alteration'
p1267
S'alteration'
p1268
S'NN'
p1269
S'I-NP'
p1270
g5
tp1271
a(S'in'
p1272
S'in'
p1273
S'IN'
p1274
S'B-PP'
p1275
g5
tp1276
a(S'vital'
p1277
S'vital'
p1278
S'JJ'
p1279
S'B-NP'
p1280
g5
tp1281
a(S'signs'
p1282
S'sign'
p1283
S'NNS'
p1284
S'I-NP'
p1285
g5
tp1286
a(S'or'
p1287
S'or'
p1288
S'CC'
p1289
g5
g5
tp1290
a(S'any'
p1291
S'any'
p1292
S'DT'
p1293
S'B-NP'
p1294
g5
tp1295
a(S'other'
p1296
S'other'
p1297
S'JJ'
p1298
S'I-NP'
p1299
g5
tp1300
a(S'adverse'
p1301
S'adverse'
p1302
S'JJ'
p1303
S'I-NP'
p1304
g5
tp1305
a(S'effects'
p1306
S'effect'
p1307
S'NNS'
p1308
S'I-NP'
p1309
g5
tp1310
a(S'were'
p1311
S'be'
p1312
S'VBD'
p1313
S'B-VP'
p1314
g5
tp1315
a(S'observed'
p1316
S'observe'
p1317
S'VBN'
p1318
S'I-VP'
p1319
g5
tp1320
a(g56
g56
g56
g5
g5
tp1321
a(S'CONCLUSIONS'
p1322
S'CONCLUSIONS'
p1323
S'NNS'
p1324
S'B-NP'
p1325
g5
tp1326
a(S'Caudal'
p1327
S'Caudal'
p1328
S'JJ'
p1329
S'I-NP'
p1330
g5
tp1331
a(S'neostigmine'
p1332
S'neostigmine'
p1333
S'NN'
p1334
S'I-NP'
p1335
g5
tp1336
a(g326
g326
g326
g5
g5
tp1337
a(g494
g494
S'CD'
p1338
S'B-NP'
p1339
g5
tp1340
a(g498
g498
g498
S'I-NP'
p1341
g5
tp1342
a(g501
g501
S'CD'
p1343
S'I-NP'
p1344
g5
tp1345
a(S'and'
p1346
S'and'
p1347
S'CC'
p1348
S'I-NP'
p1349
g5
tp1350
a(g510
g510
S'CD'
p1351
S'I-NP'
p1352
g5
tp1353
a(S'microg.kg'
p1354
S'microg.kg'
p1355
S'NN'
p1356
S'I-NP'
p1357
g5
tp1358
a(g326
g326
g326
g5
g5
tp1359
a(S'-1'
p1360
S'-1'
p1361
S'CD'
p1362
S'B-NP'
p1363
g5
tp1364
a(g346
g346
g346
g5
g5
tp1365
a(g346
g346
g346
g5
g5
tp1366
a(S'with'
p1367
S'with'
p1368
S'IN'
p1369
S'B-PP'
p1370
g5
tp1371
a(S'bupivacaine'
p1372
S'bupivacaine'
p1373
S'NN'
p1374
S'B-NP'
p1375
g5
tp1376
a(S'produces'
p1377
S'produce'
p1378
S'VBZ'
p1379
S'B-VP'
p1380
g5
tp1381
a(g27
g27
S'DT'
p1382
S'B-NP'
p1383
g5
tp1384
a(S'dose-independent'
p1385
S'dose-independent'
p1386
S'JJ'
p1387
S'I-NP'
p1388
g5
tp1389
a(S'analgesic'
p1390
S'analgesic'
p1391
S'JJ'
p1392
S'I-NP'
p1393
g5
tp1394
a(S'effect'
p1395
S'effect'
p1396
S'NN'
p1397
S'I-NP'
p1398
g5
tp1399
a(g326
g326
g326
g5
g5
tp1400
a(S'approximately'
p1401
S'approximately'
p1402
S'RB'
p1403
S'B-NP'
p1404
g5
tp1405
a(S'16-17'
p1406
S'16-17'
p1407
S'CD'
p1408
S'I-NP'
p1409
g5
tp1410
a(S'hr'
p1411
S'hr'
p1412
S'NN'
p1413
S'I-NP'
p1414
g5
tp1415
a(g346
g346
g346
g5
g5
tp1416
a(S'in'
p1417
S'in'
p1418
S'IN'
p1419
S'B-PP'
p1420
g5
tp1421
a(S'children'
p1422
S'child'
p1423
S'NNS'
p1424
S'B-NP'
p1425
g5
tp1426
a(S'as'
p1427
S'as'
p1428
S'IN'
p1429
S'B-SBAR'
p1430
g5
tp1431
a(S'compared'
p1432
S'compare'
p1433
S'VBN'
p1434
S'B-VP'
p1435
g5
tp1436
a(S'to'
p1437
S'to'
p1438
S'TO'
p1439
S'B-PP'
p1440
g5
tp1441
a(S'those'
p1442
S'those'
p1443
S'DT'
p1444
S'B-NP'
p1445
g5
tp1446
a(S'receiving'
p1447
S'receive'
p1448
S'VBG'
p1449
S'I-NP'
p1450
g5
tp1451
a(S'caudal'
p1452
S'caudal'
p1453
S'JJ'
p1454
S'I-NP'
p1455
g5
tp1456
a(S'bupivacaine'
p1457
S'bupivacaine'
p1458
S'NN'
p1459
S'I-NP'
p1460
g5
tp1461
a(S'alone'
p1462
S'alone'
p1463
S'RB'
p1464
S'I-NP'
p1465
g5
tp1466
a(g326
g326
g326
g5
g5
tp1467
a(S'approximately'
p1468
S'approximately'
p1469
S'RB'
p1470
S'B-NP'
p1471
g5
tp1472
a(S'five'
p1473
S'five'
p1474
S'CD'
p1475
S'I-NP'
p1476
g5
tp1477
a(S'hours'
p1478
S'hour'
p1479
S'NNS'
p1480
S'I-NP'
p1481
g5
tp1482
a(g346
g346
g346
g5
g5
tp1483
a(S'and'
p1484
S'and'
p1485
S'CC'
p1486
g5
g5
tp1487
a(g27
g27
S'DT'
p1488
S'B-NP'
p1489
g5
tp1490
a(S'reduction'
p1491
S'reduction'
p1492
S'NN'
p1493
S'I-NP'
p1494
g5
tp1495
a(S'in'
p1496
S'in'
p1497
S'IN'
p1498
S'B-PP'
p1499
g5
tp1500
a(S'postoperative'
p1501
S'postoperative'
p1502
S'JJ'
p1503
S'B-NP'
p1504
g5
tp1505
a(S'rescue'
p1506
S'rescue'
p1507
S'NN'
p1508
S'I-NP'
p1509
g5
tp1510
a(S'analgesic'
p1511
S'analgesic'
p1512
S'JJ'
p1513
S'I-NP'
p1514
g5
tp1515
a(S'consumption'
p1516
S'consumption'
p1517
S'NN'
p1518
S'I-NP'
p1519
g5
tp1520
a(S'without'
p1521
S'without'
p1522
S'IN'
p1523
S'B-PP'
p1524
g5
tp1525
a(S'increasing'
p1526
S'increase'
p1527
S'VBG'
p1528
S'B-VP'
p1529
g5
tp1530
a(S'the'
p1531
S'the'
p1532
S'DT'
p1533
S'B-NP'
p1534
g5
tp1535
a(S'incidence'
p1536
S'incidence'
p1537
S'NN'
p1538
S'I-NP'
p1539
g5
tp1540
a(S'of'
p1541
S'of'
p1542
S'IN'
p1543
S'B-PP'
p1544
g5
tp1545
a(S'adverse'
p1546
S'adverse'
p1547
S'JJ'
p1548
S'B-NP'
p1549
g5
tp1550
a(S'effects'
p1551
S'effect'
p1552
S'NNS'
p1553
S'I-NP'
p1554
g5
tp1555
a(g56
g56
g56
g5
g5
tp1556
a.