(lp0
(S'Effects'
p1
S'Effect'
p2
S'NNS'
p3
S'B-NP'
p4
S'O'
p5
tp6
a(S'of'
p7
S'of'
p8
S'IN'
p9
S'B-PP'
p10
g5
tp11
a(S'nitric'
p12
S'nitric'
p13
S'JJ'
p14
S'B-NP'
p15
S'B-protein'
p16
tp17
a(S'oxide'
p18
S'oxide'
p19
S'NN'
p20
S'I-NP'
p21
S'I-protein'
p22
tp23
a(S'synthase'
p24
S'synthase'
p25
S'NN'
p26
S'I-NP'
p27
S'I-protein'
p28
tp29
a(S'inhibition'
p30
S'inhibition'
p31
S'NN'
p32
S'I-NP'
p33
g5
tp34
a(S'on'
p35
S'on'
p36
S'IN'
p37
S'B-PP'
p38
g5
tp39
a(S'cutaneous'
p40
S'cutaneous'
p41
S'JJ'
p42
S'B-NP'
p43
g5
tp44
a(S'vasodilation'
p45
S'vasodilation'
p46
S'NN'
p47
S'I-NP'
p48
g5
tp49
a(S'in'
p50
S'in'
p51
S'IN'
p52
S'B-PP'
p53
g5
tp54
a(S'response'
p55
S'response'
p56
S'NN'
p57
S'I-PP'
p58
g5
tp59
a(S'to'
p60
S'to'
p61
S'TO'
p62
S'I-PP'
p63
g5
tp64
a(S'acupuncture'
p65
S'acupuncture'
p66
S'NN'
p67
S'B-NP'
p68
g5
tp69
a(S'stimulation'
p70
S'stimulation'
p71
S'NN'
p72
S'I-NP'
p73
g5
tp74
a(S'in'
p75
S'in'
p76
S'IN'
p77
S'B-PP'
p78
g5
tp79
a(S'humans'
p80
S'human'
p81
S'NNS'
p82
S'B-NP'
p83
g5
tp84
a(S'.'
p85
g85
g85
g5
g5
tp86
a(S'OBJECTIVES'
p87
S'OBJECTIVES'
p88
S'NNS'
p89
S'B-NP'
p90
g5
tp91
a(S'The'
p92
S'The'
p93
S'DT'
p94
S'B-NP'
p95
g5
tp96
a(S'aim'
p97
S'aim'
p98
S'NN'
p99
S'I-NP'
p100
g5
tp101
a(S'of'
p102
S'of'
p103
S'IN'
p104
S'B-PP'
p105
g5
tp106
a(S'the'
p107
S'the'
p108
S'DT'
p109
S'B-NP'
p110
g5
tp111
a(S'present'
p112
S'present'
p113
S'JJ'
p114
S'I-NP'
p115
g5
tp116
a(S'study'
p117
S'study'
p118
S'NN'
p119
S'I-NP'
p120
g5
tp121
a(S'was'
p122
S'be'
p123
S'VBD'
p124
S'B-VP'
p125
g5
tp126
a(S'to'
p127
S'to'
p128
S'TO'
p129
S'B-VP'
p130
g5
tp131
a(S'elucidate'
p132
S'elucidate'
p133
S'VB'
p134
S'I-VP'
p135
g5
tp136
a(S'the'
p137
S'the'
p138
S'DT'
p139
S'B-NP'
p140
g5
tp141
a(S'mechanism'
p142
S'mechanism'
p143
S'NN'
p144
S'I-NP'
p145
g5
tp146
a(S'of'
p147
S'of'
p148
S'IN'
p149
S'B-PP'
p150
g5
tp151
a(S'cutaneous'
p152
S'cutaneous'
p153
S'JJ'
p154
S'B-NP'
p155
g5
tp156
a(S'vasodilation'
p157
S'vasodilation'
p158
S'NN'
p159
S'I-NP'
p160
g5
tp161
a(S'following'
p162
S'follow'
p163
S'VBG'
p164
S'B-PP'
p165
g5
tp166
a(S'acupuncture'
p167
S'acupuncture'
p168
S'NN'
p169
S'B-NP'
p170
g5
tp171
a(S'stimulation'
p172
S'stimulation'
p173
S'NN'
p174
S'I-NP'
p175
g5
tp176
a(S'by'
p177
S'by'
p178
S'IN'
p179
S'B-PP'
p180
g5
tp181
a(S'investigating'
p182
S'investigate'
p183
S'VBG'
p184
S'B-VP'
p185
g5
tp186
a(S'the'
p187
S'the'
p188
S'DT'
p189
S'B-NP'
p190
g5
tp191
a(S'roles'
p192
S'role'
p193
S'NNS'
p194
S'I-NP'
p195
g5
tp196
a(S'of'
p197
S'of'
p198
S'IN'
p199
S'B-PP'
p200
g5
tp201
a(S'nitric'
p202
S'nitric'
p203
S'JJ'
p204
S'B-NP'
p205
g5
tp206
a(S'oxide'
p207
S'oxide'
p208
S'NN'
p209
S'I-NP'
p210
g5
tp211
a(S'('
p212
g212
g212
g5
g5
tp213
a(S'NO'
p214
S'NO'
p215
S'NN'
p216
S'B-NP'
p217
g5
tp218
a(S')'
p219
g219
g219
g5
g5
tp220
a(S'and'
p221
S'and'
p222
S'CC'
p223
g5
g5
tp224
a(S'axon'
p225
S'axon'
p226
S'NN'
p227
S'B-NP'
p228
g5
tp229
a(S'reflex'
p230
S'reflex'
p231
S'NN'
p232
S'I-NP'
p233
g5
tp234
a(S'vasodilation'
p235
S'vasodilation'
p236
S'NN'
p237
S'I-NP'
p238
g5
tp239
a(g85
g85
g85
g5
g5
tp240
a(S'METHODS'
p241
S'METHODS'
p242
S'NNS'
p243
S'B-NP'
p244
g5
tp245
a(S'The'
p246
S'The'
p247
S'DT'
p248
S'B-NP'
p249
g5
tp250
a(S'subjects'
p251
S'subject'
p252
S'NNS'
p253
S'I-NP'
p254
g5
tp255
a(S'were'
p256
S'be'
p257
S'VBD'
p258
S'B-VP'
p259
g5
tp260
a(S'17'
p261
S'17'
p262
S'CD'
p263
S'B-NP'
p264
g5
tp265
a(S'healthy'
p266
S'healthy'
p267
S'JJ'
p268
S'I-NP'
p269
g5
tp270
a(S'male'
p271
S'male'
p272
S'JJ'
p273
S'I-NP'
p274
g5
tp275
a(S'volunteers.'
p276
S'volunteers.'
p277
S'NN'
p278
S'I-NP'
p279
g5
tp280
a(S'The'
p281
S'The'
p282
S'DT'
p283
S'B-NP'
p284
g5
tp285
a(S'role'
p286
S'role'
p287
S'NN'
p288
S'I-NP'
p289
g5
tp290
a(S'of'
p291
S'of'
p292
S'IN'
p293
S'B-PP'
p294
g5
tp295
a(S'NO'
p296
S'NO'
p297
S'NN'
p298
S'B-NP'
p299
S'B-protein'
p300
tp301
a(S'was'
p302
S'be'
p303
S'VBD'
p304
S'B-VP'
p305
g5
tp306
a(S'investigated'
p307
S'investigate'
p308
S'VBN'
p309
S'I-VP'
p310
g5
tp311
a(S'by'
p312
S'by'
p313
S'IN'
p314
S'B-PP'
p315
g5
tp316
a(S'administering'
p317
S'administer'
p318
S'VBG'
p319
S'B-VP'
p320
g5
tp321
a(S'N'
p322
g322
S'NN'
p323
S'B-NP'
p324
g5
tp325
a(g212
g212
g212
g5
g5
tp326
a(S'G'
p327
g327
S'NN'
p328
S'B-NP'
p329
g5
tp330
a(g219
g219
g219
g5
g5
tp331
a(S'-nitro-l-arginine'
p332
S'-nitro-l-arginine'
p333
S'JJ'
p334
S'B-NP'
p335
g5
tp336
a(S'methyl'
p337
S'methyl'
p338
S'NN'
p339
S'I-NP'
p340
g5
tp341
a(S'ester'
p342
S'ester'
p343
S'NN'
p344
S'I-NP'
p345
g5
tp346
a(S'hydrochloride'
p347
S'hydrochloride'
p348
S'NN'
p349
S'I-NP'
p350
g5
tp351
a(g212
g212
g212
g5
g5
tp352
a(S'L-NAME'
p353
S'L-NAME'
p354
S'NN'
p355
S'B-NP'
p356
g5
tp357
a(S','
p358
g358
g358
g5
g5
tp359
a(S'20'
p360
S'20'
p361
S'CD'
p362
S'B-NP'
p363
g5
tp364
a(S'mM'
p365
S'mM'
p366
S'NN'
p367
S'I-NP'
p368
g5
tp369
a(g219
g219
g219
g5
g5
tp370
a(g358
g358
g358
g5
g5
tp371
a(S'an'
p372
S'an'
p373
S'DT'
p374
S'B-NP'
p375
g5
tp376
a(S'NO'
p377
S'NO'
p378
S'NN'
p379
S'I-NP'
p380
S'B-protein'
p381
tp382
a(S'synthase'
p383
S'synthase'
p384
S'NN'
p385
S'I-NP'
p386
S'I-protein'
p387
tp388
a(S'inhibitor'
p389
S'inhibitor'
p390
S'NN'
p391
S'I-NP'
p392
g5
tp393
a(S'or'
p394
S'or'
p395
S'CC'
p396
g5
g5
tp397
a(S'Ringer'
p398
S'Ringer'
p399
S'NN'
p400
S'B-NP'
p401
g5
tp402
a(S"'s"
p403
S"'s"
p404
S'POS'
p405
S'B-NP'
p406
g5
tp407
a(S'solution'
p408
S'solution'
p409
S'NN'
p410
S'I-NP'
p411
g5
tp412
a(g212
g212
g212
g5
g5
tp413
a(S'control'
p414
S'control'
p415
S'NN'
p416
S'B-NP'
p417
g5
tp418
a(S'site'
p419
S'site'
p420
S'NN'
p421
S'I-NP'
p422
g5
tp423
a(g219
g219
g219
g5
g5
tp424
a(g358
g358
g358
g5
g5
tp425
a(S'via'
p426
S'via'
p427
S'IN'
p428
S'B-PP'
p429
g5
tp430
a(S'intradermal'
p431
S'intradermal'
p432
S'JJ'
p433
S'B-NP'
p434
g5
tp435
a(S'microdialysis'
p436
S'microdialysis'
p437
S'NN'
p438
S'I-NP'
p439
g5
tp440
a(g212
g212
g212
g5
g5
tp441
a(S'protocol'
p442
S'protocol'
p443
S'NN'
p444
S'B-NP'
p445
g5
tp446
a(S'1'
p447
g447
S'CD'
p448
S'I-NP'
p449
g5
tp450
a(S';'
p451
g451
S':'
p452
g5
g5
tp453
a(S'n=7'
p454
S'n=7'
p455
S'NN'
p456
S'B-NP'
p457
g5
tp458
a(g219
g219
g219
g5
g5
tp459
a(g85
g85
g85
g5
g5
tp460
a(S'The'
p461
S'The'
p462
S'DT'
p463
S'B-NP'
p464
g5
tp465
a(S'role'
p466
S'role'
p467
S'NN'
p468
S'I-NP'
p469
g5
tp470
a(S'of'
p471
S'of'
p472
S'IN'
p473
S'B-PP'
p474
g5
tp475
a(S'axon'
p476
S'axon'
p477
S'NN'
p478
S'B-NP'
p479
g5
tp480
a(S'reflex'
p481
S'reflex'
p482
S'NN'
p483
S'I-NP'
p484
g5
tp485
a(S'vasodilation'
p486
S'vasodilation'
p487
S'NN'
p488
S'I-NP'
p489
g5
tp490
a(S'by'
p491
S'by'
p492
S'IN'
p493
S'B-PP'
p494
g5
tp495
a(S'local'
p496
S'local'
p497
S'JJ'
p498
S'B-NP'
p499
g5
tp500
a(S'sensory'
p501
S'sensory'
p502
S'JJ'
p503
S'I-NP'
p504
g5
tp505
a(S'neurones'
p506
S'neurone'
p507
S'NNS'
p508
S'I-NP'
p509
g5
tp510
a(S'was'
p511
S'be'
p512
S'VBD'
p513
S'B-VP'
p514
g5
tp515
a(S'investigated'
p516
S'investigate'
p517
S'VBN'
p518
S'I-VP'
p519
g5
tp520
a(S'by'
p521
S'by'
p522
S'IN'
p523
S'B-PP'
p524
g5
tp525
a(S'comparing'
p526
S'compare'
p527
S'VBG'
p528
S'B-VP'
p529
g5
tp530
a(S'vasodilation'
p531
S'vasodilation'
p532
S'NN'
p533
S'B-NP'
p534
g5
tp535
a(S'at'
p536
S'at'
p537
S'IN'
p538
S'B-PP'
p539
g5
tp540
a(S'sites'
p541
S'site'
p542
S'NNS'
p543
S'B-NP'
p544
g5
tp545
a(S'treated'
p546
S'treat'
p547
S'VBN'
p548
S'B-VP'
p549
g5
tp550
a(S'with'
p551
S'with'
p552
S'IN'
p553
S'B-PP'
p554
g5
tp555
a(S"'eutectic"
p556
S"'eutectic"
p557
S'JJ'
p558
S'B-NP'
p559
g5
tp560
a(S'mixture'
p561
S'mixture'
p562
S'NN'
p563
S'I-NP'
p564
g5
tp565
a(S'of'
p566
S'of'
p567
S'IN'
p568
S'B-PP'
p569
g5
tp570
a(S'local'
p571
S'local'
p572
S'JJ'
p573
S'B-NP'
p574
g5
tp575
a(S'anaesthetics'
p576
S'anaesthetic'
p577
S'NNS'
p578
S'I-NP'
p579
g5
tp580
a(S"'"
p581
g581
S'POS'
p582
S'B-NP'
p583
g5
tp584
a(g212
g212
g212
g5
g5
tp585
a(S'EMLA'
p586
S'EMLA'
p587
S'NN'
p588
g5
g5
tp589
a(g219
g219
g219
g5
g5
tp590
a(S'cream'
p591
S'cream'
p592
S'NN'
p593
S'B-NP'
p594
g5
tp595
a(g212
g212
g212
g5
g5
tp596
a(S'2.5'
p597
S'2.5'
p598
S'CD'
p599
S'B-NP'
p600
g5
tp601
a(S'%'
p602
g602
S'NN'
p603
S'I-NP'
p604
g5
tp605
a(S'lidocaine'
p606
S'lidocaine'
p607
S'NN'
p608
S'I-NP'
p609
g5
tp610
a(S'and'
p611
S'and'
p612
S'CC'
p613
g5
g5
tp614
a(S'2.5'
p615
S'2.5'
p616
S'CD'
p617
S'B-NP'
p618
g5
tp619
a(g602
g602
S'NN'
p620
S'I-NP'
p621
g5
tp622
a(S'prilocaine'
p623
S'prilocaine'
p624
S'NN'
p625
S'I-NP'
p626
g5
tp627
a(g219
g219
g219
g5
g5
tp628
a(S'with'
p629
S'with'
p630
S'IN'
p631
S'B-PP'
p632
g5
tp633
a(S'untreated'
p634
S'untreated'
p635
S'JJ'
p636
S'B-NP'
p637
g5
tp638
a(S'sites'
p639
S'site'
p640
S'NNS'
p641
S'I-NP'
p642
g5
tp643
a(g212
g212
g212
g5
g5
tp644
a(S'control'
p645
S'control'
p646
S'NN'
p647
S'B-NP'
p648
g5
tp649
a(S'site'
p650
S'site'
p651
S'NN'
p652
S'I-NP'
p653
g5
tp654
a(g219
g219
g219
g5
g5
tp655
a(g212
g212
g212
g5
g5
tp656
a(S'protocol'
p657
S'protocol'
p658
S'NN'
p659
S'B-NP'
p660
g5
tp661
a(S'2'
p662
g662
S'CD'
p663
S'I-NP'
p664
g5
tp665
a(g451
g451
g452
g5
g5
tp666
a(S'n=10'
p667
S'n=10'
p668
S'CD'
p669
S'B-NP'
p670
g5
tp671
a(g219
g219
g219
g5
g5
tp672
a(g85
g85
g85
g5
g5
tp673
a(S'After'
p674
S'After'
p675
S'IN'
p676
S'B-PP'
p677
g5
tp678
a(S'5'
p679
g679
S'CD'
p680
S'B-NP'
p681
g5
tp682
a(S'min'
p683
S'min'
p684
S'NN'
p685
S'I-NP'
p686
g5
tp687
a(S'of'
p688
S'of'
p689
S'IN'
p690
S'B-PP'
p691
g5
tp692
a(S'baseline'
p693
S'baseline'
p694
S'NN'
p695
S'B-NP'
p696
g5
tp697
a(S'recording'
p698
S'recording'
p699
S'NN'
p700
S'I-NP'
p701
g5
tp702
a(g358
g358
g358
g5
g5
tp703
a(S'acupuncture'
p704
S'acupuncture'
p705
S'NN'
p706
S'B-NP'
p707
g5
tp708
a(S'was'
p709
S'be'
p710
S'VBD'
p711
S'B-VP'
p712
g5
tp713
a(S'applied'
p714
S'apply'
p715
S'VBN'
p716
S'I-VP'
p717
g5
tp718
a(S'to'
p719
S'to'
p720
S'TO'
p721
S'B-PP'
p722
g5
tp723
a(S'PC4'
p724
S'PC4'
p725
S'NN'
p726
S'B-NP'
p727
S'B-protein'
p728
tp729
a(S'and'
p730
S'and'
p731
S'CC'
p732
g5
g5
tp733
a(S'a'
p734
g734
S'DT'
p735
S'B-NP'
p736
g5
tp737
a(S'control'
p738
S'control'
p739
S'NN'
p740
S'I-NP'
p741
g5
tp742
a(S'site'
p743
S'site'
p744
S'NN'
p745
S'I-NP'
p746
g5
tp747
a(S'in'
p748
S'in'
p749
S'IN'
p750
S'B-PP'
p751
g5
tp752
a(S'proximity'
p753
S'proximity'
p754
S'NN'
p755
S'B-NP'
p756
g5
tp757
a(S'to'
p758
S'to'
p759
S'TO'
p760
S'B-PP'
p761
g5
tp762
a(S'PC4'
p763
S'PC4'
p764
S'NN'
p765
S'B-NP'
p766
S'B-protein'
p767
tp768
a(S'for'
p769
S'for'
p770
S'IN'
p771
S'B-PP'
p772
g5
tp773
a(S'10'
p774
S'10'
p775
S'CD'
p776
S'B-NP'
p777
g5
tp778
a(S'min'
p779
S'min'
p780
S'NN'
p781
S'I-NP'
p782
g5
tp783
a(S'and'
p784
S'and'
p785
S'CC'
p786
S'I-NP'
p787
g5
tp788
a(S'scanning'
p789
S'scanning'
p790
S'NN'
p791
S'I-NP'
p792
g5
tp793
a(S'was'
p794
S'be'
p795
S'VBD'
p796
S'B-VP'
p797
g5
tp798
a(S'performed'
p799
S'perform'
p800
S'VBN'
p801
S'I-VP'
p802
g5
tp803
a(S'for'
p804
S'for'
p805
S'IN'
p806
S'B-PP'
p807
g5
tp808
a(S'60'
p809
S'60'
p810
S'CD'
p811
S'B-NP'
p812
g5
tp813
a(S'min'
p814
S'min'
p815
S'NN'
p816
S'I-NP'
p817
g5
tp818
a(S'after'
p819
S'after'
p820
S'IN'
p821
S'B-PP'
p822
g5
tp823
a(S'acupuncture'
p824
S'acupuncture'
p825
S'NN'
p826
S'B-NP'
p827
g5
tp828
a(S'stimulation.'
p829
S'stimulation.'
p830
S'NN'
p831
S'I-NP'
p832
g5
tp833
a(S'Skin'
p834
S'Skin'
p835
S'NN'
p836
S'I-NP'
p837
g5
tp838
a(S'blood'
p839
S'blood'
p840
S'NN'
p841
S'I-NP'
p842
g5
tp843
a(S'flow'
p844
S'flow'
p845
S'NN'
p846
S'I-NP'
p847
g5
tp848
a(g212
g212
g212
g5
g5
tp849
a(S'SkBF'
p850
S'SkBF'
p851
S'NN'
p852
S'B-NP'
p853
S'B-protein'
p854
tp855
a(g219
g219
g219
g5
g5
tp856
a(S'was'
p857
S'be'
p858
S'VBD'
p859
S'B-VP'
p860
g5
tp861
a(S'evaluated'
p862
S'evaluate'
p863
S'VBN'
p864
S'I-VP'
p865
g5
tp866
a(S'by'
p867
S'by'
p868
S'IN'
p869
S'B-PP'
p870
g5
tp871
a(S'laser'
p872
S'laser'
p873
S'NN'
p874
S'B-NP'
p875
g5
tp876
a(S'Doppler'
p877
S'Doppler'
p878
S'NNP'
p879
S'I-NP'
p880
g5
tp881
a(S'perfusion'
p882
S'perfusion'
p883
S'NN'
p884
S'I-NP'
p885
g5
tp886
a(S'imaging.'
p887
S'imaging.'
p888
S'NN'
p889
S'I-NP'
p890
g5
tp891
a(S'Cutaneous'
p892
S'Cutaneous'
p893
S'JJ'
p894
S'I-NP'
p895
g5
tp896
a(S'vascular'
p897
S'vascular'
p898
S'JJ'
p899
S'I-NP'
p900
g5
tp901
a(S'conductance'
p902
S'conductance'
p903
S'NN'
p904
S'I-NP'
p905
g5
tp906
a(g212
g212
g212
g5
g5
tp907
a(S'CVC'
p908
S'CVC'
p909
S'NN'
p910
S'B-NP'
p911
S'B-protein'
p912
tp913
a(g219
g219
g219
g5
g5
tp914
a(S'was'
p915
S'be'
p916
S'VBD'
p917
S'B-VP'
p918
g5
tp919
a(S'calculated'
p920
S'calculate'
p921
S'VBN'
p922
S'I-VP'
p923
g5
tp924
a(S'from'
p925
S'from'
p926
S'IN'
p927
S'B-PP'
p928
g5
tp929
a(S'the'
p930
S'the'
p931
S'DT'
p932
S'B-NP'
p933
g5
tp934
a(S'ratio'
p935
S'ratio'
p936
S'NN'
p937
S'I-NP'
p938
g5
tp939
a(S'of'
p940
S'of'
p941
S'IN'
p942
S'B-PP'
p943
g5
tp944
a(S'SkBF'
p945
S'SkBF'
p946
S'NN'
p947
S'B-NP'
p948
S'B-protein'
p949
tp950
a(S'to'
p951
S'to'
p952
S'TO'
p953
S'B-VP'
p954
g5
tp955
a(S'mean'
p956
S'mean'
p957
S'VB'
p958
S'I-VP'
p959
g5
tp960
a(S'arterial'
p961
S'arterial'
p962
S'JJ'
p963
S'B-NP'
p964
g5
tp965
a(S'blood'
p966
S'blood'
p967
S'NN'
p968
S'I-NP'
p969
g5
tp970
a(S'pressure'
p971
S'pressure'
p972
S'NN'
p973
S'I-NP'
p974
g5
tp975
a(g85
g85
g85
g5
g5
tp976
a(S'RESULTS'
p977
S'RESULTS'
p978
S'NNS'
p979
S'B-NP'
p980
g5
tp981
a(S'In'
p982
S'In'
p983
S'IN'
p984
S'B-PP'
p985
g5
tp986
a(S'the'
p987
S'the'
p988
S'DT'
p989
S'B-NP'
p990
g5
tp991
a(S'first'
p992
S'first'
p993
S'JJ'
p994
S'I-NP'
p995
g5
tp996
a(S'protocol'
p997
S'protocol'
p998
S'NN'
p999
S'I-NP'
p1000
g5
tp1001
a(g358
g358
g358
g5
g5
tp1002
a(S'sites'
p1003
S'site'
p1004
S'NNS'
p1005
S'B-NP'
p1006
g5
tp1007
a(S'administered'
p1008
S'administer'
p1009
S'VBN'
p1010
S'B-VP'
p1011
g5
tp1012
a(S'L-NAME'
p1013
S'L-NAME'
p1014
S'NN'
p1015
S'B-NP'
p1016
S'B-protein'
p1017
tp1018
a(S'showed'
p1019
S'show'
p1020
S'VBD'
p1021
S'B-VP'
p1022
g5
tp1023
a(S'significant'
p1024
S'significant'
p1025
S'JJ'
p1026
S'B-NP'
p1027
g5
tp1028
a(S'reductions'
p1029
S'reduction'
p1030
S'NNS'
p1031
S'I-NP'
p1032
g5
tp1033
a(S'in'
p1034
S'in'
p1035
S'IN'
p1036
S'B-PP'
p1037
g5
tp1038
a(S'CVC'
p1039
S'CVC'
p1040
S'NN'
p1041
S'B-NP'
p1042
g5
tp1043
a(S'responses'
p1044
S'response'
p1045
S'NNS'
p1046
S'I-NP'
p1047
g5
tp1048
a(S'following'
p1049
S'follow'
p1050
S'VBG'
p1051
S'B-PP'
p1052
g5
tp1053
a(S'acupuncture'
p1054
S'acupuncture'
p1055
S'NN'
p1056
S'B-NP'
p1057
g5
tp1058
a(S'stimulation'
p1059
S'stimulation'
p1060
S'NN'
p1061
S'I-NP'
p1062
g5
tp1063
a(S'compared'
p1064
S'compare'
p1065
S'VBN'
p1066
S'B-VP'
p1067
g5
tp1068
a(S'to'
p1069
S'to'
p1070
S'TO'
p1071
S'B-PP'
p1072
g5
tp1073
a(S'control'
p1074
S'control'
p1075
S'NN'
p1076
S'B-NP'
p1077
g5
tp1078
a(S'sites'
p1079
S'site'
p1080
S'NNS'
p1081
S'I-NP'
p1082
g5
tp1083
a(g212
g212
g212
g5
g5
tp1084
a(S'administered'
p1085
S'administer'
p1086
S'VBN'
p1087
S'B-VP'
p1088
g5
tp1089
a(S'Ringer'
p1090
S'Ringer'
p1091
S'NNP'
p1092
S'B-NP'
p1093
g5
tp1094
a(S"'s"
p1095
S"'s"
p1096
S'POS'
p1097
S'B-NP'
p1098
g5
tp1099
a(S'solution'
p1100
S'solution'
p1101
S'NN'
p1102
S'I-NP'
p1103
g5
tp1104
a(g219
g219
g219
g5
g5
tp1105
a(g212
g212
g212
g5
g5
tp1106
a(S'p'
p1107
g1107
S'NN'
p1108
S'B-NP'
p1109
g5
tp1110
a(S'<'
p1111
g1111
S'SYM'
p1112
g5
g5
tp1113
a(S'0.05'
p1114
S'0.05'
p1115
S'CD'
p1116
S'B-NP'
p1117
g5
tp1118
a(g219
g219
g219
g5
g5
tp1119
a(g85
g85
g85
g5
g5
tp1120
a(S'In'
p1121
S'In'
p1122
S'IN'
p1123
S'B-PP'
p1124
g5
tp1125
a(S'the'
p1126
S'the'
p1127
S'DT'
p1128
S'B-NP'
p1129
g5
tp1130
a(S'second'
p1131
S'second'
p1132
S'JJ'
p1133
S'I-NP'
p1134
g5
tp1135
a(S'protocol'
p1136
S'protocol'
p1137
S'NN'
p1138
S'I-NP'
p1139
g5
tp1140
a(g358
g358
g358
g5
g5
tp1141
a(S'changes'
p1142
S'change'
p1143
S'NNS'
p1144
S'B-NP'
p1145
g5
tp1146
a(S'in'
p1147
S'in'
p1148
S'IN'
p1149
S'B-PP'
p1150
g5
tp1151
a(S'CVC'
p1152
S'CVC'
p1153
S'NN'
p1154
S'B-NP'
p1155
g5
tp1156
a(S'responses'
p1157
S'response'
p1158
S'NNS'
p1159
S'I-NP'
p1160
g5
tp1161
a(S'after'
p1162
S'after'
p1163
S'IN'
p1164
S'B-PP'
p1165
g5
tp1166
a(S'acupuncture'
p1167
S'acupuncture'
p1168
S'NN'
p1169
S'B-NP'
p1170
g5
tp1171
a(S'stimulation'
p1172
S'stimulation'
p1173
S'NN'
p1174
S'I-NP'
p1175
g5
tp1176
a(S'did'
p1177
S'do'
p1178
S'VBD'
p1179
S'B-VP'
p1180
g5
tp1181
a(S'not'
p1182
S'not'
p1183
S'RB'
p1184
S'I-VP'
p1185
g5
tp1186
a(S'differ'
p1187
S'differ'
p1188
S'VB'
p1189
S'I-VP'
p1190
g5
tp1191
a(S'significantly'
p1192
S'significantly'
p1193
S'RB'
p1194
S'B-ADVP'
p1195
g5
tp1196
a(S'between'
p1197
S'between'
p1198
S'IN'
p1199
S'B-PP'
p1200
g5
tp1201
a(S'treated'
p1202
S'treat'
p1203
S'VBN'
p1204
S'B-NP'
p1205
g5
tp1206
a(S'sites'
p1207
S'site'
p1208
S'NNS'
p1209
S'I-NP'
p1210
g5
tp1211
a(S'with'
p1212
S'with'
p1213
S'IN'
p1214
S'B-PP'
p1215
g5
tp1216
a(S'EMLA'
p1217
S'EMLA'
p1218
S'NN'
p1219
S'B-NP'
p1220
S'B-DNA'
p1221
tp1222
a(S'cream'
p1223
S'cream'
p1224
S'NN'
p1225
S'I-NP'
p1226
S'I-DNA'
p1227
tp1228
a(S'and'
p1229
S'and'
p1230
S'CC'
p1231
g5
S'I-DNA'
p1232
tp1233
a(S'untreated'
p1234
S'untreated'
p1235
S'JJ'
p1236
S'B-NP'
p1237
S'I-DNA'
p1238
tp1239
a(S'sites'
p1240
S'site'
p1241
S'NNS'
p1242
S'I-NP'
p1243
S'I-DNA'
p1244
tp1245
a(g212
g212
g212
g5
g5
tp1246
a(g1107
g1107
S'NN'
p1247
S'B-NP'
p1248
g5
tp1249
a(S'>'
p1250
g1250
S'SYM'
p1251
g5
g5
tp1252
a(S'0.05'
p1253
S'0.05'
p1254
S'CD'
p1255
S'B-NP'
p1256
g5
tp1257
a(g219
g219
g219
g5
g5
tp1258
a(g85
g85
g85
g5
g5
tp1259
a(S'CONCLUSIONS'
p1260
S'CONCLUSIONS'
p1261
S'NNS'
p1262
S'B-NP'
p1263
g5
tp1264
a(S'These'
p1265
S'These'
p1266
S'DT'
p1267
S'B-NP'
p1268
g5
tp1269
a(S'data'
p1270
S'datum'
p1271
S'NNS'
p1272
S'I-NP'
p1273
g5
tp1274
a(S'suggest'
p1275
S'suggest'
p1276
S'VBP'
p1277
S'B-VP'
p1278
g5
tp1279
a(S'that'
p1280
S'that'
p1281
S'IN'
p1282
S'B-SBAR'
p1283
g5
tp1284
a(S'cutaneous'
p1285
S'cutaneous'
p1286
S'JJ'
p1287
S'B-NP'
p1288
g5
tp1289
a(S'vasodilation'
p1290
S'vasodilation'
p1291
S'NN'
p1292
S'I-NP'
p1293
g5
tp1294
a(S'in'
p1295
S'in'
p1296
S'IN'
p1297
S'B-PP'
p1298
g5
tp1299
a(S'response'
p1300
S'response'
p1301
S'NN'
p1302
S'I-PP'
p1303
g5
tp1304
a(S'to'
p1305
S'to'
p1306
S'TO'
p1307
S'I-PP'
p1308
g5
tp1309
a(S'acupuncture'
p1310
S'acupuncture'
p1311
S'NN'
p1312
S'B-NP'
p1313
g5
tp1314
a(S'stimulation'
p1315
S'stimulation'
p1316
S'NN'
p1317
S'I-NP'
p1318
g5
tp1319
a(S'may'
p1320
S'may'
p1321
S'MD'
p1322
S'B-VP'
p1323
g5
tp1324
a(S'not'
p1325
S'not'
p1326
S'RB'
p1327
S'I-VP'
p1328
g5
tp1329
a(S'occur'
p1330
S'occur'
p1331
S'VB'
p1332
S'I-VP'
p1333
g5
tp1334
a(S'through'
p1335
S'through'
p1336
S'IN'
p1337
S'B-PP'
p1338
g5
tp1339
a(S'an'
p1340
S'an'
p1341
S'DT'
p1342
S'B-NP'
p1343
g5
tp1344
a(S'axon'
p1345
S'axon'
p1346
S'NN'
p1347
S'I-NP'
p1348
g5
tp1349
a(S'reflex'
p1350
S'reflex'
p1351
S'NN'
p1352
S'I-NP'
p1353
g5
tp1354
a(S'as'
p1355
S'as'
p1356
S'IN'
p1357
S'B-SBAR'
p1358
g5
tp1359
a(S'previously'
p1360
S'previously'
p1361
S'RB'
p1362
S'B-ADVP'
p1363
g5
tp1364
a(S'reported.'
p1365
S'reported.'
p1366
S'VBN'
p1367
S'B-VP'
p1368
g5
tp1369
a(S'Rather'
p1370
S'Rather'
p1371
S'NN'
p1372
S'B-NP'
p1373
g5
tp1374
a(g358
g358
g358
g5
g5
tp1375
a(S'NO'
p1376
S'NO'
p1377
S'NN'
p1378
S'B-NP'
p1379
g5
tp1380
a(S'mechanisms'
p1381
S'mechanism'
p1382
S'NNS'
p1383
S'I-NP'
p1384
g5
tp1385
a(S'appear'
p1386
S'appear'
p1387
S'VBP'
p1388
S'B-VP'
p1389
g5
tp1390
a(S'to'
p1391
S'to'
p1392
S'TO'
p1393
S'I-VP'
p1394
g5
tp1395
a(S'contribute'
p1396
S'contribute'
p1397
S'VB'
p1398
S'I-VP'
p1399
g5
tp1400
a(S'to'
p1401
S'to'
p1402
S'TO'
p1403
S'B-PP'
p1404
g5
tp1405
a(S'the'
p1406
S'the'
p1407
S'DT'
p1408
S'B-NP'
p1409
g5
tp1410
a(S'vasodilator'
p1411
S'vasodilator'
p1412
S'NN'
p1413
S'I-NP'
p1414
g5
tp1415
a(S'response'
p1416
S'response'
p1417
S'NN'
p1418
S'I-NP'
p1419
g5
tp1420
a(g85
g85
g85
g5
g5
tp1421
a.