(lp0
(S'The'
p1
S'The'
p2
S'DT'
p3
S'B-NP'
p4
S'O'
p5
tp6
a(S'influence'
p7
S'influence'
p8
S'NN'
p9
S'I-NP'
p10
g5
tp11
a(S'of'
p12
S'of'
p13
S'IN'
p14
S'B-PP'
p15
g5
tp16
a(S'serum'
p17
S'serum'
p18
S'NN'
p19
S'B-NP'
p20
g5
tp21
a(S'methotrexate'
p22
S'methotrexate'
p23
S'NN'
p24
S'I-NP'
p25
g5
tp26
a(S'concentrations'
p27
S'concentration'
p28
S'NNS'
p29
S'I-NP'
p30
g5
tp31
a(S'and'
p32
S'and'
p33
S'CC'
p34
g5
g5
tp35
a(S'drug'
p36
S'drug'
p37
S'NN'
p38
S'B-NP'
p39
g5
tp40
a(S'dosage'
p41
S'dosage'
p42
S'NN'
p43
S'I-NP'
p44
g5
tp45
a(S'on'
p46
S'on'
p47
S'IN'
p48
S'B-PP'
p49
g5
tp50
a(S'outcome'
p51
S'outcome'
p52
S'NN'
p53
S'B-NP'
p54
g5
tp55
a(S'in'
p56
S'in'
p57
S'IN'
p58
S'B-PP'
p59
g5
tp60
a(S'childhood'
p61
S'childhood'
p62
S'NN'
p63
S'B-NP'
p64
g5
tp65
a(S'acute'
p66
S'acute'
p67
S'JJ'
p68
S'I-NP'
p69
g5
tp70
a(S'lymphoblastic'
p71
S'lymphoblastic'
p72
S'JJ'
p73
S'I-NP'
p74
g5
tp75
a(S'leukaemia'
p76
S'leukaemia'
p77
S'NN'
p78
S'I-NP'
p79
g5
tp80
a(S'.'
p81
g81
g81
g5
g5
tp82
a(S'Sequential'
p83
S'Sequential'
p84
S'JJ'
p85
S'B-NP'
p86
g5
tp87
a(S'methotrexate'
p88
S'methotrexate'
p89
S'NN'
p90
S'I-NP'
p91
g5
tp92
a(S'('
p93
g93
g93
g5
g5
tp94
a(S'Mtx'
p95
S'Mtx'
p96
S'NN'
p97
S'B-NP'
p98
S'B-protein'
p99
tp100
a(S')'
p101
g101
g101
g5
g5
tp102
a(S'absorption'
p103
S'absorption'
p104
S'NN'
p105
S'B-NP'
p106
g5
tp107
a(S'studies'
p108
S'study'
p109
S'NNS'
p110
S'I-NP'
p111
g5
tp112
a(S'were'
p113
S'be'
p114
S'VBD'
p115
S'B-VP'
p116
g5
tp117
a(S'undertaken'
p118
S'undertake'
p119
S'VBN'
p120
S'I-VP'
p121
g5
tp122
a(S'in'
p123
S'in'
p124
S'IN'
p125
S'B-PP'
p126
g5
tp127
a(S'127'
p128
S'127'
p129
S'CD'
p130
S'B-NP'
p131
g5
tp132
a(S'children'
p133
S'child'
p134
S'NNS'
p135
S'I-NP'
p136
g5
tp137
a(S'undergoing'
p138
S'undergo'
p139
S'VBG'
p140
S'B-VP'
p141
g5
tp142
a(S'treatment'
p143
S'treatment'
p144
S'NN'
p145
S'B-NP'
p146
g5
tp147
a(S'for'
p148
S'for'
p149
S'IN'
p150
S'B-PP'
p151
g5
tp152
a(S'childhood'
p153
S'childhood'
p154
S'NN'
p155
S'B-NP'
p156
g5
tp157
a(S'non-T'
p158
S'non-T'
p159
S'JJ'
p160
S'I-NP'
p161
g5
tp162
a(S'acute'
p163
S'acute'
p164
S'JJ'
p165
S'I-NP'
p166
g5
tp167
a(S'lymphoblastic'
p168
S'lymphoblastic'
p169
S'JJ'
p170
S'I-NP'
p171
g5
tp172
a(S'leukaemia'
p173
S'leukaemia'
p174
S'NN'
p175
S'I-NP'
p176
g5
tp177
a(g93
g93
g93
g5
g5
tp178
a(S'ALL'
p179
S'ALL'
p180
S'NN'
p181
S'B-NP'
p182
g5
tp183
a(g101
g101
g101
g5
g5
tp184
a(S'to'
p185
S'to'
p186
S'TO'
p187
S'B-VP'
p188
g5
tp189
a(S'determine'
p190
S'determine'
p191
S'VB'
p192
S'I-VP'
p193
g5
tp194
a(S'whether'
p195
S'whether'
p196
S'IN'
p197
S'B-SBAR'
p198
g5
tp199
a(S'serum'
p200
S'serum'
p201
S'NN'
p202
S'B-NP'
p203
g5
tp204
a(S'drug'
p205
S'drug'
p206
S'NN'
p207
S'I-NP'
p208
g5
tp209
a(S'concentration'
p210
S'concentration'
p211
S'NN'
p212
S'I-NP'
p213
g5
tp214
a(S','
p215
g215
g215
g5
g5
tp216
a(S'clearance'
p217
S'clearance'
p218
S'NN'
p219
S'B-NP'
p220
g5
tp221
a(S'and'
p222
S'and'
p223
S'CC'
p224
S'I-NP'
p225
g5
tp226
a(S'dosage'
p227
S'dosage'
p228
S'NN'
p229
S'I-NP'
p230
g5
tp231
a(S'affect'
p232
S'affect'
p233
S'VBP'
p234
S'B-VP'
p235
g5
tp236
a(S'event'
p237
S'event'
p238
S'NN'
p239
S'B-NP'
p240
g5
tp241
a(S'free'
p242
S'free'
p243
S'JJ'
p244
S'I-NP'
p245
g5
tp246
a(S'survival'
p247
S'survival'
p248
S'NN'
p249
S'I-NP'
p250
g5
tp251
a(g93
g93
g93
g5
g5
tp252
a(S'EFS'
p253
S'EFS'
p254
S'NN'
p255
S'B-NP'
p256
S'B-protein'
p257
tp258
a(g101
g101
g101
g5
g5
tp259
a(g81
g81
g81
g5
g5
tp260
a(S'Higher'
p261
S'High'
p262
S'JJR'
p263
S'B-NP'
p264
g5
tp265
a(S'serum'
p266
S'serum'
p267
S'NN'
p268
S'I-NP'
p269
g5
tp270
a(S'concentration'
p271
S'concentration'
p272
S'NN'
p273
S'I-NP'
p274
g5
tp275
a(S'and'
p276
S'and'
p277
S'CC'
p278
S'I-NP'
p279
g5
tp280
a(S'area'
p281
S'area'
p282
S'NN'
p283
S'I-NP'
p284
g5
tp285
a(S'under'
p286
S'under'
p287
S'IN'
p288
S'B-PP'
p289
g5
tp290
a(S'the'
p291
S'the'
p292
S'DT'
p293
S'B-NP'
p294
g5
tp295
a(S'plasma'
p296
S'plasma'
p297
S'NN'
p298
S'I-NP'
p299
g5
tp300
a(S'concentration'
p301
S'concentration'
p302
S'NN'
p303
S'I-NP'
p304
g5
tp305
a(S'curve'
p306
S'curve'
p307
S'NN'
p308
S'I-NP'
p309
g5
tp310
a(g93
g93
g93
g5
g5
tp311
a(S'AUC'
p312
S'AUC'
p313
S'NN'
p314
S'B-NP'
p315
g5
tp316
a(g101
g101
g101
g5
g5
tp317
a(S'were'
p318
S'be'
p319
S'VBD'
p320
S'B-VP'
p321
g5
tp322
a(S'not'
p323
S'not'
p324
S'RB'
p325
S'I-VP'
p326
g5
tp327
a(S'associated'
p328
S'associate'
p329
S'VBN'
p330
S'I-VP'
p331
g5
tp332
a(S'with'
p333
S'with'
p334
S'IN'
p335
S'B-PP'
p336
g5
tp337
a(S'an'
p338
S'an'
p339
S'DT'
p340
S'B-NP'
p341
g5
tp342
a(S'improved'
p343
S'improve'
p344
S'VBN'
p345
S'I-NP'
p346
g5
tp347
a(S'EFS.'
p348
S'EFS.'
p349
S'NNP'
p350
S'I-NP'
p351
g5
tp352
a(S'Methotrexate'
p353
S'Methotrexate'
p354
S'NNP'
p355
S'I-NP'
p356
g5
tp357
a(S'clearance'
p358
S'clearance'
p359
S'NN'
p360
S'I-NP'
p361
g5
tp362
a(S'was'
p363
S'be'
p364
S'VBD'
p365
S'B-VP'
p366
g5
tp367
a(S'not'
p368
S'not'
p369
S'RB'
p370
S'I-VP'
p371
g5
tp372
a(S'found'
p373
S'find'
p374
S'VBN'
p375
S'I-VP'
p376
g5
tp377
a(S'to'
p378
S'to'
p379
S'TO'
p380
S'I-VP'
p381
g5
tp382
a(S'be'
p383
S'be'
p384
S'VB'
p385
S'I-VP'
p386
g5
tp387
a(S'of'
p388
S'of'
p389
S'IN'
p390
S'B-PP'
p391
g5
tp392
a(S'prognostic'
p393
S'prognostic'
p394
S'JJ'
p395
S'B-NP'
p396
g5
tp397
a(S'significance.'
p398
S'significance.'
p399
S'NN'
p400
S'I-NP'
p401
g5
tp402
a(S'Patients'
p403
S'Patient'
p404
S'NNS'
p405
S'I-NP'
p406
g5
tp407
a(S'who'
p408
S'who'
p409
S'WP'
p410
S'B-NP'
p411
g5
tp412
a(S'tolerated'
p413
S'tolerate'
p414
S'VBD'
p415
S'B-VP'
p416
g5
tp417
a(S'only'
p418
S'only'
p419
S'RB'
p420
S'B-NP'
p421
g5
tp422
a(S'low'
p423
S'low'
p424
S'JJ'
p425
S'I-NP'
p426
g5
tp427
a(S'6-mercaptopurine'
p428
S'6-mercaptopurine'
p429
S'NN'
p430
S'I-NP'
p431
g5
tp432
a(g93
g93
g93
g5
g5
tp433
a(S'6-MP'
p434
S'6-MP'
p435
S'NN'
p436
S'B-NP'
p437
g5
tp438
a(g101
g101
g101
g5
g5
tp439
a(S'doses'
p440
S'dose'
p441
S'NNS'
p442
S'B-NP'
p443
g5
tp444
a(S'because'
p445
S'because'
p446
S'IN'
p447
S'B-PP'
p448
g5
tp449
a(S'of'
p450
S'of'
p451
S'IN'
p452
S'I-PP'
p453
g5
tp454
a(S'neutropaenia'
p455
S'neutropaenia'
p456
S'NN'
p457
S'B-NP'
p458
g5
tp459
a(S'and'
p460
S'and'
p461
S'CC'
p462
g5
g5
tp463
a(S'those'
p464
S'those'
p465
S'DT'
p466
S'B-NP'
p467
g5
tp468
a(S'who'
p469
S'who'
p470
S'WP'
p471
S'B-NP'
p472
g5
tp473
a(S'randomly'
p474
S'randomly'
p475
S'RB'
p476
S'B-ADVP'
p477
g5
tp478
a(S'were'
p479
S'be'
p480
S'VBD'
p481
S'B-VP'
p482
g5
tp483
a(S'prescribed'
p484
S'prescribe'
p485
S'VBN'
p486
S'I-VP'
p487
g5
tp488
a(S'higher'
p489
S'high'
p490
S'JJR'
p491
S'B-NP'
p492
g5
tp493
a(S'doses'
p494
S'dose'
p495
S'NNS'
p496
S'I-NP'
p497
g5
tp498
a(S'of'
p499
S'of'
p500
S'IN'
p501
S'B-PP'
p502
g5
tp503
a(S'Mtx'
p504
S'Mtx'
p505
S'NN'
p506
S'B-NP'
p507
S'B-protein'
p508
tp509
a(S'had'
p510
S'have'
p511
S'VBD'
p512
S'B-VP'
p513
g5
tp514
a(S'a'
p515
g515
S'DT'
p516
S'B-NP'
p517
g5
tp518
a(S'lower'
p519
S'low'
p520
S'JJR'
p521
S'I-NP'
p522
g5
tp523
a(S'rate'
p524
S'rate'
p525
S'NN'
p526
S'I-NP'
p527
g5
tp528
a(S'of'
p529
S'of'
p530
S'IN'
p531
S'B-PP'
p532
g5
tp533
a(S'leukaemia'
p534
S'leukaemia'
p535
S'NN'
p536
S'B-NP'
p537
g5
tp538
a(S'relapse'
p539
S'relapse'
p540
S'NN'
p541
S'I-NP'
p542
g5
tp543
a(S'after'
p544
S'after'
p545
S'IN'
p546
S'B-PP'
p547
g5
tp548
a(S'the'
p549
S'the'
p550
S'DT'
p551
S'B-NP'
p552
g5
tp553
a(S'completion'
p554
S'completion'
p555
S'NN'
p556
S'I-NP'
p557
g5
tp558
a(S'of'
p559
S'of'
p560
S'IN'
p561
S'B-PP'
p562
g5
tp563
a(S'therapy.'
p564
S'therapy.'
p565
S'RB'
p566
S'B-NP'
p567
g5
tp568
a(S'This'
p569
S'This'
p570
S'DT'
p571
S'I-NP'
p572
g5
tp573
a(S'suggests'
p574
S'suggest'
p575
S'VBZ'
p576
S'B-VP'
p577
g5
tp578
a(S'that'
p579
S'that'
p580
S'IN'
p581
S'B-SBAR'
p582
g5
tp583
a(S'the'
p584
S'the'
p585
S'DT'
p586
S'B-NP'
p587
g5
tp588
a(S'use'
p589
S'use'
p590
S'NN'
p591
S'I-NP'
p592
g5
tp593
a(S'of'
p594
S'of'
p595
S'IN'
p596
S'B-PP'
p597
g5
tp598
a(S'maintenance'
p599
S'maintenance'
p600
S'NN'
p601
S'B-NP'
p602
g5
tp603
a(S'therapy'
p604
S'therapy'
p605
S'NN'
p606
S'I-NP'
p607
g5
tp608
a(S'in'
p609
S'in'
p610
S'IN'
p611
S'B-PP'
p612
g5
tp613
a(S'maximally'
p614
S'maximally'
p615
S'RB'
p616
S'B-NP'
p617
g5
tp618
a(S'tolerated'
p619
S'tolerate'
p620
S'VBN'
p621
S'I-NP'
p622
g5
tp623
a(S'doses'
p624
S'dose'
p625
S'NNS'
p626
S'I-NP'
p627
g5
tp628
a(S'may'
p629
S'may'
p630
S'MD'
p631
S'B-VP'
p632
g5
tp633
a(S'be'
p634
S'be'
p635
S'VB'
p636
S'I-VP'
p637
g5
tp638
a(S'associated'
p639
S'associate'
p640
S'VBN'
p641
S'I-VP'
p642
g5
tp643
a(S'with'
p644
S'with'
p645
S'IN'
p646
S'B-PP'
p647
g5
tp648
a(S'an'
p649
S'an'
p650
S'DT'
p651
S'B-NP'
p652
g5
tp653
a(S'increased'
p654
S'increase'
p655
S'VBN'
p656
S'I-NP'
p657
g5
tp658
a(S'survival'
p659
S'survival'
p660
S'NN'
p661
S'I-NP'
p662
g5
tp663
a(S'in'
p664
S'in'
p665
S'IN'
p666
S'B-PP'
p667
g5
tp668
a(S'childhood'
p669
S'childhood'
p670
S'NN'
p671
S'B-NP'
p672
g5
tp673
a(S'ALL'
p674
S'ALL'
p675
S'NN'
p676
S'I-NP'
p677
g5
tp678
a(g81
g81
g81
g5
g5
tp679
a.