(lp0
(S'Preoperative'
p1
S'Preoperative'
p2
S'JJ'
p3
S'B-NP'
p4
S'O'
p5
tp6
a(S'Local'
p7
S'Local'
p8
S'JJ'
p9
S'I-NP'
p10
g5
tp11
a(S'Administration'
p12
S'Administration'
p13
S'NN'
p14
S'I-NP'
p15
g5
tp16
a(S'of'
p17
S'of'
p18
S'IN'
p19
S'B-PP'
p20
g5
tp21
a(S'Morphine'
p22
S'Morphine'
p23
S'NN'
p24
S'B-NP'
p25
g5
tp26
a(S'as'
p27
S'as'
p28
S'IN'
p29
S'B-PP'
p30
g5
tp31
a(S'an'
p32
S'an'
p33
S'DT'
p34
S'B-NP'
p35
g5
tp36
a(S'Add-on'
p37
S'Add-on'
p38
S'JJ'
p39
S'I-NP'
p40
g5
tp41
a(S'Therapy'
p42
S'Therapy'
p43
S'NN'
p44
S'I-NP'
p45
g5
tp46
a(S'in'
p47
S'in'
p48
S'IN'
p49
S'B-PP'
p50
g5
tp51
a(S'Patients'
p52
S'Patient'
p53
S'NNS'
p54
S'B-NP'
p55
g5
tp56
a(S'Undergoing'
p57
S'Undergo'
p58
S'VBG'
p59
S'B-VP'
p60
g5
tp61
a(S'Surgical'
p62
S'Surgical'
p63
S'JJ'
p64
S'B-NP'
p65
g5
tp66
a(S'Removal'
p67
S'Removal'
p68
S'NN'
p69
S'I-NP'
p70
g5
tp71
a(S'of'
p72
S'of'
p73
S'IN'
p74
S'B-PP'
p75
g5
tp76
a(S'an'
p77
S'an'
p78
S'DT'
p79
S'B-NP'
p80
g5
tp81
a(S'Odontogenic'
p82
S'Odontogenic'
p83
S'NNP'
p84
S'I-NP'
p85
g5
tp86
a(S'Maxillary'
p87
S'Maxillary'
p88
S'NNP'
p89
S'I-NP'
p90
g5
tp91
a(S'Cyst.'
p92
S'Cyst.'
p93
S'NNP'
p94
S'I-NP'
p95
g5
tp96
a(S'A'
p97
g97
S'NNP'
p98
S'I-NP'
p99
g5
tp100
a(S'Randomized'
p101
S'Randomized'
p102
S'NNP'
p103
S'I-NP'
p104
g5
tp105
a(S','
p106
g106
g106
g5
g5
tp107
a(S'Double-Blind'
p108
S'Double-Blind'
p109
S'NNP'
p110
S'B-NP'
p111
g5
tp112
a(S'Pilot'
p113
S'Pilot'
p114
S'NNP'
p115
S'I-NP'
p116
g5
tp117
a(S'Study'
p118
S'Study'
p119
S'NNP'
p120
S'I-NP'
p121
g5
tp122
a(S'.'
p123
g123
g123
g5
g5
tp124
a(S'AIMS'
p125
S'AIMS'
p126
S'NNS'
p127
S'B-NP'
p128
g5
tp129
a(S'To'
p130
S'To'
p131
S'TO'
p132
S'B-VP'
p133
g5
tp134
a(S'evaluate'
p135
S'evaluate'
p136
S'VB'
p137
S'I-VP'
p138
g5
tp139
a(S'whether'
p140
S'whether'
p141
S'IN'
p142
S'B-SBAR'
p143
g5
tp144
a(S'a'
p145
g145
S'DT'
p146
S'B-NP'
p147
g5
tp148
a(S'combination'
p149
S'combination'
p150
S'NN'
p151
S'I-NP'
p152
g5
tp153
a(S'of'
p154
S'of'
p155
S'IN'
p156
S'B-PP'
p157
g5
tp158
a(S'locally'
p159
S'locally'
p160
S'RB'
p161
S'B-NP'
p162
g5
tp163
a(S'administered'
p164
S'administer'
p165
S'VBN'
p166
S'I-NP'
p167
g5
tp168
a(S'morphine'
p169
S'morphine'
p170
S'NN'
p171
S'I-NP'
p172
g5
tp173
a(S'('
p174
g174
g174
g5
g5
tp175
a(S'1'
p176
g176
S'CD'
p177
S'B-NP'
p178
g5
tp179
a(S'mg'
p180
S'mg'
p181
S'NN'
p182
S'I-NP'
p183
g5
tp184
a(S')'
p185
g185
g185
g5
g5
tp186
a(S'and'
p187
S'and'
p188
S'CC'
p189
g5
g5
tp190
a(S'lidocaine'
p191
S'lidocaine'
p192
S'NN'
p193
S'B-NP'
p194
g5
tp195
a(S'as'
p196
S'as'
p197
S'IN'
p198
S'B-PP'
p199
g5
tp200
a(S'part'
p201
S'part'
p202
S'NN'
p203
S'B-NP'
p204
g5
tp205
a(S'of'
p206
S'of'
p207
S'IN'
p208
S'B-PP'
p209
g5
tp210
a(g145
g145
S'DT'
p211
S'B-NP'
p212
g5
tp213
a(S'multimodal'
p214
S'multimodal'
p215
S'JJ'
p216
S'I-NP'
p217
g5
tp218
a(S'analgesic'
p219
S'analgesic'
p220
S'JJ'
p221
S'I-NP'
p222
g5
tp223
a(S'approach'
p224
S'approach'
p225
S'NN'
p226
S'I-NP'
p227
g5
tp228
a(S'is'
p229
S'be'
p230
S'VBZ'
p231
S'B-VP'
p232
g5
tp233
a(S'safe'
p234
S'safe'
p235
S'JJ'
p236
S'B-ADJP'
p237
g5
tp238
a(g106
g106
g106
g5
g5
tp239
a(S'and'
p240
S'and'
p241
S'CC'
p242
g5
g5
tp243
a(S'whether'
p244
S'whether'
p245
S'IN'
p246
S'B-SBAR'
p247
g5
tp248
a(S'it'
p249
S'it'
p250
S'PRP'
p251
S'B-NP'
p252
g5
tp253
a(S'improves'
p254
S'improve'
p255
S'VBZ'
p256
S'B-VP'
p257
g5
tp258
a(S'pain'
p259
S'pain'
p260
S'NN'
p261
S'B-NP'
p262
g5
tp263
a(S'control'
p264
S'control'
p265
S'NN'
p266
S'I-NP'
p267
g5
tp268
a(S'during'
p269
S'during'
p270
S'IN'
p271
S'B-PP'
p272
g5
tp273
a(S'the'
p274
S'the'
p275
S'DT'
p276
S'B-NP'
p277
g5
tp278
a(S'first'
p279
S'first'
p280
S'JJ'
p281
S'I-NP'
p282
g5
tp283
a(S'24'
p284
S'24'
p285
S'CD'
p286
S'I-NP'
p287
g5
tp288
a(S'hours'
p289
S'hour'
p290
S'NNS'
p291
S'I-NP'
p292
g5
tp293
a(S'after'
p294
S'after'
p295
S'IN'
p296
S'B-PP'
p297
g5
tp298
a(S'odontogenic'
p299
S'odontogenic'
p300
S'JJ'
p301
S'B-NP'
p302
g5
tp303
a(S'maxillary'
p304
S'maxillary'
p305
S'JJ'
p306
S'I-NP'
p307
g5
tp308
a(S'cyst'
p309
S'cyst'
p310
S'NN'
p311
S'I-NP'
p312
g5
tp313
a(S'removal'
p314
S'removal'
p315
S'NN'
p316
S'I-NP'
p317
g5
tp318
a(S'under'
p319
S'under'
p320
S'IN'
p321
S'B-PP'
p322
g5
tp323
a(S'general'
p324
S'general'
p325
S'JJ'
p326
S'B-NP'
p327
g5
tp328
a(S'anesthesia'
p329
S'anesthesia'
p330
S'NN'
p331
S'I-NP'
p332
g5
tp333
a(S'compared'
p334
S'compare'
p335
S'VBN'
p336
S'B-VP'
p337
g5
tp338
a(S'to'
p339
S'to'
p340
S'TO'
p341
S'B-PP'
p342
g5
tp343
a(S'local'
p344
S'local'
p345
S'JJ'
p346
S'B-NP'
p347
g5
tp348
a(S'lidocaine'
p349
S'lidocaine'
p350
S'NN'
p351
S'I-NP'
p352
g5
tp353
a(S'alone'
p354
S'alone'
p355
S'RB'
p356
S'B-ADVP'
p357
g5
tp358
a(g123
g123
g123
g5
g5
tp359
a(S'METHODS'
p360
S'METHODS'
p361
S'NNS'
p362
S'B-NP'
p363
g5
tp364
a(S'In'
p365
S'In'
p366
S'IN'
p367
S'B-PP'
p368
g5
tp369
a(g145
g145
S'DT'
p370
S'B-NP'
p371
g5
tp372
a(S'double-blind'
p373
S'double-blind'
p374
S'JJ'
p375
S'I-NP'
p376
g5
tp377
a(g106
g106
g106
S'I-NP'
p378
g5
tp379
a(S'sham-controlled'
p380
S'sham-controlled'
p381
S'JJ'
p382
S'I-NP'
p383
g5
tp384
a(g106
g106
g106
S'I-NP'
p385
g5
tp386
a(S'single-center'
p387
S'single-center'
p388
S'JJ'
p389
S'I-NP'
p390
g5
tp391
a(S'trial'
p392
S'trial'
p393
S'NN'
p394
S'I-NP'
p395
g5
tp396
a(g106
g106
g106
g5
g5
tp397
a(S'patients'
p398
S'patient'
p399
S'NNS'
p400
S'B-NP'
p401
g5
tp402
a(S'scheduled'
p403
S'schedule'
p404
S'VBN'
p405
S'B-VP'
p406
g5
tp407
a(S'for'
p408
S'for'
p409
S'IN'
p410
S'B-PP'
p411
g5
tp412
a(S'surgical'
p413
S'surgical'
p414
S'JJ'
p415
S'B-NP'
p416
g5
tp417
a(S'removal'
p418
S'removal'
p419
S'NN'
p420
S'I-NP'
p421
g5
tp422
a(S'of'
p423
S'of'
p424
S'IN'
p425
S'B-PP'
p426
g5
tp427
a(S'an'
p428
S'an'
p429
S'DT'
p430
S'B-NP'
p431
g5
tp432
a(S'odontogenic'
p433
S'odontogenic'
p434
S'JJ'
p435
S'I-NP'
p436
g5
tp437
a(S'maxillary'
p438
S'maxillary'
p439
S'JJ'
p440
S'I-NP'
p441
g5
tp442
a(S'cyst'
p443
S'cyst'
p444
S'NN'
p445
S'I-NP'
p446
g5
tp447
a(S'under'
p448
S'under'
p449
S'IN'
p450
S'B-PP'
p451
g5
tp452
a(S'general'
p453
S'general'
p454
S'JJ'
p455
S'B-NP'
p456
g5
tp457
a(S'anesthesia'
p458
S'anesthesia'
p459
S'NN'
p460
S'I-NP'
p461
g5
tp462
a(S'were'
p463
S'be'
p464
S'VBD'
p465
S'B-VP'
p466
g5
tp467
a(S'randomly'
p468
S'randomly'
p469
S'RB'
p470
S'I-VP'
p471
g5
tp472
a(S'assigned'
p473
S'assign'
p474
S'VBN'
p475
S'I-VP'
p476
g5
tp477
a(S'to'
p478
S'to'
p479
S'TO'
p480
S'I-VP'
p481
g5
tp482
a(S'receive'
p483
S'receive'
p484
S'VB'
p485
S'I-VP'
p486
g5
tp487
a(g145
g145
S'DT'
p488
S'B-NP'
p489
g5
tp490
a(S'local'
p491
S'local'
p492
S'JJ'
p493
S'I-NP'
p494
g5
tp495
a(S'injection'
p496
S'injection'
p497
S'NN'
p498
S'I-NP'
p499
g5
tp500
a(S'of'
p501
S'of'
p502
S'IN'
p503
S'B-PP'
p504
g5
tp505
a(S'lidocaine'
p506
S'lidocaine'
p507
S'NN'
p508
S'B-NP'
p509
g5
tp510
a(S'solution'
p511
S'solution'
p512
S'NN'
p513
S'I-NP'
p514
g5
tp515
a(S'with'
p516
S'with'
p517
S'IN'
p518
S'B-PP'
p519
g5
tp520
a(S'either'
p521
S'either'
p522
S'CC'
p523
S'B-NP'
p524
g5
tp525
a(g176
g176
S'CD'
p526
S'I-NP'
p527
g5
tp528
a(S'mg'
p529
S'mg'
p530
S'NN'
p531
S'I-NP'
p532
g5
tp533
a(S'of'
p534
S'of'
p535
S'IN'
p536
S'B-PP'
p537
g5
tp538
a(S'morphine'
p539
S'morphine'
p540
S'NN'
p541
S'B-NP'
p542
g5
tp543
a(g174
g174
g174
g5
g5
tp544
a(S'MLA'
p545
S'MLA'
p546
S'NN'
p547
S'B-NP'
p548
g5
tp549
a(S'group'
p550
S'group'
p551
S'NN'
p552
S'I-NP'
p553
g5
tp554
a(g185
g185
g185
g5
g5
tp555
a(S'or'
p556
S'or'
p557
S'CC'
p558
g5
g5
tp559
a(S'with'
p560
S'with'
p561
S'IN'
p562
S'B-PP'
p563
g5
tp564
a(S'no'
p565
S'no'
p566
S'DT'
p567
S'B-NP'
p568
g5
tp569
a(S'morphine'
p570
S'morphine'
p571
S'NN'
p572
S'I-NP'
p573
g5
tp574
a(g174
g174
g174
g5
g5
tp575
a(S'LA'
p576
S'LA'
p577
S'NN'
p578
S'B-NP'
p579
g5
tp580
a(S'group'
p581
S'group'
p582
S'NN'
p583
S'I-NP'
p584
g5
tp585
a(g185
g185
g185
g5
g5
tp586
a(g123
g123
g123
g5
g5
tp587
a(S'Pain'
p588
S'Pain'
p589
S'NNP'
p590
S'B-NP'
p591
g5
tp592
a(S'management'
p593
S'management'
p594
S'NN'
p595
S'I-NP'
p596
g5
tp597
a(S'included'
p598
S'include'
p599
S'VBD'
p600
S'B-VP'
p601
g5
tp602
a(S'intravenous'
p603
S'intravenous'
p604
S'JJ'
p605
S'B-NP'
p606
g5
tp607
a(S'acetaminophen'
p608
S'acetaminophen'
p609
S'NN'
p610
S'I-NP'
p611
g5
tp612
a(g174
g174
g174
g5
g5
tp613
a(g176
g176
S'CD'
p614
S'B-NP'
p615
g5
tp616
a(S'g'
p617
g617
S'NN'
p618
S'I-NP'
p619
g5
tp620
a(S'every'
p621
S'every'
p622
S'DT'
p623
S'B-NP'
p624
g5
tp625
a(S'6'
p626
g626
S'CD'
p627
S'I-NP'
p628
g5
tp629
a(S'hours'
p630
S'hour'
p631
S'NNS'
p632
S'I-NP'
p633
g5
tp634
a(g185
g185
g185
g5
g5
tp635
a(S'in'
p636
S'in'
p637
S'IN'
p638
S'B-PP'
p639
g5
tp640
a(S'all'
p641
S'all'
p642
S'DT'
p643
S'B-NP'
p644
g5
tp645
a(S'patients.'
p646
S'patients.'
p647
S'NNS'
p648
S'I-NP'
p649
g5
tp650
a(S'Upon'
p651
S'Upon'
p652
S'NNP'
p653
S'B-NP'
p654
g5
tp655
a(S'request'
p656
S'request'
p657
S'NN'
p658
S'I-NP'
p659
g5
tp660
a(g106
g106
g106
g5
g5
tp661
a(S'the'
p662
S'the'
p663
S'DT'
p664
S'B-NP'
p665
g5
tp666
a(S'patients'
p667
S'patient'
p668
S'NNS'
p669
S'I-NP'
p670
g5
tp671
a(S'could'
p672
S'could'
p673
S'MD'
p674
S'B-VP'
p675
g5
tp676
a(S'additionally'
p677
S'additionally'
p678
S'RB'
p679
S'I-VP'
p680
g5
tp681
a(S'receive'
p682
S'receive'
p683
S'VB'
p684
S'I-VP'
p685
g5
tp686
a(S'ketoprofen'
p687
S'ketoprofen'
p688
S'NN'
p689
S'B-NP'
p690
g5
tp691
a(g174
g174
g174
g5
g5
tp692
a(S'first-line'
p693
S'first-line'
p694
S'JJ'
p695
S'B-NP'
p696
g5
tp697
a(S'additional'
p698
S'additional'
p699
S'JJ'
p700
S'I-NP'
p701
g5
tp702
a(S'analgesia'
p703
S'analgesia'
p704
S'NN'
p705
S'I-NP'
p706
g5
tp707
a(g185
g185
g185
g5
g5
tp708
a(S'or'
p709
S'or'
p710
S'CC'
p711
g5
g5
tp712
a(S'tramadol'
p713
S'tramadol'
p714
S'NN'
p715
S'B-NP'
p716
g5
tp717
a(g174
g174
g174
g5
g5
tp718
a(S'second-line'
p719
S'second-line'
p720
S'JJ'
p721
S'B-NP'
p722
g5
tp723
a(S'additional'
p724
S'additional'
p725
S'JJ'
p726
S'I-NP'
p727
g5
tp728
a(S'analgesia'
p729
S'analgesia'
p730
S'NN'
p731
S'I-NP'
p732
g5
tp733
a(g185
g185
g185
g5
g5
tp734
a(g123
g123
g123
g5
g5
tp735
a(S'Pain'
p736
S'Pain'
p737
S'NN'
p738
S'B-NP'
p739
g5
tp740
a(S'intensity'
p741
S'intensity'
p742
S'NN'
p743
S'I-NP'
p744
g5
tp745
a(S'was'
p746
S'be'
p747
S'VBD'
p748
S'B-VP'
p749
g5
tp750
a(S'assessed'
p751
S'assess'
p752
S'VBN'
p753
S'I-VP'
p754
g5
tp755
a(S'using'
p756
S'use'
p757
S'VBG'
p758
S'B-VP'
p759
g5
tp760
a(g145
g145
S'DT'
p761
S'B-NP'
p762
g5
tp763
a(S'numeric'
p764
S'numeric'
p765
S'JJ'
p766
S'I-NP'
p767
g5
tp768
a(S'rating'
p769
S'rating'
p770
S'NN'
p771
S'I-NP'
p772
g5
tp773
a(S'scale.'
p774
S'scale.'
p775
S'NN'
p776
S'I-NP'
p777
g5
tp778
a(S'Primary'
p779
S'Primary'
p780
S'JJ'
p781
S'I-NP'
p782
g5
tp783
a(S'outcome'
p784
S'outcome'
p785
S'NN'
p786
S'I-NP'
p787
g5
tp788
a(S'measures'
p789
S'measure'
p790
S'NNS'
p791
S'I-NP'
p792
g5
tp793
a(S'were'
p794
S'be'
p795
S'VBD'
p796
S'B-VP'
p797
g5
tp798
a(g174
g174
g174
S'B-LST'
p799
g5
tp800
a(g176
g176
S'LS'
p801
S'I-LST'
p802
g5
tp803
a(g185
g185
g185
g5
g5
tp804
a(S'no'
p805
S'no'
p806
S'DT'
p807
S'B-NP'
p808
g5
tp809
a(S'need'
p810
S'need'
p811
S'NN'
p812
S'I-NP'
p813
g5
tp814
a(S'for'
p815
S'for'
p816
S'IN'
p817
S'B-PP'
p818
g5
tp819
a(S'any'
p820
S'any'
p821
S'DT'
p822
S'B-NP'
p823
g5
tp824
a(S'additional'
p825
S'additional'
p826
S'JJ'
p827
S'I-NP'
p828
g5
tp829
a(S'analgesic'
p830
S'analgesic'
p831
S'JJ'
p832
S'I-NP'
p833
g5
tp834
a(S'therapy'
p835
S'therapy'
p836
S'NN'
p837
S'I-NP'
p838
g5
tp839
a(S'and'
p840
S'and'
p841
S'CC'
p842
g5
g5
tp843
a(g174
g174
g174
S'B-LST'
p844
g5
tp845
a(S'2'
p846
g846
S'LS'
p847
S'I-LST'
p848
g5
tp849
a(g185
g185
g185
g5
g5
tp850
a(S'time'
p851
S'time'
p852
S'NN'
p853
S'B-NP'
p854
g5
tp855
a(S'to'
p856
S'to'
p857
S'TO'
p858
S'B-PP'
p859
g5
tp860
a(S'the'
p861
S'the'
p862
S'DT'
p863
S'B-NP'
p864
g5
tp865
a(S'first'
p866
S'first'
p867
S'JJ'
p868
S'I-NP'
p869
g5
tp870
a(S'rescue'
p871
S'rescue'
p872
S'NN'
p873
S'I-NP'
p874
g5
tp875
a(S'analgesic'
p876
S'analgesic'
p877
S'JJ'
p878
S'I-NP'
p879
g5
tp880
a(S'therapy'
p881
S'therapy'
p882
S'NN'
p883
S'I-NP'
p884
g5
tp885
a(S'during'
p886
S'during'
p887
S'IN'
p888
S'B-PP'
p889
g5
tp890
a(S'the'
p891
S'the'
p892
S'DT'
p893
S'B-NP'
p894
g5
tp895
a(S'first'
p896
S'first'
p897
S'JJ'
p898
S'I-NP'
p899
g5
tp900
a(S'24'
p901
S'24'
p902
S'CD'
p903
S'I-NP'
p904
g5
tp905
a(S'hours'
p906
S'hour'
p907
S'NNS'
p908
S'I-NP'
p909
g5
tp910
a(S'after'
p911
S'after'
p912
S'IN'
p913
S'B-PP'
p914
g5
tp915
a(S'the'
p916
S'the'
p917
S'DT'
p918
S'B-NP'
p919
g5
tp920
a(S'surgery'
p921
S'surgery'
p922
S'NN'
p923
S'I-NP'
p924
g5
tp925
a(g123
g123
g123
g5
g5
tp926
a(S'RESULTS'
p927
S'RESULTS'
p928
S'NNS'
p929
S'B-NP'
p930
g5
tp931
a(S'Of'
p932
S'Of'
p933
S'IN'
p934
S'B-PP'
p935
g5
tp936
a(S'48'
p937
S'48'
p938
S'CD'
p939
S'B-NP'
p940
g5
tp941
a(S'eligible'
p942
S'eligible'
p943
S'JJ'
p944
S'I-NP'
p945
g5
tp946
a(S'patients'
p947
S'patient'
p948
S'NNS'
p949
S'I-NP'
p950
g5
tp951
a(g106
g106
g106
g5
g5
tp952
a(S'24'
p953
S'24'
p954
S'CD'
p955
S'B-NP'
p956
g5
tp957
a(S'were'
p958
S'be'
p959
S'VBD'
p960
S'B-VP'
p961
g5
tp962
a(S'allocated'
p963
S'allocate'
p964
S'VBN'
p965
S'I-VP'
p966
g5
tp967
a(S'to'
p968
S'to'
p969
S'TO'
p970
S'B-PP'
p971
g5
tp972
a(S'the'
p973
S'the'
p974
S'DT'
p975
S'B-NP'
p976
g5
tp977
a(S'MLA'
p978
S'MLA'
p979
S'NN'
p980
S'I-NP'
p981
g5
tp982
a(S'group'
p983
S'group'
p984
S'NN'
p985
S'I-NP'
p986
g5
tp987
a(S'and'
p988
S'and'
p989
S'CC'
p990
g5
g5
tp991
a(S'24'
p992
S'24'
p993
S'CD'
p994
S'B-NP'
p995
g5
tp996
a(S'to'
p997
S'to'
p998
S'TO'
p999
S'B-PP'
p1000
g5
tp1001
a(S'the'
p1002
S'the'
p1003
S'DT'
p1004
S'B-NP'
p1005
g5
tp1006
a(S'LA'
p1007
S'LA'
p1008
S'NN'
p1009
S'I-NP'
p1010
g5
tp1011
a(S'group.'
p1012
S'group.'
p1013
S'NN'
p1014
S'I-NP'
p1015
g5
tp1016
a(S'The'
p1017
S'The'
p1018
S'DT'
p1019
S'B-NP'
p1020
g5
tp1021
a(S'necessity'
p1022
S'necessity'
p1023
S'NN'
p1024
S'I-NP'
p1025
g5
tp1026
a(S'of'
p1027
S'of'
p1028
S'IN'
p1029
S'B-PP'
p1030
g5
tp1031
a(S'additional'
p1032
S'additional'
p1033
S'JJ'
p1034
S'B-NP'
p1035
g5
tp1036
a(S'ketoprofen'
p1037
S'ketoprofen'
p1038
S'NN'
p1039
S'I-NP'
p1040
g5
tp1041
a(S'therapy'
p1042
S'therapy'
p1043
S'NN'
p1044
S'I-NP'
p1045
g5
tp1046
a(S'did'
p1047
S'do'
p1048
S'VBD'
p1049
S'B-VP'
p1050
g5
tp1051
a(S'not'
p1052
S'not'
p1053
S'RB'
p1054
S'I-VP'
p1055
g5
tp1056
a(S'differ'
p1057
S'differ'
p1058
S'VB'
p1059
S'I-VP'
p1060
g5
tp1061
a(S'significantly'
p1062
S'significantly'
p1063
S'RB'
p1064
S'B-ADVP'
p1065
g5
tp1066
a(S'between'
p1067
S'between'
p1068
S'IN'
p1069
S'B-PP'
p1070
g5
tp1071
a(S'the'
p1072
S'the'
p1073
S'DT'
p1074
S'B-NP'
p1075
g5
tp1076
a(S'groups'
p1077
S'group'
p1078
S'NNS'
p1079
S'I-NP'
p1080
g5
tp1081
a(g174
g174
g174
g5
g5
tp1082
a(S'25.0'
p1083
S'25.0'
p1084
S'CD'
p1085
S'B-NP'
p1086
g5
tp1087
a(S'%'
p1088
g1088
S'NN'
p1089
S'I-NP'
p1090
g5
tp1091
a(S'vs'
p1092
S'vs'
p1093
S'IN'
p1094
S'B-PP'
p1095
g5
tp1096
a(S'50.0'
p1097
S'50.0'
p1098
S'CD'
p1099
S'B-NP'
p1100
g5
tp1101
a(g1088
g1088
S'NN'
p1102
S'I-NP'
p1103
g5
tp1104
a(g106
g106
g106
g5
g5
tp1105
a(S'P=.074'
p1106
S'P=.074'
p1107
S'NN'
p1108
S'B-NP'
p1109
g5
tp1110
a(g185
g185
g185
g5
g5
tp1111
a(g123
g123
g123
g5
g5
tp1112
a(S'According'
p1113
S'Accord'
p1114
S'VBG'
p1115
S'B-VP'
p1116
g5
tp1117
a(S'to'
p1118
S'to'
p1119
S'TO'
p1120
S'B-PP'
p1121
g5
tp1122
a(S'the'
p1123
S'the'
p1124
S'DT'
p1125
S'B-NP'
p1126
g5
tp1127
a(S'Kaplan-Meier'
p1128
S'Kaplan-Meier'
p1129
S'NNP'
p1130
S'I-NP'
p1131
g5
tp1132
a(S'analysis'
p1133
S'analysis'
p1134
S'NN'
p1135
S'I-NP'
p1136
g5
tp1137
a(g106
g106
g106
g5
g5
tp1138
a(S'the'
p1139
S'the'
p1140
S'DT'
p1141
S'B-NP'
p1142
g5
tp1143
a(S'probability'
p1144
S'probability'
p1145
S'NN'
p1146
S'I-NP'
p1147
g5
tp1148
a(S'of'
p1149
S'of'
p1150
S'IN'
p1151
S'B-PP'
p1152
g5
tp1153
a(S'remaining'
p1154
S'remain'
p1155
S'VBG'
p1156
S'B-VP'
p1157
g5
tp1158
a(S'without'
p1159
S'without'
p1160
S'IN'
p1161
S'B-PP'
p1162
g5
tp1163
a(S'additional'
p1164
S'additional'
p1165
S'JJ'
p1166
S'B-NP'
p1167
g5
tp1168
a(S'analgesic'
p1169
S'analgesic'
p1170
S'JJ'
p1171
S'I-NP'
p1172
g5
tp1173
a(S'intervention'
p1174
S'intervention'
p1175
S'NN'
p1176
S'I-NP'
p1177
g5
tp1178
a(S'was'
p1179
S'be'
p1180
S'VBD'
p1181
S'B-VP'
p1182
g5
tp1183
a(S'significantly'
p1184
S'significantly'
p1185
S'RB'
p1186
S'B-ADJP'
p1187
g5
tp1188
a(S'higher'
p1189
S'high'
p1190
S'JJR'
p1191
S'I-ADJP'
p1192
g5
tp1193
a(S'in'
p1194
S'in'
p1195
S'IN'
p1196
S'B-PP'
p1197
g5
tp1198
a(S'the'
p1199
S'the'
p1200
S'DT'
p1201
S'B-NP'
p1202
g5
tp1203
a(S'MLA'
p1204
S'MLA'
p1205
S'NN'
p1206
S'I-NP'
p1207
g5
tp1208
a(S'group'
p1209
S'group'
p1210
S'NN'
p1211
S'I-NP'
p1212
g5
tp1213
a(g174
g174
g174
g5
g5
tp1214
a(S'log-rank'
p1215
S'log-rank'
p1216
S'JJ'
p1217
S'B-NP'
p1218
g5
tp1219
a(S'test'
p1220
S'test'
p1221
S'NN'
p1222
S'I-NP'
p1223
g5
tp1224
a(g106
g106
g106
g5
g5
tp1225
a(S'P=.040'
p1226
S'P=.040'
p1227
S'NN'
p1228
S'B-NP'
p1229
g5
tp1230
a(g185
g185
g185
g5
g5
tp1231
a(g106
g106
g106
g5
g5
tp1232
a(S'but'
p1233
S'but'
p1234
S'CC'
p1235
g5
g5
tp1236
a(S'there'
p1237
S'there'
p1238
S'EX'
p1239
S'B-NP'
p1240
g5
tp1241
a(S'were'
p1242
S'be'
p1243
S'VBD'
p1244
S'B-VP'
p1245
g5
tp1246
a(S'no'
p1247
S'no'
p1248
S'DT'
p1249
S'B-NP'
p1250
g5
tp1251
a(S'significant'
p1252
S'significant'
p1253
S'JJ'
p1254
S'I-NP'
p1255
g5
tp1256
a(g174
g174
g174
g5
g5
tp1257
a(S'P'
p1258
g1258
S'NN'
p1259
S'B-NP'
p1260
g5
tp1261
a(S'>'
p1262
g1262
S'JJR'
p1263
S'B-NP'
p1264
g5
tp1265
a(S'.05'
p1266
S'.05'
p1267
S'CD'
p1268
S'I-NP'
p1269
g5
tp1270
a(g185
g185
g185
g5
g5
tp1271
a(S'differences'
p1272
S'difference'
p1273
S'NNS'
p1274
S'B-NP'
p1275
g5
tp1276
a(S'in'
p1277
S'in'
p1278
S'IN'
p1279
S'B-PP'
p1280
g5
tp1281
a(S'overall'
p1282
S'overall'
p1283
S'JJ'
p1284
S'B-NP'
p1285
g5
tp1286
a(S'and'
p1287
S'and'
p1288
S'CC'
p1289
S'I-NP'
p1290
g5
tp1291
a(S'maximum'
p1292
S'maximum'
p1293
S'JJ'
p1294
S'I-NP'
p1295
g5
tp1296
a(S'pain'
p1297
S'pain'
p1298
S'NN'
p1299
S'I-NP'
p1300
g5
tp1301
a(S'severity'
p1302
S'severity'
p1303
S'NN'
p1304
S'I-NP'
p1305
g5
tp1306
a(S'between'
p1307
S'between'
p1308
S'IN'
p1309
S'B-PP'
p1310
g5
tp1311
a(S'the'
p1312
S'the'
p1313
S'DT'
p1314
S'B-NP'
p1315
g5
tp1316
a(S'two'
p1317
S'two'
p1318
S'CD'
p1319
S'I-NP'
p1320
g5
tp1321
a(S'groups.'
p1322
S'groups.'
p1323
S'NNS'
p1324
S'I-NP'
p1325
g5
tp1326
a(S'No'
p1327
S'No'
p1328
S'DT'
p1329
S'B-NP'
p1330
g5
tp1331
a(S'adverse'
p1332
S'adverse'
p1333
S'JJ'
p1334
S'I-NP'
p1335
g5
tp1336
a(S'effects'
p1337
S'effect'
p1338
S'NNS'
p1339
S'I-NP'
p1340
g5
tp1341
a(S'of'
p1342
S'of'
p1343
S'IN'
p1344
S'B-PP'
p1345
g5
tp1346
a(S'morphine'
p1347
S'morphine'
p1348
S'NN'
p1349
S'B-NP'
p1350
g5
tp1351
a(S'were'
p1352
S'be'
p1353
S'VBD'
p1354
S'B-VP'
p1355
g5
tp1356
a(S'recorded'
p1357
S'record'
p1358
S'VBN'
p1359
S'I-VP'
p1360
g5
tp1361
a(g123
g123
g123
g5
g5
tp1362
a(S'CONCLUSION'
p1363
S'CONCLUSION'
p1364
S'NN'
p1365
S'B-NP'
p1366
g5
tp1367
a(S'Within'
p1368
S'Within'
p1369
S'IN'
p1370
S'B-PP'
p1371
g5
tp1372
a(S'the'
p1373
S'the'
p1374
S'DT'
p1375
S'B-NP'
p1376
g5
tp1377
a(S'limitations'
p1378
S'limitation'
p1379
S'NNS'
p1380
S'I-NP'
p1381
g5
tp1382
a(S'of'
p1383
S'of'
p1384
S'IN'
p1385
S'B-PP'
p1386
g5
tp1387
a(S'this'
p1388
S'this'
p1389
S'DT'
p1390
S'B-NP'
p1391
g5
tp1392
a(S'study'
p1393
S'study'
p1394
S'NN'
p1395
S'I-NP'
p1396
g5
tp1397
a(g106
g106
g106
g5
g5
tp1398
a(S'local'
p1399
S'local'
p1400
S'JJ'
p1401
S'B-NP'
p1402
g5
tp1403
a(S'administration'
p1404
S'administration'
p1405
S'NN'
p1406
S'I-NP'
p1407
g5
tp1408
a(S'of'
p1409
S'of'
p1410
S'IN'
p1411
S'B-PP'
p1412
g5
tp1413
a(g176
g176
S'CD'
p1414
S'B-NP'
p1415
g5
tp1416
a(S'mg'
p1417
S'mg'
p1418
S'NN'
p1419
S'I-NP'
p1420
g5
tp1421
a(S'of'
p1422
S'of'
p1423
S'IN'
p1424
S'B-PP'
p1425
g5
tp1426
a(S'morphine'
p1427
S'morphine'
p1428
S'NN'
p1429
S'B-NP'
p1430
g5
tp1431
a(S'prior'
p1432
S'prior'
p1433
S'JJ'
p1434
S'B-ADJP'
p1435
g5
tp1436
a(S'to'
p1437
S'to'
p1438
S'TO'
p1439
S'B-PP'
p1440
g5
tp1441
a(S'the'
p1442
S'the'
p1443
S'DT'
p1444
S'B-NP'
p1445
g5
tp1446
a(S'surgical'
p1447
S'surgical'
p1448
S'JJ'
p1449
S'I-NP'
p1450
g5
tp1451
a(S'removal'
p1452
S'removal'
p1453
S'NN'
p1454
S'I-NP'
p1455
g5
tp1456
a(S'of'
p1457
S'of'
p1458
S'IN'
p1459
S'B-PP'
p1460
g5
tp1461
a(S'an'
p1462
S'an'
p1463
S'DT'
p1464
S'B-NP'
p1465
g5
tp1466
a(S'odontogenic'
p1467
S'odontogenic'
p1468
S'JJ'
p1469
S'I-NP'
p1470
g5
tp1471
a(S'maxillary'
p1472
S'maxillary'
p1473
S'JJ'
p1474
S'I-NP'
p1475
g5
tp1476
a(S'cyst'
p1477
S'cyst'
p1478
S'NN'
p1479
S'I-NP'
p1480
g5
tp1481
a(S'was'
p1482
S'be'
p1483
S'VBD'
p1484
S'B-VP'
p1485
g5
tp1486
a(S'safe'
p1487
S'safe'
p1488
S'JJ'
p1489
S'B-ADJP'
p1490
g5
tp1491
a(g106
g106
g106
g5
g5
tp1492
a(S'but'
p1493
S'but'
p1494
S'CC'
p1495
g5
g5
tp1496
a(S'it'
p1497
S'it'
p1498
S'PRP'
p1499
S'B-NP'
p1500
g5
tp1501
a(S'did'
p1502
S'do'
p1503
S'VBD'
p1504
S'B-VP'
p1505
g5
tp1506
a(S'not'
p1507
S'not'
p1508
S'RB'
p1509
S'I-VP'
p1510
g5
tp1511
a(S'prove'
p1512
S'prove'
p1513
S'VB'
p1514
S'I-VP'
p1515
g5
tp1516
a(S'to'
p1517
S'to'
p1518
S'TO'
p1519
S'I-VP'
p1520
g5
tp1521
a(S'be'
p1522
S'be'
p1523
S'VB'
p1524
S'I-VP'
p1525
g5
tp1526
a(S'very'
p1527
S'very'
p1528
S'RB'
p1529
S'B-ADJP'
p1530
g5
tp1531
a(S'effective'
p1532
S'effective'
p1533
S'JJ'
p1534
S'I-ADJP'
p1535
g5
tp1536
a(S'as'
p1537
S'as'
p1538
S'IN'
p1539
S'B-PP'
p1540
g5
tp1541
a(S'an'
p1542
S'an'
p1543
S'DT'
p1544
S'B-NP'
p1545
g5
tp1546
a(S'add-on'
p1547
S'add-on'
p1548
S'JJ'
p1549
S'I-NP'
p1550
g5
tp1551
a(S'therapy'
p1552
S'therapy'
p1553
S'NN'
p1554
S'I-NP'
p1555
g5
tp1556
a(S'for'
p1557
S'for'
p1558
S'IN'
p1559
S'B-PP'
p1560
g5
tp1561
a(S'postoperative'
p1562
S'postoperative'
p1563
S'JJ'
p1564
S'B-NP'
p1565
g5
tp1566
a(S'pain'
p1567
S'pain'
p1568
S'NN'
p1569
S'I-NP'
p1570
g5
tp1571
a(S'control'
p1572
S'control'
p1573
S'NN'
p1574
S'I-NP'
p1575
g5
tp1576
a(g123
g123
g123
g5
g5
tp1577
a.