(lp0
(S'Codeine/acetaminophen'
p1
S'Codeine/acetaminophen'
p2
S'NN'
p3
S'B-NP'
p4
S'O'
p5
tp6
a(S'and'
p7
S'and'
p8
S'CC'
p9
S'I-NP'
p10
g5
tp11
a(S'hydrocodone/acetaminophen'
p12
S'hydrocodone/acetaminophen'
p13
S'NN'
p14
S'I-NP'
p15
g5
tp16
a(S'combination'
p17
S'combination'
p18
S'NN'
p19
S'I-NP'
p20
g5
tp21
a(S'tablets'
p22
S'tablet'
p23
S'NNS'
p24
S'I-NP'
p25
g5
tp26
a(S'for'
p27
S'for'
p28
S'IN'
p29
S'B-PP'
p30
g5
tp31
a(S'the'
p32
S'the'
p33
S'DT'
p34
S'B-NP'
p35
g5
tp36
a(S'management'
p37
S'management'
p38
S'NN'
p39
S'I-NP'
p40
g5
tp41
a(S'of'
p42
S'of'
p43
S'IN'
p44
S'B-PP'
p45
g5
tp46
a(S'chronic'
p47
S'chronic'
p48
S'JJ'
p49
S'B-NP'
p50
g5
tp51
a(S'cancer'
p52
S'cancer'
p53
S'NN'
p54
S'I-NP'
p55
g5
tp56
a(S'pain'
p57
S'pain'
p58
S'NN'
p59
S'I-NP'
p60
g5
tp61
a(S'in'
p62
S'in'
p63
S'IN'
p64
S'B-PP'
p65
g5
tp66
a(S'adults'
p67
S'adult'
p68
S'NNS'
p69
S'B-NP'
p70
g5
tp71
a(S':'
p72
g72
g72
g5
g5
tp73
a(S'a'
p74
g74
S'DT'
p75
S'B-NP'
p76
g5
tp77
a(S'23-day'
p78
S'23-day'
p79
S'JJ'
p80
S'I-NP'
p81
g5
tp82
a(S','
p83
g83
g83
S'I-NP'
p84
g5
tp85
a(S'prospective'
p86
S'prospective'
p87
S'JJ'
p88
S'I-NP'
p89
g5
tp90
a(g83
g83
g83
S'I-NP'
p91
g5
tp92
a(S'double-blind'
p93
S'double-blind'
p94
S'JJ'
p95
S'I-NP'
p96
g5
tp97
a(g83
g83
g83
S'I-NP'
p98
g5
tp99
a(S'randomized'
p100
S'randomize'
p101
S'VBN'
p102
S'I-NP'
p103
g5
tp104
a(g83
g83
g83
S'I-NP'
p105
g5
tp106
a(S'parallel-group'
p107
S'parallel-group'
p108
S'JJ'
p109
S'I-NP'
p110
g5
tp111
a(S'study'
p112
S'study'
p113
S'NN'
p114
S'I-NP'
p115
g5
tp116
a(S'.'
p117
g117
g117
g5
g5
tp118
a(S'BACKGROUND'
p119
S'BACKGROUND'
p120
S'NN'
p121
S'B-NP'
p122
g5
tp123
a(S'Analgesics'
p124
S'Analgesic'
p125
S'NNS'
p126
S'I-NP'
p127
g5
tp128
a(S'are'
p129
S'be'
p130
S'VBP'
p131
S'B-VP'
p132
g5
tp133
a(S'an'
p134
S'an'
p135
S'DT'
p136
S'B-NP'
p137
g5
tp138
a(S'essential'
p139
S'essential'
p140
S'JJ'
p141
S'I-NP'
p142
g5
tp143
a(S'component'
p144
S'component'
p145
S'NN'
p146
S'I-NP'
p147
g5
tp148
a(S'of'
p149
S'of'
p150
S'IN'
p151
S'B-PP'
p152
g5
tp153
a(S'the'
p154
S'the'
p155
S'DT'
p156
S'B-NP'
p157
g5
tp158
a(S'treatment'
p159
S'treatment'
p160
S'NN'
p161
S'I-NP'
p162
g5
tp163
a(S'of'
p164
S'of'
p165
S'IN'
p166
S'B-PP'
p167
g5
tp168
a(S'cancer-associated'
p169
S'cancer-associated'
p170
S'JJ'
p171
S'B-NP'
p172
g5
tp173
a(S'pain.'
p174
S'pain.'
p175
S'NN'
p176
S'I-NP'
p177
g5
tp178
a(S'Pharmacologic'
p179
S'Pharmacologic'
p180
S'JJ'
p181
S'I-NP'
p182
g5
tp183
a(S'treatment'
p184
S'treatment'
p185
S'NN'
p186
S'I-NP'
p187
g5
tp188
a(S'is'
p189
S'be'
p190
S'VBZ'
p191
S'B-VP'
p192
g5
tp193
a(S'usually'
p194
S'usually'
p195
S'RB'
p196
S'I-VP'
p197
g5
tp198
a(S'begun'
p199
S'begin'
p200
S'VBN'
p201
S'I-VP'
p202
g5
tp203
a(S'with'
p204
S'with'
p205
S'IN'
p206
S'B-PP'
p207
g5
tp208
a(S'nonopioid'
p209
S'nonopioid'
p210
S'JJ'
p211
S'B-NP'
p212
g5
tp213
a(S'analgesics'
p214
S'analgesic'
p215
S'NNS'
p216
S'I-NP'
p217
g5
tp218
a(g83
g83
g83
g5
g5
tp219
a(S'most'
p220
S'most'
p221
S'RBS'
p222
S'B-ADVP'
p223
g5
tp224
a(S'frequently'
p225
S'frequently'
p226
S'RB'
p227
S'I-ADVP'
p228
g5
tp229
a(S'acetaminophen.'
p230
S'acetaminophen.'
p231
S'RB'
p232
S'I-ADVP'
p233
g5
tp234
a(S'If'
p235
S'If'
p236
S'IN'
p237
S'B-SBAR'
p238
g5
tp239
a(S'pain'
p240
S'pain'
p241
S'NN'
p242
S'B-NP'
p243
g5
tp244
a(S'relief'
p245
S'relief'
p246
S'NN'
p247
S'I-NP'
p248
g5
tp249
a(S'is'
p250
S'be'
p251
S'VBZ'
p252
S'B-VP'
p253
g5
tp254
a(S'not'
p255
S'not'
p256
S'RB'
p257
S'I-VP'
p258
g5
tp259
a(S'achieved'
p260
S'achieve'
p261
S'VBN'
p262
S'I-VP'
p263
g5
tp264
a(g83
g83
g83
g5
g5
tp265
a(S'the'
p266
S'the'
p267
S'DT'
p268
S'B-NP'
p269
g5
tp270
a(S'so-called'
p271
S'so-called'
p272
S'JJ'
p273
S'I-NP'
p274
g5
tp275
a(S'``'
p276
S'``'
p277
S'``'
p278
S'I-NP'
p279
g5
tp280
a(S'weak'
p281
S'weak'
p282
S'JJ'
p283
S'I-NP'
p284
g5
tp285
a(S"''"
p286
S"''"
p287
S"''"
p288
S'I-NP'
p289
g5
tp290
a(S'opioids'
p291
S'opioid'
p292
S'NNS'
p293
S'I-NP'
p294
g5
tp295
a(g83
g83
g83
g5
g5
tp296
a(S'such'
p297
S'such'
p298
S'JJ'
p299
S'B-PP'
p300
g5
tp301
a(S'as'
p302
S'as'
p303
S'IN'
p304
S'I-PP'
p305
g5
tp306
a(S'codeine'
p307
S'codeine'
p308
S'NN'
p309
S'B-NP'
p310
g5
tp311
a(S'and'
p312
S'and'
p313
S'CC'
p314
S'I-NP'
p315
g5
tp316
a(S'hydrocodone'
p317
S'hydrocodone'
p318
S'NN'
p319
S'I-NP'
p320
g5
tp321
a(g83
g83
g83
g5
g5
tp322
a(S'may'
p323
S'may'
p324
S'MD'
p325
S'B-VP'
p326
g5
tp327
a(S'be'
p328
S'be'
p329
S'VB'
p330
S'I-VP'
p331
g5
tp332
a(S'used'
p333
S'use'
p334
S'VBN'
p335
S'I-VP'
p336
g5
tp337
a(S'in'
p338
S'in'
p339
S'IN'
p340
S'B-PP'
p341
g5
tp342
a(S'combination'
p343
S'combination'
p344
S'NN'
p345
S'B-NP'
p346
g5
tp347
a(S'with'
p348
S'with'
p349
S'IN'
p350
S'B-PP'
p351
g5
tp352
a(S'acetaminophen.'
p353
S'acetaminophen.'
p354
S'NN'
p355
S'B-NP'
p356
g5
tp357
a(S'Adverse'
p358
S'Adverse'
p359
S'JJ'
p360
S'I-NP'
p361
g5
tp362
a(S'effects'
p363
S'effect'
p364
S'NNS'
p365
S'I-NP'
p366
g5
tp367
a(S'('
p368
g368
g368
g5
g5
tp369
a(S'AEs'
p370
S'AE'
p371
S'NNS'
p372
S'B-NP'
p373
g5
tp374
a(S')'
p375
g375
g375
g5
g5
tp376
a(S'of'
p377
S'of'
p378
S'IN'
p379
S'B-PP'
p380
g5
tp381
a(S'the'
p382
S'the'
p383
S'DT'
p384
S'B-NP'
p385
g5
tp386
a(S'opioids'
p387
S'opioid'
p388
S'NNS'
p389
S'I-NP'
p390
g5
tp391
a(S'include'
p392
S'include'
p393
S'VBP'
p394
S'B-VP'
p395
g5
tp396
a(S'constipation'
p397
S'constipation'
p398
S'NN'
p399
S'B-NP'
p400
g5
tp401
a(g83
g83
g83
g5
g5
tp402
a(S'somnolence'
p403
S'somnolence'
p404
S'NN'
p405
S'B-NP'
p406
g5
tp407
a(g83
g83
g83
g5
g5
tp408
a(S'nausea'
p409
S'nausea'
p410
S'NN'
p411
S'B-NP'
p412
g5
tp413
a(g83
g83
g83
g5
g5
tp414
a(S'and'
p415
S'and'
p416
S'CC'
p417
g5
g5
tp418
a(S'vomiting.'
p419
S'vomiting.'
p420
S'NN'
p421
S'B-NP'
p422
g5
tp423
a(S'Based'
p424
S'Base'
p425
S'VBN'
p426
S'B-VP'
p427
g5
tp428
a(S'on'
p429
S'on'
p430
S'IN'
p431
S'B-PP'
p432
g5
tp433
a(S'the'
p434
S'the'
p435
S'DT'
p436
S'B-NP'
p437
g5
tp438
a(S'results'
p439
S'result'
p440
S'NNS'
p441
S'I-NP'
p442
g5
tp443
a(S'of'
p444
S'of'
p445
S'IN'
p446
S'B-PP'
p447
g5
tp448
a(g74
g74
S'DT'
p449
S'B-NP'
p450
g5
tp451
a(S'literature'
p452
S'literature'
p453
S'NN'
p454
S'I-NP'
p455
g5
tp456
a(S'search'
p457
S'search'
p458
S'NN'
p459
S'I-NP'
p460
g5
tp461
a(g83
g83
g83
g5
g5
tp462
a(S'data'
p463
S'datum'
p464
S'NNS'
p465
S'B-NP'
p466
g5
tp467
a(S'comparing'
p468
S'compare'
p469
S'VBG'
p470
S'B-VP'
p471
g5
tp472
a(S'the'
p473
S'the'
p474
S'DT'
p475
S'B-NP'
p476
g5
tp477
a(S'effects'
p478
S'effect'
p479
S'NNS'
p480
S'I-NP'
p481
g5
tp482
a(S'of'
p483
S'of'
p484
S'IN'
p485
S'B-PP'
p486
g5
tp487
a(S'the'
p488
S'the'
p489
S'DT'
p490
S'B-NP'
p491
g5
tp492
a(S'opioids'
p493
S'opioid'
p494
S'NNS'
p495
S'I-NP'
p496
g5
tp497
a(S'are'
p498
S'be'
p499
S'VBP'
p500
S'B-VP'
p501
g5
tp502
a(S'lacking'
p503
S'lack'
p504
S'VBG'
p505
S'I-VP'
p506
g5
tp507
a(g117
g117
g117
g5
g5
tp508
a(S'OBJECTIVE'
p509
S'OBJECTIVE'
p510
S'NN'
p511
S'B-NP'
p512
g5
tp513
a(S'The'
p514
S'The'
p515
S'DT'
p516
S'B-NP'
p517
g5
tp518
a(S'purpose'
p519
S'purpose'
p520
S'NN'
p521
S'I-NP'
p522
g5
tp523
a(S'of'
p524
S'of'
p525
S'IN'
p526
S'B-PP'
p527
g5
tp528
a(S'this'
p529
S'this'
p530
S'DT'
p531
S'B-NP'
p532
g5
tp533
a(S'study'
p534
S'study'
p535
S'NN'
p536
S'I-NP'
p537
g5
tp538
a(S'was'
p539
S'be'
p540
S'VBD'
p541
S'B-VP'
p542
g5
tp543
a(S'to'
p544
S'to'
p545
S'TO'
p546
S'B-VP'
p547
g5
tp548
a(S'compare'
p549
S'compare'
p550
S'VB'
p551
S'I-VP'
p552
g5
tp553
a(S'the'
p554
S'the'
p555
S'DT'
p556
S'B-NP'
p557
g5
tp558
a(S'analgesic'
p559
S'analgesic'
p560
S'JJ'
p561
S'I-NP'
p562
g5
tp563
a(S'efficacy'
p564
S'efficacy'
p565
S'NN'
p566
S'I-NP'
p567
g5
tp568
a(S'and'
p569
S'and'
p570
S'CC'
p571
S'I-NP'
p572
g5
tp573
a(S'tolerability'
p574
S'tolerability'
p575
S'NN'
p576
S'I-NP'
p577
g5
tp578
a(S'of'
p579
S'of'
p580
S'IN'
p581
S'B-PP'
p582
g5
tp583
a(S'codeine'
p584
S'codeine'
p585
S'NN'
p586
S'B-NP'
p587
g5
tp588
a(S'phosphate'
p589
S'phosphate'
p590
S'NN'
p591
S'I-NP'
p592
g5
tp593
a(S'versus'
p594
S'versus'
p595
S'IN'
p596
S'B-PP'
p597
g5
tp598
a(S'hydrocodone'
p599
S'hydrocodone'
p600
S'NN'
p601
S'B-NP'
p602
g5
tp603
a(S'bitartrate'
p604
S'bitartrate'
p605
S'NN'
p606
S'I-NP'
p607
g5
tp608
a(S'in'
p609
S'in'
p610
S'IN'
p611
S'B-PP'
p612
g5
tp613
a(S'combination'
p614
S'combination'
p615
S'NN'
p616
S'B-NP'
p617
g5
tp618
a(S'with'
p619
S'with'
p620
S'IN'
p621
S'B-PP'
p622
g5
tp623
a(S'acetaminophen'
p624
S'acetaminophen'
p625
S'NN'
p626
S'B-NP'
p627
g5
tp628
a(S'in'
p629
S'in'
p630
S'IN'
p631
S'B-PP'
p632
g5
tp633
a(S'the'
p634
S'the'
p635
S'DT'
p636
S'B-NP'
p637
g5
tp638
a(S'relief'
p639
S'relief'
p640
S'NN'
p641
S'I-NP'
p642
g5
tp643
a(S'of'
p644
S'of'
p645
S'IN'
p646
S'B-PP'
p647
g5
tp648
a(S'cancer-related'
p649
S'cancer-related'
p650
S'JJ'
p651
S'B-NP'
p652
S'B-protein'
p653
tp654
a(S'pain'
p655
S'pain'
p656
S'NN'
p657
S'I-NP'
p658
S'I-protein'
p659
tp660
a(g117
g117
g117
g5
g5
tp661
a(S'METHODS'
p662
S'METHODS'
p663
S'NNS'
p664
S'B-NP'
p665
g5
tp666
a(S'This'
p667
S'This'
p668
S'DT'
p669
S'B-NP'
p670
g5
tp671
a(S'23-day'
p672
S'23-day'
p673
S'JJ'
p674
S'I-NP'
p675
g5
tp676
a(g83
g83
g83
S'I-NP'
p677
g5
tp678
a(S'prospective'
p679
S'prospective'
p680
S'JJ'
p681
S'I-NP'
p682
g5
tp683
a(g83
g83
g83
S'I-NP'
p684
g5
tp685
a(S'double-blind'
p686
S'double-blind'
p687
S'JJ'
p688
S'I-NP'
p689
g5
tp690
a(g83
g83
g83
S'I-NP'
p691
g5
tp692
a(S'randomized'
p693
S'randomize'
p694
S'VBN'
p695
S'I-NP'
p696
g5
tp697
a(g83
g83
g83
S'I-NP'
p698
g5
tp699
a(S'parallel-group'
p700
S'parallel-group'
p701
S'JJ'
p702
S'I-NP'
p703
g5
tp704
a(S'study'
p705
S'study'
p706
S'NN'
p707
S'I-NP'
p708
g5
tp709
a(S'was'
p710
S'be'
p711
S'VBD'
p712
S'B-VP'
p713
g5
tp714
a(S'conducted'
p715
S'conduct'
p716
S'VBN'
p717
S'I-VP'
p718
g5
tp719
a(S'at'
p720
S'at'
p721
S'IN'
p722
S'B-PP'
p723
g5
tp724
a(S'3'
p725
g725
S'CD'
p726
S'B-NP'
p727
g5
tp728
a(S'Colombian'
p729
S'Colombian'
p730
S'JJ'
p731
S'I-NP'
p732
g5
tp733
a(S'centers'
p734
S'center'
p735
S'NNS'
p736
S'I-NP'
p737
g5
tp738
a(g72
g72
g72
g5
g5
tp739
a(S'University'
p740
S'University'
p741
S'NNP'
p742
S'B-NP'
p743
g5
tp744
a(S'Libre'
p745
S'Libre'
p746
S'NNP'
p747
S'I-NP'
p748
g5
tp749
a(g83
g83
g83
S'I-NP'
p750
g5
tp751
a(S'Social'
p752
S'Social'
p753
S'NNP'
p754
S'I-NP'
p755
g5
tp756
a(S'Security'
p757
S'Security'
p758
S'NNP'
p759
S'I-NP'
p760
g5
tp761
a(S'Institute'
p762
S'Institute'
p763
S'NNP'
p764
S'I-NP'
p765
g5
tp766
a(g83
g83
g83
g5
g5
tp767
a(S'and'
p768
S'and'
p769
S'CC'
p770
g5
g5
tp771
a(S'General'
p772
S'General'
p773
S'NNP'
p774
S'B-NP'
p775
g5
tp776
a(S'Hospital'
p777
S'Hospital'
p778
S'NNP'
p779
S'I-NP'
p780
g5
tp781
a(S'of'
p782
S'of'
p783
S'IN'
p784
S'B-PP'
p785
g5
tp786
a(S'Medell\xc3\xadn'
p787
S'Medell\xc3\xadn'
p788
S'NNP'
p789
S'B-NP'
p790
g5
tp791
a(g83
g83
g83
g5
g5
tp792
a(S'Cali'
p793
S'Cali'
p794
S'NNP'
p795
S'B-NP'
p796
g5
tp797
a(g83
g83
g83
g5
g5
tp798
a(S'Colombia.'
p799
S'Colombia.'
p800
S'NNP'
p801
S'B-NP'
p802
g5
tp803
a(S'Outpatients'
p804
S'Outpatients'
p805
S'NNP'
p806
S'I-NP'
p807
g5
tp808
a(S'with'
p809
S'with'
p810
S'IN'
p811
S'B-PP'
p812
g5
tp813
a(S'cancer'
p814
S'cancer'
p815
S'NN'
p816
S'B-NP'
p817
g5
tp818
a(S'were'
p819
S'be'
p820
S'VBD'
p821
S'B-VP'
p822
g5
tp823
a(S'eligible'
p824
S'eligible'
p825
S'JJ'
p826
S'B-ADJP'
p827
g5
tp828
a(S'for'
p829
S'for'
p830
S'IN'
p831
S'B-PP'
p832
g5
tp833
a(S'the'
p834
S'the'
p835
S'DT'
p836
S'B-NP'
p837
g5
tp838
a(S'study'
p839
S'study'
p840
S'NN'
p841
S'I-NP'
p842
g5
tp843
a(S'if'
p844
S'if'
p845
S'IN'
p846
S'B-SBAR'
p847
g5
tp848
a(S'they'
p849
S'they'
p850
S'PRP'
p851
S'B-NP'
p852
g5
tp853
a(S'were'
p854
S'be'
p855
S'VBD'
p856
S'B-VP'
p857
g5
tp858
a(S'aged'
p859
S'aged'
p860
S'JJ'
p861
S'B-ADJP'
p862
g5
tp863
a(S'>'
p864
g864
S'SYM'
p865
g5
g5
tp866
a(S'-18'
p867
S'-18'
p868
S'CD'
p869
S'B-NP'
p870
g5
tp871
a(S'years'
p872
S'year'
p873
S'NNS'
p874
S'I-NP'
p875
g5
tp876
a(S'and'
p877
S'and'
p878
S'CC'
p879
g5
g5
tp880
a(S'had'
p881
S'have'
p882
S'VBD'
p883
S'B-VP'
p884
g5
tp885
a(S'chronic'
p886
S'chronic'
p887
S'JJ'
p888
S'B-NP'
p889
g5
tp890
a(g368
g368
g368
g5
g5
tp891
a(S'duration'
p892
S'duration'
p893
S'NN'
p894
S'B-NP'
p895
g5
tp896
a(g83
g83
g83
g5
g5
tp897
a(g864
g864
S'SYM'
p898
S'B-NP'
p899
g5
tp900
a(S'/='
p901
S'/='
p902
S'SYM'
p903
S'B-VP'
p904
g5
tp905
a(g725
g725
S'CD'
p906
S'B-NP'
p907
g5
tp908
a(S'months'
p909
S'month'
p910
S'NNS'
p911
S'I-NP'
p912
g5
tp913
a(g375
g375
g375
g5
g5
tp914
a(S'moderate'
p915
S'moderate'
p916
S'JJ'
p917
S'B-ADJP'
p918
g5
tp919
a(S'to'
p920
S'to'
p921
S'TO'
p922
S'B-PP'
p923
g5
tp924
a(S'severe'
p925
S'severe'
p926
S'JJ'
p927
S'B-NP'
p928
g5
tp929
a(S'cancer-related'
p930
S'cancer-related'
p931
S'JJ'
p932
S'I-NP'
p933
g5
tp934
a(S'pain'
p935
S'pain'
p936
S'NN'
p937
S'I-NP'
p938
g5
tp939
a(g368
g368
g368
g5
g5
tp940
a(S'score'
p941
S'score'
p942
S'NN'
p943
S'B-NP'
p944
g5
tp945
a(S'on'
p946
S'on'
p947
S'IN'
p948
S'B-PP'
p949
g5
tp950
a(S'10-cm'
p951
S'10-cm'
p952
S'JJ'
p953
S'B-NP'
p954
g5
tp955
a(S'visual'
p956
S'visual'
p957
S'JJ'
p958
S'I-NP'
p959
g5
tp960
a(S'analog'
p961
S'analog'
p962
S'NN'
p963
S'I-NP'
p964
g5
tp965
a(S'scale'
p966
S'scale'
p967
S'NN'
p968
S'I-NP'
p969
g5
tp970
a(S'['
p971
g971
g368
g5
g5
tp972
a(S'VAS'
p973
S'VAS'
p974
S'NN'
p975
S'B-NP'
p976
g5
tp977
a(S']'
p978
g978
g375
g5
g5
tp979
a(g83
g83
g83
g5
g5
tp980
a(g864
g864
S'SYM'
p981
S'B-NP'
p982
g5
tp983
a(g725
g725
S'CD'
p984
S'B-NP'
p985
g5
tp986
a(S'cm'
p987
S'cm'
p988
S'NN'
p989
S'I-NP'
p990
g5
tp991
a(g971
g971
g368
g5
g5
tp992
a(S'moderate'
p993
S'moderate'
p994
S'NN'
p995
S'B-NP'
p996
g5
tp997
a(g978
g978
g375
g5
g5
tp998
a(S';'
p999
g999
g72
g5
g5
tp1000
a(S'score'
p1001
S'score'
p1002
S'NN'
p1003
S'B-NP'
p1004
g5
tp1005
a(S'on'
p1006
S'on'
p1007
S'IN'
p1008
S'B-PP'
p1009
g5
tp1010
a(g74
g74
S'DT'
p1011
S'B-NP'
p1012
g5
tp1013
a(S'4-point'
p1014
S'4-point'
p1015
S'JJ'
p1016
S'I-NP'
p1017
g5
tp1018
a(S'verbal'
p1019
S'verbal'
p1020
S'JJ'
p1021
S'I-NP'
p1022
g5
tp1023
a(S'pain-intensity'
p1024
S'pain-intensity'
p1025
S'NN'
p1026
S'I-NP'
p1027
g5
tp1028
a(S'scale'
p1029
S'scale'
p1030
S'NN'
p1031
S'I-NP'
p1032
g5
tp1033
a(g83
g83
g83
g5
g5
tp1034
a(g864
g864
S'SYM'
p1035
S'B-NP'
p1036
g5
tp1037
a(S'1'
p1038
g1038
S'CD'
p1039
S'I-NP'
p1040
g5
tp1041
a(g971
g971
g368
g5
g5
tp1042
a(S'moderate'
p1043
S'moderate'
p1044
S'JJ'
p1045
g5
g5
tp1046
a(g978
g978
g375
g5
g5
tp1047
a(g375
g375
g375
g5
g5
tp1048
a(g117
g117
g117
g5
g5
tp1049
a(S'Eligible'
p1050
S'Eligible'
p1051
S'JJ'
p1052
S'B-NP'
p1053
g5
tp1054
a(S'patients'
p1055
S'patient'
p1056
S'NNS'
p1057
S'I-NP'
p1058
g5
tp1059
a(S'were'
p1060
S'be'
p1061
S'VBD'
p1062
S'B-VP'
p1063
g5
tp1064
a(S'randomly'
p1065
S'randomly'
p1066
S'RB'
p1067
S'I-VP'
p1068
g5
tp1069
a(S'assigned'
p1070
S'assign'
p1071
S'VBN'
p1072
S'I-VP'
p1073
g5
tp1074
a(S'to'
p1075
S'to'
p1076
S'TO'
p1077
S'I-VP'
p1078
g5
tp1079
a(S'receive'
p1080
S'receive'
p1081
S'VB'
p1082
S'I-VP'
p1083
g5
tp1084
a(g1038
g1038
S'CD'
p1085
S'B-NP'
p1086
g5
tp1087
a(S'tablet'
p1088
S'tablet'
p1089
S'NN'
p1090
S'I-NP'
p1091
g5
tp1092
a(S'of'
p1093
S'of'
p1094
S'IN'
p1095
S'B-PP'
p1096
g5
tp1097
a(S'codeine/acetaminophen'
p1098
S'codeine/acetaminophen'
p1099
S'NN'
p1100
S'B-NP'
p1101
g5
tp1102
a(g368
g368
g368
g5
g5
tp1103
a(S'C/A'
p1104
S'C/A'
p1105
S'NN'
p1106
S'B-NP'
p1107
g5
tp1108
a(g375
g375
g375
g5
g5
tp1109
a(S'30/500'
p1110
S'30/500'
p1111
S'CD'
p1112
S'B-NP'
p1113
g5
tp1114
a(S'mg'
p1115
S'mg'
p1116
S'NN'
p1117
S'I-NP'
p1118
g5
tp1119
a(S'or'
p1120
S'or'
p1121
S'CC'
p1122
g5
g5
tp1123
a(S'hydrocodone/acetaminophen'
p1124
S'hydrocodone/acetaminophen'
p1125
S'NN'
p1126
S'B-NP'
p1127
g5
tp1128
a(g368
g368
g368
g5
g5
tp1129
a(S'H/A'
p1130
S'H/A'
p1131
S'NN'
p1132
S'B-NP'
p1133
g5
tp1134
a(g375
g375
g375
g5
g5
tp1135
a(S'5/500'
p1136
S'5/500'
p1137
S'CD'
p1138
S'B-NP'
p1139
g5
tp1140
a(S'mg'
p1141
S'mg'
p1142
S'NN'
p1143
S'I-NP'
p1144
g5
tp1145
a(S'PO'
p1146
S'PO'
p1147
S'NN'
p1148
S'I-NP'
p1149
g5
tp1150
a(S'q4h'
p1151
S'q4h'
p1152
S'NN'
p1153
S'I-NP'
p1154
g5
tp1155
a(g368
g368
g368
g5
g5
tp1156
a(S'total'
p1157
S'total'
p1158
S'JJ'
p1159
S'B-NP'
p1160
g5
tp1161
a(S'daily'
p1162
S'daily'
p1163
S'JJ'
p1164
S'I-NP'
p1165
g5
tp1166
a(S'doses'
p1167
S'dose'
p1168
S'NNS'
p1169
S'I-NP'
p1170
g5
tp1171
a(g83
g83
g83
g5
g5
tp1172
a(S'150/2500'
p1173
S'150/2500'
p1174
S'CD'
p1175
S'B-NP'
p1176
g5
tp1177
a(S'and'
p1178
S'and'
p1179
S'CC'
p1180
S'I-NP'
p1181
g5
tp1182
a(S'25/2500'
p1183
S'25/2500'
p1184
S'CD'
p1185
S'I-NP'
p1186
g5
tp1187
a(S'mg'
p1188
S'mg'
p1189
S'NN'
p1190
S'I-NP'
p1191
g5
tp1192
a(g83
g83
g83
g5
g5
tp1193
a(S'respectively'
p1194
S'respectively'
p1195
S'RB'
p1196
S'B-ADVP'
p1197
g5
tp1198
a(g375
g375
g375
g5
g5
tp1199
a(S'for'
p1200
S'for'
p1201
S'IN'
p1202
S'B-PP'
p1203
g5
tp1204
a(S'23'
p1205
S'23'
p1206
S'CD'
p1207
S'B-NP'
p1208
g5
tp1209
a(S'days.'
p1210
S'days.'
p1211
S'NNS'
p1212
S'I-NP'
p1213
g5
tp1214
a(S'In'
p1215
S'In'
p1216
S'IN'
p1217
S'B-PP'
p1218
g5
tp1219
a(S'both'
p1220
S'both'
p1221
S'DT'
p1222
S'B-NP'
p1223
g5
tp1224
a(S'groups'
p1225
S'group'
p1226
S'NNS'
p1227
S'I-NP'
p1228
g5
tp1229
a(g83
g83
g83
g5
g5
tp1230
a(S'if'
p1231
S'if'
p1232
S'IN'
p1233
S'B-SBAR'
p1234
g5
tp1235
a(S'pain'
p1236
S'pain'
p1237
S'NN'
p1238
S'B-NP'
p1239
g5
tp1240
a(S'intensity'
p1241
S'intensity'
p1242
S'NN'
p1243
S'I-NP'
p1244
g5
tp1245
a(S'was'
p1246
S'be'
p1247
S'VBD'
p1248
S'B-VP'
p1249
g5
tp1250
a(S'rated'
p1251
S'rat'
p1252
S'VBN'
p1253
S'I-VP'
p1254
g5
tp1255
a(S'as'
p1256
S'as'
p1257
S'IN'
p1258
S'B-PP'
p1259
g5
tp1260
a(g864
g864
S'SYM'
p1261
S'B-NP'
p1262
g5
tp1263
a(g725
g725
S'CD'
p1264
S'I-NP'
p1265
g5
tp1266
a(S'on'
p1267
S'on'
p1268
S'IN'
p1269
S'B-PP'
p1270
g5
tp1271
a(S'the'
p1272
S'the'
p1273
S'DT'
p1274
S'B-NP'
p1275
g5
tp1276
a(S'VAS'
p1277
S'VAS'
p1278
S'NN'
p1279
S'I-NP'
p1280
S'B-protein'
p1281
tp1282
a(S'at'
p1283
S'at'
p1284
S'IN'
p1285
S'B-PP'
p1286
g5
tp1287
a(S'week'
p1288
S'week'
p1289
S'NN'
p1290
S'B-NP'
p1291
g5
tp1292
a(g1038
g1038
S'CD'
p1293
S'I-NP'
p1294
g5
tp1295
a(S'or'
p1296
S'or'
p1297
S'CC'
p1298
S'I-NP'
p1299
g5
tp1300
a(S'2'
p1301
g1301
S'CD'
p1302
S'I-NP'
p1303
g5
tp1304
a(g83
g83
g83
g5
g5
tp1305
a(S'the'
p1306
S'the'
p1307
S'DT'
p1308
S'B-NP'
p1309
g5
tp1310
a(S'dosage'
p1311
S'dosage'
p1312
S'NN'
p1313
S'I-NP'
p1314
g5
tp1315
a(S'was'
p1316
S'be'
p1317
S'VBD'
p1318
S'B-VP'
p1319
g5
tp1320
a(S'doubled.'
p1321
S'doubled.'
p1322
S'RB'
p1323
S'B-ADVP'
p1324
g5
tp1325
a(S'The'
p1326
S'The'
p1327
S'DT'
p1328
S'B-NP'
p1329
g5
tp1330
a(S'primary'
p1331
S'primary'
p1332
S'JJ'
p1333
S'I-NP'
p1334
g5
tp1335
a(S'end'
p1336
S'end'
p1337
S'NN'
p1338
S'I-NP'
p1339
g5
tp1340
a(S'point'
p1341
S'point'
p1342
S'NN'
p1343
S'I-NP'
p1344
g5
tp1345
a(S'was'
p1346
S'be'
p1347
S'VBD'
p1348
S'B-VP'
p1349
g5
tp1350
a(S'the'
p1351
S'the'
p1352
S'DT'
p1353
S'B-NP'
p1354
g5
tp1355
a(S'proportion'
p1356
S'proportion'
p1357
S'NN'
p1358
S'I-NP'
p1359
g5
tp1360
a(S'of'
p1361
S'of'
p1362
S'IN'
p1363
S'B-PP'
p1364
g5
tp1365
a(S'patients'
p1366
S'patient'
p1367
S'NNS'
p1368
S'B-NP'
p1369
g5
tp1370
a(S'who'
p1371
S'who'
p1372
S'WP'
p1373
S'B-NP'
p1374
g5
tp1375
a(S'achieved'
p1376
S'achieve'
p1377
S'VBD'
p1378
S'B-VP'
p1379
g5
tp1380
a(S'pain'
p1381
S'pain'
p1382
S'NN'
p1383
S'B-NP'
p1384
g5
tp1385
a(S'relief'
p1386
S'relief'
p1387
S'NN'
p1388
S'I-NP'
p1389
g5
tp1390
a(g368
g368
g368
g5
g5
tp1391
a(S'defined'
p1392
S'define'
p1393
S'VBN'
p1394
S'B-VP'
p1395
g5
tp1396
a(S'as'
p1397
S'as'
p1398
S'IN'
p1399
S'B-PP'
p1400
g5
tp1401
a(g74
g74
S'DT'
p1402
S'B-NP'
p1403
g5
tp1404
a(S'score'
p1405
S'score'
p1406
S'NN'
p1407
S'I-NP'
p1408
g5
tp1409
a(S'of'
p1410
S'of'
p1411
S'IN'
p1412
S'B-PP'
p1413
g5
tp1414
a(g864
g864
S'SYM'
p1415
S'B-NP'
p1416
g5
tp1417
a(g1038
g1038
S'CD'
p1418
S'I-NP'
p1419
g5
tp1420
a(S'on'
p1421
S'on'
p1422
S'IN'
p1423
S'B-PP'
p1424
g5
tp1425
a(g74
g74
S'DT'
p1426
S'B-NP'
p1427
g5
tp1428
a(S'5-point'
p1429
S'5-point'
p1430
S'JJ'
p1431
S'I-NP'
p1432
g5
tp1433
a(S'verbal'
p1434
S'verbal'
p1435
S'JJ'
p1436
S'I-NP'
p1437
g5
tp1438
a(S'rating'
p1439
S'rating'
p1440
S'NN'
p1441
S'I-NP'
p1442
g5
tp1443
a(S'scale'
p1444
S'scale'
p1445
S'NN'
p1446
S'I-NP'
p1447
g5
tp1448
a(g971
g971
g368
g5
g5
tp1449
a(S'VRS'
p1450
S'VRS'
p1451
S'NN'
p1452
S'B-NP'
p1453
S'B-protein'
p1454
tp1455
a(g978
g978
g375
g5
g5
tp1456
a(g368
g368
g368
g5
g5
tp1457
a(S'0'
p1458
g1458
S'CD'
p1459
S'B-NP'
p1460
g5
tp1461
a(S'='
p1462
g1462
S'JJ'
p1463
S'I-NP'
p1464
g5
tp1465
a(S'none'
p1466
S'none'
p1467
S'NN'
p1468
S'I-NP'
p1469
g5
tp1470
a(g999
g999
g72
g5
g5
tp1471
a(g1038
g1038
S'CD'
p1472
S'B-NP'
p1473
g5
tp1474
a(g1462
g1462
S'SYM'
p1475
S'B-VP'
p1476
g5
tp1477
a(g74
g74
S'DT'
p1478
S'B-NP'
p1479
g5
tp1480
a(S'little'
p1481
S'little'
p1482
S'JJ'
p1483
S'I-NP'
p1484
g5
tp1485
a(g999
g999
g72
g5
g5
tp1486
a(g1301
g1301
S'CD'
p1487
S'B-NP'
p1488
g5
tp1489
a(g1462
g1462
S'SYM'
p1490
S'B-VP'
p1491
g5
tp1492
a(S'some'
p1493
S'some'
p1494
S'DT'
p1495
S'B-NP'
p1496
g5
tp1497
a(g999
g999
g72
g5
g5
tp1498
a(g725
g725
S'CD'
p1499
S'B-NP'
p1500
g5
tp1501
a(g1462
g1462
S'SYM'
p1502
S'B-VP'
p1503
g5
tp1504
a(g74
g74
S'DT'
p1505
S'B-NP'
p1506
g5
tp1507
a(S'lot'
p1508
S'lot'
p1509
S'NN'
p1510
S'I-NP'
p1511
g5
tp1512
a(g999
g999
g72
g5
g5
tp1513
a(S'and'
p1514
S'and'
p1515
S'CC'
p1516
g5
g5
tp1517
a(S'4'
p1518
g1518
S'CD'
p1519
S'B-NP'
p1520
g5
tp1521
a(g1462
g1462
S'SYM'
p1522
S'B-VP'
p1523
g5
tp1524
a(S'complete'
p1525
S'complete'
p1526
S'JJ'
p1527
S'B-ADJP'
p1528
g5
tp1529
a(g375
g375
g375
g5
g5
tp1530
a(S'on'
p1531
S'on'
p1532
S'IN'
p1533
S'B-PP'
p1534
g5
tp1535
a(S'study'
p1536
S'study'
p1537
S'NN'
p1538
S'B-NP'
p1539
g5
tp1540
a(S'days'
p1541
S'day'
p1542
S'NNS'
p1543
S'I-NP'
p1544
g5
tp1545
a(g1038
g1038
S'CD'
p1546
S'B-NP'
p1547
g5
tp1548
a(S'and'
p1549
S'and'
p1550
S'CC'
p1551
S'I-NP'
p1552
g5
tp1553
a(g1301
g1301
S'CD'
p1554
S'I-NP'
p1555
g5
tp1556
a(S'and'
p1557
S'and'
p1558
S'CC'
p1559
S'I-NP'
p1560
g5
tp1561
a(S'weeks'
p1562
S'week'
p1563
S'NNS'
p1564
S'I-NP'
p1565
g5
tp1566
a(g1038
g1038
S'CD'
p1567
S'I-NP'
p1568
g5
tp1569
a(g83
g83
g83
S'I-NP'
p1570
g5
tp1571
a(g1301
g1301
S'CD'
p1572
S'I-NP'
p1573
g5
tp1574
a(g83
g83
g83
g5
g5
tp1575
a(S'and'
p1576
S'and'
p1577
S'CC'
p1578
g5
g5
tp1579
a(S'3.'
p1580
S'3.'
p1581
S'LS'
p1582
S'B-LST'
p1583
g5
tp1584
a(S'The'
p1585
S'The'
p1586
S'DT'
p1587
S'B-NP'
p1588
g5
tp1589
a(S'secondary'
p1590
S'secondary'
p1591
S'JJ'
p1592
S'I-NP'
p1593
g5
tp1594
a(S'end'
p1595
S'end'
p1596
S'NN'
p1597
S'I-NP'
p1598
g5
tp1599
a(S'point'
p1600
S'point'
p1601
S'NN'
p1602
S'I-NP'
p1603
g5
tp1604
a(S'was'
p1605
S'be'
p1606
S'VBD'
p1607
S'B-VP'
p1608
g5
tp1609
a(S'the'
p1610
S'the'
p1611
S'DT'
p1612
S'B-NP'
p1613
g5
tp1614
a(S'proportion'
p1615
S'proportion'
p1616
S'NN'
p1617
S'I-NP'
p1618
g5
tp1619
a(S'of'
p1620
S'of'
p1621
S'IN'
p1622
S'B-PP'
p1623
g5
tp1624
a(S'patients'
p1625
S'patient'
p1626
S'NNS'
p1627
S'B-NP'
p1628
g5
tp1629
a(S'in'
p1630
S'in'
p1631
S'IN'
p1632
S'B-PP'
p1633
g5
tp1634
a(S'whom'
p1635
S'whom'
p1636
S'WP'
p1637
S'B-NP'
p1638
g5
tp1639
a(S'pain'
p1640
S'pain'
p1641
S'NN'
p1642
S'B-NP'
p1643
g5
tp1644
a(S'was'
p1645
S'be'
p1646
S'VBD'
p1647
S'B-VP'
p1648
g5
tp1649
a(S'decreased'
p1650
S'decrease'
p1651
S'VBN'
p1652
S'I-VP'
p1653
g5
tp1654
a(g368
g368
g368
g5
g5
tp1655
a(S'VAS'
p1656
S'VAS'
p1657
S'NN'
p1658
S'B-NP'
p1659
g5
tp1660
a(S'score'
p1661
S'score'
p1662
S'NN'
p1663
S'I-NP'
p1664
g5
tp1665
a(g83
g83
g83
g5
g5
tp1666
a(S'<'
p1667
g1667
S'SYM'
p1668
g5
g5
tp1669
a(S'-'
p1670
g1670
S'HYPH'
p1671
g5
g5
tp1672
a(g725
g725
S'CD'
p1673
S'B-NP'
p1674
g5
tp1675
a(S'cm'
p1676
S'cm'
p1677
S'NN'
p1678
S'I-NP'
p1679
g5
tp1680
a(g375
g375
g375
g5
g5
tp1681
a(g117
g117
g117
g5
g5
tp1682
a(S'AEs'
p1683
S'AE'
p1684
S'NNS'
p1685
S'B-NP'
p1686
S'B-protein'
p1687
tp1688
a(S'were'
p1689
S'be'
p1690
S'VBD'
p1691
S'B-VP'
p1692
g5
tp1693
a(S'self-reported'
p1694
S'self-reporte'
p1695
S'VBN'
p1696
S'I-VP'
p1697
g5
tp1698
a(S'on'
p1699
S'on'
p1700
S'IN'
p1701
S'B-PP'
p1702
g5
tp1703
a(g74
g74
S'DT'
p1704
S'B-NP'
p1705
g5
tp1706
a(S'4-point'
p1707
S'4-point'
p1708
S'NN'
p1709
S'I-NP'
p1710
g5
tp1711
a(S'VRS'
p1712
S'VRS'
p1713
S'NN'
p1714
S'I-NP'
p1715
g5
tp1716
a(g368
g368
g368
g5
g5
tp1717
a(g1458
g1458
S'CD'
p1718
S'B-NP'
p1719
g5
tp1720
a(g1462
g1462
S'SYM'
p1721
g5
g5
tp1722
a(S'absent'
p1723
S'absent'
p1724
S'JJ'
p1725
S'B-NP'
p1726
g5
tp1727
a(g999
g999
g72
g5
g5
tp1728
a(g1038
g1038
S'CD'
p1729
S'B-NP'
p1730
g5
tp1731
a(g1462
g1462
S'JJ'
p1732
S'I-NP'
p1733
g5
tp1734
a(S'mild'
p1735
S'mild'
p1736
S'JJ'
p1737
S'I-NP'
p1738
g5
tp1739
a(g999
g999
g72
g5
g5
tp1740
a(g1301
g1301
S'CD'
p1741
S'B-NP'
p1742
g5
tp1743
a(g1462
g1462
S'SYM'
p1744
S'B-VP'
p1745
g5
tp1746
a(S'moderate'
p1747
S'moderate'
p1748
S'JJ'
p1749
S'B-NP'
p1750
g5
tp1751
a(g999
g999
g72
g5
g5
tp1752
a(S'and'
p1753
S'and'
p1754
S'CC'
p1755
g5
g5
tp1756
a(g725
g725
S'CD'
p1757
S'B-NP'
p1758
g5
tp1759
a(g1462
g1462
S'SYM'
p1760
S'B-VP'
p1761
g5
tp1762
a(S'severe'
p1763
S'severe'
p1764
S'JJ'
p1765
S'B-ADJP'
p1766
g5
tp1767
a(g375
g375
g375
g5
g5
tp1768
a(g117
g117
g117
g5
g5
tp1769
a(S'RESULTS'
p1770
S'RESULTS'
p1771
S'NNS'
p1772
S'B-NP'
p1773
g5
tp1774
a(S'Of'
p1775
S'Of'
p1776
S'IN'
p1777
S'B-PP'
p1778
g5
tp1779
a(S'the'
p1780
S'the'
p1781
S'DT'
p1782
S'B-NP'
p1783
g5
tp1784
a(S'121'
p1785
S'121'
p1786
S'CD'
p1787
S'I-NP'
p1788
g5
tp1789
a(S'patients'
p1790
S'patient'
p1791
S'NNS'
p1792
S'I-NP'
p1793
g5
tp1794
a(S'who'
p1795
S'who'
p1796
S'WP'
p1797
S'B-NP'
p1798
g5
tp1799
a(S'participated'
p1800
S'participate'
p1801
S'VBD'
p1802
S'B-VP'
p1803
g5
tp1804
a(g83
g83
g83
g5
g5
tp1805
a(S'59'
p1806
S'59'
p1807
S'CD'
p1808
S'B-NP'
p1809
g5
tp1810
a(S'received'
p1811
S'receive'
p1812
S'VBD'
p1813
S'B-VP'
p1814
g5
tp1815
a(S'C/A'
p1816
S'C/A'
p1817
S'NN'
p1818
S'B-NP'
p1819
g5
tp1820
a(S'and'
p1821
S'and'
p1822
S'CC'
p1823
g5
g5
tp1824
a(S'62'
p1825
S'62'
p1826
S'CD'
p1827
S'B-NP'
p1828
g5
tp1829
a(S'received'
p1830
S'receive'
p1831
S'VBD'
p1832
S'B-VP'
p1833
g5
tp1834
a(S'H/A.'
p1835
S'H/A.'
p1836
S'NNP'
p1837
S'B-NP'
p1838
g5
tp1839
a(S'Of'
p1840
S'Of'
p1841
S'IN'
p1842
S'B-PP'
p1843
g5
tp1844
a(S'the'
p1845
S'the'
p1846
S'DT'
p1847
S'B-NP'
p1848
g5
tp1849
a(S'total'
p1850
S'total'
p1851
S'JJ'
p1852
S'I-NP'
p1853
g5
tp1854
a(S'number'
p1855
S'number'
p1856
S'NN'
p1857
S'I-NP'
p1858
g5
tp1859
a(S'of'
p1860
S'of'
p1861
S'IN'
p1862
S'B-PP'
p1863
g5
tp1864
a(S'cases'
p1865
S'case'
p1866
S'NNS'
p1867
S'B-NP'
p1868
g5
tp1869
a(g83
g83
g83
g5
g5
tp1870
a(S'59'
p1871
S'59'
p1872
S'CD'
p1873
S'B-NP'
p1874
g5
tp1875
a(S'%'
p1876
g1876
S'NN'
p1877
S'I-NP'
p1878
g5
tp1879
a(S'were'
p1880
S'be'
p1881
S'VBD'
p1882
S'B-VP'
p1883
g5
tp1884
a(S'aged'
p1885
S'age'
p1886
S'VBN'
p1887
S'I-VP'
p1888
g5
tp1889
a(S'60'
p1890
S'60'
p1891
S'CD'
p1892
S'B-NP'
p1893
g5
tp1894
a(S'to'
p1895
S'to'
p1896
S'TO'
p1897
S'I-NP'
p1898
g5
tp1899
a(S'89'
p1900
S'89'
p1901
S'CD'
p1902
S'I-NP'
p1903
g5
tp1904
a(S'years'
p1905
S'year'
p1906
S'NNS'
p1907
S'I-NP'
p1908
g5
tp1909
a(g83
g83
g83
g5
g5
tp1910
a(S'and'
p1911
S'and'
p1912
S'CC'
p1913
g5
g5
tp1914
a(S'55'
p1915
S'55'
p1916
S'CD'
p1917
S'B-NP'
p1918
g5
tp1919
a(g1876
g1876
S'NN'
p1920
S'I-NP'
p1921
g5
tp1922
a(S'were'
p1923
S'be'
p1924
S'VBD'
p1925
S'B-VP'
p1926
g5
tp1927
a(S'men.'
p1928
S'men.'
p1929
S'VBN'
p1930
S'I-VP'
p1931
g5
tp1932
a(S'At'
p1933
S'At'
p1934
S'IN'
p1935
S'B-PP'
p1936
g5
tp1937
a(S'baseline'
p1938
S'baseline'
p1939
S'NN'
p1940
S'B-NP'
p1941
g5
tp1942
a(g83
g83
g83
g5
g5
tp1943
a(S'88'
p1944
S'88'
p1945
S'CD'
p1946
S'B-NP'
p1947
g5
tp1948
a(g1876
g1876
S'NN'
p1949
S'I-NP'
p1950
g5
tp1951
a(S'of'
p1952
S'of'
p1953
S'IN'
p1954
S'B-PP'
p1955
g5
tp1956
a(S'the'
p1957
S'the'
p1958
S'DT'
p1959
S'B-NP'
p1960
g5
tp1961
a(S'patients'
p1962
S'patient'
p1963
S'NNS'
p1964
S'I-NP'
p1965
g5
tp1966
a(S'described'
p1967
S'describe'
p1968
S'VBD'
p1969
S'B-VP'
p1970
g5
tp1971
a(S'their'
p1972
S'their'
p1973
S'PRP$'
p1974
S'B-NP'
p1975
g5
tp1976
a(S'pain'
p1977
S'pain'
p1978
S'NN'
p1979
S'I-NP'
p1980
g5
tp1981
a(S'intensity'
p1982
S'intensity'
p1983
S'NN'
p1984
S'I-NP'
p1985
g5
tp1986
a(S'as'
p1987
S'as'
p1988
S'IN'
p1989
S'B-PP'
p1990
g5
tp1991
a(S'moderate'
p1992
S'moderate'
p1993
S'JJ'
p1994
S'B-ADJP'
p1995
g5
tp1996
a(g999
g999
g72
g5
g5
tp1997
a(S'12'
p1998
S'12'
p1999
S'CD'
p2000
S'B-NP'
p2001
g5
tp2002
a(g1876
g1876
S'NN'
p2003
S'I-NP'
p2004
g5
tp2005
a(g83
g83
g83
g5
g5
tp2006
a(S'severe.'
p2007
S'severe.'
p2008
S'FW'
p2009
S'B-PP'
p2010
g5
tp2011
a(S'Of'
p2012
S'Of'
p2013
S'IN'
p2014
S'B-PP'
p2015
g5
tp2016
a(S'the'
p2017
S'the'
p2018
S'DT'
p2019
S'B-NP'
p2020
g5
tp2021
a(S'patients'
p2022
S'patient'
p2023
S'NNS'
p2024
S'I-NP'
p2025
g5
tp2026
a(S'who'
p2027
S'who'
p2028
S'WP'
p2029
S'B-NP'
p2030
g5
tp2031
a(S'received'
p2032
S'receive'
p2033
S'VBD'
p2034
S'B-VP'
p2035
g5
tp2036
a(S'C/A'
p2037
S'C/A'
p2038
S'NN'
p2039
S'B-NP'
p2040
g5
tp2041
a(g83
g83
g83
g5
g5
tp2042
a(S'58'
p2043
S'58'
p2044
S'CD'
p2045
S'B-NP'
p2046
g5
tp2047
a(g1876
g1876
S'NN'
p2048
S'I-NP'
p2049
g5
tp2050
a(S'responded'
p2051
S'respond'
p2052
S'VBD'
p2053
S'B-VP'
p2054
g5
tp2055
a(S'to'
p2056
S'to'
p2057
S'TO'
p2058
S'B-PP'
p2059
g5
tp2060
a(S'the'
p2061
S'the'
p2062
S'DT'
p2063
S'B-NP'
p2064
g5
tp2065
a(S'initial'
p2066
S'initial'
p2067
S'JJ'
p2068
S'I-NP'
p2069
g5
tp2070
a(S'dosage'
p2071
S'dosage'
p2072
S'NN'
p2073
S'I-NP'
p2074
g5
tp2075
a(S'of'
p2076
S'of'
p2077
S'IN'
p2078
S'B-PP'
p2079
g5
tp2080
a(S'150/2500'
p2081
S'150/2500'
p2082
S'CD'
p2083
S'B-NP'
p2084
g5
tp2085
a(S'mg/d'
p2086
S'mg/d'
p2087
S'NN'
p2088
S'I-NP'
p2089
g5
tp2090
a(g83
g83
g83
g5
g5
tp2091
a(S'and'
p2092
S'and'
p2093
S'CC'
p2094
g5
g5
tp2095
a(S'8'
p2096
g2096
S'CD'
p2097
S'B-NP'
p2098
g5
tp2099
a(g1876
g1876
S'NN'
p2100
S'I-NP'
p2101
g5
tp2102
a(S'of'
p2103
S'of'
p2104
S'IN'
p2105
S'B-PP'
p2106
g5
tp2107
a(S'the'
p2108
S'the'
p2109
S'DT'
p2110
S'B-NP'
p2111
g5
tp2112
a(S'patients'
p2113
S'patient'
p2114
S'NNS'
p2115
S'I-NP'
p2116
g5
tp2117
a(S'responded'
p2118
S'respond'
p2119
S'VBD'
p2120
S'B-VP'
p2121
g5
tp2122
a(S'to'
p2123
S'to'
p2124
S'TO'
p2125
S'B-PP'
p2126
g5
tp2127
a(S'the'
p2128
S'the'
p2129
S'DT'
p2130
S'B-NP'
p2131
g5
tp2132
a(S'double'
p2133
S'double'
p2134
S'JJ'
p2135
S'I-NP'
p2136
g5
tp2137
a(S'dosage'
p2138
S'dosage'
p2139
S'NN'
p2140
S'I-NP'
p2141
g5
tp2142
a(g999
g999
g72
g5
g5
tp2143
a(S'34'
p2144
S'34'
p2145
S'CD'
p2146
S'B-NP'
p2147
g5
tp2148
a(g1876
g1876
S'NN'
p2149
S'I-NP'
p2150
g5
tp2151
a(S'did'
p2152
S'do'
p2153
S'VBD'
p2154
S'B-VP'
p2155
g5
tp2156
a(S'not'
p2157
S'not'
p2158
S'RB'
p2159
S'I-VP'
p2160
g5
tp2161
a(S'experience'
p2162
S'experience'
p2163
S'VB'
p2164
S'I-VP'
p2165
g5
tp2166
a(S'pain'
p2167
S'pain'
p2168
S'NN'
p2169
S'B-NP'
p2170
g5
tp2171
a(S'relief.'
p2172
S'relief.'
p2173
S'NN'
p2174
S'I-NP'
p2175
g5
tp2176
a(S'In'
p2177
S'In'
p2178
S'IN'
p2179
S'B-PP'
p2180
g5
tp2181
a(S'patients'
p2182
S'patient'
p2183
S'NNS'
p2184
S'B-NP'
p2185
g5
tp2186
a(S'with'
p2187
S'with'
p2188
S'IN'
p2189
S'B-PP'
p2190
g5
tp2191
a(S'H/A'
p2192
S'H/A'
p2193
S'NN'
p2194
S'B-NP'
p2195
g5
tp2196
a(g83
g83
g83
g5
g5
tp2197
a(S'pain'
p2198
S'pain'
p2199
S'NN'
p2200
S'B-NP'
p2201
g5
tp2202
a(S'was'
p2203
S'be'
p2204
S'VBD'
p2205
S'B-VP'
p2206
g5
tp2207
a(S'reported'
p2208
S'report'
p2209
S'VBN'
p2210
S'I-VP'
p2211
g5
tp2212
a(S'as'
p2213
S'as'
p2214
S'IN'
p2215
S'B-PP'
p2216
g5
tp2217
a(S'absent'
p2218
S'absent'
p2219
S'JJ'
p2220
S'B-ADJP'
p2221
g5
tp2222
a(S'or'
p2223
S'or'
p2224
S'CC'
p2225
S'I-ADJP'
p2226
g5
tp2227
a(S'mild'
p2228
S'mild'
p2229
S'JJ'
p2230
S'I-ADJP'
p2231
g5
tp2232
a(S'in'
p2233
S'in'
p2234
S'IN'
p2235
S'B-PP'
p2236
g5
tp2237
a(S'56'
p2238
S'56'
p2239
S'CD'
p2240
S'B-NP'
p2241
g5
tp2242
a(g1876
g1876
S'NN'
p2243
S'I-NP'
p2244
g5
tp2245
a(S'of'
p2246
S'of'
p2247
S'IN'
p2248
S'B-PP'
p2249
g5
tp2250
a(S'patients'
p2251
S'patient'
p2252
S'NNS'
p2253
S'B-NP'
p2254
g5
tp2255
a(S'at'
p2256
S'at'
p2257
S'IN'
p2258
S'B-PP'
p2259
g5
tp2260
a(S'the'
p2261
S'the'
p2262
S'DT'
p2263
S'B-NP'
p2264
g5
tp2265
a(S'starting'
p2266
S'start'
p2267
S'VBG'
p2268
S'I-NP'
p2269
g5
tp2270
a(S'dosage'
p2271
S'dosage'
p2272
S'NN'
p2273
S'I-NP'
p2274
g5
tp2275
a(S'of'
p2276
S'of'
p2277
S'IN'
p2278
S'B-PP'
p2279
g5
tp2280
a(S'25/2500'
p2281
S'25/2500'
p2282
S'CD'
p2283
S'B-NP'
p2284
g5
tp2285
a(S'mg/d'
p2286
S'mg/d'
p2287
S'NN'
p2288
S'I-NP'
p2289
g5
tp2290
a(g999
g999
g72
g5
g5
tp2291
a(S'an'
p2292
S'an'
p2293
S'DT'
p2294
S'B-NP'
p2295
g5
tp2296
a(S'additional'
p2297
S'additional'
p2298
S'JJ'
p2299
S'I-NP'
p2300
g5
tp2301
a(S'15'
p2302
S'15'
p2303
S'CD'
p2304
S'I-NP'
p2305
g5
tp2306
a(g1876
g1876
S'NN'
p2307
S'I-NP'
p2308
g5
tp2309
a(S'of'
p2310
S'of'
p2311
S'IN'
p2312
S'B-PP'
p2313
g5
tp2314
a(S'the'
p2315
S'the'
p2316
S'DT'
p2317
S'B-NP'
p2318
g5
tp2319
a(S'patients'
p2320
S'patient'
p2321
S'NNS'
p2322
S'I-NP'
p2323
g5
tp2324
a(S'responded'
p2325
S'respond'
p2326
S'VBD'
p2327
S'B-VP'
p2328
g5
tp2329
a(S'to'
p2330
S'to'
p2331
S'TO'
p2332
S'B-PP'
p2333
g5
tp2334
a(S'the'
p2335
S'the'
p2336
S'DT'
p2337
S'B-NP'
p2338
g5
tp2339
a(S'double'
p2340
S'double'
p2341
S'JJ'
p2342
S'I-NP'
p2343
g5
tp2344
a(S'dosage'
p2345
S'dosage'
p2346
S'NN'
p2347
S'I-NP'
p2348
g5
tp2349
a(g999
g999
g72
g5
g5
tp2350
a(S'the'
p2351
S'the'
p2352
S'DT'
p2353
S'B-NP'
p2354
g5
tp2355
a(S'remaining'
p2356
S'remain'
p2357
S'VBG'
p2358
S'I-NP'
p2359
g5
tp2360
a(S'29'
p2361
S'29'
p2362
S'CD'
p2363
S'I-NP'
p2364
g5
tp2365
a(g1876
g1876
S'NN'
p2366
S'I-NP'
p2367
g5
tp2368
a(S'of'
p2369
S'of'
p2370
S'IN'
p2371
S'B-PP'
p2372
g5
tp2373
a(S'patients'
p2374
S'patient'
p2375
S'NNS'
p2376
S'B-NP'
p2377
g5
tp2378
a(S'did'
p2379
S'do'
p2380
S'VBD'
p2381
S'B-VP'
p2382
g5
tp2383
a(S'not'
p2384
S'not'
p2385
S'RB'
p2386
S'I-VP'
p2387
g5
tp2388
a(S'experience'
p2389
S'experience'
p2390
S'VB'
p2391
S'I-VP'
p2392
g5
tp2393
a(S'any'
p2394
S'any'
p2395
S'DT'
p2396
S'B-NP'
p2397
g5
tp2398
a(S'pain'
p2399
S'pain'
p2400
S'NN'
p2401
S'I-NP'
p2402
g5
tp2403
a(S'relief.'
p2404
S'relief.'
p2405
S'NN'
p2406
S'I-NP'
p2407
g5
tp2408
a(S'None'
p2409
S'None'
p2410
S'NN'
p2411
S'I-NP'
p2412
g5
tp2413
a(S'of'
p2414
S'of'
p2415
S'IN'
p2416
S'B-PP'
p2417
g5
tp2418
a(S'the'
p2419
S'the'
p2420
S'DT'
p2421
S'B-NP'
p2422
g5
tp2423
a(S'between-group'
p2424
S'between-group'
p2425
S'JJ'
p2426
S'I-NP'
p2427
g5
tp2428
a(S'differences'
p2429
S'difference'
p2430
S'NNS'
p2431
S'I-NP'
p2432
g5
tp2433
a(S'in'
p2434
S'in'
p2435
S'IN'
p2436
S'B-PP'
p2437
g5
tp2438
a(S'response'
p2439
S'response'
p2440
S'NN'
p2441
S'B-NP'
p2442
g5
tp2443
a(S'rates'
p2444
S'rate'
p2445
S'NNS'
p2446
S'I-NP'
p2447
g5
tp2448
a(S'were'
p2449
S'be'
p2450
S'VBD'
p2451
S'B-VP'
p2452
g5
tp2453
a(S'significant.'
p2454
S'significant.'
p2455
S'RB'
p2456
S'B-ADVP'
p2457
g5
tp2458
a(S'The'
p2459
S'The'
p2460
S'DT'
p2461
S'B-NP'
p2462
g5
tp2463
a(S'most'
p2464
S'most'
p2465
S'RBS'
p2466
S'I-NP'
p2467
g5
tp2468
a(S'common'
p2469
S'common'
p2470
S'JJ'
p2471
S'I-NP'
p2472
g5
tp2473
a(S'AEs'
p2474
S'AE'
p2475
S'NNS'
p2476
S'I-NP'
p2477
g5
tp2478
a(S'in'
p2479
S'in'
p2480
S'IN'
p2481
S'B-PP'
p2482
g5
tp2483
a(S'the'
p2484
S'the'
p2485
S'DT'
p2486
S'B-NP'
p2487
g5
tp2488
a(S'C/A'
p2489
S'C/A'
p2490
S'NN'
p2491
S'I-NP'
p2492
g5
tp2493
a(S'and'
p2494
S'and'
p2495
S'CC'
p2496
S'I-NP'
p2497
g5
tp2498
a(S'H/A'
p2499
S'H/A'
p2500
S'NN'
p2501
S'I-NP'
p2502
g5
tp2503
a(S'groups'
p2504
S'group'
p2505
S'NNS'
p2506
S'I-NP'
p2507
g5
tp2508
a(S'were'
p2509
S'be'
p2510
S'VBD'
p2511
S'B-VP'
p2512
g5
tp2513
a(S'constipation'
p2514
S'constipation'
p2515
S'NN'
p2516
S'B-NP'
p2517
g5
tp2518
a(g368
g368
g368
g5
g5
tp2519
a(S'36'
p2520
S'36'
p2521
S'CD'
p2522
S'B-NP'
p2523
g5
tp2524
a(g1876
g1876
S'NN'
p2525
S'I-NP'
p2526
g5
tp2527
a(S'and'
p2528
S'and'
p2529
S'CC'
p2530
g5
g5
tp2531
a(S'29'
p2532
S'29'
p2533
S'CD'
p2534
S'B-NP'
p2535
g5
tp2536
a(g1876
g1876
S'NN'
p2537
S'I-NP'
p2538
g5
tp2539
a(g83
g83
g83
g5
g5
tp2540
a(S'respectively'
p2541
S'respectively'
p2542
S'RB'
p2543
S'B-ADVP'
p2544
g5
tp2545
a(g375
g375
g375
g5
g5
tp2546
a(g83
g83
g83
g5
g5
tp2547
a(S'dizziness'
p2548
S'dizziness'
p2549
S'NN'
p2550
S'B-NP'
p2551
g5
tp2552
a(g368
g368
g368
g5
g5
tp2553
a(S'24'
p2554
S'24'
p2555
S'CD'
p2556
S'B-NP'
p2557
g5
tp2558
a(g1876
g1876
S'NN'
p2559
S'I-NP'
p2560
g5
tp2561
a(S'and'
p2562
S'and'
p2563
S'CC'
p2564
g5
g5
tp2565
a(S'19'
p2566
S'19'
p2567
S'CD'
p2568
S'B-NP'
p2569
g5
tp2570
a(g1876
g1876
S'NN'
p2571
S'I-NP'
p2572
g5
tp2573
a(g375
g375
g375
g5
g5
tp2574
a(g83
g83
g83
g5
g5
tp2575
a(S'vomiting'
p2576
S'vomit'
p2577
S'VBG'
p2578
S'B-VP'
p2579
g5
tp2580
a(g368
g368
g368
g5
g5
tp2581
a(S'24'
p2582
S'24'
p2583
S'CD'
p2584
S'B-NP'
p2585
g5
tp2586
a(g1876
g1876
S'NN'
p2587
S'I-NP'
p2588
g5
tp2589
a(S'and'
p2590
S'and'
p2591
S'CC'
p2592
g5
g5
tp2593
a(S'16'
p2594
S'16'
p2595
S'CD'
p2596
S'B-NP'
p2597
g5
tp2598
a(g1876
g1876
S'NN'
p2599
S'I-NP'
p2600
g5
tp2601
a(g375
g375
g375
g5
g5
tp2602
a(g83
g83
g83
g5
g5
tp2603
a(S'and'
p2604
S'and'
p2605
S'CC'
p2606
g5
g5
tp2607
a(S'dry'
p2608
S'dry'
p2609
S'JJ'
p2610
S'B-NP'
p2611
g5
tp2612
a(S'mouth'
p2613
S'mouth'
p2614
S'NN'
p2615
S'I-NP'
p2616
g5
tp2617
a(g368
g368
g368
g5
g5
tp2618
a(S'15'
p2619
S'15'
p2620
S'CD'
p2621
S'B-NP'
p2622
g5
tp2623
a(g1876
g1876
S'NN'
p2624
S'I-NP'
p2625
g5
tp2626
a(S'and'
p2627
S'and'
p2628
S'CC'
p2629
g5
g5
tp2630
a(S'18'
p2631
S'18'
p2632
S'CD'
p2633
S'B-NP'
p2634
g5
tp2635
a(g1876
g1876
S'NN'
p2636
S'I-NP'
p2637
g5
tp2638
a(g375
g375
g375
g5
g5
tp2639
a(g83
g83
g83
g5
g5
tp2640
a(S'with'
p2641
S'with'
p2642
S'IN'
p2643
S'B-PP'
p2644
g5
tp2645
a(S'no'
p2646
S'no'
p2647
S'DT'
p2648
S'B-NP'
p2649
g5
tp2650
a(S'significant'
p2651
S'significant'
p2652
S'JJ'
p2653
S'I-NP'
p2654
g5
tp2655
a(S'differences'
p2656
S'difference'
p2657
S'NNS'
p2658
S'I-NP'
p2659
g5
tp2660
a(S'between'
p2661
S'between'
p2662
S'IN'
p2663
S'B-PP'
p2664
g5
tp2665
a(S'groups'
p2666
S'group'
p2667
S'NNS'
p2668
S'B-NP'
p2669
g5
tp2670
a(g117
g117
g117
g5
g5
tp2671
a(S'CONCLUSION'
p2672
S'CONCLUSION'
p2673
S'NN'
p2674
S'B-NP'
p2675
g5
tp2676
a(S'In'
p2677
S'In'
p2678
S'IN'
p2679
S'B-PP'
p2680
g5
tp2681
a(S'this'
p2682
S'this'
p2683
S'DT'
p2684
S'B-NP'
p2685
g5
tp2686
a(S'study'
p2687
S'study'
p2688
S'NN'
p2689
S'I-NP'
p2690
g5
tp2691
a(g83
g83
g83
g5
g5
tp2692
a(S'efficacy'
p2693
S'efficacy'
p2694
S'NN'
p2695
S'B-NP'
p2696
g5
tp2697
a(S'and'
p2698
S'and'
p2699
S'CC'
p2700
S'I-NP'
p2701
g5
tp2702
a(S'tolerability'
p2703
S'tolerability'
p2704
S'NN'
p2705
S'I-NP'
p2706
g5
tp2707
a(S'were'
p2708
S'be'
p2709
S'VBD'
p2710
S'B-VP'
p2711
g5
tp2712
a(S'comparable'
p2713
S'comparable'
p2714
S'JJ'
p2715
S'B-ADJP'
p2716
g5
tp2717
a(S'between'
p2718
S'between'
p2719
S'IN'
p2720
S'B-PP'
p2721
g5
tp2722
a(S'C/A'
p2723
S'C/A'
p2724
S'NN'
p2725
S'B-NP'
p2726
S'B-protein'
p2727
tp2728
a(S'and'
p2729
S'and'
p2730
S'CC'
p2731
S'I-NP'
p2732
g5
tp2733
a(S'H/A'
p2734
S'H/A'
p2735
S'NN'
p2736
S'I-NP'
p2737
g5
tp2738
a(S'over'
p2739
S'over'
p2740
S'IN'
p2741
S'B-PP'
p2742
g5
tp2743
a(S'23'
p2744
S'23'
p2745
S'CD'
p2746
S'B-NP'
p2747
g5
tp2748
a(S'days'
p2749
S'day'
p2750
S'NNS'
p2751
S'I-NP'
p2752
g5
tp2753
a(S'of'
p2754
S'of'
p2755
S'IN'
p2756
S'B-PP'
p2757
g5
tp2758
a(S'treatment'
p2759
S'treatment'
p2760
S'NN'
p2761
S'B-NP'
p2762
g5
tp2763
a(S'in'
p2764
S'in'
p2765
S'IN'
p2766
S'B-PP'
p2767
g5
tp2768
a(S'these'
p2769
S'these'
p2770
S'DT'
p2771
S'B-NP'
p2772
g5
tp2773
a(S'patients'
p2774
S'patient'
p2775
S'NNS'
p2776
S'I-NP'
p2777
g5
tp2778
a(S'with'
p2779
S'with'
p2780
S'IN'
p2781
S'B-PP'
p2782
g5
tp2783
a(S'moderate'
p2784
S'moderate'
p2785
S'JJ'
p2786
S'B-NP'
p2787
g5
tp2788
a(S'or'
p2789
S'or'
p2790
S'CC'
p2791
S'I-NP'
p2792
g5
tp2793
a(S'severe'
p2794
S'severe'
p2795
S'JJ'
p2796
S'I-NP'
p2797
g5
tp2798
a(g83
g83
g83
S'I-NP'
p2799
g5
tp2800
a(S'chronic'
p2801
S'chronic'
p2802
S'JJ'
p2803
S'I-NP'
p2804
g5
tp2805
a(g83
g83
g83
S'I-NP'
p2806
g5
tp2807
a(S'cancer-related'
p2808
S'cancer-related'
p2809
S'JJ'
p2810
S'I-NP'
p2811
S'B-protein'
p2812
tp2813
a(S'pain'
p2814
S'pain'
p2815
S'NN'
p2816
S'I-NP'
p2817
S'I-protein'
p2818
tp2819
a(g117
g117
g117
g5
g5
tp2820
a.