(lp0
(S'Gabapentin'
p1
S'Gabapentin'
p2
S'NN'
p3
S'B-NP'
p4
S'B-protein'
p5
tp6
a(S'for'
p7
S'for'
p8
S'IN'
p9
S'B-PP'
p10
S'O'
p11
tp12
a(S'the'
p13
S'the'
p14
S'DT'
p15
S'B-NP'
p16
g11
tp17
a(S'prevention'
p18
S'prevention'
p19
S'NN'
p20
S'I-NP'
p21
g11
tp22
a(S'of'
p23
S'of'
p24
S'IN'
p25
S'B-PP'
p26
g11
tp27
a(S'postoperative'
p28
S'postoperative'
p29
S'JJ'
p30
S'B-NP'
p31
g11
tp32
a(S'pain'
p33
S'pain'
p34
S'NN'
p35
S'I-NP'
p36
g11
tp37
a(S'after'
p38
S'after'
p39
S'IN'
p40
S'B-PP'
p41
g11
tp42
a(S'vaginal'
p43
S'vaginal'
p44
S'JJ'
p45
S'B-NP'
p46
g11
tp47
a(S'hysterectomy'
p48
S'hysterectomy'
p49
S'NN'
p50
S'I-NP'
p51
g11
tp52
a(S'.'
p53
g53
g53
g11
g11
tp54
a(S'Gabapentin'
p55
S'Gabapentin'
p56
S'NN'
p57
S'B-NP'
p58
S'B-protein'
p59
tp60
a(S'alleviates'
p61
S'alleviate'
p62
S'VBZ'
p63
S'B-VP'
p64
g11
tp65
a(S'and/or'
p66
S'and/or'
p67
S'CC'
p68
S'I-VP'
p69
g11
tp70
a(S'prevents'
p71
S'prevent'
p72
S'VBZ'
p73
S'I-VP'
p74
g11
tp75
a(S'acute'
p76
S'acute'
p77
S'JJ'
p78
S'B-NP'
p79
g11
tp80
a(S'nociceptive'
p81
S'nociceptive'
p82
S'JJ'
p83
S'I-NP'
p84
g11
tp85
a(S'and'
p86
S'and'
p87
S'CC'
p88
S'I-NP'
p89
g11
tp90
a(S'inflammatory'
p91
S'inflammatory'
p92
S'JJ'
p93
S'I-NP'
p94
g11
tp95
a(S'pain'
p96
S'pain'
p97
S'NN'
p98
S'I-NP'
p99
g11
tp100
a(S'both'
p101
S'both'
p102
S'CC'
p103
S'B-PP'
p104
g11
tp105
a(S'in'
p106
S'in'
p107
S'IN'
p108
S'B-PP'
p109
g11
tp110
a(S'animals'
p111
S'animal'
p112
S'NNS'
p113
S'B-NP'
p114
g11
tp115
a(S'and'
p116
S'and'
p117
S'CC'
p118
S'I-NP'
p119
g11
tp120
a(S'volunteers'
p121
S'volunteer'
p122
S'NNS'
p123
S'I-NP'
p124
g11
tp125
a(S','
p126
g126
g126
g11
g11
tp127
a(S'especially'
p128
S'especially'
p129
S'RB'
p130
S'B-ADVP'
p131
g11
tp132
a(S'when'
p133
S'when'
p134
S'WRB'
p135
S'B-ADVP'
p136
g11
tp137
a(S'given'
p138
S'give'
p139
S'VBN'
p140
S'B-PP'
p141
g11
tp142
a(S'before'
p143
S'before'
p144
S'IN'
p145
S'B-PP'
p146
g11
tp147
a(S'trauma.'
p148
S'trauma.'
p149
S'NN'
p150
S'B-NP'
p151
S'B-protein'
p152
tp153
a(S'Gabapentin'
p154
S'Gabapentin'
p155
S'NN'
p156
S'I-NP'
p157
S'I-protein'
p158
tp159
a(S'might'
p160
S'might'
p161
S'MD'
p162
S'B-VP'
p163
g11
tp164
a(S'also'
p165
S'also'
p166
S'RB'
p167
S'I-VP'
p168
g11
tp169
a(S'reduce'
p170
S'reduce'
p171
S'VB'
p172
S'I-VP'
p173
g11
tp174
a(S'postoperative'
p175
S'postoperative'
p176
S'JJ'
p177
S'B-NP'
p178
g11
tp179
a(S'pain.'
p180
S'pain.'
p181
S'NN'
p182
S'I-NP'
p183
g11
tp184
a(S'To'
p185
S'To'
p186
S'TO'
p187
S'B-VP'
p188
g11
tp189
a(S'test'
p190
S'test'
p191
S'VB'
p192
S'I-VP'
p193
g11
tp194
a(S'the'
p195
S'the'
p196
S'DT'
p197
S'B-NP'
p198
g11
tp199
a(S'hypothesis'
p200
S'hypothesis'
p201
S'NN'
p202
S'I-NP'
p203
g11
tp204
a(S'that'
p205
S'that'
p206
S'IN'
p207
S'B-SBAR'
p208
g11
tp209
a(S'gabapentin'
p210
S'gabapentin'
p211
S'NN'
p212
S'B-NP'
p213
S'B-protein'
p214
tp215
a(S'reduces'
p216
S'reduce'
p217
S'VBZ'
p218
S'B-VP'
p219
g11
tp220
a(S'the'
p221
S'the'
p222
S'DT'
p223
S'B-NP'
p224
g11
tp225
a(S'postoperative'
p226
S'postoperative'
p227
S'JJ'
p228
S'I-NP'
p229
g11
tp230
a(S'need'
p231
S'need'
p232
S'NN'
p233
S'I-NP'
p234
g11
tp235
a(S'for'
p236
S'for'
p237
S'IN'
p238
S'B-PP'
p239
g11
tp240
a(S'additional'
p241
S'additional'
p242
S'JJ'
p243
S'B-NP'
p244
g11
tp245
a(S'pain'
p246
S'pain'
p247
S'NN'
p248
S'I-NP'
p249
g11
tp250
a(S'treatment'
p251
S'treatment'
p252
S'NN'
p253
S'I-NP'
p254
g11
tp255
a(S'('
p256
g256
g256
g11
g11
tp257
a(S'postoperative'
p258
S'postoperative'
p259
S'JJ'
p260
S'B-NP'
p261
g11
tp262
a(S'opioid'
p263
S'opioid'
p264
S'JJ'
p265
S'I-NP'
p266
g11
tp267
a(S'sparing'
p268
S'sparing'
p269
S'JJ'
p270
S'I-NP'
p271
g11
tp272
a(S'effect'
p273
S'effect'
p274
S'NN'
p275
S'I-NP'
p276
g11
tp277
a(S'of'
p278
S'of'
p279
S'IN'
p280
S'B-PP'
p281
g11
tp282
a(S'gabapentin'
p283
S'gabapentin'
p284
S'NN'
p285
S'B-NP'
p286
S'B-protein'
p287
tp288
a(S'in'
p289
S'in'
p290
S'IN'
p291
S'B-PP'
p292
g11
tp293
a(S'humans'
p294
S'human'
p295
S'NNS'
p296
S'B-NP'
p297
g11
tp298
a(S')'
p299
g299
g299
g11
g11
tp300
a(g126
g126
g126
g11
g11
tp301
a(S'we'
p302
S'we'
p303
S'PRP'
p304
S'B-NP'
p305
g11
tp306
a(S'gave'
p307
S'give'
p308
S'VBD'
p309
S'B-VP'
p310
g11
tp311
a(S'1200'
p312
S'1200'
p313
S'CD'
p314
S'B-NP'
p315
g11
tp316
a(S'mg'
p317
S'mg'
p318
S'NN'
p319
S'I-NP'
p320
g11
tp321
a(S'of'
p322
S'of'
p323
S'IN'
p324
S'B-PP'
p325
g11
tp326
a(S'gabapentin'
p327
S'gabapentin'
p328
S'NN'
p329
S'B-NP'
p330
S'B-protein'
p331
tp332
a(S'or'
p333
S'or'
p334
S'CC'
p335
g11
g11
tp336
a(S'15'
p337
S'15'
p338
S'CD'
p339
S'B-NP'
p340
g11
tp341
a(S'mg'
p342
S'mg'
p343
S'NN'
p344
S'I-NP'
p345
g11
tp346
a(S'of'
p347
S'of'
p348
S'IN'
p349
S'B-PP'
p350
g11
tp351
a(S'oxazepam'
p352
S'oxazepam'
p353
S'NN'
p354
S'B-NP'
p355
g11
tp356
a(g256
g256
g256
g11
g11
tp357
a(S'active'
p358
S'active'
p359
S'JJ'
p360
S'B-NP'
p361
g11
tp362
a(S'placebo'
p363
S'placebo'
p364
S'NN'
p365
S'I-NP'
p366
g11
tp367
a(g299
g299
g299
g11
g11
tp368
a(S'2.5'
p369
S'2.5'
p370
S'CD'
p371
S'B-NP'
p372
g11
tp373
a(S'h'
p374
g374
S'NN'
p375
S'I-NP'
p376
g11
tp377
a(S'prior'
p378
S'prior'
p379
S'JJ'
p380
S'B-ADJP'
p381
g11
tp382
a(S'to'
p383
S'to'
p384
S'TO'
p385
S'B-PP'
p386
g11
tp387
a(S'induction'
p388
S'induction'
p389
S'NN'
p390
S'B-NP'
p391
g11
tp392
a(S'of'
p393
S'of'
p394
S'IN'
p395
S'B-PP'
p396
g11
tp397
a(S'anaesthesia'
p398
S'anaesthesia'
p399
S'NN'
p400
S'B-NP'
p401
g11
tp402
a(S'to'
p403
S'to'
p404
S'TO'
p405
S'B-PP'
p406
g11
tp407
a(S'patients'
p408
S'patient'
p409
S'NNS'
p410
S'B-NP'
p411
g11
tp412
a(S'undergoing'
p413
S'undergo'
p414
S'VBG'
p415
S'B-VP'
p416
g11
tp417
a(S'elective'
p418
S'elective'
p419
S'JJ'
p420
S'B-NP'
p421
g11
tp422
a(S'vaginal'
p423
S'vaginal'
p424
S'JJ'
p425
S'I-NP'
p426
g11
tp427
a(S'hysterectomy'
p428
S'hysterectomy'
p429
S'NN'
p430
S'I-NP'
p431
g11
tp432
a(S'in'
p433
S'in'
p434
S'IN'
p435
S'B-PP'
p436
g11
tp437
a(S'an'
p438
S'an'
p439
S'DT'
p440
S'B-NP'
p441
g11
tp442
a(S'active'
p443
S'active'
p444
S'JJ'
p445
S'I-NP'
p446
g11
tp447
a(S'placebo-controlled'
p448
S'placebo-controlled'
p449
S'JJ'
p450
S'I-NP'
p451
g11
tp452
a(g126
g126
g126
S'I-NP'
p453
g11
tp454
a(S'double'
p455
S'double'
p456
S'JJ'
p457
S'I-NP'
p458
g11
tp459
a(S'blind'
p460
S'blind'
p461
S'JJ'
p462
S'I-NP'
p463
g11
tp464
a(g126
g126
g126
S'I-NP'
p465
g11
tp466
a(S'randomised'
p467
S'randomise'
p468
S'VBN'
p469
S'I-NP'
p470
S'B-protein'
p471
tp472
a(S'study.'
p473
S'study.'
p474
S'NN'
p475
S'I-NP'
p476
S'I-protein'
p477
tp478
a(S'Gabapentin'
p479
S'Gabapentin'
p480
S'NN'
p481
S'I-NP'
p482
S'I-protein'
p483
tp484
a(S'reduced'
p485
S'reduce'
p486
S'VBD'
p487
S'B-VP'
p488
g11
tp489
a(S'the'
p490
S'the'
p491
S'DT'
p492
S'B-NP'
p493
g11
tp494
a(S'need'
p495
S'need'
p496
S'NN'
p497
S'I-NP'
p498
g11
tp499
a(S'for'
p500
S'for'
p501
S'IN'
p502
S'B-PP'
p503
g11
tp504
a(S'additional'
p505
S'additional'
p506
S'JJ'
p507
S'B-NP'
p508
g11
tp509
a(S'postoperative'
p510
S'postoperative'
p511
S'JJ'
p512
S'I-NP'
p513
g11
tp514
a(S'pain'
p515
S'pain'
p516
S'NN'
p517
S'I-NP'
p518
g11
tp519
a(S'treatment'
p520
S'treatment'
p521
S'NN'
p522
S'I-NP'
p523
g11
tp524
a(g256
g256
g256
g11
g11
tp525
a(S'PCA'
p526
S'PCA'
p527
S'NN'
p528
S'B-NP'
p529
g11
tp530
a(S'boluses'
p531
S'bolus'
p532
S'NNS'
p533
S'I-NP'
p534
g11
tp535
a(S'of'
p536
S'of'
p537
S'IN'
p538
S'B-PP'
p539
g11
tp540
a(S'50'
p541
S'50'
p542
S'CD'
p543
S'B-NP'
p544
g11
tp545
a(S'microg'
p546
S'microg'
p547
S'NN'
p548
S'I-NP'
p549
g11
tp550
a(S'of'
p551
S'of'
p552
S'IN'
p553
S'B-PP'
p554
g11
tp555
a(S'fentanyl'
p556
S'fentanyl'
p557
S'NN'
p558
S'B-NP'
p559
g11
tp560
a(g299
g299
g299
g11
g11
tp561
a(S'by'
p562
S'by'
p563
S'IN'
p564
S'B-PP'
p565
g11
tp566
a(S'40'
p567
S'40'
p568
S'CD'
p569
S'B-NP'
p570
g11
tp571
a(S'%'
p572
g572
S'NN'
p573
S'I-NP'
p574
g11
tp575
a(S'during'
p576
S'during'
p577
S'IN'
p578
S'B-PP'
p579
g11
tp580
a(S'the'
p581
S'the'
p582
S'DT'
p583
S'B-NP'
p584
g11
tp585
a(S'first'
p586
S'first'
p587
S'JJ'
p588
S'I-NP'
p589
g11
tp590
a(S'20'
p591
S'20'
p592
S'CD'
p593
S'I-NP'
p594
g11
tp595
a(S'postoperative'
p596
S'postoperative'
p597
S'JJ'
p598
S'I-NP'
p599
g11
tp600
a(S'hours.'
p601
S'hours.'
p602
S'NNS'
p603
S'I-NP'
p604
g11
tp605
a(S'During'
p606
S'During'
p607
S'IN'
p608
S'B-PP'
p609
g11
tp610
a(S'the'
p611
S'the'
p612
S'DT'
p613
S'B-NP'
p614
g11
tp615
a(S'first'
p616
S'first'
p617
S'JJ'
p618
S'I-NP'
p619
g11
tp620
a(S'2'
p621
g621
S'CD'
p622
S'I-NP'
p623
g11
tp624
a(S'postoperative'
p625
S'postoperative'
p626
S'JJ'
p627
S'I-NP'
p628
g11
tp629
a(S'hours'
p630
S'hour'
p631
S'NNS'
p632
S'I-NP'
p633
g11
tp634
a(S'pain'
p635
S'pain'
p636
S'VBP'
p637
S'B-VP'
p638
g11
tp639
a(S'scores'
p640
S'score'
p641
S'NNS'
p642
S'B-NP'
p643
g11
tp644
a(S'at'
p645
S'at'
p646
S'IN'
p647
S'B-PP'
p648
g11
tp649
a(S'rest'
p650
S'rest'
p651
S'NN'
p652
S'B-NP'
p653
g11
tp654
a(S'and'
p655
S'and'
p656
S'CC'
p657
g11
g11
tp658
a(S'worst'
p659
S'worst'
p660
S'JJS'
p661
S'B-NP'
p662
g11
tp663
a(S'pain'
p664
S'pain'
p665
S'NN'
p666
S'I-NP'
p667
g11
tp668
a(S'score'
p669
S'score'
p670
S'NN'
p671
S'I-NP'
p672
g11
tp673
a(g256
g256
g256
g11
g11
tp674
a(S'VAS'
p675
S'VAS'
p676
S'NN'
p677
S'B-NP'
p678
g11
tp679
a(S'0-100'
p680
S'0-100'
p681
S'CD'
p682
S'I-NP'
p683
g11
tp684
a(S'mm'
p685
S'mm'
p686
S'NN'
p687
S'I-NP'
p688
g11
tp689
a(g299
g299
g299
g11
g11
tp690
a(S'were'
p691
S'be'
p692
S'VBD'
p693
S'B-VP'
p694
g11
tp695
a(S'significantly'
p696
S'significantly'
p697
S'RB'
p698
S'B-ADJP'
p699
g11
tp700
a(S'higher'
p701
S'high'
p702
S'JJR'
p703
S'I-ADJP'
p704
g11
tp705
a(S'in'
p706
S'in'
p707
S'IN'
p708
S'B-PP'
p709
g11
tp710
a(S'the'
p711
S'the'
p712
S'DT'
p713
S'B-NP'
p714
g11
tp715
a(S'active'
p716
S'active'
p717
S'JJ'
p718
S'I-NP'
p719
g11
tp720
a(S'placebo'
p721
S'placebo'
p722
S'NN'
p723
S'I-NP'
p724
g11
tp725
a(S'group'
p726
S'group'
p727
S'NN'
p728
S'I-NP'
p729
g11
tp730
a(S'compared'
p731
S'compare'
p732
S'VBN'
p733
S'B-VP'
p734
g11
tp735
a(S'to'
p736
S'to'
p737
S'TO'
p738
S'B-PP'
p739
g11
tp740
a(S'the'
p741
S'the'
p742
S'DT'
p743
S'B-NP'
p744
g11
tp745
a(S'gabapentin-treated'
p746
S'gabapentin-treated'
p747
S'JJ'
p748
S'I-NP'
p749
g11
tp750
a(S'patients.'
p751
S'patients.'
p752
S'NN'
p753
S'I-NP'
p754
g11
tp755
a(S'Additionally'
p756
S'Additionally'
p757
S'RB'
p758
S'B-ADVP'
p759
g11
tp760
a(g126
g126
g126
g11
g11
tp761
a(S'pretreatment'
p762
S'pretreatment'
p763
S'NN'
p764
S'B-NP'
p765
g11
tp766
a(S'with'
p767
S'with'
p768
S'IN'
p769
S'B-PP'
p770
g11
tp771
a(S'gabapentin'
p772
S'gabapentin'
p773
S'NN'
p774
S'B-NP'
p775
S'B-protein'
p776
tp777
a(S'reduced'
p778
S'reduce'
p779
S'VBD'
p780
S'B-VP'
p781
g11
tp782
a(S'the'
p783
S'the'
p784
S'DT'
p785
S'B-NP'
p786
g11
tp787
a(S'degree'
p788
S'degree'
p789
S'NN'
p790
S'I-NP'
p791
g11
tp792
a(S'of'
p793
S'of'
p794
S'IN'
p795
S'B-PP'
p796
g11
tp797
a(S'postoperative'
p798
S'postoperative'
p799
S'JJ'
p800
S'B-NP'
p801
g11
tp802
a(S'nausea'
p803
S'nausea'
p804
S'NN'
p805
S'I-NP'
p806
g11
tp807
a(S'and'
p808
S'and'
p809
S'CC'
p810
S'I-NP'
p811
g11
tp812
a(S'incidence'
p813
S'incidence'
p814
S'NN'
p815
S'I-NP'
p816
g11
tp817
a(S'of'
p818
S'of'
p819
S'IN'
p820
S'B-PP'
p821
g11
tp822
a(S'vomiting/retching'
p823
S'vomiting/retche'
p824
S'VBG'
p825
S'B-VP'
p826
g11
tp827
a(S'possibly'
p828
S'possibly'
p829
S'RB'
p830
S'B-ADVP'
p831
g11
tp832
a(S'either'
p833
S'either'
p834
S'RB'
p835
S'B-ADVP'
p836
g11
tp837
a(S'due'
p838
S'due'
p839
S'JJ'
p840
S'B-ADVP'
p841
g11
tp842
a(S'to'
p843
S'to'
p844
S'TO'
p845
S'B-PP'
p846
g11
tp847
a(S'the'
p848
S'the'
p849
S'DT'
p850
S'B-NP'
p851
g11
tp852
a(S'diminished'
p853
S'diminish'
p854
S'VBN'
p855
S'I-NP'
p856
g11
tp857
a(S'need'
p858
S'need'
p859
S'NN'
p860
S'I-NP'
p861
g11
tp862
a(S'for'
p863
S'for'
p864
S'IN'
p865
S'B-PP'
p866
g11
tp867
a(S'postoperative'
p868
S'postoperative'
p869
S'JJ'
p870
S'B-NP'
p871
g11
tp872
a(S'pain'
p873
S'pain'
p874
S'NN'
p875
S'I-NP'
p876
g11
tp877
a(S'treatment'
p878
S'treatment'
p879
S'NN'
p880
S'I-NP'
p881
g11
tp882
a(S'with'
p883
S'with'
p884
S'IN'
p885
S'B-PP'
p886
g11
tp887
a(S'opioids'
p888
S'opioid'
p889
S'NNS'
p890
S'B-NP'
p891
g11
tp892
a(S'or'
p893
S'or'
p894
S'CC'
p895
S'B-PP'
p896
g11
tp897
a(S'because'
p898
S'because'
p899
S'IN'
p900
S'B-PP'
p901
g11
tp902
a(S'of'
p903
S'of'
p904
S'IN'
p905
S'I-PP'
p906
g11
tp907
a(S'an'
p908
S'an'
p909
S'DT'
p910
S'B-NP'
p911
g11
tp912
a(S'anti-emetic'
p913
S'anti-emetic'
p914
S'JJ'
p915
S'I-NP'
p916
g11
tp917
a(S'effect'
p918
S'effect'
p919
S'NN'
p920
S'I-NP'
p921
g11
tp922
a(S'of'
p923
S'of'
p924
S'IN'
p925
S'B-PP'
p926
g11
tp927
a(S'gabapentin'
p928
S'gabapentin'
p929
S'NN'
p930
S'B-NP'
p931
S'B-protein'
p932
tp933
a(S'itself.'
p934
S'itself.'
p935
S'PRP$'
p936
S'B-NP'
p937
g11
tp938
a(S'No'
p939
S'No'
p940
S'DT'
p941
S'I-NP'
p942
g11
tp943
a(S'preoperative'
p944
S'preoperative'
p945
S'JJ'
p946
S'I-NP'
p947
g11
tp948
a(S'differences'
p949
S'difference'
p950
S'NNS'
p951
S'I-NP'
p952
g11
tp953
a(S'between'
p954
S'between'
p955
S'IN'
p956
S'B-PP'
p957
g11
tp958
a(S'the'
p959
S'the'
p960
S'DT'
p961
S'B-NP'
p962
g11
tp963
a(S'two'
p964
S'two'
p965
S'CD'
p966
S'I-NP'
p967
g11
tp968
a(S'groups'
p969
S'group'
p970
S'NNS'
p971
S'I-NP'
p972
g11
tp973
a(S'were'
p974
S'be'
p975
S'VBD'
p976
S'B-VP'
p977
g11
tp978
a(S'encountered'
p979
S'encounter'
p980
S'VBN'
p981
S'I-VP'
p982
g11
tp983
a(S'with'
p984
S'with'
p985
S'IN'
p986
S'B-PP'
p987
g11
tp988
a(S'respect'
p989
S'respect'
p990
S'NN'
p991
S'B-NP'
p992
g11
tp993
a(S'to'
p994
S'to'
p995
S'TO'
p996
S'B-PP'
p997
g11
tp998
a(S'the'
p999
S'the'
p1000
S'DT'
p1001
S'B-NP'
p1002
g11
tp1003
a(S'side'
p1004
S'side'
p1005
S'NN'
p1006
S'I-NP'
p1007
g11
tp1008
a(S'effects'
p1009
S'effect'
p1010
S'NNS'
p1011
S'I-NP'
p1012
g11
tp1013
a(S'of'
p1014
S'of'
p1015
S'IN'
p1016
S'B-PP'
p1017
g11
tp1018
a(S'the'
p1019
S'the'
p1020
S'DT'
p1021
S'B-NP'
p1022
g11
tp1023
a(S'premedication.'
p1024
S'premedication.'
p1025
S'NN'
p1026
S'I-NP'
p1027
g11
tp1028
a(S'However'
p1029
S'However'
p1030
S'RB'
p1031
S'B-ADVP'
p1032
g11
tp1033
a(g126
g126
g126
g11
g11
tp1034
a(S'15'
p1035
S'15'
p1036
S'CD'
p1037
S'B-NP'
p1038
g11
tp1039
a(S'mg'
p1040
S'mg'
p1041
S'NN'
p1042
S'I-NP'
p1043
g11
tp1044
a(S'oxazepam'
p1045
S'oxazepam'
p1046
S'NN'
p1047
S'I-NP'
p1048
g11
tp1049
a(S'was'
p1050
S'be'
p1051
S'VBD'
p1052
S'B-VP'
p1053
g11
tp1054
a(S'more'
p1055
S'more'
p1056
S'RBR'
p1057
S'B-ADJP'
p1058
g11
tp1059
a(S'effective'
p1060
S'effective'
p1061
S'JJ'
p1062
S'I-ADJP'
p1063
g11
tp1064
a(S'in'
p1065
S'in'
p1066
S'IN'
p1067
S'B-PP'
p1068
g11
tp1069
a(S'relieving'
p1070
S'relieve'
p1071
S'VBG'
p1072
S'B-VP'
p1073
g11
tp1074
a(S'preoperative'
p1075
S'preoperative'
p1076
S'JJ'
p1077
S'B-NP'
p1078
g11
tp1079
a(S'anxiety'
p1080
S'anxiety'
p1081
S'NN'
p1082
S'I-NP'
p1083
g11
tp1084
a(S'than'
p1085
S'than'
p1086
S'IN'
p1087
S'B-PP'
p1088
g11
tp1089
a(S'1200'
p1090
S'1200'
p1091
S'CD'
p1092
S'B-NP'
p1093
g11
tp1094
a(S'mg'
p1095
S'mg'
p1096
S'NN'
p1097
S'I-NP'
p1098
g11
tp1099
a(S'gabapentin'
p1100
S'gabapentin'
p1101
S'NN'
p1102
S'I-NP'
p1103
g11
tp1104
a(g53
g53
g53
g11
g11
tp1105
a.