(lp0
(S'A'
p1
g1
S'DT'
p2
S'B-NP'
p3
S'O'
p4
tp5
a(S'comparative'
p6
S'comparative'
p7
S'JJ'
p8
S'I-NP'
p9
g4
tp10
a(S'study'
p11
S'study'
p12
S'NN'
p13
S'I-NP'
p14
g4
tp15
a(S'of'
p16
S'of'
p17
S'IN'
p18
S'B-PP'
p19
g4
tp20
a(S'the'
p21
S'the'
p22
S'DT'
p23
S'B-NP'
p24
g4
tp25
a(S'effects'
p26
S'effect'
p27
S'NNS'
p28
S'I-NP'
p29
g4
tp30
a(S'of'
p31
S'of'
p32
S'IN'
p33
S'B-PP'
p34
g4
tp35
a(S'local'
p36
S'local'
p37
S'JJ'
p38
S'B-NP'
p39
g4
tp40
a(S'estrogen'
p41
S'estrogen'
p42
S'NN'
p43
S'I-NP'
p44
g4
tp45
a(S'with'
p46
S'with'
p47
S'IN'
p48
S'B-PP'
p49
g4
tp50
a(S'or'
p51
S'or'
p52
S'CC'
p53
S'B-PP'
p54
g4
tp55
a(S'without'
p56
S'without'
p57
S'IN'
p58
S'B-PP'
p59
g4
tp60
a(S'local'
p61
S'local'
p62
S'JJ'
p63
S'B-NP'
p64
g4
tp65
a(S'testosterone'
p66
S'testosterone'
p67
S'NN'
p68
S'I-NP'
p69
g4
tp70
a(S'on'
p71
S'on'
p72
S'IN'
p73
S'B-PP'
p74
g4
tp75
a(S'vulvovaginal'
p76
S'vulvovaginal'
p77
S'JJ'
p78
S'B-NP'
p79
g4
tp80
a(S'and'
p81
S'and'
p82
S'CC'
p83
S'I-NP'
p84
g4
tp85
a(S'sexual'
p86
S'sexual'
p87
S'JJ'
p88
S'I-NP'
p89
g4
tp90
a(S'dysfunction'
p91
S'dysfunction'
p92
S'NN'
p93
S'I-NP'
p94
g4
tp95
a(S'in'
p96
S'in'
p97
S'IN'
p98
S'B-PP'
p99
g4
tp100
a(S'postmenopausal'
p101
S'postmenopausal'
p102
S'JJ'
p103
S'B-NP'
p104
g4
tp105
a(S'women'
p106
S'woman'
p107
S'NNS'
p108
S'I-NP'
p109
g4
tp110
a(S'.'
p111
g111
g111
g4
g4
tp112
a(S'INTRODUCTION'
p113
S'INTRODUCTION'
p114
S'NN'
p115
S'B-NP'
p116
g4
tp117
a(g1
g1
S'DT'
p118
S'B-NP'
p119
g4
tp120
a(S'significant'
p121
S'significant'
p122
S'JJ'
p123
S'I-NP'
p124
g4
tp125
a(S'number'
p126
S'number'
p127
S'NN'
p128
S'I-NP'
p129
g4
tp130
a(S'of'
p131
S'of'
p132
S'IN'
p133
S'B-PP'
p134
g4
tp135
a(S'postmenopausal'
p136
S'postmenopausal'
p137
S'JJ'
p138
S'B-NP'
p139
g4
tp140
a(S'women'
p141
S'woman'
p142
S'NNS'
p143
S'I-NP'
p144
g4
tp145
a(S'suffer'
p146
S'suffer'
p147
S'VBP'
p148
S'B-VP'
p149
g4
tp150
a(S'from'
p151
S'from'
p152
S'IN'
p153
S'B-PP'
p154
g4
tp155
a(S'distressing'
p156
S'distressing'
p157
S'JJ'
p158
S'B-NP'
p159
g4
tp160
a(S'problems'
p161
S'problem'
p162
S'NNS'
p163
S'I-NP'
p164
g4
tp165
a(S'because'
p166
S'because'
p167
S'IN'
p168
S'B-PP'
p169
g4
tp170
a(S'of'
p171
S'of'
p172
S'IN'
p173
S'I-PP'
p174
g4
tp175
a(S'urogenital'
p176
S'urogenital'
p177
S'JJ'
p178
S'B-NP'
p179
g4
tp180
a(S'atrophy'
p181
S'atrophy'
p182
S'NN'
p183
S'I-NP'
p184
g4
tp185
a(S'secondary'
p186
S'secondary'
p187
S'JJ'
p188
S'B-ADJP'
p189
g4
tp190
a(S'to'
p191
S'to'
p192
S'TO'
p193
S'B-PP'
p194
g4
tp195
a(S'the'
p196
S'the'
p197
S'DT'
p198
S'B-NP'
p199
g4
tp200
a(S'decline'
p201
S'decline'
p202
S'NN'
p203
S'I-NP'
p204
g4
tp205
a(S'in'
p206
S'in'
p207
S'IN'
p208
S'B-PP'
p209
g4
tp210
a(S'circulating'
p211
S'circulate'
p212
S'VBG'
p213
S'B-VP'
p214
g4
tp215
a(S'estrogen'
p216
S'estrogen'
p217
S'NN'
p218
S'B-NP'
p219
g4
tp220
a(S'levels.'
p221
S'levels.'
p222
S'NN'
p223
S'I-NP'
p224
g4
tp225
a(S'Treatment'
p226
S'Treatment'
p227
S'NN'
p228
S'I-NP'
p229
g4
tp230
a(S'with'
p231
S'with'
p232
S'IN'
p233
S'B-PP'
p234
g4
tp235
a(S'topical'
p236
S'topical'
p237
S'JJ'
p238
S'B-NP'
p239
g4
tp240
a(S'hormones'
p241
S'hormone'
p242
S'NNS'
p243
S'I-NP'
p244
g4
tp245
a(S'may'
p246
S'may'
p247
S'MD'
p248
S'B-VP'
p249
g4
tp250
a(S'provide'
p251
S'provide'
p252
S'VB'
p253
S'I-VP'
p254
g4
tp255
a(S'relief'
p256
S'relief'
p257
S'NN'
p258
S'B-NP'
p259
g4
tp260
a(S'in'
p261
S'in'
p262
S'IN'
p263
S'B-PP'
p264
g4
tp265
a(S'such'
p266
S'such'
p267
S'JJ'
p268
S'B-NP'
p269
g4
tp270
a(S'women'
p271
S'woman'
p272
S'NNS'
p273
S'I-NP'
p274
g4
tp275
a(S'when'
p276
S'when'
p277
S'WRB'
p278
S'B-ADVP'
p279
g4
tp280
a(S'used'
p281
S'use'
p282
S'VBN'
p283
S'B-VP'
p284
g4
tp285
a(S'judiciously'
p286
S'judiciously'
p287
S'RB'
p288
S'B-ADVP'
p289
g4
tp290
a(g111
g111
g111
g4
g4
tp291
a(S'AIM'
p292
S'AIM'
p293
S'NN'
p294
S'B-NP'
p295
g4
tp296
a(S'To'
p297
S'To'
p298
S'TO'
p299
S'B-VP'
p300
g4
tp301
a(S'study'
p302
S'study'
p303
S'VB'
p304
S'I-VP'
p305
g4
tp306
a(S'the'
p307
S'the'
p308
S'DT'
p309
S'B-NP'
p310
g4
tp311
a(S'effects'
p312
S'effect'
p313
S'NNS'
p314
S'I-NP'
p315
g4
tp316
a(S'of'
p317
S'of'
p318
S'IN'
p319
S'B-PP'
p320
g4
tp321
a(S'local'
p322
S'local'
p323
S'JJ'
p324
S'B-NP'
p325
g4
tp326
a(S'estrogen'
p327
S'estrogen'
p328
S'NN'
p329
S'I-NP'
p330
g4
tp331
a(S'with'
p332
S'with'
p333
S'IN'
p334
S'B-PP'
p335
g4
tp336
a(S'or'
p337
S'or'
p338
S'CC'
p339
S'B-PP'
p340
g4
tp341
a(S'without'
p342
S'without'
p343
S'IN'
p344
S'B-PP'
p345
g4
tp346
a(S'local'
p347
S'local'
p348
S'JJ'
p349
S'B-NP'
p350
g4
tp351
a(S'testosterone'
p352
S'testosterone'
p353
S'NN'
p354
S'I-NP'
p355
g4
tp356
a(S'on'
p357
S'on'
p358
S'IN'
p359
S'B-PP'
p360
g4
tp361
a(S'urogenital'
p362
S'urogenital'
p363
S'JJ'
p364
S'B-NP'
p365
g4
tp366
a(S'and'
p367
S'and'
p368
S'CC'
p369
S'I-NP'
p370
g4
tp371
a(S'sexual'
p372
S'sexual'
p373
S'JJ'
p374
S'I-NP'
p375
g4
tp376
a(S'health'
p377
S'health'
p378
S'NN'
p379
S'I-NP'
p380
g4
tp381
a(S'in'
p382
S'in'
p383
S'IN'
p384
S'B-PP'
p385
g4
tp386
a(S'postmenopausal'
p387
S'postmenopausal'
p388
S'JJ'
p389
S'B-NP'
p390
g4
tp391
a(S'women'
p392
S'woman'
p393
S'NNS'
p394
S'I-NP'
p395
g4
tp396
a(g111
g111
g111
g4
g4
tp397
a(S'METHODS'
p398
S'METHODS'
p399
S'NNS'
p400
S'B-NP'
p401
g4
tp402
a(S'Seventy-five'
p403
S'Seventy-five'
p404
S'CD'
p405
S'B-NP'
p406
g4
tp407
a(S'postmenopausal'
p408
S'postmenopausal'
p409
S'JJ'
p410
S'I-NP'
p411
g4
tp412
a(S'women'
p413
S'woman'
p414
S'NNS'
p415
S'I-NP'
p416
g4
tp417
a(S'symptomatic'
p418
S'symptomatic'
p419
S'JJ'
p420
S'B-ADJP'
p421
g4
tp422
a(S'for'
p423
S'for'
p424
S'IN'
p425
S'B-PP'
p426
g4
tp427
a(S'urogenital'
p428
S'urogenital'
p429
S'JJ'
p430
S'B-NP'
p431
g4
tp432
a(S'atrophy'
p433
S'atrophy'
p434
S'NN'
p435
S'I-NP'
p436
g4
tp437
a(S'and'
p438
S'and'
p439
S'CC'
p440
g4
g4
tp441
a(S'sexual'
p442
S'sexual'
p443
S'JJ'
p444
S'B-NP'
p445
g4
tp446
a(S'dysfunction'
p447
S'dysfunction'
p448
S'NN'
p449
S'I-NP'
p450
g4
tp451
a(S'were'
p452
S'be'
p453
S'VBD'
p454
S'B-VP'
p455
g4
tp456
a(S'randomly'
p457
S'randomly'
p458
S'RB'
p459
S'I-VP'
p460
g4
tp461
a(S'divided'
p462
S'divide'
p463
S'VBN'
p464
S'I-VP'
p465
g4
tp466
a(S'into'
p467
S'into'
p468
S'IN'
p469
S'B-PP'
p470
g4
tp471
a(S'two'
p472
S'two'
p473
S'CD'
p474
S'B-NP'
p475
g4
tp476
a(S'study'
p477
S'study'
p478
S'NN'
p479
S'I-NP'
p480
g4
tp481
a(S'groups'
p482
S'group'
p483
S'NNS'
p484
S'I-NP'
p485
g4
tp486
a(S'and'
p487
S'and'
p488
S'CC'
p489
g4
g4
tp490
a(S'one'
p491
S'one'
p492
S'CD'
p493
S'B-NP'
p494
g4
tp495
a(S'control'
p496
S'control'
p497
S'NN'
p498
S'I-NP'
p499
g4
tp500
a(S'group.'
p501
S'group.'
p502
S'NN'
p503
S'I-NP'
p504
g4
tp505
a(S'The'
p506
S'The'
p507
S'DT'
p508
S'B-NP'
p509
g4
tp510
a(S'women'
p511
S'woman'
p512
S'NNS'
p513
S'I-NP'
p514
g4
tp515
a(S'in'
p516
S'in'
p517
S'IN'
p518
S'B-PP'
p519
g4
tp520
a(S'study'
p521
S'study'
p522
S'NN'
p523
S'B-NP'
p524
g4
tp525
a(S'group'
p526
S'group'
p527
S'NN'
p528
S'I-NP'
p529
g4
tp530
a(S'1'
p531
g531
S'CD'
p532
S'I-NP'
p533
g4
tp534
a(S'received'
p535
S'receive'
p536
S'VBD'
p537
S'B-VP'
p538
g4
tp539
a(S'local'
p540
S'local'
p541
S'JJ'
p542
S'B-NP'
p543
g4
tp544
a(S'estrogen'
p545
S'estrogen'
p546
S'NN'
p547
S'I-NP'
p548
g4
tp549
a(S'cream'
p550
S'cream'
p551
S'NN'
p552
S'I-NP'
p553
g4
tp554
a(S';'
p555
g555
S':'
p556
g4
g4
tp557
a(S'study'
p558
S'study'
p559
S'NN'
p560
S'B-NP'
p561
g4
tp562
a(S'group'
p563
S'group'
p564
S'NN'
p565
S'I-NP'
p566
g4
tp567
a(S'2'
p568
g568
S'CD'
p569
S'B-NP'
p570
g4
tp571
a(S'received'
p572
S'receive'
p573
S'VBD'
p574
S'B-VP'
p575
g4
tp576
a(S'local'
p577
S'local'
p578
S'JJ'
p579
S'B-NP'
p580
g4
tp581
a(S'estrogen'
p582
S'estrogen'
p583
S'NN'
p584
S'I-NP'
p585
g4
tp586
a(S'and'
p587
S'and'
p588
S'CC'
p589
S'I-NP'
p590
g4
tp591
a(S'testosterone'
p592
S'testosterone'
p593
S'NN'
p594
S'I-NP'
p595
g4
tp596
a(S'cream'
p597
S'cream'
p598
S'NN'
p599
S'I-NP'
p600
g4
tp601
a(g555
g555
g556
g4
g4
tp602
a(S'the'
p603
S'the'
p604
S'DT'
p605
S'B-NP'
p606
g4
tp607
a(S'control'
p608
S'control'
p609
S'NN'
p610
S'I-NP'
p611
g4
tp612
a(S'group'
p613
S'group'
p614
S'NN'
p615
S'I-NP'
p616
g4
tp617
a(S'received'
p618
S'receive'
p619
S'VBD'
p620
S'B-VP'
p621
g4
tp622
a(S'nonhormonal'
p623
S'nonhormonal'
p624
S'JJ'
p625
S'B-NP'
p626
g4
tp627
a(S'lubricant'
p628
S'lubricant'
p629
S'JJ'
p630
S'I-NP'
p631
g4
tp632
a(S'KY'
p633
S'KY'
p634
S'NN'
p635
S'I-NP'
p636
g4
tp637
a(S'gel'
p638
S'gel'
p639
S'NN'
p640
S'I-NP'
p641
g4
tp642
a(S'for'
p643
S'for'
p644
S'IN'
p645
S'B-PP'
p646
g4
tp647
a(S'12'
p648
S'12'
p649
S'CD'
p650
S'B-NP'
p651
g4
tp652
a(S'weeks.'
p653
S'weeks.'
p654
S'NNS'
p655
S'I-NP'
p656
g4
tp657
a(S'The'
p658
S'The'
p659
S'DT'
p660
S'B-NP'
p661
g4
tp662
a(S'urogenital'
p663
S'urogenital'
p664
S'JJ'
p665
S'I-NP'
p666
g4
tp667
a(S'and'
p668
S'and'
p669
S'CC'
p670
S'I-NP'
p671
g4
tp672
a(S'sexuality'
p673
S'sexuality'
p674
S'NN'
p675
S'I-NP'
p676
g4
tp677
a(S'score'
p678
S'score'
p679
S'NN'
p680
S'I-NP'
p681
g4
tp682
a(S','
p683
g683
g683
g4
g4
tp684
a(S'along'
p685
S'along'
p686
S'IN'
p687
S'B-PP'
p688
g4
tp689
a(S'with'
p690
S'with'
p691
S'IN'
p692
S'B-PP'
p693
g4
tp694
a(S'the'
p695
S'the'
p696
S'DT'
p697
S'B-NP'
p698
g4
tp699
a(S'vaginal'
p700
S'vaginal'
p701
S'JJ'
p702
S'I-NP'
p703
g4
tp704
a(S'health'
p705
S'health'
p706
S'NN'
p707
S'I-NP'
p708
g4
tp709
a(S'index'
p710
S'index'
p711
S'NN'
p712
S'I-NP'
p713
g4
tp714
a(S'and'
p715
S'and'
p716
S'CC'
p717
g4
g4
tp718
a(S'the'
p719
S'the'
p720
S'DT'
p721
S'B-NP'
p722
g4
tp723
a(S'vaginal'
p724
S'vaginal'
p725
S'JJ'
p726
S'I-NP'
p727
g4
tp728
a(S'maturation'
p729
S'maturation'
p730
S'NN'
p731
S'I-NP'
p732
g4
tp733
a(S'index'
p734
S'index'
p735
S'NN'
p736
S'I-NP'
p737
g4
tp738
a(S'('
p739
g739
g739
g4
g4
tp740
a(S'VMI'
p741
S'VMI'
p742
S'NN'
p743
S'B-NP'
p744
S'B-protein'
p745
tp746
a(S')'
p747
g747
g747
g4
g4
tp748
a(g683
g683
g683
g4
g4
tp749
a(S'was'
p750
S'be'
p751
S'VBD'
p752
S'B-VP'
p753
g4
tp754
a(S'calculated'
p755
S'calculate'
p756
S'VBN'
p757
S'I-VP'
p758
g4
tp759
a(S'at'
p760
S'at'
p761
S'IN'
p762
S'B-PP'
p763
g4
tp764
a(S'the'
p765
S'the'
p766
S'DT'
p767
S'B-NP'
p768
g4
tp769
a(S'beginning'
p770
S'beginning'
p771
S'NN'
p772
S'I-NP'
p773
g4
tp774
a(S'of'
p775
S'of'
p776
S'IN'
p777
S'B-PP'
p778
g4
tp779
a(S'therapy'
p780
S'therapy'
p781
S'NN'
p782
S'B-NP'
p783
g4
tp784
a(S'and'
p785
S'and'
p786
S'CC'
p787
g4
g4
tp788
a(S'12'
p789
S'12'
p790
S'CD'
p791
S'B-NP'
p792
g4
tp793
a(S'weeks'
p794
S'week'
p795
S'NNS'
p796
S'I-NP'
p797
g4
tp798
a(S'later'
p799
S'later'
p800
S'RB'
p801
S'B-ADVP'
p802
g4
tp803
a(g111
g111
g111
g4
g4
tp804
a(S'MAIN'
p805
S'MAIN'
p806
S'NNP'
p807
S'B-NP'
p808
g4
tp809
a(S'OUTCOME'
p810
S'OUTCOME'
p811
S'NNP'
p812
S'I-NP'
p813
g4
tp814
a(S'MEASURES'
p815
S'MEASURES'
p816
S'NNP'
p817
S'I-NP'
p818
g4
tp819
a(S'Changes'
p820
S'Changes'
p821
S'NNP'
p822
S'I-NP'
p823
g4
tp824
a(S'in'
p825
S'in'
p826
S'IN'
p827
S'B-PP'
p828
g4
tp829
a(S'the'
p830
S'the'
p831
S'DT'
p832
S'B-NP'
p833
g4
tp834
a(S'urogenital'
p835
S'urogenital'
p836
S'JJ'
p837
S'I-NP'
p838
g4
tp839
a(S'and'
p840
S'and'
p841
S'CC'
p842
S'I-NP'
p843
g4
tp844
a(S'sexuality'
p845
S'sexuality'
p846
S'NN'
p847
S'I-NP'
p848
g4
tp849
a(S'score'
p850
S'score'
p851
S'NN'
p852
S'I-NP'
p853
g4
tp854
a(S'along'
p855
S'along'
p856
S'IN'
p857
S'B-PP'
p858
g4
tp859
a(S'with'
p860
S'with'
p861
S'IN'
p862
S'B-PP'
p863
g4
tp864
a(S'vaginal'
p865
S'vaginal'
p866
S'JJ'
p867
S'B-NP'
p868
g4
tp869
a(S'health'
p870
S'health'
p871
S'NN'
p872
S'I-NP'
p873
g4
tp874
a(S'index'
p875
S'index'
p876
S'NN'
p877
S'I-NP'
p878
g4
tp879
a(S'and'
p880
S'and'
p881
S'CC'
p882
S'I-NP'
p883
g4
tp884
a(S'VMI'
p885
S'VMI'
p886
S'NN'
p887
S'I-NP'
p888
S'B-protein'
p889
tp890
a(g111
g111
g111
g4
g4
tp891
a(S'RESULTS'
p892
S'RESULTS'
p893
S'NNS'
p894
S'B-NP'
p895
g4
tp896
a(S'After'
p897
S'After'
p898
S'IN'
p899
S'B-PP'
p900
g4
tp901
a(S'12'
p902
S'12'
p903
S'CD'
p904
S'B-NP'
p905
g4
tp906
a(S'weeks'
p907
S'week'
p908
S'NNS'
p909
S'I-NP'
p910
g4
tp911
a(S'of'
p912
S'of'
p913
S'IN'
p914
S'B-PP'
p915
g4
tp916
a(S'therapy'
p917
S'therapy'
p918
S'NN'
p919
S'B-NP'
p920
g4
tp921
a(g683
g683
g683
g4
g4
tp922
a(S'there'
p923
S'there'
p924
S'EX'
p925
S'B-NP'
p926
g4
tp927
a(S'was'
p928
S'be'
p929
S'VBD'
p930
S'B-VP'
p931
g4
tp932
a(S'a'
p933
g933
S'DT'
p934
S'B-NP'
p935
g4
tp936
a(S'significant'
p937
S'significant'
p938
S'JJ'
p939
S'I-NP'
p940
g4
tp941
a(S'improvement'
p942
S'improvement'
p943
S'NN'
p944
S'I-NP'
p945
g4
tp946
a(S'in'
p947
S'in'
p948
S'IN'
p949
S'B-PP'
p950
g4
tp951
a(S'all'
p952
S'all'
p953
S'PDT'
p954
S'B-NP'
p955
g4
tp956
a(S'the'
p957
S'the'
p958
S'DT'
p959
S'I-NP'
p960
g4
tp961
a(S'four'
p962
S'four'
p963
S'CD'
p964
S'I-NP'
p965
g4
tp966
a(S'study'
p967
S'study'
p968
S'NN'
p969
S'I-NP'
p970
g4
tp971
a(S'parameters'
p972
S'parameter'
p973
S'NNS'
p974
S'I-NP'
p975
g4
tp976
a(g683
g683
g683
g4
g4
tp977
a(S'which'
p978
S'which'
p979
S'WDT'
p980
S'B-NP'
p981
g4
tp982
a(S'correlated'
p983
S'correlate'
p984
S'VBD'
p985
S'B-VP'
p986
g4
tp987
a(S'well'
p988
S'well'
p989
S'RB'
p990
S'B-ADVP'
p991
g4
tp992
a(S'with'
p993
S'with'
p994
S'IN'
p995
S'B-PP'
p996
g4
tp997
a(S'the'
p998
S'the'
p999
S'DT'
p1000
S'B-NP'
p1001
g4
tp1002
a(S'improvement'
p1003
S'improvement'
p1004
S'NN'
p1005
S'I-NP'
p1006
g4
tp1007
a(S'in'
p1008
S'in'
p1009
S'IN'
p1010
S'B-PP'
p1011
g4
tp1012
a(S'symptoms'
p1013
S'symptom'
p1014
S'NNS'
p1015
S'B-NP'
p1016
g4
tp1017
a(S'of'
p1018
S'of'
p1019
S'IN'
p1020
S'B-PP'
p1021
g4
tp1022
a(S'urogenital'
p1023
S'urogenital'
p1024
S'JJ'
p1025
S'B-NP'
p1026
g4
tp1027
a(S'atrophy'
p1028
S'atrophy'
p1029
S'NN'
p1030
S'I-NP'
p1031
g4
tp1032
a(S'and'
p1033
S'and'
p1034
S'CC'
p1035
g4
g4
tp1036
a(S'sexual'
p1037
S'sexual'
p1038
S'JJ'
p1039
S'B-NP'
p1040
g4
tp1041
a(S'dysfunction'
p1042
S'dysfunction'
p1043
S'NN'
p1044
S'I-NP'
p1045
g4
tp1046
a(S'in'
p1047
S'in'
p1048
S'IN'
p1049
S'B-PP'
p1050
g4
tp1051
a(S'both'
p1052
S'both'
p1053
S'CC'
p1054
g4
g4
tp1055
a(S'the'
p1056
S'the'
p1057
S'DT'
p1058
S'B-NP'
p1059
g4
tp1060
a(S'study'
p1061
S'study'
p1062
S'NN'
p1063
S'I-NP'
p1064
g4
tp1065
a(S'groups'
p1066
S'group'
p1067
S'NNS'
p1068
S'I-NP'
p1069
g4
tp1070
a(S'as'
p1071
S'as'
p1072
S'IN'
p1073
S'B-SBAR'
p1074
g4
tp1075
a(S'compared'
p1076
S'compare'
p1077
S'VBN'
p1078
S'B-PP'
p1079
g4
tp1080
a(S'with'
p1081
S'with'
p1082
S'IN'
p1083
S'B-PP'
p1084
g4
tp1085
a(S'the'
p1086
S'the'
p1087
S'DT'
p1088
S'B-NP'
p1089
g4
tp1090
a(S'control'
p1091
S'control'
p1092
S'NN'
p1093
S'I-NP'
p1094
g4
tp1095
a(S'group.'
p1096
S'group.'
p1097
S'NN'
p1098
S'I-NP'
p1099
g4
tp1100
a(S'Improvement'
p1101
S'Improvement'
p1102
S'NN'
p1103
S'I-NP'
p1104
g4
tp1105
a(S'in'
p1106
S'in'
p1107
S'IN'
p1108
S'B-PP'
p1109
g4
tp1110
a(S'sexuality'
p1111
S'sexuality'
p1112
S'NN'
p1113
S'B-NP'
p1114
g4
tp1115
a(S'score'
p1116
S'score'
p1117
S'NN'
p1118
S'I-NP'
p1119
g4
tp1120
a(S'was'
p1121
S'be'
p1122
S'VBD'
p1123
S'B-VP'
p1124
g4
tp1125
a(S'greatest'
p1126
S'great'
p1127
S'JJS'
p1128
S'B-ADJP'
p1129
g4
tp1130
a(S'with'
p1131
S'with'
p1132
S'IN'
p1133
S'B-PP'
p1134
g4
tp1135
a(S'combined'
p1136
S'combine'
p1137
S'VBN'
p1138
S'B-NP'
p1139
g4
tp1140
a(S'estrogen-androgen'
p1141
S'estrogen-androgen'
p1142
S'NN'
p1143
S'I-NP'
p1144
g4
tp1145
a(S'therapy.'
p1146
S'therapy.'
p1147
S'RB'
p1148
S'B-ADVP'
p1149
g4
tp1150
a(S'There'
p1151
S'There'
p1152
S'EX'
p1153
S'B-NP'
p1154
g4
tp1155
a(S'were'
p1156
S'be'
p1157
S'VBD'
p1158
S'B-VP'
p1159
g4
tp1160
a(S'no'
p1161
S'no'
p1162
S'DT'
p1163
S'B-NP'
p1164
g4
tp1165
a(S'adverse'
p1166
S'adverse'
p1167
S'JJ'
p1168
S'I-NP'
p1169
g4
tp1170
a(S'effects'
p1171
S'effect'
p1172
S'NNS'
p1173
S'I-NP'
p1174
g4
tp1175
a(S'and'
p1176
S'and'
p1177
S'CC'
p1178
g4
g4
tp1179
a(S'the'
p1180
S'the'
p1181
S'DT'
p1182
S'B-NP'
p1183
g4
tp1184
a(S'therapies'
p1185
S'therapy'
p1186
S'NNS'
p1187
S'I-NP'
p1188
g4
tp1189
a(S'were'
p1190
S'be'
p1191
S'VBD'
p1192
S'B-VP'
p1193
g4
tp1194
a(S'well'
p1195
S'well'
p1196
S'RB'
p1197
S'I-VP'
p1198
g4
tp1199
a(S'accepted'
p1200
S'accept'
p1201
S'VBN'
p1202
S'I-VP'
p1203
g4
tp1204
a(S'without'
p1205
S'without'
p1206
S'IN'
p1207
S'B-PP'
p1208
g4
tp1209
a(S'any'
p1210
S'any'
p1211
S'DT'
p1212
S'B-NP'
p1213
g4
tp1214
a(S'compliance'
p1215
S'compliance'
p1216
S'NN'
p1217
S'I-NP'
p1218
g4
tp1219
a(S'issue'
p1220
S'issue'
p1221
S'NN'
p1222
S'I-NP'
p1223
g4
tp1224
a(g111
g111
g111
g4
g4
tp1225
a(S'CONCLUSION'
p1226
S'CONCLUSION'
p1227
S'NN'
p1228
S'B-NP'
p1229
g4
tp1230
a(S'Local'
p1231
S'Local'
p1232
S'JJ'
p1233
S'I-NP'
p1234
g4
tp1235
a(S'estrogen'
p1236
S'estrogen'
p1237
S'NN'
p1238
S'I-NP'
p1239
g4
tp1240
a(S'either'
p1241
S'either'
p1242
S'CC'
p1243
g4
g4
tp1244
a(S'alone'
p1245
S'alone'
p1246
S'RB'
p1247
S'B-ADVP'
p1248
g4
tp1249
a(S'or'
p1250
S'or'
p1251
S'CC'
p1252
g4
g4
tp1253
a(S'with'
p1254
S'with'
p1255
S'IN'
p1256
S'B-PP'
p1257
g4
tp1258
a(S'androgen'
p1259
S'androgen'
p1260
S'NN'
p1261
S'B-NP'
p1262
g4
tp1263
a(S'is'
p1264
S'be'
p1265
S'VBZ'
p1266
S'B-VP'
p1267
g4
tp1268
a(S'highly'
p1269
S'highly'
p1270
S'RB'
p1271
S'B-ADJP'
p1272
g4
tp1273
a(S'effective'
p1274
S'effective'
p1275
S'JJ'
p1276
S'I-ADJP'
p1277
g4
tp1278
a(S'in'
p1279
S'in'
p1280
S'IN'
p1281
S'B-PP'
p1282
g4
tp1283
a(S'relieving'
p1284
S'relieve'
p1285
S'VBG'
p1286
S'B-VP'
p1287
g4
tp1288
a(S'symptoms'
p1289
S'symptom'
p1290
S'NNS'
p1291
S'B-NP'
p1292
g4
tp1293
a(S'of'
p1294
S'of'
p1295
S'IN'
p1296
S'B-PP'
p1297
g4
tp1298
a(S'urogenital'
p1299
S'urogenital'
p1300
S'JJ'
p1301
S'B-NP'
p1302
g4
tp1303
a(S'atrophy'
p1304
S'atrophy'
p1305
S'NN'
p1306
S'I-NP'
p1307
g4
tp1308
a(S'and'
p1309
S'and'
p1310
S'CC'
p1311
S'B-PP'
p1312
g4
tp1313
a(S'in'
p1314
S'in'
p1315
S'IN'
p1316
S'B-PP'
p1317
g4
tp1318
a(S'improving'
p1319
S'improve'
p1320
S'VBG'
p1321
S'B-VP'
p1322
g4
tp1323
a(S'sexual'
p1324
S'sexual'
p1325
S'JJ'
p1326
S'B-NP'
p1327
g4
tp1328
a(S'function'
p1329
S'function'
p1330
S'NN'
p1331
S'I-NP'
p1332
g4
tp1333
a(S'in'
p1334
S'in'
p1335
S'IN'
p1336
S'B-PP'
p1337
g4
tp1338
a(S'symptomatic'
p1339
S'symptomatic'
p1340
S'JJ'
p1341
S'B-NP'
p1342
g4
tp1343
a(S'postmenopausal'
p1344
S'postmenopausal'
p1345
S'JJ'
p1346
S'I-NP'
p1347
g4
tp1348
a(S'women'
p1349
S'woman'
p1350
S'NNS'
p1351
S'I-NP'
p1352
g4
tp1353
a(g111
g111
g111
g4
g4
tp1354
a.