(lp0
(S'['
p1
g1
S'('
p2
S'O'
p3
g3
tp4
a(S'Sublingually'
p5
S'Sublingually'
p6
S'RB'
p7
S'B-NP'
p8
g3
tp9
a(S'administered'
p10
S'administer'
p11
S'VBN'
p12
S'I-NP'
p13
g3
tp14
a(S'captopril'
p15
S'captopril'
p16
S'NN'
p17
S'I-NP'
p18
g3
tp19
a(S'versus'
p20
S'versus'
p21
S'IN'
p22
S'B-PP'
p23
g3
tp24
a(S'nifedipine'
p25
S'nifedipine'
p26
S'NN'
p27
S'B-NP'
p28
g3
tp29
a(S'in'
p30
S'in'
p31
S'IN'
p32
S'B-PP'
p33
g3
tp34
a(S'hypertension'
p35
S'hypertension'
p36
S'NN'
p37
S'B-NP'
p38
g3
tp39
a(S'emergencies'
p40
S'emergency'
p41
S'NNS'
p42
S'I-NP'
p43
g3
tp44
a(S']'
p45
g45
S')'
p46
g3
g3
tp47
a(S'.'
p48
g48
g48
g3
g3
tp49
a(S'Aim'
p50
S'Aim'
p51
S'NN'
p52
S'B-NP'
p53
g3
tp54
a(S'of'
p55
S'of'
p56
S'IN'
p57
S'B-PP'
p58
g3
tp59
a(S'the'
p60
S'the'
p61
S'DT'
p62
S'B-NP'
p63
g3
tp64
a(S'study'
p65
S'study'
p66
S'NN'
p67
S'I-NP'
p68
g3
tp69
a(S'was'
p70
S'be'
p71
S'VBD'
p72
S'B-VP'
p73
g3
tp74
a(S'to'
p75
S'to'
p76
S'TO'
p77
S'B-VP'
p78
g3
tp79
a(S'assess'
p80
S'assess'
p81
S'VB'
p82
S'I-VP'
p83
g3
tp84
a(S'the'
p85
S'the'
p86
S'DT'
p87
S'B-NP'
p88
g3
tp89
a(S'effectiveness'
p90
S'effectiveness'
p91
S'NN'
p92
S'I-NP'
p93
g3
tp94
a(S'and'
p95
S'and'
p96
S'CC'
p97
S'I-NP'
p98
g3
tp99
a(S'tolerability'
p100
S'tolerability'
p101
S'NN'
p102
S'I-NP'
p103
g3
tp104
a(S'of'
p105
S'of'
p106
S'IN'
p107
S'B-PP'
p108
g3
tp109
a(S'sublingual'
p110
S'sublingual'
p111
S'JJ'
p112
S'B-NP'
p113
g3
tp114
a(S'captopril'
p115
S'captopril'
p116
S'NN'
p117
S'I-NP'
p118
g3
tp119
a(g2
g2
g2
g3
g3
tp120
a(S'SLC'
p121
S'SLC'
p122
S'NN'
p123
S'B-NP'
p124
g3
tp125
a(g46
g46
g46
g3
g3
tp126
a(S'versus'
p127
S'versus'
p128
S'IN'
p129
S'B-PP'
p130
g3
tp131
a(S'sublingual'
p132
S'sublingual'
p133
S'JJ'
p134
S'B-NP'
p135
g3
tp136
a(S'nifedipine'
p137
S'nifedipine'
p138
S'NN'
p139
S'I-NP'
p140
g3
tp141
a(g2
g2
g2
g3
g3
tp142
a(S'SLN'
p143
S'SLN'
p144
S'NN'
p145
S'B-NP'
p146
S'B-protein'
p147
tp148
a(g46
g46
g46
g3
g3
tp149
a(S'in'
p150
S'in'
p151
S'IN'
p152
S'B-PP'
p153
g3
tp154
a(S'treating'
p155
S'treat'
p156
S'VBG'
p157
S'B-VP'
p158
g3
tp159
a(S'hypertensive'
p160
S'hypertensive'
p161
S'JJ'
p162
S'B-NP'
p163
g3
tp164
a(S'emergencies.'
p165
S'emergencies.'
p166
S'NN'
p167
S'I-NP'
p168
g3
tp169
a(S'During'
p170
S'During'
p171
S'IN'
p172
S'B-PP'
p173
g3
tp174
a(S'hypertensive'
p175
S'hypertensive'
p176
S'JJ'
p177
S'B-NP'
p178
g3
tp179
a(S'crises'
p180
S'crisis'
p181
S'NNS'
p182
S'I-NP'
p183
g3
tp184
a(g2
g2
g2
g3
g3
tp185
a(S'systolic'
p186
S'systolic'
p187
S'JJ'
p188
S'B-NP'
p189
g3
tp190
a(S'blood'
p191
S'blood'
p192
S'NN'
p193
S'I-NP'
p194
g3
tp195
a(S'pressure'
p196
S'pressure'
p197
S'NN'
p198
S'I-NP'
p199
g3
tp200
a(S'exceeding'
p201
S'exceed'
p202
S'VBG'
p203
S'B-VP'
p204
g3
tp205
a(S'200'
p206
S'200'
p207
S'CD'
p208
S'B-NP'
p209
g3
tp210
a(S'mmHg'
p211
S'mmHg'
p212
S'NN'
p213
S'I-NP'
p214
g3
tp215
a(S'and'
p216
S'and'
p217
S'CC'
p218
g3
g3
tp219
a(S'diastolic'
p220
S'diastolic'
p221
S'JJ'
p222
S'B-NP'
p223
g3
tp224
a(S'blood'
p225
S'blood'
p226
S'NN'
p227
S'I-NP'
p228
g3
tp229
a(S'pressure'
p230
S'pressure'
p231
S'NN'
p232
S'I-NP'
p233
g3
tp234
a(S'exceeding'
p235
S'exceed'
p236
S'VBG'
p237
S'B-VP'
p238
g3
tp239
a(S'115'
p240
S'115'
p241
S'CD'
p242
S'B-NP'
p243
g3
tp244
a(S'mmHg'
p245
S'mmHg'
p246
S'NN'
p247
S'I-NP'
p248
g3
tp249
a(g46
g46
g46
g3
g3
tp250
a(S'forty'
p251
S'forty'
p252
S'JJ'
p253
S'B-NP'
p254
g3
tp255
a(S'hypertensive'
p256
S'hypertensive'
p257
S'JJ'
p258
S'I-NP'
p259
g3
tp260
a(S'patients'
p261
S'patient'
p262
S'NNS'
p263
S'I-NP'
p264
g3
tp265
a(S'received'
p266
S'receive'
p267
S'VBD'
p268
S'B-VP'
p269
g3
tp270
a(S'either'
p271
S'either'
p272
S'CC'
p273
g3
g3
tp274
a(S'25'
p275
S'25'
p276
S'CD'
p277
S'B-NP'
p278
g3
tp279
a(S'mg'
p280
S'mg'
p281
S'NN'
p282
S'I-NP'
p283
g3
tp284
a(S'of'
p285
S'of'
p286
S'IN'
p287
S'B-PP'
p288
g3
tp289
a(S'SLC'
p290
S'SLC'
p291
S'NN'
p292
S'B-NP'
p293
S'B-protein'
p294
tp295
a(S'or'
p296
S'or'
p297
S'CC'
p298
g3
g3
tp299
a(S'10'
p300
S'10'
p301
S'CD'
p302
S'B-NP'
p303
g3
tp304
a(S'mg'
p305
S'mg'
p306
S'NN'
p307
S'I-NP'
p308
g3
tp309
a(S'of'
p310
S'of'
p311
S'IN'
p312
S'B-PP'
p313
g3
tp314
a(S'SLN'
p315
S'SLN'
p316
S'NN'
p317
S'B-NP'
p318
S'B-protein'
p319
tp320
a(S'in'
p321
S'in'
p322
S'IN'
p323
S'B-PP'
p324
g3
tp325
a(S'a'
p326
g326
S'DT'
p327
S'B-NP'
p328
g3
tp329
a(S'randomized'
p330
S'randomize'
p331
S'VBN'
p332
S'I-NP'
p333
g3
tp334
a(S'single'
p335
S'single'
p336
S'JJ'
p337
S'I-NP'
p338
g3
tp339
a(S'blind'
p340
S'blind'
p341
S'JJ'
p342
S'I-NP'
p343
g3
tp344
a(S'fashion.'
p345
S'fashion.'
p346
S'NN'
p347
S'I-NP'
p348
g3
tp349
a(S'Blood'
p350
S'Blood'
p351
S'NN'
p352
S'I-NP'
p353
g3
tp354
a(S'pressure'
p355
S'pressure'
p356
S'NN'
p357
S'I-NP'
p358
g3
tp359
a(S'and'
p360
S'and'
p361
S'CC'
p362
S'I-NP'
p363
g3
tp364
a(S'heart'
p365
S'heart'
p366
S'NN'
p367
S'I-NP'
p368
g3
tp369
a(S'rate'
p370
S'rate'
p371
S'NN'
p372
S'I-NP'
p373
g3
tp374
a(S'were'
p375
S'be'
p376
S'VBD'
p377
S'B-VP'
p378
g3
tp379
a(S'then'
p380
S'then'
p381
S'RB'
p382
S'I-VP'
p383
g3
tp384
a(S'controlled'
p385
S'control'
p386
S'VBN'
p387
S'I-VP'
p388
g3
tp389
a(S'after'
p390
S'after'
p391
S'IN'
p392
S'B-PP'
p393
g3
tp394
a(S'5'
p395
g395
S'CD'
p396
S'B-NP'
p397
g3
tp398
a(S','
p399
g399
g399
S'I-NP'
p400
g3
tp401
a(S'10'
p402
S'10'
p403
S'CD'
p404
S'I-NP'
p405
g3
tp406
a(g399
g399
g399
S'I-NP'
p407
g3
tp408
a(S'15'
p409
S'15'
p410
S'CD'
p411
S'I-NP'
p412
g3
tp413
a(g399
g399
g399
S'I-NP'
p414
g3
tp415
a(S'20'
p416
S'20'
p417
S'CD'
p418
S'I-NP'
p419
g3
tp420
a(g399
g399
g399
S'I-NP'
p421
g3
tp422
a(S'30'
p423
S'30'
p424
S'CD'
p425
S'I-NP'
p426
g3
tp427
a(g399
g399
g399
S'I-NP'
p428
g3
tp429
a(S'45'
p430
S'45'
p431
S'CD'
p432
S'I-NP'
p433
g3
tp434
a(g399
g399
g399
S'I-NP'
p435
g3
tp436
a(S'60'
p437
S'60'
p438
S'CD'
p439
S'I-NP'
p440
g3
tp441
a(g399
g399
g399
S'I-NP'
p442
g3
tp443
a(S'120'
p444
S'120'
p445
S'CD'
p446
S'I-NP'
p447
g3
tp448
a(S'min.'
p449
S'min.'
p450
S'NN'
p451
S'I-NP'
p452
g3
tp453
a(S'and'
p454
S'and'
p455
S'CC'
p456
g3
g3
tp457
a(g399
g399
g399
g3
g3
tp458
a(S'in'
p459
S'in'
p460
S'IN'
p461
S'B-PP'
p462
g3
tp463
a(S'18'
p464
S'18'
p465
S'CD'
p466
S'B-NP'
p467
g3
tp468
a(S'cases'
p469
S'case'
p470
S'NNS'
p471
S'I-NP'
p472
g3
tp473
a(g399
g399
g399
g3
g3
tp474
a(S'up'
p475
S'up'
p476
S'RB'
p477
S'B-ADVP'
p478
g3
tp479
a(S'to'
p480
S'to'
p481
S'TO'
p482
S'B-PP'
p483
g3
tp484
a(S'the'
p485
S'the'
p486
S'DT'
p487
S'B-NP'
p488
g3
tp489
a(S'8th'
p490
S'8th'
p491
S'JJ'
p492
S'I-NP'
p493
g3
tp494
a(S'hour'
p495
S'hour'
p496
S'NN'
p497
S'I-NP'
p498
g3
tp499
a(S'from'
p500
S'from'
p501
S'IN'
p502
S'B-PP'
p503
g3
tp504
a(S'the'
p505
S'the'
p506
S'DT'
p507
S'B-NP'
p508
g3
tp509
a(S'administration.'
p510
S'administration.'
p511
S'NN'
p512
S'I-NP'
p513
g3
tp514
a(S'Our'
p515
S'Our'
p516
S'PRP$'
p517
S'B-NP'
p518
g3
tp519
a(S'results'
p520
S'result'
p521
S'NNS'
p522
S'I-NP'
p523
g3
tp524
a(S'showed'
p525
S'show'
p526
S'VBD'
p527
S'B-VP'
p528
g3
tp529
a(S':'
p530
g530
g530
g3
g3
tp531
a(S'1'
p532
g532
S'LS'
p533
S'B-LST'
p534
g3
tp535
a(g46
g46
g46
g3
g3
tp536
a(g326
g326
S'DT'
p537
S'B-NP'
p538
g3
tp539
a(S'satisfactory'
p540
S'satisfactory'
p541
S'JJ'
p542
S'I-NP'
p543
g3
tp544
a(S'control'
p545
S'control'
p546
S'NN'
p547
S'I-NP'
p548
g3
tp549
a(S'of'
p550
S'of'
p551
S'IN'
p552
S'B-PP'
p553
g3
tp554
a(S'the'
p555
S'the'
p556
S'DT'
p557
S'B-NP'
p558
g3
tp559
a(S'hypertensive'
p560
S'hypertensive'
p561
S'JJ'
p562
S'I-NP'
p563
g3
tp564
a(S'crises'
p565
S'crisis'
p566
S'NNS'
p567
S'I-NP'
p568
g3
tp569
a(S'in'
p570
S'in'
p571
S'IN'
p572
S'B-PP'
p573
g3
tp574
a(S'80'
p575
S'80'
p576
S'CD'
p577
S'B-NP'
p578
g3
tp579
a(S'%'
p580
g580
S'NN'
p581
S'I-NP'
p582
g3
tp583
a(S'of'
p584
S'of'
p585
S'IN'
p586
S'B-PP'
p587
g3
tp588
a(S'patients'
p589
S'patient'
p590
S'NNS'
p591
S'B-NP'
p592
g3
tp593
a(S'treated'
p594
S'treat'
p595
S'VBN'
p596
S'B-VP'
p597
g3
tp598
a(S'with'
p599
S'with'
p600
S'IN'
p601
S'B-PP'
p602
g3
tp603
a(S'SLC'
p604
S'SLC'
p605
S'NN'
p606
S'B-NP'
p607
S'B-protein'
p608
tp609
a(S'with'
p610
S'with'
p611
S'IN'
p612
S'B-PP'
p613
g3
tp614
a(g326
g326
S'DT'
p615
S'B-NP'
p616
g3
tp617
a(S'significant'
p618
S'significant'
p619
S'JJ'
p620
S'I-NP'
p621
g3
tp622
a(S'blood'
p623
S'blood'
p624
S'NN'
p625
S'I-NP'
p626
g3
tp627
a(S'pressure'
p628
S'pressure'
p629
S'NN'
p630
S'I-NP'
p631
g3
tp632
a(S'reduction'
p633
S'reduction'
p634
S'NN'
p635
S'I-NP'
p636
g3
tp637
a(S'after'
p638
S'after'
p639
S'IN'
p640
S'B-PP'
p641
g3
tp642
a(S'10'
p643
S'10'
p644
S'CD'
p645
S'B-NP'
p646
g3
tp647
a(S'min.'
p648
S'min.'
p649
S'NN'
p650
S'I-NP'
p651
g3
tp652
a(g2
g2
g2
g3
g3
tp653
a(S'13/8'
p654
S'13/8'
p655
S'CD'
p656
S'B-NP'
p657
g3
tp658
a(S'mmHg'
p659
S'mmHg'
p660
S'NN'
p661
S'I-NP'
p662
g3
tp663
a(g399
g399
g399
g3
g3
tp664
a(S'p'
p665
g665
S'NN'
p666
S'B-NP'
p667
g3
tp668
a(S'less'
p669
S'less'
p670
S'JJR'
p671
S'B-ADJP'
p672
g3
tp673
a(S'than'
p674
S'than'
p675
S'IN'
p676
S'B-PP'
p677
g3
tp678
a(S'0.02'
p679
S'0.02'
p680
S'CD'
p681
S'B-NP'
p682
g3
tp683
a(g46
g46
g46
g3
g3
tp684
a(g399
g399
g399
g3
g3
tp685
a(S'while'
p686
S'while'
p687
S'IN'
p688
S'B-SBAR'
p689
g3
tp690
a(S'the'
p691
S'the'
p692
S'DT'
p693
S'B-NP'
p694
g3
tp695
a(S'maximum'
p696
S'maximum'
p697
S'NN'
p698
S'I-NP'
p699
g3
tp700
a(S'hypotensive'
p701
S'hypotensive'
p702
S'JJ'
p703
S'I-NP'
p704
g3
tp705
a(S'effect'
p706
S'effect'
p707
S'NN'
p708
S'I-NP'
p709
g3
tp710
a(S'was'
p711
S'be'
p712
S'VBD'
p713
S'B-VP'
p714
g3
tp715
a(S'achieved'
p716
S'achieve'
p717
S'VBN'
p718
S'I-VP'
p719
g3
tp720
a(S'after'
p721
S'after'
p722
S'IN'
p723
S'B-PP'
p724
g3
tp725
a(S'30'
p726
S'30'
p727
S'CD'
p728
S'B-NP'
p729
g3
tp730
a(S'min.'
p731
S'min.'
p732
S'NN'
p733
S'I-NP'
p734
g3
tp735
a(g2
g2
g2
g3
g3
tp736
a(S'52/36'
p737
S'52/36'
p738
S'CD'
p739
S'B-NP'
p740
g3
tp741
a(S'mmHg'
p742
S'mmHg'
p743
S'NN'
p744
S'I-NP'
p745
g3
tp746
a(g399
g399
g399
g3
g3
tp747
a(g665
g665
S'NN'
p748
S'B-NP'
p749
g3
tp750
a(S'less'
p751
S'less'
p752
S'JJR'
p753
S'B-ADJP'
p754
g3
tp755
a(S'than'
p756
S'than'
p757
S'IN'
p758
S'B-PP'
p759
g3
tp760
a(S'0.001'
p761
S'0.001'
p762
S'CD'
p763
S'B-NP'
p764
g3
tp765
a(g46
g46
g46
g3
g3
tp766
a(S';'
p767
g767
g530
g3
g3
tp768
a(S'SLN'
p769
S'SLN'
p770
S'NN'
p771
S'B-NP'
p772
S'B-protein'
p773
tp774
a(S'was'
p775
S'be'
p776
S'VBD'
p777
S'B-VP'
p778
g3
tp779
a(S'able'
p780
S'able'
p781
S'JJ'
p782
S'B-ADJP'
p783
g3
tp784
a(S'to'
p785
S'to'
p786
S'TO'
p787
S'B-VP'
p788
g3
tp789
a(S'reduce'
p790
S'reduce'
p791
S'VB'
p792
S'I-VP'
p793
g3
tp794
a(S'blood'
p795
S'blood'
p796
S'NN'
p797
S'B-NP'
p798
g3
tp799
a(S'pressure'
p800
S'pressure'
p801
S'NN'
p802
S'I-NP'
p803
g3
tp804
a(S'in'
p805
S'in'
p806
S'IN'
p807
S'B-PP'
p808
g3
tp809
a(S'90'
p810
S'90'
p811
S'CD'
p812
S'B-NP'
p813
g3
tp814
a(g580
g580
S'NN'
p815
S'I-NP'
p816
g3
tp817
a(S'of'
p818
S'of'
p819
S'IN'
p820
S'B-PP'
p821
g3
tp822
a(S'all'
p823
S'all'
p824
S'PDT'
p825
S'B-NP'
p826
g3
tp827
a(S'the'
p828
S'the'
p829
S'DT'
p830
S'I-NP'
p831
g3
tp832
a(S'cases'
p833
S'case'
p834
S'NNS'
p835
S'I-NP'
p836
g3
tp837
a(g399
g399
g399
g3
g3
tp838
a(S'with'
p839
S'with'
p840
S'IN'
p841
S'B-PP'
p842
g3
tp843
a(g326
g326
S'DT'
p844
S'B-NP'
p845
g3
tp846
a(S'significant'
p847
S'significant'
p848
S'JJ'
p849
S'I-NP'
p850
g3
tp851
a(S'reduction'
p852
S'reduction'
p853
S'NN'
p854
S'I-NP'
p855
g3
tp856
a(S'after'
p857
S'after'
p858
S'IN'
p859
S'B-PP'
p860
g3
tp861
a(g395
g395
S'CD'
p862
S'B-NP'
p863
g3
tp864
a(S'min.'
p865
S'min.'
p866
S'NN'
p867
S'I-NP'
p868
g3
tp869
a(g2
g2
g2
g3
g3
tp870
a(S'15/11'
p871
S'15/11'
p872
S'CD'
p873
S'B-NP'
p874
g3
tp875
a(S'mmHg'
p876
S'mmHg'
p877
S'NN'
p878
S'I-NP'
p879
g3
tp880
a(g399
g399
g399
g3
g3
tp881
a(g665
g665
S'NN'
p882
S'B-NP'
p883
g3
tp884
a(S'less'
p885
S'less'
p886
S'JJR'
p887
S'B-ADJP'
p888
g3
tp889
a(S'than'
p890
S'than'
p891
S'IN'
p892
S'B-PP'
p893
g3
tp894
a(S'0.02'
p895
S'0.02'
p896
S'CD'
p897
S'B-NP'
p898
g3
tp899
a(g46
g46
g46
g3
g3
tp900
a(S'and'
p901
S'and'
p902
S'CC'
p903
g3
g3
tp904
a(S'hypotensive'
p905
S'hypotensive'
p906
S'JJ'
p907
S'B-NP'
p908
g3
tp909
a(S'peak'
p910
S'peak'
p911
S'NN'
p912
S'I-NP'
p913
g3
tp914
a(S'after'
p915
S'after'
p916
S'IN'
p917
S'B-PP'
p918
g3
tp919
a(S'20'
p920
S'20'
p921
S'CD'
p922
S'B-NP'
p923
g3
tp924
a(S'min'
p925
S'min'
p926
S'NN'
p927
S'I-NP'
p928
g3
tp929
a(g2
g2
g2
g3
g3
tp930
a(S'57/38'
p931
S'57/38'
p932
S'CD'
p933
S'B-NP'
p934
g3
tp935
a(S'mmHg'
p936
S'mmHg'
p937
S'NN'
p938
S'I-NP'
p939
g3
tp940
a(g399
g399
g399
g3
g3
tp941
a(g665
g665
S'NN'
p942
S'B-NP'
p943
g3
tp944
a(S'greater'
p945
S'great'
p946
S'JJR'
p947
S'B-ADJP'
p948
g3
tp949
a(S'than'
p950
S'than'
p951
S'IN'
p952
S'B-PP'
p953
g3
tp954
a(S'0.001'
p955
S'0.001'
p956
S'CD'
p957
S'B-NP'
p958
g3
tp959
a(g46
g46
g46
g3
g3
tp960
a(g767
g767
g530
g3
g3
tp961
a(S'2'
p962
g962
S'LS'
p963
S'B-LST'
p964
g3
tp965
a(g46
g46
g46
g3
g3
tp966
a(S'no'
p967
S'no'
p968
S'DT'
p969
S'B-NP'
p970
g3
tp971
a(S'significant'
p972
S'significant'
p973
S'JJ'
p974
S'I-NP'
p975
g3
tp976
a(S'differences'
p977
S'difference'
p978
S'NNS'
p979
S'I-NP'
p980
g3
tp981
a(S'for'
p982
S'for'
p983
S'IN'
p984
S'B-PP'
p985
g3
tp986
a(S'hypotensive'
p987
S'hypotensive'
p988
S'JJ'
p989
S'B-NP'
p990
g3
tp991
a(S'effectiveness'
p992
S'effectiveness'
p993
S'NN'
p994
S'I-NP'
p995
g3
tp996
a(S'between'
p997
S'between'
p998
S'IN'
p999
S'B-PP'
p1000
g3
tp1001
a(S'the'
p1002
S'the'
p1003
S'DT'
p1004
S'B-NP'
p1005
g3
tp1006
a(S'two'
p1007
S'two'
p1008
S'CD'
p1009
S'I-NP'
p1010
g3
tp1011
a(S'groups'
p1012
S'group'
p1013
S'NNS'
p1014
S'I-NP'
p1015
g3
tp1016
a(g399
g399
g399
g3
g3
tp1017
a(S'but'
p1018
S'but'
p1019
S'CC'
p1020
g3
g3
tp1021
a(S'with'
p1022
S'with'
p1023
S'IN'
p1024
S'B-PP'
p1025
g3
tp1026
a(S'SLC'
p1027
S'SLC'
p1028
S'NN'
p1029
S'B-NP'
p1030
g3
tp1031
a(S'having'
p1032
S'have'
p1033
S'VBG'
p1034
S'B-VP'
p1035
g3
tp1036
a(g326
g326
S'DT'
p1037
S'B-NP'
p1038
g3
tp1039
a(S'mildly'
p1040
S'mildly'
p1041
S'RB'
p1042
S'I-NP'
p1043
g3
tp1044
a(S'delayed'
p1045
S'delay'
p1046
S'VBN'
p1047
S'I-NP'
p1048
g3
tp1049
a(S'onset'
p1050
S'onset'
p1051
S'NN'
p1052
S'I-NP'
p1053
g3
tp1054
a(S'of'
p1055
S'of'
p1056
S'IN'
p1057
S'B-PP'
p1058
g3
tp1059
a(S'action'
p1060
S'action'
p1061
S'NN'
p1062
S'B-NP'
p1063
g3
tp1064
a(S'when'
p1065
S'when'
p1066
S'WRB'
p1067
S'B-ADVP'
p1068
g3
tp1069
a(S'compared'
p1070
S'compare'
p1071
S'VBN'
p1072
S'B-VP'
p1073
g3
tp1074
a(S'to'
p1075
S'to'
p1076
S'TO'
p1077
S'B-PP'
p1078
g3
tp1079
a(S'SLN'
p1080
S'SLN'
p1081
S'NN'
p1082
S'B-NP'
p1083
S'B-protein'
p1084
tp1085
a(g767
g767
g530
g3
g3
tp1086
a(S'3'
p1087
g1087
S'LS'
p1088
S'B-LST'
p1089
g3
tp1090
a(g46
g46
g46
g3
g3
tp1091
a(S'antihypertensive'
p1092
S'antihypertensive'
p1093
S'JJ'
p1094
S'B-NP'
p1095
g3
tp1096
a(S'effect'
p1097
S'effect'
p1098
S'NN'
p1099
S'I-NP'
p1100
g3
tp1101
a(S'lasting'
p1102
S'last'
p1103
S'VBG'
p1104
S'B-VP'
p1105
g3
tp1106
a(S'for'
p1107
S'for'
p1108
S'IN'
p1109
S'B-PP'
p1110
g3
tp1111
a(S'about'
p1112
S'about'
p1113
S'IN'
p1114
S'B-NP'
p1115
g3
tp1116
a(S'6'
p1117
g1117
S'CD'
p1118
S'I-NP'
p1119
g3
tp1120
a(S'hours'
p1121
S'hour'
p1122
S'NNS'
p1123
S'I-NP'
p1124
g3
tp1125
a(S'in'
p1126
S'in'
p1127
S'IN'
p1128
S'B-PP'
p1129
g3
tp1130
a(S'patients'
p1131
S'patient'
p1132
S'NNS'
p1133
S'B-NP'
p1134
g3
tp1135
a(S'treated'
p1136
S'treat'
p1137
S'VBN'
p1138
S'B-VP'
p1139
g3
tp1140
a(S'with'
p1141
S'with'
p1142
S'IN'
p1143
S'B-PP'
p1144
g3
tp1145
a(S'SLC'
p1146
S'SLC'
p1147
S'NN'
p1148
S'B-NP'
p1149
S'B-protein'
p1150
tp1151
a(S'and'
p1152
S'and'
p1153
S'CC'
p1154
S'I-NP'
p1155
g3
tp1156
a(S'blood'
p1157
S'blood'
p1158
S'NN'
p1159
S'I-NP'
p1160
g3
tp1161
a(S'pressure'
p1162
S'pressure'
p1163
S'NN'
p1164
S'I-NP'
p1165
g3
tp1166
a(S'progressively'
p1167
S'progressively'
p1168
S'RB'
p1169
S'B-VP'
p1170
g3
tp1171
a(S'raising'
p1172
S'raise'
p1173
S'VBG'
p1174
S'I-VP'
p1175
g3
tp1176
a(S'after'
p1177
S'after'
p1178
S'IN'
p1179
S'B-PP'
p1180
g3
tp1181
a(S'4'
p1182
g1182
S'CD'
p1183
S'B-NP'
p1184
g3
tp1185
a(S'hours'
p1186
S'hour'
p1187
S'NNS'
p1188
S'I-NP'
p1189
g3
tp1190
a(S'in'
p1191
S'in'
p1192
S'IN'
p1193
S'B-PP'
p1194
g3
tp1195
a(S'patients'
p1196
S'patient'
p1197
S'NNS'
p1198
S'B-NP'
p1199
g3
tp1200
a(S'who'
p1201
S'who'
p1202
S'WP'
p1203
S'B-NP'
p1204
g3
tp1205
a(S'received'
p1206
S'receive'
p1207
S'VBD'
p1208
S'B-VP'
p1209
g3
tp1210
a(S'SLN'
p1211
S'SLN'
p1212
S'NN'
p1213
S'B-NP'
p1214
g3
tp1215
a(g767
g767
g530
g3
g3
tp1216
a(g1182
g1182
S'LS'
p1217
S'B-LST'
p1218
g3
tp1219
a(g46
g46
g46
g3
g3
tp1220
a(g326
g326
S'DT'
p1221
S'B-NP'
p1222
g3
tp1223
a(S'significant'
p1224
S'significant'
p1225
S'JJ'
p1226
S'I-NP'
p1227
g3
tp1228
a(S'correlation'
p1229
S'correlation'
p1230
S'NN'
p1231
S'I-NP'
p1232
g3
tp1233
a(S'between'
p1234
S'between'
p1235
S'IN'
p1236
S'B-PP'
p1237
g3
tp1238
a(S'blood'
p1239
S'blood'
p1240
S'NN'
p1241
S'B-NP'
p1242
g3
tp1243
a(S'pressure'
p1244
S'pressure'
p1245
S'NN'
p1246
S'I-NP'
p1247
g3
tp1248
a(S'reduction'
p1249
S'reduction'
p1250
S'NN'
p1251
S'I-NP'
p1252
g3
tp1253
a(S'and'
p1254
S'and'
p1255
S'CC'
p1256
g3
g3
tp1257
a(S'blood'
p1258
S'blood'
p1259
S'NN'
p1260
S'B-NP'
p1261
g3
tp1262
a(S'pressure'
p1263
S'pressure'
p1264
S'NN'
p1265
S'I-NP'
p1266
g3
tp1267
a(S'before'
p1268
S'before'
p1269
S'IN'
p1270
S'B-PP'
p1271
g3
tp1272
a(S'drug'
p1273
S'drug'
p1274
S'NN'
p1275
S'B-NP'
p1276
g3
tp1277
a(S'administration'
p1278
S'administration'
p1279
S'NN'
p1280
S'I-NP'
p1281
g3
tp1282
a(S'in'
p1283
S'in'
p1284
S'IN'
p1285
S'B-PP'
p1286
g3
tp1287
a(S'both'
p1288
S'both'
p1289
S'DT'
p1290
S'B-NP'
p1291
g3
tp1292
a(S'groups'
p1293
S'group'
p1294
S'NNS'
p1295
S'I-NP'
p1296
g3
tp1297
a(g767
g767
g530
g3
g3
tp1298
a(g326
g326
S'DT'
p1299
S'B-NP'
p1300
g3
tp1301
a(S'significant'
p1302
S'significant'
p1303
S'JJ'
p1304
S'I-NP'
p1305
g3
tp1306
a(S'correlation'
p1307
S'correlation'
p1308
S'NN'
p1309
S'I-NP'
p1310
g3
tp1311
a(S'between'
p1312
S'between'
p1313
S'IN'
p1314
S'B-PP'
p1315
g3
tp1316
a(S'pretreatment'
p1317
S'pretreatment'
p1318
S'NN'
p1319
S'B-NP'
p1320
g3
tp1321
a(S'PRA'
p1322
S'PRA'
p1323
S'NN'
p1324
S'I-NP'
p1325
g3
tp1326
a(S'and'
p1327
S'and'
p1328
S'CC'
p1329
g3
g3
tp1330
a(S'antihypertensive'
p1331
S'antihypertensive'
p1332
S'JJ'
p1333
S'B-NP'
p1334
g3
tp1335
a(S'effect'
p1336
S'effect'
p1337
S'NN'
p1338
S'I-NP'
p1339
g3
tp1340
a(S'in'
p1341
S'in'
p1342
S'IN'
p1343
S'B-PP'
p1344
g3
tp1345
a(S'the'
p1346
S'the'
p1347
S'DT'
p1348
S'B-NP'
p1349
g3
tp1350
a(S'SLC'
p1351
S'SLC'
p1352
S'NN'
p1353
S'I-NP'
p1354
g3
tp1355
a(S'group.'
p1356
S'group.'
p1357
S'NN'
p1358
S'I-NP'
p1359
g3
tp1360
a(S'We'
p1361
S'We'
p1362
S'PRP'
p1363
S'B-NP'
p1364
g3
tp1365
a(S'conclude'
p1366
S'conclude'
p1367
S'VBP'
p1368
S'B-VP'
p1369
g3
tp1370
a(S'that'
p1371
S'that'
p1372
S'IN'
p1373
S'B-SBAR'
p1374
g3
tp1375
a(S'both'
p1376
S'both'
p1377
S'DT'
p1378
S'B-NP'
p1379
g3
tp1380
a(S'drugs'
p1381
S'drug'
p1382
S'NNS'
p1383
S'I-NP'
p1384
g3
tp1385
a(S'are'
p1386
S'be'
p1387
S'VBP'
p1388
S'B-VP'
p1389
g3
tp1390
a(S'effective'
p1391
S'effective'
p1392
S'JJ'
p1393
S'B-ADJP'
p1394
g3
tp1395
a(S'and'
p1396
S'and'
p1397
S'CC'
p1398
g3
g3
tp1399
a(S'useful'
p1400
S'useful'
p1401
S'JJ'
p1402
S'B-ADJP'
p1403
g3
tp1404
a(S'in'
p1405
S'in'
p1406
S'IN'
p1407
S'B-PP'
p1408
g3
tp1409
a(S'treating'
p1410
S'treat'
p1411
S'VBG'
p1412
S'B-VP'
p1413
g3
tp1414
a(S'hypertensive'
p1415
S'hypertensive'
p1416
S'JJ'
p1417
S'B-NP'
p1418
g3
tp1419
a(S'emergencies.'
p1420
S'emergencies.'
p1421
S'NN'
p1422
S'I-NP'
p1423
g3
tp1424
a(S'Anyway'
p1425
S'Anyway'
p1426
S'NN'
p1427
S'I-NP'
p1428
g3
tp1429
a(S'we'
p1430
S'we'
p1431
S'PRP'
p1432
S'B-NP'
p1433
g3
tp1434
a(S'think'
p1435
S'think'
p1436
S'VBP'
p1437
S'B-VP'
p1438
g3
tp1439
a(S'that'
p1440
S'that'
p1441
S'IN'
p1442
S'B-SBAR'
p1443
g3
tp1444
a(S'in'
p1445
S'in'
p1446
S'IN'
p1447
S'B-PP'
p1448
g3
tp1449
a(S'severe'
p1450
S'severe'
p1451
S'JJ'
p1452
S'B-NP'
p1453
g3
tp1454
a(S'forms'
p1455
S'form'
p1456
S'NNS'
p1457
S'I-NP'
p1458
g3
tp1459
a(S'SLN'
p1460
S'SLN'
p1461
S'NN'
p1462
S'I-NP'
p1463
g3
tp1464
a(S'should'
p1465
S'should'
p1466
S'MD'
p1467
S'B-VP'
p1468
g3
tp1469
a(S'be'
p1470
S'be'
p1471
S'VB'
p1472
S'I-VP'
p1473
g3
tp1474
a(S'preferred'
p1475
S'prefer'
p1476
S'VBN'
p1477
S'I-VP'
p1478
g3
tp1479
a(S'for'
p1480
S'for'
p1481
S'IN'
p1482
S'B-PP'
p1483
g3
tp1484
a(S'the'
p1485
S'the'
p1486
S'DT'
p1487
S'B-NP'
p1488
g3
tp1489
a(S'shorter'
p1490
S'short'
p1491
S'JJR'
p1492
S'I-NP'
p1493
g3
tp1494
a(S'time'
p1495
S'time'
p1496
S'NN'
p1497
S'I-NP'
p1498
g3
tp1499
a(S'preceding'
p1500
S'precede'
p1501
S'VBG'
p1502
S'B-VP'
p1503
g3
tp1504
a(S'onset'
p1505
S'onset'
p1506
S'NN'
p1507
S'B-NP'
p1508
g3
tp1509
a(S'of'
p1510
S'of'
p1511
S'IN'
p1512
S'B-PP'
p1513
g3
tp1514
a(S'action'
p1515
S'action'
p1516
S'NN'
p1517
S'B-NP'
p1518
g3
tp1519
a(g48
g48
g48
g3
g3
tp1520
a.