(lp0
(S'Randomised'
p1
S'Randomise'
p2
S'VBN'
p3
S'B-NP'
p4
S'O'
p5
tp6
a(S'trial'
p7
S'trial'
p8
S'NN'
p9
S'I-NP'
p10
g5
tp11
a(S'of'
p12
S'of'
p13
S'IN'
p14
S'B-PP'
p15
g5
tp16
a(S'efficacy'
p17
S'efficacy'
p18
S'NN'
p19
S'B-NP'
p20
g5
tp21
a(S'and'
p22
S'and'
p23
S'CC'
p24
S'I-NP'
p25
g5
tp26
a(S'safety'
p27
S'safety'
p28
S'NN'
p29
S'I-NP'
p30
g5
tp31
a(S'of'
p32
S'of'
p33
S'IN'
p34
S'B-PP'
p35
g5
tp36
a(S'oral'
p37
S'oral'
p38
S'JJ'
p39
S'B-NP'
p40
g5
tp41
a(S'ganciclovir'
p42
S'ganciclovir'
p43
S'NN'
p44
S'I-NP'
p45
g5
tp46
a(S'in'
p47
S'in'
p48
S'IN'
p49
S'B-PP'
p50
g5
tp51
a(S'the'
p52
S'the'
p53
S'DT'
p54
S'B-NP'
p55
g5
tp56
a(S'prevention'
p57
S'prevention'
p58
S'NN'
p59
S'I-NP'
p60
g5
tp61
a(S'of'
p62
S'of'
p63
S'IN'
p64
S'B-PP'
p65
g5
tp66
a(S'cytomegalovirus'
p67
S'cytomegalovirus'
p68
S'NN'
p69
S'B-NP'
p70
g5
tp71
a(S'disease'
p72
S'disease'
p73
S'NN'
p74
S'I-NP'
p75
g5
tp76
a(S'in'
p77
S'in'
p78
S'IN'
p79
S'B-PP'
p80
g5
tp81
a(S'liver-transplant'
p82
S'liver-transplant'
p83
S'NN'
p84
S'B-NP'
p85
g5
tp86
a(S'recipients.'
p87
S'recipients.'
p88
S'NNS'
p89
S'I-NP'
p90
g5
tp91
a(S'The'
p92
S'The'
p93
S'DT'
p94
S'B-NP'
p95
g5
tp96
a(S'Oral'
p97
S'Oral'
p98
S'NNP'
p99
S'I-NP'
p100
g5
tp101
a(S'Ganciclovir'
p102
S'Ganciclovir'
p103
S'NNP'
p104
S'I-NP'
p105
g5
tp106
a(S'International'
p107
S'International'
p108
S'NNP'
p109
S'I-NP'
p110
g5
tp111
a(S'Transplantation'
p112
S'Transplantation'
p113
S'NNP'
p114
S'I-NP'
p115
g5
tp116
a(S'Study'
p117
S'Study'
p118
S'NNP'
p119
S'I-NP'
p120
g5
tp121
a(S'Group'
p122
S'Group'
p123
S'NNP'
p124
S'I-NP'
p125
g5
tp126
a(S'['
p127
g127
S'('
p128
g5
g5
tp129
a(S'corrected'
p130
S'correct'
p131
S'VBN'
p132
S'B-VP'
p133
g5
tp134
a(S']'
p135
g135
S')'
p136
g5
g5
tp137
a(S'.'
p138
g138
g138
g5
g5
tp139
a(S'BACKGROUND'
p140
S'BACKGROUND'
p141
S'NN'
p142
S'B-NP'
p143
g5
tp144
a(S'Cytomegalovirus'
p145
S'Cytomegalovirus'
p146
S'NN'
p147
S'I-NP'
p148
g5
tp149
a(g128
g128
g128
g5
g5
tp150
a(S'CMV'
p151
S'CMV'
p152
S'NN'
p153
S'B-NP'
p154
g5
tp155
a(g136
g136
g136
g5
g5
tp156
a(S'disease'
p157
S'disease'
p158
S'NN'
p159
S'B-NP'
p160
g5
tp161
a(S'is'
p162
S'be'
p163
S'VBZ'
p164
S'B-VP'
p165
g5
tp166
a(S'a'
p167
g167
S'DT'
p168
S'B-NP'
p169
g5
tp170
a(S'frequent'
p171
S'frequent'
p172
S'JJ'
p173
S'I-NP'
p174
g5
tp175
a(S'cause'
p176
S'cause'
p177
S'NN'
p178
S'I-NP'
p179
g5
tp180
a(S'of'
p181
S'of'
p182
S'IN'
p183
S'B-PP'
p184
g5
tp185
a(S'serious'
p186
S'serious'
p187
S'JJ'
p188
S'B-NP'
p189
g5
tp190
a(S'morbidity'
p191
S'morbidity'
p192
S'NN'
p193
S'I-NP'
p194
g5
tp195
a(S'after'
p196
S'after'
p197
S'IN'
p198
S'B-PP'
p199
g5
tp200
a(S'solid-organ'
p201
S'solid-organ'
p202
S'JJ'
p203
S'B-NP'
p204
g5
tp205
a(S'transplantation.'
p206
S'transplantation.'
p207
S'NN'
p208
S'I-NP'
p209
g5
tp210
a(S'The'
p211
S'The'
p212
S'DT'
p213
S'B-NP'
p214
g5
tp215
a(S'prophylactic'
p216
S'prophylactic'
p217
S'JJ'
p218
S'I-NP'
p219
g5
tp220
a(S'regimens'
p221
S'regimen'
p222
S'NNS'
p223
S'I-NP'
p224
g5
tp225
a(S'used'
p226
S'use'
p227
S'VBN'
p228
S'B-VP'
p229
g5
tp230
a(S'to'
p231
S'to'
p232
S'TO'
p233
S'B-VP'
p234
g5
tp235
a(S'prevent'
p236
S'prevent'
p237
S'VB'
p238
S'I-VP'
p239
g5
tp240
a(S'CMV'
p241
S'CMV'
p242
S'NN'
p243
S'B-NP'
p244
g5
tp245
a(S'infection'
p246
S'infection'
p247
S'NN'
p248
S'I-NP'
p249
g5
tp250
a(S'and'
p251
S'and'
p252
S'CC'
p253
S'I-NP'
p254
g5
tp255
a(S'disease'
p256
S'disease'
p257
S'NN'
p258
S'I-NP'
p259
g5
tp260
a(S'have'
p261
S'have'
p262
S'VBP'
p263
S'B-VP'
p264
g5
tp265
a(S'shown'
p266
S'show'
p267
S'VBN'
p268
S'I-VP'
p269
g5
tp270
a(S'limited'
p271
S'limited'
p272
S'JJ'
p273
S'B-NP'
p274
g5
tp275
a(S'benefit'
p276
S'benefit'
p277
S'NN'
p278
S'I-NP'
p279
g5
tp280
a(S'in'
p281
S'in'
p282
S'IN'
p283
S'B-PP'
p284
g5
tp285
a(S'seronegative'
p286
S'seronegative'
p287
S'JJ'
p288
S'B-NP'
p289
g5
tp290
a(S'recipients.'
p291
S'recipients.'
p292
S'NN'
p293
S'I-NP'
p294
g5
tp295
a(S'We'
p296
S'We'
p297
S'PRP'
p298
S'B-NP'
p299
g5
tp300
a(S'studied'
p301
S'study'
p302
S'VBD'
p303
S'B-VP'
p304
g5
tp305
a(S'the'
p306
S'the'
p307
S'DT'
p308
S'B-NP'
p309
g5
tp310
a(S'safety'
p311
S'safety'
p312
S'NN'
p313
S'I-NP'
p314
g5
tp315
a(S'and'
p316
S'and'
p317
S'CC'
p318
S'I-NP'
p319
g5
tp320
a(S'efficacy'
p321
S'efficacy'
p322
S'NN'
p323
S'I-NP'
p324
g5
tp325
a(S'of'
p326
S'of'
p327
S'IN'
p328
S'B-PP'
p329
g5
tp330
a(S'oral'
p331
S'oral'
p332
S'JJ'
p333
S'B-NP'
p334
g5
tp335
a(S'ganciclovir'
p336
S'ganciclovir'
p337
S'NN'
p338
S'I-NP'
p339
g5
tp340
a(S'in'
p341
S'in'
p342
S'IN'
p343
S'B-PP'
p344
g5
tp345
a(S'the'
p346
S'the'
p347
S'DT'
p348
S'B-NP'
p349
g5
tp350
a(S'prevention'
p351
S'prevention'
p352
S'NN'
p353
S'I-NP'
p354
g5
tp355
a(S'of'
p356
S'of'
p357
S'IN'
p358
S'B-PP'
p359
g5
tp360
a(S'CMV'
p361
S'CMV'
p362
S'NN'
p363
S'B-NP'
p364
g5
tp365
a(S'disease'
p366
S'disease'
p367
S'NN'
p368
S'I-NP'
p369
g5
tp370
a(S'following'
p371
S'follow'
p372
S'VBG'
p373
S'B-PP'
p374
g5
tp375
a(S'orthotopic'
p376
S'orthotopic'
p377
S'JJ'
p378
S'B-NP'
p379
g5
tp380
a(S'liver'
p381
S'liver'
p382
S'NN'
p383
S'I-NP'
p384
g5
tp385
a(S'transplantation'
p386
S'transplantation'
p387
S'NN'
p388
S'I-NP'
p389
g5
tp390
a(g138
g138
g138
g5
g5
tp391
a(S'METHODS'
p392
S'METHODS'
p393
S'NNS'
p394
S'B-NP'
p395
g5
tp396
a(S'Between'
p397
S'Between'
p398
S'IN'
p399
S'B-PP'
p400
g5
tp401
a(S'December'
p402
S'December'
p403
S'NNP'
p404
S'B-NP'
p405
g5
tp406
a(S','
p407
g407
g407
g5
g5
tp408
a(S'1993'
p409
S'1993'
p410
S'CD'
p411
S'B-NP'
p412
g5
tp413
a(g407
g407
g407
g5
g5
tp414
a(S'and'
p415
S'and'
p416
S'CC'
p417
g5
g5
tp418
a(S'April'
p419
S'April'
p420
S'NNP'
p421
S'B-NP'
p422
g5
tp423
a(g407
g407
g407
g5
g5
tp424
a(S'1995'
p425
S'1995'
p426
S'CD'
p427
S'B-NP'
p428
g5
tp429
a(g407
g407
g407
g5
g5
tp430
a(S'304'
p431
S'304'
p432
S'CD'
p433
S'B-NP'
p434
g5
tp435
a(S'liver-transplant'
p436
S'liver-transplant'
p437
S'JJ'
p438
S'I-NP'
p439
g5
tp440
a(S'recipients'
p441
S'recipient'
p442
S'NNS'
p443
S'I-NP'
p444
g5
tp445
a(S'were'
p446
S'be'
p447
S'VBD'
p448
S'B-VP'
p449
g5
tp450
a(S'randomised'
p451
S'randomise'
p452
S'VBN'
p453
S'I-VP'
p454
g5
tp455
a(S'to'
p456
S'to'
p457
S'TO'
p458
S'I-VP'
p459
g5
tp460
a(S'receive'
p461
S'receive'
p462
S'VB'
p463
S'I-VP'
p464
g5
tp465
a(S'oral'
p466
S'oral'
p467
S'JJ'
p468
S'B-NP'
p469
g5
tp470
a(S'ganciclovir'
p471
S'ganciclovir'
p472
S'NN'
p473
S'I-NP'
p474
g5
tp475
a(S'1000'
p476
S'1000'
p477
S'CD'
p478
S'I-NP'
p479
g5
tp480
a(S'mg'
p481
S'mg'
p482
S'NN'
p483
S'I-NP'
p484
g5
tp485
a(S'or'
p486
S'or'
p487
S'CC'
p488
g5
g5
tp489
a(S'matching'
p490
S'match'
p491
S'VBG'
p492
S'B-VP'
p493
g5
tp494
a(S'placebo'
p495
S'placebo'
p496
S'NN'
p497
S'B-NP'
p498
g5
tp499
a(S'three'
p500
S'three'
p501
S'CD'
p502
S'B-NP'
p503
g5
tp504
a(S'times'
p505
S'time'
p506
S'NNS'
p507
S'I-NP'
p508
g5
tp509
a(g167
g167
S'DT'
p510
S'B-NP'
p511
g5
tp512
a(S'day.'
p513
S'day.'
p514
S'JJ'
p515
S'I-NP'
p516
g5
tp517
a(S'Seronegative'
p518
S'Seronegative'
p519
S'JJ'
p520
S'I-NP'
p521
g5
tp522
a(S'recipients'
p523
S'recipient'
p524
S'NNS'
p525
S'I-NP'
p526
g5
tp527
a(S'of'
p528
S'of'
p529
S'IN'
p530
S'B-PP'
p531
g5
tp532
a(S'seronegative'
p533
S'seronegative'
p534
S'JJ'
p535
S'B-NP'
p536
g5
tp537
a(S'livers'
p538
S'liver'
p539
S'NNS'
p540
S'I-NP'
p541
g5
tp542
a(S'were'
p543
S'be'
p544
S'VBD'
p545
S'B-VP'
p546
g5
tp547
a(S'excluded.'
p548
S'excluded.'
p549
S'VBN'
p550
S'I-VP'
p551
g5
tp552
a(S'Study'
p553
S'Study'
p554
S'NNP'
p555
S'B-NP'
p556
g5
tp557
a(S'drug'
p558
S'drug'
p559
S'NN'
p560
S'I-NP'
p561
g5
tp562
a(S'was'
p563
S'be'
p564
S'VBD'
p565
S'B-VP'
p566
g5
tp567
a(S'administered'
p568
S'administer'
p569
S'VBN'
p570
S'I-VP'
p571
g5
tp572
a(S'as'
p573
S'as'
p574
S'RB'
p575
S'B-ADVP'
p576
g5
tp577
a(S'soon'
p578
S'soon'
p579
S'RB'
p580
S'I-ADVP'
p581
g5
tp582
a(S'as'
p583
S'as'
p584
S'IN'
p585
S'B-SBAR'
p586
g5
tp587
a(S'the'
p588
S'the'
p589
S'DT'
p590
S'B-NP'
p591
g5
tp592
a(S'patient'
p593
S'patient'
p594
S'NN'
p595
S'I-NP'
p596
g5
tp597
a(S'was'
p598
S'be'
p599
S'VBD'
p600
S'B-VP'
p601
g5
tp602
a(S'able'
p603
S'able'
p604
S'JJ'
p605
S'B-ADJP'
p606
g5
tp607
a(S'to'
p608
S'to'
p609
S'TO'
p610
S'B-VP'
p611
g5
tp612
a(S'take'
p613
S'take'
p614
S'VB'
p615
S'I-VP'
p616
g5
tp617
a(S'medication'
p618
S'medication'
p619
S'NN'
p620
S'B-NP'
p621
g5
tp622
a(S'by'
p623
S'by'
p624
S'IN'
p625
S'B-PP'
p626
g5
tp627
a(S'mouth'
p628
S'mouth'
p629
S'NN'
p630
S'B-NP'
p631
g5
tp632
a(g128
g128
g128
g5
g5
tp633
a(S'no'
p634
S'no'
p635
S'RB'
p636
S'B-ADVP'
p637
g5
tp638
a(S'later'
p639
S'later'
p640
S'RB'
p641
S'I-ADVP'
p642
g5
tp643
a(S'than'
p644
S'than'
p645
S'IN'
p646
S'B-PP'
p647
g5
tp648
a(S'day'
p649
S'day'
p650
S'NN'
p651
S'B-NP'
p652
g5
tp653
a(S'10'
p654
S'10'
p655
S'CD'
p656
S'I-NP'
p657
g5
tp658
a(g136
g136
g136
g5
g5
tp659
a(S'until'
p660
S'until'
p661
S'IN'
p662
S'B-SBAR'
p663
g5
tp664
a(S'the'
p665
S'the'
p666
S'DT'
p667
S'B-NP'
p668
g5
tp669
a(S'98th'
p670
S'98th'
p671
S'JJ'
p672
S'I-NP'
p673
g5
tp674
a(S'day'
p675
S'day'
p676
S'NN'
p677
S'I-NP'
p678
g5
tp679
a(S'after'
p680
S'after'
p681
S'IN'
p682
S'B-SBAR'
p683
g5
tp684
a(S'transplantation.'
p685
S'transplantation.'
p686
S'NN'
p687
S'B-NP'
p688
g5
tp689
a(S'Patients'
p690
S'Patient'
p691
S'NNS'
p692
S'I-NP'
p693
g5
tp694
a(S'were'
p695
S'be'
p696
S'VBD'
p697
S'B-VP'
p698
g5
tp699
a(S'assessed'
p700
S'assess'
p701
S'VBN'
p702
S'I-VP'
p703
g5
tp704
a(S'at'
p705
S'at'
p706
S'IN'
p707
S'B-PP'
p708
g5
tp709
a(S'specified'
p710
S'specify'
p711
S'VBN'
p712
S'B-NP'
p713
g5
tp714
a(S'times'
p715
S'time'
p716
S'NNS'
p717
S'I-NP'
p718
g5
tp719
a(S'throughout'
p720
S'throughout'
p721
S'IN'
p722
S'B-PP'
p723
g5
tp724
a(S'the'
p725
S'the'
p726
S'DT'
p727
S'B-NP'
p728
g5
tp729
a(S'first'
p730
S'first'
p731
S'JJ'
p732
S'I-NP'
p733
g5
tp734
a(S'6'
p735
g735
S'CD'
p736
S'I-NP'
p737
g5
tp738
a(S'months'
p739
S'month'
p740
S'NNS'
p741
S'I-NP'
p742
g5
tp743
a(S'after'
p744
S'after'
p745
S'IN'
p746
S'B-PP'
p747
g5
tp748
a(S'surgery'
p749
S'surgery'
p750
S'NN'
p751
S'B-NP'
p752
g5
tp753
a(S'for'
p754
S'for'
p755
S'IN'
p756
S'B-PP'
p757
g5
tp758
a(S'evidence'
p759
S'evidence'
p760
S'NN'
p761
S'B-NP'
p762
g5
tp763
a(S'of'
p764
S'of'
p765
S'IN'
p766
S'B-PP'
p767
g5
tp768
a(S'CMV'
p769
S'CMV'
p770
S'NN'
p771
S'B-NP'
p772
g5
tp773
a(S'infection'
p774
S'infection'
p775
S'NN'
p776
S'I-NP'
p777
g5
tp778
a(g407
g407
g407
g5
g5
tp779
a(S'CMV'
p780
S'CMV'
p781
S'NN'
p782
S'B-NP'
p783
g5
tp784
a(S'disease'
p785
S'disease'
p786
S'NN'
p787
S'I-NP'
p788
g5
tp789
a(g407
g407
g407
g5
g5
tp790
a(S'rejection'
p791
S'rejection'
p792
S'NN'
p793
S'B-NP'
p794
g5
tp795
a(g407
g407
g407
g5
g5
tp796
a(S'opportunistic'
p797
S'opportunistic'
p798
S'JJ'
p799
S'B-NP'
p800
g5
tp801
a(S'infections'
p802
S'infection'
p803
S'NNS'
p804
S'I-NP'
p805
g5
tp806
a(g407
g407
g407
g5
g5
tp807
a(S'and'
p808
S'and'
p809
S'CC'
p810
g5
g5
tp811
a(S'possible'
p812
S'possible'
p813
S'JJ'
p814
S'B-NP'
p815
g5
tp816
a(S'drug'
p817
S'drug'
p818
S'NN'
p819
S'I-NP'
p820
g5
tp821
a(S'toxicity'
p822
S'toxicity'
p823
S'NN'
p824
S'I-NP'
p825
g5
tp826
a(g138
g138
g138
g5
g5
tp827
a(S'FINDINGS'
p828
S'FINDINGS'
p829
S'NNS'
p830
S'B-NP'
p831
g5
tp832
a(S'The'
p833
S'The'
p834
S'DT'
p835
S'B-NP'
p836
g5
tp837
a(S'Kaplan-Meier'
p838
S'Kaplan-Meier'
p839
S'NNP'
p840
S'I-NP'
p841
g5
tp842
a(S'estimate'
p843
S'estimate'
p844
S'NN'
p845
S'I-NP'
p846
g5
tp847
a(S'of'
p848
S'of'
p849
S'IN'
p850
S'B-PP'
p851
g5
tp852
a(S'the'
p853
S'the'
p854
S'DT'
p855
S'B-NP'
p856
g5
tp857
a(S'6-month'
p858
S'6-month'
p859
S'JJ'
p860
S'I-NP'
p861
g5
tp862
a(S'incidence'
p863
S'incidence'
p864
S'NN'
p865
S'I-NP'
p866
g5
tp867
a(S'of'
p868
S'of'
p869
S'IN'
p870
S'B-PP'
p871
g5
tp872
a(S'CMV'
p873
S'CMV'
p874
S'NN'
p875
S'B-NP'
p876
g5
tp877
a(S'disease'
p878
S'disease'
p879
S'NN'
p880
S'I-NP'
p881
g5
tp882
a(S'was'
p883
S'be'
p884
S'VBD'
p885
S'B-VP'
p886
g5
tp887
a(S'29'
p888
S'29'
p889
S'CD'
p890
S'B-NP'
p891
g5
tp892
a(g128
g128
g128
g5
g5
tp893
a(S'18.9'
p894
S'18.9'
p895
S'CD'
p896
S'B-NP'
p897
g5
tp898
a(S'%'
p899
g899
S'NN'
p900
S'I-NP'
p901
g5
tp902
a(g136
g136
g136
g5
g5
tp903
a(S'of'
p904
S'of'
p905
S'IN'
p906
S'B-PP'
p907
g5
tp908
a(S'154'
p909
S'154'
p910
S'CD'
p911
S'B-NP'
p912
g5
tp913
a(S'in'
p914
S'in'
p915
S'IN'
p916
S'B-PP'
p917
g5
tp918
a(S'the'
p919
S'the'
p920
S'DT'
p921
S'B-NP'
p922
g5
tp923
a(S'placebo'
p924
S'placebo'
p925
S'NN'
p926
S'I-NP'
p927
g5
tp928
a(S'group'
p929
S'group'
p930
S'NN'
p931
S'I-NP'
p932
g5
tp933
a(g407
g407
g407
g5
g5
tp934
a(S'compared'
p935
S'compare'
p936
S'VBN'
p937
S'B-PP'
p938
g5
tp939
a(S'with'
p940
S'with'
p941
S'IN'
p942
S'B-PP'
p943
g5
tp944
a(S'seven'
p945
S'seven'
p946
S'CD'
p947
S'B-NP'
p948
g5
tp949
a(g128
g128
g128
g5
g5
tp950
a(S'4.8'
p951
S'4.8'
p952
S'CD'
p953
S'B-NP'
p954
g5
tp955
a(g899
g899
S'NN'
p956
S'I-NP'
p957
g5
tp958
a(g136
g136
g136
g5
g5
tp959
a(S'of'
p960
S'of'
p961
S'IN'
p962
S'B-PP'
p963
g5
tp964
a(S'150'
p965
S'150'
p966
S'CD'
p967
S'B-NP'
p968
g5
tp969
a(S'in'
p970
S'in'
p971
S'IN'
p972
S'B-PP'
p973
g5
tp974
a(S'the'
p975
S'the'
p976
S'DT'
p977
S'B-NP'
p978
g5
tp979
a(S'ganciclovir'
p980
S'ganciclovir'
p981
S'NN'
p982
S'I-NP'
p983
g5
tp984
a(S'group'
p985
S'group'
p986
S'NN'
p987
S'I-NP'
p988
g5
tp989
a(g128
g128
g128
g5
g5
tp990
a(S'p'
p991
g991
S'NN'
p992
S'B-NP'
p993
g5
tp994
a(S'<'
p995
g995
S'SYM'
p996
g5
g5
tp997
a(S'0.001'
p998
S'0.001'
p999
S'CD'
p1000
S'B-NP'
p1001
g5
tp1002
a(g136
g136
g136
g5
g5
tp1003
a(g138
g138
g138
g5
g5
tp1004
a(S'In'
p1005
S'In'
p1006
S'IN'
p1007
S'B-PP'
p1008
g5
tp1009
a(S'the'
p1010
S'the'
p1011
S'DT'
p1012
S'B-NP'
p1013
g5
tp1014
a(S'high-risk'
p1015
S'high-risk'
p1016
S'JJ'
p1017
S'I-NP'
p1018
g5
tp1019
a(S'group'
p1020
S'group'
p1021
S'NN'
p1022
S'I-NP'
p1023
g5
tp1024
a(S'of'
p1025
S'of'
p1026
S'IN'
p1027
S'B-PP'
p1028
g5
tp1029
a(S'seronegative'
p1030
S'seronegative'
p1031
S'JJ'
p1032
S'B-NP'
p1033
g5
tp1034
a(S'recipients'
p1035
S'recipient'
p1036
S'NNS'
p1037
S'I-NP'
p1038
g5
tp1039
a(g128
g128
g128
g5
g5
tp1040
a(S'R-'
p1041
S'R-'
p1042
S'NN'
p1043
S'B-NP'
p1044
g5
tp1045
a(g136
g136
g136
g5
g5
tp1046
a(S'of'
p1047
S'of'
p1048
S'IN'
p1049
S'B-PP'
p1050
g5
tp1051
a(S'seropositive'
p1052
S'seropositive'
p1053
S'JJ'
p1054
S'B-NP'
p1055
g5
tp1056
a(S'livers'
p1057
S'liver'
p1058
S'NNS'
p1059
S'I-NP'
p1060
g5
tp1061
a(g128
g128
g128
g5
g5
tp1062
a(S'D+'
p1063
S'D+'
p1064
S'NN'
p1065
S'B-NP'
p1066
g5
tp1067
a(g136
g136
g136
g5
g5
tp1068
a(g407
g407
g407
g5
g5
tp1069
a(S'incidence'
p1070
S'incidence'
p1071
S'NN'
p1072
S'B-NP'
p1073
g5
tp1074
a(S'of'
p1075
S'of'
p1076
S'IN'
p1077
S'B-PP'
p1078
g5
tp1079
a(S'CMV'
p1080
S'CMV'
p1081
S'NN'
p1082
S'B-NP'
p1083
g5
tp1084
a(S'disease'
p1085
S'disease'
p1086
S'NN'
p1087
S'I-NP'
p1088
g5
tp1089
a(S'was'
p1090
S'be'
p1091
S'VBD'
p1092
S'B-VP'
p1093
g5
tp1094
a(S'11'
p1095
S'11'
p1096
S'CD'
p1097
S'B-NP'
p1098
g5
tp1099
a(g128
g128
g128
g5
g5
tp1100
a(S'44.0'
p1101
S'44.0'
p1102
S'CD'
p1103
S'B-NP'
p1104
g5
tp1105
a(g899
g899
S'NN'
p1106
S'I-NP'
p1107
g5
tp1108
a(g136
g136
g136
g5
g5
tp1109
a(S'of'
p1110
S'of'
p1111
S'IN'
p1112
S'B-PP'
p1113
g5
tp1114
a(S'25'
p1115
S'25'
p1116
S'CD'
p1117
S'B-NP'
p1118
g5
tp1119
a(S'in'
p1120
S'in'
p1121
S'IN'
p1122
S'B-PP'
p1123
g5
tp1124
a(S'the'
p1125
S'the'
p1126
S'DT'
p1127
S'B-NP'
p1128
g5
tp1129
a(S'placebo'
p1130
S'placebo'
p1131
S'NN'
p1132
S'I-NP'
p1133
g5
tp1134
a(S'group'
p1135
S'group'
p1136
S'NN'
p1137
S'I-NP'
p1138
g5
tp1139
a(g407
g407
g407
g5
g5
tp1140
a(S'three'
p1141
S'three'
p1142
S'CD'
p1143
S'B-NP'
p1144
g5
tp1145
a(g128
g128
g128
g5
g5
tp1146
a(S'14.8'
p1147
S'14.8'
p1148
S'CD'
p1149
S'B-NP'
p1150
g5
tp1151
a(g899
g899
S'NN'
p1152
S'I-NP'
p1153
g5
tp1154
a(g136
g136
g136
g5
g5
tp1155
a(S'of'
p1156
S'of'
p1157
S'IN'
p1158
S'B-PP'
p1159
g5
tp1160
a(S'21'
p1161
S'21'
p1162
S'CD'
p1163
S'B-NP'
p1164
g5
tp1165
a(S'in'
p1166
S'in'
p1167
S'IN'
p1168
S'B-PP'
p1169
g5
tp1170
a(S'the'
p1171
S'the'
p1172
S'DT'
p1173
S'B-NP'
p1174
g5
tp1175
a(S'ganciclovir'
p1176
S'ganciclovir'
p1177
S'NN'
p1178
S'I-NP'
p1179
g5
tp1180
a(S'group'
p1181
S'group'
p1182
S'NN'
p1183
S'I-NP'
p1184
g5
tp1185
a(g128
g128
g128
g5
g5
tp1186
a(g991
g991
S'NN'
p1187
S'B-NP'
p1188
g5
tp1189
a(S'='
p1190
g1190
S'SYM'
p1191
S'B-VP'
p1192
g5
tp1193
a(S'0.02'
p1194
S'0.02'
p1195
S'CD'
p1196
S'B-NP'
p1197
g5
tp1198
a(g136
g136
g136
g5
g5
tp1199
a(g138
g138
g138
g5
g5
tp1200
a(S'Significant'
p1201
S'Significant'
p1202
S'JJ'
p1203
S'B-NP'
p1204
g5
tp1205
a(S'benefit'
p1206
S'benefit'
p1207
S'NN'
p1208
S'I-NP'
p1209
g5
tp1210
a(S'was'
p1211
S'be'
p1212
S'VBD'
p1213
S'B-VP'
p1214
g5
tp1215
a(S'also'
p1216
S'also'
p1217
S'RB'
p1218
S'I-VP'
p1219
g5
tp1220
a(S'observed'
p1221
S'observe'
p1222
S'VBN'
p1223
S'I-VP'
p1224
g5
tp1225
a(S'in'
p1226
S'in'
p1227
S'IN'
p1228
S'B-PP'
p1229
g5
tp1230
a(S'those'
p1231
S'those'
p1232
S'DT'
p1233
S'B-NP'
p1234
g5
tp1235
a(S'receiving'
p1236
S'receive'
p1237
S'VBG'
p1238
S'I-NP'
p1239
g5
tp1240
a(S'antibodies'
p1241
S'antibody'
p1242
S'NNS'
p1243
S'I-NP'
p1244
S'B-protein'
p1245
tp1246
a(S'to'
p1247
S'to'
p1248
S'TO'
p1249
S'B-PP'
p1250
g5
tp1251
a(S'lymphocytes'
p1252
S'lymphocyte'
p1253
S'NNS'
p1254
S'B-NP'
p1255
S'B-cell_type'
p1256
tp1257
a(g407
g407
g407
g5
g5
tp1258
a(S'where'
p1259
S'where'
p1260
S'WRB'
p1261
S'B-ADVP'
p1262
g5
tp1263
a(S'the'
p1264
S'the'
p1265
S'DT'
p1266
S'B-NP'
p1267
g5
tp1268
a(S'incidence'
p1269
S'incidence'
p1270
S'NN'
p1271
S'I-NP'
p1272
g5
tp1273
a(S'of'
p1274
S'of'
p1275
S'IN'
p1276
S'B-PP'
p1277
g5
tp1278
a(S'CMV'
p1279
S'CMV'
p1280
S'NN'
p1281
S'B-NP'
p1282
g5
tp1283
a(S'disease'
p1284
S'disease'
p1285
S'NN'
p1286
S'I-NP'
p1287
g5
tp1288
a(S'was'
p1289
S'be'
p1290
S'VBD'
p1291
S'B-VP'
p1292
g5
tp1293
a(S'12'
p1294
S'12'
p1295
S'CD'
p1296
S'B-NP'
p1297
g5
tp1298
a(g128
g128
g128
g5
g5
tp1299
a(S'32.9'
p1300
S'32.9'
p1301
S'CD'
p1302
S'B-NP'
p1303
g5
tp1304
a(g899
g899
S'NN'
p1305
S'I-NP'
p1306
g5
tp1307
a(g136
g136
g136
g5
g5
tp1308
a(S'of'
p1309
S'of'
p1310
S'IN'
p1311
S'B-PP'
p1312
g5
tp1313
a(S'37'
p1314
S'37'
p1315
S'CD'
p1316
S'B-NP'
p1317
g5
tp1318
a(S'in'
p1319
S'in'
p1320
S'IN'
p1321
S'B-PP'
p1322
g5
tp1323
a(S'the'
p1324
S'the'
p1325
S'DT'
p1326
S'B-NP'
p1327
g5
tp1328
a(S'placebo'
p1329
S'placebo'
p1330
S'NN'
p1331
S'I-NP'
p1332
g5
tp1333
a(S'group'
p1334
S'group'
p1335
S'NN'
p1336
S'I-NP'
p1337
g5
tp1338
a(S'and'
p1339
S'and'
p1340
S'CC'
p1341
g5
g5
tp1342
a(S'two'
p1343
S'two'
p1344
S'CD'
p1345
S'B-NP'
p1346
g5
tp1347
a(g128
g128
g128
g5
g5
tp1348
a(S'4.6'
p1349
S'4.6'
p1350
S'CD'
p1351
S'B-NP'
p1352
g5
tp1353
a(g899
g899
S'NN'
p1354
S'I-NP'
p1355
g5
tp1356
a(g136
g136
g136
g5
g5
tp1357
a(S'of'
p1358
S'of'
p1359
S'IN'
p1360
S'B-PP'
p1361
g5
tp1362
a(S'44'
p1363
S'44'
p1364
S'CD'
p1365
S'B-NP'
p1366
g5
tp1367
a(S'in'
p1368
S'in'
p1369
S'IN'
p1370
S'B-PP'
p1371
g5
tp1372
a(S'the'
p1373
S'the'
p1374
S'DT'
p1375
S'B-NP'
p1376
g5
tp1377
a(S'ganciclovir'
p1378
S'ganciclovir'
p1379
S'NN'
p1380
S'I-NP'
p1381
g5
tp1382
a(S'group'
p1383
S'group'
p1384
S'NN'
p1385
S'I-NP'
p1386
g5
tp1387
a(g128
g128
g128
g5
g5
tp1388
a(g991
g991
S'NN'
p1389
S'B-NP'
p1390
g5
tp1391
a(g1190
g1190
S'SYM'
p1392
S'B-VP'
p1393
g5
tp1394
a(S'0.002'
p1395
S'0.002'
p1396
S'CD'
p1397
S'B-NP'
p1398
g5
tp1399
a(g136
g136
g136
g5
g5
tp1400
a(g138
g138
g138
g5
g5
tp1401
a(S'Oral'
p1402
S'Oral'
p1403
S'JJ'
p1404
S'B-NP'
p1405
g5
tp1406
a(S'ganciclovir'
p1407
S'ganciclovir'
p1408
S'NN'
p1409
S'I-NP'
p1410
g5
tp1411
a(S'reduced'
p1412
S'reduce'
p1413
S'VBD'
p1414
S'B-VP'
p1415
g5
tp1416
a(S'the'
p1417
S'the'
p1418
S'DT'
p1419
S'B-NP'
p1420
g5
tp1421
a(S'incidence'
p1422
S'incidence'
p1423
S'NN'
p1424
S'I-NP'
p1425
g5
tp1426
a(S'of'
p1427
S'of'
p1428
S'IN'
p1429
S'B-PP'
p1430
g5
tp1431
a(S'CMV'
p1432
S'CMV'
p1433
S'NN'
p1434
S'B-NP'
p1435
g5
tp1436
a(S'infection'
p1437
S'infection'
p1438
S'NN'
p1439
S'I-NP'
p1440
g5
tp1441
a(g128
g128
g128
g5
g5
tp1442
a(S'placebo'
p1443
S'placebo'
p1444
S'NN'
p1445
S'B-NP'
p1446
g5
tp1447
a(S'79'
p1448
S'79'
p1449
S'CD'
p1450
S'I-NP'
p1451
g5
tp1452
a(g127
g127
g128
g5
g5
tp1453
a(S'51.5'
p1454
S'51.5'
p1455
S'CD'
p1456
S'B-NP'
p1457
g5
tp1458
a(g899
g899
S'NN'
p1459
S'I-NP'
p1460
g5
tp1461
a(g135
g135
g136
g5
g5
tp1462
a(S'of'
p1463
S'of'
p1464
S'IN'
p1465
S'B-PP'
p1466
g5
tp1467
a(S'154'
p1468
S'154'
p1469
S'CD'
p1470
S'B-NP'
p1471
g5
tp1472
a(S';'
p1473
g1473
S':'
p1474
g5
g5
tp1475
a(S'ganciclovir'
p1476
S'ganciclovir'
p1477
S'NN'
p1478
S'B-NP'
p1479
g5
tp1480
a(S'37'
p1481
S'37'
p1482
S'CD'
p1483
S'I-NP'
p1484
g5
tp1485
a(g127
g127
g128
g5
g5
tp1486
a(S'24.5'
p1487
S'24.5'
p1488
S'CD'
p1489
S'B-NP'
p1490
g5
tp1491
a(g899
g899
S'NN'
p1492
S'I-NP'
p1493
g5
tp1494
a(g135
g135
g136
g5
g5
tp1495
a(S'of'
p1496
S'of'
p1497
S'IN'
p1498
S'B-PP'
p1499
g5
tp1500
a(S'150'
p1501
S'150'
p1502
S'CD'
p1503
S'B-NP'
p1504
g5
tp1505
a(g1473
g1473
g1474
g5
g5
tp1506
a(g991
g991
S'NN'
p1507
S'B-NP'
p1508
g5
tp1509
a(g995
g995
S'SYM'
p1510
S'B-NP'
p1511
g5
tp1512
a(S'0.001'
p1513
S'0.001'
p1514
S'CD'
p1515
S'I-NP'
p1516
g5
tp1517
a(g136
g136
g136
g5
g5
tp1518
a(S'and'
p1519
S'and'
p1520
S'CC'
p1521
g5
g5
tp1522
a(S'also'
p1523
S'also'
p1524
S'RB'
p1525
S'B-ADVP'
p1526
g5
tp1527
a(S'reduced'
p1528
S'reduce'
p1529
S'VBD'
p1530
S'B-VP'
p1531
g5
tp1532
a(S'symptomatic'
p1533
S'symptomatic'
p1534
S'JJ'
p1535
S'B-NP'
p1536
g5
tp1537
a(S'herpes-simplex'
p1538
S'herpes-simplex'
p1539
S'JJ'
p1540
S'I-NP'
p1541
g5
tp1542
a(S'infections'
p1543
S'infection'
p1544
S'NNS'
p1545
S'I-NP'
p1546
g5
tp1547
a(g128
g128
g128
g5
g5
tp1548
a(S'Kaplan-Meier'
p1549
S'Kaplan-Meier'
p1550
S'NN'
p1551
S'B-NP'
p1552
g5
tp1553
a(S'estimates'
p1554
S'estimate'
p1555
S'NNS'
p1556
S'I-NP'
p1557
g5
tp1558
a(g1474
g1474
g1474
g5
g5
tp1559
a(S'placebo'
p1560
S'placebo'
p1561
S'NN'
p1562
S'B-NP'
p1563
g5
tp1564
a(S'36'
p1565
S'36'
p1566
S'CD'
p1567
S'I-NP'
p1568
g5
tp1569
a(g127
g127
g128
g5
g5
tp1570
a(S'23.5'
p1571
S'23.5'
p1572
S'CD'
p1573
S'B-NP'
p1574
g5
tp1575
a(g899
g899
S'NN'
p1576
S'I-NP'
p1577
g5
tp1578
a(g135
g135
g136
g5
g5
tp1579
a(S'of'
p1580
S'of'
p1581
S'IN'
p1582
S'B-PP'
p1583
g5
tp1584
a(S'154'
p1585
S'154'
p1586
S'CD'
p1587
S'B-NP'
p1588
g5
tp1589
a(g1473
g1473
g1474
g5
g5
tp1590
a(S'ganciclovir'
p1591
S'ganciclovir'
p1592
S'NN'
p1593
S'B-NP'
p1594
g5
tp1595
a(S'five'
p1596
S'five'
p1597
S'CD'
p1598
S'I-NP'
p1599
g5
tp1600
a(g127
g127
g128
g5
g5
tp1601
a(S'3.5'
p1602
S'3.5'
p1603
S'CD'
p1604
S'B-NP'
p1605
g5
tp1606
a(g899
g899
S'NN'
p1607
S'I-NP'
p1608
g5
tp1609
a(g135
g135
g136
g5
g5
tp1610
a(S'of'
p1611
S'of'
p1612
S'IN'
p1613
S'B-PP'
p1614
g5
tp1615
a(S'150'
p1616
S'150'
p1617
S'CD'
p1618
S'B-NP'
p1619
g5
tp1620
a(g1473
g1473
g1474
g5
g5
tp1621
a(g991
g991
S'NN'
p1622
S'B-NP'
p1623
g5
tp1624
a(g995
g995
S'SYM'
p1625
S'B-NP'
p1626
g5
tp1627
a(S'0.001'
p1628
S'0.001'
p1629
S'CD'
p1630
S'I-NP'
p1631
g5
tp1632
a(g136
g136
g136
g5
g5
tp1633
a(g138
g138
g138
g5
g5
tp1634
a(S'INTERPRETATION'
p1635
S'INTERPRETATION'
p1636
S'NN'
p1637
S'B-NP'
p1638
S'B-protein'
p1639
tp1640
a(S'Oral'
p1641
S'Oral'
p1642
S'JJ'
p1643
S'I-NP'
p1644
S'I-protein'
p1645
tp1646
a(S'ganciclovir'
p1647
S'ganciclovir'
p1648
S'NN'
p1649
S'I-NP'
p1650
S'I-protein'
p1651
tp1652
a(S'is'
p1653
S'be'
p1654
S'VBZ'
p1655
S'B-VP'
p1656
g5
tp1657
a(g167
g167
S'DT'
p1658
S'B-NP'
p1659
g5
tp1660
a(S'safe'
p1661
S'safe'
p1662
S'JJ'
p1663
S'I-NP'
p1664
g5
tp1665
a(S'and'
p1666
S'and'
p1667
S'CC'
p1668
S'I-NP'
p1669
g5
tp1670
a(S'effective'
p1671
S'effective'
p1672
S'JJ'
p1673
S'I-NP'
p1674
g5
tp1675
a(S'method'
p1676
S'method'
p1677
S'NN'
p1678
S'I-NP'
p1679
g5
tp1680
a(S'for'
p1681
S'for'
p1682
S'IN'
p1683
S'B-PP'
p1684
g5
tp1685
a(S'the'
p1686
S'the'
p1687
S'DT'
p1688
S'B-NP'
p1689
g5
tp1690
a(S'prevention'
p1691
S'prevention'
p1692
S'NN'
p1693
S'I-NP'
p1694
g5
tp1695
a(S'of'
p1696
S'of'
p1697
S'IN'
p1698
S'B-PP'
p1699
g5
tp1700
a(S'CMV'
p1701
S'CMV'
p1702
S'NN'
p1703
S'B-NP'
p1704
g5
tp1705
a(S'disease'
p1706
S'disease'
p1707
S'NN'
p1708
S'I-NP'
p1709
g5
tp1710
a(S'after'
p1711
S'after'
p1712
S'IN'
p1713
S'B-PP'
p1714
g5
tp1715
a(S'orthotopic'
p1716
S'orthotopic'
p1717
S'JJ'
p1718
S'B-NP'
p1719
g5
tp1720
a(S'liver'
p1721
S'liver'
p1722
S'NN'
p1723
S'I-NP'
p1724
g5
tp1725
a(S'transplantation'
p1726
S'transplantation'
p1727
S'NN'
p1728
S'I-NP'
p1729
g5
tp1730
a(g138
g138
g138
g5
g5
tp1731
a.