(lp0
(S'Prospective'
p1
S'Prospective'
p2
S'JJ'
p3
S'B-NP'
p4
S'O'
p5
tp6
a(S'randomized'
p7
S'randomize'
p8
S'VBN'
p9
S'I-NP'
p10
g5
tp11
a(S'trial'
p12
S'trial'
p13
S'NN'
p14
S'I-NP'
p15
g5
tp16
a(S'of'
p17
S'of'
p18
S'IN'
p19
S'B-PP'
p20
g5
tp21
a(S'bispectral'
p22
S'bispectral'
p23
S'JJ'
p24
S'B-NP'
p25
g5
tp26
a(S'index'
p27
S'index'
p28
S'NN'
p29
S'I-NP'
p30
g5
tp31
a(S'monitoring'
p32
S'monitoring'
p33
S'NN'
p34
S'I-NP'
p35
g5
tp36
a(S'of'
p37
S'of'
p38
S'IN'
p39
S'B-PP'
p40
g5
tp41
a(S'sedation'
p42
S'sedation'
p43
S'NN'
p44
S'B-NP'
p45
g5
tp46
a(S'depth'
p47
S'depth'
p48
S'NN'
p49
S'I-NP'
p50
g5
tp51
a(S'during'
p52
S'during'
p53
S'IN'
p54
S'B-PP'
p55
g5
tp56
a(S'flexible'
p57
S'flexible'
p58
S'JJ'
p59
S'B-NP'
p60
g5
tp61
a(S'bronchoscopy'
p62
S'bronchoscopy'
p63
S'NN'
p64
S'I-NP'
p65
g5
tp66
a(S'.'
p67
g67
g67
g5
g5
tp68
a(S'BACKGROUND'
p69
S'BACKGROUND'
p70
S'NN'
p71
S'B-NP'
p72
g5
tp73
a(S'The'
p74
S'The'
p75
S'DT'
p76
S'B-NP'
p77
g5
tp78
a(S'clinical'
p79
S'clinical'
p80
S'JJ'
p81
S'I-NP'
p82
g5
tp83
a(S'benefits'
p84
S'benefit'
p85
S'NNS'
p86
S'I-NP'
p87
g5
tp88
a(S'associated'
p89
S'associate'
p90
S'VBN'
p91
S'B-VP'
p92
g5
tp93
a(S'with'
p94
S'with'
p95
S'IN'
p96
S'B-PP'
p97
g5
tp98
a(S'the'
p99
S'the'
p100
S'DT'
p101
S'B-NP'
p102
g5
tp103
a(S'use'
p104
S'use'
p105
S'NN'
p106
S'I-NP'
p107
g5
tp108
a(S'of'
p109
S'of'
p110
S'IN'
p111
S'B-PP'
p112
g5
tp113
a(S'the'
p114
S'the'
p115
S'DT'
p116
S'B-NP'
p117
g5
tp118
a(S'bispectral'
p119
S'bispectral'
p120
S'JJ'
p121
S'I-NP'
p122
g5
tp123
a(S'index'
p124
S'index'
p125
S'NN'
p126
S'I-NP'
p127
g5
tp128
a(S'('
p129
g129
g129
g5
g5
tp130
a(S'BIS'
p131
S'BIS'
p132
S'NN'
p133
S'B-NP'
p134
g5
tp135
a(S')'
p136
g136
g136
g5
g5
tp137
a(S'to'
p138
S'to'
p139
S'TO'
p140
S'B-VP'
p141
g5
tp142
a(S'monitor'
p143
S'monitor'
p144
S'VB'
p145
S'I-VP'
p146
g5
tp147
a(S'the'
p148
S'the'
p149
S'DT'
p150
S'B-NP'
p151
g5
tp152
a(S'depth'
p153
S'depth'
p154
S'NN'
p155
S'I-NP'
p156
g5
tp157
a(S'of'
p158
S'of'
p159
S'IN'
p160
S'B-PP'
p161
g5
tp162
a(S'sedation'
p163
S'sedation'
p164
S'NN'
p165
S'B-NP'
p166
g5
tp167
a(S'during'
p168
S'during'
p169
S'IN'
p170
S'B-PP'
p171
g5
tp172
a(S'flexible'
p173
S'flexible'
p174
S'JJ'
p175
S'B-NP'
p176
g5
tp177
a(S'fiberoptic'
p178
S'fiberoptic'
p179
S'JJ'
p180
S'I-NP'
p181
g5
tp182
a(S'bronchoscopy'
p183
S'bronchoscopy'
p184
S'NN'
p185
S'I-NP'
p186
g5
tp187
a(g129
g129
g129
g5
g5
tp188
a(S'FFB'
p189
S'FFB'
p190
S'NN'
p191
S'B-NP'
p192
S'B-protein'
p193
tp194
a(g136
g136
g136
g5
g5
tp195
a(S'are'
p196
S'be'
p197
S'VBP'
p198
S'B-VP'
p199
g5
tp200
a(S'questionable'
p201
S'questionable'
p202
S'JJ'
p203
S'B-ADJP'
p204
g5
tp205
a(g67
g67
g67
g5
g5
tp206
a(S'OBJECTIVES'
p207
S'OBJECTIVES'
p208
S'NNS'
p209
S'B-NP'
p210
g5
tp211
a(S'To'
p212
S'To'
p213
S'TO'
p214
S'B-VP'
p215
g5
tp216
a(S'evaluate'
p217
S'evaluate'
p218
S'VB'
p219
S'I-VP'
p220
g5
tp221
a(S'the'
p222
S'the'
p223
S'DT'
p224
S'B-NP'
p225
g5
tp226
a(S'added'
p227
S'add'
p228
S'VBN'
p229
S'I-NP'
p230
g5
tp231
a(S'value'
p232
S'value'
p233
S'NN'
p234
S'I-NP'
p235
g5
tp236
a(S'in'
p237
S'in'
p238
S'IN'
p239
S'B-PP'
p240
g5
tp241
a(S'terms'
p242
S'term'
p243
S'NNS'
p244
S'B-NP'
p245
g5
tp246
a(S'of'
p247
S'of'
p248
S'IN'
p249
S'B-PP'
p250
g5
tp251
a(S'procedural'
p252
S'procedural'
p253
S'JJ'
p254
S'B-NP'
p255
g5
tp256
a(S'safety'
p257
S'safety'
p258
S'NN'
p259
S'I-NP'
p260
g5
tp261
a(S'and'
p262
S'and'
p263
S'CC'
p264
g5
g5
tp265
a(S'patients'
p266
S'patient'
p267
S'NNS'
p268
S'B-NP'
p269
g5
tp270
a(S"'"
p271
g271
S'POS'
p272
S'B-NP'
p273
g5
tp274
a(S'awareness'
p275
S'awareness'
p276
S'NN'
p277
S'I-NP'
p278
g5
tp279
a(S'of'
p280
S'of'
p281
S'IN'
p282
S'B-PP'
p283
g5
tp284
a(S'monitoring'
p285
S'monitor'
p286
S'VBG'
p287
S'B-VP'
p288
g5
tp289
a(S'sedation'
p290
S'sedation'
p291
S'NN'
p292
S'B-NP'
p293
g5
tp294
a(S'depth'
p295
S'depth'
p296
S'NN'
p297
S'I-NP'
p298
g5
tp299
a(S'using'
p300
S'use'
p301
S'VBG'
p302
S'B-VP'
p303
g5
tp304
a(S'the'
p305
S'the'
p306
S'DT'
p307
S'B-NP'
p308
g5
tp309
a(S'BIS'
p310
S'BIS'
p311
S'NN'
p312
S'I-NP'
p313
g5
tp314
a(S'compared'
p315
S'compare'
p316
S'VBN'
p317
S'B-VP'
p318
g5
tp319
a(S'to'
p320
S'to'
p321
S'TO'
p322
S'B-PP'
p323
g5
tp324
a(S'conventional'
p325
S'conventional'
p326
S'JJ'
p327
S'B-NP'
p328
g5
tp329
a(S'clinical'
p330
S'clinical'
p331
S'JJ'
p332
S'I-NP'
p333
g5
tp334
a(S'judgment'
p335
S'judgment'
p336
S'NN'
p337
S'I-NP'
p338
g5
tp339
a(S'alone'
p340
S'alone'
p341
S'RB'
p342
S'B-ADVP'
p343
g5
tp344
a(S'in'
p345
S'in'
p346
S'IN'
p347
S'B-PP'
p348
g5
tp349
a(S'patients'
p350
S'patient'
p351
S'NNS'
p352
S'B-NP'
p353
g5
tp354
a(S'undergoing'
p355
S'undergo'
p356
S'VBG'
p357
S'B-VP'
p358
g5
tp359
a(S'FFB'
p360
S'FFB'
p361
S'NN'
p362
S'B-NP'
p363
S'B-protein'
p364
tp365
a(S'under'
p366
S'under'
p367
S'IN'
p368
S'B-PP'
p369
g5
tp370
a(S'propofol'
p371
S'propofol'
p372
S'NN'
p373
S'B-NP'
p374
g5
tp375
a(S'sedation'
p376
S'sedation'
p377
S'NN'
p378
S'I-NP'
p379
g5
tp380
a(g67
g67
g67
g5
g5
tp381
a(S'METHODS'
p382
S'METHODS'
p383
S'NNS'
p384
S'B-NP'
p385
g5
tp386
a(S'The'
p387
S'The'
p388
S'DT'
p389
S'B-NP'
p390
g5
tp391
a(S'cohort'
p392
S'cohort'
p393
S'NN'
p394
S'I-NP'
p395
g5
tp396
a(S'included'
p397
S'include'
p398
S'VBD'
p399
S'B-VP'
p400
g5
tp401
a(S'81'
p402
S'81'
p403
S'CD'
p404
S'B-NP'
p405
g5
tp406
a(S'patients'
p407
S'patient'
p408
S'NNS'
p409
S'I-NP'
p410
g5
tp411
a(S'undergoing'
p412
S'undergo'
p413
S'VBG'
p414
S'B-VP'
p415
g5
tp416
a(S'diagnostic'
p417
S'diagnostic'
p418
S'JJ'
p419
S'B-NP'
p420
g5
tp421
a(S'or'
p422
S'or'
p423
S'CC'
p424
S'I-NP'
p425
g5
tp426
a(S'therapeutic'
p427
S'therapeutic'
p428
S'JJ'
p429
S'I-NP'
p430
g5
tp431
a(S'bronchoscopy'
p432
S'bronchoscopy'
p433
S'NN'
p434
S'I-NP'
p435
g5
tp436
a(S'under'
p437
S'under'
p438
S'IN'
p439
S'B-PP'
p440
g5
tp441
a(S'propofol'
p442
S'propofol'
p443
S'NN'
p444
S'B-NP'
p445
g5
tp446
a(S'sedation'
p447
S'sedation'
p448
S'NN'
p449
S'I-NP'
p450
g5
tp451
a(S'that'
p452
S'that'
p453
S'WDT'
p454
S'B-NP'
p455
g5
tp456
a(S'were'
p457
S'be'
p458
S'VBD'
p459
S'B-VP'
p460
g5
tp461
a(S'prospectively'
p462
S'prospectively'
p463
S'RB'
p464
S'I-VP'
p465
g5
tp466
a(S'randomized'
p467
S'randomize'
p468
S'VBN'
p469
S'I-VP'
p470
g5
tp471
a(S'to'
p472
S'to'
p473
S'TO'
p474
S'I-VP'
p475
g5
tp476
a(S'guide'
p477
S'guide'
p478
S'VB'
p479
S'I-VP'
p480
g5
tp481
a(S'the'
p482
S'the'
p483
S'DT'
p484
S'B-NP'
p485
g5
tp486
a(S'depth'
p487
S'depth'
p488
S'NN'
p489
S'I-NP'
p490
g5
tp491
a(S'of'
p492
S'of'
p493
S'IN'
p494
S'B-PP'
p495
g5
tp496
a(S'sedation'
p497
S'sedation'
p498
S'NN'
p499
S'B-NP'
p500
g5
tp501
a(S'by'
p502
S'by'
p503
S'IN'
p504
S'B-PP'
p505
g5
tp506
a(S'BIS'
p507
S'BIS'
p508
S'NN'
p509
S'B-NP'
p510
g5
tp511
a(S'monitoring'
p512
S'monitoring'
p513
S'NN'
p514
S'I-NP'
p515
g5
tp516
a(g129
g129
g129
g5
g5
tp517
a(S'BIS'
p518
S'BIS'
p519
S'NN'
p520
S'B-NP'
p521
g5
tp522
a(S'group'
p523
S'group'
p524
S'NN'
p525
S'I-NP'
p526
g5
tp527
a(S';'
p528
g528
S':'
p529
g5
g5
tp530
a(S'n'
p531
g531
S'NN'
p532
S'B-NP'
p533
g5
tp534
a(S'='
p535
g535
S'SYM'
p536
S'B-VP'
p537
g5
tp538
a(S'40'
p539
S'40'
p540
S'CD'
p541
S'B-NP'
p542
g5
tp543
a(g136
g136
g136
g5
g5
tp544
a(S'or'
p545
S'or'
p546
S'CC'
p547
g5
g5
tp548
a(S'conventional'
p549
S'conventional'
p550
S'JJ'
p551
S'B-NP'
p552
g5
tp553
a(S'monitoring'
p554
S'monitoring'
p555
S'NN'
p556
S'I-NP'
p557
g5
tp558
a(g129
g129
g129
g5
g5
tp559
a(S'control'
p560
S'control'
p561
S'NN'
p562
S'B-NP'
p563
g5
tp564
a(S'group'
p565
S'group'
p566
S'NN'
p567
S'I-NP'
p568
g5
tp569
a(g528
g528
g529
g5
g5
tp570
a(g531
g531
S'NN'
p571
S'B-NP'
p572
g5
tp573
a(g535
g535
S'SYM'
p574
S'B-VP'
p575
g5
tp576
a(S'41'
p577
S'41'
p578
S'CD'
p579
S'B-NP'
p580
g5
tp581
a(g136
g136
g136
g5
g5
tp582
a(g67
g67
g67
g5
g5
tp583
a(S'RESULTS'
p584
S'RESULTS'
p585
S'NNS'
p586
S'B-NP'
p587
g5
tp588
a(S'The'
p589
S'The'
p590
S'DT'
p591
S'B-NP'
p592
g5
tp593
a(S'mean'
p594
S'mean'
p595
S'JJ'
p596
S'I-NP'
p597
g5
tp598
a(S'durations'
p599
S'duration'
p600
S'NNS'
p601
S'I-NP'
p602
g5
tp603
a(S'of'
p604
S'of'
p605
S'IN'
p606
S'B-PP'
p607
g5
tp608
a(S'the'
p609
S'the'
p610
S'DT'
p611
S'B-NP'
p612
g5
tp613
a(S'procedure'
p614
S'procedure'
p615
S'NN'
p616
S'I-NP'
p617
g5
tp618
a(S'were'
p619
S'be'
p620
S'VBD'
p621
S'B-VP'
p622
g5
tp623
a(S'18'
p624
S'18'
p625
S'CD'
p626
S'B-NP'
p627
g5
tp628
a(S'and'
p629
S'and'
p630
S'CC'
p631
S'I-NP'
p632
g5
tp633
a(S'19'
p634
S'19'
p635
S'CD'
p636
S'I-NP'
p637
g5
tp638
a(S'min'
p639
S'min'
p640
S'NN'
p641
S'I-NP'
p642
g5
tp643
a(S'in'
p644
S'in'
p645
S'IN'
p646
S'B-PP'
p647
g5
tp648
a(S'the'
p649
S'the'
p650
S'DT'
p651
S'B-NP'
p652
g5
tp653
a(S'BIS'
p654
S'BIS'
p655
S'NN'
p656
S'I-NP'
p657
g5
tp658
a(S'and'
p659
S'and'
p660
S'CC'
p661
S'I-NP'
p662
g5
tp663
a(S'control'
p664
S'control'
p665
S'NN'
p666
S'I-NP'
p667
g5
tp668
a(S'groups'
p669
S'group'
p670
S'NNS'
p671
S'I-NP'
p672
g5
tp673
a(S','
p674
g674
g674
g5
g5
tp675
a(S'respectively.'
p676
S'respectively.'
p677
S'VBP'
p678
S'B-VP'
p679
g5
tp680
a(S'No'
p681
S'No'
p682
S'DT'
p683
S'B-NP'
p684
g5
tp685
a(S'significant'
p686
S'significant'
p687
S'JJ'
p688
S'I-NP'
p689
g5
tp690
a(S'difference'
p691
S'difference'
p692
S'NN'
p693
S'I-NP'
p694
g5
tp695
a(S'was'
p696
S'be'
p697
S'VBD'
p698
S'B-VP'
p699
g5
tp700
a(S'noted'
p701
S'note'
p702
S'VBN'
p703
S'I-VP'
p704
g5
tp705
a(S'in'
p706
S'in'
p707
S'IN'
p708
S'B-PP'
p709
g5
tp710
a(S'the'
p711
S'the'
p712
S'DT'
p713
S'B-NP'
p714
g5
tp715
a(S'dosage'
p716
S'dosage'
p717
S'NN'
p718
S'I-NP'
p719
g5
tp720
a(S'of'
p721
S'of'
p722
S'IN'
p723
S'B-PP'
p724
g5
tp725
a(S'propofol'
p726
S'propofol'
p727
S'NN'
p728
S'B-NP'
p729
g5
tp730
a(S'used'
p731
S'use'
p732
S'VBN'
p733
S'B-VP'
p734
g5
tp735
a(S'between'
p736
S'between'
p737
S'IN'
p738
S'B-PP'
p739
g5
tp740
a(S'the'
p741
S'the'
p742
S'DT'
p743
S'B-NP'
p744
g5
tp745
a(S'BIS'
p746
S'BIS'
p747
S'NN'
p748
S'I-NP'
p749
g5
tp750
a(S'and'
p751
S'and'
p752
S'CC'
p753
S'I-NP'
p754
g5
tp755
a(S'control'
p756
S'control'
p757
S'NN'
p758
S'I-NP'
p759
g5
tp760
a(S'groups'
p761
S'group'
p762
S'NNS'
p763
S'I-NP'
p764
g5
tp765
a(g129
g129
g129
g5
g5
tp766
a(S'168.7'
p767
S'168.7'
p768
S'CD'
p769
S'B-NP'
p770
g5
tp771
a(S'vs.'
p772
S'vs.'
p773
S'IN'
p774
S'I-NP'
p775
g5
tp776
a(S'167.3'
p777
S'167.3'
p778
S'CD'
p779
S'B-NP'
p780
g5
tp781
a(S'mg'
p782
S'mg'
p783
S'NN'
p784
S'I-NP'
p785
g5
tp786
a(g674
g674
g674
g5
g5
tp787
a(S'respectively'
p788
S'respectively'
p789
S'RB'
p790
S'B-ADVP'
p791
g5
tp792
a(g136
g136
g136
g5
g5
tp793
a(g67
g67
g67
g5
g5
tp794
a(S'Average'
p795
S'Average'
p796
S'JJ'
p797
S'B-NP'
p798
g5
tp799
a(S'sedation-related'
p800
S'sedation-related'
p801
S'JJ'
p802
S'I-NP'
p803
g5
tp804
a(S'oxygen'
p805
S'oxygen'
p806
S'NN'
p807
S'I-NP'
p808
g5
tp809
a(S'saturation'
p810
S'saturation'
p811
S'NN'
p812
S'I-NP'
p813
g5
tp814
a(S'drop'
p815
S'drop'
p816
S'NN'
p817
S'I-NP'
p818
g5
tp819
a(S'and'
p820
S'and'
p821
S'CC'
p822
g5
g5
tp823
a(S'transcutaneous'
p824
S'transcutaneous'
p825
S'JJ'
p826
S'B-NP'
p827
g5
tp828
a(S'CO2'
p829
S'CO2'
p830
S'NN'
p831
S'I-NP'
p832
g5
tp833
a(S'rise'
p834
S'rise'
p835
S'NN'
p836
S'I-NP'
p837
g5
tp838
a(S'were'
p839
S'be'
p840
S'VBD'
p841
S'B-VP'
p842
g5
tp843
a(S'not'
p844
S'not'
p845
S'RB'
p846
S'B-ADJP'
p847
g5
tp848
a(S'significantly'
p849
S'significantly'
p850
S'RB'
p851
S'I-ADJP'
p852
g5
tp853
a(S'different'
p854
S'different'
p855
S'JJ'
p856
S'I-ADJP'
p857
g5
tp858
a(S'between'
p859
S'between'
p860
S'IN'
p861
S'B-PP'
p862
g5
tp863
a(S'groups.'
p864
S'groups.'
p865
S'NNS'
p866
S'B-NP'
p867
g5
tp868
a(S'There'
p869
S'There'
p870
S'EX'
p871
S'B-NP'
p872
g5
tp873
a(S'was'
p874
S'be'
p875
S'VBD'
p876
S'B-VP'
p877
g5
tp878
a(S'also'
p879
S'also'
p880
S'RB'
p881
S'B-ADVP'
p882
g5
tp883
a(S'no'
p884
S'no'
p885
S'DT'
p886
S'B-NP'
p887
g5
tp888
a(S'significant'
p889
S'significant'
p890
S'JJ'
p891
S'I-NP'
p892
g5
tp893
a(S'difference'
p894
S'difference'
p895
S'NN'
p896
S'I-NP'
p897
g5
tp898
a(S'in'
p899
S'in'
p900
S'IN'
p901
S'B-PP'
p902
g5
tp903
a(S'the'
p904
S'the'
p905
S'DT'
p906
S'B-NP'
p907
g5
tp908
a(S'percentage'
p909
S'percentage'
p910
S'NN'
p911
S'I-NP'
p912
g5
tp913
a(S'of'
p914
S'of'
p915
S'IN'
p916
S'B-PP'
p917
g5
tp918
a(S'patients'
p919
S'patient'
p920
S'NNS'
p921
S'B-NP'
p922
g5
tp923
a(S'that'
p924
S'that'
p925
S'WDT'
p926
S'B-NP'
p927
g5
tp928
a(S'required'
p929
S'require'
p930
S'VBD'
p931
S'B-VP'
p932
g5
tp933
a(S'either'
p934
S'either'
p935
S'CC'
p936
g5
g5
tp937
a(S'hemodynamic'
p938
S'hemodynamic'
p939
S'JJ'
p940
S'B-NP'
p941
g5
tp942
a(S'support'
p943
S'support'
p944
S'NN'
p945
S'I-NP'
p946
g5
tp947
a(g129
g129
g129
g5
g5
tp948
a(S'5'
p949
g949
S'CD'
p950
S'B-NP'
p951
g5
tp952
a(S'vs.'
p953
S'vs.'
p954
S'IN'
p955
S'B-PP'
p956
g5
tp957
a(S'7.5'
p958
S'7.5'
p959
S'CD'
p960
S'B-NP'
p961
g5
tp962
a(S'%'
p963
g963
S'NN'
p964
S'I-NP'
p965
g5
tp966
a(g674
g674
g674
g5
g5
tp967
a(S'respectively'
p968
S'respectively'
p969
S'RB'
p970
S'B-ADVP'
p971
g5
tp972
a(g136
g136
g136
g5
g5
tp973
a(g674
g674
g674
g5
g5
tp974
a(S'oxygen'
p975
S'oxygen'
p976
S'NN'
p977
S'B-NP'
p978
g5
tp979
a(S'supplementation'
p980
S'supplementation'
p981
S'NN'
p982
S'I-NP'
p983
g5
tp984
a(S'by'
p985
S'by'
p986
S'IN'
p987
S'B-PP'
p988
g5
tp989
a(S'100'
p990
S'100'
p991
S'CD'
p992
S'B-NP'
p993
g5
tp994
a(g963
g963
S'NN'
p995
S'I-NP'
p996
g5
tp997
a(S'O2'
p998
S'O2'
p999
S'NN'
p1000
S'I-NP'
p1001
g5
tp1002
a(S'mask'
p1003
S'mask'
p1004
S'NN'
p1005
S'I-NP'
p1006
g5
tp1007
a(g129
g129
g129
g5
g5
tp1008
a(S'67.5'
p1009
S'67.5'
p1010
S'CD'
p1011
S'B-NP'
p1012
g5
tp1013
a(S'vs.'
p1014
S'vs.'
p1015
S'IN'
p1016
S'B-PP'
p1017
g5
tp1018
a(S'82.5'
p1019
S'82.5'
p1020
S'CD'
p1021
S'B-NP'
p1022
g5
tp1023
a(g963
g963
S'NN'
p1024
S'I-NP'
p1025
g5
tp1026
a(g674
g674
g674
g5
g5
tp1027
a(S'respectively'
p1028
S'respectively'
p1029
S'RB'
p1030
S'B-ADVP'
p1031
g5
tp1032
a(g136
g136
g136
g5
g5
tp1033
a(S'or'
p1034
S'or'
p1035
S'CC'
p1036
g5
g5
tp1037
a(S'Ambu'
p1038
S'Ambu'
p1039
S'NNP'
p1040
S'B-NP'
p1041
g5
tp1042
a(S'face'
p1043
S'face'
p1044
S'VBP'
p1045
S'B-VP'
p1046
g5
tp1047
a(S'mask'
p1048
S'mask'
p1049
S'JJ'
p1050
S'B-NP'
p1051
g5
tp1052
a(S'manual'
p1053
S'manual'
p1054
S'JJ'
p1055
S'I-NP'
p1056
g5
tp1057
a(S'ventilation'
p1058
S'ventilation'
p1059
S'NN'
p1060
S'I-NP'
p1061
g5
tp1062
a(g129
g129
g129
g5
g5
tp1063
a(S'2.5'
p1064
S'2.5'
p1065
S'CD'
p1066
S'B-NP'
p1067
g5
tp1068
a(S'vs.'
p1069
S'vs.'
p1070
S'IN'
p1071
S'B-PP'
p1072
g5
tp1073
a(g949
g949
S'CD'
p1074
S'B-NP'
p1075
g5
tp1076
a(g963
g963
S'NN'
p1077
S'I-NP'
p1078
g5
tp1079
a(g674
g674
g674
g5
g5
tp1080
a(S'respectively'
p1081
S'respectively'
p1082
S'RB'
p1083
S'B-ADVP'
p1084
g5
tp1085
a(g136
g136
g136
g5
g5
tp1086
a(S'between'
p1087
S'between'
p1088
S'IN'
p1089
S'B-PP'
p1090
g5
tp1091
a(S'the'
p1092
S'the'
p1093
S'DT'
p1094
S'B-NP'
p1095
g5
tp1096
a(S'groups.'
p1097
S'groups.'
p1098
S'NN'
p1099
S'I-NP'
p1100
g5
tp1101
a(S'No'
p1102
S'No'
p1103
S'DT'
p1104
S'B-NP'
p1105
g5
tp1106
a(S'significant'
p1107
S'significant'
p1108
S'JJ'
p1109
S'I-NP'
p1110
g5
tp1111
a(S'difference'
p1112
S'difference'
p1113
S'NN'
p1114
S'I-NP'
p1115
g5
tp1116
a(S'was'
p1117
S'be'
p1118
S'VBD'
p1119
S'B-VP'
p1120
g5
tp1121
a(S'noted'
p1122
S'note'
p1123
S'VBN'
p1124
S'I-VP'
p1125
g5
tp1126
a(S'in'
p1127
S'in'
p1128
S'IN'
p1129
S'B-PP'
p1130
g5
tp1131
a(S'terms'
p1132
S'term'
p1133
S'NNS'
p1134
S'B-NP'
p1135
g5
tp1136
a(S'of'
p1137
S'of'
p1138
S'IN'
p1139
S'B-PP'
p1140
g5
tp1141
a(S'patients'
p1142
S'patient'
p1143
S'NNS'
p1144
S'B-NP'
p1145
g5
tp1146
a(g271
g271
S'POS'
p1147
S'B-NP'
p1148
g5
tp1149
a(S'awareness'
p1150
S'awareness'
p1151
S'NN'
p1152
S'I-NP'
p1153
g5
tp1154
a(S'during'
p1155
S'during'
p1156
S'IN'
p1157
S'B-PP'
p1158
g5
tp1159
a(S'the'
p1160
S'the'
p1161
S'DT'
p1162
S'B-NP'
p1163
g5
tp1164
a(S'procedure'
p1165
S'procedure'
p1166
S'NN'
p1167
S'I-NP'
p1168
g5
tp1169
a(g674
g674
g674
g5
g5
tp1170
a(S'which'
p1171
S'which'
p1172
S'WDT'
p1173
S'B-NP'
p1174
g5
tp1175
a(S'was'
p1176
S'be'
p1177
S'VBD'
p1178
S'B-VP'
p1179
g5
tp1180
a(S'assessed'
p1181
S'assess'
p1182
S'VBN'
p1183
S'I-VP'
p1184
g5
tp1185
a(S'following'
p1186
S'follow'
p1187
S'VBG'
p1188
S'B-PP'
p1189
g5
tp1190
a(S'recovery'
p1191
S'recovery'
p1192
S'NN'
p1193
S'B-NP'
p1194
g5
tp1195
a(S'by'
p1196
S'by'
p1197
S'IN'
p1198
S'B-PP'
p1199
g5
tp1200
a(S'a'
p1201
g1201
S'DT'
p1202
S'B-NP'
p1203
g5
tp1204
a(S'structured'
p1205
S'structured'
p1206
S'JJ'
p1207
S'I-NP'
p1208
g5
tp1209
a(S'Brice'
p1210
S'Brice'
p1211
S'NNP'
p1212
S'I-NP'
p1213
g5
tp1214
a(S'interview'
p1215
S'interview'
p1216
S'NN'
p1217
S'I-NP'
p1218
g5
tp1219
a(g67
g67
g67
g5
g5
tp1220
a(S'CONCLUSION'
p1221
S'CONCLUSION'
p1222
S'NN'
p1223
S'B-NP'
p1224
g5
tp1225
a(S'Using'
p1226
S'Use'
p1227
S'VBG'
p1228
S'B-VP'
p1229
g5
tp1230
a(S'BIS'
p1231
S'BIS'
p1232
S'NN'
p1233
S'B-NP'
p1234
g5
tp1235
a(S'to'
p1236
S'to'
p1237
S'TO'
p1238
S'B-VP'
p1239
g5
tp1240
a(S'guide'
p1241
S'guide'
p1242
S'VB'
p1243
S'I-VP'
p1244
g5
tp1245
a(S'the'
p1246
S'the'
p1247
S'DT'
p1248
S'B-NP'
p1249
g5
tp1250
a(S'depth'
p1251
S'depth'
p1252
S'NN'
p1253
S'I-NP'
p1254
g5
tp1255
a(S'of'
p1256
S'of'
p1257
S'IN'
p1258
S'B-PP'
p1259
g5
tp1260
a(S'sedation'
p1261
S'sedation'
p1262
S'NN'
p1263
S'B-NP'
p1264
g5
tp1265
a(S'during'
p1266
S'during'
p1267
S'IN'
p1268
S'B-PP'
p1269
g5
tp1270
a(S'propofol'
p1271
S'propofol'
p1272
S'NN'
p1273
S'B-NP'
p1274
g5
tp1275
a(S'sedation'
p1276
S'sedation'
p1277
S'NN'
p1278
S'I-NP'
p1279
g5
tp1280
a(S'in'
p1281
S'in'
p1282
S'IN'
p1283
S'B-PP'
p1284
g5
tp1285
a(S'patients'
p1286
S'patient'
p1287
S'NNS'
p1288
S'B-NP'
p1289
g5
tp1290
a(S'undergoing'
p1291
S'undergo'
p1292
S'VBG'
p1293
S'B-VP'
p1294
g5
tp1295
a(S'FFB'
p1296
S'FFB'
p1297
S'NN'
p1298
S'B-NP'
p1299
S'B-protein'
p1300
tp1301
a(S'of'
p1302
S'of'
p1303
S'IN'
p1304
S'B-PP'
p1305
g5
tp1306
a(S'relatively'
p1307
S'relatively'
p1308
S'RB'
p1309
S'B-NP'
p1310
g5
tp1311
a(S'short'
p1312
S'short'
p1313
S'JJ'
p1314
S'I-NP'
p1315
g5
tp1316
a(S'duration'
p1317
S'duration'
p1318
S'NN'
p1319
S'I-NP'
p1320
g5
tp1321
a(S'offers'
p1322
S'offer'
p1323
S'VBZ'
p1324
S'B-VP'
p1325
g5
tp1326
a(S'no'
p1327
S'no'
p1328
S'DT'
p1329
S'B-NP'
p1330
g5
tp1331
a(S'clinically'
p1332
S'clinically'
p1333
S'RB'
p1334
S'I-NP'
p1335
g5
tp1336
a(S'significant'
p1337
S'significant'
p1338
S'JJ'
p1339
S'I-NP'
p1340
g5
tp1341
a(S'advantages'
p1342
S'advantage'
p1343
S'NNS'
p1344
S'I-NP'
p1345
g5
tp1346
a(S'over'
p1347
S'over'
p1348
S'IN'
p1349
S'B-PP'
p1350
g5
tp1351
a(S'conventional'
p1352
S'conventional'
p1353
S'JJ'
p1354
S'B-NP'
p1355
g5
tp1356
a(S'monitoring'
p1357
S'monitoring'
p1358
S'NN'
p1359
S'I-NP'
p1360
g5
tp1361
a(g67
g67
g67
g5
g5
tp1362
a.