(lp0
(S'Comparison'
p1
S'Comparison'
p2
S'NN'
p3
S'B-NP'
p4
S'O'
p5
tp6
a(S'of'
p7
S'of'
p8
S'IN'
p9
S'B-PP'
p10
g5
tp11
a(S'active-learning'
p12
S'active-learning'
p13
S'JJ'
p14
S'B-NP'
p15
g5
tp16
a(S'strategies'
p17
S'strategy'
p18
S'NNS'
p19
S'I-NP'
p20
g5
tp21
a(S'for'
p22
S'for'
p23
S'IN'
p24
S'B-PP'
p25
g5
tp26
a(S'motivational'
p27
S'motivational'
p28
S'JJ'
p29
S'B-NP'
p30
g5
tp31
a(S'interviewing'
p32
S'interviewing'
p33
S'NN'
p34
S'I-NP'
p35
g5
tp36
a(S'skills'
p37
S'skill'
p38
S'NNS'
p39
S'I-NP'
p40
g5
tp41
a(S','
p42
g42
g42
g5
g5
tp43
a(S'knowledge'
p44
S'knowledge'
p45
S'NN'
p46
S'B-NP'
p47
g5
tp48
a(g42
g42
g42
g5
g5
tp49
a(S'and'
p50
S'and'
p51
S'CC'
p52
g5
g5
tp53
a(S'confidence'
p54
S'confidence'
p55
S'NN'
p56
S'B-NP'
p57
g5
tp58
a(S'in'
p59
S'in'
p60
S'IN'
p61
S'B-PP'
p62
g5
tp63
a(S'first-year'
p64
S'first-year'
p65
S'JJ'
p66
S'B-NP'
p67
g5
tp68
a(S'pharmacy'
p69
S'pharmacy'
p70
S'NN'
p71
S'I-NP'
p72
g5
tp73
a(S'students'
p74
S'student'
p75
S'NNS'
p76
S'I-NP'
p77
g5
tp78
a(S'.'
p79
g79
g79
g5
g5
tp80
a(S'OBJECTIVE'
p81
S'OBJECTIVE'
p82
S'NN'
p83
S'B-NP'
p84
g5
tp85
a(S'To'
p86
S'To'
p87
S'TO'
p88
S'B-VP'
p89
g5
tp90
a(S'compare'
p91
S'compare'
p92
S'VB'
p93
S'I-VP'
p94
g5
tp95
a(S'3'
p96
g96
S'CD'
p97
S'B-NP'
p98
g5
tp99
a(S'strategies'
p100
S'strategy'
p101
S'NNS'
p102
S'I-NP'
p103
g5
tp104
a(S'for'
p105
S'for'
p106
S'IN'
p107
S'B-PP'
p108
g5
tp109
a(S'pharmacy'
p110
S'pharmacy'
p111
S'NN'
p112
S'B-NP'
p113
g5
tp114
a(S'student'
p115
S'student'
p116
S'NN'
p117
S'I-NP'
p118
g5
tp119
a(S'learning'
p120
S'learning'
p121
S'NN'
p122
S'I-NP'
p123
g5
tp124
a(S'of'
p125
S'of'
p126
S'IN'
p127
S'B-PP'
p128
g5
tp129
a(S'motivational'
p130
S'motivational'
p131
S'JJ'
p132
S'B-NP'
p133
g5
tp134
a(S'interviewing'
p135
S'interviewing'
p136
S'NN'
p137
S'I-NP'
p138
g5
tp139
a(S'skills'
p140
S'skill'
p141
S'NNS'
p142
S'I-NP'
p143
g5
tp144
a(g42
g42
g42
g5
g5
tp145
a(S'knowledge'
p146
S'knowledge'
p147
S'NN'
p148
S'B-NP'
p149
g5
tp150
a(S'of'
p151
S'of'
p152
S'IN'
p153
S'B-PP'
p154
g5
tp155
a(S'motivational'
p156
S'motivational'
p157
S'JJ'
p158
S'B-NP'
p159
g5
tp160
a(S'interviewing'
p161
S'interviewing'
p162
S'NN'
p163
S'I-NP'
p164
g5
tp165
a(S'principles'
p166
S'principle'
p167
S'NNS'
p168
S'I-NP'
p169
g5
tp170
a(g42
g42
g42
g5
g5
tp171
a(S'and'
p172
S'and'
p173
S'CC'
p174
g5
g5
tp175
a(S'confidence'
p176
S'confidence'
p177
S'NN'
p178
S'B-NP'
p179
g5
tp180
a(S'in'
p181
S'in'
p182
S'IN'
p183
S'B-PP'
p184
g5
tp185
a(S'and'
p186
S'and'
p187
S'CC'
p188
g5
g5
tp189
a(S'attitudes'
p190
S'attitude'
p191
S'NNS'
p192
S'B-NP'
p193
g5
tp194
a(S'toward'
p195
S'toward'
p196
S'IN'
p197
S'B-PP'
p198
g5
tp199
a(S'their'
p200
S'their'
p201
S'PRP$'
p202
S'B-NP'
p203
g5
tp204
a(S'application'
p205
S'application'
p206
S'NN'
p207
S'I-NP'
p208
g5
tp209
a(g79
g79
g79
g5
g5
tp210
a(S'DESIGN'
p211
S'DESIGN'
p212
S'NN'
p213
S'B-NP'
p214
g5
tp215
a(S'Following'
p216
S'Follow'
p217
S'VBG'
p218
S'B-VP'
p219
g5
tp220
a(S'a'
p221
g221
S'DT'
p222
S'B-NP'
p223
g5
tp224
a(S'motivational'
p225
S'motivational'
p226
S'JJ'
p227
S'I-NP'
p228
g5
tp229
a(S'interviewing'
p230
S'interviewing'
p231
S'NN'
p232
S'I-NP'
p233
g5
tp234
a(S'lecture'
p235
S'lecture'
p236
S'NN'
p237
S'I-NP'
p238
g5
tp239
a(g42
g42
g42
g5
g5
tp240
a(S'first-year'
p241
S'first-year'
p242
S'JJ'
p243
S'B-NP'
p244
g5
tp245
a(S'students'
p246
S'student'
p247
S'NNS'
p248
S'I-NP'
p249
g5
tp250
a(S'were'
p251
S'be'
p252
S'VBD'
p253
S'B-VP'
p254
g5
tp255
a(S'randomized'
p256
S'randomize'
p257
S'VBN'
p258
S'I-VP'
p259
g5
tp260
a(S'to'
p261
S'to'
p262
S'TO'
p263
S'I-VP'
p264
g5
tp265
a(S'perform'
p266
S'perform'
p267
S'VB'
p268
S'I-VP'
p269
g5
tp270
a(S'practice'
p271
S'practice'
p272
S'NN'
p273
S'B-NP'
p274
g5
tp275
a(S'activities'
p276
S'activity'
p277
S'NNS'
p278
S'I-NP'
p279
g5
tp280
a(S'('
p281
g281
g281
g5
g5
tp282
a(S'written'
p283
S'write'
p284
S'VBN'
p285
S'B-VP'
p286
g5
tp287
a(S'dialogue'
p288
S'dialogue'
p289
S'NN'
p290
S'B-NP'
p291
g5
tp292
a(g42
g42
g42
g5
g5
tp293
a(S'peer'
p294
S'peer'
p295
S'NN'
p296
S'B-NP'
p297
g5
tp298
a(S'role-play'
p299
S'role-play'
p300
S'NN'
p301
S'I-NP'
p302
g5
tp303
a(g42
g42
g42
g5
g5
tp304
a(S'or'
p305
S'or'
p306
S'CC'
p307
g5
g5
tp308
a(S'mock-patient'
p309
S'mock-patient'
p310
S'JJ'
p311
S'B-NP'
p312
g5
tp313
a(S'counseling'
p314
S'counseling'
p315
S'NN'
p316
S'I-NP'
p317
g5
tp318
a(S'activities'
p319
S'activity'
p320
S'NNS'
p321
S'I-NP'
p322
g5
tp323
a(S')'
p324
g324
g324
g5
g5
tp325
a(g79
g79
g79
g5
g5
tp326
a(S'Motivational'
p327
S'Motivational'
p328
S'JJ'
p329
S'B-NP'
p330
g5
tp331
a(S'interviewing'
p332
S'interview'
p333
S'VBG'
p334
S'I-NP'
p335
g5
tp336
a(S'skills'
p337
S'skill'
p338
S'NNS'
p339
S'I-NP'
p340
g5
tp341
a(g42
g42
g42
g5
g5
tp342
a(S'knowledge'
p343
S'knowledge'
p344
S'NN'
p345
S'B-NP'
p346
g5
tp347
a(g42
g42
g42
g5
g5
tp348
a(S'confidence'
p349
S'confidence'
p350
S'NN'
p351
S'B-NP'
p352
g5
tp353
a(g42
g42
g42
g5
g5
tp354
a(S'and'
p355
S'and'
p356
S'CC'
p357
g5
g5
tp358
a(S'attitudes'
p359
S'attitude'
p360
S'NNS'
p361
S'B-NP'
p362
g5
tp363
a(S'were'
p364
S'be'
p365
S'VBD'
p366
S'B-VP'
p367
g5
tp368
a(S'measured'
p369
S'measure'
p370
S'VBN'
p371
S'I-VP'
p372
g5
tp373
a(g79
g79
g79
g5
g5
tp374
a(S'ASSESSMENT'
p375
S'ASSESSMENT'
p376
S'IN'
p377
S'B-PP'
p378
g5
tp379
a(S'All'
p380
S'All'
p381
S'DT'
p382
S'B-NP'
p383
g5
tp384
a(S'students'
p385
S'student'
p386
S'NNS'
p387
S'I-NP'
p388
g5
tp389
a(S'demonstrated'
p390
S'demonstrate'
p391
S'VBD'
p392
S'B-VP'
p393
g5
tp394
a(S'improvement'
p395
S'improvement'
p396
S'NN'
p397
S'B-NP'
p398
g5
tp399
a(S'in'
p400
S'in'
p401
S'IN'
p402
S'B-PP'
p403
g5
tp404
a(S'skills'
p405
S'skill'
p406
S'NNS'
p407
S'B-NP'
p408
g5
tp409
a(g42
g42
g42
g5
g5
tp410
a(S'knowledge'
p411
S'knowledge'
p412
S'NN'
p413
S'B-NP'
p414
g5
tp415
a(g42
g42
g42
g5
g5
tp416
a(S'and'
p417
S'and'
p418
S'CC'
p419
g5
g5
tp420
a(S'confidence.'
p421
S'confidence.'
p422
S'NN'
p423
S'B-NP'
p424
g5
tp425
a(S'Students'
p426
S'Student'
p427
S'NNS'
p428
S'I-NP'
p429
g5
tp430
a(S'in'
p431
S'in'
p432
S'IN'
p433
S'B-PP'
p434
g5
tp435
a(S'the'
p436
S'the'
p437
S'DT'
p438
S'B-NP'
p439
g5
tp440
a(S'mock-patient'
p441
S'mock-patient'
p442
S'JJ'
p443
S'I-NP'
p444
g5
tp445
a(S'counseling'
p446
S'counseling'
p447
S'NN'
p448
S'I-NP'
p449
g5
tp450
a(S'group'
p451
S'group'
p452
S'NN'
p453
S'I-NP'
p454
g5
tp455
a(S'demonstrated'
p456
S'demonstrate'
p457
S'VBD'
p458
S'B-VP'
p459
g5
tp460
a(S'significantly'
p461
S'significantly'
p462
S'RB'
p463
S'B-NP'
p464
g5
tp465
a(S'better'
p466
S'good'
p467
S'JJR'
p468
S'I-NP'
p469
g5
tp470
a(S'motivational'
p471
S'motivational'
p472
S'JJ'
p473
S'I-NP'
p474
g5
tp475
a(S'interviewing'
p476
S'interviewing'
p477
S'NN'
p478
S'I-NP'
p479
g5
tp480
a(S'skills'
p481
S'skill'
p482
S'NNS'
p483
S'I-NP'
p484
g5
tp485
a(S'during'
p486
S'during'
p487
S'IN'
p488
S'B-PP'
p489
g5
tp490
a(S'practice'
p491
S'practice'
p492
S'NN'
p493
S'B-NP'
p494
g5
tp495
a(S'and'
p496
S'and'
p497
S'CC'
p498
g5
g5
tp499
a(S'trended'
p500
S'trend'
p501
S'VBD'
p502
S'B-VP'
p503
g5
tp504
a(S'toward'
p505
S'toward'
p506
S'IN'
p507
S'B-PP'
p508
g5
tp509
a(S'higher'
p510
S'high'
p511
S'JJR'
p512
S'B-NP'
p513
g5
tp514
a(S'scores'
p515
S'score'
p516
S'NNS'
p517
S'I-NP'
p518
g5
tp519
a(S'on'
p520
S'on'
p521
S'IN'
p522
S'B-PP'
p523
g5
tp524
a(S'the'
p525
S'the'
p526
S'DT'
p527
S'B-NP'
p528
g5
tp529
a(S'summative'
p530
S'summative'
p531
S'JJ'
p532
S'I-NP'
p533
g5
tp534
a(S'evaluation.'
p535
S'evaluation.'
p536
S'NN'
p537
S'I-NP'
p538
g5
tp539
a(S'They'
p540
S'They'
p541
S'PRP'
p542
S'B-NP'
p543
g5
tp544
a(S'also'
p545
S'also'
p546
S'RB'
p547
S'B-ADVP'
p548
g5
tp549
a(S'demonstrated'
p550
S'demonstrate'
p551
S'VBD'
p552
S'B-VP'
p553
g5
tp554
a(g221
g221
S'DT'
p555
S'B-NP'
p556
g5
tp557
a(S'significant'
p558
S'significant'
p559
S'JJ'
p560
S'I-NP'
p561
g5
tp562
a(S'improvement'
p563
S'improvement'
p564
S'NN'
p565
S'I-NP'
p566
g5
tp567
a(S'in'
p568
S'in'
p569
S'IN'
p570
S'B-PP'
p571
g5
tp572
a(S'knowledge'
p573
S'knowledge'
p574
S'NN'
p575
S'B-NP'
p576
g5
tp577
a(S'compared'
p578
S'compare'
p579
S'VBN'
p580
S'B-PP'
p581
g5
tp582
a(S'with'
p583
S'with'
p584
S'IN'
p585
S'B-PP'
p586
g5
tp587
a(S'that'
p588
S'that'
p589
S'DT'
p590
S'B-NP'
p591
g5
tp592
a(S'of'
p593
S'of'
p594
S'IN'
p595
S'B-PP'
p596
g5
tp597
a(S'the'
p598
S'the'
p599
S'DT'
p600
S'B-NP'
p601
g5
tp602
a(S'written'
p603
S'write'
p604
S'VBN'
p605
S'I-NP'
p606
g5
tp607
a(S'dialogue'
p608
S'dialogue'
p609
S'NN'
p610
S'I-NP'
p611
g5
tp612
a(S'group'
p613
S'group'
p614
S'NN'
p615
S'I-NP'
p616
g5
tp617
a(S'during'
p618
S'during'
p619
S'IN'
p620
S'B-PP'
p621
g5
tp622
a(S'practice.'
p623
S'practice.'
p624
S'NN'
p625
S'B-NP'
p626
g5
tp627
a(S'Feedback'
p628
S'Feedback'
p629
S'NNP'
p630
S'I-NP'
p631
g5
tp632
a(S'at'
p633
S'at'
p634
S'IN'
p635
S'B-PP'
p636
g5
tp637
a(S'the'
p638
S'the'
p639
S'DT'
p640
S'B-NP'
p641
g5
tp642
a(S'end'
p643
S'end'
p644
S'NN'
p645
S'I-NP'
p646
g5
tp647
a(S'was'
p648
S'be'
p649
S'VBD'
p650
S'B-VP'
p651
g5
tp652
a(S'generally'
p653
S'generally'
p654
S'RB'
p655
S'B-ADJP'
p656
g5
tp657
a(S'positive'
p658
S'positive'
p659
S'JJ'
p660
S'I-ADJP'
p661
g5
tp662
a(g42
g42
g42
g5
g5
tp663
a(S'with'
p664
S'with'
p665
S'IN'
p666
S'B-PP'
p667
g5
tp668
a(S'students'
p669
S'student'
p670
S'NNS'
p671
S'B-NP'
p672
g5
tp673
a(S'expressing'
p674
S'express'
p675
S'VBG'
p676
S'B-VP'
p677
g5
tp678
a(S'recognition'
p679
S'recognition'
p680
S'NN'
p681
S'B-NP'
p682
g5
tp683
a(S'for'
p684
S'for'
p685
S'IN'
p686
S'B-PP'
p687
g5
tp688
a(S'the'
p689
S'the'
p690
S'DT'
p691
S'B-NP'
p692
g5
tp693
a(S'value'
p694
S'value'
p695
S'NN'
p696
S'I-NP'
p697
g5
tp698
a(S'of'
p699
S'of'
p700
S'IN'
p701
S'B-PP'
p702
g5
tp703
a(S'motivational'
p704
S'motivational'
p705
S'JJ'
p706
S'B-NP'
p707
g5
tp708
a(S'interviewing'
p709
S'interviewing'
p710
S'NN'
p711
S'I-NP'
p712
g5
tp713
a(g79
g79
g79
g5
g5
tp714
a(S'CONCLUSIONS'
p715
S'CONCLUSIONS'
p716
S'NNS'
p717
S'B-NP'
p718
g5
tp719
a(S'Students'
p720
S'Student'
p721
S'NNS'
p722
S'I-NP'
p723
g5
tp724
a(S'demonstrated'
p725
S'demonstrate'
p726
S'VBD'
p727
S'B-VP'
p728
g5
tp729
a(S'their'
p730
S'their'
p731
S'PRP$'
p732
S'B-NP'
p733
g5
tp734
a(S'best'
p735
S'good'
p736
S'JJS'
p737
S'I-NP'
p738
g5
tp739
a(S'performance'
p740
S'performance'
p741
S'NN'
p742
S'I-NP'
p743
g5
tp744
a(S'of'
p745
S'of'
p746
S'IN'
p747
S'B-PP'
p748
g5
tp749
a(S'motivational'
p750
S'motivational'
p751
S'JJ'
p752
S'B-NP'
p753
g5
tp754
a(S'interviewing'
p755
S'interviewing'
p756
S'NN'
p757
S'I-NP'
p758
g5
tp759
a(S'during'
p760
S'during'
p761
S'IN'
p762
S'B-PP'
p763
g5
tp764
a(S'assessments'
p765
S'assessment'
p766
S'NNS'
p767
S'B-NP'
p768
g5
tp769
a(S'using'
p770
S'use'
p771
S'VBG'
p772
S'B-VP'
p773
g5
tp774
a(S'interactions'
p775
S'interaction'
p776
S'NNS'
p777
S'B-NP'
p778
g5
tp779
a(S'with'
p780
S'with'
p781
S'IN'
p782
S'B-PP'
p783
g5
tp784
a(S'mock'
p785
S'mock'
p786
S'JJ'
p787
S'B-NP'
p788
g5
tp789
a(S'or'
p790
S'or'
p791
S'CC'
p792
S'I-NP'
p793
g5
tp794
a(S'standardized'
p795
S'standardized'
p796
S'JJ'
p797
S'I-NP'
p798
g5
tp799
a(S'patients'
p800
S'patient'
p801
S'NNS'
p802
S'I-NP'
p803
g5
tp804
a(g79
g79
g79
g5
g5
tp805
a.