(lp0
(S'Effectiveness'
p1
S'Effectiveness'
p2
S'NN'
p3
S'B-NP'
p4
S'O'
p5
tp6
a(S'of'
p7
S'of'
p8
S'IN'
p9
S'B-PP'
p10
g5
tp11
a(S'norgestimate'
p12
S'norgestimate'
p13
S'NN'
p14
S'B-NP'
p15
g5
tp16
a(S'and'
p17
S'and'
p18
S'CC'
p19
S'I-NP'
p20
g5
tp21
a(S'ethinyl'
p22
S'ethinyl'
p23
S'NN'
p24
S'I-NP'
p25
g5
tp26
a(S'estradiol'
p27
S'estradiol'
p28
S'NN'
p29
S'I-NP'
p30
g5
tp31
a(S'in'
p32
S'in'
p33
S'IN'
p34
S'B-PP'
p35
g5
tp36
a(S'treating'
p37
S'treat'
p38
S'VBG'
p39
S'B-VP'
p40
g5
tp41
a(S'moderate'
p42
S'moderate'
p43
S'JJ'
p44
S'B-NP'
p45
g5
tp46
a(S'acne'
p47
S'acne'
p48
S'NN'
p49
S'I-NP'
p50
g5
tp51
a(S'vulgaris'
p52
S'vulgaris'
p53
S'NN'
p54
S'I-NP'
p55
g5
tp56
a(S'.'
p57
g57
g57
g5
g5
tp58
a(S'BACKGROUND'
p59
S'BACKGROUND'
p60
S'NN'
p61
S'B-NP'
p62
g5
tp63
a(S'An'
p64
S'An'
p65
S'DT'
p66
S'B-NP'
p67
g5
tp68
a(S'excess'
p69
S'excess'
p70
S'NN'
p71
S'I-NP'
p72
g5
tp73
a(S'of'
p74
S'of'
p75
S'IN'
p76
S'B-PP'
p77
g5
tp78
a(S'androgen'
p79
S'androgen'
p80
S'NN'
p81
S'B-NP'
p82
g5
tp83
a(S'is'
p84
S'be'
p85
S'VBZ'
p86
S'B-VP'
p87
g5
tp88
a(S'believed'
p89
S'believe'
p90
S'VBN'
p91
S'I-VP'
p92
g5
tp93
a(S'to'
p94
S'to'
p95
S'TO'
p96
S'I-VP'
p97
g5
tp98
a(S'contribute'
p99
S'contribute'
p100
S'VB'
p101
S'I-VP'
p102
g5
tp103
a(S'to'
p104
S'to'
p105
S'TO'
p106
S'B-PP'
p107
g5
tp108
a(S'development'
p109
S'development'
p110
S'NN'
p111
S'B-NP'
p112
g5
tp113
a(S'of'
p114
S'of'
p115
S'IN'
p116
S'B-PP'
p117
g5
tp118
a(S'acne'
p119
S'acne'
p120
S'NN'
p121
S'B-NP'
p122
g5
tp123
a(S'in'
p124
S'in'
p125
S'IN'
p126
S'B-PP'
p127
g5
tp128
a(S'some'
p129
S'some'
p130
S'DT'
p131
S'B-NP'
p132
g5
tp133
a(S'patients.'
p134
S'patients.'
p135
S'NN'
p136
S'I-NP'
p137
g5
tp138
a(S'Because'
p139
S'Because'
p140
S'IN'
p141
S'B-SBAR'
p142
g5
tp143
a(S'oral'
p144
S'oral'
p145
S'JJ'
p146
S'B-NP'
p147
g5
tp148
a(S'contraceptives'
p149
S'contraceptive'
p150
S'NNS'
p151
S'I-NP'
p152
g5
tp153
a(S'('
p154
g154
g154
g5
g5
tp155
a(S'OCs'
p156
S'OC'
p157
S'NNS'
p158
S'B-NP'
p159
S'B-cell_type'
p160
tp161
a(S')'
p162
g162
g162
g5
g5
tp163
a(S'may'
p164
S'may'
p165
S'MD'
p166
S'B-VP'
p167
g5
tp168
a(S'reduce'
p169
S'reduce'
p170
S'VB'
p171
S'I-VP'
p172
g5
tp173
a(S'the'
p174
S'the'
p175
S'DT'
p176
S'B-NP'
p177
g5
tp178
a(S'active'
p179
S'active'
p180
S'JJ'
p181
S'I-NP'
p182
g5
tp183
a(S'androgen'
p184
S'androgen'
p185
S'NN'
p186
S'I-NP'
p187
g5
tp188
a(S'level'
p189
S'level'
p190
S'NN'
p191
S'I-NP'
p192
g5
tp193
a(S','
p194
g194
g194
g5
g5
tp195
a(S'hormonal'
p196
S'hormonal'
p197
S'JJ'
p198
S'B-NP'
p199
g5
tp200
a(S'therapy'
p201
S'therapy'
p202
S'NN'
p203
S'I-NP'
p204
g5
tp205
a(S'with'
p206
S'with'
p207
S'IN'
p208
S'B-PP'
p209
g5
tp210
a(S'OCs'
p211
S'OC'
p212
S'NNS'
p213
S'B-NP'
p214
S'B-cell_type'
p215
tp216
a(S'has'
p217
S'have'
p218
S'VBZ'
p219
S'B-VP'
p220
g5
tp221
a(S'been'
p222
S'be'
p223
S'VBN'
p224
S'I-VP'
p225
g5
tp226
a(S'used'
p227
S'use'
p228
S'VBN'
p229
S'I-VP'
p230
g5
tp231
a(S'successfully'
p232
S'successfully'
p233
S'RB'
p234
S'B-ADVP'
p235
g5
tp236
a(S'to'
p237
S'to'
p238
S'TO'
p239
S'B-VP'
p240
g5
tp241
a(S'treat'
p242
S'treat'
p243
S'VB'
p244
S'I-VP'
p245
g5
tp246
a(S'patients'
p247
S'patient'
p248
S'NNS'
p249
S'B-NP'
p250
g5
tp251
a(S'with'
p252
S'with'
p253
S'IN'
p254
S'B-PP'
p255
g5
tp256
a(S'acne'
p257
S'acne'
p258
S'NN'
p259
S'B-NP'
p260
g5
tp261
a(g194
g194
g194
g5
g5
tp262
a(S'although'
p263
S'although'
p264
S'IN'
p265
S'B-SBAR'
p266
g5
tp267
a(S'this'
p268
S'this'
p269
S'DT'
p270
S'B-NP'
p271
g5
tp272
a(S'treatment'
p273
S'treatment'
p274
S'NN'
p275
S'I-NP'
p276
g5
tp277
a(S'has'
p278
S'have'
p279
S'VBZ'
p280
S'B-VP'
p281
g5
tp282
a(S'previously'
p283
S'previously'
p284
S'RB'
p285
S'I-VP'
p286
g5
tp287
a(S'not'
p288
S'not'
p289
S'RB'
p290
S'I-VP'
p291
g5
tp292
a(S'been'
p293
S'be'
p294
S'VBN'
p295
S'I-VP'
p296
g5
tp297
a(S'studied'
p298
S'study'
p299
S'VBN'
p300
S'I-VP'
p301
g5
tp302
a(S'in'
p303
S'in'
p304
S'IN'
p305
S'B-PP'
p306
g5
tp307
a(S'placebo-controlled'
p308
S'placebo-controlled'
p309
S'JJ'
p310
S'B-NP'
p311
g5
tp312
a(S'trials'
p313
S'trial'
p314
S'NNS'
p315
S'I-NP'
p316
g5
tp317
a(g57
g57
g57
g5
g5
tp318
a(S'OBJECTIVE'
p319
S'OBJECTIVE'
p320
S'NN'
p321
S'B-NP'
p322
g5
tp323
a(S'Our'
p324
S'Our'
p325
S'PRP$'
p326
S'B-NP'
p327
g5
tp328
a(S'purpose'
p329
S'purpose'
p330
S'NN'
p331
S'I-NP'
p332
g5
tp333
a(S'was'
p334
S'be'
p335
S'VBD'
p336
S'B-VP'
p337
g5
tp338
a(S'to'
p339
S'to'
p340
S'TO'
p341
S'B-VP'
p342
g5
tp343
a(S'evaluate'
p344
S'evaluate'
p345
S'VB'
p346
S'I-VP'
p347
g5
tp348
a(S'the'
p349
S'the'
p350
S'DT'
p351
S'B-NP'
p352
g5
tp353
a(S'efficacy'
p354
S'efficacy'
p355
S'NN'
p356
S'I-NP'
p357
g5
tp358
a(S'of'
p359
S'of'
p360
S'IN'
p361
S'B-PP'
p362
g5
tp363
a(S'a'
p364
g364
S'DT'
p365
S'B-NP'
p366
g5
tp367
a(S'triphasic'
p368
S'triphasic'
p369
S'JJ'
p370
S'I-NP'
p371
g5
tp372
a(g194
g194
g194
S'I-NP'
p373
g5
tp374
a(S'combination'
p375
S'combination'
p376
S'NN'
p377
S'I-NP'
p378
g5
tp379
a(S'OC'
p380
S'OC'
p381
S'NN'
p382
S'I-NP'
p383
g5
tp384
a(g154
g154
g154
g5
g5
tp385
a(S'ORTHO'
p386
S'ORTHO'
p387
S'NN'
p388
S'B-NP'
p389
g5
tp390
a(S'TRI-CYCLEN'
p391
S'TRI-CYCLEN'
p392
S'NN'
p393
S'I-NP'
p394
g5
tp395
a(S'['
p396
g396
g154
g5
g5
tp397
a(S'Ortho-McNeil'
p398
S'Ortho-McNeil'
p399
S'NNP'
p400
S'B-NP'
p401
g5
tp402
a(S'Pharmaceutical'
p403
S'Pharmaceutical'
p404
S'NNP'
p405
S'I-NP'
p406
g5
tp407
a(g194
g194
g194
g5
g5
tp408
a(S'Raritan'
p409
S'Raritan'
p410
S'NNP'
p411
S'B-NP'
p412
g5
tp413
a(g194
g194
g194
g5
g5
tp414
a(S'N.J.'
p415
S'N.J.'
p416
S'NNP'
p417
S'B-NP'
p418
g5
tp419
a(S']'
p420
g420
g162
g5
g5
tp421
a(g194
g194
g194
g5
g5
tp422
a(S'norgestimate/ethinyl'
p423
S'norgestimate/ethinyl'
p424
S'NN'
p425
S'B-NP'
p426
g5
tp427
a(S'estradiol'
p428
S'estradiol'
p429
S'NN'
p430
S'I-NP'
p431
g5
tp432
a(g162
g162
g162
g5
g5
tp433
a(S'compared'
p434
S'compare'
p435
S'VBN'
p436
S'B-PP'
p437
g5
tp438
a(S'with'
p439
S'with'
p440
S'IN'
p441
S'B-PP'
p442
g5
tp443
a(S'placebo'
p444
S'placebo'
p445
S'NN'
p446
S'B-NP'
p447
g5
tp448
a(S'in'
p449
S'in'
p450
S'IN'
p451
S'B-PP'
p452
g5
tp453
a(S'the'
p454
S'the'
p455
S'DT'
p456
S'B-NP'
p457
g5
tp458
a(S'treatment'
p459
S'treatment'
p460
S'NN'
p461
S'I-NP'
p462
g5
tp463
a(S'of'
p464
S'of'
p465
S'IN'
p466
S'B-PP'
p467
g5
tp468
a(S'moderate'
p469
S'moderate'
p470
S'JJ'
p471
S'B-NP'
p472
g5
tp473
a(S'acne'
p474
S'acne'
p475
S'NN'
p476
S'I-NP'
p477
g5
tp478
a(S'vulgaris'
p479
S'vulgaris'
p480
S'NN'
p481
S'I-NP'
p482
g5
tp483
a(g57
g57
g57
g5
g5
tp484
a(S'METHODS'
p485
S'METHODS'
p486
S'NNS'
p487
S'B-NP'
p488
g5
tp489
a(S'Two'
p490
S'Two'
p491
S'CD'
p492
S'B-NP'
p493
g5
tp494
a(S'hundred'
p495
S'hundred'
p496
S'CD'
p497
S'I-NP'
p498
g5
tp499
a(S'fifty-seven'
p500
S'fifty-seven'
p501
S'CD'
p502
S'I-NP'
p503
g5
tp504
a(S'healthy'
p505
S'healthy'
p506
S'JJ'
p507
S'I-NP'
p508
g5
tp509
a(S'female'
p510
S'female'
p511
S'JJ'
p512
S'I-NP'
p513
g5
tp514
a(S'subjects'
p515
S'subject'
p516
S'NNS'
p517
S'I-NP'
p518
g5
tp519
a(g194
g194
g194
g5
g5
tp520
a(S'15'
p521
S'15'
p522
S'CD'
p523
S'B-NP'
p524
g5
tp525
a(S'to'
p526
S'to'
p527
S'TO'
p528
S'I-NP'
p529
g5
tp530
a(S'49'
p531
S'49'
p532
S'CD'
p533
S'I-NP'
p534
g5
tp535
a(S'years'
p536
S'year'
p537
S'NNS'
p538
S'I-NP'
p539
g5
tp540
a(S'of'
p541
S'of'
p542
S'IN'
p543
S'B-PP'
p544
g5
tp545
a(S'age'
p546
S'age'
p547
S'NN'
p548
S'B-NP'
p549
g5
tp550
a(S'with'
p551
S'with'
p552
S'IN'
p553
S'B-PP'
p554
g5
tp555
a(S'moderate'
p556
S'moderate'
p557
S'JJ'
p558
S'B-NP'
p559
g5
tp560
a(S'acne'
p561
S'acne'
p562
S'NN'
p563
S'I-NP'
p564
g5
tp565
a(S'vulgaris'
p566
S'vulgaris'
p567
S'NN'
p568
S'I-NP'
p569
g5
tp570
a(g194
g194
g194
g5
g5
tp571
a(S'were'
p572
S'be'
p573
S'VBD'
p574
S'B-VP'
p575
g5
tp576
a(S'enrolled'
p577
S'enrol'
p578
S'VBN'
p579
S'I-VP'
p580
g5
tp581
a(S'in'
p582
S'in'
p583
S'IN'
p584
S'B-PP'
p585
g5
tp586
a(g364
g364
S'DT'
p587
S'B-NP'
p588
g5
tp589
a(S'multicenter'
p590
S'multicenter'
p591
S'NN'
p592
S'I-NP'
p593
g5
tp594
a(g194
g194
g194
g5
g5
tp595
a(S'randomized'
p596
S'randomize'
p597
S'VBN'
p598
S'B-NP'
p599
g5
tp600
a(g194
g194
g194
S'I-NP'
p601
g5
tp602
a(S'double-blind'
p603
S'double-blind'
p604
S'JJ'
p605
S'I-NP'
p606
g5
tp607
a(g194
g194
g194
S'I-NP'
p608
g5
tp609
a(S'placebo-controlled'
p610
S'placebo-controlled'
p611
S'JJ'
p612
S'I-NP'
p613
g5
tp614
a(S'clinical'
p615
S'clinical'
p616
S'JJ'
p617
S'I-NP'
p618
g5
tp619
a(S'trial.'
p620
S'trial.'
p621
S'NN'
p622
S'I-NP'
p623
g5
tp624
a(S'Each'
p625
S'Each'
p626
S'DT'
p627
S'B-NP'
p628
g5
tp629
a(S'month'
p630
S'month'
p631
S'NN'
p632
S'I-NP'
p633
g5
tp634
a(S'for'
p635
S'for'
p636
S'IN'
p637
S'B-PP'
p638
g5
tp639
a(S'6'
p640
g640
S'CD'
p641
S'B-NP'
p642
g5
tp643
a(S'months'
p644
S'month'
p645
S'NNS'
p646
S'I-NP'
p647
g5
tp648
a(g194
g194
g194
g5
g5
tp649
a(S'subjects'
p650
S'subject'
p651
S'NNS'
p652
S'B-NP'
p653
g5
tp654
a(S'received'
p655
S'receive'
p656
S'VBD'
p657
S'B-VP'
p658
g5
tp659
a(S'either'
p660
S'either'
p661
S'CC'
p662
g5
g5
tp663
a(S'3'
p664
g664
S'CD'
p665
S'B-NP'
p666
g5
tp667
a(S'consecutive'
p668
S'consecutive'
p669
S'JJ'
p670
S'I-NP'
p671
g5
tp672
a(S'weeks'
p673
S'week'
p674
S'NNS'
p675
S'I-NP'
p676
g5
tp677
a(S'of'
p678
S'of'
p679
S'IN'
p680
S'B-PP'
p681
g5
tp682
a(S'the'
p683
S'the'
p684
S'DT'
p685
S'B-NP'
p686
g5
tp687
a(S'OC'
p688
S'OC'
p689
S'NN'
p690
S'I-NP'
p691
g5
tp692
a(g154
g154
g154
g5
g5
tp693
a(S'i.e.'
p694
S'i.e.'
p695
S'FW'
p696
S'B-NP'
p697
g5
tp698
a(g194
g194
g194
g5
g5
tp699
a(S'tablets'
p700
S'tablet'
p701
S'NNS'
p702
S'B-NP'
p703
g5
tp704
a(S'containing'
p705
S'contain'
p706
S'VBG'
p707
S'B-VP'
p708
g5
tp709
a(g364
g364
S'DT'
p710
S'B-NP'
p711
g5
tp712
a(S'fixed'
p713
S'fix'
p714
S'VBN'
p715
S'I-NP'
p716
g5
tp717
a(S'dose'
p718
S'dose'
p719
S'NN'
p720
S'I-NP'
p721
g5
tp722
a(S'of'
p723
S'of'
p724
S'IN'
p725
S'B-PP'
p726
g5
tp727
a(S'ethinyl'
p728
S'ethinyl'
p729
S'NN'
p730
S'B-NP'
p731
g5
tp732
a(S'estradiol'
p733
S'estradiol'
p734
S'NN'
p735
S'I-NP'
p736
g5
tp737
a(g396
g396
g154
g5
g5
tp738
a(S'0.035'
p739
S'0.035'
p740
S'CD'
p741
S'B-NP'
p742
g5
tp743
a(S'mg'
p744
S'mg'
p745
S'NN'
p746
S'I-NP'
p747
g5
tp748
a(g420
g420
g162
g5
g5
tp749
a(S'and'
p750
S'and'
p751
S'CC'
p752
g5
g5
tp753
a(S'increasing'
p754
S'increase'
p755
S'VBG'
p756
S'B-VP'
p757
g5
tp758
a(S'doses'
p759
S'dose'
p760
S'NNS'
p761
S'B-NP'
p762
g5
tp763
a(S'of'
p764
S'of'
p765
S'IN'
p766
S'B-PP'
p767
g5
tp768
a(S'norgestimate'
p769
S'norgestimate'
p770
S'NN'
p771
S'B-NP'
p772
g5
tp773
a(g396
g396
g154
g5
g5
tp774
a(S'0.180'
p775
S'0.180'
p776
S'CD'
p777
S'B-NP'
p778
g5
tp779
a(S'mg'
p780
S'mg'
p781
S'NN'
p782
S'I-NP'
p783
g5
tp784
a(g194
g194
g194
g5
g5
tp785
a(S'0.215'
p786
S'0.215'
p787
S'CD'
p788
S'B-NP'
p789
g5
tp790
a(S'mg'
p791
S'mg'
p792
S'NN'
p793
S'I-NP'
p794
g5
tp795
a(g194
g194
g194
g5
g5
tp796
a(S'0.250'
p797
S'0.250'
p798
S'CD'
p799
S'B-NP'
p800
g5
tp801
a(S'mg'
p802
S'mg'
p803
S'NN'
p804
S'I-NP'
p805
g5
tp806
a(g420
g420
g162
g5
g5
tp807
a(g162
g162
g162
g5
g5
tp808
a(S'followed'
p809
S'follow'
p810
S'VBN'
p811
S'B-VP'
p812
g5
tp813
a(S'by'
p814
S'by'
p815
S'IN'
p816
S'B-PP'
p817
g5
tp818
a(S'7'
p819
g819
S'CD'
p820
S'B-NP'
p821
g5
tp822
a(S'days'
p823
S'day'
p824
S'NNS'
p825
S'I-NP'
p826
g5
tp827
a(S'of'
p828
S'of'
p829
S'IN'
p830
S'B-PP'
p831
g5
tp832
a(S'inactive'
p833
S'inactive'
p834
S'JJ'
p835
S'B-NP'
p836
g5
tp837
a(S'drug'
p838
S'drug'
p839
S'NN'
p840
S'I-NP'
p841
g5
tp842
a(S'or'
p843
S'or'
p844
S'CC'
p845
g5
g5
tp846
a(S'placebo'
p847
S'placebo'
p848
S'NN'
p849
S'B-NP'
p850
g5
tp851
a(g154
g154
g154
g5
g5
tp852
a(S'color-matched'
p853
S'color-matched'
p854
S'JJ'
p855
S'B-NP'
p856
g5
tp857
a(S'tablets'
p858
S'tablet'
p859
S'NNS'
p860
S'I-NP'
p861
g5
tp862
a(g162
g162
g162
g5
g5
tp863
a(g57
g57
g57
g5
g5
tp864
a(S'Efficacy'
p865
S'Efficacy'
p866
S'NN'
p867
S'B-NP'
p868
g5
tp869
a(S'was'
p870
S'be'
p871
S'VBD'
p872
S'B-VP'
p873
g5
tp874
a(S'assessed'
p875
S'assess'
p876
S'VBN'
p877
S'I-VP'
p878
g5
tp879
a(S'by'
p880
S'by'
p881
S'IN'
p882
S'B-PP'
p883
g5
tp884
a(S'facial'
p885
S'facial'
p886
S'JJ'
p887
S'B-NP'
p888
g5
tp889
a(S'acne'
p890
S'acne'
p891
S'NN'
p892
S'I-NP'
p893
g5
tp894
a(S'lesion'
p895
S'lesion'
p896
S'NN'
p897
S'I-NP'
p898
g5
tp899
a(S'counts'
p900
S'count'
p901
S'NNS'
p902
S'I-NP'
p903
g5
tp904
a(g194
g194
g194
g5
g5
tp905
a(S'an'
p906
S'an'
p907
S'DT'
p908
S'B-NP'
p909
g5
tp910
a(S'investigator'
p911
S'investigator'
p912
S'NN'
p913
S'I-NP'
p914
g5
tp915
a(S"'s"
p916
S"'s"
p917
S'POS'
p918
S'B-NP'
p919
g5
tp920
a(S'global'
p921
S'global'
p922
S'JJ'
p923
S'I-NP'
p924
g5
tp925
a(S'assessment'
p926
S'assessment'
p927
S'NN'
p928
S'I-NP'
p929
g5
tp930
a(g194
g194
g194
g5
g5
tp931
a(g364
g364
S'DT'
p932
S'B-NP'
p933
g5
tp934
a(S'subject'
p935
S'subject'
p936
S'NN'
p937
S'I-NP'
p938
g5
tp939
a(S"'s"
p940
S"'s"
p941
S'POS'
p942
S'B-NP'
p943
g5
tp944
a(S'self-assessment'
p945
S'self-assessment'
p946
S'NN'
p947
S'I-NP'
p948
g5
tp949
a(g194
g194
g194
g5
g5
tp950
a(S'and'
p951
S'and'
p952
S'CC'
p953
g5
g5
tp954
a(S'an'
p955
S'an'
p956
S'DT'
p957
S'B-NP'
p958
g5
tp959
a(S'analysis'
p960
S'analysis'
p961
S'NN'
p962
S'I-NP'
p963
g5
tp964
a(S'of'
p965
S'of'
p966
S'IN'
p967
S'B-PP'
p968
g5
tp969
a(S'within-cycle'
p970
S'within-cycle'
p971
S'NN'
p972
S'B-NP'
p973
g5
tp974
a(S'variation'
p975
S'variation'
p976
S'NN'
p977
S'I-NP'
p978
g5
tp979
a(g154
g154
g154
g5
g5
tp980
a(S'cycle'
p981
S'cycle'
p982
S'NN'
p983
S'B-NP'
p984
g5
tp985
a(g640
g640
S'CD'
p986
S'I-NP'
p987
g5
tp988
a(g162
g162
g162
g5
g5
tp989
a(S'in'
p990
S'in'
p991
S'IN'
p992
S'B-PP'
p993
g5
tp994
a(S'lesion'
p995
S'lesion'
p996
S'NN'
p997
S'B-NP'
p998
g5
tp999
a(S'counts'
p1000
S'count'
p1001
S'NNS'
p1002
S'I-NP'
p1003
g5
tp1004
a(g57
g57
g57
g5
g5
tp1005
a(S'RESULTS'
p1006
S'RESULTS'
p1007
S'NNS'
p1008
S'B-NP'
p1009
g5
tp1010
a(S'Of'
p1011
S'Of'
p1012
S'IN'
p1013
S'B-PP'
p1014
g5
tp1015
a(S'the'
p1016
S'the'
p1017
S'DT'
p1018
S'B-NP'
p1019
g5
tp1020
a(S'160'
p1021
S'160'
p1022
S'CD'
p1023
S'I-NP'
p1024
g5
tp1025
a(S'subjects'
p1026
S'subject'
p1027
S'NNS'
p1028
S'I-NP'
p1029
g5
tp1030
a(S'in'
p1031
S'in'
p1032
S'IN'
p1033
S'B-PP'
p1034
g5
tp1035
a(S'whom'
p1036
S'whom'
p1037
S'WP'
p1038
S'B-NP'
p1039
g5
tp1040
a(S'efficacy'
p1041
S'efficacy'
p1042
S'NN'
p1043
S'B-NP'
p1044
g5
tp1045
a(S'could'
p1046
S'could'
p1047
S'MD'
p1048
S'B-VP'
p1049
g5
tp1050
a(S'be'
p1051
S'be'
p1052
S'VB'
p1053
S'I-VP'
p1054
g5
tp1055
a(S'evaluated'
p1056
S'evaluate'
p1057
S'VBN'
p1058
S'I-VP'
p1059
g5
tp1060
a(g194
g194
g194
g5
g5
tp1061
a(S'the'
p1062
S'the'
p1063
S'DT'
p1064
S'B-NP'
p1065
g5
tp1066
a(S'OC'
p1067
S'OC'
p1068
S'NN'
p1069
S'I-NP'
p1070
g5
tp1071
a(S'group'
p1072
S'group'
p1073
S'NN'
p1074
S'I-NP'
p1075
g5
tp1076
a(S'showed'
p1077
S'show'
p1078
S'VBD'
p1079
S'B-VP'
p1080
g5
tp1081
a(g364
g364
S'DT'
p1082
S'B-NP'
p1083
g5
tp1084
a(S'statistically'
p1085
S'statistically'
p1086
S'RB'
p1087
S'I-NP'
p1088
g5
tp1089
a(S'significantly'
p1090
S'significantly'
p1091
S'RB'
p1092
S'I-NP'
p1093
g5
tp1094
a(S'greater'
p1095
S'great'
p1096
S'JJR'
p1097
S'I-NP'
p1098
g5
tp1099
a(S'improvement'
p1100
S'improvement'
p1101
S'NN'
p1102
S'I-NP'
p1103
g5
tp1104
a(S'than'
p1105
S'than'
p1106
S'IN'
p1107
S'B-PP'
p1108
g5
tp1109
a(S'the'
p1110
S'the'
p1111
S'DT'
p1112
S'B-NP'
p1113
g5
tp1114
a(S'placebo'
p1115
S'placebo'
p1116
S'NN'
p1117
S'I-NP'
p1118
g5
tp1119
a(S'group'
p1120
S'group'
p1121
S'NN'
p1122
S'I-NP'
p1123
g5
tp1124
a(S'for'
p1125
S'for'
p1126
S'IN'
p1127
S'B-PP'
p1128
g5
tp1129
a(S'all'
p1130
S'all'
p1131
S'DT'
p1132
S'B-NP'
p1133
g5
tp1134
a(S'primary'
p1135
S'primary'
p1136
S'JJ'
p1137
S'I-NP'
p1138
g5
tp1139
a(S'efficacy'
p1140
S'efficacy'
p1141
S'NN'
p1142
S'I-NP'
p1143
g5
tp1144
a(S'measures.'
p1145
S'measures.'
p1146
S'NN'
p1147
S'I-NP'
p1148
g5
tp1149
a(S'The'
p1150
S'The'
p1151
S'DT'
p1152
S'B-NP'
p1153
g5
tp1154
a(S'mean'
p1155
S'mean'
p1156
S'JJ'
p1157
S'I-NP'
p1158
g5
tp1159
a(S'decrease'
p1160
S'decrease'
p1161
S'NN'
p1162
S'I-NP'
p1163
g5
tp1164
a(S'in'
p1165
S'in'
p1166
S'IN'
p1167
S'B-PP'
p1168
g5
tp1169
a(S'inflammatory'
p1170
S'inflammatory'
p1171
S'JJ'
p1172
S'B-NP'
p1173
g5
tp1174
a(S'lesion'
p1175
S'lesion'
p1176
S'NN'
p1177
S'I-NP'
p1178
g5
tp1179
a(S'count'
p1180
S'count'
p1181
S'NN'
p1182
S'I-NP'
p1183
g5
tp1184
a(S'from'
p1185
S'from'
p1186
S'IN'
p1187
S'B-PP'
p1188
g5
tp1189
a(S'baseline'
p1190
S'baseline'
p1191
S'NN'
p1192
S'B-NP'
p1193
g5
tp1194
a(S'to'
p1195
S'to'
p1196
S'TO'
p1197
S'B-PP'
p1198
g5
tp1199
a(S'cycle'
p1200
S'cycle'
p1201
S'NN'
p1202
S'B-NP'
p1203
g5
tp1204
a(g640
g640
S'CD'
p1205
S'I-NP'
p1206
g5
tp1207
a(S'was'
p1208
S'be'
p1209
S'VBD'
p1210
S'B-VP'
p1211
g5
tp1212
a(S'11.8'
p1213
S'11.8'
p1214
S'CD'
p1215
S'B-NP'
p1216
g5
tp1217
a(g154
g154
g154
g5
g5
tp1218
a(S'62.0'
p1219
S'62.0'
p1220
S'CD'
p1221
S'B-NP'
p1222
g5
tp1223
a(S'%'
p1224
g1224
S'NN'
p1225
S'I-NP'
p1226
g5
tp1227
a(g162
g162
g162
g5
g5
tp1228
a(S'versus'
p1229
S'versus'
p1230
S'IN'
p1231
S'B-PP'
p1232
g5
tp1233
a(S'7.6'
p1234
S'7.6'
p1235
S'CD'
p1236
S'B-NP'
p1237
g5
tp1238
a(g154
g154
g154
g5
g5
tp1239
a(S'38.6'
p1240
S'38.6'
p1241
S'CD'
p1242
S'B-NP'
p1243
g5
tp1244
a(g1224
g1224
S'NN'
p1245
S'I-NP'
p1246
g5
tp1247
a(g162
g162
g162
g5
g5
tp1248
a(g154
g154
g154
g5
g5
tp1249
a(S'p'
p1250
g1250
S'NN'
p1251
S'B-NP'
p1252
g5
tp1253
a(S'='
p1254
g1254
S'SYM'
p1255
S'B-VP'
p1256
g5
tp1257
a(S'0.0001'
p1258
S'0.0001'
p1259
S'CD'
p1260
S'B-NP'
p1261
g5
tp1262
a(g162
g162
g162
g5
g5
tp1263
a(g194
g194
g194
g5
g5
tp1264
a(S'and'
p1265
S'and'
p1266
S'CC'
p1267
g5
g5
tp1268
a(S'the'
p1269
S'the'
p1270
S'DT'
p1271
S'B-NP'
p1272
g5
tp1273
a(S'mean'
p1274
S'mean'
p1275
S'JJ'
p1276
S'I-NP'
p1277
g5
tp1278
a(S'decrease'
p1279
S'decrease'
p1280
S'NN'
p1281
S'I-NP'
p1282
g5
tp1283
a(S'in'
p1284
S'in'
p1285
S'IN'
p1286
S'B-PP'
p1287
g5
tp1288
a(S'total'
p1289
S'total'
p1290
S'JJ'
p1291
S'B-NP'
p1292
g5
tp1293
a(S'lesion'
p1294
S'lesion'
p1295
S'NN'
p1296
S'I-NP'
p1297
g5
tp1298
a(S'count'
p1299
S'count'
p1300
S'NN'
p1301
S'I-NP'
p1302
g5
tp1303
a(S'was'
p1304
S'be'
p1305
S'VBD'
p1306
S'B-VP'
p1307
g5
tp1308
a(S'29.1'
p1309
S'29.1'
p1310
S'CD'
p1311
S'B-NP'
p1312
g5
tp1313
a(g154
g154
g154
g5
g5
tp1314
a(S'53.1'
p1315
S'53.1'
p1316
S'CD'
p1317
S'B-NP'
p1318
g5
tp1319
a(g1224
g1224
S'NN'
p1320
S'I-NP'
p1321
g5
tp1322
a(g162
g162
g162
g5
g5
tp1323
a(S'versus'
p1324
S'versus'
p1325
S'IN'
p1326
S'B-PP'
p1327
g5
tp1328
a(S'14.1'
p1329
S'14.1'
p1330
S'CD'
p1331
S'B-NP'
p1332
g5
tp1333
a(g154
g154
g154
g5
g5
tp1334
a(S'26.8'
p1335
S'26.8'
p1336
S'CD'
p1337
S'B-NP'
p1338
g5
tp1339
a(g1224
g1224
S'NN'
p1340
S'I-NP'
p1341
g5
tp1342
a(g162
g162
g162
g5
g5
tp1343
a(g154
g154
g154
g5
g5
tp1344
a(g1250
g1250
S'NN'
p1345
S'B-NP'
p1346
g5
tp1347
a(g1254
g1254
S'SYM'
p1348
S'B-VP'
p1349
g5
tp1350
a(S'0.0001'
p1351
S'0.0001'
p1352
S'CD'
p1353
S'B-NP'
p1354
g5
tp1355
a(g162
g162
g162
g5
g5
tp1356
a(S'in'
p1357
S'in'
p1358
S'IN'
p1359
S'B-PP'
p1360
g5
tp1361
a(S'the'
p1362
S'the'
p1363
S'DT'
p1364
S'B-NP'
p1365
g5
tp1366
a(S'OC'
p1367
S'OC'
p1368
S'NN'
p1369
S'I-NP'
p1370
g5
tp1371
a(S'and'
p1372
S'and'
p1373
S'CC'
p1374
S'I-NP'
p1375
g5
tp1376
a(S'placebo'
p1377
S'placebo'
p1378
S'NN'
p1379
S'I-NP'
p1380
g5
tp1381
a(S'groups'
p1382
S'group'
p1383
S'NNS'
p1384
S'I-NP'
p1385
g5
tp1386
a(g194
g194
g194
g5
g5
tp1387
a(S'respectively.'
p1388
S'respectively.'
p1389
S'VBP'
p1390
S'B-VP'
p1391
g5
tp1392
a(S'In'
p1393
S'In'
p1394
S'IN'
p1395
S'B-PP'
p1396
g5
tp1397
a(S'the'
p1398
S'the'
p1399
S'DT'
p1400
S'B-NP'
p1401
g5
tp1402
a(S'investigator'
p1403
S'investigator'
p1404
S'NN'
p1405
S'I-NP'
p1406
g5
tp1407
a(S"'s"
p1408
S"'s"
p1409
S'POS'
p1410
S'B-NP'
p1411
g5
tp1412
a(S'global'
p1413
S'global'
p1414
S'JJ'
p1415
S'I-NP'
p1416
g5
tp1417
a(S'assessment'
p1418
S'assessment'
p1419
S'NN'
p1420
S'I-NP'
p1421
g5
tp1422
a(g194
g194
g194
g5
g5
tp1423
a(S'93.7'
p1424
S'93.7'
p1425
S'CD'
p1426
S'B-NP'
p1427
g5
tp1428
a(g1224
g1224
S'NN'
p1429
S'I-NP'
p1430
g5
tp1431
a(S'of'
p1432
S'of'
p1433
S'IN'
p1434
S'B-PP'
p1435
g5
tp1436
a(S'the'
p1437
S'the'
p1438
S'DT'
p1439
S'B-NP'
p1440
g5
tp1441
a(S'active'
p1442
S'active'
p1443
S'JJ'
p1444
S'I-NP'
p1445
g5
tp1446
a(S'treatment'
p1447
S'treatment'
p1448
S'NN'
p1449
S'I-NP'
p1450
g5
tp1451
a(S'group'
p1452
S'group'
p1453
S'NN'
p1454
S'I-NP'
p1455
g5
tp1456
a(S'versus'
p1457
S'versus'
p1458
S'IN'
p1459
S'B-PP'
p1460
g5
tp1461
a(S'65.4'
p1462
S'65.4'
p1463
S'CD'
p1464
S'B-NP'
p1465
g5
tp1466
a(g1224
g1224
S'NN'
p1467
S'I-NP'
p1468
g5
tp1469
a(S'of'
p1470
S'of'
p1471
S'IN'
p1472
S'B-PP'
p1473
g5
tp1474
a(S'the'
p1475
S'the'
p1476
S'DT'
p1477
S'B-NP'
p1478
g5
tp1479
a(S'placebo'
p1480
S'placebo'
p1481
S'NN'
p1482
S'I-NP'
p1483
g5
tp1484
a(S'group'
p1485
S'group'
p1486
S'NN'
p1487
S'I-NP'
p1488
g5
tp1489
a(S'were'
p1490
S'be'
p1491
S'VBD'
p1492
S'B-VP'
p1493
g5
tp1494
a(S'rated'
p1495
S'rat'
p1496
S'VBN'
p1497
S'I-VP'
p1498
g5
tp1499
a(S'as'
p1500
S'as'
p1501
S'IN'
p1502
S'B-SBAR'
p1503
g5
tp1504
a(S'improved'
p1505
S'improve'
p1506
S'VBN'
p1507
S'B-VP'
p1508
g5
tp1509
a(S'at'
p1510
S'at'
p1511
S'IN'
p1512
S'B-PP'
p1513
g5
tp1514
a(S'the'
p1515
S'the'
p1516
S'DT'
p1517
S'B-NP'
p1518
g5
tp1519
a(S'end'
p1520
S'end'
p1521
S'NN'
p1522
S'I-NP'
p1523
g5
tp1524
a(S'of'
p1525
S'of'
p1526
S'IN'
p1527
S'B-PP'
p1528
g5
tp1529
a(S'the'
p1530
S'the'
p1531
S'DT'
p1532
S'B-NP'
p1533
g5
tp1534
a(S'study'
p1535
S'study'
p1536
S'NN'
p1537
S'I-NP'
p1538
g5
tp1539
a(g154
g154
g154
g5
g5
tp1540
a(g1250
g1250
S'NN'
p1541
S'B-NP'
p1542
g5
tp1543
a(S'<'
p1544
g1544
S'SYM'
p1545
g5
g5
tp1546
a(S'0.001'
p1547
S'0.001'
p1548
S'CD'
p1549
S'B-NP'
p1550
g5
tp1551
a(g162
g162
g162
g5
g5
tp1552
a(g57
g57
g57
g5
g5
tp1553
a(S'Six'
p1554
S'Six'
p1555
S'CD'
p1556
S'B-NP'
p1557
g5
tp1558
a(S'of'
p1559
S'of'
p1560
S'IN'
p1561
S'B-PP'
p1562
g5
tp1563
a(S'the'
p1564
S'the'
p1565
S'DT'
p1566
S'B-NP'
p1567
g5
tp1568
a(S'seven'
p1569
S'seven'
p1570
S'CD'
p1571
S'I-NP'
p1572
g5
tp1573
a(S'secondary'
p1574
S'secondary'
p1575
S'JJ'
p1576
S'I-NP'
p1577
g5
tp1578
a(S'efficacy'
p1579
S'efficacy'
p1580
S'NN'
p1581
S'I-NP'
p1582
g5
tp1583
a(S'measures'
p1584
S'measure'
p1585
S'NNS'
p1586
S'I-NP'
p1587
g5
tp1588
a(g154
g154
g154
g5
g5
tp1589
a(S'total'
p1590
S'total'
p1591
S'JJ'
p1592
S'B-NP'
p1593
g5
tp1594
a(S'comedones'
p1595
S'comedo'
p1596
S'NNS'
p1597
S'I-NP'
p1598
g5
tp1599
a(g194
g194
g194
g5
g5
tp1600
a(S'open'
p1601
S'open'
p1602
S'JJ'
p1603
S'B-NP'
p1604
g5
tp1605
a(S'comedones'
p1606
S'comedo'
p1607
S'NNS'
p1608
S'I-NP'
p1609
g5
tp1610
a(g194
g194
g194
g5
g5
tp1611
a(S'closed'
p1612
S'close'
p1613
S'VBD'
p1614
S'B-VP'
p1615
g5
tp1616
a(S'comedones'
p1617
S'comedo'
p1618
S'NNS'
p1619
S'B-NP'
p1620
g5
tp1621
a(g194
g194
g194
g5
g5
tp1622
a(S'papules'
p1623
S'papule'
p1624
S'NNS'
p1625
S'B-NP'
p1626
g5
tp1627
a(g194
g194
g194
g5
g5
tp1628
a(S'pustules'
p1629
S'pustule'
p1630
S'NNS'
p1631
S'B-NP'
p1632
g5
tp1633
a(g194
g194
g194
g5
g5
tp1634
a(S'and'
p1635
S'and'
p1636
S'CC'
p1637
g5
g5
tp1638
a(S'the'
p1639
S'the'
p1640
S'DT'
p1641
S'B-NP'
p1642
g5
tp1643
a(S'subject'
p1644
S'subject'
p1645
S'NN'
p1646
S'I-NP'
p1647
g5
tp1648
a(S"'s"
p1649
S"'s"
p1650
S'POS'
p1651
S'B-NP'
p1652
g5
tp1653
a(S'self-assessment'
p1654
S'self-assessment'
p1655
S'NN'
p1656
S'I-NP'
p1657
g5
tp1658
a(S'of'
p1659
S'of'
p1660
S'IN'
p1661
S'B-PP'
p1662
g5
tp1663
a(S'study'
p1664
S'study'
p1665
S'NN'
p1666
S'B-NP'
p1667
g5
tp1668
a(S'treatment'
p1669
S'treatment'
p1670
S'NN'
p1671
S'I-NP'
p1672
g5
tp1673
a(g162
g162
g162
g5
g5
tp1674
a(S'were'
p1675
S'be'
p1676
S'VBD'
p1677
S'B-VP'
p1678
g5
tp1679
a(S'also'
p1680
S'also'
p1681
S'RB'
p1682
S'B-ADVP'
p1683
g5
tp1684
a(S'significantly'
p1685
S'significantly'
p1686
S'RB'
p1687
S'B-ADJP'
p1688
g5
tp1689
a(S'more'
p1690
S'more'
p1691
S'RBR'
p1692
S'I-ADJP'
p1693
g5
tp1694
a(S'favorable'
p1695
S'favorable'
p1696
S'JJ'
p1697
S'I-ADJP'
p1698
g5
tp1699
a(S'in'
p1700
S'in'
p1701
S'IN'
p1702
S'B-PP'
p1703
g5
tp1704
a(S'the'
p1705
S'the'
p1706
S'DT'
p1707
S'B-NP'
p1708
g5
tp1709
a(S'OC'
p1710
S'OC'
p1711
S'NN'
p1712
S'I-NP'
p1713
g5
tp1714
a(S'group'
p1715
S'group'
p1716
S'NN'
p1717
S'I-NP'
p1718
g5
tp1719
a(S'compared'
p1720
S'compare'
p1721
S'VBN'
p1722
S'B-PP'
p1723
g5
tp1724
a(S'with'
p1725
S'with'
p1726
S'IN'
p1727
S'B-PP'
p1728
g5
tp1729
a(S'the'
p1730
S'the'
p1731
S'DT'
p1732
S'B-NP'
p1733
g5
tp1734
a(S'placebo'
p1735
S'placebo'
p1736
S'NN'
p1737
S'I-NP'
p1738
g5
tp1739
a(S'group'
p1740
S'group'
p1741
S'NN'
p1742
S'I-NP'
p1743
g5
tp1744
a(g57
g57
g57
g5
g5
tp1745
a(S'CONCLUSION'
p1746
S'CONCLUSION'
p1747
S'NN'
p1748
S'B-NP'
p1749
g5
tp1750
a(S'An'
p1751
S'An'
p1752
S'DT'
p1753
S'B-NP'
p1754
g5
tp1755
a(S'OC'
p1756
S'OC'
p1757
S'NN'
p1758
S'I-NP'
p1759
g5
tp1760
a(S'containing'
p1761
S'contain'
p1762
S'VBG'
p1763
S'B-VP'
p1764
g5
tp1765
a(S'0.035'
p1766
S'0.035'
p1767
S'CD'
p1768
S'B-NP'
p1769
g5
tp1770
a(S'mg'
p1771
S'mg'
p1772
S'NN'
p1773
S'I-NP'
p1774
g5
tp1775
a(S'of'
p1776
S'of'
p1777
S'IN'
p1778
S'B-PP'
p1779
g5
tp1780
a(S'ethinyl'
p1781
S'ethinyl'
p1782
S'NN'
p1783
S'B-NP'
p1784
g5
tp1785
a(S'estradiol'
p1786
S'estradiol'
p1787
S'NN'
p1788
S'I-NP'
p1789
g5
tp1790
a(S'combined'
p1791
S'combine'
p1792
S'VBN'
p1793
S'B-VP'
p1794
g5
tp1795
a(S'with'
p1796
S'with'
p1797
S'IN'
p1798
S'B-PP'
p1799
g5
tp1800
a(S'the'
p1801
S'the'
p1802
S'DT'
p1803
S'B-NP'
p1804
g5
tp1805
a(S'triphasic'
p1806
S'triphasic'
p1807
S'JJ'
p1808
S'I-NP'
p1809
g5
tp1810
a(S'regimen'
p1811
S'regimen'
p1812
S'NN'
p1813
S'I-NP'
p1814
g5
tp1815
a(S'of'
p1816
S'of'
p1817
S'IN'
p1818
S'B-PP'
p1819
g5
tp1820
a(S'norgestimate'
p1821
S'norgestimate'
p1822
S'NN'
p1823
S'B-NP'
p1824
g5
tp1825
a(S'is'
p1826
S'be'
p1827
S'VBZ'
p1828
S'B-VP'
p1829
g5
tp1830
a(g364
g364
S'DT'
p1831
S'B-NP'
p1832
g5
tp1833
a(S'safe'
p1834
S'safe'
p1835
S'JJ'
p1836
S'I-NP'
p1837
g5
tp1838
a(S'and'
p1839
S'and'
p1840
S'CC'
p1841
S'I-NP'
p1842
g5
tp1843
a(S'effective'
p1844
S'effective'
p1845
S'JJ'
p1846
S'I-NP'
p1847
g5
tp1848
a(S'treatment'
p1849
S'treatment'
p1850
S'NN'
p1851
S'I-NP'
p1852
g5
tp1853
a(S'of'
p1854
S'of'
p1855
S'IN'
p1856
S'B-PP'
p1857
g5
tp1858
a(S'moderate'
p1859
S'moderate'
p1860
S'JJ'
p1861
S'B-NP'
p1862
g5
tp1863
a(S'acne'
p1864
S'acne'
p1865
S'NN'
p1866
S'I-NP'
p1867
g5
tp1868
a(S'vulgaris'
p1869
S'vulgaris'
p1870
S'NN'
p1871
S'I-NP'
p1872
g5
tp1873
a(S'in'
p1874
S'in'
p1875
S'IN'
p1876
S'B-PP'
p1877
g5
tp1878
a(S'women'
p1879
S'woman'
p1880
S'NNS'
p1881
S'B-NP'
p1882
g5
tp1883
a(S'with'
p1884
S'with'
p1885
S'IN'
p1886
S'B-PP'
p1887
g5
tp1888
a(S'no'
p1889
S'no'
p1890
S'DT'
p1891
S'B-NP'
p1892
g5
tp1893
a(S'known'
p1894
S'know'
p1895
S'VBN'
p1896
S'I-NP'
p1897
g5
tp1898
a(S'contraindication'
p1899
S'contraindication'
p1900
S'NN'
p1901
S'I-NP'
p1902
g5
tp1903
a(S'to'
p1904
S'to'
p1905
S'TO'
p1906
S'B-PP'
p1907
g5
tp1908
a(S'OC'
p1909
S'OC'
p1910
S'NN'
p1911
S'B-NP'
p1912
g5
tp1913
a(S'therapy'
p1914
S'therapy'
p1915
S'NN'
p1916
S'I-NP'
p1917
g5
tp1918
a(g57
g57
g57
g5
g5
tp1919
a.