(lp0
(S'['
p1
g1
S'('
p2
S'O'
p3
g3
tp4
a(S'Supplementary'
p5
S'Supplementary'
p6
S'JJ'
p7
S'B-NP'
p8
g3
tp9
a(S'treatment'
p10
S'treatment'
p11
S'NN'
p12
S'I-NP'
p13
g3
tp14
a(S'with'
p15
S'with'
p16
S'IN'
p17
S'B-PP'
p18
g3
tp19
a(S'Esberitox'
p20
S'Esberitox'
p21
S'NN'
p22
S'B-NP'
p23
g3
tp24
a(S'of'
p25
S'of'
p26
S'IN'
p27
S'B-PP'
p28
g3
tp29
a(S'female'
p30
S'female'
p31
S'JJ'
p32
S'B-NP'
p33
g3
tp34
a(S'patients'
p35
S'patient'
p36
S'NNS'
p37
S'I-NP'
p38
g3
tp39
a(S'undergoing'
p40
S'undergo'
p41
S'VBG'
p42
S'B-VP'
p43
g3
tp44
a(S'curative'
p45
S'curative'
p46
S'JJ'
p47
S'B-NP'
p48
g3
tp49
a(S'adjuvant'
p50
S'adjuvant'
p51
S'JJ'
p52
S'I-NP'
p53
g3
tp54
a(S'irradiation'
p55
S'irradiation'
p56
S'NN'
p57
S'I-NP'
p58
g3
tp59
a(S'following'
p60
S'follow'
p61
S'VBG'
p62
S'B-PP'
p63
g3
tp64
a(S'breast'
p65
S'breast'
p66
S'NN'
p67
S'B-NP'
p68
g3
tp69
a(S'cancer'
p70
S'cancer'
p71
S'NN'
p72
S'I-NP'
p73
g3
tp74
a(S']'
p75
g75
S')'
p76
g3
g3
tp77
a(S'.'
p78
g78
g78
g3
g3
tp79
a(S'1.'
p80
S'1.'
p81
S'LS'
p82
S'B-LST'
p83
g3
tp84
a(S'The'
p85
S'The'
p86
S'DT'
p87
S'B-NP'
p88
g3
tp89
a(S'study'
p90
S'study'
p91
S'NN'
p92
S'I-NP'
p93
g3
tp94
a(S'was'
p95
S'be'
p96
S'VBD'
p97
S'B-VP'
p98
g3
tp99
a(S'supposed'
p100
S'suppose'
p101
S'VBN'
p102
S'I-VP'
p103
g3
tp104
a(S'to'
p105
S'to'
p106
S'TO'
p107
S'I-VP'
p108
g3
tp109
a(S'investigate'
p110
S'investigate'
p111
S'VB'
p112
S'I-VP'
p113
g3
tp114
a(S'a'
p115
g115
S'DT'
p116
S'B-NP'
p117
g3
tp118
a(S'possible'
p119
S'possible'
p120
S'JJ'
p121
S'I-NP'
p122
g3
tp123
a(S'prevention'
p124
S'prevention'
p125
S'NN'
p126
S'I-NP'
p127
g3
tp128
a(S'or'
p129
S'or'
p130
S'CC'
p131
S'I-NP'
p132
g3
tp133
a(S'reduction'
p134
S'reduction'
p135
S'NN'
p136
S'I-NP'
p137
g3
tp138
a(S'of'
p139
S'of'
p140
S'IN'
p141
S'B-PP'
p142
g3
tp143
a(S'the'
p144
S'the'
p145
S'DT'
p146
S'B-NP'
p147
g3
tp148
a(S'toxicity'
p149
S'toxicity'
p150
S'NN'
p151
S'I-NP'
p152
g3
tp153
a(S'of'
p154
S'of'
p155
S'IN'
p156
S'B-PP'
p157
g3
tp158
a(S'radiotherapy'
p159
S'radiotherapy'
p160
S'NN'
p161
S'B-NP'
p162
g3
tp163
a(S'by'
p164
S'by'
p165
S'IN'
p166
S'B-PP'
p167
g3
tp168
a(S'an'
p169
S'an'
p170
S'DT'
p171
S'B-NP'
p172
g3
tp173
a(S'additional'
p174
S'additional'
p175
S'JJ'
p176
S'I-NP'
p177
g3
tp178
a(S'treatment'
p179
S'treatment'
p180
S'NN'
p181
S'I-NP'
p182
g3
tp183
a(S'with'
p184
S'with'
p185
S'IN'
p186
S'B-PP'
p187
g3
tp188
a(S'Esberitox.'
p189
S'Esberitox.'
p190
S'NNP'
p191
S'B-NP'
p192
g3
tp193
a(S'This'
p194
S'This'
p195
S'DT'
p196
S'B-NP'
p197
g3
tp198
a(S'question'
p199
S'question'
p200
S'NN'
p201
S'I-NP'
p202
g3
tp203
a(S'arose'
p204
S'arise'
p205
S'VBD'
p206
S'B-VP'
p207
g3
tp208
a(S'when'
p209
S'when'
p210
S'WRB'
p211
S'B-ADVP'
p212
g3
tp213
a(S'performing'
p214
S'perform'
p215
S'VBG'
p216
S'B-VP'
p217
g3
tp218
a(S'an'
p219
S'an'
p220
S'DT'
p221
S'B-NP'
p222
g3
tp223
a(S'investigation'
p224
S'investigation'
p225
S'NN'
p226
S'I-NP'
p227
g3
tp228
a(S'about'
p229
S'about'
p230
S'IN'
p231
S'B-PP'
p232
g3
tp233
a(S'the'
p234
S'the'
p235
S'DT'
p236
S'B-NP'
p237
g3
tp238
a(S'effect'
p239
S'effect'
p240
S'NN'
p241
S'I-NP'
p242
g3
tp243
a(S'of'
p244
S'of'
p245
S'IN'
p246
S'B-PP'
p247
g3
tp248
a(S'Esberitox'
p249
S'Esberitox'
p250
S'NN'
p251
S'B-NP'
p252
S'B-protein'
p253
tp254
a(S'in'
p255
S'in'
p256
S'IN'
p257
S'B-PP'
p258
g3
tp259
a(g115
g115
S'DT'
p260
S'B-NP'
p261
g3
tp262
a(S'combined'
p263
S'combined'
p264
S'JJ'
p265
S'I-NP'
p266
g3
tp267
a(S'chemo-radiotherapy.'
p268
S'chemo-radiotherapy.'
p269
S'NN'
p270
S'I-NP'
p271
g3
tp272
a(S'Whereas'
p273
S'Whereas'
p274
S'IN'
p275
S'B-PP'
p276
g3
tp277
a(S'the'
p278
S'the'
p279
S'DT'
p280
S'B-NP'
p281
g3
tp282
a(S'latter'
p283
S'latter'
p284
S'JJ'
p285
S'I-NP'
p286
g3
tp287
a(S'induces'
p288
S'induce'
p289
S'VBZ'
p290
S'B-VP'
p291
g3
tp292
a(S'above'
p293
S'above'
p294
S'IN'
p295
S'B-PP'
p296
g3
tp297
a(S'all'
p298
S'all'
p299
S'PDT'
p300
S'B-NP'
p301
g3
tp302
a(g115
g115
S'DT'
p303
S'I-NP'
p304
g3
tp305
a(S'systemic'
p306
S'systemic'
p307
S'JJ'
p308
S'I-NP'
p309
g3
tp310
a(S'damage'
p311
S'damage'
p312
S'NN'
p313
S'I-NP'
p314
g3
tp315
a(S'to'
p316
S'to'
p317
S'TO'
p318
S'B-PP'
p319
g3
tp320
a(S'the'
p321
S'the'
p322
S'DT'
p323
S'B-NP'
p324
g3
tp325
a(S'hemopoietic'
p326
S'hemopoietic'
p327
S'JJ'
p328
S'I-NP'
p329
g3
tp330
a(S'system'
p331
S'system'
p332
S'NN'
p333
S'I-NP'
p334
g3
tp335
a(S','
p336
g336
g336
g3
g3
tp337
a(S'radiotherapy'
p338
S'radiotherapy'
p339
S'NN'
p340
S'B-NP'
p341
g3
tp342
a(S'is'
p343
S'be'
p344
S'VBZ'
p345
S'B-VP'
p346
g3
tp347
a(g115
g115
S'DT'
p348
S'B-NP'
p349
g3
tp350
a(S'regional'
p351
S'regional'
p352
S'JJ'
p353
S'I-NP'
p354
g3
tp355
a(S'noxa.'
p356
S'noxa.'
p357
S'NN'
p358
S'I-NP'
p359
g3
tp360
a(S'2.'
p361
S'2.'
p362
S'LS'
p363
g3
g3
tp364
a(S'The'
p365
S'The'
p366
S'DT'
p367
S'B-NP'
p368
g3
tp369
a(S'present'
p370
S'present'
p371
S'JJ'
p372
S'I-NP'
p373
g3
tp374
a(S'prospective'
p375
S'prospective'
p376
S'JJ'
p377
S'I-NP'
p378
g3
tp379
a(g336
g336
g336
S'I-NP'
p380
g3
tp381
a(S'randomized'
p382
S'randomize'
p383
S'VBN'
p384
S'I-NP'
p385
g3
tp386
a(S'study'
p387
S'study'
p388
S'NN'
p389
S'I-NP'
p390
g3
tp391
a(S'was'
p392
S'be'
p393
S'VBD'
p394
S'B-VP'
p395
g3
tp396
a(S'conducted'
p397
S'conduct'
p398
S'VBN'
p399
S'I-VP'
p400
g3
tp401
a(S'with'
p402
S'with'
p403
S'IN'
p404
S'B-PP'
p405
g3
tp406
a(S'50'
p407
S'50'
p408
S'CD'
p409
S'B-NP'
p410
g3
tp411
a(S'patients'
p412
S'patient'
p413
S'NNS'
p414
S'I-NP'
p415
g3
tp416
a(S'submitted'
p417
S'submit'
p418
S'VBN'
p419
S'B-VP'
p420
g3
tp421
a(S'to'
p422
S'to'
p423
S'TO'
p424
S'B-PP'
p425
g3
tp426
a(S'curative'
p427
S'curative'
p428
S'JJ'
p429
S'B-NP'
p430
g3
tp431
a(S'adjuvant'
p432
S'adjuvant'
p433
S'JJ'
p434
S'I-NP'
p435
g3
tp436
a(S'irradiation'
p437
S'irradiation'
p438
S'NN'
p439
S'I-NP'
p440
g3
tp441
a(S'following'
p442
S'follow'
p443
S'VBG'
p444
S'B-PP'
p445
g3
tp446
a(S'surgery'
p447
S'surgery'
p448
S'NN'
p449
S'B-NP'
p450
g3
tp451
a(S'for'
p452
S'for'
p453
S'IN'
p454
S'B-PP'
p455
g3
tp456
a(S'mammary'
p457
S'mammary'
p458
S'JJ'
p459
S'B-NP'
p460
g3
tp461
a(S'carcinoma.'
p462
S'carcinoma.'
p463
S'NN'
p464
S'I-NP'
p465
g3
tp466
a(S'The'
p467
S'The'
p468
S'DT'
p469
S'B-NP'
p470
g3
tp471
a(S'radiotherapy'
p472
S'radiotherapy'
p473
S'NN'
p474
S'I-NP'
p475
g3
tp476
a(S'was'
p477
S'be'
p478
S'VBD'
p479
S'B-VP'
p480
g3
tp481
a(S'performed'
p482
S'perform'
p483
S'VBN'
p484
S'I-VP'
p485
g3
tp486
a(S'in'
p487
S'in'
p488
S'IN'
p489
S'B-PP'
p490
g3
tp491
a(S'the'
p492
S'the'
p493
S'DT'
p494
S'B-NP'
p495
g3
tp496
a(S'same'
p497
S'same'
p498
S'JJ'
p499
S'I-NP'
p500
g3
tp501
a(S'way'
p502
S'way'
p503
S'NN'
p504
S'I-NP'
p505
g3
tp506
a(S'in'
p507
S'in'
p508
S'IN'
p509
S'B-PP'
p510
g3
tp511
a(S'all'
p512
S'all'
p513
S'DT'
p514
S'B-NP'
p515
g3
tp516
a(S'patients'
p517
S'patient'
p518
S'NNS'
p519
S'I-NP'
p520
g3
tp521
a(S'with'
p522
S'with'
p523
S'IN'
p524
S'B-PP'
p525
g3
tp526
a(S'irradiations'
p527
S'irradiation'
p528
S'NNS'
p529
S'B-NP'
p530
g3
tp531
a(S'of'
p532
S'of'
p533
S'IN'
p534
S'B-PP'
p535
g3
tp536
a(S'the'
p537
S'the'
p538
S'DT'
p539
S'B-NP'
p540
g3
tp541
a(S'thoracic'
p542
S'thoracic'
p543
S'JJ'
p544
S'I-NP'
p545
g3
tp546
a(S'wall'
p547
S'wall'
p548
S'NN'
p549
S'I-NP'
p550
g3
tp551
a(S'and'
p552
S'and'
p553
S'CC'
p554
g3
g3
tp555
a(S'the'
p556
S'the'
p557
S'DT'
p558
S'B-NP'
p559
g3
tp560
a(S'regional'
p561
S'regional'
p562
S'JJ'
p563
S'I-NP'
p564
g3
tp565
a(S'lymph'
p566
S'lymph'
p567
S'NN'
p568
S'I-NP'
p569
g3
tp570
a(S'nodes.'
p571
S'nodes.'
p572
S'NN'
p573
S'I-NP'
p574
g3
tp575
a(S'Two'
p576
S'Two'
p577
S'CD'
p578
S'B-NP'
p579
g3
tp580
a(S'groups'
p581
S'group'
p582
S'NNS'
p583
S'I-NP'
p584
g3
tp585
a(S'were'
p586
S'be'
p587
S'VBD'
p588
S'B-VP'
p589
g3
tp590
a(S'built'
p591
S'build'
p592
S'VBN'
p593
S'I-VP'
p594
g3
tp595
a(S'by'
p596
S'by'
p597
S'IN'
p598
S'B-PP'
p599
g3
tp600
a(S'randomization.'
p601
S'randomization.'
p602
S'RB'
p603
S'B-NP'
p604
g3
tp605
a(S'The'
p606
S'The'
p607
S'DT'
p608
S'I-NP'
p609
g3
tp610
a(S'study'
p611
S'study'
p612
S'NN'
p613
S'I-NP'
p614
g3
tp615
a(S'group'
p616
S'group'
p617
S'NN'
p618
S'I-NP'
p619
g3
tp620
a(S'received'
p621
S'receive'
p622
S'VBD'
p623
S'B-VP'
p624
g3
tp625
a(S'an'
p626
S'an'
p627
S'DT'
p628
S'B-NP'
p629
g3
tp630
a(S'additional'
p631
S'additional'
p632
S'JJ'
p633
S'I-NP'
p634
g3
tp635
a(S'treatment'
p636
S'treatment'
p637
S'NN'
p638
S'I-NP'
p639
g3
tp640
a(S'with'
p641
S'with'
p642
S'IN'
p643
S'B-PP'
p644
g3
tp645
a(S'Esberitox'
p646
S'Esberitox'
p647
S'NN'
p648
S'B-NP'
p649
g3
tp650
a(g336
g336
g336
g3
g3
tp651
a(S'the'
p652
S'the'
p653
S'DT'
p654
S'B-NP'
p655
g3
tp656
a(S'control'
p657
S'control'
p658
S'NN'
p659
S'I-NP'
p660
g3
tp661
a(S'group'
p662
S'group'
p663
S'NN'
p664
S'I-NP'
p665
g3
tp666
a(S'did'
p667
S'do'
p668
S'VBD'
p669
S'B-VP'
p670
g3
tp671
a(S'not'
p672
S'not'
p673
S'RB'
p674
S'I-VP'
p675
g3
tp676
a(S'receive'
p677
S'receive'
p678
S'VB'
p679
S'I-VP'
p680
g3
tp681
a(S'an'
p682
S'an'
p683
S'DT'
p684
S'B-NP'
p685
g3
tp686
a(S'additional'
p687
S'additional'
p688
S'JJ'
p689
S'I-NP'
p690
g3
tp691
a(S'treatment.'
p692
S'treatment.'
p693
S'NN'
p694
S'I-NP'
p695
g3
tp696
a(S'3.'
p697
S'3.'
p698
S'CD'
p699
S'I-NP'
p700
g3
tp701
a(S'As'
p702
S'As'
p703
S'IN'
p704
S'B-PP'
p705
g3
tp706
a(g115
g115
S'DT'
p707
S'B-NP'
p708
g3
tp709
a(S'result'
p710
S'result'
p711
S'NN'
p712
S'I-NP'
p713
g3
tp714
a(g336
g336
g336
g3
g3
tp715
a(S'no'
p716
S'no'
p717
S'DT'
p718
S'B-NP'
p719
g3
tp720
a(S'protective'
p721
S'protective'
p722
S'JJ'
p723
S'I-NP'
p724
g3
tp725
a(S'influence'
p726
S'influence'
p727
S'NN'
p728
S'I-NP'
p729
g3
tp730
a(S'of'
p731
S'of'
p732
S'IN'
p733
S'B-PP'
p734
g3
tp735
a(S'Esberitox'
p736
S'Esberitox'
p737
S'NNP'
p738
S'B-NP'
p739
g3
tp740
a(S'could'
p741
S'could'
p742
S'MD'
p743
S'B-VP'
p744
g3
tp745
a(S'be'
p746
S'be'
p747
S'VB'
p748
S'I-VP'
p749
g3
tp750
a(S'demonstrated.'
p751
S'demonstrated.'
p752
S'VBN'
p753
S'I-VP'
p754
g3
tp755
a(S'The'
p756
S'The'
p757
S'DT'
p758
S'B-NP'
p759
g3
tp760
a(S'parameters'
p761
S'parameter'
p762
S'NNS'
p763
S'I-NP'
p764
g3
tp765
a(S'investigated'
p766
S'investigate'
p767
S'VBN'
p768
S'B-VP'
p769
g3
tp770
a(S'were'
p771
S'be'
p772
S'VBD'
p773
S'B-VP'
p774
g3
tp775
a(S'the'
p776
S'the'
p777
S'DT'
p778
S'B-NP'
p779
g3
tp780
a(S'peripheral'
p781
S'peripheral'
p782
S'JJ'
p783
S'I-NP'
p784
g3
tp785
a(S'blood'
p786
S'blood'
p787
S'NN'
p788
S'I-NP'
p789
g3
tp790
a(S'count'
p791
S'count'
p792
S'NN'
p793
S'I-NP'
p794
g3
tp795
a(g2
g2
g2
g3
g3
tp796
a(S'leucocytes'
p797
S'leucocyte'
p798
S'NNS'
p799
S'B-NP'
p800
S'B-cell_type'
p801
tp802
a(g336
g336
g336
g3
g3
tp803
a(S'granulocytes'
p804
S'granulocyte'
p805
S'NNS'
p806
S'B-NP'
p807
S'B-cell_type'
p808
tp809
a(g336
g336
g336
g3
g3
tp810
a(S'lymphocytes'
p811
S'lymphocyte'
p812
S'NNS'
p813
S'B-NP'
p814
S'B-cell_type'
p815
tp816
a(g336
g336
g336
g3
g3
tp817
a(S'monocytes'
p818
S'monocyte'
p819
S'NNS'
p820
S'B-NP'
p821
S'B-cell_type'
p822
tp823
a(g336
g336
g336
g3
g3
tp824
a(S'thrombocytes'
p825
S'thrombocyte'
p826
S'NNS'
p827
S'B-NP'
p828
S'B-cell_type'
p829
tp830
a(g336
g336
g336
g3
g3
tp831
a(S'hemoglobin'
p832
S'hemoglobin'
p833
S'NN'
p834
S'B-NP'
p835
S'B-protein'
p836
tp837
a(g336
g336
g336
g3
g3
tp838
a(S'hematocrit'
p839
S'hematocrit'
p840
S'NN'
p841
S'B-NP'
p842
g3
tp843
a(g76
g76
g76
g3
g3
tp844
a(S'and'
p845
S'and'
p846
S'CC'
p847
g3
g3
tp848
a(S'the'
p849
S'the'
p850
S'DT'
p851
S'B-NP'
p852
g3
tp853
a(S'incidence'
p854
S'incidence'
p855
S'NN'
p856
S'I-NP'
p857
g3
tp858
a(S'of'
p859
S'of'
p860
S'IN'
p861
S'B-PP'
p862
g3
tp863
a(S'infections.'
p864
S'infections.'
p865
S'NN'
p866
S'B-NP'
p867
g3
tp868
a(S'4.'
p869
S'4.'
p870
S'CD'
p871
S'I-NP'
p872
g3
tp873
a(S'This'
p874
S'This'
p875
S'DT'
p876
S'B-NP'
p877
g3
tp878
a(S'result'
p879
S'result'
p880
S'NN'
p881
S'I-NP'
p882
g3
tp883
a(S'diverging'
p884
S'diverge'
p885
S'VBG'
p886
S'B-VP'
p887
g3
tp888
a(S'from'
p889
S'from'
p890
S'IN'
p891
S'B-PP'
p892
g3
tp893
a(S'literature'
p894
S'literature'
p895
S'NN'
p896
S'B-NP'
p897
g3
tp898
a(S'is'
p899
S'be'
p900
S'VBZ'
p901
S'B-VP'
p902
g3
tp903
a(S'discussed.'
p904
S'discussed.'
p905
S'VBN'
p906
S'I-VP'
p907
g3
tp908
a(S'It'
p909
S'It'
p910
S'PRP'
p911
S'B-NP'
p912
g3
tp913
a(S'is'
p914
S'be'
p915
S'VBZ'
p916
S'B-VP'
p917
g3
tp918
a(S'probably'
p919
S'probably'
p920
S'RB'
p921
S'I-VP'
p922
g3
tp923
a(S'affected'
p924
S'affect'
p925
S'VBN'
p926
S'I-VP'
p927
g3
tp928
a(S'by'
p929
S'by'
p930
S'IN'
p931
S'B-PP'
p932
g3
tp933
a(S'volume'
p934
S'volume'
p935
S'NN'
p936
S'B-NP'
p937
g3
tp938
a(S'and'
p939
S'and'
p940
S'CC'
p941
S'I-NP'
p942
g3
tp943
a(S'extension'
p944
S'extension'
p945
S'NN'
p946
S'I-NP'
p947
g3
tp948
a(S'of'
p949
S'of'
p950
S'IN'
p951
S'B-PP'
p952
g3
tp953
a(S'the'
p954
S'the'
p955
S'DT'
p956
S'B-NP'
p957
g3
tp958
a(S'injury'
p959
S'injury'
p960
S'NN'
p961
S'I-NP'
p962
g3
tp963
a(S'induced'
p964
S'induce'
p965
S'VBN'
p966
S'B-VP'
p967
g3
tp968
a(S'by'
p969
S'by'
p970
S'IN'
p971
S'B-PP'
p972
g3
tp973
a(g115
g115
S'DT'
p974
S'B-NP'
p975
g3
tp976
a(S'hematotoxic'
p977
S'hematotoxic'
p978
S'JJ'
p979
S'I-NP'
p980
g3
tp981
a(S'noxa'
p982
S'noxa'
p983
S'NN'
p984
S'I-NP'
p985
g3
tp986
a(S'and'
p987
S'and'
p988
S'CC'
p989
g3
g3
tp990
a(S'furthermore'
p991
S'furthermore'
p992
S'RB'
p993
S'B-ADVP'
p994
g3
tp995
a(S'by'
p996
S'by'
p997
S'IN'
p998
S'B-PP'
p999
g3
tp1000
a(S'the'
p1001
S'the'
p1002
S'DT'
p1003
S'B-NP'
p1004
g3
tp1005
a(S'ability'
p1006
S'ability'
p1007
S'NN'
p1008
S'I-NP'
p1009
g3
tp1010
a(S'of'
p1011
S'of'
p1012
S'IN'
p1013
S'B-PP'
p1014
g3
tp1015
a(S'regeneration.'
p1016
S'regeneration.'
p1017
S'NN'
p1018
S'B-NP'
p1019
g3
tp1020
a(S'If'
p1021
S'If'
p1022
S'IN'
p1023
S'B-SBAR'
p1024
g3
tp1025
a(S'this'
p1026
S'this'
p1027
S'DT'
p1028
S'B-NP'
p1029
g3
tp1030
a(S'ability'
p1031
S'ability'
p1032
S'NN'
p1033
S'I-NP'
p1034
g3
tp1035
a(S'is'
p1036
S'be'
p1037
S'VBZ'
p1038
S'B-VP'
p1039
g3
tp1040
a(S'exhausted'
p1041
S'exhaust'
p1042
S'VBN'
p1043
S'I-VP'
p1044
g3
tp1045
a(g336
g336
g336
g3
g3
tp1046
a(S'the'
p1047
S'the'
p1048
S'DT'
p1049
S'B-NP'
p1050
g3
tp1051
a(S'protective'
p1052
S'protective'
p1053
S'JJ'
p1054
S'I-NP'
p1055
g3
tp1056
a(S'effect'
p1057
S'effect'
p1058
S'NN'
p1059
S'I-NP'
p1060
g3
tp1061
a(S'of'
p1062
S'of'
p1063
S'IN'
p1064
S'B-PP'
p1065
g3
tp1066
a(S'Esberitox'
p1067
S'Esberitox'
p1068
S'NN'
p1069
S'B-NP'
p1070
g3
tp1071
a(S'can'
p1072
S'can'
p1073
S'MD'
p1074
S'B-VP'
p1075
g3
tp1076
a(S'act'
p1077
S'act'
p1078
S'VB'
p1079
S'I-VP'
p1080
g3
tp1081
a(S'no'
p1082
S'no'
p1083
S'DT'
p1084
S'B-NP'
p1085
g3
tp1086
a(S'longer.'
p1087
S'longer.'
p1088
S'RB'
p1089
S'B-ADVP'
p1090
g3
tp1091
a(S'Therefore'
p1092
S'Therefore'
p1093
S'RB'
p1094
S'I-ADVP'
p1095
g3
tp1096
a(S'the'
p1097
S'the'
p1098
S'DT'
p1099
S'B-NP'
p1100
g3
tp1101
a(S'essential'
p1102
S'essential'
p1103
S'JJ'
p1104
S'I-NP'
p1105
S'B-protein'
p1106
tp1107
a(S'factor'
p1108
S'factor'
p1109
S'NN'
p1110
S'I-NP'
p1111
S'I-protein'
p1112
tp1113
a(S'seems'
p1114
S'seem'
p1115
S'VBZ'
p1116
S'B-VP'
p1117
g3
tp1118
a(S'to'
p1119
S'to'
p1120
S'TO'
p1121
S'I-VP'
p1122
g3
tp1123
a(S'be'
p1124
S'be'
p1125
S'VB'
p1126
S'I-VP'
p1127
g3
tp1128
a(S'the'
p1129
S'the'
p1130
S'DT'
p1131
S'B-NP'
p1132
g3
tp1133
a(S'duration'
p1134
S'duration'
p1135
S'NN'
p1136
S'I-NP'
p1137
g3
tp1138
a(S'of'
p1139
S'of'
p1140
S'IN'
p1141
S'B-PP'
p1142
g3
tp1143
a(S'exposure'
p1144
S'exposure'
p1145
S'NN'
p1146
S'B-NP'
p1147
g3
tp1148
a(S'to'
p1149
S'to'
p1150
S'TO'
p1151
S'B-PP'
p1152
g3
tp1153
a(S'the'
p1154
S'the'
p1155
S'DT'
p1156
S'B-NP'
p1157
g3
tp1158
a(S'noxa.'
p1159
S'noxa.'
p1160
S'NN'
p1161
S'I-NP'
p1162
g3
tp1163
a(S'Esberitox'
p1164
S'Esberitox'
p1165
S'NN'
p1166
S'I-NP'
p1167
g3
tp1168
a(S'was'
p1169
S'be'
p1170
S'VBD'
p1171
S'B-VP'
p1172
g3
tp1173
a(S'effective'
p1174
S'effective'
p1175
S'JJ'
p1176
S'B-ADJP'
p1177
g3
tp1178
a(S'in'
p1179
S'in'
p1180
S'IN'
p1181
S'B-PP'
p1182
g3
tp1183
a(S'case'
p1184
S'case'
p1185
S'NN'
p1186
S'B-NP'
p1187
g3
tp1188
a(S'of'
p1189
S'of'
p1190
S'IN'
p1191
S'B-PP'
p1192
g3
tp1193
a(g115
g115
S'DT'
p1194
S'B-NP'
p1195
g3
tp1196
a(S'short'
p1197
S'short'
p1198
S'JJ'
p1199
S'I-NP'
p1200
g3
tp1201
a(S'toxicity'
p1202
S'toxicity'
p1203
S'NN'
p1204
S'I-NP'
p1205
g3
tp1206
a(g336
g336
g336
g3
g3
tp1207
a(S'it'
p1208
S'it'
p1209
S'PRP'
p1210
S'B-NP'
p1211
g3
tp1212
a(S'was'
p1213
S'be'
p1214
S'VBD'
p1215
S'B-VP'
p1216
g3
tp1217
a(S'ineffective'
p1218
S'ineffective'
p1219
S'JJ'
p1220
S'B-ADJP'
p1221
g3
tp1222
a(S'in'
p1223
S'in'
p1224
S'IN'
p1225
S'B-PP'
p1226
g3
tp1227
a(S'case'
p1228
S'case'
p1229
S'NN'
p1230
S'B-NP'
p1231
g3
tp1232
a(S'of'
p1233
S'of'
p1234
S'IN'
p1235
S'B-PP'
p1236
g3
tp1237
a(S'prolonged'
p1238
S'prolonged'
p1239
S'JJ'
p1240
S'B-NP'
p1241
g3
tp1242
a(S'toxicity'
p1243
S'toxicity'
p1244
S'NN'
p1245
S'I-NP'
p1246
g3
tp1247
a(g336
g336
g336
g3
g3
tp1248
a(S'if'
p1249
S'if'
p1250
S'IN'
p1251
S'B-SBAR'
p1252
g3
tp1253
a(S'the'
p1254
S'the'
p1255
S'DT'
p1256
S'B-NP'
p1257
g3
tp1258
a(S'treatment'
p1259
S'treatment'
p1260
S'NN'
p1261
S'I-NP'
p1262
g3
tp1263
a(S'continuity'
p1264
S'continuity'
p1265
S'NN'
p1266
S'I-NP'
p1267
g3
tp1268
a(g2
g2
g2
g3
g3
tp1269
a(S'noxa'
p1270
S'noxa'
p1271
S'NN'
p1272
S'B-NP'
p1273
g3
tp1274
a(g76
g76
g76
g3
g3
tp1275
a(S'was'
p1276
S'be'
p1277
S'VBD'
p1278
S'B-VP'
p1279
g3
tp1280
a(S'not'
p1281
S'not'
p1282
S'RB'
p1283
S'I-VP'
p1284
g3
tp1285
a(S'broken'
p1286
S'break'
p1287
S'VBN'
p1288
S'I-VP'
p1289
g3
tp1290
a(S'up'
p1291
S'up'
p1292
S'RP'
p1293
S'B-PRT'
p1294
g3
tp1295
a(S'by'
p1296
S'by'
p1297
S'IN'
p1298
S'B-PP'
p1299
g3
tp1300
a(S'some'
p1301
S'some'
p1302
S'DT'
p1303
S'B-NP'
p1304
g3
tp1305
a(S'regeneration'
p1306
S'regeneration'
p1307
S'NN'
p1308
S'I-NP'
p1309
g3
tp1310
a(S'intervals.'
p1311
S'intervals.'
p1312
S'NN'
p1313
S'I-NP'
p1314
g3
tp1315
a(S'The'
p1316
S'The'
p1317
S'DT'
p1318
S'B-NP'
p1319
g3
tp1320
a(S'radiotherapy'
p1321
S'radiotherapy'
p1322
S'NN'
p1323
S'I-NP'
p1324
g3
tp1325
a(S'studied'
p1326
S'study'
p1327
S'VBN'
p1328
S'B-VP'
p1329
g3
tp1330
a(S'in'
p1331
S'in'
p1332
S'IN'
p1333
S'B-PP'
p1334
g3
tp1335
a(S'this'
p1336
S'this'
p1337
S'DT'
p1338
S'B-NP'
p1339
g3
tp1340
a(S'trial'
p1341
S'trial'
p1342
S'NN'
p1343
S'I-NP'
p1344
g3
tp1345
a(S'had'
p1346
S'have'
p1347
S'VBD'
p1348
S'B-VP'
p1349
g3
tp1350
a(g115
g115
S'DT'
p1351
S'B-NP'
p1352
g3
tp1353
a(S'duration'
p1354
S'duration'
p1355
S'NN'
p1356
S'I-NP'
p1357
g3
tp1358
a(S'of'
p1359
S'of'
p1360
S'IN'
p1361
S'B-PP'
p1362
g3
tp1363
a(S'50'
p1364
S'50'
p1365
S'CD'
p1366
S'B-NP'
p1367
g3
tp1368
a(S'days'
p1369
S'day'
p1370
S'NNS'
p1371
S'I-NP'
p1372
g3
tp1373
a(g336
g336
g336
g3
g3
tp1374
a(S'and'
p1375
S'and'
p1376
S'CC'
p1377
g3
g3
tp1378
a(S'its'
p1379
S'its'
p1380
S'PRP$'
p1381
S'B-NP'
p1382
g3
tp1383
a(S'effect'
p1384
S'effect'
p1385
S'NN'
p1386
S'I-NP'
p1387
g3
tp1388
a(S'was'
p1389
S'be'
p1390
S'VBD'
p1391
S'B-VP'
p1392
g3
tp1393
a(S'that'
p1394
S'that'
p1395
S'DT'
p1396
S'B-NP'
p1397
g3
tp1398
a(S'of'
p1399
S'of'
p1400
S'IN'
p1401
S'B-PP'
p1402
g3
tp1403
a(g115
g115
S'DT'
p1404
S'B-NP'
p1405
g3
tp1406
a(S'longterm'
p1407
S'longterm'
p1408
S'JJ'
p1409
S'I-NP'
p1410
g3
tp1411
a(S'injury'
p1412
S'injury'
p1413
S'NN'
p1414
S'I-NP'
p1415
g3
tp1416
a(g78
g78
g78
g3
g3
tp1417
a.