(lp0
(S'Financial'
p1
S'Financial'
p2
S'JJ'
p3
S'B-NP'
p4
S'O'
p5
tp6
a(S'and'
p7
S'and'
p8
S'CC'
p9
S'I-NP'
p10
g5
tp11
a(S'quality-of-life'
p12
S'quality-of-life'
p13
S'JJ'
p14
S'I-NP'
p15
g5
tp16
a(S'burden'
p17
S'burden'
p18
S'NN'
p19
S'I-NP'
p20
g5
tp21
a(S'of'
p22
S'of'
p23
S'IN'
p24
S'B-PP'
p25
g5
tp26
a(S'dysfunctional'
p27
S'dysfunctional'
p28
S'JJ'
p29
S'B-NP'
p30
g5
tp31
a(S'uterine'
p32
S'uterine'
p33
S'JJ'
p34
S'I-NP'
p35
g5
tp36
a(S'bleeding'
p37
S'bleeding'
p38
S'NN'
p39
S'I-NP'
p40
g5
tp41
a(S'among'
p42
S'among'
p43
S'IN'
p44
S'B-PP'
p45
g5
tp46
a(S'women'
p47
S'woman'
p48
S'NNS'
p49
S'B-NP'
p50
g5
tp51
a(S'agreeing'
p52
S'agree'
p53
S'VBG'
p54
S'B-VP'
p55
g5
tp56
a(S'to'
p57
S'to'
p58
S'TO'
p59
S'B-VP'
p60
g5
tp61
a(S'obtain'
p62
S'obtain'
p63
S'VB'
p64
S'I-VP'
p65
g5
tp66
a(S'surgical'
p67
S'surgical'
p68
S'JJ'
p69
S'B-NP'
p70
g5
tp71
a(S'treatment'
p72
S'treatment'
p73
S'NN'
p74
S'I-NP'
p75
g5
tp76
a(S'.'
p77
g77
g77
g5
g5
tp78
a(S'PURPOSE'
p79
S'PURPOSE'
p80
S'NN'
p81
S'B-NP'
p82
g5
tp83
a(S'In'
p84
S'In'
p85
S'IN'
p86
S'B-PP'
p87
g5
tp88
a(S'this'
p89
S'this'
p90
S'DT'
p91
S'B-NP'
p92
g5
tp93
a(S'study'
p94
S'study'
p95
S'NN'
p96
S'I-NP'
p97
g5
tp98
a(S','
p99
g99
g99
g5
g5
tp100
a(S'we'
p101
S'we'
p102
S'PRP'
p103
S'B-NP'
p104
g5
tp105
a(S'sought'
p106
S'seek'
p107
S'VBD'
p108
S'B-VP'
p109
g5
tp110
a(S'to'
p111
S'to'
p112
S'TO'
p113
S'B-PP'
p114
g5
tp115
a(S'1'
p116
g116
S'CD'
p117
S'B-NP'
p118
g5
tp119
a(S')'
p120
g120
g120
g5
g5
tp121
a(S'describe'
p122
S'describe'
p123
S'VBP'
p124
S'B-VP'
p125
g5
tp126
a(S'elements'
p127
S'element'
p128
S'NNS'
p129
S'B-NP'
p130
g5
tp131
a(S'of'
p132
S'of'
p133
S'IN'
p134
S'B-PP'
p135
g5
tp136
a(S'the'
p137
S'the'
p138
S'DT'
p139
S'B-NP'
p140
g5
tp141
a(S'financial'
p142
S'financial'
p143
S'JJ'
p144
S'I-NP'
p145
g5
tp146
a(S'and'
p147
S'and'
p148
S'CC'
p149
S'I-NP'
p150
g5
tp151
a(S'quality-of-life'
p152
S'quality-of-life'
p153
S'JJ'
p154
S'I-NP'
p155
g5
tp156
a(S'burden'
p157
S'burden'
p158
S'NN'
p159
S'I-NP'
p160
g5
tp161
a(S'of'
p162
S'of'
p163
S'IN'
p164
S'B-PP'
p165
g5
tp166
a(S'dysfunctional'
p167
S'dysfunctional'
p168
S'JJ'
p169
S'B-NP'
p170
g5
tp171
a(S'uterine'
p172
S'uterine'
p173
S'JJ'
p174
S'I-NP'
p175
g5
tp176
a(S'bleeding'
p177
S'bleeding'
p178
S'NN'
p179
S'I-NP'
p180
g5
tp181
a(S'('
p182
g182
g182
g5
g5
tp183
a(S'DUB'
p184
S'DUB'
p185
S'NN'
p186
S'B-NP'
p187
S'B-protein'
p188
tp189
a(g120
g120
g120
g5
g5
tp190
a(S'from'
p191
S'from'
p192
S'IN'
p193
S'B-PP'
p194
g5
tp195
a(S'the'
p196
S'the'
p197
S'DT'
p198
S'B-NP'
p199
g5
tp200
a(S'perspective'
p201
S'perspective'
p202
S'NN'
p203
S'I-NP'
p204
g5
tp205
a(S'of'
p206
S'of'
p207
S'IN'
p208
S'B-PP'
p209
g5
tp210
a(S'women'
p211
S'woman'
p212
S'NNS'
p213
S'B-NP'
p214
g5
tp215
a(S'who'
p216
S'who'
p217
S'WP'
p218
S'B-NP'
p219
g5
tp220
a(S'agreed'
p221
S'agree'
p222
S'VBD'
p223
S'B-VP'
p224
g5
tp225
a(S'to'
p226
S'to'
p227
S'TO'
p228
S'I-VP'
p229
g5
tp230
a(S'obtain'
p231
S'obtain'
p232
S'VB'
p233
S'I-VP'
p234
g5
tp235
a(S'surgical'
p236
S'surgical'
p237
S'JJ'
p238
S'B-NP'
p239
g5
tp240
a(S'treatment'
p241
S'treatment'
p242
S'NN'
p243
S'I-NP'
p244
g5
tp245
a(S';'
p246
g246
S':'
p247
g5
g5
tp248
a(S'2'
p249
g249
S'LS'
p250
S'B-LST'
p251
g5
tp252
a(g120
g120
g120
g5
g5
tp253
a(S'explore'
p254
S'explore'
p255
S'VB'
p256
S'B-VP'
p257
g5
tp258
a(S'associations'
p259
S'association'
p260
S'NNS'
p261
S'B-NP'
p262
g5
tp263
a(S'between'
p264
S'between'
p265
S'IN'
p266
S'B-PP'
p267
g5
tp268
a(S'DUB'
p269
S'DUB'
p270
S'NN'
p271
S'B-NP'
p272
g5
tp273
a(S'symptom'
p274
S'symptom'
p275
S'NN'
p276
S'I-NP'
p277
g5
tp278
a(S'characteristics'
p279
S'characteristic'
p280
S'NNS'
p281
S'I-NP'
p282
g5
tp283
a(S'and'
p284
S'and'
p285
S'CC'
p286
g5
g5
tp287
a(S'the'
p288
S'the'
p289
S'DT'
p290
S'B-NP'
p291
g5
tp292
a(S'financial'
p293
S'financial'
p294
S'JJ'
p295
S'I-NP'
p296
g5
tp297
a(S'and'
p298
S'and'
p299
S'CC'
p300
S'I-NP'
p301
g5
tp302
a(S'quality-of-life'
p303
S'quality-of-life'
p304
S'JJ'
p305
S'I-NP'
p306
g5
tp307
a(S'burden'
p308
S'burden'
p309
S'NN'
p310
S'I-NP'
p311
g5
tp312
a(g246
g246
g247
g5
g5
tp313
a(S'3'
p314
g314
S'LS'
p315
S'B-LST'
p316
g5
tp317
a(g120
g120
g120
g5
g5
tp318
a(S'estimate'
p319
S'estimate'
p320
S'VB'
p321
S'B-VP'
p322
g5
tp323
a(S'the'
p324
S'the'
p325
S'DT'
p326
S'B-NP'
p327
g5
tp328
a(S'annual'
p329
S'annual'
p330
S'JJ'
p331
S'I-NP'
p332
g5
tp333
a(S'dollar'
p334
S'dollar'
p335
S'NN'
p336
S'I-NP'
p337
g5
tp338
a(S'value'
p339
S'value'
p340
S'NN'
p341
S'I-NP'
p342
g5
tp343
a(S'of'
p344
S'of'
p345
S'IN'
p346
S'B-PP'
p347
g5
tp348
a(S'the'
p349
S'the'
p350
S'DT'
p351
S'B-NP'
p352
g5
tp353
a(S'financial'
p354
S'financial'
p355
S'JJ'
p356
S'I-NP'
p357
g5
tp358
a(S'burden'
p359
S'burden'
p360
S'NN'
p361
S'I-NP'
p362
g5
tp363
a(g246
g246
g247
g5
g5
tp364
a(S'and'
p365
S'and'
p366
S'CC'
p367
g5
g5
tp368
a(S'4'
p369
g369
S'CD'
p370
S'B-NP'
p371
g5
tp372
a(g120
g120
g120
g5
g5
tp373
a(S'estimate'
p374
S'estimate'
p375
S'VBP'
p376
S'B-VP'
p377
g5
tp378
a(S'the'
p379
S'the'
p380
S'DT'
p381
S'B-NP'
p382
g5
tp383
a(S'most'
p384
S'most'
p385
S'JJS'
p386
S'I-NP'
p387
g5
tp388
a(S'that'
p389
S'that'
p390
S'WDT'
p391
S'B-NP'
p392
g5
tp393
a(S'could'
p394
S'could'
p395
S'MD'
p396
S'B-VP'
p397
g5
tp398
a(S'be'
p399
S'be'
p400
S'VB'
p401
S'I-VP'
p402
g5
tp403
a(S'spent'
p404
S'spend'
p405
S'VBN'
p406
S'I-VP'
p407
g5
tp408
a(S'on'
p409
S'on'
p410
S'IN'
p411
S'B-PP'
p412
g5
tp413
a(S'surgery'
p414
S'surgery'
p415
S'NN'
p416
S'B-NP'
p417
g5
tp418
a(S'to'
p419
S'to'
p420
S'TO'
p421
S'B-VP'
p422
g5
tp423
a(S'eliminate'
p424
S'eliminate'
p425
S'VB'
p426
S'I-VP'
p427
g5
tp428
a(S'DUB'
p429
S'DUB'
p430
S'NN'
p431
S'B-NP'
p432
g5
tp433
a(S'symptoms'
p434
S'symptom'
p435
S'NNS'
p436
S'I-NP'
p437
g5
tp438
a(S'for'
p439
S'for'
p440
S'IN'
p441
S'B-PP'
p442
g5
tp443
a(S'which'
p444
S'which'
p445
S'WDT'
p446
S'B-NP'
p447
g5
tp448
a(S'medical'
p449
S'medical'
p450
S'JJ'
p451
S'B-NP'
p452
g5
tp453
a(S'treatment'
p454
S'treatment'
p455
S'NN'
p456
S'I-NP'
p457
g5
tp458
a(S'has'
p459
S'have'
p460
S'VBZ'
p461
S'B-VP'
p462
g5
tp463
a(S'been'
p464
S'be'
p465
S'VBN'
p466
S'I-VP'
p467
g5
tp468
a(S'unsuccessful'
p469
S'unsuccessful'
p470
S'JJ'
p471
S'B-ADJP'
p472
g5
tp473
a(S'that'
p474
S'that'
p475
S'WDT'
p476
S'B-NP'
p477
g5
tp478
a(S'would'
p479
S'would'
p480
S'MD'
p481
S'B-VP'
p482
g5
tp483
a(S'result'
p484
S'result'
p485
S'VB'
p486
S'I-VP'
p487
g5
tp488
a(S'in'
p489
S'in'
p490
S'IN'
p491
S'B-PP'
p492
g5
tp493
a(S'a'
p494
g494
S'DT'
p495
S'B-NP'
p496
g5
tp497
a(S'$'
p498
g498
g498
S'I-NP'
p499
g5
tp500
a(S'50'
p501
S'50'
p502
S'CD'
p503
S'I-NP'
p504
g5
tp505
a(g99
g99
g99
g5
g5
tp506
a(S'000/quality-adjusted'
p507
S'000/quality-adjusted'
p508
S'JJ'
p509
S'B-NP'
p510
g5
tp511
a(S'life-year'
p512
S'life-year'
p513
S'JJ'
p514
S'I-NP'
p515
g5
tp516
a(S'incremental'
p517
S'incremental'
p518
S'JJ'
p519
S'I-NP'
p520
g5
tp521
a(S'cost-effectiveness'
p522
S'cost-effectiveness'
p523
S'NN'
p524
S'I-NP'
p525
g5
tp526
a(S'ratio'
p527
S'ratio'
p528
S'NN'
p529
S'I-NP'
p530
g5
tp531
a(g77
g77
g77
g5
g5
tp532
a(S'METHODS'
p533
S'METHODS'
p534
S'NNS'
p535
S'B-NP'
p536
g5
tp537
a(S'We'
p538
S'We'
p539
S'PRP'
p540
S'B-NP'
p541
g5
tp542
a(S'collected'
p543
S'collect'
p544
S'VBD'
p545
S'B-VP'
p546
g5
tp547
a(S'baseline'
p548
S'baseline'
p549
S'NN'
p550
S'B-NP'
p551
g5
tp552
a(S'data'
p553
S'datum'
p554
S'NNS'
p555
S'I-NP'
p556
g5
tp557
a(S'on'
p558
S'on'
p559
S'IN'
p560
S'B-PP'
p561
g5
tp562
a(S'DUB'
p563
S'DUB'
p564
S'NN'
p565
S'B-NP'
p566
g5
tp567
a(S'symptoms'
p568
S'symptom'
p569
S'NNS'
p570
S'I-NP'
p571
g5
tp572
a(S'and'
p573
S'and'
p574
S'CC'
p575
S'I-NP'
p576
g5
tp577
a(S'aspects'
p578
S'aspect'
p579
S'NNS'
p580
S'I-NP'
p581
g5
tp582
a(S'of'
p583
S'of'
p584
S'IN'
p585
S'B-PP'
p586
g5
tp587
a(S'the'
p588
S'the'
p589
S'DT'
p590
S'B-NP'
p591
g5
tp592
a(S'financial'
p593
S'financial'
p594
S'JJ'
p595
S'I-NP'
p596
g5
tp597
a(S'and'
p598
S'and'
p599
S'CC'
p600
S'I-NP'
p601
g5
tp602
a(S'quality-of-life'
p603
S'quality-of-life'
p604
S'JJ'
p605
S'I-NP'
p606
g5
tp607
a(S'burden'
p608
S'burden'
p609
S'NN'
p610
S'I-NP'
p611
g5
tp612
a(S'for'
p613
S'for'
p614
S'IN'
p615
S'B-PP'
p616
g5
tp617
a(S'237'
p618
S'237'
p619
S'CD'
p620
S'B-NP'
p621
g5
tp622
a(S'women'
p623
S'woman'
p624
S'NNS'
p625
S'I-NP'
p626
g5
tp627
a(S'agreeing'
p628
S'agree'
p629
S'VBG'
p630
S'B-VP'
p631
g5
tp632
a(S'to'
p633
S'to'
p634
S'TO'
p635
S'B-PP'
p636
g5
tp637
a(S'surgery'
p638
S'surgery'
p639
S'NN'
p640
S'B-NP'
p641
g5
tp642
a(S'for'
p643
S'for'
p644
S'IN'
p645
S'B-PP'
p646
g5
tp647
a(S'DUB'
p648
S'DUB'
p649
S'NN'
p650
S'B-NP'
p651
S'B-protein'
p652
tp653
a(S'in'
p654
S'in'
p655
S'IN'
p656
S'B-PP'
p657
g5
tp658
a(g494
g494
S'DT'
p659
S'B-NP'
p660
g5
tp661
a(S'randomized'
p662
S'randomize'
p663
S'VBN'
p664
S'I-NP'
p665
g5
tp666
a(S'trial'
p667
S'trial'
p668
S'NN'
p669
S'I-NP'
p670
g5
tp671
a(S'comparing'
p672
S'compare'
p673
S'VBG'
p674
S'I-NP'
p675
g5
tp676
a(S'hysterectomy'
p677
S'hysterectomy'
p678
S'NN'
p679
S'I-NP'
p680
g5
tp681
a(S'with'
p682
S'with'
p683
S'IN'
p684
S'B-PP'
p685
g5
tp686
a(S'endometrial'
p687
S'endometrial'
p688
S'JJ'
p689
S'B-NP'
p690
g5
tp691
a(S'ablation.'
p692
S'ablation.'
p693
S'NN'
p694
S'I-NP'
p695
g5
tp696
a(S'Measures'
p697
S'Measure'
p698
S'NNS'
p699
S'I-NP'
p700
g5
tp701
a(S'included'
p702
S'include'
p703
S'VBD'
p704
S'B-VP'
p705
g5
tp706
a(S'out-of-pocket'
p707
S'out-of-pocket'
p708
S'JJ'
p709
S'B-NP'
p710
g5
tp711
a(S'pharmaceutical'
p712
S'pharmaceutical'
p713
S'JJ'
p714
S'I-NP'
p715
g5
tp716
a(S'expenditures'
p717
S'expenditure'
p718
S'NNS'
p719
S'I-NP'
p720
g5
tp721
a(g99
g99
g99
g5
g5
tp722
a(S'excess'
p723
S'excess'
p724
S'JJ'
p725
S'B-NP'
p726
g5
tp727
a(S'expenditures'
p728
S'expenditure'
p729
S'NNS'
p730
S'I-NP'
p731
g5
tp732
a(S'on'
p733
S'on'
p734
S'IN'
p735
S'B-PP'
p736
g5
tp737
a(S'pads'
p738
S'pad'
p739
S'NNS'
p740
S'B-NP'
p741
g5
tp742
a(S'or'
p743
S'or'
p744
S'CC'
p745
S'I-NP'
p746
g5
tp747
a(S'tampons'
p748
S'tampon'
p749
S'NNS'
p750
S'I-NP'
p751
g5
tp752
a(g99
g99
g99
g5
g5
tp753
a(S'the'
p754
S'the'
p755
S'DT'
p756
S'B-NP'
p757
g5
tp758
a(S'value'
p759
S'value'
p760
S'NN'
p761
S'I-NP'
p762
g5
tp763
a(S'of'
p764
S'of'
p765
S'IN'
p766
S'B-PP'
p767
g5
tp768
a(S'time'
p769
S'time'
p770
S'NN'
p771
S'B-NP'
p772
g5
tp773
a(S'missed'
p774
S'miss'
p775
S'VBN'
p776
S'B-VP'
p777
g5
tp778
a(S'from'
p779
S'from'
p780
S'IN'
p781
S'B-PP'
p782
g5
tp783
a(S'paid'
p784
S'pay'
p785
S'VBN'
p786
S'B-NP'
p787
g5
tp788
a(S'work'
p789
S'work'
p790
S'NN'
p791
S'I-NP'
p792
g5
tp793
a(S'and'
p794
S'and'
p795
S'CC'
p796
S'I-NP'
p797
g5
tp798
a(S'home'
p799
S'home'
p800
S'NN'
p801
S'I-NP'
p802
g5
tp803
a(S'management'
p804
S'management'
p805
S'NN'
p806
S'I-NP'
p807
g5
tp808
a(S'activities'
p809
S'activity'
p810
S'NNS'
p811
S'I-NP'
p812
g5
tp813
a(g99
g99
g99
g5
g5
tp814
a(S'and'
p815
S'and'
p816
S'CC'
p817
g5
g5
tp818
a(S'health'
p819
S'health'
p820
S'NN'
p821
S'B-NP'
p822
g5
tp823
a(S'utility.'
p824
S'utility.'
p825
S'NN'
p826
S'I-NP'
p827
g5
tp828
a(S'We'
p829
S'We'
p830
S'PRP'
p831
S'B-NP'
p832
g5
tp833
a(S'used'
p834
S'use'
p835
S'VBD'
p836
S'B-VP'
p837
g5
tp838
a(S'chi2'
p839
S'chi2'
p840
S'NN'
p841
S'B-NP'
p842
g5
tp843
a(S'and'
p844
S'and'
p845
S'CC'
p846
S'I-NP'
p847
g5
tp848
a(S't'
p849
g849
S'NN'
p850
S'I-NP'
p851
g5
tp852
a(S'tests'
p853
S'test'
p854
S'NNS'
p855
S'I-NP'
p856
g5
tp857
a(S'to'
p858
S'to'
p859
S'TO'
p860
S'B-VP'
p861
g5
tp862
a(S'assess'
p863
S'assess'
p864
S'VB'
p865
S'I-VP'
p866
g5
tp867
a(S'the'
p868
S'the'
p869
S'DT'
p870
S'B-NP'
p871
g5
tp872
a(S'statistical'
p873
S'statistical'
p874
S'JJ'
p875
S'I-NP'
p876
g5
tp877
a(S'significance'
p878
S'significance'
p879
S'NN'
p880
S'I-NP'
p881
g5
tp882
a(S'of'
p883
S'of'
p884
S'IN'
p885
S'B-PP'
p886
g5
tp887
a(S'associations'
p888
S'association'
p889
S'NNS'
p890
S'B-NP'
p891
g5
tp892
a(S'between'
p893
S'between'
p894
S'IN'
p895
S'B-PP'
p896
g5
tp897
a(S'DUB'
p898
S'DUB'
p899
S'NN'
p900
S'B-NP'
p901
g5
tp902
a(S'characteristics'
p903
S'characteristic'
p904
S'NNS'
p905
S'I-NP'
p906
g5
tp907
a(S'and'
p908
S'and'
p909
S'CC'
p910
g5
g5
tp911
a(S'the'
p912
S'the'
p913
S'DT'
p914
S'B-NP'
p915
g5
tp916
a(S'financial'
p917
S'financial'
p918
S'JJ'
p919
S'I-NP'
p920
g5
tp921
a(S'and'
p922
S'and'
p923
S'CC'
p924
S'I-NP'
p925
g5
tp926
a(S'quality-of-life'
p927
S'quality-of-life'
p928
S'JJ'
p929
S'I-NP'
p930
g5
tp931
a(S'burden.'
p932
S'burden.'
p933
S'NN'
p934
S'I-NP'
p935
g5
tp936
a(S'The'
p937
S'The'
p938
S'DT'
p939
S'B-NP'
p940
g5
tp941
a(S'annual'
p942
S'annual'
p943
S'JJ'
p944
S'I-NP'
p945
g5
tp946
a(S'financial'
p947
S'financial'
p948
S'JJ'
p949
S'I-NP'
p950
g5
tp951
a(S'burden'
p952
S'burden'
p953
S'NN'
p954
S'I-NP'
p955
g5
tp956
a(S'was'
p957
S'be'
p958
S'VBD'
p959
S'B-VP'
p960
g5
tp961
a(S'estimated'
p962
S'estimate'
p963
S'VBN'
p964
S'I-VP'
p965
g5
tp966
a(g77
g77
g77
g5
g5
tp967
a(S'RESULTS'
p968
S'RESULTS'
p969
S'NNS'
p970
S'B-NP'
p971
g5
tp972
a(S'Pelvic'
p973
S'Pelvic'
p974
S'JJ'
p975
S'I-NP'
p976
g5
tp977
a(S'pain'
p978
S'pain'
p979
S'NN'
p980
S'I-NP'
p981
g5
tp982
a(S'and'
p983
S'and'
p984
S'CC'
p985
S'I-NP'
p986
g5
tp987
a(S'cramps'
p988
S'cramp'
p989
S'NNS'
p990
S'I-NP'
p991
g5
tp992
a(S'were'
p993
S'be'
p994
S'VBD'
p995
S'B-VP'
p996
g5
tp997
a(S'associated'
p998
S'associate'
p999
S'VBN'
p1000
S'I-VP'
p1001
g5
tp1002
a(S'with'
p1003
S'with'
p1004
S'IN'
p1005
S'B-PP'
p1006
g5
tp1007
a(S'activity'
p1008
S'activity'
p1009
S'NN'
p1010
S'B-NP'
p1011
g5
tp1012
a(S'limitations'
p1013
S'limitation'
p1014
S'NNS'
p1015
S'I-NP'
p1016
g5
tp1017
a(S'and'
p1018
S'and'
p1019
S'CC'
p1020
g5
g5
tp1021
a(S'tiredness'
p1022
S'tiredness'
p1023
S'NN'
p1024
S'B-NP'
p1025
g5
tp1026
a(S'was'
p1027
S'be'
p1028
S'VBD'
p1029
S'B-VP'
p1030
g5
tp1031
a(S'associated'
p1032
S'associate'
p1033
S'VBN'
p1034
S'I-VP'
p1035
g5
tp1036
a(S'with'
p1037
S'with'
p1038
S'IN'
p1039
S'B-PP'
p1040
g5
tp1041
a(g494
g494
S'DT'
p1042
S'B-NP'
p1043
g5
tp1044
a(S'lower'
p1045
S'low'
p1046
S'JJR'
p1047
S'I-NP'
p1048
g5
tp1049
a(S'health'
p1050
S'health'
p1051
S'NN'
p1052
S'I-NP'
p1053
g5
tp1054
a(S'utility.'
p1055
S'utility.'
p1056
S'NN'
p1057
S'I-NP'
p1058
g5
tp1059
a(S'Excess'
p1060
S'Excess'
p1061
S'NNP'
p1062
S'I-NP'
p1063
g5
tp1064
a(S'pharmaceutical'
p1065
S'pharmaceutical'
p1066
S'JJ'
p1067
S'I-NP'
p1068
g5
tp1069
a(S'and'
p1070
S'and'
p1071
S'CC'
p1072
S'I-NP'
p1073
g5
tp1074
a(S'pad'
p1075
S'pad'
p1076
S'NN'
p1077
S'I-NP'
p1078
g5
tp1079
a(S'and'
p1080
S'and'
p1081
S'CC'
p1082
S'I-NP'
p1083
g5
tp1084
a(S'tampon'
p1085
S'tampon'
p1086
S'NN'
p1087
S'I-NP'
p1088
g5
tp1089
a(S'costs'
p1090
S'cost'
p1091
S'NNS'
p1092
S'I-NP'
p1093
g5
tp1094
a(S'were'
p1095
S'be'
p1096
S'VBD'
p1097
S'B-VP'
p1098
g5
tp1099
a(g498
g498
g498
S'B-NP'
p1100
g5
tp1101
a(S'333'
p1102
S'333'
p1103
S'CD'
p1104
S'I-NP'
p1105
g5
tp1106
a(S'per'
p1107
S'per'
p1108
S'IN'
p1109
S'B-PP'
p1110
g5
tp1111
a(S'patient'
p1112
S'patient'
p1113
S'NN'
p1114
S'B-NP'
p1115
g5
tp1116
a(S'per'
p1117
S'per'
p1118
S'IN'
p1119
S'B-PP'
p1120
g5
tp1121
a(S'year'
p1122
S'year'
p1123
S'NN'
p1124
S'B-NP'
p1125
g5
tp1126
a(g182
g182
g182
g5
g5
tp1127
a(S'95'
p1128
S'95'
p1129
S'CD'
p1130
S'B-NP'
p1131
g5
tp1132
a(S'%'
p1133
g1133
S'NN'
p1134
S'I-NP'
p1135
g5
tp1136
a(S'confidence'
p1137
S'confidence'
p1138
S'NN'
p1139
S'I-NP'
p1140
g5
tp1141
a(S'interval'
p1142
S'interval'
p1143
S'NN'
p1144
S'I-NP'
p1145
g5
tp1146
a(S'['
p1147
g1147
g182
g5
g5
tp1148
a(S'CI'
p1149
S'CI'
p1150
S'NN'
p1151
S'B-NP'
p1152
g5
tp1153
a(S']'
p1154
g1154
g120
g5
g5
tp1155
a(g99
g99
g99
g5
g5
tp1156
a(g498
g498
g498
S'B-NP'
p1157
S'B-protein'
p1158
tp1159
a(S'263-'
p1160
S'263-'
p1161
S'CD'
p1162
S'I-NP'
p1163
S'I-protein'
p1164
tp1165
a(g498
g498
g498
S'B-NP'
p1166
S'I-protein'
p1167
tp1168
a(S'403'
p1169
S'403'
p1170
S'CD'
p1171
S'I-NP'
p1172
S'I-protein'
p1173
tp1174
a(g120
g120
g120
g5
g5
tp1175
a(g77
g77
g77
g5
g5
tp1176
a(S'Excess'
p1177
S'Excess'
p1178
S'NNP'
p1179
S'B-NP'
p1180
g5
tp1181
a(S'paid'
p1182
S'pay'
p1183
S'VBD'
p1184
S'B-VP'
p1185
g5
tp1186
a(S'work'
p1187
S'work'
p1188
S'NN'
p1189
S'B-NP'
p1190
g5
tp1191
a(S'and'
p1192
S'and'
p1193
S'CC'
p1194
S'I-NP'
p1195
g5
tp1196
a(S'home'
p1197
S'home'
p1198
S'NN'
p1199
S'I-NP'
p1200
g5
tp1201
a(S'management'
p1202
S'management'
p1203
S'NN'
p1204
S'I-NP'
p1205
g5
tp1206
a(S'loss'
p1207
S'loss'
p1208
S'NN'
p1209
S'I-NP'
p1210
g5
tp1211
a(S'costs'
p1212
S'cost'
p1213
S'NNS'
p1214
S'I-NP'
p1215
g5
tp1216
a(S'were'
p1217
S'be'
p1218
S'VBD'
p1219
S'B-VP'
p1220
g5
tp1221
a(g498
g498
g498
S'B-NP'
p1222
g5
tp1223
a(g249
g249
S'CD'
p1224
S'I-NP'
p1225
g5
tp1226
a(g99
g99
g99
g5
g5
tp1227
a(S'291'
p1228
S'291'
p1229
S'CD'
p1230
S'B-NP'
p1231
g5
tp1232
a(S'per'
p1233
S'per'
p1234
S'IN'
p1235
S'B-PP'
p1236
g5
tp1237
a(S'patient'
p1238
S'patient'
p1239
S'NN'
p1240
S'B-NP'
p1241
g5
tp1242
a(S'per'
p1243
S'per'
p1244
S'IN'
p1245
S'B-PP'
p1246
g5
tp1247
a(S'year'
p1248
S'year'
p1249
S'NN'
p1250
S'B-NP'
p1251
g5
tp1252
a(g182
g182
g182
g5
g5
tp1253
a(S'95'
p1254
S'95'
p1255
S'CD'
p1256
S'B-NP'
p1257
g5
tp1258
a(g1133
g1133
S'NN'
p1259
S'I-NP'
p1260
g5
tp1261
a(S'CI'
p1262
S'CI'
p1263
S'NN'
p1264
S'I-NP'
p1265
g5
tp1266
a(g99
g99
g99
g5
g5
tp1267
a(g498
g498
g498
S'B-NP'
p1268
g5
tp1269
a(S'1847-'
p1270
S'1847-'
p1271
S'CD'
p1272
S'I-NP'
p1273
g5
tp1274
a(g498
g498
g498
S'B-NP'
p1275
g5
tp1276
a(S'2752'
p1277
S'2752'
p1278
S'CD'
p1279
S'I-NP'
p1280
g5
tp1281
a(g120
g120
g120
g5
g5
tp1282
a(g77
g77
g77
g5
g5
tp1283
a(S'Effective'
p1284
S'Effective'
p1285
S'JJ'
p1286
S'B-NP'
p1287
g5
tp1288
a(S'surgical'
p1289
S'surgical'
p1290
S'JJ'
p1291
S'I-NP'
p1292
g5
tp1293
a(S'treatment'
p1294
S'treatment'
p1295
S'NN'
p1296
S'I-NP'
p1297
g5
tp1298
a(S'costing'
p1299
S'cost'
p1300
S'VBG'
p1301
S'B-VP'
p1302
g5
tp1303
a(g498
g498
g498
S'B-NP'
p1304
g5
tp1305
a(S'40'
p1306
S'40'
p1307
S'CD'
p1308
S'I-NP'
p1309
g5
tp1310
a(g99
g99
g99
g5
g5
tp1311
a(S'000'
p1312
S'000'
p1313
S'CD'
p1314
S'B-NP'
p1315
g5
tp1316
a(S'would'
p1317
S'would'
p1318
S'MD'
p1319
S'B-VP'
p1320
g5
tp1321
a(S'be'
p1322
S'be'
p1323
S'VB'
p1324
S'I-VP'
p1325
g5
tp1326
a(S'cost-effective'
p1327
S'cost-effective'
p1328
S'JJ'
p1329
S'B-ADJP'
p1330
g5
tp1331
a(S'compared'
p1332
S'compare'
p1333
S'VBN'
p1334
S'B-PP'
p1335
g5
tp1336
a(S'with'
p1337
S'with'
p1338
S'IN'
p1339
S'B-PP'
p1340
g5
tp1341
a(S'unsuccessful'
p1342
S'unsuccessful'
p1343
S'JJ'
p1344
S'B-NP'
p1345
g5
tp1346
a(S'medical'
p1347
S'medical'
p1348
S'JJ'
p1349
S'I-NP'
p1350
g5
tp1351
a(S'treatment'
p1352
S'treatment'
p1353
S'NN'
p1354
S'I-NP'
p1355
g5
tp1356
a(g77
g77
g77
g5
g5
tp1357
a(S'CONCLUSION'
p1358
S'CONCLUSION'
p1359
S'NN'
p1360
S'B-NP'
p1361
g5
tp1362
a(S'The'
p1363
S'The'
p1364
S'DT'
p1365
S'B-NP'
p1366
g5
tp1367
a(S'financial'
p1368
S'financial'
p1369
S'JJ'
p1370
S'I-NP'
p1371
g5
tp1372
a(S'and'
p1373
S'and'
p1374
S'CC'
p1375
S'I-NP'
p1376
g5
tp1377
a(S'quality-of-life'
p1378
S'quality-of-life'
p1379
S'JJ'
p1380
S'I-NP'
p1381
g5
tp1382
a(S'effects'
p1383
S'effect'
p1384
S'NNS'
p1385
S'I-NP'
p1386
g5
tp1387
a(S'of'
p1388
S'of'
p1389
S'IN'
p1390
S'B-PP'
p1391
g5
tp1392
a(S'DUB'
p1393
S'DUB'
p1394
S'NN'
p1395
S'B-NP'
p1396
S'B-protein'
p1397
tp1398
a(S'represent'
p1399
S'represent'
p1400
S'VBP'
p1401
S'B-VP'
p1402
g5
tp1403
a(g494
g494
S'DT'
p1404
S'B-NP'
p1405
g5
tp1406
a(S'substantial'
p1407
S'substantial'
p1408
S'JJ'
p1409
S'I-NP'
p1410
g5
tp1411
a(S'burden'
p1412
S'burden'
p1413
S'NN'
p1414
S'I-NP'
p1415
g5
tp1416
a(g77
g77
g77
g5
g5
tp1417
a.