(lp0
(S'Low-frequency'
p1
S'Low-frequency'
p2
S'JJ'
p3
S'B-NP'
p4
S'O'
p5
tp6
a(S'repetitive'
p7
S'repetitive'
p8
S'JJ'
p9
S'I-NP'
p10
g5
tp11
a(S'transcranial'
p12
S'transcranial'
p13
S'JJ'
p14
S'I-NP'
p15
g5
tp16
a(S'magnetic'
p17
S'magnetic'
p18
S'JJ'
p19
S'I-NP'
p20
g5
tp21
a(S'stimulation'
p22
S'stimulation'
p23
S'NN'
p24
S'I-NP'
p25
g5
tp26
a(S'('
p27
g27
g27
g5
g5
tp28
a(S'rTMS'
p29
S'rTMS'
p30
S'NN'
p31
S'B-NP'
p32
g5
tp33
a(S')'
p34
g34
g34
g5
g5
tp35
a(S'affects'
p36
S'affect'
p37
S'VBZ'
p38
S'B-VP'
p39
g5
tp40
a(S'event-related'
p41
S'event-related'
p42
S'JJ'
p43
S'B-NP'
p44
g5
tp45
a(S'potential'
p46
S'potential'
p47
S'JJ'
p48
S'I-NP'
p49
g5
tp50
a(S'measures'
p51
S'measure'
p52
S'NNS'
p53
S'I-NP'
p54
g5
tp55
a(S'of'
p56
S'of'
p57
S'IN'
p58
S'B-PP'
p59
g5
tp60
a(S'novelty'
p61
S'novelty'
p62
S'NN'
p63
S'B-NP'
p64
g5
tp65
a(S'processing'
p66
S'processing'
p67
S'NN'
p68
S'I-NP'
p69
g5
tp70
a(S'in'
p71
S'in'
p72
S'IN'
p73
S'B-PP'
p74
g5
tp75
a(S'autism'
p76
S'autism'
p77
S'NN'
p78
S'B-NP'
p79
g5
tp80
a(S'.'
p81
g81
g81
g5
g5
tp82
a(S'In'
p83
S'In'
p84
S'IN'
p85
S'B-PP'
p86
g5
tp87
a(S'our'
p88
S'our'
p89
S'PRP$'
p90
S'B-NP'
p91
g5
tp92
a(S'previous'
p93
S'previous'
p94
S'JJ'
p95
S'I-NP'
p96
g5
tp97
a(S'study'
p98
S'study'
p99
S'NN'
p100
S'I-NP'
p101
g5
tp102
a(S'on'
p103
S'on'
p104
S'IN'
p105
S'B-PP'
p106
g5
tp107
a(S'individuals'
p108
S'individual'
p109
S'NNS'
p110
S'B-NP'
p111
g5
tp112
a(S'with'
p113
S'with'
p114
S'IN'
p115
S'B-PP'
p116
g5
tp117
a(S'autism'
p118
S'autism'
p119
S'NN'
p120
S'B-NP'
p121
g5
tp122
a(S'spectrum'
p123
S'spectrum'
p124
S'NN'
p125
S'I-NP'
p126
g5
tp127
a(S'disorder'
p128
S'disorder'
p129
S'NN'
p130
S'I-NP'
p131
g5
tp132
a(g27
g27
g27
g5
g5
tp133
a(S'ASD'
p134
S'ASD'
p135
S'NN'
p136
S'B-NP'
p137
g5
tp138
a(g34
g34
g34
g5
g5
tp139
a(g27
g27
g27
g5
g5
tp140
a(S'Sokhadze'
p141
S'Sokhadze'
p142
S'NNP'
p143
S'B-NP'
p144
g5
tp145
a(S'et'
p146
S'et'
p147
S'FW'
p148
S'I-NP'
p149
g5
tp150
a(S'al.'
p151
S'al.'
p152
S'FW'
p153
S'I-NP'
p154
g5
tp155
a(S','
p156
g156
g156
g5
g5
tp157
a(S'Appl'
p158
S'Appl'
p159
S'NNP'
p160
S'B-NP'
p161
g5
tp162
a(S'Psychophysiol'
p163
S'Psychophysiol'
p164
S'NNP'
p165
S'I-NP'
p166
g5
tp167
a(S'Biofeedback'
p168
S'Biofeedback'
p169
S'NNP'
p170
S'I-NP'
p171
g5
tp172
a(S'34'
p173
S'34'
p174
S'CD'
p175
S'I-NP'
p176
g5
tp177
a(S':'
p178
g178
g178
g5
g5
tp179
a(S'37-51'
p180
S'37-51'
p181
S'CD'
p182
S'B-NP'
p183
g5
tp184
a(g156
g156
g156
g5
g5
tp185
a(S'2009a'
p186
S'2009a'
p187
S'LS'
p188
S'B-LST'
p189
g5
tp190
a(g34
g34
g34
g5
g5
tp191
a(S'we'
p192
S'we'
p193
S'PRP'
p194
S'B-NP'
p195
g5
tp196
a(S'reported'
p197
S'report'
p198
S'VBD'
p199
S'B-VP'
p200
g5
tp201
a(S'abnormalities'
p202
S'abnormality'
p203
S'NNS'
p204
S'B-NP'
p205
g5
tp206
a(S'in'
p207
S'in'
p208
S'IN'
p209
S'B-PP'
p210
g5
tp211
a(S'the'
p212
S'the'
p213
S'DT'
p214
S'B-NP'
p215
g5
tp216
a(S'attention-orienting'
p217
S'attention-orienting'
p218
S'JJ'
p219
S'I-NP'
p220
g5
tp221
a(S'frontal'
p222
S'frontal'
p223
S'JJ'
p224
S'I-NP'
p225
g5
tp226
a(S'event-related'
p227
S'event-related'
p228
S'JJ'
p229
S'I-NP'
p230
g5
tp231
a(S'potentials'
p232
S'potential'
p233
S'NNS'
p234
S'I-NP'
p235
g5
tp236
a(g27
g27
g27
g5
g5
tp237
a(S'ERP'
p238
S'ERP'
p239
S'NN'
p240
S'B-NP'
p241
S'B-protein'
p242
tp243
a(g34
g34
g34
g5
g5
tp244
a(S'and'
p245
S'and'
p246
S'CC'
p247
g5
g5
tp248
a(S'the'
p249
S'the'
p250
S'DT'
p251
S'B-NP'
p252
g5
tp253
a(S'sustained-attention'
p254
S'sustained-attention'
p255
S'JJ'
p256
S'I-NP'
p257
g5
tp258
a(S'centro-parietal'
p259
S'centro-parietal'
p260
S'JJ'
p261
S'I-NP'
p262
g5
tp263
a(S'ERPs'
p264
S'ERP'
p265
S'NNS'
p266
S'I-NP'
p267
S'B-protein'
p268
tp269
a(S'in'
p270
S'in'
p271
S'IN'
p272
S'B-PP'
p273
g5
tp274
a(S'a'
p275
g275
S'DT'
p276
S'B-NP'
p277
g5
tp278
a(S'visual'
p279
S'visual'
p280
S'JJ'
p281
S'I-NP'
p282
g5
tp283
a(S'oddball'
p284
S'oddball'
p285
S'NN'
p286
S'I-NP'
p287
g5
tp288
a(S'experiment.'
p289
S'experiment.'
p290
S'VB'
p291
S'B-VP'
p292
g5
tp293
a(S'These'
p294
S'These'
p295
S'DT'
p296
S'B-NP'
p297
g5
tp298
a(S'results'
p299
S'result'
p300
S'NNS'
p301
S'I-NP'
p302
g5
tp303
a(S'suggest'
p304
S'suggest'
p305
S'VBP'
p306
S'B-VP'
p307
g5
tp308
a(S'that'
p309
S'that'
p310
S'IN'
p311
S'B-SBAR'
p312
g5
tp313
a(S'individuals'
p314
S'individual'
p315
S'NNS'
p316
S'B-NP'
p317
g5
tp318
a(S'with'
p319
S'with'
p320
S'IN'
p321
S'B-PP'
p322
g5
tp323
a(S'autism'
p324
S'autism'
p325
S'NN'
p326
S'B-NP'
p327
g5
tp328
a(S'over-process'
p329
S'over-process'
p330
S'JJ'
p331
S'I-NP'
p332
g5
tp333
a(S'information'
p334
S'information'
p335
S'NN'
p336
S'I-NP'
p337
g5
tp338
a(S'needed'
p339
S'need'
p340
S'VBN'
p341
S'B-VP'
p342
g5
tp343
a(S'for'
p344
S'for'
p345
S'IN'
p346
S'B-PP'
p347
g5
tp348
a(S'the'
p349
S'the'
p350
S'DT'
p351
S'B-NP'
p352
g5
tp353
a(S'successful'
p354
S'successful'
p355
S'JJ'
p356
S'I-NP'
p357
g5
tp358
a(S'differentiation'
p359
S'differentiation'
p360
S'NN'
p361
S'I-NP'
p362
g5
tp363
a(S'of'
p364
S'of'
p365
S'IN'
p366
S'B-PP'
p367
g5
tp368
a(S'target'
p369
S'target'
p370
S'NN'
p371
S'B-NP'
p372
g5
tp373
a(S'and'
p374
S'and'
p375
S'CC'
p376
g5
g5
tp377
a(S'novel'
p378
S'novel'
p379
S'JJ'
p380
S'B-NP'
p381
g5
tp382
a(S'stimuli.'
p383
S'stimuli.'
p384
S'NN'
p385
S'I-NP'
p386
g5
tp387
a(S'In'
p388
S'In'
p389
S'IN'
p390
S'B-PP'
p391
g5
tp392
a(S'the'
p393
S'the'
p394
S'DT'
p395
S'B-NP'
p396
g5
tp397
a(S'present'
p398
S'present'
p399
S'JJ'
p400
S'I-NP'
p401
g5
tp402
a(S'study'
p403
S'study'
p404
S'NN'
p405
S'I-NP'
p406
g5
tp407
a(S'we'
p408
S'we'
p409
S'PRP'
p410
S'B-NP'
p411
g5
tp412
a(S'examine'
p413
S'examine'
p414
S'VBP'
p415
S'B-VP'
p416
g5
tp417
a(S'the'
p418
S'the'
p419
S'DT'
p420
S'B-NP'
p421
g5
tp422
a(S'effects'
p423
S'effect'
p424
S'NNS'
p425
S'I-NP'
p426
g5
tp427
a(S'of'
p428
S'of'
p429
S'IN'
p430
S'B-PP'
p431
g5
tp432
a(S'low-frequency'
p433
S'low-frequency'
p434
S'NN'
p435
S'B-NP'
p436
g5
tp437
a(g156
g156
g156
g5
g5
tp438
a(S'repetitive'
p439
S'repetitive'
p440
S'JJ'
p441
S'B-NP'
p442
g5
tp443
a(S'Transcranial'
p444
S'Transcranial'
p445
S'JJ'
p446
S'I-NP'
p447
g5
tp448
a(S'Magnetic'
p449
S'Magnetic'
p450
S'JJ'
p451
S'I-NP'
p452
g5
tp453
a(S'Stimulation'
p454
S'Stimulation'
p455
S'NN'
p456
S'I-NP'
p457
g5
tp458
a(g27
g27
g27
g5
g5
tp459
a(S'rTMS'
p460
S'rTMS'
p461
S'NN'
p462
S'B-NP'
p463
g5
tp464
a(g34
g34
g34
g5
g5
tp465
a(S'on'
p466
S'on'
p467
S'IN'
p468
S'B-PP'
p469
g5
tp470
a(S'novelty'
p471
S'novelty'
p472
S'NN'
p473
S'B-NP'
p474
g5
tp475
a(S'processing'
p476
S'processing'
p477
S'NN'
p478
S'I-NP'
p479
g5
tp480
a(S'as'
p481
S'as'
p482
S'RB'
p483
S'B-CONJP'
p484
g5
tp485
a(S'well'
p486
S'well'
p487
S'RB'
p488
S'I-CONJP'
p489
g5
tp490
a(S'as'
p491
S'as'
p492
S'IN'
p493
S'I-CONJP'
p494
g5
tp495
a(S'behavior'
p496
S'behavior'
p497
S'NN'
p498
S'B-NP'
p499
g5
tp500
a(S'and'
p501
S'and'
p502
S'CC'
p503
g5
g5
tp504
a(S'social'
p505
S'social'
p506
S'JJ'
p507
S'B-NP'
p508
g5
tp509
a(S'functioning'
p510
S'functioning'
p511
S'NN'
p512
S'I-NP'
p513
g5
tp514
a(S'in'
p515
S'in'
p516
S'IN'
p517
S'B-PP'
p518
g5
tp519
a(S'13'
p520
S'13'
p521
S'CD'
p522
S'B-NP'
p523
g5
tp524
a(S'individuals'
p525
S'individual'
p526
S'NNS'
p527
S'I-NP'
p528
g5
tp529
a(S'with'
p530
S'with'
p531
S'IN'
p532
S'B-PP'
p533
g5
tp534
a(S'ASD.'
p535
S'ASD.'
p536
S'NNP'
p537
S'B-NP'
p538
g5
tp539
a(S'Our'
p540
S'Our'
p541
S'PRP$'
p542
S'B-NP'
p543
g5
tp544
a(S'hypothesis'
p545
S'hypothesis'
p546
S'NN'
p547
S'I-NP'
p548
g5
tp549
a(S'was'
p550
S'be'
p551
S'VBD'
p552
S'B-VP'
p553
g5
tp554
a(S'that'
p555
S'that'
p556
S'IN'
p557
S'B-SBAR'
p558
g5
tp559
a(S'low-frequency'
p560
S'low-frequency'
p561
S'NN'
p562
S'B-NP'
p563
g5
tp564
a(S'rTMS'
p565
S'rTMS'
p566
S'NN'
p567
S'I-NP'
p568
g5
tp569
a(S'application'
p570
S'application'
p571
S'NN'
p572
S'I-NP'
p573
g5
tp574
a(S'to'
p575
S'to'
p576
S'TO'
p577
S'B-PP'
p578
g5
tp579
a(S'dorsolateral'
p580
S'dorsolateral'
p581
S'JJ'
p582
S'B-NP'
p583
g5
tp584
a(S'prefrontal'
p585
S'prefrontal'
p586
S'JJ'
p587
S'I-NP'
p588
g5
tp589
a(S'cortex'
p590
S'cortex'
p591
S'NN'
p592
S'I-NP'
p593
g5
tp594
a(g27
g27
g27
g5
g5
tp595
a(S'DLFPC'
p596
S'DLFPC'
p597
S'NN'
p598
S'B-NP'
p599
g5
tp600
a(g34
g34
g34
g5
g5
tp601
a(S'would'
p602
S'would'
p603
S'MD'
p604
S'B-VP'
p605
g5
tp606
a(S'result'
p607
S'result'
p608
S'VB'
p609
S'I-VP'
p610
g5
tp611
a(S'in'
p612
S'in'
p613
S'IN'
p614
S'B-PP'
p615
g5
tp616
a(S'an'
p617
S'an'
p618
S'DT'
p619
S'B-NP'
p620
g5
tp621
a(S'alteration'
p622
S'alteration'
p623
S'NN'
p624
S'I-NP'
p625
g5
tp626
a(S'of'
p627
S'of'
p628
S'IN'
p629
S'B-PP'
p630
g5
tp631
a(S'the'
p632
S'the'
p633
S'DT'
p634
S'B-NP'
p635
g5
tp636
a(S'cortical'
p637
S'cortical'
p638
S'JJ'
p639
S'I-NP'
p640
g5
tp641
a(S'excitatory/inhibitory'
p642
S'excitatory/inhibitory'
p643
S'JJ'
p644
S'I-NP'
p645
g5
tp646
a(S'balance'
p647
S'balance'
p648
S'NN'
p649
S'I-NP'
p650
g5
tp651
a(S'through'
p652
S'through'
p653
S'IN'
p654
S'B-PP'
p655
g5
tp656
a(S'the'
p657
S'the'
p658
S'DT'
p659
S'B-NP'
p660
g5
tp661
a(S'activation'
p662
S'activation'
p663
S'NN'
p664
S'I-NP'
p665
g5
tp666
a(S'of'
p667
S'of'
p668
S'IN'
p669
S'B-PP'
p670
g5
tp671
a(S'inhibitory'
p672
S'inhibitory'
p673
S'JJ'
p674
S'B-NP'
p675
g5
tp676
a(S'GABAergic'
p677
S'GABAergic'
p678
S'JJ'
p679
S'I-NP'
p680
g5
tp681
a(S'double'
p682
S'double'
p683
S'JJ'
p684
S'I-NP'
p685
g5
tp686
a(S'bouquet'
p687
S'bouquet'
p688
S'NN'
p689
S'I-NP'
p690
g5
tp691
a(S'interneurons.'
p692
S'interneurons.'
p693
S'NN'
p694
S'I-NP'
p695
g5
tp696
a(S'We'
p697
S'We'
p698
S'PRP'
p699
S'B-NP'
p700
g5
tp701
a(S'expected'
p702
S'expect'
p703
S'VBD'
p704
S'B-VP'
p705
g5
tp706
a(S'to'
p707
S'to'
p708
S'TO'
p709
S'I-VP'
p710
g5
tp711
a(S'find'
p712
S'find'
p713
S'VB'
p714
S'I-VP'
p715
g5
tp716
a(S'post-TMS'
p717
S'post-TMS'
p718
S'JJ'
p719
S'B-NP'
p720
g5
tp721
a(S'differences'
p722
S'difference'
p723
S'NNS'
p724
S'I-NP'
p725
g5
tp726
a(S'in'
p727
S'in'
p728
S'IN'
p729
S'B-PP'
p730
g5
tp731
a(S'amplitude'
p732
S'amplitude'
p733
S'NN'
p734
S'B-NP'
p735
g5
tp736
a(S'and'
p737
S'and'
p738
S'CC'
p739
S'I-NP'
p740
g5
tp741
a(S'latency'
p742
S'latency'
p743
S'NN'
p744
S'I-NP'
p745
g5
tp746
a(S'of'
p747
S'of'
p748
S'IN'
p749
S'B-PP'
p750
g5
tp751
a(S'early'
p752
S'early'
p753
S'JJ'
p754
S'B-NP'
p755
g5
tp756
a(S'and'
p757
S'and'
p758
S'CC'
p759
S'I-NP'
p760
g5
tp761
a(S'late'
p762
S'late'
p763
S'JJ'
p764
S'I-NP'
p765
g5
tp766
a(S'ERP'
p767
S'ERP'
p768
S'NN'
p769
S'I-NP'
p770
S'B-protein'
p771
tp772
a(S'components.'
p773
S'components.'
p774
S'NN'
p775
S'I-NP'
p776
g5
tp777
a(S'The'
p778
S'The'
p779
S'DT'
p780
S'B-NP'
p781
g5
tp782
a(S'results'
p783
S'result'
p784
S'NNS'
p785
S'I-NP'
p786
g5
tp787
a(S'of'
p788
S'of'
p789
S'IN'
p790
S'B-PP'
p791
g5
tp792
a(S'our'
p793
S'our'
p794
S'PRP$'
p795
S'B-NP'
p796
g5
tp797
a(S'current'
p798
S'current'
p799
S'JJ'
p800
S'I-NP'
p801
g5
tp802
a(S'study'
p803
S'study'
p804
S'NN'
p805
S'I-NP'
p806
g5
tp807
a(S'validate'
p808
S'validate'
p809
S'VBP'
p810
S'B-VP'
p811
g5
tp812
a(S'the'
p813
S'the'
p814
S'DT'
p815
S'B-NP'
p816
g5
tp817
a(S'use'
p818
S'use'
p819
S'NN'
p820
S'I-NP'
p821
g5
tp822
a(S'of'
p823
S'of'
p824
S'IN'
p825
S'B-PP'
p826
g5
tp827
a(S'low-frequency'
p828
S'low-frequency'
p829
S'NN'
p830
S'B-NP'
p831
g5
tp832
a(S'rTMS'
p833
S'rTMS'
p834
S'NN'
p835
S'I-NP'
p836
g5
tp837
a(S'as'
p838
S'as'
p839
S'IN'
p840
S'B-PP'
p841
g5
tp842
a(g275
g275
S'DT'
p843
S'B-NP'
p844
g5
tp845
a(S'modulatory'
p846
S'modulatory'
p847
S'JJ'
p848
S'I-NP'
p849
g5
tp850
a(S'tool'
p851
S'tool'
p852
S'NN'
p853
S'I-NP'
p854
g5
tp855
a(S'that'
p856
S'that'
p857
S'WDT'
p858
S'B-NP'
p859
g5
tp860
a(S'altered'
p861
S'alter'
p862
S'VBD'
p863
S'B-VP'
p864
g5
tp865
a(S'the'
p866
S'the'
p867
S'DT'
p868
S'B-NP'
p869
g5
tp870
a(S'disrupted'
p871
S'disrupt'
p872
S'VBN'
p873
S'I-NP'
p874
g5
tp875
a(S'ratio'
p876
S'ratio'
p877
S'NN'
p878
S'I-NP'
p879
g5
tp880
a(S'of'
p881
S'of'
p882
S'IN'
p883
S'B-PP'
p884
g5
tp885
a(S'cortical'
p886
S'cortical'
p887
S'JJ'
p888
S'B-NP'
p889
g5
tp890
a(S'excitation'
p891
S'excitation'
p892
S'NN'
p893
S'I-NP'
p894
g5
tp895
a(S'to'
p896
S'to'
p897
S'TO'
p898
S'B-PP'
p899
g5
tp900
a(S'inhibition'
p901
S'inhibition'
p902
S'NN'
p903
S'B-NP'
p904
g5
tp905
a(S'in'
p906
S'in'
p907
S'IN'
p908
S'B-PP'
p909
g5
tp910
a(S'autism.'
p911
S'autism.'
p912
S'NN'
p913
S'B-NP'
p914
g5
tp915
a(S'After'
p916
S'After'
p917
S'IN'
p918
S'B-PP'
p919
g5
tp920
a(S'rTMS'
p921
S'rTMS'
p922
S'NN'
p923
S'B-NP'
p924
g5
tp925
a(S'the'
p926
S'the'
p927
S'DT'
p928
S'B-NP'
p929
g5
tp930
a(S'parieto-occipital'
p931
S'parieto-occipital'
p932
S'JJ'
p933
S'I-NP'
p934
g5
tp935
a(S'P50'
p936
S'P50'
p937
S'NN'
p938
S'I-NP'
p939
g5
tp940
a(S'amplitude'
p941
S'amplitude'
p942
S'NN'
p943
S'I-NP'
p944
g5
tp945
a(S'decreased'
p946
S'decrease'
p947
S'VBD'
p948
S'B-VP'
p949
g5
tp950
a(S'to'
p951
S'to'
p952
S'TO'
p953
S'B-PP'
p954
g5
tp955
a(S'novel'
p956
S'novel'
p957
S'JJ'
p958
S'B-NP'
p959
g5
tp960
a(S'distracters'
p961
S'distracter'
p962
S'NNS'
p963
S'I-NP'
p964
g5
tp965
a(S'but'
p966
S'but'
p967
S'CC'
p968
g5
g5
tp969
a(S'not'
p970
S'not'
p971
S'RB'
p972
g5
g5
tp973
a(S'to'
p974
S'to'
p975
S'TO'
p976
S'B-PP'
p977
g5
tp978
a(S'targets'
p979
S'target'
p980
S'NNS'
p981
S'B-NP'
p982
g5
tp983
a(S';'
p984
g984
g178
g5
g5
tp985
a(S'also'
p986
S'also'
p987
S'RB'
p988
S'B-ADVP'
p989
g5
tp990
a(S'the'
p991
S'the'
p992
S'DT'
p993
S'B-NP'
p994
g5
tp995
a(S'amplitude'
p996
S'amplitude'
p997
S'NN'
p998
S'I-NP'
p999
g5
tp1000
a(S'and'
p1001
S'and'
p1002
S'CC'
p1003
S'I-NP'
p1004
g5
tp1005
a(S'latency'
p1006
S'latency'
p1007
S'NN'
p1008
S'I-NP'
p1009
g5
tp1010
a(S'to'
p1011
S'to'
p1012
S'TO'
p1013
S'B-PP'
p1014
g5
tp1015
a(S'targets'
p1016
S'target'
p1017
S'NNS'
p1018
S'B-NP'
p1019
g5
tp1020
a(S'increased'
p1021
S'increase'
p1022
S'VBD'
p1023
S'B-VP'
p1024
g5
tp1025
a(S'for'
p1026
S'for'
p1027
S'IN'
p1028
S'B-PP'
p1029
g5
tp1030
a(S'the'
p1031
S'the'
p1032
S'DT'
p1033
S'B-NP'
p1034
g5
tp1035
a(S'frontal'
p1036
S'frontal'
p1037
S'JJ'
p1038
S'I-NP'
p1039
g5
tp1040
a(S'P50'
p1041
S'P50'
p1042
S'NN'
p1043
S'I-NP'
p1044
S'B-protein'
p1045
tp1046
a(S'while'
p1047
S'while'
p1048
S'IN'
p1049
S'B-SBAR'
p1050
g5
tp1051
a(S'decreasing'
p1052
S'decrease'
p1053
S'VBG'
p1054
S'B-VP'
p1055
g5
tp1056
a(S'to'
p1057
S'to'
p1058
S'TO'
p1059
S'B-PP'
p1060
g5
tp1061
a(S'non-target'
p1062
S'non-target'
p1063
S'JJ'
p1064
S'B-NP'
p1065
g5
tp1066
a(S'stimuli.'
p1067
S'stimuli.'
p1068
S'NN'
p1069
S'I-NP'
p1070
g5
tp1071
a(S'Low-frequency'
p1072
S'Low-frequency'
p1073
S'NN'
p1074
S'I-NP'
p1075
g5
tp1076
a(S'rTMS'
p1077
S'rTMS'
p1078
S'NN'
p1079
S'I-NP'
p1080
g5
tp1081
a(S'minimized'
p1082
S'minimize'
p1083
S'VBD'
p1084
S'B-VP'
p1085
g5
tp1086
a(S'early'
p1087
S'early'
p1088
S'JJ'
p1089
S'B-NP'
p1090
g5
tp1091
a(S'cortical'
p1092
S'cortical'
p1093
S'JJ'
p1094
S'I-NP'
p1095
g5
tp1096
a(S'responses'
p1097
S'response'
p1098
S'NNS'
p1099
S'I-NP'
p1100
g5
tp1101
a(S'to'
p1102
S'to'
p1103
S'TO'
p1104
S'B-PP'
p1105
g5
tp1106
a(S'irrelevant'
p1107
S'irrelevant'
p1108
S'JJ'
p1109
S'B-NP'
p1110
g5
tp1111
a(S'stimuli'
p1112
S'stimulus'
p1113
S'NNS'
p1114
S'I-NP'
p1115
g5
tp1116
a(S'and'
p1117
S'and'
p1118
S'CC'
p1119
g5
g5
tp1120
a(S'increased'
p1121
S'increase'
p1122
S'VBN'
p1123
S'B-NP'
p1124
g5
tp1125
a(S'responses'
p1126
S'response'
p1127
S'NNS'
p1128
S'I-NP'
p1129
g5
tp1130
a(S'to'
p1131
S'to'
p1132
S'TO'
p1133
S'B-PP'
p1134
g5
tp1135
a(S'relevant'
p1136
S'relevant'
p1137
S'JJ'
p1138
S'B-NP'
p1139
g5
tp1140
a(S'stimuli.'
p1141
S'stimuli.'
p1142
S'NN'
p1143
S'I-NP'
p1144
g5
tp1145
a(S'Improved'
p1146
S'Improve'
p1147
S'VBD'
p1148
S'B-VP'
p1149
g5
tp1150
a(S'selectivity'
p1151
S'selectivity'
p1152
S'NN'
p1153
S'B-NP'
p1154
g5
tp1155
a(S'in'
p1156
S'in'
p1157
S'IN'
p1158
S'B-PP'
p1159
g5
tp1160
a(S'early'
p1161
S'early'
p1162
S'JJ'
p1163
S'B-NP'
p1164
g5
tp1165
a(S'cortical'
p1166
S'cortical'
p1167
S'JJ'
p1168
S'I-NP'
p1169
g5
tp1170
a(S'responses'
p1171
S'response'
p1172
S'NNS'
p1173
S'I-NP'
p1174
g5
tp1175
a(S'lead'
p1176
S'lead'
p1177
S'VBP'
p1178
S'B-VP'
p1179
g5
tp1180
a(S'to'
p1181
S'to'
p1182
S'TO'
p1183
S'B-PP'
p1184
g5
tp1185
a(S'better'
p1186
S'good'
p1187
S'JJR'
p1188
S'B-NP'
p1189
g5
tp1190
a(S'stimulus'
p1191
S'stimulus'
p1192
S'NN'
p1193
S'I-NP'
p1194
g5
tp1195
a(S'differentiation'
p1196
S'differentiation'
p1197
S'NN'
p1198
S'I-NP'
p1199
g5
tp1200
a(S'at'
p1201
S'at'
p1202
S'IN'
p1203
S'B-PP'
p1204
g5
tp1205
a(S'later-stage'
p1206
S'later-stage'
p1207
S'JJ'
p1208
S'B-NP'
p1209
g5
tp1210
a(S'responses'
p1211
S'response'
p1212
S'NNS'
p1213
S'I-NP'
p1214
g5
tp1215
a(S'as'
p1216
S'as'
p1217
S'IN'
p1218
S'B-SBAR'
p1219
g5
tp1220
a(S'was'
p1221
S'be'
p1222
S'VBD'
p1223
S'B-VP'
p1224
g5
tp1225
a(S'made'
p1226
S'make'
p1227
S'VBN'
p1228
S'I-VP'
p1229
g5
tp1230
a(S'evident'
p1231
S'evident'
p1232
S'JJ'
p1233
S'B-ADJP'
p1234
g5
tp1235
a(S'by'
p1236
S'by'
p1237
S'IN'
p1238
S'B-PP'
p1239
g5
tp1240
a(S'our'
p1241
S'our'
p1242
S'PRP$'
p1243
S'B-NP'
p1244
g5
tp1245
a(S'P3b'
p1246
S'P3b'
p1247
S'NN'
p1248
S'I-NP'
p1249
S'B-protein'
p1250
tp1251
a(S'and'
p1252
S'and'
p1253
S'CC'
p1254
S'I-NP'
p1255
g5
tp1256
a(S'P3a'
p1257
S'P3a'
p1258
S'NN'
p1259
S'I-NP'
p1260
S'B-protein'
p1261
tp1262
a(S'component'
p1263
S'component'
p1264
S'NN'
p1265
S'I-NP'
p1266
S'I-protein'
p1267
tp1268
a(S'findings.'
p1269
S'findings.'
p1270
S'VB'
p1271
S'B-VP'
p1272
g5
tp1273
a(S'These'
p1274
S'These'
p1275
S'DT'
p1276
S'B-NP'
p1277
g5
tp1278
a(S'results'
p1279
S'result'
p1280
S'NNS'
p1281
S'I-NP'
p1282
g5
tp1283
a(S'indicate'
p1284
S'indicate'
p1285
S'VBP'
p1286
S'B-VP'
p1287
g5
tp1288
a(g275
g275
S'DT'
p1289
S'B-NP'
p1290
g5
tp1291
a(S'significant'
p1292
S'significant'
p1293
S'JJ'
p1294
S'I-NP'
p1295
g5
tp1296
a(S'change'
p1297
S'change'
p1298
S'NN'
p1299
S'I-NP'
p1300
g5
tp1301
a(S'in'
p1302
S'in'
p1303
S'IN'
p1304
S'B-PP'
p1305
g5
tp1306
a(S'early'
p1307
S'early'
p1308
S'JJ'
p1309
S'B-NP'
p1310
g5
tp1311
a(g156
g156
g156
S'I-NP'
p1312
g5
tp1313
a(S'middle-latency'
p1314
S'middle-latency'
p1315
S'NN'
p1316
S'I-NP'
p1317
g5
tp1318
a(S'and'
p1319
S'and'
p1320
S'CC'
p1321
g5
g5
tp1322
a(S'late'
p1323
S'late'
p1324
S'JJ'
p1325
S'B-NP'
p1326
g5
tp1327
a(S'ERP'
p1328
S'ERP'
p1329
S'NN'
p1330
S'I-NP'
p1331
g5
tp1332
a(S'components'
p1333
S'component'
p1334
S'NNS'
p1335
S'I-NP'
p1336
g5
tp1337
a(S'at'
p1338
S'at'
p1339
S'IN'
p1340
S'B-PP'
p1341
g5
tp1342
a(S'the'
p1343
S'the'
p1344
S'DT'
p1345
S'B-NP'
p1346
g5
tp1347
a(S'frontal'
p1348
S'frontal'
p1349
S'JJ'
p1350
S'I-NP'
p1351
g5
tp1352
a(g156
g156
g156
S'I-NP'
p1353
g5
tp1354
a(S'centro-parietal'
p1355
S'centro-parietal'
p1356
S'JJ'
p1357
S'I-NP'
p1358
g5
tp1359
a(g156
g156
g156
g5
g5
tp1360
a(S'and'
p1361
S'and'
p1362
S'CC'
p1363
g5
g5
tp1364
a(S'parieto-occipital'
p1365
S'parieto-occipital'
p1366
S'NN'
p1367
S'B-NP'
p1368
g5
tp1369
a(S'regions'
p1370
S'region'
p1371
S'NNS'
p1372
S'I-NP'
p1373
g5
tp1374
a(S'of'
p1375
S'of'
p1376
S'IN'
p1377
S'B-PP'
p1378
g5
tp1379
a(S'interest'
p1380
S'interest'
p1381
S'NN'
p1382
S'B-NP'
p1383
g5
tp1384
a(S'in'
p1385
S'in'
p1386
S'IN'
p1387
S'B-PP'
p1388
g5
tp1389
a(S'response'
p1390
S'response'
p1391
S'NN'
p1392
S'I-PP'
p1393
g5
tp1394
a(S'to'
p1395
S'to'
p1396
S'TO'
p1397
S'I-PP'
p1398
g5
tp1399
a(S'target'
p1400
S'target'
p1401
S'NN'
p1402
S'B-NP'
p1403
g5
tp1404
a(S'and'
p1405
S'and'
p1406
S'CC'
p1407
S'I-NP'
p1408
g5
tp1409
a(S'distracter'
p1410
S'distracter'
p1411
S'NN'
p1412
S'I-NP'
p1413
g5
tp1414
a(S'stimuli'
p1415
S'stimulus'
p1416
S'NNS'
p1417
S'I-NP'
p1418
g5
tp1419
a(S'as'
p1420
S'as'
p1421
S'IN'
p1422
S'B-PP'
p1423
g5
tp1424
a(g275
g275
S'DT'
p1425
S'B-NP'
p1426
g5
tp1427
a(S'result'
p1428
S'result'
p1429
S'NN'
p1430
S'I-NP'
p1431
g5
tp1432
a(S'of'
p1433
S'of'
p1434
S'IN'
p1435
S'B-PP'
p1436
g5
tp1437
a(S'rTMS'
p1438
S'rTMS'
p1439
S'NN'
p1440
S'B-NP'
p1441
g5
tp1442
a(S'treatment.'
p1443
S'treatment.'
p1444
S'NN'
p1445
S'I-NP'
p1446
g5
tp1447
a(S'Overall'
p1448
S'Overall'
p1449
S'RB'
p1450
S'B-ADVP'
p1451
g5
tp1452
a(g156
g156
g156
g5
g5
tp1453
a(S'our'
p1454
S'our'
p1455
S'PRP$'
p1456
S'B-NP'
p1457
g5
tp1458
a(S'preliminary'
p1459
S'preliminary'
p1460
S'JJ'
p1461
S'I-NP'
p1462
g5
tp1463
a(S'results'
p1464
S'result'
p1465
S'NNS'
p1466
S'I-NP'
p1467
g5
tp1468
a(S'show'
p1469
S'show'
p1470
S'VBP'
p1471
S'B-VP'
p1472
g5
tp1473
a(S'that'
p1474
S'that'
p1475
S'IN'
p1476
S'B-SBAR'
p1477
g5
tp1478
a(S'rTMS'
p1479
S'rTMS'
p1480
S'NN'
p1481
S'B-NP'
p1482
g5
tp1483
a(S'may'
p1484
S'may'
p1485
S'MD'
p1486
S'B-VP'
p1487
g5
tp1488
a(S'prove'
p1489
S'prove'
p1490
S'VB'
p1491
S'I-VP'
p1492
g5
tp1493
a(S'to'
p1494
S'to'
p1495
S'TO'
p1496
S'I-VP'
p1497
g5
tp1498
a(S'be'
p1499
S'be'
p1500
S'VB'
p1501
S'I-VP'
p1502
g5
tp1503
a(S'an'
p1504
S'an'
p1505
S'DT'
p1506
S'B-NP'
p1507
g5
tp1508
a(S'important'
p1509
S'important'
p1510
S'JJ'
p1511
S'I-NP'
p1512
g5
tp1513
a(S'research'
p1514
S'research'
p1515
S'NN'
p1516
S'I-NP'
p1517
g5
tp1518
a(S'tool'
p1519
S'tool'
p1520
S'NN'
p1521
S'I-NP'
p1522
g5
tp1523
a(S'or'
p1524
S'or'
p1525
S'CC'
p1526
S'I-NP'
p1527
g5
tp1528
a(S'treatment'
p1529
S'treatment'
p1530
S'NN'
p1531
S'I-NP'
p1532
g5
tp1533
a(S'modality'
p1534
S'modality'
p1535
S'NN'
p1536
S'I-NP'
p1537
g5
tp1538
a(S'in'
p1539
S'in'
p1540
S'IN'
p1541
S'B-PP'
p1542
g5
tp1543
a(S'addressing'
p1544
S'address'
p1545
S'VBG'
p1546
S'B-VP'
p1547
g5
tp1548
a(S'the'
p1549
S'the'
p1550
S'DT'
p1551
S'B-NP'
p1552
g5
tp1553
a(S'stimulus'
p1554
S'stimulus'
p1555
S'NN'
p1556
S'I-NP'
p1557
g5
tp1558
a(S'hypersensitivity'
p1559
S'hypersensitivity'
p1560
S'NN'
p1561
S'I-NP'
p1562
g5
tp1563
a(S'characteristic'
p1564
S'characteristic'
p1565
S'JJ'
p1566
S'B-ADJP'
p1567
g5
tp1568
a(S'of'
p1569
S'of'
p1570
S'IN'
p1571
S'B-PP'
p1572
g5
tp1573
a(S'autism'
p1574
S'autism'
p1575
S'NN'
p1576
S'B-NP'
p1577
g5
tp1578
a(S'spectrum'
p1579
S'spectrum'
p1580
S'NN'
p1581
S'I-NP'
p1582
g5
tp1583
a(S'disorders'
p1584
S'disorder'
p1585
S'NNS'
p1586
S'I-NP'
p1587
g5
tp1588
a(g81
g81
g81
g5
g5
tp1589
a.