(lp0
(S'A'
p1
g1
S'DT'
p2
S'B-NP'
p3
S'O'
p4
tp5
a(S'randomized'
p6
S'randomize'
p7
S'VBN'
p8
S'I-NP'
p9
g4
tp10
a(S'controlled'
p11
S'control'
p12
S'VBN'
p13
S'I-NP'
p14
g4
tp15
a(S'trial'
p16
S'trial'
p17
S'NN'
p18
S'I-NP'
p19
g4
tp20
a(S'of'
p21
S'of'
p22
S'IN'
p23
S'B-PP'
p24
g4
tp25
a(S'the'
p26
S'the'
p27
S'DT'
p28
S'B-NP'
p29
g4
tp30
a(S'Korean'
p31
S'Korean'
p32
S'JJ'
p33
S'I-NP'
p34
g4
tp35
a(S'version'
p36
S'version'
p37
S'NN'
p38
S'I-NP'
p39
g4
tp40
a(S'of'
p41
S'of'
p42
S'IN'
p43
S'B-PP'
p44
g4
tp45
a(S'the'
p46
S'the'
p47
S'DT'
p48
S'B-NP'
p49
g4
tp50
a(S'PEERS'
p51
S'PEERS'
p52
S'NNS'
p53
S'I-NP'
p54
S'B-protein'
p55
tp56
a(S'('
p57
g57
g57
g4
g4
tp58
a(S'\xc2\xae'
p59
S'\xc2\xae'
p60
S'NNS'
p61
S'B-NP'
p62
g4
tp63
a(S')'
p64
g64
g64
g4
g4
tp65
a(S'parent-assisted'
p66
S'parent-assisted'
p67
S'JJ'
p68
S'B-NP'
p69
g4
tp70
a(S'social'
p71
S'social'
p72
S'JJ'
p73
S'I-NP'
p74
g4
tp75
a(S'skills'
p76
S'skill'
p77
S'NNS'
p78
S'I-NP'
p79
g4
tp80
a(S'training'
p81
S'train'
p82
S'VBG'
p83
S'B-VP'
p84
g4
tp85
a(S'program'
p86
S'program'
p87
S'NN'
p88
S'B-NP'
p89
g4
tp90
a(S'for'
p91
S'for'
p92
S'IN'
p93
S'B-PP'
p94
g4
tp95
a(S'teens'
p96
S'teen'
p97
S'NNS'
p98
S'B-NP'
p99
g4
tp100
a(S'with'
p101
S'with'
p102
S'IN'
p103
S'B-PP'
p104
g4
tp105
a(S'ASD'
p106
S'ASD'
p107
S'NN'
p108
S'B-NP'
p109
g4
tp110
a(S'.'
p111
g111
g111
g4
g4
tp112
a(S'Impaired'
p113
S'Impair'
p114
S'VBN'
p115
S'B-NP'
p116
g4
tp117
a(S'social'
p118
S'social'
p119
S'JJ'
p120
S'I-NP'
p121
g4
tp122
a(S'functioning'
p123
S'functioning'
p124
S'NN'
p125
S'I-NP'
p126
g4
tp127
a(S'is'
p128
S'be'
p129
S'VBZ'
p130
S'B-VP'
p131
g4
tp132
a(S'a'
p133
g133
S'DT'
p134
S'B-NP'
p135
g4
tp136
a(S'hallmark'
p137
S'hallmark'
p138
S'NN'
p139
S'I-NP'
p140
g4
tp141
a(S'feature'
p142
S'feature'
p143
S'NN'
p144
S'I-NP'
p145
g4
tp146
a(S'of'
p147
S'of'
p148
S'IN'
p149
S'B-PP'
p150
g4
tp151
a(S'autism'
p152
S'autism'
p153
S'NN'
p154
S'B-NP'
p155
g4
tp156
a(S'spectrum'
p157
S'spectrum'
p158
S'NN'
p159
S'I-NP'
p160
g4
tp161
a(S'disorder'
p162
S'disorder'
p163
S'NN'
p164
S'I-NP'
p165
g4
tp166
a(g57
g57
g57
g4
g4
tp167
a(S'ASD'
p168
S'ASD'
p169
S'NN'
p170
S'B-NP'
p171
g4
tp172
a(g64
g64
g64
g4
g4
tp173
a(S','
p174
g174
g174
g4
g4
tp175
a(S'often'
p176
S'often'
p177
S'RB'
p178
S'B-ADVP'
p179
g4
tp180
a(S'requiring'
p181
S'require'
p182
S'VBG'
p183
S'B-VP'
p184
g4
tp185
a(S'treatment'
p186
S'treatment'
p187
S'NN'
p188
S'B-NP'
p189
g4
tp190
a(S'throughout'
p191
S'throughout'
p192
S'IN'
p193
S'B-PP'
p194
g4
tp195
a(S'the'
p196
S'the'
p197
S'DT'
p198
S'B-NP'
p199
g4
tp200
a(S'life'
p201
S'life'
p202
S'NN'
p203
S'I-NP'
p204
g4
tp205
a(S'span.'
p206
S'span.'
p207
S'NN'
p208
S'I-NP'
p209
g4
tp210
a(S'PEERS'
p211
S'PEERS'
p212
S'NNS'
p213
S'I-NP'
p214
g4
tp215
a(g57
g57
g57
g4
g4
tp216
a(S'\xc2\xae'
p217
S'\xc2\xae'
p218
S'NN'
p219
S'B-NP'
p220
g4
tp221
a(g64
g64
g64
g4
g4
tp222
a(g57
g57
g57
g4
g4
tp223
a(S'Program'
p224
S'Program'
p225
S'NN'
p226
S'B-NP'
p227
g4
tp228
a(S'for'
p229
S'for'
p230
S'IN'
p231
S'B-PP'
p232
g4
tp233
a(S'the'
p234
S'the'
p235
S'DT'
p236
S'B-NP'
p237
g4
tp238
a(S'Education'
p239
S'Education'
p240
S'NN'
p241
S'I-NP'
p242
g4
tp243
a(S'and'
p244
S'and'
p245
S'CC'
p246
S'I-NP'
p247
g4
tp248
a(S'Enrichment'
p249
S'Enrichment'
p250
S'NN'
p251
S'I-NP'
p252
g4
tp253
a(S'of'
p254
S'of'
p255
S'IN'
p256
S'B-PP'
p257
g4
tp258
a(S'Relational'
p259
S'Relational'
p260
S'JJ'
p261
S'B-NP'
p262
g4
tp263
a(S'Skills'
p264
S'Skill'
p265
S'NNS'
p266
S'I-NP'
p267
g4
tp268
a(g64
g64
g64
g4
g4
tp269
a(S'is'
p270
S'be'
p271
S'VBZ'
p272
S'B-VP'
p273
g4
tp274
a(g133
g133
S'DT'
p275
S'B-NP'
p276
g4
tp277
a(S'parent-assisted'
p278
S'parent-assisted'
p279
S'JJ'
p280
S'I-NP'
p281
g4
tp282
a(S'social'
p283
S'social'
p284
S'JJ'
p285
S'I-NP'
p286
g4
tp287
a(S'skills'
p288
S'skill'
p289
S'NNS'
p290
S'I-NP'
p291
g4
tp292
a(S'training'
p293
S'train'
p294
S'VBG'
p295
S'B-VP'
p296
g4
tp297
a(S'for'
p298
S'for'
p299
S'IN'
p300
S'B-PP'
p301
g4
tp302
a(S'teens'
p303
S'teen'
p304
S'NNS'
p305
S'B-NP'
p306
g4
tp307
a(S'with'
p308
S'with'
p309
S'IN'
p310
S'B-PP'
p311
g4
tp312
a(S'ASD.'
p313
S'ASD.'
p314
S'NN'
p315
S'B-NP'
p316
g4
tp317
a(S'Although'
p318
S'Although'
p319
S'IN'
p320
S'B-SBAR'
p321
g4
tp322
a(S'PEERS'
p323
S'PEERS'
p324
S'NNS'
p325
S'B-NP'
p326
S'B-protein'
p327
tp328
a(g57
g57
g57
g4
g4
tp329
a(S'\xc2\xae'
p330
S'\xc2\xae'
p331
S'NN'
p332
S'B-NP'
p333
g4
tp334
a(g64
g64
g64
g4
g4
tp335
a(S'has'
p336
S'have'
p337
S'VBZ'
p338
S'B-VP'
p339
g4
tp340
a(S'an'
p341
S'an'
p342
S'DT'
p343
S'B-NP'
p344
g4
tp345
a(S'established'
p346
S'established'
p347
S'JJ'
p348
S'I-NP'
p349
g4
tp350
a(S'evidence'
p351
S'evidence'
p352
S'NN'
p353
S'I-NP'
p354
g4
tp355
a(S'base'
p356
S'base'
p357
S'NN'
p358
S'I-NP'
p359
g4
tp360
a(S'in'
p361
S'in'
p362
S'IN'
p363
S'B-PP'
p364
g4
tp365
a(S'improving'
p366
S'improve'
p367
S'VBG'
p368
S'B-VP'
p369
g4
tp370
a(S'the'
p371
S'the'
p372
S'DT'
p373
S'B-NP'
p374
g4
tp375
a(S'social'
p376
S'social'
p377
S'JJ'
p378
S'I-NP'
p379
g4
tp380
a(S'skills'
p381
S'skill'
p382
S'NNS'
p383
S'I-NP'
p384
g4
tp385
a(S'of'
p386
S'of'
p387
S'IN'
p388
S'B-PP'
p389
g4
tp390
a(S'adolescents'
p391
S'adolescent'
p392
S'NNS'
p393
S'B-NP'
p394
g4
tp395
a(S'and'
p396
S'and'
p397
S'CC'
p398
g4
g4
tp399
a(S'young'
p400
S'young'
p401
S'JJ'
p402
S'B-NP'
p403
g4
tp404
a(S'adults'
p405
S'adult'
p406
S'NNS'
p407
S'I-NP'
p408
g4
tp409
a(S'with'
p410
S'with'
p411
S'IN'
p412
S'B-PP'
p413
g4
tp414
a(S'ASD'
p415
S'ASD'
p416
S'NN'
p417
S'B-NP'
p418
g4
tp419
a(S'in'
p420
S'in'
p421
S'IN'
p422
S'B-PP'
p423
g4
tp424
a(S'North'
p425
S'North'
p426
S'NNP'
p427
S'B-NP'
p428
g4
tp429
a(S'America'
p430
S'America'
p431
S'NNP'
p432
S'I-NP'
p433
g4
tp434
a(g174
g174
g174
g4
g4
tp435
a(S'the'
p436
S'the'
p437
S'DT'
p438
S'B-NP'
p439
g4
tp440
a(S'efficacy'
p441
S'efficacy'
p442
S'NN'
p443
S'I-NP'
p444
g4
tp445
a(S'of'
p446
S'of'
p447
S'IN'
p448
S'B-PP'
p449
g4
tp450
a(S'this'
p451
S'this'
p452
S'DT'
p453
S'B-NP'
p454
g4
tp455
a(S'treatment'
p456
S'treatment'
p457
S'NN'
p458
S'I-NP'
p459
g4
tp460
a(S'has'
p461
S'have'
p462
S'VBZ'
p463
S'B-VP'
p464
g4
tp465
a(S'yet'
p466
S'yet'
p467
S'RB'
p468
S'I-VP'
p469
g4
tp470
a(S'to'
p471
S'to'
p472
S'TO'
p473
S'I-VP'
p474
g4
tp475
a(S'be'
p476
S'be'
p477
S'VB'
p478
S'I-VP'
p479
g4
tp480
a(S'established'
p481
S'establish'
p482
S'VBN'
p483
S'I-VP'
p484
g4
tp485
a(S'in'
p486
S'in'
p487
S'IN'
p488
S'B-PP'
p489
g4
tp490
a(S'cross-cultural'
p491
S'cross-cultural'
p492
S'JJ'
p493
S'B-NP'
p494
g4
tp495
a(S'validation'
p496
S'validation'
p497
S'NN'
p498
S'I-NP'
p499
g4
tp500
a(S'trials.'
p501
S'trials.'
p502
S'NN'
p503
S'I-NP'
p504
g4
tp505
a(S'The'
p506
S'The'
p507
S'DT'
p508
S'B-NP'
p509
g4
tp510
a(S'objective'
p511
S'objective'
p512
S'NN'
p513
S'I-NP'
p514
g4
tp515
a(S'of'
p516
S'of'
p517
S'IN'
p518
S'B-PP'
p519
g4
tp520
a(S'this'
p521
S'this'
p522
S'DT'
p523
S'B-NP'
p524
g4
tp525
a(S'study'
p526
S'study'
p527
S'NN'
p528
S'I-NP'
p529
g4
tp530
a(S'is'
p531
S'be'
p532
S'VBZ'
p533
S'B-VP'
p534
g4
tp535
a(S'to'
p536
S'to'
p537
S'TO'
p538
S'B-VP'
p539
g4
tp540
a(S'examine'
p541
S'examine'
p542
S'VB'
p543
S'I-VP'
p544
g4
tp545
a(S'the'
p546
S'the'
p547
S'DT'
p548
S'B-NP'
p549
g4
tp550
a(S'feasibility'
p551
S'feasibility'
p552
S'NN'
p553
S'I-NP'
p554
g4
tp555
a(S'and'
p556
S'and'
p557
S'CC'
p558
S'I-NP'
p559
g4
tp560
a(S'treatment'
p561
S'treatment'
p562
S'NN'
p563
S'I-NP'
p564
g4
tp565
a(S'efficacy'
p566
S'efficacy'
p567
S'NN'
p568
S'I-NP'
p569
g4
tp570
a(S'of'
p571
S'of'
p572
S'IN'
p573
S'B-PP'
p574
g4
tp575
a(g133
g133
S'DT'
p576
S'B-NP'
p577
g4
tp578
a(S'Korean'
p579
S'Korean'
p580
S'JJ'
p581
S'I-NP'
p582
g4
tp583
a(S'version'
p584
S'version'
p585
S'NN'
p586
S'I-NP'
p587
g4
tp588
a(S'of'
p589
S'of'
p590
S'IN'
p591
S'B-PP'
p592
g4
tp593
a(S'PEERS'
p594
S'PEERS'
p595
S'NNS'
p596
S'B-NP'
p597
S'B-protein'
p598
tp599
a(g57
g57
g57
g4
g4
tp600
a(S'\xc2\xae'
p601
S'\xc2\xae'
p602
S'NN'
p603
S'B-NP'
p604
g4
tp605
a(g64
g64
g64
g4
g4
tp606
a(S'for'
p607
S'for'
p608
S'IN'
p609
S'B-PP'
p610
g4
tp611
a(S'enhancing'
p612
S'enhance'
p613
S'VBG'
p614
S'B-VP'
p615
g4
tp616
a(S'social'
p617
S'social'
p618
S'JJ'
p619
S'B-NP'
p620
g4
tp621
a(S'skills'
p622
S'skill'
p623
S'NNS'
p624
S'I-NP'
p625
g4
tp626
a(S'through'
p627
S'through'
p628
S'IN'
p629
S'B-PP'
p630
g4
tp631
a(g133
g133
S'DT'
p632
S'B-NP'
p633
g4
tp634
a(S'randomized'
p635
S'randomize'
p636
S'VBN'
p637
S'I-NP'
p638
g4
tp639
a(S'controlled'
p640
S'control'
p641
S'VBN'
p642
S'I-NP'
p643
g4
tp644
a(S'trial'
p645
S'trial'
p646
S'NN'
p647
S'I-NP'
p648
g4
tp649
a(g57
g57
g57
g4
g4
tp650
a(S'RCT'
p651
S'RCT'
p652
S'NN'
p653
S'B-NP'
p654
g4
tp655
a(g64
g64
g64
g4
g4
tp656
a(S'.The'
p657
S'.The'
p658
S'DT'
p659
S'B-NP'
p660
g4
tp661
a(S'English'
p662
S'English'
p663
S'JJ'
p664
S'I-NP'
p665
g4
tp666
a(S'version'
p667
S'version'
p668
S'NN'
p669
S'I-NP'
p670
g4
tp671
a(S'of'
p672
S'of'
p673
S'IN'
p674
S'B-PP'
p675
g4
tp676
a(S'the'
p677
S'the'
p678
S'DT'
p679
S'B-NP'
p680
g4
tp681
a(S'PEERS'
p682
S'PEERS'
p683
S'NNS'
p684
S'I-NP'
p685
S'B-protein'
p686
tp687
a(g57
g57
g57
S'B-LST'
p688
g4
tp689
a(S'\xc2\xae'
p690
S'\xc2\xae'
p691
S'LS'
p692
S'I-LST'
p693
g4
tp694
a(g64
g64
g64
g4
g4
tp695
a(S'Treatment'
p696
S'Treatment'
p697
S'NN'
p698
S'B-NP'
p699
g4
tp700
a(S'Manual'
p701
S'Manual'
p702
S'JJ'
p703
S'B-ADJP'
p704
g4
tp705
a(g57
g57
g57
g4
g4
tp706
a(S'Laugeson'
p707
S'Laugeson'
p708
S'NNP'
p709
S'B-NP'
p710
g4
tp711
a(S'&'
p712
g712
S'CC'
p713
S'I-NP'
p714
g4
tp715
a(S'Frankel'
p716
S'Frankel'
p717
S'NNP'
p718
S'I-NP'
p719
g4
tp720
a(g174
g174
g174
g4
g4
tp721
a(S'2010'
p722
S'2010'
p723
S'CD'
p724
S'B-NP'
p725
g4
tp726
a(g64
g64
g64
g4
g4
tp727
a(S'was'
p728
S'be'
p729
S'VBD'
p730
S'B-VP'
p731
g4
tp732
a(S'translated'
p733
S'translate'
p734
S'VBN'
p735
S'I-VP'
p736
g4
tp737
a(S'into'
p738
S'into'
p739
S'IN'
p740
S'B-PP'
p741
g4
tp742
a(S'Korean'
p743
S'Korean'
p744
S'JJ'
p745
g4
g4
tp746
a(S'and'
p747
S'and'
p748
S'CC'
p749
g4
g4
tp750
a(S'reviewed'
p751
S'review'
p752
S'VBN'
p753
S'B-VP'
p754
g4
tp755
a(S'by'
p756
S'by'
p757
S'IN'
p758
S'B-PP'
p759
g4
tp760
a(S'21'
p761
S'21'
p762
S'CD'
p763
S'B-NP'
p764
g4
tp765
a(S'child'
p766
S'child'
p767
S'NN'
p768
S'I-NP'
p769
g4
tp770
a(S'mental'
p771
S'mental'
p772
S'JJ'
p773
S'I-NP'
p774
g4
tp775
a(S'health'
p776
S'health'
p777
S'NN'
p778
S'I-NP'
p779
g4
tp780
a(S'professionals.'
p781
S'professionals.'
p782
S'NN'
p783
S'I-NP'
p784
g4
tp785
a(S'Items'
p786
S'Item'
p787
S'NNS'
p788
S'I-NP'
p789
g4
tp790
a(S'identified'
p791
S'identify'
p792
S'VBN'
p793
S'B-VP'
p794
g4
tp795
a(S'as'
p796
S'as'
p797
S'IN'
p798
S'B-PP'
p799
g4
tp800
a(S'culturally'
p801
S'culturally'
p802
S'RB'
p803
S'B-NP'
p804
g4
tp805
a(S'sensitive'
p806
S'sensitive'
p807
S'JJ'
p808
S'I-NP'
p809
g4
tp810
a(S'were'
p811
S'be'
p812
S'VBD'
p813
S'B-VP'
p814
g4
tp815
a(S'surveyed'
p816
S'survey'
p817
S'VBN'
p818
S'I-VP'
p819
g4
tp820
a(S'by'
p821
S'by'
p822
S'IN'
p823
S'B-PP'
p824
g4
tp825
a(S'447'
p826
S'447'
p827
S'CD'
p828
S'B-NP'
p829
g4
tp830
a(S'middle'
p831
S'middle'
p832
S'JJ'
p833
S'I-NP'
p834
g4
tp835
a(S'school'
p836
S'school'
p837
S'NN'
p838
S'I-NP'
p839
g4
tp840
a(S'students'
p841
S'student'
p842
S'NNS'
p843
S'I-NP'
p844
g4
tp845
a(g174
g174
g174
g4
g4
tp846
a(S'and'
p847
S'and'
p848
S'CC'
p849
g4
g4
tp850
a(S'material'
p851
S'material'
p852
S'NN'
p853
S'B-NP'
p854
g4
tp855
a(S'was'
p856
S'be'
p857
S'VBD'
p858
S'B-VP'
p859
g4
tp860
a(S'modified'
p861
S'modify'
p862
S'VBN'
p863
S'I-VP'
p864
g4
tp865
a(S'accordingly.'
p866
S'accordingly.'
p867
S'RB'
p868
S'B-NP'
p869
g4
tp870
a(S'Participants'
p871
S'Participant'
p872
S'NNPS'
p873
S'I-NP'
p874
g4
tp875
a(S'included'
p876
S'include'
p877
S'VBD'
p878
S'B-VP'
p879
g4
tp880
a(S'47'
p881
S'47'
p882
S'CD'
p883
S'B-NP'
p884
g4
tp885
a(S'teens'
p886
S'teen'
p887
S'NNS'
p888
S'I-NP'
p889
g4
tp890
a(S'between'
p891
S'between'
p892
S'IN'
p893
S'B-PP'
p894
g4
tp895
a(S'12'
p896
S'12'
p897
S'CD'
p898
S'B-NP'
p899
g4
tp900
a(S'and'
p901
S'and'
p902
S'CC'
p903
S'I-NP'
p904
g4
tp905
a(S'18'
p906
S'18'
p907
S'CD'
p908
S'I-NP'
p909
g4
tp910
a(S'years'
p911
S'year'
p912
S'NNS'
p913
S'I-NP'
p914
g4
tp915
a(S'of'
p916
S'of'
p917
S'IN'
p918
S'B-PP'
p919
g4
tp920
a(S'age'
p921
S'age'
p922
S'NN'
p923
S'B-NP'
p924
g4
tp925
a(S'with'
p926
S'with'
p927
S'IN'
p928
S'B-PP'
p929
g4
tp930
a(g133
g133
S'DT'
p931
S'B-NP'
p932
g4
tp933
a(S'diagnosis'
p934
S'diagnosis'
p935
S'NN'
p936
S'I-NP'
p937
g4
tp938
a(S'of'
p939
S'of'
p940
S'IN'
p941
S'B-PP'
p942
g4
tp943
a(S'ASD'
p944
S'ASD'
p945
S'NN'
p946
S'B-NP'
p947
g4
tp948
a(S'and'
p949
S'and'
p950
S'CC'
p951
g4
g4
tp952
a(g133
g133
S'DT'
p953
S'B-NP'
p954
g4
tp955
a(S'verbal'
p956
S'verbal'
p957
S'JJ'
p958
S'I-NP'
p959
g4
tp960
a(S'intelligence'
p961
S'intelligence'
p962
S'NN'
p963
S'I-NP'
p964
g4
tp965
a(S'quotient'
p966
S'quotient'
p967
S'NN'
p968
S'I-NP'
p969
g4
tp970
a(g57
g57
g57
g4
g4
tp971
a(S'IQ'
p972
S'IQ'
p973
S'NN'
p974
S'B-NP'
p975
g4
tp976
a(g64
g64
g64
g4
g4
tp977
a(S'\xe2\x89\xa5'
p978
S'\xe2\x89\xa5'
p979
S'VBP'
p980
S'B-VP'
p981
g4
tp982
a(S'65.'
p983
S'65.'
p984
S'CD'
p985
S'B-NP'
p986
g4
tp987
a(S'Eligible'
p988
S'Eligible'
p989
S'JJ'
p990
S'I-NP'
p991
g4
tp992
a(S'teens'
p993
S'teen'
p994
S'NNS'
p995
S'I-NP'
p996
g4
tp997
a(S'were'
p998
S'be'
p999
S'VBD'
p1000
S'B-VP'
p1001
g4
tp1002
a(S'randomly'
p1003
S'randomly'
p1004
S'RB'
p1005
S'I-VP'
p1006
g4
tp1007
a(S'assigned'
p1008
S'assign'
p1009
S'VBN'
p1010
S'I-VP'
p1011
g4
tp1012
a(S'to'
p1013
S'to'
p1014
S'TO'
p1015
S'B-PP'
p1016
g4
tp1017
a(g133
g133
S'DT'
p1018
S'B-NP'
p1019
g4
tp1020
a(S'treatment'
p1021
S'treatment'
p1022
S'NN'
p1023
S'I-NP'
p1024
g4
tp1025
a(S'group'
p1026
S'group'
p1027
S'NN'
p1028
S'I-NP'
p1029
g4
tp1030
a(g57
g57
g57
g4
g4
tp1031
a(S'TG'
p1032
S'TG'
p1033
S'NN'
p1034
S'B-NP'
p1035
S'B-protein'
p1036
tp1037
a(g64
g64
g64
g4
g4
tp1038
a(S'or'
p1039
S'or'
p1040
S'CC'
p1041
g4
g4
tp1042
a(S'delayed'
p1043
S'delay'
p1044
S'VBN'
p1045
S'B-NP'
p1046
g4
tp1047
a(S'treatment'
p1048
S'treatment'
p1049
S'NN'
p1050
S'I-NP'
p1051
g4
tp1052
a(S'control'
p1053
S'control'
p1054
S'NN'
p1055
S'I-NP'
p1056
g4
tp1057
a(S'group'
p1058
S'group'
p1059
S'NN'
p1060
S'I-NP'
p1061
g4
tp1062
a(g57
g57
g57
g4
g4
tp1063
a(S'CG'
p1064
S'CG'
p1065
S'NN'
p1066
S'B-NP'
p1067
g4
tp1068
a(g64
g64
g64
g4
g4
tp1069
a(g111
g111
g111
g4
g4
tp1070
a(S'Primary'
p1071
S'Primary'
p1072
S'JJ'
p1073
S'B-NP'
p1074
S'B-DNA'
p1075
tp1076
a(S'outcome'
p1077
S'outcome'
p1078
S'NN'
p1079
S'I-NP'
p1080
S'I-DNA'
p1081
tp1082
a(S'measures'
p1083
S'measure'
p1084
S'NNS'
p1085
S'I-NP'
p1086
S'I-DNA'
p1087
tp1088
a(S'included'
p1089
S'include'
p1090
S'VBD'
p1091
S'B-VP'
p1092
S'I-DNA'
p1093
tp1094
a(S'questionnaires'
p1095
S'questionnaire'
p1096
S'NNS'
p1097
S'B-NP'
p1098
S'I-DNA'
p1099
tp1100
a(S'and'
p1101
S'and'
p1102
S'CC'
p1103
g4
g4
tp1104
a(S'direct'
p1105
S'direct'
p1106
S'JJ'
p1107
S'B-NP'
p1108
g4
tp1109
a(S'observations'
p1110
S'observation'
p1111
S'NNS'
p1112
S'I-NP'
p1113
g4
tp1114
a(S'quantifying'
p1115
S'quantify'
p1116
S'VBG'
p1117
S'B-VP'
p1118
g4
tp1119
a(S'social'
p1120
S'social'
p1121
S'JJ'
p1122
S'B-NP'
p1123
g4
tp1124
a(S'ability'
p1125
S'ability'
p1126
S'NN'
p1127
S'I-NP'
p1128
g4
tp1129
a(S'and'
p1130
S'and'
p1131
S'CC'
p1132
S'I-NP'
p1133
g4
tp1134
a(S'problems'
p1135
S'problem'
p1136
S'NNS'
p1137
S'I-NP'
p1138
g4
tp1139
a(S'directly'
p1140
S'directly'
p1141
S'RB'
p1142
S'B-VP'
p1143
g4
tp1144
a(S'related'
p1145
S'relate'
p1146
S'VBN'
p1147
S'I-VP'
p1148
g4
tp1149
a(S'to'
p1150
S'to'
p1151
S'TO'
p1152
S'B-PP'
p1153
g4
tp1154
a(S'ASD.'
p1155
S'ASD.'
p1156
S'NNP'
p1157
S'B-NP'
p1158
g4
tp1159
a(S'Secondary'
p1160
S'Secondary'
p1161
S'NNP'
p1162
S'I-NP'
p1163
g4
tp1164
a(S'outcome'
p1165
S'outcome'
p1166
S'NN'
p1167
S'I-NP'
p1168
g4
tp1169
a(S'measures'
p1170
S'measure'
p1171
S'NNS'
p1172
S'I-NP'
p1173
g4
tp1174
a(S'included'
p1175
S'include'
p1176
S'VBD'
p1177
S'B-VP'
p1178
g4
tp1179
a(S'scales'
p1180
S'scale'
p1181
S'NNS'
p1182
S'B-NP'
p1183
g4
tp1184
a(S'for'
p1185
S'for'
p1186
S'IN'
p1187
S'B-PP'
p1188
g4
tp1189
a(S'depressive'
p1190
S'depressive'
p1191
S'JJ'
p1192
S'B-NP'
p1193
g4
tp1194
a(S'symptoms'
p1195
S'symptom'
p1196
S'NNS'
p1197
S'I-NP'
p1198
g4
tp1199
a(g174
g174
g174
g4
g4
tp1200
a(S'anxiety'
p1201
S'anxiety'
p1202
S'NN'
p1203
S'B-NP'
p1204
g4
tp1205
a(g174
g174
g174
g4
g4
tp1206
a(S'and'
p1207
S'and'
p1208
S'CC'
p1209
g4
g4
tp1210
a(S'other'
p1211
S'other'
p1212
S'JJ'
p1213
S'B-NP'
p1214
g4
tp1215
a(S'behavioral'
p1216
S'behavioral'
p1217
S'JJ'
p1218
S'I-NP'
p1219
g4
tp1220
a(S'problems.'
p1221
S'problems.'
p1222
S'NN'
p1223
S'I-NP'
p1224
g4
tp1225
a(S'Rating'
p1226
S'Rating'
p1227
S'NN'
p1228
S'I-NP'
p1229
g4
tp1230
a(S'scales'
p1231
S'scale'
p1232
S'NNS'
p1233
S'I-NP'
p1234
g4
tp1235
a(S'for'
p1236
S'for'
p1237
S'IN'
p1238
S'B-PP'
p1239
g4
tp1240
a(S'parental'
p1241
S'parental'
p1242
S'JJ'
p1243
S'B-NP'
p1244
g4
tp1245
a(S'depressive'
p1246
S'depressive'
p1247
S'JJ'
p1248
S'I-NP'
p1249
g4
tp1250
a(S'symptoms'
p1251
S'symptom'
p1252
S'NNS'
p1253
S'I-NP'
p1254
g4
tp1255
a(S'and'
p1256
S'and'
p1257
S'CC'
p1258
S'I-NP'
p1259
g4
tp1260
a(S'anxiety'
p1261
S'anxiety'
p1262
S'NN'
p1263
S'I-NP'
p1264
g4
tp1265
a(S'were'
p1266
S'be'
p1267
S'VBD'
p1268
S'B-VP'
p1269
g4
tp1270
a(S'examined'
p1271
S'examine'
p1272
S'VBN'
p1273
S'I-VP'
p1274
g4
tp1275
a(S'to'
p1276
S'to'
p1277
S'TO'
p1278
S'B-VP'
p1279
g4
tp1280
a(S'detect'
p1281
S'detect'
p1282
S'VB'
p1283
S'I-VP'
p1284
g4
tp1285
a(S'changes'
p1286
S'change'
p1287
S'NNS'
p1288
S'B-NP'
p1289
g4
tp1290
a(S'in'
p1291
S'in'
p1292
S'IN'
p1293
S'B-PP'
p1294
g4
tp1295
a(S'parental'
p1296
S'parental'
p1297
S'JJ'
p1298
S'B-NP'
p1299
g4
tp1300
a(S'psychosocial'
p1301
S'psychosocial'
p1302
S'JJ'
p1303
S'I-NP'
p1304
g4
tp1305
a(S'functioning'
p1306
S'functioning'
p1307
S'NN'
p1308
S'I-NP'
p1309
g4
tp1310
a(S'throughout'
p1311
S'throughout'
p1312
S'IN'
p1313
S'B-PP'
p1314
g4
tp1315
a(S'the'
p1316
S'the'
p1317
S'DT'
p1318
S'B-NP'
p1319
g4
tp1320
a(S'PEERS'
p1321
S'PEERS'
p1322
S'NNS'
p1323
S'I-NP'
p1324
S'B-protein'
p1325
tp1326
a(g57
g57
g57
S'B-LST'
p1327
g4
tp1328
a(S'\xc2\xae'
p1329
S'\xc2\xae'
p1330
S'LS'
p1331
S'I-LST'
p1332
g4
tp1333
a(g64
g64
g64
g4
g4
tp1334
a(S'treatment.'
p1335
S'treatment.'
p1336
S'NN'
p1337
S'B-NP'
p1338
g4
tp1339
a(S'Independent'
p1340
S'Independent'
p1341
S'JJ'
p1342
S'I-NP'
p1343
g4
tp1344
a(S'samples'
p1345
S'sample'
p1346
S'NNS'
p1347
S'I-NP'
p1348
g4
tp1349
a(S't-tests'
p1350
S't-test'
p1351
S'NNS'
p1352
S'I-NP'
p1353
g4
tp1354
a(S'revealed'
p1355
S'reveal'
p1356
S'VBD'
p1357
S'B-VP'
p1358
g4
tp1359
a(S'no'
p1360
S'no'
p1361
S'DT'
p1362
S'B-NP'
p1363
g4
tp1364
a(S'significant'
p1365
S'significant'
p1366
S'JJ'
p1367
S'I-NP'
p1368
g4
tp1369
a(S'differences'
p1370
S'difference'
p1371
S'NNS'
p1372
S'I-NP'
p1373
g4
tp1374
a(S'at'
p1375
S'at'
p1376
S'IN'
p1377
S'B-PP'
p1378
g4
tp1379
a(S'baseline'
p1380
S'baseline'
p1381
S'NN'
p1382
S'B-NP'
p1383
g4
tp1384
a(S'across'
p1385
S'across'
p1386
S'IN'
p1387
S'B-PP'
p1388
g4
tp1389
a(S'the'
p1390
S'the'
p1391
S'DT'
p1392
S'B-NP'
p1393
g4
tp1394
a(S'TG'
p1395
S'TG'
p1396
S'NN'
p1397
S'I-NP'
p1398
g4
tp1399
a(S'and'
p1400
S'and'
p1401
S'CC'
p1402
S'I-NP'
p1403
g4
tp1404
a(S'CG'
p1405
S'CG'
p1406
S'NN'
p1407
S'I-NP'
p1408
g4
tp1409
a(S'conditions'
p1410
S'condition'
p1411
S'NNS'
p1412
S'I-NP'
p1413
g4
tp1414
a(S'with'
p1415
S'with'
p1416
S'IN'
p1417
S'B-PP'
p1418
g4
tp1419
a(S'regard'
p1420
S'regard'
p1421
S'NN'
p1422
S'B-NP'
p1423
g4
tp1424
a(S'to'
p1425
S'to'
p1426
S'TO'
p1427
S'B-PP'
p1428
g4
tp1429
a(S'age'
p1430
S'age'
p1431
S'NN'
p1432
S'B-NP'
p1433
g4
tp1434
a(g57
g57
g57
g4
g4
tp1435
a(S'14.04'
p1436
S'14.04'
p1437
S'CD'
p1438
S'B-NP'
p1439
g4
tp1440
a(S'\xc2\xb1'
p1441
S'\xc2\xb1'
p1442
S'CC'
p1443
S'I-NP'
p1444
g4
tp1445
a(S'1.64'
p1446
S'1.64'
p1447
S'CD'
p1448
S'I-NP'
p1449
g4
tp1450
a(S'and'
p1451
S'and'
p1452
S'CC'
p1453
S'I-NP'
p1454
g4
tp1455
a(S'13.54'
p1456
S'13.54'
p1457
S'CD'
p1458
S'I-NP'
p1459
g4
tp1460
a(S'\xc2\xb1'
p1461
S'\xc2\xb1'
p1462
S'CC'
p1463
S'I-NP'
p1464
g4
tp1465
a(S'1.50'
p1466
S'1.50'
p1467
S'CD'
p1468
S'I-NP'
p1469
g4
tp1470
a(S'years'
p1471
S'year'
p1472
S'NNS'
p1473
S'I-NP'
p1474
g4
tp1475
a(g64
g64
g64
g4
g4
tp1476
a(g174
g174
g174
g4
g4
tp1477
a(S'IQ'
p1478
S'IQ'
p1479
S'NN'
p1480
S'B-NP'
p1481
S'B-protein'
p1482
tp1483
a(g57
g57
g57
g4
g4
tp1484
a(S'99.39'
p1485
S'99.39'
p1486
S'CD'
p1487
S'B-NP'
p1488
g4
tp1489
a(S'\xc2\xb1'
p1490
S'\xc2\xb1'
p1491
S'CC'
p1492
S'I-NP'
p1493
g4
tp1494
a(S'18.09'
p1495
S'18.09'
p1496
S'CD'
p1497
S'I-NP'
p1498
g4
tp1499
a(g712
g712
S'CC'
p1500
S'I-NP'
p1501
g4
tp1502
a(S'100.67'
p1503
S'100.67'
p1504
S'CD'
p1505
S'I-NP'
p1506
g4
tp1507
a(S'\xc2\xb1'
p1508
S'\xc2\xb1'
p1509
S'NN'
p1510
S'I-NP'
p1511
g4
tp1512
a(S'16.97'
p1513
S'16.97'
p1514
S'CD'
p1515
S'I-NP'
p1516
g4
tp1517
a(g64
g64
g64
g4
g4
tp1518
a(g174
g174
g174
g4
g4
tp1519
a(S'parental'
p1520
S'parental'
p1521
S'JJ'
p1522
S'B-NP'
p1523
g4
tp1524
a(S'education'
p1525
S'education'
p1526
S'NN'
p1527
S'I-NP'
p1528
g4
tp1529
a(g174
g174
g174
g4
g4
tp1530
a(S'socioeconomic'
p1531
S'socioeconomic'
p1532
S'JJ'
p1533
S'B-NP'
p1534
g4
tp1535
a(S'status'
p1536
S'status'
p1537
S'NN'
p1538
S'I-NP'
p1539
g4
tp1540
a(g174
g174
g174
g4
g4
tp1541
a(S'or'
p1542
S'or'
p1543
S'CC'
p1544
g4
g4
tp1545
a(S'ASD'
p1546
S'ASD'
p1547
S'NN'
p1548
S'B-NP'
p1549
g4
tp1550
a(S'symptoms'
p1551
S'symptom'
p1552
S'NNS'
p1553
S'I-NP'
p1554
g4
tp1555
a(g57
g57
g57
g4
g4
tp1556
a(S'p'
p1557
g1557
S'NN'
p1558
S'B-NP'
p1559
g4
tp1560
a(S'<'
p1561
g1561
S'SYM'
p1562
g4
g4
tp1563
a(S'0.05'
p1564
S'0.05'
p1565
S'CD'
p1566
S'B-NP'
p1567
g4
tp1568
a(g64
g64
g64
g4
g4
tp1569
a(g174
g174
g174
g4
g4
tp1570
a(S'respectively.'
p1571
S'respectively.'
p1572
S'NN'
p1573
S'B-NP'
p1574
g4
tp1575
a(S'Results'
p1576
S'Result'
p1577
S'NNS'
p1578
S'I-NP'
p1579
g4
tp1580
a(S'for'
p1581
S'for'
p1582
S'IN'
p1583
S'B-PP'
p1584
g4
tp1585
a(S'treatment'
p1586
S'treatment'
p1587
S'NN'
p1588
S'B-NP'
p1589
g4
tp1590
a(S'outcome'
p1591
S'outcome'
p1592
S'NN'
p1593
S'I-NP'
p1594
g4
tp1595
a(S'suggest'
p1596
S'suggest'
p1597
S'VBP'
p1598
S'B-VP'
p1599
g4
tp1600
a(S'that'
p1601
S'that'
p1602
S'IN'
p1603
S'B-SBAR'
p1604
g4
tp1605
a(S'the'
p1606
S'the'
p1607
S'DT'
p1608
S'B-NP'
p1609
g4
tp1610
a(S'TG'
p1611
S'TG'
p1612
S'NN'
p1613
S'I-NP'
p1614
S'B-protein'
p1615
tp1616
a(S'showed'
p1617
S'show'
p1618
S'VBD'
p1619
S'B-VP'
p1620
g4
tp1621
a(S'significant'
p1622
S'significant'
p1623
S'JJ'
p1624
S'B-NP'
p1625
g4
tp1626
a(S'improvement'
p1627
S'improvement'
p1628
S'NN'
p1629
S'I-NP'
p1630
g4
tp1631
a(S'in'
p1632
S'in'
p1633
S'IN'
p1634
S'B-PP'
p1635
g4
tp1636
a(S'communication'
p1637
S'communication'
p1638
S'NN'
p1639
S'B-NP'
p1640
g4
tp1641
a(S'and'
p1642
S'and'
p1643
S'CC'
p1644
g4
g4
tp1645
a(S'social'
p1646
S'social'
p1647
S'JJ'
p1648
S'B-NP'
p1649
g4
tp1650
a(S'interaction'
p1651
S'interaction'
p1652
S'NN'
p1653
S'I-NP'
p1654
g4
tp1655
a(S'domain'
p1656
S'domain'
p1657
S'NN'
p1658
S'I-NP'
p1659
g4
tp1660
a(S'scores'
p1661
S'score'
p1662
S'NNS'
p1663
S'I-NP'
p1664
g4
tp1665
a(S'on'
p1666
S'on'
p1667
S'IN'
p1668
S'B-PP'
p1669
g4
tp1670
a(S'the'
p1671
S'the'
p1672
S'DT'
p1673
S'B-NP'
p1674
g4
tp1675
a(S'Autism'
p1676
S'Autism'
p1677
S'NNP'
p1678
S'I-NP'
p1679
g4
tp1680
a(S'Diagnostic'
p1681
S'Diagnostic'
p1682
S'NNP'
p1683
S'I-NP'
p1684
g4
tp1685
a(S'Observation'
p1686
S'Observation'
p1687
S'NNP'
p1688
S'I-NP'
p1689
g4
tp1690
a(S'Schedule'
p1691
S'Schedule'
p1692
S'NNP'
p1693
S'I-NP'
p1694
g4
tp1695
a(g174
g174
g174
g4
g4
tp1696
a(S'interpersonal'
p1697
S'interpersonal'
p1698
S'JJ'
p1699
S'B-NP'
p1700
g4
tp1701
a(S'relationship'
p1702
S'relationship'
p1703
S'NN'
p1704
S'I-NP'
p1705
g4
tp1706
a(S'and'
p1707
S'and'
p1708
S'CC'
p1709
g4
g4
tp1710
a(S'play/leisure'
p1711
S'play/leisure'
p1712
S'NN'
p1713
S'B-NP'
p1714
g4
tp1715
a(S'time'
p1716
S'time'
p1717
S'NN'
p1718
S'I-NP'
p1719
g4
tp1720
a(S'on'
p1721
S'on'
p1722
S'IN'
p1723
S'B-PP'
p1724
g4
tp1725
a(S'the'
p1726
S'the'
p1727
S'DT'
p1728
S'B-NP'
p1729
g4
tp1730
a(S'subdomain'
p1731
S'subdomain'
p1732
S'NN'
p1733
S'I-NP'
p1734
g4
tp1735
a(S'scores'
p1736
S'score'
p1737
S'NNS'
p1738
S'I-NP'
p1739
g4
tp1740
a(S'of'
p1741
S'of'
p1742
S'IN'
p1743
S'B-PP'
p1744
g4
tp1745
a(S'the'
p1746
S'the'
p1747
S'DT'
p1748
S'B-NP'
p1749
g4
tp1750
a(S'Korean'
p1751
S'Korean'
p1752
S'JJ'
p1753
S'I-NP'
p1754
g4
tp1755
a(S'version'
p1756
S'version'
p1757
S'NN'
p1758
S'I-NP'
p1759
g4
tp1760
a(S'of'
p1761
S'of'
p1762
S'IN'
p1763
S'B-PP'
p1764
g4
tp1765
a(S'the'
p1766
S'the'
p1767
S'DT'
p1768
S'B-NP'
p1769
g4
tp1770
a(S'Vineland'
p1771
S'Vineland'
p1772
S'NNP'
p1773
S'I-NP'
p1774
g4
tp1775
a(S'Adaptive'
p1776
S'Adaptive'
p1777
S'NNP'
p1778
S'I-NP'
p1779
g4
tp1780
a(S'Behavior'
p1781
S'Behavior'
p1782
S'NNP'
p1783
S'I-NP'
p1784
g4
tp1785
a(S'Scale'
p1786
S'Scale'
p1787
S'NNP'
p1788
S'I-NP'
p1789
g4
tp1790
a(g57
g57
g57
g4
g4
tp1791
a(g1557
g1557
S'NN'
p1792
S'B-NP'
p1793
g4
tp1794
a(S"'s"
p1795
S"'s"
p1796
S'POS'
p1797
S'B-NP'
p1798
g4
tp1799
a(g1561
g1561
S'SYM'
p1800
S'I-NP'
p1801
g4
tp1802
a(S'0.01'
p1803
S'0.01'
p1804
S'CD'
p1805
S'I-NP'
p1806
g4
tp1807
a(g64
g64
g64
g4
g4
tp1808
a(g174
g174
g174
g4
g4
tp1809
a(S'social'
p1810
S'social'
p1811
S'JJ'
p1812
S'B-NP'
p1813
g4
tp1814
a(S'skills'
p1815
S'skill'
p1816
S'NNS'
p1817
S'I-NP'
p1818
g4
tp1819
a(S'knowledge'
p1820
S'knowledge'
p1821
S'VBP'
p1822
S'B-VP'
p1823
g4
tp1824
a(S'total'
p1825
S'total'
p1826
S'JJ'
p1827
S'B-NP'
p1828
g4
tp1829
a(S'scores'
p1830
S'score'
p1831
S'NNS'
p1832
S'I-NP'
p1833
g4
tp1834
a(S'on'
p1835
S'on'
p1836
S'IN'
p1837
S'B-PP'
p1838
g4
tp1839
a(S'the'
p1840
S'the'
p1841
S'DT'
p1842
S'B-NP'
p1843
g4
tp1844
a(S'Test'
p1845
S'Test'
p1846
S'NN'
p1847
S'I-NP'
p1848
g4
tp1849
a(S'of'
p1850
S'of'
p1851
S'IN'
p1852
S'B-PP'
p1853
g4
tp1854
a(S'Adolescent'
p1855
S'Adolescent'
p1856
S'NNP'
p1857
S'B-NP'
p1858
g4
tp1859
a(S'Social'
p1860
S'Social'
p1861
S'NNP'
p1862
S'I-NP'
p1863
g4
tp1864
a(S'Skills'
p1865
S'Skills'
p1866
S'NNP'
p1867
S'I-NP'
p1868
g4
tp1869
a(S'Knowledge-Revised'
p1870
S'Knowledge-Revised'
p1871
S'NNP'
p1872
S'I-NP'
p1873
g4
tp1874
a(g57
g57
g57
g4
g4
tp1875
a(g1557
g1557
S'NN'
p1876
S'B-NP'
p1877
g4
tp1878
a(g1561
g1561
S'SYM'
p1879
g4
g4
tp1880
a(S'0.01'
p1881
S'0.01'
p1882
S'CD'
p1883
S'B-NP'
p1884
g4
tp1885
a(g64
g64
g64
g4
g4
tp1886
a(g174
g174
g174
g4
g4
tp1887
a(S'and'
p1888
S'and'
p1889
S'CC'
p1890
g4
g4
tp1891
a(S'decreased'
p1892
S'decrease'
p1893
S'VBD'
p1894
S'B-VP'
p1895
g4
tp1896
a(S'depressive'
p1897
S'depressive'
p1898
S'JJ'
p1899
S'B-NP'
p1900
g4
tp1901
a(S'symptoms'
p1902
S'symptom'
p1903
S'NNS'
p1904
S'I-NP'
p1905
g4
tp1906
a(S'on'
p1907
S'on'
p1908
S'IN'
p1909
S'B-PP'
p1910
g4
tp1911
a(S'the'
p1912
S'the'
p1913
S'DT'
p1914
S'B-NP'
p1915
g4
tp1916
a(S'Child'
p1917
S'Child'
p1918
S'NNP'
p1919
S'I-NP'
p1920
g4
tp1921
a(S'Depression'
p1922
S'Depression'
p1923
S'NNP'
p1924
S'I-NP'
p1925
g4
tp1926
a(S'Inventory'
p1927
S'Inventory'
p1928
S'NNP'
p1929
S'I-NP'
p1930
g4
tp1931
a(S'following'
p1932
S'follow'
p1933
S'VBG'
p1934
S'B-PP'
p1935
g4
tp1936
a(S'treatment'
p1937
S'treatment'
p1938
S'NN'
p1939
S'B-NP'
p1940
g4
tp1941
a(g57
g57
g57
g4
g4
tp1942
a(g1557
g1557
S'NN'
p1943
S'B-NP'
p1944
g4
tp1945
a(g1561
g1561
S'SYM'
p1946
g4
g4
tp1947
a(S'0.05'
p1948
S'0.05'
p1949
S'CD'
p1950
S'B-NP'
p1951
g4
tp1952
a(g64
g64
g64
g4
g4
tp1953
a(g111
g111
g111
g4
g4
tp1954
a(S'Analyses'
p1955
S'Analysis'
p1956
S'NNS'
p1957
S'B-NP'
p1958
g4
tp1959
a(S'of'
p1960
S'of'
p1961
S'IN'
p1962
S'B-PP'
p1963
g4
tp1964
a(S'parental'
p1965
S'parental'
p1966
S'JJ'
p1967
S'B-NP'
p1968
g4
tp1969
a(S'outcome'
p1970
S'outcome'
p1971
S'NN'
p1972
S'I-NP'
p1973
g4
tp1974
a(S'reveal'
p1975
S'reveal'
p1976
S'VBP'
p1977
S'B-VP'
p1978
g4
tp1979
a(g133
g133
S'DT'
p1980
S'B-NP'
p1981
g4
tp1982
a(S'significant'
p1983
S'significant'
p1984
S'JJ'
p1985
S'I-NP'
p1986
g4
tp1987
a(S'decrease'
p1988
S'decrease'
p1989
S'NN'
p1990
S'I-NP'
p1991
g4
tp1992
a(S'in'
p1993
S'in'
p1994
S'IN'
p1995
S'B-PP'
p1996
g4
tp1997
a(S'maternal'
p1998
S'maternal'
p1999
S'JJ'
p2000
S'B-NP'
p2001
g4
tp2002
a(S'state'
p2003
S'state'
p2004
S'NN'
p2005
S'I-NP'
p2006
g4
tp2007
a(S'anxiety'
p2008
S'anxiety'
p2009
S'NN'
p2010
S'I-NP'
p2011
g4
tp2012
a(S'in'
p2013
S'in'
p2014
S'IN'
p2015
S'B-PP'
p2016
g4
tp2017
a(S'the'
p2018
S'the'
p2019
S'DT'
p2020
S'B-NP'
p2021
g4
tp2022
a(S'TG'
p2023
S'TG'
p2024
S'NN'
p2025
S'I-NP'
p2026
g4
tp2027
a(S'after'
p2028
S'after'
p2029
S'IN'
p2030
S'B-PP'
p2031
g4
tp2032
a(S'controlling'
p2033
S'control'
p2034
S'VBG'
p2035
S'B-VP'
p2036
g4
tp2037
a(S'for'
p2038
S'for'
p2039
S'IN'
p2040
S'B-PP'
p2041
g4
tp2042
a(S'potential'
p2043
S'potential'
p2044
S'JJ'
p2045
S'B-NP'
p2046
g4
tp2047
a(S'confounding'
p2048
S'confound'
p2049
S'VBG'
p2050
S'I-NP'
p2051
g4
tp2052
a(S'variables'
p2053
S'variable'
p2054
S'NNS'
p2055
S'I-NP'
p2056
g4
tp2057
a(g57
g57
g57
g4
g4
tp2058
a(g1557
g1557
S'NN'
p2059
S'B-NP'
p2060
g4
tp2061
a(g1561
g1561
S'SYM'
p2062
g4
g4
tp2063
a(S'0.05'
p2064
S'0.05'
p2065
S'CD'
p2066
S'B-NP'
p2067
g4
tp2068
a(g64
g64
g64
g4
g4
tp2069
a(g111
g111
g111
g4
g4
tp2070
a(S'Despite'
p2071
S'Despite'
p2072
S'IN'
p2073
S'B-PP'
p2074
g4
tp2075
a(S'cultural'
p2076
S'cultural'
p2077
S'JJ'
p2078
S'B-NP'
p2079
g4
tp2080
a(S'and'
p2081
S'and'
p2082
S'CC'
p2083
S'I-NP'
p2084
g4
tp2085
a(S'linguistic'
p2086
S'linguistic'
p2087
S'JJ'
p2088
S'I-NP'
p2089
g4
tp2090
a(S'differences'
p2091
S'difference'
p2092
S'NNS'
p2093
S'I-NP'
p2094
g4
tp2095
a(g174
g174
g174
g4
g4
tp2096
a(S'the'
p2097
S'the'
p2098
S'DT'
p2099
S'B-NP'
p2100
g4
tp2101
a(S'PEERS'
p2102
S'PEERS'
p2103
S'NNS'
p2104
S'I-NP'
p2105
S'B-protein'
p2106
tp2107
a(g57
g57
g57
g4
g4
tp2108
a(S'\xc2\xae'
p2109
S'\xc2\xae'
p2110
S'NNS'
p2111
S'B-NP'
p2112
g4
tp2113
a(g64
g64
g64
g4
g4
tp2114
a(S'social'
p2115
S'social'
p2116
S'JJ'
p2117
S'B-NP'
p2118
g4
tp2119
a(S'skills'
p2120
S'skill'
p2121
S'NNS'
p2122
S'I-NP'
p2123
g4
tp2124
a(S'intervention'
p2125
S'intervention'
p2126
S'NN'
p2127
S'I-NP'
p2128
g4
tp2129
a(S'appears'
p2130
S'appear'
p2131
S'VBZ'
p2132
S'B-VP'
p2133
g4
tp2134
a(S'to'
p2135
S'to'
p2136
S'TO'
p2137
S'I-VP'
p2138
g4
tp2139
a(S'be'
p2140
S'be'
p2141
S'VB'
p2142
S'I-VP'
p2143
g4
tp2144
a(S'efficacious'
p2145
S'efficacious'
p2146
S'JJ'
p2147
S'B-ADJP'
p2148
g4
tp2149
a(S'for'
p2150
S'for'
p2151
S'IN'
p2152
S'B-PP'
p2153
g4
tp2154
a(S'teens'
p2155
S'teen'
p2156
S'NNS'
p2157
S'B-NP'
p2158
g4
tp2159
a(S'with'
p2160
S'with'
p2161
S'IN'
p2162
S'B-PP'
p2163
g4
tp2164
a(S'ASD'
p2165
S'ASD'
p2166
S'NN'
p2167
S'B-NP'
p2168
g4
tp2169
a(S'in'
p2170
S'in'
p2171
S'IN'
p2172
S'B-PP'
p2173
g4
tp2174
a(S'Korea'
p2175
S'Korea'
p2176
S'NN'
p2177
S'B-NP'
p2178
g4
tp2179
a(S'with'
p2180
S'with'
p2181
S'IN'
p2182
S'B-PP'
p2183
g4
tp2184
a(S'modest'
p2185
S'modest'
p2186
S'JJ'
p2187
S'B-NP'
p2188
g4
tp2189
a(S'cultural'
p2190
S'cultural'
p2191
S'JJ'
p2192
S'I-NP'
p2193
g4
tp2194
a(S'adjustment.'
p2195
S'adjustment.'
p2196
S'NN'
p2197
S'I-NP'
p2198
g4
tp2199
a(S'In'
p2200
S'In'
p2201
S'IN'
p2202
S'B-PP'
p2203
g4
tp2204
a(S'an'
p2205
S'an'
p2206
S'DT'
p2207
S'B-NP'
p2208
g4
tp2209
a(S'RCT'
p2210
S'RCT'
p2211
S'NN'
p2212
S'I-NP'
p2213
S'B-DNA'
p2214
tp2215
a(g174
g174
g174
g4
g4
tp2216
a(S'participants'
p2217
S'participant'
p2218
S'NNS'
p2219
S'B-NP'
p2220
g4
tp2221
a(S'receiving'
p2222
S'receive'
p2223
S'VBG'
p2224
S'B-VP'
p2225
g4
tp2226
a(S'the'
p2227
S'the'
p2228
S'DT'
p2229
S'B-NP'
p2230
g4
tp2231
a(S'PEERS'
p2232
S'PEERS'
p2233
S'NNS'
p2234
S'I-NP'
p2235
S'B-protein'
p2236
tp2237
a(g57
g57
g57
S'B-LST'
p2238
g4
tp2239
a(S'\xc2\xae'
p2240
S'\xc2\xae'
p2241
S'LS'
p2242
S'I-LST'
p2243
g4
tp2244
a(g64
g64
g64
g4
g4
tp2245
a(S'treatment'
p2246
S'treatment'
p2247
S'NN'
p2248
S'B-NP'
p2249
g4
tp2250
a(S'showed'
p2251
S'show'
p2252
S'VBD'
p2253
S'B-VP'
p2254
g4
tp2255
a(S'significant'
p2256
S'significant'
p2257
S'JJ'
p2258
S'B-NP'
p2259
g4
tp2260
a(S'improvement'
p2261
S'improvement'
p2262
S'NN'
p2263
S'I-NP'
p2264
g4
tp2265
a(S'in'
p2266
S'in'
p2267
S'IN'
p2268
S'B-PP'
p2269
g4
tp2270
a(S'social'
p2271
S'social'
p2272
S'JJ'
p2273
S'B-NP'
p2274
g4
tp2275
a(S'skills'
p2276
S'skill'
p2277
S'NNS'
p2278
S'I-NP'
p2279
g4
tp2280
a(S'knowledge'
p2281
S'knowledge'
p2282
S'NN'
p2283
S'I-NP'
p2284
g4
tp2285
a(g174
g174
g174
g4
g4
tp2286
a(S'interpersonal'
p2287
S'interpersonal'
p2288
S'JJ'
p2289
S'B-NP'
p2290
g4
tp2291
a(S'skills'
p2292
S'skill'
p2293
S'NNS'
p2294
S'I-NP'
p2295
g4
tp2296
a(g174
g174
g174
g4
g4
tp2297
a(S'and'
p2298
S'and'
p2299
S'CC'
p2300
g4
g4
tp2301
a(S'play/leisure'
p2302
S'play/leisure'
p2303
S'NN'
p2304
S'B-NP'
p2305
g4
tp2306
a(S'skills'
p2307
S'skill'
p2308
S'NNS'
p2309
S'I-NP'
p2310
g4
tp2311
a(g174
g174
g174
g4
g4
tp2312
a(S'as'
p2313
S'as'
p2314
S'RB'
p2315
S'B-CONJP'
p2316
g4
tp2317
a(S'well'
p2318
S'well'
p2319
S'RB'
p2320
S'I-CONJP'
p2321
g4
tp2322
a(S'as'
p2323
S'as'
p2324
S'IN'
p2325
S'I-CONJP'
p2326
g4
tp2327
a(g133
g133
S'DT'
p2328
S'B-NP'
p2329
g4
tp2330
a(S'decrease'
p2331
S'decrease'
p2332
S'NN'
p2333
S'I-NP'
p2334
g4
tp2335
a(S'in'
p2336
S'in'
p2337
S'IN'
p2338
S'B-PP'
p2339
g4
tp2340
a(S'depressive'
p2341
S'depressive'
p2342
S'JJ'
p2343
S'B-NP'
p2344
g4
tp2345
a(S'symptoms'
p2346
S'symptom'
p2347
S'NNS'
p2348
S'I-NP'
p2349
g4
tp2350
a(S'and'
p2351
S'and'
p2352
S'CC'
p2353
g4
g4
tp2354
a(S'ASD'
p2355
S'ASD'
p2356
S'NN'
p2357
S'B-NP'
p2358
g4
tp2359
a(S'symptoms.'
p2360
S'symptoms.'
p2361
S'NN'
p2362
S'I-NP'
p2363
g4
tp2364
a(S'This'
p2365
S'This'
p2366
S'DT'
p2367
S'B-NP'
p2368
g4
tp2369
a(S'study'
p2370
S'study'
p2371
S'NN'
p2372
S'I-NP'
p2373
g4
tp2374
a(S'represents'
p2375
S'represent'
p2376
S'VBZ'
p2377
S'B-VP'
p2378
g4
tp2379
a(S'one'
p2380
S'one'
p2381
S'CD'
p2382
S'B-NP'
p2383
g4
tp2384
a(S'of'
p2385
S'of'
p2386
S'IN'
p2387
S'B-PP'
p2388
g4
tp2389
a(S'only'
p2390
S'only'
p2391
S'RB'
p2392
S'B-NP'
p2393
g4
tp2394
a(g133
g133
S'DT'
p2395
S'I-NP'
p2396
g4
tp2397
a(S'few'
p2398
S'few'
p2399
S'JJ'
p2400
S'I-NP'
p2401
g4
tp2402
a(S'cross-cultural'
p2403
S'cross-cultural'
p2404
S'JJ'
p2405
S'I-NP'
p2406
g4
tp2407
a(S'validation'
p2408
S'validation'
p2409
S'NN'
p2410
S'I-NP'
p2411
g4
tp2412
a(S'trials'
p2413
S'trial'
p2414
S'NNS'
p2415
S'I-NP'
p2416
g4
tp2417
a(S'of'
p2418
S'of'
p2419
S'IN'
p2420
S'B-PP'
p2421
g4
tp2422
a(S'an'
p2423
S'an'
p2424
S'DT'
p2425
S'B-NP'
p2426
g4
tp2427
a(S'established'
p2428
S'establish'
p2429
S'VBN'
p2430
S'I-NP'
p2431
g4
tp2432
a(S'evidence-based'
p2433
S'evidence-based'
p2434
S'JJ'
p2435
S'I-NP'
p2436
g4
tp2437
a(S'treatment'
p2438
S'treatment'
p2439
S'NN'
p2440
S'I-NP'
p2441
g4
tp2442
a(S'for'
p2443
S'for'
p2444
S'IN'
p2445
S'B-PP'
p2446
g4
tp2447
a(S'adolescents'
p2448
S'adolescent'
p2449
S'NNS'
p2450
S'B-NP'
p2451
g4
tp2452
a(S'with'
p2453
S'with'
p2454
S'IN'
p2455
S'B-PP'
p2456
g4
tp2457
a(S'ASD'
p2458
S'ASD'
p2459
S'NN'
p2460
S'B-NP'
p2461
g4
tp2462
a(g111
g111
g111
g4
g4
tp2463
a.