(lp0
(S'The'
p1
S'The'
p2
S'DT'
p3
S'B-NP'
p4
S'O'
p5
tp6
a(S'effect'
p7
S'effect'
p8
S'NN'
p9
S'I-NP'
p10
g5
tp11
a(S'of'
p12
S'of'
p13
S'IN'
p14
S'B-PP'
p15
g5
tp16
a(S'systemic'
p17
S'systemic'
p18
S'JJ'
p19
S'B-NP'
p20
g5
tp21
a(S'lidocaine'
p22
S'lidocaine'
p23
S'NN'
p24
S'I-NP'
p25
g5
tp26
a(S'on'
p27
S'on'
p28
S'IN'
p29
S'B-PP'
p30
g5
tp31
a(S'pain'
p32
S'pain'
p33
S'NN'
p34
S'B-NP'
p35
g5
tp36
a(S'and'
p37
S'and'
p38
S'CC'
p39
g5
g5
tp40
a(S'secondary'
p41
S'secondary'
p42
S'JJ'
p43
S'B-NP'
p44
g5
tp45
a(S'hyperalgesia'
p46
S'hyperalgesia'
p47
S'NN'
p48
S'I-NP'
p49
g5
tp50
a(S'associated'
p51
S'associate'
p52
S'VBN'
p53
S'B-VP'
p54
g5
tp55
a(S'with'
p56
S'with'
p57
S'IN'
p58
S'B-PP'
p59
g5
tp60
a(S'the'
p61
S'the'
p62
S'DT'
p63
S'B-NP'
p64
g5
tp65
a(S'heat/capsaicin'
p66
S'heat/capsaicin'
p67
S'NN'
p68
S'I-NP'
p69
g5
tp70
a(S'sensitization'
p71
S'sensitization'
p72
S'NN'
p73
S'I-NP'
p74
g5
tp75
a(S'model'
p76
S'model'
p77
S'NN'
p78
S'I-NP'
p79
g5
tp80
a(S'in'
p81
S'in'
p82
S'IN'
p83
S'B-PP'
p84
g5
tp85
a(S'healthy'
p86
S'healthy'
p87
S'JJ'
p88
S'B-NP'
p89
g5
tp90
a(S'volunteers'
p91
S'volunteer'
p92
S'NNS'
p93
S'I-NP'
p94
g5
tp95
a(S'.'
p96
g96
g96
g5
g5
tp97
a(S'UNLABELLED'
p98
S'UNLABELLED'
p99
S'VBN'
p100
S'B-VP'
p101
g5
tp102
a(S'Although'
p103
S'Although'
p104
S'IN'
p105
S'B-PP'
p106
g5
tp107
a(S'effective'
p108
S'effective'
p109
S'JJ'
p110
S'B-ADJP'
p111
g5
tp112
a(S'in'
p113
S'in'
p114
S'IN'
p115
S'B-PP'
p116
g5
tp117
a(S'neuropathic'
p118
S'neuropathic'
p119
S'JJ'
p120
S'B-NP'
p121
g5
tp122
a(S'pain'
p123
S'pain'
p124
S'NN'
p125
S'I-NP'
p126
g5
tp127
a(S','
p128
g128
g128
g5
g5
tp129
a(S'the'
p130
S'the'
p131
S'DT'
p132
S'B-NP'
p133
g5
tp134
a(S'efficacy'
p135
S'efficacy'
p136
S'NN'
p137
S'I-NP'
p138
g5
tp139
a(S'of'
p140
S'of'
p141
S'IN'
p142
S'B-PP'
p143
g5
tp144
a(S'systemic'
p145
S'systemic'
p146
S'JJ'
p147
S'B-NP'
p148
g5
tp149
a(S'lidocaine'
p150
S'lidocaine'
p151
S'NN'
p152
S'I-NP'
p153
g5
tp154
a(S'in'
p155
S'in'
p156
S'IN'
p157
S'B-PP'
p158
g5
tp159
a(S'non-neuropathic'
p160
S'non-neuropathic'
p161
S'JJ'
p162
S'B-NP'
p163
S'B-protein'
p164
tp165
a(S'pain'
p166
S'pain'
p167
S'NN'
p168
S'I-NP'
p169
S'I-protein'
p170
tp171
a(S'remains'
p172
S'remain'
p173
S'VBZ'
p174
S'B-VP'
p175
g5
tp176
a(S'uncertain.'
p177
S'uncertain.'
p178
S'JJ'
p179
S'B-ADJP'
p180
g5
tp181
a(S'We'
p182
S'We'
p183
S'PRP'
p184
S'B-NP'
p185
g5
tp186
a(S'investigated'
p187
S'investigate'
p188
S'VBD'
p189
S'B-VP'
p190
g5
tp191
a(S'the'
p192
S'the'
p193
S'DT'
p194
S'B-NP'
p195
g5
tp196
a(S'analgesic'
p197
S'analgesic'
p198
S'JJ'
p199
S'I-NP'
p200
g5
tp201
a(S'effect'
p202
S'effect'
p203
S'NN'
p204
S'I-NP'
p205
g5
tp206
a(S'of'
p207
S'of'
p208
S'IN'
p209
S'B-PP'
p210
g5
tp211
a(S'systemic'
p212
S'systemic'
p213
S'JJ'
p214
S'B-NP'
p215
g5
tp216
a(S'lidocaine'
p217
S'lidocaine'
p218
S'NN'
p219
S'I-NP'
p220
g5
tp221
a(S'on'
p222
S'on'
p223
S'IN'
p224
S'B-PP'
p225
g5
tp226
a(S'the'
p227
S'the'
p228
S'DT'
p229
S'B-NP'
p230
g5
tp231
a(S'heat/capsaicin'
p232
S'heat/capsaicin'
p233
S'NN'
p234
S'I-NP'
p235
g5
tp236
a(S'sensitization'
p237
S'sensitization'
p238
S'NN'
p239
S'I-NP'
p240
g5
tp241
a(S'model'
p242
S'model'
p243
S'NN'
p244
S'I-NP'
p245
g5
tp246
a(S'of'
p247
S'of'
p248
S'IN'
p249
S'B-PP'
p250
g5
tp251
a(S'experimental'
p252
S'experimental'
p253
S'JJ'
p254
S'B-NP'
p255
g5
tp256
a(S'pain'
p257
S'pain'
p258
S'NN'
p259
S'I-NP'
p260
g5
tp261
a(S'in'
p262
S'in'
p263
S'IN'
p264
S'B-PP'
p265
g5
tp266
a(S'24'
p267
S'24'
p268
S'CD'
p269
S'B-NP'
p270
g5
tp271
a(S'volunteers.'
p272
S'volunteers.'
p273
S'NN'
p274
S'I-NP'
p275
g5
tp276
a(S'Sensitization'
p277
S'Sensitization'
p278
S'NN'
p279
S'I-NP'
p280
g5
tp281
a(S'was'
p282
S'be'
p283
S'VBD'
p284
S'B-VP'
p285
g5
tp286
a(S'produced'
p287
S'produce'
p288
S'VBN'
p289
S'I-VP'
p290
g5
tp291
a(S'by'
p292
S'by'
p293
S'IN'
p294
S'B-PP'
p295
g5
tp296
a(S'heating'
p297
S'heat'
p298
S'VBG'
p299
S'B-VP'
p300
g5
tp301
a(S'the'
p302
S'the'
p303
S'DT'
p304
S'B-NP'
p305
g5
tp306
a(S'skin'
p307
S'skin'
p308
S'NN'
p309
S'I-NP'
p310
g5
tp311
a(S'to'
p312
S'to'
p313
S'TO'
p314
S'B-PP'
p315
g5
tp316
a(S'45'
p317
S'45'
p318
S'CD'
p319
S'B-NP'
p320
g5
tp321
a(S'degrees'
p322
S'degree'
p323
S'NNS'
p324
S'I-NP'
p325
g5
tp326
a(S'C'
p327
g327
S'JJ'
p328
S'B-ADJP'
p329
g5
tp330
a(S'for'
p331
S'for'
p332
S'IN'
p333
S'B-PP'
p334
g5
tp335
a(S'5'
p336
g336
S'CD'
p337
S'B-NP'
p338
g5
tp339
a(S'min'
p340
S'min'
p341
S'NN'
p342
S'I-NP'
p343
g5
tp344
a(g128
g128
g128
g5
g5
tp345
a(S'followed'
p346
S'follow'
p347
S'VBN'
p348
S'B-VP'
p349
g5
tp350
a(S'by'
p351
S'by'
p352
S'IN'
p353
S'B-PP'
p354
g5
tp355
a(S'a'
p356
g356
S'DT'
p357
S'B-NP'
p358
g5
tp359
a(S'30-min'
p360
S'30-min'
p361
S'JJ'
p362
S'I-NP'
p363
g5
tp364
a(S'application'
p365
S'application'
p366
S'NN'
p367
S'I-NP'
p368
g5
tp369
a(S'of'
p370
S'of'
p371
S'IN'
p372
S'B-PP'
p373
g5
tp374
a(S'0.075'
p375
S'0.075'
p376
S'CD'
p377
S'B-NP'
p378
g5
tp379
a(S'%'
p380
g380
S'NN'
p381
S'I-NP'
p382
g5
tp383
a(S'capsaicin'
p384
S'capsaicin'
p385
S'NN'
p386
S'I-NP'
p387
g5
tp388
a(S'cream'
p389
S'cream'
p390
S'NN'
p391
S'I-NP'
p392
g5
tp393
a(g128
g128
g128
g5
g5
tp394
a(S'and'
p395
S'and'
p396
S'CC'
p397
g5
g5
tp398
a(S'maintained'
p399
S'maintain'
p400
S'VBN'
p401
S'B-VP'
p402
g5
tp403
a(S'by'
p404
S'by'
p405
S'IN'
p406
S'B-PP'
p407
g5
tp408
a(S'periodically'
p409
S'periodically'
p410
S'RB'
p411
S'B-VP'
p412
g5
tp413
a(S'reheating'
p414
S'reheate'
p415
S'VBG'
p416
S'I-VP'
p417
g5
tp418
a(S'the'
p419
S'the'
p420
S'DT'
p421
S'B-NP'
p422
g5
tp423
a(S'sensitized'
p424
S'sensitize'
p425
S'VBN'
p426
S'I-NP'
p427
g5
tp428
a(S'skin.'
p429
S'skin.'
p430
S'NN'
p431
S'I-NP'
p432
g5
tp433
a(S'Subjects'
p434
S'Subject'
p435
S'NNS'
p436
S'I-NP'
p437
g5
tp438
a(S'received'
p439
S'receive'
p440
S'VBD'
p441
S'B-VP'
p442
g5
tp443
a(S'IV'
p444
S'IV'
p445
S'CD'
p446
S'B-NP'
p447
g5
tp448
a(S'lidocaine'
p449
S'lidocaine'
p450
S'NN'
p451
S'I-NP'
p452
g5
tp453
a(S'('
p454
g454
g454
g5
g5
tp455
a(S'bolus'
p456
S'bolus'
p457
S'NN'
p458
S'B-NP'
p459
g5
tp460
a(S'2'
p461
g461
S'CD'
p462
S'I-NP'
p463
g5
tp464
a(S'mg/kg'
p465
S'mg/kg'
p466
S'NN'
p467
S'I-NP'
p468
g5
tp469
a(g128
g128
g128
g5
g5
tp470
a(S'then'
p471
S'then'
p472
S'RB'
p473
g5
g5
tp474
a(S'infusion'
p475
S'infusion'
p476
S'NN'
p477
S'B-NP'
p478
g5
tp479
a(S'3'
p480
g480
S'CD'
p481
S'I-NP'
p482
g5
tp483
a(S'mg.'
p484
S'mg.'
p485
S'NN'
p486
S'I-NP'
p487
g5
tp488
a(S'kg.'
p489
S'kg.'
p490
S'NN'
p491
S'I-NP'
p492
g5
tp493
a(S'h'
p494
g494
S'NN'
p495
S'I-NP'
p496
g5
tp497
a(S')'
p498
g498
g498
g5
g5
tp499
a(g128
g128
g128
g5
g5
tp500
a(S'or'
p501
S'or'
p502
S'CC'
p503
g5
g5
tp504
a(S'saline'
p505
S'saline'
p506
S'NN'
p507
S'B-NP'
p508
g5
tp509
a(S'for'
p510
S'for'
p511
S'IN'
p512
S'B-PP'
p513
g5
tp514
a(S'85'
p515
S'85'
p516
S'CD'
p517
S'B-NP'
p518
g5
tp519
a(S'min.'
p520
S'min.'
p521
S'NN'
p522
S'I-NP'
p523
g5
tp524
a(S'Areas'
p525
S'Area'
p526
S'NNS'
p527
S'I-NP'
p528
g5
tp529
a(S'of'
p530
S'of'
p531
S'IN'
p532
S'B-PP'
p533
g5
tp534
a(S'secondary'
p535
S'secondary'
p536
S'JJ'
p537
S'B-NP'
p538
g5
tp539
a(S'hyperalgesia'
p540
S'hyperalgesia'
p541
S'NN'
p542
S'I-NP'
p543
g5
tp544
a(g128
g128
g128
g5
g5
tp545
a(S'heat'
p546
S'heat'
p547
S'NN'
p548
S'B-NP'
p549
g5
tp550
a(S'pain'
p551
S'pain'
p552
S'NN'
p553
S'I-NP'
p554
g5
tp555
a(S'detection'
p556
S'detection'
p557
S'NN'
p558
S'I-NP'
p559
g5
tp560
a(S'thresholds'
p561
S'threshold'
p562
S'NNS'
p563
S'I-NP'
p564
g5
tp565
a(g128
g128
g128
g5
g5
tp566
a(S'and'
p567
S'and'
p568
S'CC'
p569
g5
g5
tp570
a(S'painfulness'
p571
S'painfulness'
p572
S'NN'
p573
S'B-NP'
p574
g5
tp575
a(S'of'
p576
S'of'
p577
S'IN'
p578
S'B-PP'
p579
g5
tp580
a(S'stimulation'
p581
S'stimulation'
p582
S'NN'
p583
S'B-NP'
p584
g5
tp585
a(S'with'
p586
S'with'
p587
S'IN'
p588
S'B-PP'
p589
g5
tp590
a(S'45'
p591
S'45'
p592
S'CD'
p593
S'B-NP'
p594
g5
tp595
a(S'degrees'
p596
S'degree'
p597
S'NNS'
p598
S'I-NP'
p599
g5
tp600
a(g327
g327
S'JJ'
p601
S'B-ADJP'
p602
g5
tp603
a(S'for'
p604
S'for'
p605
S'IN'
p606
S'B-PP'
p607
g5
tp608
a(S'1'
p609
g609
S'CD'
p610
S'B-NP'
p611
g5
tp612
a(S'min'
p613
S'min'
p614
S'NN'
p615
S'I-NP'
p616
g5
tp617
a(g454
g454
g454
g5
g5
tp618
a(S'long'
p619
S'long'
p620
S'JJ'
p621
S'B-NP'
p622
g5
tp623
a(S'thermal'
p624
S'thermal'
p625
S'JJ'
p626
S'I-NP'
p627
g5
tp628
a(S'stimulation'
p629
S'stimulation'
p630
S'NN'
p631
S'I-NP'
p632
g5
tp633
a(g498
g498
g498
g5
g5
tp634
a(S'were'
p635
S'be'
p636
S'VBD'
p637
S'B-VP'
p638
g5
tp639
a(S'quantified.'
p640
S'quantified.'
p641
S'VBN'
p642
S'I-VP'
p643
g5
tp644
a(S'Systemic'
p645
S'Systemic'
p646
S'JJ'
p647
S'B-NP'
p648
g5
tp649
a(S'lidocaine'
p650
S'lidocaine'
p651
S'NN'
p652
S'I-NP'
p653
g5
tp654
a(S'reduced'
p655
S'reduce'
p656
S'VBD'
p657
S'B-VP'
p658
g5
tp659
a(S'the'
p660
S'the'
p661
S'DT'
p662
S'B-NP'
p663
g5
tp664
a(S'area'
p665
S'area'
p666
S'NN'
p667
S'I-NP'
p668
g5
tp669
a(S'of'
p670
S'of'
p671
S'IN'
p672
S'B-PP'
p673
g5
tp674
a(S'secondary'
p675
S'secondary'
p676
S'JJ'
p677
S'B-NP'
p678
g5
tp679
a(S'hyperalgesia'
p680
S'hyperalgesia'
p681
S'NN'
p682
S'I-NP'
p683
g5
tp684
a(S'to'
p685
S'to'
p686
S'TO'
p687
S'B-VP'
p688
g5
tp689
a(S'brush'
p690
S'brush'
p691
S'VB'
p692
S'I-VP'
p693
g5
tp694
a(g128
g128
g128
g5
g5
tp695
a(S'but'
p696
S'but'
p697
S'CC'
p698
g5
g5
tp699
a(S'not'
p700
S'not'
p701
S'RB'
p702
g5
g5
tp703
a(S'to'
p704
S'to'
p705
S'TO'
p706
S'B-PP'
p707
g5
tp708
a(S'von'
p709
S'von'
p710
S'NNP'
p711
S'B-NP'
p712
g5
tp713
a(S'Frey'
p714
S'Frey'
p715
S'NNP'
p716
S'I-NP'
p717
g5
tp718
a(S'hair'
p719
S'hair'
p720
S'NN'
p721
S'I-NP'
p722
g5
tp723
a(S'stimulation.'
p724
S'stimulation.'
p725
S'NN'
p726
S'I-NP'
p727
g5
tp728
a(S'Lidocaine'
p729
S'Lidocaine'
p730
S'NN'
p731
S'I-NP'
p732
g5
tp733
a(S'did'
p734
S'do'
p735
S'VBD'
p736
S'B-VP'
p737
g5
tp738
a(S'not'
p739
S'not'
p740
S'RB'
p741
S'I-VP'
p742
g5
tp743
a(S'alter'
p744
S'alter'
p745
S'VB'
p746
S'I-VP'
p747
g5
tp748
a(S'heat'
p749
S'heat'
p750
S'NN'
p751
S'B-NP'
p752
g5
tp753
a(S'pain'
p754
S'pain'
p755
S'NN'
p756
S'I-NP'
p757
g5
tp758
a(S'detection'
p759
S'detection'
p760
S'NN'
p761
S'I-NP'
p762
g5
tp763
a(S'thresholds'
p764
S'threshold'
p765
S'NNS'
p766
S'I-NP'
p767
g5
tp768
a(S'or'
p769
S'or'
p770
S'CC'
p771
g5
g5
tp772
a(S'painfulness'
p773
S'painfulness'
p774
S'NN'
p775
S'B-NP'
p776
g5
tp777
a(S'of'
p778
S'of'
p779
S'IN'
p780
S'B-PP'
p781
g5
tp782
a(S'long'
p783
S'long'
p784
S'JJ'
p785
S'B-NP'
p786
g5
tp787
a(S'thermal'
p788
S'thermal'
p789
S'JJ'
p790
S'I-NP'
p791
g5
tp792
a(S'stimulation'
p793
S'stimulation'
p794
S'NN'
p795
S'I-NP'
p796
g5
tp797
a(S'in'
p798
S'in'
p799
S'IN'
p800
S'B-PP'
p801
g5
tp802
a(S'normal'
p803
S'normal'
p804
S'JJ'
p805
S'B-NP'
p806
g5
tp807
a(S'skin.'
p808
S'skin.'
p809
S'NN'
p810
S'I-NP'
p811
g5
tp812
a(S'We'
p813
S'We'
p814
S'PRP'
p815
S'B-NP'
p816
g5
tp817
a(S'conclude'
p818
S'conclude'
p819
S'VBP'
p820
S'B-VP'
p821
g5
tp822
a(S'that'
p823
S'that'
p824
S'IN'
p825
S'B-SBAR'
p826
g5
tp827
a(g128
g128
g128
g5
g5
tp828
a(S'at'
p829
S'at'
p830
S'IN'
p831
S'B-PP'
p832
g5
tp833
a(S'infusion'
p834
S'infusion'
p835
S'NN'
p836
S'B-NP'
p837
g5
tp838
a(S'rates'
p839
S'rate'
p840
S'NNS'
p841
S'I-NP'
p842
g5
tp843
a(S'in'
p844
S'in'
p845
S'IN'
p846
S'B-PP'
p847
g5
tp848
a(S'the'
p849
S'the'
p850
S'DT'
p851
S'B-NP'
p852
g5
tp853
a(S'low-'
p854
S'low-'
p855
S'JJ'
p856
S'I-NP'
p857
g5
tp858
a(S'to'
p859
S'to'
p860
S'TO'
p861
S'I-NP'
p862
g5
tp863
a(S'mid-antiarrhythmic'
p864
S'mid-antiarrhythmic'
p865
S'JJ'
p866
S'I-NP'
p867
g5
tp868
a(S'range'
p869
S'range'
p870
S'NN'
p871
S'I-NP'
p872
g5
tp873
a(g128
g128
g128
g5
g5
tp874
a(S'lidocaine'
p875
S'lidocaine'
p876
S'NN'
p877
S'B-NP'
p878
g5
tp879
a(S'has'
p880
S'have'
p881
S'VBZ'
p882
S'B-VP'
p883
g5
tp884
a(S'no'
p885
S'no'
p886
S'DT'
p887
S'B-NP'
p888
g5
tp889
a(S'effect'
p890
S'effect'
p891
S'NN'
p892
S'I-NP'
p893
g5
tp894
a(S'on'
p895
S'on'
p896
S'IN'
p897
S'B-PP'
p898
g5
tp899
a(S'acute'
p900
S'acute'
p901
S'JJ'
p902
S'B-NP'
p903
g5
tp904
a(S'nociceptive'
p905
S'nociceptive'
p906
S'JJ'
p907
S'I-NP'
p908
g5
tp909
a(S'pain'
p910
S'pain'
p911
S'NN'
p912
S'I-NP'
p913
g5
tp914
a(S'but'
p915
S'but'
p916
S'CC'
p917
g5
g5
tp918
a(S'does'
p919
S'do'
p920
S'VBZ'
p921
S'B-VP'
p922
g5
tp923
a(S'have'
p924
S'have'
p925
S'VB'
p926
S'I-VP'
p927
g5
tp928
a(g356
g356
S'DT'
p929
S'B-NP'
p930
g5
tp931
a(S'limited'
p932
S'limited'
p933
S'JJ'
p934
S'I-NP'
p935
g5
tp936
a(S'and'
p937
S'and'
p938
S'CC'
p939
S'I-NP'
p940
g5
tp941
a(S'selective'
p942
S'selective'
p943
S'JJ'
p944
S'I-NP'
p945
g5
tp946
a(S'effect'
p947
S'effect'
p948
S'NN'
p949
S'I-NP'
p950
g5
tp951
a(S'on'
p952
S'on'
p953
S'IN'
p954
S'B-PP'
p955
g5
tp956
a(S'secondary'
p957
S'secondary'
p958
S'JJ'
p959
S'B-NP'
p960
g5
tp961
a(S'hyperalgesia'
p962
S'hyperalgesia'
p963
S'NN'
p964
S'I-NP'
p965
g5
tp966
a(g96
g96
g96
g5
g5
tp967
a(S'IMPLICATIONS'
p968
S'IMPLICATIONS'
p969
S'NNS'
p970
S'B-NP'
p971
g5
tp972
a(S'The'
p973
S'The'
p974
S'DT'
p975
S'B-NP'
p976
g5
tp977
a(S'efficacy'
p978
S'efficacy'
p979
S'NN'
p980
S'I-NP'
p981
g5
tp982
a(S'of'
p983
S'of'
p984
S'IN'
p985
S'B-PP'
p986
g5
tp987
a(S'systemic'
p988
S'systemic'
p989
S'JJ'
p990
S'B-NP'
p991
g5
tp992
a(S'lidocaine'
p993
S'lidocaine'
p994
S'NN'
p995
S'I-NP'
p996
g5
tp997
a(S'in'
p998
S'in'
p999
S'IN'
p1000
S'B-PP'
p1001
g5
tp1002
a(S'nonneuropathic'
p1003
S'nonneuropathic'
p1004
S'JJ'
p1005
S'B-NP'
p1006
g5
tp1007
a(S'pain'
p1008
S'pain'
p1009
S'NN'
p1010
S'I-NP'
p1011
g5
tp1012
a(S'remains'
p1013
S'remain'
p1014
S'VBZ'
p1015
S'B-VP'
p1016
g5
tp1017
a(S'uncertain.'
p1018
S'uncertain.'
p1019
S'IN'
p1020
S'B-PP'
p1021
g5
tp1022
a(S'This'
p1023
S'This'
p1024
S'DT'
p1025
S'B-NP'
p1026
g5
tp1027
a(S'study'
p1028
S'study'
p1029
S'NN'
p1030
S'I-NP'
p1031
g5
tp1032
a(S'investigates'
p1033
S'investigate'
p1034
S'VBZ'
p1035
S'B-VP'
p1036
g5
tp1037
a(S'the'
p1038
S'the'
p1039
S'DT'
p1040
S'B-NP'
p1041
g5
tp1042
a(S'effect'
p1043
S'effect'
p1044
S'NN'
p1045
S'I-NP'
p1046
g5
tp1047
a(S'of'
p1048
S'of'
p1049
S'IN'
p1050
S'B-PP'
p1051
g5
tp1052
a(S'systemic'
p1053
S'systemic'
p1054
S'JJ'
p1055
S'B-NP'
p1056
g5
tp1057
a(S'lidocaine'
p1058
S'lidocaine'
p1059
S'NN'
p1060
S'I-NP'
p1061
g5
tp1062
a(S'on'
p1063
S'on'
p1064
S'IN'
p1065
S'B-PP'
p1066
g5
tp1067
a(S'experimental-induced'
p1068
S'experimental-induced'
p1069
S'JJ'
p1070
S'B-NP'
p1071
g5
tp1072
a(S'hyperalgesia'
p1073
S'hyperalgesia'
p1074
S'NN'
p1075
S'I-NP'
p1076
g5
tp1077
a(S'in'
p1078
S'in'
p1079
S'IN'
p1080
S'B-PP'
p1081
g5
tp1082
a(S'25'
p1083
S'25'
p1084
S'CD'
p1085
S'B-NP'
p1086
g5
tp1087
a(S'volunteers.'
p1088
S'volunteers.'
p1089
S'NN'
p1090
S'I-NP'
p1091
g5
tp1092
a(S'Hyperalgesia'
p1093
S'Hyperalgesia'
p1094
S'NN'
p1095
S'I-NP'
p1096
g5
tp1097
a(S'was'
p1098
S'be'
p1099
S'VBD'
p1100
S'B-VP'
p1101
g5
tp1102
a(S'induced'
p1103
S'induce'
p1104
S'VBN'
p1105
S'I-VP'
p1106
g5
tp1107
a(S'by'
p1108
S'by'
p1109
S'IN'
p1110
S'B-PP'
p1111
g5
tp1112
a(S'using'
p1113
S'use'
p1114
S'VBG'
p1115
S'B-VP'
p1116
g5
tp1117
a(S'an'
p1118
S'an'
p1119
S'DT'
p1120
S'B-NP'
p1121
g5
tp1122
a(S'experimental'
p1123
S'experimental'
p1124
S'JJ'
p1125
S'I-NP'
p1126
g5
tp1127
a(S'pain'
p1128
S'pain'
p1129
S'NN'
p1130
S'I-NP'
p1131
g5
tp1132
a(S'model'
p1133
S'model'
p1134
S'NN'
p1135
S'I-NP'
p1136
g5
tp1137
a(S'that'
p1138
S'that'
p1139
S'WDT'
p1140
S'B-NP'
p1141
g5
tp1142
a(S'uses'
p1143
S'use'
p1144
S'VBZ'
p1145
S'B-VP'
p1146
g5
tp1147
a(S'heat'
p1148
S'heat'
p1149
S'NN'
p1150
S'B-NP'
p1151
g5
tp1152
a(S'and'
p1153
S'and'
p1154
S'CC'
p1155
S'I-NP'
p1156
g5
tp1157
a(S'capsaicin'
p1158
S'capsaicin'
p1159
S'NN'
p1160
S'I-NP'
p1161
g5
tp1162
a(S'in'
p1163
S'in'
p1164
S'IN'
p1165
S'B-PP'
p1166
g5
tp1167
a(S'combination.'
p1168
S'combination.'
p1169
S'JJ'
p1170
S'B-NP'
p1171
g5
tp1172
a(S'Systemic'
p1173
S'Systemic'
p1174
S'JJ'
p1175
S'I-NP'
p1176
g5
tp1177
a(S'lidocaine'
p1178
S'lidocaine'
p1179
S'NN'
p1180
S'I-NP'
p1181
g5
tp1182
a(S'showed'
p1183
S'show'
p1184
S'VBD'
p1185
S'B-VP'
p1186
g5
tp1187
a(g356
g356
S'DT'
p1188
S'B-NP'
p1189
g5
tp1190
a(S'selective'
p1191
S'selective'
p1192
S'JJ'
p1193
S'I-NP'
p1194
g5
tp1195
a(S'effect'
p1196
S'effect'
p1197
S'NN'
p1198
S'I-NP'
p1199
g5
tp1200
a(S'on'
p1201
S'on'
p1202
S'IN'
p1203
S'B-PP'
p1204
g5
tp1205
a(S'secondary'
p1206
S'secondary'
p1207
S'JJ'
p1208
S'B-NP'
p1209
g5
tp1210
a(S'hyperalgesia'
p1211
S'hyperalgesia'
p1212
S'NN'
p1213
S'I-NP'
p1214
g5
tp1215
a(g96
g96
g96
g5
g5
tp1216
a.