(lp0
(S'Secondary'
p1
S'Secondary'
p2
S'JJ'
p3
S'B-NP'
p4
S'O'
p5
tp6
a(S'prevention'
p7
S'prevention'
p8
S'NN'
p9
S'I-NP'
p10
g5
tp11
a(S'of'
p12
S'of'
p13
S'IN'
p14
S'B-PP'
p15
g5
tp16
a(S'macrovascular'
p17
S'macrovascular'
p18
S'JJ'
p19
S'B-NP'
p20
g5
tp21
a(S'events'
p22
S'event'
p23
S'NNS'
p24
S'I-NP'
p25
g5
tp26
a(S'in'
p27
S'in'
p28
S'IN'
p29
S'B-PP'
p30
g5
tp31
a(S'patients'
p32
S'patient'
p33
S'NNS'
p34
S'B-NP'
p35
g5
tp36
a(S'with'
p37
S'with'
p38
S'IN'
p39
S'B-PP'
p40
g5
tp41
a(S'type'
p42
S'type'
p43
S'NN'
p44
S'B-NP'
p45
g5
tp46
a(S'2'
p47
g47
S'CD'
p48
S'I-NP'
p49
g5
tp50
a(S'diabetes'
p51
S'diabete'
p52
S'NNS'
p53
S'I-NP'
p54
g5
tp55
a(S'in'
p56
S'in'
p57
S'IN'
p58
S'B-PP'
p59
g5
tp60
a(S'the'
p61
S'the'
p62
S'DT'
p63
S'B-NP'
p64
g5
tp65
a(S'PROactive'
p66
S'PROactive'
p67
S'JJ'
p68
S'I-NP'
p69
g5
tp70
a(S'Study'
p71
S'Study'
p72
S'NN'
p73
S'I-NP'
p74
g5
tp75
a(S'('
p76
g76
g76
g5
g5
tp77
a(S'PROspective'
p78
S'PROspective'
p79
S'JJ'
p80
S'B-NP'
p81
g5
tp82
a(S'pioglitAzone'
p83
S'pioglitAzone'
p84
S'NN'
p85
S'I-NP'
p86
g5
tp87
a(S'Clinical'
p88
S'Clinical'
p89
S'NNP'
p90
S'I-NP'
p91
g5
tp92
a(S'Trial'
p93
S'Trial'
p94
S'NNP'
p95
S'I-NP'
p96
g5
tp97
a(S'In'
p98
S'In'
p99
S'IN'
p100
S'B-PP'
p101
g5
tp102
a(S'macroVascular'
p103
S'macroVascular'
p104
S'JJ'
p105
S'B-NP'
p106
g5
tp107
a(S'Events'
p108
S'Event'
p109
S'NNS'
p110
S'I-NP'
p111
g5
tp112
a(S')'
p113
g113
g113
g5
g5
tp114
a(S':'
p115
g115
g115
g5
g5
tp116
a(S'a'
p117
g117
S'DT'
p118
S'B-NP'
p119
g5
tp120
a(S'randomised'
p121
S'randomise'
p122
S'VBN'
p123
S'I-NP'
p124
g5
tp125
a(S'controlled'
p126
S'control'
p127
S'VBN'
p128
S'I-NP'
p129
g5
tp130
a(S'trial'
p131
S'trial'
p132
S'NN'
p133
S'I-NP'
p134
g5
tp135
a(S'.'
p136
g136
g136
g5
g5
tp137
a(S'BACKGROUND'
p138
S'BACKGROUND'
p139
S'NN'
p140
S'B-NP'
p141
g5
tp142
a(S'Patients'
p143
S'Patient'
p144
S'NNS'
p145
S'I-NP'
p146
g5
tp147
a(S'with'
p148
S'with'
p149
S'IN'
p150
S'B-PP'
p151
g5
tp152
a(S'type'
p153
S'type'
p154
S'NN'
p155
S'B-NP'
p156
g5
tp157
a(g47
g47
S'CD'
p158
S'I-NP'
p159
g5
tp160
a(S'diabetes'
p161
S'diabete'
p162
S'NNS'
p163
S'I-NP'
p164
g5
tp165
a(S'are'
p166
S'be'
p167
S'VBP'
p168
S'B-VP'
p169
g5
tp170
a(S'at'
p171
S'at'
p172
S'IN'
p173
S'B-PP'
p174
g5
tp175
a(S'high'
p176
S'high'
p177
S'JJ'
p178
S'B-NP'
p179
g5
tp180
a(S'risk'
p181
S'risk'
p182
S'NN'
p183
S'I-NP'
p184
g5
tp185
a(S'of'
p186
S'of'
p187
S'IN'
p188
S'B-PP'
p189
g5
tp190
a(S'fatal'
p191
S'fatal'
p192
S'JJ'
p193
S'B-NP'
p194
g5
tp195
a(S'and'
p196
S'and'
p197
S'CC'
p198
S'I-NP'
p199
g5
tp200
a(S'non-fatal'
p201
S'non-fatal'
p202
S'JJ'
p203
S'I-NP'
p204
g5
tp205
a(S'myocardial'
p206
S'myocardial'
p207
S'JJ'
p208
S'I-NP'
p209
g5
tp210
a(S'infarction'
p211
S'infarction'
p212
S'NN'
p213
S'I-NP'
p214
g5
tp215
a(S'and'
p216
S'and'
p217
S'CC'
p218
S'I-NP'
p219
g5
tp220
a(S'stroke.'
p221
S'stroke.'
p222
S'NN'
p223
S'I-NP'
p224
g5
tp225
a(S'There'
p226
S'There'
p227
S'EX'
p228
S'B-NP'
p229
g5
tp230
a(S'is'
p231
S'be'
p232
S'VBZ'
p233
S'B-VP'
p234
g5
tp235
a(S'indirect'
p236
S'indirect'
p237
S'JJ'
p238
S'B-NP'
p239
g5
tp240
a(S'evidence'
p241
S'evidence'
p242
S'NN'
p243
S'I-NP'
p244
g5
tp245
a(S'that'
p246
S'that'
p247
S'IN'
p248
S'B-SBAR'
p249
g5
tp250
a(S'agonists'
p251
S'agonist'
p252
S'NNS'
p253
S'B-NP'
p254
g5
tp255
a(S'of'
p256
S'of'
p257
S'IN'
p258
S'B-PP'
p259
g5
tp260
a(S'peroxisome'
p261
S'peroxisome'
p262
S'NN'
p263
S'B-NP'
p264
S'B-protein'
p265
tp266
a(S'proliferator-activated'
p267
S'proliferator-activated'
p268
S'JJ'
p269
S'I-NP'
p270
S'I-protein'
p271
tp272
a(S'receptor'
p273
S'receptor'
p274
S'NN'
p275
S'I-NP'
p276
S'I-protein'
p277
tp278
a(S'gamma'
p279
S'gamma'
p280
S'NN'
p281
S'I-NP'
p282
S'I-protein'
p283
tp284
a(g76
g76
g76
g5
g5
tp285
a(S'PPAR'
p286
S'PPAR'
p287
S'NN'
p288
S'B-NP'
p289
S'B-protein'
p290
tp291
a(S'gamma'
p292
S'gamma'
p293
S'NN'
p294
S'I-NP'
p295
S'I-protein'
p296
tp297
a(g113
g113
g113
g5
g5
tp298
a(S'could'
p299
S'could'
p300
S'MD'
p301
S'B-VP'
p302
g5
tp303
a(S'reduce'
p304
S'reduce'
p305
S'VB'
p306
S'I-VP'
p307
g5
tp308
a(S'macrovascular'
p309
S'macrovascular'
p310
S'JJ'
p311
S'B-NP'
p312
g5
tp313
a(S'complications.'
p314
S'complications.'
p315
S'NN'
p316
S'I-NP'
p317
g5
tp318
a(S'Our'
p319
S'Our'
p320
S'PRP$'
p321
S'B-NP'
p322
g5
tp323
a(S'aim'
p324
S'aim'
p325
S'NN'
p326
S'I-NP'
p327
g5
tp328
a(S','
p329
g329
g329
g5
g5
tp330
a(S'therefore'
p331
S'therefore'
p332
S'RB'
p333
S'B-ADVP'
p334
g5
tp335
a(g329
g329
g329
g5
g5
tp336
a(S'was'
p337
S'be'
p338
S'VBD'
p339
S'B-VP'
p340
g5
tp341
a(S'to'
p342
S'to'
p343
S'TO'
p344
S'B-VP'
p345
g5
tp346
a(S'ascertain'
p347
S'ascertain'
p348
S'VB'
p349
S'I-VP'
p350
g5
tp351
a(S'whether'
p352
S'whether'
p353
S'IN'
p354
S'B-SBAR'
p355
g5
tp356
a(S'pioglitazone'
p357
S'pioglitazone'
p358
S'NN'
p359
S'B-NP'
p360
g5
tp361
a(S'reduces'
p362
S'reduce'
p363
S'VBZ'
p364
S'B-VP'
p365
g5
tp366
a(S'macrovascular'
p367
S'macrovascular'
p368
S'JJ'
p369
S'B-NP'
p370
g5
tp371
a(S'morbidity'
p372
S'morbidity'
p373
S'NN'
p374
S'I-NP'
p375
g5
tp376
a(S'and'
p377
S'and'
p378
S'CC'
p379
S'I-NP'
p380
g5
tp381
a(S'mortality'
p382
S'mortality'
p383
S'NN'
p384
S'I-NP'
p385
g5
tp386
a(S'in'
p387
S'in'
p388
S'IN'
p389
S'B-PP'
p390
g5
tp391
a(S'high-risk'
p392
S'high-risk'
p393
S'JJ'
p394
S'B-NP'
p395
g5
tp396
a(S'patients'
p397
S'patient'
p398
S'NNS'
p399
S'I-NP'
p400
g5
tp401
a(S'with'
p402
S'with'
p403
S'IN'
p404
S'B-PP'
p405
g5
tp406
a(S'type'
p407
S'type'
p408
S'NN'
p409
S'B-NP'
p410
g5
tp411
a(g47
g47
S'CD'
p412
S'I-NP'
p413
g5
tp414
a(S'diabetes'
p415
S'diabete'
p416
S'NNS'
p417
S'I-NP'
p418
g5
tp419
a(g136
g136
g136
g5
g5
tp420
a(S'METHODS'
p421
S'METHODS'
p422
S'NNS'
p423
S'B-NP'
p424
g5
tp425
a(S'We'
p426
S'We'
p427
S'PRP'
p428
S'B-NP'
p429
g5
tp430
a(S'did'
p431
S'do'
p432
S'VBD'
p433
S'B-VP'
p434
g5
tp435
a(g117
g117
S'DT'
p436
S'B-NP'
p437
g5
tp438
a(S'prospective'
p439
S'prospective'
p440
S'JJ'
p441
S'I-NP'
p442
g5
tp443
a(g329
g329
g329
g5
g5
tp444
a(S'randomised'
p445
S'randomise'
p446
S'VBN'
p447
S'B-VP'
p448
g5
tp449
a(S'controlled'
p450
S'control'
p451
S'VBN'
p452
S'B-NP'
p453
g5
tp454
a(S'trial'
p455
S'trial'
p456
S'NN'
p457
S'I-NP'
p458
g5
tp459
a(S'in'
p460
S'in'
p461
S'IN'
p462
S'B-PP'
p463
g5
tp464
a(S'5238'
p465
S'5238'
p466
S'CD'
p467
S'B-NP'
p468
g5
tp469
a(S'patients'
p470
S'patient'
p471
S'NNS'
p472
S'I-NP'
p473
g5
tp474
a(S'with'
p475
S'with'
p476
S'IN'
p477
S'B-PP'
p478
g5
tp479
a(S'type'
p480
S'type'
p481
S'NN'
p482
S'B-NP'
p483
g5
tp484
a(g47
g47
S'CD'
p485
S'I-NP'
p486
g5
tp487
a(S'diabetes'
p488
S'diabete'
p489
S'NNS'
p490
S'I-NP'
p491
g5
tp492
a(S'who'
p493
S'who'
p494
S'WP'
p495
S'B-NP'
p496
g5
tp497
a(S'had'
p498
S'have'
p499
S'VBD'
p500
S'B-VP'
p501
g5
tp502
a(S'evidence'
p503
S'evidence'
p504
S'NN'
p505
S'B-NP'
p506
g5
tp507
a(S'of'
p508
S'of'
p509
S'IN'
p510
S'B-PP'
p511
g5
tp512
a(S'macrovascular'
p513
S'macrovascular'
p514
S'JJ'
p515
S'B-NP'
p516
g5
tp517
a(S'disease.'
p518
S'disease.'
p519
S'NN'
p520
S'I-NP'
p521
g5
tp522
a(S'We'
p523
S'We'
p524
S'PRP'
p525
S'B-NP'
p526
g5
tp527
a(S'recruited'
p528
S'recruit'
p529
S'VBD'
p530
S'B-VP'
p531
g5
tp532
a(S'patients'
p533
S'patient'
p534
S'NNS'
p535
S'B-NP'
p536
g5
tp537
a(S'from'
p538
S'from'
p539
S'IN'
p540
S'B-PP'
p541
g5
tp542
a(S'primary-care'
p543
S'primary-care'
p544
S'JJ'
p545
S'B-NP'
p546
g5
tp547
a(S'practices'
p548
S'practice'
p549
S'NNS'
p550
S'I-NP'
p551
g5
tp552
a(S'and'
p553
S'and'
p554
S'CC'
p555
S'I-NP'
p556
g5
tp557
a(S'hospitals.'
p558
S'hospitals.'
p559
S'NNS'
p560
S'I-NP'
p561
g5
tp562
a(S'We'
p563
S'We'
p564
S'PRP'
p565
S'B-NP'
p566
g5
tp567
a(S'assigned'
p568
S'assign'
p569
S'VBD'
p570
S'B-VP'
p571
g5
tp572
a(S'patients'
p573
S'patient'
p574
S'NNS'
p575
S'B-NP'
p576
g5
tp577
a(S'to'
p578
S'to'
p579
S'TO'
p580
S'B-PP'
p581
g5
tp582
a(S'oral'
p583
S'oral'
p584
S'JJ'
p585
S'B-NP'
p586
g5
tp587
a(S'pioglitazone'
p588
S'pioglitazone'
p589
S'NN'
p590
S'I-NP'
p591
g5
tp592
a(S'titrated'
p593
S'titrate'
p594
S'VBN'
p595
S'B-VP'
p596
g5
tp597
a(S'from'
p598
S'from'
p599
S'IN'
p600
S'B-PP'
p601
g5
tp602
a(S'15'
p603
S'15'
p604
S'CD'
p605
S'B-NP'
p606
g5
tp607
a(S'mg'
p608
S'mg'
p609
S'NN'
p610
S'I-NP'
p611
g5
tp612
a(S'to'
p613
S'to'
p614
S'TO'
p615
S'B-PP'
p616
g5
tp617
a(S'45'
p618
S'45'
p619
S'CD'
p620
S'B-NP'
p621
g5
tp622
a(S'mg'
p623
S'mg'
p624
S'NN'
p625
S'I-NP'
p626
g5
tp627
a(g76
g76
g76
g5
g5
tp628
a(S'n=2605'
p629
S'n=2605'
p630
S'NN'
p631
S'B-NP'
p632
g5
tp633
a(g113
g113
g113
g5
g5
tp634
a(S'or'
p635
S'or'
p636
S'CC'
p637
g5
g5
tp638
a(S'matching'
p639
S'matching'
p640
S'NN'
p641
S'B-NP'
p642
g5
tp643
a(S'placebo'
p644
S'placebo'
p645
S'NN'
p646
S'I-NP'
p647
g5
tp648
a(g76
g76
g76
g5
g5
tp649
a(S'n=2633'
p650
S'n=2633'
p651
S'NN'
p652
S'B-NP'
p653
g5
tp654
a(g113
g113
g113
g5
g5
tp655
a(g329
g329
g329
g5
g5
tp656
a(S'to'
p657
S'to'
p658
S'TO'
p659
S'B-VP'
p660
g5
tp661
a(S'be'
p662
S'be'
p663
S'VB'
p664
S'I-VP'
p665
g5
tp666
a(S'taken'
p667
S'take'
p668
S'VBN'
p669
S'I-VP'
p670
g5
tp671
a(S'in'
p672
S'in'
p673
S'IN'
p674
S'B-PP'
p675
g5
tp676
a(S'addition'
p677
S'addition'
p678
S'NN'
p679
S'B-NP'
p680
g5
tp681
a(S'to'
p682
S'to'
p683
S'TO'
p684
S'B-PP'
p685
g5
tp686
a(S'their'
p687
S'their'
p688
S'PRP$'
p689
S'B-NP'
p690
g5
tp691
a(S'glucose-lowering'
p692
S'glucose-lowering'
p693
S'JJ'
p694
S'I-NP'
p695
g5
tp696
a(S'drugs'
p697
S'drug'
p698
S'NNS'
p699
S'I-NP'
p700
g5
tp701
a(S'and'
p702
S'and'
p703
S'CC'
p704
g5
g5
tp705
a(S'other'
p706
S'other'
p707
S'JJ'
p708
S'B-NP'
p709
g5
tp710
a(S'medications.'
p711
S'medications.'
p712
S'NN'
p713
S'I-NP'
p714
g5
tp715
a(S'Our'
p716
S'Our'
p717
S'PRP$'
p718
S'B-NP'
p719
g5
tp720
a(S'primary'
p721
S'primary'
p722
S'JJ'
p723
S'I-NP'
p724
g5
tp725
a(S'endpoint'
p726
S'endpoint'
p727
S'NN'
p728
S'I-NP'
p729
g5
tp730
a(S'was'
p731
S'be'
p732
S'VBD'
p733
S'B-VP'
p734
g5
tp735
a(S'the'
p736
S'the'
p737
S'DT'
p738
S'B-NP'
p739
g5
tp740
a(S'composite'
p741
S'composite'
p742
S'NN'
p743
S'I-NP'
p744
g5
tp745
a(S'of'
p746
S'of'
p747
S'IN'
p748
S'B-PP'
p749
g5
tp750
a(S'all-cause'
p751
S'all-cause'
p752
S'JJ'
p753
S'B-NP'
p754
g5
tp755
a(S'mortality'
p756
S'mortality'
p757
S'NN'
p758
S'I-NP'
p759
g5
tp760
a(g329
g329
g329
g5
g5
tp761
a(S'non'
p762
S'non'
p763
S'AFX'
p764
S'B-NP'
p765
g5
tp766
a(S'fatal'
p767
S'fatal'
p768
S'JJ'
p769
S'I-NP'
p770
g5
tp771
a(S'myocardial'
p772
S'myocardial'
p773
S'JJ'
p774
S'I-NP'
p775
g5
tp776
a(S'infarction'
p777
S'infarction'
p778
S'NN'
p779
S'I-NP'
p780
g5
tp781
a(g76
g76
g76
g5
g5
tp782
a(S'including'
p783
S'include'
p784
S'VBG'
p785
S'B-PP'
p786
g5
tp787
a(S'silent'
p788
S'silent'
p789
S'JJ'
p790
S'B-NP'
p791
g5
tp792
a(S'myocardial'
p793
S'myocardial'
p794
S'JJ'
p795
S'I-NP'
p796
g5
tp797
a(S'infarction'
p798
S'infarction'
p799
S'NN'
p800
S'I-NP'
p801
g5
tp802
a(g113
g113
g113
g5
g5
tp803
a(g329
g329
g329
g5
g5
tp804
a(S'stroke'
p805
S'stroke'
p806
S'NN'
p807
S'B-NP'
p808
g5
tp809
a(g329
g329
g329
g5
g5
tp810
a(S'acute'
p811
S'acute'
p812
S'JJ'
p813
S'B-NP'
p814
g5
tp815
a(S'coronary'
p816
S'coronary'
p817
S'JJ'
p818
S'I-NP'
p819
g5
tp820
a(S'syndrome'
p821
S'syndrome'
p822
S'NN'
p823
S'I-NP'
p824
g5
tp825
a(g329
g329
g329
g5
g5
tp826
a(S'endovascular'
p827
S'endovascular'
p828
S'JJ'
p829
S'B-NP'
p830
g5
tp831
a(S'or'
p832
S'or'
p833
S'CC'
p834
S'I-NP'
p835
g5
tp836
a(S'surgical'
p837
S'surgical'
p838
S'JJ'
p839
S'I-NP'
p840
g5
tp841
a(S'intervention'
p842
S'intervention'
p843
S'NN'
p844
S'I-NP'
p845
g5
tp846
a(S'in'
p847
S'in'
p848
S'IN'
p849
S'B-PP'
p850
g5
tp851
a(S'the'
p852
S'the'
p853
S'DT'
p854
S'B-NP'
p855
g5
tp856
a(S'coronary'
p857
S'coronary'
p858
S'JJ'
p859
S'I-NP'
p860
g5
tp861
a(S'or'
p862
S'or'
p863
S'CC'
p864
S'I-NP'
p865
g5
tp866
a(S'leg'
p867
S'leg'
p868
S'NN'
p869
S'I-NP'
p870
g5
tp871
a(S'arteries'
p872
S'artery'
p873
S'NNS'
p874
S'I-NP'
p875
g5
tp876
a(g329
g329
g329
g5
g5
tp877
a(S'and'
p878
S'and'
p879
S'CC'
p880
g5
g5
tp881
a(S'amputation'
p882
S'amputation'
p883
S'NN'
p884
S'B-NP'
p885
g5
tp886
a(S'above'
p887
S'above'
p888
S'IN'
p889
S'B-PP'
p890
g5
tp891
a(S'the'
p892
S'the'
p893
S'DT'
p894
S'B-NP'
p895
g5
tp896
a(S'ankle.'
p897
S'ankle.'
p898
S'NN'
p899
S'I-NP'
p900
g5
tp901
a(S'Analysis'
p902
S'Analysis'
p903
S'NN'
p904
S'I-NP'
p905
g5
tp906
a(S'was'
p907
S'be'
p908
S'VBD'
p909
S'B-VP'
p910
g5
tp911
a(S'by'
p912
S'by'
p913
S'IN'
p914
S'B-PP'
p915
g5
tp916
a(S'intention'
p917
S'intention'
p918
S'NN'
p919
S'B-NP'
p920
g5
tp921
a(S'to'
p922
S'to'
p923
S'TO'
p924
S'B-VP'
p925
g5
tp926
a(S'treat.'
p927
S'treat.'
p928
S'VB'
p929
S'I-VP'
p930
g5
tp931
a(S'This'
p932
S'This'
p933
S'DT'
p934
S'B-NP'
p935
g5
tp936
a(S'study'
p937
S'study'
p938
S'NN'
p939
S'I-NP'
p940
g5
tp941
a(S'is'
p942
S'be'
p943
S'VBZ'
p944
S'B-VP'
p945
g5
tp946
a(S'registered'
p947
S'register'
p948
S'VBN'
p949
S'I-VP'
p950
g5
tp951
a(S'as'
p952
S'as'
p953
S'IN'
p954
S'B-PP'
p955
g5
tp956
a(S'an'
p957
S'an'
p958
S'DT'
p959
S'B-NP'
p960
g5
tp961
a(S'International'
p962
S'International'
p963
S'NNP'
p964
S'I-NP'
p965
g5
tp966
a(S'Standard'
p967
S'Standard'
p968
S'NNP'
p969
S'I-NP'
p970
g5
tp971
a(S'Randomised'
p972
S'Randomised'
p973
S'NNP'
p974
S'I-NP'
p975
g5
tp976
a(S'Controlled'
p977
S'Controlled'
p978
S'NNP'
p979
S'I-NP'
p980
g5
tp981
a(S'Trial'
p982
S'Trial'
p983
S'NNP'
p984
S'I-NP'
p985
g5
tp986
a(g329
g329
g329
g5
g5
tp987
a(S'number'
p988
S'number'
p989
S'NN'
p990
S'B-NP'
p991
g5
tp992
a(S'ISRCTN'
p993
S'ISRCTN'
p994
S'NN'
p995
S'I-NP'
p996
g5
tp997
a(S'NCT00174993'
p998
S'NCT00174993'
p999
S'NN'
p1000
S'I-NP'
p1001
g5
tp1002
a(g136
g136
g136
g5
g5
tp1003
a(S'FINDINGS'
p1004
S'FINDINGS'
p1005
S'NN'
p1006
S'B-NP'
p1007
g5
tp1008
a(S'Two'
p1009
S'Two'
p1010
S'CD'
p1011
S'B-NP'
p1012
g5
tp1013
a(S'patients'
p1014
S'patient'
p1015
S'NNS'
p1016
S'I-NP'
p1017
g5
tp1018
a(S'were'
p1019
S'be'
p1020
S'VBD'
p1021
S'B-VP'
p1022
g5
tp1023
a(S'lost'
p1024
S'lose'
p1025
S'VBN'
p1026
S'I-VP'
p1027
g5
tp1028
a(S'to'
p1029
S'to'
p1030
S'TO'
p1031
S'B-PP'
p1032
g5
tp1033
a(S'follow-up'
p1034
S'follow-up'
p1035
S'NN'
p1036
S'B-NP'
p1037
g5
tp1038
a(g329
g329
g329
g5
g5
tp1039
a(S'but'
p1040
S'but'
p1041
S'CC'
p1042
g5
g5
tp1043
a(S'were'
p1044
S'be'
p1045
S'VBD'
p1046
S'B-VP'
p1047
g5
tp1048
a(S'included'
p1049
S'include'
p1050
S'VBN'
p1051
S'I-VP'
p1052
g5
tp1053
a(S'in'
p1054
S'in'
p1055
S'IN'
p1056
S'B-PP'
p1057
g5
tp1058
a(S'analyses.'
p1059
S'analyses.'
p1060
S'NN'
p1061
S'B-NP'
p1062
g5
tp1063
a(S'The'
p1064
S'The'
p1065
S'DT'
p1066
S'B-NP'
p1067
g5
tp1068
a(S'average'
p1069
S'average'
p1070
S'JJ'
p1071
S'I-NP'
p1072
g5
tp1073
a(S'time'
p1074
S'time'
p1075
S'NN'
p1076
S'I-NP'
p1077
g5
tp1078
a(S'of'
p1079
S'of'
p1080
S'IN'
p1081
S'B-PP'
p1082
g5
tp1083
a(S'observation'
p1084
S'observation'
p1085
S'NN'
p1086
S'B-NP'
p1087
g5
tp1088
a(S'was'
p1089
S'be'
p1090
S'VBD'
p1091
S'B-VP'
p1092
g5
tp1093
a(S'34.5'
p1094
S'34.5'
p1095
S'CD'
p1096
S'B-NP'
p1097
g5
tp1098
a(S'months.'
p1099
S'months.'
p1100
S'NN'
p1101
S'I-NP'
p1102
g5
tp1103
a(S'514'
p1104
S'514'
p1105
S'CD'
p1106
S'B-NP'
p1107
g5
tp1108
a(S'of'
p1109
S'of'
p1110
S'IN'
p1111
S'B-PP'
p1112
g5
tp1113
a(S'2605'
p1114
S'2605'
p1115
S'CD'
p1116
S'B-NP'
p1117
g5
tp1118
a(S'patients'
p1119
S'patient'
p1120
S'NNS'
p1121
S'I-NP'
p1122
g5
tp1123
a(S'in'
p1124
S'in'
p1125
S'IN'
p1126
S'B-PP'
p1127
g5
tp1128
a(S'the'
p1129
S'the'
p1130
S'DT'
p1131
S'B-NP'
p1132
g5
tp1133
a(S'pioglitazone'
p1134
S'pioglitazone'
p1135
S'NN'
p1136
S'I-NP'
p1137
g5
tp1138
a(S'group'
p1139
S'group'
p1140
S'NN'
p1141
S'I-NP'
p1142
g5
tp1143
a(S'and'
p1144
S'and'
p1145
S'CC'
p1146
g5
g5
tp1147
a(S'572'
p1148
S'572'
p1149
S'CD'
p1150
S'B-NP'
p1151
g5
tp1152
a(S'of'
p1153
S'of'
p1154
S'IN'
p1155
S'B-PP'
p1156
g5
tp1157
a(S'2633'
p1158
S'2633'
p1159
S'CD'
p1160
S'B-NP'
p1161
g5
tp1162
a(S'patients'
p1163
S'patient'
p1164
S'NNS'
p1165
S'I-NP'
p1166
g5
tp1167
a(S'in'
p1168
S'in'
p1169
S'IN'
p1170
S'B-PP'
p1171
g5
tp1172
a(S'the'
p1173
S'the'
p1174
S'DT'
p1175
S'B-NP'
p1176
g5
tp1177
a(S'placebo'
p1178
S'placebo'
p1179
S'NN'
p1180
S'I-NP'
p1181
g5
tp1182
a(S'group'
p1183
S'group'
p1184
S'NN'
p1185
S'I-NP'
p1186
g5
tp1187
a(S'had'
p1188
S'have'
p1189
S'VBD'
p1190
S'B-VP'
p1191
g5
tp1192
a(S'at'
p1193
S'at'
p1194
S'IN'
p1195
S'B-NP'
p1196
g5
tp1197
a(S'least'
p1198
S'least'
p1199
S'JJS'
p1200
S'I-NP'
p1201
g5
tp1202
a(S'one'
p1203
S'one'
p1204
S'CD'
p1205
S'I-NP'
p1206
g5
tp1207
a(S'event'
p1208
S'event'
p1209
S'NN'
p1210
S'I-NP'
p1211
g5
tp1212
a(S'in'
p1213
S'in'
p1214
S'IN'
p1215
S'B-PP'
p1216
g5
tp1217
a(S'the'
p1218
S'the'
p1219
S'DT'
p1220
S'B-NP'
p1221
g5
tp1222
a(S'primary'
p1223
S'primary'
p1224
S'JJ'
p1225
S'I-NP'
p1226
g5
tp1227
a(S'composite'
p1228
S'composite'
p1229
S'JJ'
p1230
S'I-NP'
p1231
g5
tp1232
a(S'endpoint'
p1233
S'endpoint'
p1234
S'NN'
p1235
S'I-NP'
p1236
g5
tp1237
a(g76
g76
g76
g5
g5
tp1238
a(S'HR'
p1239
S'HR'
p1240
S'NN'
p1241
S'B-NP'
p1242
g5
tp1243
a(S'0.90'
p1244
S'0.90'
p1245
S'CD'
p1246
S'I-NP'
p1247
g5
tp1248
a(g329
g329
g329
g5
g5
tp1249
a(S'95'
p1250
S'95'
p1251
S'CD'
p1252
S'B-NP'
p1253
g5
tp1254
a(S'%'
p1255
g1255
S'NN'
p1256
S'I-NP'
p1257
g5
tp1258
a(S'CI'
p1259
S'CI'
p1260
S'NN'
p1261
S'I-NP'
p1262
g5
tp1263
a(S'0.80-1.02'
p1264
S'0.80-1.02'
p1265
S'CD'
p1266
S'I-NP'
p1267
g5
tp1268
a(g329
g329
g329
S'I-NP'
p1269
g5
tp1270
a(S'p=0.095'
p1271
S'p=0.095'
p1272
S'NN'
p1273
S'I-NP'
p1274
g5
tp1275
a(g113
g113
g113
g5
g5
tp1276
a(g136
g136
g136
g5
g5
tp1277
a(S'The'
p1278
S'The'
p1279
S'DT'
p1280
S'B-NP'
p1281
g5
tp1282
a(S'main'
p1283
S'main'
p1284
S'JJ'
p1285
S'I-NP'
p1286
g5
tp1287
a(S'secondary'
p1288
S'secondary'
p1289
S'JJ'
p1290
S'I-NP'
p1291
g5
tp1292
a(S'endpoint'
p1293
S'endpoint'
p1294
S'NN'
p1295
S'I-NP'
p1296
g5
tp1297
a(S'was'
p1298
S'be'
p1299
S'VBD'
p1300
S'B-VP'
p1301
g5
tp1302
a(S'the'
p1303
S'the'
p1304
S'DT'
p1305
S'B-NP'
p1306
g5
tp1307
a(S'composite'
p1308
S'composite'
p1309
S'NN'
p1310
S'I-NP'
p1311
g5
tp1312
a(S'of'
p1313
S'of'
p1314
S'IN'
p1315
S'B-PP'
p1316
g5
tp1317
a(S'all-cause'
p1318
S'all-cause'
p1319
S'JJ'
p1320
S'B-NP'
p1321
g5
tp1322
a(S'mortality'
p1323
S'mortality'
p1324
S'NN'
p1325
S'I-NP'
p1326
g5
tp1327
a(g329
g329
g329
g5
g5
tp1328
a(S'non-fatal'
p1329
S'non-fatal'
p1330
S'JJ'
p1331
S'B-NP'
p1332
g5
tp1333
a(S'myocardial'
p1334
S'myocardial'
p1335
S'JJ'
p1336
S'I-NP'
p1337
g5
tp1338
a(S'infarction'
p1339
S'infarction'
p1340
S'NN'
p1341
S'I-NP'
p1342
g5
tp1343
a(g329
g329
g329
g5
g5
tp1344
a(S'and'
p1345
S'and'
p1346
S'CC'
p1347
g5
g5
tp1348
a(S'stroke.'
p1349
S'stroke.'
p1350
S'VB'
p1351
S'B-VP'
p1352
g5
tp1353
a(S'301'
p1354
S'301'
p1355
S'CD'
p1356
S'B-NP'
p1357
g5
tp1358
a(S'patients'
p1359
S'patient'
p1360
S'NNS'
p1361
S'I-NP'
p1362
g5
tp1363
a(S'in'
p1364
S'in'
p1365
S'IN'
p1366
S'B-PP'
p1367
g5
tp1368
a(S'the'
p1369
S'the'
p1370
S'DT'
p1371
S'B-NP'
p1372
g5
tp1373
a(S'pioglitazone'
p1374
S'pioglitazone'
p1375
S'NN'
p1376
S'I-NP'
p1377
g5
tp1378
a(S'group'
p1379
S'group'
p1380
S'NN'
p1381
S'I-NP'
p1382
g5
tp1383
a(S'and'
p1384
S'and'
p1385
S'CC'
p1386
g5
g5
tp1387
a(S'358'
p1388
S'358'
p1389
S'CD'
p1390
S'B-NP'
p1391
g5
tp1392
a(S'in'
p1393
S'in'
p1394
S'IN'
p1395
S'B-PP'
p1396
g5
tp1397
a(S'the'
p1398
S'the'
p1399
S'DT'
p1400
S'B-NP'
p1401
g5
tp1402
a(S'placebo'
p1403
S'placebo'
p1404
S'NN'
p1405
S'I-NP'
p1406
g5
tp1407
a(S'group'
p1408
S'group'
p1409
S'NN'
p1410
S'I-NP'
p1411
g5
tp1412
a(S'reached'
p1413
S'reach'
p1414
S'VBD'
p1415
S'B-VP'
p1416
g5
tp1417
a(S'this'
p1418
S'this'
p1419
S'DT'
p1420
S'B-NP'
p1421
g5
tp1422
a(S'endpoint'
p1423
S'endpoint'
p1424
S'NN'
p1425
S'I-NP'
p1426
g5
tp1427
a(g76
g76
g76
g5
g5
tp1428
a(S'0.84'
p1429
S'0.84'
p1430
S'CD'
p1431
S'B-NP'
p1432
g5
tp1433
a(g329
g329
g329
S'I-NP'
p1434
g5
tp1435
a(S'0.72-0.98'
p1436
S'0.72-0.98'
p1437
S'CD'
p1438
S'I-NP'
p1439
g5
tp1440
a(g329
g329
g329
S'I-NP'
p1441
g5
tp1442
a(S'p=0.027'
p1443
S'p=0.027'
p1444
S'NN'
p1445
S'I-NP'
p1446
g5
tp1447
a(g113
g113
g113
g5
g5
tp1448
a(g136
g136
g136
g5
g5
tp1449
a(S'Overall'
p1450
S'Overall'
p1451
S'JJ'
p1452
S'B-NP'
p1453
g5
tp1454
a(S'safety'
p1455
S'safety'
p1456
S'NN'
p1457
S'I-NP'
p1458
g5
tp1459
a(S'and'
p1460
S'and'
p1461
S'CC'
p1462
S'I-NP'
p1463
g5
tp1464
a(S'tolerability'
p1465
S'tolerability'
p1466
S'NN'
p1467
S'I-NP'
p1468
g5
tp1469
a(S'was'
p1470
S'be'
p1471
S'VBD'
p1472
S'B-VP'
p1473
g5
tp1474
a(S'good'
p1475
S'good'
p1476
S'JJ'
p1477
S'B-ADJP'
p1478
g5
tp1479
a(S'with'
p1480
S'with'
p1481
S'IN'
p1482
S'B-PP'
p1483
g5
tp1484
a(S'no'
p1485
S'no'
p1486
S'DT'
p1487
S'B-NP'
p1488
g5
tp1489
a(S'change'
p1490
S'change'
p1491
S'NN'
p1492
S'I-NP'
p1493
g5
tp1494
a(S'in'
p1495
S'in'
p1496
S'IN'
p1497
S'B-PP'
p1498
g5
tp1499
a(S'the'
p1500
S'the'
p1501
S'DT'
p1502
S'B-NP'
p1503
g5
tp1504
a(S'safety'
p1505
S'safety'
p1506
S'NN'
p1507
S'I-NP'
p1508
g5
tp1509
a(S'profile'
p1510
S'profile'
p1511
S'NN'
p1512
S'I-NP'
p1513
g5
tp1514
a(S'of'
p1515
S'of'
p1516
S'IN'
p1517
S'B-PP'
p1518
g5
tp1519
a(S'pioglitazone'
p1520
S'pioglitazone'
p1521
S'NN'
p1522
S'B-NP'
p1523
g5
tp1524
a(S'identified.'
p1525
S'identified.'
p1526
S'RB'
p1527
S'B-NP'
p1528
g5
tp1529
a(S'6'
p1530
g1530
S'CD'
p1531
S'I-NP'
p1532
g5
tp1533
a(g1255
g1255
S'NN'
p1534
S'I-NP'
p1535
g5
tp1536
a(g76
g76
g76
g5
g5
tp1537
a(S'149'
p1538
S'149'
p1539
S'CD'
p1540
S'B-NP'
p1541
g5
tp1542
a(S'of'
p1543
S'of'
p1544
S'IN'
p1545
S'B-PP'
p1546
g5
tp1547
a(S'2065'
p1548
S'2065'
p1549
S'CD'
p1550
S'B-NP'
p1551
g5
tp1552
a(g113
g113
g113
g5
g5
tp1553
a(S'and'
p1554
S'and'
p1555
S'CC'
p1556
g5
g5
tp1557
a(S'4'
p1558
g1558
S'CD'
p1559
S'B-NP'
p1560
g5
tp1561
a(g1255
g1255
S'NN'
p1562
S'I-NP'
p1563
g5
tp1564
a(g76
g76
g76
g5
g5
tp1565
a(S'108'
p1566
S'108'
p1567
S'CD'
p1568
S'B-NP'
p1569
g5
tp1570
a(S'of'
p1571
S'of'
p1572
S'IN'
p1573
S'B-PP'
p1574
g5
tp1575
a(S'2633'
p1576
S'2633'
p1577
S'CD'
p1578
S'B-NP'
p1579
g5
tp1580
a(g113
g113
g113
g5
g5
tp1581
a(S'of'
p1582
S'of'
p1583
S'IN'
p1584
S'B-PP'
p1585
g5
tp1586
a(S'those'
p1587
S'those'
p1588
S'DT'
p1589
S'B-NP'
p1590
g5
tp1591
a(S'in'
p1592
S'in'
p1593
S'IN'
p1594
S'B-PP'
p1595
g5
tp1596
a(S'the'
p1597
S'the'
p1598
S'DT'
p1599
S'B-NP'
p1600
g5
tp1601
a(S'pioglitazone'
p1602
S'pioglitazone'
p1603
S'NN'
p1604
S'I-NP'
p1605
g5
tp1606
a(S'and'
p1607
S'and'
p1608
S'CC'
p1609
S'I-NP'
p1610
g5
tp1611
a(S'placebo'
p1612
S'placebo'
p1613
S'NN'
p1614
S'I-NP'
p1615
g5
tp1616
a(S'groups'
p1617
S'group'
p1618
S'NNS'
p1619
S'I-NP'
p1620
g5
tp1621
a(g329
g329
g329
g5
g5
tp1622
a(S'respectively'
p1623
S'respectively'
p1624
S'RB'
p1625
S'B-ADVP'
p1626
g5
tp1627
a(g329
g329
g329
g5
g5
tp1628
a(S'were'
p1629
S'be'
p1630
S'VBD'
p1631
S'B-VP'
p1632
g5
tp1633
a(S'admitted'
p1634
S'admit'
p1635
S'VBN'
p1636
S'I-VP'
p1637
g5
tp1638
a(S'to'
p1639
S'to'
p1640
S'TO'
p1641
S'B-PP'
p1642
g5
tp1643
a(S'hospital'
p1644
S'hospital'
p1645
S'NN'
p1646
S'B-NP'
p1647
g5
tp1648
a(S'with'
p1649
S'with'
p1650
S'IN'
p1651
S'B-PP'
p1652
g5
tp1653
a(S'heart'
p1654
S'heart'
p1655
S'NN'
p1656
S'B-NP'
p1657
g5
tp1658
a(S'failure'
p1659
S'failure'
p1660
S'NN'
p1661
S'I-NP'
p1662
g5
tp1663
a(S';'
p1664
g1664
g115
g5
g5
tp1665
a(S'mortality'
p1666
S'mortality'
p1667
S'NN'
p1668
S'B-NP'
p1669
g5
tp1670
a(S'rates'
p1671
S'rate'
p1672
S'NNS'
p1673
S'I-NP'
p1674
g5
tp1675
a(S'from'
p1676
S'from'
p1677
S'IN'
p1678
S'B-PP'
p1679
g5
tp1680
a(S'heart'
p1681
S'heart'
p1682
S'NN'
p1683
S'B-NP'
p1684
g5
tp1685
a(S'failure'
p1686
S'failure'
p1687
S'NN'
p1688
S'I-NP'
p1689
g5
tp1690
a(S'did'
p1691
S'do'
p1692
S'VBD'
p1693
S'B-VP'
p1694
g5
tp1695
a(S'not'
p1696
S'not'
p1697
S'RB'
p1698
S'I-VP'
p1699
g5
tp1700
a(S'differ'
p1701
S'differ'
p1702
S'VB'
p1703
S'I-VP'
p1704
g5
tp1705
a(S'between'
p1706
S'between'
p1707
S'IN'
p1708
S'B-PP'
p1709
g5
tp1710
a(S'groups'
p1711
S'group'
p1712
S'NNS'
p1713
S'B-NP'
p1714
g5
tp1715
a(g136
g136
g136
g5
g5
tp1716
a(S'INTERPRETATION'
p1717
S'INTERPRETATION'
p1718
S'NN'
p1719
S'B-NP'
p1720
g5
tp1721
a(S'Pioglitazone'
p1722
S'Pioglitazone'
p1723
S'NN'
p1724
S'I-NP'
p1725
g5
tp1726
a(S'reduces'
p1727
S'reduce'
p1728
S'VBZ'
p1729
S'B-VP'
p1730
g5
tp1731
a(S'the'
p1732
S'the'
p1733
S'DT'
p1734
S'B-NP'
p1735
g5
tp1736
a(S'composite'
p1737
S'composite'
p1738
S'NN'
p1739
S'I-NP'
p1740
g5
tp1741
a(S'of'
p1742
S'of'
p1743
S'IN'
p1744
S'B-PP'
p1745
g5
tp1746
a(S'all-cause'
p1747
S'all-cause'
p1748
S'JJ'
p1749
S'B-NP'
p1750
g5
tp1751
a(S'mortality'
p1752
S'mortality'
p1753
S'NN'
p1754
S'I-NP'
p1755
g5
tp1756
a(g329
g329
g329
g5
g5
tp1757
a(S'non-fatal'
p1758
S'non-fatal'
p1759
S'JJ'
p1760
S'B-NP'
p1761
g5
tp1762
a(S'myocardial'
p1763
S'myocardial'
p1764
S'JJ'
p1765
S'I-NP'
p1766
g5
tp1767
a(S'infarction'
p1768
S'infarction'
p1769
S'NN'
p1770
S'I-NP'
p1771
g5
tp1772
a(g329
g329
g329
g5
g5
tp1773
a(S'and'
p1774
S'and'
p1775
S'CC'
p1776
g5
g5
tp1777
a(S'stroke'
p1778
S'stroke'
p1779
S'VBD'
p1780
S'B-VP'
p1781
g5
tp1782
a(S'in'
p1783
S'in'
p1784
S'IN'
p1785
S'B-PP'
p1786
g5
tp1787
a(S'patients'
p1788
S'patient'
p1789
S'NNS'
p1790
S'B-NP'
p1791
g5
tp1792
a(S'with'
p1793
S'with'
p1794
S'IN'
p1795
S'B-PP'
p1796
g5
tp1797
a(S'type'
p1798
S'type'
p1799
S'NN'
p1800
S'B-NP'
p1801
g5
tp1802
a(g47
g47
S'CD'
p1803
S'I-NP'
p1804
g5
tp1805
a(S'diabetes'
p1806
S'diabete'
p1807
S'NNS'
p1808
S'I-NP'
p1809
g5
tp1810
a(S'who'
p1811
S'who'
p1812
S'WP'
p1813
S'B-NP'
p1814
g5
tp1815
a(S'have'
p1816
S'have'
p1817
S'VBP'
p1818
S'B-VP'
p1819
g5
tp1820
a(g117
g117
S'DT'
p1821
S'B-NP'
p1822
g5
tp1823
a(S'high'
p1824
S'high'
p1825
S'JJ'
p1826
S'I-NP'
p1827
g5
tp1828
a(S'risk'
p1829
S'risk'
p1830
S'NN'
p1831
S'I-NP'
p1832
g5
tp1833
a(S'of'
p1834
S'of'
p1835
S'IN'
p1836
S'B-PP'
p1837
g5
tp1838
a(S'macrovascular'
p1839
S'macrovascular'
p1840
S'JJ'
p1841
S'B-NP'
p1842
g5
tp1843
a(S'events'
p1844
S'event'
p1845
S'NNS'
p1846
S'I-NP'
p1847
g5
tp1848
a(g136
g136
g136
g5
g5
tp1849
a.