(lp0
(S'Leukocyte-depleted'
p1
S'Leukocyte-depleted'
p2
S'JJ'
p3
S'B-NP'
p4
S'O'
p5
tp6
a(S'reperfusion'
p7
S'reperfusion'
p8
S'NN'
p9
S'I-NP'
p10
g5
tp11
a(S'of'
p12
S'of'
p13
S'IN'
p14
S'B-PP'
p15
g5
tp16
a(S'transplanted'
p17
S'transplant'
p18
S'VBN'
p19
S'B-NP'
p20
g5
tp21
a(S'human'
p22
S'human'
p23
S'JJ'
p24
S'I-NP'
p25
g5
tp26
a(S'hearts'
p27
S'heart'
p28
S'NNS'
p29
S'I-NP'
p30
g5
tp31
a(S':'
p32
g32
g32
g5
g5
tp33
a(S'a'
p34
g34
S'DT'
p35
S'B-NP'
p36
g5
tp37
a(S'randomized'
p38
S'randomize'
p39
S'VBN'
p40
S'I-NP'
p41
g5
tp42
a(S','
p43
g43
g43
S'I-NP'
p44
g5
tp45
a(S'double-blind'
p46
S'double-blind'
p47
S'JJ'
p48
S'I-NP'
p49
g5
tp50
a(S'clinical'
p51
S'clinical'
p52
S'JJ'
p53
S'I-NP'
p54
g5
tp55
a(S'trial'
p56
S'trial'
p57
S'NN'
p58
S'I-NP'
p59
g5
tp60
a(S'.'
p61
g61
g61
g5
g5
tp62
a(S'Standard'
p63
S'Standard'
p64
S'JJ'
p65
S'B-NP'
p66
g5
tp67
a(S'methods'
p68
S'method'
p69
S'NNS'
p70
S'I-NP'
p71
g5
tp72
a(S'of'
p73
S'of'
p74
S'IN'
p75
S'B-PP'
p76
g5
tp77
a(S'myocardial'
p78
S'myocardial'
p79
S'JJ'
p80
S'B-NP'
p81
g5
tp82
a(S'preservation'
p83
S'preservation'
p84
S'NN'
p85
S'I-NP'
p86
g5
tp87
a(S'for'
p88
S'for'
p89
S'IN'
p90
S'B-PP'
p91
g5
tp92
a(S'heart'
p93
S'heart'
p94
S'NN'
p95
S'B-NP'
p96
g5
tp97
a(S'transplantation'
p98
S'transplantation'
p99
S'NN'
p100
S'I-NP'
p101
g5
tp102
a(S'have'
p103
S'have'
p104
S'VBP'
p105
S'B-VP'
p106
g5
tp107
a(S'generally'
p108
S'generally'
p109
S'RB'
p110
S'I-VP'
p111
g5
tp112
a(S'provided'
p113
S'provide'
p114
S'VBN'
p115
S'I-VP'
p116
g5
tp117
a(S'good'
p118
S'good'
p119
S'JJ'
p120
S'B-NP'
p121
g5
tp122
a(S'results.'
p123
S'results.'
p124
S'NN'
p125
S'I-NP'
p126
g5
tp127
a(S'Preservation'
p128
S'Preservation'
p129
S'NN'
p130
S'I-NP'
p131
g5
tp132
a(S'times'
p133
S'time'
p134
S'NNS'
p135
S'I-NP'
p136
g5
tp137
a(S'beyond'
p138
S'beyond'
p139
S'IN'
p140
S'B-PP'
p141
g5
tp142
a(S'3'
p143
g143
S'CD'
p144
S'B-NP'
p145
g5
tp146
a(S'hours'
p147
S'hour'
p148
S'NNS'
p149
S'I-NP'
p150
g5
tp151
a(g43
g43
g43
g5
g5
tp152
a(S'however'
p153
S'however'
p154
S'RB'
p155
S'B-ADVP'
p156
g5
tp157
a(g43
g43
g43
g5
g5
tp158
a(S'have'
p159
S'have'
p160
S'VBP'
p161
S'B-VP'
p162
g5
tp163
a(S'been'
p164
S'be'
p165
S'VBN'
p166
S'I-VP'
p167
g5
tp168
a(S'associated'
p169
S'associate'
p170
S'VBN'
p171
S'I-VP'
p172
g5
tp173
a(S'with'
p174
S'with'
p175
S'IN'
p176
S'B-PP'
p177
g5
tp178
a(S'decreased'
p179
S'decrease'
p180
S'VBN'
p181
S'B-NP'
p182
g5
tp183
a(S'survival.'
p184
S'survival.'
p185
S'NN'
p186
S'I-NP'
p187
g5
tp188
a(S'Leukocyte-mediated'
p189
S'Leukocyte-mediated'
p190
S'JJ'
p191
S'I-NP'
p192
g5
tp193
a(S'reperfusion'
p194
S'reperfusion'
p195
S'NN'
p196
S'I-NP'
p197
g5
tp198
a(S'injury'
p199
S'injury'
p200
S'NN'
p201
S'I-NP'
p202
g5
tp203
a(S'is'
p204
S'be'
p205
S'VBZ'
p206
S'B-VP'
p207
g5
tp208
a(S'partly'
p209
S'partly'
p210
S'RB'
p211
S'B-ADJP'
p212
g5
tp213
a(S'responsible'
p214
S'responsible'
p215
S'JJ'
p216
S'I-ADJP'
p217
g5
tp218
a(S'for'
p219
S'for'
p220
S'IN'
p221
S'B-PP'
p222
g5
tp223
a(S'decreased'
p224
S'decrease'
p225
S'VBN'
p226
S'B-NP'
p227
g5
tp228
a(S'graft'
p229
S'graft'
p230
S'NN'
p231
S'I-NP'
p232
g5
tp233
a(S'function'
p234
S'function'
p235
S'NN'
p236
S'I-NP'
p237
g5
tp238
a(S'after'
p239
S'after'
p240
S'IN'
p241
S'B-PP'
p242
g5
tp243
a(S'prolonged'
p244
S'prolonged'
p245
S'JJ'
p246
S'B-NP'
p247
g5
tp248
a(S'graft'
p249
S'graft'
p250
S'NN'
p251
S'I-NP'
p252
g5
tp253
a(S'ischemia.'
p254
S'ischemia.'
p255
S'FW'
p256
S'I-NP'
p257
g5
tp258
a(S'Leukocyte-depleted'
p259
S'Leukocyte-depleted'
p260
S'JJ'
p261
S'I-NP'
p262
g5
tp263
a(S'reperfusion'
p264
S'reperfusion'
p265
S'NN'
p266
S'I-NP'
p267
g5
tp268
a(S'has'
p269
S'have'
p270
S'VBZ'
p271
S'B-VP'
p272
g5
tp273
a(S'been'
p274
S'be'
p275
S'VBN'
p276
S'I-VP'
p277
g5
tp278
a(S'shown'
p279
S'show'
p280
S'VBN'
p281
S'I-VP'
p282
g5
tp283
a(S'experimentally'
p284
S'experimentally'
p285
S'RB'
p286
S'B-ADVP'
p287
g5
tp288
a(S'to'
p289
S'to'
p290
S'TO'
p291
S'B-VP'
p292
g5
tp293
a(S'improve'
p294
S'improve'
p295
S'VB'
p296
S'I-VP'
p297
g5
tp298
a(S'cardiac'
p299
S'cardiac'
p300
S'JJ'
p301
S'B-NP'
p302
g5
tp303
a(S'function'
p304
S'function'
p305
S'NN'
p306
S'I-NP'
p307
g5
tp308
a(S'after'
p309
S'after'
p310
S'IN'
p311
S'B-PP'
p312
g5
tp313
a(S'cold'
p314
S'cold'
p315
S'JJ'
p316
S'B-NP'
p317
g5
tp318
a(S'ischemic'
p319
S'ischemic'
p320
S'JJ'
p321
S'I-NP'
p322
g5
tp323
a(S'arrest.'
p324
S'arrest.'
p325
S'NN'
p326
S'I-NP'
p327
g5
tp328
a(S'To'
p329
S'To'
p330
S'TO'
p331
S'B-VP'
p332
g5
tp333
a(S'determine'
p334
S'determine'
p335
S'VB'
p336
S'I-VP'
p337
g5
tp338
a(S'the'
p339
S'the'
p340
S'DT'
p341
S'B-NP'
p342
g5
tp343
a(S'efficacy'
p344
S'efficacy'
p345
S'NN'
p346
S'I-NP'
p347
g5
tp348
a(S'and'
p349
S'and'
p350
S'CC'
p351
S'I-NP'
p352
g5
tp353
a(S'safety'
p354
S'safety'
p355
S'NN'
p356
S'I-NP'
p357
g5
tp358
a(S'of'
p359
S'of'
p360
S'IN'
p361
S'B-PP'
p362
g5
tp363
a(S'leukocyte-depleted'
p364
S'leukocyte-depleted'
p365
S'JJ'
p366
S'B-NP'
p367
g5
tp368
a(S'reperfusion'
p369
S'reperfusion'
p370
S'NN'
p371
S'I-NP'
p372
g5
tp373
a(g43
g43
g43
g5
g5
tp374
a(S'20'
p375
S'20'
p376
S'CD'
p377
S'B-NP'
p378
g5
tp379
a(S'patients'
p380
S'patient'
p381
S'NNS'
p382
S'I-NP'
p383
g5
tp384
a(S'were'
p385
S'be'
p386
S'VBD'
p387
S'B-VP'
p388
g5
tp389
a(S'enrolled'
p390
S'enrol'
p391
S'VBN'
p392
S'I-VP'
p393
g5
tp394
a(S'in'
p395
S'in'
p396
S'IN'
p397
S'B-PP'
p398
g5
tp399
a(g34
g34
S'DT'
p400
S'B-NP'
p401
g5
tp402
a(S'randomized'
p403
S'randomize'
p404
S'VBN'
p405
S'I-NP'
p406
g5
tp407
a(g43
g43
g43
S'I-NP'
p408
g5
tp409
a(S'double-blind'
p410
S'double-blind'
p411
S'JJ'
p412
S'I-NP'
p413
g5
tp414
a(S'clinical'
p415
S'clinical'
p416
S'JJ'
p417
S'I-NP'
p418
g5
tp419
a(S'trial'
p420
S'trial'
p421
S'NN'
p422
S'I-NP'
p423
g5
tp424
a(S'to'
p425
S'to'
p426
S'TO'
p427
S'B-VP'
p428
g5
tp429
a(S'be'
p430
S'be'
p431
S'VB'
p432
S'I-VP'
p433
g5
tp434
a(S'treated'
p435
S'treat'
p436
S'VBN'
p437
S'I-VP'
p438
g5
tp439
a(S'with'
p440
S'with'
p441
S'IN'
p442
S'B-PP'
p443
g5
tp444
a(S'either'
p445
S'either'
p446
S'CC'
p447
S'B-NP'
p448
g5
tp449
a(S'warm'
p450
S'warm'
p451
S'JJ'
p452
S'I-NP'
p453
g5
tp454
a(S'whole'
p455
S'whole'
p456
S'JJ'
p457
S'I-NP'
p458
g5
tp459
a(S'blood'
p460
S'blood'
p461
S'NN'
p462
S'I-NP'
p463
g5
tp464
a(S'reperfusion'
p465
S'reperfusion'
p466
S'NN'
p467
S'I-NP'
p468
g5
tp469
a(S'('
p470
g470
g470
g5
g5
tp471
a(S'group'
p472
S'group'
p473
S'NN'
p474
S'B-NP'
p475
g5
tp476
a(S'I'
p477
g477
S'CD'
p478
S'I-NP'
p479
g5
tp480
a(S';'
p481
g481
g32
g5
g5
tp482
a(S'n'
p483
g483
S'NN'
p484
S'B-NP'
p485
g5
tp486
a(S'='
p487
g487
S'SYM'
p488
S'B-VP'
p489
g5
tp490
a(S'9'
p491
g491
S'CD'
p492
S'B-NP'
p493
g5
tp494
a(S')'
p495
g495
g495
g5
g5
tp496
a(S'or'
p497
S'or'
p498
S'CC'
p499
g5
g5
tp500
a(S'warm'
p501
S'warm'
p502
S'JJ'
p503
S'B-NP'
p504
g5
tp505
a(S'leukocyte-depleted'
p506
S'leukocyte-depleted'
p507
S'JJ'
p508
S'I-NP'
p509
g5
tp510
a(S'blood'
p511
S'blood'
p512
S'NN'
p513
S'I-NP'
p514
g5
tp515
a(S'reperfusion'
p516
S'reperfusion'
p517
S'NN'
p518
S'I-NP'
p519
g5
tp520
a(g470
g470
g470
g5
g5
tp521
a(S'group'
p522
S'group'
p523
S'NN'
p524
S'B-NP'
p525
g5
tp526
a(S'II'
p527
S'II'
p528
S'CD'
p529
S'I-NP'
p530
g5
tp531
a(g481
g481
g32
g5
g5
tp532
a(g483
g483
S'NN'
p533
S'B-NP'
p534
g5
tp535
a(g487
g487
S'SYM'
p536
S'B-VP'
p537
g5
tp538
a(S'11'
p539
S'11'
p540
S'CD'
p541
S'B-NP'
p542
g5
tp543
a(g495
g495
g495
g5
g5
tp544
a(g61
g61
g61
g5
g5
tp545
a(S'Reperfusion'
p546
S'Reperfusion'
p547
S'NN'
p548
S'B-NP'
p549
g5
tp550
a(S'with'
p551
S'with'
p552
S'IN'
p553
S'B-PP'
p554
g5
tp555
a(S'leukocyte-depleted'
p556
S'leukocyte-depleted'
p557
S'JJ'
p558
S'B-NP'
p559
g5
tp560
a(S'blood'
p561
S'blood'
p562
S'NN'
p563
S'I-NP'
p564
g5
tp565
a(S'or'
p566
S'or'
p567
S'CC'
p568
g5
g5
tp569
a(S'whole'
p570
S'whole'
p571
S'JJ'
p572
S'B-NP'
p573
g5
tp574
a(S'blood'
p575
S'blood'
p576
S'NN'
p577
S'I-NP'
p578
g5
tp579
a(S'was'
p580
S'be'
p581
S'VBD'
p582
S'B-VP'
p583
g5
tp584
a(S'carried'
p585
S'carry'
p586
S'VBN'
p587
S'I-VP'
p588
g5
tp589
a(S'out'
p590
S'out'
p591
S'RP'
p592
S'B-PRT'
p593
g5
tp594
a(S'for'
p595
S'for'
p596
S'IN'
p597
S'B-PP'
p598
g5
tp599
a(S'10'
p600
S'10'
p601
S'CD'
p602
S'B-NP'
p603
g5
tp604
a(S'minutes'
p605
S'minute'
p606
S'NNS'
p607
S'I-NP'
p608
g5
tp609
a(g43
g43
g43
g5
g5
tp610
a(S'with'
p611
S'with'
p612
S'IN'
p613
S'B-PP'
p614
g5
tp615
a(S'enriched'
p616
S'enrich'
p617
S'VBN'
p618
S'B-NP'
p619
g5
tp620
a(S'cardioplegic'
p621
S'cardioplegic'
p622
S'JJ'
p623
S'I-NP'
p624
g5
tp625
a(S'solution'
p626
S'solution'
p627
S'NN'
p628
S'I-NP'
p629
g5
tp630
a(S'added'
p631
S'add'
p632
S'VBN'
p633
S'B-VP'
p634
g5
tp635
a(S'for'
p636
S'for'
p637
S'IN'
p638
S'B-PP'
p639
g5
tp640
a(S'the'
p641
S'the'
p642
S'DT'
p643
S'B-NP'
p644
g5
tp645
a(S'first'
p646
S'first'
p647
S'JJ'
p648
S'I-NP'
p649
g5
tp650
a(g143
g143
S'CD'
p651
S'I-NP'
p652
g5
tp653
a(S'minutes'
p654
S'minute'
p655
S'NNS'
p656
S'I-NP'
p657
g5
tp658
a(S'of'
p659
S'of'
p660
S'IN'
p661
S'B-PP'
p662
g5
tp663
a(S'reperfusion.'
p664
S'reperfusion.'
p665
S'NN'
p666
S'B-NP'
p667
g5
tp668
a(S'The'
p669
S'The'
p670
S'DT'
p671
S'B-NP'
p672
g5
tp673
a(S'mean'
p674
S'mean'
p675
S'JJ'
p676
S'I-NP'
p677
g5
tp678
a(S'donor'
p679
S'donor'
p680
S'NN'
p681
S'I-NP'
p682
g5
tp683
a(S'and'
p684
S'and'
p685
S'CC'
p686
g5
g5
tp687
a(S'recipient'
p688
S'recipient'
p689
S'JJ'
p690
S'B-NP'
p691
g5
tp692
a(S'age'
p693
S'age'
p694
S'NN'
p695
S'I-NP'
p696
g5
tp697
a(S'and'
p698
S'and'
p699
S'CC'
p700
g5
g5
tp701
a(S'the'
p702
S'the'
p703
S'DT'
p704
S'B-NP'
p705
g5
tp706
a(S'ischemic'
p707
S'ischemic'
p708
S'JJ'
p709
S'I-NP'
p710
g5
tp711
a(S'time'
p712
S'time'
p713
S'NN'
p714
S'I-NP'
p715
g5
tp716
a(g470
g470
g470
g5
g5
tp717
a(S'142'
p718
S'142'
p719
S'CD'
p720
S'B-NP'
p721
g5
tp722
a(S'versus'
p723
S'versus'
p724
S'IN'
p725
S'B-NP'
p726
g5
tp727
a(S'153'
p728
S'153'
p729
S'CD'
p730
S'I-NP'
p731
g5
tp732
a(S'minutes'
p733
S'minute'
p734
S'NNS'
p735
S'I-NP'
p736
g5
tp737
a(g495
g495
g495
g5
g5
tp738
a(S'were'
p739
S'be'
p740
S'VBD'
p741
S'B-VP'
p742
g5
tp743
a(S'not'
p744
S'not'
p745
S'RB'
p746
g5
g5
tp747
a(S'significantly'
p748
S'significantly'
p749
S'RB'
p750
S'B-ADJP'
p751
g5
tp752
a(S'different'
p753
S'different'
p754
S'JJ'
p755
S'I-ADJP'
p756
g5
tp757
a(S'between'
p758
S'between'
p759
S'IN'
p760
S'B-PP'
p761
g5
tp762
a(S'the'
p763
S'the'
p764
S'DT'
p765
S'B-NP'
p766
g5
tp767
a(S'two'
p768
S'two'
p769
S'CD'
p770
S'I-NP'
p771
g5
tp772
a(S'groups.'
p773
S'groups.'
p774
S'NN'
p775
S'I-NP'
p776
g5
tp777
a(S'Coronary'
p778
S'Coronary'
p779
S'JJ'
p780
S'I-NP'
p781
g5
tp782
a(S'sinus'
p783
S'sinus'
p784
S'NN'
p785
S'I-NP'
p786
g5
tp787
a(S'release'
p788
S'release'
p789
S'NN'
p790
S'I-NP'
p791
g5
tp792
a(S'of'
p793
S'of'
p794
S'IN'
p795
S'B-PP'
p796
g5
tp797
a(S'creatinine'
p798
S'creatinine'
p799
S'NN'
p800
S'B-NP'
p801
g5
tp802
a(S'phosphokinase-MB'
p803
S'phosphokinase-MB'
p804
S'NN'
p805
S'I-NP'
p806
g5
tp807
a(S'5'
p808
g808
S'CD'
p809
S'B-NP'
p810
g5
tp811
a(S'minutes'
p812
S'minute'
p813
S'NNS'
p814
S'I-NP'
p815
g5
tp816
a(S'after'
p817
S'after'
p818
S'IN'
p819
S'B-SBAR'
p820
g5
tp821
a(S'reperfusion'
p822
S'reperfusion'
p823
S'NN'
p824
S'B-NP'
p825
g5
tp826
a(S'was'
p827
S'be'
p828
S'VBD'
p829
S'B-VP'
p830
g5
tp831
a(S'significantly'
p832
S'significantly'
p833
S'RB'
p834
S'B-ADJP'
p835
g5
tp836
a(S'less'
p837
S'less'
p838
S'JJR'
p839
S'I-ADJP'
p840
g5
tp841
a(S'in'
p842
S'in'
p843
S'IN'
p844
S'B-PP'
p845
g5
tp846
a(S'group'
p847
S'group'
p848
S'NN'
p849
S'B-NP'
p850
S'B-cell_line'
p851
tp852
a(S'II'
p853
S'II'
p854
S'CD'
p855
S'I-NP'
p856
S'I-cell_line'
p857
tp858
a(g470
g470
g470
g5
g5
tp859
a(S'1.65'
p860
S'1.65'
p861
S'CD'
p862
S'B-NP'
p863
g5
tp864
a(S'EU/min'
p865
S'EU/min'
p866
S'NN'
p867
S'I-NP'
p868
g5
tp869
a(g495
g495
g495
g5
g5
tp870
a(S'than'
p871
S'than'
p872
S'IN'
p873
S'B-PP'
p874
g5
tp875
a(S'in'
p876
S'in'
p877
S'IN'
p878
S'B-PP'
p879
g5
tp880
a(S'group'
p881
S'group'
p882
S'NN'
p883
S'B-NP'
p884
g5
tp885
a(g477
g477
S'CD'
p886
S'I-NP'
p887
g5
tp888
a(g470
g470
g470
g5
g5
tp889
a(S'3.83'
p890
S'3.83'
p891
S'CD'
p892
S'B-NP'
p893
g5
tp894
a(S'units/min'
p895
S'units/min'
p896
S'NN'
p897
S'I-NP'
p898
g5
tp899
a(g481
g481
g32
g5
g5
tp900
a(S'p'
p901
g901
S'NN'
p902
S'B-NP'
p903
g5
tp904
a(g487
g487
S'SYM'
p905
S'B-VP'
p906
g5
tp907
a(S'0.05'
p908
S'0.05'
p909
S'CD'
p910
S'B-NP'
p911
g5
tp912
a(g495
g495
g495
g5
g5
tp913
a(g61
g61
g61
g5
g5
tp914
a(S'Thromboxane'
p915
S'Thromboxane'
p916
S'NN'
p917
S'B-NP'
p918
S'B-protein'
p919
tp920
a(S'B2'
p921
S'B2'
p922
S'NN'
p923
S'I-NP'
p924
S'I-protein'
p925
tp926
a(S'release'
p927
S'release'
p928
S'NN'
p929
S'I-NP'
p930
g5
tp931
a(S'was'
p932
S'be'
p933
S'VBD'
p934
S'B-VP'
p935
g5
tp936
a(S'also'
p937
S'also'
p938
S'RB'
p939
S'B-ADVP'
p940
g5
tp941
a(S'significantly'
p942
S'significantly'
p943
S'RB'
p944
S'B-ADJP'
p945
g5
tp946
a(S'less'
p947
S'less'
p948
S'JJR'
p949
S'I-ADJP'
p950
g5
tp951
a(g470
g470
g470
g5
g5
tp952
a(g901
g901
S'NN'
p953
S'B-NP'
p954
g5
tp955
a(g487
g487
S'SYM'
p956
S'B-VP'
p957
g5
tp958
a(S'0.05'
p959
S'0.05'
p960
S'CD'
p961
S'B-NP'
p962
g5
tp963
a(g495
g495
g495
g5
g5
tp964
a(S'in'
p965
S'in'
p966
S'IN'
p967
S'B-PP'
p968
g5
tp969
a(S'group'
p970
S'group'
p971
S'NN'
p972
S'B-NP'
p973
S'B-cell_line'
p974
tp975
a(S'II'
p976
S'II'
p977
S'CD'
p978
S'I-NP'
p979
S'I-cell_line'
p980
tp981
a(g470
g470
g470
g5
g5
tp982
a(S'33.6'
p983
S'33.6'
p984
S'CD'
p985
S'B-NP'
p986
g5
tp987
a(S'pg/min'
p988
S'pg/min'
p989
S'NN'
p990
S'I-NP'
p991
g5
tp992
a(g495
g495
g495
g5
g5
tp993
a(S'than'
p994
S'than'
p995
S'IN'
p996
S'B-PP'
p997
g5
tp998
a(S'in'
p999
S'in'
p1000
S'IN'
p1001
S'B-PP'
p1002
g5
tp1003
a(S'group'
p1004
S'group'
p1005
S'NN'
p1006
S'B-NP'
p1007
g5
tp1008
a(g477
g477
S'CD'
p1009
S'I-NP'
p1010
g5
tp1011
a(g470
g470
g470
g5
g5
tp1012
a(S'67.0'
p1013
S'67.0'
p1014
S'CD'
p1015
S'B-NP'
p1016
g5
tp1017
a(S'pg/min'
p1018
S'pg/min'
p1019
S'NN'
p1020
S'I-NP'
p1021
g5
tp1022
a(g495
g495
g495
g5
g5
tp1023
a(g61
g61
g61
g5
g5
tp1024
a(S'All'
p1025
S'All'
p1026
S'DT'
p1027
S'B-NP'
p1028
g5
tp1029
a(S'hearts'
p1030
S'heart'
p1031
S'NNS'
p1032
S'I-NP'
p1033
g5
tp1034
a(S'functioned'
p1035
S'function'
p1036
S'VBD'
p1037
S'B-VP'
p1038
g5
tp1039
a(S'adequately'
p1040
S'adequately'
p1041
S'RB'
p1042
S'B-ADVP'
p1043
g5
tp1044
a(S'in'
p1045
S'in'
p1046
S'IN'
p1047
S'B-PP'
p1048
g5
tp1049
a(S'both'
p1050
S'both'
p1051
S'DT'
p1052
S'B-NP'
p1053
g5
tp1054
a(S'groups.'
p1055
S'groups.'
p1056
S'NNS'
p1057
S'I-NP'
p1058
g5
tp1059
a(S'The'
p1060
S'The'
p1061
S'DT'
p1062
S'B-NP'
p1063
g5
tp1064
a(S'duration'
p1065
S'duration'
p1066
S'NN'
p1067
S'I-NP'
p1068
g5
tp1069
a(S'of'
p1070
S'of'
p1071
S'IN'
p1072
S'B-PP'
p1073
g5
tp1074
a(S'inotropic'
p1075
S'inotropic'
p1076
S'JJ'
p1077
S'B-NP'
p1078
g5
tp1079
a(S'support'
p1080
S'support'
p1081
S'NN'
p1082
S'I-NP'
p1083
g5
tp1084
a(S'was'
p1085
S'be'
p1086
S'VBD'
p1087
S'B-VP'
p1088
g5
tp1089
a(S'shorter'
p1090
S'short'
p1091
S'JJR'
p1092
S'B-ADJP'
p1093
g5
tp1094
a(S'in'
p1095
S'in'
p1096
S'IN'
p1097
S'B-PP'
p1098
g5
tp1099
a(S'group'
p1100
S'group'
p1101
S'NN'
p1102
S'B-NP'
p1103
S'B-cell_line'
p1104
tp1105
a(S'II'
p1106
S'II'
p1107
S'CD'
p1108
S'I-NP'
p1109
S'I-cell_line'
p1110
tp1111
a(S'than'
p1112
S'than'
p1113
S'IN'
p1114
S'B-PP'
p1115
g5
tp1116
a(S'in'
p1117
S'in'
p1118
S'IN'
p1119
S'B-PP'
p1120
g5
tp1121
a(S'group'
p1122
S'group'
p1123
S'NN'
p1124
S'B-NP'
p1125
g5
tp1126
a(g477
g477
S'CD'
p1127
S'I-NP'
p1128
g5
tp1129
a(g43
g43
g43
g5
g5
tp1130
a(S'but'
p1131
S'but'
p1132
S'CC'
p1133
g5
g5
tp1134
a(S'the'
p1135
S'the'
p1136
S'DT'
p1137
S'B-NP'
p1138
g5
tp1139
a(S'difference'
p1140
S'difference'
p1141
S'NN'
p1142
S'I-NP'
p1143
g5
tp1144
a(S'was'
p1145
S'be'
p1146
S'VBD'
p1147
S'B-VP'
p1148
g5
tp1149
a(S'not'
p1150
S'not'
p1151
S'RB'
p1152
S'I-VP'
p1153
g5
tp1154
a(S'statistically'
p1155
S'statistically'
p1156
S'RB'
p1157
S'I-VP'
p1158
g5
tp1159
a(S'significant.'
p1160
S'significant.'
p1161
S'VB'
p1162
S'I-VP'
p1163
g5
tp1164
a(S'Postoperative'
p1165
S'Postoperative'
p1166
S'JJ'
p1167
S'B-NP'
p1168
g5
tp1169
a(S'hemodynamics'
p1170
S'hemodynamic'
p1171
S'NNS'
p1172
S'I-NP'
p1173
g5
tp1174
a(g43
g43
g43
g5
g5
tp1175
a(S'rejection'
p1176
S'rejection'
p1177
S'NN'
p1178
S'B-NP'
p1179
g5
tp1180
a(S'episodes'
p1181
S'episode'
p1182
S'NNS'
p1183
S'I-NP'
p1184
g5
tp1185
a(g43
g43
g43
g5
g5
tp1186
a(S'and'
p1187
S'and'
p1188
S'CC'
p1189
g5
g5
tp1190
a(S'infectious'
p1191
S'infectious'
p1192
S'JJ'
p1193
S'B-NP'
p1194
g5
tp1195
a(S'complications'
p1196
S'complication'
p1197
S'NNS'
p1198
S'I-NP'
p1199
g5
tp1200
a(S'were'
p1201
S'be'
p1202
S'VBD'
p1203
S'B-VP'
p1204
g5
tp1205
a(S'also'
p1206
S'also'
p1207
S'RB'
p1208
S'B-ADVP'
p1209
g5
tp1210
a(S'not'
p1211
S'not'
p1212
S'RB'
p1213
S'B-ADJP'
p1214
g5
tp1215
a(S'significantly'
p1216
S'significantly'
p1217
S'RB'
p1218
S'I-ADJP'
p1219
g5
tp1220
a(S'different'
p1221
S'different'
p1222
S'JJ'
p1223
S'I-ADJP'
p1224
g5
tp1225
a(S'between'
p1226
S'between'
p1227
S'IN'
p1228
S'B-PP'
p1229
g5
tp1230
a(S'groups'
p1231
S'group'
p1232
S'NNS'
p1233
S'B-NP'
p1234
g5
tp1235
a(S'in'
p1236
S'in'
p1237
S'IN'
p1238
S'B-PP'
p1239
g5
tp1240
a(g34
g34
S'DT'
p1241
S'B-NP'
p1242
g5
tp1243
a(S'mean'
p1244
S'mean'
p1245
S'JJ'
p1246
S'I-NP'
p1247
g5
tp1248
a(S'follow-up'
p1249
S'follow-up'
p1250
S'NN'
p1251
S'I-NP'
p1252
g5
tp1253
a(S'of'
p1254
S'of'
p1255
S'IN'
p1256
S'B-PP'
p1257
g5
tp1258
a(g491
g491
S'CD'
p1259
S'B-NP'
p1260
g5
tp1261
a(S'months.'
p1262
S'months.'
p1263
S'NN'
p1264
S'I-NP'
p1265
g5
tp1266
a(S'Mean'
p1267
S'Mean'
p1268
S'NN'
p1269
S'I-NP'
p1270
g5
tp1271
a(S'ejection'
p1272
S'ejection'
p1273
S'NN'
p1274
S'I-NP'
p1275
g5
tp1276
a(S'fraction'
p1277
S'fraction'
p1278
S'NN'
p1279
S'I-NP'
p1280
g5
tp1281
a(S'1'
p1282
g1282
S'CD'
p1283
S'I-NP'
p1284
g5
tp1285
a(S'month'
p1286
S'month'
p1287
S'NN'
p1288
S'I-NP'
p1289
g5
tp1290
a(S'after'
p1291
S'after'
p1292
S'IN'
p1293
S'B-PP'
p1294
g5
tp1295
a(S'operation'
p1296
S'operation'
p1297
S'NN'
p1298
S'B-NP'
p1299
g5
tp1300
a(S'was'
p1301
S'be'
p1302
S'VBD'
p1303
S'B-VP'
p1304
g5
tp1305
a(S'65'
p1306
S'65'
p1307
S'CD'
p1308
S'B-NP'
p1309
g5
tp1310
a(S'%'
p1311
g1311
S'NN'
p1312
S'I-NP'
p1313
g5
tp1314
a(S'in'
p1315
S'in'
p1316
S'IN'
p1317
S'B-PP'
p1318
g5
tp1319
a(S'both'
p1320
S'both'
p1321
S'DT'
p1322
S'B-NP'
p1323
g5
tp1324
a(S'groups.'
p1325
S'groups.'
p1326
S'NNS'
p1327
S'I-NP'
p1328
g5
tp1329
a(S'One'
p1330
S'One'
p1331
S'CD'
p1332
S'I-NP'
p1333
g5
tp1334
a(S'early'
p1335
S'early'
p1336
S'JJ'
p1337
S'I-NP'
p1338
g5
tp1339
a(S'death'
p1340
S'death'
p1341
S'NN'
p1342
S'I-NP'
p1343
g5
tp1344
a(S'occurred'
p1345
S'occur'
p1346
S'VBD'
p1347
S'B-VP'
p1348
g5
tp1349
a(S'at'
p1350
S'at'
p1351
S'IN'
p1352
S'B-PP'
p1353
g5
tp1354
a(S'66'
p1355
S'66'
p1356
S'CD'
p1357
S'B-NP'
p1358
g5
tp1359
a(S'days'
p1360
S'day'
p1361
S'NNS'
p1362
S'I-NP'
p1363
g5
tp1364
a(S'secondary'
p1365
S'secondary'
p1366
S'JJ'
p1367
S'B-ADJP'
p1368
g5
tp1369
a(S'to'
p1370
S'to'
p1371
S'TO'
p1372
S'B-PP'
p1373
g5
tp1374
a(S'infection'
p1375
S'infection'
p1376
S'NN'
p1377
S'B-NP'
p1378
g5
tp1379
a(g481
g481
g32
g5
g5
tp1380
a(S'two'
p1381
S'two'
p1382
S'CD'
p1383
S'B-NP'
p1384
g5
tp1385
a(S'late'
p1386
S'late'
p1387
S'JJ'
p1388
S'I-NP'
p1389
g5
tp1390
a(S'deaths'
p1391
S'death'
p1392
S'NNS'
p1393
S'I-NP'
p1394
g5
tp1395
a(S'occurred'
p1396
S'occur'
p1397
S'VBD'
p1398
S'B-VP'
p1399
g5
tp1400
a(S'in'
p1401
S'in'
p1402
S'IN'
p1403
S'B-PP'
p1404
g5
tp1405
a(S'group'
p1406
S'group'
p1407
S'NN'
p1408
S'B-NP'
p1409
S'B-cell_line'
p1410
tp1411
a(S'II'
p1412
S'II'
p1413
S'CD'
p1414
S'I-NP'
p1415
S'I-cell_line'
p1416
tp1417
a(g43
g43
g43
S'B-PP'
p1418
g5
tp1419
a(S'both'
p1420
S'both'
p1421
S'CC'
p1422
S'I-PP'
p1423
g5
tp1424
a(S'from'
p1425
S'from'
p1426
S'IN'
p1427
S'B-PP'
p1428
g5
tp1429
a(S'rejection.'
p1430
S'rejection.'
p1431
S'JJ'
p1432
S'B-NP'
p1433
g5
tp1434
a(S'Leukocyte-depleted'
p1435
S'Leukocyte-depleted'
p1436
S'JJ'
p1437
S'I-NP'
p1438
g5
tp1439
a(S'reperfusion'
p1440
S'reperfusion'
p1441
S'NN'
p1442
S'I-NP'
p1443
g5
tp1444
a(S'is'
p1445
S'be'
p1446
S'VBZ'
p1447
S'B-VP'
p1448
g5
tp1449
a(S'safe'
p1450
S'safe'
p1451
S'JJ'
p1452
S'B-ADJP'
p1453
g5
tp1454
a(S'and'
p1455
S'and'
p1456
S'CC'
p1457
g5
g5
tp1458
a(S'easily'
p1459
S'easily'
p1460
S'RB'
p1461
S'B-VP'
p1462
g5
tp1463
a(S'applied'
p1464
S'apply'
p1465
S'VBN'
p1466
S'I-VP'
p1467
g5
tp1468
a(S'in'
p1469
S'in'
p1470
S'IN'
p1471
S'B-PP'
p1472
g5
tp1473
a(S'the'
p1474
S'the'
p1475
S'DT'
p1476
S'B-NP'
p1477
g5
tp1478
a(S'operating'
p1479
S'operating'
p1480
S'NN'
p1481
S'I-NP'
p1482
g5
tp1483
a(S'room.'
p1484
S'room.'
p1485
S'NN'
p1486
S'I-NP'
p1487
g5
tp1488
a(S'Furthermore'
p1489
S'Furthermore'
p1490
S'RB'
p1491
S'B-ADVP'
p1492
g5
tp1493
a(g43
g43
g43
g5
g5
tp1494
a(S'leukocyte-depleted'
p1495
S'leukocyte-depleted'
p1496
S'JJ'
p1497
S'B-NP'
p1498
g5
tp1499
a(S'reperfusion'
p1500
S'reperfusion'
p1501
S'NN'
p1502
S'I-NP'
p1503
g5
tp1504
a(S'decreases'
p1505
S'decrease'
p1506
S'VBZ'
p1507
S'B-VP'
p1508
g5
tp1509
a(S'biochemical'
p1510
S'biochemical'
p1511
S'JJ'
p1512
S'B-NP'
p1513
g5
tp1514
a(S'evidence'
p1515
S'evidence'
p1516
S'NN'
p1517
S'I-NP'
p1518
g5
tp1519
a(S'of'
p1520
S'of'
p1521
S'IN'
p1522
S'B-PP'
p1523
g5
tp1524
a(S'reperfusion'
p1525
S'reperfusion'
p1526
S'NN'
p1527
S'B-NP'
p1528
g5
tp1529
a(S'injury.'
p1530
S'injury.'
p1531
S'NN'
p1532
S'I-NP'
p1533
g5
tp1534
a(S'Although'
p1535
S'Although'
p1536
S'IN'
p1537
S'B-PP'
p1538
g5
tp1539
a(S'not'
p1540
S'not'
p1541
S'RB'
p1542
g5
g5
tp1543
a(S'influencing'
p1544
S'influence'
p1545
S'VBG'
p1546
S'B-VP'
p1547
g5
tp1548
a(S'postoperative'
p1549
S'postoperative'
p1550
S'JJ'
p1551
S'B-NP'
p1552
g5
tp1553
a(S'cardiac'
p1554
S'cardiac'
p1555
S'JJ'
p1556
S'I-NP'
p1557
g5
tp1558
a(S'function'
p1559
S'function'
p1560
S'NN'
p1561
S'I-NP'
p1562
g5
tp1563
a(S'when'
p1564
S'when'
p1565
S'WRB'
p1566
S'B-ADVP'
p1567
g5
tp1568
a(S'the'
p1569
S'the'
p1570
S'DT'
p1571
S'B-NP'
p1572
g5
tp1573
a(S'ischemic'
p1574
S'ischemic'
p1575
S'JJ'
p1576
S'I-NP'
p1577
g5
tp1578
a(S'time'
p1579
S'time'
p1580
S'NN'
p1581
S'I-NP'
p1582
g5
tp1583
a(S'is'
p1584
S'be'
p1585
S'VBZ'
p1586
S'B-VP'
p1587
g5
tp1588
a(S'short'
p1589
S'short'
p1590
S'JJ'
p1591
S'B-ADJP'
p1592
g5
tp1593
a(g43
g43
g43
g5
g5
tp1594
a(S'less'
p1595
S'less'
p1596
S'JJR'
p1597
S'B-NP'
p1598
g5
tp1599
a(S'than'
p1600
S'than'
p1601
S'IN'
p1602
S'I-NP'
p1603
g5
tp1604
a(g143
g143
S'CD'
p1605
S'I-NP'
p1606
g5
tp1607
a(S'hours'
p1608
S'hour'
p1609
S'NNS'
p1610
S'I-NP'
p1611
g5
tp1612
a(g43
g43
g43
g5
g5
tp1613
a(S'leukocyte-depleted'
p1614
S'leukocyte-depleted'
p1615
S'JJ'
p1616
S'B-NP'
p1617
g5
tp1618
a(S'reperfusion'
p1619
S'reperfusion'
p1620
S'NN'
p1621
S'I-NP'
p1622
g5
tp1623
a(S'may'
p1624
S'may'
p1625
S'MD'
p1626
S'B-VP'
p1627
g5
tp1628
a(S'prevent'
p1629
S'prevent'
p1630
S'VB'
p1631
S'I-VP'
p1632
g5
tp1633
a(S'significant'
p1634
S'significant'
p1635
S'JJ'
p1636
S'B-NP'
p1637
g5
tp1638
a(S'reperfusion'
p1639
S'reperfusion'
p1640
S'NN'
p1641
S'I-NP'
p1642
g5
tp1643
a(S'injury'
p1644
S'injury'
p1645
S'NN'
p1646
S'I-NP'
p1647
g5
tp1648
a(S'and'
p1649
S'and'
p1650
S'CC'
p1651
g5
g5
tp1652
a(S'improve'
p1653
S'improve'
p1654
S'VB'
p1655
S'B-VP'
p1656
g5
tp1657
a(S'posttransplantation'
p1658
S'posttransplantation'
p1659
S'NN'
p1660
S'B-NP'
p1661
g5
tp1662
a(S'graft'
p1663
S'graft'
p1664
S'NN'
p1665
S'I-NP'
p1666
g5
tp1667
a(S'function'
p1668
S'function'
p1669
S'NN'
p1670
S'I-NP'
p1671
g5
tp1672
a(S'when'
p1673
S'when'
p1674
S'WRB'
p1675
S'B-ADVP'
p1676
g5
tp1677
a(S'ischemic'
p1678
S'ischemic'
p1679
S'JJ'
p1680
S'B-NP'
p1681
g5
tp1682
a(S'times'
p1683
S'time'
p1684
S'NNS'
p1685
S'I-NP'
p1686
g5
tp1687
a(S'are'
p1688
S'be'
p1689
S'VBP'
p1690
S'B-VP'
p1691
g5
tp1692
a(S'long.'
p1693
S'long.'
p1694
S'JJ'
p1695
S'B-NP'
p1696
g5
tp1697
a(S'Safe'
p1698
S'Safe'
p1699
S'NNP'
p1700
S'I-NP'
p1701
g5
tp1702
a(S'extension'
p1703
S'extension'
p1704
S'NN'
p1705
S'I-NP'
p1706
g5
tp1707
a(S'of'
p1708
S'of'
p1709
S'IN'
p1710
S'B-PP'
p1711
g5
tp1712
a(S'the'
p1713
S'the'
p1714
S'DT'
p1715
S'B-NP'
p1716
g5
tp1717
a(S'ischemic'
p1718
S'ischemic'
p1719
S'JJ'
p1720
S'I-NP'
p1721
g5
tp1722
a(S'time'
p1723
S'time'
p1724
S'NN'
p1725
S'I-NP'
p1726
g5
tp1727
a(S'would'
p1728
S'would'
p1729
S'MD'
p1730
S'B-VP'
p1731
g5
tp1732
a(S'expand'
p1733
S'expand'
p1734
S'VB'
p1735
S'I-VP'
p1736
g5
tp1737
a(S'the'
p1738
S'the'
p1739
S'DT'
p1740
S'B-NP'
p1741
g5
tp1742
a(S'donor'
p1743
S'donor'
p1744
S'NN'
p1745
S'I-NP'
p1746
g5
tp1747
a(S'pool'
p1748
S'pool'
p1749
S'NN'
p1750
S'I-NP'
p1751
g5
tp1752
a(S'and'
p1753
S'and'
p1754
S'CC'
p1755
g5
g5
tp1756
a(S'allow'
p1757
S'allow'
p1758
S'VB'
p1759
S'B-VP'
p1760
g5
tp1761
a(S'for'
p1762
S'for'
p1763
S'IN'
p1764
S'B-PP'
p1765
g5
tp1766
a(S'better'
p1767
S'good'
p1768
S'JJR'
p1769
S'B-NP'
p1770
g5
tp1771
a(S'crossmatching'
p1772
S'crossmatching'
p1773
S'NN'
p1774
S'I-NP'
p1775
g5
tp1776
a(g61
g61
g61
g5
g5
tp1777
a.