(lp0
(S'Effects'
p1
S'Effect'
p2
S'NNS'
p3
S'B-NP'
p4
S'O'
p5
tp6
a(S'of'
p7
S'of'
p8
S'IN'
p9
S'B-PP'
p10
g5
tp11
a(S'adjunctive'
p12
S'adjunctive'
p13
S'JJ'
p14
S'B-NP'
p15
g5
tp16
a(S'zonisamide'
p17
S'zonisamide'
p18
S'NN'
p19
S'I-NP'
p20
g5
tp21
a(S'treatment'
p22
S'treatment'
p23
S'NN'
p24
S'I-NP'
p25
g5
tp26
a(S'on'
p27
S'on'
p28
S'IN'
p29
S'B-PP'
p30
g5
tp31
a(S'weight'
p32
S'weight'
p33
S'NN'
p34
S'B-NP'
p35
g5
tp36
a(S'and'
p37
S'and'
p38
S'CC'
p39
S'I-NP'
p40
g5
tp41
a(S'body'
p42
S'body'
p43
S'NN'
p44
S'I-NP'
p45
g5
tp46
a(S'mass'
p47
S'mass'
p48
S'NN'
p49
S'I-NP'
p50
g5
tp51
a(S'index'
p52
S'index'
p53
S'NN'
p54
S'I-NP'
p55
g5
tp56
a(S'in'
p57
S'in'
p58
S'IN'
p59
S'B-PP'
p60
g5
tp61
a(S'children'
p62
S'child'
p63
S'NNS'
p64
S'B-NP'
p65
g5
tp66
a(S'with'
p67
S'with'
p68
S'IN'
p69
S'B-PP'
p70
g5
tp71
a(S'partial'
p72
S'partial'
p73
S'JJ'
p74
S'B-NP'
p75
g5
tp76
a(S'epilepsy'
p77
S'epilepsy'
p78
S'NN'
p79
S'I-NP'
p80
g5
tp81
a(S'.'
p82
g82
g82
g5
g5
tp83
a(S'BACKGROUND'
p84
S'BACKGROUND'
p85
S'NN'
p86
S'B-NP'
p87
g5
tp88
a(S'Zonisamide'
p89
S'Zonisamide'
p90
S'NN'
p91
S'I-NP'
p92
g5
tp93
a(S'has'
p94
S'have'
p95
S'VBZ'
p96
S'B-VP'
p97
g5
tp98
a(S'been'
p99
S'be'
p100
S'VBN'
p101
S'I-VP'
p102
g5
tp103
a(S'associated'
p104
S'associate'
p105
S'VBN'
p106
S'I-VP'
p107
g5
tp108
a(S'with'
p109
S'with'
p110
S'IN'
p111
S'B-PP'
p112
g5
tp113
a(S'weight'
p114
S'weight'
p115
S'NN'
p116
S'B-NP'
p117
g5
tp118
a(S'loss'
p119
S'loss'
p120
S'NN'
p121
S'I-NP'
p122
g5
tp123
a(S'in'
p124
S'in'
p125
S'IN'
p126
S'B-PP'
p127
g5
tp128
a(S'children'
p129
S'child'
p130
S'NNS'
p131
S'B-NP'
p132
g5
tp133
a(S'and'
p134
S'and'
p135
S'CC'
p136
S'I-NP'
p137
g5
tp138
a(S'adults'
p139
S'adult'
p140
S'NNS'
p141
S'I-NP'
p142
g5
tp143
a(g82
g82
g82
g5
g5
tp144
a(S'AIMS'
p145
S'AIMS'
p146
S'NNS'
p147
S'B-NP'
p148
g5
tp149
a(S'OF'
p150
S'OF'
p151
S'IN'
p152
S'B-PP'
p153
g5
tp154
a(S'THE'
p155
S'THE'
p156
S'DT'
p157
S'B-NP'
p158
g5
tp159
a(S'STUDY'
p160
S'STUDY'
p161
S'NN'
p162
S'I-NP'
p163
g5
tp164
a(S'To'
p165
S'To'
p166
S'TO'
p167
S'B-VP'
p168
g5
tp169
a(S'assess'
p170
S'assess'
p171
S'VB'
p172
S'I-VP'
p173
g5
tp174
a(S'the'
p175
S'the'
p176
S'DT'
p177
S'B-NP'
p178
g5
tp179
a(S'effects'
p180
S'effect'
p181
S'NNS'
p182
S'I-NP'
p183
g5
tp184
a(S'of'
p185
S'of'
p186
S'IN'
p187
S'B-PP'
p188
g5
tp189
a(S'adjunctive'
p190
S'adjunctive'
p191
S'JJ'
p192
S'B-NP'
p193
g5
tp194
a(S'zonisamide'
p195
S'zonisamide'
p196
S'NN'
p197
S'I-NP'
p198
g5
tp199
a(S'on'
p200
S'on'
p201
S'IN'
p202
S'B-PP'
p203
g5
tp204
a(S'weight'
p205
S'weight'
p206
S'NN'
p207
S'B-NP'
p208
g5
tp209
a(S'and'
p210
S'and'
p211
S'CC'
p212
S'I-NP'
p213
g5
tp214
a(S'body'
p215
S'body'
p216
S'NN'
p217
S'I-NP'
p218
g5
tp219
a(S'mass'
p220
S'mass'
p221
S'NN'
p222
S'I-NP'
p223
g5
tp224
a(S'index'
p225
S'index'
p226
S'NN'
p227
S'I-NP'
p228
g5
tp229
a(S'('
p230
g230
g230
g5
g5
tp231
a(S'BMI'
p232
S'BMI'
p233
S'NN'
p234
S'B-NP'
p235
S'B-protein'
p236
tp237
a(S')'
p238
g238
g238
g5
g5
tp239
a(S'in'
p240
S'in'
p241
S'IN'
p242
S'B-PP'
p243
g5
tp244
a(S'children'
p245
S'child'
p246
S'NNS'
p247
S'B-NP'
p248
g5
tp249
a(S'with'
p250
S'with'
p251
S'IN'
p252
S'B-PP'
p253
g5
tp254
a(S'partial'
p255
S'partial'
p256
S'JJ'
p257
S'B-NP'
p258
g5
tp259
a(S'epilepsy'
p260
S'epilepsy'
p261
S'NN'
p262
S'I-NP'
p263
g5
tp264
a(g82
g82
g82
g5
g5
tp265
a(S'METHODS'
p266
S'METHODS'
p267
S'NNS'
p268
S'B-NP'
p269
g5
tp270
a(S'A'
p271
g271
S'DT'
p272
S'B-NP'
p273
g5
tp274
a(S'subanalysis'
p275
S'subanalysis'
p276
S'NN'
p277
S'I-NP'
p278
g5
tp279
a(S'was'
p280
S'be'
p281
S'VBD'
p282
S'B-VP'
p283
g5
tp284
a(S'conducted'
p285
S'conduct'
p286
S'VBN'
p287
S'I-VP'
p288
g5
tp289
a(S'of'
p290
S'of'
p291
S'IN'
p292
S'B-PP'
p293
g5
tp294
a(S'a'
p295
g295
S'DT'
p296
S'B-NP'
p297
g5
tp298
a(S'Phase'
p299
S'Phase'
p300
S'NN'
p301
S'I-NP'
p302
g5
tp303
a(S'III'
p304
S'III'
p305
S'CD'
p306
S'I-NP'
p307
g5
tp308
a(S'trial'
p309
S'trial'
p310
S'NN'
p311
S'I-NP'
p312
g5
tp313
a(S'and'
p314
S'and'
p315
S'CC'
p316
S'I-NP'
p317
g5
tp318
a(S'extension'
p319
S'extension'
p320
S'NN'
p321
S'I-NP'
p322
g5
tp323
a(S'study'
p324
S'study'
p325
S'NN'
p326
S'I-NP'
p327
g5
tp328
a(S','
p329
g329
g329
g5
g5
tp330
a(S'in'
p331
S'in'
p332
S'IN'
p333
S'B-PP'
p334
g5
tp335
a(S'which'
p336
S'which'
p337
S'WDT'
p338
S'B-NP'
p339
g5
tp340
a(S'children'
p341
S'child'
p342
S'NNS'
p343
S'B-NP'
p344
g5
tp345
a(S'with'
p346
S'with'
p347
S'IN'
p348
S'B-PP'
p349
g5
tp350
a(S'partial'
p351
S'partial'
p352
S'JJ'
p353
S'B-NP'
p354
g5
tp355
a(S'epilepsy'
p356
S'epilepsy'
p357
S'NN'
p358
S'I-NP'
p359
g5
tp360
a(S'received'
p361
S'receive'
p362
S'VBD'
p363
S'B-VP'
p364
g5
tp365
a(S'adjunctive'
p366
S'adjunctive'
p367
S'JJ'
p368
S'B-NP'
p369
g5
tp370
a(S'zonisamide'
p371
S'zonisamide'
p372
S'NN'
p373
S'I-NP'
p374
g5
tp375
a(g230
g230
g230
g5
g5
tp376
a(S'target'
p377
S'target'
p378
S'NN'
p379
S'B-NP'
p380
g5
tp381
a(S'dose'
p382
S'dose'
p383
S'NN'
p384
S'I-NP'
p385
g5
tp386
a(S'8'
p387
g387
S'CD'
p388
S'B-NP'
p389
g5
tp390
a(S'mg/kg/day'
p391
S'mg/kg/day'
p392
S'NN'
p393
S'I-NP'
p394
g5
tp395
a(S';'
p396
g396
S':'
p397
g5
g5
tp398
a(S'maximum'
p399
S'maximum'
p400
S'NN'
p401
S'B-NP'
p402
g5
tp403
a(S'500'
p404
S'500'
p405
S'CD'
p406
S'I-NP'
p407
g5
tp408
a(S'mg/day'
p409
S'mg/day'
p410
S'NN'
p411
S'I-NP'
p412
g5
tp413
a(g238
g238
g238
g5
g5
tp414
a(g82
g82
g82
g5
g5
tp415
a(S'Changes'
p416
S'Change'
p417
S'NNS'
p418
S'B-NP'
p419
g5
tp420
a(S'in'
p421
S'in'
p422
S'IN'
p423
S'B-PP'
p424
g5
tp425
a(S'weight'
p426
S'weight'
p427
S'NN'
p428
S'B-NP'
p429
g5
tp430
a(S'were'
p431
S'be'
p432
S'VBD'
p433
S'B-VP'
p434
g5
tp435
a(S'correlated'
p436
S'correlate'
p437
S'VBN'
p438
S'I-VP'
p439
g5
tp440
a(S'with'
p441
S'with'
p442
S'IN'
p443
S'B-PP'
p444
g5
tp445
a(S'skeletal'
p446
S'skeletal'
p447
S'JJ'
p448
S'B-NP'
p449
g5
tp450
a(S'development'
p451
S'development'
p452
S'NN'
p453
S'I-NP'
p454
g5
tp455
a(S'and'
p456
S'and'
p457
S'CC'
p458
g5
g5
tp459
a(S'sexual'
p460
S'sexual'
p461
S'JJ'
p462
S'B-NP'
p463
g5
tp464
a(S'maturation'
p465
S'maturation'
p466
S'NN'
p467
S'I-NP'
p468
g5
tp469
a(g82
g82
g82
g5
g5
tp470
a(S'RESULTS'
p471
S'RESULTS'
p472
S'NNS'
p473
S'B-NP'
p474
g5
tp475
a(S'Overall'
p476
S'Overall'
p477
S'RB'
p478
S'B-ADVP'
p479
g5
tp480
a(g329
g329
g329
g5
g5
tp481
a(S'179'
p482
S'179'
p483
S'CD'
p484
S'B-NP'
p485
g5
tp486
a(S'children'
p487
S'child'
p488
S'NNS'
p489
S'I-NP'
p490
g5
tp491
a(g230
g230
g230
g5
g5
tp492
a(S'93'
p493
S'93'
p494
S'CD'
p495
S'B-NP'
p496
g5
tp497
a(S'male'
p498
S'male'
p499
S'JJ'
p500
S'I-NP'
p501
g5
tp502
a(g329
g329
g329
g5
g5
tp503
a(S'86'
p504
S'86'
p505
S'CD'
p506
S'B-NP'
p507
g5
tp508
a(S'female'
p509
S'female'
p510
S'JJ'
p511
S'I-NP'
p512
g5
tp513
a(g396
g396
g397
g5
g5
tp514
a(S'age'
p515
S'age'
p516
S'NN'
p517
S'B-NP'
p518
g5
tp519
a(S'6-18'
p520
S'6-18'
p521
S'CD'
p522
S'B-NP'
p523
g5
tp524
a(S'years'
p525
S'year'
p526
S'NNS'
p527
S'I-NP'
p528
g5
tp529
a(g238
g238
g238
g5
g5
tp530
a(S'received'
p531
S'receive'
p532
S'VBD'
p533
S'B-VP'
p534
g5
tp535
a(S'zonisamide'
p536
S'zonisamide'
p537
S'NN'
p538
S'B-NP'
p539
g5
tp540
a(g230
g230
g230
g5
g5
tp541
a(S'mean'
p542
S'mean'
p543
S'JJ'
p544
S'B-NP'
p545
g5
tp546
a(S'duration'
p547
S'duration'
p548
S'NN'
p549
S'I-NP'
p550
g5
tp551
a(S'370.6'
p552
S'370.6'
p553
S'CD'
p554
S'B-NP'
p555
g5
tp556
a(S'days'
p557
S'day'
p558
S'NNS'
p559
S'I-NP'
p560
g5
tp561
a(g238
g238
g238
g5
g5
tp562
a(g82
g82
g82
g5
g5
tp563
a(S'Weight'
p564
S'Weight'
p565
S'NN'
p566
S'B-NP'
p567
g5
tp568
a(S'loss'
p569
S'loss'
p570
S'NN'
p571
S'I-NP'
p572
g5
tp573
a(S'\xe2\x89\xa5'
p574
S'\xe2\x89\xa5'
p575
S'IN'
p576
S'B-PP'
p577
g5
tp578
a(S'5'
p579
g579
S'CD'
p580
S'B-NP'
p581
g5
tp582
a(S'%'
p583
g583
S'NN'
p584
S'I-NP'
p585
g5
tp586
a(S'was'
p587
S'be'
p588
S'VBD'
p589
S'B-VP'
p590
g5
tp591
a(S'reported'
p592
S'report'
p593
S'VBN'
p594
S'I-VP'
p595
g5
tp596
a(S'for'
p597
S'for'
p598
S'IN'
p599
S'B-PP'
p600
g5
tp601
a(S'64'
p602
S'64'
p603
S'CD'
p604
S'B-NP'
p605
g5
tp606
a(S'of'
p607
S'of'
p608
S'IN'
p609
S'B-PP'
p610
g5
tp611
a(S'179'
p612
S'179'
p613
S'CD'
p614
S'B-NP'
p615
g5
tp616
a(g230
g230
g230
g5
g5
tp617
a(S'35.8'
p618
S'35.8'
p619
S'CD'
p620
S'B-NP'
p621
g5
tp622
a(g583
g583
S'NN'
p623
S'I-NP'
p624
g5
tp625
a(g238
g238
g238
g5
g5
tp626
a(S'zonisamide-treated'
p627
S'zonisamide-treated'
p628
S'JJ'
p629
S'B-NP'
p630
g5
tp631
a(S'children.'
p632
S'children.'
p633
S'NN'
p634
S'I-NP'
p635
g5
tp636
a(S'Of'
p637
S'Of'
p638
S'IN'
p639
S'B-PP'
p640
g5
tp641
a(S'these'
p642
S'these'
p643
S'DT'
p644
S'B-NP'
p645
g5
tp646
a(g329
g329
g329
g5
g5
tp647
a(S'46.9'
p648
S'46.9'
p649
S'CD'
p650
S'B-NP'
p651
g5
tp652
a(g583
g583
S'NN'
p653
S'I-NP'
p654
g5
tp655
a(S'were'
p656
S'be'
p657
S'VBD'
p658
S'B-VP'
p659
g5
tp660
a(S'overweight/obese'
p661
S'overweight/obese'
p662
S'JJ'
p663
S'B-ADJP'
p664
g5
tp665
a(S'at'
p666
S'at'
p667
S'IN'
p668
S'B-PP'
p669
g5
tp670
a(S'study'
p671
S'study'
p672
S'NN'
p673
S'B-NP'
p674
g5
tp675
a(S'entry'
p676
S'entry'
p677
S'NN'
p678
S'I-NP'
p679
g5
tp680
a(g329
g329
g329
g5
g5
tp681
a(S'compared'
p682
S'compare'
p683
S'VBN'
p684
S'B-PP'
p685
g5
tp686
a(S'with'
p687
S'with'
p688
S'IN'
p689
S'B-PP'
p690
g5
tp691
a(S'23.4'
p692
S'23.4'
p693
S'CD'
p694
S'B-NP'
p695
g5
tp696
a(g583
g583
S'NN'
p697
S'I-NP'
p698
g5
tp699
a(S'at'
p700
S'at'
p701
S'IN'
p702
S'B-PP'
p703
g5
tp704
a(S'study'
p705
S'study'
p706
S'NN'
p707
S'B-NP'
p708
g5
tp709
a(S'end'
p710
S'end'
p711
S'NN'
p712
S'I-NP'
p713
g5
tp714
a(g230
g230
g230
g5
g5
tp715
a(S'P'
p716
g716
S'NN'
p717
S'B-NP'
p718
g5
tp719
a(S'='
p720
g720
S'SYM'
p721
S'B-VP'
p722
g5
tp723
a(S'0.0007'
p724
S'0.0007'
p725
S'CD'
p726
S'B-NP'
p727
g5
tp728
a(g238
g238
g238
g5
g5
tp729
a(g396
g396
g397
g5
g5
tp730
a(S'48.4'
p731
S'48.4'
p732
S'CD'
p733
S'B-NP'
p734
g5
tp735
a(g583
g583
S'NN'
p736
S'I-NP'
p737
g5
tp738
a(S'had'
p739
S'have'
p740
S'VBD'
p741
S'B-VP'
p742
g5
tp743
a(S'normal'
p744
S'normal'
p745
S'JJ'
p746
S'B-NP'
p747
g5
tp748
a(S'weight'
p749
S'weight'
p750
S'NN'
p751
S'I-NP'
p752
g5
tp753
a(S'at'
p754
S'at'
p755
S'IN'
p756
S'B-PP'
p757
g5
tp758
a(S'study'
p759
S'study'
p760
S'NN'
p761
S'B-NP'
p762
g5
tp763
a(S'entry'
p764
S'entry'
p765
S'NN'
p766
S'I-NP'
p767
g5
tp768
a(g329
g329
g329
g5
g5
tp769
a(S'compared'
p770
S'compare'
p771
S'VBN'
p772
S'B-PP'
p773
g5
tp774
a(S'with'
p775
S'with'
p776
S'IN'
p777
S'B-PP'
p778
g5
tp779
a(S'65.6'
p780
S'65.6'
p781
S'CD'
p782
S'B-NP'
p783
g5
tp784
a(g583
g583
S'NN'
p785
S'I-NP'
p786
g5
tp787
a(S'at'
p788
S'at'
p789
S'IN'
p790
S'B-PP'
p791
g5
tp792
a(S'study'
p793
S'study'
p794
S'NN'
p795
S'B-NP'
p796
g5
tp797
a(S'end'
p798
S'end'
p799
S'NN'
p800
S'I-NP'
p801
g5
tp802
a(g230
g230
g230
g5
g5
tp803
a(g716
g716
S'NN'
p804
S'B-NP'
p805
g5
tp806
a(g720
g720
S'SYM'
p807
S'B-VP'
p808
g5
tp809
a(S'0.03'
p810
S'0.03'
p811
S'CD'
p812
S'B-NP'
p813
g5
tp814
a(g238
g238
g238
g5
g5
tp815
a(g82
g82
g82
g5
g5
tp816
a(S'Three'
p817
S'Three'
p818
S'CD'
p819
S'B-NP'
p820
g5
tp821
a(S'patients'
p822
S'patient'
p823
S'NNS'
p824
S'I-NP'
p825
g5
tp826
a(S'were'
p827
S'be'
p828
S'VBD'
p829
S'B-VP'
p830
g5
tp831
a(S'underweight'
p832
S'underweight'
p833
S'JJ'
p834
S'B-ADJP'
p835
g5
tp836
a(S'at'
p837
S'at'
p838
S'IN'
p839
S'B-PP'
p840
g5
tp841
a(S'study'
p842
S'study'
p843
S'NN'
p844
S'B-NP'
p845
g5
tp846
a(S'entry'
p847
S'entry'
p848
S'NN'
p849
S'I-NP'
p850
g5
tp851
a(g329
g329
g329
g5
g5
tp852
a(S'and'
p853
S'and'
p854
S'CC'
p855
g5
g5
tp856
a(S'four'
p857
S'four'
p858
S'CD'
p859
S'B-NP'
p860
g5
tp861
a(S'more'
p862
S'more'
p863
S'JJR'
p864
S'I-NP'
p865
g5
tp866
a(S'became'
p867
S'become'
p868
S'VBD'
p869
S'B-VP'
p870
g5
tp871
a(S'underweight'
p872
S'underweight'
p873
S'JJ'
p874
S'B-ADJP'
p875
g5
tp876
a(S'by'
p877
S'by'
p878
S'IN'
p879
S'B-PP'
p880
g5
tp881
a(S'study'
p882
S'study'
p883
S'NN'
p884
S'B-NP'
p885
g5
tp886
a(S'end.'
p887
S'end.'
p888
S'VBP'
p889
S'B-VP'
p890
g5
tp891
a(S'No'
p892
S'No'
p893
S'DT'
p894
S'B-NP'
p895
g5
tp896
a(S'consistent'
p897
S'consistent'
p898
S'JJ'
p899
S'I-NP'
p900
g5
tp901
a(S'correlations'
p902
S'correlation'
p903
S'NNS'
p904
S'I-NP'
p905
g5
tp906
a(S'between'
p907
S'between'
p908
S'IN'
p909
S'B-PP'
p910
g5
tp911
a(S'weight'
p912
S'weight'
p913
S'NN'
p914
S'B-NP'
p915
g5
tp916
a(S'loss'
p917
S'loss'
p918
S'NN'
p919
S'I-NP'
p920
g5
tp921
a(S'and'
p922
S'and'
p923
S'CC'
p924
g5
g5
tp925
a(S'skeletal'
p926
S'skeletal'
p927
S'JJ'
p928
S'B-NP'
p929
g5
tp930
a(S'development'
p931
S'development'
p932
S'NN'
p933
S'I-NP'
p934
g5
tp935
a(S'or'
p936
S'or'
p937
S'CC'
p938
g5
g5
tp939
a(S'sexual'
p940
S'sexual'
p941
S'JJ'
p942
S'B-NP'
p943
g5
tp944
a(S'maturation'
p945
S'maturation'
p946
S'NN'
p947
S'I-NP'
p948
g5
tp949
a(S'were'
p950
S'be'
p951
S'VBD'
p952
S'B-VP'
p953
g5
tp954
a(S'observed'
p955
S'observe'
p956
S'VBN'
p957
S'I-VP'
p958
g5
tp959
a(g82
g82
g82
g5
g5
tp960
a(S'CONCLUSIONS'
p961
S'CONCLUSIONS'
p962
S'NNS'
p963
S'B-NP'
p964
g5
tp965
a(S'Approximately'
p966
S'Approximately'
p967
S'RB'
p968
S'B-ADJP'
p969
g5
tp970
a(S'one-third'
p971
S'one-third'
p972
S'JJ'
p973
S'I-ADJP'
p974
g5
tp975
a(S'of'
p976
S'of'
p977
S'IN'
p978
S'B-PP'
p979
g5
tp980
a(S'children'
p981
S'child'
p982
S'NNS'
p983
S'B-NP'
p984
g5
tp985
a(S'treated'
p986
S'treat'
p987
S'VBN'
p988
S'B-VP'
p989
g5
tp990
a(S'with'
p991
S'with'
p992
S'IN'
p993
S'B-PP'
p994
g5
tp995
a(S'zonisamide'
p996
S'zonisamide'
p997
S'NN'
p998
S'B-NP'
p999
g5
tp1000
a(S'experienced'
p1001
S'experience'
p1002
S'VBD'
p1003
S'B-VP'
p1004
g5
tp1005
a(S'\xe2\x89\xa5'
p1006
S'\xe2\x89\xa5'
p1007
S'RBR'
p1008
S'B-NP'
p1009
g5
tp1010
a(g579
g579
S'CD'
p1011
S'I-NP'
p1012
g5
tp1013
a(g583
g583
S'NN'
p1014
S'I-NP'
p1015
g5
tp1016
a(S'weight'
p1017
S'weight'
p1018
S'NN'
p1019
S'I-NP'
p1020
g5
tp1021
a(S'loss.'
p1022
S'loss.'
p1023
S'NN'
p1024
S'I-NP'
p1025
g5
tp1026
a(S'Weight'
p1027
S'Weight'
p1028
S'NN'
p1029
S'I-NP'
p1030
g5
tp1031
a(S'loss'
p1032
S'loss'
p1033
S'NN'
p1034
S'I-NP'
p1035
g5
tp1036
a(S'was'
p1037
S'be'
p1038
S'VBD'
p1039
S'B-VP'
p1040
g5
tp1041
a(S'most'
p1042
S'most'
p1043
S'RBS'
p1044
S'B-ADJP'
p1045
g5
tp1046
a(S'apparent'
p1047
S'apparent'
p1048
S'JJ'
p1049
S'I-ADJP'
p1050
g5
tp1051
a(S'in'
p1052
S'in'
p1053
S'IN'
p1054
S'B-PP'
p1055
g5
tp1056
a(S'children'
p1057
S'child'
p1058
S'NNS'
p1059
S'B-NP'
p1060
g5
tp1061
a(S'with'
p1062
S'with'
p1063
S'IN'
p1064
S'B-PP'
p1065
g5
tp1066
a(S'high'
p1067
S'high'
p1068
S'JJ'
p1069
S'B-NP'
p1070
g5
tp1071
a(S'baseline'
p1072
S'baseline'
p1073
S'NN'
p1074
S'I-NP'
p1075
g5
tp1076
a(S'BMI'
p1077
S'BMI'
p1078
S'NN'
p1079
S'I-NP'
p1080
g5
tp1081
a(S'values'
p1082
S'value'
p1083
S'NNS'
p1084
S'I-NP'
p1085
g5
tp1086
a(S'and'
p1087
S'and'
p1088
S'CC'
p1089
g5
g5
tp1090
a(S'did'
p1091
S'do'
p1092
S'VBD'
p1093
S'B-VP'
p1094
g5
tp1095
a(S'not'
p1096
S'not'
p1097
S'RB'
p1098
S'I-VP'
p1099
g5
tp1100
a(S'appear'
p1101
S'appear'
p1102
S'VB'
p1103
S'I-VP'
p1104
g5
tp1105
a(S'to'
p1106
S'to'
p1107
S'TO'
p1108
S'I-VP'
p1109
g5
tp1110
a(S'be'
p1111
S'be'
p1112
S'VB'
p1113
S'I-VP'
p1114
g5
tp1115
a(S'associated'
p1116
S'associate'
p1117
S'VBN'
p1118
S'I-VP'
p1119
g5
tp1120
a(S'with'
p1121
S'with'
p1122
S'IN'
p1123
S'B-PP'
p1124
g5
tp1125
a(S'any'
p1126
S'any'
p1127
S'DT'
p1128
S'B-NP'
p1129
g5
tp1130
a(S'consistent'
p1131
S'consistent'
p1132
S'JJ'
p1133
S'I-NP'
p1134
g5
tp1135
a(S'effects'
p1136
S'effect'
p1137
S'NNS'
p1138
S'I-NP'
p1139
g5
tp1140
a(S'on'
p1141
S'on'
p1142
S'IN'
p1143
S'B-PP'
p1144
g5
tp1145
a(S'growth'
p1146
S'growth'
p1147
S'NN'
p1148
S'B-NP'
p1149
g5
tp1150
a(S'and'
p1151
S'and'
p1152
S'CC'
p1153
S'I-NP'
p1154
g5
tp1155
a(S'development'
p1156
S'development'
p1157
S'NN'
p1158
S'I-NP'
p1159
g5
tp1160
a(g82
g82
g82
g5
g5
tp1161
a.