(lp0
(S'Efficacy'
p1
S'Efficacy'
p2
S'NN'
p3
S'B-NP'
p4
S'O'
p5
tp6
a(S'of'
p7
S'of'
p8
S'IN'
p9
S'B-PP'
p10
g5
tp11
a(S'second'
p12
S'second'
p13
S'JJ'
p14
S'B-NP'
p15
g5
tp16
a(S'versus'
p17
S'versus'
p18
S'IN'
p19
S'B-PP'
p20
g5
tp21
a(S'third'
p22
S'third'
p23
S'JJ'
p24
S'B-NP'
p25
g5
tp26
a(S'generation'
p27
S'generation'
p28
S'NN'
p29
S'I-NP'
p30
g5
tp31
a(S'oral'
p32
S'oral'
p33
S'JJ'
p34
S'I-NP'
p35
g5
tp36
a(S'contraceptives'
p37
S'contraceptive'
p38
S'NNS'
p39
S'I-NP'
p40
g5
tp41
a(S'in'
p42
S'in'
p43
S'IN'
p44
S'B-PP'
p45
g5
tp46
a(S'the'
p47
S'the'
p48
S'DT'
p49
S'B-NP'
p50
g5
tp51
a(S'treatment'
p52
S'treatment'
p53
S'NN'
p54
S'I-NP'
p55
g5
tp56
a(S'of'
p57
S'of'
p58
S'IN'
p59
S'B-PP'
p60
g5
tp61
a(S'hirsutism'
p62
S'hirsutism'
p63
S'NN'
p64
S'B-NP'
p65
g5
tp66
a(S'.'
p67
g67
g67
g5
g5
tp68
a(S'OBJECTIVE'
p69
S'OBJECTIVE'
p70
S'NN'
p71
S'B-NP'
p72
g5
tp73
a(S'To'
p74
S'To'
p75
S'TO'
p76
S'B-VP'
p77
g5
tp78
a(S'compare'
p79
S'compare'
p80
S'VB'
p81
S'I-VP'
p82
g5
tp83
a(S'second'
p84
S'second'
p85
S'JJ'
p86
S'B-NP'
p87
g5
tp88
a(S'versus'
p89
S'versus'
p90
S'IN'
p91
S'B-PP'
p92
g5
tp93
a(S'third'
p94
S'third'
p95
S'JJ'
p96
S'B-NP'
p97
g5
tp98
a(S'generation'
p99
S'generation'
p100
S'NN'
p101
S'I-NP'
p102
g5
tp103
a(S'combination'
p104
S'combination'
p105
S'NN'
p106
S'I-NP'
p107
g5
tp108
a(S'oral'
p109
S'oral'
p110
S'JJ'
p111
S'I-NP'
p112
g5
tp113
a(S'contraceptives'
p114
S'contraceptive'
p115
S'NNS'
p116
S'I-NP'
p117
g5
tp118
a(S'('
p119
g119
g119
g5
g5
tp120
a(S'OCs'
p121
S'OC'
p122
S'NNS'
p123
S'B-NP'
p124
S'B-cell_type'
p125
tp126
a(S')'
p127
g127
g127
g5
g5
tp128
a(S'in'
p129
S'in'
p130
S'IN'
p131
S'B-PP'
p132
g5
tp133
a(S'the'
p134
S'the'
p135
S'DT'
p136
S'B-NP'
p137
g5
tp138
a(S'treatment'
p139
S'treatment'
p140
S'NN'
p141
S'I-NP'
p142
g5
tp143
a(S'of'
p144
S'of'
p145
S'IN'
p146
S'B-PP'
p147
g5
tp148
a(S'hirsutism'
p149
S'hirsutism'
p150
S'NN'
p151
S'B-NP'
p152
g5
tp153
a(g67
g67
g67
g5
g5
tp154
a(S'METHODS'
p155
S'METHODS'
p156
S'NNS'
p157
S'B-NP'
p158
g5
tp159
a(S'Women'
p160
S'Woman'
p161
S'NNS'
p162
S'I-NP'
p163
g5
tp164
a(S'with'
p165
S'with'
p166
S'IN'
p167
S'B-PP'
p168
g5
tp169
a(S'hirsutism'
p170
S'hirsutism'
p171
S'NN'
p172
S'B-NP'
p173
g5
tp174
a(S','
p175
g175
g175
g5
g5
tp176
a(S'as'
p177
S'as'
p178
S'IN'
p179
S'B-SBAR'
p180
g5
tp181
a(S'defined'
p182
S'define'
p183
S'VBN'
p184
S'B-VP'
p185
g5
tp186
a(S'by'
p187
S'by'
p188
S'IN'
p189
S'B-PP'
p190
g5
tp191
a(S'a'
p192
g192
S'DT'
p193
S'B-NP'
p194
g5
tp195
a(S'minimum'
p196
S'minimum'
p197
S'JJ'
p198
S'I-NP'
p199
g5
tp200
a(S'Ferriman-Gallwey'
p201
S'Ferriman-Gallwey'
p202
S'JJ'
p203
S'I-NP'
p204
g5
tp205
a(S'score'
p206
S'score'
p207
S'NN'
p208
S'I-NP'
p209
g5
tp210
a(S'of'
p211
S'of'
p212
S'IN'
p213
S'B-PP'
p214
g5
tp215
a(S'10'
p216
S'10'
p217
S'CD'
p218
S'B-NP'
p219
g5
tp220
a(g175
g175
g175
g5
g5
tp221
a(S'were'
p222
S'be'
p223
S'VBD'
p224
S'B-VP'
p225
g5
tp226
a(S'randomized'
p227
S'randomize'
p228
S'VBN'
p229
S'I-VP'
p230
g5
tp231
a(S'in'
p232
S'in'
p233
S'IN'
p234
S'B-PP'
p235
g5
tp236
a(g192
g192
S'DT'
p237
S'B-NP'
p238
g5
tp239
a(S'double-blind'
p240
S'double-blind'
p241
S'JJ'
p242
S'I-NP'
p243
g5
tp244
a(S'fashion'
p245
S'fashion'
p246
S'NN'
p247
S'I-NP'
p248
g5
tp249
a(S'to'
p250
S'to'
p251
S'TO'
p252
S'B-VP'
p253
g5
tp254
a(S'receive'
p255
S'receive'
p256
S'VB'
p257
S'I-VP'
p258
g5
tp259
a(S'an'
p260
S'an'
p261
S'DT'
p262
S'B-NP'
p263
g5
tp264
a(S'OC'
p265
S'OC'
p266
S'NN'
p267
S'I-NP'
p268
g5
tp269
a(S'containing'
p270
S'contain'
p271
S'VBG'
p272
S'B-VP'
p273
g5
tp274
a(S'either'
p275
S'either'
p276
S'CC'
p277
g5
g5
tp278
a(S'ethinyl'
p279
S'ethinyl'
p280
S'NN'
p281
S'B-NP'
p282
g5
tp283
a(S'estradiol/desogestrel'
p284
S'estradiol/desogestrel'
p285
S'NN'
p286
S'I-NP'
p287
g5
tp288
a(S'or'
p289
S'or'
p290
S'CC'
p291
g5
g5
tp292
a(S'ethinyl'
p293
S'ethinyl'
p294
S'NN'
p295
S'B-NP'
p296
g5
tp297
a(S'estradiol/levonorgestrel'
p298
S'estradiol/levonorgestrel'
p299
S'NN'
p300
S'I-NP'
p301
g5
tp302
a(S'for'
p303
S'for'
p304
S'IN'
p305
S'B-PP'
p306
g5
tp307
a(S'9'
p308
g308
S'CD'
p309
S'B-NP'
p310
g5
tp311
a(S'months'
p312
S'month'
p313
S'NNS'
p314
S'I-NP'
p315
g5
tp316
a(S'of'
p317
S'of'
p318
S'IN'
p319
S'B-PP'
p320
g5
tp321
a(S'treatment.'
p322
S'treatment.'
p323
S'NN'
p324
S'B-NP'
p325
g5
tp326
a(S'Ferriman-Gallwey'
p327
S'Ferriman-Gallwey'
p328
S'JJ'
p329
S'I-NP'
p330
g5
tp331
a(S'scores'
p332
S'score'
p333
S'NNS'
p334
S'I-NP'
p335
g5
tp336
a(g175
g175
g175
g5
g5
tp337
a(S'androgen'
p338
S'androgen'
p339
S'NN'
p340
S'B-NP'
p341
g5
tp342
a(S'levels'
p343
S'level'
p344
S'NNS'
p345
S'I-NP'
p346
g5
tp347
a(S'and'
p348
S'and'
p349
S'CC'
p350
g5
g5
tp351
a(S'sex'
p352
S'sex'
p353
S'NN'
p354
S'B-NP'
p355
S'B-protein'
p356
tp357
a(S'hormone-binding'
p358
S'hormone-binding'
p359
S'JJ'
p360
S'I-NP'
p361
S'I-protein'
p362
tp363
a(S'globulin'
p364
S'globulin'
p365
S'NN'
p366
S'I-NP'
p367
S'I-protein'
p368
tp369
a(S'were'
p370
S'be'
p371
S'VBD'
p372
S'B-VP'
p373
g5
tp374
a(S'measured'
p375
S'measure'
p376
S'VBN'
p377
S'I-VP'
p378
g5
tp379
a(S'at'
p380
S'at'
p381
S'IN'
p382
S'B-PP'
p383
g5
tp384
a(S'baseline'
p385
S'baseline'
p386
S'NN'
p387
S'B-NP'
p388
g5
tp389
a(S'and'
p390
S'and'
p391
S'CC'
p392
g5
g5
tp393
a(S'every'
p394
S'every'
p395
S'DT'
p396
S'B-NP'
p397
g5
tp398
a(S'3'
p399
g399
S'CD'
p400
S'I-NP'
p401
g5
tp402
a(S'months'
p403
S'month'
p404
S'NNS'
p405
S'I-NP'
p406
g5
tp407
a(S'for'
p408
S'for'
p409
S'IN'
p410
S'B-PP'
p411
g5
tp412
a(S'the'
p413
S'the'
p414
S'DT'
p415
S'B-NP'
p416
g5
tp417
a(S'duration'
p418
S'duration'
p419
S'NN'
p420
S'I-NP'
p421
g5
tp422
a(S'of'
p423
S'of'
p424
S'IN'
p425
S'B-PP'
p426
g5
tp427
a(S'the'
p428
S'the'
p429
S'DT'
p430
S'B-NP'
p431
g5
tp432
a(S'study.'
p433
S'study.'
p434
S'NN'
p435
S'I-NP'
p436
g5
tp437
a(S'Hormones'
p438
S'Hormone'
p439
S'NNS'
p440
S'I-NP'
p441
g5
tp442
a(S'were'
p443
S'be'
p444
S'VBD'
p445
S'B-VP'
p446
g5
tp447
a(S'measured'
p448
S'measure'
p449
S'VBN'
p450
S'I-VP'
p451
g5
tp452
a(S'in'
p453
S'in'
p454
S'IN'
p455
S'B-PP'
p456
g5
tp457
a(S'duplicate'
p458
S'duplicate'
p459
S'NN'
p460
S'B-NP'
p461
g5
tp462
a(S'by'
p463
S'by'
p464
S'IN'
p465
S'B-PP'
p466
g5
tp467
a(S'radioimmunoassay'
p468
S'radioimmunoassay'
p469
S'NN'
p470
S'B-NP'
p471
g5
tp472
a(g67
g67
g67
g5
g5
tp473
a(S'RESULTS'
p474
S'RESULTS'
p475
S'NNS'
p476
S'B-NP'
p477
g5
tp478
a(S'Of'
p479
S'Of'
p480
S'IN'
p481
S'B-PP'
p482
g5
tp483
a(S'the'
p484
S'the'
p485
S'DT'
p486
S'B-NP'
p487
g5
tp488
a(S'47'
p489
S'47'
p490
S'CD'
p491
S'I-NP'
p492
g5
tp493
a(S'women'
p494
S'woman'
p495
S'NNS'
p496
S'I-NP'
p497
g5
tp498
a(S'enrolled'
p499
S'enrol'
p500
S'VBN'
p501
S'B-VP'
p502
g5
tp503
a(g175
g175
g175
g5
g5
tp504
a(S'24'
p505
S'24'
p506
S'CD'
p507
S'B-NP'
p508
g5
tp509
a(S'were'
p510
S'be'
p511
S'VBD'
p512
S'B-VP'
p513
g5
tp514
a(S'randomized'
p515
S'randomize'
p516
S'VBN'
p517
S'I-VP'
p518
g5
tp519
a(S'to'
p520
S'to'
p521
S'TO'
p522
S'B-PP'
p523
g5
tp524
a(S'ethinyl'
p525
S'ethinyl'
p526
S'NN'
p527
S'B-NP'
p528
g5
tp529
a(S'estradiol/desogestrel'
p530
S'estradiol/desogestrel'
p531
S'NN'
p532
S'I-NP'
p533
g5
tp534
a(S'and'
p535
S'and'
p536
S'CC'
p537
g5
g5
tp538
a(S'23'
p539
S'23'
p540
S'CD'
p541
S'B-NP'
p542
g5
tp543
a(S'were'
p544
S'be'
p545
S'VBD'
p546
S'B-VP'
p547
g5
tp548
a(S'randomized'
p549
S'randomize'
p550
S'VBN'
p551
S'I-VP'
p552
g5
tp553
a(S'to'
p554
S'to'
p555
S'TO'
p556
S'B-PP'
p557
g5
tp558
a(S'ethinyl'
p559
S'ethinyl'
p560
S'NN'
p561
S'B-NP'
p562
S'B-protein'
p563
tp564
a(S'estradiol/levonorgestrel.'
p565
S'estradiol/levonorgestrel.'
p566
S'NN'
p567
S'I-NP'
p568
S'I-protein'
p569
tp570
a(S'Mean'
p571
S'Mean'
p572
S'NN'
p573
S'I-NP'
p574
S'I-protein'
p575
tp576
a(S'sex'
p577
S'sex'
p578
S'NN'
p579
S'I-NP'
p580
S'I-protein'
p581
tp582
a(S'hormone-binding'
p583
S'hormone-binding'
p584
S'JJ'
p585
S'I-NP'
p586
S'I-protein'
p587
tp588
a(S'globulin'
p589
S'globulin'
p590
S'NN'
p591
S'I-NP'
p592
S'I-protein'
p593
tp594
a(S'increased'
p595
S'increase'
p596
S'VBD'
p597
S'B-VP'
p598
g5
tp599
a(S'significantly'
p600
S'significantly'
p601
S'RB'
p602
S'B-ADVP'
p603
g5
tp604
a(S'in'
p605
S'in'
p606
S'IN'
p607
S'B-PP'
p608
g5
tp609
a(S'subjects'
p610
S'subject'
p611
S'NNS'
p612
S'B-NP'
p613
g5
tp614
a(S'using'
p615
S'use'
p616
S'VBG'
p617
S'B-VP'
p618
g5
tp619
a(S'the'
p620
S'the'
p621
S'DT'
p622
S'B-NP'
p623
g5
tp624
a(S'desogestrel-containing'
p625
S'desogestrel-containing'
p626
S'JJ'
p627
S'I-NP'
p628
g5
tp629
a(S'contraceptive'
p630
S'contraceptive'
p631
S'NN'
p632
S'I-NP'
p633
g5
tp634
a(S'compared'
p635
S'compare'
p636
S'VBN'
p637
S'B-PP'
p638
g5
tp639
a(S'with'
p640
S'with'
p641
S'IN'
p642
S'B-PP'
p643
g5
tp644
a(S'the'
p645
S'the'
p646
S'DT'
p647
S'B-NP'
p648
g5
tp649
a(S'levonorgestrel-containing'
p650
S'levonorgestrel-containing'
p651
S'JJ'
p652
S'I-NP'
p653
g5
tp654
a(S'contraceptive.'
p655
S'contraceptive.'
p656
S'NN'
p657
S'I-NP'
p658
g5
tp659
a(S'Ten'
p660
S'Ten'
p661
S'CD'
p662
S'B-NP'
p663
g5
tp664
a(S'subjects'
p665
S'subject'
p666
S'NNS'
p667
S'I-NP'
p668
g5
tp669
a(S'completed'
p670
S'complete'
p671
S'VBD'
p672
S'B-VP'
p673
g5
tp674
a(S'the'
p675
S'the'
p676
S'DT'
p677
S'B-NP'
p678
g5
tp679
a(g308
g308
S'CD'
p680
S'I-NP'
p681
g5
tp682
a(S'months'
p683
S'month'
p684
S'NNS'
p685
S'I-NP'
p686
g5
tp687
a(S'of'
p688
S'of'
p689
S'IN'
p690
S'B-PP'
p691
g5
tp692
a(S'treatment'
p693
S'treatment'
p694
S'NN'
p695
S'B-NP'
p696
g5
tp697
a(S'in'
p698
S'in'
p699
S'IN'
p700
S'B-PP'
p701
g5
tp702
a(S'the'
p703
S'the'
p704
S'DT'
p705
S'B-NP'
p706
g5
tp707
a(S'levonorgestrel'
p708
S'levonorgestrel'
p709
S'NN'
p710
S'I-NP'
p711
g5
tp712
a(S'group'
p713
S'group'
p714
S'NN'
p715
S'I-NP'
p716
g5
tp717
a(S'and'
p718
S'and'
p719
S'CC'
p720
g5
g5
tp721
a(S'11'
p722
S'11'
p723
S'CD'
p724
S'B-NP'
p725
g5
tp726
a(S'completed'
p727
S'complete'
p728
S'VBD'
p729
S'B-VP'
p730
g5
tp731
a(S'the'
p732
S'the'
p733
S'DT'
p734
S'B-NP'
p735
g5
tp736
a(S'study'
p737
S'study'
p738
S'NN'
p739
S'I-NP'
p740
g5
tp741
a(S'in'
p742
S'in'
p743
S'IN'
p744
S'B-PP'
p745
g5
tp746
a(S'the'
p747
S'the'
p748
S'DT'
p749
S'B-NP'
p750
g5
tp751
a(S'desogestrel'
p752
S'desogestrel'
p753
S'NN'
p754
S'I-NP'
p755
g5
tp756
a(S'group.'
p757
S'group.'
p758
S'NN'
p759
S'I-NP'
p760
g5
tp761
a(S'Mean'
p762
S'Mean'
p763
S'NN'
p764
S'I-NP'
p765
g5
tp766
a(S'free'
p767
S'free'
p768
S'JJ'
p769
S'I-NP'
p770
g5
tp771
a(S'testosterone'
p772
S'testosterone'
p773
S'NN'
p774
S'I-NP'
p775
g5
tp776
a(S'and'
p777
S'and'
p778
S'CC'
p779
S'I-NP'
p780
g5
tp781
a(S'3alpha-androstanediol'
p782
S'3alpha-androstanediol'
p783
S'NN'
p784
S'I-NP'
p785
g5
tp786
a(S'glucuronide'
p787
S'glucuronide'
p788
S'NN'
p789
S'I-NP'
p790
g5
tp791
a(S'decreased'
p792
S'decrease'
p793
S'VBD'
p794
S'B-VP'
p795
g5
tp796
a(S'significantly'
p797
S'significantly'
p798
S'RB'
p799
S'B-ADVP'
p800
g5
tp801
a(S'in'
p802
S'in'
p803
S'IN'
p804
S'B-PP'
p805
g5
tp806
a(S'the'
p807
S'the'
p808
S'DT'
p809
S'B-NP'
p810
g5
tp811
a(S'group'
p812
S'group'
p813
S'NN'
p814
S'I-NP'
p815
g5
tp816
a(S'receiving'
p817
S'receive'
p818
S'VBG'
p819
S'B-VP'
p820
g5
tp821
a(S'ethinyl'
p822
S'ethinyl'
p823
S'NN'
p824
S'B-NP'
p825
g5
tp826
a(S'estradiol/desogestrel'
p827
S'estradiol/desogestrel'
p828
S'NN'
p829
S'I-NP'
p830
g5
tp831
a(S'but'
p832
S'but'
p833
S'CC'
p834
S'B-PP'
p835
g5
tp836
a(S'not'
p837
S'not'
p838
S'RB'
p839
S'B-PP'
p840
g5
tp841
a(S'in'
p842
S'in'
p843
S'IN'
p844
S'I-PP'
p845
g5
tp846
a(S'the'
p847
S'the'
p848
S'DT'
p849
S'B-NP'
p850
g5
tp851
a(S'ethinyl'
p852
S'ethinyl'
p853
S'NN'
p854
S'I-NP'
p855
S'B-DNA'
p856
tp857
a(S'estradiol/levonorgestrel'
p858
S'estradiol/levonorgestrel'
p859
S'NN'
p860
S'I-NP'
p861
S'I-DNA'
p862
tp863
a(S'group.'
p864
S'group.'
p865
S'NN'
p866
S'I-NP'
p867
S'I-DNA'
p868
tp869
a(S'Mean'
p870
S'Mean'
p871
S'NNP'
p872
S'I-NP'
p873
S'I-DNA'
p874
tp875
a(S'Ferriman-Gallwey'
p876
S'Ferriman-Gallwey'
p877
S'NNP'
p878
S'I-NP'
p879
S'I-DNA'
p880
tp881
a(S'scores'
p882
S'score'
p883
S'NNS'
p884
S'I-NP'
p885
S'I-DNA'
p886
tp887
a(S'decreased'
p888
S'decrease'
p889
S'VBD'
p890
S'B-VP'
p891
g5
tp892
a(S'significantly'
p893
S'significantly'
p894
S'RB'
p895
S'B-ADVP'
p896
g5
tp897
a(S'in'
p898
S'in'
p899
S'IN'
p900
S'B-PP'
p901
g5
tp902
a(S'both'
p903
S'both'
p904
S'CC'
p905
g5
g5
tp906
a(S'treatment'
p907
S'treatment'
p908
S'NN'
p909
S'B-NP'
p910
g5
tp911
a(S'groups.'
p912
S'groups.'
p913
S'NN'
p914
S'I-NP'
p915
g5
tp916
a(S'Improvement'
p917
S'Improvement'
p918
S'NN'
p919
S'I-NP'
p920
g5
tp921
a(S'in'
p922
S'in'
p923
S'IN'
p924
S'B-PP'
p925
g5
tp926
a(S'mean'
p927
S'mean'
p928
S'JJ'
p929
S'B-NP'
p930
g5
tp931
a(S'Ferriman-Gallwey'
p932
S'Ferriman-Gallwey'
p933
S'JJ'
p934
S'I-NP'
p935
g5
tp936
a(S'score'
p937
S'score'
p938
S'NN'
p939
S'I-NP'
p940
g5
tp941
a(S'was'
p942
S'be'
p943
S'VBD'
p944
S'B-VP'
p945
g5
tp946
a(S'35.7'
p947
S'35.7'
p948
S'CD'
p949
S'B-NP'
p950
g5
tp951
a(S'+/-'
p952
S'+/-'
p953
S'SYM'
p954
g5
g5
tp955
a(S'38.1'
p956
S'38.1'
p957
S'CD'
p958
S'B-NP'
p959
g5
tp960
a(S'%'
p961
g961
S'NN'
p962
S'I-NP'
p963
g5
tp964
a(g119
g119
g119
g5
g5
tp965
a(S'p'
p966
g966
S'NN'
p967
S'B-NP'
p968
g5
tp969
a(S'<'
p970
g970
S'SYM'
p971
g5
g5
tp972
a(S'0.001'
p973
S'0.001'
p974
S'CD'
p975
S'B-NP'
p976
g5
tp977
a(g127
g127
g127
g5
g5
tp978
a(S'for'
p979
S'for'
p980
S'IN'
p981
S'B-PP'
p982
g5
tp983
a(S'the'
p984
S'the'
p985
S'DT'
p986
S'B-NP'
p987
g5
tp988
a(S'ethinyl'
p989
S'ethinyl'
p990
S'NN'
p991
S'I-NP'
p992
g5
tp993
a(S'estradiol/desogestrel'
p994
S'estradiol/desogestrel'
p995
S'NN'
p996
S'I-NP'
p997
g5
tp998
a(S'arm'
p999
S'arm'
p1000
S'NN'
p1001
S'I-NP'
p1002
g5
tp1003
a(S'and'
p1004
S'and'
p1005
S'CC'
p1006
g5
g5
tp1007
a(S'33.4'
p1008
S'33.4'
p1009
S'CD'
p1010
S'B-NP'
p1011
g5
tp1012
a(S'+/-'
p1013
S'+/-'
p1014
S'SYM'
p1015
S'I-NP'
p1016
g5
tp1017
a(S'27.3'
p1018
S'27.3'
p1019
S'CD'
p1020
S'I-NP'
p1021
g5
tp1022
a(g961
g961
S'NN'
p1023
S'I-NP'
p1024
g5
tp1025
a(g119
g119
g119
g5
g5
tp1026
a(g966
g966
S'NN'
p1027
S'B-NP'
p1028
g5
tp1029
a(g970
g970
S'SYM'
p1030
g5
g5
tp1031
a(S'0.001'
p1032
S'0.001'
p1033
S'CD'
p1034
S'B-NP'
p1035
g5
tp1036
a(g127
g127
g127
g5
g5
tp1037
a(S'for'
p1038
S'for'
p1039
S'IN'
p1040
S'B-PP'
p1041
g5
tp1042
a(S'the'
p1043
S'the'
p1044
S'DT'
p1045
S'B-NP'
p1046
g5
tp1047
a(S'ethinyl'
p1048
S'ethinyl'
p1049
S'NN'
p1050
S'I-NP'
p1051
g5
tp1052
a(S'estradiol/levonorgestrel'
p1053
S'estradiol/levonorgestrel'
p1054
S'NN'
p1055
S'I-NP'
p1056
g5
tp1057
a(S'arm.'
p1058
S'arm.'
p1059
S'NN'
p1060
S'I-NP'
p1061
g5
tp1062
a(S'There'
p1063
S'There'
p1064
S'EX'
p1065
S'B-NP'
p1066
g5
tp1067
a(S'were'
p1068
S'be'
p1069
S'VBD'
p1070
S'B-VP'
p1071
g5
tp1072
a(S'no'
p1073
S'no'
p1074
S'DT'
p1075
S'B-NP'
p1076
g5
tp1077
a(S'statistically'
p1078
S'statistically'
p1079
S'RB'
p1080
S'I-NP'
p1081
g5
tp1082
a(S'significant'
p1083
S'significant'
p1084
S'JJ'
p1085
S'I-NP'
p1086
g5
tp1087
a(S'differences'
p1088
S'difference'
p1089
S'NNS'
p1090
S'I-NP'
p1091
g5
tp1092
a(S'found'
p1093
S'find'
p1094
S'VBN'
p1095
S'B-VP'
p1096
g5
tp1097
a(S'in'
p1098
S'in'
p1099
S'IN'
p1100
S'B-PP'
p1101
g5
tp1102
a(S'the'
p1103
S'the'
p1104
S'DT'
p1105
S'B-NP'
p1106
g5
tp1107
a(S'improvement'
p1108
S'improvement'
p1109
S'NN'
p1110
S'I-NP'
p1111
g5
tp1112
a(S'of'
p1113
S'of'
p1114
S'IN'
p1115
S'B-PP'
p1116
g5
tp1117
a(S'Ferriman-Gallwey'
p1118
S'Ferriman-Gallwey'
p1119
S'JJ'
p1120
S'B-NP'
p1121
g5
tp1122
a(S'scores'
p1123
S'score'
p1124
S'NNS'
p1125
S'I-NP'
p1126
g5
tp1127
a(S'between'
p1128
S'between'
p1129
S'IN'
p1130
S'B-PP'
p1131
g5
tp1132
a(S'the'
p1133
S'the'
p1134
S'DT'
p1135
S'B-NP'
p1136
g5
tp1137
a(S'two'
p1138
S'two'
p1139
S'CD'
p1140
S'I-NP'
p1141
g5
tp1142
a(S'treatment'
p1143
S'treatment'
p1144
S'NN'
p1145
S'I-NP'
p1146
g5
tp1147
a(S'arms'
p1148
S'arm'
p1149
S'NNS'
p1150
S'I-NP'
p1151
g5
tp1152
a(g175
g175
g175
g5
g5
tp1153
a(S'although'
p1154
S'although'
p1155
S'IN'
p1156
S'B-SBAR'
p1157
g5
tp1158
a(S'the'
p1159
S'the'
p1160
S'DT'
p1161
S'B-NP'
p1162
g5
tp1163
a(S'power'
p1164
S'power'
p1165
S'NN'
p1166
S'I-NP'
p1167
g5
tp1168
a(S'to'
p1169
S'to'
p1170
S'TO'
p1171
S'B-VP'
p1172
g5
tp1173
a(S'detect'
p1174
S'detect'
p1175
S'VB'
p1176
S'I-VP'
p1177
g5
tp1178
a(g192
g192
S'DT'
p1179
S'B-NP'
p1180
g5
tp1181
a(S'difference'
p1182
S'difference'
p1183
S'NN'
p1184
S'I-NP'
p1185
g5
tp1186
a(S'was'
p1187
S'be'
p1188
S'VBD'
p1189
S'B-VP'
p1190
g5
tp1191
a(S'limited'
p1192
S'limit'
p1193
S'VBN'
p1194
S'I-VP'
p1195
g5
tp1196
a(S'by'
p1197
S'by'
p1198
S'IN'
p1199
S'B-PP'
p1200
g5
tp1201
a(S'the'
p1202
S'the'
p1203
S'DT'
p1204
S'B-NP'
p1205
g5
tp1206
a(S'small'
p1207
S'small'
p1208
S'JJ'
p1209
S'I-NP'
p1210
g5
tp1211
a(S'sample'
p1212
S'sample'
p1213
S'NN'
p1214
S'I-NP'
p1215
g5
tp1216
a(S'size'
p1217
S'size'
p1218
S'NN'
p1219
S'I-NP'
p1220
g5
tp1221
a(g67
g67
g67
g5
g5
tp1222
a(S'CONCLUSIONS'
p1223
S'CONCLUSIONS'
p1224
S'NNS'
p1225
S'B-NP'
p1226
g5
tp1227
a(S'Treatment'
p1228
S'Treatment'
p1229
S'NN'
p1230
S'I-NP'
p1231
g5
tp1232
a(S'of'
p1233
S'of'
p1234
S'IN'
p1235
S'B-PP'
p1236
g5
tp1237
a(S'hirsute'
p1238
S'hirsute'
p1239
S'NN'
p1240
S'B-NP'
p1241
g5
tp1242
a(S'women'
p1243
S'woman'
p1244
S'NNS'
p1245
S'I-NP'
p1246
g5
tp1247
a(S'with'
p1248
S'with'
p1249
S'IN'
p1250
S'B-PP'
p1251
g5
tp1252
a(S'third'
p1253
S'third'
p1254
S'JJ'
p1255
S'B-NP'
p1256
g5
tp1257
a(S'generation'
p1258
S'generation'
p1259
S'NN'
p1260
S'I-NP'
p1261
g5
tp1262
a(S'OCs'
p1263
S'OC'
p1264
S'NNS'
p1265
S'I-NP'
p1266
g5
tp1267
a(S'containing'
p1268
S'contain'
p1269
S'VBG'
p1270
S'B-VP'
p1271
g5
tp1272
a(S'desogestrel'
p1273
S'desogestrel'
p1274
S'NN'
p1275
S'B-NP'
p1276
g5
tp1277
a(S'results'
p1278
S'result'
p1279
S'VBZ'
p1280
S'B-VP'
p1281
g5
tp1282
a(S'in'
p1283
S'in'
p1284
S'IN'
p1285
S'B-PP'
p1286
g5
tp1287
a(g192
g192
S'DT'
p1288
S'B-NP'
p1289
g5
tp1290
a(S'significant'
p1291
S'significant'
p1292
S'JJ'
p1293
S'I-NP'
p1294
g5
tp1295
a(S'increase'
p1296
S'increase'
p1297
S'NN'
p1298
S'I-NP'
p1299
g5
tp1300
a(S'in'
p1301
S'in'
p1302
S'IN'
p1303
S'B-PP'
p1304
g5
tp1305
a(S'sex'
p1306
S'sex'
p1307
S'NN'
p1308
S'B-NP'
p1309
S'B-protein'
p1310
tp1311
a(S'hormone-binding'
p1312
S'hormone-binding'
p1313
S'JJ'
p1314
S'I-NP'
p1315
S'I-protein'
p1316
tp1317
a(S'globulin'
p1318
S'globulin'
p1319
S'NN'
p1320
S'I-NP'
p1321
S'I-protein'
p1322
tp1323
a(S'and'
p1324
S'and'
p1325
S'CC'
p1326
S'I-NP'
p1327
g5
tp1328
a(S'decrease'
p1329
S'decrease'
p1330
S'NN'
p1331
S'I-NP'
p1332
g5
tp1333
a(S'in'
p1334
S'in'
p1335
S'IN'
p1336
S'B-PP'
p1337
g5
tp1338
a(S'free'
p1339
S'free'
p1340
S'JJ'
p1341
S'B-NP'
p1342
g5
tp1343
a(S'testosterone'
p1344
S'testosterone'
p1345
S'NN'
p1346
S'I-NP'
p1347
g5
tp1348
a(S'and'
p1349
S'and'
p1350
S'CC'
p1351
S'I-NP'
p1352
g5
tp1353
a(S'3alpha-androstanediol'
p1354
S'3alpha-androstanediol'
p1355
S'NN'
p1356
S'I-NP'
p1357
g5
tp1358
a(S'glucuronide.'
p1359
S'glucuronide.'
p1360
S'NN'
p1361
S'I-NP'
p1362
g5
tp1363
a(S'Both'
p1364
S'Both'
p1365
S'CC'
p1366
g5
g5
tp1367
a(S'second'
p1368
S'second'
p1369
S'JJ'
p1370
S'B-NP'
p1371
g5
tp1372
a(S'and'
p1373
S'and'
p1374
S'CC'
p1375
S'I-NP'
p1376
g5
tp1377
a(S'third'
p1378
S'third'
p1379
S'JJ'
p1380
S'I-NP'
p1381
g5
tp1382
a(S'generation'
p1383
S'generation'
p1384
S'NN'
p1385
S'I-NP'
p1386
g5
tp1387
a(S'OCs'
p1388
S'OC'
p1389
S'NNS'
p1390
S'I-NP'
p1391
g5
tp1392
a(S'were'
p1393
S'be'
p1394
S'VBD'
p1395
S'B-VP'
p1396
g5
tp1397
a(S'clinically'
p1398
S'clinically'
p1399
S'RB'
p1400
S'B-ADJP'
p1401
g5
tp1402
a(S'effective'
p1403
S'effective'
p1404
S'JJ'
p1405
S'I-ADJP'
p1406
g5
tp1407
a(S'in'
p1408
S'in'
p1409
S'IN'
p1410
S'B-PP'
p1411
g5
tp1412
a(S'treating'
p1413
S'treat'
p1414
S'VBG'
p1415
S'B-VP'
p1416
g5
tp1417
a(S'hirsutism'
p1418
S'hirsutism'
p1419
S'NN'
p1420
S'B-NP'
p1421
g5
tp1422
a(g67
g67
g67
g5
g5
tp1423
a.