(lp0
(S'Glibenclamide'
p1
S'Glibenclamide'
p2
S'NN'
p3
S'B-NP'
p4
S'O'
p5
tp6
a(S'vs'
p7
S'vs'
p8
S'CC'
p9
S'I-NP'
p10
g5
tp11
a(S'gliclazide'
p12
S'gliclazide'
p13
S'NN'
p14
S'I-NP'
p15
g5
tp16
a(S'in'
p17
S'in'
p18
S'IN'
p19
S'B-PP'
p20
g5
tp21
a(S'reducing'
p22
S'reduce'
p23
S'VBG'
p24
S'B-VP'
p25
g5
tp26
a(S'oxidative'
p27
S'oxidative'
p28
S'JJ'
p29
S'B-NP'
p30
g5
tp31
a(S'stress'
p32
S'stress'
p33
S'NN'
p34
S'I-NP'
p35
g5
tp36
a(S'in'
p37
S'in'
p38
S'IN'
p39
S'B-PP'
p40
g5
tp41
a(S'patients'
p42
S'patient'
p43
S'NNS'
p44
S'B-NP'
p45
g5
tp46
a(S'of'
p47
S'of'
p48
S'IN'
p49
S'B-PP'
p50
g5
tp51
a(S'noninsulin'
p52
S'noninsulin'
p53
S'NN'
p54
S'B-NP'
p55
S'B-protein'
p56
tp57
a(S'dependent'
p58
S'dependent'
p59
S'JJ'
p60
S'I-NP'
p61
g5
tp62
a(S'diabetes'
p63
S'diabete'
p64
S'NNS'
p65
S'I-NP'
p66
g5
tp67
a(S'mellitus'
p68
S'mellitus'
p69
S'NN'
p70
S'I-NP'
p71
g5
tp72
a(S'--'
p73
S'--'
p74
S':'
p75
g5
g5
tp76
a(S'a'
p77
g77
S'DT'
p78
S'B-NP'
p79
g5
tp80
a(S'double'
p81
S'double'
p82
S'JJ'
p83
S'I-NP'
p84
g5
tp85
a(S'blind'
p86
S'blind'
p87
S'JJ'
p88
S'I-NP'
p89
g5
tp90
a(S'randomized'
p91
S'randomize'
p92
S'VBN'
p93
S'I-NP'
p94
g5
tp95
a(S'study'
p96
S'study'
p97
S'NN'
p98
S'I-NP'
p99
g5
tp100
a(S'.'
p101
g101
g101
g5
g5
tp102
a(S'OBJECTIVE'
p103
S'OBJECTIVE'
p104
S'NN'
p105
S'B-NP'
p106
g5
tp107
a(S'Parameters'
p108
S'Parameter'
p109
S'NNS'
p110
S'I-NP'
p111
g5
tp112
a(S'of'
p113
S'of'
p114
S'IN'
p115
S'B-PP'
p116
g5
tp117
a(S'oxidative'
p118
S'oxidative'
p119
S'JJ'
p120
S'B-NP'
p121
g5
tp122
a(S'stress'
p123
S'stress'
p124
S'NN'
p125
S'I-NP'
p126
g5
tp127
a(S'were'
p128
S'be'
p129
S'VBD'
p130
S'B-VP'
p131
g5
tp132
a(S'quantitated'
p133
S'quantitate'
p134
S'VBN'
p135
S'I-VP'
p136
g5
tp137
a(S'in'
p138
S'in'
p139
S'IN'
p140
S'B-PP'
p141
g5
tp142
a(S'50'
p143
S'50'
p144
S'CD'
p145
S'B-NP'
p146
g5
tp147
a(S'patients'
p148
S'patient'
p149
S'NNS'
p150
S'I-NP'
p151
g5
tp152
a(S'with'
p153
S'with'
p154
S'IN'
p155
S'B-PP'
p156
g5
tp157
a(S'type'
p158
S'type'
p159
S'NN'
p160
S'B-NP'
p161
g5
tp162
a(S'2'
p163
g163
S'CD'
p164
S'I-NP'
p165
g5
tp166
a(S'diabetes'
p167
S'diabetes'
p168
S'NN'
p169
S'I-NP'
p170
g5
tp171
a(S'mellitus'
p172
S'mellitus'
p173
S'NN'
p174
S'I-NP'
p175
g5
tp176
a(S'in'
p177
S'in'
p178
S'IN'
p179
S'B-PP'
p180
g5
tp181
a(S'uncontrolled'
p182
S'uncontrolled'
p183
S'JJ'
p184
S'B-NP'
p185
g5
tp186
a(S'state'
p187
S'state'
p188
S'NN'
p189
S'I-NP'
p190
g5
tp191
a(S'and'
p192
S'and'
p193
S'CC'
p194
S'B-PP'
p195
g5
tp196
a(S'after'
p197
S'after'
p198
S'IN'
p199
S'B-PP'
p200
g5
tp201
a(S'control'
p202
S'control'
p203
S'NN'
p204
S'B-NP'
p205
g5
tp206
a(S'using'
p207
S'use'
p208
S'VBG'
p209
S'B-VP'
p210
g5
tp211
a(S'oral'
p212
S'oral'
p213
S'JJ'
p214
S'B-NP'
p215
g5
tp216
a(S'glibenclamide'
p217
S'glibenclamide'
p218
S'NN'
p219
S'I-NP'
p220
g5
tp221
a(S'or'
p222
S'or'
p223
S'CC'
p224
g5
g5
tp225
a(S'gliclazide.'
p226
S'gliclazide.'
p227
S'VB'
p228
S'B-VP'
p229
g5
tp230
a(S'The'
p231
S'The'
p232
S'DT'
p233
S'B-NP'
p234
g5
tp235
a(S'estimates'
p236
S'estimate'
p237
S'NNS'
p238
S'I-NP'
p239
g5
tp240
a(S'were'
p241
S'be'
p242
S'VBD'
p243
S'B-VP'
p244
g5
tp245
a(S'further'
p246
S'further'
p247
S'RB'
p248
S'I-VP'
p249
g5
tp250
a(S'compared'
p251
S'compare'
p252
S'VBN'
p253
S'I-VP'
p254
g5
tp255
a(S'between'
p256
S'between'
p257
S'IN'
p258
S'B-PP'
p259
g5
tp260
a(S'the'
p261
S'the'
p262
S'DT'
p263
S'B-NP'
p264
g5
tp265
a(S'two'
p266
S'two'
p267
S'CD'
p268
S'I-NP'
p269
g5
tp270
a(S'groups'
p271
S'group'
p272
S'NNS'
p273
S'I-NP'
p274
g5
tp275
a(S'irrespective'
p276
S'irrespective'
p277
S'JJ'
p278
S'B-ADJP'
p279
g5
tp280
a(S'of'
p281
S'of'
p282
S'IN'
p283
S'B-PP'
p284
g5
tp285
a(S'drug'
p286
S'drug'
p287
S'NN'
p288
S'B-NP'
p289
g5
tp290
a(S'used'
p291
S'use'
p292
S'VBN'
p293
S'B-VP'
p294
g5
tp295
a(S'to'
p296
S'to'
p297
S'TO'
p298
S'B-VP'
p299
g5
tp300
a(S'evaluate'
p301
S'evaluate'
p302
S'VB'
p303
S'I-VP'
p304
g5
tp305
a(S'the'
p306
S'the'
p307
S'DT'
p308
S'B-NP'
p309
g5
tp310
a(S'difference'
p311
S'difference'
p312
S'NN'
p313
S'I-NP'
p314
g5
tp315
a(S','
p316
g316
g316
g5
g5
tp317
a(S'if'
p318
S'if'
p319
S'IN'
p320
S'B-SBAR'
p321
g5
tp322
a(S'any'
p323
S'any'
p324
S'DT'
p325
S'B-NP'
p326
g5
tp327
a(g101
g101
g101
g5
g5
tp328
a(S'METHODS'
p329
S'METHODS'
p330
S'NNS'
p331
S'B-NP'
p332
g5
tp333
a(S'The'
p334
S'The'
p335
S'DT'
p336
S'B-NP'
p337
g5
tp338
a(S'study'
p339
S'study'
p340
S'NN'
p341
S'I-NP'
p342
g5
tp343
a(S'was'
p344
S'be'
p345
S'VBD'
p346
S'B-VP'
p347
g5
tp348
a(g77
g77
S'DT'
p349
S'B-NP'
p350
g5
tp351
a(S'double'
p352
S'double'
p353
S'JJ'
p354
S'I-NP'
p355
g5
tp356
a(S'blind'
p357
S'blind'
p358
S'JJ'
p359
S'I-NP'
p360
g5
tp361
a(g316
g316
g316
S'I-NP'
p362
g5
tp363
a(S'uncontrolled'
p364
S'uncontrolled'
p365
S'JJ'
p366
S'I-NP'
p367
g5
tp368
a(g316
g316
g316
S'I-NP'
p369
g5
tp370
a(S'noncrossover'
p371
S'noncrossover'
p372
S'JJ'
p373
S'I-NP'
p374
g5
tp375
a(S'and'
p376
S'and'
p377
S'CC'
p378
S'I-NP'
p379
g5
tp380
a(S'randomized'
p381
S'randomize'
p382
S'VBN'
p383
S'I-NP'
p384
g5
tp385
a(S'trial.'
p386
S'trial.'
p387
S'NN'
p388
S'I-NP'
p389
g5
tp390
a(S'Fifty'
p391
S'Fifty'
p392
S'CD'
p393
S'B-NP'
p394
g5
tp395
a(S'patients'
p396
S'patient'
p397
S'NNS'
p398
S'I-NP'
p399
g5
tp400
a(S'of'
p401
S'of'
p402
S'IN'
p403
S'B-PP'
p404
g5
tp405
a(S'uncontrolled'
p406
S'uncontrolled'
p407
S'JJ'
p408
S'B-NP'
p409
g5
tp410
a(S'type'
p411
S'type'
p412
S'NN'
p413
S'I-NP'
p414
g5
tp415
a(g163
g163
S'CD'
p416
S'I-NP'
p417
g5
tp418
a(S'diabetes'
p419
S'diabete'
p420
S'NNS'
p421
S'I-NP'
p422
g5
tp423
a(S'were'
p424
S'be'
p425
S'VBD'
p426
S'B-VP'
p427
g5
tp428
a(S'divided'
p429
S'divide'
p430
S'VBN'
p431
S'I-VP'
p432
g5
tp433
a(S'in'
p434
S'in'
p435
S'RB'
p436
S'B-ADVP'
p437
g5
tp438
a(S'to'
p439
S'to'
p440
S'TO'
p441
S'B-PP'
p442
g5
tp443
a(S'two'
p444
S'two'
p445
S'CD'
p446
S'B-NP'
p447
g5
tp448
a(S'groups.'
p449
S'groups.'
p450
S'NN'
p451
S'I-NP'
p452
g5
tp453
a(S'Group'
p454
S'Group'
p455
S'NN'
p456
S'I-NP'
p457
g5
tp458
a(S'I'
p459
g459
S'CD'
p460
S'I-NP'
p461
g5
tp462
a(S'('
p463
g463
g463
g5
g5
tp464
a(S'25'
p465
S'25'
p466
S'CD'
p467
S'B-NP'
p468
g5
tp469
a(S'patients'
p470
S'patient'
p471
S'NNS'
p472
S'I-NP'
p473
g5
tp474
a(S')'
p475
g475
g475
g5
g5
tp476
a(S'received'
p477
S'receive'
p478
S'VBD'
p479
S'B-VP'
p480
g5
tp481
a(S'capsule'
p482
S'capsule'
p483
S'NN'
p484
S'B-NP'
p485
g5
tp486
a(S'A'
p487
g487
S'NN'
p488
S'I-NP'
p489
g5
tp490
a(g463
g463
g463
g5
g5
tp491
a(S'glibenclamide'
p492
S'glibenclamide'
p493
S'NN'
p494
S'B-NP'
p495
g5
tp496
a(g475
g475
g475
g5
g5
tp497
a(S'while'
p498
S'while'
p499
S'IN'
p500
S'B-SBAR'
p501
g5
tp502
a(S'Group'
p503
S'Group'
p504
S'NN'
p505
S'B-NP'
p506
S'B-protein'
p507
tp508
a(S'II'
p509
S'II'
p510
S'CD'
p511
S'I-NP'
p512
S'I-protein'
p513
tp514
a(g463
g463
g463
g5
g5
tp515
a(S'25'
p516
S'25'
p517
S'CD'
p518
S'B-NP'
p519
g5
tp520
a(S'patients'
p521
S'patient'
p522
S'NNS'
p523
S'I-NP'
p524
g5
tp525
a(g475
g475
g475
g5
g5
tp526
a(S'received'
p527
S'receive'
p528
S'VBD'
p529
S'B-VP'
p530
g5
tp531
a(S'capsule'
p532
S'capsule'
p533
S'NN'
p534
S'B-NP'
p535
g5
tp536
a(S'B'
p537
g537
S'NN'
p538
S'I-NP'
p539
g5
tp540
a(g463
g463
g463
g5
g5
tp541
a(S'gliclazide'
p542
S'gliclazide'
p543
S'NN'
p544
S'B-NP'
p545
g5
tp546
a(g475
g475
g475
g5
g5
tp547
a(g101
g101
g101
g5
g5
tp548
a(S'The'
p549
S'The'
p550
S'DT'
p551
S'B-NP'
p552
g5
tp553
a(S'parameters'
p554
S'parameter'
p555
S'NNS'
p556
S'I-NP'
p557
g5
tp558
a(S'studied'
p559
S'study'
p560
S'VBN'
p561
S'B-VP'
p562
g5
tp563
a(S'were'
p564
S'be'
p565
S'VBD'
p566
S'B-VP'
p567
g5
tp568
a(S'Superoxide'
p569
S'Superoxide'
p570
S'NN'
p571
S'B-NP'
p572
S'B-protein'
p573
tp574
a(S'dismutase'
p575
S'dismutase'
p576
S'NN'
p577
S'I-NP'
p578
S'I-protein'
p579
tp580
a(g463
g463
g463
g5
g5
tp581
a(S'SOD'
p582
S'SOD'
p583
S'NN'
p584
S'B-NP'
p585
S'B-protein'
p586
tp587
a(g475
g475
g475
g5
g5
tp588
a(g316
g316
g316
g5
g5
tp589
a(S'malonyl-dialdehyde'
p590
S'malonyl-dialdehyde'
p591
S'NN'
p592
S'B-NP'
p593
g5
tp594
a(g463
g463
g463
g5
g5
tp595
a(S'MDA'
p596
S'MDA'
p597
S'NN'
p598
S'B-NP'
p599
S'B-protein'
p600
tp601
a(g475
g475
g475
g5
g5
tp602
a(S'and'
p603
S'and'
p604
S'CC'
p605
g5
g5
tp606
a(S'reduced'
p607
S'reduce'
p608
S'VBN'
p609
S'B-NP'
p610
g5
tp611
a(S'glutathione'
p612
S'glutathione'
p613
S'NN'
p614
S'I-NP'
p615
g5
tp616
a(g463
g463
g463
g5
g5
tp617
a(S'GSH'
p618
S'GSH'
p619
S'NN'
p620
S'B-NP'
p621
g5
tp622
a(g475
g475
g475
g5
g5
tp623
a(g101
g101
g101
g5
g5
tp624
a(S'They'
p625
S'They'
p626
S'PRP'
p627
S'B-NP'
p628
g5
tp629
a(S'were'
p630
S'be'
p631
S'VBD'
p632
S'B-VP'
p633
g5
tp634
a(S'done'
p635
S'do'
p636
S'VBN'
p637
S'I-VP'
p638
g5
tp639
a(S'at'
p640
S'at'
p641
S'IN'
p642
S'B-PP'
p643
g5
tp644
a(g463
g463
g463
g5
g5
tp645
a(g77
g77
S'DT'
p646
g5
g5
tp647
a(g475
g475
g475
g5
g5
tp648
a(S'uncontrolled'
p649
S'uncontrolled'
p650
S'JJ'
p651
S'B-NP'
p652
g5
tp653
a(S'stage'
p654
S'stage'
p655
S'NN'
p656
S'I-NP'
p657
g5
tp658
a(g463
g463
g463
g5
g5
tp659
a(S'FBS'
p660
S'FBS'
p661
S'NNP'
p662
S'B-NP'
p663
g5
tp664
a(S'--'
p665
S'--'
p666
g75
g5
g5
tp667
a(S'165'
p668
S'165'
p669
S'CD'
p670
S'B-NP'
p671
g5
tp672
a(S'+/-'
p673
S'+/-'
p674
S'CC'
p675
S'I-NP'
p676
g5
tp677
a(S'16.7'
p678
S'16.7'
p679
S'CD'
p680
S'I-NP'
p681
g5
tp682
a(S'mg/dl'
p683
S'mg/dl'
p684
S'NN'
p685
S'I-NP'
p686
g5
tp687
a(g316
g316
g316
g5
g5
tp688
a(S'PP'
p689
S'PP'
p690
S'NN'
p691
S'B-NP'
p692
S'B-protein'
p693
tp694
a(S'--'
p695
S'--'
p696
g75
g5
S'I-protein'
p697
tp698
a(S'240'
p699
S'240'
p700
S'CD'
p701
S'B-NP'
p702
S'I-protein'
p703
tp704
a(S'+/-'
p705
S'+/-'
p706
S'CC'
p707
S'I-NP'
p708
g5
tp709
a(S'30.1'
p710
S'30.1'
p711
S'CD'
p712
S'I-NP'
p713
g5
tp714
a(S'mg/dl'
p715
S'mg/dl'
p716
S'NN'
p717
S'I-NP'
p718
g5
tp719
a(S'and'
p720
S'and'
p721
S'CC'
p722
S'I-NP'
p723
g5
tp724
a(S'HbA1'
p725
S'HbA1'
p726
S'NN'
p727
S'I-NP'
p728
S'B-protein'
p729
tp730
a(S'--'
p731
S'--'
p732
g75
g5
g5
tp733
a(S'10.5'
p734
S'10.5'
p735
S'CD'
p736
S'B-NP'
p737
g5
tp738
a(S'+/-'
p739
S'+/-'
p740
S'CC'
p741
S'I-NP'
p742
g5
tp743
a(S'0.9'
p744
S'0.9'
p745
S'CD'
p746
S'I-NP'
p747
g5
tp748
a(S'%'
p749
g749
S'NN'
p750
S'I-NP'
p751
g5
tp752
a(S'in'
p753
S'in'
p754
S'IN'
p755
S'B-PP'
p756
g5
tp757
a(S'group'
p758
S'group'
p759
S'NN'
p760
S'B-NP'
p761
g5
tp762
a(g459
g459
S'CD'
p763
S'I-NP'
p764
g5
tp765
a(S'and'
p766
S'and'
p767
S'CC'
p768
g5
g5
tp769
a(S'FBS'
p770
S'FBS'
p771
S'NNP'
p772
S'B-NP'
p773
g5
tp774
a(S'--'
p775
S'--'
p776
g75
g5
g5
tp777
a(S'150'
p778
S'150'
p779
S'CD'
p780
S'B-NP'
p781
g5
tp782
a(S'+/-'
p783
S'+/-'
p784
S'CC'
p785
S'I-NP'
p786
g5
tp787
a(S'15.8'
p788
S'15.8'
p789
S'CD'
p790
S'I-NP'
p791
g5
tp792
a(S'mg/dl'
p793
S'mg/dl'
p794
S'NN'
p795
S'I-NP'
p796
g5
tp797
a(g316
g316
g316
g5
g5
tp798
a(S'PP'
p799
S'PP'
p800
S'NN'
p801
S'B-NP'
p802
S'B-protein'
p803
tp804
a(S'--'
p805
S'--'
p806
g75
g5
S'I-protein'
p807
tp808
a(S'246'
p809
S'246'
p810
S'CD'
p811
S'B-NP'
p812
S'I-protein'
p813
tp814
a(S'+/-'
p815
S'+/-'
p816
S'CC'
p817
S'I-NP'
p818
g5
tp819
a(S'29.1'
p820
S'29.1'
p821
S'CD'
p822
S'I-NP'
p823
g5
tp824
a(S'mg/dl'
p825
S'mg/dl'
p826
S'NN'
p827
S'I-NP'
p828
g5
tp829
a(S'HbA1'
p830
S'HbA1'
p831
S'NN'
p832
S'I-NP'
p833
g5
tp834
a(S'10.6'
p835
S'10.6'
p836
S'CD'
p837
S'I-NP'
p838
g5
tp839
a(S'+/-'
p840
S'+/-'
p841
S'SYM'
p842
S'I-NP'
p843
g5
tp844
a(S'0.8'
p845
S'0.8'
p846
S'CD'
p847
S'I-NP'
p848
g5
tp849
a(g749
g749
S'NN'
p850
S'I-NP'
p851
g5
tp852
a(S'in'
p853
S'in'
p854
S'IN'
p855
S'B-PP'
p856
g5
tp857
a(S'group'
p858
S'group'
p859
S'NN'
p860
S'B-NP'
p861
S'B-cell_line'
p862
tp863
a(S'II'
p864
S'II'
p865
S'CD'
p866
S'I-NP'
p867
S'I-cell_line'
p868
tp869
a(g475
g475
g475
g5
g5
tp870
a(S'and'
p871
S'and'
p872
S'CC'
p873
g5
g5
tp874
a(S'during'
p875
S'during'
p876
S'IN'
p877
S'B-PP'
p878
g5
tp879
a(S'controlled'
p880
S'control'
p881
S'VBN'
p882
S'B-NP'
p883
g5
tp884
a(S'stage'
p885
S'stage'
p886
S'NN'
p887
S'I-NP'
p888
g5
tp889
a(S'at'
p890
S'at'
p891
S'IN'
p892
S'B-PP'
p893
g5
tp894
a(S'12'
p895
S'12'
p896
S'CD'
p897
S'B-NP'
p898
g5
tp899
a(S'weeks'
p900
S'week'
p901
S'NNS'
p902
S'I-NP'
p903
g5
tp904
a(g463
g463
g463
g5
g5
tp905
a(S'FBS'
p906
S'FBS'
p907
S'NNP'
p908
S'B-NP'
p909
g5
tp910
a(S'--'
p911
S'--'
p912
g75
g5
g5
tp913
a(S'120'
p914
S'120'
p915
S'CD'
p916
S'B-NP'
p917
g5
tp918
a(S'+/-'
p919
S'+/-'
p920
S'CC'
p921
S'I-NP'
p922
g5
tp923
a(S'18.5'
p924
S'18.5'
p925
S'CD'
p926
S'I-NP'
p927
g5
tp928
a(S'mg/dl'
p929
S'mg/dl'
p930
S'NN'
p931
S'I-NP'
p932
g5
tp933
a(g316
g316
g316
g5
g5
tp934
a(S'PP'
p935
S'PP'
p936
S'NN'
p937
S'B-NP'
p938
S'B-protein'
p939
tp940
a(S'--'
p941
S'--'
p942
g75
g5
S'I-protein'
p943
tp944
a(S'180'
p945
S'180'
p946
S'CD'
p947
S'B-NP'
p948
S'I-protein'
p949
tp950
a(S'+/-'
p951
S'+/-'
p952
S'CC'
p953
S'I-NP'
p954
g5
tp955
a(S'19.1'
p956
S'19.1'
p957
S'CD'
p958
S'I-NP'
p959
g5
tp960
a(S'mg/dl'
p961
S'mg/dl'
p962
S'NN'
p963
S'I-NP'
p964
g5
tp965
a(S'and'
p966
S'and'
p967
S'CC'
p968
S'I-NP'
p969
g5
tp970
a(S'HbA1'
p971
S'HbA1'
p972
S'NN'
p973
S'I-NP'
p974
S'B-protein'
p975
tp976
a(S'--'
p977
S'--'
p978
g75
g5
g5
tp979
a(S'8.4'
p980
S'8.4'
p981
S'CD'
p982
S'B-NP'
p983
g5
tp984
a(S'+/-'
p985
S'+/-'
p986
S'CC'
p987
S'I-NP'
p988
g5
tp989
a(S'0.29'
p990
S'0.29'
p991
S'CD'
p992
S'I-NP'
p993
g5
tp994
a(g749
g749
S'NN'
p995
S'I-NP'
p996
g5
tp997
a(S'in'
p998
S'in'
p999
S'IN'
p1000
S'B-PP'
p1001
g5
tp1002
a(S'group'
p1003
S'group'
p1004
S'NN'
p1005
S'B-NP'
p1006
g5
tp1007
a(g459
g459
S'CD'
p1008
S'I-NP'
p1009
g5
tp1010
a(S'and'
p1011
S'and'
p1012
S'CC'
p1013
g5
g5
tp1014
a(S'FBS'
p1015
S'FBS'
p1016
S'NNP'
p1017
S'B-NP'
p1018
g5
tp1019
a(S'--'
p1020
S'--'
p1021
g75
g5
g5
tp1022
a(S'118'
p1023
S'118'
p1024
S'CD'
p1025
S'B-NP'
p1026
g5
tp1027
a(S'+/-'
p1028
S'+/-'
p1029
S'CC'
p1030
S'I-NP'
p1031
g5
tp1032
a(S'17.6'
p1033
S'17.6'
p1034
S'CD'
p1035
S'I-NP'
p1036
g5
tp1037
a(S'mg/dl'
p1038
S'mg/dl'
p1039
S'NN'
p1040
S'I-NP'
p1041
g5
tp1042
a(g316
g316
g316
g5
g5
tp1043
a(S'PP'
p1044
S'PP'
p1045
S'NN'
p1046
S'B-NP'
p1047
S'B-protein'
p1048
tp1049
a(S'--'
p1050
S'--'
p1051
g75
g5
S'I-protein'
p1052
tp1053
a(S'176'
p1054
S'176'
p1055
S'CD'
p1056
S'B-NP'
p1057
S'I-protein'
p1058
tp1059
a(S'+/-'
p1060
S'+/-'
p1061
S'CC'
p1062
S'I-NP'
p1063
g5
tp1064
a(S'20.1'
p1065
S'20.1'
p1066
S'CD'
p1067
S'I-NP'
p1068
g5
tp1069
a(S'mg/dl'
p1070
S'mg/dl'
p1071
S'NN'
p1072
S'I-NP'
p1073
g5
tp1074
a(S'and'
p1075
S'and'
p1076
S'CC'
p1077
S'I-NP'
p1078
g5
tp1079
a(S'HbA1'
p1080
S'HbA1'
p1081
S'NN'
p1082
S'I-NP'
p1083
S'B-protein'
p1084
tp1085
a(S'--'
p1086
S'--'
p1087
g75
g5
g5
tp1088
a(S'8.5'
p1089
S'8.5'
p1090
S'CD'
p1091
S'B-NP'
p1092
g5
tp1093
a(S'+/-'
p1094
S'+/-'
p1095
S'CC'
p1096
S'I-NP'
p1097
g5
tp1098
a(S'0.39'
p1099
S'0.39'
p1100
S'CD'
p1101
S'I-NP'
p1102
g5
tp1103
a(g749
g749
S'NN'
p1104
S'I-NP'
p1105
g5
tp1106
a(S'in'
p1107
S'in'
p1108
S'IN'
p1109
S'B-PP'
p1110
g5
tp1111
a(S'group'
p1112
S'group'
p1113
S'NN'
p1114
S'B-NP'
p1115
g5
tp1116
a(S'II'
p1117
S'II'
p1118
S'CD'
p1119
S'B-NP'
p1120
g5
tp1121
a(S'patients'
p1122
S'patient'
p1123
S'NNS'
p1124
S'I-NP'
p1125
g5
tp1126
a(g475
g475
g475
g5
g5
tp1127
a(g101
g101
g101
g5
g5
tp1128
a(S'RESULTS'
p1129
S'RESULTS'
p1130
S'NNS'
p1131
S'B-NP'
p1132
g5
tp1133
a(S'The'
p1134
S'The'
p1135
S'DT'
p1136
S'B-NP'
p1137
g5
tp1138
a(S'significantly'
p1139
S'significantly'
p1140
S'RB'
p1141
S'I-NP'
p1142
g5
tp1143
a(S'raised'
p1144
S'raise'
p1145
S'VBN'
p1146
S'I-NP'
p1147
g5
tp1148
a(S'levels'
p1149
S'level'
p1150
S'NNS'
p1151
S'I-NP'
p1152
g5
tp1153
a(S'of'
p1154
S'of'
p1155
S'IN'
p1156
S'B-PP'
p1157
g5
tp1158
a(S'MDA'
p1159
S'MDA'
p1160
S'NN'
p1161
S'B-NP'
p1162
S'B-protein'
p1163
tp1164
a(S'and'
p1165
S'and'
p1166
S'CC'
p1167
S'I-NP'
p1168
g5
tp1169
a(S'SOD'
p1170
S'SOD'
p1171
S'NN'
p1172
S'I-NP'
p1173
S'B-protein'
p1174
tp1175
a(g316
g316
g316
g5
g5
tp1176
a(S'and'
p1177
S'and'
p1178
S'CC'
p1179
g5
g5
tp1180
a(S'decreased'
p1181
S'decrease'
p1182
S'VBD'
p1183
S'B-VP'
p1184
g5
tp1185
a(S'levels'
p1186
S'level'
p1187
S'NNS'
p1188
S'B-NP'
p1189
g5
tp1190
a(S'of'
p1191
S'of'
p1192
S'IN'
p1193
S'B-PP'
p1194
g5
tp1195
a(S'reduced'
p1196
S'reduce'
p1197
S'VBN'
p1198
S'B-NP'
p1199
g5
tp1200
a(S'glutathione'
p1201
S'glutathione'
p1202
S'NN'
p1203
S'I-NP'
p1204
g5
tp1205
a(g463
g463
g463
g5
g5
tp1206
a(S'GSH'
p1207
S'GSH'
p1208
S'NN'
p1209
S'B-NP'
p1210
g5
tp1211
a(g475
g475
g475
g5
g5
tp1212
a(S'during'
p1213
S'during'
p1214
S'IN'
p1215
S'B-PP'
p1216
g5
tp1217
a(S'uncontrolled'
p1218
S'uncontrolled'
p1219
S'JJ'
p1220
S'B-NP'
p1221
g5
tp1222
a(S'stage'
p1223
S'stage'
p1224
S'NN'
p1225
S'I-NP'
p1226
g5
tp1227
a(S'of'
p1228
S'of'
p1229
S'IN'
p1230
S'B-PP'
p1231
g5
tp1232
a(S'diabetes'
p1233
S'diabete'
p1234
S'NNS'
p1235
S'B-NP'
p1236
g5
tp1237
a(S'indicated'
p1238
S'indicate'
p1239
S'VBD'
p1240
S'B-VP'
p1241
g5
tp1242
a(S'free'
p1243
S'free'
p1244
S'JJ'
p1245
S'B-NP'
p1246
g5
tp1247
a(S'radical'
p1248
S'radical'
p1249
S'NN'
p1250
S'I-NP'
p1251
g5
tp1252
a(S'stress'
p1253
S'stress'
p1254
S'NN'
p1255
S'I-NP'
p1256
g5
tp1257
a(S'induced'
p1258
S'induce'
p1259
S'VBD'
p1260
S'B-VP'
p1261
g5
tp1262
a(S'lipid'
p1263
S'lipid'
p1264
S'NN'
p1265
S'B-NP'
p1266
g5
tp1267
a(S'peroxidation.'
p1268
S'peroxidation.'
p1269
S'IN'
p1270
S'B-PP'
p1271
g5
tp1272
a(S'The'
p1273
S'The'
p1274
S'DT'
p1275
S'B-NP'
p1276
g5
tp1277
a(S'significant'
p1278
S'significant'
p1279
S'JJ'
p1280
S'I-NP'
p1281
g5
tp1282
a(S'fall'
p1283
S'fall'
p1284
S'NN'
p1285
S'I-NP'
p1286
g5
tp1287
a(S'of'
p1288
S'of'
p1289
S'IN'
p1290
S'B-PP'
p1291
g5
tp1292
a(S'MDA'
p1293
S'MDA'
p1294
S'NN'
p1295
S'B-NP'
p1296
S'B-protein'
p1297
tp1298
a(S'and'
p1299
S'and'
p1300
S'CC'
p1301
S'I-NP'
p1302
g5
tp1303
a(S'SOD'
p1304
S'SOD'
p1305
S'NN'
p1306
S'I-NP'
p1307
S'B-protein'
p1308
tp1309
a(S'and'
p1310
S'and'
p1311
S'CC'
p1312
g5
g5
tp1313
a(S'increased'
p1314
S'increase'
p1315
S'VBN'
p1316
S'B-NP'
p1317
g5
tp1318
a(S'levels'
p1319
S'level'
p1320
S'NNS'
p1321
S'I-NP'
p1322
g5
tp1323
a(S'of'
p1324
S'of'
p1325
S'IN'
p1326
S'B-PP'
p1327
g5
tp1328
a(S'GSH'
p1329
S'GSH'
p1330
S'NN'
p1331
S'B-NP'
p1332
S'B-protein'
p1333
tp1334
a(S'in'
p1335
S'in'
p1336
S'IN'
p1337
S'B-PP'
p1338
g5
tp1339
a(S'blood'
p1340
S'blood'
p1341
S'NN'
p1342
S'B-NP'
p1343
g5
tp1344
a(S'in'
p1345
S'in'
p1346
S'IN'
p1347
S'B-PP'
p1348
g5
tp1349
a(S'both'
p1350
S'both'
p1351
S'DT'
p1352
S'B-NP'
p1353
g5
tp1354
a(S'groups'
p1355
S'group'
p1356
S'NNS'
p1357
S'I-NP'
p1358
g5
tp1359
a(S'after'
p1360
S'after'
p1361
S'IN'
p1362
S'B-SBAR'
p1363
g5
tp1364
a(S'control'
p1365
S'control'
p1366
S'NN'
p1367
S'B-NP'
p1368
g5
tp1369
a(S'revealed'
p1370
S'reveal'
p1371
S'VBD'
p1372
S'B-VP'
p1373
g5
tp1374
a(S'beneficial'
p1375
S'beneficial'
p1376
S'JJ'
p1377
S'B-NP'
p1378
g5
tp1379
a(S'effects'
p1380
S'effect'
p1381
S'NNS'
p1382
S'I-NP'
p1383
g5
tp1384
a(S'of'
p1385
S'of'
p1386
S'IN'
p1387
S'B-PP'
p1388
g5
tp1389
a(S'glycemic'
p1390
S'glycemic'
p1391
S'JJ'
p1392
S'B-NP'
p1393
g5
tp1394
a(S'control'
p1395
S'control'
p1396
S'NN'
p1397
S'I-NP'
p1398
g5
tp1399
a(S'on'
p1400
S'on'
p1401
S'IN'
p1402
S'B-PP'
p1403
g5
tp1404
a(S'oxidative'
p1405
S'oxidative'
p1406
S'JJ'
p1407
S'B-NP'
p1408
g5
tp1409
a(S'stress.'
p1410
S'stress.'
p1411
S'NNS'
p1412
S'I-NP'
p1413
g5
tp1414
a(S'The'
p1415
S'The'
p1416
S'DT'
p1417
S'B-NP'
p1418
g5
tp1419
a(S'levels'
p1420
S'level'
p1421
S'NNS'
p1422
S'I-NP'
p1423
g5
tp1424
a(S'were'
p1425
S'be'
p1426
S'VBD'
p1427
S'B-VP'
p1428
g5
tp1429
a(S'not'
p1430
S'not'
p1431
S'RB'
p1432
S'I-VP'
p1433
g5
tp1434
a(S'normalized'
p1435
S'normalize'
p1436
S'VBN'
p1437
S'I-VP'
p1438
g5
tp1439
a(S'and'
p1440
S'and'
p1441
S'CC'
p1442
g5
g5
tp1443
a(S'stayed'
p1444
S'stay'
p1445
S'VBN'
p1446
S'B-VP'
p1447
g5
tp1448
a(S'higher'
p1449
S'high'
p1450
S'JJR'
p1451
S'B-ADJP'
p1452
g5
tp1453
a(S'than'
p1454
S'than'
p1455
S'IN'
p1456
S'B-PP'
p1457
g5
tp1458
a(S'those'
p1459
S'those'
p1460
S'DT'
p1461
S'B-NP'
p1462
g5
tp1463
a(S'in'
p1464
S'in'
p1465
S'IN'
p1466
S'B-PP'
p1467
g5
tp1468
a(S'controls.'
p1469
S'controls.'
p1470
S'NN'
p1471
S'B-NP'
p1472
g5
tp1473
a(S'On'
p1474
S'On'
p1475
S'IN'
p1476
S'B-PP'
p1477
g5
tp1478
a(S'intergroup'
p1479
S'intergroup'
p1480
S'NN'
p1481
S'B-NP'
p1482
g5
tp1483
a(S'comparison'
p1484
S'comparison'
p1485
S'NN'
p1486
S'I-NP'
p1487
g5
tp1488
a(S';'
p1489
g1489
g75
g5
g5
tp1490
a(S'the'
p1491
S'the'
p1492
S'DT'
p1493
S'B-NP'
p1494
g5
tp1495
a(S'control'
p1496
S'control'
p1497
S'NN'
p1498
S'I-NP'
p1499
g5
tp1500
a(S'of'
p1501
S'of'
p1502
S'IN'
p1503
S'B-PP'
p1504
g5
tp1505
a(S'diabetes'
p1506
S'diabetes'
p1507
S'NN'
p1508
S'B-NP'
p1509
g5
tp1510
a(S'with'
p1511
S'with'
p1512
S'IN'
p1513
S'B-PP'
p1514
g5
tp1515
a(S'gliclazide'
p1516
S'gliclazide'
p1517
S'NN'
p1518
S'B-NP'
p1519
g5
tp1520
a(g463
g463
g463
g5
g5
tp1521
a(S'group'
p1522
S'group'
p1523
S'NN'
p1524
S'B-NP'
p1525
g5
tp1526
a(S'II'
p1527
S'II'
p1528
S'CD'
p1529
S'I-NP'
p1530
g5
tp1531
a(g475
g475
g475
g5
g5
tp1532
a(S'showed'
p1533
S'show'
p1534
S'VBD'
p1535
S'B-VP'
p1536
g5
tp1537
a(S'improvement'
p1538
S'improvement'
p1539
S'NN'
p1540
S'B-NP'
p1541
g5
tp1542
a(S'in'
p1543
S'in'
p1544
S'IN'
p1545
S'B-PP'
p1546
g5
tp1547
a(S'oxidative'
p1548
S'oxidative'
p1549
S'JJ'
p1550
S'B-NP'
p1551
g5
tp1552
a(S'stress'
p1553
S'stress'
p1554
S'NN'
p1555
S'I-NP'
p1556
g5
tp1557
a(g463
g463
g463
g5
g5
tp1558
a(S'MDA'
p1559
S'MDA'
p1560
S'NN'
p1561
S'B-NP'
p1562
S'B-protein'
p1563
tp1564
a(g316
g316
g316
g5
g5
tp1565
a(S'GSH'
p1566
S'GSH'
p1567
S'NN'
p1568
S'B-NP'
p1569
g5
tp1570
a(g475
g475
g475
g5
g5
tp1571
a(S'better'
p1572
S'well'
p1573
S'RBR'
p1574
S'B-ADVP'
p1575
g5
tp1576
a(g463
g463
g463
g5
g5
tp1577
a(S'p'
p1578
g1578
S'NN'
p1579
S'B-NP'
p1580
g5
tp1581
a(S'<'
p1582
g1582
S'SYM'
p1583
g5
g5
tp1584
a(S'0.001'
p1585
S'0.001'
p1586
S'CD'
p1587
S'B-NP'
p1588
g5
tp1589
a(g475
g475
g475
g5
g5
tp1590
a(S'than'
p1591
S'than'
p1592
S'IN'
p1593
S'B-PP'
p1594
g5
tp1595
a(S'glibenclamide'
p1596
S'glibenclamide'
p1597
S'NN'
p1598
S'B-NP'
p1599
g5
tp1600
a(g463
g463
g463
g5
g5
tp1601
a(S'group'
p1602
S'group'
p1603
S'NN'
p1604
S'B-NP'
p1605
g5
tp1606
a(g459
g459
S'CD'
p1607
S'I-NP'
p1608
g5
tp1609
a(g475
g475
g475
g5
g5
tp1610
a(g101
g101
g101
g5
g5
tp1611
a(S'CONCLUSION'
p1612
S'CONCLUSION'
p1613
S'NN'
p1614
S'B-NP'
p1615
g5
tp1616
a(S'Oxidative'
p1617
S'Oxidative'
p1618
S'JJ'
p1619
S'I-NP'
p1620
g5
tp1621
a(S'stress'
p1622
S'stress'
p1623
S'NN'
p1624
S'I-NP'
p1625
g5
tp1626
a(S'in'
p1627
S'in'
p1628
S'IN'
p1629
S'B-PP'
p1630
g5
tp1631
a(S'uncontrolled'
p1632
S'uncontrolled'
p1633
S'JJ'
p1634
S'B-NP'
p1635
g5
tp1636
a(S'diabetes'
p1637
S'diabetes'
p1638
S'NN'
p1639
S'I-NP'
p1640
g5
tp1641
a(S'is'
p1642
S'be'
p1643
S'VBZ'
p1644
S'B-VP'
p1645
g5
tp1646
a(S'decreased'
p1647
S'decrease'
p1648
S'VBN'
p1649
S'I-VP'
p1650
g5
tp1651
a(S'with'
p1652
S'with'
p1653
S'IN'
p1654
S'B-PP'
p1655
g5
tp1656
a(S'glycemic'
p1657
S'glycemic'
p1658
S'JJ'
p1659
S'B-NP'
p1660
g5
tp1661
a(S'control.'
p1662
S'control.'
p1663
S'NN'
p1664
S'I-NP'
p1665
g5
tp1666
a(S'The'
p1667
S'The'
p1668
S'DT'
p1669
S'B-NP'
p1670
g5
tp1671
a(S'control'
p1672
S'control'
p1673
S'NN'
p1674
S'I-NP'
p1675
g5
tp1676
a(S'of'
p1677
S'of'
p1678
S'IN'
p1679
S'B-PP'
p1680
g5
tp1681
a(S'diabetes'
p1682
S'diabetes'
p1683
S'NN'
p1684
S'B-NP'
p1685
g5
tp1686
a(S'with'
p1687
S'with'
p1688
S'IN'
p1689
S'B-PP'
p1690
g5
tp1691
a(S'gliclazide'
p1692
S'gliclazide'
p1693
S'NN'
p1694
S'B-NP'
p1695
g5
tp1696
a(S'reduced'
p1697
S'reduce'
p1698
S'VBD'
p1699
S'B-VP'
p1700
g5
tp1701
a(S'oxidative'
p1702
S'oxidative'
p1703
S'JJ'
p1704
S'B-NP'
p1705
g5
tp1706
a(S'stress'
p1707
S'stress'
p1708
S'NN'
p1709
S'I-NP'
p1710
g5
tp1711
a(S'more'
p1712
S'more'
p1713
S'JJR'
p1714
S'B-ADJP'
p1715
g5
tp1716
a(S'than'
p1717
S'than'
p1718
S'IN'
p1719
S'B-PP'
p1720
g5
tp1721
a(S'glibenclamide'
p1722
S'glibenclamide'
p1723
S'NN'
p1724
S'B-NP'
p1725
g5
tp1726
a(g316
g316
g316
g5
g5
tp1727
a(S'indicating'
p1728
S'indicate'
p1729
S'VBG'
p1730
S'B-VP'
p1731
g5
tp1732
a(S'higher'
p1733
S'high'
p1734
S'JJR'
p1735
S'B-NP'
p1736
g5
tp1737
a(S'antioxidant'
p1738
S'antioxidant'
p1739
S'JJ'
p1740
S'I-NP'
p1741
g5
tp1742
a(S'properties'
p1743
S'property'
p1744
S'NNS'
p1745
S'I-NP'
p1746
g5
tp1747
a(S'of'
p1748
S'of'
p1749
S'IN'
p1750
S'B-PP'
p1751
g5
tp1752
a(S'gliclazide.'
p1753
S'gliclazide.'
p1754
S'NN'
p1755
S'B-NP'
p1756
g5
tp1757
a(S'Normalization'
p1758
S'Normalization'
p1759
S'NN'
p1760
S'I-NP'
p1761
g5
tp1762
a(S'of'
p1763
S'of'
p1764
S'IN'
p1765
S'B-PP'
p1766
g5
tp1767
a(S'oxidative'
p1768
S'oxidative'
p1769
S'JJ'
p1770
S'B-NP'
p1771
g5
tp1772
a(S'stress'
p1773
S'stress'
p1774
S'NN'
p1775
S'I-NP'
p1776
g5
tp1777
a(S'was'
p1778
S'be'
p1779
S'VBD'
p1780
S'B-VP'
p1781
g5
tp1782
a(S'not'
p1783
S'not'
p1784
S'RB'
p1785
S'I-VP'
p1786
g5
tp1787
a(S'achieved.'
p1788
S'achieved.'
p1789
S'VB'
p1790
S'I-VP'
p1791
g5
tp1792
a(S'Further'
p1793
S'Further'
p1794
S'JJ'
p1795
S'B-NP'
p1796
g5
tp1797
a(S'studies'
p1798
S'study'
p1799
S'NNS'
p1800
S'I-NP'
p1801
g5
tp1802
a(S'are'
p1803
S'be'
p1804
S'VBP'
p1805
S'B-VP'
p1806
g5
tp1807
a(S'required'
p1808
S'require'
p1809
S'VBN'
p1810
S'I-VP'
p1811
g5
tp1812
a(S'to'
p1813
S'to'
p1814
S'TO'
p1815
S'I-VP'
p1816
g5
tp1817
a(S'see'
p1818
S'see'
p1819
S'VB'
p1820
S'I-VP'
p1821
g5
tp1822
a(S'long-term'
p1823
S'long-term'
p1824
S'JJ'
p1825
S'B-NP'
p1826
g5
tp1827
a(S'effect'
p1828
S'effect'
p1829
S'NN'
p1830
S'I-NP'
p1831
g5
tp1832
a(S'of'
p1833
S'of'
p1834
S'IN'
p1835
S'B-PP'
p1836
g5
tp1837
a(S'drug'
p1838
S'drug'
p1839
S'NN'
p1840
S'B-NP'
p1841
g5
tp1842
a(S'therapy'
p1843
S'therapy'
p1844
S'NN'
p1845
S'I-NP'
p1846
g5
tp1847
a(S'in'
p1848
S'in'
p1849
S'IN'
p1850
S'B-PP'
p1851
g5
tp1852
a(S'combating'
p1853
S'combat'
p1854
S'VBG'
p1855
S'B-VP'
p1856
g5
tp1857
a(S'oxidative'
p1858
S'oxidative'
p1859
S'JJ'
p1860
S'B-NP'
p1861
g5
tp1862
a(S'stress'
p1863
S'stress'
p1864
S'NN'
p1865
S'I-NP'
p1866
g5
tp1867
a(S'after'
p1868
S'after'
p1869
S'IN'
p1870
S'B-PP'
p1871
g5
tp1872
a(S'achieving'
p1873
S'achieve'
p1874
S'VBG'
p1875
S'B-VP'
p1876
g5
tp1877
a(S'acceptable'
p1878
S'acceptable'
p1879
S'JJ'
p1880
S'B-NP'
p1881
g5
tp1882
a(S'control'
p1883
S'control'
p1884
S'NN'
p1885
S'I-NP'
p1886
g5
tp1887
a(S'of'
p1888
S'of'
p1889
S'IN'
p1890
S'B-PP'
p1891
g5
tp1892
a(S'diabetes'
p1893
S'diabete'
p1894
S'NNS'
p1895
S'B-NP'
p1896
g5
tp1897
a(g101
g101
g101
g5
g5
tp1898
a.