(lp0
(S'['
p1
g1
S'('
p2
S'O'
p3
g3
tp4
a(S'Intravenous'
p5
S'Intravenous'
p6
S'JJ'
p7
S'B-NP'
p8
g3
tp9
a(S'treatment'
p10
S'treatment'
p11
S'NN'
p12
S'I-NP'
p13
g3
tp14
a(S'of'
p15
S'of'
p16
S'IN'
p17
S'B-PP'
p18
g3
tp19
a(S'postpartum'
p20
S'postpartum'
p21
S'NN'
p22
S'B-NP'
p23
g3
tp24
a(S'anemia'
p25
S'anemia'
p26
S'NN'
p27
S'I-NP'
p28
g3
tp29
a(S'with'
p30
S'with'
p31
S'IN'
p32
S'B-PP'
p33
g3
tp34
a(S'trivalent'
p35
S'trivalent'
p36
S'JJ'
p37
S'B-NP'
p38
g3
tp39
a(S'ferrum'
p40
S'ferrum'
p41
S'NN'
p42
S'I-NP'
p43
g3
tp44
a(S'preparation'
p45
S'preparation'
p46
S'NN'
p47
S'I-NP'
p48
g3
tp49
a(S']'
p50
g50
S')'
p51
g3
g3
tp52
a(S'.'
p53
g53
g53
g3
g3
tp54
a(S'AIM'
p55
S'AIM'
p56
S'NN'
p57
S'B-NP'
p58
g3
tp59
a(S'OF'
p60
S'OF'
p61
S'IN'
p62
S'B-PP'
p63
g3
tp64
a(S'THE'
p65
S'THE'
p66
S'DT'
p67
S'B-NP'
p68
g3
tp69
a(S'STUDY'
p70
S'STUDY'
p71
S'NN'
p72
S'I-NP'
p73
g3
tp74
a(S'To'
p75
S'To'
p76
S'TO'
p77
S'B-VP'
p78
g3
tp79
a(S'assess'
p80
S'assess'
p81
S'VB'
p82
S'I-VP'
p83
g3
tp84
a(S'the'
p85
S'the'
p86
S'DT'
p87
S'B-NP'
p88
g3
tp89
a(S'effectivity'
p90
S'effectivity'
p91
S'NN'
p92
S'I-NP'
p93
g3
tp94
a(S'and'
p95
S'and'
p96
S'CC'
p97
S'I-NP'
p98
g3
tp99
a(S'safeness'
p100
S'safeness'
p101
S'NN'
p102
S'I-NP'
p103
g3
tp104
a(S'of'
p105
S'of'
p106
S'IN'
p107
S'B-PP'
p108
g3
tp109
a(S'intravenous'
p110
S'intravenous'
p111
S'JJ'
p112
S'B-NP'
p113
g3
tp114
a(S'treatment'
p115
S'treatment'
p116
S'NN'
p117
S'I-NP'
p118
g3
tp119
a(S'of'
p120
S'of'
p121
S'IN'
p122
S'B-PP'
p123
g3
tp124
a(S'pospartal'
p125
S'pospartal'
p126
S'JJ'
p127
S'B-NP'
p128
g3
tp129
a(S'anemia'
p130
S'anemia'
p131
S'NN'
p132
S'I-NP'
p133
g3
tp134
a(S'with'
p135
S'with'
p136
S'IN'
p137
S'B-PP'
p138
g3
tp139
a(S'trivalent'
p140
S'trivalent'
p141
S'JJ'
p142
S'B-NP'
p143
g3
tp144
a(S'ferrum'
p145
S'ferrum'
p146
S'NN'
p147
S'I-NP'
p148
g3
tp149
a(S'preparation'
p150
S'preparation'
p151
S'NN'
p152
S'I-NP'
p153
g3
tp154
a(g53
g53
g53
g3
g3
tp155
a(S'TYPE'
p156
S'TYPE'
p157
S'NN'
p158
S'B-NP'
p159
g3
tp160
a(S'OF'
p161
S'OF'
p162
S'IN'
p163
S'B-PP'
p164
g3
tp165
a(S'THE'
p166
S'THE'
p167
S'DT'
p168
S'B-NP'
p169
g3
tp170
a(S'STUDY'
p171
S'STUDY'
p172
S'NN'
p173
S'I-NP'
p174
g3
tp175
a(S'Prospective'
p176
S'Prospective'
p177
S'JJ'
p178
S'I-NP'
p179
g3
tp180
a(S'randomized'
p181
S'randomize'
p182
S'VBN'
p183
S'I-NP'
p184
g3
tp185
a(S'study'
p186
S'study'
p187
S'NN'
p188
S'I-NP'
p189
g3
tp190
a(g53
g53
g53
g3
g3
tp191
a(S'SETTING'
p192
S'SETTING'
p193
S'NNP'
p194
S'B-NP'
p195
g3
tp196
a(S'Department'
p197
S'Department'
p198
S'NNP'
p199
S'I-NP'
p200
g3
tp201
a(S'of'
p202
S'of'
p203
S'IN'
p204
S'B-PP'
p205
g3
tp206
a(S'Obstetric'
p207
S'Obstetric'
p208
S'NNP'
p209
S'B-NP'
p210
g3
tp211
a(S'and'
p212
S'and'
p213
S'CC'
p214
g3
g3
tp215
a(S'Gynecology'
p216
S'Gynecology'
p217
S'NNP'
p218
S'B-NP'
p219
g3
tp220
a(S'2nd'
p221
S'2nd'
p222
S'NNP'
p223
S'I-NP'
p224
g3
tp225
a(S'Medical'
p226
S'Medical'
p227
S'NNP'
p228
S'I-NP'
p229
g3
tp230
a(S'Faculty'
p231
S'Faculty'
p232
S'NNP'
p233
S'I-NP'
p234
g3
tp235
a(S'Charles'
p236
S'Charles'
p237
S'NNP'
p238
S'I-NP'
p239
g3
tp240
a(S'University'
p241
S'University'
p242
S'NNP'
p243
S'I-NP'
p244
g3
tp245
a(S'and'
p246
S'and'
p247
S'CC'
p248
g3
g3
tp249
a(S'Teaching'
p250
S'Teaching'
p251
S'NNP'
p252
S'B-NP'
p253
g3
tp254
a(S'Hospital'
p255
S'Hospital'
p256
S'NNP'
p257
S'I-NP'
p258
g3
tp259
a(S'Motol'
p260
S'Motol'
p261
S'NNP'
p262
S'I-NP'
p263
g3
tp264
a(S','
p265
g265
g265
g3
g3
tp266
a(S'Prague'
p267
S'Prague'
p268
S'NNP'
p269
S'B-NP'
p270
g3
tp271
a(g265
g265
g265
g3
g3
tp272
a(S'and'
p273
S'and'
p274
S'CC'
p275
g3
g3
tp276
a(S'Department'
p277
S'Department'
p278
S'NNP'
p279
S'B-NP'
p280
g3
tp281
a(S'of'
p282
S'of'
p283
S'IN'
p284
S'B-PP'
p285
g3
tp286
a(S'Obstetric'
p287
S'Obstetric'
p288
S'NNP'
p289
S'B-NP'
p290
g3
tp291
a(S'and'
p292
S'and'
p293
S'CC'
p294
g3
g3
tp295
a(S'Gynecology'
p296
S'Gynecology'
p297
S'NNP'
p298
S'B-NP'
p299
g3
tp300
a(S'1st'
p301
S'1st'
p302
S'NNP'
p303
S'I-NP'
p304
g3
tp305
a(S'Medical'
p306
S'Medical'
p307
S'NNP'
p308
S'I-NP'
p309
g3
tp310
a(S'Faculty'
p311
S'Faculty'
p312
S'NNP'
p313
S'I-NP'
p314
g3
tp315
a(S'and'
p316
S'and'
p317
S'CC'
p318
g3
g3
tp319
a(S'Teaching'
p320
S'Teaching'
p321
S'NNP'
p322
S'B-NP'
p323
g3
tp324
a(S'Hospital'
p325
S'Hospital'
p326
S'NNP'
p327
S'I-NP'
p328
g3
tp329
a(S'Bulovka'
p330
S'Bulovka'
p331
S'NNP'
p332
S'I-NP'
p333
g3
tp334
a(g265
g265
g265
g3
g3
tp335
a(S'Prague'
p336
S'Prague'
p337
S'NNP'
p338
S'B-NP'
p339
g3
tp340
a(g53
g53
g53
g3
g3
tp341
a(S'METHODS'
p342
S'METHODS'
p343
S'NNS'
p344
S'B-NP'
p345
g3
tp346
a(S'500'
p347
S'500'
p348
S'CD'
p349
S'B-NP'
p350
g3
tp351
a(S'mg'
p352
S'mg'
p353
S'NN'
p354
S'I-NP'
p355
g3
tp356
a(S'of'
p357
S'of'
p358
S'IN'
p359
S'B-PP'
p360
g3
tp361
a(S'sacharose'
p362
S'sacharose'
p363
S'NN'
p364
S'B-NP'
p365
g3
tp366
a(S'ferric'
p367
S'ferric'
p368
S'JJ'
p369
S'I-NP'
p370
g3
tp371
a(S'oxide'
p372
S'oxide'
p373
S'NN'
p374
S'I-NP'
p375
g3
tp376
a(g2
g2
g2
g3
g3
tp377
a(S'Venofer'
p378
S'Venofer'
p379
S'NN'
p380
S'B-NP'
p381
g3
tp382
a(g51
g51
g51
g3
g3
tp383
a(S'was'
p384
S'be'
p385
S'VBD'
p386
S'B-VP'
p387
g3
tp388
a(S'intravenously'
p389
S'intravenously'
p390
S'RB'
p391
S'I-VP'
p392
g3
tp393
a(S'administered'
p394
S'administer'
p395
S'VBN'
p396
S'I-VP'
p397
g3
tp398
a(S'in'
p399
S'in'
p400
S'IN'
p401
S'B-PP'
p402
g3
tp403
a(S'two'
p404
S'two'
p405
S'CD'
p406
S'B-NP'
p407
g3
tp408
a(S'days'
p409
S'day'
p410
S'NNS'
p411
S'I-NP'
p412
g3
tp413
a(S'regimen'
p414
S'regimen'
p415
S'NN'
p416
S'I-NP'
p417
g3
tp418
a(S'to'
p419
S'to'
p420
S'TO'
p421
S'B-PP'
p422
g3
tp423
a(S'50'
p424
S'50'
p425
S'CD'
p426
S'B-NP'
p427
g3
tp428
a(S'women'
p429
S'woman'
p430
S'NNS'
p431
S'I-NP'
p432
g3
tp433
a(S'with'
p434
S'with'
p435
S'IN'
p436
S'B-PP'
p437
g3
tp438
a(S'clinical'
p439
S'clinical'
p440
S'JJ'
p441
S'B-NP'
p442
g3
tp443
a(S'and'
p444
S'and'
p445
S'CC'
p446
S'I-NP'
p447
g3
tp448
a(S'lab'
p449
S'lab'
p450
S'NN'
p451
S'I-NP'
p452
g3
tp453
a(S'signs'
p454
S'sign'
p455
S'NNS'
p456
S'I-NP'
p457
g3
tp458
a(S'of'
p459
S'of'
p460
S'IN'
p461
S'B-PP'
p462
g3
tp463
a(S'postpartal'
p464
S'postpartal'
p465
S'JJ'
p466
S'B-NP'
p467
g3
tp468
a(S'anemia.'
p469
S'anemia.'
p470
S'NN'
p471
S'I-NP'
p472
g3
tp473
a(S'The'
p474
S'The'
p475
S'DT'
p476
S'B-NP'
p477
g3
tp478
a(S'effect'
p479
S'effect'
p480
S'NN'
p481
S'I-NP'
p482
g3
tp483
a(S'of'
p484
S'of'
p485
S'IN'
p486
S'B-PP'
p487
g3
tp488
a(S'administered'
p489
S'administer'
p490
S'VBN'
p491
S'B-NP'
p492
g3
tp493
a(S'drug'
p494
S'drug'
p495
S'NN'
p496
S'I-NP'
p497
g3
tp498
a(S'was'
p499
S'be'
p500
S'VBD'
p501
S'B-VP'
p502
g3
tp503
a(S'determined'
p504
S'determine'
p505
S'VBN'
p506
S'I-VP'
p507
g3
tp508
a(S'by'
p509
S'by'
p510
S'IN'
p511
S'B-PP'
p512
g3
tp513
a(S'comparsion'
p514
S'comparsion'
p515
S'NN'
p516
S'B-NP'
p517
g3
tp518
a(S'of'
p519
S'of'
p520
S'IN'
p521
S'B-PP'
p522
g3
tp523
a(S'values'
p524
S'value'
p525
S'NNS'
p526
S'B-NP'
p527
g3
tp528
a(S'of'
p529
S'of'
p530
S'IN'
p531
S'B-PP'
p532
g3
tp533
a(S'red'
p534
S'red'
p535
S'JJ'
p536
S'B-NP'
p537
g3
tp538
a(S'blood'
p539
S'blood'
p540
S'NN'
p541
S'I-NP'
p542
g3
tp543
a(S'count'
p544
S'count'
p545
S'NN'
p546
S'I-NP'
p547
g3
tp548
a(S'recovered'
p549
S'recover'
p550
S'VBD'
p551
S'B-VP'
p552
g3
tp553
a(S'before'
p554
S'before'
p555
S'IN'
p556
S'B-SBAR'
p557
g3
tp558
a(S'the'
p559
S'the'
p560
S'DT'
p561
S'B-NP'
p562
g3
tp563
a(S'treatment'
p564
S'treatment'
p565
S'NN'
p566
S'I-NP'
p567
g3
tp568
a(g265
g265
g265
S'I-NP'
p569
g3
tp570
a(S'2nd'
p571
S'2nd'
p572
S'NN'
p573
S'I-NP'
p574
g3
tp575
a(S'or'
p576
S'or'
p577
S'CC'
p578
S'I-NP'
p579
g3
tp580
a(S'3rd'
p581
S'3rd'
p582
S'NN'
p583
S'I-NP'
p584
g3
tp585
a(S'day'
p586
S'day'
p587
S'NN'
p588
S'I-NP'
p589
g3
tp590
a(S'post'
p591
S'post'
p592
S'NN'
p593
S'I-NP'
p594
g3
tp595
a(S'administration'
p596
S'administration'
p597
S'NN'
p598
S'I-NP'
p599
g3
tp600
a(S'and'
p601
S'and'
p602
S'CC'
p603
g3
g3
tp604
a(S'two'
p605
S'two'
p606
S'CD'
p607
S'B-NP'
p608
g3
tp609
a(S'weeks'
p610
S'week'
p611
S'NNS'
p612
S'I-NP'
p613
g3
tp614
a(S'later.'
p615
S'later.'
p616
S'RB'
p617
S'B-ADVP'
p618
g3
tp619
a(S'The'
p620
S'The'
p621
S'DT'
p622
S'B-NP'
p623
g3
tp624
a(S'serum'
p625
S'serum'
p626
S'NN'
p627
S'I-NP'
p628
g3
tp629
a(S'values'
p630
S'value'
p631
S'NNS'
p632
S'I-NP'
p633
g3
tp634
a(S'of'
p635
S'of'
p636
S'IN'
p637
S'B-PP'
p638
g3
tp639
a(S'soluble'
p640
S'soluble'
p641
S'JJ'
p642
S'B-NP'
p643
g3
tp644
a(S'transferrin'
p645
S'transferrin'
p646
S'NN'
p647
S'I-NP'
p648
S'B-protein'
p649
tp650
a(S'receptors'
p651
S'receptor'
p652
S'NNS'
p653
S'I-NP'
p654
S'I-protein'
p655
tp656
a(S'and'
p657
S'and'
p658
S'CC'
p659
S'I-NP'
p660
g3
tp661
a(S'ferritin'
p662
S'ferritin'
p663
S'NN'
p664
S'I-NP'
p665
S'B-protein'
p666
tp667
a(S'were'
p668
S'be'
p669
S'VBD'
p670
S'B-VP'
p671
g3
tp672
a(S'observed'
p673
S'observe'
p674
S'VBN'
p675
S'I-VP'
p676
g3
tp677
a(S'as'
p678
S'as'
p679
S'IN'
p680
S'B-PP'
p681
g3
tp682
a(S'markers'
p683
S'marker'
p684
S'NNS'
p685
S'B-NP'
p686
g3
tp687
a(S'of'
p688
S'of'
p689
S'IN'
p690
S'B-PP'
p691
g3
tp692
a(S'iron'
p693
S'iron'
p694
S'NN'
p695
S'B-NP'
p696
g3
tp697
a(S'cell'
p698
S'cell'
p699
S'NN'
p700
S'I-NP'
p701
g3
tp702
a(S'saturation'
p703
S'saturation'
p704
S'NN'
p705
S'I-NP'
p706
g3
tp707
a(S'and'
p708
S'and'
p709
S'CC'
p710
g3
g3
tp711
a(S'body'
p712
S'body'
p713
S'NN'
p714
S'B-NP'
p715
g3
tp716
a(S'iron'
p717
S'iron'
p718
S'NN'
p719
S'I-NP'
p720
g3
tp721
a(S'reserves'
p722
S'reserve'
p723
S'NNS'
p724
S'I-NP'
p725
g3
tp726
a(g265
g265
g265
g3
g3
tp727
a(S'too.'
p728
S'too.'
p729
S'NN'
p730
S'B-NP'
p731
g3
tp732
a(S'Integral'
p733
S'Integral'
p734
S'JJ'
p735
S'I-NP'
p736
g3
tp737
a(S'part'
p738
S'part'
p739
S'NN'
p740
S'I-NP'
p741
g3
tp742
a(S'of'
p743
S'of'
p744
S'IN'
p745
S'B-PP'
p746
g3
tp747
a(S'the'
p748
S'the'
p749
S'DT'
p750
S'B-NP'
p751
g3
tp752
a(S'study'
p753
S'study'
p754
S'NN'
p755
S'I-NP'
p756
g3
tp757
a(S'was'
p758
S'be'
p759
S'VBD'
p760
S'B-VP'
p761
g3
tp762
a(S'the'
p763
S'the'
p764
S'DT'
p765
S'B-NP'
p766
g3
tp767
a(S'monitoring'
p768
S'monitoring'
p769
S'NN'
p770
S'I-NP'
p771
g3
tp772
a(S'of'
p773
S'of'
p774
S'IN'
p775
S'B-PP'
p776
g3
tp777
a(S'adverse'
p778
S'adverse'
p779
S'JJ'
p780
S'B-NP'
p781
g3
tp782
a(S'events'
p783
S'event'
p784
S'NNS'
p785
S'I-NP'
p786
g3
tp787
a(S'during'
p788
S'during'
p789
S'IN'
p790
S'B-PP'
p791
g3
tp792
a(S'the'
p793
S'the'
p794
S'DT'
p795
S'B-NP'
p796
g3
tp797
a(S'treatment'
p798
S'treatment'
p799
S'NN'
p800
S'I-NP'
p801
g3
tp802
a(g53
g53
g53
g3
g3
tp803
a(S'RESULTS'
p804
S'RESULTS'
p805
S'NNP'
p806
S'B-NP'
p807
g3
tp808
a(S'Venofer'
p809
S'Venofer'
p810
S'NNP'
p811
S'I-NP'
p812
g3
tp813
a(S'came'
p814
S'come'
p815
S'VBD'
p816
S'B-VP'
p817
g3
tp818
a(S'in'
p819
S'in'
p820
S'IN'
p821
S'B-PP'
p822
g3
tp823
a(S'sight'
p824
S'sight'
p825
S'NN'
p826
S'B-NP'
p827
g3
tp828
a(S'as'
p829
S'as'
p830
S'IN'
p831
S'B-PP'
p832
g3
tp833
a(S'effective'
p834
S'effective'
p835
S'JJ'
p836
S'B-NP'
p837
g3
tp838
a(S'drug'
p839
S'drug'
p840
S'NN'
p841
S'I-NP'
p842
g3
tp843
a(S'in'
p844
S'in'
p845
S'IN'
p846
S'B-PP'
p847
g3
tp848
a(S'the'
p849
S'the'
p850
S'DT'
p851
S'B-NP'
p852
g3
tp853
a(S'treatment'
p854
S'treatment'
p855
S'NN'
p856
S'I-NP'
p857
g3
tp858
a(S'of'
p859
S'of'
p860
S'IN'
p861
S'B-PP'
p862
g3
tp863
a(S'pospartal'
p864
S'pospartal'
p865
S'JJ'
p866
S'B-NP'
p867
g3
tp868
a(S'anemia'
p869
S'anemia'
p870
S'NN'
p871
S'I-NP'
p872
g3
tp873
a(S'and'
p874
S'and'
p875
S'CC'
p876
g3
g3
tp877
a(S'could'
p878
S'could'
p879
S'MD'
p880
S'B-VP'
p881
g3
tp882
a(S'become'
p883
S'become'
p884
S'VB'
p885
S'I-VP'
p886
g3
tp887
a(S'as'
p888
S'as'
p889
S'IN'
p890
S'B-PP'
p891
g3
tp892
a(S'the'
p893
S'the'
p894
S'DT'
p895
S'B-NP'
p896
g3
tp897
a(S'alternative'
p898
S'alternative'
p899
S'NN'
p900
S'I-NP'
p901
g3
tp902
a(S'to'
p903
S'to'
p904
S'TO'
p905
S'B-PP'
p906
g3
tp907
a(S'blood'
p908
S'blood'
p909
S'NN'
p910
S'B-NP'
p911
g3
tp912
a(S'transfusion'
p913
S'transfusion'
p914
S'NN'
p915
S'I-NP'
p916
g3
tp917
a(S'in'
p918
S'in'
p919
S'IN'
p920
S'B-PP'
p921
g3
tp922
a(S'mid-severe'
p923
S'mid-severe'
p924
S'JJ'
p925
S'B-NP'
p926
g3
tp927
a(S'cases.'
p928
S'cases.'
p929
S'NN'
p930
S'I-NP'
p931
g3
tp932
a(S'It'
p933
S'It'
p934
S'PRP'
p935
S'B-NP'
p936
g3
tp937
a(S'should'
p938
S'should'
p939
S'MD'
p940
S'B-VP'
p941
g3
tp942
a(S'be'
p943
S'be'
p944
S'VB'
p945
S'I-VP'
p946
g3
tp947
a(S'emphasized'
p948
S'emphasize'
p949
S'VBN'
p950
S'I-VP'
p951
g3
tp952
a(S'that'
p953
S'that'
p954
S'IN'
p955
S'B-SBAR'
p956
g3
tp957
a(S'we'
p958
S'we'
p959
S'PRP'
p960
S'B-NP'
p961
g3
tp962
a(S'have'
p963
S'have'
p964
S'VBP'
p965
S'B-VP'
p966
g3
tp967
a(S'not'
p968
S'not'
p969
S'RB'
p970
S'I-VP'
p971
g3
tp972
a(S'encountered'
p973
S'encounter'
p974
S'VBN'
p975
S'I-VP'
p976
g3
tp977
a(S'any'
p978
S'any'
p979
S'DT'
p980
S'B-NP'
p981
g3
tp982
a(S'serious'
p983
S'serious'
p984
S'JJ'
p985
S'I-NP'
p986
g3
tp987
a(S'adverse'
p988
S'adverse'
p989
S'JJ'
p990
S'I-NP'
p991
g3
tp992
a(S'event'
p993
S'event'
p994
S'NN'
p995
S'I-NP'
p996
g3
tp997
a(S'with'
p998
S'with'
p999
S'IN'
p1000
S'B-PP'
p1001
g3
tp1002
a(S'intravenous'
p1003
S'intravenous'
p1004
S'JJ'
p1005
S'B-NP'
p1006
g3
tp1007
a(S'trivalent'
p1008
S'trivalent'
p1009
S'JJ'
p1010
S'I-NP'
p1011
g3
tp1012
a(S'saccharose'
p1013
S'saccharose'
p1014
S'NN'
p1015
S'I-NP'
p1016
g3
tp1017
a(S'ferric'
p1018
S'ferric'
p1019
S'JJ'
p1020
S'I-NP'
p1021
g3
tp1022
a(S'oxide'
p1023
S'oxide'
p1024
S'NN'
p1025
S'I-NP'
p1026
g3
tp1027
a(S'treatment'
p1028
S'treatment'
p1029
S'NN'
p1030
S'I-NP'
p1031
g3
tp1032
a(g53
g53
g53
g3
g3
tp1033
a.