(lp0
(S'ApoA-I'
p1
S'ApoA-I'
p2
S'NN'
p3
S'B-NP'
p4
S'O'
p5
tp6
a(S'induction'
p7
S'induction'
p8
S'NN'
p9
S'I-NP'
p10
g5
tp11
a(S'as'
p12
S'as'
p13
S'IN'
p14
S'B-PP'
p15
g5
tp16
a(S'a'
p17
g17
S'DT'
p18
S'B-NP'
p19
g5
tp20
a(S'potential'
p21
S'potential'
p22
S'JJ'
p23
S'I-NP'
p24
g5
tp25
a(S'cardioprotective'
p26
S'cardioprotective'
p27
S'JJ'
p28
S'I-NP'
p29
g5
tp30
a(S'strategy'
p31
S'strategy'
p32
S'NN'
p33
S'I-NP'
p34
g5
tp35
a(S':'
p36
g36
g36
g5
g5
tp37
a(S'rationale'
p38
S'rationale'
p39
S'NN'
p40
S'B-NP'
p41
g5
tp42
a(S'for'
p43
S'for'
p44
S'IN'
p45
S'B-PP'
p46
g5
tp47
a(S'the'
p48
S'the'
p49
S'DT'
p50
S'B-NP'
p51
g5
tp52
a(S'SUSTAIN'
p53
S'SUSTAIN'
p54
S'NN'
p55
S'I-NP'
p56
g5
tp57
a(S'and'
p58
S'and'
p59
S'CC'
p60
S'I-NP'
p61
g5
tp62
a(S'ASSURE'
p63
S'ASSURE'
p64
S'NN'
p65
S'I-NP'
p66
g5
tp67
a(S'studies'
p68
S'study'
p69
S'NNS'
p70
S'I-NP'
p71
g5
tp72
a(S'.'
p73
g73
g73
g5
g5
tp74
a(S'BACKGROUND'
p75
S'BACKGROUND'
p76
S'NN'
p77
S'B-NP'
p78
g5
tp79
a(S'Considerable'
p80
S'Considerable'
p81
S'JJ'
p82
S'I-NP'
p83
g5
tp84
a(S'interest'
p85
S'interest'
p86
S'NN'
p87
S'I-NP'
p88
g5
tp89
a(S'has'
p90
S'have'
p91
S'VBZ'
p92
S'B-VP'
p93
g5
tp94
a(S'focused'
p95
S'focus'
p96
S'VBN'
p97
S'I-VP'
p98
g5
tp99
a(S'on'
p100
S'on'
p101
S'IN'
p102
S'B-PP'
p103
g5
tp104
a(S'the'
p105
S'the'
p106
S'DT'
p107
S'B-NP'
p108
g5
tp109
a(S'development'
p110
S'development'
p111
S'NN'
p112
S'I-NP'
p113
g5
tp114
a(S'of'
p115
S'of'
p116
S'IN'
p117
S'B-PP'
p118
g5
tp119
a(S'therapies'
p120
S'therapy'
p121
S'NNS'
p122
S'B-NP'
p123
g5
tp124
a(S'that'
p125
S'that'
p126
S'WDT'
p127
S'B-NP'
p128
g5
tp129
a(S'target'
p130
S'target'
p131
S'VBP'
p132
S'B-VP'
p133
g5
tp134
a(S'the'
p135
S'the'
p136
S'DT'
p137
S'B-NP'
p138
g5
tp139
a(S'functionality'
p140
S'functionality'
p141
S'NN'
p142
S'I-NP'
p143
g5
tp144
a(S'of'
p145
S'of'
p146
S'IN'
p147
S'B-PP'
p148
g5
tp149
a(S'high-density'
p150
S'high-density'
p151
S'JJ'
p152
S'B-NP'
p153
g5
tp154
a(S'lipoproteins'
p155
S'lipoprotein'
p156
S'NNS'
p157
S'I-NP'
p158
g5
tp159
a(S'('
p160
g160
g160
g5
g5
tp161
a(S'HDL'
p162
S'HDL'
p163
S'NN'
p164
S'B-NP'
p165
g5
tp166
a(S')'
p167
g167
g167
g5
g5
tp168
a(g73
g73
g73
g5
g5
tp169
a(S'Upregulation'
p170
S'Upregulation'
p171
S'NN'
p172
S'B-NP'
p173
g5
tp174
a(S'of'
p175
S'of'
p176
S'IN'
p177
S'B-PP'
p178
g5
tp179
a(S'endogenous'
p180
S'endogenous'
p181
S'JJ'
p182
S'B-NP'
p183
g5
tp184
a(S'synthesis'
p185
S'synthesis'
p186
S'NN'
p187
S'I-NP'
p188
g5
tp189
a(S'of'
p190
S'of'
p191
S'IN'
p192
S'B-PP'
p193
g5
tp194
a(S'the'
p195
S'the'
p196
S'DT'
p197
S'B-NP'
p198
g5
tp199
a(S'major'
p200
S'major'
p201
S'JJ'
p202
S'I-NP'
p203
S'B-protein'
p204
tp205
a(S'protein'
p206
S'protein'
p207
S'NN'
p208
S'I-NP'
p209
S'I-protein'
p210
tp211
a(S'on'
p212
S'on'
p213
S'IN'
p214
S'B-PP'
p215
g5
tp216
a(S'HDL'
p217
S'HDL'
p218
S'NN'
p219
S'B-NP'
p220
g5
tp221
a(S'particles'
p222
S'particle'
p223
S'NNS'
p224
S'I-NP'
p225
g5
tp226
a(S','
p227
g227
g227
g5
g5
tp228
a(S'apolipoprotein'
p229
S'apolipoprotein'
p230
S'NN'
p231
S'B-NP'
p232
g5
tp233
a(S'A-I'
p234
S'A-I'
p235
S'NN'
p236
S'I-NP'
p237
g5
tp238
a(g160
g160
g160
g5
g5
tp239
a(S'apoA-I'
p240
S'apoA-I'
p241
S'NN'
p242
S'B-NP'
p243
g5
tp244
a(g167
g167
g167
g5
g5
tp245
a(g227
g227
g227
g5
g5
tp246
a(S'represents'
p247
S'represent'
p248
S'VBZ'
p249
S'B-VP'
p250
g5
tp251
a(g17
g17
S'DT'
p252
S'B-NP'
p253
g5
tp254
a(S'novel'
p255
S'novel'
p256
S'JJ'
p257
S'I-NP'
p258
g5
tp259
a(S'approach'
p260
S'approach'
p261
S'NN'
p262
S'I-NP'
p263
g5
tp264
a(S'to'
p265
S'to'
p266
S'TO'
p267
S'B-PP'
p268
g5
tp269
a(S'generation'
p270
S'generation'
p271
S'NN'
p272
S'B-NP'
p273
g5
tp274
a(S'of'
p275
S'of'
p276
S'IN'
p277
S'B-PP'
p278
g5
tp279
a(S'new'
p280
S'new'
p281
S'JJ'
p282
S'B-NP'
p283
g5
tp284
a(S'HDL'
p285
S'HDL'
p286
S'NN'
p287
S'I-NP'
p288
g5
tp289
a(S'particles.'
p290
S'particles.'
p291
S'NN'
p292
S'I-NP'
p293
g5
tp294
a(S'The'
p295
S'The'
p296
S'DT'
p297
S'B-NP'
p298
g5
tp299
a(S'Study'
p300
S'Study'
p301
S'NN'
p302
S'I-NP'
p303
g5
tp304
a(S'of'
p305
S'of'
p306
S'IN'
p307
S'B-PP'
p308
g5
tp309
a(S'Quantitative'
p310
S'Quantitative'
p311
S'JJ'
p312
S'B-NP'
p313
g5
tp314
a(S'Serial'
p315
S'Serial'
p316
S'NNP'
p317
S'I-NP'
p318
g5
tp319
a(S'Trends'
p320
S'Trend'
p321
S'NNPS'
p322
S'I-NP'
p323
g5
tp324
a(S'in'
p325
S'in'
p326
S'IN'
p327
S'B-PP'
p328
g5
tp329
a(S'Lipids'
p330
S'Lipid'
p331
S'NNS'
p332
S'B-NP'
p333
g5
tp334
a(S'with'
p335
S'with'
p336
S'IN'
p337
S'B-PP'
p338
g5
tp339
a(S'Apolipoprotein'
p340
S'Apolipoprotein'
p341
S'NN'
p342
S'B-NP'
p343
g5
tp344
a(S'A-I'
p345
S'A-I'
p346
S'NN'
p347
S'I-NP'
p348
g5
tp349
a(S'Stimulation'
p350
S'Stimulation'
p351
S'NN'
p352
S'I-NP'
p353
g5
tp354
a(g160
g160
g160
g5
g5
tp355
a(S'SUSTAIN'
p356
S'SUSTAIN'
p357
S'NN'
p358
S'B-NP'
p359
g5
tp360
a(g227
g227
g227
g5
g5
tp361
a(S'NCT01423188'
p362
S'NCT01423188'
p363
S'NN'
p364
S'B-NP'
p365
g5
tp366
a(g167
g167
g167
g5
g5
tp367
a(S'study'
p368
S'study'
p369
S'NN'
p370
S'B-NP'
p371
g5
tp372
a(S'aims'
p373
S'aim'
p374
S'VBZ'
p375
S'B-VP'
p376
g5
tp377
a(S'to'
p378
S'to'
p379
S'TO'
p380
S'I-VP'
p381
g5
tp382
a(S'evaluate'
p383
S'evaluate'
p384
S'VB'
p385
S'I-VP'
p386
g5
tp387
a(S'the'
p388
S'the'
p389
S'DT'
p390
S'B-NP'
p391
g5
tp392
a(S'lipid'
p393
S'lipid'
p394
S'NN'
p395
S'I-NP'
p396
g5
tp397
a(S'efficacy'
p398
S'efficacy'
p399
S'NN'
p400
S'I-NP'
p401
g5
tp402
a(g227
g227
g227
g5
g5
tp403
a(S'safety'
p404
S'safety'
p405
S'NN'
p406
S'B-NP'
p407
g5
tp408
a(S'and'
p409
S'and'
p410
S'CC'
p411
S'I-NP'
p412
g5
tp413
a(S'tolerability'
p414
S'tolerability'
p415
S'NN'
p416
S'I-NP'
p417
g5
tp418
a(S'of'
p419
S'of'
p420
S'IN'
p421
S'B-PP'
p422
g5
tp423
a(S'an'
p424
S'an'
p425
S'DT'
p426
S'B-NP'
p427
g5
tp428
a(S'apoA-I'
p429
S'apoA-I'
p430
S'NN'
p431
S'I-NP'
p432
g5
tp433
a(S'inducer'
p434
S'inducer'
p435
S'NN'
p436
S'I-NP'
p437
g5
tp438
a(g160
g160
g160
g5
g5
tp439
a(S'RVX-208'
p440
S'RVX-208'
p441
S'NN'
p442
S'B-NP'
p443
S'B-protein'
p444
tp445
a(g167
g167
g167
g5
g5
tp446
a(g73
g73
g73
g5
g5
tp447
a(S'The'
p448
S'The'
p449
S'DT'
p450
S'B-NP'
p451
g5
tp452
a(S'ApoA-I'
p453
S'ApoA-I'
p454
S'JJ'
p455
S'I-NP'
p456
g5
tp457
a(S'Synthesis'
p458
S'Synthesis'
p459
S'NN'
p460
S'I-NP'
p461
g5
tp462
a(S'Stimulation'
p463
S'Stimulation'
p464
S'NN'
p465
S'I-NP'
p466
g5
tp467
a(S'and'
p468
S'and'
p469
S'CC'
p470
g5
g5
tp471
a(S'Intravascular'
p472
S'Intravascular'
p473
S'JJ'
p474
S'B-NP'
p475
g5
tp476
a(S'Ultrasound'
p477
S'Ultrasound'
p478
S'NN'
p479
S'I-NP'
p480
g5
tp481
a(S'for'
p482
S'for'
p483
S'IN'
p484
S'B-PP'
p485
g5
tp486
a(S'Coronary'
p487
S'Coronary'
p488
S'JJ'
p489
S'B-NP'
p490
g5
tp491
a(S'Atheroma'
p492
S'Atheroma'
p493
S'NN'
p494
S'I-NP'
p495
g5
tp496
a(S'Regression'
p497
S'Regression'
p498
S'NN'
p499
S'I-NP'
p500
g5
tp501
a(S'Evaluation'
p502
S'Evaluation'
p503
S'NN'
p504
S'I-NP'
p505
g5
tp506
a(g160
g160
g160
g5
g5
tp507
a(S'ASSURE'
p508
S'ASSURE'
p509
S'NN'
p510
S'B-NP'
p511
g5
tp512
a(g227
g227
g227
g5
g5
tp513
a(S'NCT01067820'
p514
S'NCT01067820'
p515
S'NN'
p516
S'B-NP'
p517
g5
tp518
a(g167
g167
g167
g5
g5
tp519
a(S'study'
p520
S'study'
p521
S'NN'
p522
S'B-NP'
p523
g5
tp524
a(S'aims'
p525
S'aim'
p526
S'VBZ'
p527
S'B-VP'
p528
g5
tp529
a(S'to'
p530
S'to'
p531
S'TO'
p532
S'I-VP'
p533
g5
tp534
a(S'evaluate'
p535
S'evaluate'
p536
S'VB'
p537
S'I-VP'
p538
g5
tp539
a(S'the'
p540
S'the'
p541
S'DT'
p542
S'B-NP'
p543
g5
tp544
a(S'effect'
p545
S'effect'
p546
S'NN'
p547
S'I-NP'
p548
g5
tp549
a(S'of'
p550
S'of'
p551
S'IN'
p552
S'B-PP'
p553
g5
tp554
a(S'RVX-208'
p555
S'RVX-208'
p556
S'NN'
p557
S'B-NP'
p558
S'B-protein'
p559
tp560
a(S'on'
p561
S'on'
p562
S'IN'
p563
S'B-PP'
p564
g5
tp565
a(S'plaque'
p566
S'plaque'
p567
S'NN'
p568
S'B-NP'
p569
g5
tp570
a(S'burden'
p571
S'burden'
p572
S'NN'
p573
S'I-NP'
p574
g5
tp575
a(g73
g73
g73
g5
g5
tp576
a(S'METHODS'
p577
S'METHODS'
p578
S'NNS'
p579
S'B-NP'
p580
g5
tp581
a(S'In'
p582
S'In'
p583
S'IN'
p584
S'B-PP'
p585
g5
tp586
a(S'SUSTAIN'
p587
S'SUSTAIN'
p588
S'NN'
p589
S'B-NP'
p590
g5
tp591
a(g227
g227
g227
g5
g5
tp592
a(S'172'
p593
S'172'
p594
S'CD'
p595
S'B-NP'
p596
g5
tp597
a(S'patients'
p598
S'patient'
p599
S'NNS'
p600
S'I-NP'
p601
g5
tp602
a(S'with'
p603
S'with'
p604
S'IN'
p605
S'B-PP'
p606
g5
tp607
a(S'low'
p608
S'low'
p609
S'JJ'
p610
S'B-NP'
p611
g5
tp612
a(S'levels'
p613
S'level'
p614
S'NNS'
p615
S'I-NP'
p616
g5
tp617
a(S'of'
p618
S'of'
p619
S'IN'
p620
S'B-PP'
p621
g5
tp622
a(S'HDL-C'
p623
S'HDL-C'
p624
S'NN'
p625
S'B-NP'
p626
S'B-protein'
p627
tp628
a(S'will'
p629
S'will'
p630
S'MD'
p631
S'B-VP'
p632
g5
tp633
a(S'be'
p634
S'be'
p635
S'VB'
p636
S'I-VP'
p637
g5
tp638
a(S'randomized'
p639
S'randomize'
p640
S'VBN'
p641
S'I-VP'
p642
g5
tp643
a(S'to'
p644
S'to'
p645
S'TO'
p646
S'I-VP'
p647
g5
tp648
a(S'receive'
p649
S'receive'
p650
S'VB'
p651
S'I-VP'
p652
g5
tp653
a(S'RVX-208'
p654
S'RVX-208'
p655
S'NN'
p656
S'B-NP'
p657
g5
tp658
a(S'100'
p659
S'100'
p660
S'CD'
p661
S'I-NP'
p662
g5
tp663
a(S'mg'
p664
S'mg'
p665
S'NN'
p666
S'I-NP'
p667
g5
tp668
a(S'bid'
p669
S'bid'
p670
S'NN'
p671
S'I-NP'
p672
g5
tp673
a(S'or'
p674
S'or'
p675
S'CC'
p676
g5
g5
tp677
a(S'placebo'
p678
S'placebo'
p679
S'NN'
p680
S'B-NP'
p681
g5
tp682
a(S'for'
p683
S'for'
p684
S'IN'
p685
S'B-PP'
p686
g5
tp687
a(S'24'
p688
S'24'
p689
S'CD'
p690
S'B-NP'
p691
g5
tp692
a(S'weeks.'
p693
S'weeks.'
p694
S'NN'
p695
S'I-NP'
p696
g5
tp697
a(S'The'
p698
S'The'
p699
S'DT'
p700
S'B-NP'
p701
g5
tp702
a(S'primary'
p703
S'primary'
p704
S'JJ'
p705
S'I-NP'
p706
g5
tp707
a(S'efficacy'
p708
S'efficacy'
p709
S'NN'
p710
S'I-NP'
p711
g5
tp712
a(S'parameter'
p713
S'parameter'
p714
S'NN'
p715
S'I-NP'
p716
g5
tp717
a(S'will'
p718
S'will'
p719
S'MD'
p720
S'B-VP'
p721
g5
tp722
a(S'be'
p723
S'be'
p724
S'VB'
p725
S'I-VP'
p726
g5
tp727
a(S'the'
p728
S'the'
p729
S'DT'
p730
S'B-NP'
p731
g5
tp732
a(S'percentage'
p733
S'percentage'
p734
S'NN'
p735
S'I-NP'
p736
g5
tp737
a(S'change'
p738
S'change'
p739
S'NN'
p740
S'I-NP'
p741
g5
tp742
a(S'in'
p743
S'in'
p744
S'IN'
p745
S'B-PP'
p746
g5
tp747
a(S'HDL-C'
p748
S'HDL-C'
p749
S'NN'
p750
S'B-NP'
p751
g5
tp752
a(S'levels.'
p753
S'levels.'
p754
S'NN'
p755
S'I-NP'
p756
g5
tp757
a(S'In'
p758
S'In'
p759
S'IN'
p760
S'B-PP'
p761
g5
tp762
a(S'ASSURE'
p763
S'ASSURE'
p764
S'NN'
p765
S'B-NP'
p766
g5
tp767
a(g227
g227
g227
g5
g5
tp768
a(S'310'
p769
S'310'
p770
S'CD'
p771
S'B-NP'
p772
g5
tp773
a(S'patients'
p774
S'patient'
p775
S'NNS'
p776
S'I-NP'
p777
g5
tp778
a(S'with'
p779
S'with'
p780
S'IN'
p781
S'B-PP'
p782
g5
tp783
a(S'angiographic'
p784
S'angiographic'
p785
S'JJ'
p786
S'B-NP'
p787
g5
tp788
a(S'coronary'
p789
S'coronary'
p790
S'JJ'
p791
S'I-NP'
p792
g5
tp793
a(S'artery'
p794
S'artery'
p795
S'NN'
p796
S'I-NP'
p797
g5
tp798
a(S'disease'
p799
S'disease'
p800
S'NN'
p801
S'I-NP'
p802
g5
tp803
a(S'and'
p804
S'and'
p805
S'CC'
p806
g5
g5
tp807
a(S'low'
p808
S'low'
p809
S'JJ'
p810
S'B-NP'
p811
g5
tp812
a(S'HDL-C'
p813
S'HDL-C'
p814
S'NN'
p815
S'I-NP'
p816
g5
tp817
a(S'levels'
p818
S'level'
p819
S'NNS'
p820
S'I-NP'
p821
g5
tp822
a(S'will'
p823
S'will'
p824
S'MD'
p825
S'B-VP'
p826
g5
tp827
a(S'be'
p828
S'be'
p829
S'VB'
p830
S'I-VP'
p831
g5
tp832
a(S'randomized'
p833
S'randomize'
p834
S'VBN'
p835
S'I-VP'
p836
g5
tp837
a(S'to'
p838
S'to'
p839
S'TO'
p840
S'I-VP'
p841
g5
tp842
a(S'receive'
p843
S'receive'
p844
S'VB'
p845
S'I-VP'
p846
g5
tp847
a(S'RVX-208'
p848
S'RVX-208'
p849
S'NN'
p850
S'B-NP'
p851
g5
tp852
a(S'100'
p853
S'100'
p854
S'CD'
p855
S'I-NP'
p856
g5
tp857
a(S'mg'
p858
S'mg'
p859
S'NN'
p860
S'I-NP'
p861
g5
tp862
a(S'bid'
p863
S'bid'
p864
S'NN'
p865
S'I-NP'
p866
g5
tp867
a(S'or'
p868
S'or'
p869
S'CC'
p870
g5
g5
tp871
a(S'placebo'
p872
S'placebo'
p873
S'NN'
p874
S'B-NP'
p875
g5
tp876
a(S'for'
p877
S'for'
p878
S'IN'
p879
S'B-PP'
p880
g5
tp881
a(S'26'
p882
S'26'
p883
S'CD'
p884
S'B-NP'
p885
g5
tp886
a(S'weeks.'
p887
S'weeks.'
p888
S'NN'
p889
S'I-NP'
p890
g5
tp891
a(S'The'
p892
S'The'
p893
S'DT'
p894
S'B-NP'
p895
g5
tp896
a(S'primary'
p897
S'primary'
p898
S'JJ'
p899
S'I-NP'
p900
g5
tp901
a(S'efficacy'
p902
S'efficacy'
p903
S'NN'
p904
S'I-NP'
p905
g5
tp906
a(S'parameter'
p907
S'parameter'
p908
S'NN'
p909
S'I-NP'
p910
g5
tp911
a(S'will'
p912
S'will'
p913
S'MD'
p914
S'B-VP'
p915
g5
tp916
a(S'be'
p917
S'be'
p918
S'VB'
p919
S'I-VP'
p920
g5
tp921
a(S'the'
p922
S'the'
p923
S'DT'
p924
S'B-NP'
p925
g5
tp926
a(S'nominal'
p927
S'nominal'
p928
S'JJ'
p929
S'I-NP'
p930
g5
tp931
a(S'change'
p932
S'change'
p933
S'NN'
p934
S'I-NP'
p935
g5
tp936
a(S'in'
p937
S'in'
p938
S'IN'
p939
S'B-PP'
p940
g5
tp941
a(S'percent'
p942
S'percent'
p943
S'NN'
p944
S'B-NP'
p945
g5
tp946
a(S'atheroma'
p947
S'atheroma'
p948
S'NN'
p949
S'I-NP'
p950
g5
tp951
a(S'volume'
p952
S'volume'
p953
S'NN'
p954
S'I-NP'
p955
g5
tp956
a(g160
g160
g160
g5
g5
tp957
a(S'PAV'
p958
S'PAV'
p959
S'NN'
p960
S'B-NP'
p961
S'B-protein'
p962
tp963
a(g167
g167
g167
g5
g5
tp964
a(g227
g227
g227
g5
g5
tp965
a(S'determined'
p966
S'determine'
p967
S'VBN'
p968
S'B-VP'
p969
g5
tp970
a(S'by'
p971
S'by'
p972
S'IN'
p973
S'B-PP'
p974
g5
tp975
a(S'analysis'
p976
S'analysis'
p977
S'NN'
p978
S'B-NP'
p979
g5
tp980
a(S'of'
p981
S'of'
p982
S'IN'
p983
S'B-PP'
p984
g5
tp985
a(S'intravascular'
p986
S'intravascular'
p987
S'JJ'
p988
S'B-NP'
p989
g5
tp990
a(S'ultrasound'
p991
S'ultrasound'
p992
S'NN'
p993
S'I-NP'
p994
g5
tp995
a(g160
g160
g160
g5
g5
tp996
a(S'IVUS'
p997
S'IVUS'
p998
S'NN'
p999
S'B-NP'
p1000
g5
tp1001
a(g167
g167
g167
g5
g5
tp1002
a(S'images'
p1003
S'image'
p1004
S'NNS'
p1005
S'B-NP'
p1006
g5
tp1007
a(S'of'
p1008
S'of'
p1009
S'IN'
p1010
S'B-PP'
p1011
g5
tp1012
a(S'matched'
p1013
S'match'
p1014
S'VBN'
p1015
S'B-NP'
p1016
g5
tp1017
a(S'coronary'
p1018
S'coronary'
p1019
S'JJ'
p1020
S'I-NP'
p1021
g5
tp1022
a(S'artery'
p1023
S'artery'
p1024
S'NN'
p1025
S'I-NP'
p1026
g5
tp1027
a(S'segments'
p1028
S'segment'
p1029
S'NNS'
p1030
S'I-NP'
p1031
g5
tp1032
a(S'acquired'
p1033
S'acquire'
p1034
S'VBN'
p1035
S'B-VP'
p1036
g5
tp1037
a(S'at'
p1038
S'at'
p1039
S'IN'
p1040
S'B-PP'
p1041
g5
tp1042
a(S'baseline'
p1043
S'baseline'
p1044
S'NN'
p1045
S'B-NP'
p1046
g5
tp1047
a(S'and'
p1048
S'and'
p1049
S'CC'
p1050
S'B-PP'
p1051
g5
tp1052
a(S'at'
p1053
S'at'
p1054
S'IN'
p1055
S'B-PP'
p1056
g5
tp1057
a(S'26-week'
p1058
S'26-week'
p1059
S'JJ'
p1060
S'B-NP'
p1061
g5
tp1062
a(S'follow-up.'
p1063
S'follow-up.'
p1064
S'NN'
p1065
S'I-NP'
p1066
g5
tp1067
a(S'The'
p1068
S'The'
p1069
S'DT'
p1070
S'B-NP'
p1071
g5
tp1072
a(S'effect'
p1073
S'effect'
p1074
S'NN'
p1075
S'I-NP'
p1076
g5
tp1077
a(S'of'
p1078
S'of'
p1079
S'IN'
p1080
S'B-PP'
p1081
g5
tp1082
a(S'RVX-208'
p1083
S'RVX-208'
p1084
S'NN'
p1085
S'B-NP'
p1086
S'B-protein'
p1087
tp1088
a(S'on'
p1089
S'on'
p1090
S'IN'
p1091
S'B-PP'
p1092
g5
tp1093
a(S'other'
p1094
S'other'
p1095
S'JJ'
p1096
S'B-NP'
p1097
g5
tp1098
a(S'lipid'
p1099
S'lipid'
p1100
S'NN'
p1101
S'I-NP'
p1102
g5
tp1103
a(S'and'
p1104
S'and'
p1105
S'CC'
p1106
g5
g5
tp1107
a(S'inflammatory'
p1108
S'inflammatory'
p1109
S'JJ'
p1110
S'B-NP'
p1111
S'B-protein'
p1112
tp1113
a(S'markers'
p1114
S'marker'
p1115
S'NNS'
p1116
S'I-NP'
p1117
S'I-protein'
p1118
tp1119
a(g227
g227
g227
g5
g5
tp1120
a(S'safety'
p1121
S'safety'
p1122
S'NN'
p1123
S'B-NP'
p1124
g5
tp1125
a(S'and'
p1126
S'and'
p1127
S'CC'
p1128
S'I-NP'
p1129
g5
tp1130
a(S'tolerability'
p1131
S'tolerability'
p1132
S'NN'
p1133
S'I-NP'
p1134
g5
tp1135
a(S'will'
p1136
S'will'
p1137
S'MD'
p1138
S'B-VP'
p1139
g5
tp1140
a(S'also'
p1141
S'also'
p1142
S'RB'
p1143
S'I-VP'
p1144
g5
tp1145
a(S'be'
p1146
S'be'
p1147
S'VB'
p1148
S'I-VP'
p1149
g5
tp1150
a(S'assessed'
p1151
S'assess'
p1152
S'VBN'
p1153
S'I-VP'
p1154
g5
tp1155
a(S'in'
p1156
S'in'
p1157
S'IN'
p1158
S'B-PP'
p1159
g5
tp1160
a(S'both'
p1161
S'both'
p1162
S'DT'
p1163
S'B-NP'
p1164
g5
tp1165
a(S'studies'
p1166
S'study'
p1167
S'NNS'
p1168
S'I-NP'
p1169
g5
tp1170
a(g73
g73
g73
g5
g5
tp1171
a(S'CONCLUSION'
p1172
S'CONCLUSION'
p1173
S'NN'
p1174
S'B-NP'
p1175
g5
tp1176
a(S'ApoA-I'
p1177
S'ApoA-I'
p1178
S'NN'
p1179
S'I-NP'
p1180
g5
tp1181
a(S'induction'
p1182
S'induction'
p1183
S'NN'
p1184
S'I-NP'
p1185
g5
tp1186
a(S'represents'
p1187
S'represent'
p1188
S'VBZ'
p1189
S'B-VP'
p1190
g5
tp1191
a(g17
g17
S'DT'
p1192
S'B-NP'
p1193
g5
tp1194
a(S'potential'
p1195
S'potential'
p1196
S'JJ'
p1197
S'I-NP'
p1198
g5
tp1199
a(S'novel'
p1200
S'novel'
p1201
S'JJ'
p1202
S'I-NP'
p1203
g5
tp1204
a(S'strategy'
p1205
S'strategy'
p1206
S'NN'
p1207
S'I-NP'
p1208
g5
tp1209
a(S'to'
p1210
S'to'
p1211
S'TO'
p1212
S'B-VP'
p1213
g5
tp1214
a(S'reduce'
p1215
S'reduce'
p1216
S'VB'
p1217
S'I-VP'
p1218
g5
tp1219
a(S'cardiovascular'
p1220
S'cardiovascular'
p1221
S'JJ'
p1222
S'B-NP'
p1223
g5
tp1224
a(S'risk'
p1225
S'risk'
p1226
S'NN'
p1227
S'I-NP'
p1228
g5
tp1229
a(g227
g227
g227
g5
g5
tp1230
a(S'by'
p1231
S'by'
p1232
S'IN'
p1233
S'B-PP'
p1234
g5
tp1235
a(S'generating'
p1236
S'generate'
p1237
S'VBG'
p1238
S'B-VP'
p1239
g5
tp1240
a(S'nascent'
p1241
S'nascent'
p1242
S'JJ'
p1243
S'B-NP'
p1244
g5
tp1245
a(S'HDL'
p1246
S'HDL'
p1247
S'NN'
p1248
S'I-NP'
p1249
g5
tp1250
a(S'particles.'
p1251
S'particles.'
p1252
S'NNS'
p1253
S'I-NP'
p1254
g5
tp1255
a(S'These'
p1256
S'These'
p1257
S'DT'
p1258
S'B-NP'
p1259
g5
tp1260
a(S'studies'
p1261
S'study'
p1262
S'NNS'
p1263
S'I-NP'
p1264
g5
tp1265
a(S'will'
p1266
S'will'
p1267
S'MD'
p1268
S'B-VP'
p1269
g5
tp1270
a(S'provide'
p1271
S'provide'
p1272
S'VB'
p1273
S'I-VP'
p1274
g5
tp1275
a(S'early'
p1276
S'early'
p1277
S'JJ'
p1278
S'B-NP'
p1279
g5
tp1280
a(S'evaluation'
p1281
S'evaluation'
p1282
S'NN'
p1283
S'I-NP'
p1284
g5
tp1285
a(S'of'
p1286
S'of'
p1287
S'IN'
p1288
S'B-PP'
p1289
g5
tp1290
a(S'the'
p1291
S'the'
p1292
S'DT'
p1293
S'B-NP'
p1294
g5
tp1295
a(S'effects'
p1296
S'effect'
p1297
S'NNS'
p1298
S'I-NP'
p1299
g5
tp1300
a(S'of'
p1301
S'of'
p1302
S'IN'
p1303
S'B-PP'
p1304
g5
tp1305
a(S'RVX-208'
p1306
S'RVX-208'
p1307
S'NN'
p1308
S'B-NP'
p1309
S'B-protein'
p1310
tp1311
a(S'on'
p1312
S'on'
p1313
S'IN'
p1314
S'B-PP'
p1315
g5
tp1316
a(S'lipids'
p1317
S'lipid'
p1318
S'NNS'
p1319
S'B-NP'
p1320
g5
tp1321
a(S'and'
p1322
S'and'
p1323
S'CC'
p1324
g5
g5
tp1325
a(S'atherosclerotic'
p1326
S'atherosclerotic'
p1327
S'JJ'
p1328
S'B-NP'
p1329
g5
tp1330
a(S'plaque'
p1331
S'plaque'
p1332
S'NN'
p1333
S'I-NP'
p1334
g5
tp1335
a(g73
g73
g73
g5
g5
tp1336
a.