(lp0
(S'Prophylactic'
p1
S'Prophylactic'
p2
S'JJ'
p3
S'B-NP'
p4
S'O'
p5
tp6
a(S'cranial'
p7
S'cranial'
p8
S'JJ'
p9
S'I-NP'
p10
g5
tp11
a(S'irradiation'
p12
S'irradiation'
p13
S'NN'
p14
S'I-NP'
p15
g5
tp16
a(S'for'
p17
S'for'
p18
S'IN'
p19
S'B-PP'
p20
g5
tp21
a(S'patients'
p22
S'patient'
p23
S'NNS'
p24
S'B-NP'
p25
g5
tp26
a(S'with'
p27
S'with'
p28
S'IN'
p29
S'B-PP'
p30
g5
tp31
a(S'small-cell'
p32
S'small-cell'
p33
S'JJ'
p34
S'B-NP'
p35
g5
tp36
a(S'lung'
p37
S'lung'
p38
S'NN'
p39
S'I-NP'
p40
g5
tp41
a(S'cancer'
p42
S'cancer'
p43
S'NN'
p44
S'I-NP'
p45
g5
tp46
a(S'in'
p47
S'in'
p48
S'IN'
p49
S'B-PP'
p50
g5
tp51
a(S'complete'
p52
S'complete'
p53
S'JJ'
p54
S'B-NP'
p55
g5
tp56
a(S'remission'
p57
S'remission'
p58
S'NN'
p59
S'I-NP'
p60
g5
tp61
a(S'.'
p62
g62
g62
g5
g5
tp63
a(S'BACKGROUND'
p64
S'BACKGROUND'
p65
S'NN'
p66
S'B-NP'
p67
g5
tp68
a(S'Prophylactic'
p69
S'Prophylactic'
p70
S'JJ'
p71
S'I-NP'
p72
g5
tp73
a(S'cranial'
p74
S'cranial'
p75
S'JJ'
p76
S'I-NP'
p77
g5
tp78
a(S'irradiation'
p79
S'irradiation'
p80
S'NN'
p81
S'I-NP'
p82
g5
tp83
a(S'in'
p84
S'in'
p85
S'IN'
p86
S'B-PP'
p87
g5
tp88
a(S'patients'
p89
S'patient'
p90
S'NNS'
p91
S'B-NP'
p92
g5
tp93
a(S'with'
p94
S'with'
p95
S'IN'
p96
S'B-PP'
p97
g5
tp98
a(S'small-cell'
p99
S'small-cell'
p100
S'JJ'
p101
S'B-NP'
p102
g5
tp103
a(S'lung'
p104
S'lung'
p105
S'NN'
p106
S'I-NP'
p107
g5
tp108
a(S'cancer'
p109
S'cancer'
p110
S'NN'
p111
S'I-NP'
p112
g5
tp113
a(S'decreases'
p114
S'decrease'
p115
S'VBZ'
p116
S'B-VP'
p117
g5
tp118
a(S'the'
p119
S'the'
p120
S'DT'
p121
S'B-NP'
p122
g5
tp123
a(S'overall'
p124
S'overall'
p125
S'JJ'
p126
S'I-NP'
p127
g5
tp128
a(S'rate'
p129
S'rate'
p130
S'NN'
p131
S'I-NP'
p132
g5
tp133
a(S'of'
p134
S'of'
p135
S'IN'
p136
S'B-PP'
p137
g5
tp138
a(S'brain'
p139
S'brain'
p140
S'NN'
p141
S'B-NP'
p142
g5
tp143
a(S'metastases'
p144
S'metastasis'
p145
S'NNS'
p146
S'I-NP'
p147
g5
tp148
a(S'without'
p149
S'without'
p150
S'IN'
p151
S'B-PP'
p152
g5
tp153
a(S'an'
p154
S'an'
p155
S'DT'
p156
S'B-NP'
p157
g5
tp158
a(S'effect'
p159
S'effect'
p160
S'NN'
p161
S'I-NP'
p162
g5
tp163
a(S'on'
p164
S'on'
p165
S'IN'
p166
S'B-PP'
p167
g5
tp168
a(S'overall'
p169
S'overall'
p170
S'JJ'
p171
S'B-NP'
p172
g5
tp173
a(S'survival.'
p174
S'survival.'
p175
S'NN'
p176
S'I-NP'
p177
g5
tp178
a(S'It'
p179
S'It'
p180
S'PRP'
p181
S'B-NP'
p182
g5
tp183
a(S'has'
p184
S'have'
p185
S'VBZ'
p186
S'B-VP'
p187
g5
tp188
a(S'been'
p189
S'be'
p190
S'VBN'
p191
S'I-VP'
p192
g5
tp193
a(S'suggested'
p194
S'suggest'
p195
S'VBN'
p196
S'I-VP'
p197
g5
tp198
a(S'that'
p199
S'that'
p200
S'IN'
p201
S'B-SBAR'
p202
g5
tp203
a(S'this'
p204
S'this'
p205
S'DT'
p206
S'B-NP'
p207
g5
tp208
a(S'treatment'
p209
S'treatment'
p210
S'NN'
p211
S'I-NP'
p212
g5
tp213
a(S'may'
p214
S'may'
p215
S'MD'
p216
S'B-VP'
p217
g5
tp218
a(S'increase'
p219
S'increase'
p220
S'VB'
p221
S'I-VP'
p222
g5
tp223
a(S'neuropsychological'
p224
S'neuropsychological'
p225
S'JJ'
p226
S'B-NP'
p227
g5
tp228
a(S'syndromes'
p229
S'syndrome'
p230
S'NNS'
p231
S'I-NP'
p232
g5
tp233
a(S'and'
p234
S'and'
p235
S'CC'
p236
g5
g5
tp237
a(S'brain'
p238
S'brain'
p239
S'NN'
p240
S'B-NP'
p241
g5
tp242
a(S'abnormalities'
p243
S'abnormality'
p244
S'NNS'
p245
S'I-NP'
p246
g5
tp247
a(S'indicated'
p248
S'indicate'
p249
S'VBN'
p250
S'B-VP'
p251
g5
tp252
a(S'by'
p253
S'by'
p254
S'IN'
p255
S'B-PP'
p256
g5
tp257
a(S'computed'
p258
S'compute'
p259
S'VBN'
p260
S'B-NP'
p261
g5
tp262
a(S'tomography'
p263
S'tomography'
p264
S'NN'
p265
S'I-NP'
p266
g5
tp267
a(S'scans.'
p268
S'scans.'
p269
S'NN'
p270
S'I-NP'
p271
g5
tp272
a(S'However'
p273
S'However'
p274
S'RB'
p275
S'B-ADVP'
p276
g5
tp277
a(S','
p278
g278
g278
g5
g5
tp279
a(S'other'
p280
S'other'
p281
S'JJ'
p282
S'B-NP'
p283
g5
tp284
a(S'retrospective'
p285
S'retrospective'
p286
S'JJ'
p287
S'I-NP'
p288
g5
tp289
a(S'data'
p290
S'datum'
p291
S'NNS'
p292
S'I-NP'
p293
g5
tp294
a(S'suggested'
p295
S'suggest'
p296
S'VBD'
p297
S'B-VP'
p298
g5
tp299
a(S'a'
p300
g300
S'DT'
p301
S'B-NP'
p302
g5
tp303
a(S'beneficial'
p304
S'beneficial'
p305
S'JJ'
p306
S'I-NP'
p307
g5
tp308
a(S'effect'
p309
S'effect'
p310
S'NN'
p311
S'I-NP'
p312
g5
tp313
a(S'on'
p314
S'on'
p315
S'IN'
p316
S'B-PP'
p317
g5
tp318
a(S'overall'
p319
S'overall'
p320
S'JJ'
p321
S'B-NP'
p322
g5
tp323
a(S'survival'
p324
S'survival'
p325
S'NN'
p326
S'I-NP'
p327
g5
tp328
a(S'for'
p329
S'for'
p330
S'IN'
p331
S'B-PP'
p332
g5
tp333
a(S'patients'
p334
S'patient'
p335
S'NNS'
p336
S'B-NP'
p337
g5
tp338
a(S'in'
p339
S'in'
p340
S'IN'
p341
S'B-PP'
p342
g5
tp343
a(S'complete'
p344
S'complete'
p345
S'JJ'
p346
S'B-NP'
p347
g5
tp348
a(S'remission'
p349
S'remission'
p350
S'NN'
p351
S'I-NP'
p352
g5
tp353
a(g62
g62
g62
g5
g5
tp354
a(S'PURPOSE'
p355
S'PURPOSE'
p356
S'NN'
p357
S'B-NP'
p358
g5
tp359
a(S'Our'
p360
S'Our'
p361
S'PRP$'
p362
S'B-NP'
p363
g5
tp364
a(S'purpose'
p365
S'purpose'
p366
S'NN'
p367
S'I-NP'
p368
g5
tp369
a(S'was'
p370
S'be'
p371
S'VBD'
p372
S'B-VP'
p373
g5
tp374
a(S'to'
p375
S'to'
p376
S'TO'
p377
S'B-VP'
p378
g5
tp379
a(S'evaluate'
p380
S'evaluate'
p381
S'VB'
p382
S'I-VP'
p383
g5
tp384
a(S'the'
p385
S'the'
p386
S'DT'
p387
S'B-NP'
p388
g5
tp389
a(S'effects'
p390
S'effect'
p391
S'NNS'
p392
S'I-NP'
p393
g5
tp394
a(S'of'
p395
S'of'
p396
S'IN'
p397
S'B-PP'
p398
g5
tp399
a(S'prophylactic'
p400
S'prophylactic'
p401
S'JJ'
p402
S'B-NP'
p403
g5
tp404
a(S'cranial'
p405
S'cranial'
p406
S'JJ'
p407
S'I-NP'
p408
g5
tp409
a(S'irradiation'
p410
S'irradiation'
p411
S'NN'
p412
S'I-NP'
p413
g5
tp414
a(S'on'
p415
S'on'
p416
S'IN'
p417
S'B-PP'
p418
g5
tp419
a(S'brain'
p420
S'brain'
p421
S'NN'
p422
S'B-NP'
p423
g5
tp424
a(S'metastasis'
p425
S'metastasis'
p426
S'NN'
p427
S'I-NP'
p428
g5
tp429
a(g278
g278
g278
g5
g5
tp430
a(S'overall'
p431
S'overall'
p432
S'JJ'
p433
S'B-NP'
p434
g5
tp435
a(S'survival'
p436
S'survival'
p437
S'NN'
p438
S'I-NP'
p439
g5
tp440
a(g278
g278
g278
g5
g5
tp441
a(S'and'
p442
S'and'
p443
S'CC'
p444
g5
g5
tp445
a(S'late-occurring'
p446
S'late-occurring'
p447
S'JJ'
p448
S'B-NP'
p449
g5
tp450
a(S'toxic'
p451
S'toxic'
p452
S'JJ'
p453
S'I-NP'
p454
g5
tp455
a(S'effects'
p456
S'effect'
p457
S'NNS'
p458
S'I-NP'
p459
g5
tp460
a(S'in'
p461
S'in'
p462
S'IN'
p463
S'B-PP'
p464
g5
tp465
a(S'patients'
p466
S'patient'
p467
S'NNS'
p468
S'B-NP'
p469
g5
tp470
a(S'with'
p471
S'with'
p472
S'IN'
p473
S'B-PP'
p474
g5
tp475
a(S'small-cell'
p476
S'small-cell'
p477
S'JJ'
p478
S'B-NP'
p479
g5
tp480
a(S'lung'
p481
S'lung'
p482
S'NN'
p483
S'I-NP'
p484
g5
tp485
a(S'cancer'
p486
S'cancer'
p487
S'NN'
p488
S'I-NP'
p489
g5
tp490
a(S'in'
p491
S'in'
p492
S'IN'
p493
S'B-PP'
p494
g5
tp495
a(S'complete'
p496
S'complete'
p497
S'JJ'
p498
S'B-NP'
p499
g5
tp500
a(S'remission'
p501
S'remission'
p502
S'NN'
p503
S'I-NP'
p504
g5
tp505
a(g62
g62
g62
g5
g5
tp506
a(S'METHODS'
p507
S'METHODS'
p508
S'NNS'
p509
S'B-NP'
p510
g5
tp511
a(S'We'
p512
S'We'
p513
S'PRP'
p514
S'B-NP'
p515
g5
tp516
a(S'conducted'
p517
S'conduct'
p518
S'VBD'
p519
S'B-VP'
p520
g5
tp521
a(g300
g300
S'DT'
p522
S'B-NP'
p523
g5
tp524
a(S'prospective'
p525
S'prospective'
p526
S'JJ'
p527
S'I-NP'
p528
g5
tp529
a(S'study'
p530
S'study'
p531
S'NN'
p532
S'I-NP'
p533
g5
tp534
a(S'of'
p535
S'of'
p536
S'IN'
p537
S'B-PP'
p538
g5
tp539
a(S'300'
p540
S'300'
p541
S'CD'
p542
S'B-NP'
p543
g5
tp544
a(S'patients'
p545
S'patient'
p546
S'NNS'
p547
S'I-NP'
p548
g5
tp549
a(S'who'
p550
S'who'
p551
S'WP'
p552
S'B-NP'
p553
g5
tp554
a(S'had'
p555
S'have'
p556
S'VBD'
p557
S'B-VP'
p558
g5
tp559
a(S'small-cell'
p560
S'small-cell'
p561
S'JJ'
p562
S'B-NP'
p563
g5
tp564
a(S'lung'
p565
S'lung'
p566
S'NN'
p567
S'I-NP'
p568
g5
tp569
a(S'cancer'
p570
S'cancer'
p571
S'NN'
p572
S'I-NP'
p573
g5
tp574
a(S'that'
p575
S'that'
p576
S'WDT'
p577
S'B-NP'
p578
g5
tp579
a(S'was'
p580
S'be'
p581
S'VBD'
p582
S'B-VP'
p583
g5
tp584
a(S'in'
p585
S'in'
p586
S'IN'
p587
S'B-PP'
p588
g5
tp589
a(S'complete'
p590
S'complete'
p591
S'JJ'
p592
S'B-NP'
p593
g5
tp594
a(S'remission.'
p595
S'remission.'
p596
S'NN'
p597
S'I-NP'
p598
g5
tp599
a(S'The'
p600
S'The'
p601
S'DT'
p602
S'B-NP'
p603
g5
tp604
a(S'patients'
p605
S'patient'
p606
S'NNS'
p607
S'I-NP'
p608
g5
tp609
a(S'were'
p610
S'be'
p611
S'VBD'
p612
S'B-VP'
p613
g5
tp614
a(S'randomly'
p615
S'randomly'
p616
S'RB'
p617
S'I-VP'
p618
g5
tp619
a(S'assigned'
p620
S'assign'
p621
S'VBN'
p622
S'I-VP'
p623
g5
tp624
a(S'to'
p625
S'to'
p626
S'TO'
p627
S'I-VP'
p628
g5
tp629
a(S'receive'
p630
S'receive'
p631
S'VB'
p632
S'I-VP'
p633
g5
tp634
a(S'either'
p635
S'either'
p636
S'CC'
p637
g5
g5
tp638
a(S'prophylactic'
p639
S'prophylactic'
p640
S'JJ'
p641
S'B-NP'
p642
g5
tp643
a(S'cranial'
p644
S'cranial'
p645
S'JJ'
p646
S'I-NP'
p647
g5
tp648
a(S'irradiation'
p649
S'irradiation'
p650
S'NN'
p651
S'I-NP'
p652
g5
tp653
a(S'delivering'
p654
S'deliver'
p655
S'VBG'
p656
S'B-VP'
p657
g5
tp658
a(S'24'
p659
S'24'
p660
S'CD'
p661
S'B-NP'
p662
g5
tp663
a(S'Gy'
p664
S'Gy'
p665
S'NN'
p666
S'I-NP'
p667
g5
tp668
a(S'in'
p669
S'in'
p670
S'IN'
p671
S'B-PP'
p672
g5
tp673
a(S'eight'
p674
S'eight'
p675
S'CD'
p676
S'B-NP'
p677
g5
tp678
a(S'fractions'
p679
S'fraction'
p680
S'NNS'
p681
S'I-NP'
p682
g5
tp683
a(S'during'
p684
S'during'
p685
S'IN'
p686
S'B-PP'
p687
g5
tp688
a(S'12'
p689
S'12'
p690
S'CD'
p691
S'B-NP'
p692
g5
tp693
a(S'days'
p694
S'day'
p695
S'NNS'
p696
S'I-NP'
p697
g5
tp698
a(S'('
p699
g699
g699
g5
g5
tp700
a(S'treatment'
p701
S'treatment'
p702
S'NN'
p703
S'B-NP'
p704
g5
tp705
a(S'group'
p706
S'group'
p707
S'NN'
p708
S'I-NP'
p709
g5
tp710
a(S')'
p711
g711
g711
g5
g5
tp712
a(S'or'
p713
S'or'
p714
S'CC'
p715
g5
g5
tp716
a(S'no'
p717
S'no'
p718
S'DT'
p719
S'B-NP'
p720
g5
tp721
a(S'prophylactic'
p722
S'prophylactic'
p723
S'JJ'
p724
S'I-NP'
p725
g5
tp726
a(S'cranial'
p727
S'cranial'
p728
S'JJ'
p729
S'I-NP'
p730
g5
tp731
a(S'irradiation'
p732
S'irradiation'
p733
S'NN'
p734
S'I-NP'
p735
g5
tp736
a(g699
g699
g699
g5
g5
tp737
a(S'control'
p738
S'control'
p739
S'NN'
p740
S'B-NP'
p741
g5
tp742
a(S'group'
p743
S'group'
p744
S'NN'
p745
S'I-NP'
p746
g5
tp747
a(g711
g711
g711
g5
g5
tp748
a(g62
g62
g62
g5
g5
tp749
a(S'A'
p750
g750
S'DT'
p751
S'B-NP'
p752
g5
tp753
a(S'neuropsychological'
p754
S'neuropsychological'
p755
S'JJ'
p756
S'I-NP'
p757
g5
tp758
a(S'examination'
p759
S'examination'
p760
S'NN'
p761
S'I-NP'
p762
g5
tp763
a(S'and'
p764
S'and'
p765
S'CC'
p766
g5
g5
tp767
a(g300
g300
S'DT'
p768
S'B-NP'
p769
g5
tp770
a(S'computed'
p771
S'compute'
p772
S'VBN'
p773
S'I-NP'
p774
g5
tp775
a(S'tomography'
p776
S'tomography'
p777
S'NN'
p778
S'I-NP'
p779
g5
tp780
a(S'scan'
p781
S'scan'
p782
S'NN'
p783
S'I-NP'
p784
g5
tp785
a(S'of'
p786
S'of'
p787
S'IN'
p788
S'B-PP'
p789
g5
tp790
a(S'the'
p791
S'the'
p792
S'DT'
p793
S'B-NP'
p794
g5
tp795
a(S'brain'
p796
S'brain'
p797
S'NN'
p798
S'I-NP'
p799
g5
tp800
a(S'were'
p801
S'be'
p802
S'VBD'
p803
S'B-VP'
p804
g5
tp805
a(S'performed'
p806
S'perform'
p807
S'VBN'
p808
S'I-VP'
p809
g5
tp810
a(S'at'
p811
S'at'
p812
S'IN'
p813
S'B-PP'
p814
g5
tp815
a(S'the'
p816
S'the'
p817
S'DT'
p818
S'B-NP'
p819
g5
tp820
a(S'time'
p821
S'time'
p822
S'NN'
p823
S'I-NP'
p824
g5
tp825
a(S'of'
p826
S'of'
p827
S'IN'
p828
S'B-PP'
p829
g5
tp830
a(S'random'
p831
S'random'
p832
S'JJ'
p833
S'B-NP'
p834
g5
tp835
a(S'assignment'
p836
S'assignment'
p837
S'NN'
p838
S'I-NP'
p839
g5
tp840
a(S'and'
p841
S'and'
p842
S'CC'
p843
g5
g5
tp844
a(S'repeatedly'
p845
S'repeatedly'
p846
S'RB'
p847
S'B-VP'
p848
g5
tp849
a(S'assessed'
p850
S'assess'
p851
S'VBN'
p852
S'I-VP'
p853
g5
tp854
a(S'at'
p855
S'at'
p856
S'IN'
p857
S'B-PP'
p858
g5
tp859
a(S'6'
p860
g860
S'CD'
p861
S'B-NP'
p862
g5
tp863
a(g278
g278
g278
S'I-NP'
p864
g5
tp865
a(S'18'
p866
S'18'
p867
S'CD'
p868
S'I-NP'
p869
g5
tp870
a(g278
g278
g278
S'I-NP'
p871
g5
tp872
a(S'30'
p873
S'30'
p874
S'CD'
p875
S'I-NP'
p876
g5
tp877
a(g278
g278
g278
g5
g5
tp878
a(S'and'
p879
S'and'
p880
S'CC'
p881
g5
g5
tp882
a(S'48'
p883
S'48'
p884
S'CD'
p885
S'B-NP'
p886
g5
tp887
a(S'months.'
p888
S'months.'
p889
S'NN'
p890
S'I-NP'
p891
g5
tp892
a(S'Patterns'
p893
S'Pattern'
p894
S'NNS'
p895
S'I-NP'
p896
g5
tp897
a(S'of'
p898
S'of'
p899
S'IN'
p900
S'B-PP'
p901
g5
tp902
a(S'failure'
p903
S'failure'
p904
S'NN'
p905
S'B-NP'
p906
g5
tp907
a(S'were'
p908
S'be'
p909
S'VBD'
p910
S'B-VP'
p911
g5
tp912
a(S'analyzed'
p913
S'analyze'
p914
S'VBN'
p915
S'I-VP'
p916
g5
tp917
a(S'according'
p918
S'accord'
p919
S'VBG'
p920
S'B-PP'
p921
g5
tp922
a(S'to'
p923
S'to'
p924
S'TO'
p925
S'B-PP'
p926
g5
tp927
a(S'total'
p928
S'total'
p929
S'JJ'
p930
S'B-NP'
p931
g5
tp932
a(S'event'
p933
S'event'
p934
S'NN'
p935
S'I-NP'
p936
g5
tp937
a(S'rates'
p938
S'rate'
p939
S'NNS'
p940
S'I-NP'
p941
g5
tp942
a(S'and'
p943
S'and'
p944
S'CC'
p945
g5
g5
tp946
a(S'also'
p947
S'also'
p948
S'RB'
p949
S'B-ADVP'
p950
g5
tp951
a(S'according'
p952
S'accord'
p953
S'VBG'
p954
S'B-PP'
p955
g5
tp956
a(S'to'
p957
S'to'
p958
S'TO'
p959
S'B-PP'
p960
g5
tp961
a(S'an'
p962
S'an'
p963
S'DT'
p964
S'B-NP'
p965
g5
tp966
a(S'isolated'
p967
S'isolate'
p968
S'VBN'
p969
S'I-NP'
p970
g5
tp971
a(S'first'
p972
S'first'
p973
S'JJ'
p974
S'I-NP'
p975
g5
tp976
a(S'site'
p977
S'site'
p978
S'NN'
p979
S'I-NP'
p980
g5
tp981
a(S'of'
p982
S'of'
p983
S'IN'
p984
S'B-PP'
p985
g5
tp986
a(S'relapse'
p987
S'relapse'
p988
S'NN'
p989
S'B-NP'
p990
g5
tp991
a(g278
g278
g278
g5
g5
tp992
a(S'using'
p993
S'use'
p994
S'VBG'
p995
S'B-VP'
p996
g5
tp997
a(g300
g300
S'DT'
p998
S'B-NP'
p999
g5
tp1000
a(S'competing-risk'
p1001
S'competing-risk'
p1002
S'JJ'
p1003
S'I-NP'
p1004
g5
tp1005
a(S'approach'
p1006
S'approach'
p1007
S'NN'
p1008
S'I-NP'
p1009
g5
tp1010
a(g62
g62
g62
g5
g5
tp1011
a(S'RESULTS'
p1012
S'RESULTS'
p1013
S'NNS'
p1014
S'B-NP'
p1015
g5
tp1016
a(S'Two'
p1017
S'Two'
p1018
S'CD'
p1019
S'B-NP'
p1020
g5
tp1021
a(S'hundred'
p1022
S'hundred'
p1023
S'CD'
p1024
S'I-NP'
p1025
g5
tp1026
a(S'ninety-four'
p1027
S'ninety-four'
p1028
S'CD'
p1029
S'I-NP'
p1030
g5
tp1031
a(S'patients'
p1032
S'patient'
p1033
S'NNS'
p1034
S'I-NP'
p1035
g5
tp1036
a(S'who'
p1037
S'who'
p1038
S'WP'
p1039
S'B-NP'
p1040
g5
tp1041
a(S'did'
p1042
S'do'
p1043
S'VBD'
p1044
S'B-VP'
p1045
g5
tp1046
a(S'not'
p1047
S'not'
p1048
S'RB'
p1049
S'I-VP'
p1050
g5
tp1051
a(S'have'
p1052
S'have'
p1053
S'VB'
p1054
S'I-VP'
p1055
g5
tp1056
a(S'brain'
p1057
S'brain'
p1058
S'NN'
p1059
S'B-NP'
p1060
S'B-protein'
p1061
tp1062
a(S'metastases'
p1063
S'metastasis'
p1064
S'NNS'
p1065
S'I-NP'
p1066
S'I-protein'
p1067
tp1068
a(S'at'
p1069
S'at'
p1070
S'IN'
p1071
S'B-PP'
p1072
g5
tp1073
a(S'the'
p1074
S'the'
p1075
S'DT'
p1076
S'B-NP'
p1077
g5
tp1078
a(S'time'
p1079
S'time'
p1080
S'NN'
p1081
S'I-NP'
p1082
g5
tp1083
a(S'of'
p1084
S'of'
p1085
S'IN'
p1086
S'B-PP'
p1087
g5
tp1088
a(S'random'
p1089
S'random'
p1090
S'JJ'
p1091
S'B-NP'
p1092
g5
tp1093
a(S'assignment'
p1094
S'assignment'
p1095
S'NN'
p1096
S'I-NP'
p1097
g5
tp1098
a(S'were'
p1099
S'be'
p1100
S'VBD'
p1101
S'B-VP'
p1102
g5
tp1103
a(S'analyzed.'
p1104
S'analyzed.'
p1105
S'VBN'
p1106
S'I-VP'
p1107
g5
tp1108
a(S'The'
p1109
S'The'
p1110
S'DT'
p1111
S'B-NP'
p1112
g5
tp1113
a(S'2-year'
p1114
S'2-year'
p1115
S'JJ'
p1116
S'I-NP'
p1117
g5
tp1118
a(S'cumulative'
p1119
S'cumulative'
p1120
S'JJ'
p1121
S'I-NP'
p1122
g5
tp1123
a(S'rate'
p1124
S'rate'
p1125
S'NN'
p1126
S'I-NP'
p1127
g5
tp1128
a(S'of'
p1129
S'of'
p1130
S'IN'
p1131
S'B-PP'
p1132
g5
tp1133
a(S'brain'
p1134
S'brain'
p1135
S'NN'
p1136
S'B-NP'
p1137
g5
tp1138
a(S'metastasis'
p1139
S'metastasis'
p1140
S'NN'
p1141
S'I-NP'
p1142
g5
tp1143
a(S'as'
p1144
S'as'
p1145
S'IN'
p1146
S'B-PP'
p1147
g5
tp1148
a(S'an'
p1149
S'an'
p1150
S'DT'
p1151
S'B-NP'
p1152
g5
tp1153
a(S'isolated'
p1154
S'isolate'
p1155
S'VBN'
p1156
S'I-NP'
p1157
g5
tp1158
a(S'first'
p1159
S'first'
p1160
S'JJ'
p1161
S'I-NP'
p1162
g5
tp1163
a(S'site'
p1164
S'site'
p1165
S'NN'
p1166
S'I-NP'
p1167
g5
tp1168
a(S'of'
p1169
S'of'
p1170
S'IN'
p1171
S'B-PP'
p1172
g5
tp1173
a(S'relapse'
p1174
S'relapse'
p1175
S'NN'
p1176
S'B-NP'
p1177
g5
tp1178
a(S'was'
p1179
S'be'
p1180
S'VBD'
p1181
S'B-VP'
p1182
g5
tp1183
a(S'45'
p1184
S'45'
p1185
S'CD'
p1186
S'B-NP'
p1187
g5
tp1188
a(S'%'
p1189
g1189
S'NN'
p1190
S'I-NP'
p1191
g5
tp1192
a(S'in'
p1193
S'in'
p1194
S'IN'
p1195
S'B-PP'
p1196
g5
tp1197
a(S'the'
p1198
S'the'
p1199
S'DT'
p1200
S'B-NP'
p1201
g5
tp1202
a(S'control'
p1203
S'control'
p1204
S'NN'
p1205
S'I-NP'
p1206
g5
tp1207
a(S'group'
p1208
S'group'
p1209
S'NN'
p1210
S'I-NP'
p1211
g5
tp1212
a(S'and'
p1213
S'and'
p1214
S'CC'
p1215
g5
g5
tp1216
a(S'19'
p1217
S'19'
p1218
S'CD'
p1219
S'B-NP'
p1220
g5
tp1221
a(g1189
g1189
S'NN'
p1222
S'I-NP'
p1223
g5
tp1224
a(S'in'
p1225
S'in'
p1226
S'IN'
p1227
S'B-PP'
p1228
g5
tp1229
a(S'the'
p1230
S'the'
p1231
S'DT'
p1232
S'B-NP'
p1233
g5
tp1234
a(S'treatment'
p1235
S'treatment'
p1236
S'NN'
p1237
S'I-NP'
p1238
g5
tp1239
a(S'group'
p1240
S'group'
p1241
S'NN'
p1242
S'I-NP'
p1243
g5
tp1244
a(g699
g699
g699
g5
g5
tp1245
a(S'P'
p1246
g1246
S'NN'
p1247
S'B-NP'
p1248
g5
tp1249
a(S'<'
p1250
g1250
S'SYM'
p1251
g5
g5
tp1252
a(S'10'
p1253
S'10'
p1254
S'CD'
p1255
S'B-NP'
p1256
g5
tp1257
a(g699
g699
g699
g5
g5
tp1258
a(S'-6'
p1259
S'-6'
p1260
S'CD'
p1261
S'B-NP'
p1262
g5
tp1263
a(g711
g711
g711
g5
g5
tp1264
a(g711
g711
g711
g5
g5
tp1265
a(g62
g62
g62
g5
g5
tp1266
a(S'The'
p1267
S'The'
p1268
S'DT'
p1269
S'B-NP'
p1270
g5
tp1271
a(S'total'
p1272
S'total'
p1273
S'JJ'
p1274
S'I-NP'
p1275
g5
tp1276
a(S'2-year'
p1277
S'2-year'
p1278
S'JJ'
p1279
S'I-NP'
p1280
g5
tp1281
a(S'rate'
p1282
S'rate'
p1283
S'NN'
p1284
S'I-NP'
p1285
g5
tp1286
a(S'of'
p1287
S'of'
p1288
S'IN'
p1289
S'B-PP'
p1290
g5
tp1291
a(S'brain'
p1292
S'brain'
p1293
S'NN'
p1294
S'B-NP'
p1295
g5
tp1296
a(S'metastasis'
p1297
S'metastasis'
p1298
S'NN'
p1299
S'I-NP'
p1300
g5
tp1301
a(S'was'
p1302
S'be'
p1303
S'VBD'
p1304
S'B-VP'
p1305
g5
tp1306
a(S'67'
p1307
S'67'
p1308
S'CD'
p1309
S'B-NP'
p1310
g5
tp1311
a(g1189
g1189
S'NN'
p1312
S'I-NP'
p1313
g5
tp1314
a(S'and'
p1315
S'and'
p1316
S'CC'
p1317
S'I-NP'
p1318
g5
tp1319
a(S'40'
p1320
S'40'
p1321
S'CD'
p1322
S'I-NP'
p1323
g5
tp1324
a(g1189
g1189
S'NN'
p1325
S'I-NP'
p1326
g5
tp1327
a(g278
g278
g278
g5
g5
tp1328
a(S'respectively'
p1329
S'respectively'
p1330
S'RB'
p1331
S'B-ADVP'
p1332
g5
tp1333
a(g699
g699
g699
g5
g5
tp1334
a(S'relative'
p1335
S'relative'
p1336
S'JJ'
p1337
S'B-NP'
p1338
g5
tp1339
a(S'risk'
p1340
S'risk'
p1341
S'NN'
p1342
S'I-NP'
p1343
g5
tp1344
a(S'='
p1345
g1345
S'SYM'
p1346
S'B-VP'
p1347
g5
tp1348
a(S'0.35'
p1349
S'0.35'
p1350
S'CD'
p1351
S'B-NP'
p1352
g5
tp1353
a(S';'
p1354
g1354
S':'
p1355
g5
g5
tp1356
a(g1246
g1246
S'NN'
p1357
S'B-NP'
p1358
g5
tp1359
a(g1250
g1250
S'SYM'
p1360
S'B-NP'
p1361
g5
tp1362
a(S'10'
p1363
S'10'
p1364
S'CD'
p1365
S'B-NP'
p1366
g5
tp1367
a(g699
g699
g699
g5
g5
tp1368
a(S'-13'
p1369
S'-13'
p1370
S'CD'
p1371
S'B-NP'
p1372
g5
tp1373
a(g711
g711
g711
g5
g5
tp1374
a(g711
g711
g711
g5
g5
tp1375
a(g62
g62
g62
g5
g5
tp1376
a(S'The'
p1377
S'The'
p1378
S'DT'
p1379
S'B-NP'
p1380
g5
tp1381
a(S'2-year'
p1382
S'2-year'
p1383
S'JJ'
p1384
S'I-NP'
p1385
g5
tp1386
a(S'overall'
p1387
S'overall'
p1388
S'JJ'
p1389
S'I-NP'
p1390
g5
tp1391
a(S'survival'
p1392
S'survival'
p1393
S'NN'
p1394
S'I-NP'
p1395
g5
tp1396
a(S'rate'
p1397
S'rate'
p1398
S'NN'
p1399
S'I-NP'
p1400
g5
tp1401
a(S'was'
p1402
S'be'
p1403
S'VBD'
p1404
S'B-VP'
p1405
g5
tp1406
a(S'21.5'
p1407
S'21.5'
p1408
S'CD'
p1409
S'B-NP'
p1410
g5
tp1411
a(g1189
g1189
S'NN'
p1412
S'I-NP'
p1413
g5
tp1414
a(S'in'
p1415
S'in'
p1416
S'IN'
p1417
S'B-PP'
p1418
g5
tp1419
a(S'the'
p1420
S'the'
p1421
S'DT'
p1422
S'B-NP'
p1423
g5
tp1424
a(S'control'
p1425
S'control'
p1426
S'NN'
p1427
S'I-NP'
p1428
g5
tp1429
a(S'group'
p1430
S'group'
p1431
S'NN'
p1432
S'I-NP'
p1433
g5
tp1434
a(S'and'
p1435
S'and'
p1436
S'CC'
p1437
g5
g5
tp1438
a(S'29'
p1439
S'29'
p1440
S'CD'
p1441
S'B-NP'
p1442
g5
tp1443
a(g1189
g1189
S'NN'
p1444
S'I-NP'
p1445
g5
tp1446
a(S'in'
p1447
S'in'
p1448
S'IN'
p1449
S'B-PP'
p1450
g5
tp1451
a(S'the'
p1452
S'the'
p1453
S'DT'
p1454
S'B-NP'
p1455
g5
tp1456
a(S'treatment'
p1457
S'treatment'
p1458
S'NN'
p1459
S'I-NP'
p1460
g5
tp1461
a(S'group'
p1462
S'group'
p1463
S'NN'
p1464
S'I-NP'
p1465
g5
tp1466
a(g699
g699
g699
g5
g5
tp1467
a(S'relative'
p1468
S'relative'
p1469
S'JJ'
p1470
S'B-NP'
p1471
g5
tp1472
a(S'risk'
p1473
S'risk'
p1474
S'NN'
p1475
S'I-NP'
p1476
g5
tp1477
a(g1345
g1345
S'SYM'
p1478
S'B-VP'
p1479
g5
tp1480
a(S'0.83'
p1481
S'0.83'
p1482
S'CD'
p1483
S'B-NP'
p1484
g5
tp1485
a(g1354
g1354
g1355
g5
g5
tp1486
a(g1246
g1246
S'NN'
p1487
S'B-NP'
p1488
g5
tp1489
a(g1345
g1345
S'SYM'
p1490
S'B-VP'
p1491
g5
tp1492
a(S'.14'
p1493
S'.14'
p1494
S'CD'
p1495
S'B-NP'
p1496
g5
tp1497
a(g711
g711
g711
g5
g5
tp1498
a(g62
g62
g62
g5
g5
tp1499
a(S'There'
p1500
S'There'
p1501
S'EX'
p1502
S'B-NP'
p1503
g5
tp1504
a(S'were'
p1505
S'be'
p1506
S'VBD'
p1507
S'B-VP'
p1508
g5
tp1509
a(S'no'
p1510
S'no'
p1511
S'DT'
p1512
S'B-NP'
p1513
g5
tp1514
a(S'significant'
p1515
S'significant'
p1516
S'JJ'
p1517
S'I-NP'
p1518
g5
tp1519
a(S'differences'
p1520
S'difference'
p1521
S'NNS'
p1522
S'I-NP'
p1523
g5
tp1524
a(S'between'
p1525
S'between'
p1526
S'IN'
p1527
S'B-PP'
p1528
g5
tp1529
a(S'the'
p1530
S'the'
p1531
S'DT'
p1532
S'B-NP'
p1533
g5
tp1534
a(S'two'
p1535
S'two'
p1536
S'CD'
p1537
S'I-NP'
p1538
g5
tp1539
a(S'groups'
p1540
S'group'
p1541
S'NNS'
p1542
S'I-NP'
p1543
g5
tp1544
a(S'in'
p1545
S'in'
p1546
S'IN'
p1547
S'B-PP'
p1548
g5
tp1549
a(S'terms'
p1550
S'term'
p1551
S'NNS'
p1552
S'B-NP'
p1553
g5
tp1554
a(S'of'
p1555
S'of'
p1556
S'IN'
p1557
S'B-PP'
p1558
g5
tp1559
a(S'neuropsychological'
p1560
S'neuropsychological'
p1561
S'JJ'
p1562
S'B-NP'
p1563
g5
tp1564
a(S'function'
p1565
S'function'
p1566
S'NN'
p1567
S'I-NP'
p1568
g5
tp1569
a(S'or'
p1570
S'or'
p1571
S'CC'
p1572
S'I-NP'
p1573
g5
tp1574
a(S'abnormalities'
p1575
S'abnormality'
p1576
S'NNS'
p1577
S'I-NP'
p1578
g5
tp1579
a(S'indicated'
p1580
S'indicate'
p1581
S'VBN'
p1582
S'B-VP'
p1583
g5
tp1584
a(S'by'
p1585
S'by'
p1586
S'IN'
p1587
S'B-PP'
p1588
g5
tp1589
a(S'computed'
p1590
S'compute'
p1591
S'VBN'
p1592
S'B-NP'
p1593
g5
tp1594
a(S'tomography'
p1595
S'tomography'
p1596
S'NN'
p1597
S'I-NP'
p1598
g5
tp1599
a(S'brain'
p1600
S'brain'
p1601
S'NN'
p1602
S'I-NP'
p1603
g5
tp1604
a(S'scans'
p1605
S'scan'
p1606
S'NNS'
p1607
S'I-NP'
p1608
g5
tp1609
a(g62
g62
g62
g5
g5
tp1610
a(S'CONCLUSIONS'
p1611
S'CONCLUSIONS'
p1612
S'NNS'
p1613
S'B-NP'
p1614
g5
tp1615
a(S'Prophylactic'
p1616
S'Prophylactic'
p1617
S'JJ'
p1618
S'I-NP'
p1619
g5
tp1620
a(S'cranial'
p1621
S'cranial'
p1622
S'JJ'
p1623
S'I-NP'
p1624
g5
tp1625
a(S'irradiation'
p1626
S'irradiation'
p1627
S'NN'
p1628
S'I-NP'
p1629
g5
tp1630
a(S'given'
p1631
S'give'
p1632
S'VBN'
p1633
S'B-VP'
p1634
g5
tp1635
a(S'to'
p1636
S'to'
p1637
S'TO'
p1638
S'B-PP'
p1639
g5
tp1640
a(S'patients'
p1641
S'patient'
p1642
S'NNS'
p1643
S'B-NP'
p1644
g5
tp1645
a(S'with'
p1646
S'with'
p1647
S'IN'
p1648
S'B-PP'
p1649
g5
tp1650
a(S'small-cell'
p1651
S'small-cell'
p1652
S'JJ'
p1653
S'B-NP'
p1654
g5
tp1655
a(S'lung'
p1656
S'lung'
p1657
S'NN'
p1658
S'I-NP'
p1659
g5
tp1660
a(S'cancer'
p1661
S'cancer'
p1662
S'NN'
p1663
S'I-NP'
p1664
g5
tp1665
a(S'in'
p1666
S'in'
p1667
S'IN'
p1668
S'B-PP'
p1669
g5
tp1670
a(S'complete'
p1671
S'complete'
p1672
S'JJ'
p1673
S'B-NP'
p1674
g5
tp1675
a(S'remission'
p1676
S'remission'
p1677
S'NN'
p1678
S'I-NP'
p1679
g5
tp1680
a(S'decreases'
p1681
S'decrease'
p1682
S'VBZ'
p1683
S'B-VP'
p1684
g5
tp1685
a(S'the'
p1686
S'the'
p1687
S'DT'
p1688
S'B-NP'
p1689
g5
tp1690
a(S'risk'
p1691
S'risk'
p1692
S'NN'
p1693
S'I-NP'
p1694
g5
tp1695
a(S'of'
p1696
S'of'
p1697
S'IN'
p1698
S'B-PP'
p1699
g5
tp1700
a(S'brain'
p1701
S'brain'
p1702
S'NN'
p1703
S'B-NP'
p1704
g5
tp1705
a(S'metastasis'
p1706
S'metastasis'
p1707
S'NN'
p1708
S'I-NP'
p1709
g5
tp1710
a(S'threefold'
p1711
S'threefold'
p1712
S'RB'
p1713
S'B-ADVP'
p1714
g5
tp1715
a(S'without'
p1716
S'without'
p1717
S'IN'
p1718
S'B-PP'
p1719
g5
tp1720
a(g300
g300
S'DT'
p1721
S'B-NP'
p1722
g5
tp1723
a(S'significant'
p1724
S'significant'
p1725
S'JJ'
p1726
S'I-NP'
p1727
g5
tp1728
a(S'increase'
p1729
S'increase'
p1730
S'NN'
p1731
S'I-NP'
p1732
g5
tp1733
a(S'in'
p1734
S'in'
p1735
S'IN'
p1736
S'B-PP'
p1737
g5
tp1738
a(S'complications.'
p1739
S'complications.'
p1740
S'NN'
p1741
S'B-NP'
p1742
g5
tp1743
a(g750
g750
S'NN'
p1744
S'I-NP'
p1745
g5
tp1746
a(S'possible'
p1747
S'possible'
p1748
S'JJ'
p1749
S'I-NP'
p1750
g5
tp1751
a(S'beneficial'
p1752
S'beneficial'
p1753
S'JJ'
p1754
S'I-NP'
p1755
g5
tp1756
a(S'effect'
p1757
S'effect'
p1758
S'NN'
p1759
S'I-NP'
p1760
g5
tp1761
a(S'on'
p1762
S'on'
p1763
S'IN'
p1764
S'B-PP'
p1765
g5
tp1766
a(S'overall'
p1767
S'overall'
p1768
S'JJ'
p1769
S'B-NP'
p1770
g5
tp1771
a(S'survival'
p1772
S'survival'
p1773
S'NN'
p1774
S'I-NP'
p1775
g5
tp1776
a(S'should'
p1777
S'should'
p1778
S'MD'
p1779
S'B-VP'
p1780
g5
tp1781
a(S'be'
p1782
S'be'
p1783
S'VB'
p1784
S'I-VP'
p1785
g5
tp1786
a(S'tested'
p1787
S'test'
p1788
S'VBN'
p1789
S'I-VP'
p1790
g5
tp1791
a(S'with'
p1792
S'with'
p1793
S'IN'
p1794
S'B-PP'
p1795
g5
tp1796
a(g300
g300
S'DT'
p1797
S'B-NP'
p1798
g5
tp1799
a(S'higher'
p1800
S'high'
p1801
S'JJR'
p1802
S'I-NP'
p1803
g5
tp1804
a(S'statistical'
p1805
S'statistical'
p1806
S'JJ'
p1807
S'I-NP'
p1808
g5
tp1809
a(S'power'
p1810
S'power'
p1811
S'NN'
p1812
S'I-NP'
p1813
g5
tp1814
a(g62
g62
g62
g5
g5
tp1815
a(S'IMPLICATIONS'
p1816
S'IMPLICATIONS'
p1817
S'NNS'
p1818
S'B-NP'
p1819
g5
tp1820
a(S'The'
p1821
S'The'
p1822
S'DT'
p1823
S'B-NP'
p1824
g5
tp1825
a(S'results'
p1826
S'result'
p1827
S'NNS'
p1828
S'I-NP'
p1829
g5
tp1830
a(S'of'
p1831
S'of'
p1832
S'IN'
p1833
S'B-PP'
p1834
g5
tp1835
a(S'the'
p1836
S'the'
p1837
S'DT'
p1838
S'B-NP'
p1839
g5
tp1840
a(S'trial'
p1841
S'trial'
p1842
S'NN'
p1843
S'I-NP'
p1844
g5
tp1845
a(S'favor'
p1846
S'favor'
p1847
S'NN'
p1848
S'I-NP'
p1849
g5
tp1850
a(g278
g278
g278
g5
g5
tp1851
a(S'at'
p1852
S'at'
p1853
S'IN'
p1854
S'B-PP'
p1855
g5
tp1856
a(S'present'
p1857
S'present'
p1858
S'NN'
p1859
S'B-NP'
p1860
g5
tp1861
a(g278
g278
g278
g5
g5
tp1862
a(S'the'
p1863
S'the'
p1864
S'DT'
p1865
S'B-NP'
p1866
g5
tp1867
a(S'indication'
p1868
S'indication'
p1869
S'NN'
p1870
S'I-NP'
p1871
g5
tp1872
a(S'of'
p1873
S'of'
p1874
S'IN'
p1875
S'B-PP'
p1876
g5
tp1877
a(S'prophylactic'
p1878
S'prophylactic'
p1879
S'JJ'
p1880
S'B-NP'
p1881
g5
tp1882
a(S'cranial'
p1883
S'cranial'
p1884
S'JJ'
p1885
S'I-NP'
p1886
g5
tp1887
a(S'irradiation'
p1888
S'irradiation'
p1889
S'NN'
p1890
S'I-NP'
p1891
g5
tp1892
a(S'for'
p1893
S'for'
p1894
S'IN'
p1895
S'B-PP'
p1896
g5
tp1897
a(S'patients'
p1898
S'patient'
p1899
S'NNS'
p1900
S'B-NP'
p1901
g5
tp1902
a(S'who'
p1903
S'who'
p1904
S'WP'
p1905
S'B-NP'
p1906
g5
tp1907
a(S'are'
p1908
S'be'
p1909
S'VBP'
p1910
S'B-VP'
p1911
g5
tp1912
a(S'in'
p1913
S'in'
p1914
S'IN'
p1915
S'B-PP'
p1916
g5
tp1917
a(S'complete'
p1918
S'complete'
p1919
S'JJ'
p1920
S'B-NP'
p1921
g5
tp1922
a(S'remission.'
p1923
S'remission.'
p1924
S'NN'
p1925
S'I-NP'
p1926
g5
tp1927
a(g750
g750
S'NN'
p1928
S'I-NP'
p1929
g5
tp1930
a(S'longer'
p1931
S'longer'
p1932
S'RBR'
p1933
S'B-NP'
p1934
g5
tp1935
a(S'follow-up'
p1936
S'follow-up'
p1937
S'JJ'
p1938
S'I-NP'
p1939
g5
tp1940
a(S'and'
p1941
S'and'
p1942
S'CC'
p1943
S'I-NP'
p1944
g5
tp1945
a(S'confirmatory'
p1946
S'confirmatory'
p1947
S'JJ'
p1948
S'I-NP'
p1949
g5
tp1950
a(S'trials'
p1951
S'trial'
p1952
S'NNS'
p1953
S'I-NP'
p1954
g5
tp1955
a(S'are'
p1956
S'be'
p1957
S'VBP'
p1958
S'B-VP'
p1959
g5
tp1960
a(S'needed'
p1961
S'need'
p1962
S'VBN'
p1963
S'I-VP'
p1964
g5
tp1965
a(S'to'
p1966
S'to'
p1967
S'TO'
p1968
S'B-VP'
p1969
g5
tp1970
a(S'fully'
p1971
S'fully'
p1972
S'RB'
p1973
S'I-VP'
p1974
g5
tp1975
a(S'assess'
p1976
S'assess'
p1977
S'VB'
p1978
S'I-VP'
p1979
g5
tp1980
a(S'late-occurring'
p1981
S'late-occurring'
p1982
S'JJ'
p1983
S'B-NP'
p1984
g5
tp1985
a(S'toxic'
p1986
S'toxic'
p1987
S'JJ'
p1988
S'I-NP'
p1989
g5
tp1990
a(S'effects.'
p1991
S'effects.'
p1992
S'NN'
p1993
S'I-NP'
p1994
g5
tp1995
a(S'The'
p1996
S'The'
p1997
S'DT'
p1998
S'B-NP'
p1999
g5
tp2000
a(S'possible'
p2001
S'possible'
p2002
S'JJ'
p2003
S'I-NP'
p2004
g5
tp2005
a(S'effect'
p2006
S'effect'
p2007
S'NN'
p2008
S'I-NP'
p2009
g5
tp2010
a(S'on'
p2011
S'on'
p2012
S'IN'
p2013
S'B-PP'
p2014
g5
tp2015
a(S'overall'
p2016
S'overall'
p2017
S'JJ'
p2018
S'B-NP'
p2019
g5
tp2020
a(S'survival'
p2021
S'survival'
p2022
S'NN'
p2023
S'I-NP'
p2024
g5
tp2025
a(S'needs'
p2026
S'need'
p2027
S'VBZ'
p2028
S'B-VP'
p2029
g5
tp2030
a(S'to'
p2031
S'to'
p2032
S'TO'
p2033
S'I-VP'
p2034
g5
tp2035
a(S'be'
p2036
S'be'
p2037
S'VB'
p2038
S'I-VP'
p2039
g5
tp2040
a(S'evaluated'
p2041
S'evaluate'
p2042
S'VBN'
p2043
S'I-VP'
p2044
g5
tp2045
a(S'with'
p2046
S'with'
p2047
S'IN'
p2048
S'B-PP'
p2049
g5
tp2050
a(g300
g300
S'DT'
p2051
S'B-NP'
p2052
g5
tp2053
a(S'larger'
p2054
S'large'
p2055
S'JJR'
p2056
S'I-NP'
p2057
g5
tp2058
a(S'number'
p2059
S'number'
p2060
S'NN'
p2061
S'I-NP'
p2062
g5
tp2063
a(S'of'
p2064
S'of'
p2065
S'IN'
p2066
S'B-PP'
p2067
g5
tp2068
a(S'patients'
p2069
S'patient'
p2070
S'NNS'
p2071
S'B-NP'
p2072
g5
tp2073
a(S'in'
p2074
S'in'
p2075
S'IN'
p2076
S'B-PP'
p2077
g5
tp2078
a(S'complete'
p2079
S'complete'
p2080
S'JJ'
p2081
S'B-NP'
p2082
g5
tp2083
a(S'remission'
p2084
S'remission'
p2085
S'NN'
p2086
S'I-NP'
p2087
g5
tp2088
a(g278
g278
g278
g5
g5
tp2089
a(S'and'
p2090
S'and'
p2091
S'CC'
p2092
g5
g5
tp2093
a(g300
g300
S'DT'
p2094
S'B-NP'
p2095
g5
tp2096
a(S'meta-analysis'
p2097
S'meta-analysis'
p2098
S'NN'
p2099
S'I-NP'
p2100
g5
tp2101
a(S'of'
p2102
S'of'
p2103
S'IN'
p2104
S'B-PP'
p2105
g5
tp2106
a(S'similar'
p2107
S'similar'
p2108
S'JJ'
p2109
S'B-NP'
p2110
g5
tp2111
a(S'trials'
p2112
S'trial'
p2113
S'NNS'
p2114
S'I-NP'
p2115
g5
tp2116
a(S'is'
p2117
S'be'
p2118
S'VBZ'
p2119
S'B-VP'
p2120
g5
tp2121
a(S'recommended'
p2122
S'recommend'
p2123
S'VBN'
p2124
S'I-VP'
p2125
g5
tp2126
a(g62
g62
g62
g5
g5
tp2127
a.