(lp0
(S'Anecortave'
p1
S'Anecortave'
p2
S'VBP'
p3
S'B-VP'
p4
S'O'
p5
tp6
a(S'acetate'
p7
S'acetate'
p8
S'NN'
p9
S'B-NP'
p10
g5
tp11
a(S'treatment'
p12
S'treatment'
p13
S'NN'
p14
S'I-NP'
p15
g5
tp16
a(S'for'
p17
S'for'
p18
S'IN'
p19
S'B-PP'
p20
g5
tp21
a(S'retinal'
p22
S'retinal'
p23
S'JJ'
p24
S'B-NP'
p25
g5
tp26
a(S'angiomatous'
p27
S'angiomatous'
p28
S'JJ'
p29
S'I-NP'
p30
g5
tp31
a(S'proliferation'
p32
S'proliferation'
p33
S'NN'
p34
S'I-NP'
p35
g5
tp36
a(S':'
p37
g37
g37
g5
g5
tp38
a(S'a'
p39
g39
S'DT'
p40
S'B-NP'
p41
g5
tp42
a(S'pilot'
p43
S'pilot'
p44
S'NN'
p45
S'I-NP'
p46
g5
tp47
a(S'study'
p48
S'study'
p49
S'NN'
p50
S'I-NP'
p51
g5
tp52
a(S'.'
p53
g53
g53
g5
g5
tp54
a(S'PURPOSE'
p55
S'PURPOSE'
p56
S'NN'
p57
S'B-NP'
p58
g5
tp59
a(S'The'
p60
S'The'
p61
S'DT'
p62
S'B-NP'
p63
g5
tp64
a(S'purpose'
p65
S'purpose'
p66
S'NN'
p67
S'I-NP'
p68
g5
tp69
a(S'of'
p70
S'of'
p71
S'IN'
p72
S'B-PP'
p73
g5
tp74
a(S'this'
p75
S'this'
p76
S'DT'
p77
S'B-NP'
p78
g5
tp79
a(S'study'
p80
S'study'
p81
S'NN'
p82
S'I-NP'
p83
g5
tp84
a(S'was'
p85
S'be'
p86
S'VBD'
p87
S'B-VP'
p88
g5
tp89
a(S'to'
p90
S'to'
p91
S'TO'
p92
S'B-VP'
p93
g5
tp94
a(S'evaluate'
p95
S'evaluate'
p96
S'VB'
p97
S'I-VP'
p98
g5
tp99
a(S'anecortave'
p100
S'anecortave'
p101
S'JJ'
p102
S'B-NP'
p103
g5
tp104
a(S'acetate'
p105
S'acetate'
p106
S'NN'
p107
S'I-NP'
p108
g5
tp109
a(S'treatment'
p110
S'treatment'
p111
S'NN'
p112
S'I-NP'
p113
g5
tp114
a(S'of'
p115
S'of'
p116
S'IN'
p117
S'B-PP'
p118
g5
tp119
a(S'retinal'
p120
S'retinal'
p121
S'JJ'
p122
S'B-NP'
p123
g5
tp124
a(S'angiomatous'
p125
S'angiomatous'
p126
S'JJ'
p127
S'I-NP'
p128
g5
tp129
a(S'proliferation'
p130
S'proliferation'
p131
S'NN'
p132
S'I-NP'
p133
g5
tp134
a(S'('
p135
g135
g135
g5
g5
tp136
a(S'RAP'
p137
S'RAP'
p138
S'NN'
p139
S'B-NP'
p140
S'B-protein'
p141
tp142
a(S')'
p143
g143
g143
g5
g5
tp144
a(S','
p145
g145
g145
g5
g5
tp146
a(g39
g39
S'DT'
p147
S'B-NP'
p148
g5
tp149
a(S'neovascular'
p150
S'neovascular'
p151
S'JJ'
p152
S'I-NP'
p153
g5
tp154
a(S'form'
p155
S'form'
p156
S'NN'
p157
S'I-NP'
p158
g5
tp159
a(S'of'
p160
S'of'
p161
S'IN'
p162
S'B-PP'
p163
g5
tp164
a(S'age-related'
p165
S'age-related'
p166
S'JJ'
p167
S'B-NP'
p168
g5
tp169
a(S'macular'
p170
S'macular'
p171
S'JJ'
p172
S'I-NP'
p173
g5
tp174
a(S'degeneration'
p175
S'degeneration'
p176
S'NN'
p177
S'I-NP'
p178
g5
tp179
a(g145
g145
g145
g5
g5
tp180
a(S'with'
p181
S'with'
p182
S'IN'
p183
S'B-PP'
p184
g5
tp185
a(S'specific'
p186
S'specific'
p187
S'JJ'
p188
S'B-NP'
p189
g5
tp190
a(S'regard'
p191
S'regard'
p192
S'NN'
p193
S'I-NP'
p194
g5
tp195
a(S'to'
p196
S'to'
p197
S'TO'
p198
S'B-PP'
p199
g5
tp200
a(S'inhibition'
p201
S'inhibition'
p202
S'NN'
p203
S'B-NP'
p204
g5
tp205
a(S'of'
p206
S'of'
p207
S'IN'
p208
S'B-PP'
p209
g5
tp210
a(S'neovascularization'
p211
S'neovascularization'
p212
S'NN'
p213
S'B-NP'
p214
g5
tp215
a(S'and'
p216
S'and'
p217
S'CC'
p218
S'I-NP'
p219
g5
tp220
a(S'maintenance'
p221
S'maintenance'
p222
S'NN'
p223
S'I-NP'
p224
g5
tp225
a(S'of'
p226
S'of'
p227
S'IN'
p228
S'B-PP'
p229
g5
tp230
a(S'vision'
p231
S'vision'
p232
S'NN'
p233
S'B-NP'
p234
g5
tp235
a(g53
g53
g53
g5
g5
tp236
a(S'METHODS'
p237
S'METHODS'
p238
S'NNS'
p239
S'B-NP'
p240
g5
tp241
a(S'Thirty-four'
p242
S'Thirty-four'
p243
S'CD'
p244
S'B-NP'
p245
g5
tp246
a(S'patients'
p247
S'patient'
p248
S'NNS'
p249
S'I-NP'
p250
g5
tp251
a(S'with'
p252
S'with'
p253
S'IN'
p254
S'B-PP'
p255
g5
tp256
a(S'RAP'
p257
S'RAP'
p258
S'NN'
p259
S'B-NP'
p260
S'B-protein'
p261
tp262
a(S'with'
p263
S'with'
p264
S'IN'
p265
S'B-PP'
p266
g5
tp267
a(S'any'
p268
S'any'
p269
S'DT'
p270
S'B-NP'
p271
g5
tp272
a(S'stage'
p273
S'stage'
p274
S'NN'
p275
S'I-NP'
p276
g5
tp277
a(S'of'
p278
S'of'
p279
S'IN'
p280
S'B-PP'
p281
g5
tp282
a(S'neovascularization'
p283
S'neovascularization'
p284
S'NN'
p285
S'B-NP'
p286
g5
tp287
a(S'were'
p288
S'be'
p289
S'VBD'
p290
S'B-VP'
p291
g5
tp292
a(S'randomized'
p293
S'randomize'
p294
S'VBN'
p295
S'I-VP'
p296
g5
tp297
a(S'1'
p298
g298
S'CD'
p299
S'B-NP'
p300
g5
tp301
a(g37
g37
g37
g5
g5
tp302
a(g298
g298
S'CD'
p303
S'B-NP'
p304
g5
tp305
a(g37
g37
g37
g5
g5
tp306
a(g298
g298
S'CD'
p307
S'B-NP'
p308
g5
tp309
a(S'for'
p310
S'for'
p311
S'IN'
p312
S'B-PP'
p313
g5
tp314
a(S'treatment'
p315
S'treatment'
p316
S'NN'
p317
S'B-NP'
p318
g5
tp319
a(S'with'
p320
S'with'
p321
S'IN'
p322
S'B-PP'
p323
g5
tp324
a(S'three'
p325
S'three'
p326
S'CD'
p327
S'B-NP'
p328
g5
tp329
a(S'different'
p330
S'different'
p331
S'JJ'
p332
S'I-NP'
p333
g5
tp334
a(S'quantities'
p335
S'quantity'
p336
S'NNS'
p337
S'I-NP'
p338
g5
tp339
a(g135
g135
g135
g5
g5
tp340
a(S'30'
p341
S'30'
p342
S'CD'
p343
S'B-NP'
p344
g5
tp345
a(S'mg'
p346
S'mg'
p347
S'NN'
p348
S'I-NP'
p349
g5
tp350
a(g145
g145
g145
g5
g5
tp351
a(S'15'
p352
S'15'
p353
S'CD'
p354
S'B-NP'
p355
g5
tp356
a(S'mg'
p357
S'mg'
p358
S'NN'
p359
S'I-NP'
p360
g5
tp361
a(g145
g145
g145
g5
g5
tp362
a(S'3'
p363
g363
S'CD'
p364
S'B-NP'
p365
g5
tp366
a(S'mg'
p367
S'mg'
p368
S'NN'
p369
S'I-NP'
p370
g5
tp371
a(g143
g143
g143
g5
g5
tp372
a(S'of'
p373
S'of'
p374
S'IN'
p375
S'B-PP'
p376
g5
tp377
a(S'anecortave'
p378
S'anecortave'
p379
S'NN'
p380
S'B-NP'
p381
g5
tp382
a(S'acetate'
p383
S'acetate'
p384
S'NN'
p385
S'I-NP'
p386
g5
tp387
a(S'sterile'
p388
S'sterile'
p389
S'JJ'
p390
S'I-NP'
p391
g5
tp392
a(S'suspension'
p393
S'suspension'
p394
S'NN'
p395
S'I-NP'
p396
g5
tp397
a(S'for'
p398
S'for'
p399
S'IN'
p400
S'B-PP'
p401
g5
tp402
a(S'juxtascleral'
p403
S'juxtascleral'
p404
S'JJ'
p405
S'B-NP'
p406
g5
tp407
a(S'administration.'
p408
S'administration.'
p409
S'NN'
p410
S'I-NP'
p411
g5
tp412
a(S'Best-corrected'
p413
S'Best-corrected'
p414
S'JJ'
p415
S'I-NP'
p416
g5
tp417
a(S'visual'
p418
S'visual'
p419
S'JJ'
p420
S'I-NP'
p421
g5
tp422
a(S'acuity'
p423
S'acuity'
p424
S'NN'
p425
S'I-NP'
p426
g5
tp427
a(g135
g135
g135
g5
g5
tp428
a(S'Early'
p429
S'Early'
p430
S'JJ'
p431
S'B-NP'
p432
g5
tp433
a(S'Treatment'
p434
S'Treatment'
p435
S'NN'
p436
S'I-NP'
p437
g5
tp438
a(S'Diabetic'
p439
S'Diabetic'
p440
S'JJ'
p441
S'I-NP'
p442
g5
tp443
a(S'Retinopathy'
p444
S'Retinopathy'
p445
S'NN'
p446
S'I-NP'
p447
g5
tp448
a(S'Study'
p449
S'Study'
p450
S'NN'
p451
S'I-NP'
p452
g5
tp453
a(S'chart'
p454
S'chart'
p455
S'NN'
p456
S'I-NP'
p457
g5
tp458
a(g143
g143
g143
g5
g5
tp459
a(g145
g145
g145
g5
g5
tp460
a(S'intraocular'
p461
S'intraocular'
p462
S'JJ'
p463
S'B-NP'
p464
g5
tp465
a(S'pressure'
p466
S'pressure'
p467
S'NN'
p468
S'I-NP'
p469
g5
tp470
a(S'measurement'
p471
S'measurement'
p472
S'NN'
p473
S'I-NP'
p474
g5
tp475
a(g145
g145
g145
g5
g5
tp476
a(S'biomicroscopy'
p477
S'biomicroscopy'
p478
S'NN'
p479
S'B-NP'
p480
g5
tp481
a(g145
g145
g145
g5
g5
tp482
a(S'funduscopy'
p483
S'funduscopy'
p484
S'NN'
p485
S'B-NP'
p486
g5
tp487
a(g145
g145
g145
g5
g5
tp488
a(S'digital'
p489
S'digital'
p490
S'JJ'
p491
S'B-NP'
p492
g5
tp493
a(S'fluorescein'
p494
S'fluorescein'
p495
S'NN'
p496
S'I-NP'
p497
g5
tp498
a(g145
g145
g145
g5
g5
tp499
a(S'and'
p500
S'and'
p501
S'CC'
p502
g5
g5
tp503
a(S'indocyanine'
p504
S'indocyanine'
p505
S'NN'
p506
S'B-NP'
p507
g5
tp508
a(S'green'
p509
S'green'
p510
S'JJ'
p511
S'I-NP'
p512
g5
tp513
a(S'angiography'
p514
S'angiography'
p515
S'NN'
p516
S'I-NP'
p517
g5
tp518
a(S'were'
p519
S'be'
p520
S'VBD'
p521
S'B-VP'
p522
g5
tp523
a(S'recorded'
p524
S'record'
p525
S'VBN'
p526
S'I-VP'
p527
g5
tp528
a(S'at'
p529
S'at'
p530
S'IN'
p531
S'B-PP'
p532
g5
tp533
a(S'baseline'
p534
S'baseline'
p535
S'NN'
p536
S'B-NP'
p537
g5
tp538
a(S'and'
p539
S'and'
p540
S'CC'
p541
g5
g5
tp542
a(S'at'
p543
S'at'
p544
S'IN'
p545
S'B-PP'
p546
g5
tp547
a(g363
g363
S'CD'
p548
S'B-NP'
p549
g5
tp550
a(S'months.'
p551
S'months.'
p552
S'NN'
p553
S'I-NP'
p554
g5
tp555
a(S'A'
p556
g556
S'NN'
p557
S'I-NP'
p558
g5
tp559
a(S'6-month'
p560
S'6-month'
p561
S'JJ'
p562
S'I-NP'
p563
g5
tp564
a(S'retreatment'
p565
S'retreatment'
p566
S'NN'
p567
S'I-NP'
p568
g5
tp569
a(S'interval'
p570
S'interval'
p571
S'NN'
p572
S'I-NP'
p573
g5
tp574
a(S'was'
p575
S'be'
p576
S'VBD'
p577
S'B-VP'
p578
g5
tp579
a(S'established'
p580
S'establish'
p581
S'VBN'
p582
S'I-VP'
p583
g5
tp584
a(S'for'
p585
S'for'
p586
S'IN'
p587
S'B-PP'
p588
g5
tp589
a(S'this'
p590
S'this'
p591
S'DT'
p592
S'B-NP'
p593
g5
tp594
a(S'study'
p595
S'study'
p596
S'NN'
p597
S'I-NP'
p598
g5
tp599
a(S'with'
p600
S'with'
p601
S'IN'
p602
S'B-PP'
p603
g5
tp604
a(g39
g39
S'DT'
p605
S'B-NP'
p606
g5
tp607
a(S'follow-up'
p608
S'follow-up'
p609
S'NN'
p610
S'I-NP'
p611
g5
tp612
a(S'of'
p613
S'of'
p614
S'IN'
p615
S'B-PP'
p616
g5
tp617
a(S'12'
p618
S'12'
p619
S'CD'
p620
S'B-NP'
p621
g5
tp622
a(S'months.'
p623
S'months.'
p624
S'NNS'
p625
S'I-NP'
p626
g5
tp627
a(S'In'
p628
S'In'
p629
S'IN'
p630
S'B-PP'
p631
g5
tp632
a(S'selected'
p633
S'select'
p634
S'VBN'
p635
S'B-NP'
p636
g5
tp637
a(S'patients'
p638
S'patient'
p639
S'NNS'
p640
S'I-NP'
p641
g5
tp642
a(S'optical'
p643
S'optical'
p644
S'JJ'
p645
S'B-NP'
p646
g5
tp647
a(S'coherence'
p648
S'coherence'
p649
S'NN'
p650
S'I-NP'
p651
g5
tp652
a(S'tomography'
p653
S'tomography'
p654
S'NN'
p655
S'I-NP'
p656
g5
tp657
a(S'was'
p658
S'be'
p659
S'VBD'
p660
S'B-VP'
p661
g5
tp662
a(S'performed.'
p663
S'performed.'
p664
S'VBN'
p665
S'I-VP'
p666
g5
tp667
a(S'The'
p668
S'The'
p669
S'DT'
p670
S'B-NP'
p671
g5
tp672
a(S'outcomes'
p673
S'outcome'
p674
S'NNS'
p675
S'I-NP'
p676
g5
tp677
a(S'were'
p678
S'be'
p679
S'VBD'
p680
S'B-VP'
p681
g5
tp682
a(S'mean'
p683
S'mean'
p684
S'JJ'
p685
S'B-NP'
p686
g5
tp687
a(S'changes'
p688
S'change'
p689
S'NNS'
p690
S'I-NP'
p691
g5
tp692
a(S'in'
p693
S'in'
p694
S'IN'
p695
S'B-PP'
p696
g5
tp697
a(S'visual'
p698
S'visual'
p699
S'JJ'
p700
S'B-NP'
p701
g5
tp702
a(S'acuity'
p703
S'acuity'
p704
S'NN'
p705
S'I-NP'
p706
g5
tp707
a(S'and'
p708
S'and'
p709
S'CC'
p710
S'I-NP'
p711
g5
tp712
a(S'lesion'
p713
S'lesion'
p714
S'NN'
p715
S'I-NP'
p716
g5
tp717
a(S'size'
p718
S'size'
p719
S'NN'
p720
S'I-NP'
p721
g5
tp722
a(S'at'
p723
S'at'
p724
S'IN'
p725
S'B-PP'
p726
g5
tp727
a(g298
g298
S'CD'
p728
S'B-NP'
p729
g5
tp730
a(S'year'
p731
S'year'
p732
S'NN'
p733
S'I-NP'
p734
g5
tp735
a(g53
g53
g53
g5
g5
tp736
a(S'RESULTS'
p737
S'RESULTS'
p738
S'NNS'
p739
S'B-NP'
p740
g5
tp741
a(S'The'
p742
S'The'
p743
S'DT'
p744
S'B-NP'
p745
g5
tp746
a(S'detachment'
p747
S'detachment'
p748
S'NN'
p749
S'I-NP'
p750
g5
tp751
a(S'of'
p752
S'of'
p753
S'IN'
p754
S'B-PP'
p755
g5
tp756
a(S'the'
p757
S'the'
p758
S'DT'
p759
S'B-NP'
p760
g5
tp761
a(S'neurosensory'
p762
S'neurosensory'
p763
S'JJ'
p764
S'I-NP'
p765
g5
tp766
a(S'retina'
p767
S'retina'
p768
S'NN'
p769
S'I-NP'
p770
g5
tp771
a(S'and'
p772
S'and'
p773
S'CC'
p774
g5
g5
tp775
a(S'retinal'
p776
S'retinal'
p777
S'JJ'
p778
S'B-NP'
p779
g5
tp780
a(S'pigment'
p781
S'pigment'
p782
S'NN'
p783
S'I-NP'
p784
g5
tp785
a(S'epithelium'
p786
S'epithelium'
p787
S'NN'
p788
S'I-NP'
p789
g5
tp790
a(S'improved'
p791
S'improve'
p792
S'VBN'
p793
S'B-VP'
p794
g5
tp795
a(S'in'
p796
S'in'
p797
S'IN'
p798
S'B-PP'
p799
g5
tp800
a(S'all'
p801
S'all'
p802
S'DT'
p803
S'B-NP'
p804
g5
tp805
a(S'eyes'
p806
S'eye'
p807
S'NNS'
p808
S'I-NP'
p809
g5
tp810
a(g145
g145
g145
g5
g5
tp811
a(S'but'
p812
S'but'
p813
S'CC'
p814
g5
g5
tp815
a(S'all'
p816
S'all'
p817
S'DT'
p818
S'B-NP'
p819
g5
tp820
a(S'neovascular'
p821
S'neovascular'
p822
S'JJ'
p823
S'I-NP'
p824
g5
tp825
a(S'lesions'
p826
S'lesion'
p827
S'NNS'
p828
S'I-NP'
p829
g5
tp830
a(S'increased'
p831
S'increase'
p832
S'VBD'
p833
S'B-VP'
p834
g5
tp835
a(S'in'
p836
S'in'
p837
S'IN'
p838
S'B-PP'
p839
g5
tp840
a(S'size.'
p841
S'size.'
p842
S'NN'
p843
S'B-NP'
p844
g5
tp845
a(S'Vision'
p846
S'Vision'
p847
S'NN'
p848
S'I-NP'
p849
g5
tp850
a(S'loss'
p851
S'loss'
p852
S'NN'
p853
S'I-NP'
p854
g5
tp855
a(S'occurred'
p856
S'occur'
p857
S'VBD'
p858
S'B-VP'
p859
g5
tp860
a(S'in'
p861
S'in'
p862
S'IN'
p863
S'B-PP'
p864
g5
tp865
a(S'the'
p866
S'the'
p867
S'DT'
p868
S'B-NP'
p869
g5
tp870
a(S'majority'
p871
S'majority'
p872
S'NN'
p873
S'I-NP'
p874
g5
tp875
a(S'of'
p876
S'of'
p877
S'IN'
p878
S'B-PP'
p879
g5
tp880
a(S'study'
p881
S'study'
p882
S'NN'
p883
S'B-NP'
p884
g5
tp885
a(S'eyes'
p886
S'eye'
p887
S'NNS'
p888
S'I-NP'
p889
g5
tp890
a(g135
g135
g135
g5
g5
tp891
a(S'22'
p892
S'22'
p893
S'CD'
p894
S'B-NP'
p895
g5
tp896
a(S'out'
p897
S'out'
p898
S'IN'
p899
S'I-NP'
p900
g5
tp901
a(S'of'
p902
S'of'
p903
S'IN'
p904
S'I-NP'
p905
g5
tp906
a(S'34'
p907
S'34'
p908
S'CD'
p909
S'I-NP'
p910
g5
tp911
a(S'eyes'
p912
S'eye'
p913
S'NNS'
p914
S'I-NP'
p915
g5
tp916
a(g145
g145
g145
g5
g5
tp917
a(S'64.7'
p918
S'64.7'
p919
S'CD'
p920
S'B-NP'
p921
g5
tp922
a(S'%'
p923
g923
S'NN'
p924
S'I-NP'
p925
g5
tp926
a(g143
g143
g143
g5
g5
tp927
a(S'independent'
p928
S'independent'
p929
S'JJ'
p930
S'B-ADJP'
p931
g5
tp932
a(S'of'
p933
S'of'
p934
S'IN'
p935
S'B-PP'
p936
g5
tp937
a(S'the'
p938
S'the'
p939
S'DT'
p940
S'B-NP'
p941
g5
tp942
a(S'concentration'
p943
S'concentration'
p944
S'NN'
p945
S'I-NP'
p946
g5
tp947
a(S'administered'
p948
S'administer'
p949
S'VBN'
p950
S'B-VP'
p951
g5
tp952
a(g53
g53
g53
g5
g5
tp953
a(S'CONCLUSION'
p954
S'CONCLUSION'
p955
S'NN'
p956
S'B-NP'
p957
g5
tp958
a(S'The'
p959
S'The'
p960
S'DT'
p961
S'B-NP'
p962
g5
tp963
a(S'results'
p964
S'result'
p965
S'NNS'
p966
S'I-NP'
p967
g5
tp968
a(S'suggest'
p969
S'suggest'
p970
S'VBP'
p971
S'B-VP'
p972
g5
tp973
a(S'that'
p974
S'that'
p975
S'IN'
p976
S'B-SBAR'
p977
g5
tp978
a(g39
g39
S'DT'
p979
S'B-NP'
p980
g5
tp981
a(S'posterior'
p982
S'posterior'
p983
S'JJ'
p984
S'I-NP'
p985
g5
tp986
a(S'juxtascleral'
p987
S'juxtascleral'
p988
S'JJ'
p989
S'I-NP'
p990
g5
tp991
a(S'injection'
p992
S'injection'
p993
S'NN'
p994
S'I-NP'
p995
g5
tp996
a(S'of'
p997
S'of'
p998
S'IN'
p999
S'B-PP'
p1000
g5
tp1001
a(S'anecortave'
p1002
S'anecortave'
p1003
S'NN'
p1004
S'B-NP'
p1005
g5
tp1006
a(S'acetate'
p1007
S'acetate'
p1008
S'NN'
p1009
S'I-NP'
p1010
g5
tp1011
a(S'reduces'
p1012
S'reduce'
p1013
S'VBZ'
p1014
S'B-VP'
p1015
g5
tp1016
a(S'capillary'
p1017
S'capillary'
p1018
S'JJ'
p1019
S'B-NP'
p1020
g5
tp1021
a(S'permeability'
p1022
S'permeability'
p1023
S'NN'
p1024
S'I-NP'
p1025
g5
tp1026
a(S'in'
p1027
S'in'
p1028
S'IN'
p1029
S'B-PP'
p1030
g5
tp1031
a(S'patients'
p1032
S'patient'
p1033
S'NNS'
p1034
S'B-NP'
p1035
g5
tp1036
a(S'with'
p1037
S'with'
p1038
S'IN'
p1039
S'B-PP'
p1040
g5
tp1041
a(S'RAP.'
p1042
S'RAP.'
p1043
S'NN'
p1044
S'B-NP'
p1045
S'B-protein'
p1046
tp1047
a(S'However'
p1048
S'However'
p1049
S'RB'
p1050
S'B-ADVP'
p1051
g5
tp1052
a(g145
g145
g145
g5
g5
tp1053
a(S'in'
p1054
S'in'
p1055
S'IN'
p1056
S'B-PP'
p1057
g5
tp1058
a(S'spite'
p1059
S'spite'
p1060
S'NN'
p1061
S'B-NP'
p1062
g5
tp1063
a(S'of'
p1064
S'of'
p1065
S'IN'
p1066
S'B-PP'
p1067
g5
tp1068
a(S'improvement'
p1069
S'improvement'
p1070
S'NN'
p1071
S'B-NP'
p1072
g5
tp1073
a(S'of'
p1074
S'of'
p1075
S'IN'
p1076
S'B-PP'
p1077
g5
tp1078
a(S'the'
p1079
S'the'
p1080
S'DT'
p1081
S'B-NP'
p1082
g5
tp1083
a(S'exudation'
p1084
S'exudation'
p1085
S'NN'
p1086
S'I-NP'
p1087
g5
tp1088
a(S'there'
p1089
S'there'
p1090
S'EX'
p1091
S'B-NP'
p1092
g5
tp1093
a(S'is'
p1094
S'be'
p1095
S'VBZ'
p1096
S'B-VP'
p1097
g5
tp1098
a(g39
g39
S'DT'
p1099
S'B-NP'
p1100
g5
tp1101
a(S'progression'
p1102
S'progression'
p1103
S'NN'
p1104
S'I-NP'
p1105
g5
tp1106
a(S'of'
p1107
S'of'
p1108
S'IN'
p1109
S'B-PP'
p1110
g5
tp1111
a(S'neovascularization'
p1112
S'neovascularization'
p1113
S'NN'
p1114
S'B-NP'
p1115
g5
tp1116
a(S'and'
p1117
S'and'
p1118
S'CC'
p1119
g5
g5
tp1120
a(g39
g39
S'DT'
p1121
S'B-NP'
p1122
g5
tp1123
a(S'significant'
p1124
S'significant'
p1125
S'JJ'
p1126
S'I-NP'
p1127
g5
tp1128
a(S'loss'
p1129
S'loss'
p1130
S'NN'
p1131
S'I-NP'
p1132
g5
tp1133
a(S'of'
p1134
S'of'
p1135
S'IN'
p1136
S'B-PP'
p1137
g5
tp1138
a(S'vision'
p1139
S'vision'
p1140
S'NN'
p1141
S'B-NP'
p1142
g5
tp1143
a(S'in'
p1144
S'in'
p1145
S'IN'
p1146
S'B-PP'
p1147
g5
tp1148
a(S'all'
p1149
S'all'
p1150
S'PDT'
p1151
S'B-NP'
p1152
g5
tp1153
a(S'these'
p1154
S'these'
p1155
S'DT'
p1156
S'I-NP'
p1157
g5
tp1158
a(S'patients.'
p1159
S'patients.'
p1160
S'NNS'
p1161
S'I-NP'
p1162
g5
tp1163
a(S'Like'
p1164
S'Like'
p1165
S'IN'
p1166
S'B-PP'
p1167
g5
tp1168
a(S'other'
p1169
S'other'
p1170
S'JJ'
p1171
S'B-NP'
p1172
g5
tp1173
a(S'monotherapeutic'
p1174
S'monotherapeutic'
p1175
S'JJ'
p1176
S'I-NP'
p1177
g5
tp1178
a(S'methods'
p1179
S'method'
p1180
S'NNS'
p1181
S'I-NP'
p1182
g5
tp1183
a(S'used'
p1184
S'use'
p1185
S'VBN'
p1186
S'B-VP'
p1187
g5
tp1188
a(S'to'
p1189
S'to'
p1190
S'TO'
p1191
S'B-VP'
p1192
g5
tp1193
a(S'treat'
p1194
S'treat'
p1195
S'VB'
p1196
S'I-VP'
p1197
g5
tp1198
a(S'this'
p1199
S'this'
p1200
S'DT'
p1201
S'B-NP'
p1202
g5
tp1203
a(S'variant'
p1204
S'variant'
p1205
S'NN'
p1206
S'I-NP'
p1207
g5
tp1208
a(S'of'
p1209
S'of'
p1210
S'IN'
p1211
S'B-PP'
p1212
g5
tp1213
a(S'neovascular'
p1214
S'neovascular'
p1215
S'JJ'
p1216
S'B-NP'
p1217
g5
tp1218
a(S'age-related'
p1219
S'age-related'
p1220
S'JJ'
p1221
S'I-NP'
p1222
g5
tp1223
a(S'macular'
p1224
S'macular'
p1225
S'JJ'
p1226
S'I-NP'
p1227
g5
tp1228
a(S'degeneration'
p1229
S'degeneration'
p1230
S'NN'
p1231
S'I-NP'
p1232
g5
tp1233
a(g145
g145
g145
g5
g5
tp1234
a(S'anecortave'
p1235
S'anecortave'
p1236
S'DT'
p1237
S'B-NP'
p1238
g5
tp1239
a(S'acetate'
p1240
S'acetate'
p1241
S'NN'
p1242
S'I-NP'
p1243
g5
tp1244
a(S'alone'
p1245
S'alone'
p1246
S'RB'
p1247
S'B-ADVP'
p1248
g5
tp1249
a(S'does'
p1250
S'do'
p1251
S'VBZ'
p1252
S'B-VP'
p1253
g5
tp1254
a(S'not'
p1255
S'not'
p1256
S'RB'
p1257
S'I-VP'
p1258
g5
tp1259
a(S'appear'
p1260
S'appear'
p1261
S'VB'
p1262
S'I-VP'
p1263
g5
tp1264
a(S'to'
p1265
S'to'
p1266
S'TO'
p1267
S'I-VP'
p1268
g5
tp1269
a(S'benefit'
p1270
S'benefit'
p1271
S'VB'
p1272
S'I-VP'
p1273
g5
tp1274
a(S'these'
p1275
S'these'
p1276
S'DT'
p1277
S'B-NP'
p1278
g5
tp1279
a(S'patients.'
p1280
S'patients.'
p1281
S'NNS'
p1282
S'I-NP'
p1283
g5
tp1284
a(S'Future'
p1285
S'Future'
p1286
S'JJ'
p1287
S'B-NP'
p1288
g5
tp1289
a(S'studies'
p1290
S'study'
p1291
S'NNS'
p1292
S'I-NP'
p1293
g5
tp1294
a(S'should'
p1295
S'should'
p1296
S'MD'
p1297
S'B-VP'
p1298
g5
tp1299
a(S'investigate'
p1300
S'investigate'
p1301
S'VB'
p1302
S'I-VP'
p1303
g5
tp1304
a(g39
g39
S'DT'
p1305
S'B-NP'
p1306
g5
tp1307
a(S'combination'
p1308
S'combination'
p1309
S'NN'
p1310
S'I-NP'
p1311
g5
tp1312
a(S'form'
p1313
S'form'
p1314
S'NN'
p1315
S'I-NP'
p1316
g5
tp1317
a(S'of'
p1318
S'of'
p1319
S'IN'
p1320
S'B-PP'
p1321
g5
tp1322
a(S'therapy'
p1323
S'therapy'
p1324
S'NN'
p1325
S'B-NP'
p1326
g5
tp1327
a(g53
g53
g53
g5
g5
tp1328
a.