(lp0
(S'Exposure'
p1
S'Exposure'
p2
S'NN'
p3
S'B-NP'
p4
S'O'
p5
tp6
a(S'reduced'
p7
S'reduce'
p8
S'VBD'
p9
S'B-VP'
p10
g5
tp11
a(S'agoraphobia'
p12
S'agoraphobia'
p13
S'NN'
p14
S'B-NP'
p15
g5
tp16
a(S'but'
p17
S'but'
p18
S'CC'
p19
S'B-NP'
p20
g5
tp21
a(S'not'
p22
S'not'
p23
S'RB'
p24
S'I-NP'
p25
g5
tp26
a(S'panic'
p27
S'panic'
p28
S'NN'
p29
S'B-NP'
p30
g5
tp31
a(S','
p32
g32
g32
g5
g5
tp33
a(S'and'
p34
S'and'
p35
S'CC'
p36
g5
g5
tp37
a(S'cognitive'
p38
S'cognitive'
p39
S'JJ'
p40
S'B-NP'
p41
g5
tp42
a(S'therapy'
p43
S'therapy'
p44
S'NN'
p45
S'I-NP'
p46
g5
tp47
a(S'reduced'
p48
S'reduce'
p49
S'VBD'
p50
S'B-VP'
p51
g5
tp52
a(S'panic'
p53
S'panic'
p54
S'NN'
p55
S'B-NP'
p56
g5
tp57
a(S'but'
p58
S'but'
p59
S'CC'
p60
S'B-NP'
p61
g5
tp62
a(S'not'
p63
S'not'
p64
S'RB'
p65
S'I-NP'
p66
g5
tp67
a(S'agoraphobia'
p68
S'agoraphobia'
p69
S'NN'
p70
S'B-NP'
p71
g5
tp72
a(S'.'
p73
g73
g73
g5
g5
tp74
a(S'Earlier'
p75
S'Early'
p76
S'JJR'
p77
S'B-NP'
p78
g5
tp79
a(S'studies'
p80
S'study'
p81
S'NNS'
p82
S'I-NP'
p83
g5
tp84
a(S'showed'
p85
S'show'
p86
S'VBD'
p87
S'B-VP'
p88
g5
tp89
a(S'that'
p90
S'that'
p91
S'IN'
p92
S'B-SBAR'
p93
g5
tp94
a(S'cognitive'
p95
S'cognitive'
p96
S'JJ'
p97
S'B-NP'
p98
g5
tp99
a(S'therapy'
p100
S'therapy'
p101
S'NN'
p102
S'I-NP'
p103
g5
tp104
a(S'has'
p105
S'have'
p106
S'VBZ'
p107
S'B-VP'
p108
g5
tp109
a(S'anti-panic'
p110
S'anti-panic'
p111
S'JJ'
p112
S'B-NP'
p113
g5
tp114
a(S'effects'
p115
S'effect'
p116
S'NNS'
p117
S'I-NP'
p118
g5
tp119
a(S'and'
p120
S'and'
p121
S'CC'
p122
S'I-NP'
p123
g5
tp124
a(S'exposure'
p125
S'exposure'
p126
S'NN'
p127
S'I-NP'
p128
g5
tp129
a(S'has'
p130
S'have'
p131
S'VBZ'
p132
S'B-VP'
p133
g5
tp134
a(S'anti-agoraphobic'
p135
S'anti-agoraphobic'
p136
S'JJ'
p137
S'B-NP'
p138
g5
tp139
a(S'effects'
p140
S'effect'
p141
S'NNS'
p142
S'I-NP'
p143
g5
tp144
a(S'while'
p145
S'while'
p146
S'IN'
p147
S'B-SBAR'
p148
g5
tp149
a(S'other'
p150
S'other'
p151
S'JJ'
p152
S'B-NP'
p153
g5
tp154
a(S'studies'
p155
S'study'
p156
S'NNS'
p157
S'I-NP'
p158
g5
tp159
a(S'suggest'
p160
S'suggest'
p161
S'VBP'
p162
S'B-VP'
p163
g5
tp164
a(S'that'
p165
S'that'
p166
S'IN'
p167
S'B-SBAR'
p168
g5
tp169
a(S'agoraphobia'
p170
S'agoraphobia'
p171
S'NN'
p172
S'B-NP'
p173
g5
tp174
a(S'is'
p175
S'be'
p176
S'VBZ'
p177
S'B-VP'
p178
g5
tp179
a(S'a'
p180
g180
S'DT'
p181
S'B-NP'
p182
g5
tp183
a(S'secondary'
p184
S'secondary'
p185
S'JJ'
p186
S'I-NP'
p187
g5
tp188
a(S'complication'
p189
S'complication'
p190
S'NN'
p191
S'I-NP'
p192
g5
tp193
a(S'of'
p194
S'of'
p195
S'IN'
p196
S'B-PP'
p197
g5
tp198
a(S'panic'
p199
S'panic'
p200
S'NN'
p201
S'B-NP'
p202
g5
tp203
a(S'disorder.'
p204
S'disorder.'
p205
S'NN'
p206
S'I-NP'
p207
g5
tp208
a(S'It'
p209
S'It'
p210
S'PRP'
p211
S'B-NP'
p212
g5
tp213
a(S'was'
p214
S'be'
p215
S'VBD'
p216
S'B-VP'
p217
g5
tp218
a(S'therefore'
p219
S'therefore'
p220
S'RB'
p221
S'I-VP'
p222
g5
tp223
a(S'hypothesized'
p224
S'hypothesize'
p225
S'VBN'
p226
S'I-VP'
p227
g5
tp228
a(S'that'
p229
S'that'
p230
S'IN'
p231
S'B-SBAR'
p232
g5
tp233
a(S'cognitive'
p234
S'cognitive'
p235
S'JJ'
p236
S'B-NP'
p237
g5
tp238
a(S'therapy'
p239
S'therapy'
p240
S'NN'
p241
S'I-NP'
p242
g5
tp243
a(S'not'
p244
S'not'
p245
S'RB'
p246
S'B-CONJP'
p247
g5
tp248
a(S'only'
p249
S'only'
p250
S'RB'
p251
S'I-CONJP'
p252
g5
tp253
a(S'reduces'
p254
S'reduce'
p255
S'VBZ'
p256
S'B-VP'
p257
g5
tp258
a(S'panic'
p259
S'panic'
p260
S'NN'
p261
S'B-NP'
p262
g5
tp263
a(S'but'
p264
S'but'
p265
S'CC'
p266
S'B-CONJP'
p267
g5
tp268
a(S'also'
p269
S'also'
p270
S'RB'
p271
S'I-CONJP'
p272
g5
tp273
a(S'agoraphobia'
p274
S'agoraphobia'
p275
S'IN'
p276
S'B-ADVP'
p277
g5
tp278
a(S'and'
p279
S'and'
p280
S'CC'
p281
g5
g5
tp282
a(S'that'
p283
S'that'
p284
S'IN'
p285
S'B-SBAR'
p286
g5
tp287
a(S'it'
p288
S'it'
p289
S'PRP'
p290
S'B-NP'
p291
g5
tp292
a(S'potentiates'
p293
S'potentiate'
p294
S'VBZ'
p295
S'B-VP'
p296
g5
tp297
a(S'the'
p298
S'the'
p299
S'DT'
p300
S'B-NP'
p301
g5
tp302
a(S'effects'
p303
S'effect'
p304
S'NNS'
p305
S'I-NP'
p306
g5
tp307
a(S'of'
p308
S'of'
p309
S'IN'
p310
S'B-PP'
p311
g5
tp312
a(S'exposure'
p313
S'exposure'
p314
S'NN'
p315
S'B-NP'
p316
g5
tp317
a(S'in'
p318
S'in'
p319
S'IN'
p320
S'B-PP'
p321
g5
tp322
a(S'vivo.'
p323
S'vivo.'
p324
S'NN'
p325
S'B-NP'
p326
g5
tp327
a(S'Two'
p328
S'Two'
p329
S'CD'
p330
S'B-NP'
p331
g5
tp332
a(S'groups'
p333
S'group'
p334
S'NNS'
p335
S'I-NP'
p336
g5
tp337
a(S'of'
p338
S'of'
p339
S'IN'
p340
S'B-PP'
p341
g5
tp342
a(S'12'
p343
S'12'
p344
S'CD'
p345
S'B-NP'
p346
g5
tp347
a(S'severe'
p348
S'severe'
p349
S'JJ'
p350
S'I-NP'
p351
g5
tp352
a(S'agoraphobics'
p353
S'agoraphobic'
p354
S'NNS'
p355
S'I-NP'
p356
g5
tp357
a(S'were'
p358
S'be'
p359
S'VBD'
p360
S'B-VP'
p361
g5
tp362
a(S'treated'
p363
S'treat'
p364
S'VBN'
p365
S'I-VP'
p366
g5
tp367
a(S'with'
p368
S'with'
p369
S'IN'
p370
S'B-PP'
p371
g5
tp372
a(S'4'
p373
g373
S'CD'
p374
S'B-NP'
p375
g5
tp376
a(S'sessions'
p377
S'session'
p378
S'NNS'
p379
S'I-NP'
p380
g5
tp381
a(S'of'
p382
S'of'
p383
S'IN'
p384
S'B-PP'
p385
g5
tp386
a(S'cognitive'
p387
S'cognitive'
p388
S'JJ'
p389
S'B-NP'
p390
g5
tp391
a(S'therapy'
p392
S'therapy'
p393
S'NN'
p394
S'I-NP'
p395
g5
tp396
a(S'followed'
p397
S'follow'
p398
S'VBN'
p399
S'B-VP'
p400
g5
tp401
a(S'by'
p402
S'by'
p403
S'IN'
p404
S'B-PP'
p405
g5
tp406
a(S'8'
p407
g407
S'CD'
p408
S'B-NP'
p409
g5
tp410
a(S'sessions'
p411
S'session'
p412
S'NNS'
p413
S'I-NP'
p414
g5
tp415
a(S'of'
p416
S'of'
p417
S'IN'
p418
S'B-PP'
p419
g5
tp420
a(S'cognitive'
p421
S'cognitive'
p422
S'JJ'
p423
S'B-NP'
p424
g5
tp425
a(S'therapy'
p426
S'therapy'
p427
S'NN'
p428
S'I-NP'
p429
g5
tp430
a(S'combined'
p431
S'combine'
p432
S'VBN'
p433
S'B-VP'
p434
g5
tp435
a(S'with'
p436
S'with'
p437
S'IN'
p438
S'B-PP'
p439
g5
tp440
a(S'in'
p441
S'in'
p442
S'FW'
p443
S'B-NP'
p444
g5
tp445
a(S'vivo'
p446
S'vivo'
p447
S'FW'
p448
S'I-NP'
p449
g5
tp450
a(S'exposure.'
p451
S'exposure.'
p452
S'FW'
p453
S'I-NP'
p454
g5
tp455
a(S'The'
p456
S'The'
p457
S'DT'
p458
S'B-NP'
p459
g5
tp460
a(S'other'
p461
S'other'
p462
S'JJ'
p463
S'I-NP'
p464
g5
tp465
a(S'12'
p466
S'12'
p467
S'CD'
p468
S'I-NP'
p469
g5
tp470
a(S'received'
p471
S'receive'
p472
S'VBD'
p473
S'B-VP'
p474
g5
tp475
a(g373
g373
S'CD'
p476
S'B-NP'
p477
g5
tp478
a(S'sessions'
p479
S'session'
p480
S'NNS'
p481
S'I-NP'
p482
g5
tp483
a(S'of'
p484
S'of'
p485
S'IN'
p486
S'B-PP'
p487
g5
tp488
a(S"'associative"
p489
S"'associative"
p490
S'JJ'
p491
S'B-NP'
p492
g5
tp493
a(S'therapy'
p494
S'therapy'
p495
S'NN'
p496
S'I-NP'
p497
g5
tp498
a(S"'"
p499
g499
S"''"
p500
g5
g5
tp501
a(g32
g32
g32
g5
g5
tp502
a(g180
g180
S'DT'
p503
S'B-NP'
p504
g5
tp505
a(S'presumably'
p506
S'presumably'
p507
S'RB'
p508
S'I-NP'
p509
g5
tp510
a(S'inert'
p511
S'inert'
p512
S'JJ'
p513
S'I-NP'
p514
g5
tp515
a(S'treatment'
p516
S'treatment'
p517
S'NN'
p518
S'I-NP'
p519
g5
tp520
a(S'that'
p521
S'that'
p522
S'WDT'
p523
S'B-NP'
p524
g5
tp525
a(S'controls'
p526
S'control'
p527
S'VBZ'
p528
S'B-VP'
p529
g5
tp530
a(S'for'
p531
S'for'
p532
S'IN'
p533
S'B-PP'
p534
g5
tp535
a(S'therapist'
p536
S'therapist'
p537
S'NN'
p538
S'B-NP'
p539
g5
tp540
a(S'attention'
p541
S'attention'
p542
S'NN'
p543
S'I-NP'
p544
g5
tp545
a(g32
g32
g32
g5
g5
tp546
a(S'followed'
p547
S'follow'
p548
S'VBN'
p549
S'B-VP'
p550
g5
tp551
a(S'by'
p552
S'by'
p553
S'IN'
p554
S'B-PP'
p555
g5
tp556
a(g407
g407
S'CD'
p557
S'B-NP'
p558
g5
tp559
a(S'sessions'
p560
S'session'
p561
S'NNS'
p562
S'I-NP'
p563
g5
tp564
a(S'of'
p565
S'of'
p566
S'IN'
p567
S'B-PP'
p568
g5
tp569
a(S'in'
p570
S'in'
p571
S'FW'
p572
S'B-NP'
p573
g5
tp574
a(S'vivo'
p575
S'vivo'
p576
S'FW'
p577
S'I-NP'
p578
g5
tp579
a(S'exposure'
p580
S'exposure'
p581
S'NN'
p582
S'I-NP'
p583
g5
tp584
a(S'that'
p585
S'that'
p586
S'WDT'
p587
S'B-NP'
p588
g5
tp589
a(S'was'
p590
S'be'
p591
S'VBD'
p592
S'B-VP'
p593
g5
tp594
a(S'framed'
p595
S'frame'
p596
S'VBN'
p597
S'I-VP'
p598
g5
tp599
a(S'in'
p600
S'in'
p601
S'IN'
p602
S'B-PP'
p603
g5
tp604
a(S'common'
p605
S'common'
p606
S'JJ'
p607
S'B-NP'
p608
g5
tp609
a(S'behavioral'
p610
S'behavioral'
p611
S'JJ'
p612
S'I-NP'
p613
g5
tp614
a(S'terms.'
p615
S'terms.'
p616
S'NN'
p617
S'I-NP'
p618
g5
tp619
a(S'The'
p620
S'The'
p621
S'DT'
p622
S'B-NP'
p623
g5
tp624
a(S'initial'
p625
S'initial'
p626
S'JJ'
p627
S'I-NP'
p628
g5
tp629
a(S'cognitive'
p630
S'cognitive'
p631
S'JJ'
p632
S'I-NP'
p633
g5
tp634
a(S'therapy'
p635
S'therapy'
p636
S'NN'
p637
S'I-NP'
p638
g5
tp639
a(S'produced'
p640
S'produce'
p641
S'VBD'
p642
S'B-VP'
p643
g5
tp644
a(g180
g180
S'DT'
p645
S'B-NP'
p646
g5
tp647
a(S'significant'
p648
S'significant'
p649
S'JJ'
p650
S'I-NP'
p651
g5
tp652
a(S'reduction'
p653
S'reduction'
p654
S'NN'
p655
S'I-NP'
p656
g5
tp657
a(S'in'
p658
S'in'
p659
S'IN'
p660
S'B-PP'
p661
g5
tp662
a(S'panic'
p663
S'panic'
p664
S'NN'
p665
S'B-NP'
p666
g5
tp667
a(S'frequency'
p668
S'frequency'
p669
S'NN'
p670
S'I-NP'
p671
g5
tp672
a(g32
g32
g32
g5
g5
tp673
a(S'while'
p674
S'while'
p675
S'IN'
p676
S'B-SBAR'
p677
g5
tp678
a(S'associative'
p679
S'associative'
p680
S'JJ'
p681
S'B-NP'
p682
g5
tp683
a(S'therapy'
p684
S'therapy'
p685
S'NN'
p686
S'I-NP'
p687
g5
tp688
a(S'did'
p689
S'do'
p690
S'VBD'
p691
S'B-VP'
p692
g5
tp693
a(S'not'
p694
S'not'
p695
S'RB'
p696
S'I-VP'
p697
g5
tp698
a(S'affect'
p699
S'affect'
p700
S'VB'
p701
S'I-VP'
p702
g5
tp703
a(S'panic.'
p704
S'panic.'
p705
S'NN'
p706
S'B-NP'
p707
g5
tp708
a(S'Neither'
p709
S'Neither'
p710
S'CC'
p711
S'I-NP'
p712
g5
tp713
a(S'cognitive'
p714
S'cognitive'
p715
S'JJ'
p716
S'I-NP'
p717
g5
tp718
a(S'therapy'
p719
S'therapy'
p720
S'NN'
p721
S'I-NP'
p722
g5
tp723
a(S'alone'
p724
S'alone'
p725
S'RB'
p726
S'B-ADVP'
p727
g5
tp728
a(g32
g32
g32
g5
g5
tp729
a(S'nor'
p730
S'nor'
p731
S'CC'
p732
g5
g5
tp733
a(S'associate'
p734
S'associate'
p735
S'JJ'
p736
S'B-NP'
p737
g5
tp738
a(S'therapy'
p739
S'therapy'
p740
S'NN'
p741
S'I-NP'
p742
g5
tp743
a(S'alone'
p744
S'alone'
p745
S'RB'
p746
S'B-VP'
p747
g5
tp748
a(S'significantly'
p749
S'significantly'
p750
S'RB'
p751
S'I-VP'
p752
g5
tp753
a(S'reduced'
p754
S'reduce'
p755
S'VBD'
p756
S'I-VP'
p757
g5
tp758
a(S'depression'
p759
S'depression'
p760
S'NN'
p761
S'B-NP'
p762
g5
tp763
a(g32
g32
g32
S'I-NP'
p764
g5
tp765
a(S'state'
p766
S'state'
p767
S'NN'
p768
S'I-NP'
p769
g5
tp770
a(S'or'
p771
S'or'
p772
S'CC'
p773
S'I-NP'
p774
g5
tp775
a(S'trait'
p776
S'trait'
p777
S'NN'
p778
S'I-NP'
p779
g5
tp780
a(S'anxiety'
p781
S'anxiety'
p782
S'NN'
p783
S'I-NP'
p784
g5
tp785
a(g32
g32
g32
g5
g5
tp786
a(S'self-rated'
p787
S'self-rated'
p788
S'JJ'
p789
S'B-NP'
p790
g5
tp791
a(S'agoraphobia'
p792
S'agoraphobia'
p793
S'NN'
p794
S'I-NP'
p795
g5
tp796
a(S'or'
p797
S'or'
p798
S'CC'
p799
g5
g5
tp800
a(S'behavioral'
p801
S'behavioral'
p802
S'JJ'
p803
S'B-NP'
p804
g5
tp805
a(S'avoidance.'
p806
S'avoidance.'
p807
S'NN'
p808
S'I-NP'
p809
g5
tp810
a(S'After'
p811
S'After'
p812
S'IN'
p813
S'B-PP'
p814
g5
tp815
a(S'adding'
p816
S'add'
p817
S'VBG'
p818
S'B-VP'
p819
g5
tp820
a(S'exposure'
p821
S'exposure'
p822
S'NN'
p823
S'B-NP'
p824
g5
tp825
a(S'however'
p826
S'however'
p827
S'RB'
p828
S'B-ADVP'
p829
g5
tp830
a(g32
g32
g32
g5
g5
tp831
a(S'these'
p832
S'these'
p833
S'DT'
p834
S'B-NP'
p835
g5
tp836
a(S'parameters'
p837
S'parameter'
p838
S'NNS'
p839
S'I-NP'
p840
g5
tp841
a(S'were'
p842
S'be'
p843
S'VBD'
p844
S'B-VP'
p845
g5
tp846
a(S'clearly'
p847
S'clearly'
p848
S'RB'
p849
S'B-ADVP'
p850
g5
tp851
a(S'and'
p852
S'and'
p853
S'CC'
p854
g5
g5
tp855
a(S'significantly'
p856
S'significantly'
p857
S'RB'
p858
S'B-VP'
p859
g5
tp860
a(S'reduced.'
p861
S'reduced.'
p862
S'VB'
p863
S'I-VP'
p864
g5
tp865
a(S'Cognitive'
p866
S'Cognitive'
p867
S'JJ'
p868
S'B-NP'
p869
g5
tp870
a(S'therapy'
p871
S'therapy'
p872
S'NN'
p873
S'I-NP'
p874
g5
tp875
a(S'did'
p876
S'do'
p877
S'VBD'
p878
S'B-VP'
p879
g5
tp880
a(S'not'
p881
S'not'
p882
S'RB'
p883
S'I-VP'
p884
g5
tp885
a(S'potentiate'
p886
S'potentiate'
p887
S'VB'
p888
S'I-VP'
p889
g5
tp890
a(S'exposure'
p891
S'exposure'
p892
S'NN'
p893
S'B-NP'
p894
g5
tp895
a(S'effects.'
p896
S'effects.'
p897
S'NNS'
p898
S'I-NP'
p899
g5
tp900
a(S'The'
p901
S'The'
p902
S'DT'
p903
S'B-NP'
p904
g5
tp905
a(S'results'
p906
S'result'
p907
S'NNS'
p908
S'I-NP'
p909
g5
tp910
a(S'are'
p911
S'be'
p912
S'VBP'
p913
S'B-VP'
p914
g5
tp915
a(S'discussed'
p916
S'discuss'
p917
S'VBN'
p918
S'I-VP'
p919
g5
tp920
a(g73
g73
g73
g5
g5
tp921
a.