(lp0
(S'18F-FDG'
p1
S'18F-FDG'
p2
S'JJ'
p3
S'B-NP'
p4
S'O'
p5
tp6
a(S'PET/CT'
p7
S'PET/CT'
p8
S'NN'
p9
S'I-NP'
p10
g5
tp11
a(S'for'
p12
S'for'
p13
S'IN'
p14
S'B-PP'
p15
g5
tp16
a(S'early'
p17
S'early'
p18
S'JJ'
p19
S'B-NP'
p20
g5
tp21
a(S'prediction'
p22
S'prediction'
p23
S'NN'
p24
S'I-NP'
p25
g5
tp26
a(S'of'
p27
S'of'
p28
S'IN'
p29
S'B-PP'
p30
g5
tp31
a(S'response'
p32
S'response'
p33
S'NN'
p34
S'B-NP'
p35
g5
tp36
a(S'to'
p37
S'to'
p38
S'TO'
p39
S'B-PP'
p40
g5
tp41
a(S'neoadjuvant'
p42
S'neoadjuvant'
p43
S'JJ'
p44
S'B-NP'
p45
g5
tp46
a(S'lapatinib'
p47
S'lapatinib'
p48
S'NN'
p49
S'I-NP'
p50
g5
tp51
a(S','
p52
g52
g52
g5
g5
tp53
a(S'trastuzumab'
p54
S'trastuzumab'
p55
S'NN'
p56
S'B-NP'
p57
S'B-protein'
p58
tp59
a(g52
g52
g52
g5
g5
tp60
a(S'and'
p61
S'and'
p62
S'CC'
p63
g5
g5
tp64
a(S'their'
p65
S'their'
p66
S'PRP$'
p67
S'B-NP'
p68
g5
tp69
a(S'combination'
p70
S'combination'
p71
S'NN'
p72
S'I-NP'
p73
g5
tp74
a(S'in'
p75
S'in'
p76
S'IN'
p77
S'B-PP'
p78
g5
tp79
a(S'HER2-positive'
p80
S'HER2-positive'
p81
S'JJ'
p82
S'B-NP'
p83
g5
tp84
a(S'breast'
p85
S'breast'
p86
S'NN'
p87
S'I-NP'
p88
g5
tp89
a(S'cancer'
p90
S'cancer'
p91
S'NN'
p92
S'I-NP'
p93
g5
tp94
a(S':'
p95
g95
g95
g5
g5
tp96
a(S'results'
p97
S'result'
p98
S'NNS'
p99
S'B-NP'
p100
g5
tp101
a(S'from'
p102
S'from'
p103
S'IN'
p104
S'B-PP'
p105
g5
tp106
a(S'Neo-ALTTO'
p107
S'Neo-ALTTO'
p108
S'NN'
p109
S'B-NP'
p110
S'B-protein'
p111
tp112
a(S'.'
p113
g113
g113
g5
g5
tp114
a(S'UNLABELLED'
p115
S'UNLABELLED'
p116
S'VBN'
p117
S'B-NP'
p118
g5
tp119
a(S'Molecular'
p120
S'Molecular'
p121
S'JJ'
p122
S'I-NP'
p123
g5
tp124
a(S'imaging'
p125
S'imaging'
p126
S'NN'
p127
S'I-NP'
p128
g5
tp129
a(S'receives'
p130
S'receive'
p131
S'VBZ'
p132
S'B-VP'
p133
g5
tp134
a(S'increased'
p135
S'increase'
p136
S'VBN'
p137
S'B-NP'
p138
g5
tp139
a(S'attention'
p140
S'attention'
p141
S'NN'
p142
S'I-NP'
p143
g5
tp144
a(S'for'
p145
S'for'
p146
S'IN'
p147
S'B-PP'
p148
g5
tp149
a(S'selecting'
p150
S'select'
p151
S'VBG'
p152
S'B-VP'
p153
g5
tp154
a(S'patients'
p155
S'patient'
p156
S'NNS'
p157
S'B-NP'
p158
g5
tp159
a(S'who'
p160
S'who'
p161
S'WP'
p162
S'B-NP'
p163
g5
tp164
a(S'will'
p165
S'will'
p166
S'MD'
p167
S'B-VP'
p168
g5
tp169
a(S'benefit'
p170
S'benefit'
p171
S'VB'
p172
S'I-VP'
p173
g5
tp174
a(S'from'
p175
S'from'
p176
S'IN'
p177
S'B-PP'
p178
g5
tp179
a(S'targeted'
p180
S'target'
p181
S'VBN'
p182
S'B-NP'
p183
g5
tp184
a(S'anticancer'
p185
S'anticancer'
p186
S'JJ'
p187
S'I-NP'
p188
g5
tp189
a(S'therapies.'
p190
S'therapies.'
p191
S'NN'
p192
S'I-NP'
p193
g5
tp194
a(S'Neo-ALTTO'
p195
S'Neo-ALTTO'
p196
S'NN'
p197
S'I-NP'
p198
g5
tp199
a(S'('
p200
g200
g200
g5
g5
tp201
a(S'Neoadjuvant'
p202
S'Neoadjuvant'
p203
S'JJ'
p204
S'B-NP'
p205
g5
tp206
a(S'Lapatinib'
p207
S'Lapatinib'
p208
S'NN'
p209
S'I-NP'
p210
g5
tp211
a(S'and/or'
p212
S'and/or'
p213
S'CC'
p214
S'I-NP'
p215
g5
tp216
a(S'Trastuzumab'
p217
S'Trastuzumab'
p218
S'NN'
p219
S'I-NP'
p220
S'B-protein'
p221
tp222
a(S'Treatment'
p223
S'Treatment'
p224
S'NN'
p225
S'I-NP'
p226
g5
tp227
a(S'Optimisation'
p228
S'Optimisation'
p229
S'NN'
p230
S'I-NP'
p231
g5
tp232
a(S')'
p233
g233
g233
g5
g5
tp234
a(S'enrolled'
p235
S'enrol'
p236
S'VBD'
p237
S'B-VP'
p238
g5
tp239
a(S'455'
p240
S'455'
p241
S'CD'
p242
S'B-NP'
p243
g5
tp244
a(S'women'
p245
S'woman'
p246
S'NNS'
p247
S'I-NP'
p248
g5
tp249
a(S'with'
p250
S'with'
p251
S'IN'
p252
S'B-PP'
p253
g5
tp254
a(S'invasive'
p255
S'invasive'
p256
S'JJ'
p257
S'B-NP'
p258
S'B-protein'
p259
tp260
a(S'human'
p261
S'human'
p262
S'JJ'
p263
S'I-NP'
p264
S'I-protein'
p265
tp266
a(S'epidermal'
p267
S'epidermal'
p268
S'JJ'
p269
S'I-NP'
p270
S'I-protein'
p271
tp272
a(S'growth'
p273
S'growth'
p274
S'NN'
p275
S'I-NP'
p276
S'I-protein'
p277
tp278
a(S'factor'
p279
S'factor'
p280
S'NN'
p281
S'I-NP'
p282
S'I-protein'
p283
tp284
a(S'receptor'
p285
S'receptor'
p286
S'NN'
p287
S'I-NP'
p288
S'I-protein'
p289
tp290
a(S'2'
p291
g291
S'CD'
p292
S'I-NP'
p293
S'I-protein'
p294
tp295
a(g200
g200
g200
S'I-NP'
p296
g5
tp297
a(S'HER2'
p298
S'HER2'
p299
S'NN'
p300
S'I-NP'
p301
S'B-protein'
p302
tp303
a(g233
g233
g233
S'I-NP'
p304
g5
tp305
a(S'-positive'
p306
S'-positive'
p307
S'JJ'
p308
S'I-NP'
p309
g5
tp310
a(S'breast'
p311
S'breast'
p312
S'NN'
p313
S'I-NP'
p314
g5
tp315
a(S'cancer'
p316
S'cancer'
p317
S'NN'
p318
S'I-NP'
p319
g5
tp320
a(S'and'
p321
S'and'
p322
S'CC'
p323
g5
g5
tp324
a(S'compared'
p325
S'compare'
p326
S'VBN'
p327
S'B-NP'
p328
g5
tp329
a(S'rates'
p330
S'rate'
p331
S'NNS'
p332
S'I-NP'
p333
g5
tp334
a(S'of'
p335
S'of'
p336
S'IN'
p337
S'B-PP'
p338
g5
tp339
a(S'pathologic'
p340
S'pathologic'
p341
S'JJ'
p342
S'B-NP'
p343
g5
tp344
a(S'complete'
p345
S'complete'
p346
S'JJ'
p347
S'I-NP'
p348
g5
tp349
a(S'response'
p350
S'response'
p351
S'NN'
p352
S'I-NP'
p353
g5
tp354
a(g200
g200
g200
g5
g5
tp355
a(S'pCR'
p356
S'pCR'
p357
S'NN'
p358
S'B-NP'
p359
g5
tp360
a(g233
g233
g233
g5
g5
tp361
a(S'to'
p362
S'to'
p363
S'TO'
p364
S'B-PP'
p365
g5
tp366
a(S'neoadjuvant'
p367
S'neoadjuvant'
p368
S'JJ'
p369
S'B-NP'
p370
g5
tp371
a(S'lapatinib'
p372
S'lapatinib'
p373
S'NN'
p374
S'I-NP'
p375
g5
tp376
a(g52
g52
g52
g5
g5
tp377
a(S'trastuzumab'
p378
S'trastuzumab'
p379
S'NN'
p380
S'B-NP'
p381
S'B-protein'
p382
tp383
a(g52
g52
g52
g5
g5
tp384
a(S'and'
p385
S'and'
p386
S'CC'
p387
g5
g5
tp388
a(S'their'
p389
S'their'
p390
S'PRP$'
p391
S'B-NP'
p392
g5
tp393
a(S'combination.'
p394
S'combination.'
p395
S'FW'
p396
S'I-NP'
p397
g5
tp398
a(S'Each'
p399
S'Each'
p400
S'DT'
p401
S'B-NP'
p402
g5
tp403
a(S'anti-HER2'
p404
S'anti-HER2'
p405
S'JJ'
p406
S'I-NP'
p407
g5
tp408
a(S'therapy'
p409
S'therapy'
p410
S'NN'
p411
S'I-NP'
p412
g5
tp413
a(S'was'
p414
S'be'
p415
S'VBD'
p416
S'B-VP'
p417
g5
tp418
a(S'given'
p419
S'give'
p420
S'VBN'
p421
S'I-VP'
p422
g5
tp423
a(S'alone'
p424
S'alone'
p425
S'RB'
p426
S'B-ADVP'
p427
g5
tp428
a(S'for'
p429
S'for'
p430
S'IN'
p431
S'B-PP'
p432
g5
tp433
a(S'6'
p434
g434
S'CD'
p435
S'B-NP'
p436
g5
tp437
a(S'wk'
p438
S'wk'
p439
S'NN'
p440
S'I-NP'
p441
g5
tp442
a(g52
g52
g52
g5
g5
tp443
a(S'followed'
p444
S'follow'
p445
S'VBN'
p446
S'B-VP'
p447
g5
tp448
a(S'by'
p449
S'by'
p450
S'IN'
p451
S'B-PP'
p452
g5
tp453
a(S'12'
p454
S'12'
p455
S'CD'
p456
S'B-NP'
p457
g5
tp458
a(S'wk'
p459
S'wk'
p460
S'NN'
p461
S'I-NP'
p462
g5
tp463
a(S'of'
p464
S'of'
p465
S'IN'
p466
S'B-PP'
p467
g5
tp468
a(S'the'
p469
S'the'
p470
S'DT'
p471
S'B-NP'
p472
g5
tp473
a(S'same'
p474
S'same'
p475
S'JJ'
p476
S'I-NP'
p477
g5
tp478
a(S'therapy'
p479
S'therapy'
p480
S'NN'
p481
S'I-NP'
p482
g5
tp483
a(S'plus'
p484
S'plus'
p485
S'CC'
p486
g5
g5
tp487
a(S'weekly'
p488
S'weekly'
p489
S'JJ'
p490
S'B-NP'
p491
g5
tp492
a(S'paclitaxel.'
p493
S'paclitaxel.'
p494
S'NN'
p495
S'I-NP'
p496
g5
tp497
a(S'The'
p498
S'The'
p499
S'DT'
p500
S'B-NP'
p501
g5
tp502
a(S'early'
p503
S'early'
p504
S'JJ'
p505
S'I-NP'
p506
g5
tp507
a(S'metabolic'
p508
S'metabolic'
p509
S'JJ'
p510
S'I-NP'
p511
g5
tp512
a(S'effects'
p513
S'effect'
p514
S'NNS'
p515
S'I-NP'
p516
g5
tp517
a(S'of'
p518
S'of'
p519
S'IN'
p520
S'B-PP'
p521
g5
tp522
a(S'the'
p523
S'the'
p524
S'DT'
p525
S'B-NP'
p526
g5
tp527
a(S'anti-HER2'
p528
S'anti-HER2'
p529
S'JJ'
p530
S'I-NP'
p531
g5
tp532
a(S'therapies'
p533
S'therapy'
p534
S'NNS'
p535
S'I-NP'
p536
g5
tp537
a(S'on'
p538
S'on'
p539
S'IN'
p540
S'B-PP'
p541
g5
tp542
a(S'the'
p543
S'the'
p544
S'DT'
p545
S'B-NP'
p546
g5
tp547
a(S'primary'
p548
S'primary'
p549
S'JJ'
p550
S'I-NP'
p551
g5
tp552
a(S'tumors'
p553
S'tumor'
p554
S'NNS'
p555
S'I-NP'
p556
g5
tp557
a(S'and'
p558
S'and'
p559
S'CC'
p560
g5
g5
tp561
a(S'their'
p562
S'their'
p563
S'PRP$'
p564
S'B-NP'
p565
g5
tp566
a(S'predictive'
p567
S'predictive'
p568
S'JJ'
p569
S'I-NP'
p570
g5
tp571
a(S'values'
p572
S'value'
p573
S'NNS'
p574
S'I-NP'
p575
g5
tp576
a(S'for'
p577
S'for'
p578
S'IN'
p579
S'B-PP'
p580
g5
tp581
a(S'pCR'
p582
S'pCR'
p583
S'NN'
p584
S'B-NP'
p585
g5
tp586
a(S'were'
p587
S'be'
p588
S'VBD'
p589
S'B-VP'
p590
g5
tp591
a(S'assessed'
p592
S'assess'
p593
S'VBN'
p594
S'I-VP'
p595
g5
tp596
a(S'in'
p597
S'in'
p598
S'IN'
p599
S'B-PP'
p600
g5
tp601
a(S'a'
p602
g602
S'DT'
p603
S'B-NP'
p604
g5
tp605
a(S'subset'
p606
S'subset'
p607
S'NN'
p608
S'I-NP'
p609
g5
tp610
a(S'of'
p611
S'of'
p612
S'IN'
p613
S'B-PP'
p614
g5
tp615
a(S'patients'
p616
S'patient'
p617
S'NNS'
p618
S'B-NP'
p619
g5
tp620
a(g113
g113
g113
g5
g5
tp621
a(S'METHODS'
p622
S'METHODS'
p623
S'NNS'
p624
S'B-NP'
p625
g5
tp626
a(S'Eighty-six'
p627
S'Eighty-six'
p628
S'CD'
p629
S'B-NP'
p630
g5
tp631
a(S'patients'
p632
S'patient'
p633
S'NNS'
p634
S'I-NP'
p635
g5
tp636
a(S'underwent'
p637
S'undergo'
p638
S'VBD'
p639
S'B-VP'
p640
g5
tp641
a(g200
g200
g200
g5
g5
tp642
a(S'18'
p643
S'18'
p644
S'CD'
p645
g5
g5
tp646
a(g233
g233
g233
g5
g5
tp647
a(S'F-FDG'
p648
S'F-FDG'
p649
S'NN'
p650
S'B-NP'
p651
g5
tp652
a(S'PET/CT'
p653
S'PET/CT'
p654
S'NN'
p655
S'I-NP'
p656
g5
tp657
a(S'at'
p658
S'at'
p659
S'IN'
p660
S'B-PP'
p661
g5
tp662
a(S'baseline'
p663
S'baseline'
p664
S'NN'
p665
S'B-NP'
p666
g5
tp667
a(S'and'
p668
S'and'
p669
S'CC'
p670
S'I-NP'
p671
g5
tp672
a(S'weeks'
p673
S'week'
p674
S'NNS'
p675
S'I-NP'
p676
g5
tp677
a(g291
g291
S'CD'
p678
S'I-NP'
p679
g5
tp680
a(S'and'
p681
S'and'
p682
S'CC'
p683
S'I-NP'
p684
g5
tp685
a(g434
g434
S'CD'
p686
S'I-NP'
p687
g5
tp688
a(S'of'
p689
S'of'
p690
S'IN'
p691
S'B-PP'
p692
g5
tp693
a(S'anti-HER2'
p694
S'anti-HER2'
p695
S'JJ'
p696
S'B-NP'
p697
g5
tp698
a(S'treatment.'
p699
S'treatment.'
p700
S'NN'
p701
S'I-NP'
p702
g5
tp703
a(S'An'
p704
S'An'
p705
S'DT'
p706
S'B-NP'
p707
g5
tp708
a(S'imaging'
p709
S'image'
p710
S'VBG'
p711
S'I-NP'
p712
g5
tp713
a(S'core'
p714
S'core'
p715
S'NN'
p716
S'I-NP'
p717
g5
tp718
a(S'laboratory'
p719
S'laboratory'
p720
S'NN'
p721
S'I-NP'
p722
g5
tp723
a(S'provided'
p724
S'provide'
p725
S'VBD'
p726
S'B-VP'
p727
g5
tp728
a(S'central'
p729
S'central'
p730
S'JJ'
p731
S'B-NP'
p732
g5
tp733
a(S'validation'
p734
S'validation'
p735
S'NN'
p736
S'I-NP'
p737
g5
tp738
a(g52
g52
g52
g5
g5
tp739
a(S'and'
p740
S'and'
p741
S'CC'
p742
g5
g5
tp743
a(g291
g291
S'CD'
p744
S'B-NP'
p745
g5
tp746
a(S'independent'
p747
S'independent'
p748
S'JJ'
p749
S'I-NP'
p750
g5
tp751
a(S'reviewers'
p752
S'reviewer'
p753
S'NNS'
p754
S'I-NP'
p755
g5
tp756
a(g52
g52
g52
g5
g5
tp757
a(S'masked'
p758
S'mask'
p759
S'VBD'
p760
S'B-VP'
p761
g5
tp762
a(S'to'
p763
S'to'
p764
S'TO'
p765
S'B-PP'
p766
g5
tp767
a(S'assigned'
p768
S'assign'
p769
S'VBN'
p770
S'B-NP'
p771
g5
tp772
a(S'treatment'
p773
S'treatment'
p774
S'NN'
p775
S'I-NP'
p776
g5
tp777
a(S'arm'
p778
S'arm'
p779
S'NN'
p780
S'I-NP'
p781
g5
tp782
a(S'and'
p783
S'and'
p784
S'CC'
p785
g5
g5
tp786
a(S'clinical'
p787
S'clinical'
p788
S'JJ'
p789
S'B-NP'
p790
g5
tp791
a(S'outcomes'
p792
S'outcome'
p793
S'NNS'
p794
S'I-NP'
p795
g5
tp796
a(g52
g52
g52
g5
g5
tp797
a(S'performed'
p798
S'perform'
p799
S'VBN'
p800
S'B-NP'
p801
g5
tp802
a(S'consensus'
p803
S'consensus'
p804
S'NN'
p805
S'I-NP'
p806
g5
tp807
a(g200
g200
g200
g5
g5
tp808
a(S'18'
p809
S'18'
p810
S'CD'
p811
S'B-NP'
p812
g5
tp813
a(g233
g233
g233
g5
g5
tp814
a(S'F-FDG'
p815
S'F-FDG'
p816
S'NN'
p817
S'B-NP'
p818
g5
tp819
a(S'PET/CT'
p820
S'PET/CT'
p821
S'NN'
p822
S'I-NP'
p823
g5
tp824
a(S'readings.'
p825
S'readings.'
p826
S'NN'
p827
S'I-NP'
p828
g5
tp829
a(S'Maximum'
p830
S'Maximum'
p831
S'NNP'
p832
S'I-NP'
p833
g5
tp834
a(S'standardized'
p835
S'standardize'
p836
S'VBD'
p837
S'B-VP'
p838
g5
tp839
a(S'uptake'
p840
S'uptake'
p841
S'NN'
p842
S'B-NP'
p843
g5
tp844
a(S'value'
p845
S'value'
p846
S'NN'
p847
S'I-NP'
p848
g5
tp849
a(g200
g200
g200
g5
g5
tp850
a(S'SUVmax'
p851
S'SUVmax'
p852
S'NN'
p853
S'B-NP'
p854
g5
tp855
a(g233
g233
g233
g5
g5
tp856
a(S'reductions'
p857
S'reduction'
p858
S'NNS'
p859
S'B-NP'
p860
g5
tp861
a(S'from'
p862
S'from'
p863
S'IN'
p864
S'B-PP'
p865
g5
tp866
a(S'baseline'
p867
S'baseline'
p868
S'NN'
p869
S'B-NP'
p870
g5
tp871
a(S'were'
p872
S'be'
p873
S'VBD'
p874
S'B-VP'
p875
g5
tp876
a(S'used'
p877
S'use'
p878
S'VBN'
p879
S'I-VP'
p880
g5
tp881
a(S'to'
p882
S'to'
p883
S'TO'
p884
S'B-VP'
p885
g5
tp886
a(S'measure'
p887
S'measure'
p888
S'VB'
p889
S'I-VP'
p890
g5
tp891
a(S'metabolic'
p892
S'metabolic'
p893
S'JJ'
p894
S'B-NP'
p895
g5
tp896
a(S'response'
p897
S'response'
p898
S'NN'
p899
S'I-NP'
p900
g5
tp901
a(g113
g113
g113
g5
g5
tp902
a(S'RESULTS'
p903
S'RESULTS'
p904
S'NNS'
p905
S'B-NP'
p906
g5
tp907
a(S'Seventy-seven'
p908
S'Seventy-seven'
p909
S'CD'
p910
S'B-NP'
p911
g5
tp912
a(S'of'
p913
S'of'
p914
S'IN'
p915
S'B-PP'
p916
g5
tp917
a(S'the'
p918
S'the'
p919
S'DT'
p920
S'B-NP'
p921
g5
tp922
a(S'86'
p923
S'86'
p924
S'CD'
p925
S'I-NP'
p926
g5
tp927
a(S'enrolled'
p928
S'enrol'
p929
S'VBN'
p930
S'I-NP'
p931
g5
tp932
a(S'patients'
p933
S'patient'
p934
S'NNS'
p935
S'I-NP'
p936
g5
tp937
a(S'presented'
p938
S'present'
p939
S'VBD'
p940
S'B-VP'
p941
g5
tp942
a(S'an'
p943
S'an'
p944
S'DT'
p945
S'B-NP'
p946
g5
tp947
a(S'evaluable'
p948
S'evaluable'
p949
S'JJ'
p950
S'I-NP'
p951
g5
tp952
a(S'baseline'
p953
S'baseline'
p954
S'NN'
p955
S'I-NP'
p956
g5
tp957
a(g200
g200
g200
g5
g5
tp958
a(S'18'
p959
S'18'
p960
S'CD'
p961
S'B-NP'
p962
g5
tp963
a(g233
g233
g233
g5
g5
tp964
a(S'F-FDG'
p965
S'F-FDG'
p966
S'NN'
p967
S'B-NP'
p968
g5
tp969
a(S'PET/CT'
p970
S'PET/CT'
p971
S'NN'
p972
S'I-NP'
p973
g5
tp974
a(S'scan'
p975
S'scan'
p976
S'NN'
p977
S'I-NP'
p978
g5
tp979
a(S';'
p980
g980
g95
g5
g5
tp981
a(S'of'
p982
S'of'
p983
S'IN'
p984
S'B-PP'
p985
g5
tp986
a(S'these'
p987
S'these'
p988
S'DT'
p989
S'B-NP'
p990
g5
tp991
a(g52
g52
g52
g5
g5
tp992
a(S'68'
p993
S'68'
p994
S'CD'
p995
S'B-NP'
p996
g5
tp997
a(S'and'
p998
S'and'
p999
S'CC'
p1000
S'I-NP'
p1001
g5
tp1002
a(S'66'
p1003
S'66'
p1004
S'CD'
p1005
S'I-NP'
p1006
g5
tp1007
a(S'were'
p1008
S'be'
p1009
S'VBD'
p1010
S'B-VP'
p1011
g5
tp1012
a(S'evaluable'
p1013
S'evaluable'
p1014
S'JJ'
p1015
S'B-ADJP'
p1016
g5
tp1017
a(S'at'
p1018
S'at'
p1019
S'IN'
p1020
S'B-PP'
p1021
g5
tp1022
a(S'weeks'
p1023
S'week'
p1024
S'NNS'
p1025
S'B-NP'
p1026
g5
tp1027
a(g291
g291
S'CD'
p1028
S'B-NP'
p1029
g5
tp1030
a(S'and'
p1031
S'and'
p1032
S'CC'
p1033
S'I-NP'
p1034
g5
tp1035
a(g434
g434
S'CD'
p1036
S'I-NP'
p1037
g5
tp1038
a(g52
g52
g52
g5
g5
tp1039
a(S'respectively.'
p1040
S'respectively.'
p1041
S'JJ'
p1042
S'B-NP'
p1043
g5
tp1044
a(S'Metabolic'
p1045
S'Metabolic'
p1046
S'JJ'
p1047
S'I-NP'
p1048
g5
tp1049
a(S'responses'
p1050
S'response'
p1051
S'NNS'
p1052
S'I-NP'
p1053
g5
tp1054
a(S'in'
p1055
S'in'
p1056
S'IN'
p1057
S'B-PP'
p1058
g5
tp1059
a(S'the'
p1060
S'the'
p1061
S'DT'
p1062
S'B-NP'
p1063
g5
tp1064
a(S'primary'
p1065
S'primary'
p1066
S'JJ'
p1067
S'I-NP'
p1068
g5
tp1069
a(S'tumors'
p1070
S'tumor'
p1071
S'NNS'
p1072
S'I-NP'
p1073
g5
tp1074
a(S'were'
p1075
S'be'
p1076
S'VBD'
p1077
S'B-VP'
p1078
g5
tp1079
a(S'evident'
p1080
S'evident'
p1081
S'JJ'
p1082
S'B-ADJP'
p1083
g5
tp1084
a(S'after'
p1085
S'after'
p1086
S'IN'
p1087
S'B-PP'
p1088
g5
tp1089
a(g291
g291
S'CD'
p1090
S'B-NP'
p1091
g5
tp1092
a(S'wk'
p1093
S'wk'
p1094
S'NN'
p1095
S'I-NP'
p1096
g5
tp1097
a(S'of'
p1098
S'of'
p1099
S'IN'
p1100
S'B-PP'
p1101
g5
tp1102
a(S'targeted'
p1103
S'target'
p1104
S'VBN'
p1105
S'B-NP'
p1106
g5
tp1107
a(S'therapy'
p1108
S'therapy'
p1109
S'NN'
p1110
S'I-NP'
p1111
g5
tp1112
a(S'and'
p1113
S'and'
p1114
S'CC'
p1115
g5
g5
tp1116
a(S'correlated'
p1117
S'correlate'
p1118
S'VBD'
p1119
S'B-VP'
p1120
g5
tp1121
a(S'highly'
p1122
S'highly'
p1123
S'RB'
p1124
S'B-ADVP'
p1125
g5
tp1126
a(S'with'
p1127
S'with'
p1128
S'IN'
p1129
S'B-PP'
p1130
g5
tp1131
a(S'metabolic'
p1132
S'metabolic'
p1133
S'JJ'
p1134
S'B-NP'
p1135
g5
tp1136
a(S'responses'
p1137
S'response'
p1138
S'NNS'
p1139
S'I-NP'
p1140
g5
tp1141
a(S'at'
p1142
S'at'
p1143
S'IN'
p1144
S'B-PP'
p1145
g5
tp1146
a(S'week'
p1147
S'week'
p1148
S'NN'
p1149
S'B-NP'
p1150
g5
tp1151
a(g434
g434
S'CD'
p1152
S'I-NP'
p1153
g5
tp1154
a(g200
g200
g200
g5
g5
tp1155
a(S'R'
p1156
g1156
S'NN'
p1157
S'B-NP'
p1158
g5
tp1159
a(g200
g200
g200
g5
g5
tp1160
a(g291
g291
S'CD'
p1161
S'B-NP'
p1162
g5
tp1163
a(g233
g233
g233
g5
g5
tp1164
a(S'='
p1165
g1165
S'SYM'
p1166
S'B-VP'
p1167
g5
tp1168
a(S'0.81'
p1169
S'0.81'
p1170
S'CD'
p1171
S'B-NP'
p1172
g5
tp1173
a(g233
g233
g233
g5
g5
tp1174
a(g113
g113
g113
g5
g5
tp1175
a(S'pCRs'
p1176
S'pCR'
p1177
S'NNS'
p1178
S'B-NP'
p1179
g5
tp1180
a(S'were'
p1181
S'be'
p1182
S'VBD'
p1183
S'B-VP'
p1184
g5
tp1185
a(S'associated'
p1186
S'associate'
p1187
S'VBN'
p1188
S'I-VP'
p1189
g5
tp1190
a(S'with'
p1191
S'with'
p1192
S'IN'
p1193
S'B-PP'
p1194
g5
tp1195
a(S'greater'
p1196
S'great'
p1197
S'JJR'
p1198
S'B-NP'
p1199
g5
tp1200
a(S'SUVmax'
p1201
S'SUVmax'
p1202
S'NN'
p1203
S'I-NP'
p1204
g5
tp1205
a(S'reductions'
p1206
S'reduction'
p1207
S'NNS'
p1208
S'I-NP'
p1209
g5
tp1210
a(S'at'
p1211
S'at'
p1212
S'IN'
p1213
S'B-PP'
p1214
g5
tp1215
a(S'both'
p1216
S'both'
p1217
S'CC'
p1218
g5
g5
tp1219
a(S'time'
p1220
S'time'
p1221
S'NN'
p1222
S'B-NP'
p1223
g5
tp1224
a(S'points.'
p1225
S'points.'
p1226
S'NN'
p1227
S'I-NP'
p1228
g5
tp1229
a(S'Mean'
p1230
S'Mean'
p1231
S'NN'
p1232
S'I-NP'
p1233
g5
tp1234
a(S'SUVmax'
p1235
S'SUVmax'
p1236
S'NN'
p1237
S'I-NP'
p1238
g5
tp1239
a(S'reductions'
p1240
S'reduction'
p1241
S'NNS'
p1242
S'I-NP'
p1243
g5
tp1244
a(S'for'
p1245
S'for'
p1246
S'IN'
p1247
S'B-PP'
p1248
g5
tp1249
a(S'pCR'
p1250
S'pCR'
p1251
S'NN'
p1252
S'B-NP'
p1253
g5
tp1254
a(S'and'
p1255
S'and'
p1256
S'CC'
p1257
S'I-NP'
p1258
g5
tp1259
a(S'non-pCR'
p1260
S'non-pCR'
p1261
S'NN'
p1262
S'I-NP'
p1263
g5
tp1264
a(g52
g52
g52
g5
g5
tp1265
a(S'respectively'
p1266
S'respectively'
p1267
S'RB'
p1268
S'B-ADVP'
p1269
g5
tp1270
a(g52
g52
g52
g5
g5
tp1271
a(S'were'
p1272
S'be'
p1273
S'VBD'
p1274
S'B-VP'
p1275
g5
tp1276
a(S'54.3'
p1277
S'54.3'
p1278
S'CD'
p1279
S'B-NP'
p1280
g5
tp1281
a(S'%'
p1282
g1282
S'NN'
p1283
S'I-NP'
p1284
g5
tp1285
a(S'versus'
p1286
S'versus'
p1287
S'IN'
p1288
S'B-PP'
p1289
g5
tp1290
a(S'32.8'
p1291
S'32.8'
p1292
S'CD'
p1293
S'B-NP'
p1294
g5
tp1295
a(g1282
g1282
S'NN'
p1296
S'I-NP'
p1297
g5
tp1298
a(S'at'
p1299
S'at'
p1300
S'IN'
p1301
S'B-PP'
p1302
g5
tp1303
a(S'week'
p1304
S'week'
p1305
S'NN'
p1306
S'B-NP'
p1307
g5
tp1308
a(g291
g291
S'CD'
p1309
S'I-NP'
p1310
g5
tp1311
a(g200
g200
g200
g5
g5
tp1312
a(S'P'
p1313
g1313
S'NN'
p1314
S'B-NP'
p1315
g5
tp1316
a(g1165
g1165
S'SYM'
p1317
S'B-VP'
p1318
g5
tp1319
a(S'0.02'
p1320
S'0.02'
p1321
S'CD'
p1322
S'B-NP'
p1323
g5
tp1324
a(g233
g233
g233
g5
g5
tp1325
a(S'and'
p1326
S'and'
p1327
S'CC'
p1328
g5
g5
tp1329
a(S'61.5'
p1330
S'61.5'
p1331
S'CD'
p1332
S'B-NP'
p1333
g5
tp1334
a(g1282
g1282
S'NN'
p1335
S'I-NP'
p1336
g5
tp1337
a(S'versus'
p1338
S'versus'
p1339
S'IN'
p1340
S'B-PP'
p1341
g5
tp1342
a(S'34.1'
p1343
S'34.1'
p1344
S'CD'
p1345
S'B-NP'
p1346
g5
tp1347
a(g1282
g1282
S'NN'
p1348
S'I-NP'
p1349
g5
tp1350
a(S'at'
p1351
S'at'
p1352
S'IN'
p1353
S'B-PP'
p1354
g5
tp1355
a(S'week'
p1356
S'week'
p1357
S'NN'
p1358
S'B-NP'
p1359
g5
tp1360
a(g434
g434
S'CD'
p1361
S'I-NP'
p1362
g5
tp1363
a(g200
g200
g200
g5
g5
tp1364
a(g1313
g1313
S'NN'
p1365
S'B-NP'
p1366
g5
tp1367
a(g1165
g1165
S'SYM'
p1368
S'B-VP'
p1369
g5
tp1370
a(S'0.02'
p1371
S'0.02'
p1372
S'CD'
p1373
S'B-NP'
p1374
g5
tp1375
a(g233
g233
g233
g5
g5
tp1376
a(g113
g113
g113
g5
g5
tp1377
a(g200
g200
g200
g5
g5
tp1378
a(S'18'
p1379
S'18'
p1380
S'CD'
p1381
S'B-NP'
p1382
g5
tp1383
a(g233
g233
g233
g5
g5
tp1384
a(S'F-FDG'
p1385
S'F-FDG'
p1386
S'NN'
p1387
S'B-NP'
p1388
g5
tp1389
a(S'PET/CT'
p1390
S'PET/CT'
p1391
S'NN'
p1392
S'I-NP'
p1393
g5
tp1394
a(S'metabolic'
p1395
S'metabolic'
p1396
S'JJ'
p1397
S'I-NP'
p1398
g5
tp1399
a(S'response'
p1400
S'response'
p1401
S'NN'
p1402
S'I-NP'
p1403
g5
tp1404
a(S'rates'
p1405
S'rate'
p1406
S'NNS'
p1407
S'I-NP'
p1408
g5
tp1409
a(S'at'
p1410
S'at'
p1411
S'IN'
p1412
S'B-PP'
p1413
g5
tp1414
a(S'weeks'
p1415
S'week'
p1416
S'NNS'
p1417
S'B-NP'
p1418
g5
tp1419
a(g291
g291
S'CD'
p1420
S'I-NP'
p1421
g5
tp1422
a(S'and'
p1423
S'and'
p1424
S'CC'
p1425
S'I-NP'
p1426
g5
tp1427
a(g434
g434
S'CD'
p1428
S'I-NP'
p1429
g5
tp1430
a(S'were'
p1431
S'be'
p1432
S'VBD'
p1433
S'B-VP'
p1434
g5
tp1435
a(S'71.6'
p1436
S'71.6'
p1437
S'CD'
p1438
S'B-NP'
p1439
g5
tp1440
a(g1282
g1282
S'NN'
p1441
S'I-NP'
p1442
g5
tp1443
a(S'and'
p1444
S'and'
p1445
S'CC'
p1446
g5
g5
tp1447
a(S'60'
p1448
S'60'
p1449
S'CD'
p1450
S'B-NP'
p1451
g5
tp1452
a(g1282
g1282
S'NN'
p1453
S'I-NP'
p1454
g5
tp1455
a(g52
g52
g52
g5
g5
tp1456
a(S'respectively'
p1457
S'respectively'
p1458
S'RB'
p1459
S'B-ADVP'
p1460
g5
tp1461
a(S'using'
p1462
S'use'
p1463
S'VBG'
p1464
S'B-VP'
p1465
g5
tp1466
a(S'European'
p1467
S'European'
p1468
S'JJ'
p1469
S'B-NP'
p1470
g5
tp1471
a(S'Organization'
p1472
S'Organization'
p1473
S'NNP'
p1474
S'I-NP'
p1475
g5
tp1476
a(S'for'
p1477
S'for'
p1478
S'IN'
p1479
S'B-PP'
p1480
g5
tp1481
a(S'Research'
p1482
S'Research'
p1483
S'NNP'
p1484
S'B-NP'
p1485
g5
tp1486
a(S'and'
p1487
S'and'
p1488
S'CC'
p1489
S'I-NP'
p1490
g5
tp1491
a(S'Treatment'
p1492
S'Treatment'
p1493
S'NNP'
p1494
S'I-NP'
p1495
g5
tp1496
a(S'of'
p1497
S'of'
p1498
S'IN'
p1499
S'B-PP'
p1500
g5
tp1501
a(S'Cancer'
p1502
S'Cancer'
p1503
S'NNP'
p1504
S'B-NP'
p1505
g5
tp1506
a(S'criteria'
p1507
S'criterion'
p1508
S'NNS'
p1509
S'I-NP'
p1510
g5
tp1511
a(g980
g980
g95
g5
g5
tp1512
a(S'pCR'
p1513
S'pCR'
p1514
S'NN'
p1515
S'B-NP'
p1516
g5
tp1517
a(S'rates'
p1518
S'rate'
p1519
S'NNS'
p1520
S'I-NP'
p1521
g5
tp1522
a(S'were'
p1523
S'be'
p1524
S'VBD'
p1525
S'B-VP'
p1526
g5
tp1527
a(S'twice'
p1528
S'twice'
p1529
S'RB'
p1530
S'B-ADJP'
p1531
g5
tp1532
a(S'as'
p1533
S'as'
p1534
S'RB'
p1535
S'I-ADJP'
p1536
g5
tp1537
a(S'high'
p1538
S'high'
p1539
S'JJ'
p1540
S'I-ADJP'
p1541
g5
tp1542
a(S'for'
p1543
S'for'
p1544
S'IN'
p1545
S'B-PP'
p1546
g5
tp1547
a(g200
g200
g200
g5
g5
tp1548
a(S'18'
p1549
S'18'
p1550
S'CD'
p1551
S'B-NP'
p1552
g5
tp1553
a(g233
g233
g233
g5
g5
tp1554
a(S'F-FDG'
p1555
S'F-FDG'
p1556
S'NN'
p1557
S'B-NP'
p1558
g5
tp1559
a(S'PET/CT'
p1560
S'PET/CT'
p1561
S'NN'
p1562
S'I-NP'
p1563
g5
tp1564
a(S'responders'
p1565
S'responder'
p1566
S'NNS'
p1567
S'I-NP'
p1568
g5
tp1569
a(S'than'
p1570
S'than'
p1571
S'IN'
p1572
S'B-PP'
p1573
g5
tp1574
a(S'nonresponders'
p1575
S'nonresponder'
p1576
S'NNS'
p1577
S'B-NP'
p1578
g5
tp1579
a(g200
g200
g200
g5
g5
tp1580
a(S'week'
p1581
S'week'
p1582
S'NN'
p1583
S'B-NP'
p1584
g5
tp1585
a(g291
g291
S'CD'
p1586
S'I-NP'
p1587
g5
tp1588
a(g95
g95
g95
g5
g5
tp1589
a(S'42'
p1590
S'42'
p1591
S'CD'
p1592
S'B-NP'
p1593
g5
tp1594
a(g1282
g1282
S'NN'
p1595
S'I-NP'
p1596
g5
tp1597
a(S'vs.'
p1598
S'vs.'
p1599
S'IN'
p1600
S'B-PP'
p1601
g5
tp1602
a(S'21'
p1603
S'21'
p1604
S'CD'
p1605
S'B-NP'
p1606
g5
tp1607
a(g1282
g1282
S'NN'
p1608
S'I-NP'
p1609
g5
tp1610
a(g52
g52
g52
g5
g5
tp1611
a(g1313
g1313
S'NN'
p1612
S'B-NP'
p1613
g5
tp1614
a(g1165
g1165
S'SYM'
p1615
S'B-VP'
p1616
g5
tp1617
a(S'0.12'
p1618
S'0.12'
p1619
S'CD'
p1620
S'B-NP'
p1621
g5
tp1622
a(g980
g980
g95
g5
g5
tp1623
a(S'week'
p1624
S'week'
p1625
S'NN'
p1626
S'B-NP'
p1627
g5
tp1628
a(g434
g434
S'CD'
p1629
S'I-NP'
p1630
g5
tp1631
a(g95
g95
S'SYM'
p1632
g5
g5
tp1633
a(S'44'
p1634
S'44'
p1635
S'CD'
p1636
S'B-NP'
p1637
g5
tp1638
a(g1282
g1282
S'NN'
p1639
S'I-NP'
p1640
g5
tp1641
a(S'vs.'
p1642
S'vs.'
p1643
S'IN'
p1644
S'B-PP'
p1645
g5
tp1646
a(S'19'
p1647
S'19'
p1648
S'CD'
p1649
S'B-NP'
p1650
g5
tp1651
a(g1282
g1282
S'NN'
p1652
S'I-NP'
p1653
g5
tp1654
a(g52
g52
g52
g5
g5
tp1655
a(g1313
g1313
S'NN'
p1656
S'B-NP'
p1657
g5
tp1658
a(g1165
g1165
S'SYM'
p1659
S'B-VP'
p1660
g5
tp1661
a(S'0.05'
p1662
S'0.05'
p1663
S'CD'
p1664
S'B-NP'
p1665
g5
tp1666
a(g233
g233
g233
g5
g5
tp1667
a(g113
g113
g113
g5
g5
tp1668
a(S'CONCLUSION'
p1669
S'CONCLUSION'
p1670
S'NN'
p1671
S'B-NP'
p1672
g5
tp1673
a(S'Early'
p1674
S'Early'
p1675
S'RB'
p1676
S'B-NP'
p1677
g5
tp1678
a(S'metabolic'
p1679
S'metabolic'
p1680
S'JJ'
p1681
S'I-NP'
p1682
g5
tp1683
a(S'assessment'
p1684
S'assessment'
p1685
S'NN'
p1686
S'I-NP'
p1687
g5
tp1688
a(S'using'
p1689
S'use'
p1690
S'VBG'
p1691
S'B-VP'
p1692
g5
tp1693
a(g200
g200
g200
g5
g5
tp1694
a(S'18'
p1695
S'18'
p1696
S'CD'
p1697
S'B-NP'
p1698
g5
tp1699
a(g233
g233
g233
g5
g5
tp1700
a(S'F-FDG'
p1701
S'F-FDG'
p1702
S'NN'
p1703
S'B-NP'
p1704
g5
tp1705
a(S'PET/CT'
p1706
S'PET/CT'
p1707
S'NN'
p1708
S'I-NP'
p1709
g5
tp1710
a(S'can'
p1711
S'can'
p1712
S'MD'
p1713
S'B-VP'
p1714
g5
tp1715
a(S'identify'
p1716
S'identify'
p1717
S'VB'
p1718
S'I-VP'
p1719
g5
tp1720
a(S'patients'
p1721
S'patient'
p1722
S'NNS'
p1723
S'B-NP'
p1724
g5
tp1725
a(S'with'
p1726
S'with'
p1727
S'IN'
p1728
S'B-PP'
p1729
g5
tp1730
a(S'an'
p1731
S'an'
p1732
S'DT'
p1733
S'B-NP'
p1734
g5
tp1735
a(S'increased'
p1736
S'increase'
p1737
S'VBN'
p1738
S'I-NP'
p1739
g5
tp1740
a(S'likelihood'
p1741
S'likelihood'
p1742
S'NN'
p1743
S'I-NP'
p1744
g5
tp1745
a(S'of'
p1746
S'of'
p1747
S'IN'
p1748
S'B-PP'
p1749
g5
tp1750
a(S'pCR'
p1751
S'pCR'
p1752
S'NN'
p1753
S'B-NP'
p1754
g5
tp1755
a(S'after'
p1756
S'after'
p1757
S'IN'
p1758
S'B-PP'
p1759
g5
tp1760
a(S'neoadjuvant'
p1761
S'neoadjuvant'
p1762
S'JJ'
p1763
S'B-NP'
p1764
S'B-protein'
p1765
tp1766
a(S'trastuzumab'
p1767
S'trastuzumab'
p1768
S'NN'
p1769
S'I-NP'
p1770
S'I-protein'
p1771
tp1772
a(g52
g52
g52
g5
g5
tp1773
a(S'lapatinib'
p1774
S'lapatinib'
p1775
S'NN'
p1776
S'B-NP'
p1777
g5
tp1778
a(g52
g52
g52
g5
g5
tp1779
a(S'or'
p1780
S'or'
p1781
S'CC'
p1782
g5
g5
tp1783
a(S'their'
p1784
S'their'
p1785
S'PRP$'
p1786
S'B-NP'
p1787
g5
tp1788
a(S'combination'
p1789
S'combination'
p1790
S'NN'
p1791
S'I-NP'
p1792
g5
tp1793
a(S'when'
p1794
S'when'
p1795
S'WRB'
p1796
S'B-ADVP'
p1797
g5
tp1798
a(S'given'
p1799
S'give'
p1800
S'VBN'
p1801
S'B-VP'
p1802
g5
tp1803
a(S'with'
p1804
S'with'
p1805
S'IN'
p1806
S'B-PP'
p1807
g5
tp1808
a(S'chemotherapy'
p1809
S'chemotherapy'
p1810
S'NN'
p1811
S'B-NP'
p1812
g5
tp1813
a(g113
g113
g113
g5
g5
tp1814
a.