(lp0
(S'Comparison'
p1
S'Comparison'
p2
S'NN'
p3
S'B-NP'
p4
S'O'
p5
tp6
a(S'of'
p7
S'of'
p8
S'IN'
p9
S'B-PP'
p10
g5
tp11
a(S'postoperative'
p12
S'postoperative'
p13
S'JJ'
p14
S'B-NP'
p15
g5
tp16
a(S'short-term'
p17
S'short-term'
p18
S'JJ'
p19
S'I-NP'
p20
g5
tp21
a(S'complications'
p22
S'complication'
p23
S'NNS'
p24
S'I-NP'
p25
g5
tp26
a(S'after'
p27
S'after'
p28
S'IN'
p29
S'B-PP'
p30
g5
tp31
a(S'laparoscopic'
p32
S'laparoscopic'
p33
S'JJ'
p34
S'B-NP'
p35
g5
tp36
a(S'transabdominal'
p37
S'transabdominal'
p38
S'JJ'
p39
S'I-NP'
p40
g5
tp41
a(S'preperitoneal'
p42
S'preperitoneal'
p43
S'NN'
p44
S'I-NP'
p45
g5
tp46
a(S'('
p47
g47
g47
g5
g5
tp48
a(S'TAPP'
p49
S'TAPP'
p50
S'NN'
p51
S'B-NP'
p52
S'B-protein'
p53
tp54
a(S')'
p55
g55
g55
g5
g5
tp56
a(S'versus'
p57
S'versus'
p58
S'IN'
p59
S'B-PP'
p60
g5
tp61
a(S'Lichtenstein'
p62
S'Lichtenstein'
p63
S'NN'
p64
S'B-NP'
p65
g5
tp66
a(S'tension'
p67
S'tension'
p68
S'NN'
p69
S'I-NP'
p70
g5
tp71
a(S'free'
p72
S'free'
p73
S'JJ'
p74
S'I-NP'
p75
g5
tp76
a(S'inguinal'
p77
S'inguinal'
p78
S'JJ'
p79
S'I-NP'
p80
g5
tp81
a(S'hernia'
p82
S'hernia'
p83
S'NN'
p84
S'I-NP'
p85
g5
tp86
a(S'repair'
p87
S'repair'
p88
S'NN'
p89
S'I-NP'
p90
g5
tp91
a(S':'
p92
g92
g92
g5
g5
tp93
a(S'a'
p94
g94
S'DT'
p95
S'B-NP'
p96
g5
tp97
a(S'randomized'
p98
S'randomize'
p99
S'VBN'
p100
S'I-NP'
p101
g5
tp102
a(S'trial'
p103
S'trial'
p104
S'NN'
p105
S'I-NP'
p106
g5
tp107
a(S'study'
p108
S'study'
p109
S'NN'
p110
S'I-NP'
p111
g5
tp112
a(S'.'
p113
g113
g113
g5
g5
tp114
a(S'AIM'
p115
S'AIM'
p116
S'NN'
p117
S'B-NP'
p118
g5
tp119
a(S'The'
p120
S'The'
p121
S'DT'
p122
S'B-NP'
p123
g5
tp124
a(S'aim'
p125
S'aim'
p126
S'NN'
p127
S'I-NP'
p128
g5
tp129
a(S'of'
p130
S'of'
p131
S'IN'
p132
S'B-PP'
p133
g5
tp134
a(S'this'
p135
S'this'
p136
S'DT'
p137
S'B-NP'
p138
g5
tp139
a(S'randomized'
p140
S'randomize'
p141
S'VBN'
p142
S'I-NP'
p143
g5
tp144
a(S'trial'
p145
S'trial'
p146
S'NN'
p147
S'I-NP'
p148
g5
tp149
a(S'was'
p150
S'be'
p151
S'VBD'
p152
S'B-VP'
p153
g5
tp154
a(S'to'
p155
S'to'
p156
S'TO'
p157
S'B-VP'
p158
g5
tp159
a(S'compare'
p160
S'compare'
p161
S'VB'
p162
S'I-VP'
p163
g5
tp164
a(S'short-term'
p165
S'short-term'
p166
S'JJ'
p167
S'B-NP'
p168
g5
tp169
a(S'postoperative'
p170
S'postoperative'
p171
S'JJ'
p172
S'I-NP'
p173
g5
tp174
a(S'complications'
p175
S'complication'
p176
S'NNS'
p177
S'I-NP'
p178
g5
tp179
a(S'of'
p180
S'of'
p181
S'IN'
p182
S'B-PP'
p183
g5
tp184
a(S'laparoscopic'
p185
S'laparoscopic'
p186
S'JJ'
p187
S'B-NP'
p188
g5
tp189
a(S'transabdominal'
p190
S'transabdominal'
p191
S'JJ'
p192
S'I-NP'
p193
g5
tp194
a(S'preperitoneal'
p195
S'preperitoneal'
p196
S'NN'
p197
S'I-NP'
p198
g5
tp199
a(g47
g47
g47
g5
g5
tp200
a(S'TAPP'
p201
S'TAPP'
p202
S'NN'
p203
S'B-NP'
p204
S'B-protein'
p205
tp206
a(g55
g55
g55
g5
g5
tp207
a(S'and'
p208
S'and'
p209
S'CC'
p210
g5
g5
tp211
a(S'Lichtenstein'
p212
S'Lichtenstein'
p213
S'NN'
p214
S'B-NP'
p215
g5
tp216
a(S'tension'
p217
S'tension'
p218
S'NN'
p219
S'I-NP'
p220
g5
tp221
a(S'free'
p222
S'free'
p223
S'JJ'
p224
S'I-NP'
p225
g5
tp226
a(S'hernia'
p227
S'hernia'
p228
S'NN'
p229
S'I-NP'
p230
g5
tp231
a(S'repair'
p232
S'repair'
p233
S'NN'
p234
S'I-NP'
p235
g5
tp236
a(g113
g113
g113
g5
g5
tp237
a(S'METHODS'
p238
S'METHODS'
p239
S'NNS'
p240
S'B-NP'
p241
g5
tp242
a(S'A'
p243
g243
S'DT'
p244
S'B-NP'
p245
g5
tp246
a(S'total'
p247
S'total'
p248
S'NN'
p249
S'I-NP'
p250
g5
tp251
a(S'of'
p252
S'of'
p253
S'IN'
p254
S'B-PP'
p255
g5
tp256
a(S'120'
p257
S'120'
p258
S'CD'
p259
S'B-NP'
p260
g5
tp261
a(S'patients'
p262
S'patient'
p263
S'NNS'
p264
S'I-NP'
p265
g5
tp266
a(S'who'
p267
S'who'
p268
S'WP'
p269
S'B-NP'
p270
g5
tp271
a(S'went'
p272
S'go'
p273
S'VBD'
p274
S'B-VP'
p275
g5
tp276
a(S'inguinal'
p277
S'inguinal'
p278
S'JJ'
p279
S'B-NP'
p280
g5
tp281
a(S'hernia'
p282
S'hernia'
p283
S'NN'
p284
S'I-NP'
p285
g5
tp286
a(S'repair'
p287
S'repair'
p288
S'NN'
p289
S'I-NP'
p290
g5
tp291
a(S'at'
p292
S'at'
p293
S'IN'
p294
S'B-PP'
p295
g5
tp296
a(S'Shahid'
p297
S'Shahid'
p298
S'NNP'
p299
S'B-NP'
p300
g5
tp301
a(S'Sadoughi'
p302
S'Sadoughi'
p303
S'NNP'
p304
S'I-NP'
p305
g5
tp306
a(S'university'
p307
S'university'
p308
S'NN'
p309
S'I-NP'
p310
g5
tp311
a(S'training'
p312
S'training'
p313
S'NN'
p314
S'I-NP'
p315
g5
tp316
a(S'hospital'
p317
S'hospital'
p318
S'NN'
p319
S'I-NP'
p320
g5
tp321
a(S'from'
p322
S'from'
p323
S'IN'
p324
S'B-PP'
p325
g5
tp326
a(S'April'
p327
S'April'
p328
S'NNP'
p329
S'B-NP'
p330
g5
tp331
a(S'2011'
p332
S'2011'
p333
S'CD'
p334
S'I-NP'
p335
g5
tp336
a(S'to'
p337
S'to'
p338
S'TO'
p339
S'B-PP'
p340
g5
tp341
a(S'August'
p342
S'August'
p343
S'NNP'
p344
S'B-NP'
p345
g5
tp346
a(S'2013'
p347
S'2013'
p348
S'CD'
p349
S'I-NP'
p350
g5
tp351
a(S'were'
p352
S'be'
p353
S'VBD'
p354
S'B-VP'
p355
g5
tp356
a(S'randomized'
p357
S'randomize'
p358
S'VBN'
p359
S'I-VP'
p360
g5
tp361
a(S'into'
p362
S'into'
p363
S'IN'
p364
S'B-PP'
p365
g5
tp366
a(S'two'
p367
S'two'
p368
S'CD'
p369
S'B-NP'
p370
g5
tp371
a(S'TAPP'
p372
S'TAPP'
p373
S'NN'
p374
S'I-NP'
p375
S'B-protein'
p376
tp377
a(g47
g47
g47
g5
g5
tp378
a(S'N.=60'
p379
S'N.=60'
p380
S'NN'
p381
S'B-NP'
p382
S'B-protein'
p383
tp384
a(g55
g55
g55
g5
g5
tp385
a(S'and'
p386
S'and'
p387
S'CC'
p388
g5
g5
tp389
a(S'Lichtenstein'
p390
S'Lichtenstein'
p391
S'NN'
p392
S'B-NP'
p393
g5
tp394
a(g47
g47
g47
g5
g5
tp395
a(S'N.=60'
p396
S'N.=60'
p397
S'NN'
p398
S'B-NP'
p399
g5
tp400
a(g55
g55
g55
g5
g5
tp401
a(S'repair'
p402
S'repair'
p403
S'NN'
p404
S'B-NP'
p405
g5
tp406
a(S'group.'
p407
S'group.'
p408
S'NN'
p409
S'I-NP'
p410
g5
tp411
a(S'Follow-up'
p412
S'Follow-up'
p413
S'NN'
p414
S'I-NP'
p415
g5
tp416
a(S'occurred'
p417
S'occur'
p418
S'VBD'
p419
S'B-VP'
p420
g5
tp421
a(S'within'
p422
S'within'
p423
S'IN'
p424
S'B-PP'
p425
g5
tp426
a(S'6'
p427
g427
S'CD'
p428
S'B-NP'
p429
g5
tp430
a(S'weeks.'
p431
S'weeks.'
p432
S'NN'
p433
S'I-NP'
p434
g5
tp435
a(S'The'
p436
S'The'
p437
S'DT'
p438
S'B-NP'
p439
g5
tp440
a(S'postoperative'
p441
S'postoperative'
p442
S'JJ'
p443
S'I-NP'
p444
g5
tp445
a(S'assessments'
p446
S'assessment'
p447
S'NNS'
p448
S'I-NP'
p449
g5
tp450
a(S'included'
p451
S'include'
p452
S'VBD'
p453
S'B-VP'
p454
g5
tp455
a(S'pain'
p456
S'pain'
p457
S'NN'
p458
S'B-NP'
p459
g5
tp460
a(S'score'
p461
S'score'
p462
S'NN'
p463
S'I-NP'
p464
g5
tp465
a(g47
g47
g47
g5
g5
tp466
a(S'VAS'
p467
S'VAS'
p468
S'NN'
p469
S'B-NP'
p470
S'B-protein'
p471
tp472
a(g55
g55
g55
g5
g5
tp473
a(S','
p474
g474
g474
g5
g5
tp475
a(S'hematoma/seroma'
p476
S'hematoma/seroma'
p477
S'NN'
p478
S'B-NP'
p479
g5
tp480
a(g474
g474
g474
g5
g5
tp481
a(S'urinary'
p482
S'urinary'
p483
S'JJ'
p484
S'B-NP'
p485
g5
tp486
a(S'retention'
p487
S'retention'
p488
S'NN'
p489
S'I-NP'
p490
g5
tp491
a(g474
g474
g474
g5
g5
tp492
a(S'wound'
p493
S'wound'
p494
S'NN'
p495
S'B-NP'
p496
g5
tp497
a(S'infection'
p498
S'infection'
p499
S'NN'
p500
S'I-NP'
p501
g5
tp502
a(S'incidence'
p503
S'incidence'
p504
S'NN'
p505
S'I-NP'
p506
g5
tp507
a(g474
g474
g474
g5
g5
tp508
a(S'and'
p509
S'and'
p510
S'CC'
p511
g5
g5
tp512
a(S'duration'
p513
S'duration'
p514
S'NN'
p515
S'B-NP'
p516
g5
tp517
a(S'of'
p518
S'of'
p519
S'IN'
p520
S'B-PP'
p521
g5
tp522
a(S'hospital'
p523
S'hospital'
p524
S'NN'
p525
S'B-NP'
p526
g5
tp527
a(S'stay'
p528
S'stay'
p529
S'NN'
p530
S'I-NP'
p531
g5
tp532
a(g113
g113
g113
g5
g5
tp533
a(S'RESULTS'
p534
S'RESULTS'
p535
S'NNS'
p536
S'B-NP'
p537
g5
tp538
a(S'Pain'
p539
S'Pain'
p540
S'NN'
p541
S'I-NP'
p542
S'B-protein'
p543
tp544
a(S'was'
p545
S'be'
p546
S'VBD'
p547
S'B-VP'
p548
g5
tp549
a(S'the'
p550
S'the'
p551
S'DT'
p552
S'B-NP'
p553
g5
tp554
a(S'most'
p555
S'most'
p556
S'RBS'
p557
S'I-NP'
p558
g5
tp559
a(S'common'
p560
S'common'
p561
S'JJ'
p562
S'I-NP'
p563
g5
tp564
a(S'symptoms'
p565
S'symptom'
p566
S'NNS'
p567
S'I-NP'
p568
g5
tp569
a(S'in'
p570
S'in'
p571
S'IN'
p572
S'B-PP'
p573
g5
tp574
a(S'both'
p575
S'both'
p576
S'DT'
p577
S'B-NP'
p578
g5
tp579
a(S'groups.'
p580
S'groups.'
p581
S'NNS'
p582
S'I-NP'
p583
g5
tp584
a(S'The'
p585
S'The'
p586
S'DT'
p587
S'B-NP'
p588
g5
tp589
a(S'TAPP'
p590
S'TAPP'
p591
S'NN'
p592
S'I-NP'
p593
g5
tp594
a(S'group'
p595
S'group'
p596
S'NN'
p597
S'I-NP'
p598
g5
tp599
a(S'patients'
p600
S'patient'
p601
S'NNS'
p602
S'I-NP'
p603
g5
tp604
a(S'significantly'
p605
S'significantly'
p606
S'RB'
p607
S'B-ADVP'
p608
g5
tp609
a(S'had'
p610
S'have'
p611
S'VBD'
p612
S'B-VP'
p613
g5
tp614
a(S'experienced'
p615
S'experience'
p616
S'VBN'
p617
S'I-VP'
p618
g5
tp619
a(S'less'
p620
S'less'
p621
S'RBR'
p622
S'B-NP'
p623
g5
tp624
a(S'postoperative'
p625
S'postoperative'
p626
S'JJ'
p627
S'I-NP'
p628
g5
tp629
a(S'pain'
p630
S'pain'
p631
S'NN'
p632
S'I-NP'
p633
g5
tp634
a(S'than'
p635
S'than'
p636
S'IN'
p637
S'B-PP'
p638
g5
tp639
a(S'the'
p640
S'the'
p641
S'DT'
p642
S'B-NP'
p643
g5
tp644
a(S'Lichtenstein'
p645
S'Lichtenstein'
p646
S'NN'
p647
S'I-NP'
p648
g5
tp649
a(S'group'
p650
S'group'
p651
S'NN'
p652
S'I-NP'
p653
g5
tp654
a(S'in'
p655
S'in'
p656
S'IN'
p657
S'B-PP'
p658
g5
tp659
a(S'all'
p660
S'all'
p661
S'DT'
p662
S'B-NP'
p663
g5
tp664
a(S'moments'
p665
S'moment'
p666
S'NNS'
p667
S'I-NP'
p668
g5
tp669
a(g47
g47
g47
g5
g5
tp670
a(S'P'
p671
g671
S'NN'
p672
S'B-NP'
p673
g5
tp674
a(S'<'
p675
g675
S'SYM'
p676
g5
g5
tp677
a(S'0.05'
p678
S'0.05'
p679
S'CD'
p680
S'B-NP'
p681
g5
tp682
a(g55
g55
g55
g5
g5
tp683
a(g113
g113
g113
g5
g5
tp684
a(S'TAPP'
p685
S'TAPP'
p686
S'NN'
p687
S'B-NP'
p688
S'B-protein'
p689
tp690
a(S'group'
p691
S'group'
p692
S'NN'
p693
S'I-NP'
p694
S'I-protein'
p695
tp696
a(S'had'
p697
S'have'
p698
S'VBD'
p699
S'B-VP'
p700
g5
tp701
a(S'lower'
p702
S'low'
p703
S'JJR'
p704
S'B-NP'
p705
g5
tp706
a(S'incidence'
p707
S'incidence'
p708
S'NN'
p709
S'I-NP'
p710
g5
tp711
a(S'of'
p712
S'of'
p713
S'IN'
p714
S'B-PP'
p715
g5
tp716
a(S'hematoma'
p717
S'hematoma'
p718
S'NN'
p719
S'B-NP'
p720
g5
tp721
a(g47
g47
g47
g5
g5
tp722
a(S'TAPP'
p723
S'TAPP'
p724
S'NN'
p725
S'B-NP'
p726
S'B-protein'
p727
tp728
a(g474
g474
g474
g5
g5
tp729
a(S'6.6'
p730
S'6.6'
p731
S'CD'
p732
S'B-NP'
p733
g5
tp734
a(S'%'
p735
g735
S'NN'
p736
S'I-NP'
p737
g5
tp738
a(S'vs.'
p739
S'vs.'
p740
S'IN'
p741
S'B-PP'
p742
g5
tp743
a(S'Lichtenstein'
p744
S'Lichtenstein'
p745
S'NN'
p746
S'B-NP'
p747
g5
tp748
a(S'13.3'
p749
S'13.3'
p750
S'CD'
p751
S'B-NP'
p752
g5
tp753
a(g735
g735
S'NN'
p754
S'I-NP'
p755
g5
tp756
a(S';'
p757
g757
g92
g5
g5
tp758
a(S'P=0.67'
p759
S'P=0.67'
p760
S'NN'
p761
S'B-NP'
p762
g5
tp763
a(g55
g55
g55
g5
g5
tp764
a(g474
g474
g474
g5
g5
tp765
a(S'seroma'
p766
S'seroma'
p767
S'NN'
p768
S'B-NP'
p769
g5
tp770
a(g47
g47
g47
g5
g5
tp771
a(S'TAPP'
p772
S'TAPP'
p773
S'NN'
p774
S'B-NP'
p775
g5
tp776
a(S'10'
p777
S'10'
p778
S'CD'
p779
S'B-NP'
p780
g5
tp781
a(g735
g735
S'NN'
p782
S'I-NP'
p783
g5
tp784
a(S'vs.'
p785
S'vs.'
p786
S'IN'
p787
S'B-PP'
p788
g5
tp789
a(S'Lichtenstein'
p790
S'Lichtenstein'
p791
S'NN'
p792
S'B-NP'
p793
g5
tp794
a(S'13.3'
p795
S'13.3'
p796
S'CD'
p797
S'B-NP'
p798
g5
tp799
a(g735
g735
S'NN'
p800
S'I-NP'
p801
g5
tp802
a(g757
g757
g92
g5
g5
tp803
a(S'P=1.00'
p804
S'P=1.00'
p805
S'NN'
p806
S'B-NP'
p807
g5
tp808
a(g55
g55
g55
g5
g5
tp809
a(g474
g474
g474
g5
g5
tp810
a(S'and'
p811
S'and'
p812
S'CC'
p813
g5
g5
tp814
a(S'infection'
p815
S'infection'
p816
S'NN'
p817
S'B-NP'
p818
g5
tp819
a(g47
g47
g47
g5
g5
tp820
a(S'TAPP'
p821
S'TAPP'
p822
S'NN'
p823
S'B-NP'
p824
S'B-protein'
p825
tp826
a(S'0'
p827
g827
S'CD'
p828
S'I-NP'
p829
S'I-protein'
p830
tp831
a(S'vs.'
p832
S'vs.'
p833
S'IN'
p834
S'B-PP'
p835
g5
tp836
a(S'Lichtenstein'
p837
S'Lichtenstein'
p838
S'NNP'
p839
S'B-NP'
p840
g5
tp841
a(S'1.6'
p842
S'1.6'
p843
S'CD'
p844
S'B-NP'
p845
g5
tp846
a(g735
g735
S'NN'
p847
S'I-NP'
p848
g5
tp849
a(g757
g757
g92
g5
g5
tp850
a(S'P=0.67'
p851
S'P=0.67'
p852
S'NN'
p853
S'B-NP'
p854
g5
tp855
a(g55
g55
g55
g5
g5
tp856
a(g113
g113
g113
g5
g5
tp857
a(S'However'
p858
S'However'
p859
S'RB'
p860
S'B-ADVP'
p861
g5
tp862
a(g474
g474
g474
g5
g5
tp863
a(S'no'
p864
S'no'
p865
S'DT'
p866
S'B-NP'
p867
g5
tp868
a(S'differences'
p869
S'difference'
p870
S'NNS'
p871
S'I-NP'
p872
g5
tp873
a(S'between'
p874
S'between'
p875
S'IN'
p876
S'B-PP'
p877
g5
tp878
a(S'the'
p879
S'the'
p880
S'DT'
p881
S'B-NP'
p882
g5
tp883
a(S'2'
p884
g884
S'CD'
p885
S'I-NP'
p886
g5
tp887
a(S'groups'
p888
S'group'
p889
S'NNS'
p890
S'I-NP'
p891
g5
tp892
a(S'were'
p893
S'be'
p894
S'VBD'
p895
S'B-VP'
p896
g5
tp897
a(S'found'
p898
S'find'
p899
S'VBN'
p900
S'I-VP'
p901
g5
tp902
a(S'in'
p903
S'in'
p904
S'IN'
p905
S'B-PP'
p906
g5
tp907
a(S'terms'
p908
S'term'
p909
S'NNS'
p910
S'B-NP'
p911
g5
tp912
a(S'of'
p913
S'of'
p914
S'IN'
p915
S'B-PP'
p916
g5
tp917
a(S'postoperative'
p918
S'postoperative'
p919
S'JJ'
p920
S'B-NP'
p921
g5
tp922
a(S'complications.'
p923
S'complications.'
p924
S'NN'
p925
S'I-NP'
p926
g5
tp927
a(S'In'
p928
S'In'
p929
S'IN'
p930
S'B-PP'
p931
g5
tp932
a(S'TAPP'
p933
S'TAPP'
p934
S'NN'
p935
S'B-NP'
p936
g5
tp937
a(S'group'
p938
S'group'
p939
S'NN'
p940
S'I-NP'
p941
g5
tp942
a(S'mean'
p943
S'mean'
p944
S'NN'
p945
S'I-NP'
p946
g5
tp947
a(S'of'
p948
S'of'
p949
S'IN'
p950
S'B-PP'
p951
g5
tp952
a(S'hospital'
p953
S'hospital'
p954
S'NN'
p955
S'B-NP'
p956
g5
tp957
a(S'stay'
p958
S'stay'
p959
S'NN'
p960
S'I-NP'
p961
g5
tp962
a(S'significantly'
p963
S'significantly'
p964
S'RB'
p965
S'B-ADVP'
p966
g5
tp967
a(S'was'
p968
S'be'
p969
S'VBD'
p970
S'B-VP'
p971
g5
tp972
a(S'less'
p973
S'less'
p974
S'JJR'
p975
S'B-ADJP'
p976
g5
tp977
a(S'than'
p978
S'than'
p979
S'IN'
p980
S'B-PP'
p981
g5
tp982
a(S'Lichtenstein'
p983
S'Lichtenstein'
p984
S'NN'
p985
S'B-NP'
p986
g5
tp987
a(S'group'
p988
S'group'
p989
S'NN'
p990
S'I-NP'
p991
g5
tp992
a(g47
g47
g47
g5
g5
tp993
a(S'TAPP'
p994
S'TAPP'
p995
S'NN'
p996
S'B-NP'
p997
S'B-protein'
p998
tp999
a(g474
g474
g474
g5
g5
tp1000
a(S'8.13\xc2\xb12.19'
p1001
S'8.13\xc2\xb12.19'
p1002
S'CD'
p1003
S'B-NP'
p1004
g5
tp1005
a(S'vs.'
p1006
S'vs.'
p1007
S'IN'
p1008
S'B-PP'
p1009
g5
tp1010
a(S'Lichtenstein'
p1011
S'Lichtenstein'
p1012
S'NNP'
p1013
S'B-NP'
p1014
g5
tp1015
a(g474
g474
g474
g5
g5
tp1016
a(S'13.15\xc2\xb11.5'
p1017
S'13.15\xc2\xb11.5'
p1018
S'CD'
p1019
S'B-NP'
p1020
g5
tp1021
a(S'days'
p1022
S'day'
p1023
S'NNS'
p1024
S'I-NP'
p1025
g5
tp1026
a(g757
g757
g92
g5
g5
tp1027
a(g671
g671
S'NN'
p1028
S'B-NP'
p1029
g5
tp1030
a(g675
g675
S'SYM'
p1031
S'B-NP'
p1032
g5
tp1033
a(S'0.001'
p1034
S'0.001'
p1035
S'CD'
p1036
S'I-NP'
p1037
g5
tp1038
a(g55
g55
g55
g5
g5
tp1039
a(g113
g113
g113
g5
g5
tp1040
a(S'CONCLUSION'
p1041
S'CONCLUSION'
p1042
S'NN'
p1043
S'B-NP'
p1044
g5
tp1045
a(S'The'
p1046
S'The'
p1047
S'DT'
p1048
S'B-NP'
p1049
g5
tp1050
a(S'laparoscopic'
p1051
S'laparoscopic'
p1052
S'JJ'
p1053
S'I-NP'
p1054
g5
tp1055
a(S'TAPP'
p1056
S'TAPP'
p1057
S'NN'
p1058
S'I-NP'
p1059
g5
tp1060
a(S'repair'
p1061
S'repair'
p1062
S'NN'
p1063
S'I-NP'
p1064
g5
tp1065
a(S'is'
p1066
S'be'
p1067
S'VBZ'
p1068
S'B-VP'
p1069
g5
tp1070
a(S'safer'
p1071
S'safe'
p1072
S'JJR'
p1073
S'B-ADJP'
p1074
g5
tp1075
a(S'and'
p1076
S'and'
p1077
S'CC'
p1078
g5
g5
tp1079
a(S'less'
p1080
S'less'
p1081
S'RBR'
p1082
S'B-NP'
p1083
g5
tp1084
a(S'complicated'
p1085
S'complicated'
p1086
S'JJ'
p1087
S'I-NP'
p1088
g5
tp1089
a(S'approach'
p1090
S'approach'
p1091
S'NN'
p1092
S'I-NP'
p1093
g5
tp1094
a(S'to'
p1095
S'to'
p1096
S'TO'
p1097
S'B-PP'
p1098
g5
tp1099
a(S'inguinal'
p1100
S'inguinal'
p1101
S'JJ'
p1102
S'B-NP'
p1103
g5
tp1104
a(S'hernia'
p1105
S'hernia'
p1106
S'NN'
p1107
S'I-NP'
p1108
g5
tp1109
a(S'repair.'
p1110
S'repair.'
p1111
S'NN'
p1112
S'I-NP'
p1113
g5
tp1114
a(S'The'
p1115
S'The'
p1116
S'DT'
p1117
S'B-NP'
p1118
g5
tp1119
a(S'two'
p1120
S'two'
p1121
S'CD'
p1122
S'I-NP'
p1123
g5
tp1124
a(S'main'
p1125
S'main'
p1126
S'JJ'
p1127
S'I-NP'
p1128
g5
tp1129
a(S'short-term'
p1130
S'short-term'
p1131
S'JJ'
p1132
S'I-NP'
p1133
g5
tp1134
a(S'advantages'
p1135
S'advantage'
p1136
S'NNS'
p1137
S'I-NP'
p1138
g5
tp1139
a(S'of'
p1140
S'of'
p1141
S'IN'
p1142
S'B-PP'
p1143
g5
tp1144
a(S'the'
p1145
S'the'
p1146
S'DT'
p1147
S'B-NP'
p1148
g5
tp1149
a(S'laparoscopic'
p1150
S'laparoscopic'
p1151
S'JJ'
p1152
S'I-NP'
p1153
g5
tp1154
a(S'TAPP'
p1155
S'TAPP'
p1156
S'NN'
p1157
S'I-NP'
p1158
g5
tp1159
a(S'repair'
p1160
S'repair'
p1161
S'NN'
p1162
S'I-NP'
p1163
g5
tp1164
a(S'with'
p1165
S'with'
p1166
S'IN'
p1167
S'B-PP'
p1168
g5
tp1169
a(S'the'
p1170
S'the'
p1171
S'DT'
p1172
S'B-NP'
p1173
g5
tp1174
a(S'tension'
p1175
S'tension'
p1176
S'NN'
p1177
S'I-NP'
p1178
g5
tp1179
a(S'free'
p1180
S'free'
p1181
S'JJ'
p1182
S'I-NP'
p1183
g5
tp1184
a(S'Lichtenstein'
p1185
S'Lichtenstein'
p1186
S'NN'
p1187
S'I-NP'
p1188
g5
tp1189
a(S'repair'
p1190
S'repair'
p1191
S'NN'
p1192
S'I-NP'
p1193
g5
tp1194
a(S'were'
p1195
S'be'
p1196
S'VBD'
p1197
S'B-VP'
p1198
g5
tp1199
a(S'less'
p1200
S'less'
p1201
S'RBR'
p1202
S'B-NP'
p1203
g5
tp1204
a(S'postoperative'
p1205
S'postoperative'
p1206
S'JJ'
p1207
S'I-NP'
p1208
g5
tp1209
a(S'pain'
p1210
S'pain'
p1211
S'NN'
p1212
S'I-NP'
p1213
g5
tp1214
a(S'and'
p1215
S'and'
p1216
S'CC'
p1217
g5
g5
tp1218
a(S'earlier'
p1219
S'early'
p1220
S'JJR'
p1221
S'B-NP'
p1222
g5
tp1223
a(S'return'
p1224
S'return'
p1225
S'NN'
p1226
S'I-NP'
p1227
g5
tp1228
a(S'to'
p1229
S'to'
p1230
S'TO'
p1231
S'B-PP'
p1232
g5
tp1233
a(S'the'
p1234
S'the'
p1235
S'DT'
p1236
S'B-NP'
p1237
g5
tp1238
a(S'normal'
p1239
S'normal'
p1240
S'JJ'
p1241
S'I-NP'
p1242
g5
tp1243
a(S'life'
p1244
S'life'
p1245
S'NN'
p1246
S'I-NP'
p1247
g5
tp1248
a(S'activities.'
p1249
S'activities.'
p1250
S'NN'
p1251
S'I-NP'
p1252
g5
tp1253
a(S'No'
p1254
S'No'
p1255
S'DT'
p1256
S'B-NP'
p1257
g5
tp1258
a(S'difference'
p1259
S'difference'
p1260
S'NN'
p1261
S'I-NP'
p1262
g5
tp1263
a(S'was'
p1264
S'be'
p1265
S'VBD'
p1266
S'B-VP'
p1267
g5
tp1268
a(S'seen'
p1269
S'see'
p1270
S'VBN'
p1271
S'I-VP'
p1272
g5
tp1273
a(S'in'
p1274
S'in'
p1275
S'IN'
p1276
S'B-PP'
p1277
g5
tp1278
a(S'overall'
p1279
S'overall'
p1280
S'JJ'
p1281
S'B-NP'
p1282
g5
tp1283
a(S'complications'
p1284
S'complication'
p1285
S'NNS'
p1286
S'I-NP'
p1287
g5
tp1288
a(g113
g113
g113
g5
g5
tp1289
a.