(lp0
(S'Metronidazole'
p1
S'Metronidazole'
p2
S'NN'
p3
S'B-NP'
p4
S'O'
p5
tp6
a(S'in'
p7
S'in'
p8
S'IN'
p9
S'B-PP'
p10
g5
tp11
a(S'periodontitis'
p12
S'periodontitis'
p13
S'NN'
p14
S'B-NP'
p15
g5
tp16
a(S'('
p17
g17
g17
g5
g5
tp18
a(S'IV'
p19
S'IV'
p20
S'CD'
p21
S'B-NP'
p22
g5
tp23
a(S')'
p24
g24
g24
g5
g5
tp25
a(S'.'
p26
g26
g26
g5
g5
tp27
a(S'The'
p28
S'The'
p29
S'DT'
p30
S'B-NP'
p31
g5
tp32
a(S'effect'
p33
S'effect'
p34
S'NN'
p35
S'I-NP'
p36
g5
tp37
a(S'of'
p38
S'of'
p39
S'IN'
p40
S'B-PP'
p41
g5
tp42
a(S'patient'
p43
S'patient'
p44
S'NN'
p45
S'B-NP'
p46
g5
tp47
a(S'compliance'
p48
S'compliance'
p49
S'NN'
p50
S'I-NP'
p51
g5
tp52
a(S'on'
p53
S'on'
p54
S'IN'
p55
S'B-PP'
p56
g5
tp57
a(S'treatment'
p58
S'treatment'
p59
S'NN'
p60
S'B-NP'
p61
g5
tp62
a(S'parameters'
p63
S'parameter'
p64
S'NNS'
p65
S'I-NP'
p66
g5
tp67
a(g26
g26
g26
g5
g5
tp68
a(S'Patient'
p69
S'Patient'
p70
S'NN'
p71
S'B-NP'
p72
g5
tp73
a(S'compliance'
p74
S'compliance'
p75
S'NN'
p76
S'I-NP'
p77
g5
tp78
a(S'with'
p79
S'with'
p80
S'IN'
p81
S'B-PP'
p82
g5
tp83
a(S'the'
p84
S'the'
p85
S'DT'
p86
S'B-NP'
p87
g5
tp88
a(S'unsupervised'
p89
S'unsupervised'
p90
S'JJ'
p91
S'I-NP'
p92
g5
tp93
a(S'usage'
p94
S'usage'
p95
S'NN'
p96
S'I-NP'
p97
g5
tp98
a(S'of'
p99
S'of'
p100
S'IN'
p101
S'B-PP'
p102
g5
tp103
a(S'prescription'
p104
S'prescription'
p105
S'NN'
p106
S'B-NP'
p107
g5
tp108
a(S'medication'
p109
S'medication'
p110
S'NN'
p111
S'I-NP'
p112
g5
tp113
a(S'can'
p114
S'can'
p115
S'MD'
p116
S'B-VP'
p117
g5
tp118
a(S'be'
p119
S'be'
p120
S'VB'
p121
S'I-VP'
p122
g5
tp123
a(S'poor.'
p124
S'poor.'
p125
S'RB'
p126
S'B-ADVP'
p127
g5
tp128
a(S'In'
p129
S'In'
p130
S'IN'
p131
S'B-PP'
p132
g5
tp133
a(S'the'
p134
S'the'
p135
S'DT'
p136
S'B-NP'
p137
g5
tp138
a(S'treatment'
p139
S'treatment'
p140
S'NN'
p141
S'I-NP'
p142
g5
tp143
a(S'of'
p144
S'of'
p145
S'IN'
p146
S'B-PP'
p147
g5
tp148
a(S'periodontal'
p149
S'periodontal'
p150
S'JJ'
p151
S'B-NP'
p152
g5
tp153
a(S'infections'
p154
S'infection'
p155
S'NNS'
p156
S'I-NP'
p157
g5
tp158
a(S'with'
p159
S'with'
p160
S'IN'
p161
S'B-PP'
p162
g5
tp163
a(S'systemic'
p164
S'systemic'
p165
S'JJ'
p166
S'B-NP'
p167
g5
tp168
a(S'antimicrobial'
p169
S'antimicrobial'
p170
S'JJ'
p171
S'I-NP'
p172
g5
tp173
a(S'agents'
p174
S'agent'
p175
S'NNS'
p176
S'I-NP'
p177
g5
tp178
a(S','
p179
g179
g179
g5
g5
tp180
a(S'in'
p181
S'in'
p182
S'IN'
p183
S'B-PP'
p184
g5
tp185
a(S'situations'
p186
S'situation'
p187
S'NNS'
p188
S'B-NP'
p189
g5
tp190
a(S'where'
p191
S'where'
p192
S'WRB'
p193
S'B-ADVP'
p194
g5
tp195
a(S'the'
p196
S'the'
p197
S'DT'
p198
S'B-NP'
p199
g5
tp200
a(S'efficacy'
p201
S'efficacy'
p202
S'NN'
p203
S'I-NP'
p204
g5
tp205
a(S'of'
p206
S'of'
p207
S'IN'
p208
S'B-PP'
p209
g5
tp210
a(S'the'
p211
S'the'
p212
S'DT'
p213
S'B-NP'
p214
g5
tp215
a(S'antimicrobial'
p216
S'antimicrobial'
p217
S'JJ'
p218
S'I-NP'
p219
g5
tp220
a(S'agent'
p221
S'agent'
p222
S'NN'
p223
S'I-NP'
p224
g5
tp225
a(S'is'
p226
S'be'
p227
S'VBZ'
p228
S'B-VP'
p229
g5
tp230
a(S'being'
p231
S'be'
p232
S'VBG'
p233
S'I-VP'
p234
g5
tp235
a(S'evaluated'
p236
S'evaluate'
p237
S'VBN'
p238
S'I-VP'
p239
g5
tp240
a(g179
g179
g179
g5
g5
tp241
a(S'non-compliance'
p242
S'non-compliance'
p243
S'NN'
p244
S'B-NP'
p245
g5
tp246
a(S'could'
p247
S'could'
p248
S'MD'
p249
S'B-VP'
p250
g5
tp251
a(S'underestimate'
p252
S'underestimate'
p253
S'VB'
p254
S'I-VP'
p255
g5
tp256
a(S'the'
p257
S'the'
p258
S'DT'
p259
S'B-NP'
p260
g5
tp261
a(S'true'
p262
S'true'
p263
S'JJ'
p264
S'I-NP'
p265
g5
tp266
a(S'efficacy'
p267
S'efficacy'
p268
S'NN'
p269
S'I-NP'
p270
g5
tp271
a(S'of'
p272
S'of'
p273
S'IN'
p274
S'B-PP'
p275
g5
tp276
a(S'the'
p277
S'the'
p278
S'DT'
p279
S'B-NP'
p280
g5
tp281
a(S'agent.'
p282
S'agent.'
p283
S'NN'
p284
S'I-NP'
p285
g5
tp286
a(S'Metronidazole'
p287
S'Metronidazole'
p288
S'NN'
p289
S'I-NP'
p290
g5
tp291
a(S'is'
p292
S'be'
p293
S'VBZ'
p294
S'B-VP'
p295
g5
tp296
a(S'an'
p297
S'an'
p298
S'DT'
p299
S'B-NP'
p300
g5
tp301
a(S'agent'
p302
S'agent'
p303
S'NN'
p304
S'I-NP'
p305
g5
tp306
a(S'with'
p307
S'with'
p308
S'IN'
p309
S'B-PP'
p310
g5
tp311
a(S'reported'
p312
S'report'
p313
S'VBN'
p314
S'B-NP'
p315
g5
tp316
a(S'success'
p317
S'success'
p318
S'NN'
p319
S'I-NP'
p320
g5
tp321
a(S'in'
p322
S'in'
p323
S'IN'
p324
S'B-PP'
p325
g5
tp326
a(S'the'
p327
S'the'
p328
S'DT'
p329
S'B-NP'
p330
g5
tp331
a(S'treatment'
p332
S'treatment'
p333
S'NN'
p334
S'I-NP'
p335
g5
tp336
a(S'of'
p337
S'of'
p338
S'IN'
p339
S'B-PP'
p340
g5
tp341
a(S'anaerobic'
p342
S'anaerobic'
p343
S'JJ'
p344
S'B-NP'
p345
g5
tp346
a(S'periodontal'
p347
S'periodontal'
p348
S'JJ'
p349
S'I-NP'
p350
g5
tp351
a(S'infections.'
p352
S'infections.'
p353
S'NN'
p354
S'I-NP'
p355
g5
tp356
a(S'Metronidazole'
p357
S'Metronidazole'
p358
S'NN'
p359
S'I-NP'
p360
g5
tp361
a(S'is'
p362
S'be'
p363
S'VBZ'
p364
S'B-VP'
p365
g5
tp366
a(S'particularly'
p367
S'particularly'
p368
S'RB'
p369
S'B-ADJP'
p370
g5
tp371
a(S'effective'
p372
S'effective'
p373
S'JJ'
p374
S'I-ADJP'
p375
g5
tp376
a(S'in'
p377
S'in'
p378
S'FW'
p379
S'B-ADVP'
p380
g5
tp381
a(S'vitro'
p382
S'vitro'
p383
S'FW'
p384
S'I-ADVP'
p385
g5
tp386
a(S'against'
p387
S'against'
p388
S'IN'
p389
S'B-PP'
p390
g5
tp391
a(S'spirochetes'
p392
S'spirochete'
p393
S'NNS'
p394
S'B-NP'
p395
g5
tp396
a(g179
g179
g179
g5
g5
tp397
a(S'and'
p398
S'and'
p399
S'CC'
p400
g5
g5
tp401
a(S'this'
p402
S'this'
p403
S'DT'
p404
S'B-NP'
p405
g5
tp406
a(S'efficacy'
p407
S'efficacy'
p408
S'NN'
p409
S'I-NP'
p410
g5
tp411
a(S'was'
p412
S'be'
p413
S'VBD'
p414
S'B-VP'
p415
g5
tp416
a(S'investigated'
p417
S'investigate'
p418
S'VBN'
p419
S'I-VP'
p420
g5
tp421
a(S'as'
p422
S'as'
p423
S'IN'
p424
S'B-PP'
p425
g5
tp426
a(S'a'
p427
g427
S'DT'
p428
S'B-NP'
p429
g5
tp430
a(S'means'
p431
S'means'
p432
S'NN'
p433
S'I-NP'
p434
g5
tp435
a(S'of'
p436
S'of'
p437
S'IN'
p438
S'B-PP'
p439
g5
tp440
a(S'measuring'
p441
S'measure'
p442
S'VBG'
p443
S'B-VP'
p444
g5
tp445
a(S'patient'
p446
S'patient'
p447
S'NN'
p448
S'B-NP'
p449
g5
tp450
a(S'compliance'
p451
S'compliance'
p452
S'NN'
p453
S'I-NP'
p454
g5
tp455
a(S'with'
p456
S'with'
p457
S'IN'
p458
S'B-PP'
p459
g5
tp460
a(S'metronidazole'
p461
S'metronidazole'
p462
S'NN'
p463
S'B-NP'
p464
g5
tp465
a(S'usage.'
p466
S'usage.'
p467
S'NN'
p468
S'I-NP'
p469
g5
tp470
a(S'Patients'
p471
S'Patient'
p472
S'NNS'
p473
S'I-NP'
p474
g5
tp475
a(S'who'
p476
S'who'
p477
S'WP'
p478
S'B-NP'
p479
g5
tp480
a(S'had'
p481
S'have'
p482
S'VBD'
p483
S'B-VP'
p484
g5
tp485
a(S'high'
p486
S'high'
p487
S'JJ'
p488
S'B-NP'
p489
g5
tp490
a(S'proportions'
p491
S'proportion'
p492
S'NNS'
p493
S'I-NP'
p494
g5
tp495
a(S'of'
p496
S'of'
p497
S'IN'
p498
S'B-PP'
p499
g5
tp500
a(S'spirochetes'
p501
S'spirochete'
p502
S'NNS'
p503
S'B-NP'
p504
g5
tp505
a(g179
g179
g179
g5
g5
tp506
a(S'i.e.'
p507
S'i.e.'
p508
S'FW'
p509
S'B-NP'
p510
g5
tp511
a(g179
g179
g179
g5
g5
tp512
a(S'>'
p513
g513
S'SYM'
p514
S'B-NP'
p515
g5
tp516
a(S'20'
p517
S'20'
p518
S'CD'
p519
S'B-NP'
p520
g5
tp521
a(S'%'
p522
g522
S'NN'
p523
S'I-NP'
p524
g5
tp525
a(g179
g179
g179
g5
g5
tp526
a(S'in'
p527
S'in'
p528
S'IN'
p529
S'B-PP'
p530
g5
tp531
a(S'plaques'
p532
S'plaque'
p533
S'NNS'
p534
S'B-NP'
p535
g5
tp536
a(S'removed'
p537
S'remove'
p538
S'VBN'
p539
S'B-VP'
p540
g5
tp541
a(S'from'
p542
S'from'
p543
S'IN'
p544
S'B-PP'
p545
g5
tp546
a(S'diseased'
p547
S'diseased'
p548
S'JJ'
p549
S'B-NP'
p550
S'B-DNA'
p551
tp552
a(S'periodontal'
p553
S'periodontal'
p554
S'JJ'
p555
S'I-NP'
p556
S'I-DNA'
p557
tp558
a(S'sites'
p559
S'site'
p560
S'NNS'
p561
S'I-NP'
p562
S'I-DNA'
p563
tp564
a(g179
g179
g179
g5
g5
tp565
a(S'were'
p566
S'be'
p567
S'VBD'
p568
S'B-VP'
p569
g5
tp570
a(S'given'
p571
S'give'
p572
S'VBN'
p573
S'I-VP'
p574
g5
tp575
a(S'metronidazole'
p576
S'metronidazole'
p577
S'NN'
p578
S'B-NP'
p579
g5
tp580
a(g17
g17
g17
g5
g5
tp581
a(S'500'
p582
S'500'
p583
S'CD'
p584
S'B-NP'
p585
g5
tp586
a(S'mg'
p587
S'mg'
p588
S'NN'
p589
S'I-NP'
p590
g5
tp591
a(S'bid'
p592
S'bid'
p593
S'RB'
p594
S'B-ADVP'
p595
g5
tp596
a(g24
g24
g24
g5
g5
tp597
a(S'under'
p598
S'under'
p599
S'IN'
p600
S'B-PP'
p601
g5
tp602
a(S'supervision.'
p603
S'supervision.'
p604
S'NN'
p605
S'B-NP'
p606
g5
tp607
a(S'In'
p608
S'In'
p609
S'IN'
p610
S'B-PP'
p611
g5
tp612
a(S'all'
p613
S'all'
p614
S'DT'
p615
S'B-NP'
p616
g5
tp617
a(S'individuals'
p618
S'individual'
p619
S'NNS'
p620
S'I-NP'
p621
g5
tp622
a(S'who'
p623
S'who'
p624
S'WP'
p625
S'B-NP'
p626
g5
tp627
a(S'received'
p628
S'receive'
p629
S'VBD'
p630
S'B-VP'
p631
g5
tp632
a(S'the'
p633
S'the'
p634
S'DT'
p635
S'B-NP'
p636
g5
tp637
a(S'metronidazole'
p638
S'metronidazole'
p639
S'NN'
p640
S'I-NP'
p641
g5
tp642
a(g179
g179
g179
g5
g5
tp643
a(S'there'
p644
S'there'
p645
S'EX'
p646
S'B-NP'
p647
g5
tp648
a(S'was'
p649
S'be'
p650
S'VBD'
p651
S'B-VP'
p652
g5
tp653
a(g427
g427
S'DT'
p654
S'B-NP'
p655
g5
tp656
a(S'significant'
p657
S'significant'
p658
S'JJ'
p659
S'I-NP'
p660
g5
tp661
a(S'and'
p662
S'and'
p663
S'CC'
p664
S'I-NP'
p665
g5
tp666
a(S'rapid'
p667
S'rapid'
p668
S'JJ'
p669
S'I-NP'
p670
g5
tp671
a(S'decline'
p672
S'decline'
p673
S'NN'
p674
S'I-NP'
p675
g5
tp676
a(S'and/or'
p677
S'and/or'
p678
S'CC'
p679
S'I-NP'
p680
g5
tp681
a(S'disappearance'
p682
S'disappearance'
p683
S'NN'
p684
S'I-NP'
p685
g5
tp686
a(S'of'
p687
S'of'
p688
S'IN'
p689
S'B-PP'
p690
g5
tp691
a(S'spirochetes'
p692
S'spirochete'
p693
S'NNS'
p694
S'B-NP'
p695
g5
tp696
a(S'from'
p697
S'from'
p698
S'IN'
p699
S'B-PP'
p700
g5
tp701
a(S'the'
p702
S'the'
p703
S'DT'
p704
S'B-NP'
p705
g5
tp706
a(S'plaque'
p707
S'plaque'
p708
S'NN'
p709
S'I-NP'
p710
g5
tp711
a(S'during'
p712
S'during'
p713
S'IN'
p714
S'B-PP'
p715
g5
tp716
a(S'the'
p717
S'the'
p718
S'DT'
p719
S'B-NP'
p720
g5
tp721
a(S'time'
p722
S'time'
p723
S'NN'
p724
S'I-NP'
p725
g5
tp726
a(S'interval'
p727
S'interval'
p728
S'NN'
p729
S'I-NP'
p730
g5
tp731
a(S'that'
p732
S'that'
p733
S'IN'
p734
S'B-SBAR'
p735
g5
tp736
a(S'metronidazole'
p737
S'metronidazole'
p738
S'NN'
p739
S'B-NP'
p740
g5
tp741
a(S'was'
p742
S'be'
p743
S'VBD'
p744
S'B-VP'
p745
g5
tp746
a(S'detectable'
p747
S'detectable'
p748
S'JJ'
p749
S'B-ADJP'
p750
g5
tp751
a(S'in'
p752
S'in'
p753
S'IN'
p754
S'B-PP'
p755
g5
tp756
a(S'the'
p757
S'the'
p758
S'DT'
p759
S'B-NP'
p760
g5
tp761
a(S'saliva.'
p762
S'saliva.'
p763
S'NN'
p764
S'I-NP'
p765
g5
tp766
a(S'This'
p767
S'This'
p768
S'DT'
p769
S'B-NP'
p770
g5
tp771
a(S'observed'
p772
S'observe'
p773
S'VBN'
p774
S'I-NP'
p775
g5
tp776
a(S'decline'
p777
S'decline'
p778
S'NN'
p779
S'I-NP'
p780
g5
tp781
a(S'in'
p782
S'in'
p783
S'IN'
p784
S'B-PP'
p785
g5
tp786
a(S'spirochetes'
p787
S'spirochete'
p788
S'NNS'
p789
S'B-NP'
p790
g5
tp791
a(S'was'
p792
S'be'
p793
S'VBD'
p794
S'B-VP'
p795
g5
tp796
a(S'then'
p797
S'then'
p798
S'RB'
p799
S'I-VP'
p800
g5
tp801
a(S'used'
p802
S'use'
p803
S'VBN'
p804
S'I-VP'
p805
g5
tp806
a(S'to'
p807
S'to'
p808
S'TO'
p809
S'B-VP'
p810
g5
tp811
a(S'determine'
p812
S'determine'
p813
S'VB'
p814
S'I-VP'
p815
g5
tp816
a(S'which'
p817
S'which'
p818
S'WDT'
p819
S'B-NP'
p820
g5
tp821
a(S'patients'
p822
S'patient'
p823
S'NNS'
p824
S'I-NP'
p825
g5
tp826
a(S'had'
p827
S'have'
p828
S'VBD'
p829
S'B-VP'
p830
g5
tp831
a(S'been'
p832
S'be'
p833
S'VBN'
p834
S'I-VP'
p835
g5
tp836
a(S'compliant'
p837
S'compliant'
p838
S'JJ'
p839
S'B-ADJP'
p840
g5
tp841
a(S'in'
p842
S'in'
p843
S'IN'
p844
S'B-PP'
p845
g5
tp846
a(g427
g427
S'DT'
p847
S'B-NP'
p848
g5
tp849
a(S'double-blind'
p850
S'double-blind'
p851
S'JJ'
p852
S'I-NP'
p853
g5
tp854
a(S'clinical'
p855
S'clinical'
p856
S'JJ'
p857
S'I-NP'
p858
g5
tp859
a(S'trial'
p860
S'trial'
p861
S'NN'
p862
S'I-NP'
p863
g5
tp864
a(S'involving'
p865
S'involve'
p866
S'VBG'
p867
S'B-VP'
p868
g5
tp869
a(S'the'
p870
S'the'
p871
S'DT'
p872
S'B-NP'
p873
g5
tp874
a(S'unsupervised'
p875
S'unsupervised'
p876
S'JJ'
p877
S'I-NP'
p878
g5
tp879
a(S'usage'
p880
S'usage'
p881
S'NN'
p882
S'I-NP'
p883
g5
tp884
a(S'of'
p885
S'of'
p886
S'IN'
p887
S'B-PP'
p888
g5
tp889
a(S'metronidazole.'
p890
S'metronidazole.'
p891
S'NN'
p892
S'B-NP'
p893
g5
tp894
a(S'Only'
p895
S'Only'
p896
S'RB'
p897
S'B-NP'
p898
g5
tp899
a(S'10'
p900
S'10'
p901
S'CD'
p902
S'I-NP'
p903
g5
tp904
a(S'of'
p905
S'of'
p906
S'IN'
p907
S'B-PP'
p908
g5
tp909
a(S'18'
p910
S'18'
p911
S'CD'
p912
S'B-NP'
p913
g5
tp914
a(S'patients'
p915
S'patient'
p916
S'NNS'
p917
S'I-NP'
p918
g5
tp919
a(g17
g17
g17
g5
g5
tp920
a(S'56'
p921
S'56'
p922
S'CD'
p923
S'B-NP'
p924
g5
tp925
a(g522
g522
S'NN'
p926
S'I-NP'
p927
g5
tp928
a(g24
g24
g24
g5
g5
tp929
a(S'were'
p930
S'be'
p931
S'VBD'
p932
S'B-VP'
p933
g5
tp934
a(S'considered'
p935
S'consider'
p936
S'VBN'
p937
S'I-VP'
p938
g5
tp939
a(S'compliant'
p940
S'compliant'
p941
S'JJ'
p942
S'B-ADJP'
p943
g5
tp944
a(S'in'
p945
S'in'
p946
S'IN'
p947
S'B-PP'
p948
g5
tp949
a(S'their'
p950
S'their'
p951
S'PRP$'
p952
S'B-NP'
p953
g5
tp954
a(S'usage'
p955
S'usage'
p956
S'NN'
p957
S'I-NP'
p958
g5
tp959
a(S'of'
p960
S'of'
p961
S'IN'
p962
S'B-PP'
p963
g5
tp964
a(S'metronidazole.'
p965
S'metronidazole.'
p966
S'NN'
p967
S'B-NP'
p968
g5
tp969
a(S'These'
p970
S'These'
p971
S'DT'
p972
S'B-NP'
p973
g5
tp974
a(S'10'
p975
S'10'
p976
S'CD'
p977
S'I-NP'
p978
g5
tp979
a(S'patients'
p980
S'patient'
p981
S'NNS'
p982
S'I-NP'
p983
g5
tp984
a(S'experienced'
p985
S'experience'
p986
S'VBD'
p987
S'B-VP'
p988
g5
tp989
a(g427
g427
S'DT'
p990
S'B-NP'
p991
g5
tp992
a(S'significantly'
p993
S'significantly'
p994
S'RB'
p995
S'I-NP'
p996
g5
tp997
a(S'greater'
p998
S'great'
p999
S'JJR'
p1000
S'I-NP'
p1001
g5
tp1002
a(S'benefit'
p1003
S'benefit'
p1004
S'NN'
p1005
S'I-NP'
p1006
g5
tp1007
a(S'from'
p1008
S'from'
p1009
S'IN'
p1010
S'B-PP'
p1011
g5
tp1012
a(S'the'
p1013
S'the'
p1014
S'DT'
p1015
S'B-NP'
p1016
g5
tp1017
a(S'metronidazole'
p1018
S'metronidazole'
p1019
S'NN'
p1020
S'I-NP'
p1021
g5
tp1022
a(S'than'
p1023
S'than'
p1024
S'IN'
p1025
S'B-SBAR'
p1026
g5
tp1027
a(S'did'
p1028
S'do'
p1029
S'VBD'
p1030
g5
g5
tp1031
a(S'the'
p1032
S'the'
p1033
S'DT'
p1034
S'B-NP'
p1035
g5
tp1036
a(S'8'
p1037
g1037
S'CD'
p1038
S'I-NP'
p1039
g5
tp1040
a(S'patients'
p1041
S'patient'
p1042
S'NNS'
p1043
S'I-NP'
p1044
g5
tp1045
a(S'who'
p1046
S'who'
p1047
S'WP'
p1048
S'B-NP'
p1049
g5
tp1050
a(S'were'
p1051
S'be'
p1052
S'VBD'
p1053
S'B-VP'
p1054
g5
tp1055
a(S'considered'
p1056
S'consider'
p1057
S'VBN'
p1058
S'I-VP'
p1059
g5
tp1060
a(S'noncompliant'
p1061
S'noncompliant'
p1062
S'JJ'
p1063
S'B-ADJP'
p1064
g5
tp1065
a(g179
g179
g179
g5
g5
tp1066
a(S'i.e.'
p1067
S'i.e.'
p1068
S'FW'
p1069
g5
g5
tp1070
a(g179
g179
g179
g5
g5
tp1071
a(g427
g427
S'DT'
p1072
S'B-NP'
p1073
g5
tp1074
a(S'reduction'
p1075
S'reduction'
p1076
S'NN'
p1077
S'I-NP'
p1078
g5
tp1079
a(S'of'
p1080
S'of'
p1081
S'IN'
p1082
S'B-PP'
p1083
g5
tp1084
a(S'surgical'
p1085
S'surgical'
p1086
S'JJ'
p1087
S'B-NP'
p1088
g5
tp1089
a(S'needs'
p1090
S'need'
p1091
S'NNS'
p1092
S'I-NP'
p1093
g5
tp1094
a(S'of'
p1095
S'of'
p1096
S'IN'
p1097
S'B-PP'
p1098
g5
tp1099
a(S'8.3'
p1100
S'8.3'
p1101
S'CD'
p1102
S'B-NP'
p1103
g5
tp1104
a(S'teeth'
p1105
S'tooth'
p1106
S'NNS'
p1107
S'I-NP'
p1108
g5
tp1109
a(S'per'
p1110
S'per'
p1111
S'IN'
p1112
S'B-PP'
p1113
g5
tp1114
a(S'compliant'
p1115
S'compliant'
p1116
S'JJ'
p1117
S'B-NP'
p1118
g5
tp1119
a(S'patient'
p1120
S'patient'
p1121
S'NN'
p1122
S'I-NP'
p1123
g5
tp1124
a(S'versus'
p1125
S'versus'
p1126
S'IN'
p1127
S'B-PP'
p1128
g5
tp1129
a(S'3.6'
p1130
S'3.6'
p1131
S'CD'
p1132
S'B-NP'
p1133
g5
tp1134
a(S'teeth'
p1135
S'tooth'
p1136
S'NNS'
p1137
S'I-NP'
p1138
g5
tp1139
a(S'per'
p1140
S'per'
p1141
S'IN'
p1142
S'B-PP'
p1143
g5
tp1144
a(S'non-compliant'
p1145
S'non-compliant'
p1146
S'JJ'
p1147
S'B-NP'
p1148
g5
tp1149
a(S'patient.'
p1150
S'patient.'
p1151
S'NN'
p1152
S'I-NP'
p1153
g5
tp1154
a(S'A'
p1155
g1155
S'NN'
p1156
S'I-NP'
p1157
g5
tp1158
a(S'test'
p1159
S'test'
p1160
S'NN'
p1161
S'I-NP'
p1162
g5
tp1163
a(S'for'
p1164
S'for'
p1165
S'IN'
p1166
S'B-PP'
p1167
g5
tp1168
a(S'the'
p1169
S'the'
p1170
S'DT'
p1171
S'B-NP'
p1172
g5
tp1173
a(S'hydrolysis'
p1174
S'hydrolysis'
p1175
S'NN'
p1176
S'I-NP'
p1177
g5
tp1178
a(S'of'
p1179
S'of'
p1180
S'IN'
p1181
S'B-PP'
p1182
g5
tp1183
a(S'the'
p1184
S'the'
p1185
S'DT'
p1186
S'B-NP'
p1187
g5
tp1188
a(S'synthetic'
p1189
S'synthetic'
p1190
S'JJ'
p1191
S'I-NP'
p1192
g5
tp1193
a(S'peptide'
p1194
S'peptide'
p1195
S'NN'
p1196
S'I-NP'
p1197
g5
tp1198
a(g17
g17
g17
g5
g5
tp1199
a(S'BANA'
p1200
S'BANA'
p1201
S'NN'
p1202
S'B-NP'
p1203
S'B-protein'
p1204
tp1205
a(g24
g24
g24
g5
g5
tp1206
a(S'was'
p1207
S'be'
p1208
S'VBD'
p1209
S'B-VP'
p1210
g5
tp1211
a(S'also'
p1212
S'also'
p1213
S'RB'
p1214
S'B-ADVP'
p1215
g5
tp1216
a(S'able'
p1217
S'able'
p1218
S'JJ'
p1219
S'B-ADJP'
p1220
g5
tp1221
a(S'to'
p1222
S'to'
p1223
S'TO'
p1224
S'B-VP'
p1225
g5
tp1226
a(S'identify'
p1227
S'identify'
p1228
S'VB'
p1229
S'I-VP'
p1230
g5
tp1231
a(S'most'
p1232
S'most'
p1233
S'RBS'
p1234
S'B-NP'
p1235
g5
tp1236
a(S'non-compliant'
p1237
S'non-compliant'
p1238
S'JJ'
p1239
S'I-NP'
p1240
g5
tp1241
a(S'patients.'
p1242
S'patients.'
p1243
S'NN'
p1244
S'I-NP'
p1245
g5
tp1246
a(S'Clinical'
p1247
S'Clinical'
p1248
S'JJ'
p1249
S'I-NP'
p1250
g5
tp1251
a(S'trials'
p1252
S'trial'
p1253
S'NNS'
p1254
S'I-NP'
p1255
g5
tp1256
a(S'involving'
p1257
S'involve'
p1258
S'VBG'
p1259
S'B-VP'
p1260
g5
tp1261
a(S'the'
p1262
S'the'
p1263
S'DT'
p1264
S'B-NP'
p1265
g5
tp1266
a(S'unsupervised'
p1267
S'unsupervised'
p1268
S'JJ'
p1269
S'I-NP'
p1270
g5
tp1271
a(S'usage'
p1272
S'usage'
p1273
S'NN'
p1274
S'I-NP'
p1275
g5
tp1276
a(S'of'
p1277
S'of'
p1278
S'IN'
p1279
S'B-PP'
p1280
g5
tp1281
a(S'systemic'
p1282
S'systemic'
p1283
S'JJ'
p1284
S'B-NP'
p1285
g5
tp1286
a(S'medication'
p1287
S'medication'
p1288
S'NN'
p1289
S'I-NP'
p1290
g5
tp1291
a(S'need'
p1292
S'need'
p1293
S'VBP'
p1294
S'B-VP'
p1295
g5
tp1296
a(S'to'
p1297
S'to'
p1298
S'TO'
p1299
S'I-VP'
p1300
g5
tp1301
a(S'take'
p1302
S'take'
p1303
S'VB'
p1304
S'I-VP'
p1305
g5
tp1306
a(S'into'
p1307
S'into'
p1308
S'IN'
p1309
S'B-PP'
p1310
g5
tp1311
a(S'account'
p1312
S'account'
p1313
S'NN'
p1314
S'B-NP'
p1315
g5
tp1316
a(S'patient'
p1317
S'patient'
p1318
S'NN'
p1319
S'I-NP'
p1320
g5
tp1321
a(S'non-compliance'
p1322
S'non-compliance'
p1323
S'NN'
p1324
S'I-NP'
p1325
g5
tp1326
a(g26
g26
g26
g5
g5
tp1327
a.