(lp0
(S'Double-blind'
p1
S'Double-blind'
p2
S'JJ'
p3
S'B-NP'
p4
S'O'
p5
tp6
a(S','
p7
g7
g7
S'I-NP'
p8
g5
tp9
a(S'placebo-controlled'
p10
S'placebo-controlled'
p11
S'JJ'
p12
S'I-NP'
p13
g5
tp14
a(S'study'
p15
S'study'
p16
S'NN'
p17
S'I-NP'
p18
g5
tp19
a(S'of'
p20
S'of'
p21
S'IN'
p22
S'B-PP'
p23
g5
tp24
a(S'amantadine'
p25
S'amantadine'
p26
S'NN'
p27
S'B-NP'
p28
g5
tp29
a(S'hydrochloride'
p30
S'hydrochloride'
p31
S'NN'
p32
S'I-NP'
p33
g5
tp34
a(S'in'
p35
S'in'
p36
S'IN'
p37
S'B-PP'
p38
g5
tp39
a(S'the'
p40
S'the'
p41
S'DT'
p42
S'B-NP'
p43
g5
tp44
a(S'treatment'
p45
S'treatment'
p46
S'NN'
p47
S'I-NP'
p48
g5
tp49
a(S'of'
p50
S'of'
p51
S'IN'
p52
S'B-PP'
p53
g5
tp54
a(S'children'
p55
S'child'
p56
S'NNS'
p57
S'B-NP'
p58
g5
tp59
a(S'with'
p60
S'with'
p61
S'IN'
p62
S'B-PP'
p63
g5
tp64
a(S'autistic'
p65
S'autistic'
p66
S'JJ'
p67
S'B-NP'
p68
g5
tp69
a(S'disorder'
p70
S'disorder'
p71
S'NN'
p72
S'I-NP'
p73
g5
tp74
a(S'.'
p75
g75
g75
g5
g5
tp76
a(S'OBJECTIVE'
p77
S'OBJECTIVE'
p78
S'NN'
p79
S'B-NP'
p80
g5
tp81
a(S'To'
p82
S'To'
p83
S'TO'
p84
S'B-VP'
p85
g5
tp86
a(S'test'
p87
S'test'
p88
S'VB'
p89
S'I-VP'
p90
g5
tp91
a(S'the'
p92
S'the'
p93
S'DT'
p94
S'B-NP'
p95
g5
tp96
a(S'hypothesis'
p97
S'hypothesis'
p98
S'NN'
p99
S'I-NP'
p100
g5
tp101
a(S'that'
p102
S'that'
p103
S'IN'
p104
S'B-SBAR'
p105
g5
tp106
a(S'amantadine'
p107
S'amantadine'
p108
S'NN'
p109
S'B-NP'
p110
g5
tp111
a(S'hydrochloride'
p112
S'hydrochloride'
p113
S'NN'
p114
S'I-NP'
p115
g5
tp116
a(S'is'
p117
S'be'
p118
S'VBZ'
p119
S'B-VP'
p120
g5
tp121
a(S'a'
p122
g122
S'DT'
p123
S'B-NP'
p124
g5
tp125
a(S'safe'
p126
S'safe'
p127
S'JJ'
p128
S'I-NP'
p129
g5
tp130
a(S'and'
p131
S'and'
p132
S'CC'
p133
S'I-NP'
p134
g5
tp135
a(S'effective'
p136
S'effective'
p137
S'JJ'
p138
S'I-NP'
p139
g5
tp140
a(S'treatment'
p141
S'treatment'
p142
S'NN'
p143
S'I-NP'
p144
g5
tp145
a(S'for'
p146
S'for'
p147
S'IN'
p148
S'B-PP'
p149
g5
tp150
a(S'behavioral'
p151
S'behavioral'
p152
S'JJ'
p153
S'B-NP'
p154
g5
tp155
a(S'disturbances'
p156
S'disturbance'
p157
S'NNS'
p158
S'I-NP'
p159
g5
tp160
a(S'--'
p161
S'--'
p162
S':'
p163
g5
g5
tp164
a(S'for'
p165
S'for'
p166
S'IN'
p167
S'B-PP'
p168
g5
tp169
a(S'example'
p170
S'example'
p171
S'NN'
p172
S'B-NP'
p173
g5
tp174
a(g7
g7
g7
g5
g5
tp175
a(S'hyperactivity'
p176
S'hyperactivity'
p177
S'NN'
p178
S'B-NP'
p179
g5
tp180
a(S'and'
p181
S'and'
p182
S'CC'
p183
S'I-NP'
p184
g5
tp185
a(S'irritability'
p186
S'irritability'
p187
S'NN'
p188
S'I-NP'
p189
g5
tp190
a(S'--'
p191
S'--'
p192
g163
g5
g5
tp193
a(S'in'
p194
S'in'
p195
S'IN'
p196
S'B-PP'
p197
g5
tp198
a(S'children'
p199
S'child'
p200
S'NNS'
p201
S'B-NP'
p202
g5
tp203
a(S'with'
p204
S'with'
p205
S'IN'
p206
S'B-PP'
p207
g5
tp208
a(S'autism'
p209
S'autism'
p210
S'NN'
p211
S'B-NP'
p212
g5
tp213
a(g75
g75
g75
g5
g5
tp214
a(S'METHOD'
p215
S'METHOD'
p216
S'NN'
p217
S'B-NP'
p218
g5
tp219
a(S'Thirty-nine'
p220
S'Thirty-nine'
p221
S'JJ'
p222
S'I-NP'
p223
g5
tp224
a(S'subjects'
p225
S'subject'
p226
S'NNS'
p227
S'I-NP'
p228
g5
tp229
a(S'('
p230
g230
g230
g5
g5
tp231
a(S'intent'
p232
S'intent'
p233
S'NN'
p234
S'B-NP'
p235
g5
tp236
a(S'to'
p237
S'to'
p238
S'TO'
p239
S'B-VP'
p240
g5
tp241
a(S'treat'
p242
S'treat'
p243
S'VB'
p244
S'I-VP'
p245
g5
tp246
a(S';'
p247
g247
g163
g5
g5
tp248
a(S'5-19'
p249
S'5-19'
p250
S'CD'
p251
S'B-NP'
p252
g5
tp253
a(S'years'
p254
S'year'
p255
S'NNS'
p256
S'I-NP'
p257
g5
tp258
a(S'old'
p259
S'old'
p260
S'JJ'
p261
S'B-ADJP'
p262
g5
tp263
a(g247
g247
g163
g5
g5
tp264
a(S'IQ'
p265
S'IQ'
p266
S'NN'
p267
S'B-NP'
p268
g5
tp269
a(S'>'
p270
g270
S'JJR'
p271
S'I-NP'
p272
g5
tp273
a(S'35'
p274
S'35'
p275
S'CD'
p276
S'I-NP'
p277
g5
tp278
a(S')'
p279
g279
g279
g5
g5
tp280
a(S'had'
p281
S'have'
p282
S'VBD'
p283
S'B-VP'
p284
g5
tp285
a(S'autism'
p286
S'autism'
p287
S'NN'
p288
S'I-VP'
p289
g5
tp290
a(S'diagnosed'
p291
S'diagnose'
p292
S'VBN'
p293
S'I-VP'
p294
g5
tp295
a(S'according'
p296
S'accord'
p297
S'VBG'
p298
S'B-PP'
p299
g5
tp300
a(S'to'
p301
S'to'
p302
S'TO'
p303
S'B-PP'
p304
g5
tp305
a(S'DSM-IV'
p306
S'DSM-IV'
p307
S'NN'
p308
S'B-NP'
p309
g5
tp310
a(S'and'
p311
S'and'
p312
S'CC'
p313
S'I-NP'
p314
g5
tp315
a(S'ICD-10'
p316
S'ICD-10'
p317
S'NN'
p318
S'I-NP'
p319
S'B-protein'
p320
tp321
a(S'criteria'
p322
S'criterion'
p323
S'NNS'
p324
S'I-NP'
p325
g5
tp326
a(S'using'
p327
S'use'
p328
S'VBG'
p329
S'B-VP'
p330
g5
tp331
a(S'the'
p332
S'the'
p333
S'DT'
p334
S'B-NP'
p335
g5
tp336
a(S'Autism'
p337
S'Autism'
p338
S'NN'
p339
S'I-NP'
p340
g5
tp341
a(S'Diagnostic'
p342
S'Diagnostic'
p343
S'JJ'
p344
S'I-NP'
p345
g5
tp346
a(S'Interview-Revised'
p347
S'Interview-Revised'
p348
S'JJ'
p349
S'I-NP'
p350
g5
tp351
a(S'and'
p352
S'and'
p353
S'CC'
p354
g5
g5
tp355
a(S'the'
p356
S'the'
p357
S'DT'
p358
S'B-NP'
p359
g5
tp360
a(S'Autism'
p361
S'Autism'
p362
S'NNP'
p363
S'I-NP'
p364
g5
tp365
a(S'Diagnostic'
p366
S'Diagnostic'
p367
S'NNP'
p368
S'I-NP'
p369
g5
tp370
a(S'Observation'
p371
S'Observation'
p372
S'NNP'
p373
S'I-NP'
p374
g5
tp375
a(S'Schedule-Generic.'
p376
S'Schedule-Generic.'
p377
S'NNP'
p378
S'I-NP'
p379
g5
tp380
a(S'The'
p381
S'The'
p382
S'NNP'
p383
S'I-NP'
p384
g5
tp385
a(S'Aberrant'
p386
S'Aberrant'
p387
S'NNP'
p388
S'I-NP'
p389
g5
tp390
a(S'Behavior'
p391
S'Behavior'
p392
S'NNP'
p393
S'I-NP'
p394
g5
tp395
a(S'Checklist-Community'
p396
S'Checklist-Community'
p397
S'NNP'
p398
S'I-NP'
p399
g5
tp400
a(S'Version'
p401
S'Version'
p402
S'NNP'
p403
S'I-NP'
p404
g5
tp405
a(g230
g230
g230
g5
g5
tp406
a(S'ABC-CV'
p407
S'ABC-CV'
p408
S'NNP'
p409
S'B-NP'
p410
g5
tp411
a(g279
g279
g279
g5
g5
tp412
a(S'and'
p413
S'and'
p414
S'CC'
p415
g5
g5
tp416
a(S'Clinical'
p417
S'Clinical'
p418
S'JJ'
p419
S'B-NP'
p420
g5
tp421
a(S'Global'
p422
S'Global'
p423
S'JJ'
p424
S'I-NP'
p425
g5
tp426
a(S'Impressions'
p427
S'Impression'
p428
S'NNS'
p429
S'I-NP'
p430
g5
tp431
a(g230
g230
g230
g5
g5
tp432
a(S'CGI'
p433
S'CGI'
p434
S'NN'
p435
S'B-NP'
p436
g5
tp437
a(g279
g279
g279
g5
g5
tp438
a(S'scale'
p439
S'scale'
p440
S'NN'
p441
S'B-NP'
p442
g5
tp443
a(S'were'
p444
S'be'
p445
S'VBD'
p446
S'B-VP'
p447
g5
tp448
a(S'used'
p449
S'use'
p450
S'VBN'
p451
S'I-VP'
p452
g5
tp453
a(S'as'
p454
S'as'
p455
S'IN'
p456
S'B-PP'
p457
g5
tp458
a(S'outcome'
p459
S'outcome'
p460
S'NN'
p461
S'B-NP'
p462
g5
tp463
a(S'variables.'
p464
S'variables.'
p465
S'NN'
p466
S'I-NP'
p467
g5
tp468
a(S'After'
p469
S'After'
p470
S'IN'
p471
S'B-PP'
p472
g5
tp473
a(g122
g122
S'DT'
p474
S'B-NP'
p475
g5
tp476
a(S'1-week'
p477
S'1-week'
p478
S'JJ'
p479
S'I-NP'
p480
g5
tp481
a(g7
g7
g7
S'I-NP'
p482
g5
tp483
a(S'single-blind'
p484
S'single-blind'
p485
S'JJ'
p486
S'I-NP'
p487
S'B-protein'
p488
tp489
a(S'placebo'
p490
S'placebo'
p491
S'NN'
p492
S'I-NP'
p493
S'I-protein'
p494
tp495
a(S'run-in'
p496
S'run-in'
p497
S'NN'
p498
S'I-NP'
p499
S'I-protein'
p500
tp501
a(g7
g7
g7
g5
g5
tp502
a(S'patients'
p503
S'patient'
p504
S'NNS'
p505
S'B-NP'
p506
g5
tp507
a(S'received'
p508
S'receive'
p509
S'VBD'
p510
S'B-VP'
p511
g5
tp512
a(g122
g122
S'DT'
p513
S'B-NP'
p514
g5
tp515
a(S'single'
p516
S'single'
p517
S'JJ'
p518
S'I-NP'
p519
g5
tp520
a(S'daily'
p521
S'daily'
p522
S'JJ'
p523
S'I-NP'
p524
g5
tp525
a(S'dose'
p526
S'dose'
p527
S'NN'
p528
S'I-NP'
p529
g5
tp530
a(S'of'
p531
S'of'
p532
S'IN'
p533
S'B-PP'
p534
g5
tp535
a(S'amantadine'
p536
S'amantadine'
p537
S'NN'
p538
S'B-NP'
p539
g5
tp540
a(g230
g230
g230
g5
g5
tp541
a(S'2.5'
p542
S'2.5'
p543
S'CD'
p544
S'B-NP'
p545
g5
tp546
a(S'mg/kg'
p547
S'mg/kg'
p548
S'NN'
p549
S'I-NP'
p550
g5
tp551
a(S'per'
p552
S'per'
p553
S'IN'
p554
S'B-PP'
p555
g5
tp556
a(S'day'
p557
S'day'
p558
S'NN'
p559
S'B-NP'
p560
g5
tp561
a(g279
g279
g279
g5
g5
tp562
a(S'or'
p563
S'or'
p564
S'CC'
p565
g5
g5
tp566
a(S'placebo'
p567
S'placebo'
p568
S'NN'
p569
S'B-NP'
p570
g5
tp571
a(S'for'
p572
S'for'
p573
S'IN'
p574
S'B-PP'
p575
g5
tp576
a(S'the'
p577
S'the'
p578
S'DT'
p579
S'B-NP'
p580
g5
tp581
a(S'next'
p582
S'next'
p583
S'JJ'
p584
S'I-NP'
p585
g5
tp586
a(S'week'
p587
S'week'
p588
S'NN'
p589
S'I-NP'
p590
g5
tp591
a(g7
g7
g7
g5
g5
tp592
a(S'and'
p593
S'and'
p594
S'CC'
p595
g5
g5
tp596
a(S'then'
p597
S'then'
p598
S'RB'
p599
g5
g5
tp600
a(S'bid'
p601
S'bid'
p602
S'NN'
p603
S'B-NP'
p604
g5
tp605
a(S'dosing'
p606
S'dosing'
p607
S'NN'
p608
S'I-NP'
p609
g5
tp610
a(g230
g230
g230
g5
g5
tp611
a(S'5.0'
p612
S'5.0'
p613
S'CD'
p614
S'B-NP'
p615
g5
tp616
a(S'mg/kg'
p617
S'mg/kg'
p618
S'NN'
p619
S'I-NP'
p620
g5
tp621
a(S'per'
p622
S'per'
p623
S'IN'
p624
S'B-PP'
p625
g5
tp626
a(S'day'
p627
S'day'
p628
S'NN'
p629
S'B-NP'
p630
g5
tp631
a(g279
g279
g279
g5
g5
tp632
a(S'for'
p633
S'for'
p634
S'IN'
p635
S'B-PP'
p636
g5
tp637
a(S'the'
p638
S'the'
p639
S'DT'
p640
S'B-NP'
p641
g5
tp642
a(S'subsequent'
p643
S'subsequent'
p644
S'JJ'
p645
S'I-NP'
p646
g5
tp647
a(S'3'
p648
g648
S'CD'
p649
S'I-NP'
p650
g5
tp651
a(S'weeks'
p652
S'week'
p653
S'NNS'
p654
S'I-NP'
p655
g5
tp656
a(g75
g75
g75
g5
g5
tp657
a(S'RESULTS'
p658
S'RESULTS'
p659
S'NNS'
p660
S'B-NP'
p661
g5
tp662
a(S'When'
p663
S'When'
p664
S'WRB'
p665
S'B-ADVP'
p666
g5
tp667
a(S'assessed'
p668
S'assess'
p669
S'VBN'
p670
S'B-VP'
p671
g5
tp672
a(S'on'
p673
S'on'
p674
S'IN'
p675
S'B-PP'
p676
g5
tp677
a(S'the'
p678
S'the'
p679
S'DT'
p680
S'B-NP'
p681
g5
tp682
a(S'basis'
p683
S'basis'
p684
S'NN'
p685
S'I-NP'
p686
g5
tp687
a(S'of'
p688
S'of'
p689
S'IN'
p690
S'B-PP'
p691
g5
tp692
a(S'parent-rated'
p693
S'parent-rated'
p694
S'JJ'
p695
S'B-NP'
p696
g5
tp697
a(S'ABC-CV'
p698
S'ABC-CV'
p699
S'NN'
p700
S'I-NP'
p701
g5
tp702
a(S'ratings'
p703
S'rating'
p704
S'NNS'
p705
S'I-NP'
p706
g5
tp707
a(S'of'
p708
S'of'
p709
S'IN'
p710
S'B-PP'
p711
g5
tp712
a(S'irritability'
p713
S'irritability'
p714
S'NN'
p715
S'B-NP'
p716
g5
tp717
a(S'and'
p718
S'and'
p719
S'CC'
p720
S'I-NP'
p721
g5
tp722
a(S'hyperactivity'
p723
S'hyperactivity'
p724
S'NN'
p725
S'I-NP'
p726
g5
tp727
a(g7
g7
g7
g5
g5
tp728
a(S'the'
p729
S'the'
p730
S'DT'
p731
S'B-NP'
p732
g5
tp733
a(S'mean'
p734
S'mean'
p735
S'JJ'
p736
S'I-NP'
p737
g5
tp738
a(S'placebo'
p739
S'placebo'
p740
S'NN'
p741
S'I-NP'
p742
g5
tp743
a(S'response'
p744
S'response'
p745
S'NN'
p746
S'I-NP'
p747
g5
tp748
a(S'rate'
p749
S'rate'
p750
S'NN'
p751
S'I-NP'
p752
g5
tp753
a(S'was'
p754
S'be'
p755
S'VBD'
p756
S'B-VP'
p757
g5
tp758
a(S'37'
p759
S'37'
p760
S'CD'
p761
S'B-NP'
p762
g5
tp763
a(S'%'
p764
g764
S'NN'
p765
S'I-NP'
p766
g5
tp767
a(S'versus'
p768
S'versus'
p769
S'CC'
p770
S'B-NP'
p771
g5
tp772
a(S'amantadine'
p773
S'amantadine'
p774
S'NN'
p775
S'I-NP'
p776
g5
tp777
a(S'at'
p778
S'at'
p779
S'IN'
p780
S'B-PP'
p781
g5
tp782
a(S'47'
p783
S'47'
p784
S'CD'
p785
S'B-NP'
p786
g5
tp787
a(g764
g764
S'NN'
p788
S'I-NP'
p789
g5
tp790
a(g230
g230
g230
g5
g5
tp791
a(S'not'
p792
S'not'
p793
S'RB'
p794
g5
g5
tp795
a(S'significant'
p796
S'significant'
p797
S'JJ'
p798
S'B-ADJP'
p799
g5
tp800
a(g279
g279
g279
g5
g5
tp801
a(g75
g75
g75
g5
g5
tp802
a(S'However'
p803
S'However'
p804
S'RB'
p805
S'B-ADVP'
p806
g5
tp807
a(g7
g7
g7
g5
g5
tp808
a(S'in'
p809
S'in'
p810
S'IN'
p811
S'B-PP'
p812
g5
tp813
a(S'the'
p814
S'the'
p815
S'DT'
p816
S'B-NP'
p817
g5
tp818
a(S'amantadine-treated'
p819
S'amantadine-treated'
p820
S'JJ'
p821
S'I-NP'
p822
g5
tp823
a(S'group'
p824
S'group'
p825
S'NN'
p826
S'I-NP'
p827
g5
tp828
a(S'there'
p829
S'there'
p830
S'EX'
p831
S'B-NP'
p832
g5
tp833
a(S'were'
p834
S'be'
p835
S'VBD'
p836
S'B-VP'
p837
g5
tp838
a(S'statistically'
p839
S'statistically'
p840
S'RB'
p841
S'B-NP'
p842
g5
tp843
a(S'significant'
p844
S'significant'
p845
S'JJ'
p846
S'I-NP'
p847
g5
tp848
a(S'improvements'
p849
S'improvement'
p850
S'NNS'
p851
S'I-NP'
p852
g5
tp853
a(S'in'
p854
S'in'
p855
S'IN'
p856
S'B-PP'
p857
g5
tp858
a(S'absolute'
p859
S'absolute'
p860
S'JJ'
p861
S'B-NP'
p862
g5
tp863
a(S'changes'
p864
S'change'
p865
S'NNS'
p866
S'I-NP'
p867
g5
tp868
a(S'in'
p869
S'in'
p870
S'IN'
p871
S'B-PP'
p872
g5
tp873
a(S'clinician-rated'
p874
S'clinician-rated'
p875
S'JJ'
p876
S'B-NP'
p877
g5
tp878
a(S'ABC-CVs'
p879
S'ABC-CV'
p880
S'NNS'
p881
S'I-NP'
p882
g5
tp883
a(S'for'
p884
S'for'
p885
S'IN'
p886
S'B-PP'
p887
g5
tp888
a(S'hyperactivity'
p889
S'hyperactivity'
p890
S'NN'
p891
S'B-NP'
p892
g5
tp893
a(g230
g230
g230
g5
g5
tp894
a(S'amantadine'
p895
S'amantadine'
p896
S'NN'
p897
S'B-NP'
p898
g5
tp899
a(S'-6.4'
p900
S'-6.4'
p901
S'CD'
p902
S'I-NP'
p903
g5
tp904
a(S'versus'
p905
S'versus'
p906
S'CC'
p907
g5
g5
tp908
a(S'placebo'
p909
S'placebo'
p910
S'NN'
p911
S'B-NP'
p912
g5
tp913
a(S'-2.1'
p914
S'-2.1'
p915
S'CD'
p916
S'I-NP'
p917
g5
tp918
a(g247
g247
g163
g5
g5
tp919
a(S'p'
p920
g920
S'NN'
p921
S'B-NP'
p922
g5
tp923
a(S'='
p924
g924
S'SYM'
p925
S'B-VP'
p926
g5
tp927
a(S'.046'
p928
S'.046'
p929
S'CD'
p930
S'B-NP'
p931
g5
tp932
a(g279
g279
g279
g5
g5
tp933
a(S'and'
p934
S'and'
p935
S'CC'
p936
g5
g5
tp937
a(S'inappropriate'
p938
S'inappropriate'
p939
S'JJ'
p940
S'B-NP'
p941
g5
tp942
a(S'speech'
p943
S'speech'
p944
S'NN'
p945
S'I-NP'
p946
g5
tp947
a(g230
g230
g230
g5
g5
tp948
a(S'-1.9'
p949
S'-1.9'
p950
S'CD'
p951
S'B-NP'
p952
g5
tp953
a(S'versus'
p954
S'versus'
p955
S'CC'
p956
S'I-NP'
p957
g5
tp958
a(S'0.4'
p959
S'0.4'
p960
S'CD'
p961
S'I-NP'
p962
g5
tp963
a(g247
g247
g163
g5
g5
tp964
a(g920
g920
S'NN'
p965
S'B-NP'
p966
g5
tp967
a(g924
g924
S'SYM'
p968
S'B-VP'
p969
g5
tp970
a(S'.008'
p971
S'.008'
p972
S'CD'
p973
S'B-NP'
p974
g5
tp975
a(g279
g279
g279
g5
g5
tp976
a(g75
g75
g75
g5
g5
tp977
a(S'CGI'
p978
S'CGI'
p979
S'NN'
p980
S'B-NP'
p981
g5
tp982
a(S'scale'
p983
S'scale'
p984
S'NN'
p985
S'I-NP'
p986
g5
tp987
a(S'ratings'
p988
S'rating'
p989
S'NNS'
p990
S'I-NP'
p991
g5
tp992
a(S'were'
p993
S'be'
p994
S'VBD'
p995
S'B-VP'
p996
g5
tp997
a(S'higher'
p998
S'high'
p999
S'JJR'
p1000
S'B-ADJP'
p1001
g5
tp1002
a(S'in'
p1003
S'in'
p1004
S'IN'
p1005
S'B-PP'
p1006
g5
tp1007
a(S'the'
p1008
S'the'
p1009
S'DT'
p1010
S'B-NP'
p1011
g5
tp1012
a(S'amantadine'
p1013
S'amantadine'
p1014
S'NN'
p1015
S'I-NP'
p1016
g5
tp1017
a(S'group'
p1018
S'group'
p1019
S'NN'
p1020
S'I-NP'
p1021
g5
tp1022
a(g163
g163
g163
g5
g5
tp1023
a(S'53'
p1024
S'53'
p1025
S'CD'
p1026
S'B-NP'
p1027
g5
tp1028
a(g764
g764
S'NN'
p1029
S'I-NP'
p1030
g5
tp1031
a(S'improved'
p1032
S'improve'
p1033
S'VBD'
p1034
S'B-VP'
p1035
g5
tp1036
a(S'versus'
p1037
S'versus'
p1038
S'IN'
p1039
S'B-PP'
p1040
g5
tp1041
a(S'25'
p1042
S'25'
p1043
S'CD'
p1044
S'B-NP'
p1045
g5
tp1046
a(g764
g764
S'NN'
p1047
S'I-NP'
p1048
g5
tp1049
a(g230
g230
g230
g5
g5
tp1050
a(g920
g920
S'NN'
p1051
S'B-NP'
p1052
g5
tp1053
a(g924
g924
S'SYM'
p1054
S'B-VP'
p1055
g5
tp1056
a(S'.076'
p1057
S'.076'
p1058
S'CD'
p1059
S'B-NP'
p1060
g5
tp1061
a(g279
g279
g279
g5
g5
tp1062
a(g75
g75
g75
g5
g5
tp1063
a(S'Amantadine'
p1064
S'Amantadine'
p1065
S'NN'
p1066
S'B-NP'
p1067
g5
tp1068
a(S'was'
p1069
S'be'
p1070
S'VBD'
p1071
S'B-VP'
p1072
g5
tp1073
a(S'well'
p1074
S'well'
p1075
S'RB'
p1076
S'I-VP'
p1077
g5
tp1078
a(S'tolerated'
p1079
S'tolerate'
p1080
S'VBN'
p1081
S'I-VP'
p1082
g5
tp1083
a(g75
g75
g75
g5
g5
tp1084
a(S'CONCLUSIONS'
p1085
S'CONCLUSIONS'
p1086
S'NNS'
p1087
S'B-NP'
p1088
g5
tp1089
a(S'Parents'
p1090
S'Parent'
p1091
S'NNS'
p1092
S'I-NP'
p1093
g5
tp1094
a(S'did'
p1095
S'do'
p1096
S'VBD'
p1097
S'B-VP'
p1098
g5
tp1099
a(S'not'
p1100
S'not'
p1101
S'RB'
p1102
S'I-VP'
p1103
g5
tp1104
a(S'report'
p1105
S'report'
p1106
S'VB'
p1107
S'I-VP'
p1108
g5
tp1109
a(S'statistically'
p1110
S'statistically'
p1111
S'RB'
p1112
S'B-NP'
p1113
g5
tp1114
a(S'significant'
p1115
S'significant'
p1116
S'JJ'
p1117
S'I-NP'
p1118
g5
tp1119
a(S'behavioral'
p1120
S'behavioral'
p1121
S'JJ'
p1122
S'I-NP'
p1123
g5
tp1124
a(S'change'
p1125
S'change'
p1126
S'NN'
p1127
S'I-NP'
p1128
g5
tp1129
a(S'with'
p1130
S'with'
p1131
S'IN'
p1132
S'B-PP'
p1133
g5
tp1134
a(S'amantadine.'
p1135
S'amantadine.'
p1136
S'NN'
p1137
S'B-NP'
p1138
g5
tp1139
a(S'However'
p1140
S'However'
p1141
S'RB'
p1142
S'B-ADVP'
p1143
g5
tp1144
a(g7
g7
g7
g5
g5
tp1145
a(S'clinician-rated'
p1146
S'clinician-rated'
p1147
S'JJ'
p1148
S'B-NP'
p1149
g5
tp1150
a(S'improvements'
p1151
S'improvement'
p1152
S'NNS'
p1153
S'I-NP'
p1154
g5
tp1155
a(S'in'
p1156
S'in'
p1157
S'IN'
p1158
S'B-PP'
p1159
g5
tp1160
a(S'behavioral'
p1161
S'behavioral'
p1162
S'JJ'
p1163
S'B-NP'
p1164
g5
tp1165
a(S'ratings'
p1166
S'rating'
p1167
S'NNS'
p1168
S'I-NP'
p1169
g5
tp1170
a(S'following'
p1171
S'follow'
p1172
S'VBG'
p1173
S'B-PP'
p1174
g5
tp1175
a(S'treatment'
p1176
S'treatment'
p1177
S'NN'
p1178
S'B-NP'
p1179
g5
tp1180
a(S'with'
p1181
S'with'
p1182
S'IN'
p1183
S'B-PP'
p1184
g5
tp1185
a(S'amantadine'
p1186
S'amantadine'
p1187
S'NN'
p1188
S'B-NP'
p1189
g5
tp1190
a(S'suggest'
p1191
S'suggest'
p1192
S'VBP'
p1193
S'B-VP'
p1194
g5
tp1195
a(S'that'
p1196
S'that'
p1197
S'IN'
p1198
S'B-SBAR'
p1199
g5
tp1200
a(S'further'
p1201
S'further'
p1202
S'JJ'
p1203
S'B-NP'
p1204
g5
tp1205
a(S'studies'
p1206
S'study'
p1207
S'NNS'
p1208
S'I-NP'
p1209
g5
tp1210
a(S'with'
p1211
S'with'
p1212
S'IN'
p1213
S'B-PP'
p1214
g5
tp1215
a(S'this'
p1216
S'this'
p1217
S'DT'
p1218
S'B-NP'
p1219
g5
tp1220
a(S'or'
p1221
S'or'
p1222
S'CC'
p1223
S'I-NP'
p1224
g5
tp1225
a(S'other'
p1226
S'other'
p1227
S'JJ'
p1228
S'I-NP'
p1229
g5
tp1230
a(S'drugs'
p1231
S'drug'
p1232
S'NNS'
p1233
S'I-NP'
p1234
g5
tp1235
a(S'acting'
p1236
S'act'
p1237
S'VBG'
p1238
S'B-VP'
p1239
g5
tp1240
a(S'on'
p1241
S'on'
p1242
S'IN'
p1243
S'B-PP'
p1244
g5
tp1245
a(S'the'
p1246
S'the'
p1247
S'DT'
p1248
S'B-NP'
p1249
g5
tp1250
a(S'glutamatergic'
p1251
S'glutamatergic'
p1252
S'JJ'
p1253
S'I-NP'
p1254
g5
tp1255
a(S'system'
p1256
S'system'
p1257
S'NN'
p1258
S'I-NP'
p1259
g5
tp1260
a(S'are'
p1261
S'be'
p1262
S'VBP'
p1263
S'B-VP'
p1264
g5
tp1265
a(S'warranted.'
p1266
S'warranted.'
p1267
S'VBN'
p1268
S'I-VP'
p1269
g5
tp1270
a(S'The'
p1271
S'The'
p1272
S'DT'
p1273
S'B-NP'
p1274
g5
tp1275
a(S'design'
p1276
S'design'
p1277
S'NN'
p1278
S'I-NP'
p1279
g5
tp1280
a(S'of'
p1281
S'of'
p1282
S'IN'
p1283
S'B-PP'
p1284
g5
tp1285
a(S'these'
p1286
S'these'
p1287
S'DT'
p1288
S'B-NP'
p1289
g5
tp1290
a(S'and'
p1291
S'and'
p1292
S'CC'
p1293
S'I-NP'
p1294
g5
tp1295
a(S'similar'
p1296
S'similar'
p1297
S'JJ'
p1298
S'I-NP'
p1299
g5
tp1300
a(S'drug'
p1301
S'drug'
p1302
S'NN'
p1303
S'I-NP'
p1304
g5
tp1305
a(S'trials'
p1306
S'trial'
p1307
S'NNS'
p1308
S'I-NP'
p1309
g5
tp1310
a(S'in'
p1311
S'in'
p1312
S'IN'
p1313
S'B-PP'
p1314
g5
tp1315
a(S'children'
p1316
S'child'
p1317
S'NNS'
p1318
S'B-NP'
p1319
g5
tp1320
a(S'with'
p1321
S'with'
p1322
S'IN'
p1323
S'B-PP'
p1324
g5
tp1325
a(S'autistic'
p1326
S'autistic'
p1327
S'JJ'
p1328
S'B-NP'
p1329
g5
tp1330
a(S'disorder'
p1331
S'disorder'
p1332
S'NN'
p1333
S'I-NP'
p1334
g5
tp1335
a(S'must'
p1336
S'must'
p1337
S'MD'
p1338
S'B-VP'
p1339
g5
tp1340
a(S'take'
p1341
S'take'
p1342
S'VB'
p1343
S'I-VP'
p1344
g5
tp1345
a(S'into'
p1346
S'into'
p1347
S'IN'
p1348
S'B-PP'
p1349
g5
tp1350
a(S'account'
p1351
S'account'
p1352
S'NN'
p1353
S'B-NP'
p1354
g5
tp1355
a(S'the'
p1356
S'the'
p1357
S'DT'
p1358
S'B-NP'
p1359
g5
tp1360
a(S'possibility'
p1361
S'possibility'
p1362
S'NN'
p1363
S'I-NP'
p1364
g5
tp1365
a(S'of'
p1366
S'of'
p1367
S'IN'
p1368
S'B-PP'
p1369
g5
tp1370
a(g122
g122
S'DT'
p1371
S'B-NP'
p1372
g5
tp1373
a(S'large'
p1374
S'large'
p1375
S'JJ'
p1376
S'I-NP'
p1377
g5
tp1378
a(S'placebo'
p1379
S'placebo'
p1380
S'NN'
p1381
S'I-NP'
p1382
g5
tp1383
a(S'response'
p1384
S'response'
p1385
S'NN'
p1386
S'I-NP'
p1387
g5
tp1388
a(g75
g75
g75
g5
g5
tp1389
a.