(lp0
(S'Preoperative'
p1
S'Preoperative'
p2
S'JJ'
p3
S'B-NP'
p4
S'O'
p5
tp6
a(S'irradiation'
p7
S'irradiation'
p8
S'NN'
p9
S'I-NP'
p10
g5
tp11
a(S'versus'
p12
S'versus'
p13
S'IN'
p14
S'B-PP'
p15
g5
tp16
a(S'the'
p17
S'the'
p18
S'DT'
p19
S'B-NP'
p20
g5
tp21
a(S'use'
p22
S'use'
p23
S'NN'
p24
S'I-NP'
p25
g5
tp26
a(S'of'
p27
S'of'
p28
S'IN'
p29
S'B-PP'
p30
g5
tp31
a(S'nonsteroidal'
p32
S'nonsteroidal'
p33
S'JJ'
p34
S'B-NP'
p35
g5
tp36
a(S'anti-inflammatory'
p37
S'anti-inflammatory'
p38
S'JJ'
p39
S'I-NP'
p40
g5
tp41
a(S'drugs'
p42
S'drug'
p43
S'NNS'
p44
S'I-NP'
p45
g5
tp46
a(S'for'
p47
S'for'
p48
S'IN'
p49
S'B-PP'
p50
g5
tp51
a(S'prevention'
p52
S'prevention'
p53
S'NN'
p54
S'B-NP'
p55
g5
tp56
a(S'of'
p57
S'of'
p58
S'IN'
p59
S'B-PP'
p60
g5
tp61
a(S'heterotopic'
p62
S'heterotopic'
p63
S'JJ'
p64
S'B-NP'
p65
g5
tp66
a(S'ossification'
p67
S'ossification'
p68
S'NN'
p69
S'I-NP'
p70
g5
tp71
a(S'following'
p72
S'follow'
p73
S'VBG'
p74
S'B-PP'
p75
g5
tp76
a(S'total'
p77
S'total'
p78
S'JJ'
p79
S'B-NP'
p80
g5
tp81
a(S'hip'
p82
S'hip'
p83
S'NN'
p84
S'I-NP'
p85
g5
tp86
a(S'replacement'
p87
S'replacement'
p88
S'NN'
p89
S'I-NP'
p90
g5
tp91
a(S':'
p92
g92
g92
g5
g5
tp93
a(S'the'
p94
S'the'
p95
S'DT'
p96
S'B-NP'
p97
g5
tp98
a(S'results'
p99
S'result'
p100
S'NNS'
p101
S'I-NP'
p102
g5
tp103
a(S'of'
p104
S'of'
p105
S'IN'
p106
S'B-PP'
p107
g5
tp108
a(S'a'
p109
g109
S'DT'
p110
S'B-NP'
p111
g5
tp112
a(S'randomized'
p113
S'randomize'
p114
S'VBN'
p115
S'I-NP'
p116
g5
tp117
a(S'trial'
p118
S'trial'
p119
S'NN'
p120
S'I-NP'
p121
g5
tp122
a(S'.'
p123
g123
g123
g5
g5
tp124
a(S'PURPOSE'
p125
S'PURPOSE'
p126
S'NN'
p127
S'B-NP'
p128
g5
tp129
a(S'Previous'
p130
S'Previous'
p131
S'JJ'
p132
S'I-NP'
p133
g5
tp134
a(S'studies'
p135
S'study'
p136
S'NNS'
p137
S'I-NP'
p138
g5
tp139
a(S'showed'
p140
S'show'
p141
S'VBD'
p142
S'B-VP'
p143
g5
tp144
a(S'the'
p145
S'the'
p146
S'DT'
p147
S'B-NP'
p148
g5
tp149
a(S'effectiveness'
p150
S'effectiveness'
p151
S'NN'
p152
S'I-NP'
p153
g5
tp154
a(S'of'
p155
S'of'
p156
S'IN'
p157
S'B-PP'
p158
g5
tp159
a(S'early'
p160
S'early'
p161
S'JJ'
p162
S'B-NP'
p163
g5
tp164
a(S'preoperative'
p165
S'preoperative'
p166
S'JJ'
p167
S'I-NP'
p168
g5
tp169
a(S'('
p170
g170
g170
g5
g5
tp171
a(S'4'
p172
g172
S'CD'
p173
S'B-NP'
p174
g5
tp175
a(S'h'
p176
g176
S'NN'
p177
S'I-NP'
p178
g5
tp179
a(S'before'
p180
S'before'
p181
S'IN'
p182
S'B-PP'
p183
g5
tp184
a(S'operation'
p185
S'operation'
p186
S'NN'
p187
S'B-NP'
p188
g5
tp189
a(S')'
p190
g190
g190
g5
g5
tp191
a(S'irradiation'
p192
S'irradiation'
p193
S'NN'
p194
S'B-NP'
p195
g5
tp196
a(S'for'
p197
S'for'
p198
S'IN'
p199
S'B-PP'
p200
g5
tp201
a(S'prevention'
p202
S'prevention'
p203
S'NN'
p204
S'B-NP'
p205
g5
tp206
a(S'of'
p207
S'of'
p208
S'IN'
p209
S'B-PP'
p210
g5
tp211
a(S'heterotopic'
p212
S'heterotopic'
p213
S'JJ'
p214
S'B-NP'
p215
g5
tp216
a(S'ossification'
p217
S'ossification'
p218
S'NN'
p219
S'I-NP'
p220
g5
tp221
a(g170
g170
g170
g5
g5
tp222
a(S'HO'
p223
S'HO'
p224
S'NN'
p225
S'B-NP'
p226
g5
tp227
a(g190
g190
g190
g5
g5
tp228
a(S'after'
p229
S'after'
p230
S'IN'
p231
S'B-PP'
p232
g5
tp233
a(S'total'
p234
S'total'
p235
S'JJ'
p236
S'B-NP'
p237
g5
tp238
a(S'hip'
p239
S'hip'
p240
S'NN'
p241
S'I-NP'
p242
g5
tp243
a(S'replacement.'
p244
S'replacement.'
p245
S'VB'
p246
S'B-VP'
p247
g5
tp248
a(S'This'
p249
S'This'
p250
S'DT'
p251
S'B-NP'
p252
g5
tp253
a(S'procedure'
p254
S'procedure'
p255
S'NN'
p256
S'I-NP'
p257
g5
tp258
a(S'can'
p259
S'can'
p260
S'MD'
p261
S'B-VP'
p262
g5
tp263
a(S'result'
p264
S'result'
p265
S'VB'
p266
S'I-VP'
p267
g5
tp268
a(S'in'
p269
S'in'
p270
S'IN'
p271
S'B-PP'
p272
g5
tp273
a(S'logistic'
p274
S'logistic'
p275
S'JJ'
p276
S'B-NP'
p277
g5
tp278
a(S'problems'
p279
S'problem'
p280
S'NNS'
p281
S'I-NP'
p282
g5
tp283
a(S','
p284
g284
g284
g5
g5
tp285
a(S'if'
p286
S'if'
p287
S'IN'
p288
S'B-SBAR'
p289
g5
tp290
a(S'there'
p291
S'there'
p292
S'EX'
p293
S'B-NP'
p294
g5
tp295
a(S'is'
p296
S'be'
p297
S'VBZ'
p298
S'B-VP'
p299
g5
tp300
a(g109
g109
S'DT'
p301
S'B-NP'
p302
g5
tp303
a(S'great'
p304
S'great'
p305
S'JJ'
p306
S'I-NP'
p307
g5
tp308
a(S'distance'
p309
S'distance'
p310
S'NN'
p311
S'I-NP'
p312
g5
tp313
a(S'between'
p314
S'between'
p315
S'IN'
p316
S'B-PP'
p317
g5
tp318
a(S'the'
p319
S'the'
p320
S'DT'
p321
S'B-NP'
p322
g5
tp323
a(S'department'
p324
S'department'
p325
S'NN'
p326
S'I-NP'
p327
g5
tp328
a(S'of'
p329
S'of'
p330
S'IN'
p331
S'B-PP'
p332
g5
tp333
a(S'radiotherapy'
p334
S'radiotherapy'
p335
S'NN'
p336
S'B-NP'
p337
g5
tp338
a(S'and'
p339
S'and'
p340
S'CC'
p341
g5
g5
tp342
a(S'the'
p343
S'the'
p344
S'DT'
p345
S'B-NP'
p346
g5
tp347
a(S'orthopedic'
p348
S'orthopedic'
p349
S'JJ'
p350
S'I-NP'
p351
g5
tp352
a(S'clinic.'
p353
S'clinic.'
p354
S'NN'
p355
S'I-NP'
p356
g5
tp357
a(S'To'
p358
S'To'
p359
S'TO'
p360
S'B-VP'
p361
g5
tp362
a(S'avoid'
p363
S'avoid'
p364
S'VB'
p365
S'I-VP'
p366
g5
tp367
a(S'these'
p368
S'these'
p369
S'DT'
p370
S'B-NP'
p371
g5
tp372
a(S'organizational'
p373
S'organizational'
p374
S'JJ'
p375
S'I-NP'
p376
g5
tp377
a(S'problems'
p378
S'problem'
p379
S'NNS'
p380
S'I-NP'
p381
g5
tp382
a(g109
g109
S'DT'
p383
S'B-NP'
p384
g5
tp385
a(S'prospective'
p386
S'prospective'
p387
S'JJ'
p388
S'I-NP'
p389
g5
tp390
a(S'study'
p391
S'study'
p392
S'NN'
p393
S'I-NP'
p394
g5
tp395
a(S'was'
p396
S'be'
p397
S'VBD'
p398
S'B-VP'
p399
g5
tp400
a(S'undertaken'
p401
S'undertake'
p402
S'VBN'
p403
S'I-VP'
p404
g5
tp405
a(S'to'
p406
S'to'
p407
S'TO'
p408
S'I-VP'
p409
g5
tp410
a(S'analyze'
p411
S'analyze'
p412
S'VB'
p413
S'I-VP'
p414
g5
tp415
a(S'the'
p416
S'the'
p417
S'DT'
p418
S'B-NP'
p419
g5
tp420
a(S'effectiveness'
p421
S'effectiveness'
p422
S'NN'
p423
S'I-NP'
p424
g5
tp425
a(S'of'
p426
S'of'
p427
S'IN'
p428
S'B-PP'
p429
g5
tp430
a(S'preoperative'
p431
S'preoperative'
p432
S'JJ'
p433
S'B-NP'
p434
g5
tp435
a(S'irradiation'
p436
S'irradiation'
p437
S'NN'
p438
S'I-NP'
p439
g5
tp440
a(S'on'
p441
S'on'
p442
S'IN'
p443
S'B-PP'
p444
g5
tp445
a(S'the'
p446
S'the'
p447
S'DT'
p448
S'B-NP'
p449
g5
tp450
a(S'day'
p451
S'day'
p452
S'NN'
p453
S'I-NP'
p454
g5
tp455
a(S'preceding'
p456
S'precede'
p457
S'VBG'
p458
S'B-VP'
p459
g5
tp460
a(S'surgery'
p461
S'surgery'
p462
S'NN'
p463
S'B-NP'
p464
g5
tp465
a(g170
g170
g170
g5
g5
tp466
a(S'16-20'
p467
S'16-20'
p468
S'CD'
p469
S'B-NP'
p470
g5
tp471
a(g176
g176
S'NN'
p472
S'I-NP'
p473
g5
tp474
a(S'before'
p475
S'before'
p476
S'IN'
p477
S'B-PP'
p478
g5
tp479
a(S'operation'
p480
S'operation'
p481
S'NN'
p482
S'B-NP'
p483
g5
tp484
a(g190
g190
g190
g5
g5
tp485
a(g123
g123
g123
g5
g5
tp486
a(S'METHODS'
p487
S'METHODS'
p488
S'NNS'
p489
S'B-NP'
p490
g5
tp491
a(S'AND'
p492
S'AND'
p493
S'CC'
p494
S'I-NP'
p495
g5
tp496
a(S'MATERIALS'
p497
S'MATERIALS'
p498
S'NNS'
p499
S'I-NP'
p500
g5
tp501
a(S'Between'
p502
S'Between'
p503
S'IN'
p504
S'B-PP'
p505
g5
tp506
a(S'1995'
p507
S'1995'
p508
S'CD'
p509
S'B-NP'
p510
g5
tp511
a(S'and'
p512
S'and'
p513
S'CC'
p514
S'I-NP'
p515
g5
tp516
a(S'1996'
p517
S'1996'
p518
S'CD'
p519
S'I-NP'
p520
g5
tp521
a(g284
g284
g284
S'I-NP'
p522
g5
tp523
a(S'100'
p524
S'100'
p525
S'CD'
p526
S'I-NP'
p527
g5
tp528
a(S'patients'
p529
S'patient'
p530
S'NNS'
p531
S'I-NP'
p532
g5
tp533
a(S'were'
p534
S'be'
p535
S'VBD'
p536
S'B-VP'
p537
g5
tp538
a(S'randomized'
p539
S'randomize'
p540
S'VBN'
p541
S'I-VP'
p542
g5
tp543
a(S'to'
p544
S'to'
p545
S'TO'
p546
S'I-VP'
p547
g5
tp548
a(S'receive'
p549
S'receive'
p550
S'VB'
p551
S'I-VP'
p552
g5
tp553
a(g109
g109
S'DT'
p554
S'B-NP'
p555
g5
tp556
a(S'prophylactic'
p557
S'prophylactic'
p558
S'JJ'
p559
S'I-NP'
p560
g5
tp561
a(S'therapy'
p562
S'therapy'
p563
S'NN'
p564
S'I-NP'
p565
g5
tp566
a(S'for'
p567
S'for'
p568
S'IN'
p569
S'B-PP'
p570
g5
tp571
a(S'prevention'
p572
S'prevention'
p573
S'NN'
p574
S'B-NP'
p575
g5
tp576
a(S'of'
p577
S'of'
p578
S'IN'
p579
S'B-PP'
p580
g5
tp581
a(S'heterotopic'
p582
S'heterotopic'
p583
S'JJ'
p584
S'B-NP'
p585
g5
tp586
a(S'ossification.'
p587
S'ossification.'
p588
S'NN'
p589
S'I-NP'
p590
g5
tp591
a(S'Forty-six'
p592
S'Forty-six'
p593
S'CD'
p594
S'B-NP'
p595
g5
tp596
a(S'patients'
p597
S'patient'
p598
S'NNS'
p599
S'I-NP'
p600
g5
tp601
a(S'were'
p602
S'be'
p603
S'VBD'
p604
S'B-VP'
p605
g5
tp606
a(S'irradiated'
p607
S'irradiate'
p608
S'VBN'
p609
S'I-VP'
p610
g5
tp611
a(S'with'
p612
S'with'
p613
S'IN'
p614
S'B-PP'
p615
g5
tp616
a(S'7'
p617
g617
S'CD'
p618
S'B-NP'
p619
g5
tp620
a(S'Gy'
p621
S'Gy'
p622
S'NN'
p623
S'I-NP'
p624
g5
tp625
a(S'single'
p626
S'single'
p627
S'JJ'
p628
S'I-NP'
p629
g5
tp630
a(S'dose'
p631
S'dose'
p632
S'NN'
p633
S'I-NP'
p634
g5
tp635
a(S'within'
p636
S'within'
p637
S'IN'
p638
S'B-PP'
p639
g5
tp640
a(S'16-20'
p641
S'16-20'
p642
S'CD'
p643
S'B-NP'
p644
g5
tp645
a(g176
g176
S'NN'
p646
S'I-NP'
p647
g5
tp648
a(S'before'
p649
S'before'
p650
S'IN'
p651
S'B-PP'
p652
g5
tp653
a(S'operation.'
p654
S'operation.'
p655
S'NN'
p656
S'B-NP'
p657
g5
tp658
a(S'Fifty-four'
p659
S'Fifty-four'
p660
S'CD'
p661
S'B-NP'
p662
g5
tp663
a(S'patients'
p664
S'patient'
p665
S'NNS'
p666
S'I-NP'
p667
g5
tp668
a(S'were'
p669
S'be'
p670
S'VBD'
p671
S'B-VP'
p672
g5
tp673
a(S'treated'
p674
S'treat'
p675
S'VBN'
p676
S'I-VP'
p677
g5
tp678
a(S'with'
p679
S'with'
p680
S'IN'
p681
S'B-PP'
p682
g5
tp683
a(S'nonsteroidal'
p684
S'nonsteroidal'
p685
S'JJ'
p686
S'B-NP'
p687
g5
tp688
a(S'anti-inflammatory'
p689
S'anti-inflammatory'
p690
S'JJ'
p691
S'I-NP'
p692
g5
tp693
a(S'drugs'
p694
S'drug'
p695
S'NNS'
p696
S'I-NP'
p697
g5
tp698
a(g170
g170
g170
g5
g5
tp699
a(S'NSAID'
p700
S'NSAID'
p701
S'NN'
p702
S'B-NP'
p703
g5
tp704
a(g190
g190
g190
g5
g5
tp705
a(g170
g170
g170
g5
g5
tp706
a(S'Voltaren'
p707
S'Voltaren'
p708
S'NN'
p709
S'B-NP'
p710
g5
tp711
a(S'resinat'
p712
S'resinat'
p713
S'NN'
p714
S'I-NP'
p715
g5
tp716
a(S'2'
p717
g717
S'CD'
p718
S'I-NP'
p719
g5
tp720
a(S'x'
p721
g721
S'SYM'
p722
S'I-NP'
p723
g5
tp724
a(S'75'
p725
S'75'
p726
S'CD'
p727
S'I-NP'
p728
g5
tp729
a(S'mg/day'
p730
S'mg/day'
p731
S'NN'
p732
S'I-NP'
p733
g5
tp734
a(S'for'
p735
S'for'
p736
S'IN'
p737
S'B-PP'
p738
g5
tp739
a(g717
g717
S'CD'
p740
S'B-NP'
p741
g5
tp742
a(S'weeks'
p743
S'week'
p744
S'NNS'
p745
S'I-NP'
p746
g5
tp747
a(g190
g190
g190
g5
g5
tp748
a(g123
g123
g123
g5
g5
tp749
a(S'Heterotopic'
p750
S'Heterotopic'
p751
S'JJ'
p752
S'B-NP'
p753
g5
tp754
a(S'ossification'
p755
S'ossification'
p756
S'NN'
p757
S'I-NP'
p758
g5
tp759
a(S'was'
p760
S'be'
p761
S'VBD'
p762
S'B-VP'
p763
g5
tp764
a(S'scored'
p765
S'score'
p766
S'VBN'
p767
S'I-VP'
p768
g5
tp769
a(S'according'
p770
S'accord'
p771
S'VBG'
p772
S'B-PP'
p773
g5
tp774
a(S'to'
p775
S'to'
p776
S'TO'
p777
S'B-PP'
p778
g5
tp779
a(S'the'
p780
S'the'
p781
S'DT'
p782
S'B-NP'
p783
g5
tp784
a(S'Brooker'
p785
S'Brooker'
p786
S'NNP'
p787
S'I-NP'
p788
g5
tp789
a(S'Grading'
p790
S'Grading'
p791
S'NNP'
p792
S'I-NP'
p793
g5
tp794
a(S'system.'
p795
S'system.'
p796
S'RB'
p797
S'B-NP'
p798
g5
tp799
a(S'One'
p800
S'One'
p801
S'CD'
p802
S'I-NP'
p803
g5
tp804
a(S'hundred'
p805
S'hundred'
p806
S'CD'
p807
S'I-NP'
p808
g5
tp809
a(S'patients'
p810
S'patient'
p811
S'NNS'
p812
S'I-NP'
p813
g5
tp814
a(S'receiving'
p815
S'receive'
p816
S'VBG'
p817
S'B-VP'
p818
g5
tp819
a(S'no'
p820
S'no'
p821
S'DT'
p822
S'B-NP'
p823
g5
tp824
a(S'prophylactic'
p825
S'prophylactic'
p826
S'JJ'
p827
S'I-NP'
p828
g5
tp829
a(S'therapy'
p830
S'therapy'
p831
S'NN'
p832
S'I-NP'
p833
g5
tp834
a(S'after'
p835
S'after'
p836
S'IN'
p837
S'B-PP'
p838
g5
tp839
a(S'total'
p840
S'total'
p841
S'JJ'
p842
S'B-NP'
p843
g5
tp844
a(S'hip'
p845
S'hip'
p846
S'NN'
p847
S'I-NP'
p848
g5
tp849
a(S'arthroplasty'
p850
S'arthroplasty'
p851
S'NN'
p852
S'I-NP'
p853
g5
tp854
a(S'between'
p855
S'between'
p856
S'IN'
p857
S'B-PP'
p858
g5
tp859
a(S'1988'
p860
S'1988'
p861
S'CD'
p862
S'B-NP'
p863
g5
tp864
a(S'and'
p865
S'and'
p866
S'CC'
p867
S'I-NP'
p868
g5
tp869
a(S'1992'
p870
S'1992'
p871
S'CD'
p872
S'I-NP'
p873
g5
tp874
a(S'were'
p875
S'be'
p876
S'VBD'
p877
S'B-VP'
p878
g5
tp879
a(S'analyzed'
p880
S'analyze'
p881
S'VBN'
p882
S'I-VP'
p883
g5
tp884
a(S'and'
p885
S'and'
p886
S'CC'
p887
g5
g5
tp888
a(S'defined'
p889
S'define'
p890
S'VBN'
p891
S'B-VP'
p892
g5
tp893
a(S'as'
p894
S'as'
p895
S'IN'
p896
S'B-PP'
p897
g5
tp898
a(S'the'
p899
S'the'
p900
S'DT'
p901
S'B-NP'
p902
g5
tp903
a(S'historical'
p904
S'historical'
p905
S'JJ'
p906
S'I-NP'
p907
g5
tp908
a(S'control'
p909
S'control'
p910
S'NN'
p911
S'I-NP'
p912
g5
tp913
a(S'group'
p914
S'group'
p915
S'NN'
p916
S'I-NP'
p917
g5
tp918
a(g123
g123
g123
g5
g5
tp919
a(S'RESULTS'
p920
S'RESULTS'
p921
S'NNS'
p922
S'B-NP'
p923
g5
tp924
a(S'Incidence'
p925
S'Incidence'
p926
S'NN'
p927
S'I-NP'
p928
g5
tp929
a(S'of'
p930
S'of'
p931
S'IN'
p932
S'B-PP'
p933
g5
tp934
a(S'heterotopic'
p935
S'heterotopic'
p936
S'JJ'
p937
S'B-NP'
p938
g5
tp939
a(S'ossification'
p940
S'ossification'
p941
S'NN'
p942
S'I-NP'
p943
g5
tp944
a(S'was'
p945
S'be'
p946
S'VBD'
p947
S'B-VP'
p948
g5
tp949
a(S'47.8'
p950
S'47.8'
p951
S'CD'
p952
S'B-NP'
p953
g5
tp954
a(S'%'
p955
g955
S'NN'
p956
S'I-NP'
p957
g5
tp958
a(S'in'
p959
S'in'
p960
S'IN'
p961
S'B-PP'
p962
g5
tp963
a(S'the'
p964
S'the'
p965
S'DT'
p966
S'B-NP'
p967
g5
tp968
a(g617
g617
S'CD'
p969
S'I-NP'
p970
g5
tp971
a(S'Gy'
p972
S'Gy'
p973
S'NN'
p974
S'I-NP'
p975
g5
tp976
a(S'preoperative'
p977
S'preoperative'
p978
S'JJ'
p979
S'I-NP'
p980
g5
tp981
a(S'group'
p982
S'group'
p983
S'NN'
p984
S'I-NP'
p985
g5
tp986
a(g170
g170
g170
g5
g5
tp987
a(S'Brooker'
p988
S'Brooker'
p989
S'NNP'
p990
S'B-NP'
p991
g5
tp992
a(S'Score'
p993
S'Score'
p994
S'NNP'
p995
S'I-NP'
p996
g5
tp997
a(S'I'
p998
g998
S'NNP'
p999
S'I-NP'
p1000
g5
tp1001
a(g92
g92
g92
g5
g5
tp1002
a(S'36.9'
p1003
S'36.9'
p1004
S'CD'
p1005
S'B-NP'
p1006
g5
tp1007
a(g955
g955
S'NN'
p1008
S'I-NP'
p1009
g5
tp1010
a(S';'
p1011
g1011
g92
g5
g5
tp1012
a(S'II'
p1013
S'II'
p1014
S'CD'
p1015
S'B-NP'
p1016
g5
tp1017
a(g92
g92
g92
g5
g5
tp1018
a(S'8.7'
p1019
S'8.7'
p1020
S'CD'
p1021
S'B-NP'
p1022
g5
tp1023
a(g955
g955
S'NN'
p1024
S'I-NP'
p1025
g5
tp1026
a(g1011
g1011
g92
g5
g5
tp1027
a(S'III'
p1028
S'III'
p1029
S'CD'
p1030
S'B-NP'
p1031
g5
tp1032
a(g92
g92
g92
g5
g5
tp1033
a(S'2.2'
p1034
S'2.2'
p1035
S'CD'
p1036
S'B-NP'
p1037
g5
tp1038
a(g955
g955
S'NN'
p1039
S'I-NP'
p1040
g5
tp1041
a(g1011
g1011
g92
g5
g5
tp1042
a(S'IV'
p1043
S'IV'
p1044
S'CD'
p1045
S'B-NP'
p1046
g5
tp1047
a(g92
g92
g92
g5
g5
tp1048
a(S'0'
p1049
g1049
S'CD'
p1050
S'B-NP'
p1051
g5
tp1052
a(g955
g955
S'NN'
p1053
S'I-NP'
p1054
g5
tp1055
a(g190
g190
g190
g5
g5
tp1056
a(S'and'
p1057
S'and'
p1058
S'CC'
p1059
g5
g5
tp1060
a(S'11.1'
p1061
S'11.1'
p1062
S'CD'
p1063
S'B-NP'
p1064
g5
tp1065
a(g955
g955
S'NN'
p1066
S'I-NP'
p1067
g5
tp1068
a(S'in'
p1069
S'in'
p1070
S'IN'
p1071
S'B-PP'
p1072
g5
tp1073
a(S'the'
p1074
S'the'
p1075
S'DT'
p1076
S'B-NP'
p1077
g5
tp1078
a(S'NSAID'
p1079
S'NSAID'
p1080
S'NN'
p1081
S'I-NP'
p1082
g5
tp1083
a(S'group'
p1084
S'group'
p1085
S'NN'
p1086
S'I-NP'
p1087
g5
tp1088
a(g170
g170
g170
g5
g5
tp1089
a(S'Brooker'
p1090
S'Brooker'
p1091
S'NNP'
p1092
S'B-NP'
p1093
g5
tp1094
a(S'Score'
p1095
S'Score'
p1096
S'NNP'
p1097
S'I-NP'
p1098
g5
tp1099
a(g998
g998
S'NNP'
p1100
S'I-NP'
p1101
g5
tp1102
a(g92
g92
g92
g5
g5
tp1103
a(S'9.3'
p1104
S'9.3'
p1105
S'CD'
p1106
S'B-NP'
p1107
g5
tp1108
a(g955
g955
S'NN'
p1109
S'I-NP'
p1110
g5
tp1111
a(g1011
g1011
g92
g5
g5
tp1112
a(S'II'
p1113
S'II'
p1114
S'CD'
p1115
S'B-NP'
p1116
g5
tp1117
a(g92
g92
g92
g5
g5
tp1118
a(S'1.8'
p1119
S'1.8'
p1120
S'CD'
p1121
S'B-NP'
p1122
g5
tp1123
a(g955
g955
S'NN'
p1124
S'I-NP'
p1125
g5
tp1126
a(g1011
g1011
g92
g5
g5
tp1127
a(S'III'
p1128
S'III'
p1129
S'CD'
p1130
S'B-NP'
p1131
g5
tp1132
a(g92
g92
g92
g5
g5
tp1133
a(g1049
g1049
S'CD'
p1134
S'B-NP'
p1135
g5
tp1136
a(g955
g955
S'NN'
p1137
S'I-NP'
p1138
g5
tp1139
a(g1011
g1011
g92
g5
g5
tp1140
a(S'IV'
p1141
S'IV'
p1142
S'CD'
p1143
S'B-NP'
p1144
g5
tp1145
a(g92
g92
g92
g5
g5
tp1146
a(g1049
g1049
S'CD'
p1147
S'B-NP'
p1148
g5
tp1149
a(g955
g955
S'NN'
p1150
S'I-NP'
p1151
g5
tp1152
a(g190
g190
g190
g5
g5
tp1153
a(g123
g123
g123
g5
g5
tp1154
a(S'Regarding'
p1155
S'Regard'
p1156
S'VBG'
p1157
S'B-VP'
p1158
g5
tp1159
a(S'overall'
p1160
S'overall'
p1161
S'JJ'
p1162
S'B-NP'
p1163
g5
tp1164
a(S'heterotopic'
p1165
S'heterotopic'
p1166
S'JJ'
p1167
S'I-NP'
p1168
g5
tp1169
a(S'ossification'
p1170
S'ossification'
p1171
S'NN'
p1172
S'I-NP'
p1173
g5
tp1174
a(S'there'
p1175
S'there'
p1176
S'EX'
p1177
S'B-NP'
p1178
g5
tp1179
a(S'was'
p1180
S'be'
p1181
S'VBD'
p1182
S'B-VP'
p1183
g5
tp1184
a(g109
g109
S'DT'
p1185
S'B-NP'
p1186
g5
tp1187
a(S'significant'
p1188
S'significant'
p1189
S'JJ'
p1190
S'I-NP'
p1191
g5
tp1192
a(S'difference'
p1193
S'difference'
p1194
S'NN'
p1195
S'I-NP'
p1196
g5
tp1197
a(S'between'
p1198
S'between'
p1199
S'IN'
p1200
S'B-PP'
p1201
g5
tp1202
a(S'the'
p1203
S'the'
p1204
S'DT'
p1205
S'B-NP'
p1206
g5
tp1207
a(S'NSAID'
p1208
S'NSAID'
p1209
S'NN'
p1210
S'I-NP'
p1211
g5
tp1212
a(S'group'
p1213
S'group'
p1214
S'NN'
p1215
S'I-NP'
p1216
g5
tp1217
a(S'and'
p1218
S'and'
p1219
S'CC'
p1220
g5
g5
tp1221
a(S'the'
p1222
S'the'
p1223
S'DT'
p1224
S'B-NP'
p1225
g5
tp1226
a(g617
g617
S'CD'
p1227
S'I-NP'
p1228
g5
tp1229
a(S'Gy'
p1230
S'Gy'
p1231
S'NN'
p1232
S'I-NP'
p1233
g5
tp1234
a(S'group'
p1235
S'group'
p1236
S'NN'
p1237
S'I-NP'
p1238
g5
tp1239
a(g170
g170
g170
g5
g5
tp1240
a(S'p'
p1241
g1241
S'NN'
p1242
S'B-NP'
p1243
g5
tp1244
a(S'<'
p1245
g1245
S'SYM'
p1246
g5
g5
tp1247
a(S'0.01'
p1248
S'0.01'
p1249
S'CD'
p1250
S'B-NP'
p1251
g5
tp1252
a(g190
g190
g190
g5
g5
tp1253
a(g123
g123
g123
g5
g5
tp1254
a(S'Analyzing'
p1255
S'Analyze'
p1256
S'VBG'
p1257
S'B-VP'
p1258
g5
tp1259
a(S'the'
p1260
S'the'
p1261
S'DT'
p1262
S'B-NP'
p1263
g5
tp1264
a(S'clinically'
p1265
S'clinically'
p1266
S'RB'
p1267
S'I-NP'
p1268
g5
tp1269
a(S'significant'
p1270
S'significant'
p1271
S'JJ'
p1272
S'I-NP'
p1273
g5
tp1274
a(S'heterotopic'
p1275
S'heterotopic'
p1276
S'JJ'
p1277
S'I-NP'
p1278
g5
tp1279
a(S'ossification'
p1280
S'ossification'
p1281
S'NN'
p1282
S'I-NP'
p1283
g5
tp1284
a(g170
g170
g170
g5
g5
tp1285
a(S'Brooker'
p1286
S'Brooker'
p1287
S'NNP'
p1288
S'B-NP'
p1289
g5
tp1290
a(S'Score'
p1291
S'Score'
p1292
S'NNP'
p1293
S'I-NP'
p1294
g5
tp1295
a(S'III'
p1296
S'III'
p1297
S'NNP'
p1298
S'I-NP'
p1299
g5
tp1300
a(S'and'
p1301
S'and'
p1302
S'CC'
p1303
g5
g5
tp1304
a(S'IV'
p1305
S'IV'
p1306
S'CD'
p1307
S'B-NP'
p1308
g5
tp1309
a(g190
g190
g190
g5
g5
tp1310
a(S'there'
p1311
S'there'
p1312
S'EX'
p1313
S'B-NP'
p1314
g5
tp1315
a(S'was'
p1316
S'be'
p1317
S'VBD'
p1318
S'B-VP'
p1319
g5
tp1320
a(S'no'
p1321
S'no'
p1322
S'DT'
p1323
S'B-NP'
p1324
g5
tp1325
a(S'significant'
p1326
S'significant'
p1327
S'JJ'
p1328
S'I-NP'
p1329
g5
tp1330
a(S'difference'
p1331
S'difference'
p1332
S'NN'
p1333
S'I-NP'
p1334
g5
tp1335
a(S'between'
p1336
S'between'
p1337
S'IN'
p1338
S'B-PP'
p1339
g5
tp1340
a(S'the'
p1341
S'the'
p1342
S'DT'
p1343
S'B-NP'
p1344
g5
tp1345
a(S'two'
p1346
S'two'
p1347
S'CD'
p1348
S'I-NP'
p1349
g5
tp1350
a(S'treatment'
p1351
S'treatment'
p1352
S'NN'
p1353
S'I-NP'
p1354
g5
tp1355
a(S'arms'
p1356
S'arm'
p1357
S'NNS'
p1358
S'I-NP'
p1359
g5
tp1360
a(g170
g170
g170
g5
g5
tp1361
a(g1241
g1241
S'NN'
p1362
S'B-NP'
p1363
g5
tp1364
a(S'>'
p1365
g1365
S'SYM'
p1366
g5
g5
tp1367
a(S'0.05'
p1368
S'0.05'
p1369
S'CD'
p1370
S'B-NP'
p1371
g5
tp1372
a(g190
g190
g190
g5
g5
tp1373
a(g123
g123
g123
g5
g5
tp1374
a(S'In'
p1375
S'In'
p1376
S'IN'
p1377
S'B-PP'
p1378
g5
tp1379
a(S'the'
p1380
S'the'
p1381
S'DT'
p1382
S'B-NP'
p1383
g5
tp1384
a(S'untreated'
p1385
S'untreated'
p1386
S'JJ'
p1387
S'I-NP'
p1388
g5
tp1389
a(S'historical'
p1390
S'historical'
p1391
S'JJ'
p1392
S'I-NP'
p1393
g5
tp1394
a(S'control'
p1395
S'control'
p1396
S'NN'
p1397
S'I-NP'
p1398
g5
tp1399
a(S'group'
p1400
S'group'
p1401
S'NN'
p1402
S'I-NP'
p1403
g5
tp1404
a(S'the'
p1405
S'the'
p1406
S'DT'
p1407
S'B-NP'
p1408
g5
tp1409
a(S'incidence'
p1410
S'incidence'
p1411
S'NN'
p1412
S'I-NP'
p1413
g5
tp1414
a(S'of'
p1415
S'of'
p1416
S'IN'
p1417
S'B-PP'
p1418
g5
tp1419
a(S'heterotopic'
p1420
S'heterotopic'
p1421
S'JJ'
p1422
S'B-NP'
p1423
g5
tp1424
a(S'ossification'
p1425
S'ossification'
p1426
S'NN'
p1427
S'I-NP'
p1428
g5
tp1429
a(S'was'
p1430
S'be'
p1431
S'VBD'
p1432
S'B-VP'
p1433
g5
tp1434
a(S'65'
p1435
S'65'
p1436
S'CD'
p1437
S'B-NP'
p1438
g5
tp1439
a(g955
g955
S'NN'
p1440
S'I-NP'
p1441
g5
tp1442
a(g170
g170
g170
g5
g5
tp1443
a(S'Brooker'
p1444
S'Brooker'
p1445
S'NNP'
p1446
S'B-NP'
p1447
g5
tp1448
a(S'Score'
p1449
S'Score'
p1450
S'NNP'
p1451
S'I-NP'
p1452
g5
tp1453
a(g998
g998
S'NNP'
p1454
S'I-NP'
p1455
g5
tp1456
a(g92
g92
g92
g5
g5
tp1457
a(S'26'
p1458
S'26'
p1459
S'CD'
p1460
S'B-NP'
p1461
g5
tp1462
a(g955
g955
S'NN'
p1463
S'I-NP'
p1464
g5
tp1465
a(g1011
g1011
g92
g5
g5
tp1466
a(S'II'
p1467
S'II'
p1468
S'CD'
p1469
S'B-NP'
p1470
g5
tp1471
a(g92
g92
g92
g5
g5
tp1472
a(S'15'
p1473
S'15'
p1474
S'CD'
p1475
S'B-NP'
p1476
g5
tp1477
a(g955
g955
S'NN'
p1478
S'I-NP'
p1479
g5
tp1480
a(g1011
g1011
g92
g5
g5
tp1481
a(S'III'
p1482
S'III'
p1483
S'CD'
p1484
S'B-NP'
p1485
g5
tp1486
a(g92
g92
g92
g5
g5
tp1487
a(S'19'
p1488
S'19'
p1489
S'CD'
p1490
S'B-NP'
p1491
g5
tp1492
a(g955
g955
S'NN'
p1493
S'I-NP'
p1494
g5
tp1495
a(g1011
g1011
g92
g5
g5
tp1496
a(S'IV'
p1497
S'IV'
p1498
S'CD'
p1499
S'B-NP'
p1500
g5
tp1501
a(g92
g92
g92
g5
g5
tp1502
a(S'5'
p1503
g1503
S'CD'
p1504
S'B-NP'
p1505
g5
tp1506
a(g955
g955
S'NN'
p1507
S'I-NP'
p1508
g5
tp1509
a(g190
g190
g190
g5
g5
tp1510
a(g123
g123
g123
g5
g5
tp1511
a(S'Referring'
p1512
S'Refer'
p1513
S'VBG'
p1514
S'B-VP'
p1515
g5
tp1516
a(S'to'
p1517
S'to'
p1518
S'TO'
p1519
S'B-PP'
p1520
g5
tp1521
a(S'overall'
p1522
S'overall'
p1523
S'JJ'
p1524
S'B-ADJP'
p1525
g5
tp1526
a(S'and'
p1527
S'and'
p1528
S'CC'
p1529
g5
g5
tp1530
a(S'to'
p1531
S'to'
p1532
S'TO'
p1533
S'B-PP'
p1534
g5
tp1535
a(S'clinically'
p1536
S'clinically'
p1537
S'RB'
p1538
S'B-NP'
p1539
g5
tp1540
a(S'relevant'
p1541
S'relevant'
p1542
S'JJ'
p1543
S'I-NP'
p1544
g5
tp1545
a(S'heterotopic'
p1546
S'heterotopic'
p1547
S'JJ'
p1548
S'I-NP'
p1549
g5
tp1550
a(S'ossification'
p1551
S'ossification'
p1552
S'NN'
p1553
S'I-NP'
p1554
g5
tp1555
a(S'the'
p1556
S'the'
p1557
S'DT'
p1558
S'B-NP'
p1559
g5
tp1560
a(S'incidence'
p1561
S'incidence'
p1562
S'NN'
p1563
S'I-NP'
p1564
g5
tp1565
a(S'of'
p1566
S'of'
p1567
S'IN'
p1568
S'B-PP'
p1569
g5
tp1570
a(S'HO'
p1571
S'HO'
p1572
S'NN'
p1573
S'B-NP'
p1574
g5
tp1575
a(S'was'
p1576
S'be'
p1577
S'VBD'
p1578
S'B-VP'
p1579
g5
tp1580
a(S'greater'
p1581
S'great'
p1582
S'JJR'
p1583
S'B-ADJP'
p1584
g5
tp1585
a(S'in'
p1586
S'in'
p1587
S'IN'
p1588
S'B-PP'
p1589
g5
tp1590
a(S'the'
p1591
S'the'
p1592
S'DT'
p1593
S'B-NP'
p1594
g5
tp1595
a(S'control'
p1596
S'control'
p1597
S'NN'
p1598
S'I-NP'
p1599
g5
tp1600
a(S'group'
p1601
S'group'
p1602
S'NN'
p1603
S'I-NP'
p1604
g5
tp1605
a(S'than'
p1606
S'than'
p1607
S'IN'
p1608
S'B-PP'
p1609
g5
tp1610
a(S'in'
p1611
S'in'
p1612
S'IN'
p1613
S'B-PP'
p1614
g5
tp1615
a(S'the'
p1616
S'the'
p1617
S'DT'
p1618
S'B-NP'
p1619
g5
tp1620
a(S'prophylactically'
p1621
S'prophylactically'
p1622
S'RB'
p1623
S'I-NP'
p1624
g5
tp1625
a(S'treated'
p1626
S'treat'
p1627
S'VBN'
p1628
S'I-NP'
p1629
g5
tp1630
a(S'groups'
p1631
S'group'
p1632
S'NNS'
p1633
S'I-NP'
p1634
g5
tp1635
a(g170
g170
g170
g5
g5
tp1636
a(g1241
g1241
S'NN'
p1637
S'B-NP'
p1638
g5
tp1639
a(g1245
g1245
S'SYM'
p1640
g5
g5
tp1641
a(S'0.05'
p1642
S'0.05'
p1643
S'CD'
p1644
S'B-NP'
p1645
g5
tp1646
a(g190
g190
g190
g5
g5
tp1647
a(g123
g123
g123
g5
g5
tp1648
a(S'CONCLUSION'
p1649
S'CONCLUSION'
p1650
S'NN'
p1651
S'B-NP'
p1652
g5
tp1653
a(S'Irradiation'
p1654
S'Irradiation'
p1655
S'NN'
p1656
S'I-NP'
p1657
g5
tp1658
a(S'within'
p1659
S'within'
p1660
S'IN'
p1661
S'B-PP'
p1662
g5
tp1663
a(S'16-20'
p1664
S'16-20'
p1665
S'CD'
p1666
S'B-NP'
p1667
g5
tp1668
a(g176
g176
S'NN'
p1669
S'I-NP'
p1670
g5
tp1671
a(S'before'
p1672
S'before'
p1673
S'IN'
p1674
S'B-PP'
p1675
g5
tp1676
a(S'operation'
p1677
S'operation'
p1678
S'NN'
p1679
S'B-NP'
p1680
g5
tp1681
a(S'and'
p1682
S'and'
p1683
S'CC'
p1684
g5
g5
tp1685
a(S'use'
p1686
S'use'
p1687
S'NN'
p1688
S'B-NP'
p1689
g5
tp1690
a(S'of'
p1691
S'of'
p1692
S'IN'
p1693
S'B-PP'
p1694
g5
tp1695
a(S'NSAID'
p1696
S'NSAID'
p1697
S'NN'
p1698
S'B-NP'
p1699
g5
tp1700
a(g170
g170
g170
g5
g5
tp1701
a(S'Voltaren'
p1702
S'Voltaren'
p1703
S'NN'
p1704
S'B-NP'
p1705
g5
tp1706
a(S'resinat'
p1707
S'resinat'
p1708
S'NN'
p1709
S'I-NP'
p1710
g5
tp1711
a(g190
g190
g190
g5
g5
tp1712
a(S'can'
p1713
S'can'
p1714
S'MD'
p1715
S'B-VP'
p1716
g5
tp1717
a(S'reduce'
p1718
S'reduce'
p1719
S'VB'
p1720
S'I-VP'
p1721
g5
tp1722
a(S'the'
p1723
S'the'
p1724
S'DT'
p1725
S'B-NP'
p1726
g5
tp1727
a(S'incidence'
p1728
S'incidence'
p1729
S'NN'
p1730
S'I-NP'
p1731
g5
tp1732
a(S'of'
p1733
S'of'
p1734
S'IN'
p1735
S'B-PP'
p1736
g5
tp1737
a(S'clinically'
p1738
S'clinically'
p1739
S'RB'
p1740
S'B-NP'
p1741
g5
tp1742
a(S'relevant'
p1743
S'relevant'
p1744
S'JJ'
p1745
S'I-NP'
p1746
g5
tp1747
a(S'heterotopic'
p1748
S'heterotopic'
p1749
S'JJ'
p1750
S'I-NP'
p1751
g5
tp1752
a(S'ossification'
p1753
S'ossification'
p1754
S'NN'
p1755
S'I-NP'
p1756
g5
tp1757
a(S'after'
p1758
S'after'
p1759
S'IN'
p1760
S'B-PP'
p1761
g5
tp1762
a(S'total'
p1763
S'total'
p1764
S'JJ'
p1765
S'B-NP'
p1766
g5
tp1767
a(S'hip'
p1768
S'hip'
p1769
S'NN'
p1770
S'I-NP'
p1771
g5
tp1772
a(S'replacement'
p1773
S'replacement'
p1774
S'NN'
p1775
S'I-NP'
p1776
g5
tp1777
a(g123
g123
g123
g5
g5
tp1778
a.