(lp0
(S'Time'
p1
S'Time'
p2
S'NN'
p3
S'B-NP'
p4
S'O'
p5
tp6
a(S'to'
p7
S'to'
p8
S'TO'
p9
S'B-PP'
p10
g5
tp11
a(S'onset'
p12
S'onset'
p13
S'NN'
p14
S'B-NP'
p15
g5
tp16
a(S'of'
p17
S'of'
p18
S'IN'
p19
S'B-PP'
p20
g5
tp21
a(S'clinically'
p22
S'clinically'
p23
S'RB'
p24
S'B-NP'
p25
g5
tp26
a(S'meaningful'
p27
S'meaningful'
p28
S'JJ'
p29
S'I-NP'
p30
g5
tp31
a(S'improvement'
p32
S'improvement'
p33
S'NN'
p34
S'I-NP'
p35
g5
tp36
a(S'with'
p37
S'with'
p38
S'IN'
p39
S'B-PP'
p40
g5
tp41
a(S'tadalafil'
p42
S'tadalafil'
p43
S'NN'
p44
S'B-NP'
p45
g5
tp46
a(S'5'
p47
g47
S'CD'
p48
S'I-NP'
p49
g5
tp50
a(S'mg'
p51
S'mg'
p52
S'NN'
p53
S'I-NP'
p54
g5
tp55
a(S'once'
p56
S'once'
p57
S'RB'
p58
S'B-ADVP'
p59
g5
tp60
a(S'daily'
p61
S'daily'
p62
S'RB'
p63
S'I-ADVP'
p64
g5
tp65
a(S'for'
p66
S'for'
p67
S'IN'
p68
S'B-PP'
p69
g5
tp70
a(S'lower'
p71
S'low'
p72
S'JJR'
p73
S'B-NP'
p74
g5
tp75
a(S'urinary'
p76
S'urinary'
p77
S'JJ'
p78
S'I-NP'
p79
g5
tp80
a(S'tract'
p81
S'tract'
p82
S'NN'
p83
S'I-NP'
p84
g5
tp85
a(S'symptoms'
p86
S'symptom'
p87
S'NNS'
p88
S'I-NP'
p89
g5
tp90
a(S'secondary'
p91
S'secondary'
p92
S'JJ'
p93
S'B-ADJP'
p94
g5
tp95
a(S'to'
p96
S'to'
p97
S'TO'
p98
S'B-PP'
p99
g5
tp100
a(S'benign'
p101
S'benign'
p102
S'JJ'
p103
S'B-NP'
p104
g5
tp105
a(S'prostatic'
p106
S'prostatic'
p107
S'JJ'
p108
S'I-NP'
p109
g5
tp110
a(S'hyperplasia'
p111
S'hyperplasia'
p112
S'NN'
p113
S'I-NP'
p114
g5
tp115
a(S':'
p116
g116
g116
g5
g5
tp117
a(S'analysis'
p118
S'analysis'
p119
S'NN'
p120
S'B-NP'
p121
g5
tp122
a(S'of'
p123
S'of'
p124
S'IN'
p125
S'B-PP'
p126
g5
tp127
a(S'data'
p128
S'datum'
p129
S'NNS'
p130
S'B-NP'
p131
g5
tp132
a(S'pooled'
p133
S'pool'
p134
S'VBN'
p135
S'B-VP'
p136
g5
tp137
a(S'from'
p138
S'from'
p139
S'IN'
p140
S'B-PP'
p141
g5
tp142
a(S'4'
p143
g143
S'CD'
p144
S'B-NP'
p145
g5
tp146
a(S'pivotal'
p147
S'pivotal'
p148
S'JJ'
p149
S'I-NP'
p150
g5
tp151
a(S','
p152
g152
g152
S'I-NP'
p153
g5
tp154
a(S'double-blind'
p155
S'double-blind'
p156
S'JJ'
p157
S'I-NP'
p158
g5
tp159
a(g152
g152
g152
S'I-NP'
p160
g5
tp161
a(S'placebo'
p162
S'placebo'
p163
S'NN'
p164
S'I-NP'
p165
g5
tp166
a(S'controlled'
p167
S'controlled'
p168
S'JJ'
p169
S'I-NP'
p170
g5
tp171
a(S'studies'
p172
S'study'
p173
S'NNS'
p174
S'I-NP'
p175
g5
tp176
a(S'.'
p177
g177
g177
g5
g5
tp178
a(S'PURPOSE'
p179
S'PURPOSE'
p180
S'NN'
p181
S'B-NP'
p182
g5
tp183
a(S'Tadalafil'
p184
S'Tadalafil'
p185
S'NNP'
p186
S'I-NP'
p187
g5
tp188
a(S'once'
p189
S'once'
p190
S'RB'
p191
S'B-ADVP'
p192
g5
tp193
a(S'daily'
p194
S'daily'
p195
S'RB'
p196
S'I-ADVP'
p197
g5
tp198
a(S'for'
p199
S'for'
p200
S'IN'
p201
S'B-PP'
p202
g5
tp203
a(S'lower'
p204
S'low'
p205
S'JJR'
p206
S'B-NP'
p207
g5
tp208
a(S'urinary'
p209
S'urinary'
p210
S'JJ'
p211
S'I-NP'
p212
g5
tp213
a(S'tract'
p214
S'tract'
p215
S'NN'
p216
S'I-NP'
p217
g5
tp218
a(S'symptoms'
p219
S'symptom'
p220
S'NNS'
p221
S'I-NP'
p222
g5
tp223
a(S'secondary'
p224
S'secondary'
p225
S'JJ'
p226
S'B-ADJP'
p227
g5
tp228
a(S'to'
p229
S'to'
p230
S'TO'
p231
S'B-PP'
p232
g5
tp233
a(S'benign'
p234
S'benign'
p235
S'JJ'
p236
S'B-NP'
p237
g5
tp238
a(S'prostatic'
p239
S'prostatic'
p240
S'JJ'
p241
S'I-NP'
p242
g5
tp243
a(S'hyperplasia'
p244
S'hyperplasia'
p245
S'NN'
p246
S'I-NP'
p247
g5
tp248
a(S'consistently'
p249
S'consistently'
p250
S'RB'
p251
S'B-VP'
p252
g5
tp253
a(S'shows'
p254
S'show'
p255
S'VBZ'
p256
S'I-VP'
p257
g5
tp258
a(S'statistically'
p259
S'statistically'
p260
S'RB'
p261
S'B-NP'
p262
g5
tp263
a(S'significant'
p264
S'significant'
p265
S'JJ'
p266
S'I-NP'
p267
g5
tp268
a(S'I-PSS'
p269
S'I-PSS'
p270
S'NN'
p271
S'I-NP'
p272
g5
tp273
a(S'improvements.'
p274
S'improvements.'
p275
S'NN'
p276
S'I-NP'
p277
g5
tp278
a(S'However'
p279
S'However'
p280
S'RB'
p281
S'B-ADVP'
p282
g5
tp283
a(g152
g152
g152
g5
g5
tp284
a(S'physicians'
p285
S'physician'
p286
S'NNS'
p287
S'B-NP'
p288
g5
tp289
a(S'and'
p290
S'and'
p291
S'CC'
p292
g5
g5
tp293
a(S'patients'
p294
S'patient'
p295
S'NNS'
p296
S'B-NP'
p297
g5
tp298
a(S'wish'
p299
S'wish'
p300
S'VBP'
p301
S'B-VP'
p302
g5
tp303
a(S'to'
p304
S'to'
p305
S'TO'
p306
S'I-VP'
p307
g5
tp308
a(S'know'
p309
S'know'
p310
S'VB'
p311
S'I-VP'
p312
g5
tp313
a(S'whether'
p314
S'whether'
p315
S'IN'
p316
S'B-SBAR'
p317
g5
tp318
a(S'tadalafil'
p319
S'tadalafil'
p320
S'NN'
p321
S'B-NP'
p322
g5
tp323
a(S'provides'
p324
S'provide'
p325
S'VBZ'
p326
S'B-VP'
p327
g5
tp328
a(S'rapid'
p329
S'rapid'
p330
S'JJ'
p331
S'B-NP'
p332
g5
tp333
a(g152
g152
g152
S'I-NP'
p334
g5
tp335
a(S'clinically'
p336
S'clinically'
p337
S'RB'
p338
S'I-NP'
p339
g5
tp340
a(S'meaningful'
p341
S'meaningful'
p342
S'JJ'
p343
S'I-NP'
p344
g5
tp345
a(S'improvement'
p346
S'improvement'
p347
S'NN'
p348
S'I-NP'
p349
g5
tp350
a(S'in'
p351
S'in'
p352
S'IN'
p353
S'B-PP'
p354
g5
tp355
a(S'lower'
p356
S'low'
p357
S'JJR'
p358
S'B-NP'
p359
g5
tp360
a(S'urinary'
p361
S'urinary'
p362
S'JJ'
p363
S'I-NP'
p364
g5
tp365
a(S'tract'
p366
S'tract'
p367
S'NN'
p368
S'I-NP'
p369
g5
tp370
a(S'symptoms.'
p371
S'symptoms.'
p372
S'NN'
p373
S'I-NP'
p374
g5
tp375
a(S'In'
p376
S'In'
p377
S'IN'
p378
S'B-PP'
p379
g5
tp380
a(S'this'
p381
S'this'
p382
S'DT'
p383
S'B-NP'
p384
g5
tp385
a(S'post'
p386
S'post'
p387
S'NN'
p388
S'I-NP'
p389
g5
tp390
a(S'hoc'
p391
S'hoc'
p392
S'NN'
p393
S'I-NP'
p394
g5
tp395
a(S'analysis'
p396
S'analysis'
p397
S'NN'
p398
S'I-NP'
p399
g5
tp400
a(S'we'
p401
S'we'
p402
S'PRP'
p403
S'B-NP'
p404
g5
tp405
a(S'integrated'
p406
S'integrate'
p407
S'VBD'
p408
S'B-VP'
p409
g5
tp410
a(S'results'
p411
S'result'
p412
S'NNS'
p413
S'B-NP'
p414
g5
tp415
a(S'from'
p416
S'from'
p417
S'IN'
p418
S'B-PP'
p419
g5
tp420
a(g143
g143
S'CD'
p421
S'B-NP'
p422
g5
tp423
a(S'placebo'
p424
S'placebo'
p425
S'NN'
p426
S'I-NP'
p427
g5
tp428
a(S'controlled'
p429
S'controlled'
p430
S'JJ'
p431
S'I-NP'
p432
g5
tp433
a(S'studies'
p434
S'study'
p435
S'NNS'
p436
S'I-NP'
p437
g5
tp438
a(S'to'
p439
S'to'
p440
S'TO'
p441
S'B-VP'
p442
g5
tp443
a(S'determine'
p444
S'determine'
p445
S'VB'
p446
S'I-VP'
p447
g5
tp448
a(S'the'
p449
S'the'
p450
S'DT'
p451
S'B-NP'
p452
g5
tp453
a(S'duration'
p454
S'duration'
p455
S'NN'
p456
S'I-NP'
p457
g5
tp458
a(S'of'
p459
S'of'
p460
S'IN'
p461
S'B-PP'
p462
g5
tp463
a(S'tadalafil'
p464
S'tadalafil'
p465
S'NN'
p466
S'B-NP'
p467
g5
tp468
a(S'once'
p469
S'once'
p470
S'RB'
p471
S'B-VP'
p472
g5
tp473
a(S'daily'
p474
S'daily'
p475
S'RB'
p476
S'I-VP'
p477
g5
tp478
a(S'required'
p479
S'require'
p480
S'VBN'
p481
S'I-VP'
p482
g5
tp483
a(S'to'
p484
S'to'
p485
S'TO'
p486
S'I-VP'
p487
g5
tp488
a(S'achieve'
p489
S'achieve'
p490
S'VB'
p491
S'I-VP'
p492
g5
tp493
a(S'clinically'
p494
S'clinically'
p495
S'RB'
p496
S'B-NP'
p497
g5
tp498
a(S'meaningful'
p499
S'meaningful'
p500
S'JJ'
p501
S'I-NP'
p502
g5
tp503
a(S'improvement'
p504
S'improvement'
p505
S'NN'
p506
S'I-NP'
p507
g5
tp508
a(g177
g177
g177
g5
g5
tp509
a(S'MATERIALS'
p510
S'MATERIALS'
p511
S'NNS'
p512
S'B-NP'
p513
g5
tp514
a(S'AND'
p515
S'AND'
p516
S'CC'
p517
S'I-NP'
p518
g5
tp519
a(S'METHODS'
p520
S'METHODS'
p521
S'NNS'
p522
S'I-NP'
p523
g5
tp524
a(S'We'
p525
S'We'
p526
S'PRP'
p527
S'B-NP'
p528
g5
tp529
a(S'performed'
p530
S'perform'
p531
S'VBD'
p532
S'B-VP'
p533
g5
tp534
a(S'post'
p535
S'post'
p536
S'NN'
p537
S'B-NP'
p538
g5
tp539
a(S'hoc'
p540
S'hoc'
p541
S'NN'
p542
S'I-NP'
p543
g5
tp544
a(S'analysis'
p545
S'analysis'
p546
S'NN'
p547
S'I-NP'
p548
g5
tp549
a(S'of'
p550
S'of'
p551
S'IN'
p552
S'B-PP'
p553
g5
tp554
a(S'data'
p555
S'datum'
p556
S'NNS'
p557
S'B-NP'
p558
g5
tp559
a(S'integrated'
p560
S'integrate'
p561
S'VBN'
p562
S'B-VP'
p563
g5
tp564
a(S'from'
p565
S'from'
p566
S'IN'
p567
S'B-PP'
p568
g5
tp569
a(g143
g143
S'CD'
p570
S'B-NP'
p571
g5
tp572
a(S'double-blind'
p573
S'double-blind'
p574
S'JJ'
p575
S'I-NP'
p576
g5
tp577
a(S'studies'
p578
S'study'
p579
S'NNS'
p580
S'I-NP'
p581
g5
tp582
a(S'of'
p583
S'of'
p584
S'IN'
p585
S'B-PP'
p586
g5
tp587
a(S'tadalafil'
p588
S'tadalafil'
p589
S'NN'
p590
S'B-NP'
p591
g5
tp592
a(g47
g47
S'CD'
p593
S'I-NP'
p594
g5
tp595
a(S'mg'
p596
S'mg'
p597
S'NN'
p598
S'I-NP'
p599
g5
tp600
a(S'and'
p601
S'and'
p602
S'CC'
p603
S'I-NP'
p604
g5
tp605
a(S'placebo'
p606
S'placebo'
p607
S'NN'
p608
S'I-NP'
p609
g5
tp610
a(S'once'
p611
S'once'
p612
S'RB'
p613
S'B-ADVP'
p614
g5
tp615
a(S'daily'
p616
S'daily'
p617
S'RB'
p618
S'I-ADVP'
p619
g5
tp620
a(S'in'
p621
S'in'
p622
S'IN'
p623
S'B-PP'
p624
g5
tp625
a(S'742'
p626
S'742'
p627
S'CD'
p628
S'B-NP'
p629
g5
tp630
a(S'and'
p631
S'and'
p632
S'CC'
p633
S'I-NP'
p634
g5
tp635
a(S'735'
p636
S'735'
p637
S'CD'
p638
S'I-NP'
p639
g5
tp640
a(S'men'
p641
S'man'
p642
S'NNS'
p643
S'I-NP'
p644
g5
tp645
a(g152
g152
g152
g5
g5
tp646
a(S'respectively'
p647
S'respectively'
p648
S'RB'
p649
S'B-ADVP'
p650
g5
tp651
a(g152
g152
g152
g5
g5
tp652
a(S'45'
p653
S'45'
p654
S'CD'
p655
S'B-NP'
p656
g5
tp657
a(S'years'
p658
S'year'
p659
S'NNS'
p660
S'I-NP'
p661
g5
tp662
a(S'old'
p663
S'old'
p664
S'JJ'
p665
S'B-ADJP'
p666
g5
tp667
a(S'or'
p668
S'or'
p669
S'CC'
p670
g5
g5
tp671
a(S'older'
p672
S'old'
p673
S'JJR'
p674
S'B-ADJP'
p675
g5
tp676
a(S'with'
p677
S'with'
p678
S'IN'
p679
S'B-PP'
p680
g5
tp681
a(S'total'
p682
S'total'
p683
S'JJ'
p684
S'B-NP'
p685
g5
tp686
a(S'I-PSS'
p687
S'I-PSS'
p688
S'NN'
p689
S'I-NP'
p690
g5
tp691
a(S'13'
p692
S'13'
p693
S'CD'
p694
S'B-NP'
p695
g5
tp696
a(S'or'
p697
S'or'
p698
S'CC'
p699
S'I-NP'
p700
g5
tp701
a(S'greater.'
p702
S'greater.'
p703
S'JJR'
p704
S'I-NP'
p705
g5
tp706
a(S'Two'
p707
S'Two'
p708
S'CD'
p709
S'I-NP'
p710
g5
tp711
a(S'clinically'
p712
S'clinically'
p713
S'RB'
p714
S'I-NP'
p715
g5
tp716
a(S'meaningful'
p717
S'meaningful'
p718
S'JJ'
p719
S'I-NP'
p720
g5
tp721
a(S'improvement'
p722
S'improvement'
p723
S'NN'
p724
S'I-NP'
p725
g5
tp726
a(S'categories'
p727
S'category'
p728
S'NNS'
p729
S'I-NP'
p730
g5
tp731
a(S'were'
p732
S'be'
p733
S'VBD'
p734
S'B-VP'
p735
g5
tp736
a(S'assessed'
p737
S'assess'
p738
S'VBN'
p739
S'I-VP'
p740
g5
tp741
a(g152
g152
g152
g5
g5
tp742
a(S'including'
p743
S'include'
p744
S'VBG'
p745
S'B-PP'
p746
g5
tp747
a(S'1'
p748
g748
S'CD'
p749
S'B-NP'
p750
g5
tp751
a(S')'
p752
g752
g752
g5
g5
tp753
a(S'3-point'
p754
S'3-point'
p755
S'JJ'
p756
S'B-ADJP'
p757
g5
tp758
a(S'or'
p759
S'or'
p760
S'CC'
p761
S'I-ADJP'
p762
g5
tp763
a(S'greater'
p764
S'great'
p765
S'JJR'
p766
S'B-NP'
p767
g5
tp768
a(S'baseline'
p769
S'baseline'
p770
S'NN'
p771
S'I-NP'
p772
g5
tp773
a(S'to'
p774
S'to'
p775
S'TO'
p776
S'B-VP'
p777
g5
tp778
a(S'end'
p779
S'end'
p780
S'VB'
p781
S'I-VP'
p782
g5
tp783
a(S'point'
p784
S'point'
p785
S'NN'
p786
S'B-NP'
p787
g5
tp788
a(S'total'
p789
S'total'
p790
S'JJ'
p791
S'I-NP'
p792
g5
tp793
a(S'I-PSS'
p794
S'I-PSS'
p795
S'NN'
p796
S'I-NP'
p797
g5
tp798
a(S'improvement'
p799
S'improvement'
p800
S'NN'
p801
S'I-NP'
p802
g5
tp803
a(S'and'
p804
S'and'
p805
S'CC'
p806
g5
g5
tp807
a(S'2'
p808
g808
S'CD'
p809
S'B-NP'
p810
g5
tp811
a(g752
g752
g752
g5
g5
tp812
a(S'25'
p813
S'25'
p814
S'CD'
p815
S'B-NP'
p816
g5
tp817
a(S'%'
p818
g818
S'NN'
p819
S'I-NP'
p820
g5
tp821
a(S'or'
p822
S'or'
p823
S'CC'
p824
g5
g5
tp825
a(S'greater'
p826
S'great'
p827
S'JJR'
p828
S'B-NP'
p829
g5
tp830
a(S'baseline'
p831
S'baseline'
p832
S'NN'
p833
S'I-NP'
p834
g5
tp835
a(S'to'
p836
S'to'
p837
S'TO'
p838
S'B-VP'
p839
g5
tp840
a(S'end'
p841
S'end'
p842
S'VB'
p843
S'I-VP'
p844
g5
tp845
a(S'point'
p846
S'point'
p847
S'NN'
p848
S'B-NP'
p849
g5
tp850
a(S'total'
p851
S'total'
p852
S'JJ'
p853
S'I-NP'
p854
g5
tp855
a(S'I-PSS'
p856
S'I-PSS'
p857
S'NN'
p858
S'I-NP'
p859
g5
tp860
a(S'improvement.'
p861
S'improvement.'
p862
S'NN'
p863
S'I-NP'
p864
g5
tp865
a(S'I-PSS'
p866
S'I-PSS'
p867
S'NN'
p868
S'I-NP'
p869
g5
tp870
a(S'was'
p871
S'be'
p872
S'VBD'
p873
S'B-VP'
p874
g5
tp875
a(S'assessed'
p876
S'assess'
p877
S'VBN'
p878
S'I-VP'
p879
g5
tp880
a(S'at'
p881
S'at'
p882
S'IN'
p883
S'B-PP'
p884
g5
tp885
a(S'weeks'
p886
S'week'
p887
S'NNS'
p888
S'B-NP'
p889
g5
tp890
a(g143
g143
S'CD'
p891
S'I-NP'
p892
g5
tp893
a(g152
g152
g152
S'I-NP'
p894
g5
tp895
a(S'8'
p896
g896
S'CD'
p897
S'I-NP'
p898
g5
tp899
a(S'and'
p900
S'and'
p901
S'CC'
p902
S'I-NP'
p903
g5
tp904
a(S'12'
p905
S'12'
p906
S'CD'
p907
S'I-NP'
p908
g5
tp909
a(S'in'
p910
S'in'
p911
S'IN'
p912
S'B-PP'
p913
g5
tp914
a(S'all'
p915
S'all'
p916
S'DT'
p917
S'B-NP'
p918
g5
tp919
a(S'studies'
p920
S'study'
p921
S'NNS'
p922
S'I-NP'
p923
g5
tp924
a(g152
g152
g152
g5
g5
tp925
a(S'week'
p926
S'week'
p927
S'NN'
p928
S'B-NP'
p929
g5
tp930
a(g748
g748
S'CD'
p931
S'I-NP'
p932
g5
tp933
a(S'in'
p934
S'in'
p935
S'IN'
p936
S'B-PP'
p937
g5
tp938
a(g808
g808
S'CD'
p939
S'B-NP'
p940
g5
tp941
a(S'and'
p942
S'and'
p943
S'CC'
p944
g5
g5
tp945
a(S'week'
p946
S'week'
p947
S'NN'
p948
S'B-NP'
p949
S'B-protein'
p950
tp951
a(g808
g808
S'CD'
p952
S'I-NP'
p953
S'I-protein'
p954
tp955
a(S'in'
p956
S'in'
p957
S'IN'
p958
S'B-PP'
p959
g5
tp960
a(S'1.'
p961
S'1.'
p962
S'CD'
p963
S'B-NP'
p964
g5
tp965
a(S'Results'
p966
S'Result'
p967
S'NNS'
p968
S'I-NP'
p969
g5
tp970
a(S'in'
p971
S'in'
p972
S'IN'
p973
S'B-PP'
p974
g5
tp975
a(S'men'
p976
S'man'
p977
S'NNS'
p978
S'B-NP'
p979
g5
tp980
a(S'treated'
p981
S'treat'
p982
S'VBN'
p983
S'B-VP'
p984
g5
tp985
a(S'with'
p986
S'with'
p987
S'IN'
p988
S'B-PP'
p989
g5
tp990
a(S'tadalafil'
p991
S'tadalafil'
p992
S'NN'
p993
S'B-NP'
p994
g5
tp995
a(S'who'
p996
S'who'
p997
S'WP'
p998
S'B-NP'
p999
g5
tp1000
a(S'showed'
p1001
S'show'
p1002
S'VBD'
p1003
S'B-VP'
p1004
g5
tp1005
a(S'clinically'
p1006
S'clinically'
p1007
S'RB'
p1008
S'B-NP'
p1009
g5
tp1010
a(S'meaningful'
p1011
S'meaningful'
p1012
S'JJ'
p1013
S'I-NP'
p1014
g5
tp1015
a(S'improvement'
p1016
S'improvement'
p1017
S'NN'
p1018
S'I-NP'
p1019
g5
tp1020
a(S'('
p1021
g1021
g1021
g5
g5
tp1022
a(S'responders'
p1023
S'responder'
p1024
S'NNS'
p1025
S'B-NP'
p1026
g5
tp1027
a(g752
g752
g752
g5
g5
tp1028
a(S'were'
p1029
S'be'
p1030
S'VBD'
p1031
S'B-VP'
p1032
g5
tp1033
a(S'further'
p1034
S'further'
p1035
S'RBR'
p1036
S'I-VP'
p1037
g5
tp1038
a(S'examined'
p1039
S'examine'
p1040
S'VBN'
p1041
S'I-VP'
p1042
g5
tp1043
a(S'to'
p1044
S'to'
p1045
S'TO'
p1046
S'B-VP'
p1047
g5
tp1048
a(S'determine'
p1049
S'determine'
p1050
S'VB'
p1051
S'I-VP'
p1052
g5
tp1053
a(S'the'
p1054
S'the'
p1055
S'DT'
p1056
S'B-NP'
p1057
g5
tp1058
a(S'earliest'
p1059
S'early'
p1060
S'JJS'
p1061
S'I-NP'
p1062
g5
tp1063
a(S'time'
p1064
S'time'
p1065
S'NN'
p1066
S'I-NP'
p1067
g5
tp1068
a(S'to'
p1069
S'to'
p1070
S'TO'
p1071
S'B-PP'
p1072
g5
tp1073
a(S'clinically'
p1074
S'clinically'
p1075
S'RB'
p1076
S'B-NP'
p1077
g5
tp1078
a(S'meaningful'
p1079
S'meaningful'
p1080
S'JJ'
p1081
S'I-NP'
p1082
g5
tp1083
a(S'improvement'
p1084
S'improvement'
p1085
S'NN'
p1086
S'I-NP'
p1087
g5
tp1088
a(g177
g177
g177
g5
g5
tp1089
a(S'RESULTS'
p1090
S'RESULTS'
p1091
S'NNS'
p1092
S'B-NP'
p1093
g5
tp1094
a(S'Of'
p1095
S'Of'
p1096
S'IN'
p1097
S'B-PP'
p1098
g5
tp1099
a(S'742'
p1100
S'742'
p1101
S'CD'
p1102
S'B-NP'
p1103
g5
tp1104
a(S'tadalafil'
p1105
S'tadalafil'
p1106
S'NN'
p1107
S'I-NP'
p1108
g5
tp1109
a(S'treated'
p1110
S'treat'
p1111
S'VBN'
p1112
S'B-VP'
p1113
g5
tp1114
a(S'patients'
p1115
S'patient'
p1116
S'NNS'
p1117
S'B-NP'
p1118
g5
tp1119
a(S'513'
p1120
S'513'
p1121
S'CD'
p1122
S'B-NP'
p1123
g5
tp1124
a(g1021
g1021
g1021
g5
g5
tp1125
a(S'69.1'
p1126
S'69.1'
p1127
S'CD'
p1128
S'B-NP'
p1129
g5
tp1130
a(g818
g818
S'NN'
p1131
S'I-NP'
p1132
g5
tp1133
a(g752
g752
g752
g5
g5
tp1134
a(S'and'
p1135
S'and'
p1136
S'CC'
p1137
g5
g5
tp1138
a(S'444'
p1139
S'444'
p1140
S'CD'
p1141
S'B-NP'
p1142
g5
tp1143
a(g1021
g1021
g1021
g5
g5
tp1144
a(S'59.8'
p1145
S'59.8'
p1146
S'CD'
p1147
S'B-NP'
p1148
g5
tp1149
a(g818
g818
S'NN'
p1150
S'I-NP'
p1151
g5
tp1152
a(g752
g752
g752
g5
g5
tp1153
a(S'demonstrated'
p1154
S'demonstrate'
p1155
S'VBD'
p1156
S'B-VP'
p1157
g5
tp1158
a(S'category'
p1159
S'category'
p1160
S'NN'
p1161
S'B-NP'
p1162
S'B-protein'
p1163
tp1164
a(g748
g748
S'CD'
p1165
S'I-NP'
p1166
S'I-protein'
p1167
tp1168
a(S'and'
p1169
S'and'
p1170
S'CC'
p1171
S'I-NP'
p1172
S'I-protein'
p1173
tp1174
a(g808
g808
S'CD'
p1175
S'I-NP'
p1176
S'I-protein'
p1177
tp1178
a(S'clinically'
p1179
S'clinically'
p1180
S'RB'
p1181
S'I-NP'
p1182
g5
tp1183
a(S'meaningful'
p1184
S'meaningful'
p1185
S'JJ'
p1186
S'I-NP'
p1187
g5
tp1188
a(S'improvement'
p1189
S'improvement'
p1190
S'NN'
p1191
S'I-NP'
p1192
g5
tp1193
a(g152
g152
g152
g5
g5
tp1194
a(S'respectively'
p1195
S'respectively'
p1196
S'RB'
p1197
S'B-ADVP'
p1198
g5
tp1199
a(g152
g152
g152
g5
g5
tp1200
a(S'at'
p1201
S'at'
p1202
S'IN'
p1203
S'B-PP'
p1204
g5
tp1205
a(S'the'
p1206
S'the'
p1207
S'DT'
p1208
S'B-NP'
p1209
g5
tp1210
a(S'study'
p1211
S'study'
p1212
S'NN'
p1213
S'I-NP'
p1214
g5
tp1215
a(S'end'
p1216
S'end'
p1217
S'NN'
p1218
S'I-NP'
p1219
g5
tp1220
a(S'point.'
p1221
S'point.'
p1222
S'NN'
p1223
S'I-NP'
p1224
g5
tp1225
a(S'Of'
p1226
S'Of'
p1227
S'IN'
p1228
S'B-PP'
p1229
g5
tp1230
a(S'234'
p1231
S'234'
p1232
S'CD'
p1233
S'B-NP'
p1234
g5
tp1235
a(S'category'
p1236
S'category'
p1237
S'NN'
p1238
S'I-NP'
p1239
g5
tp1240
a(g748
g748
S'CD'
p1241
S'B-NP'
p1242
g5
tp1243
a(S'responders'
p1244
S'responder'
p1245
S'NNS'
p1246
S'I-NP'
p1247
g5
tp1248
a(S'with'
p1249
S'with'
p1250
S'IN'
p1251
S'B-PP'
p1252
g5
tp1253
a(S'week'
p1254
S'week'
p1255
S'NN'
p1256
S'B-NP'
p1257
g5
tp1258
a(g748
g748
S'CD'
p1259
S'I-NP'
p1260
g5
tp1261
a(S'assessments'
p1262
S'assessment'
p1263
S'NNS'
p1264
S'I-NP'
p1265
g5
tp1266
a(S'140'
p1267
S'140'
p1268
S'CD'
p1269
S'B-NP'
p1270
g5
tp1271
a(g1021
g1021
g1021
g5
g5
tp1272
a(S'59.8'
p1273
S'59.8'
p1274
S'CD'
p1275
S'B-NP'
p1276
g5
tp1277
a(g818
g818
S'NN'
p1278
S'I-NP'
p1279
g5
tp1280
a(g752
g752
g752
g5
g5
tp1281
a(S'achieved'
p1282
S'achieve'
p1283
S'VBD'
p1284
S'B-VP'
p1285
g5
tp1286
a(S'clinically'
p1287
S'clinically'
p1288
S'RB'
p1289
S'B-NP'
p1290
g5
tp1291
a(S'meaningful'
p1292
S'meaningful'
p1293
S'JJ'
p1294
S'I-NP'
p1295
g5
tp1296
a(S'improvement'
p1297
S'improvement'
p1298
S'NN'
p1299
S'I-NP'
p1300
g5
tp1301
a(S'by'
p1302
S'by'
p1303
S'IN'
p1304
S'B-PP'
p1305
g5
tp1306
a(S'week'
p1307
S'week'
p1308
S'NN'
p1309
S'B-NP'
p1310
g5
tp1311
a(g748
g748
S'CD'
p1312
S'I-NP'
p1313
g5
tp1314
a(S'and'
p1315
S'and'
p1316
S'CC'
p1317
S'I-NP'
p1318
g5
tp1319
a(S'407'
p1320
S'407'
p1321
S'CD'
p1322
S'I-NP'
p1323
g5
tp1324
a(S'of'
p1325
S'of'
p1326
S'IN'
p1327
S'B-PP'
p1328
g5
tp1329
a(S'the'
p1330
S'the'
p1331
S'DT'
p1332
S'B-NP'
p1333
g5
tp1334
a(S'total'
p1335
S'total'
p1336
S'NN'
p1337
S'I-NP'
p1338
g5
tp1339
a(S'of'
p1340
S'of'
p1341
S'IN'
p1342
S'B-PP'
p1343
g5
tp1344
a(S'513'
p1345
S'513'
p1346
S'CD'
p1347
S'B-NP'
p1348
g5
tp1349
a(S'category'
p1350
S'category'
p1351
S'NN'
p1352
S'I-NP'
p1353
g5
tp1354
a(g748
g748
S'CD'
p1355
S'B-NP'
p1356
g5
tp1357
a(S'responders'
p1358
S'responder'
p1359
S'NNS'
p1360
S'I-NP'
p1361
g5
tp1362
a(g1021
g1021
g1021
g5
g5
tp1363
a(S'79.3'
p1364
S'79.3'
p1365
S'CD'
p1366
S'B-NP'
p1367
g5
tp1368
a(g818
g818
S'NN'
p1369
S'I-NP'
p1370
g5
tp1371
a(g752
g752
g752
g5
g5
tp1372
a(S'showed'
p1373
S'show'
p1374
S'VBD'
p1375
S'B-VP'
p1376
g5
tp1377
a(S'it'
p1378
S'it'
p1379
S'PRP'
p1380
S'B-NP'
p1381
g5
tp1382
a(S'by'
p1383
S'by'
p1384
S'IN'
p1385
S'B-PP'
p1386
g5
tp1387
a(S'week'
p1388
S'week'
p1389
S'NN'
p1390
S'B-NP'
p1391
g5
tp1392
a(S'4.'
p1393
S'4.'
p1394
S'CD'
p1395
S'I-NP'
p1396
g5
tp1397
a(S'Of'
p1398
S'Of'
p1399
S'IN'
p1400
S'B-PP'
p1401
g5
tp1402
a(S'the'
p1403
S'the'
p1404
S'DT'
p1405
S'B-NP'
p1406
g5
tp1407
a(S'205'
p1408
S'205'
p1409
S'CD'
p1410
S'I-NP'
p1411
g5
tp1412
a(S'category'
p1413
S'category'
p1414
S'NN'
p1415
S'I-NP'
p1416
g5
tp1417
a(g808
g808
S'CD'
p1418
S'B-NP'
p1419
g5
tp1420
a(S'responders'
p1421
S'responder'
p1422
S'NNS'
p1423
S'I-NP'
p1424
g5
tp1425
a(S'with'
p1426
S'with'
p1427
S'IN'
p1428
S'B-PP'
p1429
g5
tp1430
a(S'week'
p1431
S'week'
p1432
S'NN'
p1433
S'B-NP'
p1434
g5
tp1435
a(g748
g748
S'CD'
p1436
S'I-NP'
p1437
g5
tp1438
a(S'assessments'
p1439
S'assessment'
p1440
S'NNS'
p1441
S'I-NP'
p1442
g5
tp1443
a(S'103'
p1444
S'103'
p1445
S'CD'
p1446
S'B-NP'
p1447
g5
tp1448
a(g1021
g1021
g1021
g5
g5
tp1449
a(S'50.2'
p1450
S'50.2'
p1451
S'CD'
p1452
S'B-NP'
p1453
g5
tp1454
a(g818
g818
S'NN'
p1455
S'I-NP'
p1456
g5
tp1457
a(g752
g752
g752
g5
g5
tp1458
a(S'achieved'
p1459
S'achieve'
p1460
S'VBD'
p1461
S'B-VP'
p1462
g5
tp1463
a(S'clinically'
p1464
S'clinically'
p1465
S'RB'
p1466
S'B-NP'
p1467
g5
tp1468
a(S'meaningful'
p1469
S'meaningful'
p1470
S'JJ'
p1471
S'I-NP'
p1472
g5
tp1473
a(S'improvement'
p1474
S'improvement'
p1475
S'NN'
p1476
S'I-NP'
p1477
g5
tp1478
a(S'by'
p1479
S'by'
p1480
S'IN'
p1481
S'B-PP'
p1482
g5
tp1483
a(S'week'
p1484
S'week'
p1485
S'NN'
p1486
S'B-NP'
p1487
g5
tp1488
a(g748
g748
S'CD'
p1489
S'I-NP'
p1490
g5
tp1491
a(S'while'
p1492
S'while'
p1493
S'IN'
p1494
S'B-SBAR'
p1495
g5
tp1496
a(S'322'
p1497
S'322'
p1498
S'CD'
p1499
S'B-NP'
p1500
g5
tp1501
a(S'of'
p1502
S'of'
p1503
S'IN'
p1504
S'B-PP'
p1505
g5
tp1506
a(S'the'
p1507
S'the'
p1508
S'DT'
p1509
S'B-NP'
p1510
g5
tp1511
a(S'444'
p1512
S'444'
p1513
S'CD'
p1514
S'I-NP'
p1515
g5
tp1516
a(S'category'
p1517
S'category'
p1518
S'NN'
p1519
S'I-NP'
p1520
g5
tp1521
a(g808
g808
S'CD'
p1522
S'B-NP'
p1523
g5
tp1524
a(S'responders'
p1525
S'responder'
p1526
S'NNS'
p1527
S'I-NP'
p1528
g5
tp1529
a(g1021
g1021
g1021
g5
g5
tp1530
a(S'72.5'
p1531
S'72.5'
p1532
S'CD'
p1533
S'B-NP'
p1534
g5
tp1535
a(g818
g818
S'NN'
p1536
S'I-NP'
p1537
g5
tp1538
a(g752
g752
g752
g5
g5
tp1539
a(S'did'
p1540
S'do'
p1541
S'VBD'
p1542
S'B-VP'
p1543
g5
tp1544
a(S'so'
p1545
S'so'
p1546
S'RB'
p1547
S'B-ADVP'
p1548
g5
tp1549
a(S'by'
p1550
S'by'
p1551
S'IN'
p1552
S'B-PP'
p1553
g5
tp1554
a(S'week'
p1555
S'week'
p1556
S'NN'
p1557
S'B-NP'
p1558
S'B-protein'
p1559
tp1560
a(g143
g143
S'CD'
p1561
S'I-NP'
p1562
S'I-protein'
p1563
tp1564
a(g177
g177
g177
g5
g5
tp1565
a(S'CONCLUSIONS'
p1566
S'CONCLUSIONS'
p1567
S'NNS'
p1568
S'B-NP'
p1569
g5
tp1570
a(S'Tadalafil'
p1571
S'Tadalafil'
p1572
S'VBP'
p1573
S'B-VP'
p1574
g5
tp1575
a(g47
g47
S'CD'
p1576
S'B-NP'
p1577
g5
tp1578
a(S'mg'
p1579
S'mg'
p1580
S'NN'
p1581
S'I-NP'
p1582
g5
tp1583
a(S'once'
p1584
S'once'
p1585
S'RB'
p1586
S'B-ADVP'
p1587
g5
tp1588
a(S'daily'
p1589
S'daily'
p1590
S'RB'
p1591
S'I-ADVP'
p1592
g5
tp1593
a(S'led'
p1594
S'lead'
p1595
S'VBD'
p1596
S'B-VP'
p1597
g5
tp1598
a(S'to'
p1599
S'to'
p1600
S'TO'
p1601
S'B-PP'
p1602
g5
tp1603
a(S'clinically'
p1604
S'clinically'
p1605
S'RB'
p1606
S'B-NP'
p1607
g5
tp1608
a(S'meaningful'
p1609
S'meaningful'
p1610
S'JJ'
p1611
S'I-NP'
p1612
g5
tp1613
a(S'improvement'
p1614
S'improvement'
p1615
S'NN'
p1616
S'I-NP'
p1617
g5
tp1618
a(S'in'
p1619
S'in'
p1620
S'IN'
p1621
S'B-PP'
p1622
g5
tp1623
a(S'approximately'
p1624
S'approximately'
p1625
S'RB'
p1626
S'B-NP'
p1627
g5
tp1628
a(S'two-thirds'
p1629
S'two-third'
p1630
S'NNS'
p1631
S'I-NP'
p1632
g5
tp1633
a(S'of'
p1634
S'of'
p1635
S'IN'
p1636
S'B-PP'
p1637
g5
tp1638
a(S'men'
p1639
S'man'
p1640
S'NNS'
p1641
S'B-NP'
p1642
g5
tp1643
a(S'with'
p1644
S'with'
p1645
S'IN'
p1646
S'B-PP'
p1647
g5
tp1648
a(S'lower'
p1649
S'low'
p1650
S'JJR'
p1651
S'B-NP'
p1652
g5
tp1653
a(S'urinary'
p1654
S'urinary'
p1655
S'JJ'
p1656
S'I-NP'
p1657
g5
tp1658
a(S'tract'
p1659
S'tract'
p1660
S'NN'
p1661
S'I-NP'
p1662
g5
tp1663
a(S'symptoms'
p1664
S'symptom'
p1665
S'NNS'
p1666
S'I-NP'
p1667
g5
tp1668
a(S'secondary'
p1669
S'secondary'
p1670
S'JJ'
p1671
S'B-ADJP'
p1672
g5
tp1673
a(S'to'
p1674
S'to'
p1675
S'TO'
p1676
S'B-PP'
p1677
g5
tp1678
a(S'benign'
p1679
S'benign'
p1680
S'JJ'
p1681
S'B-NP'
p1682
g5
tp1683
a(S'prostatic'
p1684
S'prostatic'
p1685
S'JJ'
p1686
S'I-NP'
p1687
g5
tp1688
a(S'hyperplasia.'
p1689
S'hyperplasia.'
p1690
S'NN'
p1691
S'I-NP'
p1692
g5
tp1693
a(S'More'
p1694
S'More'
p1695
S'JJR'
p1696
S'B-NP'
p1697
g5
tp1698
a(S'than'
p1699
S'than'
p1700
S'IN'
p1701
S'I-NP'
p1702
g5
tp1703
a(S'half'
p1704
S'half'
p1705
S'NN'
p1706
S'I-NP'
p1707
g5
tp1708
a(S'of'
p1709
S'of'
p1710
S'IN'
p1711
S'B-PP'
p1712
g5
tp1713
a(S'this'
p1714
S'this'
p1715
S'DT'
p1716
S'B-NP'
p1717
g5
tp1718
a(S'group'
p1719
S'group'
p1720
S'NN'
p1721
S'I-NP'
p1722
g5
tp1723
a(S'of'
p1724
S'of'
p1725
S'IN'
p1726
S'B-PP'
p1727
g5
tp1728
a(S'tadalafil'
p1729
S'tadalafil'
p1730
S'NN'
p1731
S'B-NP'
p1732
g5
tp1733
a(S'treated'
p1734
S'treat'
p1735
S'VBN'
p1736
S'I-NP'
p1737
g5
tp1738
a(S'responders'
p1739
S'responder'
p1740
S'NNS'
p1741
S'I-NP'
p1742
g5
tp1743
a(S'achieved'
p1744
S'achieve'
p1745
S'VBD'
p1746
S'B-VP'
p1747
g5
tp1748
a(S'clinically'
p1749
S'clinically'
p1750
S'RB'
p1751
S'B-NP'
p1752
g5
tp1753
a(S'meaningful'
p1754
S'meaningful'
p1755
S'JJ'
p1756
S'I-NP'
p1757
g5
tp1758
a(S'improvement'
p1759
S'improvement'
p1760
S'NN'
p1761
S'I-NP'
p1762
g5
tp1763
a(S'after'
p1764
S'after'
p1765
S'IN'
p1766
S'B-PP'
p1767
g5
tp1768
a(g748
g748
S'CD'
p1769
S'B-NP'
p1770
g5
tp1771
a(S'week'
p1772
S'week'
p1773
S'NN'
p1774
S'I-NP'
p1775
g5
tp1776
a(S'of'
p1777
S'of'
p1778
S'IN'
p1779
S'B-PP'
p1780
g5
tp1781
a(S'therapy'
p1782
S'therapy'
p1783
S'NN'
p1784
S'B-NP'
p1785
g5
tp1786
a(S'and'
p1787
S'and'
p1788
S'CC'
p1789
g5
g5
tp1790
a(S'more'
p1791
S'more'
p1792
S'JJR'
p1793
S'B-NP'
p1794
g5
tp1795
a(S'than'
p1796
S'than'
p1797
S'IN'
p1798
S'I-NP'
p1799
g5
tp1800
a(S'70'
p1801
S'70'
p1802
S'CD'
p1803
S'I-NP'
p1804
g5
tp1805
a(g818
g818
S'NN'
p1806
S'I-NP'
p1807
g5
tp1808
a(S'did'
p1809
S'do'
p1810
S'VBD'
p1811
S'B-VP'
p1812
g5
tp1813
a(S'so'
p1814
S'so'
p1815
S'RB'
p1816
S'B-ADVP'
p1817
g5
tp1818
a(S'within'
p1819
S'within'
p1820
S'IN'
p1821
S'B-PP'
p1822
g5
tp1823
a(g143
g143
S'CD'
p1824
S'B-NP'
p1825
g5
tp1826
a(S'weeks'
p1827
S'week'
p1828
S'NNS'
p1829
S'I-NP'
p1830
g5
tp1831
a(g177
g177
g177
g5
g5
tp1832
a.