(lp0
(S'Dose-related'
p1
S'Dose-related'
p2
S'JJ'
p3
S'B-NP'
p4
S'O'
p5
tp6
a(S'difference'
p7
S'difference'
p8
S'NN'
p9
S'I-NP'
p10
g5
tp11
a(S'in'
p12
S'in'
p13
S'IN'
p14
S'B-PP'
p15
g5
tp16
a(S'progression'
p17
S'progression'
p18
S'NN'
p19
S'B-NP'
p20
g5
tp21
a(S'rates'
p22
S'rate'
p23
S'NNS'
p24
S'I-NP'
p25
g5
tp26
a(S'of'
p27
S'of'
p28
S'IN'
p29
S'B-PP'
p30
g5
tp31
a(S'cytomegalovirus'
p32
S'cytomegalovirus'
p33
S'NN'
p34
S'B-NP'
p35
g5
tp36
a(S'retinopathy'
p37
S'retinopathy'
p38
S'NN'
p39
S'I-NP'
p40
g5
tp41
a(S'during'
p42
S'during'
p43
S'IN'
p44
S'B-PP'
p45
g5
tp46
a(S'foscarnet'
p47
S'foscarnet'
p48
S'NN'
p49
S'B-NP'
p50
g5
tp51
a(S'maintenance'
p52
S'maintenance'
p53
S'NN'
p54
S'I-NP'
p55
g5
tp56
a(S'therapy.'
p57
S'therapy.'
p58
S'IN'
p59
S'B-PP'
p60
g5
tp61
a(S'AIDS'
p62
S'AIDS'
p63
S'NNP'
p64
S'B-NP'
p65
g5
tp66
a(S'Clinical'
p67
S'Clinical'
p68
S'NNP'
p69
S'I-NP'
p70
g5
tp71
a(S'Trials'
p72
S'Trials'
p73
S'NNP'
p74
S'I-NP'
p75
g5
tp76
a(S'Group'
p77
S'Group'
p78
S'NNP'
p79
S'I-NP'
p80
g5
tp81
a(S'Protocol'
p82
S'Protocol'
p83
S'NNP'
p84
S'I-NP'
p85
g5
tp86
a(S'915'
p87
S'915'
p88
S'CD'
p89
S'I-NP'
p90
g5
tp91
a(S'Team'
p92
S'Team'
p93
S'NNP'
p94
S'I-NP'
p95
g5
tp96
a(S'.'
p97
g97
g97
g5
g5
tp98
a(S'PURPOSE'
p99
S'PURPOSE'
p100
S'NN'
p101
S'B-NP'
p102
g5
tp103
a(S'A'
p104
g104
S'NN'
p105
S'I-NP'
p106
g5
tp107
a(S'previous'
p108
S'previous'
p109
S'JJ'
p110
S'I-NP'
p111
g5
tp112
a(S'dose-ranging'
p113
S'dose-ranging'
p114
S'NN'
p115
S'I-NP'
p116
g5
tp117
a(S'study'
p118
S'study'
p119
S'NN'
p120
S'I-NP'
p121
g5
tp122
a(S'of'
p123
S'of'
p124
S'IN'
p125
S'B-PP'
p126
g5
tp127
a(S'foscarnet'
p128
S'foscarnet'
p129
S'NN'
p130
S'B-NP'
p131
g5
tp132
a(S'maintenance'
p133
S'maintenance'
p134
S'NN'
p135
S'I-NP'
p136
g5
tp137
a(S'therapy'
p138
S'therapy'
p139
S'NN'
p140
S'I-NP'
p141
g5
tp142
a(S'for'
p143
S'for'
p144
S'IN'
p145
S'B-PP'
p146
g5
tp147
a(S'cytomegalovirus'
p148
S'cytomegalovirus'
p149
S'NN'
p150
S'B-NP'
p151
g5
tp152
a(S'retinopathy'
p153
S'retinopathy'
p154
S'NN'
p155
S'I-NP'
p156
g5
tp157
a(S'showed'
p158
S'show'
p159
S'VBD'
p160
S'B-VP'
p161
g5
tp162
a(S'a'
p163
g163
S'DT'
p164
S'B-NP'
p165
g5
tp166
a(S'positive'
p167
S'positive'
p168
S'JJ'
p169
S'I-NP'
p170
g5
tp171
a(S'relationship'
p172
S'relationship'
p173
S'NN'
p174
S'I-NP'
p175
g5
tp176
a(S'between'
p177
S'between'
p178
S'IN'
p179
S'B-PP'
p180
g5
tp181
a(S'dose'
p182
S'dose'
p183
S'NN'
p184
S'B-NP'
p185
g5
tp186
a(S'and'
p187
S'and'
p188
S'CC'
p189
S'I-NP'
p190
g5
tp191
a(S'survival'
p192
S'survival'
p193
S'NN'
p194
S'I-NP'
p195
g5
tp196
a(S'but'
p197
S'but'
p198
S'CC'
p199
g5
g5
tp200
a(S'could'
p201
S'could'
p202
S'MD'
p203
S'B-VP'
p204
g5
tp205
a(S'not'
p206
S'not'
p207
S'RB'
p208
S'I-VP'
p209
g5
tp210
a(S'confirm'
p211
S'confirm'
p212
S'VB'
p213
S'I-VP'
p214
g5
tp215
a(g163
g163
S'DT'
p216
S'B-NP'
p217
g5
tp218
a(S'relationship'
p219
S'relationship'
p220
S'NN'
p221
S'I-NP'
p222
g5
tp223
a(S'between'
p224
S'between'
p225
S'IN'
p226
S'B-PP'
p227
g5
tp228
a(S'dose'
p229
S'dose'
p230
S'NN'
p231
S'B-NP'
p232
g5
tp233
a(S'and'
p234
S'and'
p235
S'CC'
p236
g5
g5
tp237
a(S'time'
p238
S'time'
p239
S'NN'
p240
S'B-NP'
p241
g5
tp242
a(S'to'
p243
S'to'
p244
S'TO'
p245
S'B-PP'
p246
g5
tp247
a(S'first'
p248
S'first'
p249
S'JJ'
p250
S'B-NP'
p251
g5
tp252
a(S'progression.'
p253
S'progression.'
p254
S'NN'
p255
S'I-NP'
p256
g5
tp257
a(S'This'
p258
S'This'
p259
S'DT'
p260
S'B-NP'
p261
g5
tp262
a(S'retrospective'
p263
S'retrospective'
p264
S'JJ'
p265
S'I-NP'
p266
g5
tp267
a(S'analysis'
p268
S'analysis'
p269
S'NN'
p270
S'I-NP'
p271
g5
tp272
a(S'of'
p273
S'of'
p274
S'IN'
p275
S'B-PP'
p276
g5
tp277
a(S'data'
p278
S'datum'
p279
S'NNS'
p280
S'B-NP'
p281
g5
tp282
a(S'from'
p283
S'from'
p284
S'IN'
p285
S'B-PP'
p286
g5
tp287
a(S'that'
p288
S'that'
p289
S'DT'
p290
S'B-NP'
p291
g5
tp292
a(S'study'
p293
S'study'
p294
S'NN'
p295
S'I-NP'
p296
g5
tp297
a(S'was'
p298
S'be'
p299
S'VBD'
p300
S'B-VP'
p301
g5
tp302
a(S'undertaken'
p303
S'undertake'
p304
S'VBN'
p305
S'I-VP'
p306
g5
tp307
a(S'to'
p308
S'to'
p309
S'TO'
p310
S'B-VP'
p311
g5
tp312
a(S'determine'
p313
S'determine'
p314
S'VB'
p315
S'I-VP'
p316
g5
tp317
a(S'whether'
p318
S'whether'
p319
S'IN'
p320
S'B-SBAR'
p321
g5
tp322
a(S'there'
p323
S'there'
p324
S'EX'
p325
S'B-NP'
p326
g5
tp327
a(S'was'
p328
S'be'
p329
S'VBD'
p330
S'B-VP'
p331
g5
tp332
a(g163
g163
S'DT'
p333
S'B-NP'
p334
g5
tp335
a(S'relationship'
p336
S'relationship'
p337
S'NN'
p338
S'I-NP'
p339
g5
tp340
a(S'between'
p341
S'between'
p342
S'IN'
p343
S'B-PP'
p344
g5
tp345
a(S'dose'
p346
S'dose'
p347
S'NN'
p348
S'B-NP'
p349
g5
tp350
a(S'and'
p351
S'and'
p352
S'CC'
p353
S'I-NP'
p354
g5
tp355
a(S'progression'
p356
S'progression'
p357
S'NN'
p358
S'I-NP'
p359
g5
tp360
a(S'rates'
p361
S'rate'
p362
S'NNS'
p363
S'I-NP'
p364
g5
tp365
a(S','
p366
g366
g366
g5
g5
tp367
a(S'which'
p368
S'which'
p369
S'WDT'
p370
S'B-NP'
p371
g5
tp372
a(S'reflects'
p373
S'reflect'
p374
S'VBZ'
p375
S'B-VP'
p376
g5
tp377
a(S'the'
p378
S'the'
p379
S'DT'
p380
S'B-NP'
p381
g5
tp382
a(S'amount'
p383
S'amount'
p384
S'NN'
p385
S'I-NP'
p386
g5
tp387
a(S'of'
p388
S'of'
p389
S'IN'
p390
S'B-PP'
p391
g5
tp392
a(S'retina'
p393
S'retina'
p394
S'NN'
p395
S'B-NP'
p396
g5
tp397
a(S'destroyed'
p398
S'destroy'
p399
S'VBN'
p400
S'B-VP'
p401
g5
tp402
a(S'when'
p403
S'when'
p404
S'WRB'
p405
S'B-ADVP'
p406
g5
tp407
a(S'progression'
p408
S'progression'
p409
S'NN'
p410
S'B-NP'
p411
g5
tp412
a(S'occurs'
p413
S'occur'
p414
S'VBZ'
p415
S'B-VP'
p416
g5
tp417
a(g97
g97
g97
g5
g5
tp418
a(S'METHODS'
p419
S'METHODS'
p420
S'NNS'
p421
S'B-NP'
p422
g5
tp423
a(S'Patients'
p424
S'Patient'
p425
S'NNS'
p426
S'I-NP'
p427
g5
tp428
a(S'were'
p429
S'be'
p430
S'VBD'
p431
S'B-VP'
p432
g5
tp433
a(S'randomly'
p434
S'randomly'
p435
S'RB'
p436
S'I-VP'
p437
g5
tp438
a(S'given'
p439
S'give'
p440
S'VBN'
p441
S'I-VP'
p442
g5
tp443
a(S'one'
p444
S'one'
p445
S'CD'
p446
S'B-NP'
p447
g5
tp448
a(S'of'
p449
S'of'
p450
S'IN'
p451
S'B-PP'
p452
g5
tp453
a(S'two'
p454
S'two'
p455
S'CD'
p456
S'B-NP'
p457
g5
tp458
a(S'foscarnet'
p459
S'foscarnet'
p460
S'JJ'
p461
S'I-NP'
p462
g5
tp463
a(S'maintenance'
p464
S'maintenance'
p465
S'NN'
p466
S'I-NP'
p467
g5
tp468
a(S'therapy'
p469
S'therapy'
p470
S'NN'
p471
S'I-NP'
p472
g5
tp473
a(S'doses'
p474
S'dose'
p475
S'NNS'
p476
S'I-NP'
p477
g5
tp478
a(S'('
p479
g479
g479
g5
g5
tp480
a(S'90'
p481
S'90'
p482
S'CD'
p483
S'B-NP'
p484
g5
tp485
a(S'mg/kg'
p486
S'mg/kg'
p487
S'NN'
p488
S'I-NP'
p489
g5
tp490
a(S'of'
p491
S'of'
p492
S'IN'
p493
S'B-PP'
p494
g5
tp495
a(S'body'
p496
S'body'
p497
S'NN'
p498
S'B-NP'
p499
g5
tp500
a(S'weight/day'
p501
S'weight/day'
p502
S'NN'
p503
S'I-NP'
p504
g5
tp505
a(S'['
p506
g506
g479
S'I-NP'
p507
g5
tp508
a(S'FOS-90'
p509
S'FOS-90'
p510
S'NN'
p511
S'I-NP'
p512
g5
tp513
a(S'group'
p514
S'group'
p515
S'NN'
p516
S'I-NP'
p517
g5
tp518
a(S']'
p519
g519
S')'
p520
g5
g5
tp521
a(S'or'
p522
S'or'
p523
S'CC'
p524
g5
g5
tp525
a(S'120'
p526
S'120'
p527
S'CD'
p528
S'B-NP'
p529
g5
tp530
a(S'mg/kg'
p531
S'mg/kg'
p532
S'NN'
p533
S'I-NP'
p534
g5
tp535
a(S'of'
p536
S'of'
p537
S'IN'
p538
S'B-PP'
p539
g5
tp540
a(S'body'
p541
S'body'
p542
S'NN'
p543
S'B-NP'
p544
g5
tp545
a(S'weight/day'
p546
S'weight/day'
p547
S'NN'
p548
S'I-NP'
p549
g5
tp550
a(g506
g506
g479
S'I-NP'
p551
g5
tp552
a(S'FOS-120'
p553
S'FOS-120'
p554
S'NN'
p555
S'I-NP'
p556
g5
tp557
a(S'group'
p558
S'group'
p559
S'NN'
p560
S'I-NP'
p561
g5
tp562
a(g519
g519
g520
g5
g5
tp563
a(S'after'
p564
S'after'
p565
S'IN'
p566
S'B-PP'
p567
g5
tp568
a(S'induction'
p569
S'induction'
p570
S'NN'
p571
S'B-NP'
p572
g5
tp573
a(S'therapy.'
p574
S'therapy.'
p575
S'RB'
p576
S'B-VP'
p577
g5
tp578
a(S'Using'
p579
S'Use'
p580
S'VBG'
p581
S'I-VP'
p582
g5
tp583
a(S'baseline'
p584
S'baseline'
p585
S'NN'
p586
S'B-NP'
p587
g5
tp588
a(S'and'
p589
S'and'
p590
S'CC'
p591
g5
g5
tp592
a(S'follow-up'
p593
S'follow-up'
p594
S'JJ'
p595
S'B-NP'
p596
g5
tp597
a(S'photographs'
p598
S'photograph'
p599
S'NNS'
p600
S'I-NP'
p601
g5
tp602
a(S'and'
p603
S'and'
p604
S'CC'
p605
g5
g5
tp606
a(S'pre-established'
p607
S'pre-established'
p608
S'JJ'
p609
S'B-NP'
p610
g5
tp611
a(S'definitions'
p612
S'definition'
p613
S'NNS'
p614
S'I-NP'
p615
g5
tp616
a(S'and'
p617
S'and'
p618
S'CC'
p619
g5
g5
tp620
a(S'methodology'
p621
S'methodology'
p622
S'NN'
p623
S'B-NP'
p624
g5
tp625
a(S'in'
p626
S'in'
p627
S'IN'
p628
S'B-PP'
p629
g5
tp630
a(g163
g163
S'DT'
p631
S'B-NP'
p632
g5
tp633
a(S'masked'
p634
S'masked'
p635
S'JJ'
p636
S'I-NP'
p637
g5
tp638
a(S'analysis'
p639
S'analysis'
p640
S'NN'
p641
S'I-NP'
p642
g5
tp643
a(g366
g366
g366
g5
g5
tp644
a(S'posterior'
p645
S'posterior'
p646
S'JJ'
p647
S'B-NP'
p648
g5
tp649
a(S'progression'
p650
S'progression'
p651
S'NN'
p652
S'I-NP'
p653
g5
tp654
a(S'rates'
p655
S'rate'
p656
S'NNS'
p657
S'I-NP'
p658
g5
tp659
a(S'and'
p660
S'and'
p661
S'CC'
p662
g5
g5
tp663
a(S'foveal'
p664
S'foveal'
p665
S'JJ'
p666
S'B-NP'
p667
g5
tp668
a(S'proximity'
p669
S'proximity'
p670
S'NN'
p671
S'I-NP'
p672
g5
tp673
a(S'rates'
p674
S'rate'
p675
S'NNS'
p676
S'I-NP'
p677
g5
tp678
a(S'for'
p679
S'for'
p680
S'IN'
p681
S'B-PP'
p682
g5
tp683
a(S'individual'
p684
S'individual'
p685
S'JJ'
p686
S'B-NP'
p687
g5
tp688
a(S'lesions'
p689
S'lesion'
p690
S'NNS'
p691
S'I-NP'
p692
g5
tp693
a(g366
g366
g366
g5
g5
tp694
a(S'selected'
p695
S'select'
p696
S'VBN'
p697
S'B-VP'
p698
g5
tp699
a(S'by'
p700
S'by'
p701
S'IN'
p702
S'B-PP'
p703
g5
tp704
a(S'prospectively'
p705
S'prospectively'
p706
S'RB'
p707
S'B-NP'
p708
g5
tp709
a(S'defined'
p710
S'define'
p711
S'VBN'
p712
S'I-NP'
p713
g5
tp714
a(S'criteria'
p715
S'criterion'
p716
S'NNS'
p717
S'I-NP'
p718
g5
tp719
a(g366
g366
g366
g5
g5
tp720
a(S'were'
p721
S'be'
p722
S'VBD'
p723
S'B-VP'
p724
g5
tp725
a(S'calculated'
p726
S'calculate'
p727
S'VBN'
p728
S'I-VP'
p729
g5
tp730
a(S'in'
p731
S'in'
p732
S'IN'
p733
S'B-PP'
p734
g5
tp735
a(S'each'
p736
S'each'
p737
S'DT'
p738
S'B-NP'
p739
g5
tp740
a(S'patient.'
p741
S'patient.'
p742
S'NN'
p743
S'I-NP'
p744
g5
tp745
a(S'Rates'
p746
S'Rate'
p747
S'NNS'
p748
S'I-NP'
p749
g5
tp750
a(S'were'
p751
S'be'
p752
S'VBD'
p753
S'B-VP'
p754
g5
tp755
a(S'compared'
p756
S'compare'
p757
S'VBN'
p758
S'I-VP'
p759
g5
tp760
a(S'between'
p761
S'between'
p762
S'IN'
p763
S'B-PP'
p764
g5
tp765
a(S'groups'
p766
S'group'
p767
S'NNS'
p768
S'B-NP'
p769
g5
tp770
a(g97
g97
g97
g5
g5
tp771
a(S'RESULTS'
p772
S'RESULTS'
p773
S'NNS'
p774
S'B-NP'
p775
g5
tp776
a(S'The'
p777
S'The'
p778
S'DT'
p779
S'B-NP'
p780
g5
tp781
a(S'following'
p782
S'follow'
p783
S'VBG'
p784
S'I-NP'
p785
g5
tp786
a(S'median'
p787
S'median'
p788
S'JJ'
p789
S'I-NP'
p790
g5
tp791
a(S'rates'
p792
S'rate'
p793
S'NNS'
p794
S'I-NP'
p795
g5
tp796
a(S'were'
p797
S'be'
p798
S'VBD'
p799
S'B-VP'
p800
g5
tp801
a(S'greater'
p802
S'great'
p803
S'JJR'
p804
S'B-ADJP'
p805
g5
tp806
a(S'for'
p807
S'for'
p808
S'IN'
p809
S'B-PP'
p810
g5
tp811
a(S'the'
p812
S'the'
p813
S'DT'
p814
S'B-NP'
p815
g5
tp816
a(S'FOS-90'
p817
S'FOS-90'
p818
S'NN'
p819
S'I-NP'
p820
g5
tp821
a(S'group'
p822
S'group'
p823
S'NN'
p824
S'I-NP'
p825
g5
tp826
a(g479
g479
g479
g5
g5
tp827
a(S'N'
p828
g828
S'NN'
p829
S'B-NP'
p830
g5
tp831
a(S'='
p832
g832
S'SYM'
p833
S'B-VP'
p834
g5
tp835
a(S'8'
p836
g836
S'CD'
p837
S'B-NP'
p838
g5
tp839
a(g520
g520
g520
g5
g5
tp840
a(S'than'
p841
S'than'
p842
S'IN'
p843
S'B-PP'
p844
g5
tp845
a(S'for'
p846
S'for'
p847
S'IN'
p848
S'B-PP'
p849
g5
tp850
a(S'the'
p851
S'the'
p852
S'DT'
p853
S'B-NP'
p854
g5
tp855
a(S'FOS-120'
p856
S'FOS-120'
p857
S'NN'
p858
S'I-NP'
p859
g5
tp860
a(S'group'
p861
S'group'
p862
S'NN'
p863
S'I-NP'
p864
g5
tp865
a(g479
g479
g479
g5
g5
tp866
a(g828
g828
S'NN'
p867
S'B-NP'
p868
g5
tp869
a(g832
g832
S'SYM'
p870
S'B-VP'
p871
g5
tp872
a(S'10'
p873
S'10'
p874
S'CD'
p875
S'B-NP'
p876
g5
tp877
a(g520
g520
g520
g5
g5
tp878
a(S':'
p879
g879
g879
g5
g5
tp880
a(S'greatest'
p881
S'great'
p882
S'JJS'
p883
S'B-NP'
p884
g5
tp885
a(S'maximum'
p886
S'maximum'
p887
S'JJ'
p888
S'I-NP'
p889
g5
tp890
a(S'rate'
p891
S'rate'
p892
S'NN'
p893
S'I-NP'
p894
g5
tp895
a(S'at'
p896
S'at'
p897
S'IN'
p898
S'B-PP'
p899
g5
tp900
a(S'which'
p901
S'which'
p902
S'WDT'
p903
S'B-NP'
p904
g5
tp905
a(S'lesions'
p906
S'lesion'
p907
S'NNS'
p908
S'B-NP'
p909
g5
tp910
a(S'enlarged'
p911
S'enlarge'
p912
S'VBD'
p913
S'B-VP'
p914
g5
tp915
a(S'in'
p916
S'in'
p917
S'IN'
p918
S'B-PP'
p919
g5
tp920
a(g163
g163
S'DT'
p921
S'B-NP'
p922
g5
tp923
a(S'posterior'
p924
S'posterior'
p925
S'JJ'
p926
S'I-NP'
p927
g5
tp928
a(S'direction'
p929
S'direction'
p930
S'NN'
p931
S'I-NP'
p932
g5
tp933
a(g479
g479
g479
g5
g5
tp934
a(S'43.5'
p935
S'43.5'
p936
S'CD'
p937
S'B-NP'
p938
g5
tp939
a(S'vs'
p940
S'vs'
p941
S'IN'
p942
S'I-NP'
p943
g5
tp944
a(S'12.5'
p945
S'12.5'
p946
S'CD'
p947
S'I-NP'
p948
g5
tp949
a(S'microns/day'
p950
S'microns/day'
p951
S'NN'
p952
S'I-NP'
p953
g5
tp954
a(S';'
p955
g955
g879
g5
g5
tp956
a(S'P'
p957
g957
S'NN'
p958
S'B-NP'
p959
g5
tp960
a(g832
g832
S'SYM'
p961
S'B-VP'
p962
g5
tp963
a(S'.002'
p964
S'.002'
p965
S'CD'
p966
S'B-NP'
p967
g5
tp968
a(g520
g520
g520
g5
g5
tp969
a(g955
g955
g879
g5
g5
tp970
a(S'posterior'
p971
S'posterior'
p972
S'JJ'
p973
S'B-NP'
p974
g5
tp975
a(S'progression'
p976
S'progression'
p977
S'NN'
p978
S'I-NP'
p979
g5
tp980
a(S'rate'
p981
S'rate'
p982
S'NN'
p983
S'I-NP'
p984
g5
tp985
a(S'for'
p986
S'for'
p987
S'IN'
p988
S'B-PP'
p989
g5
tp990
a(S'lesions'
p991
S'lesion'
p992
S'NNS'
p993
S'B-NP'
p994
g5
tp995
a(S'closest'
p996
S'closest'
p997
S'VBP'
p998
S'B-VP'
p999
g5
tp1000
a(S'to'
p1001
S'to'
p1002
S'TO'
p1003
S'B-PP'
p1004
g5
tp1005
a(S'the'
p1006
S'the'
p1007
S'DT'
p1008
S'B-NP'
p1009
g5
tp1010
a(S'fovea'
p1011
S'fovea'
p1012
S'NN'
p1013
S'I-NP'
p1014
g5
tp1015
a(g479
g479
g479
g5
g5
tp1016
a(S'42.8'
p1017
S'42.8'
p1018
S'CD'
p1019
S'B-NP'
p1020
g5
tp1021
a(S'vs'
p1022
S'vs'
p1023
S'IN'
p1024
S'I-NP'
p1025
g5
tp1026
a(S'5.5'
p1027
S'5.5'
p1028
S'CD'
p1029
S'I-NP'
p1030
g5
tp1031
a(S'microns/day'
p1032
S'microns/day'
p1033
S'NN'
p1034
S'I-NP'
p1035
g5
tp1036
a(g955
g955
g879
g5
g5
tp1037
a(g957
g957
S'NN'
p1038
S'B-NP'
p1039
g5
tp1040
a(g832
g832
S'SYM'
p1041
S'B-VP'
p1042
g5
tp1043
a(S'.010'
p1044
S'.010'
p1045
S'CD'
p1046
S'B-NP'
p1047
g5
tp1048
a(g520
g520
g520
g5
g5
tp1049
a(g955
g955
g879
g5
g5
tp1050
a(S'and'
p1051
S'and'
p1052
S'CC'
p1053
g5
g5
tp1054
a(S'maximum'
p1055
S'maximum'
p1056
S'JJ'
p1057
S'B-NP'
p1058
g5
tp1059
a(S'foveal'
p1060
S'foveal'
p1061
S'JJ'
p1062
S'I-NP'
p1063
g5
tp1064
a(S'proximity'
p1065
S'proximity'
p1066
S'NN'
p1067
S'I-NP'
p1068
g5
tp1069
a(S'rate'
p1070
S'rate'
p1071
S'NN'
p1072
S'I-NP'
p1073
g5
tp1074
a(S'for'
p1075
S'for'
p1076
S'IN'
p1077
S'B-PP'
p1078
g5
tp1079
a(S'either'
p1080
S'either'
p1081
S'CC'
p1082
g5
g5
tp1083
a(S'eye'
p1084
S'eye'
p1085
S'NN'
p1086
S'B-NP'
p1087
g5
tp1088
a(g479
g479
g479
g5
g5
tp1089
a(S'32.3'
p1090
S'32.3'
p1091
S'CD'
p1092
S'B-NP'
p1093
g5
tp1094
a(S'vs'
p1095
S'vs'
p1096
S'IN'
p1097
S'I-NP'
p1098
g5
tp1099
a(S'3.4'
p1100
S'3.4'
p1101
S'CD'
p1102
S'I-NP'
p1103
g5
tp1104
a(S'microns/day'
p1105
S'microns/day'
p1106
S'NN'
p1107
S'I-NP'
p1108
g5
tp1109
a(g955
g955
g879
g5
g5
tp1110
a(g957
g957
S'NN'
p1111
S'B-NP'
p1112
g5
tp1113
a(g832
g832
S'SYM'
p1114
S'B-VP'
p1115
g5
tp1116
a(S'.031'
p1117
S'.031'
p1118
S'CD'
p1119
S'B-NP'
p1120
g5
tp1121
a(g520
g520
g520
g5
g5
tp1122
a(g97
g97
g97
g5
g5
tp1123
a(S'CONCLUSION'
p1124
S'CONCLUSION'
p1125
S'NN'
p1126
S'B-NP'
p1127
g5
tp1128
a(S'Patients'
p1129
S'Patient'
p1130
S'NNS'
p1131
S'I-NP'
p1132
g5
tp1133
a(S'receiving'
p1134
S'receive'
p1135
S'VBG'
p1136
S'B-VP'
p1137
g5
tp1138
a(S'higher'
p1139
S'high'
p1140
S'JJR'
p1141
S'B-NP'
p1142
g5
tp1143
a(S'doses'
p1144
S'dose'
p1145
S'NNS'
p1146
S'I-NP'
p1147
g5
tp1148
a(S'of'
p1149
S'of'
p1150
S'IN'
p1151
S'B-PP'
p1152
g5
tp1153
a(S'foscarnet'
p1154
S'foscarnet'
p1155
S'NN'
p1156
S'B-NP'
p1157
g5
tp1158
a(S'have'
p1159
S'have'
p1160
S'VBP'
p1161
S'B-VP'
p1162
g5
tp1163
a(S'slower'
p1164
S'slow'
p1165
S'JJR'
p1166
S'B-NP'
p1167
g5
tp1168
a(S'rates'
p1169
S'rate'
p1170
S'NNS'
p1171
S'I-NP'
p1172
g5
tp1173
a(S'of'
p1174
S'of'
p1175
S'IN'
p1176
S'B-PP'
p1177
g5
tp1178
a(S'progression'
p1179
S'progression'
p1180
S'NN'
p1181
S'B-NP'
p1182
g5
tp1183
a(S'and'
p1184
S'and'
p1185
S'CC'
p1186
g5
g5
tp1187
a(S'therefore'
p1188
S'therefore'
p1189
S'RB'
p1190
S'B-NP'
p1191
g5
tp1192
a(S'less'
p1193
S'less'
p1194
S'RBR'
p1195
S'I-NP'
p1196
g5
tp1197
a(S'retinal'
p1198
S'retinal'
p1199
S'JJ'
p1200
S'I-NP'
p1201
g5
tp1202
a(S'tissue'
p1203
S'tissue'
p1204
S'NN'
p1205
S'I-NP'
p1206
g5
tp1207
a(S'damage'
p1208
S'damage'
p1209
S'NN'
p1210
S'I-NP'
p1211
g5
tp1212
a(S'during'
p1213
S'during'
p1214
S'IN'
p1215
S'B-PP'
p1216
g5
tp1217
a(S'maintenance'
p1218
S'maintenance'
p1219
S'NN'
p1220
S'B-NP'
p1221
g5
tp1222
a(S'therapy.'
p1223
S'therapy.'
p1224
S'NN'
p1225
S'I-NP'
p1226
g5
tp1227
a(g104
g104
S'NN'
p1228
S'I-NP'
p1229
g5
tp1230
a(S'foscarnet'
p1231
S'foscarnet'
p1232
S'NN'
p1233
S'I-NP'
p1234
g5
tp1235
a(S'maintenance'
p1236
S'maintenance'
p1237
S'NN'
p1238
S'I-NP'
p1239
g5
tp1240
a(S'therapy'
p1241
S'therapy'
p1242
S'NN'
p1243
S'I-NP'
p1244
g5
tp1245
a(S'dose'
p1246
S'dose'
p1247
S'NN'
p1248
S'I-NP'
p1249
g5
tp1250
a(S'of'
p1251
S'of'
p1252
S'IN'
p1253
S'B-PP'
p1254
g5
tp1255
a(S'120'
p1256
S'120'
p1257
S'CD'
p1258
S'B-NP'
p1259
g5
tp1260
a(S'mg/kg'
p1261
S'mg/kg'
p1262
S'NN'
p1263
S'I-NP'
p1264
g5
tp1265
a(S'of'
p1266
S'of'
p1267
S'IN'
p1268
S'B-PP'
p1269
g5
tp1270
a(S'body'
p1271
S'body'
p1272
S'NN'
p1273
S'B-NP'
p1274
g5
tp1275
a(S'weight/day'
p1276
S'weight/day'
p1277
S'NN'
p1278
S'I-NP'
p1279
g5
tp1280
a(S'instead'
p1281
S'instead'
p1282
S'RB'
p1283
S'B-CONJP'
p1284
g5
tp1285
a(S'of'
p1286
S'of'
p1287
S'IN'
p1288
S'I-CONJP'
p1289
g5
tp1290
a(S'90'
p1291
S'90'
p1292
S'CD'
p1293
S'B-NP'
p1294
g5
tp1295
a(S'mg/kg'
p1296
S'mg/kg'
p1297
S'NN'
p1298
S'I-NP'
p1299
g5
tp1300
a(S'of'
p1301
S'of'
p1302
S'IN'
p1303
S'B-PP'
p1304
g5
tp1305
a(S'body'
p1306
S'body'
p1307
S'NN'
p1308
S'B-NP'
p1309
g5
tp1310
a(S'weight/day'
p1311
S'weight/day'
p1312
S'NN'
p1313
S'I-NP'
p1314
g5
tp1315
a(S'may'
p1316
S'may'
p1317
S'MD'
p1318
S'B-VP'
p1319
g5
tp1320
a(S'help'
p1321
S'help'
p1322
S'VB'
p1323
S'I-VP'
p1324
g5
tp1325
a(S'to'
p1326
S'to'
p1327
S'TO'
p1328
S'I-VP'
p1329
g5
tp1330
a(S'preserve'
p1331
S'preserve'
p1332
S'VB'
p1333
S'I-VP'
p1334
g5
tp1335
a(S'vision'
p1336
S'vision'
p1337
S'NN'
p1338
S'B-NP'
p1339
g5
tp1340
a(S'in'
p1341
S'in'
p1342
S'IN'
p1343
S'B-PP'
p1344
g5
tp1345
a(S'patients'
p1346
S'patient'
p1347
S'NNS'
p1348
S'B-NP'
p1349
g5
tp1350
a(S'with'
p1351
S'with'
p1352
S'IN'
p1353
S'B-PP'
p1354
g5
tp1355
a(S'cytomegalovirus'
p1356
S'cytomegalovirus'
p1357
S'NN'
p1358
S'B-NP'
p1359
g5
tp1360
a(S'retinopathy'
p1361
S'retinopathy'
p1362
S'NN'
p1363
S'I-NP'
p1364
g5
tp1365
a(g97
g97
g97
g5
g5
tp1366
a.