(lp0
(S'Effects'
p1
S'Effect'
p2
S'NNS'
p3
S'B-NP'
p4
S'O'
p5
tp6
a(S'of'
p7
S'of'
p8
S'IN'
p9
S'B-PP'
p10
g5
tp11
a(S'ranolazine'
p12
S'ranolazine'
p13
S'NN'
p14
S'B-NP'
p15
g5
tp16
a(S'on'
p17
S'on'
p18
S'IN'
p19
S'B-PP'
p20
g5
tp21
a(S'quality'
p22
S'quality'
p23
S'NN'
p24
S'B-NP'
p25
g5
tp26
a(S'of'
p27
S'of'
p28
S'IN'
p29
S'B-PP'
p30
g5
tp31
a(S'life'
p32
S'life'
p33
S'NN'
p34
S'B-NP'
p35
g5
tp36
a(S'among'
p37
S'among'
p38
S'IN'
p39
S'B-PP'
p40
g5
tp41
a(S'patients'
p42
S'patient'
p43
S'NNS'
p44
S'B-NP'
p45
g5
tp46
a(S'with'
p47
S'with'
p48
S'IN'
p49
S'B-PP'
p50
g5
tp51
a(S'diabetes'
p52
S'diabetes'
p53
S'NN'
p54
S'B-NP'
p55
g5
tp56
a(S'mellitus'
p57
S'mellitus'
p58
S'NN'
p59
S'I-NP'
p60
g5
tp61
a(S'and'
p62
S'and'
p63
S'CC'
p64
g5
g5
tp65
a(S'stable'
p66
S'stable'
p67
S'JJ'
p68
S'B-NP'
p69
g5
tp70
a(S'angina'
p71
S'angina'
p72
S'NN'
p73
S'I-NP'
p74
g5
tp75
a(S'.'
p76
g76
g76
g5
g5
tp77
a.