(lp0
(S'Effectiveness'
p1
S'Effectiveness'
p2
S'NN'
p3
S'B-NP'
p4
S'O'
p5
tp6
a(S'and'
p7
S'and'
p8
S'CC'
p9
S'I-NP'
p10
g5
tp11
a(S'safety'
p12
S'safety'
p13
S'NN'
p14
S'I-NP'
p15
g5
tp16
a(S'of'
p17
S'of'
p18
S'IN'
p19
S'B-PP'
p20
g5
tp21
a(S'inhaled'
p22
S'inhale'
p23
S'VBN'
p24
S'B-NP'
p25
g5
tp26
a(S'treprostinil'
p27
S'treprostinil'
p28
S'NN'
p29
S'I-NP'
p30
g5
tp31
a(S'for'
p32
S'for'
p33
S'IN'
p34
S'B-PP'
p35
g5
tp36
a(S'the'
p37
S'the'
p38
S'DT'
p39
S'B-NP'
p40
g5
tp41
a(S'treatment'
p42
S'treatment'
p43
S'NN'
p44
S'I-NP'
p45
g5
tp46
a(S'of'
p47
S'of'
p48
S'IN'
p49
S'B-PP'
p50
g5
tp51
a(S'pulmonary'
p52
S'pulmonary'
p53
S'JJ'
p54
S'B-NP'
p55
g5
tp56
a(S'arterial'
p57
S'arterial'
p58
S'JJ'
p59
S'I-NP'
p60
g5
tp61
a(S'hypertension'
p62
S'hypertension'
p63
S'NN'
p64
S'I-NP'
p65
g5
tp66
a(S'in'
p67
S'in'
p68
S'IN'
p69
S'B-PP'
p70
g5
tp71
a(S'children'
p72
S'child'
p73
S'NNS'
p74
S'B-NP'
p75
g5
tp76
a(S'.'
p77
g77
g77
g5
g5
tp78
a(S'The'
p79
S'The'
p80
S'DT'
p81
S'B-NP'
p82
g5
tp83
a(S'introduction'
p84
S'introduction'
p85
S'NN'
p86
S'I-NP'
p87
g5
tp88
a(S'of'
p89
S'of'
p90
S'IN'
p91
S'B-PP'
p92
g5
tp93
a(S'prostanoid'
p94
S'prostanoid'
p95
S'NN'
p96
S'B-NP'
p97
g5
tp98
a(S'therapy'
p99
S'therapy'
p100
S'NN'
p101
S'I-NP'
p102
g5
tp103
a(S'has'
p104
S'have'
p105
S'VBZ'
p106
S'B-VP'
p107
g5
tp108
a(S'revolutionized'
p109
S'revolutionize'
p110
S'VBN'
p111
S'I-VP'
p112
g5
tp113
a(S'the'
p114
S'the'
p115
S'DT'
p116
S'B-NP'
p117
g5
tp118
a(S'treatment'
p119
S'treatment'
p120
S'NN'
p121
S'I-NP'
p122
g5
tp123
a(S'of'
p124
S'of'
p125
S'IN'
p126
S'B-PP'
p127
g5
tp128
a(S'pulmonary'
p129
S'pulmonary'
p130
S'JJ'
p131
S'B-NP'
p132
g5
tp133
a(S'arterial'
p134
S'arterial'
p135
S'JJ'
p136
S'I-NP'
p137
g5
tp138
a(S'hypertension'
p139
S'hypertension'
p140
S'NN'
p141
S'I-NP'
p142
g5
tp143
a(S'('
p144
g144
g144
g5
g5
tp145
a(S'PAH'
p146
S'PAH'
p147
S'NN'
p148
S'B-NP'
p149
g5
tp150
a(S')'
p151
g151
g151
g5
g5
tp152
a(g77
g77
g77
g5
g5
tp153
a(S'However'
p154
S'However'
p155
S'RB'
p156
S'B-ADVP'
p157
g5
tp158
a(S','
p159
g159
g159
g5
g5
tp160
a(S'continuous'
p161
S'continuous'
p162
S'JJ'
p163
S'B-NP'
p164
g5
tp165
a(S'intravenous'
p166
S'intravenous'
p167
S'JJ'
p168
S'I-NP'
p169
g5
tp170
a(S'prostacyclin'
p171
S'prostacyclin'
p172
S'NN'
p173
S'I-NP'
p174
g5
tp175
a(S'infusion'
p176
S'infusion'
p177
S'NN'
p178
S'I-NP'
p179
g5
tp180
a(S'poses'
p181
S'pose'
p182
S'VBZ'
p183
S'B-VP'
p184
g5
tp185
a(S'significant'
p186
S'significant'
p187
S'JJ'
p188
S'B-NP'
p189
g5
tp190
a(S'risks'
p191
S'risk'
p192
S'NNS'
p193
S'I-NP'
p194
g5
tp195
a(S'and'
p196
S'and'
p197
S'CC'
p198
S'I-NP'
p199
g5
tp200
a(S'challenges'
p201
S'challenge'
p202
S'NNS'
p203
S'I-NP'
p204
g5
tp205
a(g159
g159
g159
g5
g5
tp206
a(S'particularly'
p207
S'particularly'
p208
S'RB'
p209
S'B-ADVP'
p210
g5
tp211
a(S'in'
p212
S'in'
p213
S'IN'
p214
S'B-PP'
p215
g5
tp216
a(S'children.'
p217
S'children.'
p218
S'NN'
p219
S'B-NP'
p220
g5
tp221
a(S'Inhaled'
p222
S'Inhale'
p223
S'VBN'
p224
S'I-NP'
p225
g5
tp226
a(S'treprostinil'
p227
S'treprostinil'
p228
S'NN'
p229
S'I-NP'
p230
g5
tp231
a(S'has'
p232
S'have'
p233
S'VBZ'
p234
S'B-VP'
p235
g5
tp236
a(S'been'
p237
S'be'
p238
S'VBN'
p239
S'I-VP'
p240
g5
tp241
a(S'shown'
p242
S'show'
p243
S'VBN'
p244
S'I-VP'
p245
g5
tp246
a(S'to'
p247
S'to'
p248
S'TO'
p249
S'I-VP'
p250
g5
tp251
a(S'be'
p252
S'be'
p253
S'VB'
p254
S'I-VP'
p255
g5
tp256
a(S'safe'
p257
S'safe'
p258
S'JJ'
p259
S'B-ADJP'
p260
g5
tp261
a(S'and'
p262
S'and'
p263
S'CC'
p264
S'I-ADJP'
p265
g5
tp266
a(S'efficacious'
p267
S'efficacious'
p268
S'JJ'
p269
S'I-ADJP'
p270
g5
tp271
a(S'in'
p272
S'in'
p273
S'IN'
p274
S'B-PP'
p275
g5
tp276
a(S'adults.'
p277
S'adults.'
p278
S'NNS'
p279
S'B-NP'
p280
g5
tp281
a(S'This'
p282
S'This'
p283
S'DT'
p284
S'B-NP'
p285
g5
tp286
a(S'study'
p287
S'study'
p288
S'NN'
p289
S'I-NP'
p290
g5
tp291
a(S'describes'
p292
S'describe'
p293
S'VBZ'
p294
S'B-VP'
p295
g5
tp296
a(S'the'
p297
S'the'
p298
S'DT'
p299
S'B-NP'
p300
g5
tp301
a(S'safety'
p302
S'safety'
p303
S'NN'
p304
S'I-NP'
p305
g5
tp306
a(S'and'
p307
S'and'
p308
S'CC'
p309
S'I-NP'
p310
g5
tp311
a(S'efficacy'
p312
S'efficacy'
p313
S'NN'
p314
S'I-NP'
p315
g5
tp316
a(S'of'
p317
S'of'
p318
S'IN'
p319
S'B-PP'
p320
g5
tp321
a(S'inhaled'
p322
S'inhale'
p323
S'VBN'
p324
S'B-NP'
p325
g5
tp326
a(S'treprostinil'
p327
S'treprostinil'
p328
S'NN'
p329
S'I-NP'
p330
g5
tp331
a(S'in'
p332
S'in'
p333
S'IN'
p334
S'B-PP'
p335
g5
tp336
a(S'children'
p337
S'child'
p338
S'NNS'
p339
S'B-NP'
p340
g5
tp341
a(S'with'
p342
S'with'
p343
S'IN'
p344
S'B-PP'
p345
g5
tp346
a(S'PAH.'
p347
S'PAH.'
p348
S'NNP'
p349
S'B-NP'
p350
g5
tp351
a(S'A'
p352
g352
S'NNP'
p353
S'I-NP'
p354
g5
tp355
a(S'retrospective'
p356
S'retrospective'
p357
S'JJ'
p358
S'I-NP'
p359
g5
tp360
a(S'analysis'
p361
S'analysis'
p362
S'NN'
p363
S'I-NP'
p364
g5
tp365
a(S'of'
p366
S'of'
p367
S'IN'
p368
S'B-PP'
p369
g5
tp370
a(S'29'
p371
S'29'
p372
S'CD'
p373
S'B-NP'
p374
g5
tp375
a(S'children'
p376
S'child'
p377
S'NNS'
p378
S'I-NP'
p379
g5
tp380
a(S'treated'
p381
S'treat'
p382
S'VBN'
p383
S'B-VP'
p384
g5
tp385
a(S'with'
p386
S'with'
p387
S'IN'
p388
S'B-PP'
p389
g5
tp390
a(S'inhaled'
p391
S'inhale'
p392
S'VBN'
p393
S'B-NP'
p394
g5
tp395
a(S'treprostinil'
p396
S'treprostinil'
p397
S'NN'
p398
S'I-NP'
p399
g5
tp400
a(S'for'
p401
S'for'
p402
S'IN'
p403
S'B-PP'
p404
g5
tp405
a(S'\xe2\x89\xa56'
p406
S'\xe2\x89\xa56'
p407
S'CD'
p408
S'B-NP'
p409
g5
tp410
a(S'weeks'
p411
S'week'
p412
S'NNS'
p413
S'I-NP'
p414
g5
tp415
a(S'was'
p416
S'be'
p417
S'VBD'
p418
S'B-VP'
p419
g5
tp420
a(S'performed.'
p421
S'performed.'
p422
S'VBN'
p423
S'I-VP'
p424
g5
tp425
a(S'Effects'
p426
S'Effect'
p427
S'NNS'
p428
S'B-NP'
p429
g5
tp430
a(S'of'
p431
S'of'
p432
S'IN'
p433
S'B-PP'
p434
g5
tp435
a(S'inhaled'
p436
S'inhale'
p437
S'VBN'
p438
S'B-NP'
p439
g5
tp440
a(S'treprostinil'
p441
S'treprostinil'
p442
S'NN'
p443
S'I-NP'
p444
g5
tp445
a(S'on'
p446
S'on'
p447
S'IN'
p448
S'B-PP'
p449
g5
tp450
a(S'exercise'
p451
S'exercise'
p452
S'NN'
p453
S'B-NP'
p454
g5
tp455
a(S'capacity'
p456
S'capacity'
p457
S'NN'
p458
S'I-NP'
p459
g5
tp460
a(g159
g159
g159
g5
g5
tp461
a(S'functional'
p462
S'functional'
p463
S'JJ'
p464
S'B-NP'
p465
g5
tp466
a(S'class'
p467
S'class'
p468
S'NN'
p469
S'I-NP'
p470
g5
tp471
a(g159
g159
g159
g5
g5
tp472
a(S'and'
p473
S'and'
p474
S'CC'
p475
g5
g5
tp476
a(S'echocardiographic'
p477
S'echocardiographic'
p478
S'JJ'
p479
S'B-NP'
p480
g5
tp481
a(S'and'
p482
S'and'
p483
S'CC'
p484
S'I-NP'
p485
g5
tp486
a(S'hemodynamic'
p487
S'hemodynamic'
p488
S'JJ'
p489
S'I-NP'
p490
g5
tp491
a(S'data'
p492
S'datum'
p493
S'NNS'
p494
S'I-NP'
p495
g5
tp496
a(S'were'
p497
S'be'
p498
S'VBD'
p499
S'B-VP'
p500
g5
tp501
a(S'evaluated.'
p502
S'evaluated.'
p503
S'VBN'
p504
S'I-VP'
p505
g5
tp506
a(S'Adverse'
p507
S'Adverse'
p508
S'JJ'
p509
S'B-NP'
p510
g5
tp511
a(S'events'
p512
S'event'
p513
S'NNS'
p514
S'I-NP'
p515
g5
tp516
a(S'were'
p517
S'be'
p518
S'VBD'
p519
S'B-VP'
p520
g5
tp521
a(S'documented.'
p522
S'documented.'
p523
S'VBN'
p524
S'I-VP'
p525
g5
tp526
a(S'Patients'
p527
S'Patients'
p528
S'NNP'
p529
S'B-NP'
p530
g5
tp531
a(S'received'
p532
S'receive'
p533
S'VBD'
p534
S'B-VP'
p535
g5
tp536
a(S'3'
p537
g537
S'CD'
p538
S'B-NP'
p539
g5
tp540
a(S'to'
p541
S'to'
p542
S'TO'
p543
S'B-PP'
p544
g5
tp545
a(S'9'
p546
g546
S'CD'
p547
S'B-NP'
p548
g5
tp549
a(S'breaths'
p550
S'breath'
p551
S'NNS'
p552
S'I-NP'
p553
g5
tp554
a(g144
g144
g144
g5
g5
tp555
a(S'6'
p556
g556
S'CD'
p557
S'B-NP'
p558
g5
tp559
a(S'\xce\xbcg/breath'
p560
S'\xce\xbcg/breath'
p561
S'NN'
p562
S'I-NP'
p563
g5
tp564
a(g151
g151
g151
g5
g5
tp565
a(S'of'
p566
S'of'
p567
S'IN'
p568
S'B-PP'
p569
g5
tp570
a(S'inhaled'
p571
S'inhale'
p572
S'VBN'
p573
S'B-NP'
p574
g5
tp575
a(S'treprostinil'
p576
S'treprostinil'
p577
S'NN'
p578
S'I-NP'
p579
g5
tp580
a(S'4'
p581
g581
S'CD'
p582
S'I-NP'
p583
g5
tp584
a(S'times/day.'
p585
S'times/day.'
p586
S'NN'
p587
S'I-NP'
p588
g5
tp589
a(S'All'
p590
S'All'
p591
S'DT'
p592
g5
g5
tp593
a(S'were'
p594
S'be'
p595
S'VBD'
p596
S'B-VP'
p597
g5
tp598
a(S'receiving'
p599
S'receive'
p600
S'VBG'
p601
S'I-VP'
p602
g5
tp603
a(S'background'
p604
S'background'
p605
S'NN'
p606
S'B-NP'
p607
g5
tp608
a(S'PAH'
p609
S'PAH'
p610
S'NN'
p611
S'I-NP'
p612
g5
tp613
a(S'therapy'
p614
S'therapy'
p615
S'NN'
p616
S'I-NP'
p617
g5
tp618
a(S';'
p619
g619
S':'
p620
g5
g5
tp621
a(S'12'
p622
S'12'
p623
S'CD'
p624
S'B-NP'
p625
g5
tp626
a(S'had'
p627
S'have'
p628
S'VBD'
p629
S'B-VP'
p630
g5
tp631
a(S'previously'
p632
S'previously'
p633
S'RB'
p634
S'I-VP'
p635
g5
tp636
a(S'received'
p637
S'receive'
p638
S'VBN'
p639
S'I-VP'
p640
g5
tp641
a(S'parenteral'
p642
S'parenteral'
p643
S'JJ'
p644
S'B-NP'
p645
g5
tp646
a(S'prostanoid.'
p647
S'prostanoid.'
p648
S'NN'
p649
S'I-NP'
p650
g5
tp651
a(S'Inhaled'
p652
S'Inhale'
p653
S'VBN'
p654
S'B-NP'
p655
g5
tp656
a(S'treprostinil'
p657
S'treprostinil'
p658
S'NN'
p659
S'I-NP'
p660
g5
tp661
a(S'was'
p662
S'be'
p663
S'VBD'
p664
S'B-VP'
p665
g5
tp666
a(S'discontinued'
p667
S'discontinue'
p668
S'VBN'
p669
S'I-VP'
p670
g5
tp671
a(S'in'
p672
S'in'
p673
S'IN'
p674
S'B-PP'
p675
g5
tp676
a(g581
g581
S'CD'
p677
S'B-NP'
p678
g5
tp679
a(S'patients'
p680
S'patient'
p681
S'NNS'
p682
S'I-NP'
p683
g5
tp684
a(S'because'
p685
S'because'
p686
S'IN'
p687
S'B-PP'
p688
g5
tp689
a(S'of'
p690
S'of'
p691
S'IN'
p692
S'I-PP'
p693
g5
tp694
a(S'symptoms'
p695
S'symptom'
p696
S'NNS'
p697
S'B-NP'
p698
g5
tp699
a(S'including'
p700
S'include'
p701
S'VBG'
p702
S'B-PP'
p703
g5
tp704
a(S'cough'
p705
S'cough'
p706
S'NN'
p707
S'B-NP'
p708
g5
tp709
a(S'and'
p710
S'and'
p711
S'CC'
p712
g5
g5
tp713
a(S'bronchospasm'
p714
S'bronchospasm'
p715
S'NN'
p716
S'B-NP'
p717
g5
tp718
a(g144
g144
g144
g5
g5
tp719
a(S'n'
p720
g720
S'NN'
p721
S'B-NP'
p722
g5
tp723
a(S'='
p724
g724
S'SYM'
p725
S'B-VP'
p726
g5
tp727
a(g537
g537
S'CD'
p728
S'B-NP'
p729
g5
tp730
a(g151
g151
g151
g5
g5
tp731
a(S'and'
p732
S'and'
p733
S'CC'
p734
g5
g5
tp735
a(S'progression'
p736
S'progression'
p737
S'NN'
p738
S'B-NP'
p739
g5
tp740
a(S'of'
p741
S'of'
p742
S'IN'
p743
S'B-PP'
p744
g5
tp745
a(S'PAH'
p746
S'PAH'
p747
S'NN'
p748
S'B-NP'
p749
g5
tp750
a(g144
g144
g144
g5
g5
tp751
a(g720
g720
S'NN'
p752
S'B-NP'
p753
g5
tp754
a(g724
g724
S'SYM'
p755
S'B-VP'
p756
g5
tp757
a(S'1'
p758
g758
S'CD'
p759
S'B-NP'
p760
g5
tp761
a(g151
g151
g151
g5
g5
tp762
a(g77
g77
g77
g5
g5
tp763
a(S'Mild'
p764
S'Mild'
p765
S'JJ'
p766
S'B-NP'
p767
g5
tp768
a(S'side'
p769
S'side'
p770
S'JJ'
p771
S'I-NP'
p772
g5
tp773
a(S'effects'
p774
S'effect'
p775
S'NNS'
p776
S'I-NP'
p777
g5
tp778
a(S'including'
p779
S'include'
p780
S'VBG'
p781
S'B-PP'
p782
g5
tp783
a(S'cough'
p784
S'cough'
p785
S'NN'
p786
S'B-NP'
p787
g5
tp788
a(g144
g144
g144
g5
g5
tp789
a(g720
g720
S'NN'
p790
S'B-NP'
p791
g5
tp792
a(g724
g724
S'SYM'
p793
S'B-VP'
p794
g5
tp795
a(g546
g546
S'CD'
p796
S'B-NP'
p797
g5
tp798
a(g151
g151
g151
g5
g5
tp799
a(S'and'
p800
S'and'
p801
S'CC'
p802
g5
g5
tp803
a(S'sore'
p804
S'sore'
p805
S'NN'
p806
S'B-NP'
p807
g5
tp808
a(S'throat'
p809
S'throat'
p810
S'NN'
p811
S'I-NP'
p812
g5
tp813
a(g144
g144
g144
g5
g5
tp814
a(g720
g720
S'NN'
p815
S'B-NP'
p816
g5
tp817
a(g724
g724
S'SYM'
p818
S'B-VP'
p819
g5
tp820
a(g556
g556
S'CD'
p821
S'B-NP'
p822
g5
tp823
a(g151
g151
g151
g5
g5
tp824
a(S'did'
p825
S'do'
p826
S'VBD'
p827
S'B-VP'
p828
g5
tp829
a(S'not'
p830
S'not'
p831
S'RB'
p832
S'I-VP'
p833
g5
tp834
a(S'require'
p835
S'require'
p836
S'VB'
p837
S'I-VP'
p838
g5
tp839
a(S'discontinuation'
p840
S'discontinuation'
p841
S'NN'
p842
S'B-NP'
p843
g5
tp844
a(S'of'
p845
S'of'
p846
S'IN'
p847
S'B-PP'
p848
g5
tp849
a(S'therapy.'
p850
S'therapy.'
p851
S'DT'
p852
S'B-NP'
p853
g5
tp854
a(S'World'
p855
S'World'
p856
S'NNP'
p857
S'I-NP'
p858
g5
tp859
a(S'Health'
p860
S'Health'
p861
S'NNP'
p862
S'I-NP'
p863
g5
tp864
a(S'Organization'
p865
S'Organization'
p866
S'NNP'
p867
S'I-NP'
p868
g5
tp869
a(S'functional'
p870
S'functional'
p871
S'JJ'
p872
S'I-NP'
p873
g5
tp874
a(S'class'
p875
S'class'
p876
S'NN'
p877
S'I-NP'
p878
g5
tp879
a(S'improved'
p880
S'improve'
p881
S'VBN'
p882
S'B-VP'
p883
g5
tp884
a(S'in'
p885
S'in'
p886
S'IN'
p887
S'B-PP'
p888
g5
tp889
a(S'19'
p890
S'19'
p891
S'CD'
p892
S'B-NP'
p893
g5
tp894
a(S'and'
p895
S'and'
p896
S'CC'
p897
g5
g5
tp898
a(S'was'
p899
S'be'
p900
S'VBD'
p901
S'B-VP'
p902
g5
tp903
a(S'unchanged'
p904
S'unchanged'
p905
S'JJ'
p906
S'B-ADJP'
p907
g5
tp908
a(S'in'
p909
S'in'
p910
S'IN'
p911
S'B-PP'
p912
g5
tp913
a(S'10'
p914
S'10'
p915
S'CD'
p916
S'B-NP'
p917
g5
tp918
a(g619
g619
g620
g5
g5
tp919
a(S'exercise'
p920
S'exercise'
p921
S'NN'
p922
S'B-NP'
p923
g5
tp924
a(S'capacity'
p925
S'capacity'
p926
S'NN'
p927
S'I-NP'
p928
g5
tp929
a(S'significantly'
p930
S'significantly'
p931
S'RB'
p932
S'B-ADVP'
p933
g5
tp934
a(S'improved'
p935
S'improve'
p936
S'VBD'
p937
S'B-VP'
p938
g5
tp939
a(S'with'
p940
S'with'
p941
S'IN'
p942
S'B-PP'
p943
g5
tp944
a(S'the'
p945
S'the'
p946
S'DT'
p947
S'B-NP'
p948
g5
tp949
a(S'6-minute'
p950
S'6-minute'
p951
S'JJ'
p952
S'I-NP'
p953
g5
tp954
a(S'walk'
p955
S'walk'
p956
S'NN'
p957
S'I-NP'
p958
g5
tp959
a(S'distance'
p960
S'distance'
p961
S'NN'
p962
S'I-NP'
p963
g5
tp964
a(g159
g159
g159
g5
g5
tp965
a(S'improving'
p966
S'improve'
p967
S'VBG'
p968
S'B-VP'
p969
g5
tp970
a(S'on'
p971
S'on'
p972
S'IN'
p973
S'B-PP'
p974
g5
tp975
a(S'follow-up'
p976
S'follow-up'
p977
S'NN'
p978
S'B-NP'
p979
g5
tp980
a(S'from'
p981
S'from'
p982
S'IN'
p983
S'B-PP'
p984
g5
tp985
a(S'455.7'
p986
S'455.7'
p987
S'CD'
p988
S'B-NP'
p989
g5
tp990
a(S'\xc2\xb1'
p991
S'\xc2\xb1'
p992
S'NNS'
p993
S'I-NP'
p994
g5
tp995
a(S'71.5'
p996
S'71.5'
p997
S'CD'
p998
S'B-NP'
p999
g5
tp1000
a(S'to'
p1001
S'to'
p1002
S'TO'
p1003
S'B-PP'
p1004
g5
tp1005
a(S'498'
p1006
S'498'
p1007
S'CD'
p1008
S'B-NP'
p1009
g5
tp1010
a(S'\xc2\xb1'
p1011
S'\xc2\xb1'
p1012
S'SYM'
p1013
S'I-NP'
p1014
g5
tp1015
a(S'70'
p1016
S'70'
p1017
S'CD'
p1018
S'I-NP'
p1019
g5
tp1020
a(S'm'
p1021
g1021
S'NN'
p1022
S'I-NP'
p1023
g5
tp1024
a(g144
g144
g144
g5
g5
tp1025
a(S'p'
p1026
g1026
S'NN'
p1027
S'B-NP'
p1028
g5
tp1029
a(g724
g724
S'SYM'
p1030
S'B-VP'
p1031
g5
tp1032
a(S'0.01'
p1033
S'0.01'
p1034
S'CD'
p1035
S'B-NP'
p1036
g5
tp1037
a(g151
g151
g151
g5
g5
tp1038
a(S'and'
p1039
S'and'
p1040
S'CC'
p1041
g5
g5
tp1042
a(S'peak'
p1043
S'peak'
p1044
S'JJ'
p1045
S'B-NP'
p1046
g5
tp1047
a(S'oxygen'
p1048
S'oxygen'
p1049
S'NN'
p1050
S'I-NP'
p1051
g5
tp1052
a(S'consumption'
p1053
S'consumption'
p1054
S'NN'
p1055
S'I-NP'
p1056
g5
tp1057
a(S'increasing'
p1058
S'increase'
p1059
S'VBG'
p1060
S'B-VP'
p1061
g5
tp1062
a(S'from'
p1063
S'from'
p1064
S'IN'
p1065
S'B-PP'
p1066
g5
tp1067
a(S'25.5'
p1068
S'25.5'
p1069
S'CD'
p1070
S'B-NP'
p1071
g5
tp1072
a(S'\xc2\xb1'
p1073
S'\xc2\xb1'
p1074
S'NNS'
p1075
S'I-NP'
p1076
g5
tp1077
a(S'10.2'
p1078
S'10.2'
p1079
S'CD'
p1080
S'B-NP'
p1081
g5
tp1082
a(S'to'
p1083
S'to'
p1084
S'TO'
p1085
S'I-NP'
p1086
g5
tp1087
a(S'27.4'
p1088
S'27.4'
p1089
S'CD'
p1090
S'I-NP'
p1091
g5
tp1092
a(S'\xc2\xb1'
p1093
S'\xc2\xb1'
p1094
S'NN'
p1095
S'I-NP'
p1096
g5
tp1097
a(S'10'
p1098
S'10'
p1099
S'CD'
p1100
S'I-NP'
p1101
g5
tp1102
a(g144
g144
g144
g5
g5
tp1103
a(g1026
g1026
S'NN'
p1104
S'B-NP'
p1105
g5
tp1106
a(g724
g724
S'SYM'
p1107
S'B-VP'
p1108
g5
tp1109
a(S'0.04'
p1110
S'0.04'
p1111
S'CD'
p1112
S'B-NP'
p1113
g5
tp1114
a(g151
g151
g151
g5
g5
tp1115
a(g77
g77
g77
g5
g5
tp1116
a(S'In'
p1117
S'In'
p1118
S'IN'
p1119
S'B-PP'
p1120
g5
tp1121
a(S'conclusion'
p1122
S'conclusion'
p1123
S'NN'
p1124
S'B-NP'
p1125
g5
tp1126
a(g159
g159
g159
g5
g5
tp1127
a(S'inhaled'
p1128
S'inhale'
p1129
S'VBN'
p1130
S'B-NP'
p1131
g5
tp1132
a(S'treprostinil'
p1133
S'treprostinil'
p1134
S'NN'
p1135
S'I-NP'
p1136
g5
tp1137
a(S'was'
p1138
S'be'
p1139
S'VBD'
p1140
S'B-VP'
p1141
g5
tp1142
a(S'associated'
p1143
S'associate'
p1144
S'VBN'
p1145
S'I-VP'
p1146
g5
tp1147
a(S'with'
p1148
S'with'
p1149
S'IN'
p1150
S'B-PP'
p1151
g5
tp1152
a(S'improvement'
p1153
S'improvement'
p1154
S'NN'
p1155
S'B-NP'
p1156
g5
tp1157
a(S'in'
p1158
S'in'
p1159
S'IN'
p1160
S'B-PP'
p1161
g5
tp1162
a(S'exercise'
p1163
S'exercise'
p1164
S'NN'
p1165
S'B-NP'
p1166
g5
tp1167
a(S'capacity'
p1168
S'capacity'
p1169
S'NN'
p1170
S'I-NP'
p1171
g5
tp1172
a(S'and'
p1173
S'and'
p1174
S'CC'
p1175
g5
g5
tp1176
a(S'World'
p1177
S'World'
p1178
S'NNP'
p1179
S'B-NP'
p1180
g5
tp1181
a(S'Health'
p1182
S'Health'
p1183
S'NNP'
p1184
S'I-NP'
p1185
g5
tp1186
a(S'Organization'
p1187
S'Organization'
p1188
S'NNP'
p1189
S'I-NP'
p1190
g5
tp1191
a(S'functional'
p1192
S'functional'
p1193
S'JJ'
p1194
S'I-NP'
p1195
g5
tp1196
a(S'class'
p1197
S'class'
p1198
S'NN'
p1199
S'I-NP'
p1200
g5
tp1201
a(S'when'
p1202
S'when'
p1203
S'WRB'
p1204
S'B-ADVP'
p1205
g5
tp1206
a(S'added'
p1207
S'add'
p1208
S'VBN'
p1209
S'B-VP'
p1210
g5
tp1211
a(S'to'
p1212
S'to'
p1213
S'TO'
p1214
S'B-PP'
p1215
g5
tp1216
a(S'background'
p1217
S'background'
p1218
S'RB'
p1219
S'B-NP'
p1220
g5
tp1221
a(S'targeted'
p1222
S'target'
p1223
S'VBN'
p1224
S'I-NP'
p1225
g5
tp1226
a(S'PAH'
p1227
S'PAH'
p1228
S'NN'
p1229
S'I-NP'
p1230
g5
tp1231
a(S'therapy'
p1232
S'therapy'
p1233
S'NN'
p1234
S'I-NP'
p1235
g5
tp1236
a(S'in'
p1237
S'in'
p1238
S'IN'
p1239
S'B-PP'
p1240
g5
tp1241
a(S'children'
p1242
S'child'
p1243
S'NNS'
p1244
S'B-NP'
p1245
g5
tp1246
a(S'and'
p1247
S'and'
p1248
S'CC'
p1249
g5
g5
tp1250
a(S'had'
p1251
S'have'
p1252
S'VBD'
p1253
S'B-VP'
p1254
g5
tp1255
a(S'an'
p1256
S'an'
p1257
S'DT'
p1258
S'B-NP'
p1259
g5
tp1260
a(S'acceptable'
p1261
S'acceptable'
p1262
S'JJ'
p1263
S'I-NP'
p1264
g5
tp1265
a(S'safety'
p1266
S'safety'
p1267
S'NN'
p1268
S'I-NP'
p1269
g5
tp1270
a(S'profile.'
p1271
S'profile.'
p1272
S'NN'
p1273
S'I-NP'
p1274
g5
tp1275
a(S'Based'
p1276
S'Base'
p1277
S'VBN'
p1278
S'B-VP'
p1279
g5
tp1280
a(S'on'
p1281
S'on'
p1282
S'IN'
p1283
S'B-PP'
p1284
g5
tp1285
a(S'these'
p1286
S'these'
p1287
S'DT'
p1288
S'B-NP'
p1289
g5
tp1290
a(S'early'
p1291
S'early'
p1292
S'JJ'
p1293
S'I-NP'
p1294
g5
tp1295
a(S'data'
p1296
S'datum'
p1297
S'NNS'
p1298
S'I-NP'
p1299
g5
tp1300
a(g159
g159
g159
g5
g5
tp1301
a(S'further'
p1302
S'further'
p1303
S'JJ'
p1304
S'B-NP'
p1305
g5
tp1306
a(S'study'
p1307
S'study'
p1308
S'NN'
p1309
S'I-NP'
p1310
g5
tp1311
a(S'of'
p1312
S'of'
p1313
S'IN'
p1314
S'B-PP'
p1315
g5
tp1316
a(S'inhaled'
p1317
S'inhale'
p1318
S'VBN'
p1319
S'B-NP'
p1320
g5
tp1321
a(S'treprostinil'
p1322
S'treprostinil'
p1323
S'NN'
p1324
S'I-NP'
p1325
g5
tp1326
a(S'appears'
p1327
S'appear'
p1328
S'VBZ'
p1329
S'B-VP'
p1330
g5
tp1331
a(S'warranted'
p1332
S'warrant'
p1333
S'VBN'
p1334
S'I-VP'
p1335
g5
tp1336
a(S'in'
p1337
S'in'
p1338
S'IN'
p1339
S'B-PP'
p1340
g5
tp1341
a(S'pediatric'
p1342
S'pediatric'
p1343
S'JJ'
p1344
S'B-NP'
p1345
g5
tp1346
a(S'patients'
p1347
S'patient'
p1348
S'NNS'
p1349
S'I-NP'
p1350
g5
tp1351
a(S'with'
p1352
S'with'
p1353
S'IN'
p1354
S'B-PP'
p1355
g5
tp1356
a(S'PAH'
p1357
S'PAH'
p1358
S'NN'
p1359
S'B-NP'
p1360
g5
tp1361
a(g77
g77
g77
g5
g5
tp1362
a.