(lp0
(S'Isradipine'
p1
S'Isradipine'
p2
S'NN'
p3
S'B-NP'
p4
S'O'
p5
tp6
a(S','
p7
g7
g7
g5
g5
tp8
a(S'raised'
p9
S'raise'
p10
S'VBD'
p11
S'B-VP'
p12
g5
tp13
a(S'glycosylated'
p14
S'glycosylate'
p15
S'VBN'
p16
S'I-VP'
p17
S'B-protein'
p18
tp19
a(S'haemoglobin'
p20
S'haemoglobin'
p21
S'NN'
p22
S'B-NP'
p23
S'I-protein'
p24
tp25
a(g7
g7
g7
g5
g5
tp26
a(S'and'
p27
S'and'
p28
S'CC'
p29
g5
g5
tp30
a(S'risk'
p31
S'risk'
p32
S'NN'
p33
S'B-NP'
p34
g5
tp35
a(S'of'
p36
S'of'
p37
S'IN'
p38
S'B-PP'
p39
g5
tp40
a(S'cardiovascular'
p41
S'cardiovascular'
p42
S'JJ'
p43
S'B-NP'
p44
g5
tp45
a(S'events'
p46
S'event'
p47
S'NNS'
p48
S'I-NP'
p49
g5
tp50
a(S'.'
p51
g51
g51
g5
g5
tp52
a.