(lp0
(S'A'
p1
g1
S'DT'
p2
S'B-NP'
p3
S'O'
p4
tp5
a(S'first-in-man'
p6
S'first-in-man'
p7
S'JJ'
p8
S'I-NP'
p9
g4
tp10
a(S','
p11
g11
g11
S'I-NP'
p12
g4
tp13
a(S'randomized'
p14
S'randomize'
p15
S'VBN'
p16
S'I-NP'
p17
g4
tp18
a(g11
g11
g11
S'I-NP'
p19
g4
tp20
a(S'placebo-controlled'
p21
S'placebo-controlled'
p22
S'JJ'
p23
S'I-NP'
p24
g4
tp25
a(S'study'
p26
S'study'
p27
S'NN'
p28
S'I-NP'
p29
g4
tp30
a(S'to'
p31
S'to'
p32
S'TO'
p33
S'B-VP'
p34
g4
tp35
a(S'evaluate'
p36
S'evaluate'
p37
S'VB'
p38
S'I-VP'
p39
g4
tp40
a(S'the'
p41
S'the'
p42
S'DT'
p43
S'B-NP'
p44
g4
tp45
a(S'safety'
p46
S'safety'
p47
S'NN'
p48
S'I-NP'
p49
g4
tp50
a(S'and'
p51
S'and'
p52
S'CC'
p53
S'I-NP'
p54
g4
tp55
a(S'feasibility'
p56
S'feasibility'
p57
S'NN'
p58
S'I-NP'
p59
g4
tp60
a(S'of'
p61
S'of'
p62
S'IN'
p63
S'B-PP'
p64
g4
tp65
a(S'autologous'
p66
S'autologous'
p67
S'JJ'
p68
S'B-NP'
p69
g4
tp70
a(S'delipidated'
p71
S'delipidate'
p72
S'VBN'
p73
S'I-NP'
p74
g4
tp75
a(S'high-density'
p76
S'high-density'
p77
S'JJ'
p78
S'I-NP'
p79
g4
tp80
a(S'lipoprotein'
p81
S'lipoprotein'
p82
S'NN'
p83
S'I-NP'
p84
g4
tp85
a(S'plasma'
p86
S'plasma'
p87
S'NN'
p88
S'I-NP'
p89
g4
tp90
a(S'infusions'
p91
S'infusion'
p92
S'NNS'
p93
S'I-NP'
p94
g4
tp95
a(S'in'
p96
S'in'
p97
S'IN'
p98
S'B-PP'
p99
g4
tp100
a(S'patients'
p101
S'patient'
p102
S'NNS'
p103
S'B-NP'
p104
g4
tp105
a(S'with'
p106
S'with'
p107
S'IN'
p108
S'B-PP'
p109
g4
tp110
a(S'acute'
p111
S'acute'
p112
S'JJ'
p113
S'B-NP'
p114
g4
tp115
a(S'coronary'
p116
S'coronary'
p117
S'JJ'
p118
S'I-NP'
p119
g4
tp120
a(S'syndrome'
p121
S'syndrome'
p122
S'NN'
p123
S'I-NP'
p124
g4
tp125
a(S'.'
p126
g126
g126
g4
g4
tp127
a(S'OBJECTIVES'
p128
S'OBJECTIVES'
p129
S'NNS'
p130
S'B-NP'
p131
g4
tp132
a(S'This'
p133
S'This'
p134
S'DT'
p135
S'B-NP'
p136
g4
tp137
a(S'study'
p138
S'study'
p139
S'NN'
p140
S'I-NP'
p141
g4
tp142
a(S'aimed'
p143
S'aim'
p144
S'VBD'
p145
S'B-VP'
p146
g4
tp147
a(S'to'
p148
S'to'
p149
S'TO'
p150
S'I-VP'
p151
g4
tp152
a(S'determine'
p153
S'determine'
p154
S'VB'
p155
S'I-VP'
p156
g4
tp157
a(S'whether'
p158
S'whether'
p159
S'IN'
p160
S'B-SBAR'
p161
g4
tp162
a(S'serial'
p163
S'serial'
p164
S'JJ'
p165
S'B-NP'
p166
g4
tp167
a(S'autologous'
p168
S'autologous'
p169
S'JJ'
p170
S'I-NP'
p171
g4
tp172
a(S'infusions'
p173
S'infusion'
p174
S'NNS'
p175
S'I-NP'
p176
g4
tp177
a(S'of'
p178
S'of'
p179
S'IN'
p180
S'B-PP'
p181
g4
tp182
a(S'selective'
p183
S'selective'
p184
S'JJ'
p185
S'B-NP'
p186
g4
tp187
a(S'high-density'
p188
S'high-density'
p189
S'JJ'
p190
S'I-NP'
p191
g4
tp192
a(S'lipoprotein'
p193
S'lipoprotein'
p194
S'NN'
p195
S'I-NP'
p196
g4
tp197
a(S'('
p198
g198
g198
g4
g4
tp199
a(S'HDL'
p200
S'HDL'
p201
S'NN'
p202
S'B-NP'
p203
g4
tp204
a(S')'
p205
g205
g205
g4
g4
tp206
a(S'delipidated'
p207
S'delipidated'
p208
S'JJ'
p209
S'B-NP'
p210
g4
tp211
a(S'plasma'
p212
S'plasma'
p213
S'NN'
p214
S'I-NP'
p215
g4
tp216
a(S'are'
p217
S'be'
p218
S'VBP'
p219
S'B-VP'
p220
g4
tp221
a(S'feasible'
p222
S'feasible'
p223
S'JJ'
p224
S'B-ADJP'
p225
g4
tp226
a(S'and'
p227
S'and'
p228
S'CC'
p229
g4
g4
tp230
a(S'well'
p231
S'well'
p232
S'RB'
p233
S'B-ADJP'
p234
g4
tp235
a(S'tolerated'
p236
S'tolerate'
p237
S'VBN'
p238
S'I-ADJP'
p239
g4
tp240
a(S'in'
p241
S'in'
p242
S'IN'
p243
S'B-PP'
p244
g4
tp245
a(S'patients'
p246
S'patient'
p247
S'NNS'
p248
S'B-NP'
p249
g4
tp250
a(S'with'
p251
S'with'
p252
S'IN'
p253
S'B-PP'
p254
g4
tp255
a(S'acute'
p256
S'acute'
p257
S'JJ'
p258
S'B-NP'
p259
g4
tp260
a(S'coronary'
p261
S'coronary'
p262
S'JJ'
p263
S'I-NP'
p264
g4
tp265
a(S'syndrome'
p266
S'syndrome'
p267
S'NN'
p268
S'I-NP'
p269
g4
tp270
a(g198
g198
g198
g4
g4
tp271
a(S'ACS'
p272
S'ACS'
p273
S'NN'
p274
S'B-NP'
p275
g4
tp276
a(g205
g205
g205
g4
g4
tp277
a(g126
g126
g126
g4
g4
tp278
a(S'BACKGROUND'
p279
S'BACKGROUND'
p280
S'NN'
p281
S'B-NP'
p282
g4
tp283
a(S'Low'
p284
S'Low'
p285
S'JJ'
p286
S'I-NP'
p287
g4
tp288
a(S'HDL'
p289
S'HDL'
p290
S'NN'
p291
S'I-NP'
p292
g4
tp293
a(S'is'
p294
S'be'
p295
S'VBZ'
p296
S'B-VP'
p297
g4
tp298
a(S'associated'
p299
S'associate'
p300
S'VBN'
p301
S'I-VP'
p302
g4
tp303
a(S'with'
p304
S'with'
p305
S'IN'
p306
S'B-PP'
p307
g4
tp308
a(S'increased'
p309
S'increase'
p310
S'VBN'
p311
S'B-NP'
p312
g4
tp313
a(S'risk'
p314
S'risk'
p315
S'NN'
p316
S'I-NP'
p317
g4
tp318
a(S'of'
p319
S'of'
p320
S'IN'
p321
S'B-PP'
p322
g4
tp323
a(S'cardiovascular'
p324
S'cardiovascular'
p325
S'JJ'
p326
S'B-NP'
p327
g4
tp328
a(S'disease.'
p329
S'disease.'
p330
S'NN'
p331
S'I-NP'
p332
g4
tp333
a(S'Plasma'
p334
S'Plasma'
p335
S'NN'
p336
S'I-NP'
p337
g4
tp338
a(S'selective'
p339
S'selective'
p340
S'JJ'
p341
S'I-NP'
p342
g4
tp343
a(S'delipidation'
p344
S'delipidation'
p345
S'NN'
p346
S'I-NP'
p347
g4
tp348
a(S'converts'
p349
S'convert'
p350
S'VBZ'
p351
S'B-VP'
p352
g4
tp353
a(S'alphaHDL'
p354
S'alphaHDL'
p355
S'NN'
p356
S'B-NP'
p357
g4
tp358
a(S'to'
p359
S'to'
p360
S'TO'
p361
S'B-PP'
p362
g4
tp363
a(S'prebeta-like'
p364
S'prebeta-like'
p365
S'JJ'
p366
S'B-NP'
p367
g4
tp368
a(S'HDL'
p369
S'HDL'
p370
S'NN'
p371
S'I-NP'
p372
g4
tp373
a(g11
g11
g11
g4
g4
tp374
a(S'the'
p375
S'the'
p376
S'DT'
p377
S'B-NP'
p378
g4
tp379
a(S'most'
p380
S'most'
p381
S'RBS'
p382
S'I-NP'
p383
g4
tp384
a(S'effective'
p385
S'effective'
p386
S'JJ'
p387
S'I-NP'
p388
g4
tp389
a(S'form'
p390
S'form'
p391
S'NN'
p392
S'I-NP'
p393
g4
tp394
a(S'of'
p395
S'of'
p396
S'IN'
p397
S'B-PP'
p398
g4
tp399
a(S'HDL'
p400
S'HDL'
p401
S'NN'
p402
S'B-NP'
p403
S'B-protein'
p404
tp405
a(S'for'
p406
S'for'
p407
S'IN'
p408
S'B-PP'
p409
g4
tp410
a(S'lipid'
p411
S'lipid'
p412
S'NN'
p413
S'B-NP'
p414
g4
tp415
a(S'removal'
p416
S'removal'
p417
S'NN'
p418
S'I-NP'
p419
g4
tp420
a(S'from'
p421
S'from'
p422
S'IN'
p423
S'B-PP'
p424
g4
tp425
a(S'arterial'
p426
S'arterial'
p427
S'JJ'
p428
S'B-NP'
p429
g4
tp430
a(S'plaques'
p431
S'plaque'
p432
S'NNS'
p433
S'I-NP'
p434
g4
tp435
a(g126
g126
g126
g4
g4
tp436
a(S'METHODS'
p437
S'METHODS'
p438
S'NNS'
p439
S'B-NP'
p440
g4
tp441
a(S'ACS'
p442
S'ACS'
p443
S'NN'
p444
S'I-NP'
p445
g4
tp446
a(S'patients'
p447
S'patient'
p448
S'NNS'
p449
S'I-NP'
p450
g4
tp451
a(S'undergoing'
p452
S'undergo'
p453
S'VBG'
p454
S'B-VP'
p455
g4
tp456
a(S'cardiac'
p457
S'cardiac'
p458
S'JJ'
p459
S'B-NP'
p460
g4
tp461
a(S'catheterization'
p462
S'catheterization'
p463
S'NN'
p464
S'I-NP'
p465
g4
tp466
a(S'with'
p467
S'with'
p468
S'IN'
p469
S'B-PP'
p470
g4
tp471
a(S'>'
p472
g472
S'SYM'
p473
S'B-NP'
p474
g4
tp475
a(S'or=1'
p476
S'or=1'
p477
S'NN'
p478
S'I-NP'
p479
g4
tp480
a(S'nonobstructive'
p481
S'nonobstructive'
p482
S'JJ'
p483
S'I-NP'
p484
g4
tp485
a(S'native'
p486
S'native'
p487
S'JJ'
p488
S'I-NP'
p489
g4
tp490
a(S'coronary'
p491
S'coronary'
p492
S'JJ'
p493
S'I-NP'
p494
g4
tp495
a(S'artery'
p496
S'artery'
p497
S'NN'
p498
S'I-NP'
p499
g4
tp500
a(S'atheroma'
p501
S'atheroma'
p502
S'NN'
p503
S'I-NP'
p504
g4
tp505
a(S'were'
p506
S'be'
p507
S'VBD'
p508
S'B-VP'
p509
g4
tp510
a(S'randomized'
p511
S'randomize'
p512
S'VBN'
p513
S'I-VP'
p514
g4
tp515
a(S'to'
p516
S'to'
p517
S'TO'
p518
S'B-PP'
p519
g4
tp520
a(S'either'
p521
S'either'
p522
S'CC'
p523
g4
g4
tp524
a(S'7'
p525
g525
S'CD'
p526
S'B-NP'
p527
g4
tp528
a(S'weekly'
p529
S'weekly'
p530
S'JJ'
p531
S'I-NP'
p532
g4
tp533
a(S'HDL'
p534
S'HDL'
p535
S'NN'
p536
S'I-NP'
p537
g4
tp538
a(S'selective'
p539
S'selective'
p540
S'JJ'
p541
S'I-NP'
p542
g4
tp543
a(S'delipidated'
p544
S'delipidate'
p545
S'VBN'
p546
S'B-VP'
p547
g4
tp548
a(S'or'
p549
S'or'
p550
S'CC'
p551
g4
g4
tp552
a(S'control'
p553
S'control'
p554
S'NN'
p555
S'B-NP'
p556
g4
tp557
a(S'plasma'
p558
S'plasma'
p559
S'NN'
p560
S'I-NP'
p561
g4
tp562
a(S'apheresis/reinfusions.'
p563
S'apheresis/reinfusions.'
p564
S'NN'
p565
S'I-NP'
p566
g4
tp567
a(S'Patients'
p568
S'Patient'
p569
S'NNS'
p570
S'I-NP'
p571
g4
tp572
a(S'underwent'
p573
S'undergo'
p574
S'VBD'
p575
S'B-VP'
p576
g4
tp577
a(S'intravascular'
p578
S'intravascular'
p579
S'JJ'
p580
S'B-NP'
p581
g4
tp582
a(S'ultrasound'
p583
S'ultrasound'
p584
S'NN'
p585
S'I-NP'
p586
g4
tp587
a(g198
g198
g198
g4
g4
tp588
a(S'IVUS'
p589
S'IVUS'
p590
S'NN'
p591
S'B-NP'
p592
g4
tp593
a(g205
g205
g205
g4
g4
tp594
a(S'evaluation'
p595
S'evaluation'
p596
S'NN'
p597
S'B-NP'
p598
g4
tp599
a(S'of'
p600
S'of'
p601
S'IN'
p602
S'B-PP'
p603
g4
tp604
a(S'the'
p605
S'the'
p606
S'DT'
p607
S'B-NP'
p608
g4
tp609
a(S'target'
p610
S'target'
p611
S'NN'
p612
S'I-NP'
p613
g4
tp614
a(S'vessel'
p615
S'vessel'
p616
S'NN'
p617
S'I-NP'
p618
g4
tp619
a(S'during'
p620
S'during'
p621
S'IN'
p622
S'B-PP'
p623
g4
tp624
a(S'the'
p625
S'the'
p626
S'DT'
p627
S'B-NP'
p628
g4
tp629
a(S'catheterization'
p630
S'catheterization'
p631
S'NN'
p632
S'I-NP'
p633
g4
tp634
a(S'for'
p635
S'for'
p636
S'IN'
p637
S'B-PP'
p638
g4
tp639
a(S'ACS'
p640
S'ACS'
p641
S'NN'
p642
S'B-NP'
p643
g4
tp644
a(S'and'
p645
S'and'
p646
S'CC'
p647
g4
g4
tp648
a(S'up'
p649
S'up'
p650
S'RB'
p651
S'B-NP'
p652
g4
tp653
a(S'to'
p654
S'to'
p655
S'TO'
p656
S'I-NP'
p657
g4
tp658
a(S'14'
p659
S'14'
p660
S'CD'
p661
S'I-NP'
p662
g4
tp663
a(S'days'
p664
S'day'
p665
S'NNS'
p666
S'I-NP'
p667
g4
tp668
a(S'following'
p669
S'follow'
p670
S'VBG'
p671
S'B-PP'
p672
g4
tp673
a(S'the'
p674
S'the'
p675
S'DT'
p676
S'B-NP'
p677
g4
tp678
a(S'final'
p679
S'final'
p680
S'JJ'
p681
S'I-NP'
p682
g4
tp683
a(S'apheresis/reinfusion'
p684
S'apheresis/reinfusion'
p685
S'NN'
p686
S'I-NP'
p687
g4
tp688
a(S'session.'
p689
S'session.'
p690
S'NN'
p691
S'I-NP'
p692
g4
tp693
a(S'2-D'
p694
S'2-D'
p695
S'NN'
p696
S'I-NP'
p697
g4
tp698
a(S'gel'
p699
S'gel'
p700
S'NN'
p701
S'I-NP'
p702
g4
tp703
a(S'electrophoresis'
p704
S'electrophoresis'
p705
S'NN'
p706
S'I-NP'
p707
g4
tp708
a(S'of'
p709
S'of'
p710
S'IN'
p711
S'B-PP'
p712
g4
tp713
a(S'delipidated'
p714
S'delipidate'
p715
S'VBN'
p716
S'B-NP'
p717
g4
tp718
a(S'plasmas'
p719
S'plasma'
p720
S'NNS'
p721
S'I-NP'
p722
g4
tp723
a(S'established'
p724
S'establish'
p725
S'VBD'
p726
S'B-VP'
p727
g4
tp728
a(S'successful'
p729
S'successful'
p730
S'JJ'
p731
S'B-NP'
p732
g4
tp733
a(S'conversion'
p734
S'conversion'
p735
S'NN'
p736
S'I-NP'
p737
g4
tp738
a(S'of'
p739
S'of'
p740
S'IN'
p741
S'B-PP'
p742
g4
tp743
a(S'alphaHDL'
p744
S'alphaHDL'
p745
S'NN'
p746
S'B-NP'
p747
S'B-protein'
p748
tp749
a(S'to'
p750
S'to'
p751
S'TO'
p752
S'B-PP'
p753
g4
tp754
a(S'prebeta-like'
p755
S'prebeta-like'
p756
S'JJ'
p757
S'B-NP'
p758
g4
tp759
a(S'HDL.'
p760
S'HDL.'
p761
S'NNP'
p762
S'I-NP'
p763
g4
tp764
a(S'The'
p765
S'The'
p766
S'DT'
p767
S'B-NP'
p768
g4
tp769
a(S'trial'
p770
S'trial'
p771
S'NN'
p772
S'I-NP'
p773
g4
tp774
a(S'was'
p775
S'be'
p776
S'VBD'
p777
S'B-VP'
p778
g4
tp779
a(S'complete'
p780
S'complete'
p781
S'JJ'
p782
S'B-ADJP'
p783
g4
tp784
a(S'with'
p785
S'with'
p786
S'IN'
p787
S'B-PP'
p788
g4
tp789
a(S'28'
p790
S'28'
p791
S'CD'
p792
S'B-NP'
p793
g4
tp794
a(S'patients'
p795
S'patient'
p796
S'NNS'
p797
S'I-NP'
p798
g4
tp799
a(S'randomized'
p800
S'randomize'
p801
S'VBN'
p802
S'B-VP'
p803
g4
tp804
a(g126
g126
g126
g4
g4
tp805
a(S'RESULTS'
p806
S'RESULTS'
p807
S'NNS'
p808
S'B-NP'
p809
g4
tp810
a(S'All'
p811
S'All'
p812
S'DT'
p813
S'B-NP'
p814
g4
tp815
a(S'reinfusion'
p816
S'reinfusion'
p817
S'NN'
p818
S'I-NP'
p819
g4
tp820
a(S'sessions'
p821
S'session'
p822
S'NNS'
p823
S'I-NP'
p824
g4
tp825
a(S'were'
p826
S'be'
p827
S'VBD'
p828
S'B-VP'
p829
g4
tp830
a(S'tolerated'
p831
S'tolerate'
p832
S'VBN'
p833
S'I-VP'
p834
g4
tp835
a(S'well'
p836
S'well'
p837
S'RB'
p838
S'B-ADVP'
p839
g4
tp840
a(S'by'
p841
S'by'
p842
S'IN'
p843
S'B-PP'
p844
g4
tp845
a(S'all'
p846
S'all'
p847
S'DT'
p848
S'B-NP'
p849
g4
tp850
a(S'patients.'
p851
S'patients.'
p852
S'NNS'
p853
S'I-NP'
p854
g4
tp855
a(S'The'
p856
S'The'
p857
S'DT'
p858
S'B-NP'
p859
g4
tp860
a(S'levels'
p861
S'level'
p862
S'NNS'
p863
S'I-NP'
p864
g4
tp865
a(S'of'
p866
S'of'
p867
S'IN'
p868
S'B-PP'
p869
g4
tp870
a(S'prebeta-like'
p871
S'prebeta-like'
p872
S'JJ'
p873
S'B-NP'
p874
g4
tp875
a(S'HDL'
p876
S'HDL'
p877
S'NN'
p878
S'I-NP'
p879
g4
tp880
a(S'and'
p881
S'and'
p882
S'CC'
p883
S'I-NP'
p884
g4
tp885
a(S'alphaHDL'
p886
S'alphaHDL'
p887
S'NN'
p888
S'I-NP'
p889
g4
tp890
a(S'in'
p891
S'in'
p892
S'IN'
p893
S'B-PP'
p894
g4
tp895
a(S'the'
p896
S'the'
p897
S'DT'
p898
S'B-NP'
p899
g4
tp900
a(S'delipidated'
p901
S'delipidate'
p902
S'VBN'
p903
S'I-NP'
p904
g4
tp905
a(S'plasma'
p906
S'plasma'
p907
S'NN'
p908
S'I-NP'
p909
g4
tp910
a(S'converted'
p911
S'convert'
p912
S'VBN'
p913
S'B-VP'
p914
g4
tp915
a(S'from'
p916
S'from'
p917
S'IN'
p918
S'B-PP'
p919
g4
tp920
a(S'5.6'
p921
S'5.6'
p922
S'CD'
p923
S'B-NP'
p924
g4
tp925
a(S'%'
p926
g926
S'NN'
p927
S'I-NP'
p928
g4
tp929
a(S'to'
p930
S'to'
p931
S'TO'
p932
S'B-PP'
p933
g4
tp934
a(S'79.1'
p935
S'79.1'
p936
S'CD'
p937
S'B-NP'
p938
g4
tp939
a(g926
g926
S'NN'
p940
S'I-NP'
p941
g4
tp942
a(S'and'
p943
S'and'
p944
S'CC'
p945
g4
g4
tp946
a(S'92.8'
p947
S'92.8'
p948
S'CD'
p949
S'B-NP'
p950
g4
tp951
a(g926
g926
S'NN'
p952
S'I-NP'
p953
g4
tp954
a(S'to'
p955
S'to'
p956
S'TO'
p957
S'B-PP'
p958
g4
tp959
a(S'20.9'
p960
S'20.9'
p961
S'CD'
p962
S'B-NP'
p963
g4
tp964
a(g926
g926
S'NN'
p965
S'I-NP'
p966
g4
tp967
a(g11
g11
g11
g4
g4
tp968
a(S'respectively.'
p969
S'respectively.'
p970
S'VB'
p971
S'B-VP'
p972
g4
tp973
a(S'The'
p974
S'The'
p975
S'DT'
p976
S'B-NP'
p977
g4
tp978
a(S'IVUS'
p979
S'IVUS'
p980
S'NNP'
p981
S'I-NP'
p982
g4
tp983
a(S'data'
p984
S'datum'
p985
S'NNS'
p986
S'I-NP'
p987
g4
tp988
a(S'demonstrated'
p989
S'demonstrate'
p990
S'VBD'
p991
S'B-VP'
p992
g4
tp993
a(S'a'
p994
g994
S'DT'
p995
S'B-NP'
p996
g4
tp997
a(S'numeric'
p998
S'numeric'
p999
S'JJ'
p1000
S'I-NP'
p1001
g4
tp1002
a(S'trend'
p1003
S'trend'
p1004
S'NN'
p1005
S'I-NP'
p1006
g4
tp1007
a(S'toward'
p1008
S'toward'
p1009
S'IN'
p1010
S'B-PP'
p1011
g4
tp1012
a(S'regression'
p1013
S'regression'
p1014
S'NN'
p1015
S'B-NP'
p1016
g4
tp1017
a(S'in'
p1018
S'in'
p1019
S'IN'
p1020
S'B-PP'
p1021
g4
tp1022
a(S'the'
p1023
S'the'
p1024
S'DT'
p1025
S'B-NP'
p1026
g4
tp1027
a(S'total'
p1028
S'total'
p1029
S'JJ'
p1030
S'I-NP'
p1031
g4
tp1032
a(S'atheroma'
p1033
S'atheroma'
p1034
S'NN'
p1035
S'I-NP'
p1036
g4
tp1037
a(S'volume'
p1038
S'volume'
p1039
S'NN'
p1040
S'I-NP'
p1041
g4
tp1042
a(S'of'
p1043
S'of'
p1044
S'IN'
p1045
S'B-PP'
p1046
g4
tp1047
a(S'-12.18'
p1048
S'-12.18'
p1049
S'CD'
p1050
S'B-NP'
p1051
g4
tp1052
a(S'+/-'
p1053
S'+/-'
p1054
S'SYM'
p1055
S'I-NP'
p1056
g4
tp1057
a(S'36.75'
p1058
S'36.75'
p1059
S'CD'
p1060
S'I-NP'
p1061
g4
tp1062
a(S'mm'
p1063
S'mm'
p1064
S'NN'
p1065
S'I-NP'
p1066
g4
tp1067
a(g198
g198
g198
g4
g4
tp1068
a(S'3'
p1069
g1069
S'CD'
p1070
S'B-NP'
p1071
g4
tp1072
a(g205
g205
g205
g4
g4
tp1073
a(S'in'
p1074
S'in'
p1075
S'IN'
p1076
S'B-PP'
p1077
g4
tp1078
a(S'the'
p1079
S'the'
p1080
S'DT'
p1081
S'B-NP'
p1082
g4
tp1083
a(S'delipidated'
p1084
S'delipidate'
p1085
S'VBN'
p1086
S'I-NP'
p1087
g4
tp1088
a(S'group'
p1089
S'group'
p1090
S'NN'
p1091
S'I-NP'
p1092
g4
tp1093
a(S'versus'
p1094
S'versus'
p1095
S'IN'
p1096
S'B-PP'
p1097
g4
tp1098
a(S'an'
p1099
S'an'
p1100
S'DT'
p1101
S'B-NP'
p1102
g4
tp1103
a(S'increase'
p1104
S'increase'
p1105
S'NN'
p1106
S'I-NP'
p1107
g4
tp1108
a(S'of'
p1109
S'of'
p1110
S'IN'
p1111
S'B-PP'
p1112
g4
tp1113
a(S'total'
p1114
S'total'
p1115
S'JJ'
p1116
S'B-NP'
p1117
g4
tp1118
a(S'atheroma'
p1119
S'atheroma'
p1120
S'NN'
p1121
S'I-NP'
p1122
g4
tp1123
a(S'volume'
p1124
S'volume'
p1125
S'NN'
p1126
S'I-NP'
p1127
g4
tp1128
a(S'of'
p1129
S'of'
p1130
S'IN'
p1131
S'B-PP'
p1132
g4
tp1133
a(S'2.80'
p1134
S'2.80'
p1135
S'CD'
p1136
S'B-NP'
p1137
g4
tp1138
a(S'+/-'
p1139
S'+/-'
p1140
S'SYM'
p1141
S'I-NP'
p1142
g4
tp1143
a(S'21.25'
p1144
S'21.25'
p1145
S'CD'
p1146
S'I-NP'
p1147
g4
tp1148
a(S'mm'
p1149
S'mm'
p1150
S'NN'
p1151
S'I-NP'
p1152
g4
tp1153
a(g198
g198
g198
g4
g4
tp1154
a(g1069
g1069
S'CD'
p1155
S'B-NP'
p1156
g4
tp1157
a(g205
g205
g205
g4
g4
tp1158
a(S'in'
p1159
S'in'
p1160
S'IN'
p1161
S'B-PP'
p1162
g4
tp1163
a(S'the'
p1164
S'the'
p1165
S'DT'
p1166
S'B-NP'
p1167
g4
tp1168
a(S'control'
p1169
S'control'
p1170
S'NN'
p1171
S'I-NP'
p1172
g4
tp1173
a(S'group'
p1174
S'group'
p1175
S'NN'
p1176
S'I-NP'
p1177
g4
tp1178
a(g198
g198
g198
g4
g4
tp1179
a(S'p'
p1180
g1180
S'NN'
p1181
S'B-NP'
p1182
g4
tp1183
a(S'='
p1184
g1184
S'SYM'
p1185
S'B-VP'
p1186
g4
tp1187
a(S'0.268'
p1188
S'0.268'
p1189
S'CD'
p1190
S'B-NP'
p1191
g4
tp1192
a(g205
g205
g205
g4
g4
tp1193
a(g126
g126
g126
g4
g4
tp1194
a(S'CONCLUSIONS'
p1195
S'CONCLUSIONS'
p1196
S'NNS'
p1197
S'B-NP'
p1198
g4
tp1199
a(S'In'
p1200
S'In'
p1201
S'IN'
p1202
S'B-PP'
p1203
g4
tp1204
a(S'ACS'
p1205
S'ACS'
p1206
S'NN'
p1207
S'B-NP'
p1208
g4
tp1209
a(S'patients'
p1210
S'patient'
p1211
S'NNS'
p1212
S'I-NP'
p1213
g4
tp1214
a(g11
g11
g11
g4
g4
tp1215
a(S'serial'
p1216
S'serial'
p1217
S'JJ'
p1218
S'B-NP'
p1219
g4
tp1220
a(S'autologous'
p1221
S'autologous'
p1222
S'JJ'
p1223
S'I-NP'
p1224
g4
tp1225
a(S'infusions'
p1226
S'infusion'
p1227
S'NNS'
p1228
S'I-NP'
p1229
g4
tp1230
a(S'of'
p1231
S'of'
p1232
S'IN'
p1233
S'B-PP'
p1234
g4
tp1235
a(S'selective'
p1236
S'selective'
p1237
S'JJ'
p1238
S'B-NP'
p1239
g4
tp1240
a(S'HDL'
p1241
S'HDL'
p1242
S'NN'
p1243
S'I-NP'
p1244
g4
tp1245
a(S'delipidated'
p1246
S'delipidate'
p1247
S'VBN'
p1248
S'B-VP'
p1249
g4
tp1250
a(S'plasma'
p1251
S'plasma'
p1252
S'NN'
p1253
S'B-NP'
p1254
g4
tp1255
a(S'are'
p1256
S'be'
p1257
S'VBP'
p1258
S'B-VP'
p1259
g4
tp1260
a(S'clinically'
p1261
S'clinically'
p1262
S'RB'
p1263
S'B-ADJP'
p1264
g4
tp1265
a(S'feasible'
p1266
S'feasible'
p1267
S'JJ'
p1268
S'I-ADJP'
p1269
g4
tp1270
a(S'and'
p1271
S'and'
p1272
S'CC'
p1273
g4
g4
tp1274
a(S'well'
p1275
S'well'
p1276
S'RB'
p1277
S'B-VP'
p1278
g4
tp1279
a(S'tolerated.'
p1280
S'tolerated.'
p1281
S'VBN'
p1282
S'I-VP'
p1283
g4
tp1284
a(S'This'
p1285
S'This'
p1286
S'DT'
p1287
S'B-NP'
p1288
g4
tp1289
a(S'therapy'
p1290
S'therapy'
p1291
S'NN'
p1292
S'I-NP'
p1293
g4
tp1294
a(S'may'
p1295
S'may'
p1296
S'MD'
p1297
S'B-VP'
p1298
g4
tp1299
a(S'offer'
p1300
S'offer'
p1301
S'VB'
p1302
S'I-VP'
p1303
g4
tp1304
a(g994
g994
S'DT'
p1305
S'B-NP'
p1306
g4
tp1307
a(S'novel'
p1308
S'novel'
p1309
S'JJ'
p1310
S'I-NP'
p1311
g4
tp1312
a(S'adjunct'
p1313
S'adjunct'
p1314
S'JJ'
p1315
S'I-NP'
p1316
g4
tp1317
a(S'treatment'
p1318
S'treatment'
p1319
S'NN'
p1320
S'I-NP'
p1321
g4
tp1322
a(S'for'
p1323
S'for'
p1324
S'IN'
p1325
S'B-PP'
p1326
g4
tp1327
a(S'patients'
p1328
S'patient'
p1329
S'NNS'
p1330
S'B-NP'
p1331
g4
tp1332
a(S'presenting'
p1333
S'present'
p1334
S'VBG'
p1335
S'B-VP'
p1336
g4
tp1337
a(S'with'
p1338
S'with'
p1339
S'IN'
p1340
S'B-PP'
p1341
g4
tp1342
a(S'ACS.'
p1343
S'ACS.'
p1344
S'NNP'
p1345
S'B-NP'
p1346
g4
tp1347
a(S'Further'
p1348
S'Further'
p1349
S'NNP'
p1350
S'I-NP'
p1351
g4
tp1352
a(S'study'
p1353
S'study'
p1354
S'NN'
p1355
S'I-NP'
p1356
g4
tp1357
a(S'will'
p1358
S'will'
p1359
S'MD'
p1360
S'B-VP'
p1361
g4
tp1362
a(S'be'
p1363
S'be'
p1364
S'VB'
p1365
S'I-VP'
p1366
g4
tp1367
a(S'needed'
p1368
S'need'
p1369
S'VBN'
p1370
S'I-VP'
p1371
g4
tp1372
a(S'to'
p1373
S'to'
p1374
S'TO'
p1375
S'B-VP'
p1376
g4
tp1377
a(S'determine'
p1378
S'determine'
p1379
S'VB'
p1380
S'I-VP'
p1381
g4
tp1382
a(S'its'
p1383
S'its'
p1384
S'PRP$'
p1385
S'B-NP'
p1386
g4
tp1387
a(S'ability'
p1388
S'ability'
p1389
S'NN'
p1390
S'I-NP'
p1391
g4
tp1392
a(S'to'
p1393
S'to'
p1394
S'TO'
p1395
S'B-VP'
p1396
g4
tp1397
a(S'reduce'
p1398
S'reduce'
p1399
S'VB'
p1400
S'I-VP'
p1401
g4
tp1402
a(S'clinical'
p1403
S'clinical'
p1404
S'JJ'
p1405
S'B-NP'
p1406
g4
tp1407
a(S'cardiovascular'
p1408
S'cardiovascular'
p1409
S'JJ'
p1410
S'I-NP'
p1411
g4
tp1412
a(S'events'
p1413
S'event'
p1414
S'NNS'
p1415
S'I-NP'
p1416
g4
tp1417
a(g126
g126
g126
g4
g4
tp1418
a.