(lp0
(S'Efficacy'
p1
S'Efficacy'
p2
S'NN'
p3
S'B-NP'
p4
S'O'
p5
tp6
a(S'and'
p7
S'and'
p8
S'CC'
p9
S'I-NP'
p10
g5
tp11
a(S'safety'
p12
S'safety'
p13
S'NN'
p14
S'I-NP'
p15
g5
tp16
a(S'of'
p17
S'of'
p18
S'IN'
p19
S'B-PP'
p20
g5
tp21
a(S'bexarotene'
p22
S'bexarotene'
p23
S'NN'
p24
S'B-NP'
p25
g5
tp26
a(S'combined'
p27
S'combine'
p28
S'VBN'
p29
S'B-VP'
p30
g5
tp31
a(S'with'
p32
S'with'
p33
S'IN'
p34
S'B-PP'
p35
g5
tp36
a(S'psoralen-ultraviolet'
p37
S'psoralen-ultraviolet'
p38
S'NN'
p39
S'B-NP'
p40
S'B-protein'
p41
tp42
a(S'A'
p43
g43
S'NN'
p44
S'I-NP'
p45
S'I-protein'
p46
tp47
a(S'('
p48
g48
g48
g5
g5
tp49
a(S'PUVA'
p50
S'PUVA'
p51
S'NN'
p52
S'B-NP'
p53
S'B-protein'
p54
tp55
a(S')'
p56
g56
g56
g5
g5
tp57
a(S'compared'
p58
S'compare'
p59
S'VBN'
p60
S'B-PP'
p61
g5
tp62
a(S'with'
p63
S'with'
p64
S'IN'
p65
S'B-PP'
p66
g5
tp67
a(S'PUVA'
p68
S'PUVA'
p69
S'NN'
p70
S'B-NP'
p71
S'B-protein'
p72
tp73
a(S'treatment'
p74
S'treatment'
p75
S'NN'
p76
S'I-NP'
p77
g5
tp78
a(S'alone'
p79
S'alone'
p80
S'RB'
p81
S'B-ADVP'
p82
g5
tp83
a(S'in'
p84
S'in'
p85
S'IN'
p86
S'B-PP'
p87
g5
tp88
a(S'stage'
p89
S'stage'
p90
S'NN'
p91
S'B-NP'
p92
g5
tp93
a(S'IB-IIA'
p94
S'IB-IIA'
p95
S'NN'
p96
S'I-NP'
p97
g5
tp98
a(S'mycosis'
p99
S'mycosis'
p100
S'NN'
p101
S'I-NP'
p102
g5
tp103
a(S'fungoides'
p104
S'fungoide'
p105
S'NNS'
p106
S'I-NP'
p107
g5
tp108
a(S':'
p109
g109
g109
g5
g5
tp110
a(S'final'
p111
S'final'
p112
S'JJ'
p113
S'B-NP'
p114
g5
tp115
a(S'results'
p116
S'result'
p117
S'NNS'
p118
S'I-NP'
p119
g5
tp120
a(S'from'
p121
S'from'
p122
S'IN'
p123
S'B-PP'
p124
g5
tp125
a(S'the'
p126
S'the'
p127
S'DT'
p128
S'B-NP'
p129
g5
tp130
a(S'EORTC'
p131
S'EORTC'
p132
S'NNP'
p133
S'I-NP'
p134
g5
tp135
a(S'Cutaneous'
p136
S'Cutaneous'
p137
S'NNP'
p138
S'I-NP'
p139
g5
tp140
a(S'Lymphoma'
p141
S'Lymphoma'
p142
S'NNP'
p143
S'I-NP'
p144
g5
tp145
a(S'Task'
p146
S'Task'
p147
S'NNP'
p148
S'I-NP'
p149
g5
tp150
a(S'Force'
p151
S'Force'
p152
S'NNP'
p153
S'I-NP'
p154
g5
tp155
a(S'phase'
p156
S'phase'
p157
S'NN'
p158
S'I-NP'
p159
g5
tp160
a(S'III'
p161
S'III'
p162
S'CD'
p163
S'I-NP'
p164
g5
tp165
a(S'randomized'
p166
S'randomize'
p167
S'VBD'
p168
S'B-VP'
p169
g5
tp170
a(S'clinical'
p171
S'clinical'
p172
S'JJ'
p173
S'B-NP'
p174
g5
tp175
a(S'trial'
p176
S'trial'
p177
S'NN'
p178
S'I-NP'
p179
g5
tp180
a(g48
g48
g48
g5
g5
tp181
a(S'NCT00056056'
p182
S'NCT00056056'
p183
S'NN'
p184
S'B-NP'
p185
g5
tp186
a(g56
g56
g56
g5
g5
tp187
a(S'.'
p188
g188
g188
g5
g5
tp189
a(S'BACKGROUND'
p190
S'BACKGROUND'
p191
S'NN'
p192
S'B-NP'
p193
g5
tp194
a(S'Psoralen'
p195
S'Psoralen'
p196
S'NN'
p197
S'I-NP'
p198
g5
tp199
a(S'plus'
p200
S'plus'
p201
S'CC'
p202
g5
g5
tp203
a(S'ultraviolet'
p204
S'ultraviolet'
p205
S'NN'
p206
S'B-NP'
p207
S'B-protein'
p208
tp209
a(g43
g43
S'NN'
p210
S'I-NP'
p211
S'I-protein'
p212
tp213
a(g48
g48
g48
g5
g5
tp214
a(S'PUVA'
p215
S'PUVA'
p216
S'NN'
p217
S'B-NP'
p218
S'B-protein'
p219
tp220
a(g56
g56
g56
g5
g5
tp221
a(S'is'
p222
S'be'
p223
S'VBZ'
p224
S'B-VP'
p225
g5
tp226
a(S'the'
p227
S'the'
p228
S'DT'
p229
S'B-NP'
p230
g5
tp231
a(S'standard'
p232
S'standard'
p233
S'JJ'
p234
S'I-NP'
p235
g5
tp236
a(S'treatment'
p237
S'treatment'
p238
S'NN'
p239
S'I-NP'
p240
g5
tp241
a(S'for'
p242
S'for'
p243
S'IN'
p244
S'B-PP'
p245
g5
tp246
a(S'early'
p247
S'early'
p248
S'JJ'
p249
S'B-NP'
p250
g5
tp251
a(S'stages'
p252
S'stage'
p253
S'NNS'
p254
S'I-NP'
p255
g5
tp256
a(S'of'
p257
S'of'
p258
S'IN'
p259
S'B-PP'
p260
g5
tp261
a(S'mycosis'
p262
S'mycosis'
p263
S'NN'
p264
S'B-NP'
p265
g5
tp266
a(S'fungoides.'
p267
S'fungoides.'
p268
S'NNS'
p269
S'I-NP'
p270
g5
tp271
a(S'There'
p272
S'There'
p273
S'EX'
p274
S'B-NP'
p275
g5
tp276
a(S'have'
p277
S'have'
p278
S'VBP'
p279
S'B-VP'
p280
g5
tp281
a(S'been'
p282
S'be'
p283
S'VBN'
p284
S'I-VP'
p285
g5
tp286
a(S'no'
p287
S'no'
p288
S'DT'
p289
S'B-NP'
p290
g5
tp291
a(S'adequate'
p292
S'adequate'
p293
S'JJ'
p294
S'I-NP'
p295
g5
tp296
a(S'randomized'
p297
S'randomize'
p298
S'VBN'
p299
S'I-NP'
p300
g5
tp301
a(S'controlled'
p302
S'control'
p303
S'VBN'
p304
S'I-NP'
p305
g5
tp306
a(S'trials'
p307
S'trial'
p308
S'NNS'
p309
S'I-NP'
p310
g5
tp311
a(S'with'
p312
S'with'
p313
S'IN'
p314
S'B-PP'
p315
g5
tp316
a(S'sufficient'
p317
S'sufficient'
p318
S'JJ'
p319
S'B-NP'
p320
g5
tp321
a(S'power'
p322
S'power'
p323
S'NN'
p324
S'I-NP'
p325
g5
tp326
a(S'comparing'
p327
S'compare'
p328
S'VBG'
p329
S'B-VP'
p330
g5
tp331
a(S'this'
p332
S'this'
p333
S'DT'
p334
S'B-NP'
p335
g5
tp336
a(S'modality'
p337
S'modality'
p338
S'NN'
p339
S'I-NP'
p340
g5
tp341
a(S'with'
p342
S'with'
p343
S'IN'
p344
S'B-PP'
p345
g5
tp346
a(S'other'
p347
S'other'
p348
S'JJ'
p349
S'B-NP'
p350
g5
tp351
a(S'therapies'
p352
S'therapy'
p353
S'NNS'
p354
S'I-NP'
p355
g5
tp356
a(g188
g188
g188
g5
g5
tp357
a(S'OBJECTIVE'
p358
S'OBJECTIVE'
p359
S'NN'
p360
S'B-NP'
p361
g5
tp362
a(S'To'
p363
S'To'
p364
S'TO'
p365
S'B-VP'
p366
g5
tp367
a(S'assess'
p368
S'assess'
p369
S'VB'
p370
S'I-VP'
p371
g5
tp372
a(S'disease'
p373
S'disease'
p374
S'NN'
p375
S'B-NP'
p376
g5
tp377
a(S'response'
p378
S'response'
p379
S'NN'
p380
S'I-NP'
p381
g5
tp382
a(S'and'
p383
S'and'
p384
S'CC'
p385
g5
g5
tp386
a(S'to'
p387
S'to'
p388
S'TO'
p389
S'B-VP'
p390
g5
tp391
a(S'compare'
p392
S'compare'
p393
S'VB'
p394
S'I-VP'
p395
g5
tp396
a(S'the'
p397
S'the'
p398
S'DT'
p399
S'B-NP'
p400
g5
tp401
a(S'response'
p402
S'response'
p403
S'NN'
p404
S'I-NP'
p405
g5
tp406
a(S'rates'
p407
S'rate'
p408
S'NNS'
p409
S'I-NP'
p410
g5
tp411
a(S'of'
p412
S'of'
p413
S'IN'
p414
S'B-PP'
p415
g5
tp416
a(S'patients'
p417
S'patient'
p418
S'NNS'
p419
S'B-NP'
p420
g5
tp421
a(S'treated'
p422
S'treat'
p423
S'VBN'
p424
S'B-VP'
p425
g5
tp426
a(S'with'
p427
S'with'
p428
S'IN'
p429
S'B-PP'
p430
g5
tp431
a(S'PUVA'
p432
S'PUVA'
p433
S'NN'
p434
S'B-NP'
p435
S'B-protein'
p436
tp437
a(S'alone'
p438
S'alone'
p439
S'RB'
p440
S'B-ADVP'
p441
g5
tp442
a(S'or'
p443
S'or'
p444
S'CC'
p445
g5
g5
tp446
a(S'PUVA'
p447
S'PUVA'
p448
S'NN'
p449
S'B-NP'
p450
S'B-protein'
p451
tp452
a(S'and'
p453
S'and'
p454
S'CC'
p455
S'I-NP'
p456
g5
tp457
a(S'bexarotene'
p458
S'bexarotene'
p459
S'NN'
p460
S'I-NP'
p461
g5
tp462
a(g188
g188
g188
g5
g5
tp463
a(S'METHODS'
p464
S'METHODS'
p465
S'NNS'
p466
S'B-NP'
p467
g5
tp468
a(S'EORTC'
p469
S'EORTC'
p470
S'NN'
p471
S'I-NP'
p472
g5
tp473
a(S'21011'
p474
S'21011'
p475
S'CD'
p476
S'I-NP'
p477
g5
tp478
a(g48
g48
g48
g5
g5
tp479
a(S'NCT'
p480
S'NCT'
p481
S'NN'
p482
S'B-NP'
p483
g5
tp484
a(S'00056056'
p485
S'00056056'
p486
S'CD'
p487
S'I-NP'
p488
g5
tp489
a(g56
g56
g56
g5
g5
tp490
a(S'was'
p491
S'be'
p492
S'VBD'
p493
S'B-VP'
p494
g5
tp495
a(S'a'
p496
g496
S'DT'
p497
S'B-NP'
p498
g5
tp499
a(S'randomized'
p500
S'randomize'
p501
S'VBN'
p502
S'I-NP'
p503
g5
tp504
a(S'phase'
p505
S'phase'
p506
S'NN'
p507
S'I-NP'
p508
g5
tp509
a(S'III'
p510
S'III'
p511
S'CD'
p512
S'I-NP'
p513
g5
tp514
a(S'study'
p515
S'study'
p516
S'NN'
p517
S'I-NP'
p518
g5
tp519
a(S'comparing'
p520
S'compare'
p521
S'VBG'
p522
S'B-VP'
p523
g5
tp524
a(S'combined'
p525
S'combine'
p526
S'VBN'
p527
S'B-NP'
p528
g5
tp529
a(S'bexarotene'
p530
S'bexarotene'
p531
S'NN'
p532
S'I-NP'
p533
g5
tp534
a(g48
g48
g48
g5
g5
tp535
a(S'Targretin'
p536
S'Targretin'
p537
S'NN'
p538
S'B-NP'
p539
g5
tp540
a(g48
g48
g48
g5
g5
tp541
a(S'\xc2\xae'
p542
S'\xc2\xae'
p543
S'NN'
p544
S'B-NP'
p545
g5
tp546
a(g56
g56
g56
g5
g5
tp547
a(g56
g56
g56
g5
g5
tp548
a(S'and'
p549
S'and'
p550
S'CC'
p551
g5
g5
tp552
a(S'PUVA'
p553
S'PUVA'
p554
S'NN'
p555
S'B-NP'
p556
S'B-protein'
p557
tp558
a(S'vs.'
p559
S'vs.'
p560
S'CC'
p561
S'I-NP'
p562
g5
tp563
a(S'PUVA'
p564
S'PUVA'
p565
S'NN'
p566
S'I-NP'
p567
S'B-protein'
p568
tp569
a(S'alone'
p570
S'alone'
p571
S'RB'
p572
S'B-ADVP'
p573
g5
tp574
a(S'in'
p575
S'in'
p576
S'IN'
p577
S'B-PP'
p578
g5
tp579
a(S'patients'
p580
S'patient'
p581
S'NNS'
p582
S'B-NP'
p583
g5
tp584
a(S'with'
p585
S'with'
p586
S'IN'
p587
S'B-PP'
p588
g5
tp589
a(S'stage'
p590
S'stage'
p591
S'NN'
p592
S'B-NP'
p593
g5
tp594
a(S'IB'
p595
S'IB'
p596
S'NN'
p597
S'I-NP'
p598
g5
tp599
a(S'and'
p600
S'and'
p601
S'CC'
p602
g5
g5
tp603
a(S'IIA'
p604
S'IIA'
p605
S'NN'
p606
S'B-NP'
p607
g5
tp608
a(S'mycosis'
p609
S'mycosis'
p610
S'NN'
p611
S'I-NP'
p612
g5
tp613
a(S'fungoides'
p614
S'fungoide'
p615
S'NNS'
p616
S'I-NP'
p617
g5
tp618
a(g48
g48
g48
g5
g5
tp619
a(S'MF'
p620
S'MF'
p621
S'NNS'
p622
S'B-NP'
p623
S'B-protein'
p624
tp625
a(g56
g56
g56
g5
g5
tp626
a(g188
g188
g188
g5
g5
tp627
a(S'The'
p628
S'The'
p629
S'DT'
p630
S'B-NP'
p631
g5
tp632
a(S'primary'
p633
S'primary'
p634
S'JJ'
p635
S'I-NP'
p636
g5
tp637
a(S'endpoint'
p638
S'endpoint'
p639
S'NN'
p640
S'I-NP'
p641
g5
tp642
a(S'was'
p643
S'be'
p644
S'VBD'
p645
S'B-VP'
p646
g5
tp647
a(S'the'
p648
S'the'
p649
S'DT'
p650
S'B-NP'
p651
g5
tp652
a(S'overall'
p653
S'overall'
p654
S'JJ'
p655
S'I-NP'
p656
g5
tp657
a(S'response'
p658
S'response'
p659
S'NN'
p660
S'I-NP'
p661
g5
tp662
a(S'rate'
p663
S'rate'
p664
S'NN'
p665
S'I-NP'
p666
g5
tp667
a(S'['
p668
g668
g48
g5
g5
tp669
a(S'complete'
p670
S'complete'
p671
S'JJ'
p672
S'B-NP'
p673
g5
tp674
a(S'clinical'
p675
S'clinical'
p676
S'JJ'
p677
S'I-NP'
p678
g5
tp679
a(S'response'
p680
S'response'
p681
S'NN'
p682
S'I-NP'
p683
g5
tp684
a(g48
g48
g48
g5
g5
tp685
a(S'CCR'
p686
S'CCR'
p687
S'NN'
p688
S'B-NP'
p689
g5
tp690
a(g56
g56
g56
g5
g5
tp691
a(S'plus'
p692
S'plus'
p693
S'CC'
p694
g5
g5
tp695
a(S'partial'
p696
S'partial'
p697
S'JJ'
p698
S'B-NP'
p699
g5
tp700
a(S'response'
p701
S'response'
p702
S'NN'
p703
S'I-NP'
p704
g5
tp705
a(g48
g48
g48
g5
g5
tp706
a(S'PR'
p707
S'PR'
p708
S'NN'
p709
S'B-NP'
p710
S'B-protein'
p711
tp712
a(g56
g56
g56
g5
g5
tp713
a(S']'
p714
g714
g56
g5
g5
tp715
a(g188
g188
g188
g5
g5
tp716
a(S'RESULTS'
p717
S'RESULTS'
p718
S'NNS'
p719
S'B-NP'
p720
g5
tp721
a(S'The'
p722
S'The'
p723
S'DT'
p724
S'B-NP'
p725
g5
tp726
a(S'study'
p727
S'study'
p728
S'NN'
p729
S'I-NP'
p730
g5
tp731
a(S'was'
p732
S'be'
p733
S'VBD'
p734
S'B-VP'
p735
g5
tp736
a(S'prematurely'
p737
S'prematurely'
p738
S'RB'
p739
S'I-VP'
p740
g5
tp741
a(S'closed'
p742
S'close'
p743
S'VBN'
p744
S'I-VP'
p745
g5
tp746
a(S'due'
p747
S'due'
p748
S'JJ'
p749
S'B-ADJP'
p750
g5
tp751
a(S'to'
p752
S'to'
p753
S'TO'
p754
S'B-PP'
p755
g5
tp756
a(S'low'
p757
S'low'
p758
S'JJ'
p759
S'B-NP'
p760
g5
tp761
a(S'accrual'
p762
S'accrual'
p763
S'NN'
p764
S'I-NP'
p765
g5
tp766
a(S'after'
p767
S'after'
p768
S'IN'
p769
S'B-PP'
p770
g5
tp771
a(S'93'
p772
S'93'
p773
S'CD'
p774
S'B-NP'
p775
g5
tp776
a(S'of'
p777
S'of'
p778
S'IN'
p779
S'B-PP'
p780
g5
tp781
a(S'145'
p782
S'145'
p783
S'CD'
p784
S'B-NP'
p785
g5
tp786
a(S'required'
p787
S'require'
p788
S'VBN'
p789
S'I-NP'
p790
g5
tp791
a(S'patients'
p792
S'patient'
p793
S'NNS'
p794
S'I-NP'
p795
g5
tp796
a(g48
g48
g48
g5
g5
tp797
a(S'65'
p798
S'65'
p799
S'CD'
p800
S'B-NP'
p801
g5
tp802
a(S'%'
p803
g803
S'NN'
p804
S'I-NP'
p805
g5
tp806
a(g56
g56
g56
g5
g5
tp807
a(S'were'
p808
S'be'
p809
S'VBD'
p810
S'B-VP'
p811
g5
tp812
a(S'randomized.'
p813
S'randomized.'
p814
S'VBN'
p815
S'I-VP'
p816
g5
tp817
a(S'Of'
p818
S'Of'
p819
S'IN'
p820
S'B-PP'
p821
g5
tp822
a(S'the'
p823
S'the'
p824
S'DT'
p825
S'B-NP'
p826
g5
tp827
a(S'93'
p828
S'93'
p829
S'CD'
p830
S'I-NP'
p831
g5
tp832
a(S'randomized'
p833
S'randomize'
p834
S'VBN'
p835
S'I-NP'
p836
g5
tp837
a(S'patients'
p838
S'patient'
p839
S'NNS'
p840
S'I-NP'
p841
g5
tp842
a(S','
p843
g843
g843
g5
g5
tp844
a(S'87'
p845
S'87'
p846
S'CD'
p847
S'B-NP'
p848
g5
tp849
a(S'started'
p850
S'start'
p851
S'VBD'
p852
S'B-VP'
p853
g5
tp854
a(S'treatment'
p855
S'treatment'
p856
S'NN'
p857
S'B-NP'
p858
g5
tp859
a(g843
g843
g843
g5
g5
tp860
a(S'41'
p861
S'41'
p862
S'CD'
p863
S'B-NP'
p864
g5
tp865
a(S'received'
p866
S'receive'
p867
S'VBD'
p868
S'B-VP'
p869
g5
tp870
a(S'PUVA'
p871
S'PUVA'
p872
S'NN'
p873
S'B-NP'
p874
g5
tp875
a(S'and'
p876
S'and'
p877
S'CC'
p878
g5
g5
tp879
a(S'46'
p880
S'46'
p881
S'CD'
p882
S'B-NP'
p883
g5
tp884
a(S'received'
p885
S'receive'
p886
S'VBD'
p887
S'B-VP'
p888
g5
tp889
a(S'PUVA'
p890
S'PUVA'
p891
S'NN'
p892
S'B-NP'
p893
S'B-protein'
p894
tp895
a(S'+'
p896
g896
S'SYM'
p897
S'B-NP'
p898
g5
tp899
a(S'bexarotene.'
p900
S'bexarotene.'
p901
S'NN'
p902
S'I-NP'
p903
g5
tp904
a(S'Total'
p905
S'Total'
p906
S'JJ'
p907
S'I-NP'
p908
g5
tp909
a(S'UVA'
p910
S'UVA'
p911
S'NN'
p912
S'I-NP'
p913
g5
tp914
a(S'doses'
p915
S'dose'
p916
S'NNS'
p917
S'I-NP'
p918
g5
tp919
a(S'received'
p920
S'receive'
p921
S'VBN'
p922
S'B-VP'
p923
g5
tp924
a(S'were'
p925
S'be'
p926
S'VBD'
p927
S'B-VP'
p928
g5
tp929
a(S'107'
p930
S'107'
p931
S'CD'
p932
S'B-NP'
p933
g5
tp934
a(S'J'
p935
g935
S'NN'
p936
S'I-NP'
p937
g5
tp938
a(S'cm'
p939
S'cm'
p940
S'NN'
p941
S'I-NP'
p942
g5
tp943
a(g48
g48
g48
g5
g5
tp944
a(S'-2'
p945
S'-2'
p946
S'CD'
p947
S'B-NP'
p948
g5
tp949
a(g56
g56
g56
g5
g5
tp950
a(g48
g48
g48
g5
g5
tp951
a(S'range'
p952
S'range'
p953
S'NN'
p954
S'B-NP'
p955
S'B-protein'
p956
tp957
a(S'1\xc2\xb74-489\xc2\xb79'
p958
S'1\xc2\xb74-489\xc2\xb79'
p959
S'CD'
p960
S'I-NP'
p961
S'I-protein'
p962
tp963
a(g56
g56
g56
g5
g5
tp964
a(S'in'
p965
S'in'
p966
S'IN'
p967
S'B-PP'
p968
g5
tp969
a(S'the'
p970
S'the'
p971
S'DT'
p972
S'B-NP'
p973
g5
tp974
a(S'PUVA'
p975
S'PUVA'
p976
S'NN'
p977
S'I-NP'
p978
g5
tp979
a(S'arm'
p980
S'arm'
p981
S'NN'
p982
S'I-NP'
p983
g5
tp984
a(S'vs.'
p985
S'vs.'
p986
S'IN'
p987
S'B-PP'
p988
g5
tp989
a(S'101\xc2\xb77'
p990
S'101\xc2\xb77'
p991
S'CD'
p992
S'B-NP'
p993
g5
tp994
a(g935
g935
S'NN'
p995
S'I-NP'
p996
g5
tp997
a(S'cm'
p998
S'cm'
p999
S'NN'
p1000
S'I-NP'
p1001
g5
tp1002
a(g48
g48
g48
g5
g5
tp1003
a(S'-2'
p1004
S'-2'
p1005
S'CD'
p1006
S'B-NP'
p1007
g5
tp1008
a(g56
g56
g56
g5
g5
tp1009
a(g48
g48
g48
g5
g5
tp1010
a(S'0\xc2\xb72-529\xc2\xb79'
p1011
S'0\xc2\xb72-529\xc2\xb79'
p1012
S'CD'
p1013
S'B-NP'
p1014
g5
tp1015
a(g56
g56
g56
g5
g5
tp1016
a(S'in'
p1017
S'in'
p1018
S'IN'
p1019
S'B-PP'
p1020
g5
tp1021
a(S'the'
p1022
S'the'
p1023
S'DT'
p1024
S'B-NP'
p1025
g5
tp1026
a(S'combination'
p1027
S'combination'
p1028
S'NN'
p1029
S'I-NP'
p1030
g5
tp1031
a(S'arm.'
p1032
S'arm.'
p1033
S'NN'
p1034
S'I-NP'
p1035
g5
tp1036
a(S'The'
p1037
S'The'
p1038
S'DT'
p1039
S'B-NP'
p1040
g5
tp1041
a(S'safety'
p1042
S'safety'
p1043
S'NN'
p1044
S'I-NP'
p1045
g5
tp1046
a(S'profile'
p1047
S'profile'
p1048
S'NN'
p1049
S'I-NP'
p1050
g5
tp1051
a(S'was'
p1052
S'be'
p1053
S'VBD'
p1054
S'B-VP'
p1055
g5
tp1056
a(S'acceptable'
p1057
S'acceptable'
p1058
S'JJ'
p1059
S'B-ADJP'
p1060
g5
tp1061
a(S'with'
p1062
S'with'
p1063
S'IN'
p1064
S'B-PP'
p1065
g5
tp1066
a(S'few'
p1067
S'few'
p1068
S'JJ'
p1069
S'B-NP'
p1070
g5
tp1071
a(S'grade'
p1072
S'grade'
p1073
S'NN'
p1074
S'I-NP'
p1075
g5
tp1076
a(S'3-4'
p1077
S'3-4'
p1078
S'CD'
p1079
S'B-NP'
p1080
g5
tp1081
a(S'toxicities'
p1082
S'toxicity'
p1083
S'NNS'
p1084
S'I-NP'
p1085
g5
tp1086
a(S'observed'
p1087
S'observe'
p1088
S'VBN'
p1089
S'B-VP'
p1090
g5
tp1091
a(S'in'
p1092
S'in'
p1093
S'IN'
p1094
S'B-PP'
p1095
g5
tp1096
a(S'either'
p1097
S'either'
p1098
S'CC'
p1099
S'B-NP'
p1100
g5
tp1101
a(S'arm.'
p1102
S'arm.'
p1103
S'RB'
p1104
S'I-NP'
p1105
g5
tp1106
a(S'More'
p1107
S'More'
p1108
S'JJR'
p1109
S'I-NP'
p1110
g5
tp1111
a(S'drop-outs'
p1112
S'drop-out'
p1113
S'NNS'
p1114
S'I-NP'
p1115
g5
tp1116
a(S'due'
p1117
S'due'
p1118
S'JJ'
p1119
S'B-ADJP'
p1120
g5
tp1121
a(S'to'
p1122
S'to'
p1123
S'TO'
p1124
S'B-PP'
p1125
g5
tp1126
a(S'toxicity'
p1127
S'toxicity'
p1128
S'NN'
p1129
S'B-NP'
p1130
g5
tp1131
a(S'were'
p1132
S'be'
p1133
S'VBD'
p1134
S'B-VP'
p1135
g5
tp1136
a(S'observed'
p1137
S'observe'
p1138
S'VBN'
p1139
S'I-VP'
p1140
g5
tp1141
a(S'in'
p1142
S'in'
p1143
S'IN'
p1144
S'B-PP'
p1145
g5
tp1146
a(S'the'
p1147
S'the'
p1148
S'DT'
p1149
S'B-NP'
p1150
g5
tp1151
a(S'combination'
p1152
S'combination'
p1153
S'NN'
p1154
S'I-NP'
p1155
g5
tp1156
a(S'arm'
p1157
S'arm'
p1158
S'NN'
p1159
S'I-NP'
p1160
g5
tp1161
a(S'compared'
p1162
S'compare'
p1163
S'VBN'
p1164
S'B-PP'
p1165
g5
tp1166
a(S'with'
p1167
S'with'
p1168
S'IN'
p1169
S'B-PP'
p1170
g5
tp1171
a(S'the'
p1172
S'the'
p1173
S'DT'
p1174
S'B-NP'
p1175
g5
tp1176
a(S'PUVA-alone'
p1177
S'PUVA-alone'
p1178
S'JJ'
p1179
S'I-NP'
p1180
g5
tp1181
a(S'arm.'
p1182
S'arm.'
p1183
S'NN'
p1184
S'I-NP'
p1185
g5
tp1186
a(S'The'
p1187
S'The'
p1188
S'DT'
p1189
S'B-NP'
p1190
g5
tp1191
a(S'best'
p1192
S'good'
p1193
S'JJS'
p1194
S'I-NP'
p1195
g5
tp1196
a(S'overall'
p1197
S'overall'
p1198
S'JJ'
p1199
S'I-NP'
p1200
g5
tp1201
a(S'response'
p1202
S'response'
p1203
S'NN'
p1204
S'I-NP'
p1205
g5
tp1206
a(g48
g48
g48
g5
g5
tp1207
a(S'CCR'
p1208
S'CCR'
p1209
S'NN'
p1210
S'B-NP'
p1211
S'B-protein'
p1212
tp1213
a(g896
g896
S'SYM'
p1214
S'B-NP'
p1215
g5
tp1216
a(S'PR'
p1217
S'PR'
p1218
S'NN'
p1219
S'I-NP'
p1220
S'B-protein'
p1221
tp1222
a(g56
g56
g56
g5
g5
tp1223
a(S'rate'
p1224
S'rate'
p1225
S'NN'
p1226
S'B-NP'
p1227
g5
tp1228
a(S'was'
p1229
S'be'
p1230
S'VBD'
p1231
S'B-VP'
p1232
g5
tp1233
a(S'71'
p1234
S'71'
p1235
S'CD'
p1236
S'B-NP'
p1237
g5
tp1238
a(g803
g803
S'NN'
p1239
S'I-NP'
p1240
g5
tp1241
a(S'for'
p1242
S'for'
p1243
S'IN'
p1244
S'B-PP'
p1245
g5
tp1246
a(S'PUVA'
p1247
S'PUVA'
p1248
S'NN'
p1249
S'B-NP'
p1250
S'B-protein'
p1251
tp1252
a(S'alone'
p1253
S'alone'
p1254
S'RB'
p1255
S'B-ADVP'
p1256
g5
tp1257
a(S'and'
p1258
S'and'
p1259
S'CC'
p1260
g5
g5
tp1261
a(S'77'
p1262
S'77'
p1263
S'CD'
p1264
S'B-NP'
p1265
g5
tp1266
a(g803
g803
S'NN'
p1267
S'I-NP'
p1268
g5
tp1269
a(S'for'
p1270
S'for'
p1271
S'IN'
p1272
S'B-PP'
p1273
g5
tp1274
a(S'the'
p1275
S'the'
p1276
S'DT'
p1277
S'B-NP'
p1278
g5
tp1279
a(S'combination'
p1280
S'combination'
p1281
S'NN'
p1282
S'I-NP'
p1283
g5
tp1284
a(S'arm'
p1285
S'arm'
p1286
S'NN'
p1287
S'I-NP'
p1288
g5
tp1289
a(g48
g48
g48
g5
g5
tp1290
a(S'P'
p1291
g1291
S'NN'
p1292
S'B-NP'
p1293
g5
tp1294
a(S'='
p1295
g1295
S'SYM'
p1296
S'B-VP'
p1297
g5
tp1298
a(S'0\xc2\xb757'
p1299
S'0\xc2\xb757'
p1300
S'CD'
p1301
S'B-NP'
p1302
g5
tp1303
a(g56
g56
g56
g5
g5
tp1304
a(g188
g188
g188
g5
g5
tp1305
a(S'The'
p1306
S'The'
p1307
S'DT'
p1308
S'B-NP'
p1309
g5
tp1310
a(S'median'
p1311
S'median'
p1312
S'JJ'
p1313
S'I-NP'
p1314
g5
tp1315
a(S'duration'
p1316
S'duration'
p1317
S'NN'
p1318
S'I-NP'
p1319
g5
tp1320
a(S'of'
p1321
S'of'
p1322
S'IN'
p1323
S'B-PP'
p1324
g5
tp1325
a(S'response'
p1326
S'response'
p1327
S'NN'
p1328
S'B-NP'
p1329
g5
tp1330
a(S'was'
p1331
S'be'
p1332
S'VBD'
p1333
S'B-VP'
p1334
g5
tp1335
a(S'9\xc2\xb77'
p1336
S'9\xc2\xb77'
p1337
S'CD'
p1338
S'B-NP'
p1339
g5
tp1340
a(S'months'
p1341
S'month'
p1342
S'NNS'
p1343
S'I-NP'
p1344
g5
tp1345
a(S'for'
p1346
S'for'
p1347
S'IN'
p1348
S'B-PP'
p1349
g5
tp1350
a(S'PUVA'
p1351
S'PUVA'
p1352
S'NN'
p1353
S'B-NP'
p1354
S'B-protein'
p1355
tp1356
a(S'vs.'
p1357
S'vs.'
p1358
S'IN'
p1359
S'B-PP'
p1360
g5
tp1361
a(S'5\xc2\xb78'
p1362
S'5\xc2\xb78'
p1363
S'CD'
p1364
S'B-NP'
p1365
g5
tp1366
a(S'months'
p1367
S'month'
p1368
S'NNS'
p1369
S'I-NP'
p1370
g5
tp1371
a(S'for'
p1372
S'for'
p1373
S'IN'
p1374
S'B-PP'
p1375
g5
tp1376
a(S'the'
p1377
S'the'
p1378
S'DT'
p1379
S'B-NP'
p1380
g5
tp1381
a(S'combination'
p1382
S'combination'
p1383
S'NN'
p1384
S'I-NP'
p1385
g5
tp1386
a(S'arm'
p1387
S'arm'
p1388
S'NN'
p1389
S'I-NP'
p1390
g5
tp1391
a(g48
g48
g48
g5
g5
tp1392
a(g1291
g1291
S'NN'
p1393
S'B-NP'
p1394
g5
tp1395
a(g1295
g1295
S'SYM'
p1396
S'B-VP'
p1397
g5
tp1398
a(S'0\xc2\xb733'
p1399
S'0\xc2\xb733'
p1400
S'CD'
p1401
S'B-NP'
p1402
g5
tp1403
a(g56
g56
g56
g5
g5
tp1404
a(g188
g188
g188
g5
g5
tp1405
a(S'CCR'
p1406
S'CCR'
p1407
S'NN'
p1408
S'B-NP'
p1409
S'B-protein'
p1410
tp1411
a(S'was'
p1412
S'be'
p1413
S'VBD'
p1414
S'B-VP'
p1415
g5
tp1416
a(S'seen'
p1417
S'see'
p1418
S'VBN'
p1419
S'I-VP'
p1420
g5
tp1421
a(S'in'
p1422
S'in'
p1423
S'IN'
p1424
S'B-PP'
p1425
g5
tp1426
a(S'25'
p1427
S'25'
p1428
S'CD'
p1429
S'B-NP'
p1430
g5
tp1431
a(S'patients'
p1432
S'patient'
p1433
S'NNS'
p1434
S'I-NP'
p1435
g5
tp1436
a(S'of'
p1437
S'of'
p1438
S'IN'
p1439
S'B-PP'
p1440
g5
tp1441
a(S'whom'
p1442
S'whom'
p1443
S'WP'
p1444
S'B-NP'
p1445
g5
tp1446
a(S'10'
p1447
S'10'
p1448
S'CD'
p1449
S'B-NP'
p1450
g5
tp1451
a(S'received'
p1452
S'receive'
p1453
S'VBD'
p1454
S'B-VP'
p1455
g5
tp1456
a(S'PUVA'
p1457
S'PUVA'
p1458
S'NN'
p1459
S'B-NP'
p1460
S'B-protein'
p1461
tp1462
a(S'alone'
p1463
S'alone'
p1464
S'RB'
p1465
S'B-ADVP'
p1466
g5
tp1467
a(g48
g48
g48
g5
g5
tp1468
a(S'CCR'
p1469
S'CCR'
p1470
S'NN'
p1471
S'B-NP'
p1472
g5
tp1473
a(S'22'
p1474
S'22'
p1475
S'CD'
p1476
S'B-NP'
p1477
g5
tp1478
a(g803
g803
S'NN'
p1479
S'I-NP'
p1480
g5
tp1481
a(g56
g56
g56
g5
g5
tp1482
a(S'and'
p1483
S'and'
p1484
S'CC'
p1485
g5
g5
tp1486
a(S'15'
p1487
S'15'
p1488
S'CD'
p1489
S'B-NP'
p1490
g5
tp1491
a(S'received'
p1492
S'receive'
p1493
S'VBD'
p1494
S'B-VP'
p1495
g5
tp1496
a(S'combination'
p1497
S'combination'
p1498
S'NN'
p1499
S'B-NP'
p1500
g5
tp1501
a(S'therapy'
p1502
S'therapy'
p1503
S'NN'
p1504
S'I-NP'
p1505
g5
tp1506
a(g48
g48
g48
g5
g5
tp1507
a(S'CCR'
p1508
S'CCR'
p1509
S'NN'
p1510
S'B-NP'
p1511
g5
tp1512
a(S'31'
p1513
S'31'
p1514
S'CD'
p1515
S'B-NP'
p1516
g5
tp1517
a(g803
g803
S'NN'
p1518
S'I-NP'
p1519
g5
tp1520
a(g56
g56
g56
g5
g5
tp1521
a(g48
g48
g48
g5
g5
tp1522
a(g1291
g1291
S'NN'
p1523
S'B-NP'
p1524
g5
tp1525
a(g1295
g1295
S'SYM'
p1526
S'B-VP'
p1527
g5
tp1528
a(S'0\xc2\xb745'
p1529
S'0\xc2\xb745'
p1530
S'CD'
p1531
S'B-NP'
p1532
g5
tp1533
a(g56
g56
g56
g5
g5
tp1534
a(g188
g188
g188
g5
g5
tp1535
a(S'CCR'
p1536
S'CCR'
p1537
S'NN'
p1538
S'B-NP'
p1539
S'B-protein'
p1540
tp1541
a(S'was'
p1542
S'be'
p1543
S'VBD'
p1544
S'B-VP'
p1545
g5
tp1546
a(S'sustained'
p1547
S'sustained'
p1548
S'JJ'
p1549
S'B-ADJP'
p1550
g5
tp1551
a(S'in'
p1552
S'in'
p1553
S'IN'
p1554
S'B-PP'
p1555
g5
tp1556
a(S'25'
p1557
S'25'
p1558
S'CD'
p1559
S'B-NP'
p1560
g5
tp1561
a(g803
g803
S'NN'
p1562
S'I-NP'
p1563
g5
tp1564
a(S'of'
p1565
S'of'
p1566
S'IN'
p1567
S'B-PP'
p1568
g5
tp1569
a(S'patients'
p1570
S'patient'
p1571
S'NNS'
p1572
S'B-NP'
p1573
g5
tp1574
a(S'regardless'
p1575
S'regardless'
p1576
S'RB'
p1577
S'B-ADVP'
p1578
g5
tp1579
a(S'of'
p1580
S'of'
p1581
S'IN'
p1582
S'B-PP'
p1583
g5
tp1584
a(S'therapy.'
p1585
S'therapy.'
p1586
S'RB'
p1587
S'B-ADVP'
p1588
g5
tp1589
a(S'There'
p1590
S'There'
p1591
S'EX'
p1592
S'B-NP'
p1593
g5
tp1594
a(S'was'
p1595
S'be'
p1596
S'VBD'
p1597
S'B-VP'
p1598
g5
tp1599
a(g496
g496
S'DT'
p1600
S'B-NP'
p1601
g5
tp1602
a(S'trend'
p1603
S'trend'
p1604
S'NN'
p1605
S'I-NP'
p1606
g5
tp1607
a(S'towards'
p1608
S'towards'
p1609
S'IN'
p1610
S'B-PP'
p1611
g5
tp1612
a(S'fewer'
p1613
S'few'
p1614
S'JJR'
p1615
S'B-NP'
p1616
g5
tp1617
a(S'PUVA'
p1618
S'PUVA'
p1619
S'NN'
p1620
S'I-NP'
p1621
g5
tp1622
a(S'sessions'
p1623
S'session'
p1624
S'NNS'
p1625
S'I-NP'
p1626
g5
tp1627
a(S'needed'
p1628
S'need'
p1629
S'VBN'
p1630
S'B-VP'
p1631
g5
tp1632
a(S'to'
p1633
S'to'
p1634
S'TO'
p1635
S'B-VP'
p1636
g5
tp1637
a(S'achieve'
p1638
S'achieve'
p1639
S'VB'
p1640
S'I-VP'
p1641
g5
tp1642
a(S'CCR'
p1643
S'CCR'
p1644
S'NN'
p1645
S'B-NP'
p1646
S'B-protein'
p1647
tp1648
a(S'in'
p1649
S'in'
p1650
S'IN'
p1651
S'B-PP'
p1652
g5
tp1653
a(S'the'
p1654
S'the'
p1655
S'DT'
p1656
S'B-NP'
p1657
g5
tp1658
a(S'combination'
p1659
S'combination'
p1660
S'NN'
p1661
S'I-NP'
p1662
g5
tp1663
a(S'arm'
p1664
S'arm'
p1665
S'NN'
p1666
S'I-NP'
p1667
g5
tp1668
a(g48
g48
g48
g5
g5
tp1669
a(S'median'
p1670
S'median'
p1671
S'NN'
p1672
S'B-NP'
p1673
g5
tp1674
a(S'22'
p1675
S'22'
p1676
S'CD'
p1677
S'I-NP'
p1678
g5
tp1679
a(g56
g56
g56
g5
g5
tp1680
a(S'compared'
p1681
S'compare'
p1682
S'VBN'
p1683
S'B-PP'
p1684
g5
tp1685
a(S'with'
p1686
S'with'
p1687
S'IN'
p1688
S'B-PP'
p1689
g5
tp1690
a(S'the'
p1691
S'the'
p1692
S'DT'
p1693
S'B-NP'
p1694
g5
tp1695
a(S'PUVA'
p1696
S'PUVA'
p1697
S'NN'
p1698
S'I-NP'
p1699
g5
tp1700
a(S'arm'
p1701
S'arm'
p1702
S'NN'
p1703
S'I-NP'
p1704
g5
tp1705
a(g48
g48
g48
g5
g5
tp1706
a(S'median'
p1707
S'median'
p1708
S'NN'
p1709
S'B-NP'
p1710
g5
tp1711
a(S'27\xc2\xb75'
p1712
S'27\xc2\xb75'
p1713
S'CD'
p1714
S'I-NP'
p1715
g5
tp1716
a(g56
g56
g56
g5
g5
tp1717
a(g48
g48
g48
g5
g5
tp1718
a(g1291
g1291
S'NN'
p1719
S'B-NP'
p1720
g5
tp1721
a(g1295
g1295
S'SYM'
p1722
S'B-VP'
p1723
g5
tp1724
a(S'0\xc2\xb711'
p1725
S'0\xc2\xb711'
p1726
S'CD'
p1727
S'B-NP'
p1728
g5
tp1729
a(g56
g56
g56
g5
g5
tp1730
a(g188
g188
g188
g5
g5
tp1731
a(S'Similarly'
p1732
S'Similarly'
p1733
S'RB'
p1734
S'B-ADVP'
p1735
g5
tp1736
a(g843
g843
g843
g5
g5
tp1737
a(g496
g496
S'DT'
p1738
S'B-NP'
p1739
g5
tp1740
a(S'trend'
p1741
S'trend'
p1742
S'NN'
p1743
S'I-NP'
p1744
g5
tp1745
a(S'towards'
p1746
S'towards'
p1747
S'IN'
p1748
S'B-PP'
p1749
g5
tp1750
a(S'lower'
p1751
S'low'
p1752
S'JJR'
p1753
S'B-NP'
p1754
g5
tp1755
a(S'UVA'
p1756
S'UVA'
p1757
S'NN'
p1758
S'I-NP'
p1759
g5
tp1760
a(S'dose'
p1761
S'dose'
p1762
S'NN'
p1763
S'I-NP'
p1764
g5
tp1765
a(S'required'
p1766
S'require'
p1767
S'VBN'
p1768
S'B-VP'
p1769
g5
tp1770
a(S'to'
p1771
S'to'
p1772
S'TO'
p1773
S'I-VP'
p1774
g5
tp1775
a(S'achieve'
p1776
S'achieve'
p1777
S'VB'
p1778
S'I-VP'
p1779
g5
tp1780
a(S'CCR'
p1781
S'CCR'
p1782
S'NN'
p1783
S'B-NP'
p1784
S'B-protein'
p1785
tp1786
a(S'in'
p1787
S'in'
p1788
S'IN'
p1789
S'B-PP'
p1790
g5
tp1791
a(S'the'
p1792
S'the'
p1793
S'DT'
p1794
S'B-NP'
p1795
g5
tp1796
a(S'combination'
p1797
S'combination'
p1798
S'NN'
p1799
S'I-NP'
p1800
g5
tp1801
a(S'arm'
p1802
S'arm'
p1803
S'NN'
p1804
S'I-NP'
p1805
g5
tp1806
a(g48
g48
g48
g5
g5
tp1807
a(S'median'
p1808
S'median'
p1809
S'NN'
p1810
S'B-NP'
p1811
g5
tp1812
a(S'55\xc2\xb78'
p1813
S'55\xc2\xb78'
p1814
S'CD'
p1815
S'I-NP'
p1816
g5
tp1817
a(g935
g935
S'NN'
p1818
S'I-NP'
p1819
g5
tp1820
a(S'cm'
p1821
S'cm'
p1822
S'NN'
p1823
S'I-NP'
p1824
g5
tp1825
a(g48
g48
g48
g5
g5
tp1826
a(S'-2'
p1827
S'-2'
p1828
S'CD'
p1829
S'B-NP'
p1830
g5
tp1831
a(g56
g56
g56
g5
g5
tp1832
a(g56
g56
g56
g5
g5
tp1833
a(S'compared'
p1834
S'compare'
p1835
S'VBN'
p1836
S'B-PP'
p1837
g5
tp1838
a(S'with'
p1839
S'with'
p1840
S'IN'
p1841
S'B-PP'
p1842
g5
tp1843
a(S'the'
p1844
S'the'
p1845
S'DT'
p1846
S'B-NP'
p1847
g5
tp1848
a(S'PUVA'
p1849
S'PUVA'
p1850
S'NN'
p1851
S'I-NP'
p1852
g5
tp1853
a(S'arm'
p1854
S'arm'
p1855
S'NN'
p1856
S'I-NP'
p1857
g5
tp1858
a(S'alone'
p1859
S'alone'
p1860
S'RB'
p1861
S'B-ADVP'
p1862
g5
tp1863
a(g48
g48
g48
g5
g5
tp1864
a(S'median'
p1865
S'median'
p1866
S'JJ'
p1867
S'B-NP'
p1868
g5
tp1869
a(S'117\xc2\xb75'
p1870
S'117\xc2\xb75'
p1871
S'CD'
p1872
S'I-NP'
p1873
g5
tp1874
a(g935
g935
S'NN'
p1875
S'I-NP'
p1876
g5
tp1877
a(S'cm'
p1878
S'cm'
p1879
S'NN'
p1880
S'I-NP'
p1881
g5
tp1882
a(g48
g48
g48
g5
g5
tp1883
a(S'-2'
p1884
S'-2'
p1885
S'CD'
p1886
S'B-NP'
p1887
g5
tp1888
a(g56
g56
g56
g5
g5
tp1889
a(g56
g56
g56
g5
g5
tp1890
a(g48
g48
g48
g5
g5
tp1891
a(g1291
g1291
S'NN'
p1892
S'B-NP'
p1893
g5
tp1894
a(g1295
g1295
S'SYM'
p1895
S'B-VP'
p1896
g5
tp1897
a(S'0\xc2\xb75'
p1898
S'0\xc2\xb75'
p1899
S'CD'
p1900
S'B-NP'
p1901
g5
tp1902
a(g56
g56
g56
g5
g5
tp1903
a(S'was'
p1904
S'be'
p1905
S'VBD'
p1906
S'B-VP'
p1907
g5
tp1908
a(S'observed'
p1909
S'observe'
p1910
S'VBN'
p1911
S'I-VP'
p1912
g5
tp1913
a(g188
g188
g188
g5
g5
tp1914
a(S'CONCLUSIONS'
p1915
S'CONCLUSIONS'
p1916
S'NNS'
p1917
S'B-NP'
p1918
g5
tp1919
a(S'No'
p1920
S'No'
p1921
S'DT'
p1922
S'B-NP'
p1923
g5
tp1924
a(S'significant'
p1925
S'significant'
p1926
S'JJ'
p1927
S'I-NP'
p1928
g5
tp1929
a(S'difference'
p1930
S'difference'
p1931
S'NN'
p1932
S'I-NP'
p1933
g5
tp1934
a(S'in'
p1935
S'in'
p1936
S'IN'
p1937
S'B-PP'
p1938
g5
tp1939
a(S'response'
p1940
S'response'
p1941
S'NN'
p1942
S'B-NP'
p1943
g5
tp1944
a(S'rate'
p1945
S'rate'
p1946
S'NN'
p1947
S'I-NP'
p1948
g5
tp1949
a(S'or'
p1950
S'or'
p1951
S'CC'
p1952
g5
g5
tp1953
a(S'response'
p1954
S'response'
p1955
S'NN'
p1956
S'B-NP'
p1957
g5
tp1958
a(S'duration'
p1959
S'duration'
p1960
S'NN'
p1961
S'I-NP'
p1962
g5
tp1963
a(S'was'
p1964
S'be'
p1965
S'VBD'
p1966
S'B-VP'
p1967
g5
tp1968
a(S'observed'
p1969
S'observe'
p1970
S'VBN'
p1971
S'I-VP'
p1972
g5
tp1973
a(S'in'
p1974
S'in'
p1975
S'IN'
p1976
S'B-PP'
p1977
g5
tp1978
a(S'this'
p1979
S'this'
p1980
S'DT'
p1981
S'B-NP'
p1982
g5
tp1983
a(S'study.'
p1984
S'study.'
p1985
S'NN'
p1986
S'I-NP'
p1987
g5
tp1988
a(S'However'
p1989
S'However'
p1990
S'RB'
p1991
S'B-ADVP'
p1992
g5
tp1993
a(g843
g843
g843
g5
g5
tp1994
a(S'there'
p1995
S'there'
p1996
S'EX'
p1997
S'B-NP'
p1998
g5
tp1999
a(S'was'
p2000
S'be'
p2001
S'VBD'
p2002
S'B-VP'
p2003
g5
tp2004
a(g496
g496
S'DT'
p2005
S'B-NP'
p2006
g5
tp2007
a(S'trend'
p2008
S'trend'
p2009
S'NN'
p2010
S'I-NP'
p2011
g5
tp2012
a(S'towards'
p2013
S'towards'
p2014
S'IN'
p2015
S'B-PP'
p2016
g5
tp2017
a(S'fewer'
p2018
S'few'
p2019
S'JJR'
p2020
S'B-NP'
p2021
g5
tp2022
a(S'PUVA'
p2023
S'PUVA'
p2024
S'NN'
p2025
S'I-NP'
p2026
g5
tp2027
a(S'sessions'
p2028
S'session'
p2029
S'NNS'
p2030
S'I-NP'
p2031
g5
tp2032
a(S'and'
p2033
S'and'
p2034
S'CC'
p2035
g5
g5
tp2036
a(S'lower'
p2037
S'low'
p2038
S'JJR'
p2039
S'B-NP'
p2040
g5
tp2041
a(S'UVA'
p2042
S'UVA'
p2043
S'NN'
p2044
S'I-NP'
p2045
g5
tp2046
a(S'dose'
p2047
S'dose'
p2048
S'NN'
p2049
S'I-NP'
p2050
g5
tp2051
a(S'required'
p2052
S'require'
p2053
S'VBN'
p2054
S'B-VP'
p2055
g5
tp2056
a(S'to'
p2057
S'to'
p2058
S'TO'
p2059
S'I-VP'
p2060
g5
tp2061
a(S'achieve'
p2062
S'achieve'
p2063
S'VB'
p2064
S'I-VP'
p2065
g5
tp2066
a(S'CCR'
p2067
S'CCR'
p2068
S'NN'
p2069
S'B-NP'
p2070
S'B-protein'
p2071
tp2072
a(S'in'
p2073
S'in'
p2074
S'IN'
p2075
S'B-PP'
p2076
g5
tp2077
a(S'the'
p2078
S'the'
p2079
S'DT'
p2080
S'B-NP'
p2081
g5
tp2082
a(S'combination'
p2083
S'combination'
p2084
S'NN'
p2085
S'I-NP'
p2086
g5
tp2087
a(S'arm'
p2088
S'arm'
p2089
S'NN'
p2090
S'I-NP'
p2091
g5
tp2092
a(g48
g48
g48
g5
g5
tp2093
a(S'PUVA'
p2094
S'PUVA'
p2095
S'NN'
p2096
S'B-NP'
p2097
S'B-protein'
p2098
tp2099
a(g896
g896
S'SYM'
p2100
S'B-NP'
p2101
g5
tp2102
a(S'bexarotene'
p2103
S'bexarotene'
p2104
S'NN'
p2105
S'I-NP'
p2106
g5
tp2107
a(g56
g56
g56
g5
g5
tp2108
a(S'but'
p2109
S'but'
p2110
S'CC'
p2111
g5
g5
tp2112
a(S'this'
p2113
S'this'
p2114
S'DT'
p2115
S'B-NP'
p2116
g5
tp2117
a(S'did'
p2118
S'do'
p2119
S'VBD'
p2120
S'B-VP'
p2121
g5
tp2122
a(S'not'
p2123
S'not'
p2124
S'RB'
p2125
S'I-VP'
p2126
g5
tp2127
a(S'achieve'
p2128
S'achieve'
p2129
S'VB'
p2130
S'I-VP'
p2131
g5
tp2132
a(S'statistical'
p2133
S'statistical'
p2134
S'JJ'
p2135
S'B-NP'
p2136
g5
tp2137
a(S'significance'
p2138
S'significance'
p2139
S'NN'
p2140
S'I-NP'
p2141
g5
tp2142
a(S'due'
p2143
S'due'
p2144
S'JJ'
p2145
S'B-PP'
p2146
g5
tp2147
a(S'to'
p2148
S'to'
p2149
S'TO'
p2150
S'B-PP'
p2151
g5
tp2152
a(S'insufficient'
p2153
S'insufficient'
p2154
S'JJ'
p2155
S'B-NP'
p2156
g5
tp2157
a(S'power'
p2158
S'power'
p2159
S'NN'
p2160
S'I-NP'
p2161
g5
tp2162
a(g188
g188
g188
g5
g5
tp2163
a.