(lp0
(S'Ascaris'
p1
S'Ascaris'
p2
S'NN'
p3
S'B-NP'
p4
S'O'
p5
tp6
a(S'and'
p7
S'and'
p8
S'CC'
p9
S'I-NP'
p10
g5
tp11
a(S'growth'
p12
S'growth'
p13
S'NN'
p14
S'I-NP'
p15
g5
tp16
a(S'rates'
p17
S'rate'
p18
S'NNS'
p19
S'I-NP'
p20
g5
tp21
a(S':'
p22
g22
g22
g5
g5
tp23
a(S'a'
p24
g24
S'DT'
p25
S'B-NP'
p26
g5
tp27
a(S'randomized'
p28
S'randomize'
p29
S'VBN'
p30
S'I-NP'
p31
g5
tp32
a(S'trial'
p33
S'trial'
p34
S'NN'
p35
S'I-NP'
p36
g5
tp37
a(S'of'
p38
S'of'
p39
S'IN'
p40
S'B-PP'
p41
g5
tp42
a(S'treatment'
p43
S'treatment'
p44
S'NN'
p45
S'B-NP'
p46
g5
tp47
a(S'.'
p48
g48
g48
g5
g5
tp49
a(S'Three'
p50
S'Three'
p51
S'CD'
p52
S'B-NP'
p53
g5
tp54
a(S'hundred'
p55
S'hundred'
p56
S'CD'
p57
S'I-NP'
p58
g5
tp59
a(S'forty-one'
p60
S'forty-one'
p61
S'JJ'
p62
S'I-NP'
p63
g5
tp64
a(S'Tanzanian'
p65
S'Tanzanian'
p66
S'JJ'
p67
S'I-NP'
p68
g5
tp69
a(S'preschool'
p70
S'preschool'
p71
S'NN'
p72
S'I-NP'
p73
g5
tp74
a(S'children'
p75
S'child'
p76
S'NNS'
p77
S'I-NP'
p78
g5
tp79
a(S'were'
p80
S'be'
p81
S'VBD'
p82
S'B-VP'
p83
g5
tp84
a(S'randomly'
p85
S'randomly'
p86
S'RB'
p87
S'I-VP'
p88
g5
tp89
a(S'assigned'
p90
S'assign'
p91
S'VBN'
p92
S'I-VP'
p93
g5
tp94
a(S'to'
p95
S'to'
p96
S'TO'
p97
S'B-PP'
p98
g5
tp99
a(S'levamisole'
p100
S'levamisole'
p101
S'NN'
p102
S'B-NP'
p103
g5
tp104
a(S'or'
p105
S'or'
p106
S'CC'
p107
S'I-NP'
p108
g5
tp109
a(S'placebo'
p110
S'placebo'
p111
S'NN'
p112
S'I-NP'
p113
g5
tp114
a(S'treatment'
p115
S'treatment'
p116
S'NN'
p117
S'I-NP'
p118
g5
tp119
a(S'given'
p120
S'give'
p121
S'VBN'
p122
S'B-VP'
p123
g5
tp124
a(S'at'
p125
S'at'
p126
S'IN'
p127
S'B-PP'
p128
g5
tp129
a(S'three-month'
p130
S'three-month'
p131
S'JJ'
p132
S'B-NP'
p133
g5
tp134
a(S'intervals.'
p135
S'intervals.'
p136
S'NN'
p137
S'I-NP'
p138
g5
tp139
a(S'Weights'
p140
S'Weight'
p141
S'NNS'
p142
S'I-NP'
p143
g5
tp144
a(S'and'
p145
S'and'
p146
S'CC'
p147
S'I-NP'
p148
g5
tp149
a(S'heights'
p150
S'height'
p151
S'NNS'
p152
S'I-NP'
p153
g5
tp154
a(S'were'
p155
S'be'
p156
S'VBD'
p157
S'B-VP'
p158
g5
tp159
a(S'measured'
p160
S'measure'
p161
S'VBN'
p162
S'I-VP'
p163
g5
tp164
a(S'at'
p165
S'at'
p166
S'IN'
p167
S'B-PP'
p168
g5
tp169
a(S'the'
p170
S'the'
p171
S'DT'
p172
S'B-NP'
p173
g5
tp174
a(S'tri-monthly'
p175
S'tri-monthly'
p176
S'JJ'
p177
S'I-NP'
p178
g5
tp179
a(S'treatment'
p180
S'treatment'
p181
S'NN'
p182
S'I-NP'
p183
g5
tp184
a(S'visits'
p185
S'visit'
p186
S'NNS'
p187
S'I-NP'
p188
g5
tp189
a(S'for'
p190
S'for'
p191
S'IN'
p192
S'B-PP'
p193
g5
tp194
a(g24
g24
S'DT'
p195
S'B-NP'
p196
g5
tp197
a(S'period'
p198
S'period'
p199
S'NN'
p200
S'I-NP'
p201
g5
tp202
a(S'of'
p203
S'of'
p204
S'IN'
p205
S'B-PP'
p206
g5
tp207
a(S'one'
p208
S'one'
p209
S'CD'
p210
S'B-NP'
p211
g5
tp212
a(S'year.'
p213
S'year.'
p214
S'NN'
p215
S'I-NP'
p216
g5
tp217
a(S'Among'
p218
S'Among'
p219
S'IN'
p220
S'B-PP'
p221
g5
tp222
a(S'the'
p223
S'the'
p224
S'DT'
p225
S'B-NP'
p226
g5
tp227
a(S'273'
p228
S'273'
p229
S'CD'
p230
S'I-NP'
p231
g5
tp232
a(S'children'
p233
S'child'
p234
S'NNS'
p235
S'I-NP'
p236
g5
tp237
a(S'who'
p238
S'who'
p239
S'WP'
p240
S'B-NP'
p241
g5
tp242
a(S'were'
p243
S'be'
p244
S'VBD'
p245
S'B-VP'
p246
g5
tp247
a(S'seen'
p248
S'see'
p249
S'VBN'
p250
S'I-VP'
p251
g5
tp252
a(S'and'
p253
S'and'
p254
S'CC'
p255
g5
g5
tp256
a(S'weighed'
p257
S'weigh'
p258
S'VBN'
p259
S'B-VP'
p260
g5
tp261
a(S'at'
p262
S'at'
p263
S'IN'
p264
S'B-PP'
p265
g5
tp266
a(S'the'
p267
S'the'
p268
S'DT'
p269
S'B-NP'
p270
g5
tp271
a(S'one-year'
p272
S'one-year'
p273
S'JJ'
p274
S'I-NP'
p275
g5
tp276
a(S'follow-up'
p277
S'follow-up'
p278
S'JJ'
p279
S'I-NP'
p280
g5
tp281
a(S'visit'
p282
S'visit'
p283
S'NN'
p284
S'I-NP'
p285
g5
tp286
a(S','
p287
g287
g287
g5
g5
tp288
a(S'the'
p289
S'the'
p290
S'DT'
p291
S'B-NP'
p292
g5
tp293
a(S'rate'
p294
S'rate'
p295
S'NN'
p296
S'I-NP'
p297
g5
tp298
a(S'of'
p299
S'of'
p300
S'IN'
p301
S'B-PP'
p302
g5
tp303
a(S'weight'
p304
S'weight'
p305
S'NN'
p306
S'B-NP'
p307
g5
tp308
a(S'gain'
p309
S'gain'
p310
S'NN'
p311
S'I-NP'
p312
g5
tp313
a(S'was'
p314
S'be'
p315
S'VBD'
p316
S'B-VP'
p317
g5
tp318
a(S'8'
p319
g319
S'CD'
p320
S'B-NP'
p321
g5
tp322
a(S'per'
p323
S'per'
p324
S'IN'
p325
S'B-PP'
p326
g5
tp327
a(S'cent'
p328
S'cent'
p329
S'NN'
p330
S'B-NP'
p331
g5
tp332
a(S'greater'
p333
S'great'
p334
S'JJR'
p335
S'B-ADJP'
p336
g5
tp337
a(S'for'
p338
S'for'
p339
S'IN'
p340
S'B-PP'
p341
g5
tp342
a(S'those'
p343
S'those'
p344
S'DT'
p345
S'B-NP'
p346
g5
tp347
a(S'receiving'
p348
S'receive'
p349
S'VBG'
p350
S'I-NP'
p351
g5
tp352
a(S'levamisole'
p353
S'levamisole'
p354
S'NN'
p355
S'I-NP'
p356
g5
tp357
a(S'than'
p358
S'than'
p359
S'IN'
p360
S'B-PP'
p361
g5
tp362
a(S'for'
p363
S'for'
p364
S'IN'
p365
S'B-PP'
p366
g5
tp367
a(S'placebo-treated'
p368
S'placebo-treated'
p369
S'JJ'
p370
S'B-NP'
p371
g5
tp372
a(S'controls'
p373
S'control'
p374
S'NNS'
p375
S'I-NP'
p376
g5
tp377
a(S'('
p378
g378
g378
g5
g5
tp379
a(S'p'
p380
g380
S'NN'
p381
S'B-NP'
p382
g5
tp383
a(S'='
p384
g384
S'SYM'
p385
S'B-VP'
p386
g5
tp387
a(S'.06'
p388
S'.06'
p389
S'CD'
p390
S'B-NP'
p391
g5
tp392
a(S')'
p393
g393
g393
g5
g5
tp394
a(g48
g48
g48
g5
g5
tp395
a(S'In'
p396
S'In'
p397
S'IN'
p398
S'B-PP'
p399
g5
tp400
a(S'78'
p401
S'78'
p402
S'CD'
p403
S'B-NP'
p404
g5
tp405
a(S'children'
p406
S'child'
p407
S'NNS'
p408
S'I-NP'
p409
g5
tp410
a(S'known'
p411
S'know'
p412
S'VBN'
p413
S'B-VP'
p414
g5
tp415
a(S'to'
p416
S'to'
p417
S'TO'
p418
S'I-VP'
p419
g5
tp420
a(S'be'
p421
S'be'
p422
S'VB'
p423
S'I-VP'
p424
g5
tp425
a(S'infected'
p426
S'infect'
p427
S'VBN'
p428
S'I-VP'
p429
g5
tp430
a(S'with'
p431
S'with'
p432
S'IN'
p433
S'B-PP'
p434
g5
tp435
a(S'Ascaris'
p436
S'Ascaris'
p437
S'NN'
p438
S'B-NP'
p439
g5
tp440
a(S'at'
p441
S'at'
p442
S'IN'
p443
S'B-PP'
p444
g5
tp445
a(S'baseline'
p446
S'baseline'
p447
S'NN'
p448
S'B-NP'
p449
g5
tp450
a(g287
g287
g287
g5
g5
tp451
a(S'the'
p452
S'the'
p453
S'DT'
p454
S'B-NP'
p455
g5
tp456
a(S'rate'
p457
S'rate'
p458
S'NN'
p459
S'I-NP'
p460
g5
tp461
a(S'of'
p462
S'of'
p463
S'IN'
p464
S'B-PP'
p465
g5
tp466
a(S'weight'
p467
S'weight'
p468
S'NN'
p469
S'B-NP'
p470
g5
tp471
a(S'gain'
p472
S'gain'
p473
S'NN'
p474
S'I-NP'
p475
g5
tp476
a(S'was'
p477
S'be'
p478
S'VBD'
p479
S'B-VP'
p480
g5
tp481
a(S'21'
p482
S'21'
p483
S'CD'
p484
S'B-NP'
p485
g5
tp486
a(S'per'
p487
S'per'
p488
S'IN'
p489
S'B-PP'
p490
g5
tp491
a(S'cent'
p492
S'cent'
p493
S'NN'
p494
S'B-NP'
p495
g5
tp496
a(S'greater'
p497
S'great'
p498
S'JJR'
p499
S'B-ADJP'
p500
g5
tp501
a(S'in'
p502
S'in'
p503
S'IN'
p504
S'B-PP'
p505
g5
tp506
a(S'children'
p507
S'child'
p508
S'NNS'
p509
S'B-NP'
p510
g5
tp511
a(S'treated'
p512
S'treat'
p513
S'VBN'
p514
S'B-VP'
p515
g5
tp516
a(S'with'
p517
S'with'
p518
S'IN'
p519
S'B-PP'
p520
g5
tp521
a(S'levamisole'
p522
S'levamisole'
p523
S'NN'
p524
S'B-NP'
p525
g5
tp526
a(S'than'
p527
S'than'
p528
S'IN'
p529
S'B-PP'
p530
g5
tp531
a(S'in'
p532
S'in'
p533
S'IN'
p534
S'B-PP'
p535
g5
tp536
a(S'those'
p537
S'those'
p538
S'DT'
p539
S'B-NP'
p540
g5
tp541
a(S'receiving'
p542
S'receive'
p543
S'VBG'
p544
S'I-NP'
p545
g5
tp546
a(S'placebo'
p547
S'placebo'
p548
S'NN'
p549
S'I-NP'
p550
g5
tp551
a(g378
g378
g378
g5
g5
tp552
a(g380
g380
S'NN'
p553
S'B-NP'
p554
g5
tp555
a(g384
g384
S'SYM'
p556
S'B-VP'
p557
g5
tp558
a(S'.03'
p559
S'.03'
p560
S'CD'
p561
S'B-NP'
p562
g5
tp563
a(g393
g393
g393
g5
g5
tp564
a(g48
g48
g48
g5
g5
tp565
a(S'The'
p566
S'The'
p567
S'DT'
p568
S'B-NP'
p569
g5
tp570
a(S'rate'
p571
S'rate'
p572
S'NN'
p573
S'I-NP'
p574
g5
tp575
a(S'of'
p576
S'of'
p577
S'IN'
p578
S'B-PP'
p579
g5
tp580
a(S'height'
p581
S'height'
p582
S'NN'
p583
S'B-NP'
p584
g5
tp585
a(S'gain'
p586
S'gain'
p587
S'NN'
p588
S'I-NP'
p589
g5
tp590
a(S'was'
p591
S'be'
p592
S'VBD'
p593
S'B-VP'
p594
g5
tp595
a(S'no'
p596
S'no'
p597
S'DT'
p598
S'B-NP'
p599
g5
tp600
a(S'different'
p601
S'different'
p602
S'JJ'
p603
S'I-NP'
p604
g5
tp605
a(S'for'
p606
S'for'
p607
S'IN'
p608
S'B-PP'
p609
g5
tp610
a(S'treatment'
p611
S'treatment'
p612
S'NN'
p613
S'B-NP'
p614
g5
tp615
a(S'and'
p616
S'and'
p617
S'CC'
p618
S'I-NP'
p619
g5
tp620
a(S'placebo'
p621
S'placebo'
p622
S'NN'
p623
S'I-NP'
p624
g5
tp625
a(S'groups'
p626
S'group'
p627
S'NNS'
p628
S'I-NP'
p629
g5
tp630
a(g48
g48
g48
g5
g5
tp631
a.