(lp0
(S'Study'
p1
S'Study'
p2
S'NN'
p3
S'B-NP'
p4
S'O'
p5
tp6
a(S'protocol'
p7
S'protocol'
p8
S'NN'
p9
S'I-NP'
p10
g5
tp11
a(S':'
p12
g12
g12
g5
g5
tp13
a(S'Rehabilitation'
p14
S'Rehabilitation'
p15
S'NN'
p16
S'B-NP'
p17
g5
tp18
a(S'including'
p19
S'include'
p20
S'VBG'
p21
S'B-PP'
p22
g5
tp23
a(S'Social'
p24
S'Social'
p25
S'JJ'
p26
S'B-NP'
p27
g5
tp28
a(S'and'
p29
S'and'
p30
S'CC'
p31
S'I-NP'
p32
g5
tp33
a(S'Physical'
p34
S'Physical'
p35
S'JJ'
p36
S'I-NP'
p37
g5
tp38
a(S'activity'
p39
S'activity'
p40
S'NN'
p41
S'I-NP'
p42
g5
tp43
a(S'and'
p44
S'and'
p45
S'CC'
p46
S'I-NP'
p47
g5
tp48
a(S'Education'
p49
S'Education'
p50
S'NN'
p51
S'I-NP'
p52
g5
tp53
a(S'in'
p54
S'in'
p55
S'IN'
p56
S'B-PP'
p57
g5
tp58
a(S'Children'
p59
S'Children'
p60
S'NNP'
p61
S'B-NP'
p62
g5
tp63
a(S'and'
p64
S'and'
p65
S'CC'
p66
g5
g5
tp67
a(S'Teenagers'
p68
S'Teenager'
p69
S'NNPS'
p70
S'B-NP'
p71
g5
tp72
a(S'with'
p73
S'with'
p74
S'IN'
p75
S'B-PP'
p76
g5
tp77
a(S'Cancer'
p78
S'Cancer'
p79
S'NN'
p80
S'B-NP'
p81
g5
tp82
a(S'('
p83
g83
g83
g5
g5
tp84
a(S'RESPECT'
p85
S'RESPECT'
p86
S'NN'
p87
S'B-NP'
p88
g5
tp89
a(S')'
p90
g90
g90
g5
g5
tp91
a(S'.'
p92
g92
g92
g5
g5
tp93
a(S'BACKGROUND'
p94
S'BACKGROUND'
p95
S'NN'
p96
S'B-NP'
p97
g5
tp98
a(S'During'
p99
S'During'
p100
S'IN'
p101
S'B-PP'
p102
g5
tp103
a(S'cancer'
p104
S'cancer'
p105
S'NN'
p106
S'B-NP'
p107
g5
tp108
a(S'treatment'
p109
S'treatment'
p110
S'NN'
p111
S'I-NP'
p112
g5
tp113
a(S'children'
p114
S'child'
p115
S'NNS'
p116
S'I-NP'
p117
g5
tp118
a(S'have'
p119
S'have'
p120
S'VBP'
p121
S'B-VP'
p122
g5
tp123
a(S'reduced'
p124
S'reduce'
p125
S'VBN'
p126
S'I-VP'
p127
g5
tp128
a(S'contact'
p129
S'contact'
p130
S'NN'
p131
S'B-NP'
p132
g5
tp133
a(S'with'
p134
S'with'
p135
S'IN'
p136
S'B-PP'
p137
g5
tp138
a(S'their'
p139
S'their'
p140
S'PRP$'
p141
S'B-NP'
p142
g5
tp143
a(S'social'
p144
S'social'
p145
S'JJ'
p146
S'I-NP'
p147
g5
tp148
a(S'network'
p149
S'network'
p150
S'NN'
p151
S'I-NP'
p152
g5
tp153
a(S'of'
p154
S'of'
p155
S'IN'
p156
S'B-PP'
p157
g5
tp158
a(S'friends'
p159
S'friend'
p160
S'NNS'
p161
S'B-NP'
p162
g5
tp163
a(S','
p164
g164
g164
g5
g5
tp165
a(S'and'
p166
S'and'
p167
S'CC'
p168
g5
g5
tp169
a(S'have'
p170
S'have'
p171
S'VBP'
p172
S'B-VP'
p173
g5
tp174
a(S'limited'
p175
S'limit'
p176
S'VBN'
p177
S'I-VP'
p178
g5
tp179
a(S'participation'
p180
S'participation'
p181
S'NN'
p182
S'B-NP'
p183
g5
tp184
a(S'in'
p185
S'in'
p186
S'IN'
p187
S'B-PP'
p188
g5
tp189
a(S'education'
p190
S'education'
p191
S'NN'
p192
S'B-NP'
p193
g5
tp194
a(g164
g164
g164
g5
g5
tp195
a(S'sports'
p196
S'sport'
p197
S'NNS'
p198
S'B-NP'
p199
g5
tp200
a(g164
g164
g164
g5
g5
tp201
a(S'and'
p202
S'and'
p203
S'CC'
p204
g5
g5
tp205
a(S'leisure'
p206
S'leisure'
p207
S'NN'
p208
S'B-NP'
p209
g5
tp210
a(S'activities.'
p211
S'activities.'
p212
S'NN'
p213
S'I-NP'
p214
g5
tp215
a(S'During'
p216
S'During'
p217
S'IN'
p218
S'B-ADVP'
p219
g5
tp220
a(S'and'
p221
S'and'
p222
S'CC'
p223
g5
g5
tp224
a(S'following'
p225
S'follow'
p226
S'VBG'
p227
S'B-PP'
p228
g5
tp229
a(S'cancer'
p230
S'cancer'
p231
S'NN'
p232
S'B-NP'
p233
g5
tp234
a(S'treatment'
p235
S'treatment'
p236
S'NN'
p237
S'I-NP'
p238
g5
tp239
a(g164
g164
g164
g5
g5
tp240
a(S'children'
p241
S'child'
p242
S'NNS'
p243
S'B-NP'
p244
g5
tp245
a(S'describe'
p246
S'describe'
p247
S'VBP'
p248
S'B-VP'
p249
g5
tp250
a(S'school'
p251
S'school'
p252
S'NN'
p253
S'B-NP'
p254
g5
tp255
a(S'related'
p256
S'related'
p257
S'JJ'
p258
S'I-NP'
p259
g5
tp260
a(S'problems'
p261
S'problem'
p262
S'NNS'
p263
S'I-NP'
p264
g5
tp265
a(g164
g164
g164
g5
g5
tp266
a(S'reduced'
p267
S'reduce'
p268
S'VBD'
p269
S'B-VP'
p270
g5
tp271
a(S'physical'
p272
S'physical'
p273
S'JJ'
p274
S'B-NP'
p275
g5
tp276
a(S'fitness'
p277
S'fitness'
p278
S'NN'
p279
S'I-NP'
p280
g5
tp281
a(g164
g164
g164
g5
g5
tp282
a(S'and'
p283
S'and'
p284
S'CC'
p285
g5
g5
tp286
a(S'problems'
p287
S'problem'
p288
S'NNS'
p289
S'B-NP'
p290
g5
tp291
a(S'related'
p292
S'relate'
p293
S'VBN'
p294
S'B-ADJP'
p295
g5
tp296
a(S'to'
p297
S'to'
p298
S'TO'
p299
S'B-PP'
p300
g5
tp301
a(S'interaction'
p302
S'interaction'
p303
S'NN'
p304
S'B-NP'
p305
g5
tp306
a(S'with'
p307
S'with'
p308
S'IN'
p309
S'B-PP'
p310
g5
tp311
a(S'peers'
p312
S'peer'
p313
S'NNS'
p314
S'B-NP'
p315
g5
tp316
a(g92
g92
g92
g5
g5
tp317
a(S'METHODS/DESIGN'
p318
S'METHODS/DESIGN'
p319
S'PDT'
p320
S'B-NP'
p321
g5
tp322
a(S'The'
p323
S'The'
p324
S'DT'
p325
S'I-NP'
p326
g5
tp327
a(S'RESPECT'
p328
S'RESPECT'
p329
S'NN'
p330
S'I-NP'
p331
g5
tp332
a(S'study'
p333
S'study'
p334
S'NN'
p335
S'I-NP'
p336
g5
tp337
a(S'is'
p338
S'be'
p339
S'VBZ'
p340
S'B-VP'
p341
g5
tp342
a(S'a'
p343
g343
S'DT'
p344
S'B-NP'
p345
g5
tp346
a(S'nationwide'
p347
S'nationwide'
p348
S'JJ'
p349
S'I-NP'
p350
g5
tp351
a(S'population-based'
p352
S'population-based'
p353
S'JJ'
p354
S'I-NP'
p355
g5
tp356
a(S'prospective'
p357
S'prospective'
p358
S'NN'
p359
S'I-NP'
p360
g5
tp361
a(g164
g164
g164
g5
g5
tp362
a(S'controlled'
p363
S'control'
p364
S'VBN'
p365
S'B-VP'
p366
g5
tp367
a(g164
g164
g164
g5
g5
tp368
a(S'mixed-methods'
p369
S'mixed-method'
p370
S'NNS'
p371
S'B-NP'
p372
g5
tp373
a(S'intervention'
p374
S'intervention'
p375
S'NN'
p376
S'I-NP'
p377
g5
tp378
a(S'study'
p379
S'study'
p380
S'NN'
p381
S'I-NP'
p382
g5
tp383
a(S'looking'
p384
S'look'
p385
S'VBG'
p386
S'B-VP'
p387
g5
tp388
a(S'at'
p389
S'at'
p390
S'IN'
p391
S'B-PP'
p392
g5
tp393
a(S'children'
p394
S'child'
p395
S'NNS'
p396
S'B-NP'
p397
g5
tp398
a(S'aged'
p399
S'age'
p400
S'VBN'
p401
S'B-VP'
p402
g5
tp403
a(S'6-18'
p404
S'6-18'
p405
S'CD'
p406
S'B-NP'
p407
g5
tp408
a(S'years'
p409
S'year'
p410
S'NNS'
p411
S'I-NP'
p412
g5
tp413
a(S'newly'
p414
S'newly'
p415
S'RB'
p416
S'B-VP'
p417
g5
tp418
a(S'diagnosed'
p419
S'diagnose'
p420
S'VBN'
p421
S'I-VP'
p422
g5
tp423
a(S'with'
p424
S'with'
p425
S'IN'
p426
S'B-PP'
p427
g5
tp428
a(S'cancer'
p429
S'cancer'
p430
S'NN'
p431
S'B-NP'
p432
g5
tp433
a(S'in'
p434
S'in'
p435
S'IN'
p436
S'B-PP'
p437
g5
tp438
a(S'eastern'
p439
S'eastern'
p440
S'JJ'
p441
S'B-NP'
p442
g5
tp443
a(S'Denmark'
p444
S'Denmark'
p445
S'NN'
p446
S'I-NP'
p447
g5
tp448
a(g83
g83
g83
g5
g5
tp449
a(S'n=120'
p450
S'n=120'
p451
S'NN'
p452
S'B-NP'
p453
S'B-protein'
p454
tp455
a(g90
g90
g90
g5
g5
tp456
a(S'and'
p457
S'and'
p458
S'CC'
p459
g5
g5
tp460
a(g343
g343
S'DT'
p461
S'B-NP'
p462
g5
tp463
a(S'matched'
p464
S'match'
p465
S'VBN'
p466
S'I-NP'
p467
g5
tp468
a(S'control'
p469
S'control'
p470
S'NN'
p471
S'I-NP'
p472
g5
tp473
a(S'group'
p474
S'group'
p475
S'NN'
p476
S'I-NP'
p477
g5
tp478
a(S'in'
p479
S'in'
p480
S'IN'
p481
S'B-PP'
p482
g5
tp483
a(S'western'
p484
S'western'
p485
S'JJ'
p486
S'B-NP'
p487
g5
tp488
a(S'Denmark'
p489
S'Denmark'
p490
S'NN'
p491
S'I-NP'
p492
g5
tp493
a(g83
g83
g83
g5
g5
tp494
a(S'n=120'
p495
S'n=120'
p496
S'NN'
p497
S'B-NP'
p498
g5
tp499
a(g90
g90
g90
g5
g5
tp500
a(g92
g92
g92
g5
g5
tp501
a(S'RESPECT'
p502
S'RESPECT'
p503
S'NN'
p504
S'B-NP'
p505
g5
tp506
a(S'includes'
p507
S'include'
p508
S'VBZ'
p509
S'B-VP'
p510
g5
tp511
a(S'Danish-speaking'
p512
S'Danish-speaking'
p513
S'JJ'
p514
S'B-NP'
p515
g5
tp516
a(S'children'
p517
S'child'
p518
S'NNS'
p519
S'I-NP'
p520
g5
tp521
a(S'diagnosed'
p522
S'diagnose'
p523
S'VBN'
p524
S'B-VP'
p525
g5
tp526
a(S'with'
p527
S'with'
p528
S'IN'
p529
S'B-PP'
p530
g5
tp531
a(S'cancer'
p532
S'cancer'
p533
S'NN'
p534
S'B-NP'
p535
g5
tp536
a(S'and'
p537
S'and'
p538
S'CC'
p539
g5
g5
tp540
a(S'treated'
p541
S'treat'
p542
S'VBN'
p543
S'B-VP'
p544
g5
tp545
a(S'at'
p546
S'at'
p547
S'IN'
p548
S'B-PP'
p549
g5
tp550
a(S'pediatric'
p551
S'pediatric'
p552
S'JJ'
p553
S'B-NP'
p554
S'B-protein'
p555
tp556
a(S'oncology'
p557
S'oncology'
p558
S'NN'
p559
S'I-NP'
p560
S'I-protein'
p561
tp562
a(S'units'
p563
S'unit'
p564
S'NNS'
p565
S'I-NP'
p566
S'I-protein'
p567
tp568
a(S'in'
p569
S'in'
p570
S'IN'
p571
S'B-PP'
p572
g5
tp573
a(S'Denmark.'
p574
S'Denmark.'
p575
S'NNP'
p576
S'B-NP'
p577
g5
tp578
a(S'Primary'
p579
S'Primary'
p580
S'NNP'
p581
S'I-NP'
p582
g5
tp583
a(S'endpoints'
p584
S'endpoint'
p585
S'NNS'
p586
S'I-NP'
p587
g5
tp588
a(S'are'
p589
S'be'
p590
S'VBP'
p591
S'B-VP'
p592
g5
tp593
a(S'the'
p594
S'the'
p595
S'DT'
p596
S'B-NP'
p597
g5
tp598
a(S'level'
p599
S'level'
p600
S'NN'
p601
S'I-NP'
p602
g5
tp603
a(S'of'
p604
S'of'
p605
S'IN'
p606
S'B-PP'
p607
g5
tp608
a(S'educational'
p609
S'educational'
p610
S'JJ'
p611
S'B-NP'
p612
g5
tp613
a(S'achievement'
p614
S'achievement'
p615
S'NN'
p616
S'I-NP'
p617
g5
tp618
a(S'one'
p619
S'one'
p620
S'CD'
p621
S'B-NP'
p622
g5
tp623
a(S'year'
p624
S'year'
p625
S'NN'
p626
S'I-NP'
p627
g5
tp628
a(S'after'
p629
S'after'
p630
S'IN'
p631
S'B-PP'
p632
g5
tp633
a(S'the'
p634
S'the'
p635
S'DT'
p636
S'B-NP'
p637
g5
tp638
a(S'cessation'
p639
S'cessation'
p640
S'NN'
p641
S'I-NP'
p642
g5
tp643
a(S'of'
p644
S'of'
p645
S'IN'
p646
S'B-PP'
p647
g5
tp648
a(S'first-line'
p649
S'first-line'
p650
S'JJ'
p651
S'B-NP'
p652
g5
tp653
a(S'cancer'
p654
S'cancer'
p655
S'NN'
p656
S'I-NP'
p657
g5
tp658
a(S'therapy'
p659
S'therapy'
p660
S'NN'
p661
S'I-NP'
p662
g5
tp663
a(g164
g164
g164
g5
g5
tp664
a(S'and'
p665
S'and'
p666
S'CC'
p667
g5
g5
tp668
a(S'the'
p669
S'the'
p670
S'DT'
p671
S'B-NP'
p672
g5
tp673
a(S'value'
p674
S'value'
p675
S'NN'
p676
S'I-NP'
p677
g5
tp678
a(S'of'
p679
S'of'
p680
S'IN'
p681
S'B-PP'
p682
g5
tp683
a(S'VO2max'
p684
S'VO2max'
p685
S'NN'
p686
S'B-NP'
p687
g5
tp688
a(S'one'
p689
S'one'
p690
S'CD'
p691
S'I-NP'
p692
g5
tp693
a(S'year'
p694
S'year'
p695
S'NN'
p696
S'I-NP'
p697
g5
tp698
a(S'after'
p699
S'after'
p700
S'IN'
p701
S'B-PP'
p702
g5
tp703
a(S'the'
p704
S'the'
p705
S'DT'
p706
S'B-NP'
p707
g5
tp708
a(S'cessation'
p709
S'cessation'
p710
S'NN'
p711
S'I-NP'
p712
g5
tp713
a(S'of'
p714
S'of'
p715
S'IN'
p716
S'B-PP'
p717
g5
tp718
a(S'first-line'
p719
S'first-line'
p720
S'JJ'
p721
S'B-NP'
p722
g5
tp723
a(S'cancer'
p724
S'cancer'
p725
S'NN'
p726
S'I-NP'
p727
g5
tp728
a(S'therapy.'
p729
S'therapy.'
p730
S'IN'
p731
S'B-PP'
p732
g5
tp733
a(S'Secondary'
p734
S'Secondary'
p735
S'JJ'
p736
S'B-NP'
p737
g5
tp738
a(S'endpoints'
p739
S'endpoint'
p740
S'NNS'
p741
S'I-NP'
p742
g5
tp743
a(S'are'
p744
S'be'
p745
S'VBP'
p746
S'B-VP'
p747
g5
tp748
a(S'quality'
p749
S'quality'
p750
S'NN'
p751
S'B-NP'
p752
g5
tp753
a(S'of'
p754
S'of'
p755
S'IN'
p756
S'B-PP'
p757
g5
tp758
a(S'life'
p759
S'life'
p760
S'NN'
p761
S'B-NP'
p762
g5
tp763
a(S'measured'
p764
S'measure'
p765
S'VBN'
p766
S'B-VP'
p767
g5
tp768
a(S'by'
p769
S'by'
p770
S'IN'
p771
S'B-PP'
p772
g5
tp773
a(S'validated'
p774
S'validate'
p775
S'VBN'
p776
S'B-NP'
p777
g5
tp778
a(S'questionnaires'
p779
S'questionnaire'
p780
S'NNS'
p781
S'I-NP'
p782
g5
tp783
a(S'and'
p784
S'and'
p785
S'CC'
p786
S'I-NP'
p787
g5
tp788
a(S'interviews'
p789
S'interview'
p790
S'NNS'
p791
S'I-NP'
p792
g5
tp793
a(g164
g164
g164
g5
g5
tp794
a(S'and'
p795
S'and'
p796
S'CC'
p797
g5
g5
tp798
a(S'physical'
p799
S'physical'
p800
S'JJ'
p801
S'B-NP'
p802
g5
tp803
a(S'performance.'
p804
S'performance.'
p805
S'NN'
p806
S'I-NP'
p807
g5
tp808
a(S'RESPECT'
p809
S'RESPECT'
p810
S'NN'
p811
S'I-NP'
p812
g5
tp813
a(S'includes'
p814
S'include'
p815
S'VBZ'
p816
S'B-VP'
p817
g5
tp818
a(g343
g343
S'DT'
p819
S'B-NP'
p820
g5
tp821
a(S'multimodal'
p822
S'multimodal'
p823
S'JJ'
p824
S'I-NP'
p825
g5
tp826
a(S'intervention'
p827
S'intervention'
p828
S'NN'
p829
S'I-NP'
p830
g5
tp831
a(S'program'
p832
S'program'
p833
S'NN'
p834
S'I-NP'
p835
g5
tp836
a(g164
g164
g164
g5
g5
tp837
a(S'including'
p838
S'include'
p839
S'VBG'
p840
S'B-PP'
p841
g5
tp842
a(S'ambassador-facilitated'
p843
S'ambassador-facilitated'
p844
S'JJ'
p845
S'B-NP'
p846
g5
tp847
a(S'educational'
p848
S'educational'
p849
S'JJ'
p850
S'I-NP'
p851
g5
tp852
a(g164
g164
g164
S'I-NP'
p853
g5
tp854
a(S'physical'
p855
S'physical'
p856
S'JJ'
p857
S'I-NP'
p858
g5
tp859
a(g164
g164
g164
g5
g5
tp860
a(S'and'
p861
S'and'
p862
S'CC'
p863
g5
g5
tp864
a(S'social'
p865
S'social'
p866
S'JJ'
p867
S'B-NP'
p868
g5
tp869
a(S'interventions.'
p870
S'interventions.'
p871
S'NN'
p872
S'I-NP'
p873
g5
tp874
a(S'The'
p875
S'The'
p876
S'DT'
p877
S'B-NP'
p878
g5
tp879
a(S'educational'
p880
S'educational'
p881
S'JJ'
p882
S'I-NP'
p883
g5
tp884
a(S'intervention'
p885
S'intervention'
p886
S'NN'
p887
S'I-NP'
p888
g5
tp889
a(S'includes'
p890
S'include'
p891
S'VBZ'
p892
S'B-VP'
p893
g5
tp894
a(S'an'
p895
S'an'
p896
S'DT'
p897
S'B-NP'
p898
g5
tp899
a(S'educational'
p900
S'educational'
p901
S'JJ'
p902
S'I-NP'
p903
g5
tp904
a(S'program'
p905
S'program'
p906
S'NN'
p907
S'I-NP'
p908
g5
tp909
a(S'aimed'
p910
S'aim'
p911
S'VBN'
p912
S'B-VP'
p913
g5
tp914
a(S'at'
p915
S'at'
p916
S'IN'
p917
S'B-PP'
p918
g5
tp919
a(S'the'
p920
S'the'
p921
S'DT'
p922
S'B-NP'
p923
g5
tp924
a(S'child'
p925
S'child'
p926
S'NN'
p927
S'I-NP'
p928
g5
tp929
a(S'with'
p930
S'with'
p931
S'IN'
p932
S'B-PP'
p933
g5
tp934
a(S'cancer'
p935
S'cancer'
p936
S'NN'
p937
S'B-NP'
p938
g5
tp939
a(g164
g164
g164
g5
g5
tp940
a(S'the'
p941
S'the'
p942
S'DT'
p943
S'B-NP'
p944
g5
tp945
a(S'child'
p946
S'child'
p947
S'NN'
p948
S'I-NP'
p949
g5
tp950
a(S"'s"
p951
S"'s"
p952
S'POS'
p953
S'B-NP'
p954
g5
tp955
a(S'schoolteachers'
p956
S'schoolteacher'
p957
S'NNS'
p958
S'I-NP'
p959
g5
tp960
a(S'and'
p961
S'and'
p962
S'CC'
p963
S'I-NP'
p964
g5
tp965
a(S'classmates'
p966
S'classmate'
p967
S'NNS'
p968
S'I-NP'
p969
g5
tp970
a(g164
g164
g164
g5
g5
tp971
a(S'and'
p972
S'and'
p973
S'CC'
p974
g5
g5
tp975
a(S'the'
p976
S'the'
p977
S'DT'
p978
S'B-NP'
p979
g5
tp980
a(S'child'
p981
S'child'
p982
S'NN'
p983
S'I-NP'
p984
g5
tp985
a(S"'s"
p986
S"'s"
p987
S'POS'
p988
S'B-NP'
p989
g5
tp990
a(S'parents.'
p991
S'parents.'
p992
S'NN'
p993
S'I-NP'
p994
g5
tp995
a(S'Children'
p996
S'Children'
p997
S'NN'
p998
S'I-NP'
p999
g5
tp1000
a(S'with'
p1001
S'with'
p1002
S'IN'
p1003
S'B-PP'
p1004
g5
tp1005
a(S'cancer'
p1006
S'cancer'
p1007
S'NN'
p1008
S'B-NP'
p1009
g5
tp1010
a(S'will'
p1011
S'will'
p1012
S'MD'
p1013
S'B-VP'
p1014
g5
tp1015
a(S'each'
p1016
S'each'
p1017
S'DT'
p1018
S'B-NP'
p1019
g5
tp1020
a(S'have'
p1021
S'have'
p1022
S'VB'
p1023
S'B-VP'
p1024
g5
tp1025
a(S'two'
p1026
S'two'
p1027
S'CD'
p1028
S'B-NP'
p1029
g5
tp1030
a(S'ambassadors'
p1031
S'ambassador'
p1032
S'NNS'
p1033
S'I-NP'
p1034
g5
tp1035
a(S'assigned'
p1036
S'assign'
p1037
S'VBN'
p1038
S'B-VP'
p1039
g5
tp1040
a(S'from'
p1041
S'from'
p1042
S'IN'
p1043
S'B-PP'
p1044
g5
tp1045
a(S'their'
p1046
S'their'
p1047
S'PRP$'
p1048
S'B-NP'
p1049
g5
tp1050
a(S'class.'
p1051
S'class.'
p1052
S'NNS'
p1053
S'I-NP'
p1054
g5
tp1055
a(S'The'
p1056
S'The'
p1057
S'DT'
p1058
S'B-NP'
p1059
g5
tp1060
a(S'ambassadors'
p1061
S'ambassador'
p1062
S'NNS'
p1063
S'I-NP'
p1064
g5
tp1065
a(S'visit'
p1066
S'visit'
p1067
S'VBP'
p1068
S'B-VP'
p1069
g5
tp1070
a(S'the'
p1071
S'the'
p1072
S'DT'
p1073
S'B-NP'
p1074
g5
tp1075
a(S'child'
p1076
S'child'
p1077
S'NN'
p1078
S'I-NP'
p1079
g5
tp1080
a(S'with'
p1081
S'with'
p1082
S'IN'
p1083
S'B-PP'
p1084
g5
tp1085
a(S'cancer'
p1086
S'cancer'
p1087
S'NN'
p1088
S'B-NP'
p1089
g5
tp1090
a(S'at'
p1091
S'at'
p1092
S'IN'
p1093
S'B-PP'
p1094
g5
tp1095
a(S'the'
p1096
S'the'
p1097
S'DT'
p1098
S'B-NP'
p1099
g5
tp1100
a(S'hospital'
p1101
S'hospital'
p1102
S'NN'
p1103
S'I-NP'
p1104
g5
tp1105
a(S'at'
p1106
S'at'
p1107
S'IN'
p1108
S'B-PP'
p1109
g5
tp1110
a(S'alternating'
p1111
S'alternate'
p1112
S'VBG'
p1113
S'B-VP'
p1114
g5
tp1115
a(S'2-week'
p1116
S'2-week'
p1117
S'JJ'
p1118
S'B-NP'
p1119
g5
tp1120
a(S'intervals'
p1121
S'interval'
p1122
S'NNS'
p1123
S'I-NP'
p1124
g5
tp1125
a(S'and'
p1126
S'and'
p1127
S'CC'
p1128
g5
g5
tp1129
a(S'participate'
p1130
S'participate'
p1131
S'VB'
p1132
S'B-VP'
p1133
g5
tp1134
a(S'in'
p1135
S'in'
p1136
S'IN'
p1137
S'B-PP'
p1138
g5
tp1139
a(S'the'
p1140
S'the'
p1141
S'DT'
p1142
S'B-NP'
p1143
g5
tp1144
a(S'intervention'
p1145
S'intervention'
p1146
S'NN'
p1147
S'I-NP'
p1148
g5
tp1149
a(S'program.'
p1150
S'program.'
p1151
S'NN'
p1152
S'I-NP'
p1153
g5
tp1154
a(S'The'
p1155
S'The'
p1156
S'DT'
p1157
S'B-NP'
p1158
g5
tp1159
a(S'physical'
p1160
S'physical'
p1161
S'JJ'
p1162
S'I-NP'
p1163
g5
tp1164
a(S'and'
p1165
S'and'
p1166
S'CC'
p1167
S'I-NP'
p1168
g5
tp1169
a(S'social'
p1170
S'social'
p1171
S'JJ'
p1172
S'I-NP'
p1173
g5
tp1174
a(S'intervention'
p1175
S'intervention'
p1176
S'NN'
p1177
S'I-NP'
p1178
g5
tp1179
a(S'examines'
p1180
S'examine'
p1181
S'VBZ'
p1182
S'B-VP'
p1183
g5
tp1184
a(S'the'
p1185
S'the'
p1186
S'DT'
p1187
S'B-NP'
p1188
g5
tp1189
a(S'effect'
p1190
S'effect'
p1191
S'NN'
p1192
S'I-NP'
p1193
g5
tp1194
a(S'of'
p1195
S'of'
p1196
S'IN'
p1197
S'B-PP'
p1198
g5
tp1199
a(S'early'
p1200
S'early'
p1201
S'JJ'
p1202
S'B-NP'
p1203
g5
tp1204
a(g164
g164
g164
S'I-NP'
p1205
g5
tp1206
a(S'structured'
p1207
S'structure'
p1208
S'VBN'
p1209
S'B-VP'
p1210
g5
tp1211
a(g164
g164
g164
g5
g5
tp1212
a(S'individualized'
p1213
S'individualize'
p1214
S'VBN'
p1215
S'B-VP'
p1216
g5
tp1217
a(g164
g164
g164
g5
g5
tp1218
a(S'and'
p1219
S'and'
p1220
S'CC'
p1221
g5
g5
tp1222
a(S'continuous'
p1223
S'continuous'
p1224
S'JJ'
p1225
S'B-NP'
p1226
g5
tp1227
a(S'physical'
p1228
S'physical'
p1229
S'JJ'
p1230
S'I-NP'
p1231
g5
tp1232
a(S'activity'
p1233
S'activity'
p1234
S'NN'
p1235
S'I-NP'
p1236
g5
tp1237
a(S'from'
p1238
S'from'
p1239
S'IN'
p1240
S'B-PP'
p1241
g5
tp1242
a(S'diagnosis'
p1243
S'diagnosis'
p1244
S'NN'
p1245
S'B-NP'
p1246
g5
tp1247
a(S'throughout'
p1248
S'throughout'
p1249
S'IN'
p1250
S'B-PP'
p1251
g5
tp1252
a(S'the'
p1253
S'the'
p1254
S'DT'
p1255
S'B-NP'
p1256
g5
tp1257
a(S'treatment'
p1258
S'treatment'
p1259
S'NN'
p1260
S'I-NP'
p1261
g5
tp1262
a(S'period.'
p1263
S'period.'
p1264
S'IN'
p1265
S'B-PP'
p1266
g5
tp1267
a(S'The'
p1268
S'The'
p1269
S'DT'
p1270
S'B-NP'
p1271
g5
tp1272
a(S'patients'
p1273
S'patient'
p1274
S'NNS'
p1275
S'I-NP'
p1276
g5
tp1277
a(S'are'
p1278
S'be'
p1279
S'VBP'
p1280
S'B-VP'
p1281
g5
tp1282
a(S'tested'
p1283
S'test'
p1284
S'VBN'
p1285
S'I-VP'
p1286
g5
tp1287
a(S'at'
p1288
S'at'
p1289
S'IN'
p1290
S'B-PP'
p1291
g5
tp1292
a(S'diagnosis'
p1293
S'diagnosis'
p1294
S'NN'
p1295
S'B-NP'
p1296
g5
tp1297
a(g164
g164
g164
g5
g5
tp1298
a(S'at'
p1299
S'at'
p1300
S'IN'
p1301
S'B-PP'
p1302
g5
tp1303
a(S'3'
p1304
g1304
S'CD'
p1305
S'B-NP'
p1306
g5
tp1307
a(S'and'
p1308
S'and'
p1309
S'CC'
p1310
S'I-NP'
p1311
g5
tp1312
a(S'6'
p1313
g1313
S'CD'
p1314
S'I-NP'
p1315
g5
tp1316
a(S'months'
p1317
S'month'
p1318
S'NNS'
p1319
S'I-NP'
p1320
g5
tp1321
a(S'after'
p1322
S'after'
p1323
S'IN'
p1324
S'B-PP'
p1325
g5
tp1326
a(S'diagnosis'
p1327
S'diagnosis'
p1328
S'NN'
p1329
S'B-NP'
p1330
g5
tp1331
a(g164
g164
g164
g5
g5
tp1332
a(S'and'
p1333
S'and'
p1334
S'CC'
p1335
g5
g5
tp1336
a(S'one'
p1337
S'one'
p1338
S'CD'
p1339
S'B-NP'
p1340
g5
tp1341
a(S'year'
p1342
S'year'
p1343
S'NN'
p1344
S'I-NP'
p1345
g5
tp1346
a(S'after'
p1347
S'after'
p1348
S'IN'
p1349
S'B-PP'
p1350
g5
tp1351
a(S'the'
p1352
S'the'
p1353
S'DT'
p1354
S'B-NP'
p1355
g5
tp1356
a(S'cessation'
p1357
S'cessation'
p1358
S'NN'
p1359
S'I-NP'
p1360
g5
tp1361
a(S'of'
p1362
S'of'
p1363
S'IN'
p1364
S'B-PP'
p1365
g5
tp1366
a(S'treatment.'
p1367
S'treatment.'
p1368
S'NN'
p1369
S'B-NP'
p1370
g5
tp1371
a(S'The'
p1372
S'The'
p1373
S'DT'
p1374
S'B-NP'
p1375
g5
tp1376
a(S'study'
p1377
S'study'
p1378
S'NN'
p1379
S'I-NP'
p1380
g5
tp1381
a(S'is'
p1382
S'be'
p1383
S'VBZ'
p1384
S'B-VP'
p1385
g5
tp1386
a(S'powered'
p1387
S'power'
p1388
S'VBN'
p1389
S'I-VP'
p1390
g5
tp1391
a(S'to'
p1392
S'to'
p1393
S'TO'
p1394
S'I-VP'
p1395
g5
tp1396
a(S'quantify'
p1397
S'quantify'
p1398
S'VB'
p1399
S'I-VP'
p1400
g5
tp1401
a(S'the'
p1402
S'the'
p1403
S'DT'
p1404
S'B-NP'
p1405
g5
tp1406
a(S'impact'
p1407
S'impact'
p1408
S'NN'
p1409
S'I-NP'
p1410
g5
tp1411
a(S'of'
p1412
S'of'
p1413
S'IN'
p1414
S'B-PP'
p1415
g5
tp1416
a(S'the'
p1417
S'the'
p1418
S'DT'
p1419
S'B-NP'
p1420
g5
tp1421
a(S'combined'
p1422
S'combined'
p1423
S'JJ'
p1424
S'I-NP'
p1425
g5
tp1426
a(S'educational'
p1427
S'educational'
p1428
S'JJ'
p1429
S'I-NP'
p1430
g5
tp1431
a(g164
g164
g164
S'I-NP'
p1432
g5
tp1433
a(S'physical'
p1434
S'physical'
p1435
S'JJ'
p1436
S'I-NP'
p1437
g5
tp1438
a(g164
g164
g164
S'I-NP'
p1439
g5
tp1440
a(S'and'
p1441
S'and'
p1442
S'CC'
p1443
S'I-NP'
p1444
g5
tp1445
a(S'social'
p1446
S'social'
p1447
S'JJ'
p1448
S'I-NP'
p1449
g5
tp1450
a(S'intervention'
p1451
S'intervention'
p1452
S'NN'
p1453
S'I-NP'
p1454
g5
tp1455
a(S'programs'
p1456
S'program'
p1457
S'NNS'
p1458
S'I-NP'
p1459
g5
tp1460
a(g92
g92
g92
g5
g5
tp1461
a(S'DISCUSSION'
p1462
S'DISCUSSION'
p1463
S'NN'
p1464
S'B-NP'
p1465
g5
tp1466
a(S'RESPECT'
p1467
S'RESPECT'
p1468
S'NN'
p1469
S'I-NP'
p1470
g5
tp1471
a(S'is'
p1472
S'be'
p1473
S'VBZ'
p1474
S'B-VP'
p1475
g5
tp1476
a(S'the'
p1477
S'the'
p1478
S'DT'
p1479
S'B-NP'
p1480
g5
tp1481
a(S'first'
p1482
S'first'
p1483
S'JJ'
p1484
S'I-NP'
p1485
g5
tp1486
a(S'population-based'
p1487
S'population-based'
p1488
S'JJ'
p1489
S'I-NP'
p1490
g5
tp1491
a(S'study'
p1492
S'study'
p1493
S'NN'
p1494
S'I-NP'
p1495
g5
tp1496
a(S'to'
p1497
S'to'
p1498
S'TO'
p1499
S'B-VP'
p1500
g5
tp1501
a(S'examine'
p1502
S'examine'
p1503
S'VB'
p1504
S'I-VP'
p1505
g5
tp1506
a(S'the'
p1507
S'the'
p1508
S'DT'
p1509
S'B-NP'
p1510
g5
tp1511
a(S'effect'
p1512
S'effect'
p1513
S'NN'
p1514
S'I-NP'
p1515
g5
tp1516
a(S'of'
p1517
S'of'
p1518
S'IN'
p1519
S'B-PP'
p1520
g5
tp1521
a(S'early'
p1522
S'early'
p1523
S'JJ'
p1524
S'B-NP'
p1525
g5
tp1526
a(S'rehabilitation'
p1527
S'rehabilitation'
p1528
S'NN'
p1529
S'I-NP'
p1530
g5
tp1531
a(S'for'
p1532
S'for'
p1533
S'IN'
p1534
S'B-PP'
p1535
g5
tp1536
a(S'children'
p1537
S'child'
p1538
S'NNS'
p1539
S'B-NP'
p1540
g5
tp1541
a(S'with'
p1542
S'with'
p1543
S'IN'
p1544
S'B-PP'
p1545
g5
tp1546
a(S'cancer'
p1547
S'cancer'
p1548
S'NN'
p1549
S'B-NP'
p1550
g5
tp1551
a(g164
g164
g164
g5
g5
tp1552
a(S'and'
p1553
S'and'
p1554
S'CC'
p1555
g5
g5
tp1556
a(S'to'
p1557
S'to'
p1558
S'TO'
p1559
S'B-VP'
p1560
g5
tp1561
a(S'use'
p1562
S'use'
p1563
S'VB'
p1564
S'I-VP'
p1565
g5
tp1566
a(S'healthy'
p1567
S'healthy'
p1568
S'JJ'
p1569
S'B-NP'
p1570
g5
tp1571
a(S'classmates'
p1572
S'classmate'
p1573
S'NNS'
p1574
S'I-NP'
p1575
g5
tp1576
a(S'as'
p1577
S'as'
p1578
S'IN'
p1579
S'B-SBAR'
p1580
g5
tp1581
a(S'ambassadors'
p1582
S'ambassador'
p1583
S'NNS'
p1584
S'B-NP'
p1585
g5
tp1586
a(S'to'
p1587
S'to'
p1588
S'TO'
p1589
S'B-VP'
p1590
g5
tp1591
a(S'facilitate'
p1592
S'facilitate'
p1593
S'VB'
p1594
S'I-VP'
p1595
g5
tp1596
a(S'the'
p1597
S'the'
p1598
S'DT'
p1599
S'B-NP'
p1600
g5
tp1601
a(S'normalization'
p1602
S'normalization'
p1603
S'NN'
p1604
S'I-NP'
p1605
g5
tp1606
a(S'of'
p1607
S'of'
p1608
S'IN'
p1609
S'B-PP'
p1610
g5
tp1611
a(S'social'
p1612
S'social'
p1613
S'JJ'
p1614
S'B-NP'
p1615
g5
tp1616
a(S'life'
p1617
S'life'
p1618
S'NN'
p1619
S'I-NP'
p1620
g5
tp1621
a(S'in'
p1622
S'in'
p1623
S'IN'
p1624
S'B-PP'
p1625
g5
tp1626
a(S'the'
p1627
S'the'
p1628
S'DT'
p1629
S'B-NP'
p1630
g5
tp1631
a(S'hospital.'
p1632
S'hospital.'
p1633
S'NN'
p1634
S'I-NP'
p1635
g5
tp1636
a(S'For'
p1637
S'For'
p1638
S'IN'
p1639
S'B-PP'
p1640
g5
tp1641
a(S'children'
p1642
S'child'
p1643
S'NNS'
p1644
S'B-NP'
p1645
g5
tp1646
a(S'with'
p1647
S'with'
p1648
S'IN'
p1649
S'B-PP'
p1650
g5
tp1651
a(S'cancer'
p1652
S'cancer'
p1653
S'NN'
p1654
S'B-NP'
p1655
g5
tp1656
a(g164
g164
g164
g5
g5
tp1657
a(S'RESPECT'
p1658
S'RESPECT'
p1659
S'NN'
p1660
S'B-NP'
p1661
g5
tp1662
a(S'contributes'
p1663
S'contribute'
p1664
S'VBZ'
p1665
S'B-VP'
p1666
g5
tp1667
a(S'to'
p1668
S'to'
p1669
S'TO'
p1670
S'B-PP'
p1671
g5
tp1672
a(S'expanding'
p1673
S'expand'
p1674
S'VBG'
p1675
S'B-VP'
p1676
g5
tp1677
a(S'knowledge'
p1678
S'knowledge'
p1679
S'NN'
p1680
S'B-NP'
p1681
g5
tp1682
a(S'on'
p1683
S'on'
p1684
S'IN'
p1685
S'B-PP'
p1686
g5
tp1687
a(S'rehabilitation'
p1688
S'rehabilitation'
p1689
S'NN'
p1690
S'B-NP'
p1691
g5
tp1692
a(S'that'
p1693
S'that'
p1694
S'WDT'
p1695
S'B-NP'
p1696
g5
tp1697
a(S'can'
p1698
S'can'
p1699
S'MD'
p1700
S'B-VP'
p1701
g5
tp1702
a(S'also'
p1703
S'also'
p1704
S'RB'
p1705
S'I-VP'
p1706
g5
tp1707
a(S'facilitate'
p1708
S'facilitate'
p1709
S'VB'
p1710
S'I-VP'
p1711
g5
tp1712
a(S'rehabilitation'
p1713
S'rehabilitation'
p1714
S'NN'
p1715
S'B-NP'
p1716
g5
tp1717
a(S'of'
p1718
S'of'
p1719
S'IN'
p1720
S'B-PP'
p1721
g5
tp1722
a(S'other'
p1723
S'other'
p1724
S'JJ'
p1725
S'B-NP'
p1726
g5
tp1727
a(S'children'
p1728
S'child'
p1729
S'NNS'
p1730
S'I-NP'
p1731
g5
tp1732
a(S'undergoing'
p1733
S'undergo'
p1734
S'VBG'
p1735
S'B-VP'
p1736
g5
tp1737
a(S'hospitalization'
p1738
S'hospitalization'
p1739
S'NN'
p1740
S'B-NP'
p1741
g5
tp1742
a(S'for'
p1743
S'for'
p1744
S'IN'
p1745
S'B-PP'
p1746
g5
tp1747
a(S'long-term'
p1748
S'long-term'
p1749
S'JJ'
p1750
S'B-NP'
p1751
g5
tp1752
a(S'illness'
p1753
S'illness'
p1754
S'NN'
p1755
S'I-NP'
p1756
g5
tp1757
a(g92
g92
g92
g5
g5
tp1758
a(S'TRIAL'
p1759
S'TRIAL'
p1760
S'NNP'
p1761
S'B-NP'
p1762
g5
tp1763
a(S'REGISTRATION'
p1764
S'REGISTRATION'
p1765
S'NNP'
p1766
S'I-NP'
p1767
g5
tp1768
a(S'Clinical'
p1769
S'Clinical'
p1770
S'NNP'
p1771
S'I-NP'
p1772
g5
tp1773
a(S'Trials.gov'
p1774
S'Trials.gov'
p1775
S'NNP'
p1776
S'I-NP'
p1777
g5
tp1778
a(g12
g12
g12
g5
g5
tp1779
a(S'file.'
p1780
S'file.'
p1781
S'LS'
p1782
S'B-NP'
p1783
g5
tp1784
a(S'NCT01772849'
p1785
S'NCT01772849'
p1786
S'NN'
p1787
S'I-NP'
p1788
g5
tp1789
a(S'and'
p1790
S'and'
p1791
S'CC'
p1792
S'I-NP'
p1793
g5
tp1794
a(S'NCT01772862'
p1795
S'NCT01772862'
p1796
S'NN'
p1797
S'I-NP'
p1798
g5
tp1799
a(g92
g92
g92
g5
g5
tp1800
a.