(lp0
(S'A'
p1
g1
S'DT'
p2
S'B-NP'
p3
S'O'
p4
tp5
a(S'prospective'
p6
S'prospective'
p7
S'JJ'
p8
S'I-NP'
p9
g4
tp10
a(S'randomized'
p11
S'randomize'
p12
S'VBN'
p13
S'I-NP'
p14
g4
tp15
a(S'trial'
p16
S'trial'
p17
S'NN'
p18
S'I-NP'
p19
g4
tp20
a(S'of'
p21
S'of'
p22
S'IN'
p23
S'B-PP'
p24
g4
tp25
a(S'topical'
p26
S'topical'
p27
S'JJ'
p28
S'B-NP'
p29
g4
tp30
a(S'pimecrolimus'
p31
S'pimecrolimus'
p32
S'NN'
p33
S'I-NP'
p34
g4
tp35
a(S'for'
p36
S'for'
p37
S'IN'
p38
S'B-PP'
p39
g4
tp40
a(S'cetuximab-associated'
p41
S'cetuximab-associated'
p42
S'JJ'
p43
S'B-NP'
p44
g4
tp45
a(S'acnelike'
p46
S'acnelike'
p47
S'JJ'
p48
S'I-NP'
p49
g4
tp50
a(S'eruption'
p51
S'eruption'
p52
S'NN'
p53
S'I-NP'
p54
g4
tp55
a(S'.'
p56
g56
g56
g4
g4
tp57
a(S'BACKGROUND'
p58
S'BACKGROUND'
p59
S'NN'
p60
S'B-NP'
p61
g4
tp62
a(S'Clinical'
p63
S'Clinical'
p64
S'JJ'
p65
S'I-NP'
p66
g4
tp67
a(S'trials'
p68
S'trial'
p69
S'NNS'
p70
S'I-NP'
p71
g4
tp72
a(S'addressing'
p73
S'address'
p74
S'VBG'
p75
S'B-VP'
p76
g4
tp77
a(S'the'
p78
S'the'
p79
S'DT'
p80
S'B-NP'
p81
g4
tp82
a(S'acneiform'
p83
S'acneiform'
p84
S'JJ'
p85
S'I-NP'
p86
g4
tp87
a(S'rash'
p88
S'rash'
p89
S'NN'
p90
S'I-NP'
p91
g4
tp92
a(S'associated'
p93
S'associate'
p94
S'VBN'
p95
S'B-VP'
p96
g4
tp97
a(S'with'
p98
S'with'
p99
S'IN'
p100
S'B-PP'
p101
g4
tp102
a(S'epidermal'
p103
S'epidermal'
p104
S'JJ'
p105
S'B-NP'
p106
S'B-protein'
p107
tp108
a(S'growth'
p109
S'growth'
p110
S'NN'
p111
S'I-NP'
p112
S'I-protein'
p113
tp114
a(S'factor'
p115
S'factor'
p116
S'NN'
p117
S'I-NP'
p118
S'I-protein'
p119
tp120
a(S'receptor'
p121
S'receptor'
p122
S'NN'
p123
S'I-NP'
p124
S'I-protein'
p125
tp126
a(S'inhibitors'
p127
S'inhibitor'
p128
S'NNS'
p129
S'I-NP'
p130
g4
tp131
a(S'are'
p132
S'be'
p133
S'VBP'
p134
S'B-VP'
p135
g4
tp136
a(S'lacking'
p137
S'lack'
p138
S'VBG'
p139
S'I-VP'
p140
g4
tp141
a(g56
g56
g56
g4
g4
tp142
a(S'OBJECTIVE'
p143
S'OBJECTIVE'
p144
S'NN'
p145
S'B-NP'
p146
g4
tp147
a(S'We'
p148
S'We'
p149
S'PRP'
p150
S'B-NP'
p151
g4
tp152
a(S'evaluated'
p153
S'evaluate'
p154
S'VBD'
p155
S'B-VP'
p156
g4
tp157
a(S'the'
p158
S'the'
p159
S'DT'
p160
S'B-NP'
p161
g4
tp162
a(S'ability'
p163
S'ability'
p164
S'NN'
p165
S'I-NP'
p166
g4
tp167
a(S'of'
p168
S'of'
p169
S'IN'
p170
S'B-PP'
p171
g4
tp172
a(S'topical'
p173
S'topical'
p174
S'JJ'
p175
S'B-NP'
p176
g4
tp177
a(S'pimecrolimus'
p178
S'pimecrolimus'
p179
S'NN'
p180
S'I-NP'
p181
g4
tp182
a(S'to'
p183
S'to'
p184
S'TO'
p185
S'B-VP'
p186
g4
tp187
a(S'reduce'
p188
S'reduce'
p189
S'VB'
p190
S'I-VP'
p191
g4
tp192
a(S'the'
p193
S'the'
p194
S'DT'
p195
S'B-NP'
p196
g4
tp197
a(S'severity'
p198
S'severity'
p199
S'NN'
p200
S'I-NP'
p201
g4
tp202
a(S'of'
p203
S'of'
p204
S'IN'
p205
S'B-PP'
p206
g4
tp207
a(S'cetuximab-related'
p208
S'cetuximab-related'
p209
S'JJ'
p210
S'B-NP'
p211
g4
tp212
a(S'facial'
p213
S'facial'
p214
S'JJ'
p215
S'I-NP'
p216
g4
tp217
a(S'rash'
p218
S'rash'
p219
S'NN'
p220
S'I-NP'
p221
g4
tp222
a(g56
g56
g56
g4
g4
tp223
a(S'METHODS'
p224
S'METHODS'
p225
S'NNS'
p226
S'B-NP'
p227
g4
tp228
a(S'In'
p229
S'In'
p230
S'IN'
p231
S'B-PP'
p232
g4
tp233
a(S'all'
p234
S'all'
p235
S'DT'
p236
S'B-NP'
p237
g4
tp238
a(S','
p239
g239
g239
g4
g4
tp240
a(S'24'
p241
S'24'
p242
S'CD'
p243
S'B-NP'
p244
g4
tp245
a(S'patients'
p246
S'patient'
p247
S'NNS'
p248
S'I-NP'
p249
g4
tp250
a(S'with'
p251
S'with'
p252
S'IN'
p253
S'B-PP'
p254
g4
tp255
a(S'metastatic'
p256
S'metastatic'
p257
S'JJ'
p258
S'B-NP'
p259
g4
tp260
a(S'colorectal'
p261
S'colorectal'
p262
S'JJ'
p263
S'I-NP'
p264
g4
tp265
a(S'cancer'
p266
S'cancer'
p267
S'NN'
p268
S'I-NP'
p269
g4
tp270
a(S'with'
p271
S'with'
p272
S'IN'
p273
S'B-PP'
p274
g4
tp275
a(S'cetuximab'
p276
S'cetuximab'
p277
S'NN'
p278
S'B-NP'
p279
g4
tp280
a(S'facial'
p281
S'facial'
p282
S'JJ'
p283
S'I-NP'
p284
g4
tp285
a(S'rash'
p286
S'rash'
p287
S'NN'
p288
S'I-NP'
p289
g4
tp290
a(S'received'
p291
S'receive'
p292
S'VBD'
p293
S'B-VP'
p294
g4
tp295
a(S'twice'
p296
S'twice'
p297
S'RB'
p298
S'B-NP'
p299
g4
tp300
a(S'daily'
p301
S'daily'
p302
S'JJ'
p303
S'I-NP'
p304
g4
tp305
a(S'pimecrolimus'
p306
S'pimecrolimus'
p307
S'NN'
p308
S'I-NP'
p309
g4
tp310
a(S'application'
p311
S'application'
p312
S'NN'
p313
S'I-NP'
p314
g4
tp315
a(S'for'
p316
S'for'
p317
S'IN'
p318
S'B-PP'
p319
g4
tp320
a(S'5'
p321
g321
S'CD'
p322
S'B-NP'
p323
g4
tp324
a(S'weeks'
p325
S'week'
p326
S'NNS'
p327
S'I-NP'
p328
g4
tp329
a(S'to'
p330
S'to'
p331
S'TO'
p332
S'B-PP'
p333
g4
tp334
a(S'half'
p335
S'half'
p336
S'NN'
p337
S'B-NP'
p338
g4
tp339
a(S'of'
p340
S'of'
p341
S'IN'
p342
S'B-PP'
p343
g4
tp344
a(S'the'
p345
S'the'
p346
S'DT'
p347
S'B-NP'
p348
g4
tp349
a(S'face.'
p350
S'face.'
p351
S'NN'
p352
S'I-NP'
p353
g4
tp354
a(S'At'
p355
S'At'
p356
S'IN'
p357
S'B-PP'
p358
g4
tp359
a(S'baseline'
p360
S'baseline'
p361
S'NN'
p362
S'B-NP'
p363
g4
tp364
a(g239
g239
g239
g4
g4
tp365
a(S'week'
p366
S'week'
p367
S'NN'
p368
S'B-NP'
p369
g4
tp370
a(S'2'
p371
g371
S'CD'
p372
S'I-NP'
p373
g4
tp374
a(g239
g239
g239
g4
g4
tp375
a(S'and'
p376
S'and'
p377
S'CC'
p378
g4
g4
tp379
a(S'week'
p380
S'week'
p381
S'NN'
p382
S'B-NP'
p383
S'B-protein'
p384
tp385
a(g321
g321
S'CD'
p386
S'I-NP'
p387
S'I-protein'
p388
tp389
a(g239
g239
g239
g4
g4
tp390
a(S'a'
p391
g391
S'DT'
p392
S'B-NP'
p393
g4
tp394
a(S'dermatologist'
p395
S'dermatologist'
p396
S'NN'
p397
S'I-NP'
p398
g4
tp399
a(S'performed'
p400
S'perform'
p401
S'VBD'
p402
S'B-VP'
p403
g4
tp404
a(S'facial'
p405
S'facial'
p406
S'JJ'
p407
S'B-NP'
p408
g4
tp409
a(S'lesion'
p410
S'lesion'
p411
S'NN'
p412
S'I-NP'
p413
g4
tp414
a(S'counts'
p415
S'count'
p416
S'NNS'
p417
S'I-NP'
p418
g4
tp419
a(g239
g239
g239
g4
g4
tp420
a(S'patients'
p421
S'patient'
p422
S'NNS'
p423
S'B-NP'
p424
g4
tp425
a(S'reported'
p426
S'report'
p427
S'VBD'
p428
S'B-VP'
p429
g4
tp430
a(S'perceived'
p431
S'perceive'
p432
S'VBN'
p433
S'B-NP'
p434
g4
tp435
a(S'severity'
p436
S'severity'
p437
S'NN'
p438
S'I-NP'
p439
g4
tp440
a(S'of'
p441
S'of'
p442
S'IN'
p443
S'B-PP'
p444
g4
tp445
a(S'rash-related'
p446
S'rash-related'
p447
S'JJ'
p448
S'B-NP'
p449
g4
tp450
a(S'symptoms'
p451
S'symptom'
p452
S'NNS'
p453
S'I-NP'
p454
g4
tp455
a(g239
g239
g239
g4
g4
tp456
a(S'and'
p457
S'and'
p458
S'CC'
p459
g4
g4
tp460
a(S'standardized'
p461
S'standardize'
p462
S'VBD'
p463
S'B-VP'
p464
g4
tp465
a(S'facial'
p466
S'facial'
p467
S'JJ'
p468
S'B-NP'
p469
g4
tp470
a(S'photographs'
p471
S'photograph'
p472
S'NNS'
p473
S'I-NP'
p474
g4
tp475
a(S'were'
p476
S'be'
p477
S'VBD'
p478
S'B-VP'
p479
g4
tp480
a(S'obtained'
p481
S'obtain'
p482
S'VBN'
p483
S'I-VP'
p484
g4
tp485
a(S'for'
p486
S'for'
p487
S'IN'
p488
S'B-PP'
p489
g4
tp490
a(S'blinded'
p491
S'blinded'
p492
S'JJ'
p493
S'B-NP'
p494
g4
tp495
a(S'evaluation'
p496
S'evaluation'
p497
S'NN'
p498
S'I-NP'
p499
g4
tp500
a(S'of'
p501
S'of'
p502
S'IN'
p503
S'B-PP'
p504
g4
tp505
a(S'global'
p506
S'global'
p507
S'JJ'
p508
S'B-NP'
p509
g4
tp510
a(S'rash'
p511
S'rash'
p512
S'NN'
p513
S'I-NP'
p514
g4
tp515
a(S'severity'
p516
S'severity'
p517
S'NN'
p518
S'I-NP'
p519
g4
tp520
a(g56
g56
g56
g4
g4
tp521
a(S'RESULTS'
p522
S'RESULTS'
p523
S'NNS'
p524
S'B-NP'
p525
g4
tp526
a(S'Treatment'
p527
S'Treatment'
p528
S'NN'
p529
S'I-NP'
p530
g4
tp531
a(S'sides'
p532
S'side'
p533
S'NNS'
p534
S'I-NP'
p535
g4
tp536
a(S'had'
p537
S'have'
p538
S'VBD'
p539
S'B-VP'
p540
g4
tp541
a(S'greater'
p542
S'great'
p543
S'JJR'
p544
S'B-NP'
p545
g4
tp546
a(S'decrease'
p547
S'decrease'
p548
S'NN'
p549
S'I-NP'
p550
g4
tp551
a(S'in'
p552
S'in'
p553
S'IN'
p554
S'B-PP'
p555
g4
tp556
a(S'lesion'
p557
S'lesion'
p558
S'NN'
p559
S'B-NP'
p560
g4
tp561
a(S'counts'
p562
S'count'
p563
S'NNS'
p564
S'I-NP'
p565
g4
tp566
a(S'than'
p567
S'than'
p568
S'IN'
p569
S'B-PP'
p570
g4
tp571
a(S'observation'
p572
S'observation'
p573
S'NN'
p574
S'B-NP'
p575
g4
tp576
a(S'sides'
p577
S'side'
p578
S'NNS'
p579
S'I-NP'
p580
g4
tp581
a(S'of'
p582
S'of'
p583
S'IN'
p584
S'B-PP'
p585
g4
tp586
a(S'face'
p587
S'face'
p588
S'NN'
p589
S'B-NP'
p590
g4
tp591
a(S'at'
p592
S'at'
p593
S'IN'
p594
S'B-PP'
p595
g4
tp596
a(S'weeks'
p597
S'week'
p598
S'NNS'
p599
S'B-NP'
p600
g4
tp601
a(g371
g371
S'CD'
p602
S'B-NP'
p603
g4
tp604
a(S'('
p605
g605
g605
g4
g4
tp606
a(S'P'
p607
g607
S'NN'
p608
S'B-NP'
p609
g4
tp610
a(S'<'
p611
g611
S'JJR'
p612
S'B-NP'
p613
g4
tp614
a(S'.001'
p615
S'.001'
p616
S'CD'
p617
S'I-NP'
p618
g4
tp619
a(S')'
p620
g620
g620
g4
g4
tp621
a(S'and'
p622
S'and'
p623
S'CC'
p624
g4
g4
tp625
a(g321
g321
S'CD'
p626
S'B-NP'
p627
g4
tp628
a(g605
g605
g605
g4
g4
tp629
a(g607
g607
S'NN'
p630
S'B-NP'
p631
g4
tp632
a(S'='
p633
g633
S'SYM'
p634
S'B-VP'
p635
g4
tp636
a(S'.02'
p637
S'.02'
p638
S'CD'
p639
S'B-NP'
p640
g4
tp641
a(g620
g620
g620
g4
g4
tp642
a(g56
g56
g56
g4
g4
tp643
a(S'However'
p644
S'However'
p645
S'RB'
p646
S'B-ADVP'
p647
g4
tp648
a(g239
g239
g239
g4
g4
tp649
a(S'there'
p650
S'there'
p651
S'EX'
p652
S'B-NP'
p653
g4
tp654
a(S'were'
p655
S'be'
p656
S'VBD'
p657
S'B-VP'
p658
g4
tp659
a(S'no'
p660
S'no'
p661
S'DT'
p662
S'B-NP'
p663
g4
tp664
a(S'significant'
p665
S'significant'
p666
S'JJ'
p667
S'I-NP'
p668
g4
tp669
a(S'differences'
p670
S'difference'
p671
S'NNS'
p672
S'I-NP'
p673
g4
tp674
a(S'in'
p675
S'in'
p676
S'IN'
p677
S'B-PP'
p678
g4
tp679
a(S'patients'
p680
S'patient'
p681
S'NNS'
p682
S'B-NP'
p683
g4
tp684
a(S"'"
p685
g685
S'POS'
p686
S'B-NP'
p687
g4
tp688
a(S'assessment'
p689
S'assessment'
p690
S'NN'
p691
S'I-NP'
p692
g4
tp693
a(S'of'
p694
S'of'
p695
S'IN'
p696
S'B-PP'
p697
g4
tp698
a(S'symptoms'
p699
S'symptom'
p700
S'NNS'
p701
S'B-NP'
p702
g4
tp703
a(S'and'
p704
S'and'
p705
S'CC'
p706
S'B-PP'
p707
g4
tp708
a(S'in'
p709
S'in'
p710
S'IN'
p711
S'B-PP'
p712
g4
tp713
a(S'review'
p714
S'review'
p715
S'NN'
p716
S'B-NP'
p717
g4
tp718
a(S'of'
p719
S'of'
p720
S'IN'
p721
S'B-PP'
p722
g4
tp723
a(S'facial'
p724
S'facial'
p725
S'JJ'
p726
S'B-NP'
p727
g4
tp728
a(S'photographs'
p729
S'photograph'
p730
S'NNS'
p731
S'I-NP'
p732
g4
tp733
a(S'for'
p734
S'for'
p735
S'IN'
p736
S'B-PP'
p737
g4
tp738
a(S'rash'
p739
S'rash'
p740
S'NN'
p741
S'B-NP'
p742
g4
tp743
a(S'severity'
p744
S'severity'
p745
S'NN'
p746
S'I-NP'
p747
g4
tp748
a(S'between'
p749
S'between'
p750
S'IN'
p751
S'B-PP'
p752
g4
tp753
a(S'treatment'
p754
S'treatment'
p755
S'NN'
p756
S'B-NP'
p757
g4
tp758
a(S'and'
p759
S'and'
p760
S'CC'
p761
S'I-NP'
p762
g4
tp763
a(S'observation'
p764
S'observation'
p765
S'NN'
p766
S'I-NP'
p767
g4
tp768
a(S'sides'
p769
S'side'
p770
S'NNS'
p771
S'I-NP'
p772
g4
tp773
a(g56
g56
g56
g4
g4
tp774
a(S'LIMITATIONS'
p775
S'LIMITATIONS'
p776
S'NNS'
p777
S'B-NP'
p778
g4
tp779
a(S'This'
p780
S'This'
p781
S'DT'
p782
S'B-NP'
p783
g4
tp784
a(S'study'
p785
S'study'
p786
S'NN'
p787
S'I-NP'
p788
g4
tp789
a(S'was'
p790
S'be'
p791
S'VBD'
p792
S'B-VP'
p793
g4
tp794
a(S'not'
p795
S'not'
p796
S'RB'
p797
g4
g4
tp798
a(S'placebo'
p799
S'placebo'
p800
S'NN'
p801
S'B-NP'
p802
g4
tp803
a(S'controlled'
p804
S'control'
p805
S'VBN'
p806
S'B-VP'
p807
g4
tp808
a(g56
g56
g56
g4
g4
tp809
a(S'CONCLUSIONS'
p810
S'CONCLUSIONS'
p811
S'NNS'
p812
S'B-NP'
p813
g4
tp814
a(S'Pimecrolimus'
p815
S'Pimecrolimus'
p816
S'NNP'
p817
S'I-NP'
p818
g4
tp819
a(S'application'
p820
S'application'
p821
S'NN'
p822
S'I-NP'
p823
g4
tp824
a(S'did'
p825
S'do'
p826
S'VBD'
p827
S'B-VP'
p828
g4
tp829
a(S'not'
p830
S'not'
p831
S'RB'
p832
S'I-VP'
p833
g4
tp834
a(S'translate'
p835
S'translate'
p836
S'VB'
p837
S'I-VP'
p838
g4
tp839
a(S'into'
p840
S'into'
p841
S'IN'
p842
S'B-PP'
p843
g4
tp844
a(S'clinically'
p845
S'clinically'
p846
S'RB'
p847
S'B-NP'
p848
g4
tp849
a(S'meaningful'
p850
S'meaningful'
p851
S'JJ'
p852
S'I-NP'
p853
g4
tp854
a(S'benefit'
p855
S'benefit'
p856
S'NN'
p857
S'I-NP'
p858
g4
tp859
a(S'for'
p860
S'for'
p861
S'IN'
p862
S'B-PP'
p863
g4
tp864
a(S'patients'
p865
S'patient'
p866
S'NNS'
p867
S'B-NP'
p868
g4
tp869
a(S'with'
p870
S'with'
p871
S'IN'
p872
S'B-PP'
p873
g4
tp874
a(S'cetuximab-related'
p875
S'cetuximab-related'
p876
S'JJ'
p877
S'B-NP'
p878
g4
tp879
a(S'facial'
p880
S'facial'
p881
S'JJ'
p882
S'I-NP'
p883
g4
tp884
a(S'rash'
p885
S'rash'
p886
S'NN'
p887
S'I-NP'
p888
g4
tp889
a(g56
g56
g56
g4
g4
tp890
a.