(lp0
(S'Plerixafor'
p1
S'Plerixafor'
p2
S'NN'
p3
S'B-NP'
p4
S'O'
p5
tp6
a(S'plus'
p7
S'plus'
p8
S'CC'
p9
S'I-NP'
p10
g5
tp11
a(S'granulocyte'
p12
S'granulocyte'
p13
S'NN'
p14
S'B-NP'
p15
S'B-protein'
p16
tp17
a(S'colony-stimulating'
p18
S'colony-stimulating'
p19
S'JJ'
p20
S'I-NP'
p21
S'I-protein'
p22
tp23
a(S'factor'
p24
S'factor'
p25
S'NN'
p26
S'I-NP'
p27
S'I-protein'
p28
tp29
a(S'versus'
p30
S'versus'
p31
S'CC'
p32
g5
g5
tp33
a(S'placebo'
p34
S'placebo'
p35
S'NN'
p36
S'B-NP'
p37
g5
tp38
a(S'plus'
p39
S'plus'
p40
S'CC'
p41
g5
g5
tp42
a(S'granulocyte'
p43
S'granulocyte'
p44
S'NN'
p45
S'B-NP'
p46
S'B-protein'
p47
tp48
a(S'colony-stimulating'
p49
S'colony-stimulating'
p50
S'JJ'
p51
S'I-NP'
p52
S'I-protein'
p53
tp54
a(S'factor'
p55
S'factor'
p56
S'NN'
p57
S'I-NP'
p58
S'I-protein'
p59
tp60
a(S'for'
p61
S'for'
p62
S'IN'
p63
S'B-PP'
p64
g5
tp65
a(S'mobilization'
p66
S'mobilization'
p67
S'NN'
p68
S'B-NP'
p69
g5
tp70
a(S'of'
p71
S'of'
p72
S'IN'
p73
S'B-PP'
p74
g5
tp75
a(S'CD34'
p76
S'CD34'
p77
S'NN'
p78
S'B-NP'
p79
S'B-cell_type'
p80
tp81
a(S'('
p82
g82
g82
g5
S'I-cell_type'
p83
tp84
a(S'+'
p85
g85
S'SYM'
p86
g5
S'I-cell_type'
p87
tp88
a(S')'
p89
g89
g89
g5
S'I-cell_type'
p90
tp91
a(S'hematopoietic'
p92
S'hematopoietic'
p93
S'JJ'
p94
S'B-NP'
p95
S'I-cell_type'
p96
tp97
a(S'stem'
p98
S'stem'
p99
S'NN'
p100
S'I-NP'
p101
S'I-cell_type'
p102
tp103
a(S'cells'
p104
S'cell'
p105
S'NNS'
p106
S'I-NP'
p107
S'I-cell_type'
p108
tp109
a(S'in'
p110
S'in'
p111
S'IN'
p112
S'B-PP'
p113
g5
tp114
a(S'patients'
p115
S'patient'
p116
S'NNS'
p117
S'B-NP'
p118
g5
tp119
a(S'with'
p120
S'with'
p121
S'IN'
p122
S'B-PP'
p123
g5
tp124
a(S'multiple'
p125
S'multiple'
p126
S'JJ'
p127
S'B-NP'
p128
g5
tp129
a(S'myeloma'
p130
S'myeloma'
p131
S'NN'
p132
S'I-NP'
p133
g5
tp134
a(S'and'
p135
S'and'
p136
S'CC'
p137
S'I-NP'
p138
g5
tp139
a(S'low'
p140
S'low'
p141
S'JJ'
p142
S'I-NP'
p143
g5
tp144
a(S'peripheral'
p145
S'peripheral'
p146
S'JJ'
p147
S'I-NP'
p148
g5
tp149
a(S'blood'
p150
S'blood'
p151
S'NN'
p152
S'I-NP'
p153
g5
tp154
a(S'CD34'
p155
S'CD34'
p156
S'NN'
p157
S'I-NP'
p158
g5
tp159
a(g82
g82
g82
g5
g5
tp160
a(g85
g85
S'SYM'
p161
g5
g5
tp162
a(g89
g89
g89
g5
g5
tp163
a(S'cell'
p164
S'cell'
p165
S'NN'
p166
S'B-NP'
p167
g5
tp168
a(S'count'
p169
S'count'
p170
S'NN'
p171
S'I-NP'
p172
g5
tp173
a(S':'
p174
g174
g174
g5
g5
tp175
a(S'results'
p176
S'result'
p177
S'NNS'
p178
S'B-NP'
p179
g5
tp180
a(S'of'
p181
S'of'
p182
S'IN'
p183
S'B-PP'
p184
g5
tp185
a(S'a'
p186
g186
S'DT'
p187
S'B-NP'
p188
g5
tp189
a(S'subset'
p190
S'subset'
p191
S'NN'
p192
S'I-NP'
p193
g5
tp194
a(S'analysis'
p195
S'analysis'
p196
S'NN'
p197
S'I-NP'
p198
g5
tp199
a(S'of'
p200
S'of'
p201
S'IN'
p202
S'B-PP'
p203
g5
tp204
a(g186
g186
S'DT'
p205
S'B-NP'
p206
g5
tp207
a(S'randomized'
p208
S'randomize'
p209
S'VBN'
p210
S'I-NP'
p211
g5
tp212
a(S'trial'
p213
S'trial'
p214
S'NN'
p215
S'I-NP'
p216
g5
tp217
a(S'.'
p218
g218
g218
g5
g5
tp219
a(S'Preapheresis'
p220
S'Preapheresis'
p221
S'NN'
p222
S'B-NP'
p223
g5
tp224
a(S'peripheral'
p225
S'peripheral'
p226
S'JJ'
p227
S'I-NP'
p228
g5
tp229
a(S'blood'
p230
S'blood'
p231
S'NN'
p232
S'I-NP'
p233
g5
tp234
a(g82
g82
g82
g5
g5
tp235
a(S'PB'
p236
S'PB'
p237
S'NN'
p238
S'B-NP'
p239
g5
tp240
a(g89
g89
g89
g5
g5
tp241
a(S'CD34'
p242
S'CD34'
p243
S'NN'
p244
S'B-NP'
p245
g5
tp246
a(g82
g82
g82
g5
g5
tp247
a(g85
g85
S'SYM'
p248
g5
g5
tp249
a(g89
g89
g89
g5
g5
tp250
a(S'cell'
p251
S'cell'
p252
S'NN'
p253
S'B-NP'
p254
g5
tp255
a(S'count'
p256
S'count'
p257
S'NN'
p258
S'I-NP'
p259
g5
tp260
a(S'is'
p261
S'be'
p262
S'VBZ'
p263
S'B-VP'
p264
g5
tp265
a(g186
g186
S'DT'
p266
S'B-NP'
p267
g5
tp268
a(S'strong'
p269
S'strong'
p270
S'JJ'
p271
S'I-NP'
p272
g5
tp273
a(S'predictor'
p274
S'predictor'
p275
S'NN'
p276
S'I-NP'
p277
g5
tp278
a(S'of'
p279
S'of'
p280
S'IN'
p281
S'B-PP'
p282
g5
tp283
a(S'hematopoietic'
p284
S'hematopoietic'
p285
S'JJ'
p286
S'B-NP'
p287
S'B-cell_type'
p288
tp289
a(S'stem'
p290
S'stem'
p291
S'NN'
p292
S'I-NP'
p293
S'I-cell_type'
p294
tp295
a(S'cell'
p296
S'cell'
p297
S'NN'
p298
S'I-NP'
p299
S'I-cell_type'
p300
tp301
a(g82
g82
g82
g5
g5
tp302
a(S'HSC'
p303
S'HSC'
p304
S'NN'
p305
S'B-NP'
p306
S'B-cell_type'
p307
tp308
a(g89
g89
g89
g5
g5
tp309
a(S'mobilization'
p310
S'mobilization'
p311
S'NN'
p312
S'B-NP'
p313
g5
tp314
a(S'and'
p315
S'and'
p316
S'CC'
p317
g5
g5
tp318
a(S'is'
p319
S'be'
p320
S'VBZ'
p321
S'B-VP'
p322
g5
tp323
a(S'routinely'
p324
S'routinely'
p325
S'RB'
p326
S'I-VP'
p327
g5
tp328
a(S'used'
p329
S'use'
p330
S'VBN'
p331
S'I-VP'
p332
g5
tp333
a(S'to'
p334
S'to'
p335
S'TO'
p336
S'B-VP'
p337
g5
tp338
a(S'optimize'
p339
S'optimize'
p340
S'VB'
p341
S'I-VP'
p342
g5
tp343
a(S'the'
p344
S'the'
p345
S'DT'
p346
S'B-NP'
p347
g5
tp348
a(S'timing'
p349
S'timing'
p350
S'NN'
p351
S'I-NP'
p352
g5
tp353
a(S','
p354
g354
g354
g5
g5
tp355
a(S'cost'
p356
S'cost'
p357
S'NN'
p358
S'B-NP'
p359
g5
tp360
a(g354
g354
g354
g5
g5
tp361
a(S'and'
p362
S'and'
p363
S'CC'
p364
g5
g5
tp365
a(S'success'
p366
S'success'
p367
S'NN'
p368
S'B-NP'
p369
g5
tp370
a(S'of'
p371
S'of'
p372
S'IN'
p373
S'B-PP'
p374
g5
tp375
a(S'HSC'
p376
S'HSC'
p377
S'NN'
p378
S'B-NP'
p379
g5
tp380
a(S'collection'
p381
S'collection'
p382
S'NN'
p383
S'I-NP'
p384
g5
tp385
a(S'in'
p386
S'in'
p387
S'IN'
p388
S'B-PP'
p389
g5
tp390
a(S'patients'
p391
S'patient'
p392
S'NNS'
p393
S'B-NP'
p394
g5
tp395
a(S'with'
p396
S'with'
p397
S'IN'
p398
S'B-PP'
p399
g5
tp400
a(S'multiple'
p401
S'multiple'
p402
S'JJ'
p403
S'B-NP'
p404
g5
tp405
a(S'myeloma.'
p406
S'myeloma.'
p407
S'NN'
p408
S'I-NP'
p409
g5
tp410
a(S'However'
p411
S'However'
p412
S'RB'
p413
S'B-ADVP'
p414
g5
tp415
a(g354
g354
g354
g5
g5
tp416
a(g186
g186
S'DT'
p417
S'B-NP'
p418
g5
tp419
a(S'uniform'
p420
S'uniform'
p421
S'JJ'
p422
S'I-NP'
p423
g5
tp424
a(S'PB'
p425
S'PB'
p426
S'NN'
p427
S'I-NP'
p428
g5
tp429
a(S'CD34'
p430
S'CD34'
p431
S'NN'
p432
S'I-NP'
p433
g5
tp434
a(g82
g82
g82
g5
g5
tp435
a(g85
g85
S'SYM'
p436
g5
g5
tp437
a(g89
g89
g89
g5
g5
tp438
a(S'cell'
p439
S'cell'
p440
S'NN'
p441
S'B-NP'
p442
g5
tp443
a(S'count'
p444
S'count'
p445
S'NN'
p446
S'I-NP'
p447
g5
tp448
a(S'that'
p449
S'that'
p450
S'WDT'
p451
S'B-NP'
p452
g5
tp453
a(S'predicts'
p454
S'predict'
p455
S'VBZ'
p456
S'B-VP'
p457
g5
tp458
a(S'mobilization'
p459
S'mobilization'
p460
S'NN'
p461
S'B-NP'
p462
g5
tp463
a(S'failure'
p464
S'failure'
p465
S'NN'
p466
S'I-NP'
p467
g5
tp468
a(S'has'
p469
S'have'
p470
S'VBZ'
p471
S'B-VP'
p472
g5
tp473
a(S'not'
p474
S'not'
p475
S'RB'
p476
S'I-VP'
p477
g5
tp478
a(S'been'
p479
S'be'
p480
S'VBN'
p481
S'I-VP'
p482
g5
tp483
a(S'defined'
p484
S'define'
p485
S'VBN'
p486
S'I-VP'
p487
g5
tp488
a(g354
g354
g354
g5
g5
tp489
a(S'resulting'
p490
S'result'
p491
S'VBG'
p492
S'B-VP'
p493
g5
tp494
a(S'in'
p495
S'in'
p496
S'IN'
p497
S'B-PP'
p498
g5
tp499
a(S'the'
p500
S'the'
p501
S'DT'
p502
S'B-NP'
p503
g5
tp504
a(S'development'
p505
S'development'
p506
S'NN'
p507
S'I-NP'
p508
g5
tp509
a(S'of'
p510
S'of'
p511
S'IN'
p512
S'B-PP'
p513
g5
tp514
a(S'institute-specific'
p515
S'institute-specific'
p516
S'JJ'
p517
S'B-NP'
p518
g5
tp519
a(S'algorithms'
p520
S'algorithm'
p521
S'NNS'
p522
S'I-NP'
p523
g5
tp524
a(S'for'
p525
S'for'
p526
S'IN'
p527
S'B-PP'
p528
g5
tp529
a(S'mobilization'
p530
S'mobilization'
p531
S'NN'
p532
S'B-NP'
p533
g5
tp534
a(g354
g354
g354
g5
g5
tp535
a(S'particularly'
p536
S'particularly'
p537
S'RB'
p538
S'B-ADVP'
p539
g5
tp540
a(S'regarding'
p541
S'regard'
p542
S'VBG'
p543
S'B-VP'
p544
g5
tp545
a(S'the'
p546
S'the'
p547
S'DT'
p548
S'B-NP'
p549
g5
tp550
a(S'decision'
p551
S'decision'
p552
S'NN'
p553
S'I-NP'
p554
g5
tp555
a(S'of'
p556
S'of'
p557
S'IN'
p558
S'B-PP'
p559
g5
tp560
a(S'when'
p561
S'when'
p562
S'WRB'
p563
S'B-ADVP'
p564
g5
tp565
a(S'to'
p566
S'to'
p567
S'TO'
p568
S'B-VP'
p569
g5
tp570
a(S'use'
p571
S'use'
p572
S'VB'
p573
S'I-VP'
p574
g5
tp575
a(S'the'
p576
S'the'
p577
S'DT'
p578
S'B-NP'
p579
g5
tp580
a(S'novel'
p581
S'novel'
p582
S'JJ'
p583
S'I-NP'
p584
g5
tp585
a(S'stem'
p586
S'stem'
p587
S'NN'
p588
S'I-NP'
p589
g5
tp590
a(S'cell'
p591
S'cell'
p592
S'NN'
p593
S'I-NP'
p594
g5
tp595
a(S'mobilization'
p596
S'mobilization'
p597
S'NN'
p598
S'I-NP'
p599
g5
tp600
a(S'agent'
p601
S'agent'
p602
S'NN'
p603
S'I-NP'
p604
g5
tp605
a(S'plerixafor.'
p606
S'plerixafor.'
p607
S'NN'
p608
S'I-NP'
p609
g5
tp610
a(S'In'
p611
S'In'
p612
S'IN'
p613
S'B-PP'
p614
g5
tp615
a(S'this'
p616
S'this'
p617
S'DT'
p618
S'B-NP'
p619
g5
tp620
a(S'post'
p621
S'post'
p622
S'NN'
p623
S'I-NP'
p624
g5
tp625
a(S'hoc'
p626
S'hoc'
p627
S'NN'
p628
S'I-NP'
p629
g5
tp630
a(S'analysis'
p631
S'analysis'
p632
S'NN'
p633
S'I-NP'
p634
g5
tp635
a(g354
g354
g354
g5
g5
tp636
a(S'we'
p637
S'we'
p638
S'PRP'
p639
S'B-NP'
p640
g5
tp641
a(S'evaluated'
p642
S'evaluate'
p643
S'VBD'
p644
S'B-VP'
p645
g5
tp646
a(S'the'
p647
S'the'
p648
S'DT'
p649
S'B-NP'
p650
g5
tp651
a(S'mobilization'
p652
S'mobilization'
p653
S'NN'
p654
S'I-NP'
p655
g5
tp656
a(S'efficacy'
p657
S'efficacy'
p658
S'NN'
p659
S'I-NP'
p660
g5
tp661
a(S'of'
p662
S'of'
p663
S'IN'
p664
S'B-PP'
p665
g5
tp666
a(S'plerixafor'
p667
S'plerixafor'
p668
S'NN'
p669
S'B-NP'
p670
g5
tp671
a(S'plus'
p672
S'plus'
p673
S'CC'
p674
g5
g5
tp675
a(S'granulocyte'
p676
S'granulocyte'
p677
S'NN'
p678
S'B-NP'
p679
S'B-protein'
p680
tp681
a(S'colony-stimulating'
p682
S'colony-stimulating'
p683
S'JJ'
p684
S'I-NP'
p685
S'I-protein'
p686
tp687
a(S'factor'
p688
S'factor'
p689
S'NN'
p690
S'I-NP'
p691
S'I-protein'
p692
tp693
a(g82
g82
g82
g5
g5
tp694
a(S'G-CSF'
p695
S'G-CSF'
p696
S'NN'
p697
S'B-NP'
p698
S'B-protein'
p699
tp700
a(g89
g89
g89
g5
g5
tp701
a(S'versus'
p702
S'versus'
p703
S'CC'
p704
g5
g5
tp705
a(S'placebo'
p706
S'placebo'
p707
S'NN'
p708
S'B-NP'
p709
g5
tp710
a(S'plus'
p711
S'plus'
p712
S'CC'
p713
g5
g5
tp714
a(S'G-CSF'
p715
S'G-CSF'
p716
S'NN'
p717
S'B-NP'
p718
S'B-protein'
p719
tp720
a(S'in'
p721
S'in'
p722
S'IN'
p723
S'B-PP'
p724
g5
tp725
a(S'patients'
p726
S'patient'
p727
S'NNS'
p728
S'B-NP'
p729
g5
tp730
a(S'with'
p731
S'with'
p732
S'IN'
p733
S'B-PP'
p734
g5
tp735
a(S'multiple'
p736
S'multiple'
p737
S'JJ'
p738
S'B-NP'
p739
g5
tp740
a(S'myeloma'
p741
S'myeloma'
p742
S'NN'
p743
S'I-NP'
p744
g5
tp745
a(g354
g354
g354
g5
g5
tp746
a(S'stratified'
p747
S'stratify'
p748
S'VBN'
p749
S'B-VP'
p750
g5
tp751
a(S'by'
p752
S'by'
p753
S'IN'
p754
S'B-PP'
p755
g5
tp756
a(S'preapheresis'
p757
S'preapheresis'
p758
S'NN'
p759
S'B-NP'
p760
g5
tp761
a(S'PB'
p762
S'PB'
p763
S'NN'
p764
S'I-NP'
p765
g5
tp766
a(S'CD34'
p767
S'CD34'
p768
S'NN'
p769
S'I-NP'
p770
g5
tp771
a(g82
g82
g82
g5
g5
tp772
a(g85
g85
S'SYM'
p773
g5
g5
tp774
a(g89
g89
g89
g5
g5
tp775
a(S'cell'
p776
S'cell'
p777
S'NN'
p778
S'B-NP'
p779
g5
tp780
a(S'count'
p781
S'count'
p782
S'NN'
p783
S'I-NP'
p784
g5
tp785
a(g174
g174
g174
g5
g5
tp786
a(S'<'
p787
g787
S'SYM'
p788
S'B-NP'
p789
g5
tp790
a(S'10'
p791
S'10'
p792
S'CD'
p793
S'I-NP'
p794
g5
tp795
a(g354
g354
g354
g5
g5
tp796
a(g787
g787
S'JJR'
p797
S'B-NP'
p798
g5
tp799
a(S'15'
p800
S'15'
p801
S'CD'
p802
S'I-NP'
p803
g5
tp804
a(g354
g354
g354
g5
g5
tp805
a(g787
g787
S'JJR'
p806
S'B-NP'
p807
g5
tp808
a(S'20'
p809
S'20'
p810
S'CD'
p811
S'I-NP'
p812
g5
tp813
a(g354
g354
g354
g5
g5
tp814
a(S'and'
p815
S'and'
p816
S'CC'
p817
g5
g5
tp818
a(S'\xe2\x89\xa520'
p819
S'\xe2\x89\xa520'
p820
S'CD'
p821
S'B-NP'
p822
g5
tp823
a(S'cells/\xce\xbcL.'
p824
S'cells/\xce\xbcL.'
p825
S'NNP'
p826
S'I-NP'
p827
g5
tp828
a(S'Regardless'
p829
S'Regardless'
p830
S'NNP'
p831
S'I-NP'
p832
g5
tp833
a(S'of'
p834
S'of'
p835
S'IN'
p836
S'B-PP'
p837
g5
tp838
a(S'the'
p839
S'the'
p840
S'DT'
p841
S'B-NP'
p842
g5
tp843
a(S'PB'
p844
S'PB'
p845
S'NN'
p846
S'I-NP'
p847
g5
tp848
a(S'CD34'
p849
S'CD34'
p850
S'NN'
p851
S'I-NP'
p852
g5
tp853
a(g82
g82
g82
g5
g5
tp854
a(g85
g85
S'SYM'
p855
g5
g5
tp856
a(g89
g89
g89
g5
g5
tp857
a(S'cell'
p858
S'cell'
p859
S'NN'
p860
S'B-NP'
p861
g5
tp862
a(S'count'
p863
S'count'
p864
S'NN'
p865
S'I-NP'
p866
g5
tp867
a(g354
g354
g354
g5
g5
tp868
a(S'the'
p869
S'the'
p870
S'DT'
p871
S'B-NP'
p872
g5
tp873
a(S'total'
p874
S'total'
p875
S'JJ'
p876
S'I-NP'
p877
g5
tp878
a(S'yield'
p879
S'yield'
p880
S'NN'
p881
S'I-NP'
p882
g5
tp883
a(S'of'
p884
S'of'
p885
S'IN'
p886
S'B-PP'
p887
g5
tp888
a(S'CD34'
p889
S'CD34'
p890
S'NN'
p891
S'B-NP'
p892
S'B-cell_type'
p893
tp894
a(g82
g82
g82
g5
S'I-cell_type'
p895
tp896
a(g85
g85
S'SYM'
p897
g5
S'I-cell_type'
p898
tp899
a(g89
g89
g89
g5
S'I-cell_type'
p900
tp901
a(S'cells'
p902
S'cell'
p903
S'NNS'
p904
S'B-NP'
p905
S'I-cell_type'
p906
tp907
a(S'from'
p908
S'from'
p909
S'IN'
p910
S'B-PP'
p911
g5
tp912
a(S'apheresis'
p913
S'apheresis'
p914
S'NN'
p915
S'B-NP'
p916
g5
tp917
a(S'was'
p918
S'be'
p919
S'VBD'
p920
S'B-VP'
p921
g5
tp922
a(S'significantly'
p923
S'significantly'
p924
S'RB'
p925
S'B-ADJP'
p926
g5
tp927
a(S'higher'
p928
S'high'
p929
S'JJR'
p930
S'I-ADJP'
p931
g5
tp932
a(S'in'
p933
S'in'
p934
S'IN'
p935
S'B-PP'
p936
g5
tp937
a(S'the'
p938
S'the'
p939
S'DT'
p940
S'B-NP'
p941
g5
tp942
a(S'plerixafor'
p943
S'plerixafor'
p944
S'NN'
p945
S'I-NP'
p946
g5
tp947
a(S'group'
p948
S'group'
p949
S'NN'
p950
S'I-NP'
p951
g5
tp952
a(S'than'
p953
S'than'
p954
S'IN'
p955
S'B-PP'
p956
g5
tp957
a(S'in'
p958
S'in'
p959
S'IN'
p960
S'B-PP'
p961
g5
tp962
a(S'the'
p963
S'the'
p964
S'DT'
p965
S'B-NP'
p966
g5
tp967
a(S'placebo'
p968
S'placebo'
p969
S'NN'
p970
S'I-NP'
p971
g5
tp972
a(S'group'
p973
S'group'
p974
S'NN'
p975
S'I-NP'
p976
g5
tp977
a(g354
g354
g354
g5
g5
tp978
a(S'and'
p979
S'and'
p980
S'CC'
p981
g5
g5
tp982
a(S'significantly'
p983
S'significantly'
p984
S'RB'
p985
S'B-NP'
p986
g5
tp987
a(S'more'
p988
S'more'
p989
S'JJR'
p990
S'I-NP'
p991
g5
tp992
a(S'patients'
p993
S'patient'
p994
S'NNS'
p995
S'I-NP'
p996
g5
tp997
a(S'in'
p998
S'in'
p999
S'IN'
p1000
S'B-PP'
p1001
g5
tp1002
a(S'the'
p1003
S'the'
p1004
S'DT'
p1005
S'B-NP'
p1006
g5
tp1007
a(S'plerixafor'
p1008
S'plerixafor'
p1009
S'NN'
p1010
S'I-NP'
p1011
g5
tp1012
a(S'group'
p1013
S'group'
p1014
S'NN'
p1015
S'I-NP'
p1016
g5
tp1017
a(S'collected'
p1018
S'collect'
p1019
S'VBD'
p1020
S'B-VP'
p1021
g5
tp1022
a(S'the'
p1023
S'the'
p1024
S'DT'
p1025
S'B-NP'
p1026
g5
tp1027
a(S'minimum'
p1028
S'minimum'
p1029
S'NN'
p1030
S'I-NP'
p1031
g5
tp1032
a(g82
g82
g82
g5
g5
tp1033
a(S'\xe2\x89\xa52'
p1034
S'\xe2\x89\xa52'
p1035
S'CD'
p1036
S'B-NP'
p1037
g5
tp1038
a(S'\xc3\x97'
p1039
S'\xc3\x97'
p1040
S'NN'
p1041
S'I-NP'
p1042
g5
tp1043
a(S'10'
p1044
S'10'
p1045
S'CD'
p1046
S'B-NP'
p1047
g5
tp1048
a(g82
g82
g82
g5
g5
tp1049
a(S'6'
p1050
g1050
S'CD'
p1051
S'B-NP'
p1052
g5
tp1053
a(g89
g89
g89
g5
g5
tp1054
a(S'cells/kg'
p1055
S'cells/kg'
p1056
S'NNS'
p1057
S'B-NP'
p1058
g5
tp1059
a(g89
g89
g89
g5
g5
tp1060
a(S'and'
p1061
S'and'
p1062
S'CC'
p1063
g5
g5
tp1064
a(S'optimum'
p1065
S'optimum'
p1066
S'JJ'
p1067
S'B-ADJP'
p1068
g5
tp1069
a(g82
g82
g82
g5
g5
tp1070
a(S'\xe2\x89\xa56'
p1071
S'\xe2\x89\xa56'
p1072
S'CD'
p1073
S'B-NP'
p1074
g5
tp1075
a(S'\xc3\x97'
p1076
S'\xc3\x97'
p1077
S'NN'
p1078
S'I-NP'
p1079
g5
tp1080
a(S'10'
p1081
S'10'
p1082
S'CD'
p1083
S'B-NP'
p1084
g5
tp1085
a(g82
g82
g82
g5
g5
tp1086
a(g1050
g1050
S'CD'
p1087
g5
g5
tp1088
a(g89
g89
g89
g5
g5
tp1089
a(S'cells/kg'
p1090
S'cells/kg'
p1091
S'NN'
p1092
S'B-NP'
p1093
g5
tp1094
a(g89
g89
g89
g5
g5
tp1095
a(S'stem'
p1096
S'stem'
p1097
S'NN'
p1098
S'B-NP'
p1099
g5
tp1100
a(S'cell'
p1101
S'cell'
p1102
S'NN'
p1103
S'I-NP'
p1104
g5
tp1105
a(S'yields'
p1106
S'yield'
p1107
S'NNS'
p1108
S'I-NP'
p1109
g5
tp1110
a(S'on'
p1111
S'on'
p1112
S'IN'
p1113
S'B-PP'
p1114
g5
tp1115
a(S'each'
p1116
S'each'
p1117
S'DT'
p1118
S'B-NP'
p1119
g5
tp1120
a(S'day'
p1121
S'day'
p1122
S'NN'
p1123
S'I-NP'
p1124
g5
tp1125
a(S'of'
p1126
S'of'
p1127
S'IN'
p1128
S'B-PP'
p1129
g5
tp1130
a(S'apheresis.'
p1131
S'apheresis.'
p1132
S'NN'
p1133
S'B-NP'
p1134
g5
tp1135
a(S'As'
p1136
S'As'
p1137
S'IN'
p1138
S'B-PP'
p1139
g5
tp1140
a(g186
g186
S'DT'
p1141
S'B-NP'
p1142
g5
tp1143
a(S'corollary'
p1144
S'corollary'
p1145
S'NN'
p1146
S'I-NP'
p1147
g5
tp1148
a(g354
g354
g354
g5
g5
tp1149
a(S'the'
p1150
S'the'
p1151
S'DT'
p1152
S'B-NP'
p1153
g5
tp1154
a(S'greater'
p1155
S'great'
p1156
S'JJR'
p1157
S'I-NP'
p1158
g5
tp1159
a(S'stem'
p1160
S'stem'
p1161
S'NN'
p1162
S'I-NP'
p1163
g5
tp1164
a(S'cell'
p1165
S'cell'
p1166
S'NN'
p1167
S'I-NP'
p1168
g5
tp1169
a(S'collection'
p1170
S'collection'
p1171
S'NN'
p1172
S'I-NP'
p1173
g5
tp1174
a(S'in'
p1175
S'in'
p1176
S'IN'
p1177
S'B-PP'
p1178
g5
tp1179
a(S'plerixafor-treated'
p1180
S'plerixafor-treated'
p1181
S'JJ'
p1182
S'B-NP'
p1183
g5
tp1184
a(S'patients'
p1185
S'patient'
p1186
S'NNS'
p1187
S'I-NP'
p1188
g5
tp1189
a(S'resulted'
p1190
S'result'
p1191
S'VBD'
p1192
S'B-VP'
p1193
g5
tp1194
a(S'in'
p1195
S'in'
p1196
S'IN'
p1197
S'B-PP'
p1198
g5
tp1199
a(S'the'
p1200
S'the'
p1201
S'DT'
p1202
S'B-NP'
p1203
g5
tp1204
a(S'need'
p1205
S'need'
p1206
S'NN'
p1207
S'I-NP'
p1208
g5
tp1209
a(S'for'
p1210
S'for'
p1211
S'IN'
p1212
S'B-PP'
p1213
g5
tp1214
a(S'significantly'
p1215
S'significantly'
p1216
S'RB'
p1217
S'B-NP'
p1218
g5
tp1219
a(S'fewer'
p1220
S'few'
p1221
S'JJR'
p1222
S'I-NP'
p1223
g5
tp1224
a(S'days'
p1225
S'day'
p1226
S'NNS'
p1227
S'I-NP'
p1228
g5
tp1229
a(S'of'
p1230
S'of'
p1231
S'IN'
p1232
S'B-PP'
p1233
g5
tp1234
a(S'apheresis'
p1235
S'apheresis'
p1236
S'NN'
p1237
S'B-NP'
p1238
g5
tp1239
a(S'to'
p1240
S'to'
p1241
S'TO'
p1242
S'B-VP'
p1243
g5
tp1244
a(S'reach'
p1245
S'reach'
p1246
S'VB'
p1247
S'I-VP'
p1248
g5
tp1249
a(S'minimum'
p1250
S'minimum'
p1251
S'JJ'
p1252
S'B-NP'
p1253
g5
tp1254
a(S'and'
p1255
S'and'
p1256
S'CC'
p1257
S'I-NP'
p1258
g5
tp1259
a(S'optimum'
p1260
S'optimum'
p1261
S'JJ'
p1262
S'I-NP'
p1263
g5
tp1264
a(S'cell'
p1265
S'cell'
p1266
S'NN'
p1267
S'I-NP'
p1268
g5
tp1269
a(S'doses'
p1270
S'dose'
p1271
S'NNS'
p1272
S'I-NP'
p1273
g5
tp1274
a(S'across'
p1275
S'across'
p1276
S'IN'
p1277
S'B-PP'
p1278
g5
tp1279
a(S'all'
p1280
S'all'
p1281
S'DT'
p1282
S'B-NP'
p1283
g5
tp1284
a(S'cell'
p1285
S'cell'
p1286
S'NN'
p1287
S'I-NP'
p1288
g5
tp1289
a(S'count'
p1290
S'count'
p1291
S'NN'
p1292
S'I-NP'
p1293
g5
tp1294
a(S'groups.'
p1295
S'groups.'
p1296
S'NN'
p1297
S'I-NP'
p1298
g5
tp1299
a(S'For'
p1300
S'For'
p1301
S'IN'
p1302
S'B-PP'
p1303
g5
tp1304
a(S'all'
p1305
S'all'
p1306
S'DT'
p1307
S'B-NP'
p1308
g5
tp1309
a(S'CD34'
p1310
S'CD34'
p1311
S'NN'
p1312
S'I-NP'
p1313
S'B-protein'
p1314
tp1315
a(g82
g82
g82
g5
g5
tp1316
a(g85
g85
S'SYM'
p1317
g5
g5
tp1318
a(g89
g89
g89
g5
g5
tp1319
a(S'cell'
p1320
S'cell'
p1321
S'NN'
p1322
S'B-NP'
p1323
g5
tp1324
a(S'count'
p1325
S'count'
p1326
S'NN'
p1327
S'I-NP'
p1328
g5
tp1329
a(S'groups'
p1330
S'group'
p1331
S'NNS'
p1332
S'I-NP'
p1333
g5
tp1334
a(g354
g354
g354
g5
g5
tp1335
a(S'the'
p1336
S'the'
p1337
S'DT'
p1338
S'B-NP'
p1339
g5
tp1340
a(S'proportion'
p1341
S'proportion'
p1342
S'NN'
p1343
S'I-NP'
p1344
g5
tp1345
a(S'of'
p1346
S'of'
p1347
S'IN'
p1348
S'B-PP'
p1349
g5
tp1350
a(S'patients'
p1351
S'patient'
p1352
S'NNS'
p1353
S'B-NP'
p1354
g5
tp1355
a(S'proceeding'
p1356
S'proceed'
p1357
S'VBG'
p1358
S'B-VP'
p1359
g5
tp1360
a(S'to'
p1361
S'to'
p1362
S'TO'
p1363
S'B-PP'
p1364
g5
tp1365
a(S'transplantation'
p1366
S'transplantation'
p1367
S'NN'
p1368
S'B-NP'
p1369
g5
tp1370
a(S'and'
p1371
S'and'
p1372
S'CC'
p1373
g5
g5
tp1374
a(S'the'
p1375
S'the'
p1376
S'DT'
p1377
S'B-NP'
p1378
g5
tp1379
a(S'median'
p1380
S'median'
p1381
S'JJ'
p1382
S'I-NP'
p1383
g5
tp1384
a(S'time'
p1385
S'time'
p1386
S'NN'
p1387
S'I-NP'
p1388
g5
tp1389
a(S'to'
p1390
S'to'
p1391
S'TO'
p1392
S'B-PP'
p1393
g5
tp1394
a(S'platelet'
p1395
S'platelet'
p1396
S'NN'
p1397
S'B-NP'
p1398
S'B-cell_type'
p1399
tp1400
a(S'and'
p1401
S'and'
p1402
S'CC'
p1403
S'I-NP'
p1404
g5
tp1405
a(S'neutrophil'
p1406
S'neutrophil'
p1407
S'NN'
p1408
S'I-NP'
p1409
S'B-cell_type'
p1410
tp1411
a(S'engraftment'
p1412
S'engraftment'
p1413
S'NN'
p1414
S'I-NP'
p1415
g5
tp1416
a(S'were'
p1417
S'be'
p1418
S'VBD'
p1419
S'B-VP'
p1420
g5
tp1421
a(S'similar'
p1422
S'similar'
p1423
S'JJ'
p1424
S'B-ADJP'
p1425
g5
tp1426
a(S'in'
p1427
S'in'
p1428
S'IN'
p1429
S'B-PP'
p1430
g5
tp1431
a(S'the'
p1432
S'the'
p1433
S'DT'
p1434
S'B-NP'
p1435
g5
tp1436
a(S'plerixafor'
p1437
S'plerixafor'
p1438
S'NN'
p1439
S'I-NP'
p1440
g5
tp1441
a(S'and'
p1442
S'and'
p1443
S'CC'
p1444
S'I-NP'
p1445
g5
tp1446
a(S'placebo'
p1447
S'placebo'
p1448
S'NN'
p1449
S'I-NP'
p1450
g5
tp1451
a(S'groups.'
p1452
S'groups.'
p1453
S'NNS'
p1454
S'I-NP'
p1455
g5
tp1456
a(S'Our'
p1457
S'Our'
p1458
S'PRP$'
p1459
S'B-NP'
p1460
g5
tp1461
a(S'findings'
p1462
S'finding'
p1463
S'NNS'
p1464
S'I-NP'
p1465
g5
tp1466
a(S'demonstrate'
p1467
S'demonstrate'
p1468
S'VBP'
p1469
S'B-VP'
p1470
g5
tp1471
a(S'that'
p1472
S'that'
p1473
S'IN'
p1474
S'B-SBAR'
p1475
g5
tp1476
a(S'in'
p1477
S'in'
p1478
S'IN'
p1479
S'B-PP'
p1480
g5
tp1481
a(S'patients'
p1482
S'patient'
p1483
S'NNS'
p1484
S'B-NP'
p1485
g5
tp1486
a(S'with'
p1487
S'with'
p1488
S'IN'
p1489
S'B-PP'
p1490
g5
tp1491
a(S'multiple'
p1492
S'multiple'
p1493
S'JJ'
p1494
S'B-NP'
p1495
g5
tp1496
a(S'myeloma'
p1497
S'myeloma'
p1498
S'NN'
p1499
S'I-NP'
p1500
g5
tp1501
a(S'who'
p1502
S'who'
p1503
S'WP'
p1504
S'B-NP'
p1505
g5
tp1506
a(S'might'
p1507
S'might'
p1508
S'MD'
p1509
S'B-VP'
p1510
g5
tp1511
a(S'be'
p1512
S'be'
p1513
S'VB'
p1514
S'I-VP'
p1515
g5
tp1516
a(S'predicted'
p1517
S'predict'
p1518
S'VBN'
p1519
S'I-VP'
p1520
g5
tp1521
a(S'to'
p1522
S'to'
p1523
S'TO'
p1524
S'B-VP'
p1525
g5
tp1526
a(S'fail'
p1527
S'fail'
p1528
S'VB'
p1529
S'I-VP'
p1530
g5
tp1531
a(S'mobilization'
p1532
S'mobilization'
p1533
S'NN'
p1534
S'B-NP'
p1535
g5
tp1536
a(S'based'
p1537
S'base'
p1538
S'VBN'
p1539
S'B-PP'
p1540
g5
tp1541
a(S'on'
p1542
S'on'
p1543
S'IN'
p1544
S'B-PP'
p1545
g5
tp1546
a(S'low'
p1547
S'low'
p1548
S'JJ'
p1549
S'B-NP'
p1550
g5
tp1551
a(S'PB'
p1552
S'PB'
p1553
S'NN'
p1554
S'I-NP'
p1555
g5
tp1556
a(S'CD34'
p1557
S'CD34'
p1558
S'NN'
p1559
S'I-NP'
p1560
g5
tp1561
a(g82
g82
g82
g5
g5
tp1562
a(g85
g85
S'SYM'
p1563
g5
g5
tp1564
a(g89
g89
g89
g5
g5
tp1565
a(S'cell'
p1566
S'cell'
p1567
S'NN'
p1568
S'B-NP'
p1569
g5
tp1570
a(S'count'
p1571
S'count'
p1572
S'NN'
p1573
S'I-NP'
p1574
g5
tp1575
a(g354
g354
g354
g5
g5
tp1576
a(S'the'
p1577
S'the'
p1578
S'DT'
p1579
S'B-NP'
p1580
g5
tp1581
a(S'addition'
p1582
S'addition'
p1583
S'NN'
p1584
S'I-NP'
p1585
g5
tp1586
a(S'of'
p1587
S'of'
p1588
S'IN'
p1589
S'B-PP'
p1590
g5
tp1591
a(S'plerixafor'
p1592
S'plerixafor'
p1593
S'NN'
p1594
S'B-NP'
p1595
g5
tp1596
a(S'to'
p1597
S'to'
p1598
S'TO'
p1599
S'B-PP'
p1600
g5
tp1601
a(S'G-CSF'
p1602
S'G-CSF'
p1603
S'NN'
p1604
S'B-NP'
p1605
S'B-protein'
p1606
tp1607
a(S'allows'
p1608
S'allow'
p1609
S'VBZ'
p1610
S'B-VP'
p1611
g5
tp1612
a(S'for'
p1613
S'for'
p1614
S'IN'
p1615
S'B-PP'
p1616
g5
tp1617
a(S'collection'
p1618
S'collection'
p1619
S'NN'
p1620
S'B-NP'
p1621
g5
tp1622
a(S'of'
p1623
S'of'
p1624
S'IN'
p1625
S'B-PP'
p1626
g5
tp1627
a(S'the'
p1628
S'the'
p1629
S'DT'
p1630
S'B-NP'
p1631
g5
tp1632
a(S'minimal'
p1633
S'minimal'
p1634
S'JJ'
p1635
S'I-NP'
p1636
g5
tp1637
a(S'and'
p1638
S'and'
p1639
S'CC'
p1640
S'I-NP'
p1641
g5
tp1642
a(S'optimal'
p1643
S'optimal'
p1644
S'JJ'
p1645
S'I-NP'
p1646
g5
tp1647
a(S'cell'
p1648
S'cell'
p1649
S'NN'
p1650
S'I-NP'
p1651
g5
tp1652
a(S'doses'
p1653
S'dose'
p1654
S'NNS'
p1655
S'I-NP'
p1656
g5
tp1657
a(S'in'
p1658
S'in'
p1659
S'IN'
p1660
S'B-PP'
p1661
g5
tp1662
a(g186
g186
S'DT'
p1663
S'B-NP'
p1664
g5
tp1665
a(S'greater'
p1666
S'great'
p1667
S'JJR'
p1668
S'I-NP'
p1669
g5
tp1670
a(S'proportion'
p1671
S'proportion'
p1672
S'NN'
p1673
S'I-NP'
p1674
g5
tp1675
a(S'of'
p1676
S'of'
p1677
S'IN'
p1678
S'B-PP'
p1679
g5
tp1680
a(S'patients'
p1681
S'patient'
p1682
S'NNS'
p1683
S'B-NP'
p1684
g5
tp1685
a(S'compared'
p1686
S'compare'
p1687
S'VBN'
p1688
S'B-PP'
p1689
g5
tp1690
a(S'with'
p1691
S'with'
p1692
S'IN'
p1693
S'B-PP'
p1694
g5
tp1695
a(S'G-CSF'
p1696
S'G-CSF'
p1697
S'NN'
p1698
S'B-NP'
p1699
S'B-protein'
p1700
tp1701
a(S'alone.'
p1702
S'alone.'
p1703
S'RB'
p1704
S'B-ADVP'
p1705
g5
tp1706
a(S'In'
p1707
S'In'
p1708
S'IN'
p1709
S'B-PP'
p1710
g5
tp1711
a(S'addition'
p1712
S'addition'
p1713
S'NN'
p1714
S'B-NP'
p1715
g5
tp1716
a(g354
g354
g354
g5
g5
tp1717
a(S'plerixafor'
p1718
S'plerixafor'
p1719
S'NN'
p1720
S'B-NP'
p1721
g5
tp1722
a(S'plus'
p1723
S'plus'
p1724
S'CC'
p1725
g5
g5
tp1726
a(S'G-CSF'
p1727
S'G-CSF'
p1728
S'NN'
p1729
S'B-NP'
p1730
S'B-protein'
p1731
tp1732
a(S'significantly'
p1733
S'significantly'
p1734
S'RB'
p1735
S'B-ADVP'
p1736
g5
tp1737
a(S'improves'
p1738
S'improve'
p1739
S'VBZ'
p1740
S'B-VP'
p1741
g5
tp1742
a(S'the'
p1743
S'the'
p1744
S'DT'
p1745
S'B-NP'
p1746
g5
tp1747
a(S'likelihood'
p1748
S'likelihood'
p1749
S'NN'
p1750
S'I-NP'
p1751
g5
tp1752
a(S'of'
p1753
S'of'
p1754
S'IN'
p1755
S'B-PP'
p1756
g5
tp1757
a(S'optimal'
p1758
S'optimal'
p1759
S'JJ'
p1760
S'B-NP'
p1761
g5
tp1762
a(S'HSC'
p1763
S'HSC'
p1764
S'NN'
p1765
S'I-NP'
p1766
g5
tp1767
a(S'collection'
p1768
S'collection'
p1769
S'NN'
p1770
S'I-NP'
p1771
g5
tp1772
a(S'in'
p1773
S'in'
p1774
S'IN'
p1775
S'B-PP'
p1776
g5
tp1777
a(S'patients'
p1778
S'patient'
p1779
S'NNS'
p1780
S'B-NP'
p1781
g5
tp1782
a(S'with'
p1783
S'with'
p1784
S'IN'
p1785
S'B-PP'
p1786
g5
tp1787
a(S'higher'
p1788
S'high'
p1789
S'JJR'
p1790
S'B-NP'
p1791
g5
tp1792
a(S'preapheresis'
p1793
S'preapheresis'
p1794
S'NN'
p1795
S'I-NP'
p1796
g5
tp1797
a(S'PB'
p1798
S'PB'
p1799
S'NN'
p1800
S'I-NP'
p1801
g5
tp1802
a(S'CD34'
p1803
S'CD34'
p1804
S'NN'
p1805
S'I-NP'
p1806
g5
tp1807
a(g82
g82
g82
g5
g5
tp1808
a(g85
g85
S'SYM'
p1809
g5
g5
tp1810
a(g89
g89
g89
g5
g5
tp1811
a(S'cell'
p1812
S'cell'
p1813
S'NN'
p1814
S'B-NP'
p1815
g5
tp1816
a(S'counts'
p1817
S'count'
p1818
S'NNS'
p1819
S'I-NP'
p1820
g5
tp1821
a(g82
g82
g82
g5
g5
tp1822
a(S'\xe2\x89\xa520'
p1823
S'\xe2\x89\xa520'
p1824
S'CD'
p1825
S'B-NP'
p1826
g5
tp1827
a(S'cells/\xce\xbcL'
p1828
S'cells/\xce\xbcL'
p1829
S'NN'
p1830
S'I-NP'
p1831
g5
tp1832
a(g89
g89
g89
g5
g5
tp1833
a(S'compared'
p1834
S'compare'
p1835
S'VBN'
p1836
S'B-PP'
p1837
g5
tp1838
a(S'with'
p1839
S'with'
p1840
S'IN'
p1841
S'B-PP'
p1842
g5
tp1843
a(S'placebo'
p1844
S'placebo'
p1845
S'NN'
p1846
S'B-NP'
p1847
g5
tp1848
a(S'plus'
p1849
S'plus'
p1850
S'CC'
p1851
g5
g5
tp1852
a(S'G-CSF.'
p1853
S'G-CSF.'
p1854
S'NNP'
p1855
S'B-NP'
p1856
g5
tp1857
a(S'Collectively'
p1858
S'Collectively'
p1859
S'NNP'
p1860
S'I-NP'
p1861
g5
tp1862
a(g354
g354
g354
g5
g5
tp1863
a(S'this'
p1864
S'this'
p1865
S'DT'
p1866
S'B-NP'
p1867
g5
tp1868
a(S'analysis'
p1869
S'analysis'
p1870
S'NN'
p1871
S'I-NP'
p1872
g5
tp1873
a(S'of'
p1874
S'of'
p1875
S'IN'
p1876
S'B-PP'
p1877
g5
tp1878
a(S'predicted'
p1879
S'predict'
p1880
S'VBN'
p1881
S'B-NP'
p1882
g5
tp1883
a(S'poor'
p1884
S'poor'
p1885
S'JJ'
p1886
S'I-NP'
p1887
g5
tp1888
a(S'mobilizers'
p1889
S'mobilizer'
p1890
S'NNS'
p1891
S'I-NP'
p1892
g5
tp1893
a(S'validates'
p1894
S'validate'
p1895
S'VBZ'
p1896
S'B-VP'
p1897
g5
tp1898
a(S'the'
p1899
S'the'
p1900
S'DT'
p1901
S'B-NP'
p1902
g5
tp1903
a(S'superiority'
p1904
S'superiority'
p1905
S'NN'
p1906
S'I-NP'
p1907
g5
tp1908
a(S'of'
p1909
S'of'
p1910
S'IN'
p1911
S'B-PP'
p1912
g5
tp1913
a(S'plerixafor'
p1914
S'plerixafor'
p1915
S'NN'
p1916
S'B-NP'
p1917
g5
tp1918
a(S'plus'
p1919
S'plus'
p1920
S'CC'
p1921
S'I-NP'
p1922
g5
tp1923
a(S'G-CSF'
p1924
S'G-CSF'
p1925
S'NN'
p1926
S'I-NP'
p1927
S'B-protein'
p1928
tp1929
a(S'compared'
p1930
S'compare'
p1931
S'VBN'
p1932
S'B-PP'
p1933
g5
tp1934
a(S'with'
p1935
S'with'
p1936
S'IN'
p1937
S'B-PP'
p1938
g5
tp1939
a(S'G-CSF'
p1940
S'G-CSF'
p1941
S'NN'
p1942
S'B-NP'
p1943
S'B-protein'
p1944
tp1945
a(S'alone'
p1946
S'alone'
p1947
S'RB'
p1948
S'B-ADVP'
p1949
g5
tp1950
a(g354
g354
g354
g5
g5
tp1951
a(S'which'
p1952
S'which'
p1953
S'WDT'
p1954
S'B-NP'
p1955
g5
tp1956
a(S'had'
p1957
S'have'
p1958
S'VBD'
p1959
S'B-VP'
p1960
g5
tp1961
a(S'been'
p1962
S'be'
p1963
S'VBN'
p1964
S'I-VP'
p1965
g5
tp1966
a(S'demonstrated'
p1967
S'demonstrate'
p1968
S'VBN'
p1969
S'I-VP'
p1970
g5
tp1971
a(S'previously'
p1972
S'previously'
p1973
S'RB'
p1974
S'B-ADVP'
p1975
g5
tp1976
a(S'in'
p1977
S'in'
p1978
S'IN'
p1979
S'B-PP'
p1980
g5
tp1981
a(S'the'
p1982
S'the'
p1983
S'DT'
p1984
S'B-NP'
p1985
g5
tp1986
a(S'overall'
p1987
S'overall'
p1988
S'JJ'
p1989
S'I-NP'
p1990
S'B-cell_type'
p1991
tp1992
a(S'patient'
p1993
S'patient'
p1994
S'NN'
p1995
S'I-NP'
p1996
S'I-cell_type'
p1997
tp1998
a(S'population'
p1999
S'population'
p2000
S'NN'
p2001
S'I-NP'
p2002
S'I-cell_type'
p2003
tp2004
a(g218
g218
g218
g5
g5
tp2005
a.