(lp0
(S'First-line'
p1
S'First-line'
p2
S'JJ'
p3
S'B-NP'
p4
S'O'
p5
tp6
a(S'cisplatin'
p7
S'cisplatin'
p8
S'NN'
p9
S'I-NP'
p10
g5
tp11
a(S'with'
p12
S'with'
p13
S'IN'
p14
S'B-PP'
p15
g5
tp16
a(S'docetaxel'
p17
S'docetaxel'
p18
S'NN'
p19
S'B-NP'
p20
g5
tp21
a(S'or'
p22
S'or'
p23
S'CC'
p24
S'I-NP'
p25
g5
tp26
a(S'vinorelbine'
p27
S'vinorelbine'
p28
S'NN'
p29
S'I-NP'
p30
g5
tp31
a(S'in'
p32
S'in'
p33
S'IN'
p34
S'B-PP'
p35
g5
tp36
a(S'patients'
p37
S'patient'
p38
S'NNS'
p39
S'B-NP'
p40
g5
tp41
a(S'with'
p42
S'with'
p43
S'IN'
p44
S'B-PP'
p45
g5
tp46
a(S'advanced'
p47
S'advance'
p48
S'VBN'
p49
S'B-NP'
p50
g5
tp51
a(S'non-small-cell'
p52
S'non-small-cell'
p53
S'JJ'
p54
S'I-NP'
p55
g5
tp56
a(S'lung'
p57
S'lung'
p58
S'NN'
p59
S'I-NP'
p60
g5
tp61
a(S'cancer'
p62
S'cancer'
p63
S'NN'
p64
S'I-NP'
p65
g5
tp66
a(S':'
p67
g67
g67
g5
g5
tp68
a(S'a'
p69
g69
S'DT'
p70
S'B-NP'
p71
g5
tp72
a(S'quality'
p73
S'quality'
p74
S'NN'
p75
S'I-NP'
p76
g5
tp77
a(S'of'
p78
S'of'
p79
S'IN'
p80
S'B-PP'
p81
g5
tp82
a(S'life'
p83
S'life'
p84
S'NN'
p85
S'B-NP'
p86
S'B-protein'
p87
tp88
a(S'directed'
p89
S'direct'
p90
S'VBN'
p91
S'B-VP'
p92
S'I-protein'
p93
tp94
a(S'phase'
p95
S'phase'
p96
S'NN'
p97
S'B-NP'
p98
S'I-protein'
p99
tp100
a(S'II'
p101
S'II'
p102
S'CD'
p103
S'I-NP'
p104
S'I-protein'
p105
tp106
a(S'randomized'
p107
S'randomize'
p108
S'VBD'
p109
S'B-VP'
p110
g5
tp111
a(S'trial'
p112
S'trial'
p113
S'NN'
p114
S'B-NP'
p115
g5
tp116
a(S'of'
p117
S'of'
p118
S'IN'
p119
S'B-PP'
p120
g5
tp121
a(S'Gruppo'
p122
S'Gruppo'
p123
S'NNP'
p124
S'B-NP'
p125
g5
tp126
a(S'Oncologico'
p127
S'Oncologico'
p128
S'NNP'
p129
S'I-NP'
p130
g5
tp131
a(S'Italia'
p132
S'Italia'
p133
S'NNP'
p134
S'I-NP'
p135
g5
tp136
a(S'Meridionale'
p137
S'Meridionale'
p138
S'NNP'
p139
S'I-NP'
p140
g5
tp141
a(S'.'
p142
g142
g142
g5
g5
tp143
a(S'BACKGROUND'
p144
S'BACKGROUND'
p145
S'NN'
p146
S'B-NP'
p147
g5
tp148
a(S'Quality'
p149
S'Quality'
p150
S'NN'
p151
S'I-NP'
p152
g5
tp153
a(S'of'
p154
S'of'
p155
S'IN'
p156
S'B-PP'
p157
g5
tp158
a(S'life'
p159
S'life'
p160
S'NN'
p161
S'B-NP'
p162
g5
tp163
a(S'('
p164
g164
g164
g5
g5
tp165
a(S'QoL'
p166
S'QoL'
p167
S'NN'
p168
S'B-NP'
p169
g5
tp170
a(S')'
p171
g171
g171
g5
g5
tp172
a(S'has'
p173
S'have'
p174
S'VBZ'
p175
S'B-VP'
p176
g5
tp177
a(S'gained'
p178
S'gain'
p179
S'VBN'
p180
S'I-VP'
p181
g5
tp182
a(S'greater'
p183
S'great'
p184
S'JJR'
p185
S'B-NP'
p186
g5
tp187
a(S'importance'
p188
S'importance'
p189
S'NN'
p190
S'I-NP'
p191
g5
tp192
a(S'in'
p193
S'in'
p194
S'IN'
p195
S'B-PP'
p196
g5
tp197
a(S'the'
p198
S'the'
p199
S'DT'
p200
S'B-NP'
p201
g5
tp202
a(S'management'
p203
S'management'
p204
S'NN'
p205
S'I-NP'
p206
g5
tp207
a(S'of'
p208
S'of'
p209
S'IN'
p210
S'B-PP'
p211
g5
tp212
a(S'metastatic'
p213
S'metastatic'
p214
S'JJ'
p215
S'B-NP'
p216
g5
tp217
a(S'non-small-cell'
p218
S'non-small-cell'
p219
S'JJ'
p220
S'I-NP'
p221
g5
tp222
a(S'lung'
p223
S'lung'
p224
S'NN'
p225
S'I-NP'
p226
g5
tp227
a(S'cancer'
p228
S'cancer'
p229
S'NN'
p230
S'I-NP'
p231
g5
tp232
a(S'due'
p233
S'due'
p234
S'JJ'
p235
S'B-ADJP'
p236
g5
tp237
a(S'to'
p238
S'to'
p239
S'TO'
p240
S'B-PP'
p241
g5
tp242
a(S'the'
p243
S'the'
p244
S'DT'
p245
S'B-NP'
p246
g5
tp247
a(S'palliative'
p248
S'palliative'
p249
S'JJ'
p250
S'I-NP'
p251
g5
tp252
a(S'nature'
p253
S'nature'
p254
S'NN'
p255
S'I-NP'
p256
g5
tp257
a(S'of'
p258
S'of'
p259
S'IN'
p260
S'B-PP'
p261
g5
tp262
a(S'treatment.'
p263
S'treatment.'
p264
S'NN'
p265
S'B-NP'
p266
g5
tp267
a(S'Docetaxel'
p268
S'Docetaxel'
p269
S'NN'
p270
S'I-NP'
p271
g5
tp272
a(g164
g164
g164
g5
g5
tp273
a(S'DCT'
p274
S'DCT'
p275
S'NN'
p276
S'B-NP'
p277
g5
tp278
a(g171
g171
g171
g5
g5
tp279
a(S'and'
p280
S'and'
p281
S'CC'
p282
g5
g5
tp283
a(S'cisplatin'
p284
S'cisplatin'
p285
S'NN'
p286
S'B-NP'
p287
g5
tp288
a(g164
g164
g164
g5
g5
tp289
a(S'CDDP'
p290
S'CDDP'
p291
S'NN'
p292
S'B-NP'
p293
g5
tp294
a(g171
g171
g171
g5
g5
tp295
a(S'doublet'
p296
S'doublet'
p297
S'NN'
p298
S'B-NP'
p299
g5
tp300
a(S'has'
p301
S'have'
p302
S'VBZ'
p303
S'B-VP'
p304
g5
tp305
a(S'been'
p306
S'be'
p307
S'VBN'
p308
S'I-VP'
p309
g5
tp310
a(S'reported'
p311
S'report'
p312
S'VBN'
p313
S'I-VP'
p314
g5
tp315
a(S'to'
p316
S'to'
p317
S'TO'
p318
S'I-VP'
p319
g5
tp320
a(S'be'
p321
S'be'
p322
S'VB'
p323
S'I-VP'
p324
g5
tp325
a(S'associated'
p326
S'associate'
p327
S'VBN'
p328
S'I-VP'
p329
g5
tp330
a(S'to'
p331
S'to'
p332
S'TO'
p333
S'B-PP'
p334
g5
tp335
a(g69
g69
S'DT'
p336
S'B-NP'
p337
g5
tp338
a(S'better'
p339
S'good'
p340
S'JJR'
p341
S'I-NP'
p342
g5
tp343
a(S'QoL'
p344
S'QoL'
p345
S'NN'
p346
S'I-NP'
p347
g5
tp348
a(S'than'
p349
S'than'
p350
S'IN'
p351
S'B-PP'
p352
g5
tp353
a(S'the'
p354
S'the'
p355
S'DT'
p356
S'B-NP'
p357
g5
tp358
a(S'weekly'
p359
S'weekly'
p360
S'JJ'
p361
S'I-NP'
p362
g5
tp363
a(S'vinorelbine'
p364
S'vinorelbine'
p365
S'NN'
p366
S'I-NP'
p367
g5
tp368
a(g164
g164
g164
g5
g5
tp369
a(S'VNR'
p370
S'VNR'
p371
S'NN'
p372
S'B-NP'
p373
S'B-protein'
p374
tp375
a(g171
g171
g171
g5
g5
tp376
a(S'and'
p377
S'and'
p378
S'CC'
p379
g5
g5
tp380
a(S'CDDP'
p381
S'CDDP'
p382
S'NN'
p383
S'B-NP'
p384
g5
tp385
a(S'regimen.'
p386
S'regimen.'
p387
S'NN'
p388
S'I-NP'
p389
g5
tp390
a(S'Recently'
p391
S'Recently'
p392
S'RB'
p393
S'B-ADVP'
p394
g5
tp395
a(g69
g69
S'DT'
p396
S'B-NP'
p397
g5
tp398
a(S'newer'
p399
S'new'
p400
S'JJR'
p401
S'I-NP'
p402
g5
tp403
a(S'more'
p404
S'more'
p405
S'RBR'
p406
S'I-NP'
p407
g5
tp408
a(S'tolerated'
p409
S'tolerate'
p410
S'VBN'
p411
S'I-NP'
p412
g5
tp413
a(S'schedule'
p414
S'schedule'
p415
S'NN'
p416
S'I-NP'
p417
g5
tp418
a(S'of'
p419
S'of'
p420
S'IN'
p421
S'B-PP'
p422
g5
tp423
a(S'the'
p424
S'the'
p425
S'DT'
p426
S'B-NP'
p427
g5
tp428
a(S'VNR/CDDP'
p429
S'VNR/CDDP'
p430
S'NN'
p431
S'I-NP'
p432
g5
tp433
a(S'regimen'
p434
S'regimen'
p435
S'NN'
p436
S'I-NP'
p437
g5
tp438
a(S'has'
p439
S'have'
p440
S'VBZ'
p441
S'B-VP'
p442
g5
tp443
a(S'been'
p444
S'be'
p445
S'VBN'
p446
S'I-VP'
p447
g5
tp448
a(S'published'
p449
S'publish'
p450
S'VBN'
p451
S'I-VP'
p452
g5
tp453
a(S'and'
p454
S'and'
p455
S'CC'
p456
g5
g5
tp457
a(S'is'
p458
S'be'
p459
S'VBZ'
p460
S'B-VP'
p461
g5
tp462
a(S'widely'
p463
S'widely'
p464
S'RB'
p465
S'I-VP'
p466
g5
tp467
a(S'employed'
p468
S'employ'
p469
S'VBN'
p470
S'I-VP'
p471
g5
tp472
a(S'in'
p473
S'in'
p474
S'IN'
p475
S'B-PP'
p476
g5
tp477
a(S'medical'
p478
S'medical'
p479
S'JJ'
p480
S'B-NP'
p481
g5
tp482
a(S'practice.'
p483
S'practice.'
p484
S'NN'
p485
S'I-NP'
p486
g5
tp487
a(S'The'
p488
S'The'
p489
S'DT'
p490
S'B-NP'
p491
g5
tp492
a(S'impact'
p493
S'impact'
p494
S'NN'
p495
S'I-NP'
p496
g5
tp497
a(S'of'
p498
S'of'
p499
S'IN'
p500
S'B-PP'
p501
g5
tp502
a(S'these'
p503
S'these'
p504
S'DT'
p505
S'B-NP'
p506
g5
tp507
a(S'regimens'
p508
S'regimen'
p509
S'NNS'
p510
S'I-NP'
p511
g5
tp512
a(S'on'
p513
S'on'
p514
S'IN'
p515
S'B-PP'
p516
g5
tp517
a(S'patients'
p518
S'patient'
p519
S'NNS'
p520
S'B-NP'
p521
g5
tp522
a(S"'"
p523
g523
S'POS'
p524
S'B-NP'
p525
g5
tp526
a(S'QoL'
p527
S'QoL'
p528
S'NN'
p529
S'I-NP'
p530
g5
tp531
a(S'as'
p532
S'as'
p533
S'RB'
p534
S'B-CONJP'
p535
g5
tp536
a(S'well'
p537
S'well'
p538
S'RB'
p539
S'I-CONJP'
p540
g5
tp541
a(S'as'
p542
S'as'
p543
S'IN'
p544
S'I-CONJP'
p545
g5
tp546
a(S'symptoms'
p547
S'symptom'
p548
S'NNS'
p549
S'B-NP'
p550
g5
tp551
a(S'control'
p552
S'control'
p553
S'NN'
p554
S'I-NP'
p555
g5
tp556
a(S'and'
p557
S'and'
p558
S'CC'
p559
S'I-NP'
p560
g5
tp561
a(S'type'
p562
S'type'
p563
S'NN'
p564
S'I-NP'
p565
g5
tp566
a(S'and'
p567
S'and'
p568
S'CC'
p569
g5
g5
tp570
a(S'grading'
p571
S'grade'
p572
S'VBG'
p573
S'B-VP'
p574
g5
tp575
a(S'chemo-related'
p576
S'chemo-related'
p577
S'JJ'
p578
S'B-NP'
p579
g5
tp580
a(S'side-effects'
p581
S'side-effect'
p582
S'NNS'
p583
S'I-NP'
p584
g5
tp585
a(S'has'
p586
S'have'
p587
S'VBZ'
p588
S'B-VP'
p589
g5
tp590
a(S'been'
p591
S'be'
p592
S'VBN'
p593
S'I-VP'
p594
g5
tp595
a(S'compared'
p596
S'compare'
p597
S'VBN'
p598
S'I-VP'
p599
g5
tp600
a(S'prospectically'
p601
S'prospectically'
p602
S'RB'
p603
S'B-ADVP'
p604
g5
tp605
a(g142
g142
g142
g5
g5
tp606
a(S'METHODS'
p607
S'METHODS'
p608
S'NNS'
p609
S'B-NP'
p610
g5
tp611
a(S'Patients'
p612
S'Patient'
p613
S'NNS'
p614
S'I-NP'
p615
g5
tp616
a(S'received'
p617
S'receive'
p618
S'VBD'
p619
S'B-VP'
p620
g5
tp621
a(S'CDDP'
p622
S'CDDP'
p623
S'NN'
p624
S'B-NP'
p625
g5
tp626
a(S'75'
p627
S'75'
p628
S'CD'
p629
S'I-NP'
p630
g5
tp631
a(S'mg/m'
p632
S'mg/m'
p633
S'NN'
p634
S'I-NP'
p635
g5
tp636
a(g164
g164
g164
g5
g5
tp637
a(S'2'
p638
g638
S'CD'
p639
S'B-NP'
p640
g5
tp641
a(g171
g171
g171
g5
g5
tp642
a(S'plus'
p643
S'plus'
p644
S'CC'
p645
g5
g5
tp646
a(S'DCT'
p647
S'DCT'
p648
S'NN'
p649
S'B-NP'
p650
g5
tp651
a(S'75'
p652
S'75'
p653
S'CD'
p654
S'I-NP'
p655
g5
tp656
a(S'mg/m'
p657
S'mg/m'
p658
S'NN'
p659
S'I-NP'
p660
g5
tp661
a(g164
g164
g164
g5
g5
tp662
a(g638
g638
S'CD'
p663
S'B-NP'
p664
g5
tp665
a(g171
g171
g171
g5
g5
tp666
a(S'on'
p667
S'on'
p668
S'IN'
p669
S'B-PP'
p670
g5
tp671
a(S'day'
p672
S'day'
p673
S'NN'
p674
S'B-NP'
p675
g5
tp676
a(S'1'
p677
g677
S'CD'
p678
S'I-NP'
p679
g5
tp680
a(S'every'
p681
S'every'
p682
S'DT'
p683
S'B-NP'
p684
g5
tp685
a(S'weeks'
p686
S'week'
p687
S'NNS'
p688
S'I-NP'
p689
g5
tp690
a(g164
g164
g164
g5
g5
tp691
a(S'arm'
p692
S'arm'
p693
S'NN'
p694
S'B-NP'
p695
g5
tp696
a(S'A'
p697
g697
S'NN'
p698
S'I-NP'
p699
g5
tp700
a(g171
g171
g171
g5
g5
tp701
a(S'or'
p702
S'or'
p703
S'CC'
p704
g5
g5
tp705
a(S'CDDP'
p706
S'CDDP'
p707
S'NN'
p708
S'B-NP'
p709
g5
tp710
a(S'80'
p711
S'80'
p712
S'CD'
p713
S'I-NP'
p714
g5
tp715
a(S'mg/m'
p716
S'mg/m'
p717
S'NN'
p718
S'I-NP'
p719
g5
tp720
a(g164
g164
g164
g5
g5
tp721
a(g638
g638
S'CD'
p722
S'B-NP'
p723
g5
tp724
a(g171
g171
g171
g5
g5
tp725
a(S'on'
p726
S'on'
p727
S'IN'
p728
S'B-PP'
p729
g5
tp730
a(S'day'
p731
S'day'
p732
S'NN'
p733
S'B-NP'
p734
g5
tp735
a(g677
g677
S'CD'
p736
S'I-NP'
p737
g5
tp738
a(S'plus'
p739
S'plus'
p740
S'CC'
p741
g5
g5
tp742
a(S'VNR'
p743
S'VNR'
p744
S'NN'
p745
S'B-NP'
p746
S'B-protein'
p747
tp748
a(S'30'
p749
S'30'
p750
S'CD'
p751
S'I-NP'
p752
S'I-protein'
p753
tp754
a(S'mg/m'
p755
S'mg/m'
p756
S'NN'
p757
S'I-NP'
p758
S'I-protein'
p759
tp760
a(g164
g164
g164
g5
S'I-protein'
p761
tp762
a(g638
g638
S'CD'
p763
S'B-NP'
p764
S'I-protein'
p765
tp766
a(g171
g171
g171
g5
S'I-protein'
p767
tp768
a(S'day'
p769
S'day'
p770
S'NN'
p771
S'B-NP'
p772
S'I-protein'
p773
tp774
a(g677
g677
S'CD'
p775
S'I-NP'
p776
S'I-protein'
p777
tp778
a(S'and'
p779
S'and'
p780
S'CC'
p781
S'I-NP'
p782
S'I-protein'
p783
tp784
a(S'8'
p785
g785
S'CD'
p786
S'I-NP'
p787
S'I-protein'
p788
tp789
a(S'every'
p790
S'every'
p791
S'DT'
p792
S'B-NP'
p793
g5
tp794
a(S'3'
p795
g795
S'CD'
p796
S'I-NP'
p797
g5
tp798
a(S'weeks'
p799
S'week'
p800
S'NNS'
p801
S'I-NP'
p802
g5
tp803
a(g164
g164
g164
g5
g5
tp804
a(S'arm'
p805
S'arm'
p806
S'NN'
p807
S'B-NP'
p808
S'B-DNA'
p809
tp810
a(S'B'
p811
g811
S'NN'
p812
S'I-NP'
p813
S'I-DNA'
p814
tp815
a(g171
g171
g171
g5
g5
tp816
a(g142
g142
g142
g5
g5
tp817
a(S'G-CSF'
p818
S'G-CSF'
p819
S'NN'
p820
S'B-NP'
p821
S'B-protein'
p822
tp823
a(S'and/or'
p824
S'and/or'
p825
S'CC'
p826
S'I-NP'
p827
g5
tp828
a(S'EPO'
p829
S'EPO'
p830
S'NN'
p831
S'I-NP'
p832
S'B-protein'
p833
tp834
a(S'were'
p835
S'be'
p836
S'VBD'
p837
S'B-VP'
p838
g5
tp839
a(S'employed'
p840
S'employ'
p841
S'VBN'
p842
S'I-VP'
p843
g5
tp844
a(S'as'
p845
S'as'
p846
S'IN'
p847
S'B-PP'
p848
g5
tp849
a(S'needed.'
p850
S'needed.'
p851
S'FW'
p852
S'B-NP'
p853
g5
tp854
a(S'Health-related'
p855
S'Health-related'
p856
S'JJ'
p857
S'I-NP'
p858
g5
tp859
a(S'QoL'
p860
S'QoL'
p861
S'NN'
p862
S'I-NP'
p863
g5
tp864
a(S'was'
p865
S'be'
p866
S'VBD'
p867
S'B-VP'
p868
g5
tp869
a(S'assessed'
p870
S'assess'
p871
S'VBN'
p872
S'I-VP'
p873
g5
tp874
a(S'at'
p875
S'at'
p876
S'IN'
p877
S'B-PP'
p878
g5
tp879
a(S'entry'
p880
S'entry'
p881
S'NN'
p882
S'B-NP'
p883
g5
tp884
a(S'and'
p885
S'and'
p886
S'CC'
p887
g5
g5
tp888
a(S'after'
p889
S'after'
p890
S'IN'
p891
S'B-PP'
p892
g5
tp893
a(S'every'
p894
S'every'
p895
S'DT'
p896
S'B-NP'
p897
g5
tp898
a(S'cycle'
p899
S'cycle'
p900
S'NN'
p901
S'I-NP'
p902
g5
tp903
a(S'by'
p904
S'by'
p905
S'IN'
p906
S'B-PP'
p907
g5
tp908
a(S'the'
p909
S'the'
p910
S'DT'
p911
S'B-NP'
p912
g5
tp913
a(S'EORTC-QLQ-C30'
p914
S'EORTC-QLQ-C30'
p915
S'NN'
p916
S'I-NP'
p917
g5
tp918
a(S'and'
p919
S'and'
p920
S'CC'
p921
S'I-NP'
p922
g5
tp923
a(S'LC13'
p924
S'LC13'
p925
S'NN'
p926
S'I-NP'
p927
S'B-DNA'
p928
tp929
a(S'questionnaires'
p930
S'questionnaire'
p931
S'NNS'
p932
S'I-NP'
p933
S'I-DNA'
p934
tp935
a(S','
p936
g936
g936
g5
g5
tp937
a(S'toxicity'
p938
S'toxicity'
p939
S'NN'
p940
S'B-NP'
p941
g5
tp942
a(S'by'
p943
S'by'
p944
S'IN'
p945
S'B-PP'
p946
g5
tp947
a(S'the'
p948
S'the'
p949
S'DT'
p950
S'B-NP'
p951
g5
tp952
a(S'NCI-NCCN'
p953
S'NCI-NCCN'
p954
S'NN'
p955
S'I-NP'
p956
S'B-protein'
p957
tp958
a(S'CTC'
p959
S'CTC'
p960
S'NN'
p961
S'I-NP'
p962
S'I-protein'
p963
tp964
a(S'vs'
p965
S'vs'
p966
S'IN'
p967
S'B-PP'
p968
g5
tp969
a(g638
g638
S'CD'
p970
S'B-NP'
p971
g5
tp972
a(g936
g936
g936
g5
g5
tp973
a(S'and'
p974
S'and'
p975
S'CC'
p976
g5
g5
tp977
a(S'intent-to-treat'
p978
S'intent-to-treat'
p979
S'JJ'
p980
S'B-NP'
p981
g5
tp982
a(S'objective'
p983
S'objective'
p984
S'JJ'
p985
S'I-NP'
p986
g5
tp987
a(S'response'
p988
S'response'
p989
S'NN'
p990
S'I-NP'
p991
g5
tp992
a(S'by'
p993
S'by'
p994
S'IN'
p995
S'B-PP'
p996
g5
tp997
a(S'the'
p998
S'the'
p999
S'DT'
p1000
S'B-NP'
p1001
g5
tp1002
a(S'Recist'
p1003
S'Recist'
p1004
S'NN'
p1005
S'I-NP'
p1006
g5
tp1007
a(S'criteria'
p1008
S'criterion'
p1009
S'NNS'
p1010
S'I-NP'
p1011
g5
tp1012
a(g142
g142
g142
g5
g5
tp1013
a(S'RESULTS'
p1014
S'RESULTS'
p1015
S'NNS'
p1016
S'B-NP'
p1017
g5
tp1018
a(S'The'
p1019
S'The'
p1020
S'DT'
p1021
S'B-NP'
p1022
g5
tp1023
a(S'QoL'
p1024
S'QoL'
p1025
S'NN'
p1026
S'I-NP'
p1027
S'B-DNA'
p1028
tp1029
a(S'questionnaires'
p1030
S'questionnaire'
p1031
S'NNS'
p1032
S'I-NP'
p1033
S'I-DNA'
p1034
tp1035
a(S'were'
p1036
S'be'
p1037
S'VBD'
p1038
S'B-VP'
p1039
g5
tp1040
a(S'completed'
p1041
S'complete'
p1042
S'VBN'
p1043
S'I-VP'
p1044
g5
tp1045
a(S'by'
p1046
S'by'
p1047
S'IN'
p1048
S'B-PP'
p1049
g5
tp1050
a(S'37'
p1051
S'37'
p1052
S'CD'
p1053
S'B-NP'
p1054
g5
tp1055
a(S'pts'
p1056
S'pt'
p1057
S'NNS'
p1058
S'I-NP'
p1059
g5
tp1060
a(g164
g164
g164
g5
g5
tp1061
a(S'88'
p1062
S'88'
p1063
S'CD'
p1064
S'B-NP'
p1065
g5
tp1066
a(S'%'
p1067
g1067
S'NN'
p1068
S'I-NP'
p1069
g5
tp1070
a(g171
g171
g171
g5
g5
tp1071
a(S'in'
p1072
S'in'
p1073
S'IN'
p1074
S'B-PP'
p1075
g5
tp1076
a(S'the'
p1077
S'the'
p1078
S'DT'
p1079
S'B-NP'
p1080
g5
tp1081
a(S'DCT/CDDP'
p1082
S'DCT/CDDP'
p1083
S'NN'
p1084
S'I-NP'
p1085
g5
tp1086
a(S'arm'
p1087
S'arm'
p1088
S'NN'
p1089
S'I-NP'
p1090
g5
tp1091
a(S'and'
p1092
S'and'
p1093
S'CC'
p1094
g5
g5
tp1095
a(S'39'
p1096
S'39'
p1097
S'CD'
p1098
S'B-NP'
p1099
g5
tp1100
a(S'pts'
p1101
S'pt'
p1102
S'NNS'
p1103
S'I-NP'
p1104
g5
tp1105
a(g164
g164
g164
g5
g5
tp1106
a(S'87'
p1107
S'87'
p1108
S'CD'
p1109
S'B-NP'
p1110
g5
tp1111
a(g1067
g1067
S'NN'
p1112
S'I-NP'
p1113
g5
tp1114
a(g171
g171
g171
g5
g5
tp1115
a(S'in'
p1116
S'in'
p1117
S'IN'
p1118
S'B-PP'
p1119
g5
tp1120
a(S'the'
p1121
S'the'
p1122
S'DT'
p1123
S'B-NP'
p1124
g5
tp1125
a(S'VNR/CDDP'
p1126
S'VNR/CDDP'
p1127
S'NNP'
p1128
S'I-NP'
p1129
g5
tp1130
a(S'one.'
p1131
S'one.'
p1132
S'CD'
p1133
S'I-NP'
p1134
g5
tp1135
a(S'Baseline'
p1136
S'Baseline'
p1137
S'NNP'
p1138
S'I-NP'
p1139
g5
tp1140
a(S'mean'
p1141
S'mean'
p1142
S'NN'
p1143
S'I-NP'
p1144
g5
tp1145
a(S'scores'
p1146
S'score'
p1147
S'NNS'
p1148
S'I-NP'
p1149
g5
tp1150
a(S'and'
p1151
S'and'
p1152
S'CC'
p1153
S'I-NP'
p1154
g5
tp1155
a(S'rates'
p1156
S'rate'
p1157
S'NNS'
p1158
S'I-NP'
p1159
g5
tp1160
a(S'at'
p1161
S'at'
p1162
S'IN'
p1163
S'B-PP'
p1164
g5
tp1165
a(S'which'
p1166
S'which'
p1167
S'WDT'
p1168
S'B-NP'
p1169
g5
tp1170
a(S'pts'
p1171
S'pt'
p1172
S'NNS'
p1173
S'B-NP'
p1174
g5
tp1175
a(S'failed'
p1176
S'fail'
p1177
S'VBD'
p1178
S'B-VP'
p1179
g5
tp1180
a(S'to'
p1181
S'to'
p1182
S'TO'
p1183
S'I-VP'
p1184
g5
tp1185
a(S'complete'
p1186
S'complete'
p1187
S'VB'
p1188
S'I-VP'
p1189
g5
tp1190
a(S'QoL'
p1191
S'QoL'
p1192
S'NN'
p1193
S'B-NP'
p1194
g5
tp1195
a(S'assessment'
p1196
S'assessment'
p1197
S'NN'
p1198
S'I-NP'
p1199
g5
tp1200
a(S'were'
p1201
S'be'
p1202
S'VBD'
p1203
S'B-VP'
p1204
g5
tp1205
a(S'similar'
p1206
S'similar'
p1207
S'JJ'
p1208
S'B-ADJP'
p1209
g5
tp1210
a(S'in'
p1211
S'in'
p1212
S'IN'
p1213
S'B-PP'
p1214
g5
tp1215
a(S'the'
p1216
S'the'
p1217
S'DT'
p1218
S'B-NP'
p1219
g5
tp1220
a(S'two'
p1221
S'two'
p1222
S'CD'
p1223
S'I-NP'
p1224
g5
tp1225
a(S'arms.'
p1226
S'arms.'
p1227
S'NNS'
p1228
S'I-NP'
p1229
g5
tp1230
a(S'Global'
p1231
S'Global'
p1232
S'NNP'
p1233
S'I-NP'
p1234
g5
tp1235
a(S'health'
p1236
S'health'
p1237
S'NN'
p1238
S'I-NP'
p1239
g5
tp1240
a(S'status'
p1241
S'status'
p1242
S'NN'
p1243
S'I-NP'
p1244
g5
tp1245
a(S'of'
p1246
S'of'
p1247
S'IN'
p1248
S'B-PP'
p1249
g5
tp1250
a(S'the'
p1251
S'the'
p1252
S'DT'
p1253
S'B-NP'
p1254
g5
tp1255
a(S'EORTC'
p1256
S'EORTC'
p1257
S'NN'
p1258
S'I-NP'
p1259
g5
tp1260
a(S'QLQ-C30'
p1261
S'QLQ-C30'
p1262
S'NN'
p1263
S'I-NP'
p1264
g5
tp1265
a(S'scale'
p1266
S'scale'
p1267
S'NN'
p1268
S'I-NP'
p1269
g5
tp1270
a(S'and'
p1271
S'and'
p1272
S'CC'
p1273
g5
g5
tp1274
a(S'specific'
p1275
S'specific'
p1276
S'JJ'
p1277
S'B-NP'
p1278
g5
tp1279
a(S'symptoms'
p1280
S'symptom'
p1281
S'NNS'
p1282
S'I-NP'
p1283
g5
tp1284
a(S'control'
p1285
S'control'
p1286
S'NN'
p1287
S'I-NP'
p1288
g5
tp1289
a(g164
g164
g164
g5
g5
tp1290
a(S'LC13'
p1291
S'LC13'
p1292
S'NN'
p1293
S'B-NP'
p1294
g5
tp1295
a(S'module'
p1296
S'module'
p1297
S'NN'
p1298
S'I-NP'
p1299
g5
tp1300
a(g171
g171
g171
g5
g5
tp1301
a(S'improved'
p1302
S'improve'
p1303
S'VBN'
p1304
S'B-VP'
p1305
g5
tp1306
a(S'during'
p1307
S'during'
p1308
S'IN'
p1309
S'B-PP'
p1310
g5
tp1311
a(S'treatment'
p1312
S'treatment'
p1313
S'NN'
p1314
S'B-NP'
p1315
g5
tp1316
a(S'without'
p1317
S'without'
p1318
S'IN'
p1319
S'B-PP'
p1320
g5
tp1321
a(S'any'
p1322
S'any'
p1323
S'DT'
p1324
S'B-NP'
p1325
g5
tp1326
a(S'statistically'
p1327
S'statistically'
p1328
S'RB'
p1329
S'I-NP'
p1330
g5
tp1331
a(S'significant'
p1332
S'significant'
p1333
S'JJ'
p1334
S'I-NP'
p1335
g5
tp1336
a(S'difference'
p1337
S'difference'
p1338
S'NN'
p1339
S'I-NP'
p1340
g5
tp1341
a(S'between'
p1342
S'between'
p1343
S'IN'
p1344
S'B-PP'
p1345
g5
tp1346
a(S'the'
p1347
S'the'
p1348
S'DT'
p1349
S'B-NP'
p1350
g5
tp1351
a(S'two'
p1352
S'two'
p1353
S'CD'
p1354
S'I-NP'
p1355
g5
tp1356
a(S'arms.'
p1357
S'arms.'
p1358
S'NN'
p1359
S'I-NP'
p1360
g5
tp1361
a(S'Emotional'
p1362
S'Emotional'
p1363
S'JJ'
p1364
S'I-NP'
p1365
g5
tp1366
a(S'functioning'
p1367
S'functioning'
p1368
S'NN'
p1369
S'I-NP'
p1370
g5
tp1371
a(S'remained'
p1372
S'remain'
p1373
S'VBD'
p1374
S'B-VP'
p1375
g5
tp1376
a(S'stable'
p1377
S'stable'
p1378
S'JJ'
p1379
S'B-ADJP'
p1380
g5
tp1381
a(S'in'
p1382
S'in'
p1383
S'IN'
p1384
S'B-PP'
p1385
g5
tp1386
a(S'both'
p1387
S'both'
p1388
S'DT'
p1389
S'B-NP'
p1390
g5
tp1391
a(S'groups'
p1392
S'group'
p1393
S'NNS'
p1394
S'I-NP'
p1395
g5
tp1396
a(S'during'
p1397
S'during'
p1398
S'IN'
p1399
S'B-PP'
p1400
g5
tp1401
a(S'treatment'
p1402
S'treatment'
p1403
S'NN'
p1404
S'B-NP'
p1405
g5
tp1406
a(g936
g936
g936
g5
g5
tp1407
a(S'whereas'
p1408
S'whereas'
p1409
S'IN'
p1410
g5
g5
tp1411
a(S'physical'
p1412
S'physical'
p1413
S'JJ'
p1414
S'B-NP'
p1415
g5
tp1416
a(S'and'
p1417
S'and'
p1418
S'CC'
p1419
S'I-NP'
p1420
g5
tp1421
a(S'role'
p1422
S'role'
p1423
S'NN'
p1424
S'I-NP'
p1425
g5
tp1426
a(S'improved'
p1427
S'improve'
p1428
S'VBD'
p1429
S'B-VP'
p1430
g5
tp1431
a(S'slightly.'
p1432
S'slightly.'
p1433
S'RB'
p1434
S'B-ADVP'
p1435
g5
tp1436
a(S'In'
p1437
S'In'
p1438
S'IN'
p1439
S'B-PP'
p1440
g5
tp1441
a(S'the'
p1442
S'the'
p1443
S'DT'
p1444
S'B-NP'
p1445
g5
tp1446
a(S'DCT/CDDP'
p1447
S'DCT/CDDP'
p1448
S'NN'
p1449
S'I-NP'
p1450
g5
tp1451
a(S'arm'
p1452
S'arm'
p1453
S'NN'
p1454
S'I-NP'
p1455
g5
tp1456
a(S'14'
p1457
S'14'
p1458
S'CD'
p1459
S'B-NP'
p1460
g5
tp1461
a(S'pts'
p1462
S'pt'
p1463
S'NNS'
p1464
S'I-NP'
p1465
g5
tp1466
a(g164
g164
g164
g5
g5
tp1467
a(S'33'
p1468
S'33'
p1469
S'CD'
p1470
S'B-NP'
p1471
g5
tp1472
a(g1067
g1067
S'NN'
p1473
S'I-NP'
p1474
g5
tp1475
a(S';'
p1476
g1476
g67
g5
g5
tp1477
a(S'95'
p1478
S'95'
p1479
S'CD'
p1480
S'B-NP'
p1481
g5
tp1482
a(g1067
g1067
S'NN'
p1483
S'I-NP'
p1484
g5
tp1485
a(S'CL'
p1486
S'CL'
p1487
S'NN'
p1488
S'I-NP'
p1489
g5
tp1490
a(S'24-40'
p1491
S'24-40'
p1492
S'CD'
p1493
S'B-NP'
p1494
g5
tp1495
a(g1067
g1067
S'NN'
p1496
S'I-NP'
p1497
g5
tp1498
a(g171
g171
g171
g5
g5
tp1499
a(S'had'
p1500
S'have'
p1501
S'VBD'
p1502
S'B-VP'
p1503
g5
tp1504
a(S'PR'
p1505
S'PR'
p1506
S'NN'
p1507
S'B-NP'
p1508
S'B-protein'
p1509
tp1510
a(g936
g936
g936
g5
g5
tp1511
a(S'and'
p1512
S'and'
p1513
S'CC'
p1514
g5
g5
tp1515
a(S'10'
p1516
S'10'
p1517
S'CD'
p1518
S'B-NP'
p1519
g5
tp1520
a(g164
g164
g164
g5
g5
tp1521
a(S'24'
p1522
S'24'
p1523
S'CD'
p1524
S'B-NP'
p1525
g5
tp1526
a(g1067
g1067
S'NN'
p1527
S'I-NP'
p1528
g5
tp1529
a(g171
g171
g171
g5
g5
tp1530
a(S'SD'
p1531
S'SD'
p1532
S'NN'
p1533
S'B-NP'
p1534
g5
tp1535
a(S'for'
p1536
S'for'
p1537
S'IN'
p1538
S'B-PP'
p1539
g5
tp1540
a(g69
g69
S'DT'
p1541
S'B-NP'
p1542
g5
tp1543
a(S'57'
p1544
S'57'
p1545
S'CD'
p1546
S'I-NP'
p1547
g5
tp1548
a(g1067
g1067
S'NN'
p1549
S'I-NP'
p1550
g5
tp1551
a(S'TGCR.'
p1552
S'TGCR.'
p1553
S'NN'
p1554
S'I-NP'
p1555
g5
tp1556
a(S'In'
p1557
S'In'
p1558
S'IN'
p1559
S'B-PP'
p1560
g5
tp1561
a(S'the'
p1562
S'the'
p1563
S'DT'
p1564
S'B-NP'
p1565
g5
tp1566
a(S'VNR/CDDP'
p1567
S'VNR/CDDP'
p1568
S'NN'
p1569
S'I-NP'
p1570
g5
tp1571
a(S'arm'
p1572
S'arm'
p1573
S'NN'
p1574
S'I-NP'
p1575
g5
tp1576
a(S'12'
p1577
S'12'
p1578
S'CD'
p1579
S'B-NP'
p1580
g5
tp1581
a(S'pts'
p1582
S'pt'
p1583
S'NNS'
p1584
S'I-NP'
p1585
g5
tp1586
a(g164
g164
g164
g5
g5
tp1587
a(S'27'
p1588
S'27'
p1589
S'CD'
p1590
S'B-NP'
p1591
g5
tp1592
a(g1067
g1067
S'NN'
p1593
S'I-NP'
p1594
g5
tp1595
a(g171
g171
g171
g5
g5
tp1596
a(S'achieved'
p1597
S'achieve'
p1598
S'VBD'
p1599
S'B-VP'
p1600
g5
tp1601
a(S'PR'
p1602
S'PR'
p1603
S'NN'
p1604
S'B-NP'
p1605
S'B-protein'
p1606
tp1607
a(g936
g936
g936
g5
g5
tp1608
a(S'18'
p1609
S'18'
p1610
S'CD'
p1611
S'B-NP'
p1612
g5
tp1613
a(g164
g164
g164
g5
g5
tp1614
a(S'41'
p1615
S'41'
p1616
S'CD'
p1617
S'B-NP'
p1618
g5
tp1619
a(g1067
g1067
S'NN'
p1620
S'I-NP'
p1621
g5
tp1622
a(g171
g171
g171
g5
g5
tp1623
a(S'SD'
p1624
S'SD'
p1625
S'VBD'
p1626
S'B-VP'
p1627
g5
tp1628
a(g69
g69
S'DT'
p1629
S'B-NP'
p1630
g5
tp1631
a(S'68'
p1632
S'68'
p1633
S'CD'
p1634
S'I-NP'
p1635
g5
tp1636
a(g1067
g1067
S'NN'
p1637
S'I-NP'
p1638
g5
tp1639
a(S'TGCR.'
p1640
S'TGCR.'
p1641
S'NN'
p1642
S'I-NP'
p1643
g5
tp1644
a(S'Differences'
p1645
S'Difference'
p1646
S'NNS'
p1647
S'I-NP'
p1648
g5
tp1649
a(S'were'
p1650
S'be'
p1651
S'VBD'
p1652
S'B-VP'
p1653
g5
tp1654
a(S'not'
p1655
S'not'
p1656
S'RB'
p1657
S'I-VP'
p1658
g5
tp1659
a(S'statistically'
p1660
S'statistically'
p1661
S'RB'
p1662
S'I-VP'
p1663
g5
tp1664
a(S'significant.'
p1665
S'significant.'
p1666
S'VB'
p1667
S'I-VP'
p1668
g5
tp1669
a(S'Median'
p1670
S'Median'
p1671
S'JJ'
p1672
S'B-NP'
p1673
g5
tp1674
a(S'time-to-progression'
p1675
S'time-to-progression'
p1676
S'NN'
p1677
S'I-NP'
p1678
g5
tp1679
a(S'was'
p1680
S'be'
p1681
S'VBD'
p1682
S'B-VP'
p1683
g5
tp1684
a(S'4.2'
p1685
S'4.2'
p1686
S'CD'
p1687
S'B-NP'
p1688
g5
tp1689
a(S'months'
p1690
S'month'
p1691
S'NNS'
p1692
S'I-NP'
p1693
g5
tp1694
a(S'in'
p1695
S'in'
p1696
S'IN'
p1697
S'B-PP'
p1698
g5
tp1699
a(S'the'
p1700
S'the'
p1701
S'DT'
p1702
S'B-NP'
p1703
g5
tp1704
a(S'DCT/CDDP'
p1705
S'DCT/CDDP'
p1706
S'NN'
p1707
S'I-NP'
p1708
g5
tp1709
a(S'arm'
p1710
S'arm'
p1711
S'NN'
p1712
S'I-NP'
p1713
g5
tp1714
a(S'and'
p1715
S'and'
p1716
S'CC'
p1717
g5
g5
tp1718
a(S'4.5'
p1719
S'4.5'
p1720
S'CD'
p1721
S'B-NP'
p1722
g5
tp1723
a(S'months'
p1724
S'month'
p1725
S'NNS'
p1726
S'I-NP'
p1727
g5
tp1728
a(S'in'
p1729
S'in'
p1730
S'IN'
p1731
S'B-PP'
p1732
g5
tp1733
a(S'the'
p1734
S'the'
p1735
S'DT'
p1736
S'B-NP'
p1737
g5
tp1738
a(S'VNR/CDDP'
p1739
S'VNR/CDDP'
p1740
S'NN'
p1741
S'I-NP'
p1742
g5
tp1743
a(S'one'
p1744
S'one'
p1745
S'CD'
p1746
S'I-NP'
p1747
g5
tp1748
a(g936
g936
g936
g5
g5
tp1749
a(S'and'
p1750
S'and'
p1751
S'CC'
p1752
g5
g5
tp1753
a(S'median'
p1754
S'median'
p1755
S'JJ'
p1756
S'B-NP'
p1757
g5
tp1758
a(S'overall'
p1759
S'overall'
p1760
S'JJ'
p1761
S'I-NP'
p1762
g5
tp1763
a(S'survival'
p1764
S'survival'
p1765
S'NN'
p1766
S'I-NP'
p1767
g5
tp1768
a(S'was'
p1769
S'be'
p1770
S'VBD'
p1771
S'B-VP'
p1772
g5
tp1773
a(S'12.1'
p1774
S'12.1'
p1775
S'CD'
p1776
S'B-NP'
p1777
g5
tp1778
a(g164
g164
g164
g5
g5
tp1779
a(S'range'
p1780
S'range'
p1781
S'NN'
p1782
S'B-NP'
p1783
g5
tp1784
a(S'1-26+'
p1785
S'1-26+'
p1786
S'JJ'
p1787
S'I-NP'
p1788
g5
tp1789
a(S'months'
p1790
S'month'
p1791
S'NNS'
p1792
S'I-NP'
p1793
g5
tp1794
a(g171
g171
g171
g5
g5
tp1795
a(S'and'
p1796
S'and'
p1797
S'CC'
p1798
g5
g5
tp1799
a(S'12.5'
p1800
S'12.5'
p1801
S'CD'
p1802
S'B-NP'
p1803
g5
tp1804
a(S'months'
p1805
S'month'
p1806
S'NNS'
p1807
S'I-NP'
p1808
g5
tp1809
a(g164
g164
g164
g5
g5
tp1810
a(S'range'
p1811
S'range'
p1812
S'NN'
p1813
S'B-NP'
p1814
g5
tp1815
a(S'1-28+'
p1816
S'1-28+'
p1817
S'JJ'
p1818
S'I-NP'
p1819
g5
tp1820
a(S'months'
p1821
S'month'
p1822
S'NNS'
p1823
S'I-NP'
p1824
g5
tp1825
a(g171
g171
g171
g5
g5
tp1826
a(S'for'
p1827
S'for'
p1828
S'IN'
p1829
S'B-PP'
p1830
g5
tp1831
a(S'DCT/CDDP'
p1832
S'DCT/CDDP'
p1833
S'NN'
p1834
S'B-NP'
p1835
g5
tp1836
a(S'and'
p1837
S'and'
p1838
S'CC'
p1839
S'I-NP'
p1840
g5
tp1841
a(S'VNR/CDDP'
p1842
S'VNR/CDDP'
p1843
S'NN'
p1844
S'I-NP'
p1845
S'B-protein'
p1846
tp1847
a(S'arms'
p1848
S'arm'
p1849
S'NNS'
p1850
S'I-NP'
p1851
S'I-protein'
p1852
tp1853
a(g936
g936
g936
g5
g5
tp1854
a(S'respectively.'
p1855
S'respectively.'
p1856
S'VBP'
p1857
S'B-VP'
p1858
g5
tp1859
a(S'Febrile'
p1860
S'Febrile'
p1861
S'NNP'
p1862
S'B-NP'
p1863
g5
tp1864
a(S'neutropenia'
p1865
S'neutropenia'
p1866
S'NN'
p1867
S'I-NP'
p1868
g5
tp1869
a(S'rate'
p1870
S'rate'
p1871
S'NN'
p1872
S'I-NP'
p1873
g5
tp1874
a(S'was'
p1875
S'be'
p1876
S'VBD'
p1877
S'B-VP'
p1878
g5
tp1879
a(S'higher'
p1880
S'high'
p1881
S'JJR'
p1882
S'B-ADJP'
p1883
g5
tp1884
a(S'in'
p1885
S'in'
p1886
S'IN'
p1887
S'B-PP'
p1888
g5
tp1889
a(S'the'
p1890
S'the'
p1891
S'DT'
p1892
S'B-NP'
p1893
g5
tp1894
a(S'VNR/CDDP'
p1895
S'VNR/CDDP'
p1896
S'NN'
p1897
S'I-NP'
p1898
g5
tp1899
a(S'arm'
p1900
S'arm'
p1901
S'NN'
p1902
S'I-NP'
p1903
g5
tp1904
a(g164
g164
g164
g5
g5
tp1905
a(S'p=0.02'
p1906
S'p=0.02'
p1907
S'NN'
p1908
S'B-NP'
p1909
g5
tp1910
a(g171
g171
g171
g5
g5
tp1911
a(S'as'
p1912
S'as'
p1913
S'RB'
p1914
S'B-CONJP'
p1915
g5
tp1916
a(S'well'
p1917
S'well'
p1918
S'RB'
p1919
S'I-CONJP'
p1920
g5
tp1921
a(S'as'
p1922
S'as'
p1923
S'IN'
p1924
S'I-CONJP'
p1925
g5
tp1926
a(S'G3-4'
p1927
S'G3-4'
p1928
S'NN'
p1929
S'B-NP'
p1930
g5
tp1931
a(S'anemia'
p1932
S'anemia'
p1933
S'NN'
p1934
S'I-NP'
p1935
g5
tp1936
a(g164
g164
g164
g5
g5
tp1937
a(S'p=0.005'
p1938
S'p=0.005'
p1939
S'NN'
p1940
S'B-NP'
p1941
g5
tp1942
a(g171
g171
g171
g5
g5
tp1943
a(S'and'
p1944
S'and'
p1945
S'CC'
p1946
g5
g5
tp1947
a(S'G-CSF/EPO'
p1948
S'G-CSF/EPO'
p1949
S'NN'
p1950
S'B-NP'
p1951
S'B-protein'
p1952
tp1953
a(S'use'
p1954
S'use'
p1955
S'NN'
p1956
S'I-NP'
p1957
g5
tp1958
a(g164
g164
g164
g5
g5
tp1959
a(S'p=0.019'
p1960
S'p=0.019'
p1961
S'NN'
p1962
S'B-NP'
p1963
g5
tp1964
a(g171
g171
g171
g5
g5
tp1965
a(g142
g142
g142
g5
g5
tp1966
a(S'CONCLUSIONS'
p1967
S'CONCLUSIONS'
p1968
S'NNS'
p1969
S'B-NP'
p1970
g5
tp1971
a(S'Global'
p1972
S'Global'
p1973
S'JJ'
p1974
S'I-NP'
p1975
g5
tp1976
a(S'and'
p1977
S'and'
p1978
S'CC'
p1979
S'I-NP'
p1980
g5
tp1981
a(S'specific'
p1982
S'specific'
p1983
S'JJ'
p1984
S'I-NP'
p1985
g5
tp1986
a(S'health-related'
p1987
S'health-related'
p1988
S'JJ'
p1989
S'I-NP'
p1990
g5
tp1991
a(S'QoL'
p1992
S'QoL'
p1993
S'NN'
p1994
S'I-NP'
p1995
g5
tp1996
a(S'data'
p1997
S'datum'
p1998
S'NNS'
p1999
S'I-NP'
p2000
g5
tp2001
a(S'similar'
p2002
S'similar'
p2003
S'JJ'
p2004
S'B-ADJP'
p2005
g5
tp2006
a(S'in'
p2007
S'in'
p2008
S'IN'
p2009
S'B-PP'
p2010
g5
tp2011
a(S'both'
p2012
S'both'
p2013
S'CC'
p2014
g5
g5
tp2015
a(S'treatment'
p2016
S'treatment'
p2017
S'NN'
p2018
S'B-NP'
p2019
g5
tp2020
a(S'groups'
p2021
S'group'
p2022
S'NNS'
p2023
S'I-NP'
p2024
g5
tp2025
a(S'with'
p2026
S'with'
p2027
S'IN'
p2028
S'B-PP'
p2029
g5
tp2030
a(S'no'
p2031
S'no'
p2032
S'DT'
p2033
S'B-NP'
p2034
g5
tp2035
a(S'statistically'
p2036
S'statistically'
p2037
S'RB'
p2038
S'I-NP'
p2039
g5
tp2040
a(S'significant'
p2041
S'significant'
p2042
S'JJ'
p2043
S'I-NP'
p2044
g5
tp2045
a(S'difference.'
p2046
S'difference.'
p2047
S'JJ'
p2048
S'I-NP'
p2049
g5
tp2050
a(S'Efficacy'
p2051
S'Efficacy'
p2052
S'NN'
p2053
S'I-NP'
p2054
g5
tp2055
a(S'measures'
p2056
S'measure'
p2057
S'NNS'
p2058
S'I-NP'
p2059
g5
tp2060
a(g936
g936
g936
g5
g5
tp2061
a(S'overall'
p2062
S'overall'
p2063
S'JJ'
p2064
S'B-NP'
p2065
g5
tp2066
a(S'response'
p2067
S'response'
p2068
S'NN'
p2069
S'I-NP'
p2070
g5
tp2071
a(S'rate'
p2072
S'rate'
p2073
S'NN'
p2074
S'I-NP'
p2075
g5
tp2076
a(g936
g936
g936
g5
g5
tp2077
a(S'time-to-progression'
p2078
S'time-to-progression'
p2079
S'NN'
p2080
S'B-NP'
p2081
g5
tp2082
a(S'and'
p2083
S'and'
p2084
S'CC'
p2085
g5
g5
tp2086
a(S'overall'
p2087
S'overall'
p2088
S'JJ'
p2089
S'B-NP'
p2090
g5
tp2091
a(S'survival'
p2092
S'survival'
p2093
S'NN'
p2094
S'I-NP'
p2095
g5
tp2096
a(S'were'
p2097
S'be'
p2098
S'VBD'
p2099
S'B-VP'
p2100
g5
tp2101
a(S'equivalent'
p2102
S'equivalent'
p2103
S'JJ'
p2104
S'B-ADJP'
p2105
g5
tp2106
a(S'in'
p2107
S'in'
p2108
S'IN'
p2109
S'B-PP'
p2110
g5
tp2111
a(S'both'
p2112
S'both'
p2113
S'DT'
p2114
S'B-NP'
p2115
g5
tp2116
a(S'arms.'
p2117
S'arms.'
p2118
S'NNS'
p2119
S'I-NP'
p2120
g5
tp2121
a(S'However'
p2122
S'However'
p2123
S'RB'
p2124
S'B-ADVP'
p2125
g5
tp2126
a(g936
g936
g936
g5
g5
tp2127
a(S'severe'
p2128
S'severe'
p2129
S'JJ'
p2130
S'B-NP'
p2131
g5
tp2132
a(S'anemia'
p2133
S'anemia'
p2134
S'NN'
p2135
S'I-NP'
p2136
g5
tp2137
a(S'and'
p2138
S'and'
p2139
S'CC'
p2140
g5
g5
tp2141
a(S'febrile'
p2142
S'febrile'
p2143
S'NN'
p2144
S'B-NP'
p2145
g5
tp2146
a(S'neutropenia'
p2147
S'neutropenia'
p2148
S'NN'
p2149
S'I-NP'
p2150
g5
tp2151
a(S'are'
p2152
S'be'
p2153
S'VBP'
p2154
S'B-VP'
p2155
g5
tp2156
a(S'statistically'
p2157
S'statistically'
p2158
S'RB'
p2159
S'B-ADJP'
p2160
g5
tp2161
a(S'more'
p2162
S'more'
p2163
S'RBR'
p2164
S'I-ADJP'
p2165
g5
tp2166
a(S'frequent'
p2167
S'frequent'
p2168
S'JJ'
p2169
S'I-ADJP'
p2170
g5
tp2171
a(S'in'
p2172
S'in'
p2173
S'IN'
p2174
S'B-PP'
p2175
g5
tp2176
a(S'the'
p2177
S'the'
p2178
S'DT'
p2179
S'B-NP'
p2180
g5
tp2181
a(S'VNR/CDDP'
p2182
S'VNR/CDDP'
p2183
S'NN'
p2184
S'I-NP'
p2185
g5
tp2186
a(S'arm'
p2187
S'arm'
p2188
S'NN'
p2189
S'I-NP'
p2190
g5
tp2191
a(S'than'
p2192
S'than'
p2193
S'IN'
p2194
S'B-PP'
p2195
g5
tp2196
a(S'in'
p2197
S'in'
p2198
S'IN'
p2199
S'B-PP'
p2200
g5
tp2201
a(S'the'
p2202
S'the'
p2203
S'DT'
p2204
S'B-NP'
p2205
g5
tp2206
a(S'DCT/CDDP'
p2207
S'DCT/CDDP'
p2208
S'NN'
p2209
S'I-NP'
p2210
g5
tp2211
a(S'one.'
p2212
S'one.'
p2213
S'IN'
p2214
S'B-PP'
p2215
g5
tp2216
a(S'These'
p2217
S'These'
p2218
S'DT'
p2219
S'B-NP'
p2220
g5
tp2221
a(S'data'
p2222
S'datum'
p2223
S'NNS'
p2224
S'I-NP'
p2225
g5
tp2226
a(S'should'
p2227
S'should'
p2228
S'MD'
p2229
S'B-VP'
p2230
g5
tp2231
a(S'be'
p2232
S'be'
p2233
S'VB'
p2234
S'I-VP'
p2235
g5
tp2236
a(S'considered'
p2237
S'consider'
p2238
S'VBN'
p2239
S'I-VP'
p2240
g5
tp2241
a(S'in'
p2242
S'in'
p2243
S'IN'
p2244
S'B-PP'
p2245
g5
tp2246
a(S'treatment'
p2247
S'treatment'
p2248
S'NN'
p2249
S'B-NP'
p2250
g5
tp2251
a(S'decision-making'
p2252
S'decision-making'
p2253
S'NN'
p2254
S'I-NP'
p2255
g5
tp2256
a(S'for'
p2257
S'for'
p2258
S'IN'
p2259
S'B-PP'
p2260
g5
tp2261
a(S'pts'
p2262
S'pt'
p2263
S'NNS'
p2264
S'B-NP'
p2265
g5
tp2266
a(S'with'
p2267
S'with'
p2268
S'IN'
p2269
S'B-PP'
p2270
g5
tp2271
a(S'advanced'
p2272
S'advance'
p2273
S'VBN'
p2274
S'B-NP'
p2275
g5
tp2276
a(S'non-small-cell'
p2277
S'non-small-cell'
p2278
S'JJ'
p2279
S'I-NP'
p2280
g5
tp2281
a(S'lung'
p2282
S'lung'
p2283
S'NN'
p2284
S'I-NP'
p2285
g5
tp2286
a(S'cancer'
p2287
S'cancer'
p2288
S'NN'
p2289
S'I-NP'
p2290
g5
tp2291
a(S'and'
p2292
S'and'
p2293
S'CC'
p2294
S'B-PP'
p2295
g5
tp2296
a(S'for'
p2297
S'for'
p2298
S'IN'
p2299
S'B-PP'
p2300
g5
tp2301
a(S'the'
p2302
S'the'
p2303
S'DT'
p2304
S'B-NP'
p2305
g5
tp2306
a(S'design'
p2307
S'design'
p2308
S'NN'
p2309
S'I-NP'
p2310
g5
tp2311
a(S'of'
p2312
S'of'
p2313
S'IN'
p2314
S'B-PP'
p2315
g5
tp2316
a(S'future'
p2317
S'future'
p2318
S'JJ'
p2319
S'B-NP'
p2320
g5
tp2321
a(S'trials'
p2322
S'trial'
p2323
S'NNS'
p2324
S'I-NP'
p2325
g5
tp2326
a(S'with'
p2327
S'with'
p2328
S'IN'
p2329
S'B-PP'
p2330
g5
tp2331
a(S'chemotherapy'
p2332
S'chemotherapy'
p2333
S'NN'
p2334
S'B-NP'
p2335
g5
tp2336
a(S'plus'
p2337
S'plus'
p2338
S'CC'
p2339
S'I-NP'
p2340
g5
tp2341
a(S'biologics'
p2342
S'biologic'
p2343
S'NNS'
p2344
S'I-NP'
p2345
g5
tp2346
a(g142
g142
g142
g5
g5
tp2347
a.