(lp0
(S'Chemotherapy'
p1
S'Chemotherapy'
p2
S'NN'
p3
S'B-NP'
p4
S'O'
p5
tp6
a(S'of'
p7
S'of'
p8
S'IN'
p9
S'B-PP'
p10
g5
tp11
a(S'advanced'
p12
S'advance'
p13
S'VBN'
p14
S'B-NP'
p15
g5
tp16
a(S'gastric'
p17
S'gastric'
p18
S'JJ'
p19
S'I-NP'
p20
g5
tp21
a(S'carcinoma'
p22
S'carcinoma'
p23
S'NN'
p24
S'I-NP'
p25
g5
tp26
a(S'('
p27
g27
g27
g5
g5
tp28
a(S'stage'
p29
S'stage'
p30
S'NN'
p31
S'B-NP'
p32
g5
tp33
a(S'IV'
p34
S'IV'
p35
S'CD'
p36
S'I-NP'
p37
g5
tp38
a(S')'
p39
g39
g39
g5
g5
tp40
a(S':'
p41
g41
g41
g5
g5
tp42
a(S'a'
p43
g43
S'DT'
p44
S'B-NP'
p45
g5
tp46
a(S'randomized'
p47
S'randomize'
p48
S'VBN'
p49
S'I-NP'
p50
g5
tp51
a(S'study'
p52
S'study'
p53
S'NN'
p54
S'I-NP'
p55
g5
tp56
a(S'of'
p57
S'of'
p58
S'IN'
p59
S'B-PP'
p60
g5
tp61
a(S'FAM'
p62
S'FAM'
p63
S'NN'
p64
S'B-NP'
p65
g5
tp66
a(S'versus'
p67
S'versus'
p68
S'CC'
p69
S'I-NP'
p70
g5
tp71
a(S'5-FU'
p72
S'5-FU'
p73
S'NN'
p74
S'I-NP'
p75
g5
tp76
a(S'plus'
p77
S'plus'
p78
S'CC'
p79
S'I-NP'
p80
g5
tp81
a(S'BCNU'
p82
S'BCNU'
p83
S'NN'
p84
S'I-NP'
p85
S'B-protein'
p86
tp87
a(S'.'
p88
g88
g88
g5
g5
tp89
a(S'Forty-six'
p90
S'Forty-six'
p91
S'CD'
p92
S'B-NP'
p93
g5
tp94
a(S'patients'
p95
S'patient'
p96
S'NNS'
p97
S'I-NP'
p98
g5
tp99
a(S'with'
p100
S'with'
p101
S'IN'
p102
S'B-PP'
p103
g5
tp104
a(S'advanced'
p105
S'advance'
p106
S'VBN'
p107
S'B-NP'
p108
g5
tp109
a(S'gastric'
p110
S'gastric'
p111
S'JJ'
p112
S'I-NP'
p113
g5
tp114
a(S'carcinoma'
p115
S'carcinoma'
p116
S'NN'
p117
S'I-NP'
p118
g5
tp119
a(g27
g27
g27
g5
g5
tp120
a(S'Stage'
p121
S'Stage'
p122
S'NN'
p123
S'B-NP'
p124
g5
tp125
a(S'IV'
p126
S'IV'
p127
S'CD'
p128
S'I-NP'
p129
g5
tp130
a(g39
g39
g39
g5
g5
tp131
a(S'were'
p132
S'be'
p133
S'VBD'
p134
S'B-VP'
p135
g5
tp136
a(S'evaluated'
p137
S'evaluate'
p138
S'VBN'
p139
S'I-VP'
p140
g5
tp141
a(S'in'
p142
S'in'
p143
S'IN'
p144
S'B-PP'
p145
g5
tp146
a(g43
g43
S'DT'
p147
S'B-NP'
p148
g5
tp149
a(S'prospective'
p150
S'prospective'
p151
S'JJ'
p152
S'I-NP'
p153
g5
tp154
a(S'randomized'
p155
S'randomize'
p156
S'VBN'
p157
S'I-NP'
p158
g5
tp159
a(S'comparison'
p160
S'comparison'
p161
S'NN'
p162
S'I-NP'
p163
g5
tp164
a(S'of'
p165
S'of'
p166
S'IN'
p167
S'B-PP'
p168
g5
tp169
a(S'two'
p170
S'two'
p171
S'CD'
p172
S'B-NP'
p173
g5
tp174
a(S'chemotherapy'
p175
S'chemotherapy'
p176
S'NN'
p177
S'I-NP'
p178
g5
tp179
a(S'regimens'
p180
S'regimen'
p181
S'NNS'
p182
S'I-NP'
p183
g5
tp184
a(g27
g27
g27
g5
g5
tp185
a(S'FAM'
p186
S'FAM'
p187
S'NN'
p188
S'B-NP'
p189
g5
tp190
a(S'versus'
p191
S'versus'
p192
S'CC'
p193
g5
g5
tp194
a(S'5-FU'
p195
S'5-FU'
p196
S'NN'
p197
S'B-NP'
p198
g5
tp199
a(S'plus'
p200
S'plus'
p201
S'CC'
p202
g5
g5
tp203
a(S'BCNU'
p204
S'BCNU'
p205
S'NN'
p206
S'B-NP'
p207
S'B-protein'
p208
tp209
a(g39
g39
g39
g5
g5
tp210
a(S'to'
p211
S'to'
p212
S'TO'
p213
S'B-VP'
p214
g5
tp215
a(S'identify'
p216
S'identify'
p217
S'VB'
p218
S'I-VP'
p219
g5
tp220
a(S'therapeutic'
p221
S'therapeutic'
p222
S'JJ'
p223
S'B-NP'
p224
g5
tp225
a(S'activity.'
p226
S'activity.'
p227
S'NN'
p228
S'I-NP'
p229
g5
tp230
a(S'Treatment'
p231
S'Treatment'
p232
S'NN'
p233
S'I-NP'
p234
g5
tp235
a(S'groups'
p236
S'group'
p237
S'NNS'
p238
S'I-NP'
p239
g5
tp240
a(S'were'
p241
S'be'
p242
S'VBD'
p243
S'B-VP'
p244
g5
tp245
a(S'well'
p246
S'well'
p247
S'RB'
p248
S'I-VP'
p249
g5
tp250
a(S'balanced'
p251
S'balance'
p252
S'VBN'
p253
S'I-VP'
p254
g5
tp255
a(S'with'
p256
S'with'
p257
S'IN'
p258
S'B-PP'
p259
g5
tp260
a(S'respect'
p261
S'respect'
p262
S'NN'
p263
S'B-NP'
p264
g5
tp265
a(S'to'
p266
S'to'
p267
S'TO'
p268
S'B-PP'
p269
g5
tp270
a(S'known'
p271
S'know'
p272
S'VBN'
p273
S'B-NP'
p274
g5
tp275
a(S'prognostic'
p276
S'prognostic'
p277
S'JJ'
p278
S'I-NP'
p279
g5
tp280
a(S'factors.'
p281
S'factors.'
p282
S'NN'
p283
S'I-NP'
p284
g5
tp285
a(S'Thirty-three'
p286
S'Thirty-three'
p287
S'CD'
p288
S'B-NP'
p289
g5
tp290
a(S'patients'
p291
S'patient'
p292
S'NNS'
p293
S'I-NP'
p294
g5
tp295
a(S'had'
p296
S'have'
p297
S'VBD'
p298
S'B-VP'
p299
g5
tp300
a(S'measurable'
p301
S'measurable'
p302
S'JJ'
p303
S'B-NP'
p304
g5
tp305
a(S'disease'
p306
S'disease'
p307
S'NN'
p308
S'I-NP'
p309
g5
tp310
a(S'and'
p311
S'and'
p312
S'CC'
p313
g5
g5
tp314
a(S'thirteen'
p315
S'thirteen'
p316
S'CD'
p317
S'B-NP'
p318
g5
tp319
a(S'had'
p320
S'have'
p321
S'VBD'
p322
S'B-VP'
p323
g5
tp324
a(S'only'
p325
S'only'
p326
S'RB'
p327
S'B-NP'
p328
g5
tp329
a(S'microscopic'
p330
S'microscopic'
p331
S'JJ'
p332
S'I-NP'
p333
g5
tp334
a(S'residual'
p335
S'residual'
p336
S'JJ'
p337
S'I-NP'
p338
g5
tp339
a(S'disease'
p340
S'disease'
p341
S'NN'
p342
S'I-NP'
p343
g5
tp344
a(S'in'
p345
S'in'
p346
S'IN'
p347
S'B-PP'
p348
g5
tp349
a(S'the'
p350
S'the'
p351
S'DT'
p352
S'B-NP'
p353
g5
tp354
a(S'resection'
p355
S'resection'
p356
S'NN'
p357
S'I-NP'
p358
g5
tp359
a(S'margins.'
p360
S'margins.'
p361
S'NN'
p362
S'I-NP'
p363
g5
tp364
a(S'The'
p365
S'The'
p366
S'DT'
p367
S'B-NP'
p368
g5
tp369
a(S'overall'
p370
S'overall'
p371
S'JJ'
p372
S'I-NP'
p373
g5
tp374
a(S'median'
p375
S'median'
p376
S'JJ'
p377
S'I-NP'
p378
g5
tp379
a(S'survival'
p380
S'survival'
p381
S'NN'
p382
S'I-NP'
p383
g5
tp384
a(S'of'
p385
S'of'
p386
S'IN'
p387
S'B-PP'
p388
g5
tp389
a(S'the'
p390
S'the'
p391
S'DT'
p392
S'B-NP'
p393
g5
tp394
a(S'entire'
p395
S'entire'
p396
S'JJ'
p397
S'I-NP'
p398
g5
tp399
a(S'group'
p400
S'group'
p401
S'NN'
p402
S'I-NP'
p403
g5
tp404
a(S'was'
p405
S'be'
p406
S'VBD'
p407
S'B-VP'
p408
g5
tp409
a(S'13.2'
p410
S'13.2'
p411
S'CD'
p412
S'B-NP'
p413
g5
tp414
a(S'months.'
p415
S'months.'
p416
S'NN'
p417
S'I-NP'
p418
g5
tp419
a(S'Two'
p420
S'Two'
p421
S'CD'
p422
S'B-NP'
p423
g5
tp424
a(g27
g27
g27
g5
g5
tp425
a(S'6'
p426
g426
S'CD'
p427
S'B-NP'
p428
g5
tp429
a(S'%'
p430
g430
S'NN'
p431
S'I-NP'
p432
g5
tp433
a(g39
g39
g39
g5
g5
tp434
a(S'patients'
p435
S'patient'
p436
S'NNS'
p437
S'B-NP'
p438
g5
tp439
a(S'with'
p440
S'with'
p441
S'IN'
p442
S'B-PP'
p443
g5
tp444
a(S'measurable'
p445
S'measurable'
p446
S'JJ'
p447
S'B-NP'
p448
g5
tp449
a(S'disease'
p450
S'disease'
p451
S'NN'
p452
S'I-NP'
p453
g5
tp454
a(S'reached'
p455
S'reach'
p456
S'VBD'
p457
S'B-VP'
p458
g5
tp459
a(S'complete'
p460
S'complete'
p461
S'JJ'
p462
S'B-NP'
p463
g5
tp464
a(S'response'
p465
S'response'
p466
S'NN'
p467
S'I-NP'
p468
g5
tp469
a(g27
g27
g27
g5
g5
tp470
a(S'CR'
p471
S'CR'
p472
S'NN'
p473
S'B-NP'
p474
g5
tp475
a(g39
g39
g39
g5
g5
tp476
a(S','
p477
g477
g477
g5
g5
tp478
a(S'1'
p479
g479
S'CD'
p480
S'B-NP'
p481
g5
tp482
a(g27
g27
g27
g5
g5
tp483
a(S'3'
p484
g484
S'CD'
p485
S'B-NP'
p486
g5
tp487
a(g430
g430
S'NN'
p488
S'I-NP'
p489
g5
tp490
a(g39
g39
g39
S'I-NP'
p491
g5
tp492
a(S'partial'
p493
S'partial'
p494
S'JJ'
p495
S'I-NP'
p496
g5
tp497
a(S'response'
p498
S'response'
p499
S'NN'
p500
S'I-NP'
p501
g5
tp502
a(g27
g27
g27
g5
g5
tp503
a(S'PR'
p504
S'PR'
p505
S'NN'
p506
S'B-NP'
p507
S'B-protein'
p508
tp509
a(g39
g39
g39
g5
g5
tp510
a(g477
g477
g477
g5
g5
tp511
a(S'12'
p512
S'12'
p513
S'CD'
p514
S'B-NP'
p515
g5
tp516
a(g27
g27
g27
g5
g5
tp517
a(S'36'
p518
S'36'
p519
S'CD'
p520
S'B-NP'
p521
g5
tp522
a(g430
g430
S'NN'
p523
S'I-NP'
p524
g5
tp525
a(g39
g39
g39
g5
g5
tp526
a(S'had'
p527
S'have'
p528
S'VBD'
p529
S'B-VP'
p530
g5
tp531
a(S'stable'
p532
S'stable'
p533
S'JJ'
p534
S'B-NP'
p535
g5
tp536
a(S'disease'
p537
S'disease'
p538
S'NN'
p539
S'I-NP'
p540
g5
tp541
a(g27
g27
g27
g5
g5
tp542
a(S'SD'
p543
S'SD'
p544
S'NN'
p545
S'B-NP'
p546
g5
tp547
a(g39
g39
g39
g5
g5
tp548
a(S'and'
p549
S'and'
p550
S'CC'
p551
g5
g5
tp552
a(S'18'
p553
S'18'
p554
S'CD'
p555
S'B-NP'
p556
g5
tp557
a(g27
g27
g27
g5
g5
tp558
a(S'56'
p559
S'56'
p560
S'CD'
p561
S'B-NP'
p562
g5
tp563
a(g430
g430
S'NN'
p564
S'I-NP'
p565
g5
tp566
a(g39
g39
g39
g5
g5
tp567
a(S'had'
p568
S'have'
p569
S'VBD'
p570
S'B-VP'
p571
g5
tp572
a(S'progressive'
p573
S'progressive'
p574
S'JJ'
p575
S'B-NP'
p576
g5
tp577
a(S'disease'
p578
S'disease'
p579
S'NN'
p580
S'I-NP'
p581
g5
tp582
a(g27
g27
g27
g5
g5
tp583
a(S'PD'
p584
S'PD'
p585
S'NN'
p586
S'B-NP'
p587
g5
tp588
a(g39
g39
g39
g5
g5
tp589
a(g88
g88
g88
g5
g5
tp590
a(S'The'
p591
S'The'
p592
S'DT'
p593
S'B-NP'
p594
g5
tp595
a(S'responders'
p596
S'responder'
p597
S'NNS'
p598
S'I-NP'
p599
g5
tp600
a(S'had'
p601
S'have'
p602
S'VBD'
p603
S'B-VP'
p604
g5
tp605
a(S'not'
p606
S'not'
p607
S'RB'
p608
S'I-VP'
p609
g5
tp610
a(S'reached'
p611
S'reach'
p612
S'VBN'
p613
S'I-VP'
p614
g5
tp615
a(S'the'
p616
S'the'
p617
S'DT'
p618
S'B-NP'
p619
g5
tp620
a(S'median'
p621
S'median'
p622
S'JJ'
p623
S'I-NP'
p624
g5
tp625
a(S'survival'
p626
S'survival'
p627
S'NN'
p628
S'I-NP'
p629
g5
tp630
a(S'yet'
p631
S'yet'
p632
S'RB'
p633
S'B-ADVP'
p634
g5
tp635
a(g477
g477
g477
g5
g5
tp636
a(S'the'
p637
S'the'
p638
S'DT'
p639
S'B-NP'
p640
g5
tp641
a(S'patients'
p642
S'patient'
p643
S'NNS'
p644
S'I-NP'
p645
g5
tp646
a(S'with'
p647
S'with'
p648
S'IN'
p649
S'B-PP'
p650
g5
tp651
a(S'SD'
p652
S'SD'
p653
S'NN'
p654
S'B-NP'
p655
g5
tp656
a(S'had'
p657
S'have'
p658
S'VBD'
p659
S'B-VP'
p660
g5
tp661
a(g43
g43
S'DT'
p662
S'B-NP'
p663
g5
tp664
a(S'median'
p665
S'median'
p666
S'JJ'
p667
S'I-NP'
p668
g5
tp669
a(S'survival'
p670
S'survival'
p671
S'NN'
p672
S'I-NP'
p673
g5
tp674
a(S'of'
p675
S'of'
p676
S'IN'
p677
S'B-PP'
p678
g5
tp679
a(S'14.7'
p680
S'14.7'
p681
S'CD'
p682
S'B-NP'
p683
g5
tp684
a(S'months'
p685
S'month'
p686
S'NNS'
p687
S'I-NP'
p688
g5
tp689
a(S'and'
p690
S'and'
p691
S'CC'
p692
g5
g5
tp693
a(S'the'
p694
S'the'
p695
S'DT'
p696
S'B-NP'
p697
g5
tp698
a(S'PD'
p699
S'PD'
p700
S'NN'
p701
S'I-NP'
p702
g5
tp703
a(S'9.5'
p704
S'9.5'
p705
S'CD'
p706
S'I-NP'
p707
g5
tp708
a(S'months.'
p709
S'months.'
p710
S'NN'
p711
S'I-NP'
p712
g5
tp713
a(S'In'
p714
S'In'
p715
S'IN'
p716
S'B-PP'
p717
g5
tp718
a(S'the'
p719
S'the'
p720
S'DT'
p721
S'B-NP'
p722
g5
tp723
a(S'FAM'
p724
S'FAM'
p725
S'NN'
p726
S'I-NP'
p727
g5
tp728
a(S'arm'
p729
S'arm'
p730
S'NN'
p731
S'I-NP'
p732
g5
tp733
a(S'there'
p734
S'there'
p735
S'EX'
p736
S'B-NP'
p737
g5
tp738
a(S'were'
p739
S'be'
p740
S'VBD'
p741
S'B-VP'
p742
g5
tp743
a(g484
g484
S'CD'
p744
S'B-NP'
p745
g5
tp746
a(g27
g27
g27
g5
g5
tp747
a(S'18'
p748
S'18'
p749
S'CD'
p750
S'B-NP'
p751
g5
tp752
a(g430
g430
S'NN'
p753
S'I-NP'
p754
g5
tp755
a(g39
g39
g39
g5
g5
tp756
a(S'responders'
p757
S'responder'
p758
S'NNS'
p759
S'B-NP'
p760
g5
tp761
a(g27
g27
g27
g5
g5
tp762
a(S'2'
p763
g763
S'CD'
p764
S'B-NP'
p765
g5
tp766
a(S'CR'
p767
S'CR'
p768
S'JJ'
p769
S'I-NP'
p770
g5
tp771
a(S'and'
p772
S'and'
p773
S'CC'
p774
g5
g5
tp775
a(g479
g479
S'CD'
p776
S'B-NP'
p777
g5
tp778
a(S'PR'
p779
S'PR'
p780
S'NN'
p781
S'I-NP'
p782
S'B-protein'
p783
tp784
a(g39
g39
g39
g5
g5
tp785
a(g477
g477
g477
g5
g5
tp786
a(S'7'
p787
g787
S'CD'
p788
S'B-NP'
p789
g5
tp790
a(g27
g27
g27
g5
g5
tp791
a(S'41'
p792
S'41'
p793
S'CD'
p794
S'B-NP'
p795
g5
tp796
a(g430
g430
S'NN'
p797
S'I-NP'
p798
g5
tp799
a(g39
g39
g39
g5
g5
tp800
a(S'SD'
p801
S'SD'
p802
S'NN'
p803
S'B-NP'
p804
g5
tp805
a(S'and'
p806
S'and'
p807
S'CC'
p808
g5
g5
tp809
a(g787
g787
S'CD'
p810
S'B-NP'
p811
g5
tp812
a(g27
g27
g27
g5
g5
tp813
a(S'41'
p814
S'41'
p815
S'CD'
p816
S'B-NP'
p817
g5
tp818
a(g430
g430
S'NN'
p819
S'I-NP'
p820
g5
tp821
a(g39
g39
g39
g5
g5
tp822
a(S'PD'
p823
S'PD'
p824
S'NN'
p825
S'B-NP'
p826
g5
tp827
a(g477
g477
g477
g5
g5
tp828
a(S'versus'
p829
S'versus'
p830
S'IN'
p831
S'B-PP'
p832
g5
tp833
a(g5
g5
S'NN'
p834
S'B-NP'
p835
g5
tp836
a(S'responders'
p837
S'responder'
p838
S'NNS'
p839
S'I-NP'
p840
g5
tp841
a(g477
g477
g477
g5
g5
tp842
a(S'5'
p843
g843
S'CD'
p844
S'B-NP'
p845
g5
tp846
a(g27
g27
g27
g5
g5
tp847
a(S'31'
p848
S'31'
p849
S'CD'
p850
S'B-NP'
p851
g5
tp852
a(g430
g430
S'NN'
p853
S'I-NP'
p854
g5
tp855
a(g39
g39
g39
g5
g5
tp856
a(S'SD'
p857
S'SD'
p858
S'NN'
p859
S'B-NP'
p860
g5
tp861
a(S'and'
p862
S'and'
p863
S'CC'
p864
g5
g5
tp865
a(S'11'
p866
S'11'
p867
S'CD'
p868
S'B-NP'
p869
g5
tp870
a(g27
g27
g27
g5
g5
tp871
a(S'69'
p872
S'69'
p873
S'CD'
p874
S'B-NP'
p875
g5
tp876
a(g430
g430
S'NN'
p877
S'I-NP'
p878
g5
tp879
a(g39
g39
g39
g5
g5
tp880
a(S'PD'
p881
S'PD'
p882
S'NN'
p883
S'B-NP'
p884
g5
tp885
a(S'in'
p886
S'in'
p887
S'IN'
p888
S'B-PP'
p889
g5
tp890
a(S'the'
p891
S'the'
p892
S'DT'
p893
S'B-NP'
p894
g5
tp895
a(S'5-FU'
p896
S'5-FU'
p897
S'NN'
p898
S'I-NP'
p899
g5
tp900
a(S'plus'
p901
S'plus'
p902
S'CC'
p903
S'I-NP'
p904
g5
tp905
a(S'BCNU'
p906
S'BCNU'
p907
S'NN'
p908
S'I-NP'
p909
g5
tp910
a(S'arm.'
p911
S'arm.'
p912
S'NN'
p913
S'I-NP'
p914
g5
tp915
a(S'In'
p916
S'In'
p917
S'IN'
p918
S'B-PP'
p919
g5
tp920
a(S'the'
p921
S'the'
p922
S'DT'
p923
S'B-NP'
p924
g5
tp925
a(S'FAM'
p926
S'FAM'
p927
S'NN'
p928
S'I-NP'
p929
g5
tp930
a(S'arm'
p931
S'arm'
p932
S'NN'
p933
S'I-NP'
p934
g5
tp935
a(S'the'
p936
S'the'
p937
S'DT'
p938
S'B-NP'
p939
g5
tp940
a(S'median'
p941
S'median'
p942
S'JJ'
p943
S'I-NP'
p944
g5
tp945
a(S'survival'
p946
S'survival'
p947
S'NN'
p948
S'I-NP'
p949
g5
tp950
a(S'was'
p951
S'be'
p952
S'VBD'
p953
S'B-VP'
p954
g5
tp955
a(S'15.7'
p956
S'15.7'
p957
S'CD'
p958
S'B-NP'
p959
g5
tp960
a(S'months'
p961
S'month'
p962
S'NNS'
p963
S'I-NP'
p964
g5
tp965
a(S'versus'
p966
S'versus'
p967
S'IN'
p968
S'B-PP'
p969
g5
tp970
a(S'9.9'
p971
S'9.9'
p972
S'CD'
p973
S'B-NP'
p974
g5
tp975
a(S'months'
p976
S'month'
p977
S'NNS'
p978
S'I-NP'
p979
g5
tp980
a(S'in'
p981
S'in'
p982
S'IN'
p983
S'B-PP'
p984
g5
tp985
a(S'the'
p986
S'the'
p987
S'DT'
p988
S'B-NP'
p989
g5
tp990
a(S'other'
p991
S'other'
p992
S'JJ'
p993
S'I-NP'
p994
g5
tp995
a(S'therapeutic'
p996
S'therapeutic'
p997
S'JJ'
p998
S'I-NP'
p999
g5
tp1000
a(S'arm.'
p1001
S'arm.'
p1002
S'NN'
p1003
S'I-NP'
p1004
g5
tp1005
a(S'The'
p1006
S'The'
p1007
S'DT'
p1008
S'B-NP'
p1009
g5
tp1010
a(S'statistical'
p1011
S'statistical'
p1012
S'JJ'
p1013
S'I-NP'
p1014
g5
tp1015
a(S'analysis'
p1016
S'analysis'
p1017
S'NN'
p1018
S'I-NP'
p1019
g5
tp1020
a(S'indicated'
p1021
S'indicate'
p1022
S'VBD'
p1023
S'B-VP'
p1024
g5
tp1025
a(S'that'
p1026
S'that'
p1027
S'IN'
p1028
S'B-SBAR'
p1029
g5
tp1030
a(S'survival'
p1031
S'survival'
p1032
S'NN'
p1033
S'B-NP'
p1034
g5
tp1035
a(S'associated'
p1036
S'associate'
p1037
S'VBN'
p1038
S'B-VP'
p1039
g5
tp1040
a(S'with'
p1041
S'with'
p1042
S'IN'
p1043
S'B-PP'
p1044
g5
tp1045
a(S'FAM'
p1046
S'FAM'
p1047
S'NN'
p1048
S'B-NP'
p1049
g5
tp1050
a(S'regimen'
p1051
S'regimen'
p1052
S'NN'
p1053
S'I-NP'
p1054
g5
tp1055
a(S'was'
p1056
S'be'
p1057
S'VBD'
p1058
S'B-VP'
p1059
g5
tp1060
a(S'superior'
p1061
S'superior'
p1062
S'JJ'
p1063
S'B-ADJP'
p1064
g5
tp1065
a(S'to'
p1066
S'to'
p1067
S'TO'
p1068
S'B-PP'
p1069
g5
tp1070
a(S'that'
p1071
S'that'
p1072
S'DT'
p1073
S'B-NP'
p1074
g5
tp1075
a(S'reached'
p1076
S'reach'
p1077
S'VBN'
p1078
S'B-VP'
p1079
g5
tp1080
a(S'with'
p1081
S'with'
p1082
S'IN'
p1083
S'B-PP'
p1084
g5
tp1085
a(S'the'
p1086
S'the'
p1087
S'DT'
p1088
S'B-NP'
p1089
g5
tp1090
a(S'5-FU'
p1091
S'5-FU'
p1092
S'NN'
p1093
S'I-NP'
p1094
g5
tp1095
a(S'plus'
p1096
S'plus'
p1097
S'CC'
p1098
g5
g5
tp1099
a(S'BCNU'
p1100
S'BCNU'
p1101
S'NN'
p1102
S'B-NP'
p1103
g5
tp1104
a(S'regimen.'
p1105
S'regimen.'
p1106
S'NN'
p1107
S'I-NP'
p1108
g5
tp1109
a(S'Thirteen'
p1110
S'Thirteen'
p1111
S'CD'
p1112
S'B-NP'
p1113
g5
tp1114
a(S'patients'
p1115
S'patient'
p1116
S'NNS'
p1117
S'I-NP'
p1118
g5
tp1119
a(S'with'
p1120
S'with'
p1121
S'IN'
p1122
S'B-PP'
p1123
g5
tp1124
a(S'unmeasurable'
p1125
S'unmeasurable'
p1126
S'JJ'
p1127
S'B-NP'
p1128
g5
tp1129
a(S'disease'
p1130
S'disease'
p1131
S'NN'
p1132
S'I-NP'
p1133
g5
tp1134
a(S'had'
p1135
S'have'
p1136
S'VBD'
p1137
S'B-VP'
p1138
g5
tp1139
a(g43
g43
S'DT'
p1140
S'B-NP'
p1141
g5
tp1142
a(S'median'
p1143
S'median'
p1144
S'JJ'
p1145
S'I-NP'
p1146
g5
tp1147
a(S'survival'
p1148
S'survival'
p1149
S'NN'
p1150
S'I-NP'
p1151
g5
tp1152
a(S'of'
p1153
S'of'
p1154
S'IN'
p1155
S'B-PP'
p1156
g5
tp1157
a(S'15.9'
p1158
S'15.9'
p1159
S'CD'
p1160
S'B-NP'
p1161
g5
tp1162
a(S'months'
p1163
S'month'
p1164
S'NNS'
p1165
S'I-NP'
p1166
g5
tp1167
a(g88
g88
g88
g5
g5
tp1168
a.