(lp0
(S'Does'
p1
S'Do'
p2
S'VBZ'
p3
S'O'
p4
g4
tp5
a(S'3-day'
p6
S'3-day'
p7
S'JJ'
p8
S'B-NP'
p9
g4
tp10
a(S'course'
p11
S'course'
p12
S'NN'
p13
S'I-NP'
p14
g4
tp15
a(S'of'
p16
S'of'
p17
S'IN'
p18
S'B-PP'
p19
g4
tp20
a(S'oral'
p21
S'oral'
p22
S'JJ'
p23
S'B-NP'
p24
g4
tp25
a(S'amoxycillin'
p26
S'amoxycillin'
p27
S'NN'
p28
S'I-NP'
p29
g4
tp30
a(S'benefit'
p31
S'benefit'
p32
S'NN'
p33
S'I-NP'
p34
g4
tp35
a(S'children'
p36
S'child'
p37
S'NNS'
p38
S'I-NP'
p39
g4
tp40
a(S'of'
p41
S'of'
p42
S'IN'
p43
S'B-PP'
p44
g4
tp45
a(S'non-severe'
p46
S'non-severe'
p47
S'JJ'
p48
S'B-NP'
p49
g4
tp50
a(S'pneumonia'
p51
S'pneumonia'
p52
S'NN'
p53
S'I-NP'
p54
g4
tp55
a(S'with'
p56
S'with'
p57
S'IN'
p58
S'B-PP'
p59
g4
tp60
a(S'wheeze'
p61
S'wheeze'
p62
S'NN'
p63
S'B-NP'
p64
g4
tp65
a(S':'
p66
g66
g66
g4
g4
tp67
a(S'a'
p68
g68
S'DT'
p69
S'B-NP'
p70
g4
tp71
a(S'multicentric'
p72
S'multicentric'
p73
S'JJ'
p74
S'I-NP'
p75
g4
tp76
a(S'randomised'
p77
S'randomise'
p78
S'VBN'
p79
S'I-NP'
p80
g4
tp81
a(S'controlled'
p82
S'controlled'
p83
S'JJ'
p84
S'I-NP'
p85
g4
tp86
a(S'trial'
p87
S'trial'
p88
S'NN'
p89
S'I-NP'
p90
g4
tp91
a(S'.'
p92
g92
g92
g4
g4
tp93
a(S'BACKGROUND'
p94
S'BACKGROUND'
p95
S'NN'
p96
S'B-NP'
p97
g4
tp98
a(S'WHO-defined'
p99
S'WHO-defined'
p100
S'JJ'
p101
S'I-NP'
p102
g4
tp103
a(S'pneumonias'
p104
S'pneumonia'
p105
S'NNS'
p106
S'I-NP'
p107
g4
tp108
a(S','
p109
g109
g109
g4
g4
tp110
a(S'treated'
p111
S'treat'
p112
S'VBN'
p113
S'B-VP'
p114
g4
tp115
a(S'with'
p116
S'with'
p117
S'IN'
p118
S'B-PP'
p119
g4
tp120
a(S'antibiotics'
p121
S'antibiotic'
p122
S'NNS'
p123
S'B-NP'
p124
g4
tp125
a(g109
g109
g109
g4
g4
tp126
a(S'are'
p127
S'be'
p128
S'VBP'
p129
S'B-VP'
p130
g4
tp131
a(S'responsible'
p132
S'responsible'
p133
S'JJ'
p134
S'B-ADJP'
p135
g4
tp136
a(S'for'
p137
S'for'
p138
S'IN'
p139
S'B-PP'
p140
g4
tp141
a(g68
g68
S'DT'
p142
S'B-NP'
p143
g4
tp144
a(S'significant'
p145
S'significant'
p146
S'JJ'
p147
S'I-NP'
p148
g4
tp149
a(S'proportion'
p150
S'proportion'
p151
S'NN'
p152
S'I-NP'
p153
g4
tp154
a(S'of'
p155
S'of'
p156
S'IN'
p157
S'B-PP'
p158
g4
tp159
a(S'childhood'
p160
S'childhood'
p161
S'NN'
p162
S'B-NP'
p163
g4
tp164
a(S'morbidity'
p165
S'morbidity'
p166
S'NN'
p167
S'I-NP'
p168
g4
tp169
a(S'and'
p170
S'and'
p171
S'CC'
p172
S'I-NP'
p173
g4
tp174
a(S'mortality'
p175
S'mortality'
p176
S'NN'
p177
S'I-NP'
p178
g4
tp179
a(S'in'
p180
S'in'
p181
S'IN'
p182
S'B-PP'
p183
g4
tp184
a(S'the'
p185
S'the'
p186
S'DT'
p187
S'B-NP'
p188
g4
tp189
a(S'developing'
p190
S'develop'
p191
S'VBG'
p192
S'I-NP'
p193
g4
tp194
a(S'countries.'
p195
S'countries.'
p196
S'NN'
p197
S'I-NP'
p198
g4
tp199
a(S'Since'
p200
S'Since'
p201
S'IN'
p202
S'B-PP'
p203
g4
tp204
a(S'substantial'
p205
S'substantial'
p206
S'JJ'
p207
S'B-NP'
p208
g4
tp209
a(S'proportion'
p210
S'proportion'
p211
S'NN'
p212
S'I-NP'
p213
g4
tp214
a(S'pneumonias'
p215
S'pneumonia'
p216
S'NNS'
p217
S'I-NP'
p218
g4
tp219
a(S'have'
p220
S'have'
p221
S'VBP'
p222
S'B-VP'
p223
g4
tp224
a(g68
g68
S'DT'
p225
S'B-NP'
p226
g4
tp227
a(S'viral'
p228
S'viral'
p229
S'JJ'
p230
S'I-NP'
p231
g4
tp232
a(S'etiology'
p233
S'etiology'
p234
S'NN'
p235
S'I-NP'
p236
g4
tp237
a(g109
g109
g109
g4
g4
tp238
a(S'where'
p239
S'where'
p240
S'WRB'
p241
S'B-ADVP'
p242
g4
tp243
a(S'children'
p244
S'child'
p245
S'NNS'
p246
S'B-NP'
p247
g4
tp248
a(S'are'
p249
S'be'
p250
S'VBP'
p251
S'B-VP'
p252
g4
tp253
a(S'more'
p254
S'more'
p255
S'RBR'
p256
S'B-ADJP'
p257
g4
tp258
a(S'likely'
p259
S'likely'
p260
S'JJ'
p261
S'I-ADJP'
p262
g4
tp263
a(S'to'
p264
S'to'
p265
S'TO'
p266
S'B-VP'
p267
g4
tp268
a(S'present'
p269
S'present'
p270
S'VB'
p271
S'I-VP'
p272
g4
tp273
a(S'with'
p274
S'with'
p275
S'IN'
p276
S'B-PP'
p277
g4
tp278
a(S'wheeze'
p279
S'wheeze'
p280
S'NN'
p281
S'B-NP'
p282
g4
tp283
a(g109
g109
g109
g4
g4
tp284
a(S'there'
p285
S'there'
p286
S'EX'
p287
S'B-NP'
p288
g4
tp289
a(S'is'
p290
S'be'
p291
S'VBZ'
p292
S'B-VP'
p293
g4
tp294
a(g68
g68
S'DT'
p295
S'B-NP'
p296
g4
tp297
a(S'concern'
p298
S'concern'
p299
S'NN'
p300
S'I-NP'
p301
g4
tp302
a(S'that'
p303
S'that'
p304
S'IN'
p305
S'B-SBAR'
p306
g4
tp307
a(S'currently'
p308
S'currently'
p309
S'RB'
p310
S'B-ADVP'
p311
g4
tp312
a(S'antibiotics'
p313
S'antibiotic'
p314
S'NNS'
p315
S'B-NP'
p316
g4
tp317
a(S'are'
p318
S'be'
p319
S'VBP'
p320
S'B-VP'
p321
g4
tp322
a(S'being'
p323
S'be'
p324
S'VBG'
p325
S'I-VP'
p326
g4
tp327
a(S'over-prescribed'
p328
S'over-prescribed'
p329
S'JJ'
p330
S'B-ADJP'
p331
g4
tp332
a(S'for'
p333
S'for'
p334
S'IN'
p335
S'B-PP'
p336
g4
tp337
a(S'it.'
p338
S'it.'
p339
S'PRP'
p340
S'B-NP'
p341
g4
tp342
a(S'Hence'
p343
S'Hence'
p344
S'RB'
p345
S'B-PP'
p346
g4
tp347
a(S'the'
p348
S'the'
p349
S'DT'
p350
S'B-NP'
p351
g4
tp352
a(S'current'
p353
S'current'
p354
S'JJ'
p355
S'I-NP'
p356
g4
tp357
a(S'trial'
p358
S'trial'
p359
S'NN'
p360
S'I-NP'
p361
g4
tp362
a(S'was'
p363
S'be'
p364
S'VBD'
p365
S'B-VP'
p366
g4
tp367
a(S'conducted'
p368
S'conduct'
p369
S'VBN'
p370
S'I-VP'
p371
g4
tp372
a(S'with'
p373
S'with'
p374
S'IN'
p375
S'B-PP'
p376
g4
tp377
a(S'the'
p378
S'the'
p379
S'DT'
p380
S'B-NP'
p381
g4
tp382
a(S'objective'
p383
S'objective'
p384
S'NN'
p385
S'I-NP'
p386
g4
tp387
a(S'to'
p388
S'to'
p389
S'TO'
p390
S'B-VP'
p391
g4
tp392
a(S'show'
p393
S'show'
p394
S'VB'
p395
S'I-VP'
p396
g4
tp397
a(S'the'
p398
S'the'
p399
S'DT'
p400
S'B-NP'
p401
g4
tp402
a(S'therapeutic'
p403
S'therapeutic'
p404
S'JJ'
p405
S'I-NP'
p406
g4
tp407
a(S'equivalence'
p408
S'equivalence'
p409
S'NN'
p410
S'I-NP'
p411
g4
tp412
a(S'of'
p413
S'of'
p414
S'IN'
p415
S'B-PP'
p416
g4
tp417
a(S'two'
p418
S'two'
p419
S'CD'
p420
S'B-NP'
p421
g4
tp422
a(S'treatments'
p423
S'treatment'
p424
S'NNS'
p425
S'I-NP'
p426
g4
tp427
a(S'('
p428
g428
g428
g4
g4
tp429
a(S'placebo'
p430
S'placebo'
p431
S'NN'
p432
S'B-NP'
p433
g4
tp434
a(S'and'
p435
S'and'
p436
S'CC'
p437
g4
g4
tp438
a(S'amoxycillin'
p439
S'amoxycillin'
p440
S'NN'
p441
S'B-NP'
p442
g4
tp443
a(S')'
p444
g444
g444
g4
g4
tp445
a(S'for'
p446
S'for'
p447
S'IN'
p448
S'B-PP'
p449
g4
tp450
a(S'children'
p451
S'child'
p452
S'NNS'
p453
S'B-NP'
p454
g4
tp455
a(S'presenting'
p456
S'present'
p457
S'VBG'
p458
S'B-VP'
p459
g4
tp460
a(S'with'
p461
S'with'
p462
S'IN'
p463
S'B-PP'
p464
g4
tp465
a(S'non-severe'
p466
S'non-severe'
p467
S'JJ'
p468
S'B-NP'
p469
g4
tp470
a(S'pneumonia'
p471
S'pneumonia'
p472
S'NN'
p473
S'I-NP'
p474
g4
tp475
a(S'with'
p476
S'with'
p477
S'IN'
p478
S'B-PP'
p479
g4
tp480
a(S'wheeze'
p481
S'wheeze'
p482
S'NN'
p483
S'B-NP'
p484
g4
tp485
a(g109
g109
g109
g4
g4
tp486
a(S'who'
p487
S'who'
p488
S'WP'
p489
S'B-NP'
p490
g4
tp491
a(S'have'
p492
S'have'
p493
S'VBP'
p494
S'B-VP'
p495
g4
tp496
a(S'persistent'
p497
S'persistent'
p498
S'JJ'
p499
S'B-NP'
p500
g4
tp501
a(S'fast'
p502
S'fast'
p503
S'JJ'
p504
S'I-NP'
p505
g4
tp506
a(S'breathing'
p507
S'breathing'
p508
S'NN'
p509
S'I-NP'
p510
g4
tp511
a(S'after'
p512
S'after'
p513
S'IN'
p514
S'B-PP'
p515
g4
tp516
a(S'nebulisation'
p517
S'nebulisation'
p518
S'NN'
p519
S'B-NP'
p520
g4
tp521
a(S'with'
p522
S'with'
p523
S'IN'
p524
S'B-PP'
p525
g4
tp526
a(S'salbutamol'
p527
S'salbutamol'
p528
S'NN'
p529
S'B-NP'
p530
g4
tp531
a(g109
g109
g109
g4
g4
tp532
a(S'and'
p533
S'and'
p534
S'CC'
p535
g4
g4
tp536
a(S'have'
p537
S'have'
p538
S'VBP'
p539
S'B-VP'
p540
g4
tp541
a(S'normal'
p542
S'normal'
p543
S'JJ'
p544
S'B-NP'
p545
g4
tp546
a(S'chest'
p547
S'chest'
p548
S'NN'
p549
S'I-NP'
p550
g4
tp551
a(S'radiograph'
p552
S'radiograph'
p553
S'NN'
p554
S'I-NP'
p555
g4
tp556
a(g92
g92
g92
g4
g4
tp557
a(S'METHODOLOGY'
p558
S'METHODOLOGY'
p559
S'NN'
p560
S'B-NP'
p561
g4
tp562
a(S'This'
p563
S'This'
p564
S'DT'
p565
S'B-NP'
p566
g4
tp567
a(S'multi-centric'
p568
S'multi-centric'
p569
S'JJ'
p570
S'I-NP'
p571
g4
tp572
a(g109
g109
g109
S'I-NP'
p573
g4
tp574
a(S'randomised'
p575
S'randomise'
p576
S'VBN'
p577
S'I-NP'
p578
g4
tp579
a(S'placebo'
p580
S'placebo'
p581
S'NN'
p582
S'I-NP'
p583
g4
tp584
a(S'controlled'
p585
S'control'
p586
S'VBD'
p587
S'B-VP'
p588
g4
tp589
a(S'double'
p590
S'double'
p591
S'JJ'
p592
S'B-NP'
p593
g4
tp594
a(S'blind'
p595
S'blind'
p596
S'JJ'
p597
S'I-NP'
p598
g4
tp599
a(S'clinical'
p600
S'clinical'
p601
S'JJ'
p602
S'I-NP'
p603
g4
tp604
a(S'trial'
p605
S'trial'
p606
S'NN'
p607
S'I-NP'
p608
g4
tp609
a(S'intended'
p610
S'intend'
p611
S'VBN'
p612
S'B-VP'
p613
g4
tp614
a(S'to'
p615
S'to'
p616
S'TO'
p617
S'I-VP'
p618
g4
tp619
a(S'investigate'
p620
S'investigate'
p621
S'VB'
p622
S'I-VP'
p623
g4
tp624
a(S'equivalent'
p625
S'equivalent'
p626
S'JJ'
p627
S'B-NP'
p628
g4
tp629
a(S'efficacy'
p630
S'efficacy'
p631
S'NN'
p632
S'I-NP'
p633
g4
tp634
a(S'of'
p635
S'of'
p636
S'IN'
p637
S'B-PP'
p638
g4
tp639
a(S'placebo'
p640
S'placebo'
p641
S'NN'
p642
S'B-NP'
p643
g4
tp644
a(S'and'
p645
S'and'
p646
S'CC'
p647
S'I-NP'
p648
g4
tp649
a(S'amoxicillin'
p650
S'amoxicillin'
p651
S'NN'
p652
S'I-NP'
p653
g4
tp654
a(S'and'
p655
S'and'
p656
S'CC'
p657
g4
g4
tp658
a(S'was'
p659
S'be'
p660
S'VBD'
p661
S'B-VP'
p662
g4
tp663
a(S'conducted'
p664
S'conduct'
p665
S'VBN'
p666
S'I-VP'
p667
g4
tp668
a(S'in'
p669
S'in'
p670
S'IN'
p671
S'B-PP'
p672
g4
tp673
a(S'ambulatory'
p674
S'ambulatory'
p675
S'JJ'
p676
S'B-NP'
p677
g4
tp678
a(S'care'
p679
S'care'
p680
S'NN'
p681
S'I-NP'
p682
g4
tp683
a(S'settings'
p684
S'setting'
p685
S'NNS'
p686
S'I-NP'
p687
g4
tp688
a(S'in'
p689
S'in'
p690
S'IN'
p691
S'B-PP'
p692
g4
tp693
a(S'eight'
p694
S'eight'
p695
S'CD'
p696
S'B-NP'
p697
g4
tp698
a(S'government'
p699
S'government'
p700
S'NN'
p701
S'I-NP'
p702
g4
tp703
a(S'hospitals'
p704
S'hospital'
p705
S'NNS'
p706
S'I-NP'
p707
g4
tp708
a(S'in'
p709
S'in'
p710
S'IN'
p711
S'B-PP'
p712
g4
tp713
a(S'India.'
p714
S'India.'
p715
S'NNP'
p716
S'B-NP'
p717
g4
tp718
a(S'Participants'
p719
S'Participant'
p720
S'NNPS'
p721
S'I-NP'
p722
g4
tp723
a(S'were'
p724
S'be'
p725
S'VBD'
p726
S'B-VP'
p727
g4
tp728
a(S'children'
p729
S'child'
p730
S'NNS'
p731
S'B-NP'
p732
g4
tp733
a(S'aged'
p734
S'age'
p735
S'VBN'
p736
S'B-ADJP'
p737
g4
tp738
a(S'2-59'
p739
S'2-59'
p740
S'CD'
p741
S'B-NP'
p742
g4
tp743
a(S'months'
p744
S'month'
p745
S'NNS'
p746
S'I-NP'
p747
g4
tp748
a(S'of'
p749
S'of'
p750
S'IN'
p751
S'B-PP'
p752
g4
tp753
a(S'age'
p754
S'age'
p755
S'NN'
p756
S'B-NP'
p757
g4
tp758
a(g109
g109
g109
g4
g4
tp759
a(S'who'
p760
S'who'
p761
S'WP'
p762
S'B-NP'
p763
g4
tp764
a(S'received'
p765
S'receive'
p766
S'VBD'
p767
S'B-VP'
p768
g4
tp769
a(S'either'
p770
S'either'
p771
S'CC'
p772
g4
g4
tp773
a(S'oral'
p774
S'oral'
p775
S'JJ'
p776
S'B-NP'
p777
g4
tp778
a(S'amoxycillin'
p779
S'amoxycillin'
p780
S'NN'
p781
S'I-NP'
p782
g4
tp783
a(g428
g428
g428
g4
g4
tp784
a(S'31-54'
p785
S'31-54'
p786
S'CD'
p787
S'B-NP'
p788
g4
tp789
a(S'mg/Kg/day'
p790
S'mg/Kg/day'
p791
S'NN'
p792
S'I-NP'
p793
g4
tp794
a(g109
g109
g109
g4
g4
tp795
a(S'in'
p796
S'in'
p797
S'IN'
p798
S'B-PP'
p799
g4
tp800
a(S'three'
p801
S'three'
p802
S'CD'
p803
S'B-NP'
p804
g4
tp805
a(S'divided'
p806
S'divide'
p807
S'VBN'
p808
S'I-NP'
p809
g4
tp810
a(S'doses'
p811
S'dose'
p812
S'NNS'
p813
S'I-NP'
p814
g4
tp815
a(S'for'
p816
S'for'
p817
S'IN'
p818
S'B-PP'
p819
g4
tp820
a(S'three'
p821
S'three'
p822
S'CD'
p823
S'B-NP'
p824
g4
tp825
a(S'days'
p826
S'day'
p827
S'NNS'
p828
S'I-NP'
p829
g4
tp830
a(g444
g444
g444
g4
g4
tp831
a(S'or'
p832
S'or'
p833
S'CC'
p834
g4
g4
tp835
a(S'placebo'
p836
S'placebo'
p837
S'NN'
p838
S'B-NP'
p839
g4
tp840
a(g109
g109
g109
g4
g4
tp841
a(S'and'
p842
S'and'
p843
S'CC'
p844
g4
g4
tp845
a(S'standard'
p846
S'standard'
p847
S'JJ'
p848
S'B-NP'
p849
g4
tp850
a(S'bronchodilator'
p851
S'bronchodilator'
p852
S'NN'
p853
S'I-NP'
p854
g4
tp855
a(S'therapy.'
p856
S'therapy.'
p857
S'RB'
p858
S'B-NP'
p859
g4
tp860
a(S'Primary'
p861
S'Primary'
p862
S'JJ'
p863
S'I-NP'
p864
g4
tp865
a(S'outcome'
p866
S'outcome'
p867
S'NN'
p868
S'I-NP'
p869
g4
tp870
a(S'was'
p871
S'be'
p872
S'VBD'
p873
S'B-VP'
p874
g4
tp875
a(S'clinical'
p876
S'clinical'
p877
S'JJ'
p878
S'B-NP'
p879
g4
tp880
a(S'failure'
p881
S'failure'
p882
S'NN'
p883
S'I-NP'
p884
g4
tp885
a(S'on'
p886
S'on'
p887
S'IN'
p888
S'B-PP'
p889
g4
tp890
a(S'or'
p891
S'or'
p892
S'CC'
p893
S'I-PP'
p894
g4
tp895
a(S'before'
p896
S'before'
p897
S'IN'
p898
S'I-PP'
p899
g4
tp900
a(S'day-'
p901
S'day-'
p902
S'NN'
p903
S'B-NP'
p904
g4
tp905
a(S'4'
p906
g906
S'CD'
p907
S'I-NP'
p908
g4
tp909
a(g92
g92
g92
g4
g4
tp910
a(S'PRINCIPAL'
p911
S'PRINCIPAL'
p912
S'JJ'
p913
S'B-NP'
p914
g4
tp915
a(S'FINDINGS'
p916
S'FINDINGS'
p917
S'NNS'
p918
S'I-NP'
p919
g4
tp920
a(S'We'
p921
S'We'
p922
S'PRP'
p923
S'B-NP'
p924
g4
tp925
a(S'randomized'
p926
S'randomize'
p927
S'VBD'
p928
S'B-VP'
p929
g4
tp930
a(S'836'
p931
S'836'
p932
S'CD'
p933
S'B-NP'
p934
g4
tp935
a(S'cases'
p936
S'case'
p937
S'NNS'
p938
S'I-NP'
p939
g4
tp940
a(S'in'
p941
S'in'
p942
S'IN'
p943
S'B-PP'
p944
g4
tp945
a(S'placebo'
p946
S'placebo'
p947
S'NN'
p948
S'B-NP'
p949
g4
tp950
a(S'and'
p951
S'and'
p952
S'CC'
p953
g4
g4
tp954
a(S'835'
p955
S'835'
p956
S'CD'
p957
S'B-NP'
p958
g4
tp959
a(S'in'
p960
S'in'
p961
S'IN'
p962
S'B-PP'
p963
g4
tp964
a(S'amoxycillin'
p965
S'amoxycillin'
p966
S'NN'
p967
S'B-NP'
p968
g4
tp969
a(S'group.'
p970
S'group.'
p971
S'NN'
p972
S'I-NP'
p973
g4
tp974
a(S'Clinical'
p975
S'Clinical'
p976
S'JJ'
p977
S'I-NP'
p978
g4
tp979
a(S'failures'
p980
S'failure'
p981
S'NNS'
p982
S'I-NP'
p983
g4
tp984
a(S'occurred'
p985
S'occur'
p986
S'VBD'
p987
S'B-VP'
p988
g4
tp989
a(S'in'
p990
S'in'
p991
S'IN'
p992
S'B-PP'
p993
g4
tp994
a(S'201'
p995
S'201'
p996
S'CD'
p997
S'B-NP'
p998
g4
tp999
a(g428
g428
g428
g4
g4
tp1000
a(S'24.0'
p1001
S'24.0'
p1002
S'CD'
p1003
S'B-NP'
p1004
g4
tp1005
a(S'%'
p1006
g1006
S'NN'
p1007
S'I-NP'
p1008
g4
tp1009
a(g444
g444
g444
g4
g4
tp1010
a(S'on'
p1011
S'on'
p1012
S'IN'
p1013
S'B-PP'
p1014
g4
tp1015
a(S'placebo'
p1016
S'placebo'
p1017
S'NN'
p1018
S'B-NP'
p1019
g4
tp1020
a(S'and'
p1021
S'and'
p1022
S'CC'
p1023
g4
g4
tp1024
a(S'166'
p1025
S'166'
p1026
S'CD'
p1027
S'B-NP'
p1028
g4
tp1029
a(g428
g428
g428
g4
g4
tp1030
a(S'19.9'
p1031
S'19.9'
p1032
S'CD'
p1033
S'B-NP'
p1034
g4
tp1035
a(g1006
g1006
S'NN'
p1036
S'I-NP'
p1037
g4
tp1038
a(g444
g444
g444
g4
g4
tp1039
a(S'on'
p1040
S'on'
p1041
S'IN'
p1042
S'B-PP'
p1043
g4
tp1044
a(S'amoxycillin'
p1045
S'amoxycillin'
p1046
S'NN'
p1047
S'B-NP'
p1048
g4
tp1049
a(g428
g428
g428
g4
g4
tp1050
a(S'risk'
p1051
S'risk'
p1052
S'NN'
p1053
S'B-NP'
p1054
g4
tp1055
a(S'difference'
p1056
S'difference'
p1057
S'NN'
p1058
S'I-NP'
p1059
g4
tp1060
a(S'4.2'
p1061
S'4.2'
p1062
S'CD'
p1063
S'B-NP'
p1064
g4
tp1065
a(g1006
g1006
S'NN'
p1066
S'I-NP'
p1067
g4
tp1068
a(S'in'
p1069
S'in'
p1070
S'IN'
p1071
S'B-PP'
p1072
g4
tp1073
a(S'favour'
p1074
S'favour'
p1075
S'NN'
p1076
S'B-NP'
p1077
g4
tp1078
a(S'of'
p1079
S'of'
p1080
S'IN'
p1081
S'B-PP'
p1082
g4
tp1083
a(S'antibiotic'
p1084
S'antibiotic'
p1085
S'JJ'
p1086
S'B-NP'
p1087
g4
tp1088
a(g109
g109
g109
g4
g4
tp1089
a(S'95'
p1090
S'95'
p1091
S'CD'
p1092
S'B-NP'
p1093
g4
tp1094
a(g1006
g1006
S'NN'
p1095
S'I-NP'
p1096
g4
tp1097
a(S'CI'
p1098
S'CI'
p1099
S'NN'
p1100
S'I-NP'
p1101
g4
tp1102
a(g66
g66
g66
g4
g4
tp1103
a(S'0.2'
p1104
S'0.2'
p1105
S'CD'
p1106
S'B-NP'
p1107
g4
tp1108
a(S'to'
p1109
S'to'
p1110
S'TO'
p1111
S'B-PP'
p1112
g4
tp1113
a(S'8.1'
p1114
S'8.1'
p1115
S'CD'
p1116
S'B-NP'
p1117
g4
tp1118
a(g444
g444
g444
g4
g4
tp1119
a(g92
g92
g92
g4
g4
tp1120
a(S'Adherence'
p1121
S'Adherence'
p1122
S'NN'
p1123
S'B-NP'
p1124
g4
tp1125
a(S'for'
p1126
S'for'
p1127
S'IN'
p1128
S'B-PP'
p1129
g4
tp1130
a(S'both'
p1131
S'both'
p1132
S'CC'
p1133
g4
g4
tp1134
a(S'placebo'
p1135
S'placebo'
p1136
S'NN'
p1137
S'B-NP'
p1138
g4
tp1139
a(S'and'
p1140
S'and'
p1141
S'CC'
p1142
S'I-NP'
p1143
g4
tp1144
a(S'amoxycillin'
p1145
S'amoxycillin'
p1146
S'NN'
p1147
S'I-NP'
p1148
g4
tp1149
a(S'was'
p1150
S'be'
p1151
S'VBD'
p1152
S'B-VP'
p1153
g4
tp1154
a(S'>'
p1155
g1155
S'JJR'
p1156
S'B-NP'
p1157
g4
tp1158
a(S'96'
p1159
S'96'
p1160
S'CD'
p1161
S'I-NP'
p1162
g4
tp1163
a(g1006
g1006
S'NN'
p1164
S'I-NP'
p1165
g4
tp1166
a(S'and'
p1167
S'and'
p1168
S'CC'
p1169
g4
g4
tp1170
a(S'98.9'
p1171
S'98.9'
p1172
S'CD'
p1173
S'B-NP'
p1174
g4
tp1175
a(g1006
g1006
S'NN'
p1176
S'I-NP'
p1177
g4
tp1178
a(S'subjects'
p1179
S'subject'
p1180
S'NNS'
p1181
S'I-NP'
p1182
g4
tp1183
a(S'were'
p1184
S'be'
p1185
S'VBD'
p1186
S'B-VP'
p1187
g4
tp1188
a(S'followed'
p1189
S'follow'
p1190
S'VBN'
p1191
S'I-VP'
p1192
g4
tp1193
a(S'up'
p1194
S'up'
p1195
S'RP'
p1196
S'B-PRT'
p1197
g4
tp1198
a(S'on'
p1199
S'on'
p1200
S'IN'
p1201
S'B-PP'
p1202
g4
tp1203
a(S'day-'
p1204
S'day-'
p1205
S'NN'
p1206
S'B-NP'
p1207
g4
tp1208
a(S'4.'
p1209
S'4.'
p1210
S'CD'
p1211
S'I-NP'
p1212
g4
tp1213
a(S'Clinical'
p1214
S'Clinical'
p1215
S'JJ'
p1216
S'I-NP'
p1217
g4
tp1218
a(S'failure'
p1219
S'failure'
p1220
S'NN'
p1221
S'I-NP'
p1222
g4
tp1223
a(S'was'
p1224
S'be'
p1225
S'VBD'
p1226
S'B-VP'
p1227
g4
tp1228
a(S'associated'
p1229
S'associate'
p1230
S'VBN'
p1231
S'I-VP'
p1232
g4
tp1233
a(S'with'
p1234
S'with'
p1235
S'IN'
p1236
S'B-PP'
p1237
g4
tp1238
a(g428
g428
g428
S'B-LST'
p1239
g4
tp1240
a(S'i'
p1241
g1241
S'LS'
p1242
S'I-LST'
p1243
g4
tp1244
a(g444
g444
g444
g4
g4
tp1245
a(S'placebo'
p1246
S'placebo'
p1247
S'NN'
p1248
S'B-NP'
p1249
g4
tp1250
a(S'treatment'
p1251
S'treatment'
p1252
S'NN'
p1253
S'I-NP'
p1254
g4
tp1255
a(g428
g428
g428
g4
g4
tp1256
a(S'adjusted'
p1257
S'adjust'
p1258
S'VBN'
p1259
S'B-NP'
p1260
g4
tp1261
a(S'OR'
p1262
S'OR'
p1263
S'NN'
p1264
S'I-NP'
p1265
g4
tp1266
a(S'='
p1267
g1267
S'SYM'
p1268
S'B-VP'
p1269
g4
tp1270
a(S'1.28'
p1271
S'1.28'
p1272
S'CD'
p1273
S'B-NP'
p1274
g4
tp1275
a(g109
g109
g109
g4
g4
tp1276
a(S'95'
p1277
S'95'
p1278
S'CD'
p1279
S'B-NP'
p1280
g4
tp1281
a(g1006
g1006
S'NN'
p1282
S'I-NP'
p1283
g4
tp1284
a(S'CI'
p1285
S'CI'
p1286
S'NN'
p1287
S'I-NP'
p1288
g4
tp1289
a(g66
g66
g66
g4
g4
tp1290
a(S'1.01'
p1291
S'1.01'
p1292
S'CD'
p1293
S'B-NP'
p1294
g4
tp1295
a(S'to1.62'
p1296
S'to1.62'
p1297
S'NN'
p1298
S'I-NP'
p1299
g4
tp1300
a(g444
g444
g444
g4
g4
tp1301
a(g109
g109
g109
g4
g4
tp1302
a(g428
g428
g428
S'B-LST'
p1303
g4
tp1304
a(S'ii'
p1305
S'ii'
p1306
S'LS'
p1307
S'I-LST'
p1308
g4
tp1309
a(g444
g444
g444
g4
g4
tp1310
a(S'excess'
p1311
S'excess'
p1312
S'JJ'
p1313
S'B-NP'
p1314
g4
tp1315
a(S'respiratory'
p1316
S'respiratory'
p1317
S'JJ'
p1318
S'I-NP'
p1319
g4
tp1320
a(S'rate'
p1321
S'rate'
p1322
S'NN'
p1323
S'I-NP'
p1324
g4
tp1325
a(S'of'
p1326
S'of'
p1327
S'IN'
p1328
S'B-PP'
p1329
g4
tp1330
a(g1155
g1155
S'JJR'
p1331
S'B-NP'
p1332
g4
tp1333
a(S'10'
p1334
S'10'
p1335
S'CD'
p1336
S'I-NP'
p1337
g4
tp1338
a(S'breaths'
p1339
S'breath'
p1340
S'NNS'
p1341
S'I-NP'
p1342
g4
tp1343
a(S'per'
p1344
S'per'
p1345
S'IN'
p1346
S'B-PP'
p1347
g4
tp1348
a(S'minute'
p1349
S'minute'
p1350
S'NN'
p1351
S'B-NP'
p1352
g4
tp1353
a(g428
g428
g428
g4
g4
tp1354
a(S'adjusted'
p1355
S'adjust'
p1356
S'VBN'
p1357
S'B-NP'
p1358
g4
tp1359
a(S'OR'
p1360
S'OR'
p1361
S'NN'
p1362
S'I-NP'
p1363
g4
tp1364
a(g1267
g1267
S'SYM'
p1365
S'B-VP'
p1366
g4
tp1367
a(S'1.51'
p1368
S'1.51'
p1369
S'CD'
p1370
S'B-NP'
p1371
g4
tp1372
a(g109
g109
g109
g4
g4
tp1373
a(S'95'
p1374
S'95'
p1375
S'CD'
p1376
S'B-NP'
p1377
g4
tp1378
a(g1006
g1006
S'NN'
p1379
S'I-NP'
p1380
g4
tp1381
a(S'CI'
p1382
S'CI'
p1383
S'NN'
p1384
S'I-NP'
p1385
g4
tp1386
a(g66
g66
g66
g4
g4
tp1387
a(S'1.19'
p1388
S'1.19'
p1389
S'CD'
p1390
S'B-NP'
p1391
g4
tp1392
a(g109
g109
g109
S'I-NP'
p1393
g4
tp1394
a(S'1.92'
p1395
S'1.92'
p1396
S'CD'
p1397
S'I-NP'
p1398
g4
tp1399
a(g444
g444
g444
g4
g4
tp1400
a(g109
g109
g109
g4
g4
tp1401
a(g428
g428
g428
S'B-LST'
p1402
g4
tp1403
a(S'iii'
p1404
S'iii'
p1405
S'LS'
p1406
S'I-LST'
p1407
g4
tp1408
a(g444
g444
g444
g4
g4
tp1409
a(S'vomiting'
p1410
S'vomit'
p1411
S'VBG'
p1412
S'B-VP'
p1413
g4
tp1414
a(S'at'
p1415
S'at'
p1416
S'IN'
p1417
S'B-PP'
p1418
g4
tp1419
a(S'enrolment'
p1420
S'enrolment'
p1421
S'NN'
p1422
S'B-NP'
p1423
g4
tp1424
a(g428
g428
g428
g4
g4
tp1425
a(S'adjusted'
p1426
S'adjust'
p1427
S'VBN'
p1428
S'B-NP'
p1429
g4
tp1430
a(S'OR'
p1431
S'OR'
p1432
S'NN'
p1433
S'I-NP'
p1434
g4
tp1435
a(g1267
g1267
S'SYM'
p1436
S'B-VP'
p1437
g4
tp1438
a(S'1.49'
p1439
S'1.49'
p1440
S'CD'
p1441
S'B-NP'
p1442
g4
tp1443
a(g109
g109
g109
g4
g4
tp1444
a(S'95'
p1445
S'95'
p1446
S'CD'
p1447
S'B-NP'
p1448
g4
tp1449
a(g1006
g1006
S'NN'
p1450
S'I-NP'
p1451
g4
tp1452
a(S'CI'
p1453
S'CI'
p1454
S'NN'
p1455
S'I-NP'
p1456
g4
tp1457
a(g66
g66
g66
g4
g4
tp1458
a(S'1.13'
p1459
S'1.13'
p1460
S'CD'
p1461
S'B-NP'
p1462
g4
tp1463
a(g109
g109
g109
S'I-NP'
p1464
g4
tp1465
a(S'1.96'
p1466
S'1.96'
p1467
S'CD'
p1468
S'I-NP'
p1469
g4
tp1470
a(g444
g444
g444
g4
g4
tp1471
a(g109
g109
g109
g4
g4
tp1472
a(g428
g428
g428
S'B-LST'
p1473
g4
tp1474
a(S'iv'
p1475
S'iv'
p1476
S'LS'
p1477
S'I-LST'
p1478
g4
tp1479
a(g444
g444
g444
g4
g4
tp1480
a(S'history'
p1481
S'history'
p1482
S'NN'
p1483
S'B-NP'
p1484
g4
tp1485
a(S'of'
p1486
S'of'
p1487
S'IN'
p1488
S'B-PP'
p1489
g4
tp1490
a(S'use'
p1491
S'use'
p1492
S'NN'
p1493
S'B-NP'
p1494
g4
tp1495
a(S'of'
p1496
S'of'
p1497
S'IN'
p1498
S'B-PP'
p1499
g4
tp1500
a(S'broncho-dilators'
p1501
S'broncho-dilator'
p1502
S'NNS'
p1503
S'B-NP'
p1504
g4
tp1505
a(g428
g428
g428
g4
g4
tp1506
a(S'adjusted'
p1507
S'adjust'
p1508
S'VBN'
p1509
S'B-NP'
p1510
g4
tp1511
a(S'OR'
p1512
S'OR'
p1513
S'NN'
p1514
S'I-NP'
p1515
g4
tp1516
a(g1267
g1267
S'SYM'
p1517
S'B-VP'
p1518
g4
tp1519
a(S'1.71'
p1520
S'1.71'
p1521
S'CD'
p1522
S'B-NP'
p1523
g4
tp1524
a(g109
g109
g109
g4
g4
tp1525
a(S'95'
p1526
S'95'
p1527
S'CD'
p1528
S'B-NP'
p1529
g4
tp1530
a(g1006
g1006
S'NN'
p1531
S'I-NP'
p1532
g4
tp1533
a(S'CI'
p1534
S'CI'
p1535
S'NN'
p1536
S'I-NP'
p1537
g4
tp1538
a(g66
g66
g66
g4
g4
tp1539
a(S'1.30'
p1540
S'1.30'
p1541
S'CD'
p1542
S'B-NP'
p1543
g4
tp1544
a(g109
g109
g109
S'I-NP'
p1545
g4
tp1546
a(S'2.24'
p1547
S'2.24'
p1548
S'CD'
p1549
S'I-NP'
p1550
g4
tp1551
a(g444
g444
g444
g4
g4
tp1552
a(S'and'
p1553
S'and'
p1554
S'CC'
p1555
g4
g4
tp1556
a(g428
g428
g428
S'B-LST'
p1557
g4
tp1558
a(S'v'
p1559
g1559
S'LS'
p1560
S'I-LST'
p1561
g4
tp1562
a(g444
g444
g444
g4
g4
tp1563
a(S'non-adherence'
p1564
S'non-adherence'
p1565
S'JJ'
p1566
S'B-ADJP'
p1567
g4
tp1568
a(g428
g428
g428
g4
g4
tp1569
a(S'adjusted'
p1570
S'adjust'
p1571
S'VBN'
p1572
S'B-NP'
p1573
g4
tp1574
a(S'OR'
p1575
S'OR'
p1576
S'NN'
p1577
S'I-NP'
p1578
g4
tp1579
a(g1267
g1267
S'SYM'
p1580
S'B-VP'
p1581
g4
tp1582
a(S'8.06'
p1583
S'8.06'
p1584
S'CD'
p1585
S'B-NP'
p1586
g4
tp1587
a(g109
g109
g109
g4
g4
tp1588
a(S'95'
p1589
S'95'
p1590
S'CD'
p1591
S'B-NP'
p1592
g4
tp1593
a(g1006
g1006
S'NN'
p1594
S'I-NP'
p1595
g4
tp1596
a(S'CI'
p1597
S'CI'
p1598
S'NN'
p1599
S'I-NP'
p1600
g4
tp1601
a(g66
g66
g66
g4
g4
tp1602
a(S'4.36'
p1603
S'4.36'
p1604
S'CD'
p1605
S'B-NP'
p1606
g4
tp1607
a(g109
g109
g109
S'I-NP'
p1608
g4
tp1609
a(S'14.92'
p1610
S'14.92'
p1611
S'CD'
p1612
S'I-NP'
p1613
g4
tp1614
a(g444
g444
g444
g4
g4
tp1615
a(g92
g92
g92
g4
g4
tp1616
a(S'CONCLUSIONS'
p1617
S'CONCLUSIONS'
p1618
S'NNS'
p1619
S'B-NP'
p1620
g4
tp1621
a(S'Treating'
p1622
S'Treat'
p1623
S'VBG'
p1624
S'B-VP'
p1625
g4
tp1626
a(S'children'
p1627
S'child'
p1628
S'NNS'
p1629
S'B-NP'
p1630
g4
tp1631
a(S'with'
p1632
S'with'
p1633
S'IN'
p1634
S'B-PP'
p1635
g4
tp1636
a(S'non-severe'
p1637
S'non-severe'
p1638
S'JJ'
p1639
S'B-NP'
p1640
g4
tp1641
a(S'pneumonia'
p1642
S'pneumonia'
p1643
S'NN'
p1644
S'I-NP'
p1645
g4
tp1646
a(S'and'
p1647
S'and'
p1648
S'CC'
p1649
g4
g4
tp1650
a(S'wheeze'
p1651
S'wheeze'
p1652
S'VB'
p1653
S'B-VP'
p1654
g4
tp1655
a(S'with'
p1656
S'with'
p1657
S'IN'
p1658
S'B-PP'
p1659
g4
tp1660
a(g68
g68
S'DT'
p1661
S'B-NP'
p1662
g4
tp1663
a(S'placebo'
p1664
S'placebo'
p1665
S'NN'
p1666
S'I-NP'
p1667
g4
tp1668
a(S'is'
p1669
S'be'
p1670
S'VBZ'
p1671
S'B-VP'
p1672
g4
tp1673
a(S'not'
p1674
S'not'
p1675
S'RB'
p1676
g4
g4
tp1677
a(S'equivalent'
p1678
S'equivalent'
p1679
S'JJ'
p1680
S'B-ADJP'
p1681
g4
tp1682
a(S'to'
p1683
S'to'
p1684
S'TO'
p1685
S'B-PP'
p1686
g4
tp1687
a(S'treatment'
p1688
S'treatment'
p1689
S'NN'
p1690
S'B-NP'
p1691
g4
tp1692
a(S'with'
p1693
S'with'
p1694
S'IN'
p1695
S'B-PP'
p1696
g4
tp1697
a(S'oral'
p1698
S'oral'
p1699
S'JJ'
p1700
S'B-NP'
p1701
g4
tp1702
a(S'amoxycillin'
p1703
S'amoxycillin'
p1704
S'NN'
p1705
S'I-NP'
p1706
g4
tp1707
a(g92
g92
g92
g4
g4
tp1708
a(S'TRIAL'
p1709
S'TRIAL'
p1710
S'NNP'
p1711
S'B-NP'
p1712
g4
tp1713
a(S'REGISTRATION'
p1714
S'REGISTRATION'
p1715
S'NNP'
p1716
S'I-NP'
p1717
g4
tp1718
a(S'ClinicalTrials.gov'
p1719
S'ClinicalTrials.gov'
p1720
S'NNP'
p1721
S'I-NP'
p1722
g4
tp1723
a(S'NCT00407394'
p1724
S'NCT00407394'
p1725
S'NN'
p1726
S'I-NP'
p1727
g4
tp1728
a(g92
g92
g92
g4
g4
tp1729
a.