(lp0
(S'Patient'
p1
S'Patient'
p2
S'NN'
p3
S'B-NP'
p4
S'O'
p5
tp6
a(S'positioning'
p7
S'positioning'
p8
S'NN'
p9
S'I-NP'
p10
g5
tp11
a(S'influences'
p12
S'influence'
p13
S'VBZ'
p14
S'B-VP'
p15
g5
tp16
a(S'oxygen'
p17
S'oxygen'
p18
S'NN'
p19
S'B-NP'
p20
g5
tp21
a(S'saturation'
p22
S'saturation'
p23
S'NN'
p24
S'I-NP'
p25
g5
tp26
a(S'in'
p27
S'in'
p28
S'IN'
p29
S'B-PP'
p30
g5
tp31
a(S'the'
p32
S'the'
p33
S'DT'
p34
S'B-NP'
p35
g5
tp36
a(S'acute'
p37
S'acute'
p38
S'JJ'
p39
S'I-NP'
p40
g5
tp41
a(S'phase'
p42
S'phase'
p43
S'NN'
p44
S'I-NP'
p45
g5
tp46
a(S'of'
p47
S'of'
p48
S'IN'
p49
S'B-PP'
p50
g5
tp51
a(S'stroke'
p52
S'stroke'
p53
S'NN'
p54
S'B-NP'
p55
g5
tp56
a(S'.'
p57
g57
g57
g5
g5
tp58
a(S'We'
p59
S'We'
p60
S'PRP'
p61
S'B-NP'
p62
g5
tp63
a(S'evaluated'
p64
S'evaluate'
p65
S'VBD'
p66
S'B-VP'
p67
g5
tp68
a(S'arterial'
p69
S'arterial'
p70
S'JJ'
p71
S'B-NP'
p72
g5
tp73
a(S'oxygen'
p74
S'oxygen'
p75
S'NN'
p76
S'I-NP'
p77
g5
tp78
a(S'saturation'
p79
S'saturation'
p80
S'NN'
p81
S'I-NP'
p82
g5
tp83
a(S'('
p84
g84
g84
g5
g5
tp85
a(S'SaO'
p86
S'SaO'
p87
S'NN'
p88
S'B-NP'
p89
g5
tp90
a(g84
g84
g84
g5
g5
tp91
a(S'2'
p92
g92
S'CD'
p93
S'B-NP'
p94
g5
tp95
a(S')'
p96
g96
g96
g5
g5
tp97
a(g96
g96
g96
g5
g5
tp98
a(S'and'
p99
S'and'
p100
S'CC'
p101
g5
g5
tp102
a(S'heart'
p103
S'heart'
p104
S'NN'
p105
S'B-NP'
p106
g5
tp107
a(S'rate'
p108
S'rate'
p109
S'NN'
p110
S'I-NP'
p111
g5
tp112
a(S'in'
p113
S'in'
p114
S'IN'
p115
S'B-PP'
p116
g5
tp117
a(S'acute'
p118
S'acute'
p119
S'JJ'
p120
S'B-NP'
p121
g5
tp122
a(S'stroke'
p123
S'stroke'
p124
S'NN'
p125
S'I-NP'
p126
g5
tp127
a(S'patients'
p128
S'patient'
p129
S'NNS'
p130
S'I-NP'
p131
g5
tp132
a(S'to'
p133
S'to'
p134
S'TO'
p135
S'B-VP'
p136
g5
tp137
a(S'determine'
p138
S'determine'
p139
S'VB'
p140
S'I-VP'
p141
g5
tp142
a(S'whether'
p143
S'whether'
p144
S'IN'
p145
S'B-SBAR'
p146
g5
tp147
a(S'routine'
p148
S'routine'
p149
S'JJ'
p150
S'B-NP'
p151
g5
tp152
a(S'positioning'
p153
S'positioning'
p154
S'NN'
p155
S'I-NP'
p156
g5
tp157
a(S'affected'
p158
S'affect'
p159
S'VBD'
p160
S'B-VP'
p161
g5
tp162
a(S'these'
p163
S'these'
p164
S'DT'
p165
S'B-NP'
p166
g5
tp167
a(S'physiological'
p168
S'physiological'
p169
S'JJ'
p170
S'I-NP'
p171
g5
tp172
a(S'parameters.'
p173
S'parameters.'
p174
S'NN'
p175
S'I-NP'
p176
g5
tp177
a(S'Measurements'
p178
S'Measurement'
p179
S'NNS'
p180
S'I-NP'
p181
g5
tp182
a(S'were'
p183
S'be'
p184
S'VBD'
p185
S'B-VP'
p186
g5
tp187
a(S'recorded'
p188
S'record'
p189
S'VBN'
p190
S'I-VP'
p191
g5
tp192
a(S'at'
p193
S'at'
p194
S'IN'
p195
S'B-PP'
p196
g5
tp197
a(S'the'
p198
S'the'
p199
S'DT'
p200
S'B-NP'
p201
g5
tp202
a(S'bedside'
p203
S'bedside'
p204
S'NN'
p205
S'I-NP'
p206
g5
tp207
a(S'non-invasively'
p208
S'non-invasively'
p209
S'RB'
p210
S'B-ADVP'
p211
g5
tp212
a(S'in'
p213
S'in'
p214
S'IN'
p215
S'B-PP'
p216
g5
tp217
a(S'five'
p218
S'five'
p219
S'CD'
p220
S'B-NP'
p221
g5
tp222
a(S'different'
p223
S'different'
p224
S'JJ'
p225
S'I-NP'
p226
g5
tp227
a(S'positions'
p228
S'position'
p229
S'NNS'
p230
S'I-NP'
p231
g5
tp232
a(S'assigned'
p233
S'assign'
p234
S'VBN'
p235
S'B-VP'
p236
g5
tp237
a(S'in'
p238
S'in'
p239
S'IN'
p240
S'B-PP'
p241
g5
tp242
a(S'random'
p243
S'random'
p244
S'JJ'
p245
S'B-NP'
p246
g5
tp247
a(S'order'
p248
S'order'
p249
S'NN'
p250
S'I-NP'
p251
g5
tp252
a(S'each'
p253
S'each'
p254
S'DT'
p255
S'B-NP'
p256
g5
tp257
a(S'maintained'
p258
S'maintain'
p259
S'VBN'
p260
S'B-VP'
p261
g5
tp262
a(S'for'
p263
S'for'
p264
S'IN'
p265
S'B-PP'
p266
g5
tp267
a(S'10'
p268
S'10'
p269
S'CD'
p270
S'B-NP'
p271
g5
tp272
a(S'min.'
p273
S'min.'
p274
S'NN'
p275
S'I-NP'
p276
g5
tp277
a(S'One'
p278
S'One'
p279
S'CD'
p280
S'B-NP'
p281
g5
tp282
a(S'hundred'
p283
S'hundred'
p284
S'CD'
p285
S'I-NP'
p286
g5
tp287
a(S'and'
p288
S'and'
p289
S'CC'
p290
g5
g5
tp291
a(S'twenty-nine'
p292
S'twenty-nine'
p293
S'CD'
p294
S'B-NP'
p295
g5
tp296
a(S'patients'
p297
S'patient'
p298
S'NNS'
p299
S'I-NP'
p300
g5
tp301
a(S'examined'
p302
S'examine'
p303
S'VBN'
p304
S'B-VP'
p305
g5
tp306
a(S'within'
p307
S'within'
p308
S'IN'
p309
S'B-PP'
p310
g5
tp311
a(S'a'
p312
g312
S'DT'
p313
S'B-NP'
p314
g5
tp315
a(S'median'
p316
S'median'
p317
S'NN'
p318
S'I-NP'
p319
g5
tp320
a(S'of'
p321
S'of'
p322
S'IN'
p323
S'B-PP'
p324
g5
tp325
a(S'72'
p326
S'72'
p327
S'CD'
p328
S'B-NP'
p329
g5
tp330
a(S'h'
p331
g331
S'NN'
p332
S'I-NP'
p333
g5
tp334
a(S','
p335
g335
g335
g5
g5
tp336
a(S'lying'
p337
S'lie'
p338
S'VBG'
p339
S'B-VP'
p340
g5
tp341
a(S'on'
p342
S'on'
p343
S'IN'
p344
S'B-PP'
p345
g5
tp346
a(S'the'
p347
S'the'
p348
S'DT'
p349
S'B-NP'
p350
g5
tp351
a(S'left'
p352
S'left'
p353
S'JJ'
p354
S'I-NP'
p355
g5
tp356
a(S'side'
p357
S'side'
p358
S'NN'
p359
S'I-NP'
p360
g5
tp361
a(S'resulted'
p362
S'result'
p363
S'VBD'
p364
S'B-VP'
p365
g5
tp366
a(S'in'
p367
S'in'
p368
S'IN'
p369
S'B-PP'
p370
g5
tp371
a(S'slightly'
p372
S'slightly'
p373
S'RB'
p374
S'B-NP'
p375
g5
tp376
a(S'lower'
p377
S'low'
p378
S'JJR'
p379
S'I-NP'
p380
g5
tp381
a(S'SaO'
p382
S'SaO'
p383
S'NN'
p384
S'I-NP'
p385
g5
tp386
a(g84
g84
g84
S'B-LST'
p387
g5
tp388
a(g92
g92
S'LS'
p389
S'I-LST'
p390
g5
tp391
a(g96
g96
g96
g5
g5
tp392
a(S'than'
p393
S'than'
p394
S'IN'
p395
S'B-PP'
p396
g5
tp397
a(S'lying'
p398
S'lie'
p399
S'VBG'
p400
S'B-VP'
p401
g5
tp402
a(S'on'
p403
S'on'
p404
S'IN'
p405
S'B-PP'
p406
g5
tp407
a(S'the'
p408
S'the'
p409
S'DT'
p410
S'B-NP'
p411
g5
tp412
a(S'right'
p413
S'right'
p414
S'JJ'
p415
S'I-NP'
p416
g5
tp417
a(S'side'
p418
S'side'
p419
S'NN'
p420
S'I-NP'
p421
g5
tp422
a(g335
g335
g335
g5
g5
tp423
a(S'which'
p424
S'which'
p425
S'WDT'
p426
S'B-NP'
p427
g5
tp428
a(S'was'
p429
S'be'
p430
S'VBD'
p431
S'B-VP'
p432
g5
tp433
a(S'statistically'
p434
S'statistically'
p435
S'RB'
p436
S'B-ADJP'
p437
g5
tp438
a(S'significant'
p439
S'significant'
p440
S'JJ'
p441
S'I-ADJP'
p442
g5
tp443
a(S'in'
p444
S'in'
p445
S'IN'
p446
S'B-PP'
p447
g5
tp448
a(S'the'
p449
S'the'
p450
S'DT'
p451
S'B-NP'
p452
g5
tp453
a(S'patients'
p454
S'patient'
p455
S'NNS'
p456
S'I-NP'
p457
g5
tp458
a(S'with'
p459
S'with'
p460
S'IN'
p461
S'B-PP'
p462
g5
tp463
a(g312
g312
S'DT'
p464
g5
g5
tp465
a(S'right'
p466
S'right'
p467
S'JJ'
p468
g5
g5
tp469
a(g84
g84
g84
g5
g5
tp470
a(S'n'
p471
g471
S'NN'
p472
S'B-NP'
p473
g5
tp474
a(S'='
p475
g475
S'SYM'
p476
S'B-VP'
p477
g5
tp478
a(S'66'
p479
S'66'
p480
S'CD'
p481
S'B-NP'
p482
g5
tp483
a(g96
g96
g96
g5
g5
tp484
a(g335
g335
g335
g5
g5
tp485
a(S'but'
p486
S'but'
p487
S'CC'
p488
g5
g5
tp489
a(S'not'
p490
S'not'
p491
S'RB'
p492
S'B-ADJP'
p493
g5
tp494
a(S'left'
p495
S'left'
p496
S'JJ'
p497
S'I-ADJP'
p498
g5
tp499
a(g335
g335
g335
g5
g5
tp500
a(S'hemiparesis.'
p501
S'hemiparesis.'
p502
S'NN'
p503
S'B-NP'
p504
g5
tp505
a(S'Patients'
p506
S'Patient'
p507
S'NNS'
p508
S'I-NP'
p509
g5
tp510
a(S'able'
p511
S'able'
p512
S'JJ'
p513
S'B-ADJP'
p514
g5
tp515
a(S'to'
p516
S'to'
p517
S'TO'
p518
S'B-VP'
p519
g5
tp520
a(S'sit'
p521
S'sit'
p522
S'VB'
p523
S'I-VP'
p524
g5
tp525
a(S'in'
p526
S'in'
p527
S'IN'
p528
S'B-PP'
p529
g5
tp530
a(g312
g312
S'DT'
p531
S'B-NP'
p532
g5
tp533
a(S'chair'
p534
S'chair'
p535
S'NN'
p536
S'I-NP'
p537
g5
tp538
a(g84
g84
g84
g5
g5
tp539
a(g471
g471
S'NN'
p540
S'B-NP'
p541
g5
tp542
a(g475
g475
S'SYM'
p543
S'B-VP'
p544
g5
tp545
a(S'65'
p546
S'65'
p547
S'CD'
p548
S'B-NP'
p549
g5
tp550
a(g96
g96
g96
g5
g5
tp551
a(g335
g335
g335
g5
g5
tp552
a(S'who'
p553
S'who'
p554
S'WP'
p555
S'B-NP'
p556
g5
tp557
a(S'mostly'
p558
S'mostly'
p559
S'RB'
p560
S'B-ADVP'
p561
g5
tp562
a(S'had'
p563
S'have'
p564
S'VBD'
p565
S'B-VP'
p566
g5
tp567
a(S'less'
p568
S'less'
p569
S'RBR'
p570
S'B-NP'
p571
g5
tp572
a(S'severe'
p573
S'severe'
p574
S'JJ'
p575
S'I-NP'
p576
g5
tp577
a(S'strokes'
p578
S'stroke'
p579
S'NNS'
p580
S'I-NP'
p581
g5
tp582
a(g335
g335
g335
g5
g5
tp583
a(S'had'
p584
S'have'
p585
S'VBD'
p586
S'B-VP'
p587
g5
tp588
a(g312
g312
S'DT'
p589
S'B-NP'
p590
g5
tp591
a(S'significantly'
p592
S'significantly'
p593
S'RB'
p594
S'I-NP'
p595
g5
tp596
a(S'higher'
p597
S'high'
p598
S'JJR'
p599
S'I-NP'
p600
g5
tp601
a(S'mean'
p602
S'mean'
p603
S'JJ'
p604
S'I-NP'
p605
g5
tp606
a(S'SaO'
p607
S'SaO'
p608
S'NN'
p609
S'I-NP'
p610
g5
tp611
a(g84
g84
g84
g5
g5
tp612
a(g92
g92
S'CD'
p613
S'B-NP'
p614
g5
tp615
a(g96
g96
g96
g5
g5
tp616
a(S'and'
p617
S'and'
p618
S'CC'
p619
g5
g5
tp620
a(S'heart'
p621
S'heart'
p622
S'NN'
p623
S'B-NP'
p624
g5
tp625
a(S'rate'
p626
S'rate'
p627
S'NN'
p628
S'I-NP'
p629
g5
tp630
a(S'when'
p631
S'when'
p632
S'WRB'
p633
S'B-ADVP'
p634
g5
tp635
a(S'sitting'
p636
S'sit'
p637
S'VBG'
p638
S'B-VP'
p639
g5
tp640
a(S'in'
p641
S'in'
p642
S'IN'
p643
S'B-PP'
p644
g5
tp645
a(S'the'
p646
S'the'
p647
S'DT'
p648
S'B-NP'
p649
g5
tp650
a(S'chair'
p651
S'chair'
p652
S'NN'
p653
S'I-NP'
p654
g5
tp655
a(S'than'
p656
S'than'
p657
S'IN'
p658
S'B-PP'
p659
g5
tp660
a(S'when'
p661
S'when'
p662
S'WRB'
p663
S'B-ADVP'
p664
g5
tp665
a(S'placed'
p666
S'place'
p667
S'VBN'
p668
S'B-VP'
p669
g5
tp670
a(S'in'
p671
S'in'
p672
S'IN'
p673
S'B-PP'
p674
g5
tp675
a(S'any'
p676
S'any'
p677
S'DT'
p678
S'B-NP'
p679
g5
tp680
a(S'other'
p681
S'other'
p682
S'JJ'
p683
S'I-NP'
p684
g5
tp685
a(S'position.'
p686
S'position.'
p687
S'NN'
p688
S'I-NP'
p689
g5
tp690
a(S'About'
p691
S'About'
p692
S'IN'
p693
S'B-NP'
p694
g5
tp695
a(S'10'
p696
S'10'
p697
S'CD'
p698
S'I-NP'
p699
g5
tp700
a(S'%'
p701
g701
S'NN'
p702
S'I-NP'
p703
g5
tp704
a(S'of'
p705
S'of'
p706
S'IN'
p707
S'B-PP'
p708
g5
tp709
a(S'patients'
p710
S'patient'
p711
S'NNS'
p712
S'B-NP'
p713
g5
tp714
a(g335
g335
g335
g5
g5
tp715
a(S'especially'
p716
S'especially'
p717
S'RB'
p718
S'B-ADVP'
p719
g5
tp720
a(S'those'
p721
S'those'
p722
S'DT'
p723
S'B-NP'
p724
g5
tp725
a(S'with'
p726
S'with'
p727
S'IN'
p728
S'B-PP'
p729
g5
tp730
a(g312
g312
S'DT'
p731
S'B-NP'
p732
g5
tp733
a(S'severe'
p734
S'severe'
p735
S'JJ'
p736
S'I-NP'
p737
g5
tp738
a(S'stroke'
p739
S'stroke'
p740
S'NN'
p741
S'I-NP'
p742
g5
tp743
a(g335
g335
g335
g5
g5
tp744
a(S'with'
p745
S'with'
p746
S'IN'
p747
S'B-PP'
p748
g5
tp749
a(S'right'
p750
S'right'
p751
S'JJ'
p752
S'B-NP'
p753
g5
tp754
a(S'hemiparesis'
p755
S'hemiparesis'
p756
S'NN'
p757
S'I-NP'
p758
g5
tp759
a(S'and'
p760
S'and'
p761
S'CC'
p762
g5
g5
tp763
a(S'concomitant'
p764
S'concomitant'
p765
S'JJ'
p766
S'B-NP'
p767
g5
tp768
a(S'chest'
p769
S'chest'
p770
S'NN'
p771
S'I-NP'
p772
g5
tp773
a(S'disease'
p774
S'disease'
p775
S'NN'
p776
S'I-NP'
p777
g5
tp778
a(g335
g335
g335
g5
g5
tp779
a(S'experienced'
p780
S'experience'
p781
S'VBD'
p782
S'B-VP'
p783
g5
tp784
a(S'falls'
p785
S'fall'
p786
S'VBZ'
p787
S'B-VP'
p788
g5
tp789
a(S'in'
p790
S'in'
p791
S'IN'
p792
S'B-PP'
p793
g5
tp794
a(S'SaO'
p795
S'SaO'
p796
S'NN'
p797
S'B-NP'
p798
g5
tp799
a(g84
g84
g84
g5
g5
tp800
a(g92
g92
S'CD'
p801
S'B-NP'
p802
g5
tp803
a(g96
g96
g96
g5
g5
tp804
a(S'to'
p805
S'to'
p806
S'TO'
p807
S'B-PP'
p808
g5
tp809
a(S'90'
p810
S'90'
p811
S'CD'
p812
S'B-NP'
p813
g5
tp814
a(g701
g701
S'NN'
p815
S'I-NP'
p816
g5
tp817
a(S'or'
p818
S'or'
p819
S'CC'
p820
S'I-NP'
p821
g5
tp822
a(S'less'
p823
S'less'
p824
S'JJR'
p825
S'I-NP'
p826
g5
tp827
a(S'for'
p828
S'for'
p829
S'IN'
p830
S'B-PP'
p831
g5
tp832
a(S'>'
p833
g833
S'JJR'
p834
S'B-NP'
p835
g5
tp836
a(S'/=2'
p837
S'/=2'
p838
S'CD'
p839
S'I-NP'
p840
g5
tp841
a(S'min'
p842
S'min'
p843
S'NN'
p844
S'I-NP'
p845
g5
tp846
a(S'in'
p847
S'in'
p848
S'IN'
p849
S'B-PP'
p850
g5
tp851
a(S'certain'
p852
S'certain'
p853
S'JJ'
p854
S'B-NP'
p855
g5
tp856
a(S'positions'
p857
S'position'
p858
S'NNS'
p859
S'I-NP'
p860
g5
tp861
a(S';'
p862
g862
S':'
p863
g5
g5
tp864
a(S'the'
p865
S'the'
p866
S'DT'
p867
S'B-NP'
p868
g5
tp869
a(S'hypoxia'
p870
S'hypoxia'
p871
S'NN'
p872
S'I-NP'
p873
g5
tp874
a(S'was'
p875
S'be'
p876
S'VBD'
p877
S'B-VP'
p878
g5
tp879
a(S'more'
p880
S'more'
p881
S'RBR'
p882
S'B-ADJP'
p883
g5
tp884
a(S'likely'
p885
S'likely'
p886
S'JJ'
p887
S'I-ADJP'
p888
g5
tp889
a(S'when'
p890
S'when'
p891
S'WRB'
p892
S'B-ADVP'
p893
g5
tp894
a(S'they'
p895
S'they'
p896
S'PRP'
p897
S'B-NP'
p898
g5
tp899
a(S'were'
p900
S'be'
p901
S'VBD'
p902
S'B-VP'
p903
g5
tp904
a(S'lying'
p905
S'lie'
p906
S'VBG'
p907
S'I-VP'
p908
g5
tp909
a(S'on'
p910
S'on'
p911
S'IN'
p912
S'B-PP'
p913
g5
tp914
a(S'their'
p915
S'their'
p916
S'PRP$'
p917
S'B-NP'
p918
g5
tp919
a(S'left'
p920
S'left'
p921
S'JJ'
p922
S'I-NP'
p923
g5
tp924
a(S'side.'
p925
S'side.'
p926
S'NN'
p927
S'I-NP'
p928
g5
tp929
a(S'These'
p930
S'These'
p931
S'DT'
p932
S'B-NP'
p933
g5
tp934
a(S'results'
p935
S'result'
p936
S'NNS'
p937
S'I-NP'
p938
g5
tp939
a(S'may'
p940
S'may'
p941
S'MD'
p942
S'B-VP'
p943
g5
tp944
a(S'have'
p945
S'have'
p946
S'VB'
p947
S'I-VP'
p948
g5
tp949
a(S'implications'
p950
S'implication'
p951
S'NNS'
p952
S'B-NP'
p953
g5
tp954
a(S'for'
p955
S'for'
p956
S'IN'
p957
S'B-PP'
p958
g5
tp959
a(S'current'
p960
S'current'
p961
S'JJ'
p962
S'B-NP'
p963
g5
tp964
a(S'practice'
p965
S'practice'
p966
S'NN'
p967
S'I-NP'
p968
g5
tp969
a(S'and'
p970
S'and'
p971
S'CC'
p972
S'B-PP'
p973
g5
tp974
a(S'for'
p975
S'for'
p976
S'IN'
p977
S'B-PP'
p978
g5
tp979
a(S'future'
p980
S'future'
p981
S'JJ'
p982
S'B-NP'
p983
g5
tp984
a(S'patient'
p985
S'patient'
p986
S'NN'
p987
S'I-NP'
p988
g5
tp989
a(S'positioning'
p990
S'position'
p991
S'VBG'
p992
S'B-VP'
p993
g5
tp994
a(S'strategies'
p995
S'strategy'
p996
S'NNS'
p997
S'B-NP'
p998
g5
tp999
a(S'to'
p1000
S'to'
p1001
S'TO'
p1002
S'B-VP'
p1003
g5
tp1004
a(S'improve'
p1005
S'improve'
p1006
S'VB'
p1007
S'I-VP'
p1008
g5
tp1009
a(S'outcome'
p1010
S'outcome'
p1011
S'NN'
p1012
S'B-NP'
p1013
g5
tp1014
a(S'after'
p1015
S'after'
p1016
S'IN'
p1017
S'B-PP'
p1018
g5
tp1019
a(S'stroke'
p1020
S'stroke'
p1021
S'NN'
p1022
S'B-NP'
p1023
g5
tp1024
a(g57
g57
g57
g5
g5
tp1025
a.