(lp0
(S'Peritoneovenous'
p1
S'Peritoneovenous'
p2
S'JJ'
p3
S'B-NP'
p4
S'O'
p5
tp6
a(S'shunting'
p7
S'shunting'
p8
S'NN'
p9
S'I-NP'
p10
g5
tp11
a(S'as'
p12
S'as'
p13
S'IN'
p14
S'B-PP'
p15
g5
tp16
a(S'compared'
p17
S'compare'
p18
S'VBN'
p19
S'B-PP'
p20
g5
tp21
a(S'with'
p22
S'with'
p23
S'IN'
p24
S'B-PP'
p25
g5
tp26
a(S'medical'
p27
S'medical'
p28
S'JJ'
p29
S'B-NP'
p30
g5
tp31
a(S'treatment'
p32
S'treatment'
p33
S'NN'
p34
S'I-NP'
p35
g5
tp36
a(S'in'
p37
S'in'
p38
S'IN'
p39
S'B-PP'
p40
g5
tp41
a(S'patients'
p42
S'patient'
p43
S'NNS'
p44
S'B-NP'
p45
g5
tp46
a(S'with'
p47
S'with'
p48
S'IN'
p49
S'B-PP'
p50
g5
tp51
a(S'alcoholic'
p52
S'alcoholic'
p53
S'JJ'
p54
S'B-NP'
p55
g5
tp56
a(S'cirrhosis'
p57
S'cirrhosis'
p58
S'NN'
p59
S'I-NP'
p60
g5
tp61
a(S'and'
p62
S'and'
p63
S'CC'
p64
g5
g5
tp65
a(S'massive'
p66
S'massive'
p67
S'JJ'
p68
S'B-NP'
p69
g5
tp70
a(S'ascites.'
p71
S'ascites.'
p72
S'NN'
p73
S'I-NP'
p74
g5
tp75
a(S'Veterans'
p76
S'Veterans'
p77
S'NNP'
p78
S'I-NP'
p79
g5
tp80
a(S'Administration'
p81
S'Administration'
p82
S'NNP'
p83
S'I-NP'
p84
g5
tp85
a(S'Cooperative'
p86
S'Cooperative'
p87
S'NNP'
p88
S'I-NP'
p89
g5
tp90
a(S'Study'
p91
S'Study'
p92
S'NNP'
p93
S'I-NP'
p94
g5
tp95
a(S'on'
p96
S'on'
p97
S'IN'
p98
S'B-PP'
p99
g5
tp100
a(S'Treatment'
p101
S'Treatment'
p102
S'NNP'
p103
S'B-NP'
p104
g5
tp105
a(S'of'
p106
S'of'
p107
S'IN'
p108
S'B-PP'
p109
g5
tp110
a(S'Alcoholic'
p111
S'Alcoholic'
p112
S'JJ'
p113
S'B-NP'
p114
g5
tp115
a(S'Cirrhosis'
p116
S'Cirrhosis'
p117
S'NN'
p118
S'I-NP'
p119
g5
tp120
a(S'with'
p121
S'with'
p122
S'IN'
p123
S'B-PP'
p124
g5
tp125
a(S'Ascites'
p126
S'Ascites'
p127
S'NN'
p128
S'B-NP'
p129
g5
tp130
a(S'.'
p131
g131
g131
g5
g5
tp132
a(S'The'
p133
S'The'
p134
S'DT'
p135
S'B-NP'
p136
g5
tp137
a(S'optimal'
p138
S'optimal'
p139
S'JJ'
p140
S'I-NP'
p141
g5
tp142
a(S'management'
p143
S'management'
p144
S'NN'
p145
S'I-NP'
p146
g5
tp147
a(S'of'
p148
S'of'
p149
S'IN'
p150
S'B-PP'
p151
g5
tp152
a(S'severe'
p153
S'severe'
p154
S'JJ'
p155
S'B-NP'
p156
g5
tp157
a(S'ascites'
p158
S'ascite'
p159
S'NNS'
p160
S'I-NP'
p161
g5
tp162
a(S'in'
p163
S'in'
p164
S'IN'
p165
S'B-PP'
p166
g5
tp167
a(S'patients'
p168
S'patient'
p169
S'NNS'
p170
S'B-NP'
p171
g5
tp172
a(S'with'
p173
S'with'
p174
S'IN'
p175
S'B-PP'
p176
g5
tp177
a(S'alcoholic'
p178
S'alcoholic'
p179
S'JJ'
p180
S'B-NP'
p181
g5
tp182
a(S'cirrhosis'
p183
S'cirrhosis'
p184
S'NN'
p185
S'I-NP'
p186
g5
tp187
a(S'has'
p188
S'have'
p189
S'VBZ'
p190
S'B-VP'
p191
g5
tp192
a(S'not'
p193
S'not'
p194
S'RB'
p195
S'I-VP'
p196
g5
tp197
a(S'been'
p198
S'be'
p199
S'VBN'
p200
S'I-VP'
p201
g5
tp202
a(S'defined.'
p203
S'defined.'
p204
S'VBN'
p205
S'I-VP'
p206
g5
tp207
a(S'in'
p208
S'in'
p209
S'IN'
p210
S'B-PP'
p211
g5
tp212
a(S'a'
p213
g213
S'DT'
p214
S'B-NP'
p215
g5
tp216
a(S'5'
p217
g217
S'CD'
p218
S'I-NP'
p219
g5
tp220
a(S'1/2-year'
p221
S'1/2-year'
p222
S'JJ'
p223
S'I-NP'
p224
g5
tp225
a(S'study'
p226
S'study'
p227
S'NN'
p228
S'I-NP'
p229
g5
tp230
a(S','
p231
g231
g231
g5
g5
tp232
a(S'we'
p233
S'we'
p234
S'PRP'
p235
S'B-NP'
p236
g5
tp237
a(S'randomly'
p238
S'randomly'
p239
S'RB'
p240
S'B-ADVP'
p241
g5
tp242
a(S'assigned'
p243
S'assign'
p244
S'VBD'
p245
S'B-VP'
p246
g5
tp247
a(S'299'
p248
S'299'
p249
S'CD'
p250
S'B-NP'
p251
g5
tp252
a(S'men'
p253
S'man'
p254
S'NNS'
p255
S'I-NP'
p256
g5
tp257
a(S'with'
p258
S'with'
p259
S'IN'
p260
S'B-PP'
p261
g5
tp262
a(S'alcoholic'
p263
S'alcoholic'
p264
S'JJ'
p265
S'B-NP'
p266
g5
tp267
a(S'cirrhosis'
p268
S'cirrhosis'
p269
S'NN'
p270
S'I-NP'
p271
g5
tp272
a(g231
g231
g231
g5
g5
tp273
a(S'who'
p274
S'who'
p275
S'WP'
p276
S'B-NP'
p277
g5
tp278
a(S'had'
p279
S'have'
p280
S'VBD'
p281
S'B-VP'
p282
g5
tp283
a(S'persistent'
p284
S'persistent'
p285
S'JJ'
p286
S'B-NP'
p287
g5
tp288
a(S'or'
p289
S'or'
p290
S'CC'
p291
S'I-NP'
p292
g5
tp293
a(S'recurrent'
p294
S'recurrent'
p295
S'JJ'
p296
S'I-NP'
p297
g5
tp298
a(S'severe'
p299
S'severe'
p300
S'JJ'
p301
S'I-NP'
p302
g5
tp303
a(S'ascites'
p304
S'ascite'
p305
S'NNS'
p306
S'I-NP'
p307
g5
tp308
a(S'despite'
p309
S'despite'
p310
S'IN'
p311
S'B-PP'
p312
g5
tp313
a(g213
g213
S'DT'
p314
S'B-NP'
p315
g5
tp316
a(S'standard'
p317
S'standard'
p318
S'JJ'
p319
S'I-NP'
p320
g5
tp321
a(S'medical'
p322
S'medical'
p323
S'JJ'
p324
S'I-NP'
p325
g5
tp326
a(S'regimen'
p327
S'regimen'
p328
S'NN'
p329
S'I-NP'
p330
g5
tp331
a(g231
g231
g231
g5
g5
tp332
a(S'to'
p333
S'to'
p334
S'TO'
p335
S'B-VP'
p336
g5
tp337
a(S'receive'
p338
S'receive'
p339
S'VB'
p340
S'I-VP'
p341
g5
tp342
a(S'either'
p343
S'either'
p344
S'CC'
p345
g5
g5
tp346
a(S'intensive'
p347
S'intensive'
p348
S'JJ'
p349
S'B-NP'
p350
g5
tp351
a(S'medical'
p352
S'medical'
p353
S'JJ'
p354
S'I-NP'
p355
g5
tp356
a(S'treatment'
p357
S'treatment'
p358
S'NN'
p359
S'I-NP'
p360
g5
tp361
a(S'or'
p362
S'or'
p363
S'CC'
p364
g5
g5
tp365
a(S'peritoneovenous'
p366
S'peritoneovenous'
p367
S'JJ'
p368
g5
g5
tp369
a(S'('
p370
g370
g370
g5
g5
tp371
a(S'LeVeen'
p372
S'LeVeen'
p373
S'JJ'
p374
S'B-ADJP'
p375
g5
tp376
a(S')'
p377
g377
g377
g5
g5
tp378
a(S'shunting.'
p379
S'shunting.'
p380
S'NN'
p381
S'B-NP'
p382
g5
tp383
a(S'We'
p384
S'We'
p385
S'PRP'
p386
S'B-NP'
p387
g5
tp388
a(S'identified'
p389
S'identify'
p390
S'VBD'
p391
S'B-VP'
p392
g5
tp393
a(S'three'
p394
S'three'
p395
S'CD'
p396
S'B-NP'
p397
g5
tp398
a(S'risk'
p399
S'risk'
p400
S'NN'
p401
S'I-NP'
p402
g5
tp403
a(S'groups'
p404
S'group'
p405
S'NNS'
p406
S'I-NP'
p407
g5
tp408
a(S':'
p409
g409
g409
g5
g5
tp410
a(S'Group'
p411
S'Group'
p412
S'NN'
p413
S'B-NP'
p414
g5
tp415
a(S'1'
p416
g416
S'CD'
p417
S'I-NP'
p418
g5
tp419
a(S'had'
p420
S'have'
p421
S'VBD'
p422
S'B-VP'
p423
g5
tp424
a(S'normal'
p425
S'normal'
p426
S'JJ'
p427
S'B-NP'
p428
g5
tp429
a(S'or'
p430
S'or'
p431
S'CC'
p432
S'I-NP'
p433
g5
tp434
a(S'mildly'
p435
S'mildly'
p436
S'RB'
p437
S'I-NP'
p438
g5
tp439
a(S'abnormal'
p440
S'abnormal'
p441
S'JJ'
p442
S'I-NP'
p443
g5
tp444
a(S'results'
p445
S'result'
p446
S'NNS'
p447
S'I-NP'
p448
g5
tp449
a(S'on'
p450
S'on'
p451
S'IN'
p452
S'B-PP'
p453
g5
tp454
a(S'liver-function'
p455
S'liver-function'
p456
S'NN'
p457
S'B-NP'
p458
g5
tp459
a(S'tests'
p460
S'test'
p461
S'NNS'
p462
S'I-NP'
p463
g5
tp464
a(g231
g231
g231
g5
g5
tp465
a(S'Group'
p466
S'Group'
p467
S'NN'
p468
S'B-NP'
p469
g5
tp470
a(S'2'
p471
g471
S'CD'
p472
S'I-NP'
p473
g5
tp474
a(S'had'
p475
S'have'
p476
S'VBD'
p477
S'B-VP'
p478
g5
tp479
a(S'more'
p480
S'more'
p481
S'RBR'
p482
S'B-NP'
p483
g5
tp484
a(S'severe'
p485
S'severe'
p486
S'JJ'
p487
S'I-NP'
p488
g5
tp489
a(S'liver'
p490
S'liver'
p491
S'NN'
p492
S'I-NP'
p493
g5
tp494
a(S'dysfunction'
p495
S'dysfunction'
p496
S'NN'
p497
S'I-NP'
p498
g5
tp499
a(S'or'
p500
S'or'
p501
S'CC'
p502
g5
g5
tp503
a(S'previous'
p504
S'previous'
p505
S'JJ'
p506
S'B-NP'
p507
g5
tp508
a(S'complications'
p509
S'complication'
p510
S'NNS'
p511
S'I-NP'
p512
g5
tp513
a(g231
g231
g231
g5
g5
tp514
a(S'and'
p515
S'and'
p516
S'CC'
p517
g5
g5
tp518
a(S'Group'
p519
S'Group'
p520
S'NN'
p521
S'B-NP'
p522
S'B-protein'
p523
tp524
a(S'3'
p525
g525
S'CD'
p526
S'I-NP'
p527
S'I-protein'
p528
tp529
a(S'had'
p530
S'have'
p531
S'VBD'
p532
S'B-VP'
p533
g5
tp534
a(S'severe'
p535
S'severe'
p536
S'JJ'
p537
S'B-NP'
p538
g5
tp539
a(S'prerenal'
p540
S'prerenal'
p541
S'JJ'
p542
S'I-NP'
p543
g5
tp544
a(S'azotemia'
p545
S'azotemia'
p546
S'NN'
p547
S'I-NP'
p548
g5
tp549
a(S'without'
p550
S'without'
p551
S'IN'
p552
S'B-PP'
p553
g5
tp554
a(S'kidney'
p555
S'kidney'
p556
S'NN'
p557
S'B-NP'
p558
g5
tp559
a(S'disease.'
p560
S'disease.'
p561
S'NN'
p562
S'I-NP'
p563
g5
tp564
a(S'For'
p565
S'For'
p566
S'IN'
p567
S'B-PP'
p568
g5
tp569
a(S'the'
p570
S'the'
p571
S'DT'
p572
S'B-NP'
p573
g5
tp574
a(S'patients'
p575
S'patient'
p576
S'NNS'
p577
S'I-NP'
p578
g5
tp579
a(S'who'
p580
S'who'
p581
S'WP'
p582
S'B-NP'
p583
g5
tp584
a(S'received'
p585
S'receive'
p586
S'VBD'
p587
S'B-VP'
p588
g5
tp589
a(S'the'
p590
S'the'
p591
S'DT'
p592
S'B-NP'
p593
g5
tp594
a(S'medical'
p595
S'medical'
p596
S'JJ'
p597
S'I-NP'
p598
g5
tp599
a(S'treatment'
p600
S'treatment'
p601
S'NN'
p602
S'I-NP'
p603
g5
tp604
a(S'and'
p605
S'and'
p606
S'CC'
p607
g5
g5
tp608
a(S'those'
p609
S'those'
p610
S'DT'
p611
S'B-NP'
p612
g5
tp613
a(S'who'
p614
S'who'
p615
S'WP'
p616
S'B-NP'
p617
g5
tp618
a(S'received'
p619
S'receive'
p620
S'VBD'
p621
S'B-VP'
p622
g5
tp623
a(S'the'
p624
S'the'
p625
S'DT'
p626
S'B-NP'
p627
g5
tp628
a(S'surgical'
p629
S'surgical'
p630
S'JJ'
p631
S'I-NP'
p632
g5
tp633
a(S'treatment'
p634
S'treatment'
p635
S'NN'
p636
S'I-NP'
p637
g5
tp638
a(S'combined'
p639
S'combine'
p640
S'VBN'
p641
S'B-VP'
p642
g5
tp643
a(g231
g231
g231
g5
g5
tp644
a(S'the'
p645
S'the'
p646
S'DT'
p647
S'B-NP'
p648
g5
tp649
a(S'median'
p650
S'median'
p651
S'JJ'
p652
S'I-NP'
p653
g5
tp654
a(S'survival'
p655
S'survival'
p656
S'NN'
p657
S'I-NP'
p658
g5
tp659
a(S'times'
p660
S'time'
p661
S'NNS'
p662
S'I-NP'
p663
g5
tp664
a(S'were'
p665
S'be'
p666
S'VBD'
p667
S'B-VP'
p668
g5
tp669
a(S'1093'
p670
S'1093'
p671
S'CD'
p672
S'B-NP'
p673
g5
tp674
a(S'days'
p675
S'day'
p676
S'NNS'
p677
S'I-NP'
p678
g5
tp679
a(S'in'
p680
S'in'
p681
S'IN'
p682
S'B-PP'
p683
g5
tp684
a(S'Group'
p685
S'Group'
p686
S'NN'
p687
S'B-NP'
p688
g5
tp689
a(g416
g416
S'CD'
p690
S'I-NP'
p691
g5
tp692
a(g231
g231
g231
S'I-NP'
p693
g5
tp694
a(S'222'
p695
S'222'
p696
S'CD'
p697
S'I-NP'
p698
g5
tp699
a(S'days'
p700
S'day'
p701
S'NNS'
p702
S'I-NP'
p703
g5
tp704
a(S'in'
p705
S'in'
p706
S'IN'
p707
S'B-PP'
p708
g5
tp709
a(S'Group'
p710
S'Group'
p711
S'NN'
p712
S'B-NP'
p713
g5
tp714
a(g471
g471
S'CD'
p715
S'I-NP'
p716
g5
tp717
a(g231
g231
g231
g5
g5
tp718
a(S'and'
p719
S'and'
p720
S'CC'
p721
g5
g5
tp722
a(S'37'
p723
S'37'
p724
S'CD'
p725
S'B-NP'
p726
g5
tp727
a(S'days'
p728
S'day'
p729
S'NNS'
p730
S'I-NP'
p731
g5
tp732
a(S'in'
p733
S'in'
p734
S'IN'
p735
S'B-PP'
p736
g5
tp737
a(S'Group'
p738
S'Group'
p739
S'NN'
p740
S'B-NP'
p741
g5
tp742
a(g525
g525
S'CD'
p743
S'I-NP'
p744
g5
tp745
a(g370
g370
g370
g5
g5
tp746
a(S'P'
p747
g747
S'NN'
p748
S'B-NP'
p749
g5
tp750
a(S'less'
p751
S'less'
p752
S'JJR'
p753
S'B-ADJP'
p754
g5
tp755
a(S'than'
p756
S'than'
p757
S'IN'
p758
S'B-PP'
p759
g5
tp760
a(S'or'
p761
S'or'
p762
S'CC'
p763
g5
g5
tp764
a(S'equal'
p765
S'equal'
p766
S'JJ'
p767
S'B-ADJP'
p768
g5
tp769
a(S'to'
p770
S'to'
p771
S'TO'
p772
S'B-PP'
p773
g5
tp774
a(S'0.01'
p775
S'0.01'
p776
S'CD'
p777
S'B-NP'
p778
g5
tp779
a(g377
g377
g377
g5
g5
tp780
a(S'for'
p781
S'for'
p782
S'IN'
p783
S'B-PP'
p784
g5
tp785
a(S'all'
p786
S'all'
p787
S'DT'
p788
S'B-NP'
p789
g5
tp790
a(S'comparisons'
p791
S'comparison'
p792
S'NNS'
p793
S'I-NP'
p794
g5
tp795
a(g377
g377
g377
g5
g5
tp796
a(g131
g131
g131
g5
g5
tp797
a(S'For'
p798
S'For'
p799
S'IN'
p800
S'B-PP'
p801
g5
tp802
a(S'all'
p803
S'all'
p804
S'PDT'
p805
S'B-NP'
p806
g5
tp807
a(S'the'
p808
S'the'
p809
S'DT'
p810
S'I-NP'
p811
g5
tp812
a(S'groups'
p813
S'group'
p814
S'NNS'
p815
S'I-NP'
p816
g5
tp817
a(S'combined'
p818
S'combine'
p819
S'VBN'
p820
S'B-VP'
p821
g5
tp822
a(g231
g231
g231
g5
g5
tp823
a(S'the'
p824
S'the'
p825
S'DT'
p826
S'B-NP'
p827
g5
tp828
a(S'median'
p829
S'median'
p830
S'JJ'
p831
S'I-NP'
p832
g5
tp833
a(S'time'
p834
S'time'
p835
S'NN'
p836
S'I-NP'
p837
g5
tp838
a(S'to'
p839
S'to'
p840
S'TO'
p841
S'B-PP'
p842
g5
tp843
a(S'the'
p844
S'the'
p845
S'DT'
p846
S'B-NP'
p847
g5
tp848
a(S'resolution'
p849
S'resolution'
p850
S'NN'
p851
S'I-NP'
p852
g5
tp853
a(S'of'
p854
S'of'
p855
S'IN'
p856
S'B-PP'
p857
g5
tp858
a(S'ascites'
p859
S'ascite'
p860
S'NNS'
p861
S'B-NP'
p862
g5
tp863
a(S'was'
p864
S'be'
p865
S'VBD'
p866
S'B-VP'
p867
g5
tp868
a(S'5.4'
p869
S'5.4'
p870
S'CD'
p871
S'B-NP'
p872
g5
tp873
a(S'weeks'
p874
S'week'
p875
S'NNS'
p876
S'I-NP'
p877
g5
tp878
a(S'for'
p879
S'for'
p880
S'IN'
p881
S'B-PP'
p882
g5
tp883
a(S'medical'
p884
S'medical'
p885
S'JJ'
p886
S'B-NP'
p887
g5
tp888
a(S'patients'
p889
S'patient'
p890
S'NNS'
p891
S'I-NP'
p892
g5
tp893
a(S'and'
p894
S'and'
p895
S'CC'
p896
g5
g5
tp897
a(S'3.0'
p898
S'3.0'
p899
S'CD'
p900
S'B-NP'
p901
g5
tp902
a(S'weeks'
p903
S'week'
p904
S'NNS'
p905
S'I-NP'
p906
g5
tp907
a(S'for'
p908
S'for'
p909
S'IN'
p910
S'B-PP'
p911
g5
tp912
a(S'surgical'
p913
S'surgical'
p914
S'JJ'
p915
S'B-NP'
p916
g5
tp917
a(S'patients'
p918
S'patient'
p919
S'NNS'
p920
S'I-NP'
p921
g5
tp922
a(g370
g370
g370
g5
g5
tp923
a(g747
g747
S'NN'
p924
S'B-NP'
p925
g5
tp926
a(S'less'
p927
S'less'
p928
S'JJR'
p929
S'B-ADJP'
p930
g5
tp931
a(S'than'
p932
S'than'
p933
S'IN'
p934
S'B-PP'
p935
g5
tp936
a(S'0.01'
p937
S'0.01'
p938
S'CD'
p939
S'B-NP'
p940
g5
tp941
a(g377
g377
g377
g5
g5
tp942
a(g131
g131
g131
g5
g5
tp943
a(S'Within'
p944
S'Within'
p945
S'IN'
p946
S'B-PP'
p947
g5
tp948
a(S'each'
p949
S'each'
p950
S'DT'
p951
S'B-NP'
p952
g5
tp953
a(S'risk'
p954
S'risk'
p955
S'NN'
p956
S'I-NP'
p957
g5
tp958
a(S'group'
p959
S'group'
p960
S'NN'
p961
S'I-NP'
p962
g5
tp963
a(g231
g231
g231
g5
g5
tp964
a(S'mortality'
p965
S'mortality'
p966
S'NN'
p967
S'B-NP'
p968
g5
tp969
a(S'during'
p970
S'during'
p971
S'IN'
p972
S'B-PP'
p973
g5
tp974
a(S'the'
p975
S'the'
p976
S'DT'
p977
S'B-NP'
p978
g5
tp979
a(S'initial'
p980
S'initial'
p981
S'JJ'
p982
S'I-NP'
p983
g5
tp984
a(S'hospitalization'
p985
S'hospitalization'
p986
S'NN'
p987
S'I-NP'
p988
g5
tp989
a(S'and'
p990
S'and'
p991
S'CC'
p992
g5
g5
tp993
a(S'median'
p994
S'median'
p995
S'JJ'
p996
S'B-NP'
p997
g5
tp998
a(S'long-term'
p999
S'long-term'
p1000
S'JJ'
p1001
S'I-NP'
p1002
g5
tp1003
a(S'survival'
p1004
S'survival'
p1005
S'NN'
p1006
S'I-NP'
p1007
g5
tp1008
a(S'were'
p1009
S'be'
p1010
S'VBD'
p1011
S'B-VP'
p1012
g5
tp1013
a(S'similar'
p1014
S'similar'
p1015
S'JJ'
p1016
S'B-ADJP'
p1017
g5
tp1018
a(S'among'
p1019
S'among'
p1020
S'IN'
p1021
S'B-PP'
p1022
g5
tp1023
a(S'patients'
p1024
S'patient'
p1025
S'NNS'
p1026
S'B-NP'
p1027
g5
tp1028
a(S'receiving'
p1029
S'receive'
p1030
S'VBG'
p1031
S'B-VP'
p1032
g5
tp1033
a(S'either'
p1034
S'either'
p1035
S'CC'
p1036
g5
g5
tp1037
a(S'treatment.'
p1038
S'treatment.'
p1039
S'NN'
p1040
S'B-NP'
p1041
g5
tp1042
a(S'However'
p1043
S'However'
p1044
S'RB'
p1045
S'B-ADVP'
p1046
g5
tp1047
a(g231
g231
g231
g5
g5
tp1048
a(S'the'
p1049
S'the'
p1050
S'DT'
p1051
S'B-NP'
p1052
g5
tp1053
a(S'median'
p1054
S'median'
p1055
S'JJ'
p1056
S'I-NP'
p1057
g5
tp1058
a(S'time'
p1059
S'time'
p1060
S'NN'
p1061
S'I-NP'
p1062
g5
tp1063
a(S'to'
p1064
S'to'
p1065
S'TO'
p1066
S'B-PP'
p1067
g5
tp1068
a(S'the'
p1069
S'the'
p1070
S'DT'
p1071
S'B-NP'
p1072
g5
tp1073
a(S'recurrence'
p1074
S'recurrence'
p1075
S'NN'
p1076
S'I-NP'
p1077
g5
tp1078
a(S'of'
p1079
S'of'
p1080
S'IN'
p1081
S'B-PP'
p1082
g5
tp1083
a(S'ascites'
p1084
S'ascite'
p1085
S'NNS'
p1086
S'B-NP'
p1087
g5
tp1088
a(S'in'
p1089
S'in'
p1090
S'IN'
p1091
S'B-PP'
p1092
g5
tp1093
a(S'Group'
p1094
S'Group'
p1095
S'NN'
p1096
S'B-NP'
p1097
g5
tp1098
a(g416
g416
S'CD'
p1099
S'I-NP'
p1100
g5
tp1101
a(S'was'
p1102
S'be'
p1103
S'VBD'
p1104
S'B-VP'
p1105
g5
tp1106
a(S'4'
p1107
g1107
S'CD'
p1108
S'B-NP'
p1109
g5
tp1110
a(S'months'
p1111
S'month'
p1112
S'NNS'
p1113
S'I-NP'
p1114
g5
tp1115
a(S'in'
p1116
S'in'
p1117
S'IN'
p1118
S'B-PP'
p1119
g5
tp1120
a(S'medical'
p1121
S'medical'
p1122
S'JJ'
p1123
S'B-NP'
p1124
g5
tp1125
a(S'patients'
p1126
S'patient'
p1127
S'NNS'
p1128
S'I-NP'
p1129
g5
tp1130
a(g231
g231
g231
g5
g5
tp1131
a(S'as'
p1132
S'as'
p1133
S'IN'
p1134
S'B-SBAR'
p1135
g5
tp1136
a(S'compared'
p1137
S'compare'
p1138
S'VBN'
p1139
S'B-PP'
p1140
g5
tp1141
a(S'with'
p1142
S'with'
p1143
S'IN'
p1144
S'B-PP'
p1145
g5
tp1146
a(S'18'
p1147
S'18'
p1148
S'CD'
p1149
S'B-NP'
p1150
g5
tp1151
a(S'months'
p1152
S'month'
p1153
S'NNS'
p1154
S'I-NP'
p1155
g5
tp1156
a(S'in'
p1157
S'in'
p1158
S'IN'
p1159
S'B-PP'
p1160
g5
tp1161
a(S'surgical'
p1162
S'surgical'
p1163
S'JJ'
p1164
S'B-NP'
p1165
g5
tp1166
a(S'patients'
p1167
S'patient'
p1168
S'NNS'
p1169
S'I-NP'
p1170
g5
tp1171
a(g370
g370
g370
g5
g5
tp1172
a(g747
g747
S'NN'
p1173
S'B-NP'
p1174
g5
tp1175
a(S'='
p1176
g1176
S'SYM'
p1177
S'B-VP'
p1178
g5
tp1179
a(S'0.01'
p1180
S'0.01'
p1181
S'CD'
p1182
S'B-NP'
p1183
g5
tp1184
a(g377
g377
g377
g5
g5
tp1185
a(S';'
p1186
g1186
g409
g5
g5
tp1187
a(S'in'
p1188
S'in'
p1189
S'IN'
p1190
S'B-PP'
p1191
g5
tp1192
a(S'Group'
p1193
S'Group'
p1194
S'NN'
p1195
S'B-NP'
p1196
g5
tp1197
a(g471
g471
S'CD'
p1198
S'I-NP'
p1199
g5
tp1200
a(S'it'
p1201
S'it'
p1202
S'PRP'
p1203
S'B-NP'
p1204
g5
tp1205
a(S'was'
p1206
S'be'
p1207
S'VBD'
p1208
S'B-VP'
p1209
g5
tp1210
a(g525
g525
S'CD'
p1211
S'B-NP'
p1212
g5
tp1213
a(S'months'
p1214
S'month'
p1215
S'NNS'
p1216
S'I-NP'
p1217
g5
tp1218
a(S'in'
p1219
S'in'
p1220
S'IN'
p1221
S'B-PP'
p1222
g5
tp1223
a(S'medical'
p1224
S'medical'
p1225
S'JJ'
p1226
S'B-NP'
p1227
g5
tp1228
a(S'patients'
p1229
S'patient'
p1230
S'NNS'
p1231
S'I-NP'
p1232
g5
tp1233
a(S'as'
p1234
S'as'
p1235
S'IN'
p1236
S'B-PP'
p1237
g5
tp1238
a(S'compared'
p1239
S'compare'
p1240
S'VBN'
p1241
S'B-PP'
p1242
g5
tp1243
a(S'with'
p1244
S'with'
p1245
S'IN'
p1246
S'B-PP'
p1247
g5
tp1248
a(S'12'
p1249
S'12'
p1250
S'CD'
p1251
S'B-NP'
p1252
g5
tp1253
a(S'months'
p1254
S'month'
p1255
S'NNS'
p1256
S'I-NP'
p1257
g5
tp1258
a(S'in'
p1259
S'in'
p1260
S'IN'
p1261
S'B-PP'
p1262
g5
tp1263
a(S'surgical'
p1264
S'surgical'
p1265
S'JJ'
p1266
S'B-NP'
p1267
g5
tp1268
a(S'patients'
p1269
S'patient'
p1270
S'NNS'
p1271
S'I-NP'
p1272
g5
tp1273
a(g370
g370
g370
g5
g5
tp1274
a(g747
g747
S'NN'
p1275
S'B-NP'
p1276
g5
tp1277
a(g1176
g1176
S'SYM'
p1278
S'B-VP'
p1279
g5
tp1280
a(S'0.04'
p1281
S'0.04'
p1282
S'CD'
p1283
S'B-NP'
p1284
g5
tp1285
a(g377
g377
g377
g5
g5
tp1286
a(g131
g131
g131
g5
g5
tp1287
a(S'The'
p1288
S'The'
p1289
S'DT'
p1290
S'B-NP'
p1291
g5
tp1292
a(S'median'
p1293
S'median'
p1294
S'JJ'
p1295
S'I-NP'
p1296
g5
tp1297
a(S'duration'
p1298
S'duration'
p1299
S'NN'
p1300
S'I-NP'
p1301
g5
tp1302
a(S'of'
p1303
S'of'
p1304
S'IN'
p1305
S'B-PP'
p1306
g5
tp1307
a(S'hospitalization'
p1308
S'hospitalization'
p1309
S'NN'
p1310
S'B-NP'
p1311
g5
tp1312
a(S'was'
p1313
S'be'
p1314
S'VBD'
p1315
S'B-VP'
p1316
g5
tp1317
a(S'longer'
p1318
S'longer'
p1319
S'RBR'
p1320
S'B-ADVP'
p1321
g5
tp1322
a(S'in'
p1323
S'in'
p1324
S'IN'
p1325
S'B-PP'
p1326
g5
tp1327
a(S'medical'
p1328
S'medical'
p1329
S'JJ'
p1330
S'B-NP'
p1331
g5
tp1332
a(S'patients'
p1333
S'patient'
p1334
S'NNS'
p1335
S'I-NP'
p1336
g5
tp1337
a(S'than'
p1338
S'than'
p1339
S'IN'
p1340
S'B-PP'
p1341
g5
tp1342
a(S'in'
p1343
S'in'
p1344
S'IN'
p1345
S'B-PP'
p1346
g5
tp1347
a(S'surgical'
p1348
S'surgical'
p1349
S'JJ'
p1350
S'B-NP'
p1351
g5
tp1352
a(S'patients'
p1353
S'patient'
p1354
S'NNS'
p1355
S'I-NP'
p1356
g5
tp1357
a(g370
g370
g370
g5
g5
tp1358
a(S'6.1'
p1359
S'6.1'
p1360
S'CD'
p1361
S'B-NP'
p1362
g5
tp1363
a(S'vs.'
p1364
S'vs.'
p1365
S'IN'
p1366
S'B-PP'
p1367
g5
tp1368
a(S'2.4'
p1369
S'2.4'
p1370
S'CD'
p1371
S'B-NP'
p1372
g5
tp1373
a(S'weeks'
p1374
S'week'
p1375
S'NNS'
p1376
S'I-NP'
p1377
g5
tp1378
a(S'in'
p1379
S'in'
p1380
S'IN'
p1381
S'B-PP'
p1382
g5
tp1383
a(S'Group'
p1384
S'Group'
p1385
S'NN'
p1386
S'B-NP'
p1387
g5
tp1388
a(g416
g416
S'CD'
p1389
S'I-NP'
p1390
g5
tp1391
a(S'['
p1392
g1392
g370
g5
g5
tp1393
a(g747
g747
S'NN'
p1394
S'B-NP'
p1395
g5
tp1396
a(S'less'
p1397
S'less'
p1398
S'JJR'
p1399
S'B-ADJP'
p1400
g5
tp1401
a(S'than'
p1402
S'than'
p1403
S'IN'
p1404
S'B-PP'
p1405
g5
tp1406
a(S'0.001'
p1407
S'0.001'
p1408
S'CD'
p1409
S'B-NP'
p1410
g5
tp1411
a(S']'
p1412
g1412
g377
g5
g5
tp1413
a(S'and'
p1414
S'and'
p1415
S'CC'
p1416
g5
g5
tp1417
a(S'5.0'
p1418
S'5.0'
p1419
S'CD'
p1420
S'B-NP'
p1421
g5
tp1422
a(S'vs.'
p1423
S'vs.'
p1424
S'IN'
p1425
S'B-PP'
p1426
g5
tp1427
a(S'3.1'
p1428
S'3.1'
p1429
S'CD'
p1430
S'B-NP'
p1431
g5
tp1432
a(S'weeks'
p1433
S'week'
p1434
S'NNS'
p1435
S'I-NP'
p1436
g5
tp1437
a(S'in'
p1438
S'in'
p1439
S'IN'
p1440
S'B-PP'
p1441
g5
tp1442
a(S'Group'
p1443
S'Group'
p1444
S'NN'
p1445
S'B-NP'
p1446
g5
tp1447
a(g471
g471
S'CD'
p1448
S'I-NP'
p1449
g5
tp1450
a(g1392
g1392
g370
g5
g5
tp1451
a(g747
g747
S'NN'
p1452
S'B-NP'
p1453
g5
tp1454
a(S'less'
p1455
S'less'
p1456
S'JJR'
p1457
S'B-ADJP'
p1458
g5
tp1459
a(S'than'
p1460
S'than'
p1461
S'IN'
p1462
S'B-PP'
p1463
g5
tp1464
a(S'0.01'
p1465
S'0.01'
p1466
S'CD'
p1467
S'B-NP'
p1468
g5
tp1469
a(g1412
g1412
g377
g5
g5
tp1470
a(g377
g377
g377
g5
g5
tp1471
a(g131
g131
g131
g5
g5
tp1472
a(S'Group'
p1473
S'Group'
p1474
S'NN'
p1475
S'B-NP'
p1476
S'B-protein'
p1477
tp1478
a(g525
g525
S'CD'
p1479
S'I-NP'
p1480
S'I-protein'
p1481
tp1482
a(S'was'
p1483
S'be'
p1484
S'VBD'
p1485
S'B-VP'
p1486
g5
tp1487
a(S'too'
p1488
S'too'
p1489
S'RB'
p1490
S'B-ADJP'
p1491
g5
tp1492
a(S'small'
p1493
S'small'
p1494
S'JJ'
p1495
S'I-ADJP'
p1496
g5
tp1497
a(S'to'
p1498
S'to'
p1499
S'TO'
p1500
S'B-VP'
p1501
g5
tp1502
a(S'permit'
p1503
S'permit'
p1504
S'VB'
p1505
S'I-VP'
p1506
g5
tp1507
a(g213
g213
S'DT'
p1508
S'B-NP'
p1509
g5
tp1510
a(S'meaningful'
p1511
S'meaningful'
p1512
S'JJ'
p1513
S'I-NP'
p1514
g5
tp1515
a(S'comparison.'
p1516
S'comparison.'
p1517
S'NN'
p1518
S'I-NP'
p1519
g5
tp1520
a(S'During'
p1521
S'During'
p1522
S'IN'
p1523
S'B-PP'
p1524
g5
tp1525
a(S'the'
p1526
S'the'
p1527
S'DT'
p1528
S'B-NP'
p1529
g5
tp1530
a(S'initial'
p1531
S'initial'
p1532
S'JJ'
p1533
S'I-NP'
p1534
g5
tp1535
a(S'hospitalization'
p1536
S'hospitalization'
p1537
S'NN'
p1538
S'I-NP'
p1539
g5
tp1540
a(g231
g231
g231
g5
g5
tp1541
a(S'the'
p1542
S'the'
p1543
S'DT'
p1544
S'B-NP'
p1545
g5
tp1546
a(S'incidence'
p1547
S'incidence'
p1548
S'NN'
p1549
S'I-NP'
p1550
g5
tp1551
a(S'of'
p1552
S'of'
p1553
S'IN'
p1554
S'B-PP'
p1555
g5
tp1556
a(S'infections'
p1557
S'infection'
p1558
S'NNS'
p1559
S'B-NP'
p1560
g5
tp1561
a(g231
g231
g231
g5
g5
tp1562
a(S'gastrointestinal'
p1563
S'gastrointestinal'
p1564
S'JJ'
p1565
S'B-NP'
p1566
g5
tp1567
a(S'bleeding'
p1568
S'bleeding'
p1569
S'NN'
p1570
S'I-NP'
p1571
g5
tp1572
a(g231
g231
g231
g5
g5
tp1573
a(S'and'
p1574
S'and'
p1575
S'CC'
p1576
g5
g5
tp1577
a(S'encephalopathy'
p1578
S'encephalopathy'
p1579
S'NN'
p1580
S'B-NP'
p1581
g5
tp1582
a(S'was'
p1583
S'be'
p1584
S'VBD'
p1585
S'B-VP'
p1586
g5
tp1587
a(S'similar'
p1588
S'similar'
p1589
S'JJ'
p1590
S'B-ADJP'
p1591
g5
tp1592
a(S'among'
p1593
S'among'
p1594
S'IN'
p1595
S'B-PP'
p1596
g5
tp1597
a(S'the'
p1598
S'the'
p1599
S'DT'
p1600
S'B-NP'
p1601
g5
tp1602
a(S'medical'
p1603
S'medical'
p1604
S'JJ'
p1605
S'I-NP'
p1606
g5
tp1607
a(S'and'
p1608
S'and'
p1609
S'CC'
p1610
S'I-NP'
p1611
g5
tp1612
a(S'surgical'
p1613
S'surgical'
p1614
S'JJ'
p1615
S'I-NP'
p1616
g5
tp1617
a(S'patients.'
p1618
S'patients.'
p1619
S'NNS'
p1620
S'I-NP'
p1621
g5
tp1622
a(S'We'
p1623
S'We'
p1624
S'PRP'
p1625
S'B-NP'
p1626
g5
tp1627
a(S'conclude'
p1628
S'conclude'
p1629
S'VBP'
p1630
S'B-VP'
p1631
g5
tp1632
a(S'that'
p1633
S'that'
p1634
S'IN'
p1635
S'B-SBAR'
p1636
g5
tp1637
a(S'peritoneovenous'
p1638
S'peritoneovenous'
p1639
S'JJ'
p1640
S'B-NP'
p1641
g5
tp1642
a(S'shunting'
p1643
S'shunting'
p1644
S'NN'
p1645
S'I-NP'
p1646
g5
tp1647
a(S'alleviated'
p1648
S'alleviate'
p1649
S'VBN'
p1650
S'B-VP'
p1651
g5
tp1652
a(S'disabling'
p1653
S'disable'
p1654
S'VBG'
p1655
S'B-VP'
p1656
g5
tp1657
a(S'ascites'
p1658
S'ascite'
p1659
S'NNS'
p1660
S'B-NP'
p1661
g5
tp1662
a(S'more'
p1663
S'more'
p1664
S'RBR'
p1665
S'B-ADVP'
p1666
g5
tp1667
a(S'rapidly'
p1668
S'rapidly'
p1669
S'RB'
p1670
S'I-ADVP'
p1671
g5
tp1672
a(S'than'
p1673
S'than'
p1674
S'IN'
p1675
S'B-PP'
p1676
g5
tp1677
a(S'medical'
p1678
S'medical'
p1679
S'JJ'
p1680
S'B-NP'
p1681
g5
tp1682
a(S'management.'
p1683
S'management.'
p1684
S'NN'
p1685
S'I-NP'
p1686
g5
tp1687
a(S'However'
p1688
S'However'
p1689
S'RB'
p1690
S'B-ADVP'
p1691
g5
tp1692
a(g231
g231
g231
g5
g5
tp1693
a(S'survival'
p1694
S'survival'
p1695
S'NN'
p1696
S'B-NP'
p1697
g5
tp1698
a(S'was'
p1699
S'be'
p1700
S'VBD'
p1701
S'B-VP'
p1702
g5
tp1703
a(S'closely'
p1704
S'closely'
p1705
S'RB'
p1706
S'B-ADJP'
p1707
g5
tp1708
a(S'related'
p1709
S'related'
p1710
S'JJ'
p1711
S'I-ADJP'
p1712
g5
tp1713
a(S'to'
p1714
S'to'
p1715
S'TO'
p1716
S'B-PP'
p1717
g5
tp1718
a(S'the'
p1719
S'the'
p1720
S'DT'
p1721
S'B-NP'
p1722
g5
tp1723
a(S'severity'
p1724
S'severity'
p1725
S'NN'
p1726
S'I-NP'
p1727
g5
tp1728
a(S'of'
p1729
S'of'
p1730
S'IN'
p1731
S'B-PP'
p1732
g5
tp1733
a(S'the'
p1734
S'the'
p1735
S'DT'
p1736
S'B-NP'
p1737
g5
tp1738
a(S'illness'
p1739
S'illness'
p1740
S'NN'
p1741
S'I-NP'
p1742
g5
tp1743
a(S'at'
p1744
S'at'
p1745
S'IN'
p1746
S'B-PP'
p1747
g5
tp1748
a(S'the'
p1749
S'the'
p1750
S'DT'
p1751
S'B-NP'
p1752
g5
tp1753
a(S'time'
p1754
S'time'
p1755
S'NN'
p1756
S'I-NP'
p1757
g5
tp1758
a(S'of'
p1759
S'of'
p1760
S'IN'
p1761
S'B-PP'
p1762
g5
tp1763
a(S'randomization'
p1764
S'randomization'
p1765
S'NN'
p1766
S'B-NP'
p1767
g5
tp1768
a(S'and'
p1769
S'and'
p1770
S'CC'
p1771
g5
g5
tp1772
a(S'was'
p1773
S'be'
p1774
S'VBD'
p1775
S'B-VP'
p1776
g5
tp1777
a(S'not'
p1778
S'not'
p1779
S'RB'
p1780
S'I-VP'
p1781
g5
tp1782
a(S'altered'
p1783
S'alter'
p1784
S'VBN'
p1785
S'I-VP'
p1786
g5
tp1787
a(S'by'
p1788
S'by'
p1789
S'IN'
p1790
S'B-PP'
p1791
g5
tp1792
a(S'shunting'
p1793
S'shunt'
p1794
S'VBG'
p1795
S'B-VP'
p1796
g5
tp1797
a(g131
g131
g131
g5
g5
tp1798
a.