(lp0
(S'['
p1
g1
S'('
p2
S'O'
p3
g3
tp4
a(S'Effects'
p5
S'Effect'
p6
S'NNS'
p7
S'B-NP'
p8
g3
tp9
a(S'of'
p10
S'of'
p11
S'IN'
p12
S'B-PP'
p13
g3
tp14
a(S'transcutaneous'
p15
S'transcutaneous'
p16
S'JJ'
p17
S'B-NP'
p18
g3
tp19
a(S'electrical'
p20
S'electrical'
p21
S'JJ'
p22
S'I-NP'
p23
g3
tp24
a(S'stimulation'
p25
S'stimulation'
p26
S'NN'
p27
S'I-NP'
p28
g3
tp29
a(S'of'
p30
S'of'
p31
S'IN'
p32
S'B-PP'
p33
g3
tp34
a(S'auricular'
p35
S'auricular'
p36
S'JJ'
p37
S'B-NP'
p38
g3
tp39
a(S'Shenmen'
p40
S'Shenmen'
p41
S'NN'
p42
S'I-NP'
p43
g3
tp44
a(S'point'
p45
S'point'
p46
S'NN'
p47
S'I-NP'
p48
g3
tp49
a(S'on'
p50
S'on'
p51
S'IN'
p52
S'B-PP'
p53
g3
tp54
a(S'postoperative'
p55
S'postoperative'
p56
S'JJ'
p57
S'B-NP'
p58
g3
tp59
a(S'nausea'
p60
S'nausea'
p61
S'NN'
p62
S'I-NP'
p63
g3
tp64
a(S'and'
p65
S'and'
p66
S'CC'
p67
S'I-NP'
p68
g3
tp69
a(S'vomiting'
p70
S'vomiting'
p71
S'NN'
p72
S'I-NP'
p73
g3
tp74
a(S'and'
p75
S'and'
p76
S'CC'
p77
g3
g3
tp78
a(S'patient-controlled'
p79
S'patient-controlled'
p80
S'JJ'
p81
S'B-NP'
p82
g3
tp83
a(S'epidural'
p84
S'epidural'
p85
S'JJ'
p86
S'I-NP'
p87
g3
tp88
a(S'analgesia'
p89
S'analgesia'
p90
S'NN'
p91
S'I-NP'
p92
g3
tp93
a(S'in'
p94
S'in'
p95
S'IN'
p96
S'B-PP'
p97
g3
tp98
a(S'cesarean'
p99
S'cesarean'
p100
S'JJ'
p101
S'B-NP'
p102
g3
tp103
a(S'section'
p104
S'section'
p105
S'NN'
p106
S'I-NP'
p107
g3
tp108
a(S']'
p109
g109
S')'
p110
g3
g3
tp111
a(S'.'
p112
g112
g112
g3
g3
tp113
a(S'OBJECTIVE'
p114
S'OBJECTIVE'
p115
S'NN'
p116
S'B-NP'
p117
g3
tp118
a(S'To'
p119
S'To'
p120
S'TO'
p121
S'B-VP'
p122
g3
tp123
a(S'investigate'
p124
S'investigate'
p125
S'VB'
p126
S'I-VP'
p127
g3
tp128
a(S'the'
p129
S'the'
p130
S'DT'
p131
S'B-NP'
p132
g3
tp133
a(S'effects'
p134
S'effect'
p135
S'NNS'
p136
S'I-NP'
p137
g3
tp138
a(S'of'
p139
S'of'
p140
S'IN'
p141
S'B-PP'
p142
g3
tp143
a(S'transcutaneous'
p144
S'transcutaneous'
p145
S'JJ'
p146
S'B-NP'
p147
g3
tp148
a(S'electrical'
p149
S'electrical'
p150
S'JJ'
p151
S'I-NP'
p152
g3
tp153
a(S'stimulation'
p154
S'stimulation'
p155
S'NN'
p156
S'I-NP'
p157
g3
tp158
a(S'of'
p159
S'of'
p160
S'IN'
p161
S'B-PP'
p162
g3
tp163
a(S'auricular'
p164
S'auricular'
p165
S'JJ'
p166
S'B-NP'
p167
g3
tp168
a(S'Shenmen'
p169
S'Shenmen'
p170
S'NN'
p171
S'I-NP'
p172
g3
tp173
a(S'point'
p174
S'point'
p175
S'NN'
p176
S'I-NP'
p177
g3
tp178
a(S'on'
p179
S'on'
p180
S'IN'
p181
S'B-PP'
p182
g3
tp183
a(S'postoperative'
p184
S'postoperative'
p185
S'JJ'
p186
S'B-NP'
p187
g3
tp188
a(S'nausea'
p189
S'nausea'
p190
S'NN'
p191
S'I-NP'
p192
g3
tp193
a(S'and'
p194
S'and'
p195
S'CC'
p196
S'I-NP'
p197
g3
tp198
a(S'vomiting'
p199
S'vomiting'
p200
S'NN'
p201
S'I-NP'
p202
g3
tp203
a(S'and'
p204
S'and'
p205
S'CC'
p206
g3
g3
tp207
a(S'patient-controlled'
p208
S'patient-controlled'
p209
S'JJ'
p210
S'B-NP'
p211
g3
tp212
a(S'epidural'
p213
S'epidural'
p214
S'JJ'
p215
S'I-NP'
p216
g3
tp217
a(S'analgesia'
p218
S'analgesia'
p219
S'NN'
p220
S'I-NP'
p221
g3
tp222
a(S'in'
p223
S'in'
p224
S'IN'
p225
S'B-PP'
p226
g3
tp227
a(S'cesarean'
p228
S'cesarean'
p229
S'JJ'
p230
S'B-NP'
p231
g3
tp232
a(S'section'
p233
S'section'
p234
S'NN'
p235
S'I-NP'
p236
g3
tp237
a(g112
g112
g112
g3
g3
tp238
a(S'METHODS'
p239
S'METHODS'
p240
S'NNS'
p241
S'B-NP'
p242
g3
tp243
a(S'After'
p244
S'After'
p245
S'IN'
p246
S'B-PP'
p247
g3
tp248
a(S'IRB'
p249
S'IRB'
p250
S'NN'
p251
S'B-NP'
p252
S'B-protein'
p253
tp254
a(S'approval'
p255
S'approval'
p256
S'NN'
p257
S'I-NP'
p258
g3
tp259
a(S'and'
p260
S'and'
p261
S'CC'
p262
g3
g3
tp263
a(S'informed'
p264
S'inform'
p265
S'VBN'
p266
S'B-NP'
p267
g3
tp268
a(S'consent'
p269
S'consent'
p270
S'NN'
p271
S'I-NP'
p272
g3
tp273
a(S','
p274
g274
g274
g3
g3
tp275
a(S'one'
p276
S'one'
p277
S'CD'
p278
S'B-NP'
p279
g3
tp280
a(S'hundred'
p281
S'hundred'
p282
S'CD'
p283
S'I-NP'
p284
g3
tp285
a(S'and'
p286
S'and'
p287
S'CC'
p288
S'I-NP'
p289
g3
tp290
a(S'eighty'
p291
S'eighty'
p292
S'CD'
p293
S'I-NP'
p294
g3
tp295
a(S'singleton'
p296
S'singleton'
p297
S'JJ'
p298
S'I-NP'
p299
g3
tp300
a(S'primiparas'
p301
S'primipara'
p302
S'NNS'
p303
S'I-NP'
p304
g3
tp305
a(S'undergoing'
p306
S'undergo'
p307
S'VBG'
p308
S'B-VP'
p309
g3
tp310
a(S'elective'
p311
S'elective'
p312
S'JJ'
p313
S'B-NP'
p314
g3
tp315
a(S'cesarean'
p316
S'cesarean'
p317
S'JJ'
p318
S'I-NP'
p319
g3
tp320
a(S'section'
p321
S'section'
p322
S'NN'
p323
S'I-NP'
p324
g3
tp325
a(g274
g274
g274
g3
g3
tp326
a(S'in'
p327
S'in'
p328
S'IN'
p329
S'B-PP'
p330
g3
tp331
a(S'Qingdao'
p332
S'Qingdao'
p333
S'NNP'
p334
S'B-NP'
p335
g3
tp336
a(S'Municipal'
p337
S'Municipal'
p338
S'NNP'
p339
S'I-NP'
p340
g3
tp341
a(S'Hospital'
p342
S'Hospital'
p343
S'NNP'
p344
S'I-NP'
p345
g3
tp346
a(g274
g274
g274
g3
g3
tp347
a(S'and'
p348
S'and'
p349
S'CC'
p350
g3
g3
tp351
a(S'Qingdao'
p352
S'Qingdao'
p353
S'NNP'
p354
S'B-NP'
p355
g3
tp356
a(S'Hiser'
p357
S'Hiser'
p358
S'NNP'
p359
S'I-NP'
p360
g3
tp361
a(S'Medical'
p362
S'Medical'
p363
S'NNP'
p364
S'I-NP'
p365
g3
tp366
a(S'Center'
p367
S'Center'
p368
S'NNP'
p369
S'I-NP'
p370
g3
tp371
a(g274
g274
g274
g3
g3
tp372
a(S'from'
p373
S'from'
p374
S'IN'
p375
S'B-PP'
p376
g3
tp377
a(S'November'
p378
S'November'
p379
S'NNP'
p380
S'B-NP'
p381
g3
tp382
a(S'2011'
p383
S'2011'
p384
S'CD'
p385
S'I-NP'
p386
g3
tp387
a(S'to'
p388
S'to'
p389
S'TO'
p390
S'B-PP'
p391
g3
tp392
a(S'March'
p393
S'March'
p394
S'NNP'
p395
S'B-NP'
p396
g3
tp397
a(S'2012'
p398
S'2012'
p399
S'CD'
p400
S'I-NP'
p401
g3
tp402
a(g274
g274
g274
g3
g3
tp403
a(S'were'
p404
S'be'
p405
S'VBD'
p406
S'B-VP'
p407
g3
tp408
a(S'randomly'
p409
S'randomly'
p410
S'RB'
p411
S'I-VP'
p412
g3
tp413
a(S'assigned'
p414
S'assign'
p415
S'VBN'
p416
S'I-VP'
p417
g3
tp418
a(S'to'
p419
S'to'
p420
S'TO'
p421
S'B-PP'
p422
g3
tp423
a(S'three'
p424
S'three'
p425
S'CD'
p426
S'B-NP'
p427
g3
tp428
a(S'groups'
p429
S'group'
p430
S'NNS'
p431
S'I-NP'
p432
g3
tp433
a(S':'
p434
g434
g434
g3
g3
tp435
a(S'transcutaneous'
p436
S'transcutaneous'
p437
S'JJ'
p438
S'B-NP'
p439
g3
tp440
a(S'electrical'
p441
S'electrical'
p442
S'JJ'
p443
S'I-NP'
p444
g3
tp445
a(S'stimulation'
p446
S'stimulation'
p447
S'NN'
p448
S'I-NP'
p449
g3
tp450
a(S'of'
p451
S'of'
p452
S'IN'
p453
S'B-PP'
p454
g3
tp455
a(S'auricular'
p456
S'auricular'
p457
S'JJ'
p458
S'B-NP'
p459
g3
tp460
a(S'Shenmen'
p461
S'Shenmen'
p462
S'NN'
p463
S'I-NP'
p464
g3
tp465
a(S'point'
p466
S'point'
p467
S'NN'
p468
S'I-NP'
p469
g3
tp470
a(S'group'
p471
S'group'
p472
S'NN'
p473
S'I-NP'
p474
g3
tp475
a(g2
g2
g2
g3
g3
tp476
a(S'group'
p477
S'group'
p478
S'NN'
p479
S'B-NP'
p480
g3
tp481
a(S'A'
p482
g482
S'NN'
p483
S'I-NP'
p484
g3
tp485
a(g274
g274
g274
g3
g3
tp486
a(S'n'
p487
g487
S'NN'
p488
S'B-NP'
p489
g3
tp490
a(S'='
p491
g491
S'SYM'
p492
S'B-VP'
p493
g3
tp494
a(S'60'
p495
S'60'
p496
S'CD'
p497
S'B-NP'
p498
g3
tp499
a(g110
g110
g110
g3
g3
tp500
a(g274
g274
g274
g3
g3
tp501
a(S'transcutaneous'
p502
S'transcutaneous'
p503
S'JJ'
p504
S'B-NP'
p505
g3
tp506
a(S'electrical'
p507
S'electrical'
p508
S'JJ'
p509
S'I-NP'
p510
g3
tp511
a(S'stimulation'
p512
S'stimulation'
p513
S'NN'
p514
S'I-NP'
p515
g3
tp516
a(S'of'
p517
S'of'
p518
S'IN'
p519
S'B-PP'
p520
g3
tp521
a(S'auricular'
p522
S'auricular'
p523
S'JJ'
p524
S'B-NP'
p525
g3
tp526
a(S'Eye'
p527
S'Eye'
p528
S'NN'
p529
S'I-NP'
p530
g3
tp531
a(S'point'
p532
S'point'
p533
S'NN'
p534
S'I-NP'
p535
g3
tp536
a(S'group'
p537
S'group'
p538
S'NN'
p539
S'I-NP'
p540
g3
tp541
a(g2
g2
g2
g3
g3
tp542
a(S'group'
p543
S'group'
p544
S'NN'
p545
S'B-NP'
p546
g3
tp547
a(S'B'
p548
g548
S'NN'
p549
S'I-NP'
p550
g3
tp551
a(g274
g274
g274
g3
g3
tp552
a(g487
g487
S'NN'
p553
S'B-NP'
p554
g3
tp555
a(g491
g491
S'SYM'
p556
S'B-VP'
p557
g3
tp558
a(S'60'
p559
S'60'
p560
S'CD'
p561
S'B-NP'
p562
g3
tp563
a(g110
g110
g110
g3
g3
tp564
a(S'and'
p565
S'and'
p566
S'CC'
p567
g3
g3
tp568
a(S'control'
p569
S'control'
p570
S'NN'
p571
S'B-NP'
p572
g3
tp573
a(S'group'
p574
S'group'
p575
S'NN'
p576
S'I-NP'
p577
g3
tp578
a(g2
g2
g2
g3
g3
tp579
a(S'group'
p580
S'group'
p581
S'NN'
p582
S'B-NP'
p583
g3
tp584
a(S'C'
p585
g585
S'NN'
p586
S'I-NP'
p587
g3
tp588
a(g274
g274
g274
g3
g3
tp589
a(g487
g487
S'NN'
p590
S'B-NP'
p591
g3
tp592
a(g491
g491
S'SYM'
p593
S'B-VP'
p594
g3
tp595
a(S'60'
p596
S'60'
p597
S'CD'
p598
S'B-NP'
p599
g3
tp600
a(g110
g110
g110
g3
g3
tp601
a(g112
g112
g112
g3
g3
tp602
a(S'Women'
p603
S'Woman'
p604
S'NNS'
p605
S'B-NP'
p606
g3
tp607
a(S'of'
p608
S'of'
p609
S'IN'
p610
S'B-PP'
p611
g3
tp612
a(S'group'
p613
S'group'
p614
S'NN'
p615
S'B-NP'
p616
g3
tp617
a(g482
g482
S'NN'
p618
S'I-NP'
p619
g3
tp620
a(S'received'
p621
S'receive'
p622
S'VBD'
p623
S'B-VP'
p624
g3
tp625
a(S'transcutaneous'
p626
S'transcutaneous'
p627
S'JJ'
p628
S'B-NP'
p629
g3
tp630
a(S'electrical'
p631
S'electrical'
p632
S'JJ'
p633
S'I-NP'
p634
g3
tp635
a(S'stimulation'
p636
S'stimulation'
p637
S'NN'
p638
S'I-NP'
p639
g3
tp640
a(S'of'
p641
S'of'
p642
S'IN'
p643
S'B-PP'
p644
g3
tp645
a(S'auricular'
p646
S'auricular'
p647
S'JJ'
p648
S'B-NP'
p649
g3
tp650
a(S'Shenmen'
p651
S'Shenmen'
p652
S'NN'
p653
S'I-NP'
p654
g3
tp655
a(S'point'
p656
S'point'
p657
S'NN'
p658
S'I-NP'
p659
g3
tp660
a(g2
g2
g2
g3
g3
tp661
a(S'frequency'
p662
S'frequency'
p663
S'NN'
p664
S'B-NP'
p665
g3
tp666
a(S'1.5'
p667
S'1.5'
p668
S'CD'
p669
S'I-NP'
p670
g3
tp671
a(S'HZ'
p672
S'HZ'
p673
S'NN'
p674
S'I-NP'
p675
g3
tp676
a(g110
g110
g110
g3
g3
tp677
a(S'at'
p678
S'at'
p679
S'IN'
p680
S'B-PP'
p681
g3
tp682
a(S'the'
p683
S'the'
p684
S'DT'
p685
S'B-NP'
p686
g3
tp687
a(S'time'
p688
S'time'
p689
S'NN'
p690
S'I-NP'
p691
g3
tp692
a(S'of'
p693
S'of'
p694
S'IN'
p695
S'B-PP'
p696
g3
tp697
a(S'preoperation'
p698
S'preoperation'
p699
S'NN'
p700
S'B-NP'
p701
g3
tp702
a(g274
g274
g274
g3
g3
tp703
a(S'4'
p704
g704
S'CD'
p705
S'B-NP'
p706
g3
tp707
a(g274
g274
g274
S'I-NP'
p708
g3
tp709
a(S'10'
p710
S'10'
p711
S'CD'
p712
S'I-NP'
p713
g3
tp714
a(S'and'
p715
S'and'
p716
S'CC'
p717
S'I-NP'
p718
g3
tp719
a(S'22'
p720
S'22'
p721
S'CD'
p722
S'I-NP'
p723
g3
tp724
a(S'hours'
p725
S'hour'
p726
S'NNS'
p727
S'I-NP'
p728
g3
tp729
a(S'of'
p730
S'of'
p731
S'IN'
p732
S'B-PP'
p733
g3
tp734
a(S'postoperation'
p735
S'postoperation'
p736
S'NN'
p737
S'B-NP'
p738
g3
tp739
a(S'for'
p740
S'for'
p741
S'IN'
p742
S'B-PP'
p743
g3
tp744
a(S'30'
p745
S'30'
p746
S'CD'
p747
S'B-NP'
p748
g3
tp749
a(S'minutes.'
p750
S'minutes.'
p751
S'NNS'
p752
S'I-NP'
p753
g3
tp754
a(S'The'
p755
S'The'
p756
S'DT'
p757
S'B-NP'
p758
g3
tp759
a(S'strength'
p760
S'strength'
p761
S'NN'
p762
S'I-NP'
p763
g3
tp764
a(S'was'
p765
S'be'
p766
S'VBD'
p767
S'B-VP'
p768
g3
tp769
a(S'controlled'
p770
S'control'
p771
S'VBN'
p772
S'I-VP'
p773
g3
tp774
a(S'by'
p775
S'by'
p776
S'IN'
p777
S'B-PP'
p778
g3
tp779
a(S'themselves.'
p780
S'themselves.'
p781
S'NN'
p782
S'B-NP'
p783
g3
tp784
a(S'Women'
p785
S'Woman'
p786
S'NNS'
p787
S'I-NP'
p788
g3
tp789
a(S'of'
p790
S'of'
p791
S'IN'
p792
S'B-PP'
p793
g3
tp794
a(S'group'
p795
S'group'
p796
S'NN'
p797
S'B-NP'
p798
g3
tp799
a(g548
g548
S'NN'
p800
S'I-NP'
p801
g3
tp802
a(S'received'
p803
S'receive'
p804
S'VBD'
p805
S'B-VP'
p806
g3
tp807
a(S'stimulation'
p808
S'stimulation'
p809
S'NN'
p810
S'B-NP'
p811
g3
tp812
a(S'of'
p813
S'of'
p814
S'IN'
p815
S'B-PP'
p816
g3
tp817
a(S'auricular'
p818
S'auricular'
p819
S'JJ'
p820
S'B-NP'
p821
g3
tp822
a(S'Eye'
p823
S'Eye'
p824
S'NN'
p825
S'I-NP'
p826
g3
tp827
a(S'point'
p828
S'point'
p829
S'NN'
p830
S'I-NP'
p831
g3
tp832
a(S'as'
p833
S'as'
p834
S'IN'
p835
S'B-PP'
p836
g3
tp837
a(S'group'
p838
S'group'
p839
S'NN'
p840
S'B-NP'
p841
g3
tp842
a(S'A.'
p843
S'A.'
p844
S'NN'
p845
S'I-NP'
p846
g3
tp847
a(S'Women'
p848
S'Woman'
p849
S'NNS'
p850
S'I-NP'
p851
g3
tp852
a(S'of'
p853
S'of'
p854
S'IN'
p855
S'B-PP'
p856
g3
tp857
a(S'group'
p858
S'group'
p859
S'NN'
p860
S'B-NP'
p861
g3
tp862
a(g585
g585
S'NN'
p863
S'I-NP'
p864
g3
tp865
a(S'received'
p866
S'receive'
p867
S'VBD'
p868
S'B-VP'
p869
g3
tp870
a(S'pressurization'
p871
S'pressurization'
p872
S'NN'
p873
S'B-NP'
p874
g3
tp875
a(S'and'
p876
S'and'
p877
S'CC'
p878
g3
g3
tp879
a(S'connected'
p880
S'connect'
p881
S'VBN'
p882
S'B-NP'
p883
g3
tp884
a(S'line'
p885
S'line'
p886
S'NN'
p887
S'I-NP'
p888
g3
tp889
a(S'were'
p890
S'be'
p891
S'VBD'
p892
S'B-VP'
p893
g3
tp894
a(S'the'
p895
S'the'
p896
S'DT'
p897
S'B-NP'
p898
g3
tp899
a(S'same'
p900
S'same'
p901
S'JJ'
p902
S'I-NP'
p903
g3
tp904
a(S'with'
p905
S'with'
p906
S'IN'
p907
S'B-PP'
p908
g3
tp909
a(S'group'
p910
S'group'
p911
S'NN'
p912
S'B-NP'
p913
g3
tp914
a(g482
g482
S'NN'
p915
S'I-NP'
p916
g3
tp917
a(g274
g274
g274
g3
g3
tp918
a(S'but'
p919
S'but'
p920
S'CC'
p921
g3
g3
tp922
a(S'without'
p923
S'without'
p924
S'IN'
p925
S'B-PP'
p926
g3
tp927
a(S'electrical'
p928
S'electrical'
p929
S'JJ'
p930
S'B-NP'
p931
g3
tp932
a(S'stimulation.'
p933
S'stimulation.'
p934
S'NN'
p935
S'I-NP'
p936
g3
tp937
a(S'The'
p938
S'The'
p939
S'DT'
p940
S'B-NP'
p941
g3
tp942
a(S'following'
p943
S'follow'
p944
S'VBG'
p945
S'I-NP'
p946
g3
tp947
a(S'indexes'
p948
S'index'
p949
S'NNS'
p950
S'I-NP'
p951
g3
tp952
a(S'was'
p953
S'be'
p954
S'VBD'
p955
S'B-VP'
p956
g3
tp957
a(S'observed'
p958
S'observe'
p959
S'VBN'
p960
S'I-VP'
p961
g3
tp962
a(g434
g434
g434
g3
g3
tp963
a(S'the'
p964
S'the'
p965
S'DT'
p966
S'B-NP'
p967
g3
tp968
a(S'incidence'
p969
S'incidence'
p970
S'NN'
p971
S'I-NP'
p972
g3
tp973
a(S'of'
p974
S'of'
p975
S'IN'
p976
S'B-PP'
p977
g3
tp978
a(S'postoperative'
p979
S'postoperative'
p980
S'JJ'
p981
S'B-NP'
p982
g3
tp983
a(S'nausea'
p984
S'nausea'
p985
S'NN'
p986
S'I-NP'
p987
g3
tp988
a(S'and'
p989
S'and'
p990
S'CC'
p991
g3
g3
tp992
a(S'vomiting'
p993
S'vomiting'
p994
S'NN'
p995
S'B-NP'
p996
g3
tp997
a(g2
g2
g2
g3
g3
tp998
a(S'PONV'
p999
S'PONV'
p1000
S'NN'
p1001
S'B-NP'
p1002
g3
tp1003
a(g110
g110
g110
g3
g3
tp1004
a(S'for'
p1005
S'for'
p1006
S'IN'
p1007
S'B-PP'
p1008
g3
tp1009
a(S'48'
p1010
S'48'
p1011
S'CD'
p1012
S'B-NP'
p1013
g3
tp1014
a(S'hours'
p1015
S'hour'
p1016
S'NNS'
p1017
S'I-NP'
p1018
g3
tp1019
a(S';'
p1020
g1020
g434
g3
g3
tp1021
a(S'the'
p1022
S'the'
p1023
S'DT'
p1024
S'B-NP'
p1025
g3
tp1026
a(S'rate'
p1027
S'rate'
p1028
S'NN'
p1029
S'I-NP'
p1030
g3
tp1031
a(S'of'
p1032
S'of'
p1033
S'IN'
p1034
S'B-PP'
p1035
g3
tp1036
a(S'metoclopramide'
p1037
S'metoclopramide'
p1038
S'NN'
p1039
S'B-NP'
p1040
g3
tp1041
a(g1020
g1020
g434
g3
g3
tp1042
a(S'the'
p1043
S'the'
p1044
S'DT'
p1045
S'B-NP'
p1046
g3
tp1047
a(S'visual'
p1048
S'visual'
p1049
S'JJ'
p1050
S'I-NP'
p1051
g3
tp1052
a(S'analogue'
p1053
S'analogue'
p1054
S'NN'
p1055
S'I-NP'
p1056
g3
tp1057
a(S'scale'
p1058
S'scale'
p1059
S'NN'
p1060
S'I-NP'
p1061
g3
tp1062
a(g2
g2
g2
g3
g3
tp1063
a(S'VAS'
p1064
S'VAS'
p1065
S'NN'
p1066
S'B-NP'
p1067
g3
tp1068
a(g110
g110
g110
g3
g3
tp1069
a(S'score'
p1070
S'score'
p1071
S'NN'
p1072
S'B-NP'
p1073
g3
tp1074
a(S'of'
p1075
S'of'
p1076
S'IN'
p1077
S'B-PP'
p1078
g3
tp1079
a(S'rest'
p1080
S'rest'
p1081
S'NN'
p1082
S'B-NP'
p1083
g3
tp1084
a(S'pain'
p1085
S'pain'
p1086
S'NN'
p1087
S'I-NP'
p1088
g3
tp1089
a(g274
g274
g274
g3
g3
tp1090
a(S'uterine'
p1091
S'uterine'
p1092
S'JJ'
p1093
S'B-NP'
p1094
g3
tp1095
a(S'contration'
p1096
S'contration'
p1097
S'NN'
p1098
S'I-NP'
p1099
g3
tp1100
a(S'pain'
p1101
S'pain'
p1102
S'NN'
p1103
S'I-NP'
p1104
g3
tp1105
a(S'and'
p1106
S'and'
p1107
S'CC'
p1108
g3
g3
tp1109
a(S'dynamic'
p1110
S'dynamic'
p1111
S'JJ'
p1112
S'B-NP'
p1113
g3
tp1114
a(S'pain'
p1115
S'pain'
p1116
S'NN'
p1117
S'I-NP'
p1118
g3
tp1119
a(S'at'
p1120
S'at'
p1121
S'IN'
p1122
S'B-PP'
p1123
g3
tp1124
a(S'the'
p1125
S'the'
p1126
S'DT'
p1127
S'B-NP'
p1128
g3
tp1129
a(S'time'
p1130
S'time'
p1131
S'NN'
p1132
S'I-NP'
p1133
g3
tp1134
a(S'of'
p1135
S'of'
p1136
S'IN'
p1137
S'B-PP'
p1138
g3
tp1139
a(S'postoperation'
p1140
S'postoperation'
p1141
S'NN'
p1142
S'B-NP'
p1143
g3
tp1144
a(S'for'
p1145
S'for'
p1146
S'IN'
p1147
S'B-PP'
p1148
g3
tp1149
a(S'6'
p1150
g1150
S'CD'
p1151
S'B-NP'
p1152
g3
tp1153
a(g274
g274
g274
S'I-NP'
p1154
g3
tp1155
a(S'12'
p1156
S'12'
p1157
S'CD'
p1158
S'I-NP'
p1159
g3
tp1160
a(g274
g274
g274
S'I-NP'
p1161
g3
tp1162
a(S'24'
p1163
S'24'
p1164
S'CD'
p1165
S'I-NP'
p1166
g3
tp1167
a(S'and'
p1168
S'and'
p1169
S'CC'
p1170
S'I-NP'
p1171
g3
tp1172
a(S'48'
p1173
S'48'
p1174
S'CD'
p1175
S'I-NP'
p1176
g3
tp1177
a(S'hours'
p1178
S'hour'
p1179
S'NNS'
p1180
S'I-NP'
p1181
g3
tp1182
a(g2
g2
g2
g3
g3
tp1183
a(S'T'
p1184
g1184
S'NN'
p1185
S'B-NP'
p1186
g3
tp1187
a(g2
g2
g2
g3
g3
tp1188
a(S'1'
p1189
g1189
S'CD'
p1190
S'B-NP'
p1191
g3
tp1192
a(g110
g110
g110
g3
g3
tp1193
a(S'-T'
p1194
S'-T'
p1195
S'NN'
p1196
S'B-NP'
p1197
g3
tp1198
a(g2
g2
g2
g3
g3
tp1199
a(g704
g704
S'CD'
p1200
S'B-NP'
p1201
g3
tp1202
a(g110
g110
g110
g3
g3
tp1203
a(g110
g110
g110
g3
g3
tp1204
a(g1020
g1020
g434
g3
g3
tp1205
a(S'the'
p1206
S'the'
p1207
S'DT'
p1208
S'B-NP'
p1209
g3
tp1210
a(S'total'
p1211
S'total'
p1212
S'JJ'
p1213
S'I-NP'
p1214
g3
tp1215
a(S'number'
p1216
S'number'
p1217
S'NN'
p1218
S'I-NP'
p1219
g3
tp1220
a(S'and'
p1221
S'and'
p1222
S'CC'
p1223
g3
g3
tp1224
a(S'effective'
p1225
S'effective'
p1226
S'JJ'
p1227
S'B-NP'
p1228
g3
tp1229
a(S'compressions'
p1230
S'compression'
p1231
S'NNS'
p1232
S'I-NP'
p1233
g3
tp1234
a(S'number'
p1235
S'number'
p1236
S'NN'
p1237
S'I-NP'
p1238
g3
tp1239
a(S'of'
p1240
S'of'
p1241
S'IN'
p1242
S'B-PP'
p1243
g3
tp1244
a(S'patient-controlled'
p1245
S'patient-controlled'
p1246
S'JJ'
p1247
S'B-NP'
p1248
g3
tp1249
a(S'epidural'
p1250
S'epidural'
p1251
S'JJ'
p1252
S'I-NP'
p1253
g3
tp1254
a(S'analgesia'
p1255
S'analgesia'
p1256
S'NN'
p1257
S'I-NP'
p1258
g3
tp1259
a(g2
g2
g2
g3
g3
tp1260
a(S'PCEA'
p1261
S'PCEA'
p1262
S'NN'
p1263
S'B-NP'
p1264
g3
tp1265
a(g110
g110
g110
g3
g3
tp1266
a(g1020
g1020
g434
g3
g3
tp1267
a(S'the'
p1268
S'the'
p1269
S'DT'
p1270
S'B-NP'
p1271
g3
tp1272
a(S'dose'
p1273
S'dose'
p1274
S'NN'
p1275
S'I-NP'
p1276
g3
tp1277
a(S'of'
p1278
S'of'
p1279
S'IN'
p1280
S'B-PP'
p1281
g3
tp1282
a(S'analgesia'
p1283
S'analgesia'
p1284
S'NN'
p1285
S'B-NP'
p1286
g3
tp1287
a(S'mixture'
p1288
S'mixture'
p1289
S'NN'
p1290
S'I-NP'
p1291
g3
tp1292
a(g1020
g1020
g434
g3
g3
tp1293
a(S'the'
p1294
S'the'
p1295
S'DT'
p1296
S'B-NP'
p1297
g3
tp1298
a(S'anal'
p1299
S'anal'
p1300
S'JJ'
p1301
S'I-NP'
p1302
g3
tp1303
a(S'exhaust'
p1304
S'exhaust'
p1305
S'NN'
p1306
S'I-NP'
p1307
g3
tp1308
a(S'time'
p1309
S'time'
p1310
S'NN'
p1311
S'I-NP'
p1312
g3
tp1313
a(g1020
g1020
g434
g3
g3
tp1314
a(S'the'
p1315
S'the'
p1316
S'DT'
p1317
S'B-NP'
p1318
g3
tp1319
a(S'volume'
p1320
S'volume'
p1321
S'NN'
p1322
S'I-NP'
p1323
g3
tp1324
a(S'of'
p1325
S'of'
p1326
S'IN'
p1327
S'B-PP'
p1328
g3
tp1329
a(S'postoperative'
p1330
S'postoperative'
p1331
S'JJ'
p1332
S'B-NP'
p1333
g3
tp1334
a(S'bleeding'
p1335
S'bleeding'
p1336
S'NN'
p1337
S'I-NP'
p1338
g3
tp1339
a(S'for'
p1340
S'for'
p1341
S'IN'
p1342
S'B-PP'
p1343
g3
tp1344
a(g1150
g1150
S'CD'
p1345
S'B-NP'
p1346
g3
tp1347
a(S'hours'
p1348
S'hour'
p1349
S'NNS'
p1350
S'I-NP'
p1351
g3
tp1352
a(S'of'
p1353
S'of'
p1354
S'IN'
p1355
S'B-PP'
p1356
g3
tp1357
a(S'postoperation'
p1358
S'postoperation'
p1359
S'NN'
p1360
S'B-NP'
p1361
g3
tp1362
a(S'and'
p1363
S'and'
p1364
S'CC'
p1365
g3
g3
tp1366
a(S'the'
p1367
S'the'
p1368
S'DT'
p1369
S'B-NP'
p1370
g3
tp1371
a(S'other'
p1372
S'other'
p1373
S'JJ'
p1374
S'I-NP'
p1375
g3
tp1376
a(S'side'
p1377
S'side'
p1378
S'NN'
p1379
S'I-NP'
p1380
g3
tp1381
a(S'effects'
p1382
S'effect'
p1383
S'NNS'
p1384
S'I-NP'
p1385
g3
tp1386
a(g112
g112
g112
g3
g3
tp1387
a(S'RESULTS'
p1388
S'RESULTS'
p1389
S'NNS'
p1390
S'B-NP'
p1391
g3
tp1392
a(S'Compared'
p1393
S'Compare'
p1394
S'VBN'
p1395
S'B-VP'
p1396
g3
tp1397
a(S'with'
p1398
S'with'
p1399
S'IN'
p1400
S'B-PP'
p1401
g3
tp1402
a(S'group'
p1403
S'group'
p1404
S'NN'
p1405
S'B-NP'
p1406
g3
tp1407
a(g548
g548
S'NN'
p1408
S'I-NP'
p1409
g3
tp1410
a(S'and'
p1411
S'and'
p1412
S'CC'
p1413
S'I-NP'
p1414
g3
tp1415
a(S'group'
p1416
S'group'
p1417
S'NN'
p1418
S'I-NP'
p1419
g3
tp1420
a(g585
g585
S'NN'
p1421
S'I-NP'
p1422
g3
tp1423
a(g274
g274
g274
g3
g3
tp1424
a(S'the'
p1425
S'the'
p1426
S'DT'
p1427
S'B-NP'
p1428
g3
tp1429
a(S'incidence'
p1430
S'incidence'
p1431
S'NN'
p1432
S'I-NP'
p1433
g3
tp1434
a(S'of'
p1435
S'of'
p1436
S'IN'
p1437
S'B-PP'
p1438
g3
tp1439
a(S'PONV'
p1440
S'PONV'
p1441
S'NN'
p1442
S'B-NP'
p1443
S'B-protein'
p1444
tp1445
a(g274
g274
g274
g3
g3
tp1446
a(S'the'
p1447
S'the'
p1448
S'DT'
p1449
S'B-NP'
p1450
g3
tp1451
a(S'rate'
p1452
S'rate'
p1453
S'NN'
p1454
S'I-NP'
p1455
g3
tp1456
a(S'of'
p1457
S'of'
p1458
S'IN'
p1459
S'B-PP'
p1460
g3
tp1461
a(S'metoclopramide'
p1462
S'metoclopramide'
p1463
S'NN'
p1464
S'B-NP'
p1465
g3
tp1466
a(g274
g274
g274
g3
g3
tp1467
a(S'the'
p1468
S'the'
p1469
S'DT'
p1470
S'B-NP'
p1471
g3
tp1472
a(S'VAS'
p1473
S'VAS'
p1474
S'NNP'
p1475
S'I-NP'
p1476
g3
tp1477
a(S'score'
p1478
S'score'
p1479
S'NN'
p1480
S'I-NP'
p1481
g3
tp1482
a(S'at'
p1483
S'at'
p1484
S'IN'
p1485
S'B-PP'
p1486
g3
tp1487
a(S'the'
p1488
S'the'
p1489
S'DT'
p1490
S'B-NP'
p1491
g3
tp1492
a(S'time'
p1493
S'time'
p1494
S'NN'
p1495
S'I-NP'
p1496
g3
tp1497
a(g1184
g1184
S'NN'
p1498
S'I-NP'
p1499
g3
tp1500
a(g2
g2
g2
g3
g3
tp1501
a(g1189
g1189
S'CD'
p1502
S'B-NP'
p1503
g3
tp1504
a(g110
g110
g110
g3
g3
tp1505
a(S'-T'
p1506
S'-T'
p1507
S'NN'
p1508
S'B-NP'
p1509
g3
tp1510
a(g2
g2
g2
g3
g3
tp1511
a(g704
g704
S'CD'
p1512
S'B-NP'
p1513
g3
tp1514
a(g110
g110
g110
g3
g3
tp1515
a(g274
g274
g274
g3
g3
tp1516
a(S'the'
p1517
S'the'
p1518
S'DT'
p1519
S'B-NP'
p1520
g3
tp1521
a(S'total'
p1522
S'total'
p1523
S'JJ'
p1524
S'I-NP'
p1525
g3
tp1526
a(S'number'
p1527
S'number'
p1528
S'NN'
p1529
S'I-NP'
p1530
g3
tp1531
a(S'and'
p1532
S'and'
p1533
S'CC'
p1534
g3
g3
tp1535
a(S'effective'
p1536
S'effective'
p1537
S'JJ'
p1538
S'B-NP'
p1539
g3
tp1540
a(S'compressions'
p1541
S'compression'
p1542
S'NNS'
p1543
S'I-NP'
p1544
g3
tp1545
a(S'number'
p1546
S'number'
p1547
S'NN'
p1548
S'I-NP'
p1549
g3
tp1550
a(S'of'
p1551
S'of'
p1552
S'IN'
p1553
S'B-PP'
p1554
g3
tp1555
a(S'PCEA'
p1556
S'PCEA'
p1557
S'NN'
p1558
S'B-NP'
p1559
S'B-protein'
p1560
tp1561
a(g274
g274
g274
g3
g3
tp1562
a(S'the'
p1563
S'the'
p1564
S'DT'
p1565
S'B-NP'
p1566
g3
tp1567
a(S'ratio'
p1568
S'ratio'
p1569
S'NN'
p1570
S'I-NP'
p1571
g3
tp1572
a(S'of'
p1573
S'of'
p1574
S'IN'
p1575
S'B-PP'
p1576
g3
tp1577
a(S'the'
p1578
S'the'
p1579
S'DT'
p1580
S'B-NP'
p1581
g3
tp1582
a(S'total'
p1583
S'total'
p1584
S'JJ'
p1585
S'I-NP'
p1586
g3
tp1587
a(S'number'
p1588
S'number'
p1589
S'NN'
p1590
S'I-NP'
p1591
g3
tp1592
a(S'with'
p1593
S'with'
p1594
S'IN'
p1595
S'B-PP'
p1596
g3
tp1597
a(S'effective'
p1598
S'effective'
p1599
S'JJ'
p1600
S'B-NP'
p1601
g3
tp1602
a(S'compressions'
p1603
S'compression'
p1604
S'NNS'
p1605
S'I-NP'
p1606
g3
tp1607
a(S'number'
p1608
S'number'
p1609
S'NN'
p1610
S'I-NP'
p1611
g3
tp1612
a(S'and'
p1613
S'and'
p1614
S'CC'
p1615
g3
g3
tp1616
a(S'the'
p1617
S'the'
p1618
S'DT'
p1619
S'B-NP'
p1620
g3
tp1621
a(S'dose'
p1622
S'dose'
p1623
S'NN'
p1624
S'I-NP'
p1625
g3
tp1626
a(S'of'
p1627
S'of'
p1628
S'IN'
p1629
S'B-PP'
p1630
g3
tp1631
a(S'analgesia'
p1632
S'analgesia'
p1633
S'NN'
p1634
S'B-NP'
p1635
g3
tp1636
a(S'mixture'
p1637
S'mixture'
p1638
S'NN'
p1639
S'I-NP'
p1640
g3
tp1641
a(S'were'
p1642
S'be'
p1643
S'VBD'
p1644
S'B-VP'
p1645
g3
tp1646
a(S'decreased'
p1647
S'decrease'
p1648
S'VBN'
p1649
S'I-VP'
p1650
g3
tp1651
a(S'in'
p1652
S'in'
p1653
S'IN'
p1654
S'B-PP'
p1655
g3
tp1656
a(S'group'
p1657
S'group'
p1658
S'NN'
p1659
S'B-NP'
p1660
g3
tp1661
a(g482
g482
S'NN'
p1662
S'I-NP'
p1663
g3
tp1664
a(g2
g2
g2
g3
g3
tp1665
a(S'P'
p1666
g1666
S'NN'
p1667
S'B-NP'
p1668
g3
tp1669
a(S'<'
p1670
g1670
S'SYM'
p1671
g3
g3
tp1672
a(S'0.05'
p1673
S'0.05'
p1674
S'CD'
p1675
S'B-NP'
p1676
g3
tp1677
a(g110
g110
g110
g3
g3
tp1678
a(g274
g274
g274
g3
g3
tp1679
a(S'but'
p1680
S'but'
p1681
S'CC'
p1682
g3
g3
tp1683
a(S'no'
p1684
S'no'
p1685
S'DT'
p1686
S'B-NP'
p1687
g3
tp1688
a(S'difference'
p1689
S'difference'
p1690
S'NN'
p1691
S'I-NP'
p1692
g3
tp1693
a(S'compared'
p1694
S'compare'
p1695
S'VBD'
p1696
S'B-VP'
p1697
g3
tp1698
a(S'group'
p1699
S'group'
p1700
S'NN'
p1701
S'B-NP'
p1702
g3
tp1703
a(g548
g548
S'NN'
p1704
S'I-NP'
p1705
g3
tp1706
a(S'with'
p1707
S'with'
p1708
S'IN'
p1709
S'B-PP'
p1710
g3
tp1711
a(S'group'
p1712
S'group'
p1713
S'NN'
p1714
S'B-NP'
p1715
g3
tp1716
a(g585
g585
S'NN'
p1717
S'I-NP'
p1718
g3
tp1719
a(g2
g2
g2
g3
g3
tp1720
a(g1666
g1666
S'NN'
p1721
S'B-NP'
p1722
g3
tp1723
a(S'>'
p1724
g1724
S'JJR'
p1725
S'B-NP'
p1726
g3
tp1727
a(S'0.05'
p1728
S'0.05'
p1729
S'CD'
p1730
S'I-NP'
p1731
g3
tp1732
a(g110
g110
g110
g3
g3
tp1733
a(g112
g112
g112
g3
g3
tp1734
a(S'The'
p1735
S'The'
p1736
S'DT'
p1737
S'B-NP'
p1738
g3
tp1739
a(S'anal'
p1740
S'anal'
p1741
S'JJ'
p1742
S'I-NP'
p1743
g3
tp1744
a(S'exhaust'
p1745
S'exhaust'
p1746
S'NN'
p1747
S'I-NP'
p1748
g3
tp1749
a(S'time'
p1750
S'time'
p1751
S'NN'
p1752
S'I-NP'
p1753
g3
tp1754
a(S'and'
p1755
S'and'
p1756
S'CC'
p1757
g3
g3
tp1758
a(S'the'
p1759
S'the'
p1760
S'DT'
p1761
S'B-NP'
p1762
g3
tp1763
a(S'volume'
p1764
S'volume'
p1765
S'NN'
p1766
S'I-NP'
p1767
g3
tp1768
a(S'of'
p1769
S'of'
p1770
S'IN'
p1771
S'B-PP'
p1772
g3
tp1773
a(S'postoperative'
p1774
S'postoperative'
p1775
S'JJ'
p1776
S'B-NP'
p1777
g3
tp1778
a(S'bleeding'
p1779
S'bleeding'
p1780
S'NN'
p1781
S'I-NP'
p1782
g3
tp1783
a(S'for'
p1784
S'for'
p1785
S'IN'
p1786
S'B-PP'
p1787
g3
tp1788
a(g1150
g1150
S'CD'
p1789
S'B-NP'
p1790
g3
tp1791
a(S'hours'
p1792
S'hour'
p1793
S'NNS'
p1794
S'I-NP'
p1795
g3
tp1796
a(S'of'
p1797
S'of'
p1798
S'IN'
p1799
S'B-PP'
p1800
g3
tp1801
a(S'postoperation'
p1802
S'postoperation'
p1803
S'NN'
p1804
S'B-NP'
p1805
g3
tp1806
a(S'were'
p1807
S'be'
p1808
S'VBD'
p1809
S'B-VP'
p1810
g3
tp1811
a(S'no'
p1812
S'no'
p1813
S'DT'
p1814
S'B-NP'
p1815
g3
tp1816
a(S'difference'
p1817
S'difference'
p1818
S'NN'
p1819
S'I-NP'
p1820
g3
tp1821
a(S'in'
p1822
S'in'
p1823
S'IN'
p1824
S'B-PP'
p1825
g3
tp1826
a(S'the'
p1827
S'the'
p1828
S'DT'
p1829
S'B-NP'
p1830
g3
tp1831
a(S'three'
p1832
S'three'
p1833
S'CD'
p1834
S'I-NP'
p1835
g3
tp1836
a(S'groups'
p1837
S'group'
p1838
S'NNS'
p1839
S'I-NP'
p1840
g3
tp1841
a(g2
g2
g2
g3
g3
tp1842
a(g1666
g1666
S'NN'
p1843
S'B-NP'
p1844
g3
tp1845
a(g1724
g1724
S'JJR'
p1846
S'B-NP'
p1847
g3
tp1848
a(S'0.05'
p1849
S'0.05'
p1850
S'CD'
p1851
S'I-NP'
p1852
g3
tp1853
a(g110
g110
g110
g3
g3
tp1854
a(g112
g112
g112
g3
g3
tp1855
a(S'No'
p1856
S'No'
p1857
S'DT'
p1858
S'B-NP'
p1859
g3
tp1860
a(S'other'
p1861
S'other'
p1862
S'JJ'
p1863
S'I-NP'
p1864
g3
tp1865
a(S'side'
p1866
S'side'
p1867
S'NN'
p1868
S'I-NP'
p1869
g3
tp1870
a(S'effects'
p1871
S'effect'
p1872
S'NNS'
p1873
S'I-NP'
p1874
g3
tp1875
a(S'were'
p1876
S'be'
p1877
S'VBD'
p1878
S'B-VP'
p1879
g3
tp1880
a(S'observed'
p1881
S'observe'
p1882
S'VBN'
p1883
S'I-VP'
p1884
g3
tp1885
a(g112
g112
g112
g3
g3
tp1886
a(S'CONCLUSION'
p1887
S'CONCLUSION'
p1888
S'NN'
p1889
S'B-NP'
p1890
g3
tp1891
a(S'Transcutaneous'
p1892
S'Transcutaneous'
p1893
S'JJ'
p1894
S'I-NP'
p1895
g3
tp1896
a(S'electrical'
p1897
S'electrical'
p1898
S'JJ'
p1899
S'I-NP'
p1900
g3
tp1901
a(S'stimulation'
p1902
S'stimulation'
p1903
S'NN'
p1904
S'I-NP'
p1905
g3
tp1906
a(S'of'
p1907
S'of'
p1908
S'IN'
p1909
S'B-PP'
p1910
g3
tp1911
a(S'auricular'
p1912
S'auricular'
p1913
S'JJ'
p1914
S'B-NP'
p1915
g3
tp1916
a(S'Shenmen'
p1917
S'Shenmen'
p1918
S'NN'
p1919
S'I-NP'
p1920
g3
tp1921
a(S'point'
p1922
S'point'
p1923
S'NN'
p1924
S'I-NP'
p1925
g3
tp1926
a(S'can'
p1927
S'can'
p1928
S'MD'
p1929
S'B-VP'
p1930
g3
tp1931
a(S'reduce'
p1932
S'reduce'
p1933
S'VB'
p1934
S'I-VP'
p1935
g3
tp1936
a(S'the'
p1937
S'the'
p1938
S'DT'
p1939
S'B-NP'
p1940
g3
tp1941
a(S'incidence'
p1942
S'incidence'
p1943
S'NN'
p1944
S'I-NP'
p1945
g3
tp1946
a(S'of'
p1947
S'of'
p1948
S'IN'
p1949
S'B-PP'
p1950
g3
tp1951
a(S'PONV'
p1952
S'PONV'
p1953
S'NN'
p1954
S'B-NP'
p1955
S'B-protein'
p1956
tp1957
a(S'and'
p1958
S'and'
p1959
S'CC'
p1960
g3
g3
tp1961
a(S'improves'
p1962
S'improve'
p1963
S'VBZ'
p1964
S'B-VP'
p1965
g3
tp1966
a(S'analgesia'
p1967
S'analgesia'
p1968
S'NN'
p1969
S'B-NP'
p1970
g3
tp1971
a(S'effect'
p1972
S'effect'
p1973
S'NN'
p1974
S'I-NP'
p1975
g3
tp1976
a(S'of'
p1977
S'of'
p1978
S'IN'
p1979
S'B-PP'
p1980
g3
tp1981
a(S'PCEA'
p1982
S'PCEA'
p1983
S'NN'
p1984
S'B-NP'
p1985
S'B-protein'
p1986
tp1987
a(S'in'
p1988
S'in'
p1989
S'IN'
p1990
S'B-PP'
p1991
g3
tp1992
a(S'postoperation'
p1993
S'postoperation'
p1994
S'NN'
p1995
S'B-NP'
p1996
g3
tp1997
a(S'of'
p1998
S'of'
p1999
S'IN'
p2000
S'B-PP'
p2001
g3
tp2002
a(S'cesarean'
p2003
S'cesarean'
p2004
S'JJ'
p2005
S'B-NP'
p2006
g3
tp2007
a(S'section'
p2008
S'section'
p2009
S'NN'
p2010
S'I-NP'
p2011
g3
tp2012
a(g112
g112
g112
g3
g3
tp2013
a.