(lp0
(S'The'
p1
S'The'
p2
S'DT'
p3
S'B-NP'
p4
S'O'
p5
tp6
a(S'gluten-free'
p7
S'gluten-free'
p8
S'JJ'
p9
S'I-NP'
p10
g5
tp11
a(S','
p12
g12
g12
S'I-NP'
p13
g5
tp14
a(S'casein-free'
p15
S'casein-free'
p16
S'JJ'
p17
S'I-NP'
p18
g5
tp19
a(S'diet'
p20
S'diet'
p21
S'NN'
p22
S'I-NP'
p23
g5
tp24
a(S'in'
p25
S'in'
p26
S'IN'
p27
S'B-PP'
p28
g5
tp29
a(S'autism'
p30
S'autism'
p31
S'NN'
p32
S'B-NP'
p33
g5
tp34
a(S':'
p35
g35
g35
g5
g5
tp36
a(S'results'
p37
S'result'
p38
S'NNS'
p39
S'B-NP'
p40
g5
tp41
a(S'of'
p42
S'of'
p43
S'IN'
p44
S'B-PP'
p45
g5
tp46
a(S'a'
p47
g47
S'DT'
p48
S'B-NP'
p49
g5
tp50
a(S'preliminary'
p51
S'preliminary'
p52
S'JJ'
p53
S'I-NP'
p54
g5
tp55
a(S'double'
p56
S'double'
p57
S'JJ'
p58
S'I-NP'
p59
g5
tp60
a(S'blind'
p61
S'blind'
p62
S'JJ'
p63
S'I-NP'
p64
g5
tp65
a(S'clinical'
p66
S'clinical'
p67
S'JJ'
p68
S'I-NP'
p69
g5
tp70
a(S'trial'
p71
S'trial'
p72
S'NN'
p73
S'I-NP'
p74
g5
tp75
a(S'.'
p76
g76
g76
g5
g5
tp77
a(S'This'
p78
S'This'
p79
S'DT'
p80
S'B-NP'
p81
g5
tp82
a(S'study'
p83
S'study'
p84
S'NN'
p85
S'I-NP'
p86
g5
tp87
a(S'tested'
p88
S'test'
p89
S'VBD'
p90
S'B-VP'
p91
g5
tp92
a(S'the'
p93
S'the'
p94
S'DT'
p95
S'B-NP'
p96
g5
tp97
a(S'efficacy'
p98
S'efficacy'
p99
S'NN'
p100
S'I-NP'
p101
g5
tp102
a(S'of'
p103
S'of'
p104
S'IN'
p105
S'B-PP'
p106
g5
tp107
a(g47
g47
S'DT'
p108
S'B-NP'
p109
g5
tp110
a(S'gluten-free'
p111
S'gluten-free'
p112
S'JJ'
p113
S'I-NP'
p114
g5
tp115
a(S'and'
p116
S'and'
p117
S'CC'
p118
S'I-NP'
p119
g5
tp120
a(S'casein-free'
p121
S'casein-free'
p122
S'JJ'
p123
S'I-NP'
p124
g5
tp125
a(S'('
p126
g126
g126
g5
g5
tp127
a(S'GFCF'
p128
S'GFCF'
p129
S'NN'
p130
S'B-NP'
p131
S'B-protein'
p132
tp133
a(S')'
p134
g134
g134
g5
g5
tp135
a(S'diet'
p136
S'diet'
p137
S'NN'
p138
S'B-NP'
p139
g5
tp140
a(S'in'
p141
S'in'
p142
S'IN'
p143
S'B-PP'
p144
g5
tp145
a(S'treating'
p146
S'treat'
p147
S'VBG'
p148
S'B-VP'
p149
g5
tp150
a(S'autism'
p151
S'autism'
p152
S'NN'
p153
S'B-NP'
p154
g5
tp155
a(S'using'
p156
S'use'
p157
S'VBG'
p158
S'B-VP'
p159
g5
tp160
a(g47
g47
S'DT'
p161
S'B-NP'
p162
g5
tp163
a(S'randomized'
p164
S'randomize'
p165
S'VBN'
p166
S'I-NP'
p167
g5
tp168
a(g12
g12
g12
S'I-NP'
p169
g5
tp170
a(S'double'
p171
S'double'
p172
S'JJ'
p173
S'I-NP'
p174
g5
tp175
a(S'blind'
p176
S'blind'
p177
S'JJ'
p178
S'I-NP'
p179
g5
tp180
a(S'repeated'
p181
S'repeated'
p182
S'JJ'
p183
S'I-NP'
p184
g5
tp185
a(S'measures'
p186
S'measure'
p187
S'NNS'
p188
S'I-NP'
p189
g5
tp190
a(S'crossover'
p191
S'crossover'
p192
S'VBP'
p193
S'B-VP'
p194
g5
tp195
a(S'design.'
p196
S'design.'
p197
S'FW'
p198
S'B-PP'
p199
g5
tp200
a(S'The'
p201
S'The'
p202
S'DT'
p203
S'B-NP'
p204
g5
tp205
a(S'sample'
p206
S'sample'
p207
S'NN'
p208
S'I-NP'
p209
S'B-protein'
p210
tp211
a(S'included'
p212
S'include'
p213
S'VBD'
p214
S'B-VP'
p215
S'I-protein'
p216
tp217
a(S'15'
p218
S'15'
p219
S'CD'
p220
S'B-NP'
p221
S'I-protein'
p222
tp223
a(S'children'
p224
S'child'
p225
S'NNS'
p226
S'I-NP'
p227
S'I-protein'
p228
tp229
a(S'aged'
p230
S'age'
p231
S'VBN'
p232
S'B-VP'
p233
S'I-protein'
p234
tp235
a(S'2-16'
p236
S'2-16'
p237
S'CD'
p238
S'B-NP'
p239
S'I-protein'
p240
tp241
a(S'years'
p242
S'year'
p243
S'NNS'
p244
S'I-NP'
p245
S'I-protein'
p246
tp247
a(S'with'
p248
S'with'
p249
S'IN'
p250
S'B-PP'
p251
g5
tp252
a(S'autism'
p253
S'autism'
p254
S'NN'
p255
S'B-NP'
p256
g5
tp257
a(S'spectrum'
p258
S'spectrum'
p259
S'NN'
p260
S'I-NP'
p261
g5
tp262
a(S'disorder.'
p263
S'disorder.'
p264
S'NN'
p265
S'I-NP'
p266
g5
tp267
a(S'Data'
p268
S'Data'
p269
S'NNP'
p270
S'I-NP'
p271
g5
tp272
a(S'on'
p273
S'on'
p274
S'IN'
p275
S'B-PP'
p276
g5
tp277
a(S'autistic'
p278
S'autistic'
p279
S'JJ'
p280
S'B-NP'
p281
g5
tp282
a(S'symptoms'
p283
S'symptom'
p284
S'NNS'
p285
S'I-NP'
p286
g5
tp287
a(S'and'
p288
S'and'
p289
S'CC'
p290
g5
g5
tp291
a(S'urinary'
p292
S'urinary'
p293
S'JJ'
p294
S'B-NP'
p295
g5
tp296
a(S'peptide'
p297
S'peptide'
p298
S'NN'
p299
S'I-NP'
p300
g5
tp301
a(S'levels'
p302
S'level'
p303
S'NNS'
p304
S'I-NP'
p305
g5
tp306
a(S'were'
p307
S'be'
p308
S'VBD'
p309
S'B-VP'
p310
g5
tp311
a(S'collected'
p312
S'collect'
p313
S'VBN'
p314
S'I-VP'
p315
g5
tp316
a(S'in'
p317
S'in'
p318
S'IN'
p319
S'B-PP'
p320
g5
tp321
a(S'the'
p322
S'the'
p323
S'DT'
p324
S'B-NP'
p325
g5
tp326
a(S'subjects'
p327
S'subject'
p328
S'NNS'
p329
S'I-NP'
p330
g5
tp331
a(S"'"
p332
g332
S'POS'
p333
S'B-NP'
p334
g5
tp335
a(S'homes'
p336
S'home'
p337
S'NNS'
p338
S'I-NP'
p339
g5
tp340
a(S'over'
p341
S'over'
p342
S'IN'
p343
S'B-PP'
p344
g5
tp345
a(S'the'
p346
S'the'
p347
S'DT'
p348
S'B-NP'
p349
g5
tp350
a(S'12'
p351
S'12'
p352
S'CD'
p353
S'I-NP'
p354
g5
tp355
a(S'weeks'
p356
S'week'
p357
S'NNS'
p358
S'I-NP'
p359
g5
tp360
a(S'that'
p361
S'that'
p362
S'IN'
p363
S'B-SBAR'
p364
g5
tp365
a(S'they'
p366
S'they'
p367
S'PRP'
p368
S'B-NP'
p369
g5
tp370
a(S'were'
p371
S'be'
p372
S'VBD'
p373
S'B-VP'
p374
g5
tp375
a(S'on'
p376
S'on'
p377
S'IN'
p378
S'B-PP'
p379
g5
tp380
a(S'the'
p381
S'the'
p382
S'DT'
p383
S'B-NP'
p384
g5
tp385
a(S'diet.'
p386
S'diet.'
p387
S'NN'
p388
S'I-NP'
p389
g5
tp390
a(S'Group'
p391
S'Group'
p392
S'NNP'
p393
S'I-NP'
p394
g5
tp395
a(S'data'
p396
S'datum'
p397
S'NNS'
p398
S'I-NP'
p399
g5
tp400
a(S'indicated'
p401
S'indicate'
p402
S'VBD'
p403
S'B-VP'
p404
g5
tp405
a(S'no'
p406
S'no'
p407
S'DT'
p408
S'B-NP'
p409
g5
tp410
a(S'statistically'
p411
S'statistically'
p412
S'RB'
p413
S'I-NP'
p414
g5
tp415
a(S'significant'
p416
S'significant'
p417
S'JJ'
p418
S'I-NP'
p419
g5
tp420
a(S'findings'
p421
S'finding'
p422
S'NNS'
p423
S'I-NP'
p424
g5
tp425
a(S'even'
p426
S'even'
p427
S'RB'
p428
S'B-SBAR'
p429
g5
tp430
a(S'though'
p431
S'though'
p432
S'IN'
p433
S'I-SBAR'
p434
g5
tp435
a(S'several'
p436
S'several'
p437
S'JJ'
p438
S'B-NP'
p439
g5
tp440
a(S'parents'
p441
S'parent'
p442
S'NNS'
p443
S'I-NP'
p444
g5
tp445
a(S'reported'
p446
S'report'
p447
S'VBD'
p448
S'B-VP'
p449
g5
tp450
a(S'improvement'
p451
S'improvement'
p452
S'NN'
p453
S'B-NP'
p454
g5
tp455
a(S'in'
p456
S'in'
p457
S'IN'
p458
S'B-PP'
p459
g5
tp460
a(S'their'
p461
S'their'
p462
S'PRP$'
p463
S'B-NP'
p464
g5
tp465
a(S'children.'
p466
S'children.'
p467
S'NN'
p468
S'I-NP'
p469
g5
tp470
a(S'Although'
p471
S'Although'
p472
S'IN'
p473
S'B-PP'
p474
g5
tp475
a(S'preliminary'
p476
S'preliminary'
p477
S'JJ'
p478
S'B-ADJP'
p479
g5
tp480
a(g12
g12
g12
g5
g5
tp481
a(S'this'
p482
S'this'
p483
S'DT'
p484
S'B-NP'
p485
g5
tp486
a(S'study'
p487
S'study'
p488
S'NN'
p489
S'I-NP'
p490
g5
tp491
a(S'demonstrates'
p492
S'demonstrate'
p493
S'VBZ'
p494
S'B-VP'
p495
g5
tp496
a(S'how'
p497
S'how'
p498
S'WRB'
p499
S'B-ADVP'
p500
g5
tp501
a(g47
g47
S'DT'
p502
S'B-NP'
p503
g5
tp504
a(S'controlled'
p505
S'control'
p506
S'VBN'
p507
S'I-NP'
p508
g5
tp509
a(S'clinical'
p510
S'clinical'
p511
S'JJ'
p512
S'I-NP'
p513
g5
tp514
a(S'trial'
p515
S'trial'
p516
S'NN'
p517
S'I-NP'
p518
g5
tp519
a(S'of'
p520
S'of'
p521
S'IN'
p522
S'B-PP'
p523
g5
tp524
a(S'the'
p525
S'the'
p526
S'DT'
p527
S'B-NP'
p528
g5
tp529
a(S'GFCF'
p530
S'GFCF'
p531
S'NN'
p532
S'I-NP'
p533
g5
tp534
a(S'diet'
p535
S'diet'
p536
S'NN'
p537
S'I-NP'
p538
g5
tp539
a(S'can'
p540
S'can'
p541
S'MD'
p542
S'B-VP'
p543
g5
tp544
a(S'be'
p545
S'be'
p546
S'VB'
p547
S'I-VP'
p548
g5
tp549
a(S'conducted'
p550
S'conduct'
p551
S'VBN'
p552
S'I-VP'
p553
g5
tp554
a(g12
g12
g12
g5
g5
tp555
a(S'and'
p556
S'and'
p557
S'CC'
p558
g5
g5
tp559
a(S'suggests'
p560
S'suggest'
p561
S'VBZ'
p562
S'B-VP'
p563
g5
tp564
a(S'directions'
p565
S'direction'
p566
S'NNS'
p567
S'B-NP'
p568
g5
tp569
a(S'for'
p570
S'for'
p571
S'IN'
p572
S'B-PP'
p573
g5
tp574
a(S'future'
p575
S'future'
p576
S'JJ'
p577
S'B-NP'
p578
g5
tp579
a(S'research'
p580
S'research'
p581
S'NN'
p582
S'I-NP'
p583
g5
tp584
a(g76
g76
g76
g5
g5
tp585
a.