(lp0
(S'Local'
p1
S'Local'
p2
S'JJ'
p3
S'B-NP'
p4
S'O'
p5
tp6
a(S'anaesthetic'
p7
S'anaesthetic'
p8
S'JJ'
p9
S'I-NP'
p10
g5
tp11
a(S'use'
p12
S'use'
p13
S'NN'
p14
S'I-NP'
p15
g5
tp16
a(S'for'
p17
S'for'
p18
S'IN'
p19
S'B-PP'
p20
g5
tp21
a(S'the'
p22
S'the'
p23
S'DT'
p24
S'B-NP'
p25
g5
tp26
a(S'iliac'
p27
S'iliac'
p28
S'JJ'
p29
S'I-NP'
p30
S'B-DNA'
p31
tp32
a(S'crest-donor'
p33
S'crest-donor'
p34
S'NN'
p35
S'I-NP'
p36
S'I-DNA'
p37
tp38
a(S'site'
p39
S'site'
p40
S'NN'
p41
S'I-NP'
p42
S'I-DNA'
p43
tp44
a(S':'
p45
g45
g45
g5
g5
tp46
a(S'pharmacokinetic'
p47
S'pharmacokinetic'
p48
S'JJ'
p49
S'B-NP'
p50
g5
tp51
a(S'and'
p52
S'and'
p53
S'CC'
p54
S'I-NP'
p55
g5
tp56
a(S'pharmacodynamic'
p57
S'pharmacodynamic'
p58
S'JJ'
p59
S'I-NP'
p60
g5
tp61
a(S'evaluations'
p62
S'evaluation'
p63
S'NNS'
p64
S'I-NP'
p65
g5
tp66
a(S'.'
p67
g67
g67
g5
g5
tp68
a(S'During'
p69
S'During'
p70
S'IN'
p71
S'B-PP'
p72
g5
tp73
a(S'orthopaedic'
p74
S'orthopaedic'
p75
S'JJ'
p76
S'B-NP'
p77
g5
tp78
a(S'surgery'
p79
S'surgery'
p80
S'NN'
p81
S'I-NP'
p82
g5
tp83
a(S'of'
p84
S'of'
p85
S'IN'
p86
S'B-PP'
p87
g5
tp88
a(S'the'
p89
S'the'
p90
S'DT'
p91
S'B-NP'
p92
g5
tp93
a(S'limb'
p94
S'limb'
p95
S'NN'
p96
S'I-NP'
p97
g5
tp98
a(S','
p99
g99
g99
g5
g5
tp100
a(S'we'
p101
S'we'
p102
S'PRP'
p103
S'B-NP'
p104
g5
tp105
a(S'performed'
p106
S'perform'
p107
S'VBD'
p108
S'B-VP'
p109
g5
tp110
a(S'a'
p111
g111
S'DT'
p112
S'B-NP'
p113
g5
tp114
a(S'prospective'
p115
S'prospective'
p116
S'JJ'
p117
S'I-NP'
p118
g5
tp119
a(g99
g99
g99
S'I-NP'
p120
g5
tp121
a(S'double'
p122
S'double'
p123
S'JJ'
p124
S'I-NP'
p125
g5
tp126
a(S'blind'
p127
S'blind'
p128
S'JJ'
p129
S'I-NP'
p130
g5
tp131
a(S'controlled'
p132
S'control'
p133
S'VBN'
p134
S'I-NP'
p135
g5
tp136
a(S'study'
p137
S'study'
p138
S'NN'
p139
S'I-NP'
p140
g5
tp141
a(S'on'
p142
S'on'
p143
S'IN'
p144
S'B-PP'
p145
g5
tp146
a(S'three'
p147
S'three'
p148
S'CD'
p149
S'B-NP'
p150
g5
tp151
a(S'parallel'
p152
S'parallel'
p153
S'JJ'
p154
S'I-NP'
p155
g5
tp156
a(S'groups'
p157
S'group'
p158
S'NNS'
p159
S'I-NP'
p160
g5
tp161
a(S'in'
p162
S'in'
p163
S'IN'
p164
S'B-PP'
p165
g5
tp166
a(S'30'
p167
S'30'
p168
S'CD'
p169
S'B-NP'
p170
g5
tp171
a(S'patients'
p172
S'patient'
p173
S'NNS'
p174
S'I-NP'
p175
g5
tp176
a(S'to'
p177
S'to'
p178
S'TO'
p179
S'B-VP'
p180
g5
tp181
a(S'evaluate'
p182
S'evaluate'
p183
S'VB'
p184
S'I-VP'
p185
g5
tp186
a(S'the'
p187
S'the'
p188
S'DT'
p189
S'B-NP'
p190
g5
tp191
a(S'pharmacokinetic'
p192
S'pharmacokinetic'
p193
S'JJ'
p194
S'I-NP'
p195
g5
tp196
a(S'and'
p197
S'and'
p198
S'CC'
p199
S'I-NP'
p200
g5
tp201
a(S'pharmacodynamic'
p202
S'pharmacodynamic'
p203
S'JJ'
p204
S'I-NP'
p205
g5
tp206
a(S'effect'
p207
S'effect'
p208
S'NN'
p209
S'I-NP'
p210
g5
tp211
a(S'of'
p212
S'of'
p213
S'IN'
p214
S'B-PP'
p215
g5
tp216
a(S'infiltration'
p217
S'infiltration'
p218
S'NN'
p219
S'B-NP'
p220
g5
tp221
a(S'of'
p222
S'of'
p223
S'IN'
p224
S'B-PP'
p225
g5
tp226
a(S'the'
p227
S'the'
p228
S'DT'
p229
S'B-NP'
p230
g5
tp231
a(S'iliac'
p232
S'iliac'
p233
S'JJ'
p234
S'I-NP'
p235
S'B-DNA'
p236
tp237
a(S'crest'
p238
S'crest'
p239
S'NN'
p240
S'I-NP'
p241
S'I-DNA'
p242
tp243
a(S'bone'
p244
S'bone'
p245
S'NN'
p246
S'I-NP'
p247
S'I-DNA'
p248
tp249
a(S'graft'
p250
S'graft'
p251
S'NN'
p252
S'I-NP'
p253
S'I-DNA'
p254
tp255
a(S'harvest'
p256
S'harvest'
p257
S'NN'
p258
S'I-NP'
p259
S'I-DNA'
p260
tp261
a(S'site'
p262
S'site'
p263
S'NN'
p264
S'I-NP'
p265
S'I-DNA'
p266
tp267
a(S'with'
p268
S'with'
p269
S'IN'
p270
S'B-PP'
p271
g5
tp272
a(S'20'
p273
S'20'
p274
S'CD'
p275
S'B-NP'
p276
g5
tp277
a(S'ml'
p278
S'ml'
p279
S'NN'
p280
S'I-NP'
p281
g5
tp282
a(S'of'
p283
S'of'
p284
S'IN'
p285
S'B-PP'
p286
g5
tp287
a(S'bupivacaine'
p288
S'bupivacaine'
p289
S'NN'
p290
S'B-NP'
p291
g5
tp292
a(S'('
p293
g293
g293
g5
g5
tp294
a(S'100'
p295
S'100'
p296
S'CD'
p297
S'B-NP'
p298
g5
tp299
a(S'mg'
p300
S'mg'
p301
S'NN'
p302
S'I-NP'
p303
g5
tp304
a(S')'
p305
g305
g305
g5
g5
tp306
a(g99
g99
g99
g5
g5
tp307
a(S'ropivacaine'
p308
S'ropivacaine'
p309
S'NN'
p310
S'B-NP'
p311
g5
tp312
a(g293
g293
g293
g5
g5
tp313
a(S'150'
p314
S'150'
p315
S'CD'
p316
S'B-NP'
p317
g5
tp318
a(S'mg'
p319
S'mg'
p320
S'NN'
p321
S'I-NP'
p322
g5
tp323
a(g305
g305
g305
g5
g5
tp324
a(S'or'
p325
S'or'
p326
S'CC'
p327
g5
g5
tp328
a(S'saline'
p329
S'saline'
p330
S'NN'
p331
S'B-NP'
p332
g5
tp333
a(S'as'
p334
S'as'
p335
S'IN'
p336
S'B-PP'
p337
g5
tp338
a(S'control'
p339
S'control'
p340
S'NN'
p341
S'B-NP'
p342
g5
tp343
a(S'group'
p344
S'group'
p345
S'NN'
p346
S'I-NP'
p347
g5
tp348
a(g293
g293
g293
g5
g5
tp349
a(S'n'
p350
g350
S'NN'
p351
S'B-NP'
p352
g5
tp353
a(S'='
p354
g354
S'SYM'
p355
S'B-VP'
p356
g5
tp357
a(S'10'
p358
S'10'
p359
S'CD'
p360
S'B-NP'
p361
g5
tp362
a(S'in'
p363
S'in'
p364
S'IN'
p365
S'B-PP'
p366
g5
tp367
a(S'each'
p368
S'each'
p369
S'DT'
p370
S'B-NP'
p371
g5
tp372
a(S'group'
p373
S'group'
p374
S'NN'
p375
S'I-NP'
p376
g5
tp377
a(g305
g305
g305
g5
g5
tp378
a(g67
g67
g67
g5
g5
tp379
a(S'Then'
p380
S'Then'
p381
S'RB'
p382
g5
g5
tp383
a(g99
g99
g99
g5
g5
tp384
a(S'in'
p385
S'in'
p386
S'IN'
p387
S'B-PP'
p388
g5
tp389
a(g111
g111
S'DT'
p390
S'B-NP'
p391
g5
tp392
a(S'sheep'
p393
S'sheep'
p394
S'NN'
p395
S'I-NP'
p396
g5
tp397
a(S'model'
p398
S'model'
p399
S'NN'
p400
S'I-NP'
p401
g5
tp402
a(S'of'
p403
S'of'
p404
S'IN'
p405
S'B-PP'
p406
g5
tp407
a(S'iliac'
p408
S'iliac'
p409
S'JJ'
p410
S'B-NP'
p411
g5
tp412
a(S'crest'
p413
S'crest'
p414
S'NN'
p415
S'I-NP'
p416
g5
tp417
a(S'infiltration'
p418
S'infiltration'
p419
S'NN'
p420
S'I-NP'
p421
g5
tp422
a(g99
g99
g99
g5
g5
tp423
a(S'we'
p424
S'we'
p425
S'PRP'
p426
S'B-NP'
p427
g5
tp428
a(S'compared'
p429
S'compare'
p430
S'VBD'
p431
S'B-VP'
p432
g5
tp433
a(S'the'
p434
S'the'
p435
S'DT'
p436
S'B-NP'
p437
g5
tp438
a(S'pharmacokinetics'
p439
S'pharmacokinetic'
p440
S'NNS'
p441
S'I-NP'
p442
g5
tp443
a(S'of'
p444
S'of'
p445
S'IN'
p446
S'B-PP'
p447
g5
tp448
a(S'single'
p449
S'single'
p450
S'JJ'
p451
S'B-NP'
p452
g5
tp453
a(S'administration'
p454
S'administration'
p455
S'NN'
p456
S'I-NP'
p457
g5
tp458
a(S'of'
p459
S'of'
p460
S'IN'
p461
S'B-PP'
p462
g5
tp463
a(S'plain'
p464
S'plain'
p465
S'JJ'
p466
S'B-NP'
p467
g5
tp468
a(S'bupivacaine'
p469
S'bupivacaine'
p470
S'NN'
p471
S'I-NP'
p472
g5
tp473
a(g293
g293
g293
g5
g5
tp474
a(S'100'
p475
S'100'
p476
S'CD'
p477
S'B-NP'
p478
g5
tp479
a(S'mg'
p480
S'mg'
p481
S'NN'
p482
S'I-NP'
p483
g5
tp484
a(g305
g305
g305
g5
g5
tp485
a(S'and'
p486
S'and'
p487
S'CC'
p488
g5
g5
tp489
a(S'bupivacaine'
p490
S'bupivacaine'
p491
S'NN'
p492
S'B-NP'
p493
g5
tp494
a(g293
g293
g293
g5
g5
tp495
a(S'500'
p496
S'500'
p497
S'CD'
p498
S'B-NP'
p499
g5
tp500
a(S'mg'
p501
S'mg'
p502
S'NN'
p503
S'I-NP'
p504
g5
tp505
a(g305
g305
g305
g5
g5
tp506
a(S'-loaded'
p507
S'-loaded'
p508
S'JJ'
p509
S'B-NP'
p510
g5
tp511
a(S'microspheres.'
p512
S'microspheres.'
p513
S'NNS'
p514
S'I-NP'
p515
g5
tp516
a(S'In'
p517
S'In'
p518
S'IN'
p519
S'B-PP'
p520
g5
tp521
a(S'the'
p522
S'the'
p523
S'DT'
p524
S'B-NP'
p525
g5
tp526
a(S'clinical'
p527
S'clinical'
p528
S'JJ'
p529
S'I-NP'
p530
g5
tp531
a(S'control'
p532
S'control'
p533
S'NN'
p534
S'I-NP'
p535
g5
tp536
a(S'group'
p537
S'group'
p538
S'NN'
p539
S'I-NP'
p540
g5
tp541
a(g99
g99
g99
g5
g5
tp542
a(S'pain'
p543
S'pain'
p544
S'NN'
p545
S'B-NP'
p546
g5
tp547
a(S'from'
p548
S'from'
p549
S'IN'
p550
S'B-PP'
p551
g5
tp552
a(S'the'
p553
S'the'
p554
S'DT'
p555
S'B-NP'
p556
g5
tp557
a(S'iliac'
p558
S'iliac'
p559
S'JJ'
p560
S'I-NP'
p561
g5
tp562
a(S'crest'
p563
S'crest'
p564
S'NN'
p565
S'I-NP'
p566
g5
tp567
a(S'was'
p568
S'be'
p569
S'VBD'
p570
S'B-VP'
p571
g5
tp572
a(S'worse'
p573
S'worse'
p574
S'JJR'
p575
S'B-ADJP'
p576
g5
tp577
a(S'than'
p578
S'than'
p579
S'IN'
p580
S'B-PP'
p581
g5
tp582
a(S'pain'
p583
S'pain'
p584
S'NN'
p585
S'B-NP'
p586
g5
tp587
a(S'from'
p588
S'from'
p589
S'IN'
p590
S'B-PP'
p591
g5
tp592
a(S'the'
p593
S'the'
p594
S'DT'
p595
S'B-NP'
p596
g5
tp597
a(S'primary'
p598
S'primary'
p599
S'JJ'
p600
S'I-NP'
p601
g5
tp602
a(S'surgical'
p603
S'surgical'
p604
S'JJ'
p605
S'I-NP'
p606
g5
tp607
a(S'site.'
p608
S'site.'
p609
S'NN'
p610
S'I-NP'
p611
g5
tp612
a(S'Pain'
p613
S'Pain'
p614
S'NN'
p615
S'I-NP'
p616
g5
tp617
a(S'from'
p618
S'from'
p619
S'IN'
p620
S'B-PP'
p621
g5
tp622
a(S'the'
p623
S'the'
p624
S'DT'
p625
S'B-NP'
p626
g5
tp627
a(S'iliac'
p628
S'iliac'
p629
S'JJ'
p630
S'I-NP'
p631
g5
tp632
a(S'crest'
p633
S'crest'
p634
S'NN'
p635
S'I-NP'
p636
g5
tp637
a(S'was'
p638
S'be'
p639
S'VBD'
p640
S'B-VP'
p641
g5
tp642
a(S'significantly'
p643
S'significantly'
p644
S'RB'
p645
S'I-VP'
p646
g5
tp647
a(S'reduced'
p648
S'reduce'
p649
S'VBN'
p650
S'I-VP'
p651
g5
tp652
a(S'during'
p653
S'during'
p654
S'IN'
p655
S'B-PP'
p656
g5
tp657
a(S'the'
p658
S'the'
p659
S'DT'
p660
S'B-NP'
p661
g5
tp662
a(S'first'
p663
S'first'
p664
S'JJ'
p665
S'I-NP'
p666
g5
tp667
a(S'12'
p668
S'12'
p669
S'CD'
p670
S'I-NP'
p671
g5
tp672
a(S'postoperative'
p673
S'postoperative'
p674
S'JJ'
p675
S'I-NP'
p676
g5
tp677
a(S'hours'
p678
S'hour'
p679
S'NNS'
p680
S'I-NP'
p681
g5
tp682
a(S'in'
p683
S'in'
p684
S'IN'
p685
S'B-PP'
p686
g5
tp687
a(S'local'
p688
S'local'
p689
S'JJ'
p690
S'B-NP'
p691
g5
tp692
a(S'anaesthetic'
p693
S'anaesthetic'
p694
S'JJ'
p695
S'I-NP'
p696
g5
tp697
a(S'groups'
p698
S'group'
p699
S'NNS'
p700
S'I-NP'
p701
g5
tp702
a(S'compared'
p703
S'compare'
p704
S'VBN'
p705
S'B-VP'
p706
g5
tp707
a(S'to'
p708
S'to'
p709
S'TO'
p710
S'B-PP'
p711
g5
tp712
a(S'the'
p713
S'the'
p714
S'DT'
p715
S'B-NP'
p716
g5
tp717
a(S'control'
p718
S'control'
p719
S'NN'
p720
S'I-NP'
p721
g5
tp722
a(S'group.'
p723
S'group.'
p724
S'RB'
p725
S'B-ADVP'
p726
g5
tp727
a(S'However'
p728
S'However'
p729
S'RB'
p730
S'I-ADVP'
p731
g5
tp732
a(g99
g99
g99
g5
g5
tp733
a(S'during'
p734
S'during'
p735
S'IN'
p736
S'B-PP'
p737
g5
tp738
a(S'this'
p739
S'this'
p740
S'DT'
p741
S'B-NP'
p742
g5
tp743
a(S'period'
p744
S'period'
p745
S'NN'
p746
S'I-NP'
p747
g5
tp748
a(g99
g99
g99
g5
g5
tp749
a(S'pain'
p750
S'pain'
p751
S'NN'
p752
S'B-NP'
p753
g5
tp754
a(S'from'
p755
S'from'
p756
S'IN'
p757
S'B-PP'
p758
g5
tp759
a(S'the'
p760
S'the'
p761
S'DT'
p762
S'B-NP'
p763
g5
tp764
a(S'primary'
p765
S'primary'
p766
S'JJ'
p767
S'I-NP'
p768
S'B-DNA'
p769
tp770
a(S'surgical'
p771
S'surgical'
p772
S'JJ'
p773
S'I-NP'
p774
S'I-DNA'
p775
tp776
a(S'site'
p777
S'site'
p778
S'NN'
p779
S'I-NP'
p780
S'I-DNA'
p781
tp782
a(S'was'
p783
S'be'
p784
S'VBD'
p785
S'B-VP'
p786
g5
tp787
a(S'increased'
p788
S'increase'
p789
S'VBN'
p790
S'I-VP'
p791
g5
tp792
a(S'compared'
p793
S'compare'
p794
S'VBN'
p795
S'B-PP'
p796
g5
tp797
a(S'to'
p798
S'to'
p799
S'TO'
p800
S'B-PP'
p801
g5
tp802
a(S'the'
p803
S'the'
p804
S'DT'
p805
S'B-NP'
p806
g5
tp807
a(S'control'
p808
S'control'
p809
S'NN'
p810
S'I-NP'
p811
g5
tp812
a(S'group.'
p813
S'group.'
p814
S'RB'
p815
S'B-ADVP'
p816
g5
tp817
a(S'Finally'
p818
S'Finally'
p819
S'RB'
p820
S'I-ADVP'
p821
g5
tp822
a(g99
g99
g99
g5
g5
tp823
a(S'there'
p824
S'there'
p825
S'EX'
p826
S'B-NP'
p827
g5
tp828
a(S'was'
p829
S'be'
p830
S'VBD'
p831
S'B-VP'
p832
g5
tp833
a(S'no'
p834
S'no'
p835
S'DT'
p836
S'B-NP'
p837
g5
tp838
a(S'difference'
p839
S'difference'
p840
S'NN'
p841
S'I-NP'
p842
g5
tp843
a(S'between'
p844
S'between'
p845
S'IN'
p846
S'B-PP'
p847
g5
tp848
a(S'the'
p849
S'the'
p850
S'DT'
p851
S'B-NP'
p852
g5
tp853
a(S'three'
p854
S'three'
p855
S'CD'
p856
S'I-NP'
p857
g5
tp858
a(S'groups'
p859
S'group'
p860
S'NNS'
p861
S'I-NP'
p862
g5
tp863
a(S'in'
p864
S'in'
p865
S'IN'
p866
S'B-PP'
p867
g5
tp868
a(S'the'
p869
S'the'
p870
S'DT'
p871
S'B-NP'
p872
g5
tp873
a(S'average'
p874
S'average'
p875
S'JJ'
p876
S'I-NP'
p877
g5
tp878
a(S'intake'
p879
S'intake'
p880
S'NN'
p881
S'I-NP'
p882
g5
tp883
a(S'of'
p884
S'of'
p885
S'IN'
p886
S'B-PP'
p887
g5
tp888
a(S'PCA'
p889
S'PCA'
p890
S'NN'
p891
S'B-NP'
p892
g5
tp893
a(S'morphine.'
p894
S'morphine.'
p895
S'NN'
p896
S'I-NP'
p897
g5
tp898
a(S'There'
p899
S'There'
p900
S'EX'
p901
S'B-NP'
p902
g5
tp903
a(S'was'
p904
S'be'
p905
S'VBD'
p906
S'B-VP'
p907
g5
tp908
a(S'no'
p909
S'no'
p910
S'DT'
p911
S'B-NP'
p912
g5
tp913
a(S'significant'
p914
S'significant'
p915
S'JJ'
p916
S'I-NP'
p917
g5
tp918
a(S'pharmacokinetic'
p919
S'pharmacokinetic'
p920
S'JJ'
p921
S'I-NP'
p922
g5
tp923
a(S'and'
p924
S'and'
p925
S'CC'
p926
S'I-NP'
p927
g5
tp928
a(S'pharmacodynamic'
p929
S'pharmacodynamic'
p930
S'JJ'
p931
S'I-NP'
p932
g5
tp933
a(S'difference'
p934
S'difference'
p935
S'NN'
p936
S'I-NP'
p937
g5
tp938
a(S'between'
p939
S'between'
p940
S'IN'
p941
S'B-PP'
p942
g5
tp943
a(S'plain'
p944
S'plain'
p945
S'JJ'
p946
S'B-NP'
p947
g5
tp948
a(S'bupivacaine'
p949
S'bupivacaine'
p950
S'NN'
p951
S'I-NP'
p952
g5
tp953
a(S'and'
p954
S'and'
p955
S'CC'
p956
S'I-NP'
p957
g5
tp958
a(S'ropivacaine.'
p959
S'ropivacaine.'
p960
S'NN'
p961
S'I-NP'
p962
g5
tp963
a(S'The'
p964
S'The'
p965
S'DT'
p966
S'B-NP'
p967
g5
tp968
a(S'maximal'
p969
S'maximal'
p970
S'JJ'
p971
S'I-NP'
p972
g5
tp973
a(S'plasma'
p974
S'plasma'
p975
S'NN'
p976
S'I-NP'
p977
g5
tp978
a(S'concentration'
p979
S'concentration'
p980
S'NN'
p981
S'I-NP'
p982
g5
tp983
a(g293
g293
g293
g5
g5
tp984
a(S'Cmax'
p985
S'Cmax'
p986
S'NN'
p987
S'B-NP'
p988
g5
tp989
a(g305
g305
g305
g5
g5
tp990
a(S'of'
p991
S'of'
p992
S'IN'
p993
S'B-PP'
p994
g5
tp995
a(S'ropivacaine'
p996
S'ropivacaine'
p997
S'NN'
p998
S'B-NP'
p999
g5
tp1000
a(S'and'
p1001
S'and'
p1002
S'CC'
p1003
S'I-NP'
p1004
g5
tp1005
a(S'bupivacaine'
p1006
S'bupivacaine'
p1007
S'NN'
p1008
S'I-NP'
p1009
g5
tp1010
a(S'were'
p1011
S'be'
p1012
S'VBD'
p1013
S'B-VP'
p1014
g5
tp1015
a(S'964'
p1016
S'964'
p1017
S'CD'
p1018
S'B-NP'
p1019
g5
tp1020
a(g293
g293
g293
g5
g5
tp1021
a(S'282'
p1022
S'282'
p1023
S'CD'
p1024
S'B-NP'
p1025
g5
tp1026
a(g305
g305
g305
g5
g5
tp1027
a(S'ng'
p1028
S'ng'
p1029
S'NN'
p1030
S'B-NP'
p1031
g5
tp1032
a(S'ml'
p1033
S'ml'
p1034
S'NN'
p1035
S'I-NP'
p1036
g5
tp1037
a(g293
g293
g293
g5
g5
tp1038
a(S'-1'
p1039
S'-1'
p1040
S'CD'
p1041
S'B-NP'
p1042
g5
tp1043
a(g305
g305
g305
g5
g5
tp1044
a(S'and'
p1045
S'and'
p1046
S'CC'
p1047
g5
g5
tp1048
a(S'638'
p1049
S'638'
p1050
S'CD'
p1051
S'B-NP'
p1052
g5
tp1053
a(g293
g293
g293
g5
g5
tp1054
a(S'366'
p1055
S'366'
p1056
S'CD'
p1057
S'B-NP'
p1058
g5
tp1059
a(g305
g305
g305
g5
g5
tp1060
a(S'ng'
p1061
S'ng'
p1062
S'NN'
p1063
S'B-NP'
p1064
g5
tp1065
a(S'ml'
p1066
S'ml'
p1067
S'NN'
p1068
S'I-NP'
p1069
g5
tp1070
a(g293
g293
g293
g5
g5
tp1071
a(S'-1'
p1072
S'-1'
p1073
S'CD'
p1074
S'B-NP'
p1075
g5
tp1076
a(g305
g305
g305
g5
g5
tp1077
a(g99
g99
g99
g5
g5
tp1078
a(S'respectively.'
p1079
S'respectively.'
p1080
S'VBP'
p1081
S'B-VP'
p1082
g5
tp1083
a(S'In'
p1084
S'In'
p1085
S'IN'
p1086
S'B-PP'
p1087
g5
tp1088
a(S'the'
p1089
S'the'
p1090
S'DT'
p1091
S'B-NP'
p1092
g5
tp1093
a(S'sheep'
p1094
S'sheep'
p1095
S'NN'
p1096
S'I-NP'
p1097
g5
tp1098
a(S'model'
p1099
S'model'
p1100
S'NN'
p1101
S'I-NP'
p1102
g5
tp1103
a(g99
g99
g99
g5
g5
tp1104
a(S'it'
p1105
S'it'
p1106
S'PRP'
p1107
S'B-NP'
p1108
g5
tp1109
a(S'was'
p1110
S'be'
p1111
S'VBD'
p1112
S'B-VP'
p1113
g5
tp1114
a(S'clearly'
p1115
S'clearly'
p1116
S'RB'
p1117
S'I-VP'
p1118
g5
tp1119
a(S'shown'
p1120
S'show'
p1121
S'VBN'
p1122
S'I-VP'
p1123
g5
tp1124
a(S'that'
p1125
S'that'
p1126
S'IN'
p1127
S'B-SBAR'
p1128
g5
tp1129
a(S'the'
p1130
S'the'
p1131
S'DT'
p1132
S'B-NP'
p1133
g5
tp1134
a(S'release'
p1135
S'release'
p1136
S'NN'
p1137
S'I-NP'
p1138
g5
tp1139
a(S'of'
p1140
S'of'
p1141
S'IN'
p1142
S'B-PP'
p1143
g5
tp1144
a(S'bupivacaine'
p1145
S'bupivacaine'
p1146
S'NN'
p1147
S'B-NP'
p1148
g5
tp1149
a(S'from'
p1150
S'from'
p1151
S'IN'
p1152
S'B-PP'
p1153
g5
tp1154
a(S'microspheres'
p1155
S'microsphere'
p1156
S'NNS'
p1157
S'B-NP'
p1158
g5
tp1159
a(S'was'
p1160
S'be'
p1161
S'VBD'
p1162
S'B-VP'
p1163
g5
tp1164
a(S'controlled'
p1165
S'control'
p1166
S'VBN'
p1167
S'I-VP'
p1168
g5
tp1169
a(S'and'
p1170
S'and'
p1171
S'CC'
p1172
g5
g5
tp1173
a(S'prolonged'
p1174
S'prolong'
p1175
S'VBN'
p1176
S'B-VP'
p1177
g5
tp1178
a(S'despite'
p1179
S'despite'
p1180
S'IN'
p1181
S'B-PP'
p1182
g5
tp1183
a(S'the'
p1184
S'the'
p1185
S'DT'
p1186
S'B-NP'
p1187
g5
tp1188
a(S'largest'
p1189
S'large'
p1190
S'JJS'
p1191
S'I-NP'
p1192
g5
tp1193
a(S'dose'
p1194
S'dose'
p1195
S'NN'
p1196
S'I-NP'
p1197
g5
tp1198
a(S'of'
p1199
S'of'
p1200
S'IN'
p1201
S'B-PP'
p1202
g5
tp1203
a(S'bupivacaine'
p1204
S'bupivacaine'
p1205
S'NN'
p1206
S'B-NP'
p1207
g5
tp1208
a(S'used'
p1209
S'use'
p1210
S'VBN'
p1211
S'B-VP'
p1212
g5
tp1213
a(g293
g293
g293
g5
g5
tp1214
a(S'500'
p1215
S'500'
p1216
S'CD'
p1217
S'B-NP'
p1218
g5
tp1219
a(S'mg'
p1220
S'mg'
p1221
S'NN'
p1222
S'I-NP'
p1223
g5
tp1224
a(S';'
p1225
g1225
g45
g5
g5
tp1226
a(g350
g350
S'NN'
p1227
S'B-NP'
p1228
g5
tp1229
a(g354
g354
S'SYM'
p1230
S'B-VP'
p1231
g5
tp1232
a(S'4'
p1233
g1233
S'CD'
p1234
S'B-NP'
p1235
g5
tp1236
a(g305
g305
g305
g5
g5
tp1237
a(g67
g67
g67
g5
g5
tp1238
a(S'Wound'
p1239
S'Wound'
p1240
S'JJ'
p1241
S'B-NP'
p1242
g5
tp1243
a(S'infiltration'
p1244
S'infiltration'
p1245
S'NN'
p1246
S'I-NP'
p1247
g5
tp1248
a(S'of'
p1249
S'of'
p1250
S'IN'
p1251
S'B-PP'
p1252
g5
tp1253
a(S'iliac'
p1254
S'iliac'
p1255
S'JJ'
p1256
S'B-NP'
p1257
S'B-DNA'
p1258
tp1259
a(S'crest'
p1260
S'crest'
p1261
S'NN'
p1262
S'I-NP'
p1263
S'I-DNA'
p1264
tp1265
a(S'harvest'
p1266
S'harvest'
p1267
S'NN'
p1268
S'I-NP'
p1269
S'I-DNA'
p1270
tp1271
a(S'site'
p1272
S'site'
p1273
S'NN'
p1274
S'I-NP'
p1275
S'I-DNA'
p1276
tp1277
a(S'with'
p1278
S'with'
p1279
S'IN'
p1280
S'B-PP'
p1281
g5
tp1282
a(S'local'
p1283
S'local'
p1284
S'JJ'
p1285
S'B-NP'
p1286
g5
tp1287
a(S'anaesthetic'
p1288
S'anaesthetic'
p1289
S'NN'
p1290
S'I-NP'
p1291
g5
tp1292
a(S'is'
p1293
S'be'
p1294
S'VBZ'
p1295
S'B-VP'
p1296
g5
tp1297
a(S'an'
p1298
S'an'
p1299
S'DT'
p1300
S'B-NP'
p1301
g5
tp1302
a(S'easy'
p1303
S'easy'
p1304
S'JJ'
p1305
S'I-NP'
p1306
g5
tp1307
a(S'technique'
p1308
S'technique'
p1309
S'NN'
p1310
S'I-NP'
p1311
g5
tp1312
a(S'for'
p1313
S'for'
p1314
S'IN'
p1315
S'B-PP'
p1316
g5
tp1317
a(S'postoperative'
p1318
S'postoperative'
p1319
S'JJ'
p1320
S'B-NP'
p1321
g5
tp1322
a(S'analgesia.'
p1323
S'analgesia.'
p1324
S'NN'
p1325
S'I-NP'
p1326
g5
tp1327
a(S'However'
p1328
S'However'
p1329
S'RB'
p1330
S'B-ADVP'
p1331
g5
tp1332
a(g99
g99
g99
g5
g5
tp1333
a(S'this'
p1334
S'this'
p1335
S'DT'
p1336
S'B-NP'
p1337
g5
tp1338
a(S'effect'
p1339
S'effect'
p1340
S'NN'
p1341
S'I-NP'
p1342
g5
tp1343
a(S'lasts'
p1344
S'last'
p1345
S'VBZ'
p1346
S'B-VP'
p1347
g5
tp1348
a(S'only'
p1349
S'only'
p1350
S'RB'
p1351
S'B-NP'
p1352
g5
tp1353
a(S'12'
p1354
S'12'
p1355
S'CD'
p1356
S'I-NP'
p1357
g5
tp1358
a(S'hours'
p1359
S'hour'
p1360
S'NNS'
p1361
S'I-NP'
p1362
g5
tp1363
a(S'without'
p1364
S'without'
p1365
S'IN'
p1366
S'B-PP'
p1367
g5
tp1368
a(S'reducing'
p1369
S'reduce'
p1370
S'VBG'
p1371
S'B-VP'
p1372
g5
tp1373
a(S'the'
p1374
S'the'
p1375
S'DT'
p1376
S'B-NP'
p1377
g5
tp1378
a(S'morphine'
p1379
S'morphine'
p1380
S'NN'
p1381
S'I-NP'
p1382
g5
tp1383
a(S'consumption'
p1384
S'consumption'
p1385
S'NN'
p1386
S'I-NP'
p1387
g5
tp1388
a(S'due'
p1389
S'due'
p1390
S'JJ'
p1391
S'B-ADJP'
p1392
g5
tp1393
a(S'to'
p1394
S'to'
p1395
S'TO'
p1396
S'B-PP'
p1397
g5
tp1398
a(S'an'
p1399
S'an'
p1400
S'DT'
p1401
S'B-NP'
p1402
g5
tp1403
a(S'increase'
p1404
S'increase'
p1405
S'NN'
p1406
S'I-NP'
p1407
g5
tp1408
a(S'of'
p1409
S'of'
p1410
S'IN'
p1411
S'B-PP'
p1412
g5
tp1413
a(S'pain'
p1414
S'pain'
p1415
S'NN'
p1416
S'B-NP'
p1417
g5
tp1418
a(S'from'
p1419
S'from'
p1420
S'IN'
p1421
S'B-PP'
p1422
g5
tp1423
a(S'the'
p1424
S'the'
p1425
S'DT'
p1426
S'B-NP'
p1427
g5
tp1428
a(S'primary'
p1429
S'primary'
p1430
S'JJ'
p1431
S'I-NP'
p1432
g5
tp1433
a(S'surgical'
p1434
S'surgical'
p1435
S'JJ'
p1436
S'I-NP'
p1437
g5
tp1438
a(S'site.'
p1439
S'site.'
p1440
S'NN'
p1441
S'I-NP'
p1442
g5
tp1443
a(S'The'
p1444
S'The'
p1445
S'DT'
p1446
S'B-NP'
p1447
g5
tp1448
a(S'local'
p1449
S'local'
p1450
S'JJ'
p1451
S'I-NP'
p1452
g5
tp1453
a(S'anaesthetic'
p1454
S'anaesthetic'
p1455
S'JJ'
p1456
S'I-NP'
p1457
g5
tp1458
a(S'infiltration'
p1459
S'infiltration'
p1460
S'NN'
p1461
S'I-NP'
p1462
g5
tp1463
a(S'produced'
p1464
S'produce'
p1465
S'VBD'
p1466
S'B-VP'
p1467
g5
tp1468
a(g111
g111
S'DT'
p1469
S'B-NP'
p1470
g5
tp1471
a(S'significant'
p1472
S'significant'
p1473
S'JJ'
p1474
S'I-NP'
p1475
g5
tp1476
a(S'peak'
p1477
S'peak'
p1478
S'NN'
p1479
S'I-NP'
p1480
g5
tp1481
a(S'of'
p1482
S'of'
p1483
S'IN'
p1484
S'B-PP'
p1485
g5
tp1486
a(S'plasma'
p1487
S'plasma'
p1488
S'NN'
p1489
S'B-NP'
p1490
g5
tp1491
a(S'level'
p1492
S'level'
p1493
S'NN'
p1494
S'I-NP'
p1495
g5
tp1496
a(g99
g99
g99
g5
g5
tp1497
a(S'which'
p1498
S'which'
p1499
S'WDT'
p1500
S'B-NP'
p1501
g5
tp1502
a(S'could'
p1503
S'could'
p1504
S'MD'
p1505
S'B-VP'
p1506
g5
tp1507
a(S'be'
p1508
S'be'
p1509
S'VB'
p1510
S'I-VP'
p1511
g5
tp1512
a(S'dangerous'
p1513
S'dangerous'
p1514
S'JJ'
p1515
S'B-ADJP'
p1516
g5
tp1517
a(S'if'
p1518
S'if'
p1519
S'IN'
p1520
S'B-SBAR'
p1521
g5
tp1522
a(S'another'
p1523
S'another'
p1524
S'DT'
p1525
S'B-NP'
p1526
g5
tp1527
a(S'infiltration'
p1528
S'infiltration'
p1529
S'NN'
p1530
S'I-NP'
p1531
g5
tp1532
a(S'or'
p1533
S'or'
p1534
S'CC'
p1535
g5
g5
tp1536
a(S'regional'
p1537
S'regional'
p1538
S'JJ'
p1539
S'B-NP'
p1540
g5
tp1541
a(S'anaesthetic'
p1542
S'anaesthetic'
p1543
S'JJ'
p1544
S'I-NP'
p1545
g5
tp1546
a(S'technique'
p1547
S'technique'
p1548
S'NN'
p1549
S'I-NP'
p1550
g5
tp1551
a(S'was'
p1552
S'be'
p1553
S'VBD'
p1554
S'B-VP'
p1555
g5
tp1556
a(S'associated'
p1557
S'associate'
p1558
S'VBN'
p1559
S'I-VP'
p1560
g5
tp1561
a(S'with'
p1562
S'with'
p1563
S'IN'
p1564
S'B-PP'
p1565
g5
tp1566
a(S'it.'
p1567
S'it.'
p1568
S'NNP'
p1569
S'B-NP'
p1570
g5
tp1571
a(S'Experimentally'
p1572
S'Experimentally'
p1573
S'NNP'
p1574
S'I-NP'
p1575
g5
tp1576
a(g99
g99
g99
g5
g5
tp1577
a(S'as'
p1578
S'as'
p1579
S'IN'
p1580
S'B-PP'
p1581
g5
tp1582
a(g111
g111
S'DT'
p1583
S'B-NP'
p1584
g5
tp1585
a(S'drug'
p1586
S'drug'
p1587
S'NN'
p1588
S'I-NP'
p1589
g5
tp1590
a(S'delivery'
p1591
S'delivery'
p1592
S'NN'
p1593
S'I-NP'
p1594
g5
tp1595
a(S'system'
p1596
S'system'
p1597
S'NN'
p1598
S'I-NP'
p1599
g5
tp1600
a(g99
g99
g99
g5
g5
tp1601
a(S'the'
p1602
S'the'
p1603
S'DT'
p1604
S'B-NP'
p1605
g5
tp1606
a(S'use'
p1607
S'use'
p1608
S'NN'
p1609
S'I-NP'
p1610
g5
tp1611
a(S'of'
p1612
S'of'
p1613
S'IN'
p1614
S'B-PP'
p1615
g5
tp1616
a(S'local'
p1617
S'local'
p1618
S'JJ'
p1619
S'B-NP'
p1620
g5
tp1621
a(S'anaesthetic-loaded'
p1622
S'anaesthetic-loaded'
p1623
S'JJ'
p1624
S'I-NP'
p1625
g5
tp1626
a(S'microspheres'
p1627
S'microsphere'
p1628
S'NNS'
p1629
S'I-NP'
p1630
g5
tp1631
a(S'could'
p1632
S'could'
p1633
S'MD'
p1634
S'B-VP'
p1635
g5
tp1636
a(S'be'
p1637
S'be'
p1638
S'VB'
p1639
S'I-VP'
p1640
g5
tp1641
a(S'an'
p1642
S'an'
p1643
S'DT'
p1644
S'B-NP'
p1645
g5
tp1646
a(S'interesting'
p1647
S'interesting'
p1648
S'JJ'
p1649
S'I-NP'
p1650
g5
tp1651
a(S'alternative'
p1652
S'alternative'
p1653
S'NN'
p1654
S'I-NP'
p1655
g5
tp1656
a(g67
g67
g67
g5
g5
tp1657
a.