(lp0
(S'Depressive'
p1
S'Depressive'
p2
S'JJ'
p3
S'B-NP'
p4
S'O'
p5
tp6
a(S'mood'
p7
S'mood'
p8
S'NN'
p9
S'I-NP'
p10
g5
tp11
a(S'symptoms'
p12
S'symptom'
p13
S'NNS'
p14
S'I-NP'
p15
g5
tp16
a(S'associated'
p17
S'associate'
p18
S'VBN'
p19
S'B-VP'
p20
g5
tp21
a(S'with'
p22
S'with'
p23
S'IN'
p24
S'B-PP'
p25
g5
tp26
a(S'ovarian'
p27
S'ovarian'
p28
S'JJ'
p29
S'B-NP'
p30
g5
tp31
a(S'suppression'
p32
S'suppression'
p33
S'NN'
p34
S'I-NP'
p35
g5
tp36
a(S'.'
p37
g37
g37
g5
g5
tp38
a(S'OBJECTIVE'
p39
S'OBJECTIVE'
p40
S'NN'
p41
S'B-NP'
p42
g5
tp43
a(S'To'
p44
S'To'
p45
S'TO'
p46
S'B-VP'
p47
g5
tp48
a(S'determine'
p49
S'determine'
p50
S'VB'
p51
S'I-VP'
p52
g5
tp53
a(S'if'
p54
S'if'
p55
S'IN'
p56
S'B-SBAR'
p57
g5
tp58
a(S'sertraline'
p59
S'sertraline'
p60
S'NN'
p61
S'B-NP'
p62
g5
tp63
a(S'is'
p64
S'be'
p65
S'VBZ'
p66
S'B-VP'
p67
g5
tp68
a(S'helpful'
p69
S'helpful'
p70
S'JJ'
p71
S'B-ADJP'
p72
g5
tp73
a(S'in'
p74
S'in'
p75
S'IN'
p76
S'B-PP'
p77
g5
tp78
a(S'the'
p79
S'the'
p80
S'DT'
p81
S'B-NP'
p82
g5
tp83
a(S'management'
p84
S'management'
p85
S'NN'
p86
S'I-NP'
p87
g5
tp88
a(S'of'
p89
S'of'
p90
S'IN'
p91
S'B-PP'
p92
g5
tp93
a(S'depressive'
p94
S'depressive'
p95
S'JJ'
p96
S'B-NP'
p97
g5
tp98
a(S'symptoms'
p99
S'symptom'
p100
S'NNS'
p101
S'I-NP'
p102
g5
tp103
a(S'associated'
p104
S'associate'
p105
S'VBN'
p106
S'B-VP'
p107
g5
tp108
a(S'with'
p109
S'with'
p110
S'IN'
p111
S'B-PP'
p112
g5
tp113
a(S'ovarian'
p114
S'ovarian'
p115
S'JJ'
p116
S'B-NP'
p117
g5
tp118
a(S'suppression'
p119
S'suppression'
p120
S'NN'
p121
S'I-NP'
p122
g5
tp123
a(S'during'
p124
S'during'
p125
S'IN'
p126
S'B-PP'
p127
g5
tp128
a(S'GnRH'
p129
S'GnRH'
p130
S'NN'
p131
S'B-NP'
p132
g5
tp133
a(S'agonist'
p134
S'agonist'
p135
S'NN'
p136
S'I-NP'
p137
g5
tp138
a(S'therapy'
p139
S'therapy'
p140
S'NN'
p141
S'I-NP'
p142
g5
tp143
a(S'as'
p144
S'as'
p145
S'IN'
p146
S'B-PP'
p147
g5
tp148
a(S'compared'
p149
S'compare'
p150
S'VBN'
p151
S'B-PP'
p152
g5
tp153
a(S'with'
p154
S'with'
p155
S'IN'
p156
S'B-PP'
p157
g5
tp158
a(S'a'
p159
g159
S'DT'
p160
S'B-NP'
p161
g5
tp162
a(S'placebo-controlled'
p163
S'placebo-controlled'
p164
S'JJ'
p165
S'I-NP'
p166
g5
tp167
a(S'group'
p168
S'group'
p169
S'NN'
p170
S'I-NP'
p171
g5
tp172
a(g37
g37
g37
g5
g5
tp173
a(S'DESIGN'
p174
S'DESIGN'
p175
S'NN'
p176
S'B-NP'
p177
g5
tp178
a(S'Double-blind'
p179
S'Double-blind'
p180
S'JJ'
p181
S'I-NP'
p182
g5
tp183
a(S'placebo-controlled'
p184
S'placebo-controlled'
p185
S'JJ'
p186
S'I-NP'
p187
g5
tp188
a(S'prospective'
p189
S'prospective'
p190
S'JJ'
p191
S'I-NP'
p192
g5
tp193
a(S'study'
p194
S'study'
p195
S'NN'
p196
S'I-NP'
p197
g5
tp198
a(S'design'
p199
S'design'
p200
S'NN'
p201
S'I-NP'
p202
g5
tp203
a(g37
g37
g37
g5
g5
tp204
a(S'SETTING'
p205
S'SETTING'
p206
S'VBG'
p207
S'B-VP'
p208
g5
tp209
a(S'An'
p210
S'An'
p211
S'DT'
p212
S'B-NP'
p213
g5
tp214
a(S'obstetrics/gynecological'
p215
S'obstetrics/gynecological'
p216
S'JJ'
p217
S'I-NP'
p218
g5
tp219
a(S'office'
p220
S'office'
p221
S'NN'
p222
S'I-NP'
p223
g5
tp224
a(S'specializing'
p225
S'specialize'
p226
S'VBG'
p227
S'B-VP'
p228
g5
tp229
a(S'in'
p230
S'in'
p231
S'IN'
p232
S'B-PP'
p233
g5
tp234
a(S'infertility'
p235
S'infertility'
p236
S'NN'
p237
S'B-NP'
p238
g5
tp239
a(S'in'
p240
S'in'
p241
S'IN'
p242
S'B-PP'
p243
g5
tp244
a(S'an'
p245
S'an'
p246
S'DT'
p247
S'B-NP'
p248
g5
tp249
a(S'academic'
p250
S'academic'
p251
S'JJ'
p252
S'I-NP'
p253
g5
tp254
a(S'environment'
p255
S'environment'
p256
S'NN'
p257
S'I-NP'
p258
g5
tp259
a(g37
g37
g37
g5
g5
tp260
a(S'PATIENT'
p261
S'PATIENT'
p262
S'NN'
p263
S'B-NP'
p264
g5
tp265
a(S'('
p266
g266
g266
g5
g5
tp267
a(S'S'
p268
g268
S'NN'
p269
S'B-NP'
p270
g5
tp271
a(S')'
p272
g272
g272
g5
g5
tp273
a(S'Premenstrual'
p274
S'Premenstrual'
p275
S'JJ'
p276
S'B-NP'
p277
g5
tp278
a(S'women'
p279
S'woman'
p280
S'NNS'
p281
S'I-NP'
p282
g5
tp283
a(S'with'
p284
S'with'
p285
S'IN'
p286
S'B-PP'
p287
g5
tp288
a(S'laparoscopically'
p289
S'laparoscopically'
p290
S'RB'
p291
S'B-NP'
p292
g5
tp293
a(S'diagnosed'
p294
S'diagnose'
p295
S'VBN'
p296
S'I-NP'
p297
g5
tp298
a(S'endometriosis'
p299
S'endometriosis'
p300
S'NN'
p301
S'I-NP'
p302
g5
tp303
a(S'who'
p304
S'who'
p305
S'WP'
p306
S'B-NP'
p307
g5
tp308
a(S'required'
p309
S'require'
p310
S'VBD'
p311
S'B-VP'
p312
g5
tp313
a(S'GnRH'
p314
S'GnRH'
p315
S'NN'
p316
S'B-NP'
p317
g5
tp318
a(S'agonist'
p319
S'agonist'
p320
S'NN'
p321
S'I-NP'
p322
g5
tp323
a(S'therapy'
p324
S'therapy'
p325
S'NN'
p326
S'I-NP'
p327
g5
tp328
a(S'for'
p329
S'for'
p330
S'IN'
p331
S'B-PP'
p332
g5
tp333
a(S'treatment'
p334
S'treatment'
p335
S'NN'
p336
S'B-NP'
p337
g5
tp338
a(S'and'
p339
S'and'
p340
S'CC'
p341
g5
g5
tp342
a(S'did'
p343
S'do'
p344
S'VBD'
p345
S'B-VP'
p346
g5
tp347
a(S'not'
p348
S'not'
p349
S'RB'
p350
S'I-VP'
p351
g5
tp352
a(S'have'
p353
S'have'
p354
S'VB'
p355
S'I-VP'
p356
g5
tp357
a(S'significant'
p358
S'significant'
p359
S'JJ'
p360
S'B-NP'
p361
g5
tp362
a(S'depressive'
p363
S'depressive'
p364
S'JJ'
p365
S'I-NP'
p366
g5
tp367
a(S'or'
p368
S'or'
p369
S'CC'
p370
S'I-NP'
p371
g5
tp372
a(S'premenstrual'
p373
S'premenstrual'
p374
S'JJ'
p375
S'I-NP'
p376
g5
tp377
a(S'mood'
p378
S'mood'
p379
S'NN'
p380
S'I-NP'
p381
g5
tp382
a(S'symptoms'
p383
S'symptom'
p384
S'NNS'
p385
S'I-NP'
p386
g5
tp387
a(S'at'
p388
S'at'
p389
S'IN'
p390
S'B-PP'
p391
g5
tp392
a(S'baseline'
p393
S'baseline'
p394
S'NN'
p395
S'B-NP'
p396
g5
tp397
a(g37
g37
g37
g5
g5
tp398
a(S'INTERVENTION'
p399
S'INTERVENTION'
p400
S'NN'
p401
S'B-NP'
p402
g5
tp403
a(g266
g266
g266
g5
g5
tp404
a(g268
g268
S'NN'
p405
S'B-NP'
p406
g5
tp407
a(g272
g272
g272
g5
g5
tp408
a(S'Participants'
p409
S'Participant'
p410
S'NNPS'
p411
S'B-NP'
p412
g5
tp413
a(S'were'
p414
S'be'
p415
S'VBD'
p416
S'B-VP'
p417
g5
tp418
a(S'randomly'
p419
S'randomly'
p420
S'RB'
p421
S'I-VP'
p422
g5
tp423
a(S'assigned'
p424
S'assign'
p425
S'VBN'
p426
S'I-VP'
p427
g5
tp428
a(S'to'
p429
S'to'
p430
S'TO'
p431
S'B-PP'
p432
g5
tp433
a(S'either'
p434
S'either'
p435
S'CC'
p436
g5
g5
tp437
a(S'the'
p438
S'the'
p439
S'DT'
p440
S'B-NP'
p441
g5
tp442
a(S'sertraline'
p443
S'sertraline'
p444
S'NN'
p445
S'I-NP'
p446
g5
tp447
a(S'treatment'
p448
S'treatment'
p449
S'NN'
p450
S'I-NP'
p451
g5
tp452
a(S'group'
p453
S'group'
p454
S'NN'
p455
S'I-NP'
p456
g5
tp457
a(S'or'
p458
S'or'
p459
S'CC'
p460
S'B-PP'
p461
g5
tp462
a(S'to'
p463
S'to'
p464
S'TO'
p465
S'B-PP'
p466
g5
tp467
a(S'the'
p468
S'the'
p469
S'DT'
p470
S'B-NP'
p471
g5
tp472
a(S'placebo'
p473
S'placebo'
p474
S'NN'
p475
S'I-NP'
p476
g5
tp477
a(S'group'
p478
S'group'
p479
S'NN'
p480
S'I-NP'
p481
g5
tp482
a(S'for'
p483
S'for'
p484
S'IN'
p485
S'B-PP'
p486
g5
tp487
a(S'the'
p488
S'the'
p489
S'DT'
p490
S'B-NP'
p491
g5
tp492
a(S'3-month'
p493
S'3-month'
p494
S'JJ'
p495
S'I-NP'
p496
g5
tp497
a(S'duration'
p498
S'duration'
p499
S'NN'
p500
S'I-NP'
p501
g5
tp502
a(S'of'
p503
S'of'
p504
S'IN'
p505
S'B-PP'
p506
g5
tp507
a(S'the'
p508
S'the'
p509
S'DT'
p510
S'B-NP'
p511
g5
tp512
a(S'GnRH'
p513
S'GnRH'
p514
S'NN'
p515
S'I-NP'
p516
g5
tp517
a(S'agonist'
p518
S'agonist'
p519
S'NN'
p520
S'I-NP'
p521
g5
tp522
a(S'therapy'
p523
S'therapy'
p524
S'NN'
p525
S'I-NP'
p526
g5
tp527
a(g37
g37
g37
g5
g5
tp528
a(S'MAIN'
p529
S'MAIN'
p530
S'NN'
p531
S'B-NP'
p532
g5
tp533
a(S'OUTCOME'
p534
S'OUTCOME'
p535
S'NN'
p536
S'I-NP'
p537
g5
tp538
a(S'MEASURE'
p539
S'MEASURE'
p540
S'NN'
p541
S'I-NP'
p542
g5
tp543
a(g266
g266
g266
g5
g5
tp544
a(g268
g268
S'NN'
p545
S'B-NP'
p546
g5
tp547
a(g272
g272
g272
g5
g5
tp548
a(S'The'
p549
S'The'
p550
S'DT'
p551
S'B-NP'
p552
g5
tp553
a(S'21-item'
p554
S'21-item'
p555
S'JJ'
p556
S'I-NP'
p557
g5
tp558
a(S'Hamilton'
p559
S'Hamilton'
p560
S'NNP'
p561
S'I-NP'
p562
g5
tp563
a(S'Rating'
p564
S'Rating'
p565
S'NNP'
p566
S'I-NP'
p567
g5
tp568
a(S'Scale'
p569
S'Scale'
p570
S'NNP'
p571
S'I-NP'
p572
g5
tp573
a(S'for'
p574
S'for'
p575
S'IN'
p576
S'B-PP'
p577
g5
tp578
a(S'Depression'
p579
S'Depression'
p580
S'NN'
p581
S'B-NP'
p582
g5
tp583
a(g266
g266
g266
g5
g5
tp584
a(S'HRSD'
p585
S'HRSD'
p586
S'NN'
p587
S'B-NP'
p588
S'B-protein'
p589
tp590
a(g272
g272
g272
g5
g5
tp591
a(S','
p592
g592
g592
g5
g5
tp593
a(S'which'
p594
S'which'
p595
S'WDT'
p596
S'B-NP'
p597
g5
tp598
a(S'is'
p599
S'be'
p600
S'VBZ'
p601
S'B-VP'
p602
g5
tp603
a(S'an'
p604
S'an'
p605
S'DT'
p606
S'B-NP'
p607
g5
tp608
a(S'instrument'
p609
S'instrument'
p610
S'NN'
p611
S'I-NP'
p612
g5
tp613
a(S'designed'
p614
S'design'
p615
S'VBN'
p616
S'B-VP'
p617
g5
tp618
a(S'to'
p619
S'to'
p620
S'TO'
p621
S'B-VP'
p622
g5
tp623
a(S'assess'
p624
S'assess'
p625
S'VB'
p626
S'I-VP'
p627
g5
tp628
a(S'depressive'
p629
S'depressive'
p630
S'JJ'
p631
S'B-NP'
p632
g5
tp633
a(S'symptomatology'
p634
S'symptomatology'
p635
S'NN'
p636
S'I-NP'
p637
g5
tp638
a(g37
g37
g37
g5
g5
tp639
a(S'RESULT'
p640
S'RESULT'
p641
S'NN'
p642
S'B-NP'
p643
g5
tp644
a(g266
g266
g266
g5
g5
tp645
a(g268
g268
S'NN'
p646
S'B-NP'
p647
g5
tp648
a(g272
g272
g272
g5
g5
tp649
a(S'A'
p650
g650
S'NN'
p651
S'B-NP'
p652
g5
tp653
a(S'Hotellings'
p654
S'Hotelling'
p655
S'NNS'
p656
S'I-NP'
p657
g5
tp658
a(S'T'
p659
g659
S'NN'
p660
S'B-NP'
p661
g5
tp662
a(g266
g266
g266
g5
g5
tp663
a(S'2'
p664
g664
S'CD'
p665
S'B-NP'
p666
g5
tp667
a(g272
g272
g272
g5
g5
tp668
a(S'test'
p669
S'test'
p670
S'NN'
p671
S'B-NP'
p672
g5
tp673
a(S'for'
p674
S'for'
p675
S'IN'
p676
S'B-PP'
p677
g5
tp678
a(S'repeated'
p679
S'repeat'
p680
S'VBN'
p681
S'B-NP'
p682
g5
tp683
a(S'measure'
p684
S'measure'
p685
S'NN'
p686
S'I-NP'
p687
g5
tp688
a(S'analysis'
p689
S'analysis'
p690
S'NN'
p691
S'I-NP'
p692
g5
tp693
a(S'indicated'
p694
S'indicate'
p695
S'VBD'
p696
S'B-VP'
p697
g5
tp698
a(g159
g159
S'DT'
p699
S'B-NP'
p700
g5
tp701
a(S'statistically'
p702
S'statistically'
p703
S'RB'
p704
S'I-NP'
p705
g5
tp706
a(S'significant'
p707
S'significant'
p708
S'JJ'
p709
S'I-NP'
p710
g5
tp711
a(g266
g266
g266
g5
g5
tp712
a(S'P'
p713
g713
S'NN'
p714
S'B-NP'
p715
g5
tp716
a(S'<'
p717
g717
S'JJR'
p718
S'B-NP'
p719
g5
tp720
a(S'.05'
p721
S'.05'
p722
S'CD'
p723
S'I-NP'
p724
g5
tp725
a(g272
g272
g272
g5
g5
tp726
a(S'between-group'
p727
S'between-group'
p728
S'JJ'
p729
S'B-NP'
p730
g5
tp731
a(S'difference'
p732
S'difference'
p733
S'NN'
p734
S'I-NP'
p735
g5
tp736
a(S'across'
p737
S'across'
p738
S'IN'
p739
S'B-PP'
p740
g5
tp741
a(S'time'
p742
S'time'
p743
S'NN'
p744
S'B-NP'
p745
g5
tp746
a(S'for'
p747
S'for'
p748
S'IN'
p749
S'B-PP'
p750
g5
tp751
a(S'the'
p752
S'the'
p753
S'DT'
p754
S'B-NP'
p755
g5
tp756
a(S'HRSD'
p757
S'HRSD'
p758
S'NN'
p759
S'I-NP'
p760
g5
tp761
a(g266
g266
g266
g5
g5
tp762
a(g659
g659
S'NN'
p763
S'B-NP'
p764
g5
tp765
a(g266
g266
g266
g5
g5
tp766
a(g664
g664
S'CD'
p767
S'B-NP'
p768
g5
tp769
a(g272
g272
g272
g5
g5
tp770
a(S'='
p771
g771
S'SYM'
p772
S'B-VP'
p773
g5
tp774
a(S'13.3'
p775
S'13.3'
p776
S'CD'
p777
S'B-NP'
p778
g5
tp779
a(S';'
p780
g780
S':'
p781
g5
g5
tp782
a(S'F'
p783
g783
S'NN'
p784
S'B-NP'
p785
g5
tp786
a(S'['
p787
g787
g266
g5
g5
tp788
a(S'3'
p789
g789
S'CD'
p790
S'B-NP'
p791
g5
tp792
a(g592
g592
g592
S'I-NP'
p793
g5
tp794
a(S'28'
p795
S'28'
p796
S'CD'
p797
S'I-NP'
p798
g5
tp799
a(S']'
p800
g800
g272
g5
g5
tp801
a(g771
g771
S'SYM'
p802
S'B-VP'
p803
g5
tp804
a(S'4.1'
p805
S'4.1'
p806
S'CD'
p807
S'B-NP'
p808
g5
tp809
a(g780
g780
g781
g5
g5
tp810
a(S'P=.02'
p811
S'P=.02'
p812
S'NN'
p813
S'B-NP'
p814
g5
tp815
a(g272
g272
g272
g5
g5
tp816
a(S'with'
p817
S'with'
p818
S'IN'
p819
S'B-PP'
p820
g5
tp821
a(S'the'
p822
S'the'
p823
S'DT'
p824
S'B-NP'
p825
g5
tp826
a(S'sertraline'
p827
S'sertraline'
p828
S'NN'
p829
S'I-NP'
p830
g5
tp831
a(S'treatment'
p832
S'treatment'
p833
S'NN'
p834
S'I-NP'
p835
g5
tp836
a(S'group'
p837
S'group'
p838
S'NN'
p839
S'I-NP'
p840
g5
tp841
a(S'manifesting'
p842
S'manifest'
p843
S'VBG'
p844
S'B-VP'
p845
g5
tp846
a(S'significantly'
p847
S'significantly'
p848
S'RB'
p849
S'B-NP'
p850
g5
tp851
a(S'fewer'
p852
S'few'
p853
S'JJR'
p854
S'I-NP'
p855
g5
tp856
a(S'depressive'
p857
S'depressive'
p858
S'JJ'
p859
S'I-NP'
p860
g5
tp861
a(S'symptoms'
p862
S'symptom'
p863
S'NNS'
p864
S'I-NP'
p865
g5
tp866
a(S'than'
p867
S'than'
p868
S'IN'
p869
S'B-PP'
p870
g5
tp871
a(S'the'
p872
S'the'
p873
S'DT'
p874
S'B-NP'
p875
g5
tp876
a(S'control'
p877
S'control'
p878
S'NN'
p879
S'I-NP'
p880
g5
tp881
a(S'group'
p882
S'group'
p883
S'NN'
p884
S'I-NP'
p885
g5
tp886
a(g37
g37
g37
g5
g5
tp887
a(S'CONCLUSION'
p888
S'CONCLUSION'
p889
S'NN'
p890
S'B-NP'
p891
g5
tp892
a(g266
g266
g266
g5
g5
tp893
a(g268
g268
S'NN'
p894
S'B-NP'
p895
g5
tp896
a(g272
g272
g272
g5
g5
tp897
a(S'The'
p898
S'The'
p899
S'DT'
p900
S'B-NP'
p901
g5
tp902
a(S'results'
p903
S'result'
p904
S'NNS'
p905
S'I-NP'
p906
g5
tp907
a(S'indicate'
p908
S'indicate'
p909
S'VBP'
p910
S'B-VP'
p911
g5
tp912
a(S'that'
p913
S'that'
p914
S'IN'
p915
S'B-SBAR'
p916
g5
tp917
a(S'sertraline'
p918
S'sertraline'
p919
S'NN'
p920
S'B-NP'
p921
g5
tp922
a(S'is'
p923
S'be'
p924
S'VBZ'
p925
S'B-VP'
p926
g5
tp927
a(S'an'
p928
S'an'
p929
S'DT'
p930
S'B-NP'
p931
g5
tp932
a(S'effective'
p933
S'effective'
p934
S'JJ'
p935
S'I-NP'
p936
g5
tp937
a(S'option'
p938
S'option'
p939
S'NN'
p940
S'I-NP'
p941
g5
tp942
a(S'in'
p943
S'in'
p944
S'IN'
p945
S'B-PP'
p946
g5
tp947
a(S'the'
p948
S'the'
p949
S'DT'
p950
S'B-NP'
p951
g5
tp952
a(S'management'
p953
S'management'
p954
S'NN'
p955
S'I-NP'
p956
g5
tp957
a(S'of'
p958
S'of'
p959
S'IN'
p960
S'B-PP'
p961
g5
tp962
a(S'depressive'
p963
S'depressive'
p964
S'JJ'
p965
S'B-NP'
p966
g5
tp967
a(S'mood'
p968
S'mood'
p969
S'NN'
p970
S'I-NP'
p971
g5
tp972
a(S'symptoms'
p973
S'symptom'
p974
S'NNS'
p975
S'I-NP'
p976
g5
tp977
a(S'associated'
p978
S'associate'
p979
S'VBN'
p980
S'B-VP'
p981
g5
tp982
a(S'with'
p983
S'with'
p984
S'IN'
p985
S'B-PP'
p986
g5
tp987
a(S'ovarian'
p988
S'ovarian'
p989
S'JJ'
p990
S'B-NP'
p991
g5
tp992
a(S'suppression'
p993
S'suppression'
p994
S'NN'
p995
S'I-NP'
p996
g5
tp997
a(S'during'
p998
S'during'
p999
S'IN'
p1000
S'B-PP'
p1001
g5
tp1002
a(S'GnRH'
p1003
S'GnRH'
p1004
S'NN'
p1005
S'B-NP'
p1006
g5
tp1007
a(S'agonist'
p1008
S'agonist'
p1009
S'NN'
p1010
S'I-NP'
p1011
g5
tp1012
a(S'therapy'
p1013
S'therapy'
p1014
S'NN'
p1015
S'I-NP'
p1016
g5
tp1017
a(g37
g37
g37
g5
g5
tp1018
a.