(lp0
(S'Exploring'
p1
S'Explore'
p2
S'VBG'
p3
S'B-VP'
p4
S'O'
p5
tp6
a(S'the'
p7
S'the'
p8
S'DT'
p9
S'B-NP'
p10
g5
tp11
a(S'social'
p12
S'social'
p13
S'JJ'
p14
S'I-NP'
p15
g5
tp16
a(S'impact'
p17
S'impact'
p18
S'NN'
p19
S'I-NP'
p20
g5
tp21
a(S'of'
p22
S'of'
p23
S'IN'
p24
S'B-PP'
p25
g5
tp26
a(S'being'
p27
S'be'
p28
S'VBG'
p29
S'B-VP'
p30
g5
tp31
a(S'a'
p32
g32
S'DT'
p33
S'B-NP'
p34
g5
tp35
a(S'typical'
p36
S'typical'
p37
S'JJ'
p38
S'I-NP'
p39
g5
tp40
a(S'peer'
p41
S'peer'
p42
S'NN'
p43
S'I-NP'
p44
g5
tp45
a(S'model'
p46
S'model'
p47
S'NN'
p48
S'I-NP'
p49
g5
tp50
a(S'for'
p51
S'for'
p52
S'IN'
p53
S'B-PP'
p54
g5
tp55
a(S'included'
p56
S'include'
p57
S'VBN'
p58
S'B-NP'
p59
g5
tp60
a(S'children'
p61
S'child'
p62
S'NNS'
p63
S'I-NP'
p64
g5
tp65
a(S'with'
p66
S'with'
p67
S'IN'
p68
S'B-PP'
p69
g5
tp70
a(S'autism'
p71
S'autism'
p72
S'NN'
p73
S'B-NP'
p74
g5
tp75
a(S'spectrum'
p76
S'spectrum'
p77
S'NN'
p78
S'I-NP'
p79
g5
tp80
a(S'disorder'
p81
S'disorder'
p82
S'NN'
p83
S'I-NP'
p84
g5
tp85
a(S'.'
p86
g86
g86
g5
g5
tp87
a(S'This'
p88
S'This'
p89
S'DT'
p90
S'B-NP'
p91
g5
tp92
a(S'study'
p93
S'study'
p94
S'NN'
p95
S'I-NP'
p96
g5
tp97
a(S'examined'
p98
S'examine'
p99
S'VBD'
p100
S'B-VP'
p101
g5
tp102
a(S'the'
p103
S'the'
p104
S'DT'
p105
S'B-NP'
p106
g5
tp107
a(S'social'
p108
S'social'
p109
S'JJ'
p110
S'I-NP'
p111
g5
tp112
a(S'impact'
p113
S'impact'
p114
S'NN'
p115
S'I-NP'
p116
g5
tp117
a(S'of'
p118
S'of'
p119
S'IN'
p120
S'B-PP'
p121
g5
tp122
a(S'being'
p123
S'be'
p124
S'VBG'
p125
S'B-VP'
p126
g5
tp127
a(g32
g32
S'DT'
p128
S'B-NP'
p129
g5
tp130
a(S'typical'
p131
S'typical'
p132
S'JJ'
p133
S'I-NP'
p134
g5
tp135
a(S'peer'
p136
S'peer'
p137
S'NN'
p138
S'I-NP'
p139
g5
tp140
a(S'model'
p141
S'model'
p142
S'NN'
p143
S'I-NP'
p144
g5
tp145
a(S'as'
p146
S'as'
p147
S'IN'
p148
S'B-PP'
p149
g5
tp150
a(S'part'
p151
S'part'
p152
S'NN'
p153
S'B-NP'
p154
g5
tp155
a(S'of'
p156
S'of'
p157
S'IN'
p158
S'B-PP'
p159
g5
tp160
a(g32
g32
S'DT'
p161
S'B-NP'
p162
g5
tp163
a(S'social'
p164
S'social'
p165
S'JJ'
p166
S'I-NP'
p167
g5
tp168
a(S'skills'
p169
S'skill'
p170
S'NNS'
p171
S'I-NP'
p172
g5
tp173
a(S'intervention'
p174
S'intervention'
p175
S'NN'
p176
S'I-NP'
p177
g5
tp178
a(S'for'
p179
S'for'
p180
S'IN'
p181
S'B-PP'
p182
g5
tp183
a(S'children'
p184
S'child'
p185
S'NNS'
p186
S'B-NP'
p187
g5
tp188
a(S'with'
p189
S'with'
p190
S'IN'
p191
S'B-PP'
p192
g5
tp193
a(S'autism'
p194
S'autism'
p195
S'NN'
p196
S'B-NP'
p197
g5
tp198
a(S'spectrum'
p199
S'spectrum'
p200
S'NN'
p201
S'I-NP'
p202
g5
tp203
a(S'disorder'
p204
S'disorder'
p205
S'NN'
p206
S'I-NP'
p207
g5
tp208
a(S'('
p209
g209
g209
g5
g5
tp210
a(S'ASD'
p211
S'ASD'
p212
S'NN'
p213
S'B-NP'
p214
g5
tp215
a(S')'
p216
g216
g216
g5
g5
tp217
a(g86
g86
g86
g5
g5
tp218
a(S'Participants'
p219
S'Participant'
p220
S'NNPS'
p221
S'B-NP'
p222
g5
tp223
a(S'were'
p224
S'be'
p225
S'VBD'
p226
S'B-VP'
p227
g5
tp228
a(S'drawn'
p229
S'draw'
p230
S'VBN'
p231
S'I-VP'
p232
g5
tp233
a(S'from'
p234
S'from'
p235
S'IN'
p236
S'B-PP'
p237
g5
tp238
a(g32
g32
S'DT'
p239
S'B-NP'
p240
g5
tp241
a(S'randomized-controlled-treatment'
p242
S'randomized-controlled-treatment'
p243
S'JJ'
p244
S'I-NP'
p245
g5
tp246
a(S'trial'
p247
S'trial'
p248
S'NN'
p249
S'I-NP'
p250
g5
tp251
a(S'that'
p252
S'that'
p253
S'WDT'
p254
S'B-NP'
p255
g5
tp256
a(S'examined'
p257
S'examine'
p258
S'VBD'
p259
S'B-VP'
p260
g5
tp261
a(S'the'
p262
S'the'
p263
S'DT'
p264
S'B-NP'
p265
g5
tp266
a(S'effects'
p267
S'effect'
p268
S'NNS'
p269
S'I-NP'
p270
g5
tp271
a(S'of'
p272
S'of'
p273
S'IN'
p274
S'B-PP'
p275
g5
tp276
a(S'targeted'
p277
S'target'
p278
S'VBN'
p279
S'B-NP'
p280
g5
tp281
a(S'interventions'
p282
S'intervention'
p283
S'NNS'
p284
S'I-NP'
p285
g5
tp286
a(S'on'
p287
S'on'
p288
S'IN'
p289
S'B-PP'
p290
g5
tp291
a(S'the'
p292
S'the'
p293
S'DT'
p294
S'B-NP'
p295
g5
tp296
a(S'social'
p297
S'social'
p298
S'JJ'
p299
S'I-NP'
p300
g5
tp301
a(S'networks'
p302
S'network'
p303
S'NNS'
p304
S'I-NP'
p305
g5
tp306
a(S'of'
p307
S'of'
p308
S'IN'
p309
S'B-PP'
p310
g5
tp311
a(S'60'
p312
S'60'
p313
S'CD'
p314
S'B-NP'
p315
g5
tp316
a(S'elementary-aged'
p317
S'elementary-aged'
p318
S'JJ'
p319
S'I-NP'
p320
g5
tp321
a(S'children'
p322
S'child'
p323
S'NNS'
p324
S'I-NP'
p325
g5
tp326
a(S'with'
p327
S'with'
p328
S'IN'
p329
S'B-PP'
p330
g5
tp331
a(S'ASD.'
p332
S'ASD.'
p333
S'NNP'
p334
S'B-NP'
p335
g5
tp336
a(S'Results'
p337
S'Results'
p338
S'NNP'
p339
S'I-NP'
p340
g5
tp341
a(S'demonstrated'
p342
S'demonstrate'
p343
S'VBD'
p344
S'B-VP'
p345
g5
tp346
a(S'that'
p347
S'that'
p348
S'IN'
p349
S'B-SBAR'
p350
g5
tp351
a(S'typical'
p352
S'typical'
p353
S'JJ'
p354
S'B-NP'
p355
g5
tp356
a(S'peer'
p357
S'peer'
p358
S'NN'
p359
S'I-NP'
p360
g5
tp361
a(S'models'
p362
S'model'
p363
S'NNS'
p364
S'I-NP'
p365
g5
tp366
a(S'had'
p367
S'have'
p368
S'VBD'
p369
S'B-VP'
p370
g5
tp371
a(S'higher'
p372
S'high'
p373
S'JJR'
p374
S'B-NP'
p375
g5
tp376
a(S'social'
p377
S'social'
p378
S'JJ'
p379
S'I-NP'
p380
g5
tp381
a(S'network'
p382
S'network'
p383
S'NN'
p384
S'I-NP'
p385
g5
tp386
a(S'centrality'
p387
S'centrality'
p388
S'NN'
p389
S'I-NP'
p390
g5
tp391
a(S','
p392
g392
g392
g5
g5
tp393
a(S'received'
p394
S'receive'
p395
S'VBD'
p396
S'B-VP'
p397
g5
tp398
a(S'friendships'
p399
S'friendship'
p400
S'NNS'
p401
S'B-NP'
p402
g5
tp403
a(g392
g392
g392
g5
g5
tp404
a(S'friendship'
p405
S'friendship'
p406
S'NN'
p407
S'B-NP'
p408
g5
tp409
a(S'quality'
p410
S'quality'
p411
S'NN'
p412
S'I-NP'
p413
g5
tp414
a(g392
g392
g392
g5
g5
tp415
a(S'and'
p416
S'and'
p417
S'CC'
p418
g5
g5
tp419
a(S'less'
p420
S'less'
p421
S'JJR'
p422
S'B-NP'
p423
g5
tp424
a(S'loneliness'
p425
S'loneliness'
p426
S'NN'
p427
S'I-NP'
p428
g5
tp429
a(S'than'
p430
S'than'
p431
S'IN'
p432
S'B-PP'
p433
g5
tp434
a(S'non-peer'
p435
S'non-peer'
p436
S'JJ'
p437
S'B-NP'
p438
S'B-cell_line'
p439
tp440
a(S'models.'
p441
S'models.'
p442
S'NN'
p443
S'I-NP'
p444
S'I-cell_line'
p445
tp446
a(S'Peer'
p447
S'Peer'
p448
S'NNP'
p449
S'I-NP'
p450
S'I-cell_line'
p451
tp452
a(S'models'
p453
S'model'
p454
S'NNS'
p455
S'I-NP'
p456
S'I-cell_line'
p457
tp458
a(S'were'
p459
S'be'
p460
S'VBD'
p461
S'B-VP'
p462
g5
tp463
a(S'also'
p464
S'also'
p465
S'RB'
p466
S'B-ADVP'
p467
g5
tp468
a(S'more'
p469
S'more'
p470
S'RBR'
p471
S'B-ADJP'
p472
g5
tp473
a(S'likely'
p474
S'likely'
p475
S'JJ'
p476
S'I-ADJP'
p477
g5
tp478
a(S'to'
p479
S'to'
p480
S'TO'
p481
S'B-VP'
p482
g5
tp483
a(S'be'
p484
S'be'
p485
S'VB'
p486
S'I-VP'
p487
g5
tp488
a(S'connected'
p489
S'connect'
p490
S'VBN'
p491
S'I-VP'
p492
g5
tp493
a(S'with'
p494
S'with'
p495
S'IN'
p496
S'B-PP'
p497
g5
tp498
a(S'children'
p499
S'child'
p500
S'NNS'
p501
S'B-NP'
p502
g5
tp503
a(S'with'
p504
S'with'
p505
S'IN'
p506
S'B-PP'
p507
g5
tp508
a(S'ASD'
p509
S'ASD'
p510
S'NN'
p511
S'B-NP'
p512
g5
tp513
a(S'than'
p514
S'than'
p515
S'IN'
p516
S'B-PP'
p517
g5
tp518
a(S'non-peer'
p519
S'non-peer'
p520
S'JJ'
p521
S'B-NP'
p522
g5
tp523
a(S'models'
p524
S'model'
p525
S'NNS'
p526
S'I-NP'
p527
g5
tp528
a(S'at'
p529
S'at'
p530
S'IN'
p531
S'B-PP'
p532
g5
tp533
a(S'baseline'
p534
S'baseline'
p535
S'NN'
p536
S'B-NP'
p537
g5
tp538
a(S'and'
p539
S'and'
p540
S'CC'
p541
g5
g5
tp542
a(S'exit.'
p543
S'exit.'
p544
S'VB'
p545
S'B-VP'
p546
g5
tp547
a(S'These'
p548
S'These'
p549
S'DT'
p550
S'B-NP'
p551
g5
tp552
a(S'results'
p553
S'result'
p554
S'NNS'
p555
S'I-NP'
p556
g5
tp557
a(S'suggest'
p558
S'suggest'
p559
S'VBP'
p560
S'B-VP'
p561
g5
tp562
a(S'that'
p563
S'that'
p564
S'IN'
p565
S'B-SBAR'
p566
g5
tp567
a(S'typical'
p568
S'typical'
p569
S'JJ'
p570
S'B-NP'
p571
g5
tp572
a(S'peers'
p573
S'peer'
p574
S'NNS'
p575
S'I-NP'
p576
g5
tp577
a(S'can'
p578
S'can'
p579
S'MD'
p580
S'B-VP'
p581
g5
tp582
a(S'be'
p583
S'be'
p584
S'VB'
p585
S'I-VP'
p586
g5
tp587
a(S'socially'
p588
S'socially'
p589
S'RB'
p590
S'I-VP'
p591
g5
tp592
a(S'connected'
p593
S'connect'
p594
S'VBN'
p595
S'I-VP'
p596
g5
tp597
a(S'to'
p598
S'to'
p599
S'TO'
p600
S'B-PP'
p601
g5
tp602
a(S'children'
p603
S'child'
p604
S'NNS'
p605
S'B-NP'
p606
g5
tp607
a(S'with'
p608
S'with'
p609
S'IN'
p610
S'B-PP'
p611
g5
tp612
a(S'ASD'
p613
S'ASD'
p614
S'NN'
p615
S'B-NP'
p616
g5
tp617
a(g392
g392
g392
g5
g5
tp618
a(S'as'
p619
S'as'
p620
S'RB'
p621
S'B-CONJP'
p622
g5
tp623
a(S'well'
p624
S'well'
p625
S'RB'
p626
S'I-CONJP'
p627
g5
tp628
a(S'as'
p629
S'as'
p630
S'IN'
p631
S'I-CONJP'
p632
g5
tp633
a(S'other'
p634
S'other'
p635
S'JJ'
p636
S'B-NP'
p637
g5
tp638
a(S'classmates'
p639
S'classmate'
p640
S'NNS'
p641
S'I-NP'
p642
g5
tp643
a(g392
g392
g392
g5
g5
tp644
a(S'and'
p645
S'and'
p646
S'CC'
p647
g5
g5
tp648
a(S'maintain'
p649
S'maintain'
p650
S'VBP'
p651
S'B-VP'
p652
g5
tp653
a(g32
g32
S'DT'
p654
S'B-NP'
p655
g5
tp656
a(S'strong'
p657
S'strong'
p658
S'JJ'
p659
S'I-NP'
p660
g5
tp661
a(S'and'
p662
S'and'
p663
S'CC'
p664
S'I-NP'
p665
g5
tp666
a(S'positive'
p667
S'positive'
p668
S'JJ'
p669
S'I-NP'
p670
g5
tp671
a(S'role'
p672
S'role'
p673
S'NN'
p674
S'I-NP'
p675
g5
tp676
a(S'within'
p677
S'within'
p678
S'IN'
p679
S'B-PP'
p680
g5
tp681
a(S'the'
p682
S'the'
p683
S'DT'
p684
S'B-NP'
p685
g5
tp686
a(S'classroom'
p687
S'classroom'
p688
S'NN'
p689
S'I-NP'
p690
g5
tp691
a(g86
g86
g86
g5
g5
tp692
a.