(lp0
(S'Vitrectomy'
p1
S'Vitrectomy'
p2
S'NN'
p3
S'B-NP'
p4
S'O'
p5
tp6
a(S'with'
p7
S'with'
p8
S'IN'
p9
S'B-PP'
p10
g5
tp11
a(S'silicone'
p12
S'silicone'
p13
S'NN'
p14
S'B-NP'
p15
g5
tp16
a(S'oil'
p17
S'oil'
p18
S'NN'
p19
S'I-NP'
p20
g5
tp21
a(S'or'
p22
S'or'
p23
S'CC'
p24
g5
g5
tp25
a(S'long-acting'
p26
S'long-acting'
p27
S'JJ'
p28
S'B-NP'
p29
g5
tp30
a(S'gas'
p31
S'gas'
p32
S'NN'
p33
S'I-NP'
p34
g5
tp35
a(S'in'
p36
S'in'
p37
S'IN'
p38
S'B-PP'
p39
g5
tp40
a(S'eyes'
p41
S'eye'
p42
S'NNS'
p43
S'B-NP'
p44
g5
tp45
a(S'with'
p46
S'with'
p47
S'IN'
p48
S'B-PP'
p49
g5
tp50
a(S'severe'
p51
S'severe'
p52
S'JJ'
p53
S'B-NP'
p54
g5
tp55
a(S'proliferative'
p56
S'proliferative'
p57
S'JJ'
p58
S'I-NP'
p59
g5
tp60
a(S'vitreoretinopathy'
p61
S'vitreoretinopathy'
p62
S'NN'
p63
S'I-NP'
p64
g5
tp65
a(S':'
p66
g66
g66
g5
g5
tp67
a(S'results'
p68
S'result'
p69
S'NNS'
p70
S'B-NP'
p71
g5
tp72
a(S'of'
p73
S'of'
p74
S'IN'
p75
S'B-PP'
p76
g5
tp77
a(S'additional'
p78
S'additional'
p79
S'JJ'
p80
S'B-NP'
p81
g5
tp82
a(S'and'
p83
S'and'
p84
S'CC'
p85
S'I-NP'
p86
g5
tp87
a(S'long-term'
p88
S'long-term'
p89
S'JJ'
p90
S'I-NP'
p91
g5
tp92
a(S'follow-up.'
p93
S'follow-up.'
p94
S'JJ'
p95
S'I-NP'
p96
g5
tp97
a(S'Silicone'
p98
S'Silicone'
p99
S'NN'
p100
S'I-NP'
p101
g5
tp102
a(S'Study'
p103
S'Study'
p104
S'NN'
p105
S'I-NP'
p106
g5
tp107
a(S'report'
p108
S'report'
p109
S'NN'
p110
S'I-NP'
p111
g5
tp112
a(S'11'
p113
S'11'
p114
S'CD'
p115
S'I-NP'
p116
g5
tp117
a(S'.'
p118
g118
g118
g5
g5
tp119
a(S'BACKGROUND'
p120
S'BACKGROUND'
p121
S'NN'
p122
S'B-NP'
p123
g5
tp124
a(S'The'
p125
S'The'
p126
S'DT'
p127
S'B-NP'
p128
g5
tp129
a(S'Silicone'
p130
S'Silicone'
p131
S'NNP'
p132
S'I-NP'
p133
g5
tp134
a(S'Study'
p135
S'Study'
p136
S'NNP'
p137
S'I-NP'
p138
g5
tp139
a(S'evaluated'
p140
S'evaluate'
p141
S'VBD'
p142
S'B-VP'
p143
g5
tp144
a(S'the'
p145
S'the'
p146
S'DT'
p147
S'B-NP'
p148
g5
tp149
a(S'outcomes'
p150
S'outcome'
p151
S'NNS'
p152
S'I-NP'
p153
g5
tp154
a(S'of'
p155
S'of'
p156
S'IN'
p157
S'B-PP'
p158
g5
tp159
a(S'vitreoretinal'
p160
S'vitreoretinal'
p161
S'JJ'
p162
S'B-NP'
p163
g5
tp164
a(S'surgery'
p165
S'surgery'
p166
S'NN'
p167
S'I-NP'
p168
g5
tp169
a(S'for'
p170
S'for'
p171
S'IN'
p172
S'B-PP'
p173
g5
tp174
a(S'retinal'
p175
S'retinal'
p176
S'JJ'
p177
S'B-NP'
p178
g5
tp179
a(S'detachment'
p180
S'detachment'
p181
S'NN'
p182
S'I-NP'
p183
g5
tp184
a(S'with'
p185
S'with'
p186
S'IN'
p187
S'B-PP'
p188
g5
tp189
a(S'proliferative'
p190
S'proliferative'
p191
S'JJ'
p192
S'B-NP'
p193
g5
tp194
a(S'vitreoretinopathy'
p195
S'vitreoretinopathy'
p196
S'NN'
p197
S'I-NP'
p198
g5
tp199
a(S'('
p200
g200
g200
g5
g5
tp201
a(S'PVR'
p202
S'PVR'
p203
S'NN'
p204
S'B-NP'
p205
S'B-protein'
p206
tp207
a(S')'
p208
g208
g208
g5
g5
tp209
a(g118
g118
g118
g5
g5
tp210
a(S'OBJECTIVE'
p211
S'OBJECTIVE'
p212
S'NN'
p213
S'B-NP'
p214
g5
tp215
a(S'To'
p216
S'To'
p217
S'TO'
p218
S'B-VP'
p219
g5
tp220
a(S'evaluate'
p221
S'evaluate'
p222
S'VB'
p223
S'I-VP'
p224
g5
tp225
a(S'short-term'
p226
S'short-term'
p227
S'JJ'
p228
S'B-ADJP'
p229
g5
tp230
a(g200
g200
g200
g5
g5
tp231
a(S'up'
p232
S'up'
p233
S'RB'
p234
S'B-NP'
p235
g5
tp236
a(S'to'
p237
S'to'
p238
S'TO'
p239
S'I-NP'
p240
g5
tp241
a(S'36'
p242
S'36'
p243
S'CD'
p244
S'I-NP'
p245
g5
tp246
a(S'months'
p247
S'month'
p248
S'NNS'
p249
S'I-NP'
p250
g5
tp251
a(g208
g208
g208
g5
g5
tp252
a(S'outcomes'
p253
S'outcome'
p254
S'VBZ'
p255
S'B-VP'
p256
g5
tp257
a(S'in'
p258
S'in'
p259
S'IN'
p260
S'B-PP'
p261
g5
tp262
a(S'eyes'
p263
S'eye'
p264
S'NNS'
p265
S'B-NP'
p266
g5
tp267
a(S'randomized'
p268
S'randomize'
p269
S'VBN'
p270
S'B-VP'
p271
g5
tp272
a(S'to'
p273
S'to'
p274
S'TO'
p275
S'B-PP'
p276
g5
tp277
a(S'silicone'
p278
S'silicone'
p279
S'NN'
p280
S'B-NP'
p281
g5
tp282
a(S'oil'
p283
S'oil'
p284
S'NN'
p285
S'I-NP'
p286
g5
tp287
a(S'or'
p288
S'or'
p289
S'CC'
p290
S'I-NP'
p291
g5
tp292
a(S'perfluoropropane'
p293
S'perfluoropropane'
p294
S'NN'
p295
S'I-NP'
p296
g5
tp297
a(S'gas'
p298
S'gas'
p299
S'NN'
p300
S'I-NP'
p301
g5
tp302
a(S'and'
p303
S'and'
p304
S'CC'
p305
g5
g5
tp306
a(S'long-term'
p307
S'long-term'
p308
S'JJ'
p309
S'B-ADJP'
p310
g5
tp311
a(g200
g200
g200
g5
g5
tp312
a(S'up'
p313
S'up'
p314
S'RB'
p315
S'B-NP'
p316
g5
tp317
a(S'to'
p318
S'to'
p319
S'TO'
p320
S'I-NP'
p321
g5
tp322
a(S'72'
p323
S'72'
p324
S'CD'
p325
S'I-NP'
p326
g5
tp327
a(S'months'
p328
S'month'
p329
S'NNS'
p330
S'I-NP'
p331
g5
tp332
a(g208
g208
g208
g5
g5
tp333
a(S'outcomes'
p334
S'outcome'
p335
S'VBZ'
p336
S'B-VP'
p337
g5
tp338
a(S'in'
p339
S'in'
p340
S'IN'
p341
S'B-PP'
p342
g5
tp343
a(S'eyes'
p344
S'eye'
p345
S'NNS'
p346
S'B-NP'
p347
g5
tp348
a(S'with'
p349
S'with'
p350
S'IN'
p351
S'B-PP'
p352
g5
tp353
a(S'attached'
p354
S'attach'
p355
S'VBN'
p356
S'B-NP'
p357
g5
tp358
a(S'maculas'
p359
S'macula'
p360
S'NNS'
p361
S'I-NP'
p362
g5
tp363
a(S'at'
p364
S'at'
p365
S'IN'
p366
S'B-PP'
p367
g5
tp368
a(S'36'
p369
S'36'
p370
S'CD'
p371
S'B-NP'
p372
g5
tp373
a(S'months'
p374
S'month'
p375
S'NNS'
p376
S'I-NP'
p377
g5
tp378
a(g118
g118
g118
g5
g5
tp379
a(S'DESIGN'
p380
S'DESIGN'
p381
S'NNP'
p382
S'B-NP'
p383
g5
tp384
a(S'Prospective'
p385
S'Prospective'
p386
S'NNP'
p387
S'I-NP'
p388
g5
tp389
a(S','
p390
g390
g390
g5
g5
tp391
a(S'randomized'
p392
S'randomize'
p393
S'VBN'
p394
S'B-NP'
p395
g5
tp396
a(g390
g390
g390
S'I-NP'
p397
g5
tp398
a(S'multicentered'
p399
S'multicentered'
p400
S'JJ'
p401
S'I-NP'
p402
g5
tp403
a(S'surgical'
p404
S'surgical'
p405
S'JJ'
p406
S'I-NP'
p407
g5
tp408
a(S'trial'
p409
S'trial'
p410
S'NN'
p411
S'I-NP'
p412
g5
tp413
a(g118
g118
g118
g5
g5
tp414
a(S'SETTING'
p415
S'SETTING'
p416
S'VBG'
p417
S'B-VP'
p418
g5
tp419
a(S'Community-'
p420
S'Community-'
p421
S'JJ'
p422
S'B-NP'
p423
g5
tp424
a(S'and'
p425
S'and'
p426
S'CC'
p427
S'I-NP'
p428
g5
tp429
a(S'university-based'
p430
S'university-based'
p431
S'JJ'
p432
S'I-NP'
p433
g5
tp434
a(S'vitreoretinal'
p435
S'vitreoretinal'
p436
S'JJ'
p437
S'I-NP'
p438
g5
tp439
a(S'practices'
p440
S'practice'
p441
S'NNS'
p442
S'I-NP'
p443
g5
tp444
a(g118
g118
g118
g5
g5
tp445
a(S'PATIENTS'
p446
S'PATIENTS'
p447
S'NNS'
p448
S'B-NP'
p449
g5
tp450
a(S'Two-hundred'
p451
S'Two-hundred'
p452
S'CD'
p453
S'B-NP'
p454
g5
tp455
a(S'sixty-five'
p456
S'sixty-five'
p457
S'JJ'
p458
S'I-NP'
p459
g5
tp460
a(S'eyes'
p461
S'eye'
p462
S'NNS'
p463
S'I-NP'
p464
g5
tp465
a(S'with'
p466
S'with'
p467
S'IN'
p468
S'B-PP'
p469
g5
tp470
a(S'PVR'
p471
S'PVR'
p472
S'NN'
p473
S'B-NP'
p474
S'B-protein'
p475
tp476
a(S'randomized'
p477
S'randomize'
p478
S'VBN'
p479
S'B-VP'
p480
g5
tp481
a(S'to'
p482
S'to'
p483
S'TO'
p484
S'B-PP'
p485
g5
tp486
a(S'perfluoropropane'
p487
S'perfluoropropane'
p488
S'NN'
p489
S'B-NP'
p490
g5
tp491
a(S'gas'
p492
S'gas'
p493
S'NN'
p494
S'I-NP'
p495
g5
tp496
a(S'and'
p497
S'and'
p498
S'CC'
p499
g5
g5
tp500
a(S'silicone'
p501
S'silicone'
p502
S'NN'
p503
S'B-NP'
p504
g5
tp505
a(S'oil'
p506
S'oil'
p507
S'NN'
p508
S'I-NP'
p509
g5
tp510
a(S'with'
p511
S'with'
p512
S'IN'
p513
S'B-PP'
p514
g5
tp515
a(S'follow-up'
p516
S'follow-up'
p517
S'NN'
p518
S'B-NP'
p519
g5
tp520
a(S'through'
p521
S'through'
p522
S'IN'
p523
S'B-PP'
p524
g5
tp525
a(S'3'
p526
g526
S'CD'
p527
S'B-NP'
p528
g5
tp529
a(S'years'
p530
S'year'
p531
S'NNS'
p532
S'I-NP'
p533
g5
tp534
a(g200
g200
g200
g5
g5
tp535
a(S'cohort'
p536
S'cohort'
p537
S'NN'
p538
S'B-NP'
p539
g5
tp540
a(S'1'
p541
g541
S'CD'
p542
S'I-NP'
p543
g5
tp544
a(g208
g208
g208
g5
g5
tp545
a(S'and'
p546
S'and'
p547
S'CC'
p548
g5
g5
tp549
a(S'249'
p550
S'249'
p551
S'CD'
p552
S'B-NP'
p553
g5
tp554
a(S'eyes'
p555
S'eye'
p556
S'NNS'
p557
S'I-NP'
p558
g5
tp559
a(S'with'
p560
S'with'
p561
S'IN'
p562
S'B-PP'
p563
g5
tp564
a(S'attached'
p565
S'attach'
p566
S'VBN'
p567
S'B-NP'
p568
g5
tp569
a(S'maculas'
p570
S'macula'
p571
S'NNS'
p572
S'I-NP'
p573
g5
tp574
a(S'at'
p575
S'at'
p576
S'IN'
p577
S'B-PP'
p578
g5
tp579
a(S'36'
p580
S'36'
p581
S'CD'
p582
S'B-NP'
p583
g5
tp584
a(S'months'
p585
S'month'
p586
S'NNS'
p587
S'I-NP'
p588
g5
tp589
a(g200
g200
g200
g5
g5
tp590
a(S'121'
p591
S'121'
p592
S'CD'
p593
S'B-NP'
p594
g5
tp595
a(S'eyes'
p596
S'eye'
p597
S'NNS'
p598
S'I-NP'
p599
g5
tp600
a(S'randomized'
p601
S'randomize'
p602
S'VBN'
p603
S'B-VP'
p604
g5
tp605
a(S'to'
p606
S'to'
p607
S'TO'
p608
S'B-PP'
p609
g5
tp610
a(S'long-acting'
p611
S'long-acting'
p612
S'JJ'
p613
S'B-NP'
p614
g5
tp615
a(S'gas'
p616
S'gas'
p617
S'NN'
p618
S'I-NP'
p619
g5
tp620
a(S'['
p621
g621
g200
g5
g5
tp622
a(S'either'
p623
S'either'
p624
S'CC'
p625
g5
g5
tp626
a(S'sulfur'
p627
S'sulfur'
p628
S'NN'
p629
S'B-NP'
p630
g5
tp631
a(S'hexafluoride'
p632
S'hexafluoride'
p633
S'NN'
p634
S'I-NP'
p635
g5
tp636
a(S'or'
p637
S'or'
p638
S'CC'
p639
g5
g5
tp640
a(S'perfluoropropane'
p641
S'perfluoropropane'
p642
S'NN'
p643
S'B-NP'
p644
g5
tp645
a(S']'
p646
g646
g208
g5
g5
tp647
a(S'and'
p648
S'and'
p649
S'CC'
p650
g5
g5
tp651
a(S'128'
p652
S'128'
p653
S'CD'
p654
S'B-NP'
p655
g5
tp656
a(S'eyes'
p657
S'eye'
p658
S'NNS'
p659
S'I-NP'
p660
g5
tp661
a(S'randomized'
p662
S'randomize'
p663
S'VBN'
p664
S'B-VP'
p665
g5
tp666
a(S'to'
p667
S'to'
p668
S'TO'
p669
S'B-PP'
p670
g5
tp671
a(S'silicone'
p672
S'silicone'
p673
S'NN'
p674
S'B-NP'
p675
g5
tp676
a(S'oil'
p677
S'oil'
p678
S'NN'
p679
S'I-NP'
p680
g5
tp681
a(g208
g208
g208
g5
g5
tp682
a(S'with'
p683
S'with'
p684
S'IN'
p685
S'B-PP'
p686
g5
tp687
a(S'follow-up'
p688
S'follow-up'
p689
S'NN'
p690
S'B-NP'
p691
g5
tp692
a(S'up'
p693
S'up'
p694
S'RB'
p695
S'B-NP'
p696
g5
tp697
a(S'to'
p698
S'to'
p699
S'TO'
p700
S'I-NP'
p701
g5
tp702
a(S'6'
p703
g703
S'CD'
p704
S'I-NP'
p705
g5
tp706
a(S'years'
p707
S'year'
p708
S'NNS'
p709
S'I-NP'
p710
g5
tp711
a(g200
g200
g200
g5
g5
tp712
a(S'cohort'
p713
S'cohort'
p714
S'JJ'
p715
S'B-NP'
p716
g5
tp717
a(S'2'
p718
g718
S'CD'
p719
S'I-NP'
p720
g5
tp721
a(g208
g208
g208
g5
g5
tp722
a(g118
g118
g118
g5
g5
tp723
a(S'Both'
p724
S'Both'
p725
S'DT'
p726
S'B-NP'
p727
g5
tp728
a(S'cohorts'
p729
S'cohort'
p730
S'NNS'
p731
S'I-NP'
p732
g5
tp733
a(S'consisted'
p734
S'consist'
p735
S'VBD'
p736
S'B-VP'
p737
g5
tp738
a(S'of'
p739
S'of'
p740
S'IN'
p741
S'B-PP'
p742
g5
tp743
a(S'eyes'
p744
S'eye'
p745
S'NNS'
p746
S'B-NP'
p747
g5
tp748
a(S'that'
p749
S'that'
p750
S'WDT'
p751
S'B-NP'
p752
g5
tp753
a(S'had'
p754
S'have'
p755
S'VBD'
p756
S'B-VP'
p757
g5
tp758
a(S'and'
p759
S'and'
p760
S'CC'
p761
S'I-VP'
p762
g5
tp763
a(S'had'
p764
S'have'
p765
S'VBD'
p766
S'I-VP'
p767
g5
tp768
a(S'not'
p769
S'not'
p770
S'RB'
p771
S'B-VP'
p772
g5
tp773
a(S'undergone'
p774
S'undergo'
p775
S'VBN'
p776
S'I-VP'
p777
g5
tp778
a(S'vitrectomy'
p779
S'vitrectomy'
p780
S'NN'
p781
S'B-NP'
p782
g5
tp783
a(S'for'
p784
S'for'
p785
S'IN'
p786
S'B-PP'
p787
g5
tp788
a(S'PVR'
p789
S'PVR'
p790
S'NN'
p791
S'B-NP'
p792
S'B-protein'
p793
tp794
a(g200
g200
g200
g5
g5
tp795
a(S'groups'
p796
S'group'
p797
S'NNS'
p798
S'B-NP'
p799
g5
tp800
a(g541
g541
S'CD'
p801
S'I-NP'
p802
g5
tp803
a(S'and'
p804
S'and'
p805
S'CC'
p806
S'I-NP'
p807
g5
tp808
a(g718
g718
S'CD'
p809
S'I-NP'
p810
g5
tp811
a(g390
g390
g390
g5
g5
tp812
a(S'respectively'
p813
S'respectively'
p814
S'RB'
p815
S'B-ADVP'
p816
g5
tp817
a(g208
g208
g208
g5
g5
tp818
a(S'before'
p819
S'before'
p820
S'IN'
p821
S'B-PP'
p822
g5
tp823
a(S'randomization.'
p824
S'randomization.'
p825
S'NN'
p826
S'B-NP'
p827
g5
tp828
a(S'Of'
p829
S'Of'
p830
S'IN'
p831
S'B-PP'
p832
g5
tp833
a(S'the'
p834
S'the'
p835
S'DT'
p836
S'B-NP'
p837
g5
tp838
a(S'265'
p839
S'265'
p840
S'CD'
p841
S'I-NP'
p842
g5
tp843
a(S'eyes'
p844
S'eye'
p845
S'NNS'
p846
S'I-NP'
p847
g5
tp848
a(S'in'
p849
S'in'
p850
S'IN'
p851
S'B-PP'
p852
g5
tp853
a(S'cohort'
p854
S'cohort'
p855
S'JJ'
p856
S'B-NP'
p857
g5
tp858
a(g541
g541
S'CD'
p859
S'I-NP'
p860
g5
tp861
a(g390
g390
g390
g5
g5
tp862
a(S'24-month'
p863
S'24-month'
p864
S'JJ'
p865
S'B-NP'
p866
g5
tp867
a(S'follow-up'
p868
S'follow-up'
p869
S'NN'
p870
S'I-NP'
p871
g5
tp872
a(S'data'
p873
S'datum'
p874
S'NNS'
p875
S'I-NP'
p876
g5
tp877
a(S'were'
p878
S'be'
p879
S'VBD'
p880
S'B-VP'
p881
g5
tp882
a(S'available'
p883
S'available'
p884
S'JJ'
p885
S'B-ADJP'
p886
g5
tp887
a(S'for'
p888
S'for'
p889
S'IN'
p890
S'B-PP'
p891
g5
tp892
a(S'218'
p893
S'218'
p894
S'CD'
p895
S'B-NP'
p896
g5
tp897
a(S'eyes'
p898
S'eye'
p899
S'NNS'
p900
S'I-NP'
p901
g5
tp902
a(g200
g200
g200
g5
g5
tp903
a(S'82'
p904
S'82'
p905
S'CD'
p906
S'B-NP'
p907
g5
tp908
a(S'%'
p909
g909
S'NN'
p910
S'I-NP'
p911
g5
tp912
a(g208
g208
g208
g5
g5
tp913
a(S'and'
p914
S'and'
p915
S'CC'
p916
g5
g5
tp917
a(S'36-month'
p918
S'36-month'
p919
S'JJ'
p920
S'B-NP'
p921
g5
tp922
a(S'follow-up'
p923
S'follow-up'
p924
S'JJ'
p925
S'I-NP'
p926
g5
tp927
a(S'data'
p928
S'datum'
p929
S'NNS'
p930
S'I-NP'
p931
g5
tp932
a(S'were'
p933
S'be'
p934
S'VBD'
p935
S'B-VP'
p936
g5
tp937
a(S'available'
p938
S'available'
p939
S'JJ'
p940
S'B-ADJP'
p941
g5
tp942
a(S'for'
p943
S'for'
p944
S'IN'
p945
S'B-PP'
p946
g5
tp947
a(S'196'
p948
S'196'
p949
S'CD'
p950
S'B-NP'
p951
g5
tp952
a(S'eyes'
p953
S'eye'
p954
S'NNS'
p955
S'I-NP'
p956
g5
tp957
a(g200
g200
g200
g5
g5
tp958
a(S'74'
p959
S'74'
p960
S'CD'
p961
S'B-NP'
p962
g5
tp963
a(g909
g909
S'NN'
p964
S'I-NP'
p965
g5
tp966
a(g208
g208
g208
g5
g5
tp967
a(g118
g118
g118
g5
g5
tp968
a(S'Of'
p969
S'Of'
p970
S'IN'
p971
S'B-PP'
p972
g5
tp973
a(S'208'
p974
S'208'
p975
S'CD'
p976
S'B-NP'
p977
g5
tp978
a(S'eyes'
p979
S'eye'
p980
S'NNS'
p981
S'I-NP'
p982
g5
tp983
a(S'in'
p984
S'in'
p985
S'IN'
p986
S'B-PP'
p987
g5
tp988
a(S'cohort'
p989
S'cohort'
p990
S'JJ'
p991
S'B-NP'
p992
g5
tp993
a(g718
g718
S'CD'
p994
S'I-NP'
p995
g5
tp996
a(g390
g390
g390
g5
g5
tp997
a(S'48-month'
p998
S'48-month'
p999
S'JJ'
p1000
S'B-NP'
p1001
g5
tp1002
a(S'follow-up'
p1003
S'follow-up'
p1004
S'NN'
p1005
S'I-NP'
p1006
g5
tp1007
a(S'data'
p1008
S'datum'
p1009
S'NNS'
p1010
S'I-NP'
p1011
g5
tp1012
a(S'were'
p1013
S'be'
p1014
S'VBD'
p1015
S'B-VP'
p1016
g5
tp1017
a(S'available'
p1018
S'available'
p1019
S'JJ'
p1020
S'B-ADJP'
p1021
g5
tp1022
a(S'for'
p1023
S'for'
p1024
S'IN'
p1025
S'B-PP'
p1026
g5
tp1027
a(S'146'
p1028
S'146'
p1029
S'CD'
p1030
S'B-NP'
p1031
g5
tp1032
a(S'eyes'
p1033
S'eye'
p1034
S'NNS'
p1035
S'I-NP'
p1036
g5
tp1037
a(g200
g200
g200
g5
g5
tp1038
a(S'70'
p1039
S'70'
p1040
S'CD'
p1041
S'B-NP'
p1042
g5
tp1043
a(g909
g909
S'NN'
p1044
S'I-NP'
p1045
g5
tp1046
a(g208
g208
g208
g5
g5
tp1047
a(g390
g390
g390
g5
g5
tp1048
a(S'60-month'
p1049
S'60-month'
p1050
S'JJ'
p1051
S'B-NP'
p1052
g5
tp1053
a(S'follow-up'
p1054
S'follow-up'
p1055
S'JJ'
p1056
S'I-NP'
p1057
g5
tp1058
a(S'data'
p1059
S'datum'
p1060
S'NNS'
p1061
S'I-NP'
p1062
g5
tp1063
a(S'for'
p1064
S'for'
p1065
S'IN'
p1066
S'B-PP'
p1067
g5
tp1068
a(S'119'
p1069
S'119'
p1070
S'CD'
p1071
S'B-NP'
p1072
g5
tp1073
a(S'eyes'
p1074
S'eye'
p1075
S'NNS'
p1076
S'I-NP'
p1077
g5
tp1078
a(g200
g200
g200
g5
g5
tp1079
a(S'57'
p1080
S'57'
p1081
S'CD'
p1082
S'B-NP'
p1083
g5
tp1084
a(g909
g909
S'NN'
p1085
S'I-NP'
p1086
g5
tp1087
a(g208
g208
g208
g5
g5
tp1088
a(g390
g390
g390
g5
g5
tp1089
a(S'and'
p1090
S'and'
p1091
S'CC'
p1092
g5
g5
tp1093
a(S'72-month'
p1094
S'72-month'
p1095
S'JJ'
p1096
S'B-NP'
p1097
g5
tp1098
a(S'follow-up'
p1099
S'follow-up'
p1100
S'JJ'
p1101
S'I-NP'
p1102
g5
tp1103
a(S'data'
p1104
S'datum'
p1105
S'NNS'
p1106
S'I-NP'
p1107
g5
tp1108
a(S'for'
p1109
S'for'
p1110
S'IN'
p1111
S'B-PP'
p1112
g5
tp1113
a(S'73'
p1114
S'73'
p1115
S'CD'
p1116
S'B-NP'
p1117
g5
tp1118
a(S'eyes'
p1119
S'eye'
p1120
S'NNS'
p1121
S'I-NP'
p1122
g5
tp1123
a(g200
g200
g200
g5
g5
tp1124
a(S'35'
p1125
S'35'
p1126
S'CD'
p1127
S'B-NP'
p1128
g5
tp1129
a(g909
g909
S'NN'
p1130
S'I-NP'
p1131
g5
tp1132
a(g208
g208
g208
g5
g5
tp1133
a(g118
g118
g118
g5
g5
tp1134
a(S'INTERVENTIONS'
p1135
S'INTERVENTIONS'
p1136
S'NNS'
p1137
S'B-NP'
p1138
g5
tp1139
a(S'Vitrectomy'
p1140
S'Vitrectomy'
p1141
S'VBP'
p1142
S'B-VP'
p1143
g5
tp1144
a(S'surgery'
p1145
S'surgery'
p1146
S'NN'
p1147
S'B-NP'
p1148
g5
tp1149
a(S'for'
p1150
S'for'
p1151
S'IN'
p1152
S'B-PP'
p1153
g5
tp1154
a(S'PVR'
p1155
S'PVR'
p1156
S'NN'
p1157
S'B-NP'
p1158
S'B-protein'
p1159
tp1160
a(S'with'
p1161
S'with'
p1162
S'IN'
p1163
S'B-PP'
p1164
g5
tp1165
a(S'a'
p1166
g1166
S'DT'
p1167
S'B-NP'
p1168
g5
tp1169
a(S'long-acting'
p1170
S'long-acting'
p1171
S'JJ'
p1172
S'I-NP'
p1173
g5
tp1174
a(S'gas'
p1175
S'gas'
p1176
S'NN'
p1177
S'I-NP'
p1178
g5
tp1179
a(S'or'
p1180
S'or'
p1181
S'CC'
p1182
S'I-NP'
p1183
g5
tp1184
a(S'silicone'
p1185
S'silicone'
p1186
S'NN'
p1187
S'I-NP'
p1188
g5
tp1189
a(S'oil'
p1190
S'oil'
p1191
S'NN'
p1192
S'I-NP'
p1193
g5
tp1194
a(S'as'
p1195
S'as'
p1196
S'IN'
p1197
S'B-PP'
p1198
g5
tp1199
a(S'the'
p1200
S'the'
p1201
S'DT'
p1202
S'B-NP'
p1203
g5
tp1204
a(S'intraocular'
p1205
S'intraocular'
p1206
S'JJ'
p1207
S'I-NP'
p1208
g5
tp1209
a(S'tamponade'
p1210
S'tamponade'
p1211
S'NN'
p1212
S'I-NP'
p1213
g5
tp1214
a(g118
g118
g118
g5
g5
tp1215
a(S'MAIN'
p1216
S'MAIN'
p1217
S'NNP'
p1218
S'B-NP'
p1219
g5
tp1220
a(S'OUTCOME'
p1221
S'OUTCOME'
p1222
S'NNP'
p1223
S'I-NP'
p1224
g5
tp1225
a(S'MEASURES'
p1226
S'MEASURES'
p1227
S'NNP'
p1228
S'I-NP'
p1229
g5
tp1230
a(S'Changes'
p1231
S'Changes'
p1232
S'NNP'
p1233
S'I-NP'
p1234
g5
tp1235
a(S'in'
p1236
S'in'
p1237
S'IN'
p1238
S'B-PP'
p1239
g5
tp1240
a(S'visual'
p1241
S'visual'
p1242
S'JJ'
p1243
S'B-NP'
p1244
g5
tp1245
a(S'acuity'
p1246
S'acuity'
p1247
S'NN'
p1248
S'I-NP'
p1249
g5
tp1250
a(g390
g390
g390
g5
g5
tp1251
a(S'recurrent'
p1252
S'recurrent'
p1253
S'JJ'
p1254
S'B-NP'
p1255
g5
tp1256
a(S'retinal'
p1257
S'retinal'
p1258
S'JJ'
p1259
S'I-NP'
p1260
g5
tp1261
a(S'detachment'
p1262
S'detachment'
p1263
S'NN'
p1264
S'I-NP'
p1265
g5
tp1266
a(g390
g390
g390
g5
g5
tp1267
a(S'and'
p1268
S'and'
p1269
S'CC'
p1270
g5
g5
tp1271
a(S'incidence'
p1272
S'incidence'
p1273
S'NN'
p1274
S'B-NP'
p1275
g5
tp1276
a(S'of'
p1277
S'of'
p1278
S'IN'
p1279
S'B-PP'
p1280
g5
tp1281
a(S'complications'
p1282
S'complication'
p1283
S'NNS'
p1284
S'B-NP'
p1285
g5
tp1286
a(g118
g118
g118
g5
g5
tp1287
a(S'RESULTS'
p1288
S'RESULTS'
p1289
S'NNS'
p1290
S'B-NP'
p1291
g5
tp1292
a(S'In'
p1293
S'In'
p1294
S'IN'
p1295
S'B-PP'
p1296
g5
tp1297
a(S'group'
p1298
S'group'
p1299
S'NN'
p1300
S'B-NP'
p1301
g5
tp1302
a(g541
g541
S'CD'
p1303
S'I-NP'
p1304
g5
tp1305
a(S'of'
p1306
S'of'
p1307
S'IN'
p1308
S'B-PP'
p1309
g5
tp1310
a(S'cohort'
p1311
S'cohort'
p1312
S'JJ'
p1313
S'B-NP'
p1314
g5
tp1315
a(g541
g541
S'CD'
p1316
S'I-NP'
p1317
g5
tp1318
a(g390
g390
g390
g5
g5
tp1319
a(S'compared'
p1320
S'compare'
p1321
S'VBN'
p1322
S'B-PP'
p1323
g5
tp1324
a(S'with'
p1325
S'with'
p1326
S'IN'
p1327
S'B-PP'
p1328
g5
tp1329
a(S'oil-treated'
p1330
S'oil-treated'
p1331
S'JJ'
p1332
S'B-NP'
p1333
g5
tp1334
a(S'eyes'
p1335
S'eye'
p1336
S'NNS'
p1337
S'I-NP'
p1338
g5
tp1339
a(g390
g390
g390
g5
g5
tp1340
a(S'gas-treated'
p1341
S'gas-treated'
p1342
S'JJ'
p1343
S'B-NP'
p1344
g5
tp1345
a(S'eyes'
p1346
S'eye'
p1347
S'NNS'
p1348
S'I-NP'
p1349
g5
tp1350
a(S'had'
p1351
S'have'
p1352
S'VBD'
p1353
S'B-VP'
p1354
g5
tp1355
a(g1166
g1166
S'DT'
p1356
S'B-NP'
p1357
g5
tp1358
a(S'higher'
p1359
S'high'
p1360
S'JJR'
p1361
S'I-NP'
p1362
g5
tp1363
a(S'rate'
p1364
S'rate'
p1365
S'NN'
p1366
S'I-NP'
p1367
g5
tp1368
a(S'of'
p1369
S'of'
p1370
S'IN'
p1371
S'B-PP'
p1372
g5
tp1373
a(S'complete'
p1374
S'complete'
p1375
S'JJ'
p1376
S'B-NP'
p1377
g5
tp1378
a(S'retinal'
p1379
S'retinal'
p1380
S'JJ'
p1381
S'I-NP'
p1382
g5
tp1383
a(S'reattachment'
p1384
S'reattachment'
p1385
S'NN'
p1386
S'I-NP'
p1387
g5
tp1388
a(S'from'
p1389
S'from'
p1390
S'IN'
p1391
S'B-PP'
p1392
g5
tp1393
a(S'18'
p1394
S'18'
p1395
S'CD'
p1396
S'B-NP'
p1397
g5
tp1398
a(S'to'
p1399
S'to'
p1400
S'TO'
p1401
S'I-NP'
p1402
g5
tp1403
a(S'36'
p1404
S'36'
p1405
S'CD'
p1406
S'I-NP'
p1407
g5
tp1408
a(S'months'
p1409
S'month'
p1410
S'NNS'
p1411
S'I-NP'
p1412
g5
tp1413
a(g200
g200
g200
g5
g5
tp1414
a(S'P'
p1415
g1415
S'NN'
p1416
S'B-NP'
p1417
g5
tp1418
a(S'<'
p1419
g1419
S'JJR'
p1420
S'I-NP'
p1421
g5
tp1422
a(S'.05'
p1423
S'.05'
p1424
S'CD'
p1425
S'I-NP'
p1426
g5
tp1427
a(g208
g208
g208
g5
g5
tp1428
a(g118
g118
g118
g5
g5
tp1429
a(S'No'
p1430
S'No'
p1431
S'DT'
p1432
S'B-NP'
p1433
g5
tp1434
a(S'other'
p1435
S'other'
p1436
S'JJ'
p1437
S'I-NP'
p1438
g5
tp1439
a(S'differences'
p1440
S'difference'
p1441
S'NNS'
p1442
S'I-NP'
p1443
g5
tp1444
a(S'were'
p1445
S'be'
p1446
S'VBD'
p1447
S'B-VP'
p1448
g5
tp1449
a(S'found.'
p1450
S'found.'
p1451
S'VBN'
p1452
S'I-VP'
p1453
g5
tp1454
a(S'In'
p1455
S'In'
p1456
S'IN'
p1457
S'B-PP'
p1458
g5
tp1459
a(S'group'
p1460
S'group'
p1461
S'NN'
p1462
S'B-NP'
p1463
g5
tp1464
a(g718
g718
S'CD'
p1465
S'I-NP'
p1466
g5
tp1467
a(S'of'
p1468
S'of'
p1469
S'IN'
p1470
S'B-PP'
p1471
g5
tp1472
a(S'cohort'
p1473
S'cohort'
p1474
S'JJ'
p1475
S'B-NP'
p1476
g5
tp1477
a(g541
g541
S'CD'
p1478
S'I-NP'
p1479
g5
tp1480
a(g390
g390
g390
g5
g5
tp1481
a(S'no'
p1482
S'no'
p1483
S'DT'
p1484
S'B-NP'
p1485
g5
tp1486
a(S'notable'
p1487
S'notable'
p1488
S'JJ'
p1489
S'I-NP'
p1490
g5
tp1491
a(S'differences'
p1492
S'difference'
p1493
S'NNS'
p1494
S'I-NP'
p1495
g5
tp1496
a(S'were'
p1497
S'be'
p1498
S'VBD'
p1499
S'B-VP'
p1500
g5
tp1501
a(S'found'
p1502
S'find'
p1503
S'VBN'
p1504
S'I-VP'
p1505
g5
tp1506
a(S'between'
p1507
S'between'
p1508
S'IN'
p1509
S'B-PP'
p1510
g5
tp1511
a(S'treatment'
p1512
S'treatment'
p1513
S'NN'
p1514
S'B-NP'
p1515
g5
tp1516
a(S'arms.'
p1517
S'arms.'
p1518
S'NN'
p1519
S'I-NP'
p1520
g5
tp1521
a(S'In'
p1522
S'In'
p1523
S'IN'
p1524
S'B-PP'
p1525
g5
tp1526
a(S'cohort'
p1527
S'cohort'
p1528
S'JJ'
p1529
S'B-NP'
p1530
g5
tp1531
a(g718
g718
S'CD'
p1532
S'I-NP'
p1533
g5
tp1534
a(g390
g390
g390
g5
g5
tp1535
a(S'during'
p1536
S'during'
p1537
S'IN'
p1538
S'B-PP'
p1539
g5
tp1540
a(g703
g703
S'CD'
p1541
S'B-NP'
p1542
g5
tp1543
a(S'years'
p1544
S'year'
p1545
S'NNS'
p1546
S'I-NP'
p1547
g5
tp1548
a(S'of'
p1549
S'of'
p1550
S'IN'
p1551
S'B-PP'
p1552
g5
tp1553
a(S'follow-up'
p1554
S'follow-up'
p1555
S'NN'
p1556
S'B-NP'
p1557
g5
tp1558
a(g390
g390
g390
g5
g5
tp1559
a(S'attachment'
p1560
S'attachment'
p1561
S'NN'
p1562
S'B-NP'
p1563
g5
tp1564
a(S'of'
p1565
S'of'
p1566
S'IN'
p1567
S'B-PP'
p1568
g5
tp1569
a(S'the'
p1570
S'the'
p1571
S'DT'
p1572
S'B-NP'
p1573
g5
tp1574
a(S'macula'
p1575
S'macula'
p1576
S'NN'
p1577
S'I-NP'
p1578
g5
tp1579
a(S'was'
p1580
S'be'
p1581
S'VBD'
p1582
S'B-VP'
p1583
g5
tp1584
a(S'maintained'
p1585
S'maintain'
p1586
S'VBN'
p1587
S'I-VP'
p1588
g5
tp1589
a(S'for'
p1590
S'for'
p1591
S'IN'
p1592
S'B-PP'
p1593
g5
tp1594
a(S'all'
p1595
S'all'
p1596
S'DT'
p1597
S'B-NP'
p1598
g5
tp1599
a(S'eyes.'
p1600
S'eyes.'
p1601
S'FW'
p1602
S'I-NP'
p1603
g5
tp1604
a(S'No'
p1605
S'No'
p1606
S'FW'
p1607
S'I-NP'
p1608
g5
tp1609
a(S'notable'
p1610
S'notable'
p1611
S'JJ'
p1612
S'I-NP'
p1613
g5
tp1614
a(S'differences'
p1615
S'difference'
p1616
S'NNS'
p1617
S'I-NP'
p1618
g5
tp1619
a(S'in'
p1620
S'in'
p1621
S'IN'
p1622
S'B-PP'
p1623
g5
tp1624
a(S'the'
p1625
S'the'
p1626
S'DT'
p1627
S'B-NP'
p1628
g5
tp1629
a(S'rates'
p1630
S'rate'
p1631
S'NNS'
p1632
S'I-NP'
p1633
g5
tp1634
a(S'of'
p1635
S'of'
p1636
S'IN'
p1637
S'B-PP'
p1638
g5
tp1639
a(S'complete'
p1640
S'complete'
p1641
S'JJ'
p1642
S'B-NP'
p1643
g5
tp1644
a(S'retinal'
p1645
S'retinal'
p1646
S'JJ'
p1647
S'I-NP'
p1648
g5
tp1649
a(S'attachment'
p1650
S'attachment'
p1651
S'NN'
p1652
S'I-NP'
p1653
g5
tp1654
a(g390
g390
g390
g5
g5
tp1655
a(S'visual'
p1656
S'visual'
p1657
S'JJ'
p1658
S'B-NP'
p1659
g5
tp1660
a(S'acuity'
p1661
S'acuity'
p1662
S'NN'
p1663
S'I-NP'
p1664
g5
tp1665
a(S'of'
p1666
S'of'
p1667
S'IN'
p1668
S'B-PP'
p1669
g5
tp1670
a(S'5/200'
p1671
S'5/200'
p1672
S'CD'
p1673
S'B-NP'
p1674
g5
tp1675
a(S'or'
p1676
S'or'
p1677
S'CC'
p1678
S'I-NP'
p1679
g5
tp1680
a(S'better'
p1681
S'good'
p1682
S'JJR'
p1683
S'I-NP'
p1684
g5
tp1685
a(g390
g390
g390
S'I-NP'
p1686
g5
tp1687
a(S'or'
p1688
S'or'
p1689
S'CC'
p1690
S'I-NP'
p1691
g5
tp1692
a(S'glaucoma'
p1693
S'glaucoma'
p1694
S'NN'
p1695
S'I-NP'
p1696
g5
tp1697
a(S'were'
p1698
S'be'
p1699
S'VBD'
p1700
S'B-VP'
p1701
g5
tp1702
a(S'found'
p1703
S'find'
p1704
S'VBN'
p1705
S'I-VP'
p1706
g5
tp1707
a(S'between'
p1708
S'between'
p1709
S'IN'
p1710
S'B-PP'
p1711
g5
tp1712
a(S'treatment'
p1713
S'treatment'
p1714
S'NN'
p1715
S'B-NP'
p1716
g5
tp1717
a(S'groups.'
p1718
S'groups.'
p1719
S'NN'
p1720
S'I-NP'
p1721
g5
tp1722
a(S'In'
p1723
S'In'
p1724
S'IN'
p1725
S'B-PP'
p1726
g5
tp1727
a(S'contrast'
p1728
S'contrast'
p1729
S'NN'
p1730
S'B-NP'
p1731
g5
tp1732
a(g390
g390
g390
g5
g5
tp1733
a(S'gas-treated'
p1734
S'gas-treated'
p1735
S'JJ'
p1736
S'B-NP'
p1737
g5
tp1738
a(S'eyes'
p1739
S'eye'
p1740
S'NNS'
p1741
S'I-NP'
p1742
g5
tp1743
a(S'had'
p1744
S'have'
p1745
S'VBD'
p1746
S'B-VP'
p1747
g5
tp1748
a(S'more'
p1749
S'more'
p1750
S'RBR'
p1751
S'B-ADJP'
p1752
g5
tp1753
a(S'hypotony'
p1754
S'hypotony'
p1755
S'JJ'
p1756
S'I-ADJP'
p1757
g5
tp1758
a(g200
g200
g200
g5
g5
tp1759
a(g1415
g1415
S'NN'
p1760
S'B-NP'
p1761
g5
tp1762
a(g1419
g1419
S'JJR'
p1763
S'B-NP'
p1764
g5
tp1765
a(S'.001'
p1766
S'.001'
p1767
S'CD'
p1768
S'I-NP'
p1769
g5
tp1770
a(g208
g208
g208
g5
g5
tp1771
a(g118
g118
g118
g5
g5
tp1772
a(S'Silicone'
p1773
S'Silicone'
p1774
S'NN'
p1775
S'B-NP'
p1776
g5
tp1777
a(S'oil-treated'
p1778
S'oil-treated'
p1779
S'JJ'
p1780
S'I-NP'
p1781
g5
tp1782
a(S'eyes'
p1783
S'eye'
p1784
S'NNS'
p1785
S'I-NP'
p1786
g5
tp1787
a(S'that'
p1788
S'that'
p1789
S'WDT'
p1790
S'B-NP'
p1791
g5
tp1792
a(S'underwent'
p1793
S'undergo'
p1794
S'VBD'
p1795
S'B-VP'
p1796
g5
tp1797
a(S'subsequent'
p1798
S'subsequent'
p1799
S'JJ'
p1800
S'B-NP'
p1801
g5
tp1802
a(S'surgery'
p1803
S'surgery'
p1804
S'NN'
p1805
S'I-NP'
p1806
g5
tp1807
a(S'were'
p1808
S'be'
p1809
S'VBD'
p1810
S'B-VP'
p1811
g5
tp1812
a(S'more'
p1813
S'more'
p1814
S'RBR'
p1815
S'B-ADJP'
p1816
g5
tp1817
a(S'likely'
p1818
S'likely'
p1819
S'JJ'
p1820
S'I-ADJP'
p1821
g5
tp1822
a(S'to'
p1823
S'to'
p1824
S'TO'
p1825
S'B-VP'
p1826
g5
tp1827
a(S'have'
p1828
S'have'
p1829
S'VB'
p1830
S'I-VP'
p1831
g5
tp1832
a(S'the'
p1833
S'the'
p1834
S'DT'
p1835
S'B-NP'
p1836
g5
tp1837
a(S'oil'
p1838
S'oil'
p1839
S'NN'
p1840
S'I-NP'
p1841
g5
tp1842
a(S'retained'
p1843
S'retain'
p1844
S'VBN'
p1845
S'B-VP'
p1846
g5
tp1847
a(g200
g200
g200
g5
g5
tp1848
a(g1415
g1415
S'NN'
p1849
S'B-NP'
p1850
g5
tp1851
a(S'='
p1852
g1852
S'SYM'
p1853
S'B-VP'
p1854
g5
tp1855
a(S'.02'
p1856
S'.02'
p1857
S'CD'
p1858
S'B-NP'
p1859
g5
tp1860
a(g208
g208
g208
g5
g5
tp1861
a(g118
g118
g118
g5
g5
tp1862
a(S'Compared'
p1863
S'Compare'
p1864
S'VBN'
p1865
S'B-VP'
p1866
g5
tp1867
a(S'with'
p1868
S'with'
p1869
S'IN'
p1870
S'B-PP'
p1871
g5
tp1872
a(S'oil-retained'
p1873
S'oil-retained'
p1874
S'JJ'
p1875
S'B-NP'
p1876
g5
tp1877
a(S'eyes'
p1878
S'eye'
p1879
S'NNS'
p1880
S'I-NP'
p1881
g5
tp1882
a(g390
g390
g390
g5
g5
tp1883
a(S'oil-removed'
p1884
S'oil-removed'
p1885
S'JJ'
p1886
S'B-NP'
p1887
g5
tp1888
a(S'eyes'
p1889
S'eye'
p1890
S'NNS'
p1891
S'I-NP'
p1892
g5
tp1893
a(S'had'
p1894
S'have'
p1895
S'VBD'
p1896
S'B-VP'
p1897
g5
tp1898
a(S'higher'
p1899
S'high'
p1900
S'JJR'
p1901
S'B-NP'
p1902
g5
tp1903
a(S'rates'
p1904
S'rate'
p1905
S'NNS'
p1906
S'I-NP'
p1907
g5
tp1908
a(S'of'
p1909
S'of'
p1910
S'IN'
p1911
S'B-PP'
p1912
g5
tp1913
a(S'complete'
p1914
S'complete'
p1915
S'JJ'
p1916
S'B-NP'
p1917
g5
tp1918
a(S'posterior'
p1919
S'posterior'
p1920
S'JJ'
p1921
S'I-NP'
p1922
g5
tp1923
a(S'attachment'
p1924
S'attachment'
p1925
S'NN'
p1926
S'I-NP'
p1927
g5
tp1928
a(g200
g200
g200
g5
g5
tp1929
a(g1415
g1415
S'NN'
p1930
S'B-NP'
p1931
g5
tp1932
a(g1852
g1852
S'SYM'
p1933
S'B-VP'
p1934
g5
tp1935
a(S'.01'
p1936
S'.01'
p1937
S'CD'
p1938
S'B-NP'
p1939
g5
tp1940
a(g208
g208
g208
g5
g5
tp1941
a(S'and'
p1942
S'and'
p1943
S'CC'
p1944
g5
g5
tp1945
a(S'of'
p1946
S'of'
p1947
S'IN'
p1948
S'B-PP'
p1949
g5
tp1950
a(g1166
g1166
S'DT'
p1951
S'B-NP'
p1952
g5
tp1953
a(S'visual'
p1954
S'visual'
p1955
S'JJ'
p1956
S'I-NP'
p1957
g5
tp1958
a(S'acuity'
p1959
S'acuity'
p1960
S'NN'
p1961
S'I-NP'
p1962
g5
tp1963
a(S'of'
p1964
S'of'
p1965
S'IN'
p1966
S'B-PP'
p1967
g5
tp1968
a(S'5/200'
p1969
S'5/200'
p1970
S'CD'
p1971
S'B-NP'
p1972
g5
tp1973
a(S'or'
p1974
S'or'
p1975
S'CC'
p1976
g5
g5
tp1977
a(S'better'
p1978
S'good'
p1979
S'JJR'
p1980
S'B-ADJP'
p1981
g5
tp1982
a(g200
g200
g200
g5
g5
tp1983
a(g1415
g1415
S'NN'
p1984
S'B-NP'
p1985
g5
tp1986
a(g1419
g1419
S'JJR'
p1987
S'B-NP'
p1988
g5
tp1989
a(S'.001'
p1990
S'.001'
p1991
S'CD'
p1992
S'I-NP'
p1993
g5
tp1994
a(g208
g208
g208
g5
g5
tp1995
a(S'and'
p1996
S'and'
p1997
S'CC'
p1998
g5
g5
tp1999
a(S'less'
p2000
S'less'
p2001
S'JJR'
p2002
S'B-NP'
p2003
g5
tp2004
a(S'keratopathy'
p2005
S'keratopathy'
p2006
S'NN'
p2007
S'I-NP'
p2008
g5
tp2009
a(g200
g200
g200
g5
g5
tp2010
a(g1415
g1415
S'NN'
p2011
S'B-NP'
p2012
g5
tp2013
a(g1419
g1419
S'JJR'
p2014
S'B-NP'
p2015
g5
tp2016
a(S'.05'
p2017
S'.05'
p2018
S'CD'
p2019
S'I-NP'
p2020
g5
tp2021
a(g208
g208
g208
g5
g5
tp2022
a(g118
g118
g118
g5
g5
tp2023
a(S'Compared'
p2024
S'Compare'
p2025
S'VBN'
p2026
S'B-VP'
p2027
g5
tp2028
a(S'with'
p2029
S'with'
p2030
S'IN'
p2031
S'B-PP'
p2032
g5
tp2033
a(S'oil-removed'
p2034
S'oil-removed'
p2035
S'JJ'
p2036
S'B-NP'
p2037
g5
tp2038
a(S'eyes'
p2039
S'eye'
p2040
S'NNS'
p2041
S'I-NP'
p2042
g5
tp2043
a(g390
g390
g390
g5
g5
tp2044
a(S'gas-treated'
p2045
S'gas-treated'
p2046
S'JJ'
p2047
S'B-NP'
p2048
g5
tp2049
a(S'eyes'
p2050
S'eye'
p2051
S'NNS'
p2052
S'I-NP'
p2053
g5
tp2054
a(S'had'
p2055
S'have'
p2056
S'VBD'
p2057
S'B-VP'
p2058
g5
tp2059
a(g1166
g1166
S'DT'
p2060
S'B-NP'
p2061
g5
tp2062
a(S'worse'
p2063
S'worse'
p2064
S'JJR'
p2065
S'I-NP'
p2066
g5
tp2067
a(S'visual'
p2068
S'visual'
p2069
S'JJ'
p2070
S'I-NP'
p2071
g5
tp2072
a(S'acuity'
p2073
S'acuity'
p2074
S'NN'
p2075
S'I-NP'
p2076
g5
tp2077
a(S'outcome'
p2078
S'outcome'
p2079
S'NN'
p2080
S'I-NP'
p2081
g5
tp2082
a(g200
g200
g200
g5
g5
tp2083
a(g1415
g1415
S'NN'
p2084
S'B-NP'
p2085
g5
tp2086
a(g1419
g1419
S'JJR'
p2087
S'B-NP'
p2088
g5
tp2089
a(S'.05'
p2090
S'.05'
p2091
S'CD'
p2092
S'I-NP'
p2093
g5
tp2094
a(g208
g208
g208
g5
g5
tp2095
a(S'and'
p2096
S'and'
p2097
S'CC'
p2098
g5
g5
tp2099
a(S'more'
p2100
S'more'
p2101
S'RBR'
p2102
S'B-ADJP'
p2103
g5
tp2104
a(S'hypotony'
p2105
S'hypotony'
p2106
S'JJ'
p2107
S'I-ADJP'
p2108
g5
tp2109
a(g200
g200
g200
g5
g5
tp2110
a(g1415
g1415
S'NN'
p2111
S'B-NP'
p2112
g5
tp2113
a(g1419
g1419
S'JJR'
p2114
S'B-NP'
p2115
g5
tp2116
a(S'.01'
p2117
S'.01'
p2118
S'CD'
p2119
S'I-NP'
p2120
g5
tp2121
a(g208
g208
g208
g5
g5
tp2122
a(g118
g118
g118
g5
g5
tp2123
a(S'CONCLUSION'
p2124
S'CONCLUSION'
p2125
S'NN'
p2126
S'B-NP'
p2127
g5
tp2128
a(S'The'
p2129
S'The'
p2130
S'DT'
p2131
S'B-NP'
p2132
g5
tp2133
a(S'Silicone'
p2134
S'Silicone'
p2135
S'NN'
p2136
S'I-NP'
p2137
g5
tp2138
a(S'Study'
p2139
S'Study'
p2140
S'NN'
p2141
S'I-NP'
p2142
g5
tp2143
a(S'showed'
p2144
S'show'
p2145
S'VBD'
p2146
S'B-VP'
p2147
g5
tp2148
a(S'that'
p2149
S'that'
p2150
S'IN'
p2151
S'B-SBAR'
p2152
g5
tp2153
a(S'silicone'
p2154
S'silicone'
p2155
S'NN'
p2156
S'B-NP'
p2157
g5
tp2158
a(S'oil'
p2159
S'oil'
p2160
S'NN'
p2161
S'I-NP'
p2162
g5
tp2163
a(S'and'
p2164
S'and'
p2165
S'CC'
p2166
S'I-NP'
p2167
g5
tp2168
a(S'perfluoropropane'
p2169
S'perfluoropropane'
p2170
S'NN'
p2171
S'I-NP'
p2172
g5
tp2173
a(S'gas'
p2174
S'gas'
p2175
S'NN'
p2176
S'I-NP'
p2177
g5
tp2178
a(S'were'
p2179
S'be'
p2180
S'VBD'
p2181
S'B-VP'
p2182
g5
tp2183
a(S'equal'
p2184
S'equal'
p2185
S'JJ'
p2186
S'B-ADJP'
p2187
g5
tp2188
a(S'in'
p2189
S'in'
p2190
S'IN'
p2191
S'B-PP'
p2192
g5
tp2193
a(S'most'
p2194
S'most'
p2195
S'JJS'
p2196
S'B-NP'
p2197
g5
tp2198
a(S'respects'
p2199
S'respect'
p2200
S'NNS'
p2201
S'I-NP'
p2202
g5
tp2203
a(S'for'
p2204
S'for'
p2205
S'IN'
p2206
S'B-PP'
p2207
g5
tp2208
a(S'the'
p2209
S'the'
p2210
S'DT'
p2211
S'B-NP'
p2212
g5
tp2213
a(S'management'
p2214
S'management'
p2215
S'NN'
p2216
S'I-NP'
p2217
g5
tp2218
a(S'of'
p2219
S'of'
p2220
S'IN'
p2221
S'B-PP'
p2222
g5
tp2223
a(S'retinal'
p2224
S'retinal'
p2225
S'JJ'
p2226
S'B-NP'
p2227
g5
tp2228
a(S'detachments'
p2229
S'detachment'
p2230
S'NNS'
p2231
S'I-NP'
p2232
g5
tp2233
a(S'with'
p2234
S'with'
p2235
S'IN'
p2236
S'B-PP'
p2237
g5
tp2238
a(S'PVR.'
p2239
S'PVR.'
p2240
S'NNP'
p2241
S'B-NP'
p2242
g5
tp2243
a(S'Success'
p2244
S'Success'
p2245
S'NNP'
p2246
S'I-NP'
p2247
g5
tp2248
a(S'in'
p2249
S'in'
p2250
S'IN'
p2251
S'B-PP'
p2252
g5
tp2253
a(S'the'
p2254
S'the'
p2255
S'DT'
p2256
S'B-NP'
p2257
g5
tp2258
a(S'first'
p2259
S'first'
p2260
S'JJ'
p2261
S'I-NP'
p2262
g5
tp2263
a(S'surgery'
p2264
S'surgery'
p2265
S'NN'
p2266
S'I-NP'
p2267
g5
tp2268
a(S'for'
p2269
S'for'
p2270
S'IN'
p2271
S'B-PP'
p2272
g5
tp2273
a(S'PVR'
p2274
S'PVR'
p2275
S'NN'
p2276
S'B-NP'
p2277
S'B-protein'
p2278
tp2279
a(S'is'
p2280
S'be'
p2281
S'VBZ'
p2282
S'B-VP'
p2283
g5
tp2284
a(S'paramount'
p2285
S'paramount'
p2286
S'JJ'
p2287
S'B-ADJP'
p2288
g5
tp2289
a(S'for'
p2290
S'for'
p2291
S'IN'
p2292
S'B-PP'
p2293
g5
tp2294
a(S'obtaining'
p2295
S'obtain'
p2296
S'VBG'
p2297
S'B-VP'
p2298
g5
tp2299
a(S'better'
p2300
S'good'
p2301
S'JJR'
p2302
S'B-NP'
p2303
g5
tp2304
a(S'visual'
p2305
S'visual'
p2306
S'JJ'
p2307
S'I-NP'
p2308
g5
tp2309
a(S'results.'
p2310
S'results.'
p2311
S'NNS'
p2312
S'I-NP'
p2313
g5
tp2314
a(S'Overall'
p2315
S'Overall'
p2316
S'NN'
p2317
S'I-NP'
p2318
g5
tp2319
a(g390
g390
g390
g5
g5
tp2320
a(S'surgery'
p2321
S'surgery'
p2322
S'NN'
p2323
S'B-NP'
p2324
g5
tp2325
a(S'for'
p2326
S'for'
p2327
S'IN'
p2328
S'B-PP'
p2329
g5
tp2330
a(S'PVR'
p2331
S'PVR'
p2332
S'NN'
p2333
S'B-NP'
p2334
S'B-protein'
p2335
tp2336
a(S'had'
p2337
S'have'
p2338
S'VBD'
p2339
S'B-VP'
p2340
g5
tp2341
a(g1166
g1166
S'DT'
p2342
S'B-NP'
p2343
g5
tp2344
a(S'high'
p2345
S'high'
p2346
S'JJ'
p2347
S'I-NP'
p2348
g5
tp2349
a(S'likelihood'
p2350
S'likelihood'
p2351
S'NN'
p2352
S'I-NP'
p2353
g5
tp2354
a(S'of'
p2355
S'of'
p2356
S'IN'
p2357
S'B-PP'
p2358
g5
tp2359
a(S'retinal'
p2360
S'retinal'
p2361
S'JJ'
p2362
S'B-NP'
p2363
g5
tp2364
a(S'reattachment'
p2365
S'reattachment'
p2366
S'NN'
p2367
S'I-NP'
p2368
g5
tp2369
a(g390
g390
g390
g5
g5
tp2370
a(S'and'
p2371
S'and'
p2372
S'CC'
p2373
g5
g5
tp2374
a(S'if'
p2375
S'if'
p2376
S'IN'
p2377
S'B-SBAR'
p2378
g5
tp2379
a(S'anatomically'
p2380
S'anatomically'
p2381
S'RB'
p2382
S'B-NP'
p2383
g5
tp2384
a(S'and'
p2385
S'and'
p2386
S'CC'
p2387
S'I-NP'
p2388
g5
tp2389
a(S'visually'
p2390
S'visually'
p2391
S'RB'
p2392
S'I-NP'
p2393
g5
tp2394
a(S'successful'
p2395
S'successful'
p2396
S'JJ'
p2397
S'I-ADJP'
p2398
g5
tp2399
a(S'at'
p2400
S'at'
p2401
S'IN'
p2402
S'B-PP'
p2403
g5
tp2404
a(g526
g526
S'CD'
p2405
S'B-NP'
p2406
g5
tp2407
a(S'years'
p2408
S'year'
p2409
S'NNS'
p2410
S'I-NP'
p2411
g5
tp2412
a(g390
g390
g390
g5
g5
tp2413
a(S'there'
p2414
S'there'
p2415
S'EX'
p2416
S'B-NP'
p2417
g5
tp2418
a(S'is'
p2419
S'be'
p2420
S'VBZ'
p2421
S'B-VP'
p2422
g5
tp2423
a(S'an'
p2424
S'an'
p2425
S'DT'
p2426
S'B-NP'
p2427
g5
tp2428
a(S'excellent'
p2429
S'excellent'
p2430
S'JJ'
p2431
S'I-NP'
p2432
g5
tp2433
a(S'chance'
p2434
S'chance'
p2435
S'NN'
p2436
S'I-NP'
p2437
g5
tp2438
a(S'that'
p2439
S'that'
p2440
S'IN'
p2441
S'B-SBAR'
p2442
g5
tp2443
a(S'the'
p2444
S'the'
p2445
S'DT'
p2446
S'B-NP'
p2447
g5
tp2448
a(S'results'
p2449
S'result'
p2450
S'NNS'
p2451
S'I-NP'
p2452
g5
tp2453
a(S'will'
p2454
S'will'
p2455
S'MD'
p2456
S'B-VP'
p2457
g5
tp2458
a(S'be'
p2459
S'be'
p2460
S'VB'
p2461
S'I-VP'
p2462
g5
tp2463
a(S'maintained'
p2464
S'maintain'
p2465
S'VBN'
p2466
S'I-VP'
p2467
g5
tp2468
a(S'over'
p2469
S'over'
p2470
S'IN'
p2471
S'B-PP'
p2472
g5
tp2473
a(S'the'
p2474
S'the'
p2475
S'DT'
p2476
S'B-NP'
p2477
g5
tp2478
a(S'long-term'
p2479
S'long-term'
p2480
S'JJ'
p2481
S'I-NP'
p2482
g5
tp2483
a(g118
g118
g118
g5
g5
tp2484
a.