(lp0
(S'Valsartan'
p1
S'Valsartan'
p2
S'NN'
p3
S'B-NP'
p4
S'O'
p5
tp6
a(S'alone'
p7
S'alone'
p8
S'RB'
p9
S'B-ADVP'
p10
g5
tp11
a(S'or'
p12
S'or'
p13
S'CC'
p14
g5
g5
tp15
a(S'with'
p16
S'with'
p17
S'IN'
p18
S'B-PP'
p19
g5
tp20
a(S'a'
p21
g21
S'DT'
p22
S'B-NP'
p23
g5
tp24
a(S'diuretic'
p25
S'diuretic'
p26
S'JJ'
p27
S'I-NP'
p28
g5
tp29
a(S'or'
p30
S'or'
p31
S'CC'
p32
S'I-NP'
p33
g5
tp34
a(S'ACE'
p35
S'ACE'
p36
S'NN'
p37
S'I-NP'
p38
g5
tp39
a(S'inhibitor'
p40
S'inhibitor'
p41
S'NN'
p42
S'I-NP'
p43
g5
tp44
a(S'as'
p45
S'as'
p46
S'IN'
p47
S'B-PP'
p48
g5
tp49
a(S'treatment'
p50
S'treatment'
p51
S'NN'
p52
S'B-NP'
p53
g5
tp54
a(S'for'
p55
S'for'
p56
S'IN'
p57
S'B-PP'
p58
g5
tp59
a(S'African'
p60
S'African'
p61
S'JJ'
p62
S'B-NP'
p63
g5
tp64
a(S'American'
p65
S'American'
p66
S'JJ'
p67
S'I-NP'
p68
g5
tp69
a(S'hypertensives'
p70
S'hypertensive'
p71
S'NNS'
p72
S'I-NP'
p73
g5
tp74
a(S':'
p75
g75
g75
g5
g5
tp76
a(S'relation'
p77
S'relation'
p78
S'NN'
p79
S'B-NP'
p80
g5
tp81
a(S'to'
p82
S'to'
p83
S'TO'
p84
S'B-PP'
p85
g5
tp86
a(S'salt'
p87
S'salt'
p88
S'NN'
p89
S'B-NP'
p90
g5
tp91
a(S'intake'
p92
S'intake'
p93
S'NN'
p94
S'I-NP'
p95
g5
tp96
a(S'.'
p97
g97
g97
g5
g5
tp98
a(S'Previous'
p99
S'Previous'
p100
S'JJ'
p101
S'B-NP'
p102
g5
tp103
a(S'clinical'
p104
S'clinical'
p105
S'JJ'
p106
S'I-NP'
p107
g5
tp108
a(S'trials'
p109
S'trial'
p110
S'NNS'
p111
S'I-NP'
p112
g5
tp113
a(S'have'
p114
S'have'
p115
S'VBP'
p116
S'B-VP'
p117
g5
tp118
a(S'demonstrated'
p119
S'demonstrate'
p120
S'VBN'
p121
S'I-VP'
p122
g5
tp123
a(S'the'
p124
S'the'
p125
S'DT'
p126
S'B-NP'
p127
g5
tp128
a(S'important'
p129
S'important'
p130
S'JJ'
p131
S'I-NP'
p132
g5
tp133
a(S'influence'
p134
S'influence'
p135
S'NN'
p136
S'I-NP'
p137
g5
tp138
a(S'of'
p139
S'of'
p140
S'IN'
p141
S'B-PP'
p142
g5
tp143
a(S'ethnicity'
p144
S'ethnicity'
p145
S'NN'
p146
S'B-NP'
p147
g5
tp148
a(S'and'
p149
S'and'
p150
S'CC'
p151
g5
g5
tp152
a(S'dietary'
p153
S'dietary'
p154
S'JJ'
p155
S'B-NP'
p156
g5
tp157
a(S'salt'
p158
S'salt'
p159
S'NN'
p160
S'I-NP'
p161
g5
tp162
a(S'on'
p163
S'on'
p164
S'IN'
p165
S'B-PP'
p166
g5
tp167
a(S'the'
p168
S'the'
p169
S'DT'
p170
S'B-NP'
p171
g5
tp172
a(S'antihypertensive'
p173
S'antihypertensive'
p174
S'JJ'
p175
S'I-NP'
p176
g5
tp177
a(S'efficacy'
p178
S'efficacy'
p179
S'NN'
p180
S'I-NP'
p181
g5
tp182
a(S'of'
p183
S'of'
p184
S'IN'
p185
S'B-PP'
p186
g5
tp187
a(S'drugs'
p188
S'drug'
p189
S'NNS'
p190
S'B-NP'
p191
g5
tp192
a(S'that'
p193
S'that'
p194
S'WDT'
p195
S'B-NP'
p196
g5
tp197
a(S'block'
p198
S'block'
p199
S'VBP'
p200
S'B-VP'
p201
g5
tp202
a(S'the'
p203
S'the'
p204
S'DT'
p205
S'B-NP'
p206
g5
tp207
a(S'renin'
p208
S'renin'
p209
S'NN'
p210
S'I-NP'
p211
S'B-protein'
p212
tp213
a(S'angiotensin'
p214
S'angiotensin'
p215
S'NN'
p216
S'I-NP'
p217
g5
tp218
a(S'system.'
p219
S'system.'
p220
S'NN'
p221
S'I-NP'
p222
g5
tp223
a(S'Angiotensin'
p224
S'Angiotensin'
p225
S'NN'
p226
S'I-NP'
p227
g5
tp228
a(S'II'
p229
S'II'
p230
S'CD'
p231
S'I-NP'
p232
g5
tp233
a(S'receptor'
p234
S'receptor'
p235
S'NN'
p236
S'I-NP'
p237
g5
tp238
a(S'blockers'
p239
S'blocker'
p240
S'NNS'
p241
S'I-NP'
p242
g5
tp243
a(S'are'
p244
S'be'
p245
S'VBP'
p246
S'B-VP'
p247
g5
tp248
a(g21
g21
S'DT'
p249
S'B-NP'
p250
g5
tp251
a(S'new'
p252
S'new'
p253
S'JJ'
p254
S'I-NP'
p255
g5
tp256
a(S'therapeutic'
p257
S'therapeutic'
p258
S'JJ'
p259
S'I-NP'
p260
g5
tp261
a(S'entity'
p262
S'entity'
p263
S'NN'
p264
S'I-NP'
p265
g5
tp266
a(S'that'
p267
S'that'
p268
S'WDT'
p269
S'B-NP'
p270
g5
tp271
a(S'have'
p272
S'have'
p273
S'VBP'
p274
S'B-VP'
p275
g5
tp276
a(S'not'
p277
S'not'
p278
S'RB'
p279
S'I-VP'
p280
g5
tp281
a(S'been'
p282
S'be'
p283
S'VBN'
p284
S'I-VP'
p285
g5
tp286
a(S'widely'
p287
S'widely'
p288
S'RB'
p289
S'I-VP'
p290
g5
tp291
a(S'studied'
p292
S'study'
p293
S'VBN'
p294
S'I-VP'
p295
g5
tp296
a(S'in'
p297
S'in'
p298
S'IN'
p299
S'B-PP'
p300
g5
tp301
a(S'African'
p302
S'African'
p303
S'JJ'
p304
S'B-NP'
p305
g5
tp306
a(S'American'
p307
S'American'
p308
S'JJ'
p309
S'I-NP'
p310
g5
tp311
a(S'hypertensives'
p312
S'hypertensive'
p313
S'NNS'
p314
S'I-NP'
p315
g5
tp316
a(S','
p317
g317
g317
g5
g5
tp318
a(S'either'
p319
S'either'
p320
S'CC'
p321
g5
g5
tp322
a(S'alone'
p323
S'alone'
p324
S'RB'
p325
S'B-ADVP'
p326
g5
tp327
a(g317
g317
g317
g5
g5
tp328
a(S'or'
p329
S'or'
p330
S'CC'
p331
g5
g5
tp332
a(S'in'
p333
S'in'
p334
S'IN'
p335
S'B-PP'
p336
g5
tp337
a(S'combination'
p338
S'combination'
p339
S'NN'
p340
S'B-NP'
p341
g5
tp342
a(S'with'
p343
S'with'
p344
S'IN'
p345
S'B-PP'
p346
g5
tp347
a(S'other'
p348
S'other'
p349
S'JJ'
p350
S'B-NP'
p351
g5
tp352
a(S'therapies'
p353
S'therapy'
p354
S'NNS'
p355
S'I-NP'
p356
g5
tp357
a(S'such'
p358
S'such'
p359
S'JJ'
p360
S'B-PP'
p361
g5
tp362
a(S'as'
p363
S'as'
p364
S'IN'
p365
S'I-PP'
p366
g5
tp367
a(S'diuretics'
p368
S'diuretic'
p369
S'NNS'
p370
S'B-NP'
p371
g5
tp372
a(S'or'
p373
S'or'
p374
S'CC'
p375
g5
g5
tp376
a(S'angiotensin'
p377
S'angiotensin'
p378
S'NN'
p379
S'B-NP'
p380
g5
tp381
a(S'converting'
p382
S'convert'
p383
S'VBG'
p384
S'B-VP'
p385
g5
tp386
a(S'enzyme'
p387
S'enzyme'
p388
S'NN'
p389
S'B-NP'
p390
g5
tp391
a(S'inhibitors.'
p392
S'inhibitors.'
p393
S'NNS'
p394
S'I-NP'
p395
g5
tp396
a(S'We'
p397
S'We'
p398
S'PRP'
p399
S'B-NP'
p400
g5
tp401
a(S'performed'
p402
S'perform'
p403
S'VBD'
p404
S'B-VP'
p405
g5
tp406
a(g21
g21
S'DT'
p407
S'B-NP'
p408
g5
tp409
a(S'pilot'
p410
S'pilot'
p411
S'NN'
p412
S'I-NP'
p413
S'B-protein'
p414
tp415
a(g317
g317
g317
g5
g5
tp416
a(S'prospective'
p417
S'prospective'
p418
S'JJ'
p419
S'B-NP'
p420
g5
tp421
a(g317
g317
g317
S'I-NP'
p422
g5
tp423
a(S'open'
p424
S'open'
p425
S'JJ'
p426
S'I-NP'
p427
g5
tp428
a(S'label'
p429
S'label'
p430
S'NN'
p431
S'I-NP'
p432
g5
tp433
a(g317
g317
g317
g5
g5
tp434
a(S'randomized'
p435
S'randomize'
p436
S'VBD'
p437
S'B-VP'
p438
g5
tp439
a(S'design'
p440
S'design'
p441
S'NN'
p442
S'B-NP'
p443
g5
tp444
a(S'clinical'
p445
S'clinical'
p446
S'JJ'
p447
S'I-NP'
p448
g5
tp449
a(S'trial'
p450
S'trial'
p451
S'NN'
p452
S'I-NP'
p453
g5
tp454
a(S'to'
p455
S'to'
p456
S'TO'
p457
S'B-VP'
p458
g5
tp459
a(S'evaluate'
p460
S'evaluate'
p461
S'VB'
p462
S'I-VP'
p463
g5
tp464
a(S'the'
p465
S'the'
p466
S'DT'
p467
S'B-NP'
p468
g5
tp469
a(S'effects'
p470
S'effect'
p471
S'NNS'
p472
S'I-NP'
p473
g5
tp474
a(S'of'
p475
S'of'
p476
S'IN'
p477
S'B-PP'
p478
g5
tp479
a(S'the'
p480
S'the'
p481
S'DT'
p482
S'B-NP'
p483
g5
tp484
a(S'angiotensin'
p485
S'angiotensin'
p486
S'NN'
p487
S'I-NP'
p488
S'B-protein'
p489
tp490
a(S'II'
p491
S'II'
p492
S'CD'
p493
S'I-NP'
p494
S'I-protein'
p495
tp496
a(S'receptor'
p497
S'receptor'
p498
S'NN'
p499
S'I-NP'
p500
S'I-protein'
p501
tp502
a(S'blocker'
p503
S'blocker'
p504
S'NN'
p505
S'I-NP'
p506
g5
tp507
a(S'valsartan'
p508
S'valsartan'
p509
S'NN'
p510
S'I-NP'
p511
g5
tp512
a(S'('
p513
g513
g513
g5
g5
tp514
a(S'160'
p515
S'160'
p516
S'CD'
p517
S'B-NP'
p518
g5
tp519
a(S'mg'
p520
S'mg'
p521
S'NN'
p522
S'I-NP'
p523
g5
tp524
a(S'once'
p525
S'once'
p526
S'RB'
p527
S'B-ADVP'
p528
g5
tp529
a(g21
g21
S'DT'
p530
S'B-NP'
p531
g5
tp532
a(S'day'
p533
S'day'
p534
S'NN'
p535
S'I-NP'
p536
g5
tp537
a(S')'
p538
g538
g538
g5
g5
tp539
a(S'on'
p540
S'on'
p541
S'IN'
p542
S'B-PP'
p543
g5
tp544
a(S'systolic'
p545
S'systolic'
p546
S'JJ'
p547
S'B-NP'
p548
g5
tp549
a(S'and'
p550
S'and'
p551
S'CC'
p552
S'I-NP'
p553
g5
tp554
a(S'diastolic'
p555
S'diastolic'
p556
S'JJ'
p557
S'I-NP'
p558
g5
tp559
a(S'blood'
p560
S'blood'
p561
S'NN'
p562
S'I-NP'
p563
g5
tp564
a(S'pressure'
p565
S'pressure'
p566
S'NN'
p567
S'I-NP'
p568
g5
tp569
a(S'in'
p570
S'in'
p571
S'IN'
p572
S'B-PP'
p573
g5
tp574
a(S'hypertensive'
p575
S'hypertensive'
p576
S'JJ'
p577
S'B-NP'
p578
g5
tp579
a(S'African'
p580
S'African'
p581
S'JJ'
p582
S'I-NP'
p583
g5
tp584
a(S'Americans'
p585
S'American'
p586
S'NNPS'
p587
S'I-NP'
p588
g5
tp589
a(g513
g513
g513
g5
g5
tp590
a(S'n'
p591
g591
S'NN'
p592
S'B-NP'
p593
g5
tp594
a(S'='
p595
g595
S'SYM'
p596
S'B-VP'
p597
g5
tp598
a(S'88'
p599
S'88'
p600
S'CD'
p601
S'B-NP'
p602
g5
tp603
a(g538
g538
g538
g5
g5
tp604
a(S'on'
p605
S'on'
p606
S'IN'
p607
S'B-PP'
p608
g5
tp609
a(g21
g21
S'DT'
p610
S'B-NP'
p611
g5
tp612
a(S'low'
p613
S'low'
p614
S'JJ'
p615
S'I-NP'
p616
g5
tp617
a(S'salt'
p618
S'salt'
p619
S'NN'
p620
S'I-NP'
p621
g5
tp622
a(g513
g513
g513
g5
g5
tp623
a(S'100'
p624
S'100'
p625
S'CD'
p626
S'B-NP'
p627
g5
tp628
a(S'mEq'
p629
S'mEq'
p630
S'NN'
p631
S'I-NP'
p632
g5
tp633
a(S'Na+/day'
p634
S'Na+/day'
p635
S'NN'
p636
S'I-NP'
p637
g5
tp638
a(g538
g538
g538
g5
g5
tp639
a(S'for'
p640
S'for'
p641
S'IN'
p642
S'B-PP'
p643
g5
tp644
a(S'2'
p645
g645
S'CD'
p646
S'B-NP'
p647
g5
tp648
a(S'weeks'
p649
S'week'
p650
S'NNS'
p651
S'I-NP'
p652
g5
tp653
a(S'and'
p654
S'and'
p655
S'CC'
p656
g5
g5
tp657
a(S'the'
p658
S'the'
p659
S'DT'
p660
S'B-NP'
p661
g5
tp662
a(S'same'
p663
S'same'
p664
S'JJ'
p665
S'I-NP'
p666
g5
tp667
a(S'diet'
p668
S'diet'
p669
S'NN'
p670
S'I-NP'
p671
g5
tp672
a(S'supplemented'
p673
S'supplement'
p674
S'VBN'
p675
S'B-VP'
p676
g5
tp677
a(S'by'
p678
S'by'
p679
S'IN'
p680
S'B-PP'
p681
g5
tp682
a(S'100'
p683
S'100'
p684
S'CD'
p685
S'B-NP'
p686
g5
tp687
a(S'mEq'
p688
S'mEq'
p689
S'NN'
p690
S'I-NP'
p691
g5
tp692
a(S'Na+'
p693
S'Na+'
p694
S'NN'
p695
S'I-NP'
p696
g5
tp697
a(S'for'
p698
S'for'
p699
S'IN'
p700
S'B-PP'
p701
g5
tp702
a(S'4'
p703
g703
S'CD'
p704
S'B-NP'
p705
g5
tp706
a(S'weeks.'
p707
S'weeks.'
p708
S'NN'
p709
S'I-NP'
p710
g5
tp711
a(S'After'
p712
S'After'
p713
S'IN'
p714
S'B-PP'
p715
g5
tp716
a(S'this'
p717
S'this'
p718
S'DT'
p719
S'B-NP'
p720
g5
tp721
a(S'evaluation'
p722
S'evaluation'
p723
S'NN'
p724
S'I-NP'
p725
g5
tp726
a(g317
g317
g317
g5
g5
tp727
a(S'while'
p728
S'while'
p729
S'IN'
p730
S'B-SBAR'
p731
g5
tp732
a(S'continuing'
p733
S'continue'
p734
S'VBG'
p735
S'B-VP'
p736
g5
tp737
a(S'the'
p738
S'the'
p739
S'DT'
p740
S'B-NP'
p741
g5
tp742
a(S'Na+'
p743
S'Na+'
p744
S'NN'
p745
S'I-NP'
p746
g5
tp747
a(S'supplementation'
p748
S'supplementation'
p749
S'NN'
p750
S'I-NP'
p751
g5
tp752
a(g317
g317
g317
g5
g5
tp753
a(S'patients'
p754
S'patient'
p755
S'NNS'
p756
S'B-NP'
p757
g5
tp758
a(S'were'
p759
S'be'
p760
S'VBD'
p761
S'B-VP'
p762
g5
tp763
a(S'randomized'
p764
S'randomize'
p765
S'VBN'
p766
S'I-VP'
p767
g5
tp768
a(S'to'
p769
S'to'
p770
S'TO'
p771
S'I-VP'
p772
g5
tp773
a(S'valsartan'
p774
S'valsartan'
p775
S'VB'
p776
S'I-VP'
p777
g5
tp778
a(S'320'
p779
S'320'
p780
S'CD'
p781
S'B-NP'
p782
g5
tp783
a(S'mg/day'
p784
S'mg/day'
p785
S'NN'
p786
S'I-NP'
p787
g5
tp788
a(g513
g513
g513
g5
g5
tp789
a(g591
g591
S'NN'
p790
S'B-NP'
p791
g5
tp792
a(g595
g595
S'SYM'
p793
S'B-VP'
p794
g5
tp795
a(S'28'
p796
S'28'
p797
S'CD'
p798
S'B-NP'
p799
g5
tp800
a(g538
g538
g538
g5
g5
tp801
a(g317
g317
g317
g5
g5
tp802
a(S'or'
p803
S'or'
p804
S'CC'
p805
g5
g5
tp806
a(S'the'
p807
S'the'
p808
S'DT'
p809
S'B-NP'
p810
g5
tp811
a(S'addition'
p812
S'addition'
p813
S'NN'
p814
S'I-NP'
p815
g5
tp816
a(S'of'
p817
S'of'
p818
S'IN'
p819
S'B-PP'
p820
g5
tp821
a(S'hydrochlorothiazide'
p822
S'hydrochlorothiazide'
p823
S'NN'
p824
S'B-NP'
p825
g5
tp826
a(g513
g513
g513
g5
g5
tp827
a(S'HCTZ'
p828
S'HCTZ'
p829
S'NN'
p830
S'B-NP'
p831
S'B-protein'
p832
tp833
a(g538
g538
g538
g5
g5
tp834
a(S'12.5'
p835
S'12.5'
p836
S'CD'
p837
S'B-NP'
p838
g5
tp839
a(S'mg/day'
p840
S'mg/day'
p841
S'NN'
p842
S'I-NP'
p843
g5
tp844
a(g513
g513
g513
g5
g5
tp845
a(g591
g591
S'NN'
p846
S'B-NP'
p847
g5
tp848
a(g595
g595
S'SYM'
p849
S'B-VP'
p850
g5
tp851
a(S'30'
p852
S'30'
p853
S'CD'
p854
S'B-NP'
p855
g5
tp856
a(g538
g538
g538
g5
g5
tp857
a(g317
g317
g317
g5
g5
tp858
a(S'or'
p859
S'or'
p860
S'CC'
p861
g5
g5
tp862
a(S'benazepril'
p863
S'benazepril'
p864
S'VBP'
p865
S'B-VP'
p866
g5
tp867
a(S'20'
p868
S'20'
p869
S'CD'
p870
S'B-NP'
p871
g5
tp872
a(S'mg/day'
p873
S'mg/day'
p874
S'NN'
p875
S'I-NP'
p876
g5
tp877
a(S'to'
p878
S'to'
p879
S'TO'
p880
S'B-PP'
p881
g5
tp882
a(S'the'
p883
S'the'
p884
S'DT'
p885
S'B-NP'
p886
g5
tp887
a(S'valsartan'
p888
S'valsartan'
p889
S'NN'
p890
S'I-NP'
p891
g5
tp892
a(S'160'
p893
S'160'
p894
S'CD'
p895
S'I-NP'
p896
g5
tp897
a(S'mg/day'
p898
S'mg/day'
p899
S'NN'
p900
S'I-NP'
p901
g5
tp902
a(S'for'
p903
S'for'
p904
S'IN'
p905
S'B-PP'
p906
g5
tp907
a(S'an'
p908
S'an'
p909
S'DT'
p910
S'B-NP'
p911
g5
tp912
a(S'additional'
p913
S'additional'
p914
S'JJ'
p915
S'I-NP'
p916
g5
tp917
a(S'6'
p918
g918
S'CD'
p919
S'I-NP'
p920
g5
tp921
a(S'weeks.'
p922
S'weeks.'
p923
S'NN'
p924
S'I-NP'
p925
g5
tp926
a(S'Valsartan'
p927
S'Valsartan'
p928
S'NN'
p929
S'I-NP'
p930
g5
tp931
a(g513
g513
g513
g5
g5
tp932
a(S'160'
p933
S'160'
p934
S'CD'
p935
S'B-NP'
p936
g5
tp937
a(S'mg/day'
p938
S'mg/day'
p939
S'NN'
p940
S'I-NP'
p941
g5
tp942
a(g538
g538
g538
g5
g5
tp943
a(S'lowered'
p944
S'lower'
p945
S'VBD'
p946
S'B-VP'
p947
g5
tp948
a(S'blood'
p949
S'blood'
p950
S'NN'
p951
S'B-NP'
p952
g5
tp953
a(S'pressure'
p954
S'pressure'
p955
S'NN'
p956
S'I-NP'
p957
g5
tp958
a(S'significantly'
p959
S'significantly'
p960
S'RB'
p961
S'B-ADVP'
p962
g5
tp963
a(S'in'
p964
S'in'
p965
S'IN'
p966
S'B-PP'
p967
g5
tp968
a(S'African'
p969
S'African'
p970
S'JJ'
p971
S'B-NP'
p972
g5
tp973
a(S'American'
p974
S'American'
p975
S'JJ'
p976
S'I-NP'
p977
g5
tp978
a(S'patients'
p979
S'patient'
p980
S'NNS'
p981
S'I-NP'
p982
g5
tp983
a(S'on'
p984
S'on'
p985
S'IN'
p986
S'B-PP'
p987
g5
tp988
a(S'both'
p989
S'both'
p990
S'CC'
p991
S'B-NP'
p992
g5
tp993
a(S'low'
p994
S'low'
p995
S'JJ'
p996
S'I-NP'
p997
g5
tp998
a(S'salt'
p999
S'salt'
p1000
S'NN'
p1001
S'I-NP'
p1002
g5
tp1003
a(g513
g513
g513
g5
g5
tp1004
a(S'-6.4/-4.8'
p1005
S'-6.4/-4.8'
p1006
S'CD'
p1007
S'B-NP'
p1008
g5
tp1009
a(S'mm'
p1010
S'mm'
p1011
S'NN'
p1012
S'I-NP'
p1013
g5
tp1014
a(S'Hg'
p1015
S'Hg'
p1016
S'NN'
p1017
S'I-NP'
p1018
g5
tp1019
a(g75
g75
g75
g5
g5
tp1020
a(S'P'
p1021
g1021
S'NN'
p1022
S'B-NP'
p1023
g5
tp1024
a(S'<'
p1025
g1025
S'JJR'
p1026
S'B-NP'
p1027
g5
tp1028
a(S'.001'
p1029
S'.001'
p1030
S'CD'
p1031
S'I-NP'
p1032
g5
tp1033
a(g538
g538
g538
g5
g5
tp1034
a(S'and'
p1035
S'and'
p1036
S'CC'
p1037
g5
g5
tp1038
a(g21
g21
S'DT'
p1039
S'B-NP'
p1040
g5
tp1041
a(S'high'
p1042
S'high'
p1043
S'JJ'
p1044
S'I-NP'
p1045
g5
tp1046
a(S'salt'
p1047
S'salt'
p1048
S'NN'
p1049
S'I-NP'
p1050
g5
tp1051
a(S'diet'
p1052
S'diet'
p1053
S'NN'
p1054
S'I-NP'
p1055
g5
tp1056
a(g513
g513
g513
g5
g5
tp1057
a(S'-4.9/-3.8'
p1058
S'-4.9/-3.8'
p1059
S'CD'
p1060
S'B-NP'
p1061
g5
tp1062
a(S'mm'
p1063
S'mm'
p1064
S'NN'
p1065
S'I-NP'
p1066
g5
tp1067
a(S'Hg'
p1068
S'Hg'
p1069
S'NN'
p1070
S'I-NP'
p1071
g5
tp1072
a(g75
g75
g75
g5
g5
tp1073
a(g1021
g1021
S'NN'
p1074
S'B-NP'
p1075
g5
tp1076
a(g595
g595
S'SYM'
p1077
S'B-VP'
p1078
g5
tp1079
a(S'.01'
p1080
S'.01'
p1081
S'CD'
p1082
S'B-NP'
p1083
g5
tp1084
a(g538
g538
g538
g5
g5
tp1085
a(g97
g97
g97
g5
g5
tp1086
a(S'The'
p1087
S'The'
p1088
S'DT'
p1089
S'B-NP'
p1090
g5
tp1091
a(S'high'
p1092
S'high'
p1093
S'JJ'
p1094
S'I-NP'
p1095
g5
tp1096
a(S'salt'
p1097
S'salt'
p1098
S'NN'
p1099
S'I-NP'
p1100
g5
tp1101
a(S'diet'
p1102
S'diet'
p1103
S'NN'
p1104
S'I-NP'
p1105
g5
tp1106
a(S'attenuated'
p1107
S'attenuate'
p1108
S'VBD'
p1109
S'B-VP'
p1110
g5
tp1111
a(S'the'
p1112
S'the'
p1113
S'DT'
p1114
S'B-NP'
p1115
g5
tp1116
a(S'antihypertensive'
p1117
S'antihypertensive'
p1118
S'JJ'
p1119
S'I-NP'
p1120
g5
tp1121
a(S'effect'
p1122
S'effect'
p1123
S'NN'
p1124
S'I-NP'
p1125
g5
tp1126
a(S'slightly'
p1127
S'slightly'
p1128
S'RB'
p1129
S'B-ADVP'
p1130
g5
tp1131
a(g513
g513
g513
g5
g5
tp1132
a(S'1.6/1.3'
p1133
S'1.6/1.3'
p1134
S'CD'
p1135
S'B-NP'
p1136
g5
tp1137
a(S'mm'
p1138
S'mm'
p1139
S'NN'
p1140
S'I-NP'
p1141
g5
tp1142
a(S'Hg'
p1143
S'Hg'
p1144
S'NN'
p1145
S'I-NP'
p1146
g5
tp1147
a(g317
g317
g317
g5
g5
tp1148
a(g1021
g1021
S'NN'
p1149
S'B-NP'
p1150
g5
tp1151
a(g595
g595
S'SYM'
p1152
S'B-VP'
p1153
g5
tp1154
a(S'not'
p1155
S'not'
p1156
S'RB'
p1157
g5
g5
tp1158
a(S'significant'
p1159
S'significant'
p1160
S'JJ'
p1161
S'B-ADJP'
p1162
g5
tp1163
a(g538
g538
g538
g5
g5
tp1164
a(g97
g97
g97
g5
g5
tp1165
a(S'When'
p1166
S'When'
p1167
S'WRB'
p1168
S'B-ADVP'
p1169
g5
tp1170
a(S'comparing'
p1171
S'compare'
p1172
S'VBG'
p1173
S'B-VP'
p1174
g5
tp1175
a(S'the'
p1176
S'the'
p1177
S'DT'
p1178
S'B-NP'
p1179
g5
tp1180
a(S'efficacy'
p1181
S'efficacy'
p1182
S'NN'
p1183
S'I-NP'
p1184
g5
tp1185
a(S'of'
p1186
S'of'
p1187
S'IN'
p1188
S'B-PP'
p1189
g5
tp1190
a(S'the'
p1191
S'the'
p1192
S'DT'
p1193
S'B-NP'
p1194
g5
tp1195
a(S'three'
p1196
S'three'
p1197
S'CD'
p1198
S'I-NP'
p1199
g5
tp1200
a(S'randomized'
p1201
S'randomize'
p1202
S'VBD'
p1203
S'B-VP'
p1204
g5
tp1205
a(S'therapeutic'
p1206
S'therapeutic'
p1207
S'JJ'
p1208
S'B-NP'
p1209
g5
tp1210
a(S'regimens'
p1211
S'regimen'
p1212
S'NNS'
p1213
S'I-NP'
p1214
g5
tp1215
a(S'while'
p1216
S'while'
p1217
S'IN'
p1218
S'B-SBAR'
p1219
g5
tp1220
a(S'on'
p1221
S'on'
p1222
S'IN'
p1223
S'B-PP'
p1224
g5
tp1225
a(S'the'
p1226
S'the'
p1227
S'DT'
p1228
S'B-NP'
p1229
g5
tp1230
a(S'Na+'
p1231
S'Na+'
p1232
S'NN'
p1233
S'I-NP'
p1234
S'B-DNA'
p1235
tp1236
a(S'supplement'
p1237
S'supplement'
p1238
S'NN'
p1239
S'I-NP'
p1240
S'I-DNA'
p1241
tp1242
a(g317
g317
g317
g5
g5
tp1243
a(S'the'
p1244
S'the'
p1245
S'DT'
p1246
S'B-NP'
p1247
g5
tp1248
a(S'valsartan'
p1249
S'valsartan'
p1250
S'NN'
p1251
S'I-NP'
p1252
g5
tp1253
a(S'160'
p1254
S'160'
p1255
S'CD'
p1256
S'I-NP'
p1257
g5
tp1258
a(S'mg/HCTZ'
p1259
S'mg/HCTZ'
p1260
S'NN'
p1261
S'I-NP'
p1262
g5
tp1263
a(S'12.5'
p1264
S'12.5'
p1265
S'CD'
p1266
S'B-NP'
p1267
g5
tp1268
a(S'mg'
p1269
S'mg'
p1270
S'NN'
p1271
S'I-NP'
p1272
g5
tp1273
a(S'was'
p1274
S'be'
p1275
S'VBD'
p1276
S'B-VP'
p1277
g5
tp1278
a(S'the'
p1279
S'the'
p1280
S'DT'
p1281
S'B-NP'
p1282
g5
tp1283
a(S'most'
p1284
S'most'
p1285
S'RBS'
p1286
S'I-NP'
p1287
g5
tp1288
a(S'effective'
p1289
S'effective'
p1290
S'JJ'
p1291
S'I-NP'
p1292
g5
tp1293
a(S'therapy'
p1294
S'therapy'
p1295
S'NN'
p1296
S'I-NP'
p1297
g5
tp1298
a(S'with'
p1299
S'with'
p1300
S'IN'
p1301
S'B-PP'
p1302
g5
tp1303
a(S'an'
p1304
S'an'
p1305
S'DT'
p1306
S'B-NP'
p1307
g5
tp1308
a(S'incremental'
p1309
S'incremental'
p1310
S'JJ'
p1311
S'I-NP'
p1312
g5
tp1313
a(S'reduction'
p1314
S'reduction'
p1315
S'NN'
p1316
S'I-NP'
p1317
g5
tp1318
a(S'in'
p1319
S'in'
p1320
S'IN'
p1321
S'B-PP'
p1322
g5
tp1323
a(S'blood'
p1324
S'blood'
p1325
S'NN'
p1326
S'B-NP'
p1327
g5
tp1328
a(S'pressure'
p1329
S'pressure'
p1330
S'NN'
p1331
S'I-NP'
p1332
g5
tp1333
a(S'of'
p1334
S'of'
p1335
S'IN'
p1336
S'B-PP'
p1337
g5
tp1338
a(S'-10.5/-6.9'
p1339
S'-10.5/-6.9'
p1340
S'CD'
p1341
S'B-NP'
p1342
g5
tp1343
a(S'mm'
p1344
S'mm'
p1345
S'NN'
p1346
S'I-NP'
p1347
g5
tp1348
a(S'Hg'
p1349
S'Hg'
p1350
S'NN'
p1351
S'I-NP'
p1352
g5
tp1353
a(g513
g513
g513
g5
g5
tp1354
a(g1021
g1021
S'NN'
p1355
S'B-NP'
p1356
g5
tp1357
a(g1025
g1025
S'JJR'
p1358
S'B-NP'
p1359
g5
tp1360
a(S'.01'
p1361
S'.01'
p1362
S'CD'
p1363
S'I-NP'
p1364
g5
tp1365
a(g538
g538
g538
g5
g5
tp1366
a(g317
g317
g317
g5
g5
tp1367
a(S'compared'
p1368
S'compare'
p1369
S'VBN'
p1370
S'B-VP'
p1371
g5
tp1372
a(S'to'
p1373
S'to'
p1374
S'TO'
p1375
S'I-VP'
p1376
g5
tp1377
a(S'valsartan'
p1378
S'valsartan'
p1379
S'VB'
p1380
S'I-VP'
p1381
g5
tp1382
a(S'160'
p1383
S'160'
p1384
S'CD'
p1385
S'B-NP'
p1386
g5
tp1387
a(S'mg/day'
p1388
S'mg/day'
p1389
S'NN'
p1390
S'I-NP'
p1391
g5
tp1392
a(S'alone.'
p1393
S'alone.'
p1394
S'RB'
p1395
S'B-VP'
p1396
g5
tp1397
a(S'Doubling'
p1398
S'Double'
p1399
S'VBG'
p1400
S'I-VP'
p1401
g5
tp1402
a(S'the'
p1403
S'the'
p1404
S'DT'
p1405
S'B-NP'
p1406
g5
tp1407
a(S'dose'
p1408
S'dose'
p1409
S'NN'
p1410
S'I-NP'
p1411
g5
tp1412
a(S'of'
p1413
S'of'
p1414
S'IN'
p1415
S'B-PP'
p1416
g5
tp1417
a(S'valsartan'
p1418
S'valsartan'
p1419
S'NN'
p1420
S'B-NP'
p1421
g5
tp1422
a(S'to'
p1423
S'to'
p1424
S'TO'
p1425
S'B-PP'
p1426
g5
tp1427
a(S'320'
p1428
S'320'
p1429
S'CD'
p1430
S'B-NP'
p1431
g5
tp1432
a(S'mg'
p1433
S'mg'
p1434
S'NN'
p1435
S'I-NP'
p1436
g5
tp1437
a(S'incrementally'
p1438
S'incrementally'
p1439
S'RB'
p1440
S'B-ADVP'
p1441
g5
tp1442
a(S'lowered'
p1443
S'lower'
p1444
S'VBD'
p1445
S'B-VP'
p1446
g5
tp1447
a(S'blood'
p1448
S'blood'
p1449
S'NN'
p1450
S'B-NP'
p1451
g5
tp1452
a(S'pressure'
p1453
S'pressure'
p1454
S'NN'
p1455
S'I-NP'
p1456
g5
tp1457
a(S'by'
p1458
S'by'
p1459
S'IN'
p1460
S'B-PP'
p1461
g5
tp1462
a(S'-3.8/-3.3'
p1463
S'-3.8/-3.3'
p1464
S'CD'
p1465
S'B-NP'
p1466
g5
tp1467
a(S'mm'
p1468
S'mm'
p1469
S'NN'
p1470
S'I-NP'
p1471
g5
tp1472
a(S'Hg'
p1473
S'Hg'
p1474
S'NN'
p1475
S'I-NP'
p1476
g5
tp1477
a(g513
g513
g513
g5
g5
tp1478
a(g1021
g1021
S'NN'
p1479
S'B-NP'
p1480
g5
tp1481
a(g595
g595
S'SYM'
p1482
S'B-VP'
p1483
g5
tp1484
a(S'not'
p1485
S'not'
p1486
S'RB'
p1487
g5
g5
tp1488
a(S'significant'
p1489
S'significant'
p1490
S'JJ'
p1491
S'B-ADJP'
p1492
g5
tp1493
a(g538
g538
g538
g5
g5
tp1494
a(g97
g97
g97
g5
g5
tp1495
a(S'The'
p1496
S'The'
p1497
S'DT'
p1498
S'B-NP'
p1499
g5
tp1500
a(S'least'
p1501
S'least'
p1502
S'JJS'
p1503
S'I-NP'
p1504
g5
tp1505
a(S'effective'
p1506
S'effective'
p1507
S'JJ'
p1508
S'I-NP'
p1509
g5
tp1510
a(S'approach'
p1511
S'approach'
p1512
S'NN'
p1513
S'I-NP'
p1514
g5
tp1515
a(S'was'
p1516
S'be'
p1517
S'VBD'
p1518
S'B-VP'
p1519
g5
tp1520
a(S'adding'
p1521
S'add'
p1522
S'VBG'
p1523
S'I-VP'
p1524
g5
tp1525
a(S'benazepril'
p1526
S'benazepril'
p1527
S'IN'
p1528
S'B-NP'
p1529
g5
tp1530
a(S'20'
p1531
S'20'
p1532
S'CD'
p1533
S'I-NP'
p1534
g5
tp1535
a(S'mg/day'
p1536
S'mg/day'
p1537
S'NN'
p1538
S'I-NP'
p1539
g5
tp1540
a(S'to'
p1541
S'to'
p1542
S'TO'
p1543
S'B-VP'
p1544
g5
tp1545
a(S'valsartan'
p1546
S'valsartan'
p1547
S'VB'
p1548
S'I-VP'
p1549
g5
tp1550
a(S'160'
p1551
S'160'
p1552
S'CD'
p1553
S'B-NP'
p1554
g5
tp1555
a(S'mg/day'
p1556
S'mg/day'
p1557
S'NN'
p1558
S'I-NP'
p1559
g5
tp1560
a(S'with'
p1561
S'with'
p1562
S'IN'
p1563
S'B-PP'
p1564
g5
tp1565
a(S'no'
p1566
S'no'
p1567
S'DT'
p1568
S'B-NP'
p1569
g5
tp1570
a(S'incremental'
p1571
S'incremental'
p1572
S'JJ'
p1573
S'I-NP'
p1574
g5
tp1575
a(S'reduction'
p1576
S'reduction'
p1577
S'NN'
p1578
S'I-NP'
p1579
g5
tp1580
a(S'in'
p1581
S'in'
p1582
S'IN'
p1583
S'B-PP'
p1584
g5
tp1585
a(S'systolic'
p1586
S'systolic'
p1587
S'JJ'
p1588
S'B-NP'
p1589
g5
tp1590
a(S'blood'
p1591
S'blood'
p1592
S'NN'
p1593
S'I-NP'
p1594
g5
tp1595
a(S'pressure'
p1596
S'pressure'
p1597
S'NN'
p1598
S'I-NP'
p1599
g5
tp1600
a(S'and'
p1601
S'and'
p1602
S'CC'
p1603
g5
g5
tp1604
a(S'diastolic'
p1605
S'diastolic'
p1606
S'JJ'
p1607
S'B-NP'
p1608
g5
tp1609
a(S'blood'
p1610
S'blood'
p1611
S'NN'
p1612
S'I-NP'
p1613
g5
tp1614
a(S'pressure'
p1615
S'pressure'
p1616
S'NN'
p1617
S'I-NP'
p1618
g5
tp1619
a(S'reduction'
p1620
S'reduction'
p1621
S'NN'
p1622
S'I-NP'
p1623
g5
tp1624
a(S'of'
p1625
S'of'
p1626
S'IN'
p1627
S'B-PP'
p1628
g5
tp1629
a(S'only'
p1630
S'only'
p1631
S'RB'
p1632
S'B-NP'
p1633
g5
tp1634
a(S'1.7'
p1635
S'1.7'
p1636
S'CD'
p1637
S'I-NP'
p1638
g5
tp1639
a(S'mm'
p1640
S'mm'
p1641
S'NN'
p1642
S'I-NP'
p1643
g5
tp1644
a(S'Hg'
p1645
S'Hg'
p1646
S'NN'
p1647
S'I-NP'
p1648
g5
tp1649
a(g513
g513
g513
g5
g5
tp1650
a(g1021
g1021
S'NN'
p1651
S'B-NP'
p1652
g5
tp1653
a(g595
g595
S'SYM'
p1654
S'B-VP'
p1655
g5
tp1656
a(S'not'
p1657
S'not'
p1658
S'RB'
p1659
g5
g5
tp1660
a(S'significant'
p1661
S'significant'
p1662
S'JJ'
p1663
S'B-ADJP'
p1664
g5
tp1665
a(g538
g538
g538
g5
g5
tp1666
a(g97
g97
g97
g5
g5
tp1667
a(S'We'
p1668
S'We'
p1669
S'PRP'
p1670
S'B-NP'
p1671
g5
tp1672
a(S'conclude'
p1673
S'conclude'
p1674
S'VBP'
p1675
S'B-VP'
p1676
g5
tp1677
a(S'that'
p1678
S'that'
p1679
S'IN'
p1680
S'B-SBAR'
p1681
g5
tp1682
a(S'in'
p1683
S'in'
p1684
S'IN'
p1685
S'B-PP'
p1686
g5
tp1687
a(S'our'
p1688
S'our'
p1689
S'PRP$'
p1690
S'B-NP'
p1691
g5
tp1692
a(S'open'
p1693
S'open'
p1694
S'JJ'
p1695
S'I-NP'
p1696
g5
tp1697
a(S'label'
p1698
S'label'
p1699
S'NN'
p1700
S'I-NP'
p1701
g5
tp1702
a(S'pilot'
p1703
S'pilot'
p1704
S'NN'
p1705
S'I-NP'
p1706
g5
tp1707
a(S'study'
p1708
S'study'
p1709
S'NN'
p1710
S'I-NP'
p1711
g5
tp1712
a(g317
g317
g317
g5
g5
tp1713
a(S'the'
p1714
S'the'
p1715
S'DT'
p1716
S'B-NP'
p1717
g5
tp1718
a(S'antihypertensive'
p1719
S'antihypertensive'
p1720
S'JJ'
p1721
S'I-NP'
p1722
g5
tp1723
a(S'activity'
p1724
S'activity'
p1725
S'NN'
p1726
S'I-NP'
p1727
g5
tp1728
a(S'of'
p1729
S'of'
p1730
S'IN'
p1731
S'B-PP'
p1732
g5
tp1733
a(S'valsartan'
p1734
S'valsartan'
p1735
S'NN'
p1736
S'B-NP'
p1737
g5
tp1738
a(S'is'
p1739
S'be'
p1740
S'VBZ'
p1741
S'B-VP'
p1742
g5
tp1743
a(S'not'
p1744
S'not'
p1745
S'RB'
p1746
S'I-VP'
p1747
g5
tp1748
a(S'significantly'
p1749
S'significantly'
p1750
S'RB'
p1751
S'I-VP'
p1752
g5
tp1753
a(S'attenuated'
p1754
S'attenuate'
p1755
S'VBN'
p1756
S'I-VP'
p1757
g5
tp1758
a(S'by'
p1759
S'by'
p1760
S'IN'
p1761
S'B-PP'
p1762
g5
tp1763
a(S'supplemented'
p1764
S'supplement'
p1765
S'VBN'
p1766
S'B-NP'
p1767
g5
tp1768
a(S'salt'
p1769
S'salt'
p1770
S'NN'
p1771
S'I-NP'
p1772
g5
tp1773
a(S'diet'
p1774
S'diet'
p1775
S'NN'
p1776
S'I-NP'
p1777
g5
tp1778
a(S'in'
p1779
S'in'
p1780
S'IN'
p1781
S'B-PP'
p1782
g5
tp1783
a(S'hypertensive'
p1784
S'hypertensive'
p1785
S'JJ'
p1786
S'B-NP'
p1787
g5
tp1788
a(S'African'
p1789
S'African'
p1790
S'JJ'
p1791
S'I-NP'
p1792
g5
tp1793
a(S'Americans.'
p1794
S'Americans.'
p1795
S'NNPS'
p1796
S'I-NP'
p1797
g5
tp1798
a(S'Moreover'
p1799
S'Moreover'
p1800
S'RB'
p1801
S'B-ADVP'
p1802
g5
tp1803
a(g317
g317
g317
g5
g5
tp1804
a(S'adding'
p1805
S'add'
p1806
S'VBG'
p1807
S'B-VP'
p1808
g5
tp1809
a(g21
g21
S'DT'
p1810
S'B-NP'
p1811
g5
tp1812
a(S'low'
p1813
S'low'
p1814
S'JJ'
p1815
S'I-NP'
p1816
g5
tp1817
a(S'dose'
p1818
S'dose'
p1819
S'NN'
p1820
S'I-NP'
p1821
g5
tp1822
a(S'of'
p1823
S'of'
p1824
S'IN'
p1825
S'B-PP'
p1826
g5
tp1827
a(S'HCTZ'
p1828
S'HCTZ'
p1829
S'NN'
p1830
S'B-NP'
p1831
S'B-protein'
p1832
tp1833
a(S'appears'
p1834
S'appear'
p1835
S'VBZ'
p1836
S'B-VP'
p1837
g5
tp1838
a(S'to'
p1839
S'to'
p1840
S'TO'
p1841
S'I-VP'
p1842
g5
tp1843
a(S'be'
p1844
S'be'
p1845
S'VB'
p1846
S'I-VP'
p1847
g5
tp1848
a(S'the'
p1849
S'the'
p1850
S'DT'
p1851
S'B-NP'
p1852
g5
tp1853
a(S'most'
p1854
S'most'
p1855
S'RBS'
p1856
S'I-NP'
p1857
g5
tp1858
a(S'effective'
p1859
S'effective'
p1860
S'JJ'
p1861
S'I-NP'
p1862
g5
tp1863
a(S'strategy'
p1864
S'strategy'
p1865
S'NN'
p1866
S'I-NP'
p1867
g5
tp1868
a(S'in'
p1869
S'in'
p1870
S'IN'
p1871
S'B-PP'
p1872
g5
tp1873
a(S'enhancing'
p1874
S'enhance'
p1875
S'VBG'
p1876
S'B-VP'
p1877
g5
tp1878
a(S'the'
p1879
S'the'
p1880
S'DT'
p1881
S'B-NP'
p1882
g5
tp1883
a(S'antihypertensive'
p1884
S'antihypertensive'
p1885
S'JJ'
p1886
S'I-NP'
p1887
g5
tp1888
a(S'activity'
p1889
S'activity'
p1890
S'NN'
p1891
S'I-NP'
p1892
g5
tp1893
a(S'of'
p1894
S'of'
p1895
S'IN'
p1896
S'B-PP'
p1897
g5
tp1898
a(S'this'
p1899
S'this'
p1900
S'DT'
p1901
S'B-NP'
p1902
g5
tp1903
a(S'angiotensin'
p1904
S'angiotensin'
p1905
S'NN'
p1906
S'I-NP'
p1907
S'B-protein'
p1908
tp1909
a(S'II'
p1910
S'II'
p1911
S'CD'
p1912
S'I-NP'
p1913
S'I-protein'
p1914
tp1915
a(S'receptor'
p1916
S'receptor'
p1917
S'NN'
p1918
S'I-NP'
p1919
S'I-protein'
p1920
tp1921
a(S'blocker'
p1922
S'blocker'
p1923
S'NN'
p1924
S'I-NP'
p1925
g5
tp1926
a(S'in'
p1927
S'in'
p1928
S'IN'
p1929
S'B-PP'
p1930
g5
tp1931
a(S'contrast'
p1932
S'contrast'
p1933
S'NN'
p1934
S'B-NP'
p1935
g5
tp1936
a(S'to'
p1937
S'to'
p1938
S'TO'
p1939
S'B-PP'
p1940
g5
tp1941
a(S'either'
p1942
S'either'
p1943
S'CC'
p1944
g5
g5
tp1945
a(S'doubling'
p1946
S'double'
p1947
S'VBG'
p1948
S'B-VP'
p1949
g5
tp1950
a(S'the'
p1951
S'the'
p1952
S'DT'
p1953
S'B-NP'
p1954
g5
tp1955
a(S'dose'
p1956
S'dose'
p1957
S'NN'
p1958
S'I-NP'
p1959
g5
tp1960
a(S'or'
p1961
S'or'
p1962
S'CC'
p1963
g5
g5
tp1964
a(S'adding'
p1965
S'add'
p1966
S'VBG'
p1967
S'B-VP'
p1968
g5
tp1969
a(S'an'
p1970
S'an'
p1971
S'DT'
p1972
S'B-NP'
p1973
g5
tp1974
a(S'angiotensin'
p1975
S'angiotensin'
p1976
S'NN'
p1977
S'I-NP'
p1978
g5
tp1979
a(S'converting'
p1980
S'convert'
p1981
S'VBG'
p1982
S'B-VP'
p1983
g5
tp1984
a(S'enzyme'
p1985
S'enzyme'
p1986
S'NN'
p1987
S'B-NP'
p1988
g5
tp1989
a(S'inhibitor'
p1990
S'inhibitor'
p1991
S'NN'
p1992
S'I-NP'
p1993
g5
tp1994
a(g97
g97
g97
g5
g5
tp1995
a.