(lp0
(S'Development'
p1
S'Development'
p2
S'NN'
p3
S'B-NP'
p4
S'O'
p5
tp6
a(S'of'
p7
S'of'
p8
S'IN'
p9
S'B-PP'
p10
g5
tp11
a(S'autistic'
p12
S'autistic'
p13
S'JJ'
p14
S'B-NP'
p15
g5
tp16
a(S'children'
p17
S'child'
p18
S'NNS'
p19
S'I-NP'
p20
g5
tp21
a(S'based'
p22
S'base'
p23
S'VBN'
p24
S'B-PP'
p25
g5
tp26
a(S'on'
p27
S'on'
p28
S'IN'
p29
S'B-PP'
p30
g5
tp31
a(S'maternal'
p32
S'maternal'
p33
S'JJ'
p34
S'B-NP'
p35
g5
tp36
a(S'responses'
p37
S'response'
p38
S'NNS'
p39
S'I-NP'
p40
g5
tp41
a(S'to'
p42
S'to'
p43
S'TO'
p44
S'B-PP'
p45
g5
tp46
a(S'the'
p47
S'the'
p48
S'DT'
p49
S'B-NP'
p50
g5
tp51
a(S'Autism'
p52
S'Autism'
p53
S'NNP'
p54
S'I-NP'
p55
g5
tp56
a(S'Behavior'
p57
S'Behavior'
p58
S'NNP'
p59
S'I-NP'
p60
g5
tp61
a(S'Checklist'
p62
S'Checklist'
p63
S'NNP'
p64
S'I-NP'
p65
g5
tp66
a(S'.'
p67
g67
g67
g5
g5
tp68
a(S'BACKGROUND'
p69
S'BACKGROUND'
p70
S'NN'
p71
S'B-NP'
p72
g5
tp73
a(S'language'
p74
S'language'
p75
S'NN'
p76
S'I-NP'
p77
g5
tp78
a(S'and'
p79
S'and'
p80
S'CC'
p81
g5
g5
tp82
a(S'speech-language'
p83
S'speech-language'
p84
S'JJ'
p85
S'B-NP'
p86
g5
tp87
a(S'intervention'
p88
S'intervention'
p89
S'NN'
p90
S'I-NP'
p91
g5
tp92
a(g67
g67
g67
g5
g5
tp93
a(S'AIM'
p94
S'AIM'
p95
S'NN'
p96
S'B-NP'
p97
g5
tp98
a(S'to'
p99
S'to'
p100
S'TO'
p101
S'B-VP'
p102
g5
tp103
a(S'evaluate'
p104
S'evaluate'
p105
S'VB'
p106
S'I-VP'
p107
g5
tp108
a(S'the'
p109
S'the'
p110
S'DT'
p111
S'B-NP'
p112
g5
tp113
a(S'development'
p114
S'development'
p115
S'NN'
p116
S'I-NP'
p117
g5
tp118
a(S'process'
p119
S'process'
p120
S'NN'
p121
S'I-NP'
p122
g5
tp123
a(S'of'
p124
S'of'
p125
S'IN'
p126
S'B-PP'
p127
g5
tp128
a(S'autistic'
p129
S'autistic'
p130
S'JJ'
p131
S'B-NP'
p132
g5
tp133
a(S'children'
p134
S'child'
p135
S'NNS'
p136
S'I-NP'
p137
g5
tp138
a(S','
p139
g139
g139
g5
g5
tp140
a(S'in'
p141
S'in'
p142
S'IN'
p143
S'B-PP'
p144
g5
tp145
a(S'a'
p146
g146
S'DT'
p147
S'B-NP'
p148
g5
tp149
a(S'direct'
p150
S'direct'
p151
S'JJ'
p152
S'I-NP'
p153
g5
tp154
a(S'and'
p155
S'and'
p156
S'CC'
p157
S'I-NP'
p158
g5
tp159
a(S'indirect'
p160
S'indirect'
p161
S'JJ'
p162
S'I-NP'
p163
g5
tp164
a(S'intervention'
p165
S'intervention'
p166
S'NN'
p167
S'I-NP'
p168
g5
tp169
a(S'context'
p170
S'context'
p171
S'NN'
p172
S'I-NP'
p173
g5
tp174
a(S'based'
p175
S'base'
p176
S'VBN'
p177
S'B-VP'
p178
g5
tp179
a(S'on'
p180
S'on'
p181
S'IN'
p182
S'B-PP'
p183
g5
tp184
a(S'the'
p185
S'the'
p186
S'DT'
p187
S'B-NP'
p188
g5
tp189
a(S'responses'
p190
S'response'
p191
S'NNS'
p192
S'I-NP'
p193
g5
tp194
a(S'of'
p195
S'of'
p196
S'IN'
p197
S'B-PP'
p198
g5
tp199
a(S'mothers'
p200
S'mother'
p201
S'NNS'
p202
S'B-NP'
p203
g5
tp204
a(S'to'
p205
S'to'
p206
S'TO'
p207
S'B-PP'
p208
g5
tp209
a(S'the'
p210
S'the'
p211
S'DT'
p212
S'B-NP'
p213
g5
tp214
a(S'Autism'
p215
S'Autism'
p216
S'NNP'
p217
S'I-NP'
p218
g5
tp219
a(S'Behavior'
p220
S'Behavior'
p221
S'NNP'
p222
S'I-NP'
p223
g5
tp224
a(S'Checklist'
p225
S'Checklist'
p226
S'NNP'
p227
S'I-NP'
p228
g5
tp229
a(g67
g67
g67
g5
g5
tp230
a(S'METHOD'
p231
S'METHOD'
p232
S'NN'
p233
S'B-NP'
p234
g5
tp235
a(S'the'
p236
S'the'
p237
S'DT'
p238
S'B-NP'
p239
g5
tp240
a(S'research'
p241
S'research'
p242
S'NN'
p243
S'I-NP'
p244
g5
tp245
a(S'sample'
p246
S'sample'
p247
S'NN'
p248
S'I-NP'
p249
g5
tp250
a(S'consisted'
p251
S'consist'
p252
S'VBD'
p253
S'B-VP'
p254
g5
tp255
a(S'of'
p256
S'of'
p257
S'IN'
p258
S'B-PP'
p259
g5
tp260
a(S'11'
p261
S'11'
p262
S'CD'
p263
S'B-NP'
p264
g5
tp265
a(S'mothers'
p266
S'mother'
p267
S'NNS'
p268
S'I-NP'
p269
g5
tp270
a(S'of'
p271
S'of'
p272
S'IN'
p273
S'B-PP'
p274
g5
tp275
a(S'children'
p276
S'child'
p277
S'NNS'
p278
S'B-NP'
p279
g5
tp280
a(S'diagnosed'
p281
S'diagnose'
p282
S'VBN'
p283
S'B-VP'
p284
g5
tp285
a(g139
g139
g139
g5
g5
tp286
a(S'according'
p287
S'accord'
p288
S'VBG'
p289
S'B-PP'
p290
g5
tp291
a(S'to'
p292
S'to'
p293
S'TO'
p294
S'B-PP'
p295
g5
tp296
a(S'the'
p297
S'the'
p298
S'DT'
p299
S'B-NP'
p300
g5
tp301
a(S'criteria'
p302
S'criterion'
p303
S'NNS'
p304
S'I-NP'
p305
g5
tp306
a(S'established'
p307
S'establish'
p308
S'VBN'
p309
S'B-VP'
p310
g5
tp311
a(S'by'
p312
S'by'
p313
S'IN'
p314
S'B-PP'
p315
g5
tp316
a(S'the'
p317
S'the'
p318
S'DT'
p319
S'B-NP'
p320
g5
tp321
a(S'DSM'
p322
S'DSM'
p323
S'NN'
p324
S'I-NP'
p325
S'B-DNA'
p326
tp327
a(S'IVtr'
p328
S'IVtr'
p329
S'NN'
p330
S'I-NP'
p331
S'I-DNA'
p332
tp333
a(S'('
p334
g334
g334
g5
g5
tp335
a(S'APA'
p336
S'APA'
p337
S'NN'
p338
S'B-NP'
p339
g5
tp340
a(g139
g139
g139
g5
g5
tp341
a(S'2002'
p342
S'2002'
p343
S'CD'
p344
S'B-NP'
p345
g5
tp346
a(S')'
p347
g347
g347
g5
g5
tp348
a(g139
g139
g139
g5
g5
tp349
a(S'with'
p350
S'with'
p351
S'IN'
p352
S'B-PP'
p353
g5
tp354
a(S'autism'
p355
S'autism'
p356
S'NN'
p357
S'B-NP'
p358
g5
tp359
a(g334
g334
g334
g5
g5
tp360
a(S'six'
p361
S'six'
p362
S'CD'
p363
S'B-NP'
p364
g5
tp365
a(g347
g347
g347
g5
g5
tp366
a(S'and'
p367
S'and'
p368
S'CC'
p369
g5
g5
tp370
a(S'with'
p371
S'with'
p372
S'IN'
p373
S'B-PP'
p374
g5
tp375
a(S'Asperger'
p376
S'Asperger'
p377
S'NN'
p378
S'B-NP'
p379
g5
tp380
a(S'Syndrome'
p381
S'Syndrome'
p382
S'NN'
p383
S'I-NP'
p384
g5
tp385
a(g334
g334
g334
g5
g5
tp386
a(S'five'
p387
S'five'
p388
S'CD'
p389
S'B-NP'
p390
g5
tp391
a(g347
g347
g347
g5
g5
tp392
a(S'and'
p393
S'and'
p394
S'CC'
p395
g5
g5
tp396
a(S'who'
p397
S'who'
p398
S'WP'
p399
S'B-NP'
p400
g5
tp401
a(S'were'
p402
S'be'
p403
S'VBD'
p404
S'B-VP'
p405
g5
tp406
a(S'seen'
p407
S'see'
p408
S'VBN'
p409
S'I-VP'
p410
g5
tp411
a(S'at'
p412
S'at'
p413
S'IN'
p414
S'B-PP'
p415
g5
tp416
a(S'the'
p417
S'the'
p418
S'DT'
p419
S'B-NP'
p420
g5
tp421
a(S'Investigation'
p422
S'Investigation'
p423
S'NNP'
p424
S'I-NP'
p425
g5
tp426
a(S'Laboratory'
p427
S'Laboratory'
p428
S'NNP'
p429
S'I-NP'
p430
g5
tp431
a(S'of'
p432
S'of'
p433
S'IN'
p434
S'B-PP'
p435
g5
tp436
a(S'Global'
p437
S'Global'
p438
S'NNP'
p439
S'B-NP'
p440
g5
tp441
a(S'Developmental'
p442
S'Developmental'
p443
S'NNP'
p444
S'I-NP'
p445
g5
tp446
a(S'Disorders'
p447
S'Disorders'
p448
S'NNP'
p449
S'I-NP'
p450
g5
tp451
a(S'of'
p452
S'of'
p453
S'IN'
p454
S'B-PP'
p455
g5
tp456
a(S'the'
p457
S'the'
p458
S'DT'
p459
S'B-NP'
p460
g5
tp461
a(S'Federal'
p462
S'Federal'
p463
S'NNP'
p464
S'I-NP'
p465
g5
tp466
a(S'University'
p467
S'University'
p468
S'NNP'
p469
S'I-NP'
p470
g5
tp471
a(S'of'
p472
S'of'
p473
S'IN'
p474
S'B-PP'
p475
g5
tp476
a(S'S\xc3\xa3o'
p477
S'S\xc3\xa3o'
p478
S'NNP'
p479
S'B-NP'
p480
g5
tp481
a(S'Paulo.'
p482
S'Paulo.'
p483
S'NNP'
p484
S'I-NP'
p485
g5
tp486
a(S'These'
p487
S'These'
p488
S'DT'
p489
S'B-NP'
p490
g5
tp491
a(S'children'
p492
S'child'
p493
S'NNS'
p494
S'I-NP'
p495
g5
tp496
a(S'were'
p497
S'be'
p498
S'VBD'
p499
S'B-VP'
p500
g5
tp501
a(S'randomly'
p502
S'randomly'
p503
S'RB'
p504
S'I-VP'
p505
g5
tp506
a(S'divided'
p507
S'divide'
p508
S'VBN'
p509
S'I-VP'
p510
g5
tp511
a(S'into'
p512
S'into'
p513
S'IN'
p514
S'B-PP'
p515
g5
tp516
a(S'two'
p517
S'two'
p518
S'CD'
p519
S'B-NP'
p520
g5
tp521
a(S'groups'
p522
S'group'
p523
S'NNS'
p524
S'I-NP'
p525
g5
tp526
a(S':'
p527
g527
g527
g5
g5
tp528
a(S'Six'
p529
S'Six'
p530
S'CD'
p531
S'B-NP'
p532
g5
tp533
a(S'were'
p534
S'be'
p535
S'VBD'
p536
S'B-VP'
p537
g5
tp538
a(S'receiving'
p539
S'receive'
p540
S'VBG'
p541
S'I-VP'
p542
g5
tp543
a(S'both'
p544
S'both'
p545
S'CC'
p546
g5
g5
tp547
a(S'direct'
p548
S'direct'
p549
S'JJ'
p550
S'B-NP'
p551
g5
tp552
a(S'and'
p553
S'and'
p554
S'CC'
p555
S'I-NP'
p556
g5
tp557
a(S'indirect'
p558
S'indirect'
p559
S'JJ'
p560
S'I-NP'
p561
g5
tp562
a(S'intervention'
p563
S'intervention'
p564
S'NN'
p565
S'I-NP'
p566
g5
tp567
a(g334
g334
g334
g5
g5
tp568
a(S'TG'
p569
S'TG'
p570
S'NN'
p571
S'B-NP'
p572
S'B-protein'
p573
tp574
a(g347
g347
g347
g5
g5
tp575
a(g139
g139
g139
g5
g5
tp576
a(S'and'
p577
S'and'
p578
S'CC'
p579
g5
g5
tp580
a(S'five'
p581
S'five'
p582
S'CD'
p583
S'B-NP'
p584
g5
tp585
a(S'were'
p586
S'be'
p587
S'VBD'
p588
S'B-VP'
p589
g5
tp590
a(S'receiving'
p591
S'receive'
p592
S'VBG'
p593
S'I-VP'
p594
g5
tp595
a(S'indirect'
p596
S'indirect'
p597
S'JJ'
p598
S'B-NP'
p599
g5
tp600
a(S'intervention'
p601
S'intervention'
p602
S'NN'
p603
S'I-NP'
p604
g5
tp605
a(S'exclusively'
p606
S'exclusively'
p607
S'RB'
p608
S'B-ADVP'
p609
g5
tp610
a(g334
g334
g334
g5
g5
tp611
a(S'OG'
p612
S'OG'
p613
S'NN'
p614
S'B-NP'
p615
g5
tp616
a(g347
g347
g347
g5
g5
tp617
a(g67
g67
g67
g5
g5
tp618
a(S'The'
p619
S'The'
p620
S'DT'
p621
S'B-NP'
p622
g5
tp623
a(S'Autism'
p624
S'Autism'
p625
S'NNP'
p626
S'I-NP'
p627
g5
tp628
a(S'Behavior'
p629
S'Behavior'
p630
S'NNP'
p631
S'I-NP'
p632
g5
tp633
a(S'Checklist'
p634
S'Checklist'
p635
S'NNP'
p636
S'I-NP'
p637
g5
tp638
a(g334
g334
g334
g5
g5
tp639
a(S'Krug'
p640
S'Krug'
p641
S'NNP'
p642
S'B-NP'
p643
g5
tp644
a(S'et'
p645
S'et'
p646
S'FW'
p647
S'I-NP'
p648
g5
tp649
a(S'al.'
p650
S'al.'
p651
S'FW'
p652
S'I-NP'
p653
g5
tp654
a(g139
g139
g139
g5
g5
tp655
a(S'1993'
p656
S'1993'
p657
S'CD'
p658
S'B-NP'
p659
g5
tp660
a(g347
g347
g347
g5
g5
tp661
a(S'was'
p662
S'be'
p663
S'VBD'
p664
S'B-VP'
p665
g5
tp666
a(S'used'
p667
S'use'
p668
S'VBN'
p669
S'I-VP'
p670
g5
tp671
a(g139
g139
g139
g5
g5
tp672
a(S'adapted'
p673
S'adapt'
p674
S'VBN'
p675
S'B-VP'
p676
g5
tp677
a(S'to'
p678
S'to'
p679
S'TO'
p680
S'B-PP'
p681
g5
tp682
a(S'the'
p683
S'the'
p684
S'DT'
p685
S'B-NP'
p686
g5
tp687
a(S'Portuguese'
p688
S'Portuguese'
p689
S'JJ'
p690
S'I-NP'
p691
g5
tp692
a(S'language'
p693
S'language'
p694
S'NN'
p695
S'I-NP'
p696
g5
tp697
a(S'by'
p698
S'by'
p699
S'IN'
p700
S'B-PP'
p701
g5
tp702
a(S'Marteleto'
p703
S'Marteleto'
p704
S'NNP'
p705
S'B-NP'
p706
g5
tp707
a(g334
g334
g334
g5
g5
tp708
a(S'2003'
p709
S'2003'
p710
S'CD'
p711
S'B-NP'
p712
g5
tp713
a(g347
g347
g347
g5
g5
tp714
a(g67
g67
g67
g5
g5
tp715
a(S'This'
p716
S'This'
p717
S'DT'
p718
S'B-NP'
p719
g5
tp720
a(S'behavior'
p721
S'behavior'
p722
S'NN'
p723
S'I-NP'
p724
g5
tp725
a(S'checklist'
p726
S'checklist'
p727
S'NN'
p728
S'I-NP'
p729
g5
tp730
a(g334
g334
g334
g5
g5
tp731
a(S'57'
p732
S'57'
p733
S'CD'
p734
S'B-NP'
p735
g5
tp736
a(S'items'
p737
S'item'
p738
S'NNS'
p739
S'I-NP'
p740
g5
tp741
a(g347
g347
g347
g5
g5
tp742
a(S'allows'
p743
S'allow'
p744
S'VBZ'
p745
S'B-VP'
p746
g5
tp747
a(S'the'
p748
S'the'
p749
S'DT'
p750
S'B-NP'
p751
g5
tp752
a(S'detailed'
p753
S'detailed'
p754
S'JJ'
p755
S'I-NP'
p756
g5
tp757
a(S'description'
p758
S'description'
p759
S'NN'
p760
S'I-NP'
p761
g5
tp762
a(S'of'
p763
S'of'
p764
S'IN'
p765
S'B-PP'
p766
g5
tp767
a(S'non-adaptable'
p768
S'non-adaptable'
p769
S'JJ'
p770
S'B-NP'
p771
g5
tp772
a(S'characteristics'
p773
S'characteristic'
p774
S'NNS'
p775
S'I-NP'
p776
g5
tp777
a(S'regarding'
p778
S'regard'
p779
S'VBG'
p780
S'B-VP'
p781
g5
tp782
a(S'the'
p783
S'the'
p784
S'DT'
p785
S'B-NP'
p786
g5
tp787
a(S'following'
p788
S'follow'
p789
S'VBG'
p790
S'I-NP'
p791
g5
tp792
a(S'areas'
p793
S'area'
p794
S'NNS'
p795
S'I-NP'
p796
g5
tp797
a(g527
g527
g527
g5
g5
tp798
a(S'sensory'
p799
S'sensory'
p800
S'JJ'
p801
S'B-ADJP'
p802
g5
tp803
a(g139
g139
g139
g5
g5
tp804
a(S'use'
p805
S'use'
p806
S'NN'
p807
S'B-NP'
p808
g5
tp809
a(S'of'
p810
S'of'
p811
S'IN'
p812
S'B-PP'
p813
g5
tp814
a(S'the'
p815
S'the'
p816
S'DT'
p817
S'B-NP'
p818
g5
tp819
a(S'body'
p820
S'body'
p821
S'NN'
p822
S'I-NP'
p823
g5
tp824
a(S'and'
p825
S'and'
p826
S'CC'
p827
S'I-NP'
p828
g5
tp829
a(S'object'
p830
S'object'
p831
S'NN'
p832
S'I-NP'
p833
g5
tp834
a(g139
g139
g139
g5
g5
tp835
a(S'Language'
p836
S'Language'
p837
S'NN'
p838
S'B-NP'
p839
g5
tp840
a(g139
g139
g139
g5
g5
tp841
a(S'Psycho-social'
p842
S'Psycho-social'
p843
S'JJ'
p844
S'B-NP'
p845
g5
tp846
a(S'and'
p847
S'and'
p848
S'CC'
p849
S'I-NP'
p850
g5
tp851
a(S'Relational.'
p852
S'Relational.'
p853
S'NNP'
p854
S'I-NP'
p855
g5
tp856
a(S'The'
p857
S'The'
p858
S'DT'
p859
S'B-NP'
p860
g5
tp861
a(S'questionnaire'
p862
S'questionnaire'
p863
S'NN'
p864
S'I-NP'
p865
g5
tp866
a(S'was'
p867
S'be'
p868
S'VBD'
p869
S'B-VP'
p870
g5
tp871
a(S'filled'
p872
S'fill'
p873
S'VBN'
p874
S'I-VP'
p875
g5
tp876
a(S'in'
p877
S'in'
p878
S'IN'
p879
S'B-PP'
p880
g5
tp881
a(S'during'
p882
S'during'
p883
S'IN'
p884
S'B-PP'
p885
g5
tp886
a(S'an'
p887
S'an'
p888
S'DT'
p889
S'B-NP'
p890
g5
tp891
a(S'interview'
p892
S'interview'
p893
S'NN'
p894
S'I-NP'
p895
g5
tp896
a(S'on'
p897
S'on'
p898
S'IN'
p899
S'B-PP'
p900
g5
tp901
a(S'three'
p902
S'three'
p903
S'CD'
p904
S'B-NP'
p905
g5
tp906
a(S'occasions'
p907
S'occasion'
p908
S'NNS'
p909
S'I-NP'
p910
g5
tp911
a(g527
g527
g527
g5
g5
tp912
a(S'at'
p913
S'at'
p914
S'IN'
p915
S'B-PP'
p916
g5
tp917
a(S'the'
p918
S'the'
p919
S'DT'
p920
S'B-NP'
p921
g5
tp922
a(S'beginning'
p923
S'beginning'
p924
S'NN'
p925
S'I-NP'
p926
g5
tp927
a(S'of'
p928
S'of'
p929
S'IN'
p930
S'B-PP'
p931
g5
tp932
a(S'intervention'
p933
S'intervention'
p934
S'NN'
p935
S'B-NP'
p936
g5
tp937
a(g139
g139
g139
g5
g5
tp938
a(S'after'
p939
S'after'
p940
S'IN'
p941
S'B-PP'
p942
g5
tp943
a(S'six'
p944
S'six'
p945
S'CD'
p946
S'B-NP'
p947
g5
tp948
a(S'months'
p949
S'month'
p950
S'NNS'
p951
S'I-NP'
p952
g5
tp953
a(S'and'
p954
S'and'
p955
S'CC'
p956
g5
g5
tp957
a(S'at'
p958
S'at'
p959
S'IN'
p960
S'B-PP'
p961
g5
tp962
a(S'the'
p963
S'the'
p964
S'DT'
p965
S'B-NP'
p966
g5
tp967
a(S'end'
p968
S'end'
p969
S'NN'
p970
S'I-NP'
p971
g5
tp972
a(S'of'
p973
S'of'
p974
S'IN'
p975
S'B-PP'
p976
g5
tp977
a(S'12'
p978
S'12'
p979
S'CD'
p980
S'B-NP'
p981
g5
tp982
a(S'months'
p983
S'month'
p984
S'NNS'
p985
S'I-NP'
p986
g5
tp987
a(g67
g67
g67
g5
g5
tp988
a(S'RESULTS'
p989
S'RESULTS'
p990
S'NNS'
p991
S'B-NP'
p992
g5
tp993
a(S'after'
p994
S'after'
p995
S'IN'
p996
S'B-PP'
p997
g5
tp998
a(S'statistical'
p999
S'statistical'
p1000
S'JJ'
p1001
S'B-NP'
p1002
g5
tp1003
a(S'analysis'
p1004
S'analysis'
p1005
S'NN'
p1006
S'I-NP'
p1007
g5
tp1008
a(S'it'
p1009
S'it'
p1010
S'PRP'
p1011
S'B-NP'
p1012
g5
tp1013
a(S'was'
p1014
S'be'
p1015
S'VBD'
p1016
S'B-VP'
p1017
g5
tp1018
a(S'observed'
p1019
S'observe'
p1020
S'VBN'
p1021
S'I-VP'
p1022
g5
tp1023
a(S'that'
p1024
S'that'
p1025
S'IN'
p1026
S'B-SBAR'
p1027
g5
tp1028
a(S'there'
p1029
S'there'
p1030
S'EX'
p1031
S'B-NP'
p1032
g5
tp1033
a(S'was'
p1034
S'be'
p1035
S'VBD'
p1036
S'B-VP'
p1037
g5
tp1038
a(g146
g146
S'DT'
p1039
S'B-NP'
p1040
g5
tp1041
a(S'greater'
p1042
S'great'
p1043
S'JJR'
p1044
S'I-NP'
p1045
g5
tp1046
a(S'development'
p1047
S'development'
p1048
S'NN'
p1049
S'I-NP'
p1050
g5
tp1051
a(S'in'
p1052
S'in'
p1053
S'IN'
p1054
S'B-PP'
p1055
g5
tp1056
a(S'the'
p1057
S'the'
p1058
S'DT'
p1059
S'B-NP'
p1060
g5
tp1061
a(S'total'
p1062
S'total'
p1063
S'JJ'
p1064
S'I-NP'
p1065
g5
tp1066
a(S'scores'
p1067
S'score'
p1068
S'NNS'
p1069
S'I-NP'
p1070
g5
tp1071
a(S'and'
p1072
S'and'
p1073
S'CC'
p1074
S'B-PP'
p1075
g5
tp1076
a(S'in'
p1077
S'in'
p1078
S'IN'
p1079
S'B-PP'
p1080
g5
tp1081
a(S'the'
p1082
S'the'
p1083
S'DT'
p1084
S'B-NP'
p1085
g5
tp1086
a(S'areas'
p1087
S'area'
p1088
S'NNS'
p1089
S'I-NP'
p1090
g5
tp1091
a(S'of'
p1092
S'of'
p1093
S'IN'
p1094
S'B-PP'
p1095
g5
tp1096
a(S'language'
p1097
S'language'
p1098
S'NN'
p1099
S'B-NP'
p1100
g5
tp1101
a(g139
g139
g139
g5
g5
tp1102
a(S'psycho-social'
p1103
S'psycho-social'
p1104
S'JJ'
p1105
S'B-ADJP'
p1106
g5
tp1107
a(S'and'
p1108
S'and'
p1109
S'CC'
p1110
S'I-ADJP'
p1111
g5
tp1112
a(S'relational'
p1113
S'relational'
p1114
S'JJ'
p1115
S'I-ADJP'
p1116
g5
tp1117
a(S'for'
p1118
S'for'
p1119
S'IN'
p1120
S'B-PP'
p1121
g5
tp1122
a(S'the'
p1123
S'the'
p1124
S'DT'
p1125
S'B-NP'
p1126
g5
tp1127
a(S'TG.'
p1128
S'TG.'
p1129
S'NNP'
p1130
S'I-NP'
p1131
g5
tp1132
a(S'This'
p1133
S'This'
p1134
S'NNP'
p1135
S'I-NP'
p1136
g5
tp1137
a(S'suggests'
p1138
S'suggest'
p1139
S'VBZ'
p1140
S'B-VP'
p1141
g5
tp1142
a(g146
g146
S'DT'
p1143
S'B-NP'
p1144
g5
tp1145
a(S'greater'
p1146
S'great'
p1147
S'JJR'
p1148
S'I-NP'
p1149
g5
tp1150
a(S'development'
p1151
S'development'
p1152
S'NN'
p1153
S'I-NP'
p1154
g5
tp1155
a(S'pattern'
p1156
S'pattern'
p1157
S'NN'
p1158
S'I-NP'
p1159
g5
tp1160
a(S'during'
p1161
S'during'
p1162
S'IN'
p1163
S'B-PP'
p1164
g5
tp1165
a(S'the'
p1166
S'the'
p1167
S'DT'
p1168
S'B-NP'
p1169
g5
tp1170
a(S'studied'
p1171
S'study'
p1172
S'VBN'
p1173
S'I-NP'
p1174
g5
tp1175
a(S'period'
p1176
S'period'
p1177
S'NN'
p1178
S'I-NP'
p1179
g5
tp1180
a(S'for'
p1181
S'for'
p1182
S'IN'
p1183
S'B-PP'
p1184
g5
tp1185
a(S'this'
p1186
S'this'
p1187
S'DT'
p1188
S'B-NP'
p1189
g5
tp1190
a(S'group'
p1191
S'group'
p1192
S'NN'
p1193
S'I-NP'
p1194
g5
tp1195
a(g67
g67
g67
g5
g5
tp1196
a(S'CONCLUSION'
p1197
S'CONCLUSION'
p1198
S'NN'
p1199
S'B-NP'
p1200
g5
tp1201
a(S'the'
p1202
S'the'
p1203
S'DT'
p1204
S'B-NP'
p1205
g5
tp1206
a(S'mothers'
p1207
S'mother'
p1208
S'NNS'
p1209
S'I-NP'
p1210
g5
tp1211
a(S'of'
p1212
S'of'
p1213
S'IN'
p1214
S'B-PP'
p1215
g5
tp1216
a(S'both'
p1217
S'both'
p1218
S'DT'
p1219
S'B-NP'
p1220
g5
tp1221
a(S'groups'
p1222
S'group'
p1223
S'NNS'
p1224
S'I-NP'
p1225
g5
tp1226
a(S'observed'
p1227
S'observe'
p1228
S'VBN'
p1229
S'B-VP'
p1230
g5
tp1231
a(S'behavioral'
p1232
S'behavioral'
p1233
S'JJ'
p1234
S'B-NP'
p1235
g5
tp1236
a(S'changes.'
p1237
S'changes.'
p1238
S'NNS'
p1239
S'I-NP'
p1240
g5
tp1241
a(S'The'
p1242
S'The'
p1243
S'DT'
p1244
S'B-NP'
p1245
g5
tp1246
a(S'better'
p1247
S'good'
p1248
S'JJR'
p1249
S'I-NP'
p1250
g5
tp1251
a(S'scores'
p1252
S'score'
p1253
S'NNS'
p1254
S'I-NP'
p1255
g5
tp1256
a(S'observed'
p1257
S'observe'
p1258
S'VBN'
p1259
S'B-VP'
p1260
g5
tp1261
a(S'for'
p1262
S'for'
p1263
S'IN'
p1264
S'B-PP'
p1265
g5
tp1266
a(S'the'
p1267
S'the'
p1268
S'DT'
p1269
S'B-NP'
p1270
g5
tp1271
a(S'TG'
p1272
S'TG'
p1273
S'NN'
p1274
S'I-NP'
p1275
S'B-protein'
p1276
tp1277
a(S'is'
p1278
S'be'
p1279
S'VBZ'
p1280
S'B-VP'
p1281
g5
tp1282
a(S'probably'
p1283
S'probably'
p1284
S'RB'
p1285
S'I-VP'
p1286
g5
tp1287
a(S'related'
p1288
S'relate'
p1289
S'VBN'
p1290
S'I-VP'
p1291
g5
tp1292
a(S'to'
p1293
S'to'
p1294
S'TO'
p1295
S'B-PP'
p1296
g5
tp1297
a(S'the'
p1298
S'the'
p1299
S'DT'
p1300
S'B-NP'
p1301
g5
tp1302
a(S'effectiveness'
p1303
S'effectiveness'
p1304
S'NN'
p1305
S'I-NP'
p1306
g5
tp1307
a(S'of'
p1308
S'of'
p1309
S'IN'
p1310
S'B-PP'
p1311
g5
tp1312
a(S'direct'
p1313
S'direct'
p1314
S'JJ'
p1315
S'B-NP'
p1316
g5
tp1317
a(S'intervention'
p1318
S'intervention'
p1319
S'NN'
p1320
S'I-NP'
p1321
g5
tp1322
a(g139
g139
g139
g5
g5
tp1323
a(S'and'
p1324
S'and'
p1325
S'CC'
p1326
g5
g5
tp1327
a(S'not'
p1328
S'not'
p1329
S'RB'
p1330
S'B-PP'
p1331
g5
tp1332
a(S'to'
p1333
S'to'
p1334
S'TO'
p1335
S'I-PP'
p1336
g5
tp1337
a(S'the'
p1338
S'the'
p1339
S'DT'
p1340
S'B-NP'
p1341
g5
tp1342
a(S'lack'
p1343
S'lack'
p1344
S'NN'
p1345
S'I-NP'
p1346
g5
tp1347
a(S'of'
p1348
S'of'
p1349
S'IN'
p1350
S'B-PP'
p1351
g5
tp1352
a(S'attention'
p1353
S'attention'
p1354
S'NN'
p1355
S'B-NP'
p1356
g5
tp1357
a(S'of'
p1358
S'of'
p1359
S'IN'
p1360
S'B-PP'
p1361
g5
tp1362
a(S'parents'
p1363
S'parent'
p1364
S'NNS'
p1365
S'B-NP'
p1366
g5
tp1367
a(S'in'
p1368
S'in'
p1369
S'IN'
p1370
S'B-PP'
p1371
g5
tp1372
a(S'the'
p1373
S'the'
p1374
S'DT'
p1375
S'B-NP'
p1376
g5
tp1377
a(S'OG'
p1378
S'OG'
p1379
S'NN'
p1380
S'I-NP'
p1381
g5
tp1382
a(S'in'
p1383
S'in'
p1384
S'IN'
p1385
S'B-PP'
p1386
g5
tp1387
a(S'recognizing'
p1388
S'recognize'
p1389
S'VBG'
p1390
S'B-VP'
p1391
g5
tp1392
a(S'behavioral'
p1393
S'behavioral'
p1394
S'JJ'
p1395
S'B-NP'
p1396
g5
tp1397
a(S'changes'
p1398
S'change'
p1399
S'NNS'
p1400
S'I-NP'
p1401
g5
tp1402
a(S'in'
p1403
S'in'
p1404
S'IN'
p1405
S'B-PP'
p1406
g5
tp1407
a(S'their'
p1408
S'their'
p1409
S'PRP$'
p1410
S'B-NP'
p1411
g5
tp1412
a(S'children'
p1413
S'child'
p1414
S'NNS'
p1415
S'I-NP'
p1416
g5
tp1417
a(g67
g67
g67
g5
g5
tp1418
a.