(lp0
(S'A'
p1
g1
S'DT'
p2
S'B-NP'
p3
S'O'
p4
tp5
a(S'simplified'
p6
S'simplified'
p7
S'JJ'
p8
S'I-NP'
p9
g4
tp10
a(S'score'
p11
S'score'
p12
S'NN'
p13
S'I-NP'
p14
g4
tp15
a(S'for'
p16
S'for'
p17
S'IN'
p18
S'B-PP'
p19
g4
tp20
a(S'transfer'
p21
S'transfer'
p22
S'NN'
p23
S'B-NP'
p24
g4
tp25
a(S'of'
p26
S'of'
p27
S'IN'
p28
S'B-PP'
p29
g4
tp30
a(S'patients'
p31
S'patient'
p32
S'NNS'
p33
S'B-NP'
p34
g4
tp35
a(S'requiring'
p36
S'require'
p37
S'VBG'
p38
S'B-VP'
p39
g4
tp40
a(S'mechanical'
p41
S'mechanical'
p42
S'JJ'
p43
S'B-NP'
p44
g4
tp45
a(S'ventilation'
p46
S'ventilation'
p47
S'NN'
p48
S'I-NP'
p49
g4
tp50
a(S'to'
p51
S'to'
p52
S'TO'
p53
S'B-PP'
p54
g4
tp55
a(S'a'
p56
g56
S'DT'
p57
S'B-NP'
p58
g4
tp59
a(S'long-term'
p60
S'long-term'
p61
S'JJ'
p62
S'I-NP'
p63
g4
tp64
a(S'care'
p65
S'care'
p66
S'NN'
p67
S'I-NP'
p68
g4
tp69
a(S'hospital'
p70
S'hospital'
p71
S'NN'
p72
S'I-NP'
p73
g4
tp74
a(S'.'
p75
g75
g75
g4
g4
tp76
a(S'BACKGROUND'
p77
S'BACKGROUND'
p78
S'NN'
p79
S'B-NP'
p80
g4
tp81
a(S'Long-term'
p82
S'Long-term'
p83
S'JJ'
p84
S'I-NP'
p85
g4
tp86
a(S'care'
p87
S'care'
p88
S'NN'
p89
S'I-NP'
p90
g4
tp91
a(S'hospitals'
p92
S'hospital'
p93
S'NNS'
p94
S'I-NP'
p95
g4
tp96
a(S'are'
p97
S'be'
p98
S'VBP'
p99
S'B-VP'
p100
g4
tp101
a(S'Medicare'
p102
S'Medicare'
p103
S'NNP'
p104
S'B-NP'
p105
g4
tp106
a(S'providers'
p107
S'provider'
p108
S'NNS'
p109
S'I-NP'
p110
g4
tp111
a(S'of'
p112
S'of'
p113
S'IN'
p114
S'B-PP'
p115
g4
tp116
a(S'postacute'
p117
S'postacute'
p118
S'JJ'
p119
S'B-NP'
p120
g4
tp121
a(S'care'
p122
S'care'
p123
S'NN'
p124
S'I-NP'
p125
g4
tp126
a(S'that'
p127
S'that'
p128
S'WDT'
p129
S'B-NP'
p130
g4
tp131
a(S'have'
p132
S'have'
p133
S'VBP'
p134
S'B-VP'
p135
g4
tp136
a(g56
g56
S'DT'
p137
S'B-NP'
p138
g4
tp139
a(S'mean'
p140
S'mean'
p141
S'JJ'
p142
S'I-NP'
p143
g4
tp144
a(S'length'
p145
S'length'
p146
S'NN'
p147
S'I-NP'
p148
g4
tp149
a(S'of'
p150
S'of'
p151
S'IN'
p152
S'B-PP'
p153
g4
tp154
a(S'stay'
p155
S'stay'
p156
S'NN'
p157
S'B-NP'
p158
g4
tp159
a(S'of'
p160
S'of'
p161
S'IN'
p162
S'B-PP'
p163
g4
tp164
a(S'25'
p165
S'25'
p166
S'CD'
p167
S'B-NP'
p168
g4
tp169
a(S'days'
p170
S'day'
p171
S'NNS'
p172
S'I-NP'
p173
g4
tp174
a(S'or'
p175
S'or'
p176
S'CC'
p177
g4
g4
tp178
a(S'more.'
p179
S'more.'
p180
S'JJR'
p181
S'B-NP'
p182
g4
tp183
a(S'Early'
p184
S'Early'
p185
S'JJ'
p186
S'I-NP'
p187
g4
tp188
a(S'identification'
p189
S'identification'
p190
S'NN'
p191
S'I-NP'
p192
g4
tp193
a(S'and'
p194
S'and'
p195
S'CC'
p196
g4
g4
tp197
a(S'timely'
p198
S'timely'
p199
S'JJ'
p200
S'B-NP'
p201
g4
tp202
a(S'transfer'
p203
S'transfer'
p204
S'NN'
p205
S'I-NP'
p206
g4
tp207
a(S'of'
p208
S'of'
p209
S'IN'
p210
S'B-PP'
p211
g4
tp212
a(S'patients'
p213
S'patient'
p214
S'NNS'
p215
S'B-NP'
p216
g4
tp217
a(S'requiring'
p218
S'require'
p219
S'VBG'
p220
S'B-VP'
p221
g4
tp222
a(S'mechanical'
p223
S'mechanical'
p224
S'JJ'
p225
S'B-NP'
p226
g4
tp227
a(S'ventilation'
p228
S'ventilation'
p229
S'NN'
p230
S'I-NP'
p231
g4
tp232
a(S'to'
p233
S'to'
p234
S'TO'
p235
S'B-PP'
p236
g4
tp237
a(S'such'
p238
S'such'
p239
S'JJ'
p240
S'B-NP'
p241
g4
tp242
a(S'hospitals'
p243
S'hospital'
p244
S'NNS'
p245
S'I-NP'
p246
g4
tp247
a(S'may'
p248
S'may'
p249
S'MD'
p250
S'B-VP'
p251
g4
tp252
a(S'improve'
p253
S'improve'
p254
S'VB'
p255
S'I-VP'
p256
g4
tp257
a(S'the'
p258
S'the'
p259
S'DT'
p260
S'B-NP'
p261
g4
tp262
a(S'efficiency'
p263
S'efficiency'
p264
S'NN'
p265
S'I-NP'
p266
g4
tp267
a(S'of'
p268
S'of'
p269
S'IN'
p270
S'B-PP'
p271
g4
tp272
a(S'inpatient'
p273
S'inpatient'
p274
S'NN'
p275
S'B-NP'
p276
g4
tp277
a(S'care'
p278
S'care'
p279
S'NN'
p280
S'I-NP'
p281
g4
tp282
a(g75
g75
g75
g4
g4
tp283
a(S'OBJECTIVES'
p284
S'OBJECTIVES'
p285
S'NNS'
p286
S'B-NP'
p287
g4
tp288
a(S'To'
p289
S'To'
p290
S'TO'
p291
S'B-VP'
p292
g4
tp293
a(S'develop'
p294
S'develop'
p295
S'VB'
p296
S'I-VP'
p297
g4
tp298
a(g56
g56
S'DT'
p299
S'B-NP'
p300
g4
tp301
a(S'predictive'
p302
S'predictive'
p303
S'JJ'
p304
S'I-NP'
p305
g4
tp306
a(S'model'
p307
S'model'
p308
S'NN'
p309
S'I-NP'
p310
g4
tp311
a(S'and'
p312
S'and'
p313
S'CC'
p314
g4
g4
tp315
a(g56
g56
S'DT'
p316
S'B-NP'
p317
g4
tp318
a(S'simplified'
p319
S'simplify'
p320
S'VBN'
p321
S'I-NP'
p322
g4
tp323
a(S'score'
p324
S'score'
p325
S'NN'
p326
S'I-NP'
p327
g4
tp328
a(S'for'
p329
S'for'
p330
S'IN'
p331
S'B-PP'
p332
g4
tp333
a(S'use'
p334
S'use'
p335
S'NN'
p336
S'B-NP'
p337
g4
tp338
a(S'on'
p339
S'on'
p340
S'IN'
p341
S'B-PP'
p342
g4
tp343
a(S'day'
p344
S'day'
p345
S'NN'
p346
S'B-NP'
p347
g4
tp348
a(S'7'
p349
g349
S'CD'
p350
S'I-NP'
p351
g4
tp352
a(S'of'
p353
S'of'
p354
S'IN'
p355
S'B-PP'
p356
g4
tp357
a(S'hospitalization'
p358
S'hospitalization'
p359
S'NN'
p360
S'B-NP'
p361
g4
tp362
a(S'to'
p363
S'to'
p364
S'TO'
p365
S'B-VP'
p366
g4
tp367
a(S'assess'
p368
S'assess'
p369
S'VB'
p370
S'I-VP'
p371
g4
tp372
a(S'whether'
p373
S'whether'
p374
S'IN'
p375
S'B-SBAR'
p376
g4
tp377
a(g56
g56
S'DT'
p378
S'B-NP'
p379
g4
tp380
a(S'patient'
p381
S'patient'
p382
S'NN'
p383
S'I-NP'
p384
g4
tp385
a(S'receiving'
p386
S'receive'
p387
S'VBG'
p388
S'B-VP'
p389
g4
tp390
a(S'mechanical'
p391
S'mechanical'
p392
S'JJ'
p393
S'B-NP'
p394
g4
tp395
a(S'ventilation'
p396
S'ventilation'
p397
S'NN'
p398
S'I-NP'
p399
g4
tp400
a(S'is'
p401
S'be'
p402
S'VBZ'
p403
S'B-VP'
p404
g4
tp405
a(S'likely'
p406
S'likely'
p407
S'JJ'
p408
S'B-ADJP'
p409
g4
tp410
a(S'to'
p411
S'to'
p412
S'TO'
p413
S'B-VP'
p414
g4
tp415
a(S'require'
p416
S'require'
p417
S'VB'
p418
S'I-VP'
p419
g4
tp420
a(S'an'
p421
S'an'
p422
S'DT'
p423
S'B-NP'
p424
g4
tp425
a(S'additional'
p426
S'additional'
p427
S'JJ'
p428
S'I-NP'
p429
g4
tp430
a(S'25'
p431
S'25'
p432
S'CD'
p433
S'I-NP'
p434
g4
tp435
a(S'days'
p436
S'day'
p437
S'NNS'
p438
S'I-NP'
p439
g4
tp440
a(S'of'
p441
S'of'
p442
S'IN'
p443
S'B-PP'
p444
g4
tp445
a(S'hospitalization'
p446
S'hospitalization'
p447
S'NN'
p448
S'B-NP'
p449
g4
tp450
a(S'('
p451
g451
g451
g4
g4
tp452
a(S'ie'
p453
S'ie'
p454
S'FW'
p455
S'B-NP'
p456
g4
tp457
a(S','
p458
g458
g458
g4
g4
tp459
a(S'would'
p460
S'would'
p461
S'MD'
p462
S'B-VP'
p463
g4
tp464
a(S'qualify'
p465
S'qualify'
p466
S'VB'
p467
S'I-VP'
p468
g4
tp469
a(S'for'
p470
S'for'
p471
S'IN'
p472
S'B-PP'
p473
g4
tp474
a(S'transfer'
p475
S'transfer'
p476
S'NN'
p477
S'B-NP'
p478
g4
tp479
a(S'to'
p480
S'to'
p481
S'TO'
p482
S'B-PP'
p483
g4
tp484
a(g56
g56
S'DT'
p485
S'B-NP'
p486
g4
tp487
a(S'long-term'
p488
S'long-term'
p489
S'JJ'
p490
S'I-NP'
p491
g4
tp492
a(S'care'
p493
S'care'
p494
S'NN'
p495
S'I-NP'
p496
g4
tp497
a(S'hospital'
p498
S'hospital'
p499
S'NN'
p500
S'I-NP'
p501
g4
tp502
a(S')'
p503
g503
g503
g4
g4
tp504
a(g75
g75
g75
g4
g4
tp505
a(S'METHODS'
p506
S'METHODS'
p507
S'NNS'
p508
S'B-NP'
p509
g4
tp510
a(g1
g1
S'DT'
p511
S'B-NP'
p512
g4
tp513
a(S'retrospective'
p514
S'retrospective'
p515
S'JJ'
p516
S'I-NP'
p517
g4
tp518
a(g458
g458
g458
S'I-NP'
p519
g4
tp520
a(S'cross-sectional'
p521
S'cross-sectional'
p522
S'JJ'
p523
S'I-NP'
p524
g4
tp525
a(S'study'
p526
S'study'
p527
S'NN'
p528
S'I-NP'
p529
g4
tp530
a(S'using'
p531
S'use'
p532
S'VBG'
p533
S'B-VP'
p534
g4
tp535
a(S'hospital'
p536
S'hospital'
p537
S'NN'
p538
S'B-NP'
p539
g4
tp540
a(S'discharge'
p541
S'discharge'
p542
S'NN'
p543
S'I-NP'
p544
g4
tp545
a(S'and'
p546
S'and'
p547
S'CC'
p548
S'I-NP'
p549
g4
tp550
a(S'billing'
p551
S'billing'
p552
S'NN'
p553
S'I-NP'
p554
g4
tp555
a(S'data'
p556
S'datum'
p557
S'NNS'
p558
S'I-NP'
p559
g4
tp560
a(S'from'
p561
S'from'
p562
S'IN'
p563
S'B-PP'
p564
g4
tp565
a(S'the'
p566
S'the'
p567
S'DT'
p568
S'B-NP'
p569
g4
tp570
a(S'2005'
p571
S'2005'
p572
S'CD'
p573
S'I-NP'
p574
g4
tp575
a(S'Nationwide'
p576
S'Nationwide'
p577
S'NNP'
p578
S'I-NP'
p579
g4
tp580
a(S'Inpatient'
p581
S'Inpatient'
p582
S'NNP'
p583
S'I-NP'
p584
g4
tp585
a(S'Sample'
p586
S'Sample'
p587
S'NNP'
p588
S'I-NP'
p589
g4
tp590
a(S'for'
p591
S'for'
p592
S'IN'
p593
S'B-PP'
p594
g4
tp595
a(S'54'
p596
S'54'
p597
S'CD'
p598
S'B-NP'
p599
g4
tp600
a(S'686'
p601
S'686'
p602
S'CD'
p603
S'I-NP'
p604
g4
tp605
a(S'Medicare'
p606
S'Medicare'
p607
S'NNP'
p608
S'I-NP'
p609
g4
tp610
a(S'beneficiaries'
p611
S'beneficiary'
p612
S'NNS'
p613
S'I-NP'
p614
g4
tp615
a(S'admitted'
p616
S'admit'
p617
S'VBD'
p618
S'B-VP'
p619
g4
tp620
a(S'to'
p621
S'to'
p622
S'TO'
p623
S'B-PP'
p624
g4
tp625
a(S'US'
p626
S'US'
p627
S'NNP'
p628
S'B-NP'
p629
g4
tp630
a(S'community'
p631
S'community'
p632
S'NN'
p633
S'I-NP'
p634
g4
tp635
a(S'hospitals'
p636
S'hospital'
p637
S'NNS'
p638
S'I-NP'
p639
g4
tp640
a(S'who'
p641
S'who'
p642
S'WP'
p643
S'B-NP'
p644
g4
tp645
a(S'met'
p646
S'meet'
p647
S'VBD'
p648
S'B-VP'
p649
g4
tp650
a(S'the'
p651
S'the'
p652
S'DT'
p653
S'B-NP'
p654
g4
tp655
a(S'study'
p656
S'study'
p657
S'NN'
p658
S'I-NP'
p659
g4
tp660
a(S"'s"
p661
S"'s"
p662
S'POS'
p663
S'B-NP'
p664
g4
tp665
a(S'eligibility'
p666
S'eligibility'
p667
S'NN'
p668
S'I-NP'
p669
g4
tp670
a(S'criteria.'
p671
S'criteria.'
p672
S'NN'
p673
S'I-NP'
p674
g4
tp675
a(S'The'
p676
S'The'
p677
S'DT'
p678
S'B-NP'
p679
g4
tp680
a(S'outcome'
p681
S'outcome'
p682
S'NN'
p683
S'I-NP'
p684
g4
tp685
a(S'was'
p686
S'be'
p687
S'VBD'
p688
S'B-VP'
p689
g4
tp690
a(S'overall'
p691
S'overall'
p692
S'JJ'
p693
S'B-NP'
p694
g4
tp695
a(S'length'
p696
S'length'
p697
S'NN'
p698
S'I-NP'
p699
g4
tp700
a(S'of'
p701
S'of'
p702
S'IN'
p703
S'B-PP'
p704
g4
tp705
a(S'stay'
p706
S'stay'
p707
S'NN'
p708
S'B-NP'
p709
g4
tp710
a(g451
g451
g451
g4
g4
tp711
a(S'\xe2\x89\xa532'
p712
S'\xe2\x89\xa532'
p713
S'CD'
p714
S'B-NP'
p715
g4
tp716
a(S'vs'
p717
S'vs'
p718
S'IN'
p719
g4
g4
tp720
a(S'<'
p721
g721
S'JJR'
p722
S'B-NP'
p723
g4
tp724
a(S'32'
p725
S'32'
p726
S'CD'
p727
S'I-NP'
p728
g4
tp729
a(S'days'
p730
S'day'
p731
S'NNS'
p732
S'I-NP'
p733
g4
tp734
a(g503
g503
g503
g4
g4
tp735
a(g75
g75
g75
g4
g4
tp736
a(S'Split-sample'
p737
S'Split-sample'
p738
S'JJ'
p739
S'B-NP'
p740
g4
tp741
a(S'validation'
p742
S'validation'
p743
S'NN'
p744
S'I-NP'
p745
g4
tp746
a(S'was'
p747
S'be'
p748
S'VBD'
p749
S'B-VP'
p750
g4
tp751
a(S'used.'
p752
S'used.'
p753
S'VBN'
p754
S'I-VP'
p755
g4
tp756
a(S'Multivariable'
p757
S'Multivariable'
p758
S'JJ'
p759
S'B-NP'
p760
g4
tp761
a(S'survey-logistic'
p762
S'survey-logistic'
p763
S'JJ'
p764
S'I-NP'
p765
g4
tp766
a(S'regression'
p767
S'regression'
p768
S'NN'
p769
S'I-NP'
p770
g4
tp771
a(S'analyses'
p772
S'analysis'
p773
S'NNS'
p774
S'I-NP'
p775
g4
tp776
a(S'were'
p777
S'be'
p778
S'VBD'
p779
S'B-VP'
p780
g4
tp781
a(S'performed'
p782
S'perform'
p783
S'VBN'
p784
S'I-VP'
p785
g4
tp786
a(S'to'
p787
S'to'
p788
S'TO'
p789
S'I-VP'
p790
g4
tp791
a(S'assess'
p792
S'assess'
p793
S'VB'
p794
S'I-VP'
p795
g4
tp796
a(S'predictors'
p797
S'predictor'
p798
S'NNS'
p799
S'B-NP'
p800
g4
tp801
a(S'and'
p802
S'and'
p803
S'CC'
p804
S'I-NP'
p805
g4
tp806
a(S'probability'
p807
S'probability'
p808
S'NN'
p809
S'I-NP'
p810
g4
tp811
a(S'of'
p812
S'of'
p813
S'IN'
p814
S'B-PP'
p815
g4
tp816
a(S'the'
p817
S'the'
p818
S'DT'
p819
S'B-NP'
p820
g4
tp821
a(S'outcome.'
p822
S'outcome.'
p823
S'NN'
p824
S'I-NP'
p825
g4
tp826
a(g1
g1
S'NN'
p827
S'I-NP'
p828
g4
tp829
a(S'simplified'
p830
S'simplify'
p831
S'VBN'
p832
S'I-NP'
p833
g4
tp834
a(S'score'
p835
S'score'
p836
S'NN'
p837
S'I-NP'
p838
g4
tp839
a(S'was'
p840
S'be'
p841
S'VBD'
p842
S'B-VP'
p843
g4
tp844
a(S'derived'
p845
S'derive'
p846
S'VBN'
p847
S'I-VP'
p848
g4
tp849
a(S'from'
p850
S'from'
p851
S'IN'
p852
S'B-PP'
p853
g4
tp854
a(S'the'
p855
S'the'
p856
S'DT'
p857
S'B-NP'
p858
g4
tp859
a(S'final'
p860
S'final'
p861
S'JJ'
p862
S'I-NP'
p863
g4
tp864
a(S'predictive'
p865
S'predictive'
p866
S'JJ'
p867
S'I-NP'
p868
g4
tp869
a(S'model'
p870
S'model'
p871
S'NN'
p872
S'I-NP'
p873
g4
tp874
a(g75
g75
g75
g4
g4
tp875
a(S'RESULTS'
p876
S'RESULTS'
p877
S'NNS'
p878
S'B-NP'
p879
g4
tp880
a(S'The'
p881
S'The'
p882
S'DT'
p883
S'B-NP'
p884
g4
tp885
a(S'discriminatory'
p886
S'discriminatory'
p887
S'JJ'
p888
S'I-NP'
p889
g4
tp890
a(S'power'
p891
S'power'
p892
S'NN'
p893
S'I-NP'
p894
g4
tp895
a(S'of'
p896
S'of'
p897
S'IN'
p898
S'B-PP'
p899
g4
tp900
a(S'the'
p901
S'the'
p902
S'DT'
p903
S'B-NP'
p904
g4
tp905
a(S'predictive'
p906
S'predictive'
p907
S'JJ'
p908
S'I-NP'
p909
g4
tp910
a(S'model'
p911
S'model'
p912
S'NN'
p913
S'I-NP'
p914
g4
tp915
a(S'was'
p916
S'be'
p917
S'VBD'
p918
S'B-VP'
p919
g4
tp920
a(S'0.75'
p921
S'0.75'
p922
S'CD'
p923
S'B-NP'
p924
g4
tp925
a(S'and'
p926
S'and'
p927
S'CC'
p928
g4
g4
tp929
a(S'that'
p930
S'that'
p931
S'DT'
p932
S'B-NP'
p933
g4
tp934
a(S'of'
p935
S'of'
p936
S'IN'
p937
S'B-PP'
p938
g4
tp939
a(S'the'
p940
S'the'
p941
S'DT'
p942
S'B-NP'
p943
g4
tp944
a(S'simplified'
p945
S'simplify'
p946
S'VBN'
p947
S'I-NP'
p948
g4
tp949
a(S'score'
p950
S'score'
p951
S'NN'
p952
S'I-NP'
p953
g4
tp954
a(S'was'
p955
S'be'
p956
S'VBD'
p957
S'B-VP'
p958
g4
tp959
a(S'0.72.'
p960
S'0.72.'
p961
S'CD'
p962
S'B-NP'
p963
g4
tp964
a(S'The'
p965
S'The'
p966
S'DT'
p967
S'B-NP'
p968
g4
tp969
a(S'model'
p970
S'model'
p971
S'NN'
p972
S'I-NP'
p973
g4
tp974
a(S'calibrated'
p975
S'calibrate'
p976
S'VBN'
p977
S'B-VP'
p978
g4
tp979
a(S'well.'
p980
S'well.'
p981
S'RB'
p982
S'B-ADVP'
p983
g4
tp984
a(S'All'
p985
S'All'
p986
S'DT'
p987
S'B-NP'
p988
g4
tp989
a(S'predictors'
p990
S'predictor'
p991
S'NNS'
p992
S'I-NP'
p993
g4
tp994
a(S'were'
p995
S'be'
p996
S'VBD'
p997
S'B-VP'
p998
g4
tp999
a(S'significantly'
p1000
S'significantly'
p1001
S'RB'
p1002
S'B-ADVP'
p1003
g4
tp1004
a(g451
g451
g451
g4
g4
tp1005
a(S'P'
p1006
g1006
S'NN'
p1007
S'B-NP'
p1008
g4
tp1009
a(g721
g721
S'JJR'
p1010
S'B-NP'
p1011
g4
tp1012
a(S'.01'
p1013
S'.01'
p1014
S'CD'
p1015
S'I-NP'
p1016
g4
tp1017
a(g503
g503
g503
g4
g4
tp1018
a(S'associated'
p1019
S'associate'
p1020
S'VBN'
p1021
S'B-VP'
p1022
g4
tp1023
a(S'with'
p1024
S'with'
p1025
S'IN'
p1026
S'B-PP'
p1027
g4
tp1028
a(g56
g56
S'DT'
p1029
S'B-NP'
p1030
g4
tp1031
a(S'hospitalization'
p1032
S'hospitalization'
p1033
S'NN'
p1034
S'I-NP'
p1035
g4
tp1036
a(S'of'
p1037
S'of'
p1038
S'IN'
p1039
S'B-PP'
p1040
g4
tp1041
a(S'32'
p1042
S'32'
p1043
S'CD'
p1044
S'B-NP'
p1045
g4
tp1046
a(S'days'
p1047
S'day'
p1048
S'NNS'
p1049
S'I-NP'
p1050
g4
tp1051
a(S'or'
p1052
S'or'
p1053
S'CC'
p1054
g4
g4
tp1055
a(S'longer'
p1056
S'long'
p1057
S'JJR'
p1058
S'B-ADJP'
p1059
g4
tp1060
a(S';'
p1061
g1061
S':'
p1062
g4
g4
tp1063
a(S'having'
p1064
S'have'
p1065
S'VBG'
p1066
S'B-VP'
p1067
g4
tp1068
a(g56
g56
S'DT'
p1069
S'B-NP'
p1070
g4
tp1071
a(S'tracheostomy'
p1072
S'tracheostomy'
p1073
S'NN'
p1074
S'I-NP'
p1075
g4
tp1076
a(S'was'
p1077
S'be'
p1078
S'VBD'
p1079
S'B-VP'
p1080
g4
tp1081
a(S'the'
p1082
S'the'
p1083
S'DT'
p1084
S'B-NP'
p1085
g4
tp1086
a(S'strongest'
p1087
S'strong'
p1088
S'JJS'
p1089
S'I-NP'
p1090
g4
tp1091
a(S'predictor'
p1092
S'predictor'
p1093
S'NN'
p1094
S'I-NP'
p1095
g4
tp1096
a(g451
g451
g451
g4
g4
tp1097
a(S'odds'
p1098
S'odd'
p1099
S'NNS'
p1100
S'B-NP'
p1101
g4
tp1102
a(S'ratio'
p1103
S'ratio'
p1104
S'NN'
p1105
S'I-NP'
p1106
g4
tp1107
a(g458
g458
g458
g4
g4
tp1108
a(S'4.74'
p1109
S'4.74'
p1110
S'CD'
p1111
S'B-NP'
p1112
g4
tp1113
a(g503
g503
g503
g4
g4
tp1114
a(g75
g75
g75
g4
g4
tp1115
a(S'The'
p1116
S'The'
p1117
S'DT'
p1118
S'B-NP'
p1119
g4
tp1120
a(S'simplified'
p1121
S'simplified'
p1122
S'JJ'
p1123
S'I-NP'
p1124
g4
tp1125
a(S'scores'
p1126
S'score'
p1127
S'NNS'
p1128
S'I-NP'
p1129
g4
tp1130
a(S'ranged'
p1131
S'range'
p1132
S'VBD'
p1133
S'B-VP'
p1134
g4
tp1135
a(S'from'
p1136
S'from'
p1137
S'IN'
p1138
S'B-PP'
p1139
g4
tp1140
a(S'-5'
p1141
S'-5'
p1142
S'CD'
p1143
S'B-NP'
p1144
g4
tp1145
a(S'to'
p1146
S'to'
p1147
S'TO'
p1148
S'I-NP'
p1149
g4
tp1150
a(S'110'
p1151
S'110'
p1152
S'CD'
p1153
S'I-NP'
p1154
g4
tp1155
a(S'points'
p1156
S'point'
p1157
S'NNS'
p1158
S'I-NP'
p1159
g4
tp1160
a(S'and'
p1161
S'and'
p1162
S'CC'
p1163
g4
g4
tp1164
a(S'were'
p1165
S'be'
p1166
S'VBD'
p1167
S'B-VP'
p1168
g4
tp1169
a(S'categorized'
p1170
S'categorize'
p1171
S'VBN'
p1172
S'I-VP'
p1173
g4
tp1174
a(S'into'
p1175
S'into'
p1176
S'IN'
p1177
S'B-PP'
p1178
g4
tp1179
a(S'3'
p1180
g1180
S'CD'
p1181
S'B-NP'
p1182
g4
tp1183
a(S'classes'
p1184
S'class'
p1185
S'NNS'
p1186
S'I-NP'
p1187
g4
tp1188
a(S'of'
p1189
S'of'
p1190
S'IN'
p1191
S'B-PP'
p1192
g4
tp1193
a(S'risk'
p1194
S'risk'
p1195
S'NN'
p1196
S'B-NP'
p1197
g4
tp1198
a(g75
g75
g75
g4
g4
tp1199
a(S'CONCLUSIONS'
p1200
S'CONCLUSIONS'
p1201
S'NNS'
p1202
S'B-NP'
p1203
g4
tp1204
a(S'Efforts'
p1205
S'Effort'
p1206
S'NNS'
p1207
S'I-NP'
p1208
g4
tp1209
a(S'to'
p1210
S'to'
p1211
S'TO'
p1212
S'B-VP'
p1213
g4
tp1214
a(S'aid'
p1215
S'aid'
p1216
S'VB'
p1217
S'I-VP'
p1218
g4
tp1219
a(S'discharge'
p1220
S'discharge'
p1221
S'NN'
p1222
S'B-NP'
p1223
g4
tp1224
a(S'decision'
p1225
S'decision'
p1226
S'NN'
p1227
S'I-NP'
p1228
g4
tp1229
a(S'making'
p1230
S'making'
p1231
S'NN'
p1232
S'I-NP'
p1233
g4
tp1234
a(S'and'
p1235
S'and'
p1236
S'CC'
p1237
g4
g4
tp1238
a(S'optimize'
p1239
S'optimize'
p1240
S'VBP'
p1241
S'B-VP'
p1242
g4
tp1243
a(S'hospital'
p1244
S'hospital'
p1245
S'NN'
p1246
S'B-NP'
p1247
g4
tp1248
a(S'resource'
p1249
S'resource'
p1250
S'NN'
p1251
S'I-NP'
p1252
g4
tp1253
a(S'planning'
p1254
S'planning'
p1255
S'NN'
p1256
S'I-NP'
p1257
g4
tp1258
a(S'could'
p1259
S'could'
p1260
S'MD'
p1261
S'B-VP'
p1262
g4
tp1263
a(S'take'
p1264
S'take'
p1265
S'VB'
p1266
S'I-VP'
p1267
g4
tp1268
a(S'advantage'
p1269
S'advantage'
p1270
S'NN'
p1271
S'B-NP'
p1272
g4
tp1273
a(S'of'
p1274
S'of'
p1275
S'IN'
p1276
S'B-PP'
p1277
g4
tp1278
a(S'our'
p1279
S'our'
p1280
S'PRP$'
p1281
S'B-NP'
p1282
g4
tp1283
a(S'predictive'
p1284
S'predictive'
p1285
S'JJ'
p1286
S'I-NP'
p1287
g4
tp1288
a(S'model'
p1289
S'model'
p1290
S'NN'
p1291
S'I-NP'
p1292
g4
tp1293
a(S'and'
p1294
S'and'
p1295
S'CC'
p1296
g4
g4
tp1297
a(S'the'
p1298
S'the'
p1299
S'DT'
p1300
S'B-NP'
p1301
g4
tp1302
a(S'simplified'
p1303
S'simplify'
p1304
S'VBN'
p1305
S'I-NP'
p1306
g4
tp1307
a(S'scoring'
p1308
S'scoring'
p1309
S'NN'
p1310
S'I-NP'
p1311
g4
tp1312
a(S'tool'
p1313
S'tool'
p1314
S'NN'
p1315
S'I-NP'
p1316
g4
tp1317
a(g75
g75
g75
g4
g4
tp1318
a.