(lp0
(S'Effect'
p1
S'Effect'
p2
S'NN'
p3
S'B-NP'
p4
S'O'
p5
tp6
a(S'of'
p7
S'of'
p8
S'IN'
p9
S'B-PP'
p10
g5
tp11
a(S'ischemic'
p12
S'ischemic'
p13
S'JJ'
p14
S'B-NP'
p15
g5
tp16
a(S'postconditioning'
p17
S'postconditioning'
p18
S'NN'
p19
S'I-NP'
p20
g5
tp21
a(S'in'
p22
S'in'
p23
S'IN'
p24
S'B-PP'
p25
g5
tp26
a(S'correction'
p27
S'correction'
p28
S'NN'
p29
S'B-NP'
p30
g5
tp31
a(S'of'
p32
S'of'
p33
S'IN'
p34
S'B-PP'
p35
g5
tp36
a(S'tetralogy'
p37
S'tetralogy'
p38
S'NN'
p39
S'B-NP'
p40
g5
tp41
a(S'of'
p42
S'of'
p43
S'IN'
p44
S'B-PP'
p45
g5
tp46
a(S'Fallot'
p47
S'Fallot'
p48
S'NN'
p49
S'B-NP'
p50
g5
tp51
a(S'.'
p52
g52
g52
g5
g5
tp53
a(S'Inappropriate'
p54
S'Inappropriate'
p55
S'JJ'
p56
S'B-NP'
p57
g5
tp58
a(S'myocardial'
p59
S'myocardial'
p60
S'JJ'
p61
S'I-NP'
p62
g5
tp63
a(S'protection'
p64
S'protection'
p65
S'NN'
p66
S'I-NP'
p67
g5
tp68
a(S'is'
p69
S'be'
p70
S'VBZ'
p71
S'B-VP'
p72
g5
tp73
a(S'considered'
p74
S'consider'
p75
S'VBN'
p76
S'I-VP'
p77
g5
tp78
a(S'one'
p79
S'one'
p80
S'CD'
p81
S'B-NP'
p82
g5
tp83
a(S'of'
p84
S'of'
p85
S'IN'
p86
S'B-PP'
p87
g5
tp88
a(S'the'
p89
S'the'
p90
S'DT'
p91
S'B-NP'
p92
g5
tp93
a(S'main'
p94
S'main'
p95
S'JJ'
p96
S'I-NP'
p97
g5
tp98
a(S'causes'
p99
S'cause'
p100
S'NNS'
p101
S'I-NP'
p102
g5
tp103
a(S'of'
p104
S'of'
p105
S'IN'
p106
S'B-PP'
p107
g5
tp108
a(S'mortality'
p109
S'mortality'
p110
S'NN'
p111
S'B-NP'
p112
g5
tp113
a(S'and'
p114
S'and'
p115
S'CC'
p116
S'I-NP'
p117
g5
tp118
a(S'morbidity'
p119
S'morbidity'
p120
S'NN'
p121
S'I-NP'
p122
g5
tp123
a(S'in'
p124
S'in'
p125
S'IN'
p126
S'B-PP'
p127
g5
tp128
a(S'the'
p129
S'the'
p130
S'DT'
p131
S'B-NP'
p132
g5
tp133
a(S'correction'
p134
S'correction'
p135
S'NN'
p136
S'I-NP'
p137
g5
tp138
a(S'of'
p139
S'of'
p140
S'IN'
p141
S'B-PP'
p142
g5
tp143
a(S'tetralogy'
p144
S'tetralogy'
p145
S'NN'
p146
S'B-NP'
p147
g5
tp148
a(S'of'
p149
S'of'
p150
S'IN'
p151
S'B-PP'
p152
g5
tp153
a(S'Fallot'
p154
S'Fallot'
p155
S'NN'
p156
S'B-NP'
p157
g5
tp158
a(S'('
p159
g159
g159
g5
g5
tp160
a(S'TOF'
p161
S'TOF'
p162
S'NN'
p163
S'B-NP'
p164
S'B-protein'
p165
tp166
a(S')'
p167
g167
g167
g5
g5
tp168
a(g52
g52
g52
g5
g5
tp169
a(S'Results'
p170
S'Result'
p171
S'NNS'
p172
S'B-NP'
p173
g5
tp174
a(S'of'
p175
S'of'
p176
S'IN'
p177
S'B-PP'
p178
g5
tp179
a(S'previous'
p180
S'previous'
p181
S'JJ'
p182
S'B-NP'
p183
g5
tp184
a(S'reports'
p185
S'report'
p186
S'NNS'
p187
S'I-NP'
p188
g5
tp189
a(S'about'
p190
S'about'
p191
S'IN'
p192
S'B-PP'
p193
g5
tp194
a(S'the'
p195
S'the'
p196
S'DT'
p197
S'B-NP'
p198
g5
tp199
a(S'effects'
p200
S'effect'
p201
S'NNS'
p202
S'I-NP'
p203
g5
tp204
a(S'of'
p205
S'of'
p206
S'IN'
p207
S'B-PP'
p208
g5
tp209
a(S'ischemic'
p210
S'ischemic'
p211
S'JJ'
p212
S'B-NP'
p213
g5
tp214
a(S'postconditioning'
p215
S'postconditioning'
p216
S'NN'
p217
S'I-NP'
p218
g5
tp219
a(S'on'
p220
S'on'
p221
S'IN'
p222
S'B-PP'
p223
g5
tp224
a(S'myocardial'
p225
S'myocardial'
p226
S'JJ'
p227
S'B-NP'
p228
g5
tp229
a(S'protection'
p230
S'protection'
p231
S'NN'
p232
S'I-NP'
p233
g5
tp234
a(S'in'
p235
S'in'
p236
S'IN'
p237
S'B-PP'
p238
g5
tp239
a(S'animals'
p240
S'animal'
p241
S'NNS'
p242
S'B-NP'
p243
g5
tp244
a(S'and'
p245
S'and'
p246
S'CC'
p247
S'I-NP'
p248
g5
tp249
a(S'humans'
p250
S'human'
p251
S'NNS'
p252
S'I-NP'
p253
g5
tp254
a(S'are'
p255
S'be'
p256
S'VBP'
p257
S'B-VP'
p258
g5
tp259
a(S'very'
p260
S'very'
p261
S'RB'
p262
S'I-VP'
p263
g5
tp264
a(S'encouraging.'
p265
S'encouraging.'
p266
S'VB'
p267
S'I-VP'
p268
g5
tp269
a(S'This'
p270
S'This'
p271
S'DT'
p272
S'B-NP'
p273
g5
tp274
a(S'randomized'
p275
S'randomize'
p276
S'VBN'
p277
S'I-NP'
p278
g5
tp279
a(S'and'
p280
S'and'
p281
S'CC'
p282
S'I-NP'
p283
g5
tp284
a(S'controlled'
p285
S'control'
p286
S'VBN'
p287
S'I-NP'
p288
g5
tp289
a(S'trial'
p290
S'trial'
p291
S'NN'
p292
S'I-NP'
p293
g5
tp294
a(S'aimed'
p295
S'aim'
p296
S'VBN'
p297
S'B-VP'
p298
g5
tp299
a(S'to'
p300
S'to'
p301
S'TO'
p302
S'I-VP'
p303
g5
tp304
a(S'assess'
p305
S'assess'
p306
S'VB'
p307
S'I-VP'
p308
g5
tp309
a(S'the'
p310
S'the'
p311
S'DT'
p312
S'B-NP'
p313
g5
tp314
a(S'effect'
p315
S'effect'
p316
S'NN'
p317
S'I-NP'
p318
g5
tp319
a(S'of'
p320
S'of'
p321
S'IN'
p322
S'B-PP'
p323
g5
tp324
a(S'ischemic'
p325
S'ischemic'
p326
S'JJ'
p327
S'B-NP'
p328
g5
tp329
a(S'postconditioning'
p330
S'postconditioning'
p331
S'NN'
p332
S'I-NP'
p333
g5
tp334
a(S'on'
p335
S'on'
p336
S'IN'
p337
S'B-PP'
p338
g5
tp339
a(S'protection'
p340
S'protection'
p341
S'NN'
p342
S'B-NP'
p343
g5
tp344
a(S'against'
p345
S'against'
p346
S'IN'
p347
S'B-PP'
p348
g5
tp349
a(S'myocardial'
p350
S'myocardial'
p351
S'JJ'
p352
S'B-NP'
p353
g5
tp354
a(S'ischemia'
p355
S'ischemia'
p356
S'NN'
p357
S'I-NP'
p358
g5
tp359
a(S'reperfusion'
p360
S'reperfusion'
p361
S'NN'
p362
S'I-NP'
p363
g5
tp364
a(S'injury'
p365
S'injury'
p366
S'NN'
p367
S'I-NP'
p368
g5
tp369
a(S'in'
p370
S'in'
p371
S'IN'
p372
S'B-PP'
p373
g5
tp374
a(S'TOF'
p375
S'TOF'
p376
S'NN'
p377
S'B-NP'
p378
g5
tp379
a(S'patients'
p380
S'patient'
p381
S'NNS'
p382
S'I-NP'
p383
g5
tp384
a(S'receiving'
p385
S'receive'
p386
S'VBG'
p387
S'B-VP'
p388
g5
tp389
a(S'cardioplegia.'
p390
S'cardioplegia.'
p391
S'NN'
p392
S'B-NP'
p393
g5
tp394
a(S'From'
p395
S'From'
p396
S'IN'
p397
S'B-PP'
p398
g5
tp399
a(S'January'
p400
S'January'
p401
S'NNP'
p402
S'B-NP'
p403
g5
tp404
a(S'2008'
p405
S'2008'
p406
S'CD'
p407
S'I-NP'
p408
g5
tp409
a(S'to'
p410
S'to'
p411
S'TO'
p412
S'B-PP'
p413
g5
tp414
a(S'June'
p415
S'June'
p416
S'NNP'
p417
S'B-NP'
p418
g5
tp419
a(S'2010'
p420
S'2010'
p421
S'CD'
p422
S'I-NP'
p423
g5
tp424
a(S','
p425
g425
g425
S'I-NP'
p426
g5
tp427
a(S'80'
p428
S'80'
p429
S'CD'
p430
S'I-NP'
p431
g5
tp432
a(S'consecutive'
p433
S'consecutive'
p434
S'JJ'
p435
S'I-NP'
p436
g5
tp437
a(S'children'
p438
S'child'
p439
S'NNS'
p440
S'I-NP'
p441
g5
tp442
a(S'undergoing'
p443
S'undergo'
p444
S'VBG'
p445
S'B-VP'
p446
g5
tp447
a(S'correction'
p448
S'correction'
p449
S'NN'
p450
S'B-NP'
p451
g5
tp452
a(S'of'
p453
S'of'
p454
S'IN'
p455
S'B-PP'
p456
g5
tp457
a(S'TOF'
p458
S'TOF'
p459
S'NN'
p460
S'B-NP'
p461
S'B-protein'
p462
tp463
a(S'were'
p464
S'be'
p465
S'VBD'
p466
S'B-VP'
p467
g5
tp468
a(S'enrolled'
p469
S'enrol'
p470
S'VBN'
p471
S'I-VP'
p472
g5
tp473
a(S'and'
p474
S'and'
p475
S'CC'
p476
g5
g5
tp477
a(S'randomly'
p478
S'randomly'
p479
S'RB'
p480
S'B-VP'
p481
g5
tp482
a(S'assigned'
p483
S'assign'
p484
S'VBN'
p485
S'I-VP'
p486
g5
tp487
a(S'to'
p488
S'to'
p489
S'TO'
p490
S'B-PP'
p491
g5
tp492
a(S'either'
p493
S'either'
p494
S'CC'
p495
g5
g5
tp496
a(S'a'
p497
g497
S'DT'
p498
S'B-NP'
p499
g5
tp500
a(S'postconditioning'
p501
S'postconditioning'
p502
S'JJ'
p503
S'I-NP'
p504
g5
tp505
a(S'group'
p506
S'group'
p507
S'NN'
p508
S'I-NP'
p509
g5
tp510
a(g159
g159
g159
g5
g5
tp511
a(S'three'
p512
S'three'
p513
S'CD'
p514
S'B-NP'
p515
g5
tp516
a(S'cycles'
p517
S'cycle'
p518
S'NNS'
p519
S'I-NP'
p520
g5
tp521
a(S'of'
p522
S'of'
p523
S'IN'
p524
S'B-PP'
p525
g5
tp526
a(S'30'
p527
S'30'
p528
S'CD'
p529
S'B-NP'
p530
g5
tp531
a(S'seconds'
p532
S'second'
p533
S'NNS'
p534
S'I-NP'
p535
g5
tp536
a(S'of'
p537
S'of'
p538
S'IN'
p539
S'B-PP'
p540
g5
tp541
a(S'ischemia'
p542
S'ischemia'
p543
S'NN'
p544
S'B-NP'
p545
g5
tp546
a(S'and'
p547
S'and'
p548
S'CC'
p549
g5
g5
tp550
a(S'30'
p551
S'30'
p552
S'CD'
p553
S'B-NP'
p554
g5
tp555
a(S'seconds'
p556
S'second'
p557
S'NNS'
p558
S'I-NP'
p559
g5
tp560
a(S'of'
p561
S'of'
p562
S'IN'
p563
S'B-PP'
p564
g5
tp565
a(S'reperfusion'
p566
S'reperfusion'
p567
S'NN'
p568
S'B-NP'
p569
g5
tp570
a(S'using'
p571
S'use'
p572
S'VBG'
p573
S'B-VP'
p574
g5
tp575
a(S're-clamping'
p576
S're-clamping'
p577
S'JJ'
p578
S'B-NP'
p579
g5
tp580
a(S'and'
p581
S'and'
p582
S'CC'
p583
S'I-NP'
p584
g5
tp585
a(S'de-clamping'
p586
S'de-clamping'
p587
S'JJ'
p588
S'I-NP'
p589
g5
tp590
a(S'starting'
p591
S'start'
p592
S'VBG'
p593
S'I-NP'
p594
g5
tp595
a(S'30'
p596
S'30'
p597
S'CD'
p598
S'B-NP'
p599
g5
tp600
a(S'seconds'
p601
S'second'
p602
S'NNS'
p603
S'I-NP'
p604
g5
tp605
a(S'after'
p606
S'after'
p607
S'IN'
p608
S'B-PP'
p609
g5
tp610
a(S'the'
p611
S'the'
p612
S'DT'
p613
S'B-NP'
p614
g5
tp615
a(S'initial'
p616
S'initial'
p617
S'JJ'
p618
S'I-NP'
p619
g5
tp620
a(S'de-clamping'
p621
S'de-clamping'
p622
S'NN'
p623
S'I-NP'
p624
g5
tp625
a(S'of'
p626
S'of'
p627
S'IN'
p628
S'B-PP'
p629
g5
tp630
a(S'the'
p631
S'the'
p632
S'DT'
p633
S'B-NP'
p634
g5
tp635
a(S'aorta'
p636
S'aorta'
p637
S'NN'
p638
S'I-NP'
p639
g5
tp640
a(g425
g425
g425
g5
g5
tp641
a(S'n'
p642
g642
S'NN'
p643
S'B-NP'
p644
g5
tp645
a(S'='
p646
g646
S'SYM'
p647
S'B-VP'
p648
g5
tp649
a(S'41'
p650
S'41'
p651
S'CD'
p652
S'B-NP'
p653
g5
tp654
a(g167
g167
g167
g5
g5
tp655
a(S'or'
p656
S'or'
p657
S'CC'
p658
g5
g5
tp659
a(g497
g497
S'DT'
p660
S'B-NP'
p661
g5
tp662
a(S'control'
p663
S'control'
p664
S'NN'
p665
S'I-NP'
p666
g5
tp667
a(S'group'
p668
S'group'
p669
S'NN'
p670
S'I-NP'
p671
g5
tp672
a(g159
g159
g159
g5
g5
tp673
a(g642
g642
S'NN'
p674
S'B-NP'
p675
g5
tp676
a(g646
g646
S'SYM'
p677
S'B-VP'
p678
g5
tp679
a(S'39'
p680
S'39'
p681
S'CD'
p682
S'B-NP'
p683
g5
tp684
a(g167
g167
g167
g5
g5
tp685
a(g52
g52
g52
g5
g5
tp686
a(S'Cardiac'
p687
S'Cardiac'
p688
S'JJ'
p689
S'B-NP'
p690
S'B-protein'
p691
tp692
a(S'troponin'
p693
S'troponin'
p694
S'NN'
p695
S'I-NP'
p696
S'I-protein'
p697
tp698
a(S'I'
p699
g699
S'CD'
p700
S'I-NP'
p701
S'I-protein'
p702
tp703
a(g159
g159
g159
g5
g5
tp704
a(S'cTnI'
p705
S'cTnI'
p706
S'NN'
p707
S'B-NP'
p708
S'B-protein'
p709
tp710
a(g167
g167
g167
g5
g5
tp711
a(S'was'
p712
S'be'
p713
S'VBD'
p714
S'B-VP'
p715
g5
tp716
a(S'assayed'
p717
S'assay'
p718
S'VBN'
p719
S'I-VP'
p720
g5
tp721
a(S'preoperatively'
p722
S'preoperatively'
p723
S'RB'
p724
S'B-ADVP'
p725
g5
tp726
a(g425
g425
g425
g5
g5
tp727
a(S'and'
p728
S'and'
p729
S'CC'
p730
g5
g5
tp731
a(S'then'
p732
S'then'
p733
S'RB'
p734
g5
g5
tp735
a(S'4'
p736
g736
S'CD'
p737
S'B-NP'
p738
g5
tp739
a(S'hours'
p740
S'hour'
p741
S'NNS'
p742
S'I-NP'
p743
g5
tp744
a(g425
g425
g425
g5
g5
tp745
a(S'8'
p746
g746
S'CD'
p747
S'B-NP'
p748
g5
tp749
a(S'hours'
p750
S'hour'
p751
S'NNS'
p752
S'I-NP'
p753
g5
tp754
a(g425
g425
g425
g5
g5
tp755
a(S'12'
p756
S'12'
p757
S'CD'
p758
S'B-NP'
p759
g5
tp760
a(S'hours'
p761
S'hour'
p762
S'NNS'
p763
S'I-NP'
p764
g5
tp765
a(g425
g425
g425
g5
g5
tp766
a(S'20'
p767
S'20'
p768
S'CD'
p769
S'B-NP'
p770
g5
tp771
a(S'hours'
p772
S'hour'
p773
S'NNS'
p774
S'I-NP'
p775
g5
tp776
a(g425
g425
g425
g5
g5
tp777
a(S'and'
p778
S'and'
p779
S'CC'
p780
g5
g5
tp781
a(S'48'
p782
S'48'
p783
S'CD'
p784
S'B-NP'
p785
g5
tp786
a(S'hours'
p787
S'hour'
p788
S'NNS'
p789
S'I-NP'
p790
g5
tp791
a(S'after'
p792
S'after'
p793
S'IN'
p794
S'B-PP'
p795
g5
tp796
a(S'persistent'
p797
S'persistent'
p798
S'JJ'
p799
S'B-NP'
p800
g5
tp801
a(S'reperfusion.'
p802
S'reperfusion.'
p803
S'NN'
p804
S'I-NP'
p805
g5
tp806
a(S'The'
p807
S'The'
p808
S'DT'
p809
S'B-NP'
p810
g5
tp811
a(S'pre-'
p812
S'pre-'
p813
S'JJ'
p814
S'I-NP'
p815
g5
tp816
a(g425
g425
g425
S'I-NP'
p817
g5
tp818
a(S'intra-'
p819
S'intra-'
p820
S'JJ'
p821
S'I-NP'
p822
g5
tp823
a(S'and'
p824
S'and'
p825
S'CC'
p826
S'I-NP'
p827
g5
tp828
a(S'postoperative'
p829
S'postoperative'
p830
S'JJ'
p831
S'I-NP'
p832
g5
tp833
a(S'relevant'
p834
S'relevant'
p835
S'JJ'
p836
S'I-NP'
p837
g5
tp838
a(S'data'
p839
S'datum'
p840
S'NNS'
p841
S'I-NP'
p842
g5
tp843
a(S'of'
p844
S'of'
p845
S'IN'
p846
S'B-PP'
p847
g5
tp848
a(S'all'
p849
S'all'
p850
S'DT'
p851
S'B-NP'
p852
g5
tp853
a(S'selected'
p854
S'select'
p855
S'VBN'
p856
S'I-NP'
p857
g5
tp858
a(S'patients'
p859
S'patient'
p860
S'NNS'
p861
S'I-NP'
p862
g5
tp863
a(S'were'
p864
S'be'
p865
S'VBD'
p866
S'B-VP'
p867
g5
tp868
a(S'analyzed.'
p869
S'analyzed.'
p870
S'VBN'
p871
S'I-VP'
p872
g5
tp873
a(S'As'
p874
S'As'
p875
S'IN'
p876
S'B-PP'
p877
g5
tp878
a(g497
g497
S'DT'
p879
S'B-NP'
p880
g5
tp881
a(S'result'
p882
S'result'
p883
S'NN'
p884
S'I-NP'
p885
g5
tp886
a(g425
g425
g425
g5
g5
tp887
a(S'ischemic'
p888
S'ischemic'
p889
S'JJ'
p890
S'B-NP'
p891
g5
tp892
a(S'postconditioning'
p893
S'postconditioning'
p894
S'NN'
p895
S'I-NP'
p896
g5
tp897
a(S'reduced'
p898
S'reduce'
p899
S'VBD'
p900
S'B-VP'
p901
g5
tp902
a(S'postoperative'
p903
S'postoperative'
p904
S'JJ'
p905
S'B-NP'
p906
g5
tp907
a(S'peak'
p908
S'peak'
p909
S'JJ'
p910
S'I-NP'
p911
g5
tp912
a(S'release'
p913
S'release'
p914
S'NN'
p915
S'I-NP'
p916
g5
tp917
a(S'by'
p918
S'by'
p919
S'IN'
p920
S'B-PP'
p921
g5
tp922
a(S'45'
p923
S'45'
p924
S'CD'
p925
S'B-NP'
p926
g5
tp927
a(S'%'
p928
g928
S'NN'
p929
S'I-NP'
p930
g5
tp931
a(S'for'
p932
S'for'
p933
S'IN'
p934
S'B-PP'
p935
g5
tp936
a(S'cTnI'
p937
S'cTnI'
p938
S'NN'
p939
S'B-NP'
p940
S'B-protein'
p941
tp942
a(S'compared'
p943
S'compare'
p944
S'VBN'
p945
S'B-PP'
p946
g5
tp947
a(S'with'
p948
S'with'
p949
S'IN'
p950
S'B-PP'
p951
g5
tp952
a(S'the'
p953
S'the'
p954
S'DT'
p955
S'B-NP'
p956
g5
tp957
a(S'control'
p958
S'control'
p959
S'NN'
p960
S'I-NP'
p961
g5
tp962
a(S'group'
p963
S'group'
p964
S'NN'
p965
S'I-NP'
p966
g5
tp967
a(g159
g159
g159
g5
g5
tp968
a(S'0.43'
p969
S'0.43'
p970
S'CD'
p971
S'B-NP'
p972
g5
tp973
a(S'\xc2\xb1'
p974
S'\xc2\xb1'
p975
S'SYM'
p976
g5
g5
tp977
a(S'0.18'
p978
S'0.18'
p979
S'CD'
p980
S'B-NP'
p981
g5
tp982
a(S'ng/mL'
p983
S'ng/mL'
p984
S'NN'
p985
S'I-NP'
p986
g5
tp987
a(S'versus'
p988
S'versus'
p989
S'IN'
p990
S'B-PP'
p991
g5
tp992
a(S'0.78'
p993
S'0.78'
p994
S'CD'
p995
S'B-NP'
p996
g5
tp997
a(S'\xc2\xb1'
p998
S'\xc2\xb1'
p999
S'HYPH'
p1000
S'I-NP'
p1001
g5
tp1002
a(S'0.15'
p1003
S'0.15'
p1004
S'CD'
p1005
S'I-NP'
p1006
g5
tp1007
a(S'ng/mL'
p1008
S'ng/mL'
p1009
S'NN'
p1010
S'I-NP'
p1011
g5
tp1012
a(g425
g425
g425
g5
g5
tp1013
a(S'P'
p1014
g1014
S'NN'
p1015
S'B-NP'
p1016
g5
tp1017
a(S'<'
p1018
g1018
S'SYM'
p1019
S'B-NP'
p1020
g5
tp1021
a(S'0.0001'
p1022
S'0.0001'
p1023
S'CD'
p1024
S'I-NP'
p1025
g5
tp1026
a(g167
g167
g167
g5
g5
tp1027
a(g52
g52
g52
g5
g5
tp1028
a(S'Ischemic'
p1029
S'Ischemic'
p1030
S'JJ'
p1031
S'B-NP'
p1032
g5
tp1033
a(S'postconditioned'
p1034
S'postconditioned'
p1035
S'JJ'
p1036
S'I-NP'
p1037
g5
tp1038
a(S'patients'
p1039
S'patient'
p1040
S'NNS'
p1041
S'I-NP'
p1042
g5
tp1043
a(S'had'
p1044
S'have'
p1045
S'VBD'
p1046
S'B-VP'
p1047
g5
tp1048
a(g497
g497
S'DT'
p1049
S'B-NP'
p1050
g5
tp1051
a(S'lower'
p1052
S'low'
p1053
S'JJR'
p1054
S'I-NP'
p1055
g5
tp1056
a(S'peak'
p1057
S'peak'
p1058
S'NN'
p1059
S'I-NP'
p1060
g5
tp1061
a(S'inotropic'
p1062
S'inotropic'
p1063
S'JJ'
p1064
S'I-NP'
p1065
g5
tp1066
a(S'score'
p1067
S'score'
p1068
S'NN'
p1069
S'I-NP'
p1070
g5
tp1071
a(S'during'
p1072
S'during'
p1073
S'IN'
p1074
S'B-PP'
p1075
g5
tp1076
a(S'the'
p1077
S'the'
p1078
S'DT'
p1079
S'B-NP'
p1080
g5
tp1081
a(S'first'
p1082
S'first'
p1083
S'JJ'
p1084
S'I-NP'
p1085
g5
tp1086
a(S'postoperative'
p1087
S'postoperative'
p1088
S'JJ'
p1089
S'I-NP'
p1090
g5
tp1091
a(S'24'
p1092
S'24'
p1093
S'CD'
p1094
S'I-NP'
p1095
g5
tp1096
a(S'hours'
p1097
S'hour'
p1098
S'NNS'
p1099
S'I-NP'
p1100
g5
tp1101
a(g159
g159
g159
g5
g5
tp1102
a(S'5.6'
p1103
S'5.6'
p1104
S'CD'
p1105
S'B-NP'
p1106
g5
tp1107
a(S'\xc2\xb1'
p1108
S'\xc2\xb1'
p1109
S'SYM'
p1110
S'I-NP'
p1111
g5
tp1112
a(S'2.2'
p1113
S'2.2'
p1114
S'CD'
p1115
S'I-NP'
p1116
g5
tp1117
a(S'\xc2\xb5g/kg/minute'
p1118
S'\xc2\xb5g/kg/minute'
p1119
S'NN'
p1120
S'I-NP'
p1121
g5
tp1122
a(S'versus'
p1123
S'versus'
p1124
S'IN'
p1125
S'B-PP'
p1126
g5
tp1127
a(S'8.6'
p1128
S'8.6'
p1129
S'CD'
p1130
S'B-NP'
p1131
g5
tp1132
a(S'\xc2\xb1'
p1133
S'\xc2\xb1'
p1134
S'HYPH'
p1135
S'I-NP'
p1136
g5
tp1137
a(S'3.6'
p1138
S'3.6'
p1139
S'CD'
p1140
S'I-NP'
p1141
g5
tp1142
a(S'\xc2\xb5g/kg/minute'
p1143
S'\xc2\xb5g/kg/minute'
p1144
S'NN'
p1145
S'I-NP'
p1146
g5
tp1147
a(g425
g425
g425
g5
g5
tp1148
a(g1014
g1014
S'NN'
p1149
S'B-NP'
p1150
g5
tp1151
a(g1018
g1018
S'SYM'
p1152
S'B-NP'
p1153
g5
tp1154
a(S'0.0001'
p1155
S'0.0001'
p1156
S'CD'
p1157
S'I-NP'
p1158
g5
tp1159
a(g167
g167
g167
g5
g5
tp1160
a(g425
g425
g425
g5
g5
tp1161
a(S'extubation'
p1162
S'extubation'
p1163
S'NN'
p1164
S'B-NP'
p1165
g5
tp1166
a(S'time'
p1167
S'time'
p1168
S'NN'
p1169
S'I-NP'
p1170
g5
tp1171
a(g159
g159
g159
g5
g5
tp1172
a(S'21.5'
p1173
S'21.5'
p1174
S'CD'
p1175
S'B-NP'
p1176
g5
tp1177
a(S'\xc2\xb1'
p1178
S'\xc2\xb1'
p1179
S'CC'
p1180
S'I-NP'
p1181
g5
tp1182
a(S'7.3'
p1183
S'7.3'
p1184
S'CD'
p1185
S'I-NP'
p1186
g5
tp1187
a(S'hours'
p1188
S'hour'
p1189
S'NNS'
p1190
S'I-NP'
p1191
g5
tp1192
a(S'versus'
p1193
S'versus'
p1194
S'IN'
p1195
S'B-PP'
p1196
g5
tp1197
a(S'30.2'
p1198
S'30.2'
p1199
S'CD'
p1200
S'B-NP'
p1201
g5
tp1202
a(S'\xc2\xb1'
p1203
S'\xc2\xb1'
p1204
S'HYPH'
p1205
S'I-NP'
p1206
g5
tp1207
a(S'12.4'
p1208
S'12.4'
p1209
S'CD'
p1210
S'I-NP'
p1211
g5
tp1212
a(S'hours'
p1213
S'hour'
p1214
S'NNS'
p1215
S'I-NP'
p1216
g5
tp1217
a(g425
g425
g425
g5
g5
tp1218
a(g1014
g1014
S'NN'
p1219
S'B-NP'
p1220
g5
tp1221
a(g646
g646
S'SYM'
p1222
S'B-VP'
p1223
g5
tp1224
a(S'0.0002'
p1225
S'0.0002'
p1226
S'CD'
p1227
S'B-NP'
p1228
g5
tp1229
a(g167
g167
g167
g5
g5
tp1230
a(S'and'
p1231
S'and'
p1232
S'CC'
p1233
g5
g5
tp1234
a(S'length'
p1235
S'length'
p1236
S'NN'
p1237
S'B-NP'
p1238
g5
tp1239
a(S'of'
p1240
S'of'
p1241
S'IN'
p1242
S'B-PP'
p1243
g5
tp1244
a(S'ICU'
p1245
S'ICU'
p1246
S'NN'
p1247
S'B-NP'
p1248
g5
tp1249
a(S'stay'
p1250
S'stay'
p1251
S'NN'
p1252
S'I-NP'
p1253
g5
tp1254
a(g159
g159
g159
g5
g5
tp1255
a(S'43.4'
p1256
S'43.4'
p1257
S'CD'
p1258
S'B-NP'
p1259
g5
tp1260
a(S'\xc2\xb1'
p1261
S'\xc2\xb1'
p1262
S'CC'
p1263
S'I-NP'
p1264
g5
tp1265
a(S'12.6'
p1266
S'12.6'
p1267
S'CD'
p1268
S'I-NP'
p1269
g5
tp1270
a(S'hours'
p1271
S'hour'
p1272
S'NNS'
p1273
S'I-NP'
p1274
g5
tp1275
a(S'versus'
p1276
S'versus'
p1277
S'IN'
p1278
S'B-PP'
p1279
g5
tp1280
a(S'56.3'
p1281
S'56.3'
p1282
S'CD'
p1283
S'B-NP'
p1284
g5
tp1285
a(S'\xc2\xb1'
p1286
S'\xc2\xb1'
p1287
S'HYPH'
p1288
S'I-NP'
p1289
g5
tp1290
a(S'17.8'
p1291
S'17.8'
p1292
S'CD'
p1293
S'I-NP'
p1294
g5
tp1295
a(S'hours'
p1296
S'hour'
p1297
S'NNS'
p1298
S'I-NP'
p1299
g5
tp1300
a(g425
g425
g425
g5
g5
tp1301
a(g1014
g1014
S'NN'
p1302
S'B-NP'
p1303
g5
tp1304
a(g646
g646
S'SYM'
p1305
S'B-VP'
p1306
g5
tp1307
a(S'0.0003'
p1308
S'0.0003'
p1309
S'CD'
p1310
S'B-NP'
p1311
g5
tp1312
a(g167
g167
g167
g5
g5
tp1313
a(g425
g425
g425
g5
g5
tp1314
a(S'while'
p1315
S'while'
p1316
S'IN'
p1317
S'B-SBAR'
p1318
g5
tp1319
a(S'they'
p1320
S'they'
p1321
S'PRP'
p1322
S'B-NP'
p1323
g5
tp1324
a(S'had'
p1325
S'have'
p1326
S'VBD'
p1327
S'B-VP'
p1328
g5
tp1329
a(g497
g497
S'DT'
p1330
S'B-NP'
p1331
g5
tp1332
a(S'higher'
p1333
S'high'
p1334
S'JJR'
p1335
S'I-NP'
p1336
g5
tp1337
a(S'cardiac'
p1338
S'cardiac'
p1339
S'JJ'
p1340
S'I-NP'
p1341
g5
tp1342
a(S'output'
p1343
S'output'
p1344
S'NN'
p1345
S'I-NP'
p1346
g5
tp1347
a(S'on'
p1348
S'on'
p1349
S'IN'
p1350
S'B-PP'
p1351
g5
tp1352
a(S'the'
p1353
S'the'
p1354
S'DT'
p1355
S'B-NP'
p1356
g5
tp1357
a(S'first'
p1358
S'first'
p1359
S'JJ'
p1360
S'I-NP'
p1361
g5
tp1362
a(S'postoperative'
p1363
S'postoperative'
p1364
S'JJ'
p1365
S'I-NP'
p1366
g5
tp1367
a(S'day'
p1368
S'day'
p1369
S'NN'
p1370
S'I-NP'
p1371
g5
tp1372
a(g159
g159
g159
g5
g5
tp1373
a(S'1.41'
p1374
S'1.41'
p1375
S'CD'
p1376
S'B-NP'
p1377
g5
tp1378
a(S'\xc2\xb1'
p1379
S'\xc2\xb1'
p1380
S'SYM'
p1381
g5
g5
tp1382
a(S'0.26'
p1383
S'0.26'
p1384
S'CD'
p1385
S'B-NP'
p1386
g5
tp1387
a(S'L/minute'
p1388
S'L/minute'
p1389
S'NN'
p1390
S'I-NP'
p1391
g5
tp1392
a(S'versus'
p1393
S'versus'
p1394
S'IN'
p1395
S'B-PP'
p1396
g5
tp1397
a(S'1.28'
p1398
S'1.28'
p1399
S'CD'
p1400
S'B-NP'
p1401
g5
tp1402
a(S'\xc2\xb1'
p1403
S'\xc2\xb1'
p1404
S'HYPH'
p1405
S'I-NP'
p1406
g5
tp1407
a(S'0.25'
p1408
S'0.25'
p1409
S'CD'
p1410
S'I-NP'
p1411
g5
tp1412
a(S'L/minute'
p1413
S'L/minute'
p1414
S'NN'
p1415
S'I-NP'
p1416
g5
tp1417
a(g425
g425
g425
g5
g5
tp1418
a(g1014
g1014
S'NN'
p1419
S'B-NP'
p1420
g5
tp1421
a(g646
g646
S'SYM'
p1422
S'B-VP'
p1423
g5
tp1424
a(S'0.0255'
p1425
S'0.0255'
p1426
S'CD'
p1427
S'B-NP'
p1428
g5
tp1429
a(g167
g167
g167
g5
g5
tp1430
a(S'as'
p1431
S'as'
p1432
S'IN'
p1433
S'B-SBAR'
p1434
g5
tp1435
a(S'compared'
p1436
S'compare'
p1437
S'VBN'
p1438
S'B-VP'
p1439
g5
tp1440
a(S'to'
p1441
S'to'
p1442
S'TO'
p1443
S'B-PP'
p1444
g5
tp1445
a(S'the'
p1446
S'the'
p1447
S'DT'
p1448
S'B-NP'
p1449
g5
tp1450
a(S'control'
p1451
S'control'
p1452
S'NN'
p1453
S'I-NP'
p1454
g5
tp1455
a(S'group.'
p1456
S'group.'
p1457
S'NN'
p1458
S'I-NP'
p1459
g5
tp1460
a(S'In'
p1461
S'In'
p1462
S'IN'
p1463
S'B-PP'
p1464
g5
tp1465
a(S'conclusion'
p1466
S'conclusion'
p1467
S'NN'
p1468
S'B-NP'
p1469
g5
tp1470
a(g425
g425
g425
g5
g5
tp1471
a(S'ischemic'
p1472
S'ischemic'
p1473
S'JJ'
p1474
S'B-NP'
p1475
g5
tp1476
a(S'postconditioning'
p1477
S'postconditioning'
p1478
S'NN'
p1479
S'I-NP'
p1480
g5
tp1481
a(S'may'
p1482
S'may'
p1483
S'MD'
p1484
S'B-VP'
p1485
g5
tp1486
a(S'to'
p1487
S'to'
p1488
S'TO'
p1489
S'B-PP'
p1490
g5
tp1491
a(S'some'
p1492
S'some'
p1493
S'DT'
p1494
S'B-NP'
p1495
g5
tp1496
a(S'extent'
p1497
S'extent'
p1498
S'NN'
p1499
S'I-NP'
p1500
g5
tp1501
a(S'provide'
p1502
S'provide'
p1503
S'VBP'
p1504
S'B-VP'
p1505
g5
tp1506
a(S'myocardial'
p1507
S'myocardial'
p1508
S'JJ'
p1509
S'B-NP'
p1510
g5
tp1511
a(S'protection'
p1512
S'protection'
p1513
S'NN'
p1514
S'I-NP'
p1515
g5
tp1516
a(S'in'
p1517
S'in'
p1518
S'IN'
p1519
S'B-PP'
p1520
g5
tp1521
a(S'children'
p1522
S'child'
p1523
S'NNS'
p1524
S'B-NP'
p1525
g5
tp1526
a(S'undergoing'
p1527
S'undergo'
p1528
S'VBG'
p1529
S'B-VP'
p1530
g5
tp1531
a(S'correction'
p1532
S'correction'
p1533
S'NN'
p1534
S'B-NP'
p1535
g5
tp1536
a(S'of'
p1537
S'of'
p1538
S'IN'
p1539
S'B-PP'
p1540
g5
tp1541
a(S'tetralogy'
p1542
S'tetralogy'
p1543
S'NN'
p1544
S'B-NP'
p1545
g5
tp1546
a(S'of'
p1547
S'of'
p1548
S'IN'
p1549
S'B-PP'
p1550
g5
tp1551
a(S'Fallot'
p1552
S'Fallot'
p1553
S'NN'
p1554
S'B-NP'
p1555
g5
tp1556
a(g52
g52
g52
g5
g5
tp1557
a.