(lp0
(S'Magnetic'
p1
S'Magnetic'
p2
S'JJ'
p3
S'B-NP'
p4
S'O'
p5
tp6
a(S'resonance'
p7
S'resonance'
p8
S'NN'
p9
S'I-NP'
p10
g5
tp11
a(S'angiography'
p12
S'angiography'
p13
S'NN'
p14
S'I-NP'
p15
g5
tp16
a(S'for'
p17
S'for'
p18
S'IN'
p19
S'B-PP'
p20
g5
tp21
a(S'monitoring'
p22
S'monitor'
p23
S'VBG'
p24
S'B-VP'
p25
g5
tp26
a(S'prophylactic'
p27
S'prophylactic'
p28
S'JJ'
p29
S'B-NP'
p30
g5
tp31
a(S'endoscopic'
p32
S'endoscopic'
p33
S'JJ'
p34
S'I-NP'
p35
g5
tp36
a(S'treatment'
p37
S'treatment'
p38
S'NN'
p39
S'I-NP'
p40
g5
tp41
a(S'of'
p42
S'of'
p43
S'IN'
p44
S'B-PP'
p45
g5
tp46
a(S'high'
p47
S'high'
p48
S'JJ'
p49
S'B-NP'
p50
g5
tp51
a(S'risk'
p52
S'risk'
p53
S'NN'
p54
S'I-NP'
p55
g5
tp56
a(S'esophageal'
p57
S'esophageal'
p58
S'JJ'
p59
S'I-NP'
p60
g5
tp61
a(S'varices'
p62
S'varix'
p63
S'NNS'
p64
S'I-NP'
p65
g5
tp66
a(S'.'
p67
g67
g67
g5
g5
tp68
a(S'BACKGROUND'
p69
S'BACKGROUND'
p70
S'NN'
p71
S'B-NP'
p72
g5
tp73
a(S'AND'
p74
S'AND'
p75
S'CC'
p76
S'I-NP'
p77
g5
tp78
a(S'STUDY'
p79
S'STUDY'
p80
S'NN'
p81
S'I-NP'
p82
g5
tp83
a(S'AIMS'
p84
S'AIMS'
p85
S'NNS'
p86
S'I-NP'
p87
g5
tp88
a(S'Endoscopic'
p89
S'Endoscopic'
p90
S'JJ'
p91
S'B-NP'
p92
g5
tp93
a(S'injection'
p94
S'injection'
p95
S'NN'
p96
S'I-NP'
p97
g5
tp98
a(S'sclerotherapy'
p99
S'sclerotherapy'
p100
S'NN'
p101
S'I-NP'
p102
g5
tp103
a(S'('
p104
g104
g104
g5
g5
tp105
a(S'EIS'
p106
S'EIS'
p107
S'NN'
p108
S'B-NP'
p109
S'B-protein'
p110
tp111
a(S')'
p112
g112
g112
g5
g5
tp113
a(S'and'
p114
S'and'
p115
S'CC'
p116
g5
g5
tp117
a(S'endoscopic'
p118
S'endoscopic'
p119
S'JJ'
p120
S'B-NP'
p121
g5
tp122
a(S'variceal'
p123
S'variceal'
p124
S'NN'
p125
S'I-NP'
p126
g5
tp127
a(S'ligation'
p128
S'ligation'
p129
S'NN'
p130
S'I-NP'
p131
g5
tp132
a(g104
g104
g104
g5
g5
tp133
a(S'EVL'
p134
S'EVL'
p135
S'NN'
p136
S'B-NP'
p137
g5
tp138
a(g112
g112
g112
g5
g5
tp139
a(S'are'
p140
S'be'
p141
S'VBP'
p142
S'B-VP'
p143
g5
tp144
a(S'used'
p145
S'use'
p146
S'VBN'
p147
S'I-VP'
p148
g5
tp149
a(S'worldwide'
p150
S'worldwide'
p151
S'RB'
p152
S'B-ADVP'
p153
g5
tp154
a(S'as'
p155
S'as'
p156
S'IN'
p157
S'B-SBAR'
p158
g5
tp159
a(S'the'
p160
S'the'
p161
S'DT'
p162
S'B-NP'
p163
g5
tp164
a(S'treatment'
p165
S'treatment'
p166
S'NN'
p167
S'I-NP'
p168
g5
tp169
a(S'for'
p170
S'for'
p171
S'IN'
p172
S'B-PP'
p173
g5
tp174
a(S'esophageal'
p175
S'esophageal'
p176
S'JJ'
p177
S'B-NP'
p178
g5
tp179
a(S'varices.'
p180
S'varices.'
p181
S'NN'
p182
S'I-NP'
p183
g5
tp184
a(S'We'
p185
S'We'
p186
S'PRP'
p187
S'B-NP'
p188
g5
tp189
a(S'evaluated'
p190
S'evaluate'
p191
S'VBD'
p192
S'B-VP'
p193
g5
tp194
a(S'portal'
p195
S'portal'
p196
S'JJ'
p197
S'B-NP'
p198
g5
tp199
a(S'hemodynamics'
p200
S'hemodynamic'
p201
S'NNS'
p202
S'I-NP'
p203
g5
tp204
a(S'using'
p205
S'use'
p206
S'VBG'
p207
S'B-VP'
p208
g5
tp209
a(S'magnetic'
p210
S'magnetic'
p211
S'JJ'
p212
S'B-NP'
p213
g5
tp214
a(S'resonance'
p215
S'resonance'
p216
S'NN'
p217
S'I-NP'
p218
g5
tp219
a(S'angiography'
p220
S'angiography'
p221
S'NN'
p222
S'I-NP'
p223
g5
tp224
a(g104
g104
g104
g5
g5
tp225
a(S'MRA'
p226
S'MRA'
p227
S'NN'
p228
S'B-NP'
p229
S'B-protein'
p230
tp231
a(g112
g112
g112
g5
g5
tp232
a(S'in'
p233
S'in'
p234
S'IN'
p235
S'B-PP'
p236
g5
tp237
a(S'these'
p238
S'these'
p239
S'DT'
p240
S'B-NP'
p241
g5
tp242
a(S'two'
p243
S'two'
p244
S'CD'
p245
S'I-NP'
p246
g5
tp247
a(S'forms'
p248
S'form'
p249
S'NNS'
p250
S'I-NP'
p251
g5
tp252
a(S'of'
p253
S'of'
p254
S'IN'
p255
S'B-PP'
p256
g5
tp257
a(S'treatment'
p258
S'treatment'
p259
S'NN'
p260
S'B-NP'
p261
g5
tp262
a(g67
g67
g67
g5
g5
tp263
a(S'PATIENTS'
p264
S'PATIENTS'
p265
S'NNS'
p266
S'B-NP'
p267
g5
tp268
a(S'AND'
p269
S'AND'
p270
S'CC'
p271
S'I-NP'
p272
g5
tp273
a(S'METHODS'
p274
S'METHODS'
p275
S'NNS'
p276
S'I-NP'
p277
g5
tp278
a(S'The'
p279
S'The'
p280
S'DT'
p281
S'B-NP'
p282
g5
tp283
a(S'study'
p284
S'study'
p285
S'NN'
p286
S'I-NP'
p287
g5
tp288
a(S'was'
p289
S'be'
p290
S'VBD'
p291
S'B-VP'
p292
g5
tp293
a(S'carried'
p294
S'carry'
p295
S'VBN'
p296
S'I-VP'
p297
g5
tp298
a(S'out'
p299
S'out'
p300
S'RP'
p301
S'B-PRT'
p302
g5
tp303
a(S'in'
p304
S'in'
p305
S'IN'
p306
S'B-PP'
p307
g5
tp308
a(S'50'
p309
S'50'
p310
S'CD'
p311
S'B-NP'
p312
g5
tp313
a(S'cirrhotic'
p314
S'cirrhotic'
p315
S'JJ'
p316
S'I-NP'
p317
g5
tp318
a(S'patients.'
p319
S'patients.'
p320
S'NN'
p321
S'I-NP'
p322
g5
tp323
a(S'MRA'
p324
S'MRA'
p325
S'NN'
p326
S'I-NP'
p327
g5
tp328
a(S'was'
p329
S'be'
p330
S'VBD'
p331
S'B-VP'
p332
g5
tp333
a(S'performed'
p334
S'perform'
p335
S'VBN'
p336
S'I-VP'
p337
g5
tp338
a(S'to'
p339
S'to'
p340
S'TO'
p341
S'I-VP'
p342
g5
tp343
a(S'identify'
p344
S'identify'
p345
S'VB'
p346
S'I-VP'
p347
g5
tp348
a(S'the'
p349
S'the'
p350
S'DT'
p351
S'B-NP'
p352
g5
tp353
a(S'hepatofugal'
p354
S'hepatofugal'
p355
S'JJ'
p356
S'I-NP'
p357
S'B-protein'
p358
tp359
a(S'supply'
p360
S'supply'
p361
S'NN'
p362
S'I-NP'
p363
S'I-protein'
p364
tp365
a(S'vein'
p366
S'vein'
p367
S'NN'
p368
S'I-NP'
p369
S'I-protein'
p370
tp371
a(S'selectively'
p372
S'selectively'
p373
S'RB'
p374
S'B-ADVP'
p375
g5
tp376
a(S'for'
p377
S'for'
p378
S'IN'
p379
S'B-PP'
p380
g5
tp381
a(S'esophageal'
p382
S'esophageal'
p383
S'JJ'
p384
S'B-NP'
p385
g5
tp386
a(S'varices.'
p387
S'varices.'
p388
S'NN'
p389
S'I-NP'
p390
g5
tp391
a(S'Those'
p392
S'Those'
p393
S'DT'
p394
S'B-NP'
p395
g5
tp396
a(S'who'
p397
S'who'
p398
S'WP'
p399
S'B-NP'
p400
g5
tp401
a(S'showed'
p402
S'show'
p403
S'VBD'
p404
S'B-VP'
p405
g5
tp406
a(S'a'
p407
g407
S'DT'
p408
S'B-NP'
p409
g5
tp410
a(S'positive'
p411
S'positive'
p412
S'JJ'
p413
S'I-NP'
p414
g5
tp415
a(S'MR'
p416
S'MR'
p417
S'NN'
p418
S'I-NP'
p419
g5
tp420
a(S'angiogram'
p421
S'angiogram'
p422
S'NN'
p423
S'I-NP'
p424
g5
tp425
a(S'for'
p426
S'for'
p427
S'IN'
p428
S'B-PP'
p429
g5
tp430
a(S'the'
p431
S'the'
p432
S'DT'
p433
S'B-NP'
p434
g5
tp435
a(S'supply'
p436
S'supply'
p437
S'NN'
p438
S'I-NP'
p439
g5
tp440
a(S'vein'
p441
S'vein'
p442
S'NN'
p443
S'I-NP'
p444
g5
tp445
a(S'were'
p446
S'be'
p447
S'VBD'
p448
S'B-VP'
p449
g5
tp450
a(S'randomly'
p451
S'randomly'
p452
S'RB'
p453
S'I-VP'
p454
g5
tp455
a(S'allocated'
p456
S'allocate'
p457
S'VBN'
p458
S'I-VP'
p459
g5
tp460
a(S'to'
p461
S'to'
p462
S'TO'
p463
S'B-PP'
p464
g5
tp465
a(S'one'
p466
S'one'
p467
S'CD'
p468
S'B-NP'
p469
g5
tp470
a(S'of'
p471
S'of'
p472
S'IN'
p473
S'B-PP'
p474
g5
tp475
a(S'two'
p476
S'two'
p477
S'CD'
p478
S'B-NP'
p479
g5
tp480
a(S'groups'
p481
S'group'
p482
S'NNS'
p483
S'I-NP'
p484
g5
tp485
a(S','
p486
g486
g486
g5
g5
tp487
a(S'using'
p488
S'use'
p489
S'VBG'
p490
S'B-VP'
p491
g5
tp492
a(S'the'
p493
S'the'
p494
S'DT'
p495
S'B-NP'
p496
g5
tp497
a(S'sealed'
p498
S'seal'
p499
S'VBN'
p500
S'I-NP'
p501
g5
tp502
a(S'envelope'
p503
S'envelope'
p504
S'NN'
p505
S'I-NP'
p506
g5
tp507
a(S'method'
p508
S'method'
p509
S'NN'
p510
S'I-NP'
p511
g5
tp512
a(g486
g486
g486
g5
g5
tp513
a(S'and'
p514
S'and'
p515
S'CC'
p516
g5
g5
tp517
a(S'underwent'
p518
S'undergo'
p519
S'VBD'
p520
S'B-VP'
p521
g5
tp522
a(S'either'
p523
S'either'
p524
S'CC'
p525
g5
g5
tp526
a(S'EIS'
p527
S'EIS'
p528
S'NNP'
p529
S'B-NP'
p530
g5
tp531
a(S'or'
p532
S'or'
p533
S'CC'
p534
S'I-NP'
p535
g5
tp536
a(S'EVL.'
p537
S'EVL.'
p538
S'NNP'
p539
S'I-NP'
p540
g5
tp541
a(S'On'
p542
S'On'
p543
S'IN'
p544
S'B-PP'
p545
g5
tp546
a(S'the'
p547
S'the'
p548
S'DT'
p549
S'B-NP'
p550
g5
tp551
a(S'other'
p552
S'other'
p553
S'JJ'
p554
S'I-NP'
p555
g5
tp556
a(S'hand'
p557
S'hand'
p558
S'NN'
p559
S'I-NP'
p560
g5
tp561
a(g486
g486
g486
g5
g5
tp562
a(S'those'
p563
S'those'
p564
S'DT'
p565
S'B-NP'
p566
g5
tp567
a(S'with'
p568
S'with'
p569
S'IN'
p570
S'B-PP'
p571
g5
tp572
a(g407
g407
S'DT'
p573
S'B-NP'
p574
g5
tp575
a(S'negative'
p576
S'negative'
p577
S'JJ'
p578
S'I-NP'
p579
g5
tp580
a(S'angiogram'
p581
S'angiogram'
p582
S'NN'
p583
S'I-NP'
p584
g5
tp585
a(S'received'
p586
S'receive'
p587
S'VBD'
p588
S'B-VP'
p589
g5
tp590
a(S'only'
p591
S'only'
p592
S'RB'
p593
S'B-NP'
p594
g5
tp595
a(S'EVL.'
p596
S'EVL.'
p597
S'NNP'
p598
S'I-NP'
p599
g5
tp600
a(S'EIS'
p601
S'EIS'
p602
S'NNP'
p603
S'I-NP'
p604
g5
tp605
a(S'was'
p606
S'be'
p607
S'VBD'
p608
S'B-VP'
p609
g5
tp610
a(S'done'
p611
S'do'
p612
S'VBN'
p613
S'I-VP'
p614
g5
tp615
a(S'to'
p616
S'to'
p617
S'TO'
p618
S'I-VP'
p619
g5
tp620
a(S'embolize'
p621
S'embolize'
p622
S'VB'
p623
S'I-VP'
p624
g5
tp625
a(S'esophageal'
p626
S'esophageal'
p627
S'JJ'
p628
S'B-NP'
p629
g5
tp630
a(S'varices'
p631
S'varix'
p632
S'NNS'
p633
S'I-NP'
p634
g5
tp635
a(S'as'
p636
S'as'
p637
S'RB'
p638
S'B-CONJP'
p639
g5
tp640
a(S'well'
p641
S'well'
p642
S'RB'
p643
S'I-CONJP'
p644
g5
tp645
a(S'as'
p646
S'as'
p647
S'IN'
p648
S'I-CONJP'
p649
g5
tp650
a(S'their'
p651
S'their'
p652
S'PRP$'
p653
S'B-NP'
p654
g5
tp655
a(S'feeders'
p656
S'feeder'
p657
S'NNS'
p658
S'I-NP'
p659
g5
tp660
a(S'by'
p661
S'by'
p662
S'IN'
p663
S'B-PP'
p664
g5
tp665
a(S'intravariceal'
p666
S'intravariceal'
p667
S'JJ'
p668
S'B-NP'
p669
g5
tp670
a(S'injection'
p671
S'injection'
p672
S'NN'
p673
S'I-NP'
p674
g5
tp675
a(S'of'
p676
S'of'
p677
S'IN'
p678
S'B-PP'
p679
g5
tp680
a(S'sclerosant'
p681
S'sclerosant'
p682
S'NN'
p683
S'B-NP'
p684
g5
tp685
a(S'under'
p686
S'under'
p687
S'IN'
p688
S'B-PP'
p689
g5
tp690
a(S'fluoroscopic'
p691
S'fluoroscopic'
p692
S'JJ'
p693
S'B-NP'
p694
g5
tp695
a(S'guidance'
p696
S'guidance'
p697
S'NN'
p698
S'I-NP'
p699
g5
tp700
a(g67
g67
g67
g5
g5
tp701
a(S'RESULTS'
p702
S'RESULTS'
p703
S'NNS'
p704
S'B-NP'
p705
g5
tp706
a(S'A'
p707
g707
S'DT'
p708
S'B-NP'
p709
g5
tp710
a(S'positive'
p711
S'positive'
p712
S'JJ'
p713
S'I-NP'
p714
g5
tp715
a(S'MR'
p716
S'MR'
p717
S'NN'
p718
S'I-NP'
p719
g5
tp720
a(S'angiogram'
p721
S'angiogram'
p722
S'NN'
p723
S'I-NP'
p724
g5
tp725
a(S'of'
p726
S'of'
p727
S'IN'
p728
S'B-PP'
p729
g5
tp730
a(S'the'
p731
S'the'
p732
S'DT'
p733
S'B-NP'
p734
g5
tp735
a(S'hepatofugal'
p736
S'hepatofugal'
p737
S'JJ'
p738
S'I-NP'
p739
g5
tp740
a(S'left'
p741
S'left'
p742
S'JJ'
p743
S'I-NP'
p744
g5
tp745
a(S'gastric'
p746
S'gastric'
p747
S'JJ'
p748
S'I-NP'
p749
g5
tp750
a(S'vein'
p751
S'vein'
p752
S'NN'
p753
S'I-NP'
p754
g5
tp755
a(S'as'
p756
S'as'
p757
S'IN'
p758
S'B-PP'
p759
g5
tp760
a(S'the'
p761
S'the'
p762
S'DT'
p763
S'B-NP'
p764
g5
tp765
a(S'supply'
p766
S'supply'
p767
S'NN'
p768
S'I-NP'
p769
g5
tp770
a(S'vein'
p771
S'vein'
p772
S'NN'
p773
S'I-NP'
p774
g5
tp775
a(S'was'
p776
S'be'
p777
S'VBD'
p778
S'B-VP'
p779
g5
tp780
a(S'observed'
p781
S'observe'
p782
S'VBN'
p783
S'I-VP'
p784
g5
tp785
a(S'in'
p786
S'in'
p787
S'IN'
p788
S'B-PP'
p789
g5
tp790
a(S'41'
p791
S'41'
p792
S'CD'
p793
S'B-NP'
p794
g5
tp795
a(S'patients.'
p796
S'patients.'
p797
S'NN'
p798
S'I-NP'
p799
g5
tp800
a(S'Nine'
p801
S'Nine'
p802
S'CD'
p803
S'B-NP'
p804
g5
tp805
a(S'patients'
p806
S'patient'
p807
S'NNS'
p808
S'I-NP'
p809
g5
tp810
a(S'showed'
p811
S'show'
p812
S'VBD'
p813
S'B-VP'
p814
g5
tp815
a(S'negative'
p816
S'negative'
p817
S'JJ'
p818
S'B-NP'
p819
g5
tp820
a(S'MRA'
p821
S'MRA'
p822
S'NN'
p823
S'I-NP'
p824
g5
tp825
a(S'results.'
p826
S'results.'
p827
S'NNS'
p828
S'I-NP'
p829
g5
tp830
a(S'Among'
p831
S'Among'
p832
S'IN'
p833
S'B-PP'
p834
g5
tp835
a(S'those'
p836
S'those'
p837
S'DT'
p838
S'B-NP'
p839
g5
tp840
a(S'with'
p841
S'with'
p842
S'IN'
p843
S'B-PP'
p844
g5
tp845
a(S'positive'
p846
S'positive'
p847
S'JJ'
p848
S'B-NP'
p849
g5
tp850
a(S'angiograms'
p851
S'angiogram'
p852
S'NNS'
p853
S'I-NP'
p854
g5
tp855
a(g486
g486
g486
g5
g5
tp856
a(S'the'
p857
S'the'
p858
S'DT'
p859
S'B-NP'
p860
g5
tp861
a(S'rate'
p862
S'rate'
p863
S'NN'
p864
S'I-NP'
p865
g5
tp866
a(S'of'
p867
S'of'
p868
S'IN'
p869
S'B-PP'
p870
g5
tp871
a(S'eradication'
p872
S'eradication'
p873
S'NN'
p874
S'B-NP'
p875
g5
tp876
a(S'of'
p877
S'of'
p878
S'IN'
p879
S'B-PP'
p880
g5
tp881
a(S'the'
p882
S'the'
p883
S'DT'
p884
S'B-NP'
p885
g5
tp886
a(S'left'
p887
S'left'
p888
S'JJ'
p889
S'I-NP'
p890
g5
tp891
a(S'gastric'
p892
S'gastric'
p893
S'JJ'
p894
S'I-NP'
p895
g5
tp896
a(S'vein'
p897
S'vein'
p898
S'NN'
p899
S'I-NP'
p900
g5
tp901
a(S'was'
p902
S'be'
p903
S'VBD'
p904
S'B-VP'
p905
g5
tp906
a(S'higher'
p907
S'high'
p908
S'JJR'
p909
S'B-ADJP'
p910
g5
tp911
a(S'in'
p912
S'in'
p913
S'IN'
p914
S'B-PP'
p915
g5
tp916
a(S'the'
p917
S'the'
p918
S'DT'
p919
S'B-NP'
p920
g5
tp921
a(S'EIS-treated'
p922
S'EIS-treated'
p923
S'JJ'
p924
S'I-NP'
p925
g5
tp926
a(S'group'
p927
S'group'
p928
S'NN'
p929
S'I-NP'
p930
g5
tp931
a(S'than'
p932
S'than'
p933
S'IN'
p934
S'B-PP'
p935
g5
tp936
a(S'in'
p937
S'in'
p938
S'IN'
p939
S'B-PP'
p940
g5
tp941
a(S'the'
p942
S'the'
p943
S'DT'
p944
S'B-NP'
p945
g5
tp946
a(S'EVL'
p947
S'EVL'
p948
S'NN'
p949
S'I-NP'
p950
g5
tp951
a(S'treated'
p952
S'treat'
p953
S'VBN'
p954
S'I-NP'
p955
g5
tp956
a(S'group'
p957
S'group'
p958
S'NN'
p959
S'I-NP'
p960
g5
tp961
a(g104
g104
g104
g5
g5
tp962
a(S'50'
p963
S'50'
p964
S'CD'
p965
S'B-NP'
p966
g5
tp967
a(S'%'
p968
g968
S'NN'
p969
S'I-NP'
p970
g5
tp971
a(S'vs.'
p972
S'vs.'
p973
S'IN'
p974
S'B-PP'
p975
g5
tp976
a(S'8.6'
p977
S'8.6'
p978
S'CD'
p979
S'B-NP'
p980
g5
tp981
a(g968
g968
S'NN'
p982
S'I-NP'
p983
g5
tp984
a(g112
g112
g112
g5
g5
tp985
a(g67
g67
g67
g5
g5
tp986
a(S'After'
p987
S'After'
p988
S'IN'
p989
S'B-PP'
p990
g5
tp991
a(S'either'
p992
S'either'
p993
S'CC'
p994
g5
g5
tp995
a(S'treatment'
p996
S'treatment'
p997
S'NN'
p998
S'B-NP'
p999
g5
tp1000
a(g486
g486
g486
g5
g5
tp1001
a(S'the'
p1002
S'the'
p1003
S'DT'
p1004
S'B-NP'
p1005
g5
tp1006
a(S'recurrence-free'
p1007
S'recurrence-free'
p1008
S'JJ'
p1009
S'I-NP'
p1010
g5
tp1011
a(S'rate'
p1012
S'rate'
p1013
S'NN'
p1014
S'I-NP'
p1015
g5
tp1016
a(S'for'
p1017
S'for'
p1018
S'IN'
p1019
S'B-PP'
p1020
g5
tp1021
a(S'high'
p1022
S'high'
p1023
S'JJ'
p1024
S'B-NP'
p1025
g5
tp1026
a(S'risk'
p1027
S'risk'
p1028
S'NN'
p1029
S'I-NP'
p1030
g5
tp1031
a(S'esophageal'
p1032
S'esophageal'
p1033
S'JJ'
p1034
S'I-NP'
p1035
g5
tp1036
a(S'varices'
p1037
S'varix'
p1038
S'NNS'
p1039
S'I-NP'
p1040
g5
tp1041
a(S'was'
p1042
S'be'
p1043
S'VBD'
p1044
S'B-VP'
p1045
g5
tp1046
a(S'higher'
p1047
S'high'
p1048
S'JJR'
p1049
S'B-ADJP'
p1050
g5
tp1051
a(S'in'
p1052
S'in'
p1053
S'IN'
p1054
S'B-PP'
p1055
g5
tp1056
a(S'patients'
p1057
S'patient'
p1058
S'NNS'
p1059
S'B-NP'
p1060
g5
tp1061
a(S'with'
p1062
S'with'
p1063
S'IN'
p1064
S'B-PP'
p1065
g5
tp1066
a(S'complete'
p1067
S'complete'
p1068
S'JJ'
p1069
S'B-NP'
p1070
g5
tp1071
a(S'eradication'
p1072
S'eradication'
p1073
S'NN'
p1074
S'I-NP'
p1075
g5
tp1076
a(S'of'
p1077
S'of'
p1078
S'IN'
p1079
S'B-PP'
p1080
g5
tp1081
a(S'the'
p1082
S'the'
p1083
S'DT'
p1084
S'B-NP'
p1085
g5
tp1086
a(S'left'
p1087
S'left'
p1088
S'JJ'
p1089
S'I-NP'
p1090
g5
tp1091
a(S'gastric'
p1092
S'gastric'
p1093
S'JJ'
p1094
S'I-NP'
p1095
g5
tp1096
a(S'vein'
p1097
S'vein'
p1098
S'NN'
p1099
S'I-NP'
p1100
g5
tp1101
a(S'than'
p1102
S'than'
p1103
S'IN'
p1104
S'B-PP'
p1105
g5
tp1106
a(S'in'
p1107
S'in'
p1108
S'IN'
p1109
S'B-PP'
p1110
g5
tp1111
a(S'those'
p1112
S'those'
p1113
S'DT'
p1114
S'B-NP'
p1115
g5
tp1116
a(S'without'
p1117
S'without'
p1118
S'IN'
p1119
S'B-PP'
p1120
g5
tp1121
a(g104
g104
g104
g5
g5
tp1122
a(S'88'
p1123
S'88'
p1124
S'CD'
p1125
S'B-NP'
p1126
g5
tp1127
a(g968
g968
S'NN'
p1128
S'I-NP'
p1129
g5
tp1130
a(S'vs.'
p1131
S'vs.'
p1132
S'IN'
p1133
S'B-PP'
p1134
g5
tp1135
a(S'35'
p1136
S'35'
p1137
S'CD'
p1138
S'B-NP'
p1139
g5
tp1140
a(g968
g968
S'NN'
p1141
S'I-NP'
p1142
g5
tp1143
a(g112
g112
g112
g5
g5
tp1144
a(g67
g67
g67
g5
g5
tp1145
a(S'In'
p1146
S'In'
p1147
S'IN'
p1148
S'B-PP'
p1149
g5
tp1150
a(S'patients'
p1151
S'patient'
p1152
S'NNS'
p1153
S'B-NP'
p1154
g5
tp1155
a(S'with'
p1156
S'with'
p1157
S'IN'
p1158
S'B-PP'
p1159
g5
tp1160
a(S'negative'
p1161
S'negative'
p1162
S'JJ'
p1163
S'B-NP'
p1164
g5
tp1165
a(S'angiogram'
p1166
S'angiogram'
p1167
S'NN'
p1168
S'I-NP'
p1169
g5
tp1170
a(S'results'
p1171
S'result'
p1172
S'NNS'
p1173
S'I-NP'
p1174
g5
tp1175
a(g486
g486
g486
g5
g5
tp1176
a(S'who'
p1177
S'who'
p1178
S'WP'
p1179
S'B-NP'
p1180
g5
tp1181
a(S'only'
p1182
S'only'
p1183
S'RB'
p1184
S'B-ADVP'
p1185
g5
tp1186
a(S'underwent'
p1187
S'undergo'
p1188
S'VBD'
p1189
S'B-VP'
p1190
g5
tp1191
a(S'EVL'
p1192
S'EVL'
p1193
S'NN'
p1194
S'B-NP'
p1195
g5
tp1196
a(g486
g486
g486
g5
g5
tp1197
a(S'high'
p1198
S'high'
p1199
S'JJ'
p1200
S'B-NP'
p1201
g5
tp1202
a(S'risk'
p1203
S'risk'
p1204
S'NN'
p1205
S'I-NP'
p1206
g5
tp1207
a(S'esophageal'
p1208
S'esophageal'
p1209
S'JJ'
p1210
S'I-NP'
p1211
g5
tp1212
a(S'varices'
p1213
S'varix'
p1214
S'NNS'
p1215
S'I-NP'
p1216
g5
tp1217
a(S'did'
p1218
S'do'
p1219
S'VBD'
p1220
S'B-VP'
p1221
g5
tp1222
a(S'not'
p1223
S'not'
p1224
S'RB'
p1225
S'I-VP'
p1226
g5
tp1227
a(S'reappear'
p1228
S'reappear'
p1229
S'VB'
p1230
S'I-VP'
p1231
g5
tp1232
a(S'over'
p1233
S'over'
p1234
S'IN'
p1235
S'B-PP'
p1236
g5
tp1237
a(g407
g407
S'DT'
p1238
S'B-NP'
p1239
g5
tp1240
a(S'long'
p1241
S'long'
p1242
S'JJ'
p1243
S'I-NP'
p1244
g5
tp1245
a(S'period'
p1246
S'period'
p1247
S'NN'
p1248
S'I-NP'
p1249
g5
tp1250
a(g67
g67
g67
g5
g5
tp1251
a(S'CONCLUSION'
p1252
S'CONCLUSION'
p1253
S'NN'
p1254
S'B-NP'
p1255
g5
tp1256
a(S'MRA'
p1257
S'MRA'
p1258
S'NN'
p1259
S'I-NP'
p1260
g5
tp1261
a(S'is'
p1262
S'be'
p1263
S'VBZ'
p1264
S'B-VP'
p1265
g5
tp1266
a(S'useful'
p1267
S'useful'
p1268
S'JJ'
p1269
S'B-ADJP'
p1270
g5
tp1271
a(S'for'
p1272
S'for'
p1273
S'IN'
p1274
S'B-PP'
p1275
g5
tp1276
a(S'evaluating'
p1277
S'evaluate'
p1278
S'VBG'
p1279
S'B-VP'
p1280
g5
tp1281
a(S'portal'
p1282
S'portal'
p1283
S'JJ'
p1284
S'B-NP'
p1285
g5
tp1286
a(S'hemodynamics.'
p1287
S'hemodynamics.'
p1288
S'NN'
p1289
S'I-NP'
p1290
g5
tp1291
a(S'With'
p1292
S'With'
p1293
S'IN'
p1294
S'B-PP'
p1295
g5
tp1296
a(S'the'
p1297
S'the'
p1298
S'DT'
p1299
S'B-NP'
p1300
g5
tp1301
a(S'aim'
p1302
S'aim'
p1303
S'NN'
p1304
S'I-NP'
p1305
g5
tp1306
a(S'of'
p1307
S'of'
p1308
S'IN'
p1309
S'B-PP'
p1310
g5
tp1311
a(S'avoiding'
p1312
S'avoid'
p1313
S'VBG'
p1314
S'B-VP'
p1315
g5
tp1316
a(S'recurrence'
p1317
S'recurrence'
p1318
S'NN'
p1319
S'B-NP'
p1320
g5
tp1321
a(S'of'
p1322
S'of'
p1323
S'IN'
p1324
S'B-PP'
p1325
g5
tp1326
a(S'esophageal'
p1327
S'esophageal'
p1328
S'JJ'
p1329
S'B-NP'
p1330
g5
tp1331
a(S'varices'
p1332
S'varix'
p1333
S'NNS'
p1334
S'I-NP'
p1335
g5
tp1336
a(g486
g486
g486
g5
g5
tp1337
a(S'EIS'
p1338
S'EIS'
p1339
S'NN'
p1340
S'B-NP'
p1341
S'B-protein'
p1342
tp1343
a(S'was'
p1344
S'be'
p1345
S'VBD'
p1346
S'B-VP'
p1347
g5
tp1348
a(S'suitable'
p1349
S'suitable'
p1350
S'JJ'
p1351
S'B-ADJP'
p1352
g5
tp1353
a(S'for'
p1354
S'for'
p1355
S'IN'
p1356
S'B-PP'
p1357
g5
tp1358
a(S'patients'
p1359
S'patient'
p1360
S'NNS'
p1361
S'B-NP'
p1362
g5
tp1363
a(S'who'
p1364
S'who'
p1365
S'WP'
p1366
S'B-NP'
p1367
g5
tp1368
a(S'had'
p1369
S'have'
p1370
S'VBD'
p1371
S'B-VP'
p1372
g5
tp1373
a(g407
g407
S'DT'
p1374
S'B-NP'
p1375
g5
tp1376
a(S'hepatofugal'
p1377
S'hepatofugal'
p1378
S'JJ'
p1379
S'I-NP'
p1380
g5
tp1381
a(S'supply'
p1382
S'supply'
p1383
S'NN'
p1384
S'I-NP'
p1385
g5
tp1386
a(S'vein'
p1387
S'vein'
p1388
S'NN'
p1389
S'I-NP'
p1390
g5
tp1391
a(S'for'
p1392
S'for'
p1393
S'IN'
p1394
S'B-PP'
p1395
g5
tp1396
a(S'the'
p1397
S'the'
p1398
S'DT'
p1399
S'B-NP'
p1400
g5
tp1401
a(S'varices'
p1402
S'varix'
p1403
S'NNS'
p1404
S'I-NP'
p1405
g5
tp1406
a(S'because'
p1407
S'because'
p1408
S'IN'
p1409
S'B-SBAR'
p1410
g5
tp1411
a(S'recurrence'
p1412
S'recurrence'
p1413
S'NN'
p1414
S'B-NP'
p1415
g5
tp1416
a(S'could'
p1417
S'could'
p1418
S'MD'
p1419
S'B-VP'
p1420
g5
tp1421
a(S'be'
p1422
S'be'
p1423
S'VB'
p1424
S'I-VP'
p1425
g5
tp1426
a(S'prevented'
p1427
S'prevent'
p1428
S'VBN'
p1429
S'I-VP'
p1430
g5
tp1431
a(S'by'
p1432
S'by'
p1433
S'IN'
p1434
S'B-PP'
p1435
g5
tp1436
a(S'embolization'
p1437
S'embolization'
p1438
S'NN'
p1439
S'B-NP'
p1440
g5
tp1441
a(S'of'
p1442
S'of'
p1443
S'IN'
p1444
S'B-PP'
p1445
g5
tp1446
a(S'the'
p1447
S'the'
p1448
S'DT'
p1449
S'B-NP'
p1450
g5
tp1451
a(S'supply'
p1452
S'supply'
p1453
S'NN'
p1454
S'I-NP'
p1455
g5
tp1456
a(S'vein.'
p1457
S'vein.'
p1458
S'NN'
p1459
S'I-NP'
p1460
g5
tp1461
a(S'EVL'
p1462
S'EVL'
p1463
S'NN'
p1464
S'I-NP'
p1465
g5
tp1466
a(S'may'
p1467
S'may'
p1468
S'MD'
p1469
S'B-VP'
p1470
g5
tp1471
a(S'be'
p1472
S'be'
p1473
S'VB'
p1474
S'I-VP'
p1475
g5
tp1476
a(S'expected'
p1477
S'expect'
p1478
S'VBN'
p1479
S'I-VP'
p1480
g5
tp1481
a(S'to'
p1482
S'to'
p1483
S'TO'
p1484
S'I-VP'
p1485
g5
tp1486
a(S'be'
p1487
S'be'
p1488
S'VB'
p1489
S'I-VP'
p1490
g5
tp1491
a(S'efficacious'
p1492
S'efficacious'
p1493
S'JJ'
p1494
S'B-ADJP'
p1495
g5
tp1496
a(S'in'
p1497
S'in'
p1498
S'IN'
p1499
S'B-PP'
p1500
g5
tp1501
a(S'patients'
p1502
S'patient'
p1503
S'NNS'
p1504
S'B-NP'
p1505
g5
tp1506
a(S'where'
p1507
S'where'
p1508
S'WRB'
p1509
S'B-ADVP'
p1510
g5
tp1511
a(S'no'
p1512
S'no'
p1513
S'DT'
p1514
S'B-NP'
p1515
g5
tp1516
a(S'image'
p1517
S'image'
p1518
S'NN'
p1519
S'I-NP'
p1520
g5
tp1521
a(S'of'
p1522
S'of'
p1523
S'IN'
p1524
S'B-PP'
p1525
g5
tp1526
a(g407
g407
S'DT'
p1527
S'B-NP'
p1528
g5
tp1529
a(S'hepatofugal'
p1530
S'hepatofugal'
p1531
S'JJ'
p1532
S'I-NP'
p1533
S'B-protein'
p1534
tp1535
a(S'supply'
p1536
S'supply'
p1537
S'NN'
p1538
S'I-NP'
p1539
S'I-protein'
p1540
tp1541
a(S'vein'
p1542
S'vein'
p1543
S'NN'
p1544
S'I-NP'
p1545
S'I-protein'
p1546
tp1547
a(S'is'
p1548
S'be'
p1549
S'VBZ'
p1550
S'B-VP'
p1551
g5
tp1552
a(S'found'
p1553
S'find'
p1554
S'VBN'
p1555
S'I-VP'
p1556
g5
tp1557
a(S'on'
p1558
S'on'
p1559
S'IN'
p1560
S'B-PP'
p1561
g5
tp1562
a(S'MRA'
p1563
S'MRA'
p1564
S'NN'
p1565
S'B-NP'
p1566
S'B-protein'
p1567
tp1568
a(g67
g67
g67
g5
g5
tp1569
a.