(lp0
(S'How'
p1
S'How'
p2
S'WRB'
p3
S'B-ADVP'
p4
S'O'
p5
tp6
a(S'well'
p7
S'well'
p8
S'RB'
p9
S'I-ADVP'
p10
g5
tp11
a(S'do'
p12
S'do'
p13
S'VBP'
p14
S'B-VP'
p15
g5
tp16
a(S'blood'
p17
S'blood'
p18
S'NN'
p19
S'B-NP'
p20
g5
tp21
a(S'folate'
p22
S'folate'
p23
S'NN'
p24
S'I-NP'
p25
g5
tp26
a(S'concentrations'
p27
S'concentration'
p28
S'NNS'
p29
S'I-NP'
p30
g5
tp31
a(S'predict'
p32
S'predict'
p33
S'VBP'
p34
S'B-VP'
p35
g5
tp36
a(S'dietary'
p37
S'dietary'
p38
S'JJ'
p39
S'B-NP'
p40
g5
tp41
a(S'folate'
p42
S'folate'
p43
S'JJ'
p44
S'I-NP'
p45
g5
tp46
a(S'intakes'
p47
S'intake'
p48
S'NNS'
p49
S'I-NP'
p50
g5
tp51
a(S'in'
p52
S'in'
p53
S'IN'
p54
S'B-PP'
p55
g5
tp56
a(S'a'
p57
g57
S'DT'
p58
S'B-NP'
p59
g5
tp60
a(S'sample'
p61
S'sample'
p62
S'NN'
p63
S'I-NP'
p64
g5
tp65
a(S'of'
p66
S'of'
p67
S'IN'
p68
S'B-PP'
p69
g5
tp70
a(S'Canadian'
p71
S'Canadian'
p72
S'JJ'
p73
S'B-NP'
p74
g5
tp75
a(S'lactating'
p76
S'lactate'
p77
S'VBG'
p78
S'I-NP'
p79
g5
tp80
a(S'women'
p81
S'woman'
p82
S'NNS'
p83
S'I-NP'
p84
g5
tp85
a(S'exposed'
p86
S'expose'
p87
S'VBN'
p88
S'B-VP'
p89
g5
tp90
a(S'to'
p91
S'to'
p92
S'TO'
p93
S'B-PP'
p94
g5
tp95
a(S'high'
p96
S'high'
p97
S'JJ'
p98
S'B-NP'
p99
g5
tp100
a(S'levels'
p101
S'level'
p102
S'NNS'
p103
S'I-NP'
p104
g5
tp105
a(S'of'
p106
S'of'
p107
S'IN'
p108
S'B-PP'
p109
g5
tp110
a(S'folate'
p111
S'folate'
p112
S'NN'
p113
S'B-NP'
p114
g5
tp115
a(S'?'
p116
g116
S'.'
p117
g5
g5
tp118
a(S'An'
p119
S'An'
p120
S'DT'
p121
S'B-NP'
p122
g5
tp123
a(S'observational'
p124
S'observational'
p125
S'JJ'
p126
S'I-NP'
p127
g5
tp128
a(S'study'
p129
S'study'
p130
S'NN'
p131
S'I-NP'
p132
g5
tp133
a(g117
g117
g117
g5
g5
tp134
a(S'BACKGROUND'
p135
S'BACKGROUND'
p136
S'NN'
p137
S'B-NP'
p138
g5
tp139
a(S'In'
p140
S'In'
p141
S'IN'
p142
S'B-PP'
p143
g5
tp144
a(S'1998'
p145
S'1998'
p146
S'CD'
p147
S'B-NP'
p148
g5
tp149
a(S','
p150
g150
g150
g5
g5
tp151
a(S'mandatory'
p152
S'mandatory'
p153
S'JJ'
p154
S'B-NP'
p155
g5
tp156
a(S'folic'
p157
S'folic'
p158
S'JJ'
p159
S'I-NP'
p160
g5
tp161
a(S'acid'
p162
S'acid'
p163
S'NN'
p164
S'I-NP'
p165
g5
tp166
a(S'fortification'
p167
S'fortification'
p168
S'NN'
p169
S'I-NP'
p170
g5
tp171
a(S'of'
p172
S'of'
p173
S'IN'
p174
S'B-PP'
p175
g5
tp176
a(S'white'
p177
S'white'
p178
S'JJ'
p179
S'B-NP'
p180
g5
tp181
a(S'flour'
p182
S'flour'
p183
S'NN'
p184
S'I-NP'
p185
g5
tp186
a(S'and'
p187
S'and'
p188
S'CC'
p189
g5
g5
tp190
a(S'select'
p191
S'select'
p192
S'JJ'
p193
S'B-NP'
p194
g5
tp195
a(S'cereal'
p196
S'cereal'
p197
S'NN'
p198
S'I-NP'
p199
g5
tp200
a(S'grain'
p201
S'grain'
p202
S'NN'
p203
S'I-NP'
p204
g5
tp205
a(S'products'
p206
S'product'
p207
S'NNS'
p208
S'I-NP'
p209
g5
tp210
a(S'was'
p211
S'be'
p212
S'VBD'
p213
S'B-VP'
p214
g5
tp215
a(S'implemented'
p216
S'implement'
p217
S'VBN'
p218
S'I-VP'
p219
g5
tp220
a(S'in'
p221
S'in'
p222
S'IN'
p223
S'B-PP'
p224
g5
tp225
a(S'Canada'
p226
S'Canada'
p227
S'NNP'
p228
S'B-NP'
p229
g5
tp230
a(S'with'
p231
S'with'
p232
S'IN'
p233
S'B-PP'
p234
g5
tp235
a(S'the'
p236
S'the'
p237
S'DT'
p238
S'B-NP'
p239
g5
tp240
a(S'intention'
p241
S'intention'
p242
S'NN'
p243
S'I-NP'
p244
g5
tp245
a(S'to'
p246
S'to'
p247
S'TO'
p248
S'B-VP'
p249
g5
tp250
a(S'increase'
p251
S'increase'
p252
S'VB'
p253
S'I-VP'
p254
g5
tp255
a(S'dietary'
p256
S'dietary'
p257
S'JJ'
p258
S'B-NP'
p259
g5
tp260
a(S'folate'
p261
S'folate'
p262
S'JJ'
p263
S'I-NP'
p264
g5
tp265
a(S'intakes'
p266
S'intake'
p267
S'NNS'
p268
S'I-NP'
p269
g5
tp270
a(S'of'
p271
S'of'
p272
S'IN'
p273
S'B-PP'
p274
g5
tp275
a(S'reproducing'
p276
S'reproduce'
p277
S'VBG'
p278
S'B-VP'
p279
g5
tp280
a(S'women.'
p281
S'women.'
p282
S'JJ'
p283
S'B-NP'
p284
g5
tp285
a(S'Folic'
p286
S'Folic'
p287
S'JJ'
p288
S'I-NP'
p289
g5
tp290
a(S'acid'
p291
S'acid'
p292
S'NN'
p293
S'I-NP'
p294
g5
tp295
a(S'fortification'
p296
S'fortification'
p297
S'NN'
p298
S'I-NP'
p299
g5
tp300
a(S'has'
p301
S'have'
p302
S'VBZ'
p303
S'B-VP'
p304
g5
tp305
a(S'produced'
p306
S'produce'
p307
S'VBN'
p308
S'I-VP'
p309
g5
tp310
a(g57
g57
S'DT'
p311
S'B-NP'
p312
g5
tp313
a(S'dramatic'
p314
S'dramatic'
p315
S'JJ'
p316
S'I-NP'
p317
g5
tp318
a(S'increase'
p319
S'increase'
p320
S'NN'
p321
S'I-NP'
p322
g5
tp323
a(S'in'
p324
S'in'
p325
S'IN'
p326
S'B-PP'
p327
g5
tp328
a(S'blood'
p329
S'blood'
p330
S'NN'
p331
S'B-NP'
p332
g5
tp333
a(S'folate'
p334
S'folate'
p335
S'NN'
p336
S'I-NP'
p337
g5
tp338
a(S'concentrations'
p339
S'concentration'
p340
S'NNS'
p341
S'I-NP'
p342
g5
tp343
a(S'among'
p344
S'among'
p345
S'IN'
p346
S'B-PP'
p347
g5
tp348
a(S'reproductive'
p349
S'reproductive'
p350
S'JJ'
p351
S'B-NP'
p352
g5
tp353
a(S'age'
p354
S'age'
p355
S'NN'
p356
S'I-NP'
p357
g5
tp358
a(S'women'
p359
S'woman'
p360
S'NNS'
p361
S'I-NP'
p362
g5
tp363
a(g150
g150
g150
g5
g5
tp364
a(S'and'
p365
S'and'
p366
S'CC'
p367
g5
g5
tp368
a(g57
g57
S'DT'
p369
S'B-NP'
p370
g5
tp371
a(S'reduction'
p372
S'reduction'
p373
S'NN'
p374
S'I-NP'
p375
g5
tp376
a(S'in'
p377
S'in'
p378
S'IN'
p379
S'B-PP'
p380
g5
tp381
a(S'neural'
p382
S'neural'
p383
S'JJ'
p384
S'B-NP'
p385
g5
tp386
a(S'tube'
p387
S'tube'
p388
S'NN'
p389
S'I-NP'
p390
g5
tp391
a(S'defect'
p392
S'defect'
p393
S'NN'
p394
S'I-NP'
p395
g5
tp396
a(S'('
p397
g397
g397
g5
g5
tp398
a(S'NTD'
p399
S'NTD'
p400
S'NN'
p401
S'B-NP'
p402
g5
tp403
a(S')'
p404
g404
g404
g5
g5
tp405
a(S'-affected'
p406
S'-affected'
p407
S'JJ'
p408
S'B-NP'
p409
g5
tp410
a(S'pregnancies.'
p411
S'pregnancies.'
p412
S'NN'
p413
S'I-NP'
p414
g5
tp415
a(S'In'
p416
S'In'
p417
S'IN'
p418
S'B-PP'
p419
g5
tp420
a(S'response'
p421
S'response'
p422
S'NN'
p423
S'B-NP'
p424
g5
tp425
a(S'to'
p426
S'to'
p427
S'TO'
p428
S'B-PP'
p429
g5
tp430
a(S'improved'
p431
S'improve'
p432
S'VBN'
p433
S'B-NP'
p434
g5
tp435
a(S'blood'
p436
S'blood'
p437
S'NN'
p438
S'I-NP'
p439
g5
tp440
a(S'folate'
p441
S'folate'
p442
S'NN'
p443
S'I-NP'
p444
g5
tp445
a(S'concentrations'
p446
S'concentration'
p447
S'NNS'
p448
S'I-NP'
p449
g5
tp450
a(g150
g150
g150
g5
g5
tp451
a(S'many'
p452
S'many'
p453
S'JJ'
p454
S'B-NP'
p455
g5
tp456
a(S'health'
p457
S'health'
p458
S'NN'
p459
S'I-NP'
p460
g5
tp461
a(S'care'
p462
S'care'
p463
S'NN'
p464
S'I-NP'
p465
g5
tp466
a(S'professionals'
p467
S'professional'
p468
S'NNS'
p469
S'I-NP'
p470
g5
tp471
a(S'are'
p472
S'be'
p473
S'VBP'
p474
S'B-VP'
p475
g5
tp476
a(S'asking'
p477
S'ask'
p478
S'VBG'
p479
S'I-VP'
p480
g5
tp481
a(S'whether'
p482
S'whether'
p483
S'IN'
p484
S'B-SBAR'
p485
g5
tp486
a(g57
g57
S'DT'
p487
S'B-NP'
p488
g5
tp489
a(S'folic'
p490
S'folic'
p491
S'JJ'
p492
S'I-NP'
p493
g5
tp494
a(S'acid'
p495
S'acid'
p496
S'NN'
p497
S'I-NP'
p498
g5
tp499
a(S'supplement'
p500
S'supplement'
p501
S'NN'
p502
S'I-NP'
p503
g5
tp504
a(S'is'
p505
S'be'
p506
S'VBZ'
p507
S'B-VP'
p508
g5
tp509
a(S'necessary'
p510
S'necessary'
p511
S'JJ'
p512
S'B-ADJP'
p513
g5
tp514
a(S'for'
p515
S'for'
p516
S'IN'
p517
S'B-PP'
p518
g5
tp519
a(S'NTD'
p520
S'NTD'
p521
S'NN'
p522
S'B-NP'
p523
g5
tp524
a(S'prevention'
p525
S'prevention'
p526
S'NN'
p527
S'I-NP'
p528
g5
tp529
a(S'among'
p530
S'among'
p531
S'IN'
p532
S'B-PP'
p533
g5
tp534
a(S'women'
p535
S'woman'
p536
S'NNS'
p537
S'B-NP'
p538
g5
tp539
a(S'with'
p540
S'with'
p541
S'IN'
p542
S'B-PP'
p543
g5
tp544
a(S'high'
p545
S'high'
p546
S'JJ'
p547
S'B-NP'
p548
g5
tp549
a(S'blood'
p550
S'blood'
p551
S'NN'
p552
S'I-NP'
p553
g5
tp554
a(S'folate'
p555
S'folate'
p556
S'NN'
p557
S'I-NP'
p558
g5
tp559
a(S'values'
p560
S'value'
p561
S'NNS'
p562
S'I-NP'
p563
g5
tp564
a(g150
g150
g150
g5
g5
tp565
a(S'and'
p566
S'and'
p567
S'CC'
p568
g5
g5
tp569
a(S'how'
p570
S'how'
p571
S'WRB'
p572
S'B-ADVP'
p573
S'B-cell_type'
p574
tp575
a(S'reliably'
p576
S'reliably'
p577
S'RB'
p578
S'I-ADVP'
p579
S'I-cell_type'
p580
tp581
a(S'high'
p582
S'high'
p583
S'JJ'
p584
S'B-NP'
p585
S'I-cell_type'
p586
tp587
a(S'RBC'
p588
S'RBC'
p589
S'NNS'
p590
S'I-NP'
p591
S'I-cell_type'
p592
tp593
a(S'folate'
p594
S'folate'
p595
S'VBP'
p596
S'B-VP'
p597
g5
tp598
a(S'concentrations'
p599
S'concentration'
p600
S'NNS'
p601
S'B-NP'
p602
g5
tp603
a(S'predict'
p604
S'predict'
p605
S'VBP'
p606
S'B-VP'
p607
g5
tp608
a(S'folate'
p609
S'folate'
p610
S'JJ'
p611
S'B-NP'
p612
g5
tp613
a(S'intakes'
p614
S'intake'
p615
S'NNS'
p616
S'I-NP'
p617
g5
tp618
a(S'shown'
p619
S'show'
p620
S'VBN'
p621
S'B-VP'
p622
g5
tp623
a(S'in'
p624
S'in'
p625
S'IN'
p626
S'B-PP'
p627
g5
tp628
a(S'randomized'
p629
S'randomize'
p630
S'VBN'
p631
S'B-NP'
p632
g5
tp633
a(S'controlled'
p634
S'control'
p635
S'VBN'
p636
S'I-NP'
p637
g5
tp638
a(S'trials'
p639
S'trial'
p640
S'NNS'
p641
S'I-NP'
p642
g5
tp643
a(S'to'
p644
S'to'
p645
S'TO'
p646
S'B-VP'
p647
g5
tp648
a(S'be'
p649
S'be'
p650
S'VB'
p651
S'I-VP'
p652
g5
tp653
a(S'protective'
p654
S'protective'
p655
S'JJ'
p656
S'B-ADJP'
p657
g5
tp658
a(S'against'
p659
S'against'
p660
S'IN'
p661
S'B-PP'
p662
g5
tp663
a(S'NTDs.'
p664
S'NTDs.'
p665
S'NNP'
p666
S'B-NP'
p667
g5
tp668
a(S'The'
p669
S'The'
p670
S'DT'
p671
S'B-NP'
p672
g5
tp673
a(S'objective'
p674
S'objective'
p675
S'NN'
p676
S'I-NP'
p677
g5
tp678
a(S'of'
p679
S'of'
p680
S'IN'
p681
S'B-PP'
p682
g5
tp683
a(S'this'
p684
S'this'
p685
S'DT'
p686
S'B-NP'
p687
g5
tp688
a(S'study'
p689
S'study'
p690
S'NN'
p691
S'I-NP'
p692
g5
tp693
a(S'was'
p694
S'be'
p695
S'VBD'
p696
S'B-VP'
p697
g5
tp698
a(S'to'
p699
S'to'
p700
S'TO'
p701
S'B-VP'
p702
g5
tp703
a(S'determine'
p704
S'determine'
p705
S'VB'
p706
S'I-VP'
p707
g5
tp708
a(S'how'
p709
S'how'
p710
S'WRB'
p711
S'B-ADVP'
p712
g5
tp713
a(S'predictive'
p714
S'predictive'
p715
S'JJ'
p716
S'B-NP'
p717
g5
tp718
a(S'blood'
p719
S'blood'
p720
S'NN'
p721
S'I-NP'
p722
g5
tp723
a(S'folate'
p724
S'folate'
p725
S'NN'
p726
S'I-NP'
p727
g5
tp728
a(S'concentrations'
p729
S'concentration'
p730
S'NNS'
p731
S'I-NP'
p732
g5
tp733
a(S'and'
p734
S'and'
p735
S'CC'
p736
g5
g5
tp737
a(S'folate'
p738
S'folate'
p739
S'JJ'
p740
S'B-NP'
p741
g5
tp742
a(S'intakes'
p743
S'intake'
p744
S'NNS'
p745
S'I-NP'
p746
g5
tp747
a(S'are'
p748
S'be'
p749
S'VBP'
p750
S'B-VP'
p751
g5
tp752
a(S'of'
p753
S'of'
p754
S'IN'
p755
S'B-PP'
p756
g5
tp757
a(S'each'
p758
S'each'
p759
S'DT'
p760
S'B-NP'
p761
g5
tp762
a(S'other'
p763
S'other'
p764
S'JJ'
p765
S'I-NP'
p766
g5
tp767
a(S'in'
p768
S'in'
p769
S'IN'
p770
S'B-PP'
p771
g5
tp772
a(g57
g57
S'DT'
p773
S'B-NP'
p774
g5
tp775
a(S'sample'
p776
S'sample'
p777
S'NN'
p778
S'I-NP'
p779
g5
tp780
a(S'of'
p781
S'of'
p782
S'IN'
p783
S'B-PP'
p784
g5
tp785
a(S'well-educated'
p786
S'well-educated'
p787
S'JJ'
p788
S'B-NP'
p789
g5
tp790
a(S'lactating'
p791
S'lactate'
p792
S'VBG'
p793
S'I-NP'
p794
g5
tp795
a(S'Canadian'
p796
S'Canadian'
p797
S'JJ'
p798
S'I-NP'
p799
g5
tp800
a(S'women'
p801
S'woman'
p802
S'NNS'
p803
S'I-NP'
p804
g5
tp805
a(S'exposed'
p806
S'expose'
p807
S'VBN'
p808
S'B-VP'
p809
g5
tp810
a(S'to'
p811
S'to'
p812
S'TO'
p813
S'B-PP'
p814
g5
tp815
a(S'high'
p816
S'high'
p817
S'JJ'
p818
S'B-NP'
p819
g5
tp820
a(S'levels'
p821
S'level'
p822
S'NNS'
p823
S'I-NP'
p824
g5
tp825
a(S'of'
p826
S'of'
p827
S'IN'
p828
S'B-PP'
p829
g5
tp830
a(S'synthetic'
p831
S'synthetic'
p832
S'JJ'
p833
S'B-NP'
p834
g5
tp835
a(S'folate'
p836
S'folate'
p837
S'NN'
p838
S'I-NP'
p839
g5
tp840
a(g117
g117
g117
g5
g5
tp841
a(S'METHODS'
p842
S'METHODS'
p843
S'NNS'
p844
S'B-NP'
p845
g5
tp846
a(S'The'
p847
S'The'
p848
S'DT'
p849
S'B-NP'
p850
g5
tp851
a(S'relationship'
p852
S'relationship'
p853
S'NN'
p854
S'I-NP'
p855
g5
tp856
a(S'between'
p857
S'between'
p858
S'IN'
p859
S'B-PP'
p860
g5
tp861
a(S'blood'
p862
S'blood'
p863
S'NN'
p864
S'B-NP'
p865
g5
tp866
a(S'folate'
p867
S'folate'
p868
S'NN'
p869
S'I-NP'
p870
g5
tp871
a(S'concentrations'
p872
S'concentration'
p873
S'NNS'
p874
S'I-NP'
p875
g5
tp876
a(S'and'
p877
S'and'
p878
S'CC'
p879
g5
g5
tp880
a(S'dietary'
p881
S'dietary'
p882
S'JJ'
p883
S'B-NP'
p884
g5
tp885
a(S'folate'
p886
S'folate'
p887
S'JJ'
p888
S'I-NP'
p889
g5
tp890
a(S'intakes'
p891
S'intake'
p892
S'NNS'
p893
S'I-NP'
p894
g5
tp895
a(g150
g150
g150
g5
g5
tp896
a(S'determined'
p897
S'determine'
p898
S'VBN'
p899
S'B-VP'
p900
g5
tp901
a(S'by'
p902
S'by'
p903
S'IN'
p904
S'B-PP'
p905
g5
tp906
a(S'weighed'
p907
S'weigh'
p908
S'VBN'
p909
S'B-NP'
p910
g5
tp911
a(S'food'
p912
S'food'
p913
S'NN'
p914
S'I-NP'
p915
g5
tp916
a(S'records'
p917
S'record'
p918
S'NNS'
p919
S'I-NP'
p920
g5
tp921
a(g150
g150
g150
g5
g5
tp922
a(S'were'
p923
S'be'
p924
S'VBD'
p925
S'B-VP'
p926
g5
tp927
a(S'assessed'
p928
S'assess'
p929
S'VBN'
p930
S'I-VP'
p931
g5
tp932
a(S'in'
p933
S'in'
p934
S'IN'
p935
S'B-PP'
p936
g5
tp937
a(g57
g57
S'DT'
p938
S'B-NP'
p939
g5
tp940
a(S'sample'
p941
S'sample'
p942
S'NN'
p943
S'I-NP'
p944
g5
tp945
a(S'of'
p946
S'of'
p947
S'IN'
p948
S'B-PP'
p949
g5
tp950
a(S'predominantly'
p951
S'predominantly'
p952
S'RB'
p953
S'B-NP'
p954
g5
tp955
a(S'university-educated'
p956
S'university-educated'
p957
S'JJ'
p958
S'I-NP'
p959
g5
tp960
a(S'lactating'
p961
S'lactate'
p962
S'VBG'
p963
S'I-NP'
p964
g5
tp965
a(S'women'
p966
S'woman'
p967
S'NNS'
p968
S'I-NP'
p969
g5
tp970
a(g397
g397
g397
g5
g5
tp971
a(S'32'
p972
S'32'
p973
S'CD'
p974
S'B-NP'
p975
g5
tp976
a(S'+/-'
p977
S'+/-'
p978
S'SYM'
p979
S'I-NP'
p980
g5
tp981
a(S'4'
p982
g982
S'CD'
p983
S'I-NP'
p984
g5
tp985
a(S'yr'
p986
S'yr'
p987
S'NN'
p988
S'I-NP'
p989
g5
tp990
a(g404
g404
g404
g5
g5
tp991
a(S'at'
p992
S'at'
p993
S'IN'
p994
S'B-PP'
p995
g5
tp996
a(S'4-'
p997
S'4-'
p998
S'NN'
p999
S'B-NP'
p1000
g5
tp1001
a(g397
g397
g397
g5
g5
tp1002
a(S'n'
p1003
g1003
S'NN'
p1004
S'B-NP'
p1005
g5
tp1006
a(S'='
p1007
g1007
S'SYM'
p1008
S'B-VP'
p1009
g5
tp1010
a(S'53'
p1011
S'53'
p1012
S'CD'
p1013
S'B-NP'
p1014
g5
tp1015
a(g404
g404
g404
g5
g5
tp1016
a(S'and'
p1017
S'and'
p1018
S'CC'
p1019
g5
g5
tp1020
a(S'16-wk'
p1021
S'16-wk'
p1022
S'JJ'
p1023
S'B-NP'
p1024
g5
tp1025
a(S'postpartum'
p1026
S'postpartum'
p1027
S'NN'
p1028
S'I-NP'
p1029
g5
tp1030
a(g397
g397
g397
g5
g5
tp1031
a(g1003
g1003
S'NN'
p1032
S'B-NP'
p1033
g5
tp1034
a(g1007
g1007
S'SYM'
p1035
S'B-VP'
p1036
g5
tp1037
a(S'55'
p1038
S'55'
p1039
S'CD'
p1040
S'B-NP'
p1041
g5
tp1042
a(g404
g404
g404
g5
g5
tp1043
a(g117
g117
g117
g5
g5
tp1044
a(S'RESULTS'
p1045
S'RESULTS'
p1046
S'NNS'
p1047
S'B-NP'
p1048
g5
tp1049
a(S'Median'
p1050
S'Median'
p1051
S'JJ'
p1052
S'I-NP'
p1053
g5
tp1054
a(S'blood'
p1055
S'blood'
p1056
S'NN'
p1057
S'I-NP'
p1058
g5
tp1059
a(S'folate'
p1060
S'folate'
p1061
S'NN'
p1062
S'I-NP'
p1063
g5
tp1064
a(S'concentrations'
p1065
S'concentration'
p1066
S'NNS'
p1067
S'I-NP'
p1068
g5
tp1069
a(S'of'
p1070
S'of'
p1071
S'IN'
p1072
S'B-PP'
p1073
g5
tp1074
a(S'all'
p1075
S'all'
p1076
S'DT'
p1077
S'B-NP'
p1078
g5
tp1079
a(S'participants'
p1080
S'participant'
p1081
S'NNS'
p1082
S'I-NP'
p1083
g5
tp1084
a(S'were'
p1085
S'be'
p1086
S'VBD'
p1087
S'B-VP'
p1088
g5
tp1089
a(S'well'
p1090
S'well'
p1091
S'RB'
p1092
S'B-ADVP'
p1093
g5
tp1094
a(S'above'
p1095
S'above'
p1096
S'IN'
p1097
S'B-PP'
p1098
g5
tp1099
a(S'plasma'
p1100
S'plasma'
p1101
S'NN'
p1102
S'B-NP'
p1103
g5
tp1104
a(S'and'
p1105
S'and'
p1106
S'CC'
p1107
S'I-NP'
p1108
g5
tp1109
a(S'RBC'
p1110
S'RBC'
p1111
S'NN'
p1112
S'I-NP'
p1113
S'B-protein'
p1114
tp1115
a(S'folate'
p1116
S'folate'
p1117
S'VBP'
p1118
S'B-VP'
p1119
g5
tp1120
a(S'cut-off'
p1121
S'cut-off'
p1122
S'JJ'
p1123
S'B-NP'
p1124
g5
tp1125
a(S'levels'
p1126
S'level'
p1127
S'NNS'
p1128
S'I-NP'
p1129
g5
tp1130
a(S'indicative'
p1131
S'indicative'
p1132
S'JJ'
p1133
S'B-ADJP'
p1134
g5
tp1135
a(S'of'
p1136
S'of'
p1137
S'IN'
p1138
S'B-PP'
p1139
g5
tp1140
a(S'deficiency'
p1141
S'deficiency'
p1142
S'NN'
p1143
S'B-NP'
p1144
g5
tp1145
a(g397
g397
g397
g5
g5
tp1146
a(S'6.7'
p1147
S'6.7'
p1148
S'CD'
p1149
S'B-NP'
p1150
g5
tp1151
a(S'and'
p1152
S'and'
p1153
S'CC'
p1154
S'I-NP'
p1155
g5
tp1156
a(S'317'
p1157
S'317'
p1158
S'CD'
p1159
S'I-NP'
p1160
g5
tp1161
a(S'nmol/L'
p1162
S'nmol/L'
p1163
S'NN'
p1164
S'I-NP'
p1165
g5
tp1166
a(g150
g150
g150
g5
g5
tp1167
a(S'respectively'
p1168
S'respectively'
p1169
S'RB'
p1170
S'B-ADVP'
p1171
g5
tp1172
a(g404
g404
g404
g5
g5
tp1173
a(S'and'
p1174
S'and'
p1175
S'CC'
p1176
g5
g5
tp1177
a(S'all'
p1178
S'all'
p1179
S'DT'
p1180
S'B-NP'
p1181
g5
tp1182
a(g150
g150
g150
g5
g5
tp1183
a(S'except'
p1184
S'except'
p1185
S'IN'
p1186
S'B-PP'
p1187
g5
tp1188
a(S'for'
p1189
S'for'
p1190
S'IN'
p1191
S'B-PP'
p1192
g5
tp1193
a(S'2'
p1194
g1194
S'CD'
p1195
S'B-NP'
p1196
g5
tp1197
a(S'subjects'
p1198
S'subject'
p1199
S'NNS'
p1200
S'I-NP'
p1201
g5
tp1202
a(g150
g150
g150
g5
g5
tp1203
a(S'were'
p1204
S'be'
p1205
S'VBD'
p1206
S'B-VP'
p1207
g5
tp1208
a(S'above'
p1209
S'above'
p1210
S'IN'
p1211
S'B-PP'
p1212
g5
tp1213
a(S'the'
p1214
S'the'
p1215
S'DT'
p1216
S'B-NP'
p1217
g5
tp1218
a(S'cut-off'
p1219
S'cut-off'
p1220
S'NN'
p1221
S'I-NP'
p1222
g5
tp1223
a(S'for'
p1224
S'for'
p1225
S'IN'
p1226
S'B-PP'
p1227
g5
tp1228
a(S'NTD-risk'
p1229
S'NTD-risk'
p1230
S'NN'
p1231
S'B-NP'
p1232
g5
tp1233
a(S'reduction'
p1234
S'reduction'
p1235
S'NN'
p1236
S'I-NP'
p1237
g5
tp1238
a(g397
g397
g397
g5
g5
tp1239
a(S'>'
p1240
g1240
S'SYM'
p1241
S'B-NP'
p1242
g5
tp1243
a(S'906'
p1244
S'906'
p1245
S'CD'
p1246
S'B-NP'
p1247
g5
tp1248
a(S'nmol/L'
p1249
S'nmol/L'
p1250
S'NN'
p1251
S'I-NP'
p1252
g5
tp1253
a(g404
g404
g404
g5
g5
tp1254
a(g117
g117
g117
g5
g5
tp1255
a(S'Only'
p1256
S'Only'
p1257
S'RB'
p1258
S'B-NP'
p1259
g5
tp1260
a(S'modest'
p1261
S'modest'
p1262
S'JJ'
p1263
S'I-NP'
p1264
g5
tp1265
a(S'associations'
p1266
S'association'
p1267
S'NNS'
p1268
S'I-NP'
p1269
g5
tp1270
a(S'existed'
p1271
S'exist'
p1272
S'VBD'
p1273
S'B-VP'
p1274
g5
tp1275
a(S'between'
p1276
S'between'
p1277
S'IN'
p1278
S'B-PP'
p1279
g5
tp1280
a(S'total'
p1281
S'total'
p1282
S'JJ'
p1283
S'B-NP'
p1284
g5
tp1285
a(S'folate'
p1286
S'folate'
p1287
S'JJ'
p1288
S'I-NP'
p1289
g5
tp1290
a(S'intakes'
p1291
S'intake'
p1292
S'NNS'
p1293
S'I-NP'
p1294
g5
tp1295
a(S'and'
p1296
S'and'
p1297
S'CC'
p1298
g5
g5
tp1299
a(S'plasma'
p1300
S'plasma'
p1301
S'NN'
p1302
S'B-NP'
p1303
g5
tp1304
a(g397
g397
g397
g5
g5
tp1305
a(S'r'
p1306
g1306
S'NN'
p1307
S'B-NP'
p1308
g5
tp1309
a(g1007
g1007
S'SYM'
p1310
S'B-VP'
p1311
g5
tp1312
a(S'0.46'
p1313
S'0.46'
p1314
S'CD'
p1315
S'B-NP'
p1316
g5
tp1317
a(g150
g150
g150
g5
g5
tp1318
a(S'P'
p1319
g1319
S'NN'
p1320
S'B-NP'
p1321
g5
tp1322
a(S'<'
p1323
g1323
S'SYM'
p1324
S'B-NP'
p1325
g5
tp1326
a(S'0.001'
p1327
S'0.001'
p1328
S'CD'
p1329
S'I-NP'
p1330
g5
tp1331
a(g404
g404
g404
g5
g5
tp1332
a(S'and'
p1333
S'and'
p1334
S'CC'
p1335
g5
g5
tp1336
a(S'RBC'
p1337
S'RBC'
p1338
S'NNS'
p1339
S'B-NP'
p1340
S'B-cell_type'
p1341
tp1342
a(g397
g397
g397
g5
g5
tp1343
a(g1306
g1306
S'NN'
p1344
S'B-NP'
p1345
g5
tp1346
a(g1007
g1007
S'SYM'
p1347
S'B-VP'
p1348
g5
tp1349
a(S'0.36'
p1350
S'0.36'
p1351
S'CD'
p1352
S'B-NP'
p1353
g5
tp1354
a(g150
g150
g150
g5
g5
tp1355
a(g1319
g1319
S'NN'
p1356
S'B-NP'
p1357
g5
tp1358
a(g1323
g1323
S'SYM'
p1359
S'B-NP'
p1360
g5
tp1361
a(S'0.01'
p1362
S'0.01'
p1363
S'CD'
p1364
S'I-NP'
p1365
g5
tp1366
a(g404
g404
g404
g5
g5
tp1367
a(S'folate'
p1368
S'folate'
p1369
S'VBP'
p1370
S'B-VP'
p1371
g5
tp1372
a(S'concentrations'
p1373
S'concentration'
p1374
S'NNS'
p1375
S'B-NP'
p1376
g5
tp1377
a(S'at'
p1378
S'at'
p1379
S'IN'
p1380
S'B-PP'
p1381
g5
tp1382
a(S'16-wk'
p1383
S'16-wk'
p1384
S'JJ'
p1385
S'B-NP'
p1386
g5
tp1387
a(S'postpartum.'
p1388
S'postpartum.'
p1389
S'NN'
p1390
S'I-NP'
p1391
g5
tp1392
a(S'Plasma'
p1393
S'Plasma'
p1394
S'NN'
p1395
S'I-NP'
p1396
g5
tp1397
a(S'and'
p1398
S'and'
p1399
S'CC'
p1400
g5
g5
tp1401
a(S'RBC'
p1402
S'RBC'
p1403
S'NN'
p1404
S'B-NP'
p1405
g5
tp1406
a(S'folate'
p1407
S'folate'
p1408
S'NN'
p1409
S'I-NP'
p1410
g5
tp1411
a(S'values'
p1412
S'value'
p1413
S'NNS'
p1414
S'I-NP'
p1415
g5
tp1416
a(S'at'
p1417
S'at'
p1418
S'IN'
p1419
S'B-PP'
p1420
g5
tp1421
a(S'16-wk'
p1422
S'16-wk'
p1423
S'JJ'
p1424
S'B-NP'
p1425
g5
tp1426
a(S'postpartum'
p1427
S'postpartum'
p1428
S'NN'
p1429
S'I-NP'
p1430
g5
tp1431
a(S'correctly'
p1432
S'correctly'
p1433
S'RB'
p1434
S'B-ADVP'
p1435
g5
tp1436
a(S'identified'
p1437
S'identify'
p1438
S'VBD'
p1439
S'B-VP'
p1440
g5
tp1441
a(S'the'
p1442
S'the'
p1443
S'DT'
p1444
S'B-NP'
p1445
g5
tp1446
a(S'quartile'
p1447
S'quartile'
p1448
S'NN'
p1449
S'I-NP'
p1450
g5
tp1451
a(S'of'
p1452
S'of'
p1453
S'IN'
p1454
S'B-PP'
p1455
g5
tp1456
a(S'folate'
p1457
S'folate'
p1458
S'JJ'
p1459
S'B-NP'
p1460
g5
tp1461
a(S'intake'
p1462
S'intake'
p1463
S'NN'
p1464
S'I-NP'
p1465
g5
tp1466
a(S'of'
p1467
S'of'
p1468
S'IN'
p1469
S'B-PP'
p1470
g5
tp1471
a(S'only'
p1472
S'only'
p1473
S'RB'
p1474
S'B-NP'
p1475
g5
tp1476
a(S'26'
p1477
S'26'
p1478
S'CD'
p1479
S'I-NP'
p1480
g5
tp1481
a(S'of'
p1482
S'of'
p1483
S'IN'
p1484
S'B-PP'
p1485
g5
tp1486
a(S'55'
p1487
S'55'
p1488
S'CD'
p1489
S'B-NP'
p1490
g5
tp1491
a(g397
g397
g397
g5
g5
tp1492
a(S'47'
p1493
S'47'
p1494
S'CD'
p1495
S'B-NP'
p1496
g5
tp1497
a(S'%'
p1498
g1498
S'NN'
p1499
S'I-NP'
p1500
g5
tp1501
a(g404
g404
g404
g5
g5
tp1502
a(S'and'
p1503
S'and'
p1504
S'CC'
p1505
g5
g5
tp1506
a(S'18'
p1507
S'18'
p1508
S'CD'
p1509
S'B-NP'
p1510
g5
tp1511
a(S'of'
p1512
S'of'
p1513
S'IN'
p1514
S'B-PP'
p1515
g5
tp1516
a(S'55'
p1517
S'55'
p1518
S'CD'
p1519
S'B-NP'
p1520
g5
tp1521
a(g397
g397
g397
g5
g5
tp1522
a(S'33'
p1523
S'33'
p1524
S'CD'
p1525
S'B-NP'
p1526
g5
tp1527
a(g1498
g1498
S'NN'
p1528
S'I-NP'
p1529
g5
tp1530
a(g404
g404
g404
g5
g5
tp1531
a(S'of'
p1532
S'of'
p1533
S'IN'
p1534
S'B-PP'
p1535
g5
tp1536
a(S'subjects'
p1537
S'subject'
p1538
S'NNS'
p1539
S'B-NP'
p1540
g5
tp1541
a(g150
g150
g150
g5
g5
tp1542
a(S'respectively.'
p1543
S'respectively.'
p1544
S'VBP'
p1545
S'B-VP'
p1546
g5
tp1547
a(S'The'
p1548
S'The'
p1549
S'DT'
p1550
S'B-NP'
p1551
g5
tp1552
a(S'mean'
p1553
S'mean'
p1554
S'JJ'
p1555
S'I-NP'
p1556
g5
tp1557
a(S'RBC'
p1558
S'RBC'
p1559
S'NN'
p1560
S'I-NP'
p1561
g5
tp1562
a(S'folate'
p1563
S'folate'
p1564
S'NN'
p1565
S'I-NP'
p1566
g5
tp1567
a(S'concentration'
p1568
S'concentration'
p1569
S'NN'
p1570
S'I-NP'
p1571
g5
tp1572
a(S'of'
p1573
S'of'
p1574
S'IN'
p1575
S'B-PP'
p1576
g5
tp1577
a(S'women'
p1578
S'woman'
p1579
S'NNS'
p1580
S'B-NP'
p1581
g5
tp1582
a(S'consuming'
p1583
S'consume'
p1584
S'VBG'
p1585
S'B-VP'
p1586
g5
tp1587
a(S'151-410'
p1588
S'151-410'
p1589
S'CD'
p1590
S'B-NP'
p1591
g5
tp1592
a(S'microg/d'
p1593
S'microg/d'
p1594
S'NN'
p1595
S'I-NP'
p1596
g5
tp1597
a(S'of'
p1598
S'of'
p1599
S'IN'
p1600
S'B-PP'
p1601
g5
tp1602
a(S'synthetic'
p1603
S'synthetic'
p1604
S'JJ'
p1605
S'B-NP'
p1606
g5
tp1607
a(S'folate'
p1608
S'folate'
p1609
S'NN'
p1610
S'I-NP'
p1611
g5
tp1612
a(g397
g397
g397
g5
g5
tp1613
a(S'2nd'
p1614
S'2nd'
p1615
S'NN'
p1616
S'B-NP'
p1617
g5
tp1618
a(S'quartile'
p1619
S'quartile'
p1620
S'NN'
p1621
S'I-NP'
p1622
g5
tp1623
a(S'of'
p1624
S'of'
p1625
S'IN'
p1626
S'B-PP'
p1627
g5
tp1628
a(S'intake'
p1629
S'intake'
p1630
S'NN'
p1631
S'B-NP'
p1632
g5
tp1633
a(g404
g404
g404
g5
g5
tp1634
a(S'did'
p1635
S'do'
p1636
S'VBD'
p1637
S'B-VP'
p1638
g5
tp1639
a(S'not'
p1640
S'not'
p1641
S'RB'
p1642
S'I-VP'
p1643
g5
tp1644
a(S'differ'
p1645
S'differ'
p1646
S'VB'
p1647
S'I-VP'
p1648
g5
tp1649
a(S'from'
p1650
S'from'
p1651
S'IN'
p1652
S'B-PP'
p1653
g5
tp1654
a(S'that'
p1655
S'that'
p1656
S'DT'
p1657
S'B-NP'
p1658
g5
tp1659
a(S'of'
p1660
S'of'
p1661
S'IN'
p1662
S'B-PP'
p1663
g5
tp1664
a(S'women'
p1665
S'woman'
p1666
S'NNS'
p1667
S'B-NP'
p1668
g5
tp1669
a(S'consuming'
p1670
S'consume'
p1671
S'VBG'
p1672
S'B-VP'
p1673
g5
tp1674
a(g1240
g1240
S'SYM'
p1675
S'B-NP'
p1676
g5
tp1677
a(S'410'
p1678
S'410'
p1679
S'CD'
p1680
S'B-NP'
p1681
g5
tp1682
a(S'microg/d'
p1683
S'microg/d'
p1684
S'NN'
p1685
S'I-NP'
p1686
g5
tp1687
a(g397
g397
g397
g5
g5
tp1688
a(S'3rd'
p1689
S'3rd'
p1690
S'CD'
p1691
S'B-NP'
p1692
g5
tp1693
a(S'and'
p1694
S'and'
p1695
S'CC'
p1696
g5
g5
tp1697
a(S'4th'
p1698
S'4th'
p1699
S'JJ'
p1700
S'B-NP'
p1701
g5
tp1702
a(S'quartile'
p1703
S'quartile'
p1704
S'NN'
p1705
S'I-NP'
p1706
g5
tp1707
a(g404
g404
g404
g5
g5
tp1708
a(g117
g117
g117
g5
g5
tp1709
a(S'CONCLUSION'
p1710
S'CONCLUSION'
p1711
S'NN'
p1712
S'B-NP'
p1713
g5
tp1714
a(S'Folate'
p1715
S'Folate'
p1716
S'NN'
p1717
S'I-NP'
p1718
g5
tp1719
a(S'intakes'
p1720
S'intake'
p1721
S'NNS'
p1722
S'I-NP'
p1723
g5
tp1724
a(g150
g150
g150
g5
g5
tp1725
a(S'estimated'
p1726
S'estimate'
p1727
S'VBN'
p1728
S'B-VP'
p1729
g5
tp1730
a(S'by'
p1731
S'by'
p1732
S'IN'
p1733
S'B-PP'
p1734
g5
tp1735
a(S'food'
p1736
S'food'
p1737
S'NN'
p1738
S'B-NP'
p1739
g5
tp1740
a(S'composition'
p1741
S'composition'
p1742
S'NN'
p1743
S'I-NP'
p1744
g5
tp1745
a(S'tables'
p1746
S'table'
p1747
S'NNS'
p1748
S'I-NP'
p1749
g5
tp1750
a(g150
g150
g150
g5
g5
tp1751
a(S'and'
p1752
S'and'
p1753
S'CC'
p1754
g5
g5
tp1755
a(S'blood'
p1756
S'blood'
p1757
S'NN'
p1758
S'B-NP'
p1759
g5
tp1760
a(S'folate'
p1761
S'folate'
p1762
S'NN'
p1763
S'I-NP'
p1764
g5
tp1765
a(S'concentrations'
p1766
S'concentration'
p1767
S'NNS'
p1768
S'I-NP'
p1769
g5
tp1770
a(S'are'
p1771
S'be'
p1772
S'VBP'
p1773
S'B-VP'
p1774
g5
tp1775
a(S'not'
p1776
S'not'
p1777
S'RB'
p1778
g5
g5
tp1779
a(S'predictive'
p1780
S'predictive'
p1781
S'JJ'
p1782
S'B-ADJP'
p1783
g5
tp1784
a(S'of'
p1785
S'of'
p1786
S'IN'
p1787
S'B-PP'
p1788
g5
tp1789
a(S'each'
p1790
S'each'
p1791
S'DT'
p1792
S'B-NP'
p1793
g5
tp1794
a(S'other'
p1795
S'other'
p1796
S'JJ'
p1797
S'I-NP'
p1798
g5
tp1799
a(S'in'
p1800
S'in'
p1801
S'IN'
p1802
S'B-PP'
p1803
g5
tp1804
a(S'Canadian'
p1805
S'Canadian'
p1806
S'JJ'
p1807
S'B-NP'
p1808
g5
tp1809
a(S'lactating'
p1810
S'lactate'
p1811
S'VBG'
p1812
S'I-NP'
p1813
g5
tp1814
a(S'women'
p1815
S'woman'
p1816
S'NNS'
p1817
S'I-NP'
p1818
g5
tp1819
a(S'exposed'
p1820
S'expose'
p1821
S'VBN'
p1822
S'B-VP'
p1823
g5
tp1824
a(S'to'
p1825
S'to'
p1826
S'TO'
p1827
S'B-PP'
p1828
g5
tp1829
a(S'high'
p1830
S'high'
p1831
S'JJ'
p1832
S'B-NP'
p1833
g5
tp1834
a(S'levels'
p1835
S'level'
p1836
S'NNS'
p1837
S'I-NP'
p1838
g5
tp1839
a(S'of'
p1840
S'of'
p1841
S'IN'
p1842
S'B-PP'
p1843
g5
tp1844
a(S'folate.'
p1845
S'folate.'
p1846
S'JJ'
p1847
S'B-NP'
p1848
g5
tp1849
a(S'Synthetic'
p1850
S'Synthetic'
p1851
S'JJ'
p1852
S'I-NP'
p1853
g5
tp1854
a(S'intakes'
p1855
S'intake'
p1856
S'NNS'
p1857
S'I-NP'
p1858
g5
tp1859
a(g1240
g1240
S'SYM'
p1860
g5
g5
tp1861
a(S'151-410'
p1862
S'151-410'
p1863
S'CD'
p1864
S'B-NP'
p1865
g5
tp1866
a(S'microg/d'
p1867
S'microg/d'
p1868
S'NN'
p1869
S'I-NP'
p1870
g5
tp1871
a(S'in'
p1872
S'in'
p1873
S'IN'
p1874
S'B-PP'
p1875
g5
tp1876
a(S'these'
p1877
S'these'
p1878
S'DT'
p1879
S'B-NP'
p1880
g5
tp1881
a(S'women'
p1882
S'woman'
p1883
S'NNS'
p1884
S'I-NP'
p1885
g5
tp1886
a(S'produced'
p1887
S'produce'
p1888
S'VBD'
p1889
S'B-VP'
p1890
g5
tp1891
a(S'little'
p1892
S'little'
p1893
S'JJ'
p1894
S'B-NP'
p1895
g5
tp1896
a(S'additional'
p1897
S'additional'
p1898
S'JJ'
p1899
S'I-NP'
p1900
g5
tp1901
a(S'benefit'
p1902
S'benefit'
p1903
S'NN'
p1904
S'I-NP'
p1905
g5
tp1906
a(S'in'
p1907
S'in'
p1908
S'IN'
p1909
S'B-PP'
p1910
g5
tp1911
a(S'terms'
p1912
S'term'
p1913
S'NNS'
p1914
S'B-NP'
p1915
g5
tp1916
a(S'of'
p1917
S'of'
p1918
S'IN'
p1919
S'B-PP'
p1920
g5
tp1921
a(S'maximizing'
p1922
S'maximize'
p1923
S'VBG'
p1924
S'B-NP'
p1925
g5
tp1926
a(S'RBC'
p1927
S'RBC'
p1928
S'NNS'
p1929
S'I-NP'
p1930
S'B-cell_type'
p1931
tp1932
a(S'content.'
p1933
S'content.'
p1934
S'VBP'
p1935
S'B-VP'
p1936
g5
tp1937
a(S'More'
p1938
S'More'
p1939
S'JJR'
p1940
S'B-NP'
p1941
g5
tp1942
a(S'studies'
p1943
S'study'
p1944
S'NNS'
p1945
S'I-NP'
p1946
g5
tp1947
a(S'are'
p1948
S'be'
p1949
S'VBP'
p1950
S'B-VP'
p1951
g5
tp1952
a(S'needed'
p1953
S'need'
p1954
S'VBN'
p1955
S'I-VP'
p1956
g5
tp1957
a(S'to'
p1958
S'to'
p1959
S'TO'
p1960
S'B-VP'
p1961
g5
tp1962
a(S'examine'
p1963
S'examine'
p1964
S'VB'
p1965
S'I-VP'
p1966
g5
tp1967
a(S'the'
p1968
S'the'
p1969
S'DT'
p1970
S'B-NP'
p1971
g5
tp1972
a(S'relationship'
p1973
S'relationship'
p1974
S'NN'
p1975
S'I-NP'
p1976
g5
tp1977
a(S'between'
p1978
S'between'
p1979
S'IN'
p1980
S'B-PP'
p1981
g5
tp1982
a(S'blood'
p1983
S'blood'
p1984
S'NN'
p1985
S'B-NP'
p1986
g5
tp1987
a(S'folate'
p1988
S'folate'
p1989
S'NN'
p1990
S'I-NP'
p1991
g5
tp1992
a(S'concentration'
p1993
S'concentration'
p1994
S'NN'
p1995
S'I-NP'
p1996
g5
tp1997
a(S'and'
p1998
S'and'
p1999
S'CC'
p2000
g5
g5
tp2001
a(S'NTD'
p2002
S'NTD'
p2003
S'NN'
p2004
S'B-NP'
p2005
g5
tp2006
a(S'risk.'
p2007
S'risk.'
p2008
S'NN'
p2009
S'I-NP'
p2010
g5
tp2011
a(S'Until'
p2012
S'Until'
p2013
S'IN'
p2014
S'B-PP'
p2015
g5
tp2016
a(S'data'
p2017
S'datum'
p2018
S'NNS'
p2019
S'B-NP'
p2020
g5
tp2021
a(S'from'
p2022
S'from'
p2023
S'IN'
p2024
S'B-PP'
p2025
g5
tp2026
a(S'such'
p2027
S'such'
p2028
S'JJ'
p2029
S'B-NP'
p2030
g5
tp2031
a(S'studies'
p2032
S'study'
p2033
S'NNS'
p2034
S'I-NP'
p2035
g5
tp2036
a(S'are'
p2037
S'be'
p2038
S'VBP'
p2039
S'B-VP'
p2040
g5
tp2041
a(S'available'
p2042
S'available'
p2043
S'JJ'
p2044
S'B-ADJP'
p2045
g5
tp2046
a(g150
g150
g150
g5
g5
tp2047
a(S'women'
p2048
S'woman'
p2049
S'NNS'
p2050
S'B-NP'
p2051
g5
tp2052
a(S'planning'
p2053
S'plan'
p2054
S'VBG'
p2055
S'B-VP'
p2056
g5
tp2057
a(g57
g57
S'DT'
p2058
S'B-NP'
p2059
g5
tp2060
a(S'pregnancy'
p2061
S'pregnancy'
p2062
S'NN'
p2063
S'I-NP'
p2064
g5
tp2065
a(S'should'
p2066
S'should'
p2067
S'MD'
p2068
S'B-VP'
p2069
g5
tp2070
a(S'continue'
p2071
S'continue'
p2072
S'VB'
p2073
S'I-VP'
p2074
g5
tp2075
a(S'to'
p2076
S'to'
p2077
S'TO'
p2078
S'I-VP'
p2079
g5
tp2080
a(S'consume'
p2081
S'consume'
p2082
S'VB'
p2083
S'I-VP'
p2084
g5
tp2085
a(g57
g57
S'DT'
p2086
S'B-NP'
p2087
g5
tp2088
a(S'daily'
p2089
S'daily'
p2090
S'JJ'
p2091
S'I-NP'
p2092
g5
tp2093
a(S'folic'
p2094
S'folic'
p2095
S'JJ'
p2096
S'I-NP'
p2097
g5
tp2098
a(S'acid'
p2099
S'acid'
p2100
S'NN'
p2101
S'I-NP'
p2102
g5
tp2103
a(S'supplement'
p2104
S'supplement'
p2105
S'NN'
p2106
S'I-NP'
p2107
g5
tp2108
a(S'of'
p2109
S'of'
p2110
S'IN'
p2111
S'B-PP'
p2112
g5
tp2113
a(S'400'
p2114
S'400'
p2115
S'CD'
p2116
S'B-NP'
p2117
g5
tp2118
a(S'microg'
p2119
S'microg'
p2120
S'NN'
p2121
S'I-NP'
p2122
g5
tp2123
a(g117
g117
g117
g5
g5
tp2124
a.