(lp0
(S'Therapy'
p1
S'Therapy'
p2
S'NN'
p3
S'B-NP'
p4
S'O'
p5
tp6
a(S'for'
p7
S'for'
p8
S'IN'
p9
S'B-PP'
p10
g5
tp11
a(S'progressive'
p12
S'progressive'
p13
S'JJ'
p14
S'B-NP'
p15
g5
tp16
a(S'supranuclear'
p17
S'supranuclear'
p18
S'JJ'
p19
S'I-NP'
p20
g5
tp21
a(S'palsy'
p22
S'palsy'
p23
S'NN'
p24
S'I-NP'
p25
g5
tp26
a(S':'
p27
g27
g27
g5
g5
tp28
a(S'past'
p29
S'past'
p30
S'NN'
p31
S'B-NP'
p32
g5
tp33
a(S'and'
p34
S'and'
p35
S'CC'
p36
S'I-NP'
p37
g5
tp38
a(S'future'
p39
S'future'
p40
S'NN'
p41
S'I-NP'
p42
g5
tp43
a(S'.'
p44
g44
g44
g5
g5
tp45
a(S'Dysfunction'
p46
S'Dysfunction'
p47
S'NN'
p48
S'B-NP'
p49
g5
tp50
a(S'of'
p51
S'of'
p52
S'IN'
p53
S'B-PP'
p54
g5
tp55
a(S'multiple'
p56
S'multiple'
p57
S'JJ'
p58
S'B-NP'
p59
g5
tp60
a(S'brain'
p61
S'brain'
p62
S'NN'
p63
S'I-NP'
p64
g5
tp65
a(S'systems'
p66
S'system'
p67
S'NNS'
p68
S'I-NP'
p69
g5
tp70
a(S'in'
p71
S'in'
p72
S'IN'
p73
S'B-PP'
p74
g5
tp75
a(S'progressive'
p76
S'progressive'
p77
S'JJ'
p78
S'B-NP'
p79
g5
tp80
a(S'supranuclear'
p81
S'supranuclear'
p82
S'JJ'
p83
S'I-NP'
p84
g5
tp85
a(S'palsy'
p86
S'palsy'
p87
S'NN'
p88
S'I-NP'
p89
g5
tp90
a(S'('
p91
g91
g91
g5
g5
tp92
a(S'PSP'
p93
S'PSP'
p94
S'NN'
p95
S'B-NP'
p96
S'B-protein'
p97
tp98
a(S')'
p99
g99
g99
g5
g5
tp100
a(S'has'
p101
S'have'
p102
S'VBZ'
p103
S'B-VP'
p104
g5
tp105
a(S'complicated'
p106
S'complicate'
p107
S'VBN'
p108
S'I-VP'
p109
g5
tp110
a(S'attempts'
p111
S'attempt'
p112
S'NNS'
p113
S'B-NP'
p114
g5
tp115
a(S'to'
p116
S'to'
p117
S'TO'
p118
S'B-VP'
p119
g5
tp120
a(S'treat'
p121
S'treat'
p122
S'VB'
p123
S'I-VP'
p124
g5
tp125
a(S'the'
p126
S'the'
p127
S'DT'
p128
S'B-NP'
p129
g5
tp130
a(S'disease.'
p131
S'disease.'
p132
S'NN'
p133
S'I-NP'
p134
g5
tp135
a(S'Neurotransmitter'
p136
S'Neurotransmitter'
p137
S'NNP'
p138
S'I-NP'
p139
g5
tp140
a(S'replacement'
p141
S'replacement'
p142
S'NN'
p143
S'I-NP'
p144
g5
tp145
a(S'strategies'
p146
S'strategy'
p147
S'NNS'
p148
S'I-NP'
p149
g5
tp150
a(S'targeting'
p151
S'target'
p152
S'VBG'
p153
S'B-VP'
p154
g5
tp155
a(S'the'
p156
S'the'
p157
S'DT'
p158
S'B-NP'
p159
g5
tp160
a(S'dopaminergic'
p161
S'dopaminergic'
p162
S'JJ'
p163
S'I-NP'
p164
g5
tp165
a(S','
p166
g166
g166
S'I-NP'
p167
g5
tp168
a(S'cholinergic'
p169
S'cholinergic'
p170
S'JJ'
p171
S'I-NP'
p172
g5
tp173
a(g166
g166
g166
g5
g5
tp174
a(S'and'
p175
S'and'
p176
S'CC'
p177
g5
g5
tp178
a(S'serotonergic'
p179
S'serotonergic'
p180
S'JJ'
p181
S'B-NP'
p182
g5
tp183
a(S'systems'
p184
S'system'
p185
S'NNS'
p186
S'I-NP'
p187
g5
tp188
a(S'have'
p189
S'have'
p190
S'VBP'
p191
S'B-VP'
p192
g5
tp193
a(S'been'
p194
S'be'
p195
S'VBN'
p196
S'I-VP'
p197
g5
tp198
a(S'unsuccessful.'
p199
S'unsuccessful.'
p200
S'JJ'
p201
S'B-ADJP'
p202
g5
tp203
a(S'In'
p204
S'In'
p205
S'IN'
p206
S'B-SBAR'
p207
g5
tp208
a(S'order'
p209
S'order'
p210
S'NN'
p211
g5
g5
tp212
a(S'to'
p213
S'to'
p214
S'TO'
p215
S'B-VP'
p216
g5
tp217
a(S'bypass'
p218
S'bypass'
p219
S'VB'
p220
S'I-VP'
p221
g5
tp222
a(S'the'
p223
S'the'
p224
S'DT'
p225
S'B-NP'
p226
g5
tp227
a(S'degenerated'
p228
S'degenerate'
p229
S'VBN'
p230
S'I-NP'
p231
g5
tp232
a(S'cortico-striato-pallidal'
p233
S'cortico-striato-pallidal'
p234
S'JJ'
p235
S'I-NP'
p236
g5
tp237
a(S'loop'
p238
S'loop'
p239
S'NN'
p240
S'I-NP'
p241
g5
tp242
a(g166
g166
g166
g5
g5
tp243
a(S'we'
p244
S'we'
p245
S'PRP'
p246
S'B-NP'
p247
g5
tp248
a(S'administered'
p249
S'administer'
p250
S'VBD'
p251
S'B-VP'
p252
g5
tp253
a(S'the'
p254
S'the'
p255
S'DT'
p256
S'B-NP'
p257
g5
tp258
a(S'adrenergic'
p259
S'adrenergic'
p260
S'JJ'
p261
S'I-NP'
p262
g5
tp263
a(S'agonist'
p264
S'agonist'
p265
S'NN'
p266
S'I-NP'
p267
g5
tp268
a(S'idazoxan'
p269
S'idazoxan'
p270
S'NN'
p271
S'I-NP'
p272
g5
tp273
a(g91
g91
g91
g5
g5
tp274
a(S'IDA'
p275
S'IDA'
p276
S'NN'
p277
S'B-NP'
p278
S'B-protein'
p279
tp280
a(g99
g99
g99
g5
g5
tp281
a(S'to'
p282
S'to'
p283
S'TO'
p284
S'B-VP'
p285
g5
tp286
a(S'treat'
p287
S'treat'
p288
S'VB'
p289
S'I-VP'
p290
g5
tp291
a(S'PSP'
p292
S'PSP'
p293
S'NN'
p294
S'B-NP'
p295
S'B-protein'
p296
tp297
a(S'in'
p298
S'in'
p299
S'IN'
p300
S'B-PP'
p301
g5
tp302
a(S'two'
p303
S'two'
p304
S'CD'
p305
S'B-NP'
p306
g5
tp307
a(S'randomized'
p308
S'randomize'
p309
S'VBN'
p310
S'I-NP'
p311
g5
tp312
a(S'double-blind'
p313
S'double-blind'
p314
S'JJ'
p315
S'I-NP'
p316
g5
tp317
a(g166
g166
g166
S'I-NP'
p318
g5
tp319
a(S'placebo'
p320
S'placebo'
p321
S'NN'
p322
S'I-NP'
p323
g5
tp324
a(S'controlled'
p325
S'control'
p326
S'VBN'
p327
S'B-VP'
p328
g5
tp329
a(g166
g166
g166
g5
g5
tp330
a(S'crossover'
p331
S'crossover'
p332
S'RB'
p333
S'B-VP'
p334
g5
tp335
a(S'studies.'
p336
S'studies.'
p337
S'VBN'
p338
S'I-VP'
p339
g5
tp340
a(S'Approximately'
p341
S'Approximately'
p342
S'RB'
p343
S'B-NP'
p344
g5
tp345
a(S'one'
p346
S'one'
p347
S'CD'
p348
S'I-NP'
p349
g5
tp350
a(S'half'
p351
S'half'
p352
S'NN'
p353
S'I-NP'
p354
g5
tp355
a(S'of'
p356
S'of'
p357
S'IN'
p358
S'B-PP'
p359
g5
tp360
a(S'patients'
p361
S'patient'
p362
S'NNS'
p363
S'B-NP'
p364
g5
tp365
a(S'enrolled'
p366
S'enrol'
p367
S'VBN'
p368
S'B-VP'
p369
g5
tp370
a(S'in'
p371
S'in'
p372
S'IN'
p373
S'B-PP'
p374
g5
tp375
a(S'these'
p376
S'these'
p377
S'DT'
p378
S'B-NP'
p379
g5
tp380
a(S'studies'
p381
S'study'
p382
S'NNS'
p383
S'I-NP'
p384
g5
tp385
a(S'showed'
p386
S'show'
p387
S'VBD'
p388
S'B-VP'
p389
g5
tp390
a(S'statistically'
p391
S'statistically'
p392
S'RB'
p393
S'B-NP'
p394
g5
tp395
a(S'significant'
p396
S'significant'
p397
S'JJ'
p398
S'I-NP'
p399
g5
tp400
a(S'improvement'
p401
S'improvement'
p402
S'NN'
p403
S'I-NP'
p404
g5
tp405
a(S'in'
p406
S'in'
p407
S'IN'
p408
S'B-PP'
p409
g5
tp410
a(S'balance'
p411
S'balance'
p412
S'NN'
p413
S'B-NP'
p414
g5
tp415
a(S'and'
p416
S'and'
p417
S'CC'
p418
g5
g5
tp419
a(S'manual'
p420
S'manual'
p421
S'JJ'
p422
S'B-NP'
p423
g5
tp424
a(S'dexterity'
p425
S'dexterity'
p426
S'NN'
p427
S'I-NP'
p428
g5
tp429
a(S'while'
p430
S'while'
p431
S'IN'
p432
S'B-SBAR'
p433
g5
tp434
a(S'taking'
p435
S'take'
p436
S'VBG'
p437
S'B-VP'
p438
g5
tp439
a(S'IDA'
p440
S'IDA'
p441
S'NN'
p442
S'B-NP'
p443
S'B-protein'
p444
tp445
a(S'compared'
p446
S'compare'
p447
S'VBN'
p448
S'B-VP'
p449
g5
tp450
a(S'to'
p451
S'to'
p452
S'TO'
p453
S'I-VP'
p454
g5
tp455
a(S'placebo.'
p456
S'placebo.'
p457
S'VB'
p458
S'I-VP'
p459
g5
tp460
a(S'These'
p461
S'These'
p462
S'DT'
p463
S'B-NP'
p464
g5
tp465
a(S'results'
p466
S'result'
p467
S'NNS'
p468
S'I-NP'
p469
g5
tp470
a(S'suggest'
p471
S'suggest'
p472
S'VBP'
p473
S'B-VP'
p474
g5
tp475
a(S'that'
p476
S'that'
p477
S'IN'
p478
S'B-SBAR'
p479
g5
tp480
a(S'new'
p481
S'new'
p482
S'JJ'
p483
S'B-NP'
p484
g5
tp485
a(S'therapies'
p486
S'therapy'
p487
S'NNS'
p488
S'I-NP'
p489
g5
tp490
a(S'that'
p491
S'that'
p492
S'IN'
p493
S'B-SBAR'
p494
g5
tp495
a(S'target'
p496
S'target'
p497
S'NN'
p498
S'B-NP'
p499
g5
tp500
a(S'structures'
p501
S'structure'
p502
S'NNS'
p503
S'I-NP'
p504
g5
tp505
a(S'outside'
p506
S'outside'
p507
S'JJ'
p508
S'B-ADJP'
p509
g5
tp510
a(S'of'
p511
S'of'
p512
S'IN'
p513
S'B-PP'
p514
g5
tp515
a(S'the'
p516
S'the'
p517
S'DT'
p518
S'B-NP'
p519
g5
tp520
a(S'basal'
p521
S'basal'
p522
S'JJ'
p523
S'I-NP'
p524
g5
tp525
a(S'ganglia'
p526
S'ganglia'
p527
S'NNS'
p528
S'I-NP'
p529
g5
tp530
a(S'may'
p531
S'may'
p532
S'MD'
p533
S'B-VP'
p534
g5
tp535
a(S'be'
p536
S'be'
p537
S'VB'
p538
S'I-VP'
p539
g5
tp540
a(S'useful'
p541
S'useful'
p542
S'JJ'
p543
S'B-ADJP'
p544
g5
tp545
a(S'for'
p546
S'for'
p547
S'IN'
p548
S'B-PP'
p549
g5
tp550
a(S'symptomatic'
p551
S'symptomatic'
p552
S'JJ'
p553
S'B-NP'
p554
g5
tp555
a(S'treatment'
p556
S'treatment'
p557
S'NN'
p558
S'I-NP'
p559
g5
tp560
a(S'of'
p561
S'of'
p562
S'IN'
p563
S'B-PP'
p564
g5
tp565
a(S'PSP.'
p566
S'PSP.'
p567
S'NNP'
p568
S'B-NP'
p569
g5
tp570
a(S'Applying'
p571
S'Apply'
p572
S'VBG'
p573
S'B-VP'
p574
g5
tp575
a(S'this'
p576
S'this'
p577
S'DT'
p578
S'B-NP'
p579
g5
tp580
a(S'strategy'
p581
S'strategy'
p582
S'NN'
p583
S'I-NP'
p584
g5
tp585
a(S'and'
p586
S'and'
p587
S'CC'
p588
g5
g5
tp589
a(S'developing'
p590
S'develop'
p591
S'VBG'
p592
S'B-VP'
p593
g5
tp594
a(S'treatments'
p595
S'treatment'
p596
S'NNS'
p597
S'B-NP'
p598
g5
tp599
a(S'that'
p600
S'that'
p601
S'IN'
p602
S'B-SBAR'
p603
g5
tp604
a(S'arrest'
p605
S'arrest'
p606
S'NN'
p607
S'B-NP'
p608
g5
tp609
a(S'or'
p610
S'or'
p611
S'CC'
p612
g5
g5
tp613
a(S'reverse'
p614
S'reverse'
p615
S'JJ'
p616
S'B-NP'
p617
g5
tp618
a(S'clinical'
p619
S'clinical'
p620
S'JJ'
p621
S'I-NP'
p622
g5
tp623
a(S'deterioration'
p624
S'deterioration'
p625
S'NN'
p626
S'I-NP'
p627
g5
tp628
a(S'in'
p629
S'in'
p630
S'IN'
p631
S'B-PP'
p632
g5
tp633
a(S'PSP'
p634
S'PSP'
p635
S'NN'
p636
S'B-NP'
p637
S'B-protein'
p638
tp639
a(S'will'
p640
S'will'
p641
S'MD'
p642
S'B-VP'
p643
g5
tp644
a(S'require'
p645
S'require'
p646
S'VB'
p647
S'I-VP'
p648
g5
tp649
a(S'improved'
p650
S'improved'
p651
S'JJ'
p652
S'B-NP'
p653
g5
tp654
a(S'understanding'
p655
S'understanding'
p656
S'NN'
p657
S'I-NP'
p658
g5
tp659
a(S'of'
p660
S'of'
p661
S'IN'
p662
S'B-PP'
p663
g5
tp664
a(S'the'
p665
S'the'
p666
S'DT'
p667
S'B-NP'
p668
g5
tp669
a(S'process'
p670
S'process'
p671
S'NN'
p672
S'I-NP'
p673
g5
tp674
a(S'underlying'
p675
S'underlie'
p676
S'VBG'
p677
S'B-VP'
p678
g5
tp679
a(S'the'
p680
S'the'
p681
S'DT'
p682
S'B-NP'
p683
g5
tp684
a(S'illness'
p685
S'illness'
p686
S'NN'
p687
S'I-NP'
p688
g5
tp689
a(g44
g44
g44
g5
g5
tp690
a.