(lp0
(S'Effectiveness'
p1
S'Effectiveness'
p2
S'NN'
p3
S'B-NP'
p4
S'O'
p5
tp6
a(S'of'
p7
S'of'
p8
S'IN'
p9
S'B-PP'
p10
g5
tp11
a(S'manual'
p12
S'manual'
p13
S'JJ'
p14
S'B-NP'
p15
g5
tp16
a(S'physical'
p17
S'physical'
p18
S'JJ'
p19
S'I-NP'
p20
g5
tp21
a(S'therapy'
p22
S'therapy'
p23
S'NN'
p24
S'I-NP'
p25
g5
tp26
a(S'and'
p27
S'and'
p28
S'CC'
p29
S'I-NP'
p30
g5
tp31
a(S'exercise'
p32
S'exercise'
p33
S'NN'
p34
S'I-NP'
p35
g5
tp36
a(S'in'
p37
S'in'
p38
S'IN'
p39
S'B-PP'
p40
g5
tp41
a(S'osteoarthritis'
p42
S'osteoarthritis'
p43
S'NN'
p44
S'B-NP'
p45
g5
tp46
a(S'of'
p47
S'of'
p48
S'IN'
p49
S'B-PP'
p50
g5
tp51
a(S'the'
p52
S'the'
p53
S'DT'
p54
S'B-NP'
p55
g5
tp56
a(S'knee.'
p57
S'knee.'
p58
S'NN'
p59
S'I-NP'
p60
g5
tp61
a(S'A'
p62
g62
S'NN'
p63
S'I-NP'
p64
g5
tp65
a(S'randomized'
p66
S'randomize'
p67
S'VBN'
p68
S'B-VP'
p69
g5
tp70
a(S','
p71
g71
g71
g5
g5
tp72
a(S'controlled'
p73
S'control'
p74
S'VBN'
p75
S'B-NP'
p76
g5
tp77
a(S'trial'
p78
S'trial'
p79
S'NN'
p80
S'I-NP'
p81
g5
tp82
a(S'.'
p83
g83
g83
g5
g5
tp84
a(S'BACKGROUND'
p85
S'BACKGROUND'
p86
S'NN'
p87
S'B-NP'
p88
g5
tp89
a(S'Few'
p90
S'Few'
p91
S'JJ'
p92
S'I-NP'
p93
g5
tp94
a(S'investigations'
p95
S'investigation'
p96
S'NNS'
p97
S'I-NP'
p98
g5
tp99
a(S'include'
p100
S'include'
p101
S'VBP'
p102
S'B-VP'
p103
g5
tp104
a(S'both'
p105
S'both'
p106
S'CC'
p107
g5
g5
tp108
a(S'subjective'
p109
S'subjective'
p110
S'JJ'
p111
S'B-NP'
p112
g5
tp113
a(S'and'
p114
S'and'
p115
S'CC'
p116
S'I-NP'
p117
g5
tp118
a(S'objective'
p119
S'objective'
p120
S'JJ'
p121
S'I-NP'
p122
g5
tp123
a(S'measurements'
p124
S'measurement'
p125
S'NNS'
p126
S'I-NP'
p127
g5
tp128
a(S'of'
p129
S'of'
p130
S'IN'
p131
S'B-PP'
p132
g5
tp133
a(S'the'
p134
S'the'
p135
S'DT'
p136
S'B-NP'
p137
g5
tp138
a(S'effectiveness'
p139
S'effectiveness'
p140
S'NN'
p141
S'I-NP'
p142
g5
tp143
a(S'of'
p144
S'of'
p145
S'IN'
p146
S'B-PP'
p147
g5
tp148
a(S'treatments'
p149
S'treatment'
p150
S'NNS'
p151
S'B-NP'
p152
g5
tp153
a(S'for'
p154
S'for'
p155
S'IN'
p156
S'B-PP'
p157
g5
tp158
a(S'osteoarthritis'
p159
S'osteoarthritis'
p160
S'NN'
p161
S'B-NP'
p162
g5
tp163
a(S'of'
p164
S'of'
p165
S'IN'
p166
S'B-PP'
p167
g5
tp168
a(S'the'
p169
S'the'
p170
S'DT'
p171
S'B-NP'
p172
g5
tp173
a(S'knee.'
p174
S'knee.'
p175
S'NN'
p176
S'I-NP'
p177
g5
tp178
a(S'Beneficial'
p179
S'Beneficial'
p180
S'JJ'
p181
S'I-NP'
p182
g5
tp183
a(S'interventions'
p184
S'intervention'
p185
S'NNS'
p186
S'I-NP'
p187
g5
tp188
a(S'may'
p189
S'may'
p190
S'MD'
p191
S'B-VP'
p192
g5
tp193
a(S'decrease'
p194
S'decrease'
p195
S'VB'
p196
S'I-VP'
p197
g5
tp198
a(S'the'
p199
S'the'
p200
S'DT'
p201
S'B-NP'
p202
g5
tp203
a(S'disability'
p204
S'disability'
p205
S'NN'
p206
S'I-NP'
p207
g5
tp208
a(S'associated'
p209
S'associate'
p210
S'VBN'
p211
S'B-VP'
p212
g5
tp213
a(S'with'
p214
S'with'
p215
S'IN'
p216
S'B-PP'
p217
g5
tp218
a(S'osteoarthritis'
p219
S'osteoarthritis'
p220
S'NN'
p221
S'B-NP'
p222
g5
tp223
a(S'and'
p224
S'and'
p225
S'CC'
p226
g5
g5
tp227
a(S'the'
p228
S'the'
p229
S'DT'
p230
S'B-NP'
p231
g5
tp232
a(S'need'
p233
S'need'
p234
S'NN'
p235
S'I-NP'
p236
g5
tp237
a(S'for'
p238
S'for'
p239
S'IN'
p240
S'B-PP'
p241
g5
tp242
a(S'more'
p243
S'more'
p244
S'RBR'
p245
S'B-NP'
p246
g5
tp247
a(S'invasive'
p248
S'invasive'
p249
S'JJ'
p250
S'I-NP'
p251
g5
tp252
a(S'treatments'
p253
S'treatment'
p254
S'NNS'
p255
S'I-NP'
p256
g5
tp257
a(g83
g83
g83
g5
g5
tp258
a(S'OBJECTIVE'
p259
S'OBJECTIVE'
p260
S'NN'
p261
S'B-NP'
p262
g5
tp263
a(S'To'
p264
S'To'
p265
S'TO'
p266
S'B-VP'
p267
g5
tp268
a(S'evaluate'
p269
S'evaluate'
p270
S'VB'
p271
S'I-VP'
p272
g5
tp273
a(S'the'
p274
S'the'
p275
S'DT'
p276
S'B-NP'
p277
g5
tp278
a(S'effectiveness'
p279
S'effectiveness'
p280
S'NN'
p281
S'I-NP'
p282
g5
tp283
a(S'of'
p284
S'of'
p285
S'IN'
p286
S'B-PP'
p287
g5
tp288
a(S'physical'
p289
S'physical'
p290
S'JJ'
p291
S'B-NP'
p292
g5
tp293
a(S'therapy'
p294
S'therapy'
p295
S'NN'
p296
S'I-NP'
p297
g5
tp298
a(S'for'
p299
S'for'
p300
S'IN'
p301
S'B-PP'
p302
g5
tp303
a(S'osteoarthritis'
p304
S'osteoarthritis'
p305
S'NN'
p306
S'B-NP'
p307
g5
tp308
a(S'of'
p309
S'of'
p310
S'IN'
p311
S'B-PP'
p312
g5
tp313
a(S'the'
p314
S'the'
p315
S'DT'
p316
S'B-NP'
p317
g5
tp318
a(S'knee'
p319
S'knee'
p320
S'NN'
p321
S'I-NP'
p322
g5
tp323
a(g71
g71
g71
g5
g5
tp324
a(S'applied'
p325
S'apply'
p326
S'VBN'
p327
S'B-VP'
p328
g5
tp329
a(S'by'
p330
S'by'
p331
S'IN'
p332
S'B-PP'
p333
g5
tp334
a(S'experienced'
p335
S'experienced'
p336
S'JJ'
p337
S'B-NP'
p338
g5
tp339
a(S'physical'
p340
S'physical'
p341
S'JJ'
p342
S'I-NP'
p343
g5
tp344
a(S'therapists'
p345
S'therapist'
p346
S'NNS'
p347
S'I-NP'
p348
g5
tp349
a(S'with'
p350
S'with'
p351
S'IN'
p352
S'B-PP'
p353
g5
tp354
a(S'formal'
p355
S'formal'
p356
S'JJ'
p357
S'B-NP'
p358
g5
tp359
a(S'training'
p360
S'training'
p361
S'NN'
p362
S'I-NP'
p363
g5
tp364
a(S'in'
p365
S'in'
p366
S'IN'
p367
S'B-PP'
p368
g5
tp369
a(S'manual'
p370
S'manual'
p371
S'JJ'
p372
S'B-NP'
p373
g5
tp374
a(S'therapy'
p375
S'therapy'
p376
S'NN'
p377
S'I-NP'
p378
g5
tp379
a(g83
g83
g83
g5
g5
tp380
a(S'DESIGN'
p381
S'DESIGN'
p382
S'NNP'
p383
S'B-NP'
p384
g5
tp385
a(S'Randomized'
p386
S'Randomized'
p387
S'NNP'
p388
S'I-NP'
p389
g5
tp390
a(g71
g71
g71
g5
g5
tp391
a(S'controlled'
p392
S'control'
p393
S'VBN'
p394
S'B-VP'
p395
g5
tp396
a(S'clinical'
p397
S'clinical'
p398
S'JJ'
p399
S'B-NP'
p400
g5
tp401
a(S'trial'
p402
S'trial'
p403
S'NN'
p404
S'I-NP'
p405
g5
tp406
a(g83
g83
g83
g5
g5
tp407
a(S'SETTING'
p408
S'SETTING'
p409
S'VBG'
p410
S'B-VP'
p411
g5
tp412
a(S'Outpatient'
p413
S'Outpatient'
p414
S'JJ'
p415
S'B-NP'
p416
g5
tp417
a(S'physical'
p418
S'physical'
p419
S'JJ'
p420
S'I-NP'
p421
g5
tp422
a(S'therapy'
p423
S'therapy'
p424
S'NN'
p425
S'I-NP'
p426
g5
tp427
a(S'department'
p428
S'department'
p429
S'NN'
p430
S'I-NP'
p431
g5
tp432
a(S'of'
p433
S'of'
p434
S'IN'
p435
S'B-PP'
p436
g5
tp437
a(S'a'
p438
g438
S'DT'
p439
S'B-NP'
p440
g5
tp441
a(S'large'
p442
S'large'
p443
S'JJ'
p444
S'I-NP'
p445
g5
tp446
a(S'military'
p447
S'military'
p448
S'JJ'
p449
S'I-NP'
p450
g5
tp451
a(S'medical'
p452
S'medical'
p453
S'JJ'
p454
S'I-NP'
p455
g5
tp456
a(S'center'
p457
S'center'
p458
S'NN'
p459
S'I-NP'
p460
g5
tp461
a(g83
g83
g83
g5
g5
tp462
a(S'PATIENTS'
p463
S'PATIENTS'
p464
S'NNS'
p465
S'B-NP'
p466
g5
tp467
a(S'83'
p468
S'83'
p469
S'CD'
p470
S'B-NP'
p471
g5
tp472
a(S'patients'
p473
S'patient'
p474
S'NNS'
p475
S'I-NP'
p476
g5
tp477
a(S'with'
p478
S'with'
p479
S'IN'
p480
S'B-PP'
p481
g5
tp482
a(S'osteoarthritis'
p483
S'osteoarthritis'
p484
S'NN'
p485
S'B-NP'
p486
g5
tp487
a(S'of'
p488
S'of'
p489
S'IN'
p490
S'B-PP'
p491
g5
tp492
a(S'the'
p493
S'the'
p494
S'DT'
p495
S'B-NP'
p496
g5
tp497
a(S'knee'
p498
S'knee'
p499
S'NN'
p500
S'I-NP'
p501
g5
tp502
a(S'who'
p503
S'who'
p504
S'WP'
p505
S'B-NP'
p506
g5
tp507
a(S'were'
p508
S'be'
p509
S'VBD'
p510
S'B-VP'
p511
g5
tp512
a(S'randomly'
p513
S'randomly'
p514
S'RB'
p515
S'I-VP'
p516
g5
tp517
a(S'assigned'
p518
S'assign'
p519
S'VBN'
p520
S'I-VP'
p521
g5
tp522
a(S'to'
p523
S'to'
p524
S'TO'
p525
S'I-VP'
p526
g5
tp527
a(S'receive'
p528
S'receive'
p529
S'VB'
p530
S'I-VP'
p531
g5
tp532
a(S'treatment'
p533
S'treatment'
p534
S'NN'
p535
S'B-NP'
p536
g5
tp537
a(S'('
p538
g538
g538
g5
g5
tp539
a(S'n'
p540
g540
S'NN'
p541
S'B-NP'
p542
g5
tp543
a(S'='
p544
g544
S'SYM'
p545
S'B-VP'
p546
g5
tp547
a(S'42'
p548
S'42'
p549
S'CD'
p550
S'B-NP'
p551
g5
tp552
a(S';'
p553
g553
S':'
p554
g5
g5
tp555
a(S'15'
p556
S'15'
p557
S'CD'
p558
S'B-NP'
p559
g5
tp560
a(S'men'
p561
S'man'
p562
S'NNS'
p563
S'I-NP'
p564
g5
tp565
a(S'and'
p566
S'and'
p567
S'CC'
p568
g5
g5
tp569
a(S'27'
p570
S'27'
p571
S'CD'
p572
S'B-NP'
p573
g5
tp574
a(S'women'
p575
S'woman'
p576
S'NNS'
p577
S'I-NP'
p578
g5
tp579
a(S'['
p580
g580
g538
g5
g5
tp581
a(S'mean'
p582
S'mean'
p583
S'JJ'
p584
S'B-NP'
p585
g5
tp586
a(S'age'
p587
S'age'
p588
S'NN'
p589
S'I-NP'
p590
g5
tp591
a(g71
g71
g71
g5
g5
tp592
a(S'60'
p593
S'60'
p594
S'CD'
p595
S'B-NP'
p596
g5
tp597
a(S'+/-'
p598
S'+/-'
p599
S'CC'
p600
S'I-NP'
p601
g5
tp602
a(S'11'
p603
S'11'
p604
S'CD'
p605
S'I-NP'
p606
g5
tp607
a(S'years'
p608
S'year'
p609
S'NNS'
p610
S'I-NP'
p611
g5
tp612
a(S']'
p613
g613
S')'
p614
g5
g5
tp615
a(g614
g614
g614
g5
g5
tp616
a(S'or'
p617
S'or'
p618
S'CC'
p619
g5
g5
tp620
a(S'placebo'
p621
S'placebo'
p622
S'NN'
p623
S'B-NP'
p624
g5
tp625
a(g538
g538
g538
g5
g5
tp626
a(g540
g540
S'NN'
p627
S'B-NP'
p628
g5
tp629
a(g544
g544
S'SYM'
p630
S'B-VP'
p631
g5
tp632
a(S'41'
p633
S'41'
p634
S'CD'
p635
S'B-NP'
p636
g5
tp637
a(g553
g553
g554
g5
g5
tp638
a(S'19'
p639
S'19'
p640
S'CD'
p641
S'B-NP'
p642
g5
tp643
a(S'men'
p644
S'man'
p645
S'NNS'
p646
S'I-NP'
p647
g5
tp648
a(S'and'
p649
S'and'
p650
S'CC'
p651
g5
g5
tp652
a(S'22'
p653
S'22'
p654
S'CD'
p655
S'B-NP'
p656
g5
tp657
a(S'women'
p658
S'woman'
p659
S'NNS'
p660
S'I-NP'
p661
g5
tp662
a(g580
g580
g538
g5
g5
tp663
a(S'mean'
p664
S'mean'
p665
S'JJ'
p666
S'B-NP'
p667
g5
tp668
a(S'age'
p669
S'age'
p670
S'NN'
p671
S'I-NP'
p672
g5
tp673
a(g71
g71
g71
g5
g5
tp674
a(S'62'
p675
S'62'
p676
S'CD'
p677
S'B-NP'
p678
g5
tp679
a(S'+/-'
p680
S'+/-'
p681
S'SYM'
p682
S'I-NP'
p683
g5
tp684
a(S'10'
p685
S'10'
p686
S'CD'
p687
S'I-NP'
p688
g5
tp689
a(S'years'
p690
S'year'
p691
S'NNS'
p692
S'I-NP'
p693
g5
tp694
a(g613
g613
g614
g5
g5
tp695
a(g614
g614
g614
g5
g5
tp696
a(g83
g83
g83
g5
g5
tp697
a(S'INTERVENTION'
p698
S'INTERVENTION'
p699
S'NN'
p700
S'B-NP'
p701
g5
tp702
a(S'The'
p703
S'The'
p704
S'DT'
p705
S'B-NP'
p706
g5
tp707
a(S'treatment'
p708
S'treatment'
p709
S'NN'
p710
S'I-NP'
p711
g5
tp712
a(S'group'
p713
S'group'
p714
S'NN'
p715
S'I-NP'
p716
g5
tp717
a(S'received'
p718
S'receive'
p719
S'VBD'
p720
S'B-VP'
p721
g5
tp722
a(S'manual'
p723
S'manual'
p724
S'JJ'
p725
S'B-NP'
p726
g5
tp727
a(S'therapy'
p728
S'therapy'
p729
S'NN'
p730
S'I-NP'
p731
g5
tp732
a(g71
g71
g71
g5
g5
tp733
a(S'applied'
p734
S'apply'
p735
S'VBN'
p736
S'B-VP'
p737
g5
tp738
a(S'to'
p739
S'to'
p740
S'TO'
p741
S'B-PP'
p742
g5
tp743
a(S'the'
p744
S'the'
p745
S'DT'
p746
S'B-NP'
p747
g5
tp748
a(S'knee'
p749
S'knee'
p750
S'NN'
p751
S'I-NP'
p752
g5
tp753
a(S'as'
p754
S'as'
p755
S'RB'
p756
S'B-CONJP'
p757
g5
tp758
a(S'well'
p759
S'well'
p760
S'RB'
p761
S'I-CONJP'
p762
g5
tp763
a(S'as'
p764
S'as'
p765
S'IN'
p766
S'I-CONJP'
p767
g5
tp768
a(S'to'
p769
S'to'
p770
S'TO'
p771
S'B-PP'
p772
g5
tp773
a(S'the'
p774
S'the'
p775
S'DT'
p776
S'B-NP'
p777
g5
tp778
a(S'lumbar'
p779
S'lumbar'
p780
S'NN'
p781
S'I-NP'
p782
g5
tp783
a(S'spine'
p784
S'spine'
p785
S'NN'
p786
S'I-NP'
p787
g5
tp788
a(g71
g71
g71
g5
g5
tp789
a(S'hip'
p790
S'hip'
p791
S'NN'
p792
S'B-NP'
p793
g5
tp794
a(g71
g71
g71
g5
g5
tp795
a(S'and'
p796
S'and'
p797
S'CC'
p798
g5
g5
tp799
a(S'ankle'
p800
S'ankle'
p801
S'NN'
p802
S'B-NP'
p803
g5
tp804
a(S'as'
p805
S'as'
p806
S'IN'
p807
S'B-SBAR'
p808
g5
tp809
a(S'required'
p810
S'require'
p811
S'VBN'
p812
S'B-VP'
p813
g5
tp814
a(g71
g71
g71
g5
g5
tp815
a(S'and'
p816
S'and'
p817
S'CC'
p818
g5
g5
tp819
a(S'performed'
p820
S'perform'
p821
S'VBD'
p822
S'B-VP'
p823
g5
tp824
a(g438
g438
S'DT'
p825
S'B-NP'
p826
g5
tp827
a(S'standardized'
p828
S'standardized'
p829
S'JJ'
p830
S'I-NP'
p831
g5
tp832
a(S'knee'
p833
S'knee'
p834
S'NN'
p835
S'I-NP'
p836
g5
tp837
a(S'exercise'
p838
S'exercise'
p839
S'NN'
p840
S'I-NP'
p841
g5
tp842
a(S'program'
p843
S'program'
p844
S'NN'
p845
S'I-NP'
p846
g5
tp847
a(S'in'
p848
S'in'
p849
S'IN'
p850
S'B-PP'
p851
g5
tp852
a(S'the'
p853
S'the'
p854
S'DT'
p855
S'B-NP'
p856
g5
tp857
a(S'clinic'
p858
S'clinic'
p859
S'NN'
p860
S'I-NP'
p861
g5
tp862
a(S'and'
p863
S'and'
p864
S'CC'
p865
S'B-PP'
p866
g5
tp867
a(S'at'
p868
S'at'
p869
S'IN'
p870
S'B-PP'
p871
g5
tp872
a(S'home.'
p873
S'home.'
p874
S'NN'
p875
S'B-NP'
p876
g5
tp877
a(S'The'
p878
S'The'
p879
S'DT'
p880
S'B-NP'
p881
g5
tp882
a(S'placebo'
p883
S'placebo'
p884
S'NN'
p885
S'I-NP'
p886
g5
tp887
a(S'group'
p888
S'group'
p889
S'NN'
p890
S'I-NP'
p891
g5
tp892
a(S'had'
p893
S'have'
p894
S'VBD'
p895
S'B-VP'
p896
g5
tp897
a(S'subtherapeutic'
p898
S'subtherapeutic'
p899
S'JJ'
p900
S'B-NP'
p901
g5
tp902
a(S'ultrasound'
p903
S'ultrasound'
p904
S'NN'
p905
S'I-NP'
p906
g5
tp907
a(S'to'
p908
S'to'
p909
S'TO'
p910
S'B-PP'
p911
g5
tp912
a(S'the'
p913
S'the'
p914
S'DT'
p915
S'B-NP'
p916
g5
tp917
a(S'knee'
p918
S'knee'
p919
S'NN'
p920
S'I-NP'
p921
g5
tp922
a(S'at'
p923
S'at'
p924
S'IN'
p925
S'B-PP'
p926
g5
tp927
a(S'an'
p928
S'an'
p929
S'DT'
p930
S'B-NP'
p931
g5
tp932
a(S'intensity'
p933
S'intensity'
p934
S'NN'
p935
S'I-NP'
p936
g5
tp937
a(S'of'
p938
S'of'
p939
S'IN'
p940
S'B-PP'
p941
g5
tp942
a(S'0.1'
p943
S'0.1'
p944
S'CD'
p945
S'B-NP'
p946
g5
tp947
a(S'W/cm2'
p948
S'W/cm2'
p949
S'NN'
p950
S'I-NP'
p951
g5
tp952
a(S'with'
p953
S'with'
p954
S'IN'
p955
S'B-PP'
p956
g5
tp957
a(g438
g438
S'DT'
p958
S'B-NP'
p959
g5
tp960
a(S'10'
p961
S'10'
p962
S'CD'
p963
S'I-NP'
p964
g5
tp965
a(S'%'
p966
g966
S'NN'
p967
S'I-NP'
p968
g5
tp969
a(S'pulsed'
p970
S'pulsed'
p971
S'JJ'
p972
S'I-NP'
p973
g5
tp974
a(S'mode.'
p975
S'mode.'
p976
S'NN'
p977
S'I-NP'
p978
g5
tp979
a(S'Both'
p980
S'Both'
p981
S'DT'
p982
S'B-NP'
p983
g5
tp984
a(S'groups'
p985
S'group'
p986
S'NNS'
p987
S'I-NP'
p988
g5
tp989
a(S'were'
p990
S'be'
p991
S'VBD'
p992
S'B-VP'
p993
g5
tp994
a(S'treated'
p995
S'treat'
p996
S'VBN'
p997
S'I-VP'
p998
g5
tp999
a(S'at'
p1000
S'at'
p1001
S'IN'
p1002
S'B-PP'
p1003
g5
tp1004
a(S'the'
p1005
S'the'
p1006
S'DT'
p1007
S'B-NP'
p1008
g5
tp1009
a(S'clinic'
p1010
S'clinic'
p1011
S'NN'
p1012
S'I-NP'
p1013
g5
tp1014
a(S'twice'
p1015
S'twice'
p1016
S'RB'
p1017
S'B-ADJP'
p1018
g5
tp1019
a(S'weekly'
p1020
S'weekly'
p1021
S'JJ'
p1022
S'I-ADJP'
p1023
g5
tp1024
a(S'for'
p1025
S'for'
p1026
S'IN'
p1027
S'B-PP'
p1028
g5
tp1029
a(S'4'
p1030
g1030
S'CD'
p1031
S'B-NP'
p1032
g5
tp1033
a(S'weeks'
p1034
S'week'
p1035
S'NNS'
p1036
S'I-NP'
p1037
g5
tp1038
a(g83
g83
g83
g5
g5
tp1039
a(S'MEASUREMENTS'
p1040
S'MEASUREMENTS'
p1041
S'NNS'
p1042
S'B-NP'
p1043
g5
tp1044
a(S'Distance'
p1045
S'Distance'
p1046
S'NN'
p1047
S'I-NP'
p1048
g5
tp1049
a(S'walked'
p1050
S'walk'
p1051
S'VBD'
p1052
S'B-VP'
p1053
g5
tp1054
a(S'in'
p1055
S'in'
p1056
S'IN'
p1057
S'B-PP'
p1058
g5
tp1059
a(S'6'
p1060
g1060
S'CD'
p1061
S'B-NP'
p1062
g5
tp1063
a(S'minutes'
p1064
S'minute'
p1065
S'NNS'
p1066
S'I-NP'
p1067
g5
tp1068
a(S'and'
p1069
S'and'
p1070
S'CC'
p1071
S'I-NP'
p1072
g5
tp1073
a(S'sum'
p1074
S'sum'
p1075
S'NN'
p1076
S'I-NP'
p1077
g5
tp1078
a(S'of'
p1079
S'of'
p1080
S'IN'
p1081
S'B-PP'
p1082
g5
tp1083
a(S'the'
p1084
S'the'
p1085
S'DT'
p1086
S'B-NP'
p1087
g5
tp1088
a(S'function'
p1089
S'function'
p1090
S'NN'
p1091
S'I-NP'
p1092
g5
tp1093
a(g71
g71
g71
g5
g5
tp1094
a(S'pain'
p1095
S'pain'
p1096
S'NN'
p1097
S'B-NP'
p1098
g5
tp1099
a(g71
g71
g71
g5
g5
tp1100
a(S'and'
p1101
S'and'
p1102
S'CC'
p1103
g5
g5
tp1104
a(S'stiffness'
p1105
S'stiffness'
p1106
S'NN'
p1107
S'B-NP'
p1108
g5
tp1109
a(S'subscores'
p1110
S'subscore'
p1111
S'NNS'
p1112
S'I-NP'
p1113
g5
tp1114
a(S'of'
p1115
S'of'
p1116
S'IN'
p1117
S'B-PP'
p1118
g5
tp1119
a(S'the'
p1120
S'the'
p1121
S'DT'
p1122
S'B-NP'
p1123
g5
tp1124
a(S'Western'
p1125
S'Western'
p1126
S'NNP'
p1127
S'I-NP'
p1128
g5
tp1129
a(S'Ontario'
p1130
S'Ontario'
p1131
S'NNP'
p1132
S'I-NP'
p1133
g5
tp1134
a(S'and'
p1135
S'and'
p1136
S'CC'
p1137
g5
g5
tp1138
a(S'McMaster'
p1139
S'McMaster'
p1140
S'NNP'
p1141
S'B-NP'
p1142
g5
tp1143
a(S'Universities'
p1144
S'Universities'
p1145
S'NNP'
p1146
S'I-NP'
p1147
g5
tp1148
a(S'Osteoarthritis'
p1149
S'Osteoarthritis'
p1150
S'NNP'
p1151
S'I-NP'
p1152
g5
tp1153
a(S'Index'
p1154
S'Index'
p1155
S'NNP'
p1156
S'I-NP'
p1157
g5
tp1158
a(g538
g538
g538
g5
g5
tp1159
a(S'WOMAC'
p1160
S'WOMAC'
p1161
S'NNP'
p1162
S'B-NP'
p1163
g5
tp1164
a(g614
g614
g614
g5
g5
tp1165
a(g83
g83
g83
g5
g5
tp1166
a(g62
g62
S'DT'
p1167
S'B-NP'
p1168
g5
tp1169
a(S'tester'
p1170
S'tester'
p1171
S'NN'
p1172
S'I-NP'
p1173
g5
tp1174
a(S'who'
p1175
S'who'
p1176
S'WP'
p1177
S'B-NP'
p1178
g5
tp1179
a(S'was'
p1180
S'be'
p1181
S'VBD'
p1182
S'B-VP'
p1183
g5
tp1184
a(S'blinded'
p1185
S'blind'
p1186
S'VBN'
p1187
S'I-VP'
p1188
g5
tp1189
a(S'to'
p1190
S'to'
p1191
S'TO'
p1192
S'B-PP'
p1193
g5
tp1194
a(S'group'
p1195
S'group'
p1196
S'NN'
p1197
S'B-NP'
p1198
g5
tp1199
a(S'assignment'
p1200
S'assignment'
p1201
S'NN'
p1202
S'I-NP'
p1203
g5
tp1204
a(S'made'
p1205
S'make'
p1206
S'VBD'
p1207
S'B-VP'
p1208
g5
tp1209
a(S'group'
p1210
S'group'
p1211
S'NN'
p1212
S'B-NP'
p1213
g5
tp1214
a(S'comparisons'
p1215
S'comparison'
p1216
S'NNS'
p1217
S'I-NP'
p1218
g5
tp1219
a(S'at'
p1220
S'at'
p1221
S'IN'
p1222
S'B-PP'
p1223
g5
tp1224
a(S'the'
p1225
S'the'
p1226
S'DT'
p1227
S'B-NP'
p1228
g5
tp1229
a(S'initial'
p1230
S'initial'
p1231
S'JJ'
p1232
S'I-NP'
p1233
g5
tp1234
a(S'visit'
p1235
S'visit'
p1236
S'NN'
p1237
S'I-NP'
p1238
g5
tp1239
a(g538
g538
g538
g5
g5
tp1240
a(S'before'
p1241
S'before'
p1242
S'IN'
p1243
S'B-PP'
p1244
g5
tp1245
a(S'initiation'
p1246
S'initiation'
p1247
S'NN'
p1248
S'B-NP'
p1249
g5
tp1250
a(S'of'
p1251
S'of'
p1252
S'IN'
p1253
S'B-PP'
p1254
g5
tp1255
a(S'treatment'
p1256
S'treatment'
p1257
S'NN'
p1258
S'B-NP'
p1259
g5
tp1260
a(g614
g614
g614
g5
g5
tp1261
a(g71
g71
g71
g5
g5
tp1262
a(g1030
g1030
S'CD'
p1263
S'B-NP'
p1264
g5
tp1265
a(S'weeks'
p1266
S'week'
p1267
S'NNS'
p1268
S'I-NP'
p1269
g5
tp1270
a(g71
g71
g71
g5
g5
tp1271
a(S'8'
p1272
g1272
S'CD'
p1273
S'B-NP'
p1274
g5
tp1275
a(S'weeks'
p1276
S'week'
p1277
S'NNS'
p1278
S'I-NP'
p1279
g5
tp1280
a(g71
g71
g71
g5
g5
tp1281
a(S'and'
p1282
S'and'
p1283
S'CC'
p1284
g5
g5
tp1285
a(S'1'
p1286
g1286
S'CD'
p1287
S'B-NP'
p1288
g5
tp1289
a(S'year'
p1290
S'year'
p1291
S'NN'
p1292
S'I-NP'
p1293
g5
tp1294
a(g83
g83
g83
g5
g5
tp1295
a(S'RESULTS'
p1296
S'RESULTS'
p1297
S'NNS'
p1298
S'B-NP'
p1299
g5
tp1300
a(S'Clinically'
p1301
S'Clinically'
p1302
S'RB'
p1303
S'B-ADVP'
p1304
g5
tp1305
a(S'and'
p1306
S'and'
p1307
S'CC'
p1308
g5
g5
tp1309
a(S'statistically'
p1310
S'statistically'
p1311
S'RB'
p1312
S'B-NP'
p1313
g5
tp1314
a(S'significant'
p1315
S'significant'
p1316
S'JJ'
p1317
S'I-NP'
p1318
g5
tp1319
a(S'improvements'
p1320
S'improvement'
p1321
S'NNS'
p1322
S'I-NP'
p1323
g5
tp1324
a(S'in'
p1325
S'in'
p1326
S'IN'
p1327
S'B-PP'
p1328
g5
tp1329
a(S'6-minute'
p1330
S'6-minute'
p1331
S'JJ'
p1332
S'B-NP'
p1333
g5
tp1334
a(S'walk'
p1335
S'walk'
p1336
S'NN'
p1337
S'I-NP'
p1338
g5
tp1339
a(S'distance'
p1340
S'distance'
p1341
S'NN'
p1342
S'I-NP'
p1343
g5
tp1344
a(S'and'
p1345
S'and'
p1346
S'CC'
p1347
S'I-NP'
p1348
g5
tp1349
a(S'WOMAC'
p1350
S'WOMAC'
p1351
S'NN'
p1352
S'I-NP'
p1353
g5
tp1354
a(S'score'
p1355
S'score'
p1356
S'NN'
p1357
S'I-NP'
p1358
g5
tp1359
a(S'at'
p1360
S'at'
p1361
S'IN'
p1362
S'B-PP'
p1363
g5
tp1364
a(g1030
g1030
S'CD'
p1365
S'B-NP'
p1366
g5
tp1367
a(S'weeks'
p1368
S'week'
p1369
S'NNS'
p1370
S'I-NP'
p1371
g5
tp1372
a(S'and'
p1373
S'and'
p1374
S'CC'
p1375
g5
g5
tp1376
a(g1272
g1272
S'CD'
p1377
S'B-NP'
p1378
g5
tp1379
a(S'weeks'
p1380
S'week'
p1381
S'NNS'
p1382
S'I-NP'
p1383
g5
tp1384
a(S'were'
p1385
S'be'
p1386
S'VBD'
p1387
S'B-VP'
p1388
g5
tp1389
a(S'seen'
p1390
S'see'
p1391
S'VBN'
p1392
S'I-VP'
p1393
g5
tp1394
a(S'in'
p1395
S'in'
p1396
S'IN'
p1397
S'B-PP'
p1398
g5
tp1399
a(S'the'
p1400
S'the'
p1401
S'DT'
p1402
S'B-NP'
p1403
g5
tp1404
a(S'treatment'
p1405
S'treatment'
p1406
S'NN'
p1407
S'I-NP'
p1408
g5
tp1409
a(S'group'
p1410
S'group'
p1411
S'NN'
p1412
S'I-NP'
p1413
g5
tp1414
a(S'but'
p1415
S'but'
p1416
S'CC'
p1417
S'B-CONJP'
p1418
g5
tp1419
a(S'not'
p1420
S'not'
p1421
S'RB'
p1422
S'I-CONJP'
p1423
g5
tp1424
a(S'the'
p1425
S'the'
p1426
S'DT'
p1427
S'B-NP'
p1428
g5
tp1429
a(S'placebo'
p1430
S'placebo'
p1431
S'NN'
p1432
S'I-NP'
p1433
g5
tp1434
a(S'group.'
p1435
S'group.'
p1436
S'NN'
p1437
S'I-NP'
p1438
g5
tp1439
a(S'By'
p1440
S'By'
p1441
S'IN'
p1442
S'B-PP'
p1443
g5
tp1444
a(g1272
g1272
S'CD'
p1445
S'B-NP'
p1446
g5
tp1447
a(S'weeks'
p1448
S'week'
p1449
S'NNS'
p1450
S'I-NP'
p1451
g5
tp1452
a(g71
g71
g71
g5
g5
tp1453
a(S'average'
p1454
S'average'
p1455
S'JJ'
p1456
S'B-NP'
p1457
g5
tp1458
a(S'6-minute'
p1459
S'6-minute'
p1460
S'JJ'
p1461
S'I-NP'
p1462
g5
tp1463
a(S'walk'
p1464
S'walk'
p1465
S'NN'
p1466
S'I-NP'
p1467
g5
tp1468
a(S'distances'
p1469
S'distance'
p1470
S'NNS'
p1471
S'I-NP'
p1472
g5
tp1473
a(S'had'
p1474
S'have'
p1475
S'VBD'
p1476
S'B-VP'
p1477
g5
tp1478
a(S'improved'
p1479
S'improve'
p1480
S'VBN'
p1481
S'I-VP'
p1482
g5
tp1483
a(S'by'
p1484
S'by'
p1485
S'IN'
p1486
S'B-PP'
p1487
g5
tp1488
a(S'13.1'
p1489
S'13.1'
p1490
S'CD'
p1491
S'B-NP'
p1492
g5
tp1493
a(g966
g966
S'NN'
p1494
S'I-NP'
p1495
g5
tp1496
a(S'and'
p1497
S'and'
p1498
S'CC'
p1499
S'I-NP'
p1500
g5
tp1501
a(S'WOMAC'
p1502
S'WOMAC'
p1503
S'NN'
p1504
S'I-NP'
p1505
g5
tp1506
a(S'scores'
p1507
S'score'
p1508
S'NNS'
p1509
S'I-NP'
p1510
g5
tp1511
a(S'had'
p1512
S'have'
p1513
S'VBD'
p1514
S'B-VP'
p1515
g5
tp1516
a(S'improved'
p1517
S'improve'
p1518
S'VBN'
p1519
S'I-VP'
p1520
g5
tp1521
a(S'by'
p1522
S'by'
p1523
S'IN'
p1524
S'B-PP'
p1525
g5
tp1526
a(S'55.8'
p1527
S'55.8'
p1528
S'CD'
p1529
S'B-NP'
p1530
g5
tp1531
a(g966
g966
S'NN'
p1532
S'I-NP'
p1533
g5
tp1534
a(S'over'
p1535
S'over'
p1536
S'IN'
p1537
S'B-PP'
p1538
g5
tp1539
a(S'baseline'
p1540
S'baseline'
p1541
S'NN'
p1542
S'B-NP'
p1543
g5
tp1544
a(S'values'
p1545
S'value'
p1546
S'NNS'
p1547
S'I-NP'
p1548
g5
tp1549
a(S'in'
p1550
S'in'
p1551
S'IN'
p1552
S'B-PP'
p1553
g5
tp1554
a(S'the'
p1555
S'the'
p1556
S'DT'
p1557
S'B-NP'
p1558
g5
tp1559
a(S'treatment'
p1560
S'treatment'
p1561
S'NN'
p1562
S'I-NP'
p1563
g5
tp1564
a(S'group'
p1565
S'group'
p1566
S'NN'
p1567
S'I-NP'
p1568
g5
tp1569
a(g538
g538
g538
g5
g5
tp1570
a(S'P'
p1571
g1571
S'NN'
p1572
S'B-NP'
p1573
g5
tp1574
a(S'<'
p1575
g1575
S'SYM'
p1576
g5
g5
tp1577
a(S'0.05'
p1578
S'0.05'
p1579
S'CD'
p1580
S'B-NP'
p1581
g5
tp1582
a(g614
g614
g614
g5
g5
tp1583
a(g83
g83
g83
g5
g5
tp1584
a(S'After'
p1585
S'After'
p1586
S'IN'
p1587
S'B-PP'
p1588
g5
tp1589
a(S'controlling'
p1590
S'control'
p1591
S'VBG'
p1592
S'B-VP'
p1593
g5
tp1594
a(S'for'
p1595
S'for'
p1596
S'IN'
p1597
S'B-PP'
p1598
g5
tp1599
a(S'potential'
p1600
S'potential'
p1601
S'JJ'
p1602
S'B-NP'
p1603
g5
tp1604
a(S'confounding'
p1605
S'confound'
p1606
S'VBG'
p1607
S'I-NP'
p1608
g5
tp1609
a(S'variables'
p1610
S'variable'
p1611
S'NNS'
p1612
S'I-NP'
p1613
g5
tp1614
a(g71
g71
g71
g5
g5
tp1615
a(S'the'
p1616
S'the'
p1617
S'DT'
p1618
S'B-NP'
p1619
g5
tp1620
a(S'average'
p1621
S'average'
p1622
S'JJ'
p1623
S'I-NP'
p1624
g5
tp1625
a(S'distance'
p1626
S'distance'
p1627
S'NN'
p1628
S'I-NP'
p1629
g5
tp1630
a(S'walked'
p1631
S'walk'
p1632
S'VBD'
p1633
S'B-VP'
p1634
g5
tp1635
a(S'in'
p1636
S'in'
p1637
S'IN'
p1638
S'B-PP'
p1639
g5
tp1640
a(g1060
g1060
S'CD'
p1641
S'B-NP'
p1642
g5
tp1643
a(S'minutes'
p1644
S'minute'
p1645
S'NNS'
p1646
S'I-NP'
p1647
g5
tp1648
a(S'at'
p1649
S'at'
p1650
S'IN'
p1651
S'B-PP'
p1652
g5
tp1653
a(g1272
g1272
S'CD'
p1654
S'B-NP'
p1655
g5
tp1656
a(S'weeks'
p1657
S'week'
p1658
S'NNS'
p1659
S'I-NP'
p1660
g5
tp1661
a(S'among'
p1662
S'among'
p1663
S'IN'
p1664
S'B-PP'
p1665
g5
tp1666
a(S'patients'
p1667
S'patient'
p1668
S'NNS'
p1669
S'B-NP'
p1670
g5
tp1671
a(S'in'
p1672
S'in'
p1673
S'IN'
p1674
S'B-PP'
p1675
g5
tp1676
a(S'the'
p1677
S'the'
p1678
S'DT'
p1679
S'B-NP'
p1680
g5
tp1681
a(S'treatment'
p1682
S'treatment'
p1683
S'NN'
p1684
S'I-NP'
p1685
g5
tp1686
a(S'group'
p1687
S'group'
p1688
S'NN'
p1689
S'I-NP'
p1690
g5
tp1691
a(S'was'
p1692
S'be'
p1693
S'VBD'
p1694
S'B-VP'
p1695
g5
tp1696
a(S'170'
p1697
S'170'
p1698
S'CD'
p1699
S'B-NP'
p1700
g5
tp1701
a(S'm'
p1702
g1702
S'NN'
p1703
S'I-NP'
p1704
g5
tp1705
a(g538
g538
g538
g5
g5
tp1706
a(S'95'
p1707
S'95'
p1708
S'CD'
p1709
S'B-NP'
p1710
g5
tp1711
a(g966
g966
S'NN'
p1712
S'I-NP'
p1713
g5
tp1714
a(S'CI'
p1715
S'CI'
p1716
S'NN'
p1717
S'I-NP'
p1718
g5
tp1719
a(g71
g71
g71
g5
g5
tp1720
a(S'71'
p1721
S'71'
p1722
S'CD'
p1723
S'B-NP'
p1724
g5
tp1725
a(S'to'
p1726
S'to'
p1727
S'TO'
p1728
S'I-NP'
p1729
g5
tp1730
a(S'270'
p1731
S'270'
p1732
S'CD'
p1733
S'I-NP'
p1734
g5
tp1735
a(g1702
g1702
S'NN'
p1736
S'I-NP'
p1737
g5
tp1738
a(g614
g614
g614
g5
g5
tp1739
a(S'more'
p1740
S'more'
p1741
S'RBR'
p1742
S'B-ADVP'
p1743
g5
tp1744
a(S'than'
p1745
S'than'
p1746
S'IN'
p1747
S'B-PP'
p1748
g5
tp1749
a(S'that'
p1750
S'that'
p1751
S'DT'
p1752
S'B-NP'
p1753
g5
tp1754
a(S'in'
p1755
S'in'
p1756
S'IN'
p1757
S'B-PP'
p1758
g5
tp1759
a(S'the'
p1760
S'the'
p1761
S'DT'
p1762
S'B-NP'
p1763
g5
tp1764
a(S'placebo'
p1765
S'placebo'
p1766
S'NN'
p1767
S'I-NP'
p1768
g5
tp1769
a(S'group'
p1770
S'group'
p1771
S'NN'
p1772
S'I-NP'
p1773
g5
tp1774
a(S'and'
p1775
S'and'
p1776
S'CC'
p1777
g5
g5
tp1778
a(S'the'
p1779
S'the'
p1780
S'DT'
p1781
S'B-NP'
p1782
g5
tp1783
a(S'average'
p1784
S'average'
p1785
S'JJ'
p1786
S'I-NP'
p1787
g5
tp1788
a(S'WOMAC'
p1789
S'WOMAC'
p1790
S'NNP'
p1791
S'I-NP'
p1792
g5
tp1793
a(S'scores'
p1794
S'score'
p1795
S'NNS'
p1796
S'I-NP'
p1797
g5
tp1798
a(S'were'
p1799
S'be'
p1800
S'VBD'
p1801
S'B-VP'
p1802
g5
tp1803
a(S'599'
p1804
S'599'
p1805
S'CD'
p1806
S'B-NP'
p1807
g5
tp1808
a(S'mm'
p1809
S'mm'
p1810
S'NN'
p1811
S'I-NP'
p1812
g5
tp1813
a(S'higher'
p1814
S'high'
p1815
S'JJR'
p1816
S'B-ADJP'
p1817
g5
tp1818
a(g538
g538
g538
g5
g5
tp1819
a(S'95'
p1820
S'95'
p1821
S'CD'
p1822
S'B-NP'
p1823
g5
tp1824
a(g966
g966
S'NN'
p1825
S'I-NP'
p1826
g5
tp1827
a(S'CI'
p1828
S'CI'
p1829
S'NN'
p1830
S'I-NP'
p1831
g5
tp1832
a(g71
g71
g71
g5
g5
tp1833
a(S'197'
p1834
S'197'
p1835
S'CD'
p1836
S'B-NP'
p1837
g5
tp1838
a(S'to'
p1839
S'to'
p1840
S'TO'
p1841
S'I-NP'
p1842
g5
tp1843
a(S'1002'
p1844
S'1002'
p1845
S'CD'
p1846
S'I-NP'
p1847
g5
tp1848
a(S'mm'
p1849
S'mm'
p1850
S'NN'
p1851
S'I-NP'
p1852
g5
tp1853
a(g614
g614
g614
g5
g5
tp1854
a(g83
g83
g83
g5
g5
tp1855
a(S'At'
p1856
S'At'
p1857
S'IN'
p1858
S'B-NP'
p1859
g5
tp1860
a(g1286
g1286
S'CD'
p1861
S'I-NP'
p1862
g5
tp1863
a(S'year'
p1864
S'year'
p1865
S'NN'
p1866
S'I-NP'
p1867
g5
tp1868
a(g71
g71
g71
g5
g5
tp1869
a(S'patients'
p1870
S'patient'
p1871
S'NNS'
p1872
S'B-NP'
p1873
g5
tp1874
a(S'in'
p1875
S'in'
p1876
S'IN'
p1877
S'B-PP'
p1878
g5
tp1879
a(S'the'
p1880
S'the'
p1881
S'DT'
p1882
S'B-NP'
p1883
g5
tp1884
a(S'treatment'
p1885
S'treatment'
p1886
S'NN'
p1887
S'I-NP'
p1888
g5
tp1889
a(S'group'
p1890
S'group'
p1891
S'NN'
p1892
S'I-NP'
p1893
g5
tp1894
a(S'had'
p1895
S'have'
p1896
S'VBD'
p1897
S'B-VP'
p1898
g5
tp1899
a(S'clinically'
p1900
S'clinically'
p1901
S'RB'
p1902
S'B-ADVP'
p1903
g5
tp1904
a(S'and'
p1905
S'and'
p1906
S'CC'
p1907
S'I-ADVP'
p1908
g5
tp1909
a(S'statistically'
p1910
S'statistically'
p1911
S'RB'
p1912
S'I-ADVP'
p1913
g5
tp1914
a(S'significant'
p1915
S'significant'
p1916
S'JJ'
p1917
S'B-NP'
p1918
g5
tp1919
a(S'gains'
p1920
S'gain'
p1921
S'NNS'
p1922
S'I-NP'
p1923
g5
tp1924
a(S'over'
p1925
S'over'
p1926
S'IN'
p1927
S'B-PP'
p1928
g5
tp1929
a(S'baseline'
p1930
S'baseline'
p1931
S'NN'
p1932
S'B-NP'
p1933
g5
tp1934
a(S'WOMAC'
p1935
S'WOMAC'
p1936
S'NN'
p1937
S'I-NP'
p1938
g5
tp1939
a(S'scores'
p1940
S'score'
p1941
S'NNS'
p1942
S'I-NP'
p1943
g5
tp1944
a(S'and'
p1945
S'and'
p1946
S'CC'
p1947
g5
g5
tp1948
a(S'walking'
p1949
S'walk'
p1950
S'VBG'
p1951
S'B-VP'
p1952
g5
tp1953
a(S'distance'
p1954
S'distance'
p1955
S'NN'
p1956
S'B-NP'
p1957
g5
tp1958
a(g553
g553
g554
g5
g5
tp1959
a(S'20'
p1960
S'20'
p1961
S'CD'
p1962
S'B-NP'
p1963
g5
tp1964
a(g966
g966
S'NN'
p1965
S'I-NP'
p1966
g5
tp1967
a(S'of'
p1968
S'of'
p1969
S'IN'
p1970
S'B-PP'
p1971
g5
tp1972
a(S'patients'
p1973
S'patient'
p1974
S'NNS'
p1975
S'B-NP'
p1976
g5
tp1977
a(S'in'
p1978
S'in'
p1979
S'IN'
p1980
S'B-PP'
p1981
g5
tp1982
a(S'the'
p1983
S'the'
p1984
S'DT'
p1985
S'B-NP'
p1986
g5
tp1987
a(S'placebo'
p1988
S'placebo'
p1989
S'NN'
p1990
S'I-NP'
p1991
g5
tp1992
a(S'group'
p1993
S'group'
p1994
S'NN'
p1995
S'I-NP'
p1996
g5
tp1997
a(S'and'
p1998
S'and'
p1999
S'CC'
p2000
g5
g5
tp2001
a(S'5'
p2002
g2002
S'CD'
p2003
S'B-NP'
p2004
g5
tp2005
a(g966
g966
S'NN'
p2006
S'I-NP'
p2007
g5
tp2008
a(S'of'
p2009
S'of'
p2010
S'IN'
p2011
S'B-PP'
p2012
g5
tp2013
a(S'patients'
p2014
S'patient'
p2015
S'NNS'
p2016
S'B-NP'
p2017
g5
tp2018
a(S'in'
p2019
S'in'
p2020
S'IN'
p2021
S'B-PP'
p2022
g5
tp2023
a(S'the'
p2024
S'the'
p2025
S'DT'
p2026
S'B-NP'
p2027
g5
tp2028
a(S'treatment'
p2029
S'treatment'
p2030
S'NN'
p2031
S'I-NP'
p2032
g5
tp2033
a(S'group'
p2034
S'group'
p2035
S'NN'
p2036
S'I-NP'
p2037
g5
tp2038
a(S'had'
p2039
S'have'
p2040
S'VBD'
p2041
S'B-VP'
p2042
g5
tp2043
a(S'undergone'
p2044
S'undergo'
p2045
S'VBN'
p2046
S'I-VP'
p2047
g5
tp2048
a(S'knee'
p2049
S'knee'
p2050
S'NN'
p2051
S'B-NP'
p2052
g5
tp2053
a(S'arthroplasty'
p2054
S'arthroplasty'
p2055
S'NN'
p2056
S'I-NP'
p2057
g5
tp2058
a(g83
g83
g83
g5
g5
tp2059
a(S'CONCLUSIONS'
p2060
S'CONCLUSIONS'
p2061
S'NNS'
p2062
S'B-NP'
p2063
g5
tp2064
a(g62
g62
S'DT'
p2065
S'B-NP'
p2066
g5
tp2067
a(S'combination'
p2068
S'combination'
p2069
S'NN'
p2070
S'I-NP'
p2071
g5
tp2072
a(S'of'
p2073
S'of'
p2074
S'IN'
p2075
S'B-PP'
p2076
g5
tp2077
a(S'manual'
p2078
S'manual'
p2079
S'JJ'
p2080
S'B-NP'
p2081
g5
tp2082
a(S'physical'
p2083
S'physical'
p2084
S'JJ'
p2085
S'I-NP'
p2086
g5
tp2087
a(S'therapy'
p2088
S'therapy'
p2089
S'NN'
p2090
S'I-NP'
p2091
g5
tp2092
a(S'and'
p2093
S'and'
p2094
S'CC'
p2095
g5
g5
tp2096
a(S'supervised'
p2097
S'supervise'
p2098
S'VBN'
p2099
S'B-NP'
p2100
g5
tp2101
a(S'exercise'
p2102
S'exercise'
p2103
S'NN'
p2104
S'I-NP'
p2105
g5
tp2106
a(S'yields'
p2107
S'yield'
p2108
S'VBZ'
p2109
S'B-VP'
p2110
g5
tp2111
a(S'functional'
p2112
S'functional'
p2113
S'JJ'
p2114
S'B-NP'
p2115
g5
tp2116
a(S'benefits'
p2117
S'benefit'
p2118
S'NNS'
p2119
S'I-NP'
p2120
g5
tp2121
a(S'for'
p2122
S'for'
p2123
S'IN'
p2124
S'B-PP'
p2125
g5
tp2126
a(S'patients'
p2127
S'patient'
p2128
S'NNS'
p2129
S'B-NP'
p2130
g5
tp2131
a(S'with'
p2132
S'with'
p2133
S'IN'
p2134
S'B-PP'
p2135
g5
tp2136
a(S'osteoarthritis'
p2137
S'osteoarthritis'
p2138
S'NN'
p2139
S'B-NP'
p2140
g5
tp2141
a(S'of'
p2142
S'of'
p2143
S'IN'
p2144
S'B-PP'
p2145
g5
tp2146
a(S'the'
p2147
S'the'
p2148
S'DT'
p2149
S'B-NP'
p2150
g5
tp2151
a(S'knee'
p2152
S'knee'
p2153
S'NN'
p2154
S'I-NP'
p2155
g5
tp2156
a(S'and'
p2157
S'and'
p2158
S'CC'
p2159
g5
g5
tp2160
a(S'may'
p2161
S'may'
p2162
S'MD'
p2163
S'B-VP'
p2164
g5
tp2165
a(S'delay'
p2166
S'delay'
p2167
S'VB'
p2168
S'I-VP'
p2169
g5
tp2170
a(S'or'
p2171
S'or'
p2172
S'CC'
p2173
S'I-VP'
p2174
g5
tp2175
a(S'prevent'
p2176
S'prevent'
p2177
S'VB'
p2178
S'I-VP'
p2179
g5
tp2180
a(S'the'
p2181
S'the'
p2182
S'DT'
p2183
S'B-NP'
p2184
g5
tp2185
a(S'need'
p2186
S'need'
p2187
S'NN'
p2188
S'I-NP'
p2189
g5
tp2190
a(S'for'
p2191
S'for'
p2192
S'IN'
p2193
S'B-PP'
p2194
g5
tp2195
a(S'surgical'
p2196
S'surgical'
p2197
S'JJ'
p2198
S'B-NP'
p2199
g5
tp2200
a(S'intervention'
p2201
S'intervention'
p2202
S'NN'
p2203
S'I-NP'
p2204
g5
tp2205
a(g83
g83
g83
g5
g5
tp2206
a.