(lp0
(S'['
p1
g1
S'('
p2
S'O'
p3
g3
tp4
a(S'Clinical'
p5
S'Clinical'
p6
S'JJ'
p7
S'B-NP'
p8
g3
tp9
a(S'study'
p10
S'study'
p11
S'NN'
p12
S'I-NP'
p13
g3
tp14
a(S'on'
p15
S'on'
p16
S'IN'
p17
S'B-PP'
p18
g3
tp19
a(S'dan'
p20
S'dan'
p21
S'NN'
p22
S'B-NP'
p23
g3
tp24
a(S'shao'
p25
S'shao'
p26
S'NN'
p27
S'I-NP'
p28
g3
tp29
a(S'tang'
p30
S'tang'
p31
S'NN'
p32
S'I-NP'
p33
g3
tp34
a(S'in'
p35
S'in'
p36
S'IN'
p37
S'B-PP'
p38
g3
tp39
a(S'treating'
p40
S'treat'
p41
S'VBG'
p42
S'B-VP'
p43
g3
tp44
a(S'IgA'
p45
S'IgA'
p46
S'NN'
p47
S'B-NP'
p48
S'B-protein'
p49
tp50
a(S'nephropathy'
p51
S'nephropathy'
p52
S'NN'
p53
S'I-NP'
p54
g3
tp55
a(S'of'
p56
S'of'
p57
S'IN'
p58
S'B-PP'
p59
g3
tp60
a(S'deficiency'
p61
S'deficiency'
p62
S'NN'
p63
S'B-NP'
p64
g3
tp65
a(S'of'
p66
S'of'
p67
S'IN'
p68
S'B-PP'
p69
g3
tp70
a(S'yin'
p71
S'yin'
p72
S'NN'
p73
S'B-NP'
p74
S'B-protein'
p75
tp76
a(S'with'
p77
S'with'
p78
S'IN'
p79
S'B-PP'
p80
g3
tp81
a(S'damp-heat'
p82
S'damp-heat'
p83
S'JJ'
p84
S'B-NP'
p85
g3
tp86
a(S'symptom'
p87
S'symptom'
p88
S'NN'
p89
S'I-NP'
p90
g3
tp91
a(S']'
p92
g92
S')'
p93
g3
g3
tp94
a(S'.'
p95
g95
g95
g3
g3
tp96
a(S'OBJECTIVE'
p97
S'OBJECTIVE'
p98
S'NN'
p99
S'B-NP'
p100
g3
tp101
a(S'To'
p102
S'To'
p103
S'TO'
p104
S'B-VP'
p105
g3
tp106
a(S'explore'
p107
S'explore'
p108
S'VB'
p109
S'I-VP'
p110
g3
tp111
a(S'the'
p112
S'the'
p113
S'DT'
p114
S'B-NP'
p115
g3
tp116
a(S'effect'
p117
S'effect'
p118
S'NN'
p119
S'I-NP'
p120
g3
tp121
a(S'of'
p122
S'of'
p123
S'IN'
p124
S'B-PP'
p125
g3
tp126
a(S'Dan'
p127
S'Dan'
p128
S'NNP'
p129
S'B-NP'
p130
g3
tp131
a(S'Shao'
p132
S'Shao'
p133
S'NNP'
p134
S'I-NP'
p135
g3
tp136
a(S'Tang'
p137
S'Tang'
p138
S'NNP'
p139
S'I-NP'
p140
g3
tp141
a(g2
g2
g2
g3
g3
tp142
a(S'DST'
p143
S'DST'
p144
S'NN'
p145
S'B-NP'
p146
g3
tp147
a(g93
g93
g93
g3
g3
tp148
a(S'in'
p149
S'in'
p150
S'IN'
p151
S'B-PP'
p152
g3
tp153
a(S'treating'
p154
S'treat'
p155
S'VBG'
p156
S'B-VP'
p157
g3
tp158
a(S'IgA'
p159
S'IgA'
p160
S'NN'
p161
S'B-NP'
p162
S'B-protein'
p163
tp164
a(S'nephropathy'
p165
S'nephropathy'
p166
S'NN'
p167
S'I-NP'
p168
g3
tp169
a(g2
g2
g2
g3
g3
tp170
a(S'IgAN'
p171
S'IgAN'
p172
S'NN'
p173
S'B-NP'
p174
g3
tp175
a(g93
g93
g93
g3
g3
tp176
a(S'of'
p177
S'of'
p178
S'IN'
p179
S'B-PP'
p180
g3
tp181
a(S'deficiency'
p182
S'deficiency'
p183
S'NN'
p184
S'B-NP'
p185
g3
tp186
a(S'of'
p187
S'of'
p188
S'IN'
p189
S'B-PP'
p190
g3
tp191
a(S'Yin'
p192
S'Yin'
p193
S'NN'
p194
S'B-NP'
p195
S'B-protein'
p196
tp197
a(S'with'
p198
S'with'
p199
S'IN'
p200
S'B-PP'
p201
g3
tp202
a(S'damp-heat'
p203
S'damp-heat'
p204
S'JJ'
p205
S'B-NP'
p206
g3
tp207
a(S'symptom'
p208
S'symptom'
p209
S'NN'
p210
S'I-NP'
p211
g3
tp212
a(g95
g95
g95
g3
g3
tp213
a(S'METHODS'
p214
S'METHODS'
p215
S'NNS'
p216
S'B-NP'
p217
g3
tp218
a(S'90'
p219
S'90'
p220
S'CD'
p221
S'B-NP'
p222
g3
tp223
a(S'patients'
p224
S'patient'
p225
S'NNS'
p226
S'I-NP'
p227
g3
tp228
a(S'with'
p229
S'with'
p230
S'IN'
p231
S'B-PP'
p232
g3
tp233
a(S'IgAN'
p234
S'IgAN'
p235
S'NN'
p236
S'B-NP'
p237
g3
tp238
a(S'of'
p239
S'of'
p240
S'IN'
p241
S'B-PP'
p242
g3
tp243
a(S'deficiency'
p244
S'deficiency'
p245
S'NN'
p246
S'B-NP'
p247
g3
tp248
a(S'of'
p249
S'of'
p250
S'IN'
p251
S'B-PP'
p252
g3
tp253
a(S'Yin'
p254
S'Yin'
p255
S'NN'
p256
S'B-NP'
p257
S'B-protein'
p258
tp259
a(S'with'
p260
S'with'
p261
S'IN'
p262
S'B-PP'
p263
g3
tp264
a(S'damp-heat'
p265
S'damp-heat'
p266
S'JJ'
p267
S'B-NP'
p268
g3
tp269
a(S'symptom'
p270
S'symptom'
p271
S'NN'
p272
S'I-NP'
p273
g3
tp274
a(S'were'
p275
S'be'
p276
S'VBD'
p277
S'B-VP'
p278
g3
tp279
a(S'randomly'
p280
S'randomly'
p281
S'RB'
p282
S'I-VP'
p283
g3
tp284
a(S'divided'
p285
S'divide'
p286
S'VBN'
p287
S'I-VP'
p288
g3
tp289
a(S'into'
p290
S'into'
p291
S'IN'
p292
S'B-PP'
p293
g3
tp294
a(S'two'
p295
S'two'
p296
S'CD'
p297
S'B-NP'
p298
g3
tp299
a(S'groups.'
p300
S'groups.'
p301
S'NN'
p302
S'I-NP'
p303
g3
tp304
a(S'50'
p305
S'50'
p306
S'CD'
p307
S'B-NP'
p308
g3
tp309
a(S'patients'
p310
S'patient'
p311
S'NNS'
p312
S'I-NP'
p313
g3
tp314
a(S'in'
p315
S'in'
p316
S'IN'
p317
S'B-PP'
p318
g3
tp319
a(S'treatment'
p320
S'treatment'
p321
S'NN'
p322
S'B-NP'
p323
g3
tp324
a(S'group'
p325
S'group'
p326
S'NN'
p327
S'I-NP'
p328
g3
tp329
a(S'were'
p330
S'be'
p331
S'VBD'
p332
S'B-VP'
p333
g3
tp334
a(S'treated'
p335
S'treat'
p336
S'VBN'
p337
S'I-VP'
p338
g3
tp339
a(S'with'
p340
S'with'
p341
S'IN'
p342
S'B-PP'
p343
g3
tp344
a(S'DST'
p345
S'DST'
p346
S'NN'
p347
S'B-NP'
p348
g3
tp349
a(S'and'
p350
S'and'
p351
S'CC'
p352
g3
g3
tp353
a(S'western'
p354
S'western'
p355
S'JJ'
p356
S'B-NP'
p357
g3
tp358
a(S'medicine'
p359
S'medicine'
p360
S'NN'
p361
S'I-NP'
p362
g3
tp363
a(S'and'
p364
S'and'
p365
S'CC'
p366
g3
g3
tp367
a(S'40'
p368
S'40'
p369
S'CD'
p370
S'B-NP'
p371
g3
tp372
a(S'patients'
p373
S'patient'
p374
S'NNS'
p375
S'I-NP'
p376
g3
tp377
a(S'in'
p378
S'in'
p379
S'IN'
p380
S'B-PP'
p381
g3
tp382
a(S'control'
p383
S'control'
p384
S'NN'
p385
S'B-NP'
p386
g3
tp387
a(S'group'
p388
S'group'
p389
S'NN'
p390
S'I-NP'
p391
g3
tp392
a(S'were'
p393
S'be'
p394
S'VBD'
p395
S'B-VP'
p396
g3
tp397
a(S'treated'
p398
S'treat'
p399
S'VBN'
p400
S'I-VP'
p401
g3
tp402
a(S'only'
p403
S'only'
p404
S'RB'
p405
S'B-ADVP'
p406
g3
tp407
a(S'with'
p408
S'with'
p409
S'IN'
p410
S'B-PP'
p411
g3
tp412
a(S'western'
p413
S'western'
p414
S'JJ'
p415
S'B-NP'
p416
g3
tp417
a(S'medicine.'
p418
S'medicine.'
p419
S'NN'
p420
S'I-NP'
p421
g3
tp422
a(S'The'
p423
S'The'
p424
S'DT'
p425
S'B-NP'
p426
g3
tp427
a(S'effects'
p428
S'effect'
p429
S'NNS'
p430
S'I-NP'
p431
g3
tp432
a(S'and'
p433
S'and'
p434
S'CC'
p435
S'I-NP'
p436
g3
tp437
a(S'changes'
p438
S'change'
p439
S'NNS'
p440
S'I-NP'
p441
g3
tp442
a(S'of'
p443
S'of'
p444
S'IN'
p445
S'B-PP'
p446
g3
tp447
a(S'the'
p448
S'the'
p449
S'DT'
p450
S'B-NP'
p451
g3
tp452
a(S'indexes'
p453
S'index'
p454
S'NNS'
p455
S'I-NP'
p456
g3
tp457
a(S'including'
p458
S'include'
p459
S'VBG'
p460
S'B-PP'
p461
g3
tp462
a(S'renal'
p463
S'renal'
p464
S'JJ'
p465
S'B-NP'
p466
g3
tp467
a(S'function'
p468
S'function'
p469
S'NN'
p470
S'I-NP'
p471
g3
tp472
a(S','
p473
g473
g473
g3
g3
tp474
a(S'hematuria'
p475
S'hematuria'
p476
S'NN'
p477
S'B-NP'
p478
g3
tp479
a(g473
g473
g473
g3
g3
tp480
a(S'proteinuria'
p481
S'proteinuria'
p482
S'NN'
p483
S'B-NP'
p484
g3
tp485
a(g473
g473
g473
g3
g3
tp486
a(S'blood'
p487
S'blood'
p488
S'NN'
p489
S'B-NP'
p490
g3
tp491
a(S'IgA'
p492
S'IgA'
p493
S'NN'
p494
S'I-NP'
p495
g3
tp496
a(S'before'
p497
S'before'
p498
S'IN'
p499
S'B-PP'
p500
g3
tp501
a(S'and'
p502
S'and'
p503
S'CC'
p504
S'I-PP'
p505
g3
tp506
a(S'after'
p507
S'after'
p508
S'IN'
p509
S'I-PP'
p510
g3
tp511
a(S'treatment'
p512
S'treatment'
p513
S'NN'
p514
S'B-NP'
p515
g3
tp516
a(S'were'
p517
S'be'
p518
S'VBD'
p519
S'B-VP'
p520
g3
tp521
a(S'observed'
p522
S'observe'
p523
S'VBN'
p524
S'I-VP'
p525
g3
tp526
a(g95
g95
g95
g3
g3
tp527
a(S'RESULTS'
p528
S'RESULTS'
p529
S'NNS'
p530
S'B-NP'
p531
g3
tp532
a(S'After'
p533
S'After'
p534
S'IN'
p535
S'B-PP'
p536
g3
tp537
a(S'six'
p538
S'six'
p539
S'CD'
p540
S'B-NP'
p541
g3
tp542
a(S'months'
p543
S'month'
p544
S'NNS'
p545
S'I-NP'
p546
g3
tp547
a(S'treatment'
p548
S'treatment'
p549
S'NN'
p550
S'B-NP'
p551
g3
tp552
a(g473
g473
g473
g3
g3
tp553
a(S'the'
p554
S'the'
p555
S'DT'
p556
S'B-NP'
p557
g3
tp558
a(S'general'
p559
S'general'
p560
S'JJ'
p561
S'I-NP'
p562
g3
tp563
a(S'effective'
p564
S'effective'
p565
S'JJ'
p566
S'I-NP'
p567
g3
tp568
a(S'rate'
p569
S'rate'
p570
S'NN'
p571
S'I-NP'
p572
g3
tp573
a(S'in'
p574
S'in'
p575
S'IN'
p576
S'B-PP'
p577
g3
tp578
a(S'treatment'
p579
S'treatment'
p580
S'NN'
p581
S'B-NP'
p582
g3
tp583
a(S'group'
p584
S'group'
p585
S'NN'
p586
S'I-NP'
p587
g3
tp588
a(S'was'
p589
S'be'
p590
S'VBD'
p591
S'B-VP'
p592
g3
tp593
a(S'70.00'
p594
S'70.00'
p595
S'CD'
p596
S'B-NP'
p597
g3
tp598
a(S'%'
p599
g599
S'NN'
p600
S'I-NP'
p601
g3
tp602
a(g473
g473
g473
g3
g3
tp603
a(S'which'
p604
S'which'
p605
S'WDT'
p606
S'B-NP'
p607
g3
tp608
a(S'was'
p609
S'be'
p610
S'VBD'
p611
S'B-VP'
p612
g3
tp613
a(S'markedly'
p614
S'markedly'
p615
S'RB'
p616
S'B-ADJP'
p617
g3
tp618
a(S'higher'
p619
S'high'
p620
S'JJR'
p621
S'I-ADJP'
p622
g3
tp623
a(S'than'
p624
S'than'
p625
S'IN'
p626
S'B-PP'
p627
g3
tp628
a(S'that'
p629
S'that'
p630
S'DT'
p631
S'B-NP'
p632
g3
tp633
a(S'in'
p634
S'in'
p635
S'IN'
p636
S'B-PP'
p637
g3
tp638
a(S'control'
p639
S'control'
p640
S'NN'
p641
S'B-NP'
p642
g3
tp643
a(S'group'
p644
S'group'
p645
S'NN'
p646
S'I-NP'
p647
g3
tp648
a(g2
g2
g2
g3
g3
tp649
a(S'37.50'
p650
S'37.50'
p651
S'CD'
p652
S'B-NP'
p653
g3
tp654
a(g599
g599
S'NN'
p655
S'I-NP'
p656
g3
tp657
a(g473
g473
g473
g3
g3
tp658
a(S'P'
p659
g659
S'NN'
p660
S'B-NP'
p661
g3
tp662
a(S'<'
p663
g663
S'SYM'
p664
S'B-NP'
p665
g3
tp666
a(S'0.01'
p667
S'0.01'
p668
S'CD'
p669
S'I-NP'
p670
g3
tp671
a(g93
g93
g93
g3
g3
tp672
a(g95
g95
g95
g3
g3
tp673
a(S'Treatment'
p674
S'Treatment'
p675
S'NN'
p676
S'B-NP'
p677
g3
tp678
a(S'group'
p679
S'group'
p680
S'NN'
p681
S'I-NP'
p682
g3
tp683
a(S'is'
p684
S'be'
p685
S'VBZ'
p686
S'B-VP'
p687
g3
tp688
a(S'obviously'
p689
S'obviously'
p690
S'RB'
p691
S'B-ADJP'
p692
g3
tp693
a(S'better'
p694
S'good'
p695
S'JJR'
p696
S'I-ADJP'
p697
g3
tp698
a(S'than'
p699
S'than'
p700
S'IN'
p701
S'B-PP'
p702
g3
tp703
a(S'control'
p704
S'control'
p705
S'NN'
p706
S'B-NP'
p707
g3
tp708
a(S'group'
p709
S'group'
p710
S'NN'
p711
S'I-NP'
p712
g3
tp713
a(S'on'
p714
S'on'
p715
S'IN'
p716
S'B-PP'
p717
g3
tp718
a(S'decreasing'
p719
S'decrease'
p720
S'VBG'
p721
S'B-VP'
p722
g3
tp723
a(S'hematuria'
p724
S'hematuria'
p725
S'NN'
p726
S'B-NP'
p727
g3
tp728
a(g473
g473
g473
g3
g3
tp729
a(S'proteinuria'
p730
S'proteinuria'
p731
S'NN'
p732
S'B-NP'
p733
g3
tp734
a(g473
g473
g473
g3
g3
tp735
a(S'blood'
p736
S'blood'
p737
S'NN'
p738
S'B-NP'
p739
g3
tp740
a(S'IgA'
p741
S'IgA'
p742
S'NN'
p743
S'I-NP'
p744
g3
tp745
a(S'and'
p746
S'and'
p747
S'CC'
p748
g3
g3
tp749
a(S'improving'
p750
S'improve'
p751
S'VBG'
p752
S'B-VP'
p753
g3
tp754
a(S'renal'
p755
S'renal'
p756
S'JJ'
p757
S'B-NP'
p758
g3
tp759
a(S'function'
p760
S'function'
p761
S'NN'
p762
S'I-NP'
p763
g3
tp764
a(g2
g2
g2
g3
g3
tp765
a(g659
g659
S'NN'
p766
S'B-NP'
p767
g3
tp768
a(g663
g663
S'SYM'
p769
g3
g3
tp770
a(S'0.05'
p771
S'0.05'
p772
S'CD'
p773
S'B-NP'
p774
g3
tp775
a(g93
g93
g93
g3
g3
tp776
a(g95
g95
g95
g3
g3
tp777
a(S'CONCLUSION'
p778
S'CONCLUSION'
p779
S'NN'
p780
S'B-NP'
p781
g3
tp782
a(S'DST'
p783
S'DST'
p784
S'NN'
p785
S'I-NP'
p786
g3
tp787
a(S'is'
p788
S'be'
p789
S'VBZ'
p790
S'B-VP'
p791
g3
tp792
a(S'effective'
p793
S'effective'
p794
S'JJ'
p795
S'B-ADJP'
p796
g3
tp797
a(S'on'
p798
S'on'
p799
S'IN'
p800
S'B-PP'
p801
g3
tp802
a(S'IgAN'
p803
S'IgAN'
p804
S'NN'
p805
S'B-NP'
p806
g3
tp807
a(S'of'
p808
S'of'
p809
S'IN'
p810
S'B-PP'
p811
g3
tp812
a(S'deficiency'
p813
S'deficiency'
p814
S'NN'
p815
S'B-NP'
p816
g3
tp817
a(S'of'
p818
S'of'
p819
S'IN'
p820
S'B-PP'
p821
g3
tp822
a(S'Yin'
p823
S'Yin'
p824
S'NN'
p825
S'B-NP'
p826
S'B-protein'
p827
tp828
a(S'with'
p829
S'with'
p830
S'IN'
p831
S'B-PP'
p832
g3
tp833
a(S'damp-heat'
p834
S'damp-heat'
p835
S'JJ'
p836
S'B-NP'
p837
g3
tp838
a(S'symptom'
p839
S'symptom'
p840
S'NN'
p841
S'I-NP'
p842
g3
tp843
a(g95
g95
g95
g3
g3
tp844
a.