(lp0
(S'['
p1
g1
S'('
p2
S'O'
p3
g3
tp4
a(S'Results'
p5
S'Result'
p6
S'NNS'
p7
S'B-NP'
p8
g3
tp9
a(S'of'
p10
S'of'
p11
S'IN'
p12
S'B-PP'
p13
g3
tp14
a(S'three-year'
p15
S'three-year'
p16
S'JJ'
p17
S'B-NP'
p18
g3
tp19
a(S'clinical'
p20
S'clinical'
p21
S'JJ'
p22
S'I-NP'
p23
g3
tp24
a(S'study'
p25
S'study'
p26
S'NN'
p27
S'I-NP'
p28
g3
tp29
a(S'of'
p30
S'of'
p31
S'IN'
p32
S'B-PP'
p33
g3
tp34
a(S'prostamol'
p35
S'prostamol'
p36
S'NN'
p37
S'B-NP'
p38
g3
tp39
a(S'uno'
p40
S'uno'
p41
S'NN'
p42
S'I-NP'
p43
g3
tp44
a(S'efficacy'
p45
S'efficacy'
p46
S'NN'
p47
S'I-NP'
p48
g3
tp49
a(S'and'
p50
S'and'
p51
S'CC'
p52
g3
g3
tp53
a(S'safety'
p54
S'safety'
p55
S'NN'
p56
S'B-NP'
p57
g3
tp58
a(S'in'
p59
S'in'
p60
S'IN'
p61
S'B-PP'
p62
g3
tp63
a(S'patients'
p64
S'patient'
p65
S'NNS'
p66
S'B-NP'
p67
g3
tp68
a(S'with'
p69
S'with'
p70
S'IN'
p71
S'B-PP'
p72
g3
tp73
a(S'initial'
p74
S'initial'
p75
S'JJ'
p76
S'B-NP'
p77
g3
tp78
a(S'symptoms'
p79
S'symptom'
p80
S'NNS'
p81
S'I-NP'
p82
g3
tp83
a(S'of'
p84
S'of'
p85
S'IN'
p86
S'B-PP'
p87
g3
tp88
a(S'prostatic'
p89
S'prostatic'
p90
S'JJ'
p91
S'B-NP'
p92
g3
tp93
a(S'adenoma'
p94
S'adenoma'
p95
S'NN'
p96
S'I-NP'
p97
g3
tp98
a(S'and'
p99
S'and'
p100
S'CC'
p101
S'I-NP'
p102
g3
tp103
a(S'risk'
p104
S'risk'
p105
S'NN'
p106
S'I-NP'
p107
g3
tp108
a(S'of'
p109
S'of'
p110
S'IN'
p111
S'B-PP'
p112
g3
tp113
a(S'its'
p114
S'its'
p115
S'PRP$'
p116
S'B-NP'
p117
g3
tp118
a(S'progression'
p119
S'progression'
p120
S'NN'
p121
S'I-NP'
p122
g3
tp123
a(S']'
p124
g124
S')'
p125
g3
g3
tp126
a(S'.'
p127
g127
g127
g3
g3
tp128
a(S'Prostamol'
p129
S'Prostamol'
p130
S'NN'
p131
S'B-NP'
p132
g3
tp133
a(S'Uno'
p134
S'Uno'
p135
S'NN'
p136
S'I-NP'
p137
g3
tp138
a(g2
g2
g2
g3
g3
tp139
a(S'PU'
p140
S'PU'
p141
S'NN'
p142
S'B-NP'
p143
g3
tp144
a(g125
g125
g125
g3
g3
tp145
a(S'efficacy'
p146
S'efficacy'
p147
S'NN'
p148
S'B-NP'
p149
g3
tp150
a(S'and'
p151
S'and'
p152
S'CC'
p153
S'I-NP'
p154
g3
tp155
a(S'safety'
p156
S'safety'
p157
S'NN'
p158
S'I-NP'
p159
g3
tp160
a(S'were'
p161
S'be'
p162
S'VBD'
p163
S'B-VP'
p164
g3
tp165
a(S'studied'
p166
S'study'
p167
S'VBN'
p168
S'I-VP'
p169
g3
tp170
a(S'in'
p171
S'in'
p172
S'IN'
p173
S'B-PP'
p174
g3
tp175
a(S'a'
p176
g176
S'DT'
p177
S'B-NP'
p178
g3
tp179
a(S'multicenter'
p180
S'multicenter'
p181
S'NN'
p182
S'I-NP'
p183
g3
tp184
a(S','
p185
g185
g185
g3
g3
tp186
a(S'open-population'
p187
S'open-population'
p188
S'NN'
p189
S'B-NP'
p190
g3
tp191
a(g185
g185
g185
g3
g3
tp192
a(S'randomized'
p193
S'randomize'
p194
S'VBN'
p195
S'B-VP'
p196
g3
tp197
a(S'and'
p198
S'and'
p199
S'CC'
p200
g3
g3
tp201
a(S'comparative'
p202
S'comparative'
p203
S'JJ'
p204
S'B-NP'
p205
g3
tp206
a(S'trial.'
p207
S'trial.'
p208
S'NN'
p209
S'I-NP'
p210
g3
tp211
a(S'PU'
p212
S'PU'
p213
S'NN'
p214
S'I-NP'
p215
g3
tp216
a(S'was'
p217
S'be'
p218
S'VBD'
p219
S'B-VP'
p220
g3
tp221
a(S'given'
p222
S'give'
p223
S'VBN'
p224
S'I-VP'
p225
g3
tp226
a(S'in'
p227
S'in'
p228
S'IN'
p229
S'B-PP'
p230
g3
tp231
a(g176
g176
S'DT'
p232
S'B-NP'
p233
g3
tp234
a(S'single'
p235
S'single'
p236
S'JJ'
p237
S'I-NP'
p238
g3
tp239
a(S'daily'
p240
S'daily'
p241
S'JJ'
p242
S'I-NP'
p243
g3
tp244
a(S'dose'
p245
S'dose'
p246
S'NN'
p247
S'I-NP'
p248
g3
tp249
a(S'320'
p250
S'320'
p251
S'CD'
p252
S'I-NP'
p253
g3
tp254
a(S'mg'
p255
S'mg'
p256
S'NN'
p257
S'I-NP'
p258
g3
tp259
a(S'for'
p260
S'for'
p261
S'IN'
p262
S'B-PP'
p263
g3
tp264
a(S'36'
p265
S'36'
p266
S'CD'
p267
S'B-NP'
p268
g3
tp269
a(S'months'
p270
S'month'
p271
S'NNS'
p272
S'I-NP'
p273
g3
tp274
a(S'to'
p275
S'to'
p276
S'TO'
p277
S'B-PP'
p278
g3
tp279
a(S'50'
p280
S'50'
p281
S'CD'
p282
S'B-NP'
p283
g3
tp284
a(S'patients'
p285
S'patient'
p286
S'NNS'
p287
S'I-NP'
p288
g3
tp289
a(S'with'
p290
S'with'
p291
S'IN'
p292
S'B-PP'
p293
g3
tp294
a(S'initial'
p295
S'initial'
p296
S'JJ'
p297
S'B-NP'
p298
g3
tp299
a(S'symptoms'
p300
S'symptom'
p301
S'NNS'
p302
S'I-NP'
p303
g3
tp304
a(S'of'
p305
S'of'
p306
S'IN'
p307
S'B-PP'
p308
g3
tp309
a(S'prostatic'
p310
S'prostatic'
p311
S'JJ'
p312
S'B-NP'
p313
g3
tp314
a(S'adenoma'
p315
S'adenoma'
p316
S'NN'
p317
S'I-NP'
p318
g3
tp319
a(g2
g2
g2
g3
g3
tp320
a(S'PA'
p321
S'PA'
p322
S'NN'
p323
S'B-NP'
p324
g3
tp325
a(g125
g125
g125
g3
g3
tp326
a(S'in'
p327
S'in'
p328
S'IN'
p329
S'B-PP'
p330
g3
tp331
a(S'comparison'
p332
S'comparison'
p333
S'NN'
p334
S'B-NP'
p335
g3
tp336
a(S'with'
p337
S'with'
p338
S'IN'
p339
S'B-PP'
p340
g3
tp341
a(S'50'
p342
S'50'
p343
S'CD'
p344
S'B-NP'
p345
g3
tp346
a(S'matched'
p347
S'match'
p348
S'VBN'
p349
S'B-VP'
p350
g3
tp351
a(S'controls.'
p352
S'controls.'
p353
S'VBP'
p354
S'B-VP'
p355
g3
tp356
a(S'The'
p357
S'The'
p358
S'DT'
p359
S'B-NP'
p360
g3
tp361
a(S'trial'
p362
S'trial'
p363
S'NN'
p364
S'I-NP'
p365
g3
tp366
a(S'evaluated'
p367
S'evaluate'
p368
S'VBD'
p369
S'B-VP'
p370
g3
tp371
a(S'PU'
p372
S'PU'
p373
S'NN'
p374
S'B-NP'
p375
g3
tp376
a(S'action'
p377
S'action'
p378
S'NN'
p379
S'I-NP'
p380
g3
tp381
a(S'on'
p382
S'on'
p383
S'IN'
p384
S'B-PP'
p385
g3
tp386
a(S'the'
p387
S'the'
p388
S'DT'
p389
S'B-NP'
p390
g3
tp391
a(S'symptoms'
p392
S'symptom'
p393
S'NNS'
p394
S'I-NP'
p395
g3
tp396
a(S'progression'
p397
S'progression'
p398
S'NN'
p399
S'I-NP'
p400
g3
tp401
a(S'and'
p402
S'and'
p403
S'CC'
p404
g3
g3
tp405
a(S'quality'
p406
S'quality'
p407
S'NN'
p408
S'B-NP'
p409
g3
tp410
a(S'of'
p411
S'of'
p412
S'IN'
p413
S'B-PP'
p414
g3
tp415
a(S'life'
p416
S'life'
p417
S'NN'
p418
S'B-NP'
p419
g3
tp420
a(S'with'
p421
S'with'
p422
S'IN'
p423
S'B-PP'
p424
g3
tp425
a(S'application'
p426
S'application'
p427
S'NN'
p428
S'B-NP'
p429
g3
tp430
a(S'of'
p431
S'of'
p432
S'IN'
p433
S'B-PP'
p434
g3
tp435
a(S'questionnaires'
p436
S'questionnaire'
p437
S'NNS'
p438
S'B-NP'
p439
g3
tp440
a(S'IPSS'
p441
S'IPSS'
p442
S'NN'
p443
S'I-NP'
p444
g3
tp445
a(S'and'
p446
S'and'
p447
S'CC'
p448
g3
g3
tp449
a(S'QoL'
p450
S'QoL'
p451
S'NN'
p452
S'B-NP'
p453
g3
tp454
a(g2
g2
g2
g3
g3
tp455
a(S'BS'
p456
S'BS'
p457
S'NN'
p458
S'B-NP'
p459
g3
tp460
a(g125
g125
g125
g3
g3
tp461
a(g127
g127
g127
g3
g3
tp462
a(S'It'
p463
S'It'
p464
S'PRP'
p465
S'B-NP'
p466
g3
tp467
a(S'was'
p468
S'be'
p469
S'VBD'
p470
S'B-VP'
p471
g3
tp472
a(S'found'
p473
S'find'
p474
S'VBN'
p475
S'I-VP'
p476
g3
tp477
a(S'that'
p478
S'that'
p479
S'IN'
p480
S'B-SBAR'
p481
g3
tp482
a(S'PU'
p483
S'PU'
p484
S'NN'
p485
S'B-NP'
p486
g3
tp487
a(S'treatment'
p488
S'treatment'
p489
S'NN'
p490
S'I-NP'
p491
g3
tp492
a(S'relieved'
p493
S'relieve'
p494
S'VBD'
p495
S'B-VP'
p496
g3
tp497
a(S'PA'
p498
S'PA'
p499
S'NN'
p500
S'B-NP'
p501
g3
tp502
a(S'symptoms'
p503
S'symptom'
p504
S'NNS'
p505
S'I-NP'
p506
g3
tp507
a(S'by'
p508
S'by'
p509
S'IN'
p510
S'B-PP'
p511
g3
tp512
a(S'IPSS'
p513
S'IPSS'
p514
S'NN'
p515
S'B-NP'
p516
S'B-protein'
p517
tp518
a(g185
g185
g185
g3
g3
tp519
a(S'while'
p520
S'while'
p521
S'IN'
p522
S'B-SBAR'
p523
g3
tp524
a(S'these'
p525
S'these'
p526
S'DT'
p527
S'B-NP'
p528
g3
tp529
a(S'symptoms'
p530
S'symptom'
p531
S'NNS'
p532
S'I-NP'
p533
g3
tp534
a(S'progressed'
p535
S'progress'
p536
S'VBD'
p537
S'B-VP'
p538
g3
tp539
a(S'in'
p540
S'in'
p541
S'IN'
p542
S'B-PP'
p543
g3
tp544
a(S'the'
p545
S'the'
p546
S'DT'
p547
S'B-NP'
p548
g3
tp549
a(S'controls.'
p550
S'controls.'
p551
S'NN'
p552
S'I-NP'
p553
g3
tp554
a(S'QoL'
p555
S'QoL'
p556
S'NN'
p557
S'I-NP'
p558
g3
tp559
a(S'improved'
p560
S'improve'
p561
S'VBN'
p562
S'B-VP'
p563
g3
tp564
a(S'in'
p565
S'in'
p566
S'IN'
p567
S'B-PP'
p568
g3
tp569
a(S'the'
p570
S'the'
p571
S'DT'
p572
S'B-NP'
p573
g3
tp574
a(S'study'
p575
S'study'
p576
S'NN'
p577
S'I-NP'
p578
g3
tp579
a(S'group'
p580
S'group'
p581
S'NN'
p582
S'I-NP'
p583
g3
tp584
a(S'and'
p585
S'and'
p586
S'CC'
p587
g3
g3
tp588
a(S'deteriorated'
p589
S'deteriorate'
p590
S'VBN'
p591
S'B-VP'
p592
g3
tp593
a(S'in'
p594
S'in'
p595
S'IN'
p596
S'B-PP'
p597
g3
tp598
a(S'the'
p599
S'the'
p600
S'DT'
p601
S'B-NP'
p602
g3
tp603
a(S'control'
p604
S'control'
p605
S'NN'
p606
S'I-NP'
p607
g3
tp608
a(S'one.'
p609
S'one.'
p610
S'CD'
p611
S'I-NP'
p612
g3
tp613
a(S'Administration'
p614
S'Administration'
p615
S'NN'
p616
S'I-NP'
p617
g3
tp618
a(S'of'
p619
S'of'
p620
S'IN'
p621
S'B-PP'
p622
g3
tp623
a(S'PU'
p624
S'PU'
p625
S'NN'
p626
S'B-NP'
p627
g3
tp628
a(S'significantly'
p629
S'significantly'
p630
S'RB'
p631
S'B-ADVP'
p632
g3
tp633
a(S'increased'
p634
S'increase'
p635
S'VBD'
p636
S'B-VP'
p637
g3
tp638
a(S'urinary'
p639
S'urinary'
p640
S'JJ'
p641
S'B-NP'
p642
g3
tp643
a(S'flow'
p644
S'flow'
p645
S'NN'
p646
S'I-NP'
p647
g3
tp648
a(S'rate'
p649
S'rate'
p650
S'NN'
p651
S'I-NP'
p652
g3
tp653
a(S'though'
p654
S'though'
p655
S'IN'
p656
S'B-SBAR'
p657
g3
tp658
a(S'in'
p659
S'in'
p660
S'IN'
p661
S'B-PP'
p662
g3
tp663
a(S'the'
p664
S'the'
p665
S'DT'
p666
S'B-NP'
p667
g3
tp668
a(S'controls'
p669
S'control'
p670
S'NNS'
p671
S'I-NP'
p672
g3
tp673
a(S'urinary'
p674
S'urinary'
p675
S'JJ'
p676
S'B-NP'
p677
g3
tp678
a(S'flow'
p679
S'flow'
p680
S'NN'
p681
S'I-NP'
p682
g3
tp683
a(S'rate'
p684
S'rate'
p685
S'NN'
p686
S'I-NP'
p687
g3
tp688
a(S'decreased'
p689
S'decrease'
p690
S'VBD'
p691
S'B-VP'
p692
g3
tp693
a(g185
g185
g185
g3
g3
tp694
a(S'size'
p695
S'size'
p696
S'NN'
p697
S'B-NP'
p698
g3
tp699
a(S'of'
p700
S'of'
p701
S'IN'
p702
S'B-PP'
p703
g3
tp704
a(S'the'
p705
S'the'
p706
S'DT'
p707
S'B-NP'
p708
g3
tp709
a(S'prostate'
p710
S'prostate'
p711
S'NN'
p712
S'I-NP'
p713
g3
tp714
a(S'diminished'
p715
S'diminish'
p716
S'VBD'
p717
S'B-VP'
p718
g3
tp719
a(S'and'
p720
S'and'
p721
S'CC'
p722
S'I-VP'
p723
g3
tp724
a(S'increased'
p725
S'increase'
p726
S'VBD'
p727
S'I-VP'
p728
g3
tp729
a(g185
g185
g185
g3
g3
tp730
a(S'respectively.'
p731
S'respectively.'
p732
S'NN'
p733
S'B-NP'
p734
g3
tp735
a(S'Changes'
p736
S'Change'
p737
S'NNS'
p738
S'I-NP'
p739
g3
tp740
a(S'in'
p741
S'in'
p742
S'IN'
p743
S'B-PP'
p744
g3
tp745
a(S'the'
p746
S'the'
p747
S'DT'
p748
S'B-NP'
p749
g3
tp750
a(S'PSA'
p751
S'PSA'
p752
S'NN'
p753
S'I-NP'
p754
S'B-protein'
p755
tp756
a(S'were'
p757
S'be'
p758
S'VBD'
p759
S'B-VP'
p760
g3
tp761
a(S'not'
p762
S'not'
p763
S'RB'
p764
S'I-VP'
p765
g3
tp766
a(S'seen'
p767
S'see'
p768
S'VBN'
p769
S'I-VP'
p770
g3
tp771
a(S'and'
p772
S'and'
p773
S'CC'
p774
g3
g3
tp775
a(S'were'
p776
S'be'
p777
S'VBD'
p778
S'B-VP'
p779
g3
tp780
a(S'insignificant'
p781
S'insignificant'
p782
S'JJ'
p783
S'B-ADJP'
p784
g3
tp785
a(g185
g185
g185
g3
g3
tp786
a(S'respectively.'
p787
S'respectively.'
p788
S'VB'
p789
S'B-VP'
p790
g3
tp791
a(S'The'
p792
S'The'
p793
S'DT'
p794
S'B-NP'
p795
g3
tp796
a(S'results'
p797
S'result'
p798
S'NNS'
p799
S'I-NP'
p800
g3
tp801
a(S'of'
p802
S'of'
p803
S'IN'
p804
S'B-PP'
p805
g3
tp806
a(S'the'
p807
S'the'
p808
S'DT'
p809
S'B-NP'
p810
g3
tp811
a(S'study'
p812
S'study'
p813
S'NN'
p814
S'I-NP'
p815
g3
tp816
a(S'say'
p817
S'say'
p818
S'VBP'
p819
S'B-VP'
p820
g3
tp821
a(S'that'
p822
S'that'
p823
S'IN'
p824
S'B-SBAR'
p825
g3
tp826
a(S'prostamol'
p827
S'prostamol'
p828
S'NN'
p829
S'B-NP'
p830
g3
tp831
a(S'Uno'
p832
S'Uno'
p833
S'NNP'
p834
S'I-NP'
p835
g3
tp836
a(S'in'
p837
S'in'
p838
S'IN'
p839
S'B-PP'
p840
g3
tp841
a(g176
g176
S'DT'
p842
S'B-NP'
p843
g3
tp844
a(S'dose'
p845
S'dose'
p846
S'NN'
p847
S'I-NP'
p848
g3
tp849
a(S'320'
p850
S'320'
p851
S'CD'
p852
S'I-NP'
p853
g3
tp854
a(S'mg/day'
p855
S'mg/day'
p856
S'NN'
p857
S'I-NP'
p858
g3
tp859
a(S'can'
p860
S'can'
p861
S'MD'
p862
S'B-VP'
p863
g3
tp864
a(S'prevent'
p865
S'prevent'
p866
S'VB'
p867
S'I-VP'
p868
g3
tp869
a(S'PA'
p870
S'PA'
p871
S'NN'
p872
S'B-NP'
p873
g3
tp874
a(S'progression'
p875
S'progression'
p876
S'NN'
p877
S'I-NP'
p878
g3
tp879
a(S'without'
p880
S'without'
p881
S'IN'
p882
S'B-PP'
p883
g3
tp884
a(S'side'
p885
S'side'
p886
S'NN'
p887
S'B-NP'
p888
g3
tp889
a(S'effects'
p890
S'effect'
p891
S'NNS'
p892
S'I-NP'
p893
g3
tp894
a(g127
g127
g127
g3
g3
tp895
a.