(lp0
(S'The'
p1
S'The'
p2
S'DT'
p3
S'B-NP'
p4
S'O'
p5
tp6
a(S'Social'
p7
S'Social'
p8
S'NNP'
p9
S'I-NP'
p10
g5
tp11
a(S'Communication'
p12
S'Communication'
p13
S'NNP'
p14
S'I-NP'
p15
g5
tp16
a(S'Intervention'
p17
S'Intervention'
p18
S'NNP'
p19
S'I-NP'
p20
g5
tp21
a(S'Project'
p22
S'Project'
p23
S'NNP'
p24
S'I-NP'
p25
g5
tp26
a(S':'
p27
g27
g27
g5
g5
tp28
a(S'a'
p29
g29
S'DT'
p30
S'B-NP'
p31
g5
tp32
a(S'randomized'
p33
S'randomize'
p34
S'VBN'
p35
S'I-NP'
p36
g5
tp37
a(S'controlled'
p38
S'control'
p39
S'VBN'
p40
S'I-NP'
p41
g5
tp42
a(S'trial'
p43
S'trial'
p44
S'NN'
p45
S'I-NP'
p46
g5
tp47
a(S'of'
p48
S'of'
p49
S'IN'
p50
S'B-PP'
p51
g5
tp52
a(S'the'
p53
S'the'
p54
S'DT'
p55
S'B-NP'
p56
g5
tp57
a(S'effectiveness'
p58
S'effectiveness'
p59
S'NN'
p60
S'I-NP'
p61
g5
tp62
a(S'of'
p63
S'of'
p64
S'IN'
p65
S'B-PP'
p66
g5
tp67
a(S'speech'
p68
S'speech'
p69
S'NN'
p70
S'B-NP'
p71
g5
tp72
a(S'and'
p73
S'and'
p74
S'CC'
p75
S'I-NP'
p76
g5
tp77
a(S'language'
p78
S'language'
p79
S'NN'
p80
S'I-NP'
p81
g5
tp82
a(S'therapy'
p83
S'therapy'
p84
S'NN'
p85
S'I-NP'
p86
g5
tp87
a(S'for'
p88
S'for'
p89
S'IN'
p90
S'B-PP'
p91
g5
tp92
a(S'school-age'
p93
S'school-age'
p94
S'JJ'
p95
S'B-NP'
p96
g5
tp97
a(S'children'
p98
S'child'
p99
S'NNS'
p100
S'I-NP'
p101
g5
tp102
a(S'who'
p103
S'who'
p104
S'WP'
p105
S'B-NP'
p106
g5
tp107
a(S'have'
p108
S'have'
p109
S'VBP'
p110
S'B-VP'
p111
g5
tp112
a(S'pragmatic'
p113
S'pragmatic'
p114
S'JJ'
p115
S'B-NP'
p116
g5
tp117
a(S'and'
p118
S'and'
p119
S'CC'
p120
S'I-NP'
p121
g5
tp122
a(S'social'
p123
S'social'
p124
S'JJ'
p125
S'I-NP'
p126
g5
tp127
a(S'communication'
p128
S'communication'
p129
S'NN'
p130
S'I-NP'
p131
g5
tp132
a(S'problems'
p133
S'problem'
p134
S'NNS'
p135
S'I-NP'
p136
g5
tp137
a(S'with'
p138
S'with'
p139
S'IN'
p140
S'B-PP'
p141
g5
tp142
a(S'or'
p143
S'or'
p144
S'CC'
p145
S'B-PP'
p146
g5
tp147
a(S'without'
p148
S'without'
p149
S'IN'
p150
S'B-PP'
p151
g5
tp152
a(S'autism'
p153
S'autism'
p154
S'NN'
p155
S'B-NP'
p156
g5
tp157
a(S'spectrum'
p158
S'spectrum'
p159
S'NN'
p160
S'I-NP'
p161
g5
tp162
a(S'disorder'
p163
S'disorder'
p164
S'NN'
p165
S'I-NP'
p166
g5
tp167
a(S'.'
p168
g168
g168
g5
g5
tp169
a(S'BACKGROUND'
p170
S'BACKGROUND'
p171
S'NN'
p172
S'B-NP'
p173
g5
tp174
a(S'Children'
p175
S'Child'
p176
S'NNS'
p177
S'I-NP'
p178
g5
tp179
a(S'who'
p180
S'who'
p181
S'WP'
p182
S'B-NP'
p183
g5
tp184
a(S'show'
p185
S'show'
p186
S'VBP'
p187
S'B-VP'
p188
g5
tp189
a(S'disproportionate'
p190
S'disproportionate'
p191
S'JJ'
p192
S'B-NP'
p193
g5
tp194
a(S'difficulty'
p195
S'difficulty'
p196
S'NN'
p197
S'I-NP'
p198
g5
tp199
a(S'with'
p200
S'with'
p201
S'IN'
p202
S'B-PP'
p203
g5
tp204
a(S'the'
p205
S'the'
p206
S'DT'
p207
S'B-NP'
p208
g5
tp209
a(S'pragmatic'
p210
S'pragmatic'
p211
S'JJ'
p212
S'I-NP'
p213
g5
tp214
a(S'as'
p215
S'as'
p216
S'IN'
p217
S'B-PP'
p218
g5
tp219
a(S'compared'
p220
S'compare'
p221
S'VBN'
p222
S'B-PP'
p223
g5
tp224
a(S'with'
p225
S'with'
p226
S'IN'
p227
S'B-PP'
p228
g5
tp229
a(S'the'
p230
S'the'
p231
S'DT'
p232
S'B-NP'
p233
g5
tp234
a(S'structural'
p235
S'structural'
p236
S'JJ'
p237
S'I-NP'
p238
g5
tp239
a(S'aspects'
p240
S'aspect'
p241
S'NNS'
p242
S'I-NP'
p243
g5
tp244
a(S'of'
p245
S'of'
p246
S'IN'
p247
S'B-PP'
p248
g5
tp249
a(S'language'
p250
S'language'
p251
S'NN'
p252
S'B-NP'
p253
g5
tp254
a(S'are'
p255
S'be'
p256
S'VBP'
p257
S'B-VP'
p258
g5
tp259
a(S'described'
p260
S'describe'
p261
S'VBN'
p262
S'I-VP'
p263
g5
tp264
a(S'as'
p265
S'as'
p266
S'IN'
p267
S'B-PP'
p268
g5
tp269
a(S'having'
p270
S'have'
p271
S'VBG'
p272
S'B-VP'
p273
g5
tp274
a(S'pragmatic'
p275
S'pragmatic'
p276
S'JJ'
p277
S'B-NP'
p278
g5
tp279
a(S'language'
p280
S'language'
p281
S'NN'
p282
S'I-NP'
p283
g5
tp284
a(S'impairment'
p285
S'impairment'
p286
S'NN'
p287
S'I-NP'
p288
g5
tp289
a(S'('
p290
g290
g290
g5
g5
tp291
a(S'PLI'
p292
S'PLI'
p293
S'NN'
p294
S'B-NP'
p295
S'B-protein'
p296
tp297
a(S')'
p298
g298
g298
g5
g5
tp299
a(S'or'
p300
S'or'
p301
S'CC'
p302
g5
g5
tp303
a(S'social'
p304
S'social'
p305
S'JJ'
p306
S'B-NP'
p307
g5
tp308
a(S'communication'
p309
S'communication'
p310
S'NN'
p311
S'I-NP'
p312
g5
tp313
a(S'disorder'
p314
S'disorder'
p315
S'NN'
p316
S'I-NP'
p317
g5
tp318
a(g290
g290
g290
g5
g5
tp319
a(S'SCD'
p320
S'SCD'
p321
S'NN'
p322
S'B-NP'
p323
g5
tp324
a(g298
g298
g298
g5
g5
tp325
a(g168
g168
g168
g5
g5
tp326
a(S'Some'
p327
S'Some'
p328
S'DT'
p329
S'B-NP'
p330
g5
tp331
a(S'children'
p332
S'child'
p333
S'NNS'
p334
S'I-NP'
p335
g5
tp336
a(S'who'
p337
S'who'
p338
S'WP'
p339
S'B-NP'
p340
g5
tp341
a(S'have'
p342
S'have'
p343
S'VBP'
p344
S'B-VP'
p345
g5
tp346
a(S'PLI'
p347
S'PLI'
p348
S'NN'
p349
S'B-NP'
p350
S'B-protein'
p351
tp352
a(S'also'
p353
S'also'
p354
S'RB'
p355
S'B-ADVP'
p356
g5
tp357
a(S'show'
p358
S'show'
p359
S'VBP'
p360
S'B-VP'
p361
g5
tp362
a(S'mild'
p363
S'mild'
p364
S'JJ'
p365
S'B-NP'
p366
g5
tp367
a(S'social'
p368
S'social'
p369
S'JJ'
p370
S'I-NP'
p371
g5
tp372
a(S'impairments'
p373
S'impairment'
p374
S'NNS'
p375
S'I-NP'
p376
g5
tp377
a(S'associated'
p378
S'associate'
p379
S'VBN'
p380
S'B-VP'
p381
g5
tp382
a(S'with'
p383
S'with'
p384
S'IN'
p385
S'B-PP'
p386
g5
tp387
a(S'high-functioning'
p388
S'high-functioning'
p389
S'JJ'
p390
S'B-NP'
p391
g5
tp392
a(S'autism'
p393
S'autism'
p394
S'NN'
p395
S'I-NP'
p396
g5
tp397
a(S'or'
p398
S'or'
p399
S'CC'
p400
S'I-NP'
p401
g5
tp402
a(S'autism'
p403
S'autism'
p404
S'NN'
p405
S'I-NP'
p406
g5
tp407
a(S'spectrum'
p408
S'spectrum'
p409
S'NN'
p410
S'I-NP'
p411
g5
tp412
a(S'disorder'
p413
S'disorder'
p414
S'NN'
p415
S'I-NP'
p416
g5
tp417
a(g290
g290
g290
g5
g5
tp418
a(S'ASD'
p419
S'ASD'
p420
S'NN'
p421
S'B-NP'
p422
g5
tp423
a(g298
g298
g298
g5
g5
tp424
a(g168
g168
g168
g5
g5
tp425
a(S'There'
p426
S'There'
p427
S'EX'
p428
S'B-NP'
p429
g5
tp430
a(S'is'
p431
S'be'
p432
S'VBZ'
p433
S'B-VP'
p434
g5
tp435
a(S'little'
p436
S'little'
p437
S'JJ'
p438
S'B-NP'
p439
g5
tp440
a(S'robust'
p441
S'robust'
p442
S'JJ'
p443
S'I-NP'
p444
g5
tp445
a(S'evidence'
p446
S'evidence'
p447
S'NN'
p448
S'I-NP'
p449
g5
tp450
a(S'of'
p451
S'of'
p452
S'IN'
p453
S'B-PP'
p454
g5
tp455
a(S'effectiveness'
p456
S'effectiveness'
p457
S'NN'
p458
S'B-NP'
p459
g5
tp460
a(S'of'
p461
S'of'
p462
S'IN'
p463
S'B-PP'
p464
g5
tp465
a(S'speech-language'
p466
S'speech-language'
p467
S'JJ'
p468
S'B-NP'
p469
g5
tp470
a(S'interventions'
p471
S'intervention'
p472
S'NNS'
p473
S'I-NP'
p474
g5
tp475
a(S'which'
p476
S'which'
p477
S'WDT'
p478
S'B-NP'
p479
g5
tp480
a(S'target'
p481
S'target'
p482
S'VBP'
p483
S'B-VP'
p484
g5
tp485
a(S'the'
p486
S'the'
p487
S'DT'
p488
S'B-NP'
p489
g5
tp490
a(S'language'
p491
S'language'
p492
S'NN'
p493
S'I-NP'
p494
g5
tp495
a(S','
p496
g496
g496
g5
g5
tp497
a(S'pragmatic'
p498
S'pragmatic'
p499
S'JJ'
p500
S'B-NP'
p501
g5
tp502
a(S'or'
p503
S'or'
p504
S'CC'
p505
S'I-NP'
p506
g5
tp507
a(S'social'
p508
S'social'
p509
S'JJ'
p510
S'I-NP'
p511
g5
tp512
a(S'communication'
p513
S'communication'
p514
S'NN'
p515
S'I-NP'
p516
g5
tp517
a(S'needs'
p518
S'need'
p519
S'NNS'
p520
S'I-NP'
p521
g5
tp522
a(S'of'
p523
S'of'
p524
S'IN'
p525
S'B-PP'
p526
g5
tp527
a(S'these'
p528
S'these'
p529
S'DT'
p530
S'B-NP'
p531
g5
tp532
a(S'children'
p533
S'child'
p534
S'NNS'
p535
S'I-NP'
p536
g5
tp537
a(g168
g168
g168
g5
g5
tp538
a(S'AIMS'
p539
S'AIMS'
p540
S'NNS'
p541
S'B-NP'
p542
g5
tp543
a(S'To'
p544
S'To'
p545
S'TO'
p546
S'B-VP'
p547
g5
tp548
a(S'evaluate'
p549
S'evaluate'
p550
S'VB'
p551
S'I-VP'
p552
g5
tp553
a(S'the'
p554
S'the'
p555
S'DT'
p556
S'B-NP'
p557
g5
tp558
a(S'effectiveness'
p559
S'effectiveness'
p560
S'NN'
p561
S'I-NP'
p562
g5
tp563
a(S'of'
p564
S'of'
p565
S'IN'
p566
S'B-PP'
p567
g5
tp568
a(S'an'
p569
S'an'
p570
S'DT'
p571
S'B-NP'
p572
g5
tp573
a(S'intensive'
p574
S'intensive'
p575
S'JJ'
p576
S'I-NP'
p577
g5
tp578
a(S'manualized'
p579
S'manualize'
p580
S'VBN'
p581
S'I-NP'
p582
g5
tp583
a(S'social'
p584
S'social'
p585
S'JJ'
p586
S'I-NP'
p587
g5
tp588
a(S'communication'
p589
S'communication'
p590
S'NN'
p591
S'I-NP'
p592
g5
tp593
a(S'intervention'
p594
S'intervention'
p595
S'NN'
p596
S'I-NP'
p597
g5
tp598
a(g290
g290
g290
g5
g5
tp599
a(S'SCIP'
p600
S'SCIP'
p601
S'NN'
p602
S'B-NP'
p603
S'B-protein'
p604
tp605
a(g298
g298
g298
g5
g5
tp606
a(S'for'
p607
S'for'
p608
S'IN'
p609
S'B-PP'
p610
g5
tp611
a(S'children'
p612
S'child'
p613
S'NNS'
p614
S'B-NP'
p615
g5
tp616
a(S'who'
p617
S'who'
p618
S'WP'
p619
S'B-NP'
p620
g5
tp621
a(S'have'
p622
S'have'
p623
S'VBP'
p624
S'B-VP'
p625
g5
tp626
a(S'PLI'
p627
S'PLI'
p628
S'NN'
p629
S'B-NP'
p630
S'B-protein'
p631
tp632
a(S'with'
p633
S'with'
p634
S'IN'
p635
S'B-PP'
p636
g5
tp637
a(S'or'
p638
S'or'
p639
S'CC'
p640
S'B-PP'
p641
g5
tp642
a(S'without'
p643
S'without'
p644
S'IN'
p645
S'B-PP'
p646
g5
tp647
a(S'features'
p648
S'feature'
p649
S'NNS'
p650
S'B-NP'
p651
g5
tp652
a(S'of'
p653
S'of'
p654
S'IN'
p655
S'B-PP'
p656
g5
tp657
a(S'ASD'
p658
S'ASD'
p659
S'NN'
p660
S'B-NP'
p661
g5
tp662
a(g168
g168
g168
g5
g5
tp663
a(S'METHODS'
p664
S'METHODS'
p665
S'NNS'
p666
S'B-NP'
p667
g5
tp668
a(S'&'
p669
g669
S'CC'
p670
S'I-NP'
p671
g5
tp672
a(S'PROCEDURES'
p673
S'PROCEDURES'
p674
S'NNS'
p675
S'I-NP'
p676
g5
tp677
a(S'In'
p678
S'In'
p679
S'IN'
p680
S'B-PP'
p681
g5
tp682
a(g29
g29
S'DT'
p683
S'B-NP'
p684
g5
tp685
a(S'single-blind'
p686
S'single-blind'
p687
S'JJ'
p688
S'I-NP'
p689
g5
tp690
a(S'RCT'
p691
S'RCT'
p692
S'NN'
p693
S'I-NP'
p694
g5
tp695
a(S'design'
p696
S'design'
p697
S'NN'
p698
S'I-NP'
p699
g5
tp700
a(g496
g496
g496
g5
g5
tp701
a(S'88'
p702
S'88'
p703
S'CD'
p704
S'B-NP'
p705
g5
tp706
a(S'children'
p707
S'child'
p708
S'NNS'
p709
S'I-NP'
p710
g5
tp711
a(S'with'
p712
S'with'
p713
S'IN'
p714
S'B-PP'
p715
g5
tp716
a(S'pragmatic'
p717
S'pragmatic'
p718
S'JJ'
p719
S'B-NP'
p720
g5
tp721
a(S'and'
p722
S'and'
p723
S'CC'
p724
S'I-NP'
p725
g5
tp726
a(S'social'
p727
S'social'
p728
S'JJ'
p729
S'I-NP'
p730
g5
tp731
a(S'communication'
p732
S'communication'
p733
S'NN'
p734
S'I-NP'
p735
g5
tp736
a(S'needs'
p737
S'need'
p738
S'NNS'
p739
S'I-NP'
p740
g5
tp741
a(S'aged'
p742
S'age'
p743
S'VBN'
p744
S'B-ADJP'
p745
g5
tp746
a(S'5'
p747
g747
S'CD'
p748
S'B-NP'
p749
g5
tp750
a(S';'
p751
g751
g27
g5
g5
tp752
a(S'11-10'
p753
S'11-10'
p754
S'CD'
p755
S'B-NP'
p756
g5
tp757
a(g751
g751
g27
g5
g5
tp758
a(S'8'
p759
g759
S'CD'
p760
S'B-NP'
p761
g5
tp762
a(g496
g496
g496
g5
g5
tp763
a(S'recruited'
p764
S'recruit'
p765
S'VBN'
p766
S'B-VP'
p767
g5
tp768
a(S'from'
p769
S'from'
p770
S'IN'
p771
S'B-PP'
p772
g5
tp773
a(S'UK'
p774
S'UK'
p775
S'NN'
p776
S'B-NP'
p777
g5
tp778
a(S'speech'
p779
S'speech'
p780
S'NN'
p781
S'I-NP'
p782
g5
tp783
a(S'and'
p784
S'and'
p785
S'CC'
p786
g5
g5
tp787
a(S'language'
p788
S'language'
p789
S'NN'
p790
S'B-NP'
p791
g5
tp792
a(S'therapy'
p793
S'therapy'
p794
S'NN'
p795
S'I-NP'
p796
g5
tp797
a(S'services'
p798
S'service'
p799
S'NNS'
p800
S'I-NP'
p801
g5
tp802
a(g496
g496
g496
g5
g5
tp803
a(S'were'
p804
S'be'
p805
S'VBD'
p806
S'B-VP'
p807
g5
tp808
a(S'randomly'
p809
S'randomly'
p810
S'RB'
p811
S'I-VP'
p812
g5
tp813
a(S'assigned'
p814
S'assign'
p815
S'VBN'
p816
S'I-VP'
p817
g5
tp818
a(S'in'
p819
S'in'
p820
S'IN'
p821
S'B-PP'
p822
g5
tp823
a(g29
g29
S'DT'
p824
S'B-NP'
p825
g5
tp826
a(S'2'
p827
g827
S'CD'
p828
S'I-NP'
p829
g5
tp830
a(g27
g27
S'SYM'
p831
S'I-NP'
p832
g5
tp833
a(S'1'
p834
g834
S'CD'
p835
S'I-NP'
p836
g5
tp837
a(S'ratio'
p838
S'ratio'
p839
S'NN'
p840
S'I-NP'
p841
g5
tp842
a(S'to'
p843
S'to'
p844
S'TO'
p845
S'B-PP'
p846
g5
tp847
a(S'SCIP'
p848
S'SCIP'
p849
S'NN'
p850
S'B-NP'
p851
S'B-protein'
p852
tp853
a(S'or'
p854
S'or'
p855
S'CC'
p856
g5
g5
tp857
a(S'to'
p858
S'to'
p859
S'TO'
p860
S'B-VP'
p861
g5
tp862
a(S'treatment-as-usual.'
p863
S'treatment-as-usual.'
p864
S'VB'
p865
S'I-VP'
p866
g5
tp867
a(S'Children'
p868
S'Children'
p869
S'NNP'
p870
S'B-NP'
p871
g5
tp872
a(S'in'
p873
S'in'
p874
S'IN'
p875
S'B-PP'
p876
g5
tp877
a(S'the'
p878
S'the'
p879
S'DT'
p880
S'B-NP'
p881
g5
tp882
a(S'SCIP'
p883
S'SCIP'
p884
S'NN'
p885
S'I-NP'
p886
g5
tp887
a(S'condition'
p888
S'condition'
p889
S'NN'
p890
S'I-NP'
p891
g5
tp892
a(S'received'
p893
S'receive'
p894
S'VBD'
p895
S'B-VP'
p896
g5
tp897
a(S'up'
p898
S'up'
p899
S'RB'
p900
S'B-NP'
p901
g5
tp902
a(S'to'
p903
S'to'
p904
S'TO'
p905
S'I-NP'
p906
g5
tp907
a(S'20'
p908
S'20'
p909
S'CD'
p910
S'I-NP'
p911
g5
tp912
a(S'sessions'
p913
S'session'
p914
S'NNS'
p915
S'I-NP'
p916
g5
tp917
a(S'of'
p918
S'of'
p919
S'IN'
p920
S'B-PP'
p921
g5
tp922
a(S'direct'
p923
S'direct'
p924
S'JJ'
p925
S'B-NP'
p926
g5
tp927
a(S'intervention'
p928
S'intervention'
p929
S'NN'
p930
S'I-NP'
p931
g5
tp932
a(S'from'
p933
S'from'
p934
S'IN'
p935
S'B-PP'
p936
g5
tp937
a(g29
g29
S'DT'
p938
S'B-NP'
p939
g5
tp940
a(S'specialist'
p941
S'specialist'
p942
S'JJ'
p943
S'I-NP'
p944
g5
tp945
a(S'research'
p946
S'research'
p947
S'NN'
p948
S'I-NP'
p949
g5
tp950
a(S'speech'
p951
S'speech'
p952
S'NN'
p953
S'I-NP'
p954
g5
tp955
a(S'and'
p956
S'and'
p957
S'CC'
p958
g5
g5
tp959
a(S'language'
p960
S'language'
p961
S'NN'
p962
S'B-NP'
p963
g5
tp964
a(S'therapist'
p965
S'therapist'
p966
S'NN'
p967
S'I-NP'
p968
g5
tp969
a(S'working'
p970
S'work'
p971
S'VBG'
p972
S'B-VP'
p973
g5
tp974
a(S'with'
p975
S'with'
p976
S'IN'
p977
S'B-PP'
p978
g5
tp979
a(S'supervised'
p980
S'supervise'
p981
S'VBN'
p982
S'B-NP'
p983
g5
tp984
a(S'assistants.'
p985
S'assistants.'
p986
S'NN'
p987
S'I-NP'
p988
g5
tp989
a(S'All'
p990
S'All'
p991
S'DT'
p992
S'B-NP'
p993
g5
tp994
a(S'therapy'
p995
S'therapy'
p996
S'NN'
p997
S'I-NP'
p998
g5
tp999
a(S'content'
p1000
S'content'
p1001
S'NN'
p1002
S'I-NP'
p1003
g5
tp1004
a(S'and'
p1005
S'and'
p1006
S'CC'
p1007
S'I-NP'
p1008
g5
tp1009
a(S'methodology'
p1010
S'methodology'
p1011
S'NN'
p1012
S'I-NP'
p1013
g5
tp1014
a(S'was'
p1015
S'be'
p1016
S'VBD'
p1017
S'B-VP'
p1018
g5
tp1019
a(S'derived'
p1020
S'derive'
p1021
S'VBN'
p1022
S'I-VP'
p1023
g5
tp1024
a(S'from'
p1025
S'from'
p1026
S'IN'
p1027
S'B-PP'
p1028
g5
tp1029
a(S'an'
p1030
S'an'
p1031
S'DT'
p1032
S'B-NP'
p1033
g5
tp1034
a(S'intervention'
p1035
S'intervention'
p1036
S'NN'
p1037
S'I-NP'
p1038
g5
tp1039
a(S'manual.'
p1040
S'manual.'
p1041
S'NN'
p1042
S'I-NP'
p1043
g5
tp1044
a(S'A'
p1045
g1045
S'NN'
p1046
S'I-NP'
p1047
g5
tp1048
a(S'primary'
p1049
S'primary'
p1050
S'JJ'
p1051
S'I-NP'
p1052
g5
tp1053
a(S'outcome'
p1054
S'outcome'
p1055
S'NN'
p1056
S'I-NP'
p1057
g5
tp1058
a(S'measure'
p1059
S'measure'
p1060
S'NN'
p1061
S'I-NP'
p1062
g5
tp1063
a(S'of'
p1064
S'of'
p1065
S'IN'
p1066
S'B-PP'
p1067
g5
tp1068
a(S'structural'
p1069
S'structural'
p1070
S'JJ'
p1071
S'B-NP'
p1072
g5
tp1073
a(S'language'
p1074
S'language'
p1075
S'NN'
p1076
S'I-NP'
p1077
g5
tp1078
a(S'and'
p1079
S'and'
p1080
S'CC'
p1081
g5
g5
tp1082
a(S'secondary'
p1083
S'secondary'
p1084
S'JJ'
p1085
S'B-NP'
p1086
g5
tp1087
a(S'outcome'
p1088
S'outcome'
p1089
S'NN'
p1090
S'I-NP'
p1091
g5
tp1092
a(S'measures'
p1093
S'measure'
p1094
S'NNS'
p1095
S'I-NP'
p1096
g5
tp1097
a(S'of'
p1098
S'of'
p1099
S'IN'
p1100
S'B-PP'
p1101
g5
tp1102
a(S'narrative'
p1103
S'narrative'
p1104
S'JJ'
p1105
S'B-NP'
p1106
g5
tp1107
a(g496
g496
g496
S'I-NP'
p1108
g5
tp1109
a(S'parent-reported'
p1110
S'parent-reported'
p1111
S'JJ'
p1112
S'I-NP'
p1113
g5
tp1114
a(S'pragmatic'
p1115
S'pragmatic'
p1116
S'JJ'
p1117
S'I-NP'
p1118
g5
tp1119
a(S'functioning'
p1120
S'functioning'
p1121
S'NN'
p1122
S'I-NP'
p1123
g5
tp1124
a(S'and'
p1125
S'and'
p1126
S'CC'
p1127
g5
g5
tp1128
a(S'social'
p1129
S'social'
p1130
S'JJ'
p1131
S'B-NP'
p1132
g5
tp1133
a(S'communication'
p1134
S'communication'
p1135
S'NN'
p1136
S'I-NP'
p1137
g5
tp1138
a(g496
g496
g496
g5
g5
tp1139
a(S'blind-rated'
p1140
S'blind-rated'
p1141
S'JJ'
p1142
S'B-NP'
p1143
g5
tp1144
a(S'perceptions'
p1145
S'perception'
p1146
S'NNS'
p1147
S'I-NP'
p1148
g5
tp1149
a(S'of'
p1150
S'of'
p1151
S'IN'
p1152
S'B-PP'
p1153
g5
tp1154
a(S'conversational'
p1155
S'conversational'
p1156
S'JJ'
p1157
S'B-NP'
p1158
g5
tp1159
a(S'competence'
p1160
S'competence'
p1161
S'NN'
p1162
S'I-NP'
p1163
g5
tp1164
a(S'and'
p1165
S'and'
p1166
S'CC'
p1167
g5
g5
tp1168
a(S'teacher-reported'
p1169
S'teacher-reported'
p1170
S'JJ'
p1171
S'B-NP'
p1172
g5
tp1173
a(S'ratings'
p1174
S'rating'
p1175
S'NNS'
p1176
S'I-NP'
p1177
g5
tp1178
a(S'of'
p1179
S'of'
p1180
S'IN'
p1181
S'B-PP'
p1182
g5
tp1183
a(S'classroom'
p1184
S'classroom'
p1185
S'NN'
p1186
S'B-NP'
p1187
g5
tp1188
a(S'learning'
p1189
S'learning'
p1190
S'NN'
p1191
S'I-NP'
p1192
g5
tp1193
a(S'skills'
p1194
S'skill'
p1195
S'NNS'
p1196
S'I-NP'
p1197
g5
tp1198
a(S'were'
p1199
S'be'
p1200
S'VBD'
p1201
S'B-VP'
p1202
g5
tp1203
a(S'taken'
p1204
S'take'
p1205
S'VBN'
p1206
S'I-VP'
p1207
g5
tp1208
a(S'pre-intervention'
p1209
S'pre-intervention'
p1210
S'JJ'
p1211
S'B-ADJP'
p1212
g5
tp1213
a(g496
g496
g496
g5
g5
tp1214
a(S'immediately'
p1215
S'immediately'
p1216
S'RB'
p1217
S'B-ADJP'
p1218
g5
tp1219
a(S'post-intervention'
p1220
S'post-intervention'
p1221
S'JJ'
p1222
S'I-ADJP'
p1223
g5
tp1224
a(S'and'
p1225
S'and'
p1226
S'CC'
p1227
g5
g5
tp1228
a(S'at'
p1229
S'at'
p1230
S'IN'
p1231
S'B-PP'
p1232
g5
tp1233
a(S'6-month'
p1234
S'6-month'
p1235
S'JJ'
p1236
S'B-NP'
p1237
g5
tp1238
a(S'follow-up.'
p1239
S'follow-up.'
p1240
S'JJ'
p1241
S'I-NP'
p1242
g5
tp1243
a(S'Analysis'
p1244
S'Analysis'
p1245
S'NN'
p1246
S'I-NP'
p1247
g5
tp1248
a(S'was'
p1249
S'be'
p1250
S'VBD'
p1251
S'B-VP'
p1252
g5
tp1253
a(S'by'
p1254
S'by'
p1255
S'IN'
p1256
S'B-PP'
p1257
g5
tp1258
a(S'intention'
p1259
S'intention'
p1260
S'NN'
p1261
S'B-NP'
p1262
g5
tp1263
a(S'to'
p1264
S'to'
p1265
S'TO'
p1266
S'B-VP'
p1267
g5
tp1268
a(S'treat'
p1269
S'treat'
p1270
S'VB'
p1271
S'I-VP'
p1272
g5
tp1273
a(g168
g168
g168
g5
g5
tp1274
a(S'OUTCOMES'
p1275
S'OUTCOMES'
p1276
S'NNS'
p1277
S'B-NP'
p1278
g5
tp1279
a(g669
g669
S'CC'
p1280
S'I-NP'
p1281
g5
tp1282
a(S'RESULTS'
p1283
S'RESULTS'
p1284
S'NNS'
p1285
S'I-NP'
p1286
g5
tp1287
a(S'No'
p1288
S'No'
p1289
S'DT'
p1290
S'B-NP'
p1291
g5
tp1292
a(S'significant'
p1293
S'significant'
p1294
S'JJ'
p1295
S'I-NP'
p1296
g5
tp1297
a(S'treatment'
p1298
S'treatment'
p1299
S'NN'
p1300
S'I-NP'
p1301
g5
tp1302
a(S'effect'
p1303
S'effect'
p1304
S'NN'
p1305
S'I-NP'
p1306
g5
tp1307
a(S'was'
p1308
S'be'
p1309
S'VBD'
p1310
S'B-VP'
p1311
g5
tp1312
a(S'found'
p1313
S'find'
p1314
S'VBN'
p1315
S'I-VP'
p1316
g5
tp1317
a(S'for'
p1318
S'for'
p1319
S'IN'
p1320
S'B-PP'
p1321
g5
tp1322
a(S'the'
p1323
S'the'
p1324
S'DT'
p1325
S'B-NP'
p1326
g5
tp1327
a(S'primary'
p1328
S'primary'
p1329
S'JJ'
p1330
S'I-NP'
p1331
g5
tp1332
a(S'outcome'
p1333
S'outcome'
p1334
S'NN'
p1335
S'I-NP'
p1336
g5
tp1337
a(S'measure'
p1338
S'measure'
p1339
S'NN'
p1340
S'I-NP'
p1341
g5
tp1342
a(S'of'
p1343
S'of'
p1344
S'IN'
p1345
S'B-PP'
p1346
g5
tp1347
a(S'structural'
p1348
S'structural'
p1349
S'JJ'
p1350
S'B-NP'
p1351
g5
tp1352
a(S'language'
p1353
S'language'
p1354
S'NN'
p1355
S'I-NP'
p1356
g5
tp1357
a(S'ability'
p1358
S'ability'
p1359
S'NN'
p1360
S'I-NP'
p1361
g5
tp1362
a(S'or'
p1363
S'or'
p1364
S'CC'
p1365
S'B-PP'
p1366
g5
tp1367
a(S'for'
p1368
S'for'
p1369
S'IN'
p1370
S'B-PP'
p1371
g5
tp1372
a(g29
g29
S'DT'
p1373
S'B-NP'
p1374
g5
tp1375
a(S'measure'
p1376
S'measure'
p1377
S'NN'
p1378
S'I-NP'
p1379
g5
tp1380
a(S'of'
p1381
S'of'
p1382
S'IN'
p1383
S'B-PP'
p1384
g5
tp1385
a(S'narrative'
p1386
S'narrative'
p1387
S'JJ'
p1388
S'B-NP'
p1389
g5
tp1390
a(S'ability.'
p1391
S'ability.'
p1392
S'NN'
p1393
S'I-NP'
p1394
g5
tp1395
a(S'Significant'
p1396
S'Significant'
p1397
S'JJ'
p1398
S'I-NP'
p1399
g5
tp1400
a(S'treatment'
p1401
S'treatment'
p1402
S'NN'
p1403
S'I-NP'
p1404
g5
tp1405
a(S'effects'
p1406
S'effect'
p1407
S'NNS'
p1408
S'I-NP'
p1409
g5
tp1410
a(S'were'
p1411
S'be'
p1412
S'VBD'
p1413
S'B-VP'
p1414
g5
tp1415
a(S'found'
p1416
S'find'
p1417
S'VBN'
p1418
S'I-VP'
p1419
g5
tp1420
a(S'for'
p1421
S'for'
p1422
S'IN'
p1423
S'B-PP'
p1424
g5
tp1425
a(S'blind-rated'
p1426
S'blind-rated'
p1427
S'JJ'
p1428
S'B-NP'
p1429
g5
tp1430
a(S'perceptions'
p1431
S'perception'
p1432
S'NNS'
p1433
S'I-NP'
p1434
g5
tp1435
a(S'of'
p1436
S'of'
p1437
S'IN'
p1438
S'B-PP'
p1439
g5
tp1440
a(S'conversational'
p1441
S'conversational'
p1442
S'JJ'
p1443
S'B-NP'
p1444
g5
tp1445
a(S'competence'
p1446
S'competence'
p1447
S'NN'
p1448
S'I-NP'
p1449
g5
tp1450
a(g496
g496
g496
g5
g5
tp1451
a(S'for'
p1452
S'for'
p1453
S'IN'
p1454
S'B-PP'
p1455
g5
tp1456
a(S'parent-reported'
p1457
S'parent-reported'
p1458
S'JJ'
p1459
S'B-NP'
p1460
g5
tp1461
a(S'measures'
p1462
S'measure'
p1463
S'NNS'
p1464
S'I-NP'
p1465
g5
tp1466
a(S'of'
p1467
S'of'
p1468
S'IN'
p1469
S'B-PP'
p1470
g5
tp1471
a(S'pragmatic'
p1472
S'pragmatic'
p1473
S'JJ'
p1474
S'B-NP'
p1475
g5
tp1476
a(S'functioning'
p1477
S'functioning'
p1478
S'NN'
p1479
S'I-NP'
p1480
g5
tp1481
a(S'and'
p1482
S'and'
p1483
S'CC'
p1484
g5
g5
tp1485
a(S'social'
p1486
S'social'
p1487
S'JJ'
p1488
S'B-NP'
p1489
g5
tp1490
a(S'communication'
p1491
S'communication'
p1492
S'NN'
p1493
S'I-NP'
p1494
g5
tp1495
a(g496
g496
g496
g5
g5
tp1496
a(S'and'
p1497
S'and'
p1498
S'CC'
p1499
g5
g5
tp1500
a(S'for'
p1501
S'for'
p1502
S'IN'
p1503
S'B-PP'
p1504
g5
tp1505
a(S'teacher-reported'
p1506
S'teacher-reported'
p1507
S'JJ'
p1508
S'B-NP'
p1509
g5
tp1510
a(S'ratings'
p1511
S'rating'
p1512
S'NNS'
p1513
S'I-NP'
p1514
g5
tp1515
a(S'of'
p1516
S'of'
p1517
S'IN'
p1518
S'B-PP'
p1519
g5
tp1520
a(S'classroom'
p1521
S'classroom'
p1522
S'NN'
p1523
S'B-NP'
p1524
g5
tp1525
a(S'learning'
p1526
S'learn'
p1527
S'VBG'
p1528
S'B-VP'
p1529
g5
tp1530
a(S'skills'
p1531
S'skill'
p1532
S'NNS'
p1533
S'B-NP'
p1534
g5
tp1535
a(g168
g168
g168
g5
g5
tp1536
a(S'CONCLUSIONS'
p1537
S'CONCLUSIONS'
p1538
S'NNS'
p1539
S'B-NP'
p1540
g5
tp1541
a(g669
g669
S'CC'
p1542
S'I-NP'
p1543
g5
tp1544
a(S'IMPLICATIONS'
p1545
S'IMPLICATIONS'
p1546
S'NNS'
p1547
S'I-NP'
p1548
g5
tp1549
a(S'There'
p1550
S'There'
p1551
S'EX'
p1552
S'B-NP'
p1553
g5
tp1554
a(S'is'
p1555
S'be'
p1556
S'VBZ'
p1557
S'B-VP'
p1558
g5
tp1559
a(S'some'
p1560
S'some'
p1561
S'DT'
p1562
S'B-NP'
p1563
g5
tp1564
a(S'evidence'
p1565
S'evidence'
p1566
S'NN'
p1567
S'I-NP'
p1568
g5
tp1569
a(S'of'
p1570
S'of'
p1571
S'IN'
p1572
S'B-PP'
p1573
g5
tp1574
a(S'an'
p1575
S'an'
p1576
S'DT'
p1577
S'B-NP'
p1578
g5
tp1579
a(S'intervention'
p1580
S'intervention'
p1581
S'NN'
p1582
S'I-NP'
p1583
g5
tp1584
a(S'effect'
p1585
S'effect'
p1586
S'NN'
p1587
S'I-NP'
p1588
g5
tp1589
a(S'on'
p1590
S'on'
p1591
S'IN'
p1592
S'B-PP'
p1593
g5
tp1594
a(S'blind'
p1595
S'blind'
p1596
S'JJ'
p1597
S'B-NP'
p1598
g5
tp1599
a(S'and'
p1600
S'and'
p1601
S'CC'
p1602
S'I-NP'
p1603
g5
tp1604
a(S'parent/teacher-reported'
p1605
S'parent/teacher-reported'
p1606
S'JJ'
p1607
S'I-NP'
p1608
g5
tp1609
a(S'communication'
p1610
S'communication'
p1611
S'NN'
p1612
S'I-NP'
p1613
g5
tp1614
a(S'outcomes'
p1615
S'outcome'
p1616
S'NNS'
p1617
S'I-NP'
p1618
g5
tp1619
a(g496
g496
g496
g5
g5
tp1620
a(S'but'
p1621
S'but'
p1622
S'CC'
p1623
S'B-CONJP'
p1624
g5
tp1625
a(S'not'
p1626
S'not'
p1627
S'RB'
p1628
S'I-CONJP'
p1629
g5
tp1630
a(S'standardized'
p1631
S'standardized'
p1632
S'JJ'
p1633
S'B-NP'
p1634
g5
tp1635
a(S'language'
p1636
S'language'
p1637
S'NN'
p1638
S'I-NP'
p1639
g5
tp1640
a(S'assessment'
p1641
S'assessment'
p1642
S'NN'
p1643
S'I-NP'
p1644
g5
tp1645
a(S'outcomes'
p1646
S'outcome'
p1647
S'VBZ'
p1648
S'B-VP'
p1649
g5
tp1650
a(g496
g496
g496
g5
g5
tp1651
a(S'for'
p1652
S'for'
p1653
S'IN'
p1654
S'B-PP'
p1655
g5
tp1656
a(S'6-11-year-old'
p1657
S'6-11-year-old'
p1658
S'JJ'
p1659
S'B-NP'
p1660
g5
tp1661
a(S'children'
p1662
S'child'
p1663
S'NNS'
p1664
S'I-NP'
p1665
g5
tp1666
a(S'who'
p1667
S'who'
p1668
S'WP'
p1669
S'B-NP'
p1670
g5
tp1671
a(S'have'
p1672
S'have'
p1673
S'VBP'
p1674
S'B-VP'
p1675
g5
tp1676
a(S'pragmatic'
p1677
S'pragmatic'
p1678
S'JJ'
p1679
S'B-NP'
p1680
g5
tp1681
a(S'and'
p1682
S'and'
p1683
S'CC'
p1684
S'I-NP'
p1685
g5
tp1686
a(S'social'
p1687
S'social'
p1688
S'JJ'
p1689
S'I-NP'
p1690
g5
tp1691
a(S'communication'
p1692
S'communication'
p1693
S'NN'
p1694
S'I-NP'
p1695
g5
tp1696
a(S'needs.'
p1697
S'needs.'
p1698
S'NN'
p1699
S'I-NP'
p1700
g5
tp1701
a(S'These'
p1702
S'These'
p1703
S'DT'
p1704
S'B-NP'
p1705
g5
tp1706
a(S'findings'
p1707
S'finding'
p1708
S'NNS'
p1709
S'I-NP'
p1710
g5
tp1711
a(S'are'
p1712
S'be'
p1713
S'VBP'
p1714
S'B-VP'
p1715
g5
tp1716
a(S'discussed'
p1717
S'discuss'
p1718
S'VBN'
p1719
S'I-VP'
p1720
g5
tp1721
a(S'in'
p1722
S'in'
p1723
S'IN'
p1724
S'B-PP'
p1725
g5
tp1726
a(S'the'
p1727
S'the'
p1728
S'DT'
p1729
S'B-NP'
p1730
g5
tp1731
a(S'context'
p1732
S'context'
p1733
S'NN'
p1734
S'I-NP'
p1735
g5
tp1736
a(S'of'
p1737
S'of'
p1738
S'IN'
p1739
S'B-PP'
p1740
g5
tp1741
a(S'the'
p1742
S'the'
p1743
S'DT'
p1744
S'B-NP'
p1745
g5
tp1746
a(S'increasingly'
p1747
S'increasingly'
p1748
S'RB'
p1749
S'I-NP'
p1750
g5
tp1751
a(S'central'
p1752
S'central'
p1753
S'JJ'
p1754
S'I-NP'
p1755
g5
tp1756
a(S'role'
p1757
S'role'
p1758
S'NN'
p1759
S'I-NP'
p1760
g5
tp1761
a(S'of'
p1762
S'of'
p1763
S'IN'
p1764
S'B-PP'
p1765
g5
tp1766
a(S'service'
p1767
S'service'
p1768
S'NN'
p1769
S'B-NP'
p1770
g5
tp1771
a(S'user'
p1772
S'user'
p1773
S'NN'
p1774
S'I-NP'
p1775
g5
tp1776
a(S'outcomes'
p1777
S'outcome'
p1778
S'VBZ'
p1779
S'B-VP'
p1780
g5
tp1781
a(S'in'
p1782
S'in'
p1783
S'IN'
p1784
S'B-PP'
p1785
g5
tp1786
a(S'providing'
p1787
S'provide'
p1788
S'VBG'
p1789
S'B-VP'
p1790
g5
tp1791
a(S'evidence'
p1792
S'evidence'
p1793
S'NN'
p1794
S'B-NP'
p1795
g5
tp1796
a(S'for'
p1797
S'for'
p1798
S'IN'
p1799
S'B-PP'
p1800
g5
tp1801
a(S'an'
p1802
S'an'
p1803
S'DT'
p1804
S'B-NP'
p1805
g5
tp1806
a(S'intervention.'
p1807
S'intervention.'
p1808
S'NN'
p1809
S'I-NP'
p1810
g5
tp1811
a(S'The'
p1812
S'The'
p1813
S'DT'
p1814
S'B-NP'
p1815
g5
tp1816
a(S'substantial'
p1817
S'substantial'
p1818
S'JJ'
p1819
S'I-NP'
p1820
g5
tp1821
a(S'overlap'
p1822
S'overlap'
p1823
S'NN'
p1824
S'I-NP'
p1825
g5
tp1826
a(S'between'
p1827
S'between'
p1828
S'IN'
p1829
S'B-PP'
p1830
g5
tp1831
a(S'the'
p1832
S'the'
p1833
S'DT'
p1834
S'B-NP'
p1835
g5
tp1836
a(S'presence'
p1837
S'presence'
p1838
S'NN'
p1839
S'I-NP'
p1840
g5
tp1841
a(S'of'
p1842
S'of'
p1843
S'IN'
p1844
S'B-PP'
p1845
g5
tp1846
a(S'PLI'
p1847
S'PLI'
p1848
S'NN'
p1849
S'B-NP'
p1850
S'B-protein'
p1851
tp1852
a(S'and'
p1853
S'and'
p1854
S'CC'
p1855
S'I-NP'
p1856
g5
tp1857
a(S'ASD'
p1858
S'ASD'
p1859
S'NN'
p1860
S'I-NP'
p1861
g5
tp1862
a(g290
g290
g290
g5
g5
tp1863
a(S'75'
p1864
S'75'
p1865
S'CD'
p1866
S'B-NP'
p1867
g5
tp1868
a(S'%'
p1869
g1869
S'NN'
p1870
S'I-NP'
p1871
g5
tp1872
a(g298
g298
g298
g5
g5
tp1873
a(S'across'
p1874
S'across'
p1875
S'IN'
p1876
S'B-PP'
p1877
g5
tp1878
a(S'the'
p1879
S'the'
p1880
S'DT'
p1881
S'B-NP'
p1882
g5
tp1883
a(S'whole'
p1884
S'whole'
p1885
S'JJ'
p1886
S'I-NP'
p1887
g5
tp1888
a(S'cohort'
p1889
S'cohort'
p1890
S'NN'
p1891
S'I-NP'
p1892
g5
tp1893
a(S'suggests'
p1894
S'suggest'
p1895
S'VBZ'
p1896
S'B-VP'
p1897
g5
tp1898
a(S'that'
p1899
S'that'
p1900
S'IN'
p1901
S'B-SBAR'
p1902
g5
tp1903
a(S'the'
p1904
S'the'
p1905
S'DT'
p1906
S'B-NP'
p1907
g5
tp1908
a(S'intervention'
p1909
S'intervention'
p1910
S'NN'
p1911
S'I-NP'
p1912
g5
tp1913
a(S'may'
p1914
S'may'
p1915
S'MD'
p1916
S'B-VP'
p1917
g5
tp1918
a(S'also'
p1919
S'also'
p1920
S'RB'
p1921
S'I-VP'
p1922
g5
tp1923
a(S'be'
p1924
S'be'
p1925
S'VB'
p1926
S'I-VP'
p1927
g5
tp1928
a(S'applicable'
p1929
S'applicable'
p1930
S'JJ'
p1931
S'B-ADJP'
p1932
g5
tp1933
a(S'to'
p1934
S'to'
p1935
S'TO'
p1936
S'B-PP'
p1937
g5
tp1938
a(S'some'
p1939
S'some'
p1940
S'DT'
p1941
S'B-NP'
p1942
g5
tp1943
a(S'verbally'
p1944
S'verbally'
p1945
S'RB'
p1946
S'I-NP'
p1947
g5
tp1948
a(S'able'
p1949
S'able'
p1950
S'JJ'
p1951
S'I-NP'
p1952
g5
tp1953
a(S'children'
p1954
S'child'
p1955
S'NNS'
p1956
S'I-NP'
p1957
g5
tp1958
a(S'with'
p1959
S'with'
p1960
S'IN'
p1961
S'B-PP'
p1962
g5
tp1963
a(S'ASD'
p1964
S'ASD'
p1965
S'NN'
p1966
S'B-NP'
p1967
g5
tp1968
a(S'who'
p1969
S'who'
p1970
S'WP'
p1971
S'B-NP'
p1972
g5
tp1973
a(S'have'
p1974
S'have'
p1975
S'VBP'
p1976
S'B-VP'
p1977
g5
tp1978
a(S'pragmatic'
p1979
S'pragmatic'
p1980
S'JJ'
p1981
S'B-NP'
p1982
g5
tp1983
a(S'communication'
p1984
S'communication'
p1985
S'NN'
p1986
S'I-NP'
p1987
g5
tp1988
a(S'needs'
p1989
S'need'
p1990
S'NNS'
p1991
S'I-NP'
p1992
g5
tp1993
a(g168
g168
g168
g5
g5
tp1994
a.