(lp0
(S'A'
p1
g1
S'DT'
p2
S'B-NP'
p3
S'O'
p4
tp5
a(S'clinical'
p6
S'clinical'
p7
S'JJ'
p8
S'I-NP'
p9
g4
tp10
a(S'evaluation'
p11
S'evaluation'
p12
S'NN'
p13
S'I-NP'
p14
g4
tp15
a(S'of'
p16
S'of'
p17
S'IN'
p18
S'B-PP'
p19
g4
tp20
a(S'a'
p21
g21
S'DT'
p22
S'B-NP'
p23
g4
tp24
a(S'blood'
p25
S'blood'
p26
S'NN'
p27
S'I-NP'
p28
g4
tp29
a(S'conservation'
p30
S'conservation'
p31
S'NN'
p32
S'I-NP'
p33
g4
tp34
a(S'device'
p35
S'device'
p36
S'NN'
p37
S'I-NP'
p38
g4
tp39
a(S'in'
p40
S'in'
p41
S'IN'
p42
S'B-PP'
p43
g4
tp44
a(S'medical'
p45
S'medical'
p46
S'JJ'
p47
S'B-NP'
p48
g4
tp49
a(S'intensive'
p50
S'intensive'
p51
S'JJ'
p52
S'I-NP'
p53
g4
tp54
a(S'care'
p55
S'care'
p56
S'NN'
p57
S'I-NP'
p58
g4
tp59
a(S'unit'
p60
S'unit'
p61
S'NN'
p62
S'I-NP'
p63
g4
tp64
a(S'patients'
p65
S'patient'
p66
S'NNS'
p67
S'I-NP'
p68
g4
tp69
a(S'.'
p70
g70
g70
g4
g4
tp71
a(S'OBJECTIVES'
p72
S'OBJECTIVES'
p73
S'NNS'
p74
S'B-NP'
p75
g4
tp76
a(S'This'
p77
S'This'
p78
S'DT'
p79
S'B-NP'
p80
g4
tp81
a(S'study'
p82
S'study'
p83
S'NN'
p84
S'I-NP'
p85
g4
tp86
a(S'was'
p87
S'be'
p88
S'VBD'
p89
S'B-VP'
p90
g4
tp91
a(S'designed'
p92
S'design'
p93
S'VBN'
p94
S'I-VP'
p95
g4
tp96
a(S'to'
p97
S'to'
p98
S'TO'
p99
S'B-PP'
p100
g4
tp101
a(g21
g21
S'DT'
p102
S'B-NP'
p103
g4
tp104
a(S')'
p105
g105
g105
g4
g4
tp106
a(S'document'
p107
S'document'
p108
S'VBP'
p109
S'B-VP'
p110
g4
tp111
a(S'the'
p112
S'the'
p113
S'DT'
p114
S'B-NP'
p115
g4
tp116
a(S'efficacy'
p117
S'efficacy'
p118
S'NN'
p119
S'I-NP'
p120
g4
tp121
a(S'of'
p122
S'of'
p123
S'IN'
p124
S'B-PP'
p125
g4
tp126
a(g21
g21
S'DT'
p127
S'B-NP'
p128
g4
tp129
a(S'device'
p130
S'device'
p131
S'NN'
p132
S'I-NP'
p133
g4
tp134
a(S'intended'
p135
S'intend'
p136
S'VBN'
p137
S'B-VP'
p138
g4
tp139
a(S'to'
p140
S'to'
p141
S'TO'
p142
S'I-VP'
p143
g4
tp144
a(S'conserve'
p145
S'conserve'
p146
S'VB'
p147
S'I-VP'
p148
g4
tp149
a(S'blood'
p150
S'blood'
p151
S'NN'
p152
S'B-NP'
p153
g4
tp154
a(S'in'
p155
S'in'
p156
S'IN'
p157
S'B-PP'
p158
g4
tp159
a(S'critically'
p160
S'critically'
p161
S'RB'
p162
S'B-NP'
p163
g4
tp164
a(S'ill'
p165
S'ill'
p166
S'JJ'
p167
S'I-NP'
p168
g4
tp169
a(S'patients'
p170
S'patient'
p171
S'NNS'
p172
S'I-NP'
p173
g4
tp174
a(S';'
p175
g175
S':'
p176
g4
g4
tp177
a(S'b'
p178
g178
S'NN'
p179
S'B-NP'
p180
g4
tp181
a(g105
g105
g105
g4
g4
tp182
a(S'determine'
p183
S'determine'
p184
S'VBP'
p185
S'B-VP'
p186
g4
tp187
a(S'the'
p188
S'the'
p189
S'DT'
p190
S'B-NP'
p191
g4
tp192
a(S'effect'
p193
S'effect'
p194
S'NN'
p195
S'I-NP'
p196
g4
tp197
a(S'of'
p198
S'of'
p199
S'IN'
p200
S'B-PP'
p201
g4
tp202
a(S'this'
p203
S'this'
p204
S'DT'
p205
S'B-NP'
p206
g4
tp207
a(S'blood'
p208
S'blood'
p209
S'NN'
p210
S'I-NP'
p211
g4
tp212
a(S'conservation'
p213
S'conservation'
p214
S'NN'
p215
S'I-NP'
p216
g4
tp217
a(S'on'
p218
S'on'
p219
S'IN'
p220
S'B-PP'
p221
g4
tp222
a(S'hemoglobin'
p223
S'hemoglobin'
p224
S'NN'
p225
S'B-NP'
p226
S'B-protein'
p227
tp228
a(S'concentration'
p229
S'concentration'
p230
S'NN'
p231
S'I-NP'
p232
g4
tp233
a(S'and'
p234
S'and'
p235
S'CC'
p236
g4
g4
tp237
a(S'the'
p238
S'the'
p239
S'DT'
p240
S'B-NP'
p241
g4
tp242
a(S'need'
p243
S'need'
p244
S'NN'
p245
S'I-NP'
p246
g4
tp247
a(S'for'
p248
S'for'
p249
S'IN'
p250
S'B-PP'
p251
g4
tp252
a(S'blood'
p253
S'blood'
p254
S'NN'
p255
S'B-NP'
p256
g4
tp257
a(S'transfusions'
p258
S'transfusion'
p259
S'NNS'
p260
S'I-NP'
p261
g4
tp262
a(g175
g175
g176
g4
g4
tp263
a(S'c'
p264
g264
S'LS'
p265
S'B-LST'
p266
g4
tp267
a(g105
g105
g105
g4
g4
tp268
a(S'determine'
p269
S'determine'
p270
S'VB'
p271
S'B-VP'
p272
g4
tp273
a(S'if'
p274
S'if'
p275
S'IN'
p276
S'B-SBAR'
p277
g4
tp278
a(S'the'
p279
S'the'
p280
S'DT'
p281
S'B-NP'
p282
g4
tp283
a(S'blood'
p284
S'blood'
p285
S'NN'
p286
S'I-NP'
p287
g4
tp288
a(S'conservation'
p289
S'conservation'
p290
S'NN'
p291
S'I-NP'
p292
g4
tp293
a(S'device'
p294
S'device'
p295
S'NN'
p296
S'I-NP'
p297
g4
tp298
a(S'resulted'
p299
S'result'
p300
S'VBD'
p301
S'B-VP'
p302
g4
tp303
a(S'in'
p304
S'in'
p305
S'IN'
p306
S'B-PP'
p307
g4
tp308
a(S'interference'
p309
S'interference'
p310
S'NN'
p311
S'B-NP'
p312
g4
tp313
a(S'with'
p314
S'with'
p315
S'IN'
p316
S'B-PP'
p317
g4
tp318
a(S'arterial'
p319
S'arterial'
p320
S'JJ'
p321
S'B-NP'
p322
S'B-protein'
p323
tp324
a(S'pressure'
p325
S'pressure'
p326
S'NN'
p327
S'I-NP'
p328
S'I-protein'
p329
tp330
a(S'waveforms'
p331
S'waveform'
p332
S'NNS'
p333
S'I-NP'
p334
S'I-protein'
p335
tp336
a(g175
g175
g176
g4
g4
tp337
a(S'd'
p338
g338
S'LS'
p339
S'B-LST'
p340
g4
tp341
a(g105
g105
g105
g4
g4
tp342
a(S'determine'
p343
S'determine'
p344
S'VB'
p345
S'B-VP'
p346
g4
tp347
a(S'if'
p348
S'if'
p349
S'IN'
p350
S'B-SBAR'
p351
g4
tp352
a(S'use'
p353
S'use'
p354
S'NN'
p355
S'B-NP'
p356
g4
tp357
a(S'of'
p358
S'of'
p359
S'IN'
p360
S'B-PP'
p361
g4
tp362
a(S'the'
p363
S'the'
p364
S'DT'
p365
S'B-NP'
p366
g4
tp367
a(S'blood'
p368
S'blood'
p369
S'NN'
p370
S'I-NP'
p371
g4
tp372
a(S'conservation'
p373
S'conservation'
p374
S'NN'
p375
S'I-NP'
p376
g4
tp377
a(S'device'
p378
S'device'
p379
S'NN'
p380
S'I-NP'
p381
g4
tp382
a(S'resulted'
p383
S'result'
p384
S'VBD'
p385
S'B-VP'
p386
g4
tp387
a(S'in'
p388
S'in'
p389
S'IN'
p390
S'B-PP'
p391
g4
tp392
a(g21
g21
S'DT'
p393
S'B-NP'
p394
g4
tp395
a(S'difference'
p396
S'difference'
p397
S'NN'
p398
S'I-NP'
p399
g4
tp400
a(S'in'
p401
S'in'
p402
S'IN'
p403
S'B-PP'
p404
g4
tp405
a(S'the'
p406
S'the'
p407
S'DT'
p408
S'B-NP'
p409
g4
tp410
a(S'number'
p411
S'number'
p412
S'NN'
p413
S'I-NP'
p414
g4
tp415
a(S'of'
p416
S'of'
p417
S'IN'
p418
S'B-PP'
p419
g4
tp420
a(S'accidental'
p421
S'accidental'
p422
S'JJ'
p423
S'B-NP'
p424
g4
tp425
a(S'needle'
p426
S'needle'
p427
S'NN'
p428
S'I-NP'
p429
g4
tp430
a(S'punctures'
p431
S'puncture'
p432
S'NNS'
p433
S'I-NP'
p434
g4
tp435
a(S'suffered'
p436
S'suffer'
p437
S'VBN'
p438
S'B-VP'
p439
g4
tp440
a(S'by'
p441
S'by'
p442
S'IN'
p443
S'B-PP'
p444
g4
tp445
a(S'healthcare'
p446
S'healthcare'
p447
S'NN'
p448
S'B-NP'
p449
g4
tp450
a(S'workers'
p451
S'worker'
p452
S'NNS'
p453
S'I-NP'
p454
g4
tp455
a(g70
g70
g70
g4
g4
tp456
a(S'DESIGN'
p457
S'DESIGN'
p458
S'NNP'
p459
S'B-NP'
p460
g4
tp461
a(S'Prospective'
p462
S'Prospective'
p463
S'NNP'
p464
S'I-NP'
p465
g4
tp466
a(S','
p467
g467
g467
g4
g4
tp468
a(S'randomized'
p469
S'randomize'
p470
S'VBN'
p471
S'B-VP'
p472
g4
tp473
a(g467
g467
g467
g4
g4
tp474
a(S'controlled'
p475
S'control'
p476
S'VBN'
p477
S'B-NP'
p478
g4
tp479
a(S'trial.'
p480
S'trial.'
p481
S'NN'
p482
S'I-NP'
p483
g4
tp484
a(g1
g1
S'NN'
p485
S'I-NP'
p486
g4
tp487
a(S'clinical'
p488
S'clinical'
p489
S'JJ'
p490
S'I-NP'
p491
g4
tp492
a(S'trial'
p493
S'trial'
p494
S'NN'
p495
S'I-NP'
p496
g4
tp497
a(S'using'
p498
S'use'
p499
S'VBG'
p500
S'B-VP'
p501
g4
tp502
a(S'prospective'
p503
S'prospective'
p504
S'JJ'
p505
S'B-NP'
p506
g4
tp507
a(g467
g467
g467
S'I-NP'
p508
g4
tp509
a(S'random'
p510
S'random'
p511
S'JJ'
p512
S'I-NP'
p513
g4
tp514
a(S'allocation'
p515
S'allocation'
p516
S'NN'
p517
S'I-NP'
p518
g4
tp519
a(S'of'
p520
S'of'
p521
S'IN'
p522
S'B-PP'
p523
g4
tp524
a(S'consecutive'
p525
S'consecutive'
p526
S'JJ'
p527
S'B-NP'
p528
g4
tp529
a(S'eligible'
p530
S'eligible'
p531
S'JJ'
p532
S'I-NP'
p533
g4
tp534
a(S'patients'
p535
S'patient'
p536
S'NNS'
p537
S'I-NP'
p538
g4
tp539
a(g70
g70
g70
g4
g4
tp540
a(S'SETTING'
p541
S'SETTING'
p542
S'VBG'
p543
S'B-VP'
p544
g4
tp545
a(S'The'
p546
S'The'
p547
S'DT'
p548
S'B-NP'
p549
g4
tp550
a(S'medical'
p551
S'medical'
p552
S'JJ'
p553
S'I-NP'
p554
g4
tp555
a(S'intensive'
p556
S'intensive'
p557
S'JJ'
p558
S'I-NP'
p559
g4
tp560
a(S'care'
p561
S'care'
p562
S'NN'
p563
S'I-NP'
p564
g4
tp565
a(S'unit'
p566
S'unit'
p567
S'NN'
p568
S'I-NP'
p569
g4
tp570
a(S'('
p571
g571
g571
g4
g4
tp572
a(S'ICU'
p573
S'ICU'
p574
S'NN'
p575
S'B-NP'
p576
S'B-protein'
p577
tp578
a(g105
g105
g105
g4
g4
tp579
a(S'of'
p580
S'of'
p581
S'IN'
p582
S'B-PP'
p583
g4
tp584
a(g21
g21
S'DT'
p585
S'B-NP'
p586
g4
tp587
a(S'university'
p588
S'university'
p589
S'NN'
p590
S'I-NP'
p591
g4
tp592
a(S'hospital'
p593
S'hospital'
p594
S'NN'
p595
S'I-NP'
p596
g4
tp597
a(S'located'
p598
S'located'
p599
S'JJ'
p600
S'B-ADJP'
p601
g4
tp602
a(S'in'
p603
S'in'
p604
S'IN'
p605
S'B-PP'
p606
g4
tp607
a(g21
g21
S'DT'
p608
S'B-NP'
p609
g4
tp610
a(S'large'
p611
S'large'
p612
S'JJ'
p613
S'I-NP'
p614
g4
tp615
a(S'metropolitan'
p616
S'metropolitan'
p617
S'JJ'
p618
S'I-NP'
p619
g4
tp620
a(S'area'
p621
S'area'
p622
S'NN'
p623
S'I-NP'
p624
g4
tp625
a(g70
g70
g70
g4
g4
tp626
a(S'PATIENTS'
p627
S'PATIENTS'
p628
S'NNS'
p629
S'B-NP'
p630
g4
tp631
a(g1
g1
S'DT'
p632
S'B-NP'
p633
g4
tp634
a(S'total'
p635
S'total'
p636
S'NN'
p637
S'I-NP'
p638
g4
tp639
a(S'of'
p640
S'of'
p641
S'IN'
p642
S'B-PP'
p643
g4
tp644
a(S'100'
p645
S'100'
p646
S'CD'
p647
S'B-NP'
p648
g4
tp649
a(S'patients'
p650
S'patient'
p651
S'NNS'
p652
S'I-NP'
p653
g4
tp654
a(S'who'
p655
S'who'
p656
S'WP'
p657
S'B-NP'
p658
g4
tp659
a(S'were'
p660
S'be'
p661
S'VBD'
p662
S'B-VP'
p663
g4
tp664
a(S'admitted'
p665
S'admit'
p666
S'VBN'
p667
S'I-VP'
p668
g4
tp669
a(S'to'
p670
S'to'
p671
S'TO'
p672
S'B-PP'
p673
g4
tp674
a(S'the'
p675
S'the'
p676
S'DT'
p677
S'B-NP'
p678
g4
tp679
a(S'medical'
p680
S'medical'
p681
S'JJ'
p682
S'I-NP'
p683
g4
tp684
a(S'ICU'
p685
S'ICU'
p686
S'NN'
p687
S'I-NP'
p688
g4
tp689
a(g467
g467
g467
g4
g4
tp690
a(S'required'
p691
S'require'
p692
S'VBD'
p693
S'B-VP'
p694
g4
tp695
a(S'arterial'
p696
S'arterial'
p697
S'JJ'
p698
S'B-NP'
p699
g4
tp700
a(S'line'
p701
S'line'
p702
S'NN'
p703
S'I-NP'
p704
g4
tp705
a(S'monitoring'
p706
S'monitor'
p707
S'VBG'
p708
S'B-VP'
p709
g4
tp710
a(S'for'
p711
S'for'
p712
S'IN'
p713
S'B-PP'
p714
g4
tp715
a(S'clinical'
p716
S'clinical'
p717
S'JJ'
p718
S'B-NP'
p719
g4
tp720
a(S'purposes'
p721
S'purpose'
p722
S'NNS'
p723
S'I-NP'
p724
g4
tp725
a(g467
g467
g467
g4
g4
tp726
a(S'and'
p727
S'and'
p728
S'CC'
p729
g4
g4
tp730
a(S'were'
p731
S'be'
p732
S'VBD'
p733
S'B-VP'
p734
g4
tp735
a(S'managed'
p736
S'manage'
p737
S'VBN'
p738
S'I-VP'
p739
g4
tp740
a(S'by'
p741
S'by'
p742
S'IN'
p743
S'B-PP'
p744
g4
tp745
a(S'the'
p746
S'the'
p747
S'DT'
p748
S'B-NP'
p749
g4
tp750
a(S'ICU'
p751
S'ICU'
p752
S'NN'
p753
S'I-NP'
p754
g4
tp755
a(S'medical'
p756
S'medical'
p757
S'JJ'
p758
S'I-NP'
p759
g4
tp760
a(S'service.'
p761
S'service.'
p762
S'NN'
p763
S'I-NP'
p764
g4
tp765
a(S'Exclusion'
p766
S'Exclusion'
p767
S'NN'
p768
S'I-NP'
p769
g4
tp770
a(S'criteria'
p771
S'criterion'
p772
S'NNS'
p773
S'I-NP'
p774
g4
tp775
a(S'included'
p776
S'include'
p777
S'VBD'
p778
S'B-VP'
p779
g4
tp780
a(S'active'
p781
S'active'
p782
S'JJ'
p783
S'B-NP'
p784
g4
tp785
a(S'bleeding'
p786
S'bleeding'
p787
S'NN'
p788
S'I-NP'
p789
g4
tp790
a(S'or'
p791
S'or'
p792
S'CC'
p793
g4
g4
tp794
a(S'chronic'
p795
S'chronic'
p796
S'JJ'
p797
S'B-NP'
p798
g4
tp799
a(S'renal'
p800
S'renal'
p801
S'JJ'
p802
S'I-NP'
p803
g4
tp804
a(S'failure'
p805
S'failure'
p806
S'NN'
p807
S'I-NP'
p808
g4
tp809
a(S'at'
p810
S'at'
p811
S'IN'
p812
S'B-PP'
p813
g4
tp814
a(S'the'
p815
S'the'
p816
S'DT'
p817
S'B-NP'
p818
g4
tp819
a(S'time'
p820
S'time'
p821
S'NN'
p822
S'I-NP'
p823
g4
tp824
a(S'of'
p825
S'of'
p826
S'IN'
p827
S'B-PP'
p828
g4
tp829
a(S'ICU'
p830
S'ICU'
p831
S'NN'
p832
S'B-NP'
p833
g4
tp834
a(S'admission'
p835
S'admission'
p836
S'NN'
p837
S'I-NP'
p838
g4
tp839
a(g70
g70
g70
g4
g4
tp840
a(S'INTERVENTIONS'
p841
S'INTERVENTIONS'
p842
S'NNS'
p843
S'B-NP'
p844
g4
tp845
a(S'Patients'
p846
S'Patient'
p847
S'NNS'
p848
S'I-NP'
p849
g4
tp850
a(S'in'
p851
S'in'
p852
S'IN'
p853
S'B-PP'
p854
g4
tp855
a(S'the'
p856
S'the'
p857
S'DT'
p858
S'B-NP'
p859
g4
tp860
a(S'experimental'
p861
S'experimental'
p862
S'JJ'
p863
S'I-NP'
p864
g4
tp865
a(S'group'
p866
S'group'
p867
S'NN'
p868
S'I-NP'
p869
g4
tp870
a(S'had'
p871
S'have'
p872
S'VBD'
p873
S'B-VP'
p874
g4
tp875
a(g21
g21
S'DT'
p876
S'B-NP'
p877
g4
tp878
a(S'blood'
p879
S'blood'
p880
S'NN'
p881
S'I-NP'
p882
g4
tp883
a(S'conservation'
p884
S'conservation'
p885
S'NN'
p886
S'I-NP'
p887
g4
tp888
a(S'device'
p889
S'device'
p890
S'NN'
p891
S'I-NP'
p892
g4
tp893
a(S'incorporated'
p894
S'incorporate'
p895
S'VBN'
p896
S'B-VP'
p897
g4
tp898
a(S'into'
p899
S'into'
p900
S'IN'
p901
S'B-PP'
p902
g4
tp903
a(S'the'
p904
S'the'
p905
S'DT'
p906
S'B-NP'
p907
g4
tp908
a(S'arterial'
p909
S'arterial'
p910
S'JJ'
p911
S'I-NP'
p912
g4
tp913
a(S'pressure'
p914
S'pressure'
p915
S'NN'
p916
S'I-NP'
p917
g4
tp918
a(S'monitoring'
p919
S'monitoring'
p920
S'NN'
p921
S'I-NP'
p922
g4
tp923
a(S'system'
p924
S'system'
p925
S'NN'
p926
S'I-NP'
p927
g4
tp928
a(g467
g467
g467
g4
g4
tp929
a(S'while'
p930
S'while'
p931
S'IN'
p932
S'B-SBAR'
p933
g4
tp934
a(S'patients'
p935
S'patient'
p936
S'NNS'
p937
S'B-NP'
p938
g4
tp939
a(S'in'
p940
S'in'
p941
S'IN'
p942
S'B-PP'
p943
g4
tp944
a(S'the'
p945
S'the'
p946
S'DT'
p947
S'B-NP'
p948
g4
tp949
a(S'control'
p950
S'control'
p951
S'NN'
p952
S'I-NP'
p953
g4
tp954
a(S'group'
p955
S'group'
p956
S'NN'
p957
S'I-NP'
p958
g4
tp959
a(S'received'
p960
S'receive'
p961
S'VBD'
p962
S'B-VP'
p963
g4
tp964
a(g21
g21
S'DT'
p965
S'B-NP'
p966
g4
tp967
a(S'conventional'
p968
S'conventional'
p969
S'JJ'
p970
S'I-NP'
p971
g4
tp972
a(S'arterial'
p973
S'arterial'
p974
S'JJ'
p975
S'I-NP'
p976
g4
tp977
a(S'pressure'
p978
S'pressure'
p979
S'NN'
p980
S'I-NP'
p981
g4
tp982
a(S'monitoring'
p983
S'monitoring'
p984
S'NN'
p985
S'I-NP'
p986
g4
tp987
a(S'system'
p988
S'system'
p989
S'NN'
p990
S'I-NP'
p991
g4
tp992
a(g70
g70
g70
g4
g4
tp993
a(S'MEASUREMENTS'
p994
S'MEASUREMENTS'
p995
S'NNS'
p996
S'B-NP'
p997
g4
tp998
a(S'AND'
p999
S'AND'
p1000
S'CC'
p1001
g4
g4
tp1002
a(S'MAIN'
p1003
S'MAIN'
p1004
S'NNP'
p1005
S'B-NP'
p1006
g4
tp1007
a(S'RESULTS'
p1008
S'RESULTS'
p1009
S'NNP'
p1010
S'I-NP'
p1011
g4
tp1012
a(S'Data'
p1013
S'Data'
p1014
S'NNP'
p1015
S'I-NP'
p1016
g4
tp1017
a(S'gathered'
p1018
S'gather'
p1019
S'VBD'
p1020
S'B-VP'
p1021
g4
tp1022
a(S'included'
p1023
S'include'
p1024
S'VBD'
p1025
S'B-VP'
p1026
g4
tp1027
a(g176
g176
g176
g4
g4
tp1028
a(S'age'
p1029
S'age'
p1030
S'NN'
p1031
S'B-NP'
p1032
g4
tp1033
a(g175
g175
g176
g4
g4
tp1034
a(S'gender'
p1035
S'gender'
p1036
S'NN'
p1037
S'B-NP'
p1038
g4
tp1039
a(g175
g175
g176
g4
g4
tp1040
a(S'ICU'
p1041
S'ICU'
p1042
S'NN'
p1043
S'B-NP'
p1044
g4
tp1045
a(S'discharge'
p1046
S'discharge'
p1047
S'NN'
p1048
S'I-NP'
p1049
g4
tp1050
a(S'status'
p1051
S'status'
p1052
S'NN'
p1053
S'I-NP'
p1054
g4
tp1055
a(g175
g175
g176
g4
g4
tp1056
a(S'the'
p1057
S'the'
p1058
S'DT'
p1059
S'B-NP'
p1060
g4
tp1061
a(S'duration'
p1062
S'duration'
p1063
S'NN'
p1064
S'I-NP'
p1065
g4
tp1066
a(S'of'
p1067
S'of'
p1068
S'IN'
p1069
S'B-PP'
p1070
g4
tp1071
a(S'ICU'
p1072
S'ICU'
p1073
S'NN'
p1074
S'B-NP'
p1075
g4
tp1076
a(S'stay'
p1077
S'stay'
p1078
S'NN'
p1079
S'I-NP'
p1080
g4
tp1081
a(g175
g175
g176
g4
g4
tp1082
a(S'time'
p1083
S'time'
p1084
S'NN'
p1085
S'B-NP'
p1086
g4
tp1087
a(S'in'
p1088
S'in'
p1089
S'IN'
p1090
S'B-PP'
p1091
g4
tp1092
a(S'the'
p1093
S'the'
p1094
S'DT'
p1095
S'B-NP'
p1096
g4
tp1097
a(S'study'
p1098
S'study'
p1099
S'NN'
p1100
S'I-NP'
p1101
g4
tp1102
a(g175
g175
g176
g4
g4
tp1103
a(S'volume'
p1104
S'volume'
p1105
S'NN'
p1106
S'B-NP'
p1107
g4
tp1108
a(S'of'
p1109
S'of'
p1110
S'IN'
p1111
S'B-PP'
p1112
g4
tp1113
a(S'all'
p1114
S'all'
p1115
S'DT'
p1116
S'B-NP'
p1117
g4
tp1118
a(S'blood'
p1119
S'blood'
p1120
S'NN'
p1121
S'I-NP'
p1122
g4
tp1123
a(S'drawn'
p1124
S'drawn'
p1125
S'NN'
p1126
S'I-NP'
p1127
g4
tp1128
a(g467
g467
g467
g4
g4
tp1129
a(S'discarded'
p1130
S'discard'
p1131
S'VBN'
p1132
S'B-VP'
p1133
g4
tp1134
a(g467
g467
g467
g4
g4
tp1135
a(S'or'
p1136
S'or'
p1137
S'CC'
p1138
g4
g4
tp1139
a(S'lost'
p1140
S'lose'
p1141
S'VBN'
p1142
S'B-VP'
p1143
g4
tp1144
a(S'due'
p1145
S'due'
p1146
S'JJ'
p1147
S'B-ADJP'
p1148
g4
tp1149
a(S'to'
p1150
S'to'
p1151
S'TO'
p1152
S'B-VP'
p1153
g4
tp1154
a(S'leakage'
p1155
S'leakage'
p1156
S'VB'
p1157
S'I-VP'
p1158
g4
tp1159
a(g175
g175
g176
g4
g4
tp1160
a(S'hemoglobin'
p1161
S'hemoglobin'
p1162
S'NN'
p1163
S'B-NP'
p1164
S'B-protein'
p1165
tp1166
a(S'concentrations'
p1167
S'concentration'
p1168
S'NNS'
p1169
S'I-NP'
p1170
g4
tp1171
a(g175
g175
g176
g4
g4
tp1172
a(S'blood'
p1173
S'blood'
p1174
S'NN'
p1175
S'B-NP'
p1176
g4
tp1177
a(S'transfusions'
p1178
S'transfusion'
p1179
S'NNS'
p1180
S'I-NP'
p1181
g4
tp1182
a(g175
g175
g176
g4
g4
tp1183
a(S'and'
p1184
S'and'
p1185
S'CC'
p1186
g4
g4
tp1187
a(S'accidental'
p1188
S'accidental'
p1189
S'JJ'
p1190
S'B-NP'
p1191
g4
tp1192
a(S'needle'
p1193
S'needle'
p1194
S'NN'
p1195
S'I-NP'
p1196
g4
tp1197
a(S'injuries.'
p1198
S'injuries.'
p1199
S'NN'
p1200
S'I-NP'
p1201
g4
tp1202
a(S'Arterial'
p1203
S'Arterial'
p1204
S'JJ'
p1205
S'I-NP'
p1206
g4
tp1207
a(S'pressure'
p1208
S'pressure'
p1209
S'NN'
p1210
S'I-NP'
p1211
g4
tp1212
a(S'waveforms'
p1213
S'waveform'
p1214
S'NNS'
p1215
S'I-NP'
p1216
g4
tp1217
a(S'were'
p1218
S'be'
p1219
S'VBD'
p1220
S'B-VP'
p1221
g4
tp1222
a(S'recorded'
p1223
S'record'
p1224
S'VBN'
p1225
S'I-VP'
p1226
g4
tp1227
a(S'and'
p1228
S'and'
p1229
S'CC'
p1230
g4
g4
tp1231
a(S'inspected'
p1232
S'inspect'
p1233
S'VBN'
p1234
S'B-VP'
p1235
g4
tp1236
a(S'for'
p1237
S'for'
p1238
S'IN'
p1239
S'B-PP'
p1240
g4
tp1241
a(S'dampening'
p1242
S'dampen'
p1243
S'VBG'
p1244
S'B-VP'
p1245
g4
tp1246
a(S'or'
p1247
S'or'
p1248
S'CC'
p1249
g4
g4
tp1250
a(S'other'
p1251
S'other'
p1252
S'JJ'
p1253
S'B-NP'
p1254
g4
tp1255
a(S'deformation.'
p1256
S'deformation.'
p1257
S'NN'
p1258
S'I-NP'
p1259
g4
tp1260
a(S'Mean'
p1261
S'Mean'
p1262
S'NN'
p1263
S'I-NP'
p1264
g4
tp1265
a(S'hemoglobin'
p1266
S'hemoglobin'
p1267
S'NN'
p1268
S'I-NP'
p1269
g4
tp1270
a(S'concentrations'
p1271
S'concentration'
p1272
S'NNS'
p1273
S'I-NP'
p1274
g4
tp1275
a(S'were'
p1276
S'be'
p1277
S'VBD'
p1278
S'B-VP'
p1279
g4
tp1280
a(S'compared'
p1281
S'compare'
p1282
S'VBN'
p1283
S'I-VP'
p1284
g4
tp1285
a(S'on'
p1286
S'on'
p1287
S'IN'
p1288
S'B-PP'
p1289
g4
tp1290
a(S'ICU'
p1291
S'ICU'
p1292
S'NN'
p1293
S'B-NP'
p1294
g4
tp1295
a(S'admission'
p1296
S'admission'
p1297
S'NN'
p1298
S'I-NP'
p1299
g4
tp1300
a(S'and'
p1301
S'and'
p1302
S'CC'
p1303
S'B-PP'
p1304
g4
tp1305
a(S'at'
p1306
S'at'
p1307
S'IN'
p1308
S'B-PP'
p1309
g4
tp1310
a(S'12-hr'
p1311
S'12-hr'
p1312
S'JJ'
p1313
S'B-NP'
p1314
g4
tp1315
a(S'intervals.'
p1316
S'intervals.'
p1317
S'NN'
p1318
S'I-NP'
p1319
g4
tp1320
a(S'Demographic'
p1321
S'Demographic'
p1322
S'JJ'
p1323
S'I-NP'
p1324
g4
tp1325
a(S'and'
p1326
S'and'
p1327
S'CC'
p1328
S'I-NP'
p1329
g4
tp1330
a(S'clinical'
p1331
S'clinical'
p1332
S'JJ'
p1333
S'I-NP'
p1334
g4
tp1335
a(S'characteristics'
p1336
S'characteristic'
p1337
S'NNS'
p1338
S'I-NP'
p1339
g4
tp1340
a(S'of'
p1341
S'of'
p1342
S'IN'
p1343
S'B-PP'
p1344
g4
tp1345
a(S'the'
p1346
S'the'
p1347
S'DT'
p1348
S'B-NP'
p1349
g4
tp1350
a(S'two'
p1351
S'two'
p1352
S'CD'
p1353
S'I-NP'
p1354
g4
tp1355
a(S'groups'
p1356
S'group'
p1357
S'NNS'
p1358
S'I-NP'
p1359
g4
tp1360
a(S'were'
p1361
S'be'
p1362
S'VBD'
p1363
S'B-VP'
p1364
g4
tp1365
a(S'not'
p1366
S'not'
p1367
S'RB'
p1368
S'I-VP'
p1369
g4
tp1370
a(S'significantly'
p1371
S'significantly'
p1372
S'RB'
p1373
S'I-VP'
p1374
g4
tp1375
a(S'different.'
p1376
S'different.'
p1377
S'VB'
p1378
S'I-VP'
p1379
g4
tp1380
a(S'The'
p1381
S'The'
p1382
S'DT'
p1383
S'B-NP'
p1384
g4
tp1385
a(S'volume'
p1386
S'volume'
p1387
S'NN'
p1388
S'I-NP'
p1389
g4
tp1390
a(S'of'
p1391
S'of'
p1392
S'IN'
p1393
S'B-PP'
p1394
g4
tp1395
a(S'blood'
p1396
S'blood'
p1397
S'NN'
p1398
S'B-NP'
p1399
g4
tp1400
a(S'drawn'
p1401
S'draw'
p1402
S'VBN'
p1403
S'B-VP'
p1404
g4
tp1405
a(S'and'
p1406
S'and'
p1407
S'CC'
p1408
S'I-VP'
p1409
g4
tp1410
a(S'discarded'
p1411
S'discard'
p1412
S'VBN'
p1413
S'I-VP'
p1414
g4
tp1415
a(S'from'
p1416
S'from'
p1417
S'IN'
p1418
S'B-PP'
p1419
g4
tp1420
a(S'arterial'
p1421
S'arterial'
p1422
S'JJ'
p1423
S'B-NP'
p1424
g4
tp1425
a(S'catheters'
p1426
S'catheter'
p1427
S'NNS'
p1428
S'I-NP'
p1429
g4
tp1430
a(S'was'
p1431
S'be'
p1432
S'VBD'
p1433
S'B-VP'
p1434
g4
tp1435
a(S'significantly'
p1436
S'significantly'
p1437
S'RB'
p1438
S'B-ADJP'
p1439
g4
tp1440
a(S'lower'
p1441
S'low'
p1442
S'JJR'
p1443
S'I-ADJP'
p1444
g4
tp1445
a(S'in'
p1446
S'in'
p1447
S'IN'
p1448
S'B-PP'
p1449
g4
tp1450
a(S'the'
p1451
S'the'
p1452
S'DT'
p1453
S'B-NP'
p1454
g4
tp1455
a(S'blood'
p1456
S'blood'
p1457
S'NN'
p1458
S'I-NP'
p1459
g4
tp1460
a(S'conservation'
p1461
S'conservation'
p1462
S'NN'
p1463
S'I-NP'
p1464
g4
tp1465
a(S'group'
p1466
S'group'
p1467
S'NN'
p1468
S'I-NP'
p1469
g4
tp1470
a(g571
g571
g571
g4
g4
tp1471
a(S'blood'
p1472
S'blood'
p1473
S'NN'
p1474
S'B-NP'
p1475
g4
tp1476
a(S'conservation'
p1477
S'conservation'
p1478
S'NN'
p1479
S'I-NP'
p1480
g4
tp1481
a(S'device'
p1482
S'device'
p1483
S'NN'
p1484
S'I-NP'
p1485
g4
tp1486
a(g176
g176
g176
g4
g4
tp1487
a(S'5.7'
p1488
S'5.7'
p1489
S'CD'
p1490
S'B-NP'
p1491
g4
tp1492
a(S'+/-'
p1493
S'+/-'
p1494
S'CC'
p1495
S'I-NP'
p1496
g4
tp1497
a(S'7.5'
p1498
S'7.5'
p1499
S'CD'
p1500
S'I-NP'
p1501
g4
tp1502
a(S'mL'
p1503
S'mL'
p1504
S'NN'
p1505
S'I-NP'
p1506
g4
tp1507
a(g175
g175
g176
g4
g4
tp1508
a(S'control'
p1509
S'control'
p1510
S'NN'
p1511
S'B-NP'
p1512
g4
tp1513
a(g176
g176
g176
g4
g4
tp1514
a(S'96.4'
p1515
S'96.4'
p1516
S'CD'
p1517
S'B-NP'
p1518
g4
tp1519
a(S'+/-'
p1520
S'+/-'
p1521
S'CC'
p1522
S'I-NP'
p1523
g4
tp1524
a(S'88.5'
p1525
S'88.5'
p1526
S'CD'
p1527
S'I-NP'
p1528
g4
tp1529
a(S'mL'
p1530
S'mL'
p1531
S'NN'
p1532
S'I-NP'
p1533
g4
tp1534
a(g175
g175
g176
g4
g4
tp1535
a(S'p'
p1536
g1536
S'NN'
p1537
S'B-NP'
p1538
g4
tp1539
a(S'<'
p1540
g1540
S'JJR'
p1541
S'B-NP'
p1542
g4
tp1543
a(S'.0001'
p1544
S'.0001'
p1545
S'CD'
p1546
S'I-NP'
p1547
g4
tp1548
a(g105
g105
g105
g4
g4
tp1549
a(g467
g467
g467
g4
g4
tp1550
a(S'as'
p1551
S'as'
p1552
S'IN'
p1553
S'B-SBAR'
p1554
g4
tp1555
a(S'was'
p1556
S'be'
p1557
S'VBD'
p1558
S'B-VP'
p1559
g4
tp1560
a(S'the'
p1561
S'the'
p1562
S'DT'
p1563
S'B-NP'
p1564
g4
tp1565
a(S'total'
p1566
S'total'
p1567
S'JJ'
p1568
S'I-NP'
p1569
g4
tp1570
a(S'volume'
p1571
S'volume'
p1572
S'NN'
p1573
S'I-NP'
p1574
g4
tp1575
a(S'of'
p1576
S'of'
p1577
S'IN'
p1578
S'B-PP'
p1579
g4
tp1580
a(S'blood'
p1581
S'blood'
p1582
S'NN'
p1583
S'B-NP'
p1584
g4
tp1585
a(S'discarded'
p1586
S'discard'
p1587
S'VBN'
p1588
S'B-VP'
p1589
g4
tp1590
a(g571
g571
g571
g4
g4
tp1591
a(S'blood'
p1592
S'blood'
p1593
S'NN'
p1594
S'B-NP'
p1595
g4
tp1596
a(S'conservation'
p1597
S'conservation'
p1598
S'NN'
p1599
S'I-NP'
p1600
g4
tp1601
a(S'device'
p1602
S'device'
p1603
S'NN'
p1604
S'I-NP'
p1605
g4
tp1606
a(g176
g176
g176
g4
g4
tp1607
a(S'19.4'
p1608
S'19.4'
p1609
S'CD'
p1610
S'B-NP'
p1611
g4
tp1612
a(S'+/-'
p1613
S'+/-'
p1614
S'CC'
p1615
S'I-NP'
p1616
g4
tp1617
a(S'47.4'
p1618
S'47.4'
p1619
S'CD'
p1620
S'I-NP'
p1621
g4
tp1622
a(S'mL'
p1623
S'mL'
p1624
S'NN'
p1625
S'I-NP'
p1626
g4
tp1627
a(g175
g175
g176
g4
g4
tp1628
a(S'control'
p1629
S'control'
p1630
S'NN'
p1631
S'B-NP'
p1632
g4
tp1633
a(g176
g176
g176
g4
g4
tp1634
a(S'103.5'
p1635
S'103.5'
p1636
S'CD'
p1637
S'B-NP'
p1638
g4
tp1639
a(S'+/-'
p1640
S'+/-'
p1641
S'CC'
p1642
S'I-NP'
p1643
g4
tp1644
a(S'99.9'
p1645
S'99.9'
p1646
S'CD'
p1647
S'I-NP'
p1648
g4
tp1649
a(S'mL'
p1650
S'mL'
p1651
S'NN'
p1652
S'I-NP'
p1653
g4
tp1654
a(g175
g175
g176
g4
g4
tp1655
a(g1536
g1536
S'NN'
p1656
S'B-NP'
p1657
g4
tp1658
a(g1540
g1540
S'JJR'
p1659
S'B-NP'
p1660
g4
tp1661
a(S'.0001'
p1662
S'.0001'
p1663
S'CD'
p1664
S'I-NP'
p1665
g4
tp1666
a(g105
g105
g105
g4
g4
tp1667
a(g70
g70
g70
g4
g4
tp1668
a(S'Mean'
p1669
S'Mean'
p1670
S'JJ'
p1671
S'B-NP'
p1672
g4
tp1673
a(S'hemoglobin'
p1674
S'hemoglobin'
p1675
S'NN'
p1676
S'I-NP'
p1677
S'B-protein'
p1678
tp1679
a(S'concentration'
p1680
S'concentration'
p1681
S'NN'
p1682
S'I-NP'
p1683
g4
tp1684
a(S'on'
p1685
S'on'
p1686
S'IN'
p1687
S'B-PP'
p1688
g4
tp1689
a(S'admission'
p1690
S'admission'
p1691
S'NN'
p1692
S'B-NP'
p1693
g4
tp1694
a(S'was'
p1695
S'be'
p1696
S'VBD'
p1697
S'B-VP'
p1698
g4
tp1699
a(S'similar'
p1700
S'similar'
p1701
S'JJ'
p1702
S'B-ADJP'
p1703
g4
tp1704
a(S'in'
p1705
S'in'
p1706
S'IN'
p1707
S'B-PP'
p1708
g4
tp1709
a(S'the'
p1710
S'the'
p1711
S'DT'
p1712
S'B-NP'
p1713
g4
tp1714
a(S'two'
p1715
S'two'
p1716
S'CD'
p1717
S'I-NP'
p1718
g4
tp1719
a(S'groups'
p1720
S'group'
p1721
S'NNS'
p1722
S'I-NP'
p1723
g4
tp1724
a(g571
g571
g571
g4
g4
tp1725
a(S'blood'
p1726
S'blood'
p1727
S'NN'
p1728
S'B-NP'
p1729
g4
tp1730
a(S'conservation'
p1731
S'conservation'
p1732
S'NN'
p1733
S'I-NP'
p1734
g4
tp1735
a(S'device'
p1736
S'device'
p1737
S'NN'
p1738
S'I-NP'
p1739
g4
tp1740
a(S'group'
p1741
S'group'
p1742
S'NN'
p1743
S'I-NP'
p1744
g4
tp1745
a(g176
g176
g176
g4
g4
tp1746
a(S'11.8'
p1747
S'11.8'
p1748
S'CD'
p1749
S'B-NP'
p1750
g4
tp1751
a(S'+/-'
p1752
S'+/-'
p1753
S'CC'
p1754
S'I-NP'
p1755
g4
tp1756
a(S'2.5'
p1757
S'2.5'
p1758
S'CD'
p1759
S'I-NP'
p1760
g4
tp1761
a(S'g/dL'
p1762
S'g/dL'
p1763
S'NN'
p1764
S'I-NP'
p1765
g4
tp1766
a(g175
g175
g176
g4
g4
tp1767
a(S'control'
p1768
S'control'
p1769
S'NN'
p1770
S'B-NP'
p1771
g4
tp1772
a(S'group'
p1773
S'group'
p1774
S'NN'
p1775
S'I-NP'
p1776
g4
tp1777
a(g176
g176
g176
g4
g4
tp1778
a(S'12.6'
p1779
S'12.6'
p1780
S'CD'
p1781
S'B-NP'
p1782
g4
tp1783
a(S'+/-'
p1784
S'+/-'
p1785
S'CC'
p1786
S'I-NP'
p1787
g4
tp1788
a(S'2.3'
p1789
S'2.3'
p1790
S'CD'
p1791
S'I-NP'
p1792
g4
tp1793
a(S'g/dL'
p1794
S'g/dL'
p1795
S'NN'
p1796
S'I-NP'
p1797
g4
tp1798
a(g105
g105
g105
g4
g4
tp1799
a(g70
g70
g70
g4
g4
tp1800
a(S'In'
p1801
S'In'
p1802
S'IN'
p1803
S'B-PP'
p1804
g4
tp1805
a(S'both'
p1806
S'both'
p1807
S'DT'
p1808
S'B-NP'
p1809
g4
tp1810
a(S'groups'
p1811
S'group'
p1812
S'NNS'
p1813
S'I-NP'
p1814
g4
tp1815
a(g467
g467
g467
g4
g4
tp1816
a(S'the'
p1817
S'the'
p1818
S'DT'
p1819
S'B-NP'
p1820
g4
tp1821
a(S'mean'
p1822
S'mean'
p1823
S'JJ'
p1824
S'I-NP'
p1825
g4
tp1826
a(S'hemoglobin'
p1827
S'hemoglobin'
p1828
S'NN'
p1829
S'I-NP'
p1830
S'B-protein'
p1831
tp1832
a(S'concentration'
p1833
S'concentration'
p1834
S'NN'
p1835
S'I-NP'
p1836
g4
tp1837
a(S'declined'
p1838
S'decline'
p1839
S'VBD'
p1840
S'B-VP'
p1841
g4
tp1842
a(S'most'
p1843
S'most'
p1844
S'RBS'
p1845
S'B-ADVP'
p1846
g4
tp1847
a(S'rapidly'
p1848
S'rapidly'
p1849
S'RB'
p1850
S'I-ADVP'
p1851
g4
tp1852
a(S'in'
p1853
S'in'
p1854
S'IN'
p1855
S'B-PP'
p1856
g4
tp1857
a(S'the'
p1858
S'the'
p1859
S'DT'
p1860
S'B-NP'
p1861
g4
tp1862
a(S'first'
p1863
S'first'
p1864
S'JJ'
p1865
S'I-NP'
p1866
g4
tp1867
a(S'24'
p1868
S'24'
p1869
S'CD'
p1870
S'I-NP'
p1871
g4
tp1872
a(S'hrs'
p1873
S'hr'
p1874
S'NNS'
p1875
S'I-NP'
p1876
g4
tp1877
a(S'of'
p1878
S'of'
p1879
S'IN'
p1880
S'B-PP'
p1881
g4
tp1882
a(S'ICU'
p1883
S'ICU'
p1884
S'NN'
p1885
S'B-NP'
p1886
S'B-DNA'
p1887
tp1888
a(S'care'
p1889
S'care'
p1890
S'NN'
p1891
S'I-NP'
p1892
S'I-DNA'
p1893
tp1894
a(S'and'
p1895
S'and'
p1896
S'CC'
p1897
g4
g4
tp1898
a(g467
g467
g467
g4
g4
tp1899
a(S'thereafter'
p1900
S'thereafter'
p1901
S'RB'
p1902
S'B-ADVP'
p1903
g4
tp1904
a(g467
g467
g467
g4
g4
tp1905
a(S'declined'
p1906
S'decline'
p1907
S'VBD'
p1908
S'B-VP'
p1909
g4
tp1910
a(S'more'
p1911
S'more'
p1912
S'JJR'
p1913
S'B-NP'
p1914
g4
tp1915
a(S'slowly.'
p1916
S'slowly.'
p1917
S'NN'
p1918
S'I-NP'
p1919
g4
tp1920
a(S'Although'
p1921
S'Although'
p1922
S'IN'
p1923
S'B-SBAR'
p1924
g4
tp1925
a(S'the'
p1926
S'the'
p1927
S'DT'
p1928
S'B-NP'
p1929
g4
tp1930
a(S'mean'
p1931
S'mean'
p1932
S'JJ'
p1933
S'I-NP'
p1934
g4
tp1935
a(S'hemoglobin'
p1936
S'hemoglobin'
p1937
S'NN'
p1938
S'I-NP'
p1939
S'B-protein'
p1940
tp1941
a(S'concentration'
p1942
S'concentration'
p1943
S'NN'
p1944
S'I-NP'
p1945
g4
tp1946
a(S'was'
p1947
S'be'
p1948
S'VBD'
p1949
S'B-VP'
p1950
g4
tp1951
a(S'higher'
p1952
S'high'
p1953
S'JJR'
p1954
S'B-ADJP'
p1955
g4
tp1956
a(S'in'
p1957
S'in'
p1958
S'IN'
p1959
S'B-PP'
p1960
g4
tp1961
a(S'the'
p1962
S'the'
p1963
S'DT'
p1964
S'B-NP'
p1965
g4
tp1966
a(S'blood'
p1967
S'blood'
p1968
S'NN'
p1969
S'I-NP'
p1970
g4
tp1971
a(S'conservation'
p1972
S'conservation'
p1973
S'NN'
p1974
S'I-NP'
p1975
g4
tp1976
a(S'group'
p1977
S'group'
p1978
S'NN'
p1979
S'I-NP'
p1980
g4
tp1981
a(S'after'
p1982
S'after'
p1983
S'IN'
p1984
S'B-PP'
p1985
g4
tp1986
a(S'6'
p1987
g1987
S'CD'
p1988
S'B-NP'
p1989
g4
tp1990
a(S'days'
p1991
S'day'
p1992
S'NNS'
p1993
S'I-NP'
p1994
g4
tp1995
a(g467
g467
g467
g4
g4
tp1996
a(S'statistical'
p1997
S'statistical'
p1998
S'JJ'
p1999
S'B-NP'
p2000
g4
tp2001
a(S'significance'
p2002
S'significance'
p2003
S'NN'
p2004
S'I-NP'
p2005
g4
tp2006
a(S'was'
p2007
S'be'
p2008
S'VBD'
p2009
S'B-VP'
p2010
g4
tp2011
a(S'not'
p2012
S'not'
p2013
S'RB'
p2014
S'I-VP'
p2015
g4
tp2016
a(S'reached'
p2017
S'reach'
p2018
S'VBN'
p2019
S'I-VP'
p2020
g4
tp2021
a(S'until'
p2022
S'until'
p2023
S'IN'
p2024
S'B-PP'
p2025
g4
tp2026
a(S'9.5'
p2027
S'9.5'
p2028
S'CD'
p2029
S'B-NP'
p2030
g4
tp2031
a(S'days'
p2032
S'day'
p2033
S'NNS'
p2034
S'I-NP'
p2035
g4
tp2036
a(S'of'
p2037
S'of'
p2038
S'IN'
p2039
S'B-PP'
p2040
g4
tp2041
a(S'ICU'
p2042
S'ICU'
p2043
S'NN'
p2044
S'B-NP'
p2045
g4
tp2046
a(S'care.'
p2047
S'care.'
p2048
S'NN'
p2049
S'I-NP'
p2050
g4
tp2051
a(S'The'
p2052
S'The'
p2053
S'DT'
p2054
S'B-NP'
p2055
g4
tp2056
a(S'mean'
p2057
S'mean'
p2058
S'JJ'
p2059
S'I-NP'
p2060
g4
tp2061
a(S'change'
p2062
S'change'
p2063
S'NN'
p2064
S'I-NP'
p2065
g4
tp2066
a(S'in'
p2067
S'in'
p2068
S'IN'
p2069
S'B-PP'
p2070
g4
tp2071
a(S'hemoglobin'
p2072
S'hemoglobin'
p2073
S'NN'
p2074
S'B-NP'
p2075
S'B-protein'
p2076
tp2077
a(S'concentration'
p2078
S'concentration'
p2079
S'NN'
p2080
S'I-NP'
p2081
g4
tp2082
a(g571
g571
g571
g4
g4
tp2083
a(S'overall'
p2084
S'overall'
p2085
S'JJ'
p2086
S'B-ADVP'
p2087
g4
tp2088
a(g176
g176
g176
g4
g4
tp2089
a(S'1.2'
p2090
S'1.2'
p2091
S'CD'
p2092
S'B-NP'
p2093
g4
tp2094
a(S'+/-'
p2095
S'+/-'
p2096
S'CC'
p2097
S'I-NP'
p2098
g4
tp2099
a(S'2.2'
p2100
S'2.2'
p2101
S'CD'
p2102
S'I-NP'
p2103
g4
tp2104
a(S'g/dL'
p2105
S'g/dL'
p2106
S'NN'
p2107
S'I-NP'
p2108
g4
tp2109
a(g105
g105
g105
g4
g4
tp2110
a(S'during'
p2111
S'during'
p2112
S'IN'
p2113
S'B-PP'
p2114
g4
tp2115
a(S'the'
p2116
S'the'
p2117
S'DT'
p2118
S'B-NP'
p2119
g4
tp2120
a(S'study'
p2121
S'study'
p2122
S'NN'
p2123
S'I-NP'
p2124
g4
tp2125
a(S'represents'
p2126
S'represent'
p2127
S'VBZ'
p2128
S'B-VP'
p2129
g4
tp2130
a(g21
g21
S'DT'
p2131
S'B-NP'
p2132
g4
tp2133
a(S'statistically'
p2134
S'statistically'
p2135
S'RB'
p2136
S'I-NP'
p2137
g4
tp2138
a(S'significant'
p2139
S'significant'
p2140
S'JJ'
p2141
S'I-NP'
p2142
g4
tp2143
a(g571
g571
g571
g4
g4
tp2144
a(g1536
g1536
S'NN'
p2145
S'B-NP'
p2146
g4
tp2147
a(g1540
g1540
S'JJR'
p2148
S'B-NP'
p2149
g4
tp2150
a(S'.0001'
p2151
S'.0001'
p2152
S'CD'
p2153
S'I-NP'
p2154
g4
tp2155
a(g105
g105
g105
g4
g4
tp2156
a(S'decrease'
p2157
S'decrease'
p2158
S'NN'
p2159
S'B-NP'
p2160
g4
tp2161
a(S'of'
p2162
S'of'
p2163
S'IN'
p2164
S'B-PP'
p2165
g4
tp2166
a(S'9.7'
p2167
S'9.7'
p2168
S'CD'
p2169
S'B-NP'
p2170
g4
tp2171
a(S'%'
p2172
g2172
S'NN'
p2173
S'I-NP'
p2174
g4
tp2175
a(g70
g70
g70
g4
g4
tp2176
a(S'Hemoglobin'
p2177
S'Hemoglobin'
p2178
S'NN'
p2179
S'B-NP'
p2180
S'B-protein'
p2181
tp2182
a(S'concentration'
p2183
S'concentration'
p2184
S'NN'
p2185
S'I-NP'
p2186
g4
tp2187
a(S'during'
p2188
S'during'
p2189
S'IN'
p2190
S'B-PP'
p2191
g4
tp2192
a(S'the'
p2193
S'the'
p2194
S'DT'
p2195
S'B-NP'
p2196
g4
tp2197
a(S'study'
p2198
S'study'
p2199
S'NN'
p2200
S'I-NP'
p2201
g4
tp2202
a(S'decreased'
p2203
S'decrease'
p2204
S'VBD'
p2205
S'B-VP'
p2206
g4
tp2207
a(S'by'
p2208
S'by'
p2209
S'IN'
p2210
S'B-PP'
p2211
g4
tp2212
a(S'1.4'
p2213
S'1.4'
p2214
S'CD'
p2215
S'B-NP'
p2216
g4
tp2217
a(S'+/-'
p2218
S'+/-'
p2219
S'SYM'
p2220
S'I-NP'
p2221
g4
tp2222
a(S'2.2'
p2223
S'2.2'
p2224
S'CD'
p2225
S'I-NP'
p2226
g4
tp2227
a(S'g/dL'
p2228
S'g/dL'
p2229
S'NN'
p2230
S'I-NP'
p2231
g4
tp2232
a(S'in'
p2233
S'in'
p2234
S'IN'
p2235
S'B-PP'
p2236
g4
tp2237
a(S'the'
p2238
S'the'
p2239
S'DT'
p2240
S'B-NP'
p2241
g4
tp2242
a(S'control'
p2243
S'control'
p2244
S'NN'
p2245
S'I-NP'
p2246
g4
tp2247
a(S'group'
p2248
S'group'
p2249
S'NN'
p2250
S'I-NP'
p2251
g4
tp2252
a(S'and'
p2253
S'and'
p2254
S'CC'
p2255
g4
g4
tp2256
a(S'1.0'
p2257
S'1.0'
p2258
S'CD'
p2259
S'B-NP'
p2260
g4
tp2261
a(S'+/-'
p2262
S'+/-'
p2263
S'SYM'
p2264
S'I-NP'
p2265
g4
tp2266
a(S'2.3'
p2267
S'2.3'
p2268
S'CD'
p2269
S'I-NP'
p2270
g4
tp2271
a(S'g/dL'
p2272
S'g/dL'
p2273
S'NN'
p2274
S'I-NP'
p2275
g4
tp2276
a(S'in'
p2277
S'in'
p2278
S'IN'
p2279
S'B-PP'
p2280
g4
tp2281
a(S'the'
p2282
S'the'
p2283
S'DT'
p2284
S'B-NP'
p2285
g4
tp2286
a(S'blood'
p2287
S'blood'
p2288
S'NN'
p2289
S'I-NP'
p2290
g4
tp2291
a(S'conservation'
p2292
S'conservation'
p2293
S'NN'
p2294
S'I-NP'
p2295
g4
tp2296
a(S'group'
p2297
S'group'
p2298
S'NN'
p2299
S'I-NP'
p2300
g4
tp2301
a(g571
g571
g571
g4
g4
tp2302
a(g1536
g1536
S'NN'
p2303
S'B-NP'
p2304
g4
tp2305
a(S'='
p2306
g2306
S'SYM'
p2307
S'B-VP'
p2308
g4
tp2309
a(S'nonsignificant'
p2310
S'nonsignificant'
p2311
S'JJ'
p2312
S'B-ADJP'
p2313
g4
tp2314
a(g105
g105
g105
g4
g4
tp2315
a(g70
g70
g70
g4
g4
tp2316
a(S'Univariate'
p2317
S'Univariate'
p2318
S'JJ'
p2319
S'B-NP'
p2320
g4
tp2321
a(S'and'
p2322
S'and'
p2323
S'CC'
p2324
S'I-NP'
p2325
g4
tp2326
a(S'multiple'
p2327
S'multiple'
p2328
S'JJ'
p2329
S'I-NP'
p2330
g4
tp2331
a(S'regression'
p2332
S'regression'
p2333
S'NN'
p2334
S'I-NP'
p2335
g4
tp2336
a(S'analysis'
p2337
S'analysis'
p2338
S'NN'
p2339
S'I-NP'
p2340
g4
tp2341
a(S'demonstrated'
p2342
S'demonstrate'
p2343
S'VBD'
p2344
S'B-VP'
p2345
g4
tp2346
a(S'discarded'
p2347
S'discard'
p2348
S'VBN'
p2349
S'I-VP'
p2350
g4
tp2351
a(S'blood'
p2352
S'blood'
p2353
S'NN'
p2354
S'B-NP'
p2355
g4
tp2356
a(S'volume'
p2357
S'volume'
p2358
S'NN'
p2359
S'I-NP'
p2360
g4
tp2361
a(S'to'
p2362
S'to'
p2363
S'TO'
p2364
S'B-VP'
p2365
g4
tp2366
a(S'be'
p2367
S'be'
p2368
S'VB'
p2369
S'I-VP'
p2370
g4
tp2371
a(g21
g21
S'DT'
p2372
S'B-NP'
p2373
g4
tp2374
a(S'significant'
p2375
S'significant'
p2376
S'JJ'
p2377
S'I-NP'
p2378
g4
tp2379
a(S'and'
p2380
S'and'
p2381
S'CC'
p2382
S'I-NP'
p2383
g4
tp2384
a(S'independent'
p2385
S'independent'
p2386
S'JJ'
p2387
S'I-NP'
p2388
g4
tp2389
a(S'predictor'
p2390
S'predictor'
p2391
S'NN'
p2392
S'I-NP'
p2393
g4
tp2394
a(S'of'
p2395
S'of'
p2396
S'IN'
p2397
S'B-PP'
p2398
g4
tp2399
a(S'the'
p2400
S'the'
p2401
S'DT'
p2402
S'B-NP'
p2403
g4
tp2404
a(S'decline'
p2405
S'decline'
p2406
S'NN'
p2407
S'I-NP'
p2408
g4
tp2409
a(S'in'
p2410
S'in'
p2411
S'IN'
p2412
S'B-PP'
p2413
g4
tp2414
a(S'hemoglobin'
p2415
S'hemoglobin'
p2416
S'NN'
p2417
S'B-NP'
p2418
S'B-protein'
p2419
tp2420
a(S'concentration.'
p2421
S'concentration.'
p2422
S'NN'
p2423
S'I-NP'
p2424
g4
tp2425
a(S'Transfusion'
p2426
S'Transfusion'
p2427
S'NN'
p2428
S'I-NP'
p2429
g4
tp2430
a(S'requirements'
p2431
S'requirement'
p2432
S'NNS'
p2433
S'I-NP'
p2434
g4
tp2435
a(S'were'
p2436
S'be'
p2437
S'VBD'
p2438
S'B-VP'
p2439
g4
tp2440
a(S'similar'
p2441
S'similar'
p2442
S'JJ'
p2443
S'B-ADJP'
p2444
g4
tp2445
a(S'in'
p2446
S'in'
p2447
S'IN'
p2448
S'B-PP'
p2449
g4
tp2450
a(S'both'
p2451
S'both'
p2452
S'DT'
p2453
S'B-NP'
p2454
g4
tp2455
a(S'groups.'
p2456
S'groups.'
p2457
S'NNS'
p2458
S'I-NP'
p2459
g4
tp2460
a(S'The'
p2461
S'The'
p2462
S'DT'
p2463
S'B-NP'
p2464
g4
tp2465
a(S'blood'
p2466
S'blood'
p2467
S'NN'
p2468
S'I-NP'
p2469
g4
tp2470
a(S'conservation'
p2471
S'conservation'
p2472
S'NN'
p2473
S'I-NP'
p2474
g4
tp2475
a(S'system'
p2476
S'system'
p2477
S'NN'
p2478
S'I-NP'
p2479
g4
tp2480
a(S'did'
p2481
S'do'
p2482
S'VBD'
p2483
S'B-VP'
p2484
g4
tp2485
a(S'not'
p2486
S'not'
p2487
S'RB'
p2488
S'I-VP'
p2489
g4
tp2490
a(S'alter'
p2491
S'alter'
p2492
S'VB'
p2493
S'I-VP'
p2494
g4
tp2495
a(S'or'
p2496
S'or'
p2497
S'CC'
p2498
S'I-VP'
p2499
g4
tp2500
a(S'interfere'
p2501
S'interfere'
p2502
S'VB'
p2503
S'I-VP'
p2504
g4
tp2505
a(S'with'
p2506
S'with'
p2507
S'IN'
p2508
S'B-PP'
p2509
g4
tp2510
a(S'pressure'
p2511
S'pressure'
p2512
S'NN'
p2513
S'B-NP'
p2514
g4
tp2515
a(S'waveforms.'
p2516
S'waveforms.'
p2517
S'NN'
p2518
S'I-NP'
p2519
g4
tp2520
a(S'There'
p2521
S'There'
p2522
S'EX'
p2523
S'B-NP'
p2524
g4
tp2525
a(S'were'
p2526
S'be'
p2527
S'VBD'
p2528
S'B-VP'
p2529
g4
tp2530
a(S'no'
p2531
S'no'
p2532
S'DT'
p2533
S'B-NP'
p2534
g4
tp2535
a(S'accidental'
p2536
S'accidental'
p2537
S'JJ'
p2538
S'I-NP'
p2539
g4
tp2540
a(S'needle'
p2541
S'needle'
p2542
S'NN'
p2543
S'I-NP'
p2544
g4
tp2545
a(S'injuries'
p2546
S'injury'
p2547
S'NNS'
p2548
S'I-NP'
p2549
g4
tp2550
a(S'noted'
p2551
S'note'
p2552
S'VBD'
p2553
S'B-VP'
p2554
g4
tp2555
a(g70
g70
g70
g4
g4
tp2556
a(S'CONCLUSIONS'
p2557
S'CONCLUSIONS'
p2558
S'NNS'
p2559
S'B-NP'
p2560
g4
tp2561
a(S'The'
p2562
S'The'
p2563
S'DT'
p2564
S'B-NP'
p2565
g4
tp2566
a(S'conservation'
p2567
S'conservation'
p2568
S'NN'
p2569
S'I-NP'
p2570
g4
tp2571
a(S'of'
p2572
S'of'
p2573
S'IN'
p2574
S'B-PP'
p2575
g4
tp2576
a(S'blood'
p2577
S'blood'
p2578
S'NN'
p2579
S'B-NP'
p2580
g4
tp2581
a(S'in'
p2582
S'in'
p2583
S'IN'
p2584
S'B-PP'
p2585
g4
tp2586
a(S'critically'
p2587
S'critically'
p2588
S'RB'
p2589
S'B-NP'
p2590
g4
tp2591
a(S'ill'
p2592
S'ill'
p2593
S'JJ'
p2594
S'I-NP'
p2595
g4
tp2596
a(S'patients'
p2597
S'patient'
p2598
S'NNS'
p2599
S'I-NP'
p2600
g4
tp2601
a(S'must'
p2602
S'must'
p2603
S'MD'
p2604
S'B-VP'
p2605
g4
tp2606
a(S'be'
p2607
S'be'
p2608
S'VB'
p2609
S'I-VP'
p2610
g4
tp2611
a(g21
g21
S'DT'
p2612
S'B-NP'
p2613
g4
tp2614
a(S'high-priority'
p2615
S'high-priority'
p2616
S'JJ'
p2617
S'I-NP'
p2618
g4
tp2619
a(S'concern'
p2620
S'concern'
p2621
S'NN'
p2622
S'I-NP'
p2623
g4
tp2624
a(S'of'
p2625
S'of'
p2626
S'IN'
p2627
S'B-PP'
p2628
g4
tp2629
a(S'all'
p2630
S'all'
p2631
S'DT'
p2632
S'B-NP'
p2633
g4
tp2634
a(S'healthcare'
p2635
S'healthcare'
p2636
S'NN'
p2637
S'I-NP'
p2638
g4
tp2639
a(S'workers.'
p2640
S'workers.'
p2641
S'NN'
p2642
S'I-NP'
p2643
g4
tp2644
a(S'Our'
p2645
S'Our'
p2646
S'PRP$'
p2647
S'B-NP'
p2648
g4
tp2649
a(S'data'
p2650
S'datum'
p2651
S'NNS'
p2652
S'I-NP'
p2653
g4
tp2654
a(S'indicate'
p2655
S'indicate'
p2656
S'VBP'
p2657
S'B-VP'
p2658
g4
tp2659
a(S'that'
p2660
S'that'
p2661
S'IN'
p2662
S'B-SBAR'
p2663
g4
tp2664
a(S'the'
p2665
S'the'
p2666
S'DT'
p2667
S'B-NP'
p2668
g4
tp2669
a(S'blood'
p2670
S'blood'
p2671
S'NN'
p2672
S'I-NP'
p2673
g4
tp2674
a(S'conservation'
p2675
S'conservation'
p2676
S'NN'
p2677
S'I-NP'
p2678
g4
tp2679
a(S'system'
p2680
S'system'
p2681
S'NN'
p2682
S'I-NP'
p2683
g4
tp2684
a(S'eliminates'
p2685
S'eliminate'
p2686
S'VBZ'
p2687
S'B-VP'
p2688
g4
tp2689
a(g21
g21
S'DT'
p2690
S'B-NP'
p2691
g4
tp2692
a(S'significant'
p2693
S'significant'
p2694
S'JJ'
p2695
S'I-NP'
p2696
g4
tp2697
a(S'factor'
p2698
S'factor'
p2699
S'NN'
p2700
S'I-NP'
p2701
g4
tp2702
a(S'in'
p2703
S'in'
p2704
S'IN'
p2705
S'B-PP'
p2706
g4
tp2707
a(S'the'
p2708
S'the'
p2709
S'DT'
p2710
S'B-NP'
p2711
g4
tp2712
a(S'decline'
p2713
S'decline'
p2714
S'NN'
p2715
S'I-NP'
p2716
g4
tp2717
a(S'in'
p2718
S'in'
p2719
S'IN'
p2720
S'B-PP'
p2721
g4
tp2722
a(S'hemoglobin'
p2723
S'hemoglobin'
p2724
S'NN'
p2725
S'B-NP'
p2726
S'B-protein'
p2727
tp2728
a(S'concentration.'
p2729
S'concentration.'
p2730
S'NN'
p2731
S'I-NP'
p2732
g4
tp2733
a(S'With'
p2734
S'With'
p2735
S'IN'
p2736
S'B-PP'
p2737
g4
tp2738
a(S'devices'
p2739
S'device'
p2740
S'NNS'
p2741
S'B-NP'
p2742
g4
tp2743
a(S'as'
p2744
S'as'
p2745
S'IN'
p2746
S'B-SBAR'
p2747
g4
tp2748
a(S'described'
p2749
S'describe'
p2750
S'VBN'
p2751
S'B-VP'
p2752
g4
tp2753
a(S'here'
p2754
S'here'
p2755
S'RB'
p2756
S'B-ADVP'
p2757
g4
tp2758
a(g467
g467
g467
g4
g4
tp2759
a(S'there'
p2760
S'there'
p2761
S'EX'
p2762
S'B-NP'
p2763
g4
tp2764
a(S'is'
p2765
S'be'
p2766
S'VBZ'
p2767
S'B-VP'
p2768
g4
tp2769
a(S'no'
p2770
S'no'
p2771
S'DT'
p2772
S'B-NP'
p2773
g4
tp2774
a(S'reason'
p2775
S'reason'
p2776
S'NN'
p2777
S'I-NP'
p2778
g4
tp2779
a(S'to'
p2780
S'to'
p2781
S'TO'
p2782
S'B-VP'
p2783
g4
tp2784
a(S'continue'
p2785
S'continue'
p2786
S'VB'
p2787
S'I-VP'
p2788
g4
tp2789
a(S'the'
p2790
S'the'
p2791
S'DT'
p2792
S'B-NP'
p2793
g4
tp2794
a(S'practice'
p2795
S'practice'
p2796
S'NN'
p2797
S'I-NP'
p2798
g4
tp2799
a(S'of'
p2800
S'of'
p2801
S'IN'
p2802
S'B-PP'
p2803
g4
tp2804
a(S'wasting'
p2805
S'waste'
p2806
S'VBG'
p2807
S'B-VP'
p2808
g4
tp2809
a(S'the'
p2810
S'the'
p2811
S'DT'
p2812
S'B-NP'
p2813
g4
tp2814
a(S'blood'
p2815
S'blood'
p2816
S'NN'
p2817
S'I-NP'
p2818
g4
tp2819
a(S'of'
p2820
S'of'
p2821
S'IN'
p2822
S'B-PP'
p2823
g4
tp2824
a(S'critically'
p2825
S'critically'
p2826
S'RB'
p2827
S'B-NP'
p2828
g4
tp2829
a(S'ill'
p2830
S'ill'
p2831
S'JJ'
p2832
S'I-NP'
p2833
g4
tp2834
a(S'patients'
p2835
S'patient'
p2836
S'NNS'
p2837
S'I-NP'
p2838
g4
tp2839
a(S'in'
p2840
S'in'
p2841
S'IN'
p2842
S'B-SBAR'
p2843
g4
tp2844
a(S'order'
p2845
S'order'
p2846
S'NN'
p2847
g4
g4
tp2848
a(S'to'
p2849
S'to'
p2850
S'TO'
p2851
S'B-VP'
p2852
g4
tp2853
a(S'prevent'
p2854
S'prevent'
p2855
S'VB'
p2856
S'I-VP'
p2857
g4
tp2858
a(S'preanalytic'
p2859
S'preanalytic'
p2860
S'JJ'
p2861
S'B-NP'
p2862
g4
tp2863
a(S'error'
p2864
S'error'
p2865
S'NN'
p2866
S'I-NP'
p2867
g4
tp2868
a(g70
g70
g70
g4
g4
tp2869
a.