(lp0
(S'Catheter-related'
p1
S'Catheter-related'
p2
S'JJ'
p3
S'B-NP'
p4
S'O'
p5
tp6
a(S'infections'
p7
S'infection'
p8
S'NNS'
p9
S'I-NP'
p10
g5
tp11
a(S'via'
p12
S'via'
p13
S'IN'
p14
S'B-PP'
p15
g5
tp16
a(S'temporary'
p17
S'temporary'
p18
S'JJ'
p19
S'B-NP'
p20
g5
tp21
a(S'vascular'
p22
S'vascular'
p23
S'JJ'
p24
S'I-NP'
p25
g5
tp26
a(S'access'
p27
S'access'
p28
S'NN'
p29
S'I-NP'
p30
g5
tp31
a(S'catheters'
p32
S'catheter'
p33
S'NNS'
p34
S'I-NP'
p35
g5
tp36
a(S':'
p37
g37
g37
g5
g5
tp38
a(S'a'
p39
g39
S'DT'
p40
S'B-NP'
p41
g5
tp42
a(S'randomized'
p43
S'randomize'
p44
S'VBN'
p45
S'I-NP'
p46
g5
tp47
a(S'prospective'
p48
S'prospective'
p49
S'JJ'
p50
S'I-NP'
p51
g5
tp52
a(S'study'
p53
S'study'
p54
S'NN'
p55
S'I-NP'
p56
g5
tp57
a(S'.'
p58
g58
g58
g5
g5
tp59
a(S'Temporary'
p60
S'Temporary'
p61
S'JJ'
p62
S'B-NP'
p63
g5
tp64
a(S'vascular'
p65
S'vascular'
p66
S'JJ'
p67
S'I-NP'
p68
g5
tp69
a(S'access'
p70
S'access'
p71
S'NN'
p72
S'I-NP'
p73
g5
tp74
a(S'catheters'
p75
S'catheter'
p76
S'NNS'
p77
S'I-NP'
p78
g5
tp79
a(S'('
p80
g80
g80
g5
g5
tp81
a(S'VACs'
p82
S'VAC'
p83
S'NNS'
p84
S'B-NP'
p85
S'B-protein'
p86
tp87
a(S')'
p88
g88
g88
g5
g5
tp89
a(S'are'
p90
S'be'
p91
S'VBP'
p92
S'B-VP'
p93
g5
tp94
a(S'important'
p95
S'important'
p96
S'JJ'
p97
S'B-NP'
p98
g5
tp99
a(S'devices'
p100
S'device'
p101
S'NNS'
p102
S'I-NP'
p103
g5
tp104
a(S'used'
p105
S'use'
p106
S'VBN'
p107
S'B-VP'
p108
g5
tp109
a(S'in'
p110
S'in'
p111
S'IN'
p112
S'B-PP'
p113
g5
tp114
a(S'acute'
p115
S'acute'
p116
S'JJ'
p117
S'B-NP'
p118
g5
tp119
a(S'blood'
p120
S'blood'
p121
S'NN'
p122
S'I-NP'
p123
g5
tp124
a(S'purification'
p125
S'purification'
p126
S'NN'
p127
S'I-NP'
p128
g5
tp129
a(S'therapies.'
p130
S'therapies.'
p131
S'RB'
p132
S'B-ADVP'
p133
g5
tp134
a(S'The'
p135
S'The'
p136
S'DT'
p137
S'B-NP'
p138
g5
tp139
a(S'aim'
p140
S'aim'
p141
S'NN'
p142
S'I-NP'
p143
g5
tp144
a(S'of'
p145
S'of'
p146
S'IN'
p147
S'B-PP'
p148
g5
tp149
a(S'this'
p150
S'this'
p151
S'DT'
p152
S'B-NP'
p153
g5
tp154
a(S'study'
p155
S'study'
p156
S'NN'
p157
S'I-NP'
p158
g5
tp159
a(S'was'
p160
S'be'
p161
S'VBD'
p162
S'B-VP'
p163
g5
tp164
a(S'to'
p165
S'to'
p166
S'TO'
p167
S'B-VP'
p168
g5
tp169
a(S'determine'
p170
S'determine'
p171
S'VB'
p172
S'I-VP'
p173
g5
tp174
a(S'whether'
p175
S'whether'
p176
S'IN'
p177
S'B-SBAR'
p178
g5
tp179
a(g39
g39
S'DT'
p180
S'B-NP'
p181
g5
tp182
a(S'catheterization'
p183
S'catheterization'
p184
S'NN'
p185
S'I-NP'
p186
g5
tp187
a(S'duration'
p188
S'duration'
p189
S'NN'
p190
S'I-NP'
p191
g5
tp192
a(S'of'
p193
S'of'
p194
S'IN'
p195
S'B-PP'
p196
g5
tp197
a(S'2'
p198
g198
S'CD'
p199
S'B-NP'
p200
g5
tp201
a(S'weeks'
p202
S'week'
p203
S'NNS'
p204
S'I-NP'
p205
g5
tp206
a(S'increased'
p207
S'increase'
p208
S'VBD'
p209
S'B-VP'
p210
g5
tp211
a(S'the'
p212
S'the'
p213
S'DT'
p214
S'B-NP'
p215
g5
tp216
a(S'risk'
p217
S'risk'
p218
S'NN'
p219
S'I-NP'
p220
g5
tp221
a(S'of'
p222
S'of'
p223
S'IN'
p224
S'B-PP'
p225
g5
tp226
a(S'nosocomial'
p227
S'nosocomial'
p228
S'JJ'
p229
S'B-NP'
p230
g5
tp231
a(S'complications'
p232
S'complication'
p233
S'NNS'
p234
S'I-NP'
p235
g5
tp236
a(S'when'
p237
S'when'
p238
S'WRB'
p239
S'B-ADVP'
p240
g5
tp241
a(S'compared'
p242
S'compare'
p243
S'VBN'
p244
S'B-PP'
p245
g5
tp246
a(S'with'
p247
S'with'
p248
S'IN'
p249
S'B-PP'
p250
g5
tp251
a(g39
g39
S'DT'
p252
S'B-NP'
p253
g5
tp254
a(S'1-week'
p255
S'1-week'
p256
S'JJ'
p257
S'I-NP'
p258
g5
tp259
a(S'duration.'
p260
S'duration.'
p261
S'NN'
p262
S'I-NP'
p263
g5
tp264
a(S'Fifty-six'
p265
S'Fifty-six'
p266
S'CD'
p267
S'B-NP'
p268
g5
tp269
a(S'patients'
p270
S'patient'
p271
S'NNS'
p272
S'I-NP'
p273
g5
tp274
a(S'with'
p275
S'with'
p276
S'IN'
p277
S'B-PP'
p278
g5
tp279
a(S'90'
p280
S'90'
p281
S'CD'
p282
S'B-NP'
p283
g5
tp284
a(S'double'
p285
S'double'
p286
S'JJ'
p287
S'I-NP'
p288
g5
tp289
a(S'lumen'
p290
S'lumen'
p291
S'NN'
p292
S'I-NP'
p293
g5
tp294
a(S'VACs'
p295
S'VAC'
p296
S'NNS'
p297
S'I-NP'
p298
g5
tp299
a(S'were'
p300
S'be'
p301
S'VBD'
p302
S'B-VP'
p303
g5
tp304
a(S'randomly'
p305
S'randomly'
p306
S'RB'
p307
S'I-VP'
p308
g5
tp309
a(S'chosen'
p310
S'choose'
p311
S'VBN'
p312
S'I-VP'
p313
g5
tp314
a(S','
p315
g315
g315
g5
g5
tp316
a(S'and'
p317
S'and'
p318
S'CC'
p319
g5
g5
tp320
a(S'received'
p321
S'receive'
p322
S'VBD'
p323
S'B-VP'
p324
g5
tp325
a(S'either'
p326
S'either'
p327
S'CC'
p328
g5
g5
tp329
a(S'1-'
p330
S'1-'
p331
S'CD'
p332
S'B-NP'
p333
g5
tp334
a(S'or'
p335
S'or'
p336
S'CC'
p337
g5
g5
tp338
a(S'2-week'
p339
S'2-week'
p340
S'JJ'
p341
S'B-NP'
p342
g5
tp343
a(S'catheterizations'
p344
S'catheterization'
p345
S'NNS'
p346
S'I-NP'
p347
g5
tp348
a(S'from'
p349
S'from'
p350
S'IN'
p351
S'B-PP'
p352
g5
tp353
a(S'operators'
p354
S'operator'
p355
S'NNS'
p356
S'B-NP'
p357
g5
tp358
a(S'experienced'
p359
S'experience'
p360
S'VBN'
p361
S'B-VP'
p362
g5
tp363
a(S'in'
p364
S'in'
p365
S'IN'
p366
S'B-PP'
p367
g5
tp368
a(S'the'
p369
S'the'
p370
S'DT'
p371
S'B-NP'
p372
g5
tp373
a(S'placement'
p374
S'placement'
p375
S'NN'
p376
S'I-NP'
p377
g5
tp378
a(S'of'
p379
S'of'
p380
S'IN'
p381
S'B-PP'
p382
g5
tp383
a(S'such'
p384
S'such'
p385
S'JJ'
p386
S'B-NP'
p387
g5
tp388
a(S'catheters'
p389
S'catheter'
p390
S'NNS'
p391
S'I-NP'
p392
g5
tp393
a(S'at'
p394
S'at'
p395
S'IN'
p396
S'B-PP'
p397
g5
tp398
a(S'three'
p399
S'three'
p400
S'CD'
p401
S'B-NP'
p402
g5
tp403
a(S'sites'
p404
S'site'
p405
S'NNS'
p406
S'I-NP'
p407
g5
tp408
a(S'such'
p409
S'such'
p410
S'JJ'
p411
S'B-PP'
p412
g5
tp413
a(S'as'
p414
S'as'
p415
S'IN'
p416
S'I-PP'
p417
g5
tp418
a(S'the'
p419
S'the'
p420
S'DT'
p421
S'B-NP'
p422
g5
tp423
a(S'internal'
p424
S'internal'
p425
S'JJ'
p426
S'I-NP'
p427
g5
tp428
a(S'jugular'
p429
S'jugular'
p430
S'JJ'
p431
S'I-NP'
p432
g5
tp433
a(g315
g315
g315
S'I-NP'
p434
g5
tp435
a(S'subclavian'
p436
S'subclavian'
p437
S'JJ'
p438
S'I-NP'
p439
g5
tp440
a(g315
g315
g315
S'I-NP'
p441
g5
tp442
a(S'or'
p443
S'or'
p444
S'CC'
p445
S'I-NP'
p446
g5
tp447
a(S'femoral'
p448
S'femoral'
p449
S'JJ'
p450
S'I-NP'
p451
g5
tp452
a(S'vein.'
p453
S'vein.'
p454
S'NN'
p455
S'I-NP'
p456
g5
tp457
a(S'The'
p458
S'The'
p459
S'DT'
p460
S'B-NP'
p461
g5
tp462
a(S'characteristics'
p463
S'characteristic'
p464
S'NNS'
p465
S'I-NP'
p466
g5
tp467
a(S'of'
p468
S'of'
p469
S'IN'
p470
S'B-PP'
p471
g5
tp472
a(S'the'
p473
S'the'
p474
S'DT'
p475
S'B-NP'
p476
g5
tp477
a(S'VACs'
p478
S'VAC'
p479
S'NNS'
p480
S'I-NP'
p481
S'B-protein'
p482
tp483
a(g315
g315
g315
g5
g5
tp484
a(S'including'
p485
S'include'
p486
S'VBG'
p487
S'B-PP'
p488
g5
tp489
a(S'the'
p490
S'the'
p491
S'DT'
p492
S'B-NP'
p493
g5
tp494
a(S'sites'
p495
S'site'
p496
S'NNS'
p497
S'I-NP'
p498
g5
tp499
a(g315
g315
g315
g5
g5
tp500
a(S'procedures'
p501
S'procedure'
p502
S'NNS'
p503
S'B-NP'
p504
g5
tp505
a(g315
g315
g315
g5
g5
tp506
a(S'and'
p507
S'and'
p508
S'CC'
p509
g5
g5
tp510
a(S'lengths'
p511
S'length'
p512
S'NNS'
p513
S'B-NP'
p514
g5
tp515
a(g315
g315
g315
g5
g5
tp516
a(S'were'
p517
S'be'
p518
S'VBD'
p519
S'B-VP'
p520
g5
tp521
a(S'similar'
p522
S'similar'
p523
S'JJ'
p524
S'B-ADJP'
p525
g5
tp526
a(S'in'
p527
S'in'
p528
S'IN'
p529
S'B-PP'
p530
g5
tp531
a(S'both'
p532
S'both'
p533
S'DT'
p534
S'B-NP'
p535
g5
tp536
a(S'groups.'
p537
S'groups.'
p538
S'NNS'
p539
S'I-NP'
p540
g5
tp541
a(S'No'
p542
S'No'
p543
S'DT'
p544
S'B-NP'
p545
g5
tp546
a(S'significant'
p547
S'significant'
p548
S'JJ'
p549
S'I-NP'
p550
g5
tp551
a(S'difference'
p552
S'difference'
p553
S'NN'
p554
S'I-NP'
p555
g5
tp556
a(S'in'
p557
S'in'
p558
S'IN'
p559
S'B-PP'
p560
g5
tp561
a(S'the'
p562
S'the'
p563
S'DT'
p564
S'B-NP'
p565
g5
tp566
a(S'rate'
p567
S'rate'
p568
S'NN'
p569
S'I-NP'
p570
g5
tp571
a(S'of'
p572
S'of'
p573
S'IN'
p574
S'B-PP'
p575
g5
tp576
a(S'catheter'
p577
S'catheter'
p578
S'NN'
p579
S'B-NP'
p580
g5
tp581
a(S'colonization'
p582
S'colonization'
p583
S'NN'
p584
S'I-NP'
p585
g5
tp586
a(S'was'
p587
S'be'
p588
S'VBD'
p589
S'B-VP'
p590
g5
tp591
a(S'observed'
p592
S'observe'
p593
S'VBN'
p594
S'I-VP'
p595
g5
tp596
a(S'between'
p597
S'between'
p598
S'IN'
p599
S'B-PP'
p600
g5
tp601
a(S'the'
p602
S'the'
p603
S'DT'
p604
S'B-NP'
p605
g5
tp606
a(S'groups'
p607
S'group'
p608
S'NNS'
p609
S'I-NP'
p610
g5
tp611
a(g80
g80
g80
g5
g5
tp612
a(S'14.6'
p613
S'14.6'
p614
S'CD'
p615
S'B-NP'
p616
g5
tp617
a(S'%'
p618
g618
S'NN'
p619
S'I-NP'
p620
g5
tp621
a(S'vs'
p622
S'vs'
p623
S'IN'
p624
S'B-PP'
p625
g5
tp626
a(S'26.2'
p627
S'26.2'
p628
S'CD'
p629
S'B-NP'
p630
g5
tp631
a(g618
g618
S'NN'
p632
S'I-NP'
p633
g5
tp634
a(g315
g315
g315
g5
g5
tp635
a(S'P'
p636
g636
S'NN'
p637
S'B-NP'
p638
g5
tp639
a(S'='
p640
g640
S'SYM'
p641
S'B-VP'
p642
g5
tp643
a(S'0.1371'
p644
S'0.1371'
p645
S'CD'
p646
S'B-NP'
p647
g5
tp648
a(g88
g88
g88
g5
g5
tp649
a(g58
g58
g58
g5
g5
tp650
a(S'No'
p651
S'No'
p652
S'DT'
p653
S'B-NP'
p654
g5
tp655
a(S'significant'
p656
S'significant'
p657
S'JJ'
p658
S'I-NP'
p659
g5
tp660
a(S'difference'
p661
S'difference'
p662
S'NN'
p663
S'I-NP'
p664
g5
tp665
a(S'in'
p666
S'in'
p667
S'IN'
p668
S'B-PP'
p669
g5
tp670
a(S'the'
p671
S'the'
p672
S'DT'
p673
S'B-NP'
p674
g5
tp675
a(S'rate'
p676
S'rate'
p677
S'NN'
p678
S'I-NP'
p679
g5
tp680
a(S'of'
p681
S'of'
p682
S'IN'
p683
S'B-PP'
p684
g5
tp685
a(S'catheter-related'
p686
S'catheter-related'
p687
S'JJ'
p688
S'B-NP'
p689
g5
tp690
a(S'bloodstream'
p691
S'bloodstream'
p692
S'NN'
p693
S'I-NP'
p694
g5
tp695
a(S'infections'
p696
S'infection'
p697
S'NNS'
p698
S'I-NP'
p699
g5
tp700
a(S'was'
p701
S'be'
p702
S'VBD'
p703
S'B-VP'
p704
g5
tp705
a(S'observed'
p706
S'observe'
p707
S'VBN'
p708
S'I-VP'
p709
g5
tp710
a(S'between'
p711
S'between'
p712
S'IN'
p713
S'B-PP'
p714
g5
tp715
a(S'the'
p716
S'the'
p717
S'DT'
p718
S'B-NP'
p719
g5
tp720
a(S'groups'
p721
S'group'
p722
S'NNS'
p723
S'I-NP'
p724
g5
tp725
a(g80
g80
g80
g5
g5
tp726
a(S'2.1'
p727
S'2.1'
p728
S'CD'
p729
S'B-NP'
p730
g5
tp731
a(g618
g618
S'NN'
p732
S'I-NP'
p733
g5
tp734
a(S'vs'
p735
S'vs'
p736
S'IN'
p737
S'B-PP'
p738
g5
tp739
a(S'4.8'
p740
S'4.8'
p741
S'CD'
p742
S'B-NP'
p743
g5
tp744
a(g618
g618
S'NN'
p745
S'I-NP'
p746
g5
tp747
a(g315
g315
g315
g5
g5
tp748
a(g636
g636
S'NN'
p749
S'B-NP'
p750
g5
tp751
a(g640
g640
S'SYM'
p752
S'B-VP'
p753
g5
tp754
a(S'0.5967'
p755
S'0.5967'
p756
S'CD'
p757
S'B-NP'
p758
g5
tp759
a(g88
g88
g88
g5
g5
tp760
a(g58
g58
g58
g5
g5
tp761
a(S'Two-week'
p762
S'Two-week'
p763
S'JJ'
p764
S'B-NP'
p765
g5
tp766
a(S'indwelling'
p767
S'indwelling'
p768
S'NN'
p769
S'I-NP'
p770
g5
tp771
a(S'did'
p772
S'do'
p773
S'VBD'
p774
S'B-VP'
p775
g5
tp776
a(S'not'
p777
S'not'
p778
S'RB'
p779
S'I-VP'
p780
g5
tp781
a(S'increase'
p782
S'increase'
p783
S'VB'
p784
S'I-VP'
p785
g5
tp786
a(S'the'
p787
S'the'
p788
S'DT'
p789
S'B-NP'
p790
g5
tp791
a(S'risk'
p792
S'risk'
p793
S'NN'
p794
S'I-NP'
p795
g5
tp796
a(S'of'
p797
S'of'
p798
S'IN'
p799
S'B-PP'
p800
g5
tp801
a(S'infection'
p802
S'infection'
p803
S'NN'
p804
S'B-NP'
p805
g5
tp806
a(S'compared'
p807
S'compare'
p808
S'VBN'
p809
S'B-PP'
p810
g5
tp811
a(S'with'
p812
S'with'
p813
S'IN'
p814
S'B-PP'
p815
g5
tp816
a(S'1-week'
p817
S'1-week'
p818
S'JJ'
p819
S'B-NP'
p820
g5
tp821
a(S'indwelling'
p822
S'indwelling'
p823
S'NN'
p824
S'I-NP'
p825
g5
tp826
a(S'at'
p827
S'at'
p828
S'IN'
p829
S'B-PP'
p830
g5
tp831
a(S'any'
p832
S'any'
p833
S'DT'
p834
S'B-NP'
p835
g5
tp836
a(S'of'
p837
S'of'
p838
S'IN'
p839
S'B-PP'
p840
g5
tp841
a(S'the'
p842
S'the'
p843
S'DT'
p844
S'B-NP'
p845
g5
tp846
a(S'sites'
p847
S'site'
p848
S'NNS'
p849
S'I-NP'
p850
g5
tp851
a(S'in'
p852
S'in'
p853
S'IN'
p854
S'B-PP'
p855
g5
tp856
a(S'critically'
p857
S'critically'
p858
S'RB'
p859
S'B-NP'
p860
g5
tp861
a(S'ill'
p862
S'ill'
p863
S'JJ'
p864
S'I-NP'
p865
g5
tp866
a(S'patients'
p867
S'patient'
p868
S'NNS'
p869
S'I-NP'
p870
g5
tp871
a(g58
g58
g58
g5
g5
tp872
a.