(lp0
(S'Recombinant'
p1
S'Recombinant'
p2
S'JJ'
p3
S'B-NP'
p4
S'B-protein'
p5
tp6
a(S'human'
p7
S'human'
p8
S'JJ'
p9
S'I-NP'
p10
S'I-protein'
p11
tp12
a(S'granulocyte-macrophage'
p13
S'granulocyte-macrophage'
p14
S'JJ'
p15
S'I-NP'
p16
S'I-protein'
p17
tp18
a(S'colony-stimulating'
p19
S'colony-stimulating'
p20
S'JJ'
p21
S'I-NP'
p22
S'I-protein'
p23
tp24
a(S'factor'
p25
S'factor'
p26
S'NN'
p27
S'I-NP'
p28
S'I-protein'
p29
tp30
a(S'ameliorates'
p31
S'ameliorate'
p32
S'VBZ'
p33
S'B-VP'
p34
S'O'
p35
tp36
a(S'zidovudine-induced'
p37
S'zidovudine-induced'
p38
S'JJ'
p39
S'B-NP'
p40
g35
tp41
a(S'neutropenia'
p42
S'neutropenia'
p43
S'NN'
p44
S'I-NP'
p45
g35
tp46
a(S'in'
p47
S'in'
p48
S'IN'
p49
S'B-PP'
p50
g35
tp51
a(S'patients'
p52
S'patient'
p53
S'NNS'
p54
S'B-NP'
p55
g35
tp56
a(S'with'
p57
S'with'
p58
S'IN'
p59
S'B-PP'
p60
g35
tp61
a(S'acquired'
p62
S'acquire'
p63
S'VBN'
p64
S'B-NP'
p65
g35
tp66
a(S'immunodeficiency'
p67
S'immunodeficiency'
p68
S'NN'
p69
S'I-NP'
p70
g35
tp71
a(S'syndrome'
p72
S'syndrome'
p73
S'NN'
p74
S'I-NP'
p75
g35
tp76
a(S'('
p77
g77
g77
S'I-NP'
p78
g35
tp79
a(S'AIDS'
p80
S'AIDS'
p81
S'NN'
p82
S'I-NP'
p83
g35
tp84
a(S')'
p85
g85
g85
S'I-NP'
p86
g35
tp87
a(S'/AIDS-related'
p88
S'/AIDS-related'
p89
S'JJ'
p90
S'I-NP'
p91
S'B-protein'
p92
tp93
a(S'complex'
p94
S'complex'
p95
S'NN'
p96
S'I-NP'
p97
S'I-protein'
p98
tp99
a(S'.'
p100
g100
g100
g35
g35
tp101
a(S'To'
p102
S'To'
p103
S'TO'
p104
S'B-VP'
p105
g35
tp106
a(S'evaluate'
p107
S'evaluate'
p108
S'VB'
p109
S'I-VP'
p110
g35
tp111
a(S'the'
p112
S'the'
p113
S'DT'
p114
S'B-NP'
p115
g35
tp116
a(S'effect'
p117
S'effect'
p118
S'NN'
p119
S'I-NP'
p120
g35
tp121
a(S'of'
p122
S'of'
p123
S'IN'
p124
S'B-PP'
p125
g35
tp126
a(S'recombinant'
p127
S'recombinant'
p128
S'JJ'
p129
S'B-NP'
p130
S'B-protein'
p131
tp132
a(S'granulocyte-macrophage'
p133
S'granulocyte-macrophage'
p134
S'JJ'
p135
S'I-NP'
p136
S'I-protein'
p137
tp138
a(S'colony-stimulating'
p139
S'colony-stimulating'
p140
S'JJ'
p141
S'I-NP'
p142
S'I-protein'
p143
tp144
a(S'factor'
p145
S'factor'
p146
S'NN'
p147
S'I-NP'
p148
S'I-protein'
p149
tp150
a(g77
g77
g77
g35
g35
tp151
a(S'GM-CSF'
p152
S'GM-CSF'
p153
S'NN'
p154
S'B-NP'
p155
S'B-protein'
p156
tp157
a(g85
g85
g85
g35
g35
tp158
a(S'on'
p159
S'on'
p160
S'IN'
p161
S'B-PP'
p162
g35
tp163
a(S'patients'
p164
S'patient'
p165
S'NNS'
p166
S'B-NP'
p167
g35
tp168
a(S'with'
p169
S'with'
p170
S'IN'
p171
S'B-PP'
p172
g35
tp173
a(S'acquired'
p174
S'acquire'
p175
S'VBN'
p176
S'B-NP'
p177
g35
tp178
a(S'immunodeficiency'
p179
S'immunodeficiency'
p180
S'NN'
p181
S'I-NP'
p182
g35
tp183
a(S'syndrome'
p184
S'syndrome'
p185
S'NN'
p186
S'I-NP'
p187
g35
tp188
a(g77
g77
g77
g35
g35
tp189
a(S'AIDS'
p190
S'AIDS'
p191
S'NN'
p192
S'B-NP'
p193
g35
tp194
a(g85
g85
g85
g35
g35
tp195
a(S'or'
p196
S'or'
p197
S'CC'
p198
g35
g35
tp199
a(S'AIDS-related'
p200
S'AIDS-related'
p201
S'JJ'
p202
S'B-NP'
p203
S'B-protein'
p204
tp205
a(S'complex'
p206
S'complex'
p207
S'NN'
p208
S'I-NP'
p209
S'I-protein'
p210
tp211
a(g77
g77
g77
g35
g35
tp212
a(S'ARC'
p213
S'ARC'
p214
S'NN'
p215
S'B-NP'
p216
g35
tp217
a(g85
g85
g85
g35
g35
tp218
a(S'who'
p219
S'who'
p220
S'WP'
p221
S'B-NP'
p222
g35
tp223
a(S'were'
p224
S'be'
p225
S'VBD'
p226
S'B-VP'
p227
g35
tp228
a(S'intolerant'
p229
S'intolerant'
p230
S'JJ'
p231
S'B-ADJP'
p232
g35
tp233
a(S'to'
p234
S'to'
p235
S'TO'
p236
S'B-PP'
p237
g35
tp238
a(S'zidovudine'
p239
S'zidovudine'
p240
S'NN'
p241
S'B-NP'
p242
g35
tp243
a(S'because'
p244
S'because'
p245
S'IN'
p246
S'B-PP'
p247
g35
tp248
a(S'of'
p249
S'of'
p250
S'IN'
p251
S'I-PP'
p252
g35
tp253
a(S'neutropenia'
p254
S'neutropenia'
p255
S'NN'
p256
S'B-NP'
p257
g35
tp258
a(S','
p259
g259
g259
g35
g35
tp260
a(S'we'
p261
S'we'
p262
S'PRP'
p263
S'B-NP'
p264
g35
tp265
a(S'performed'
p266
S'perform'
p267
S'VBD'
p268
S'B-VP'
p269
g35
tp270
a(S'a'
p271
g271
S'DT'
p272
S'B-NP'
p273
g35
tp274
a(S'randomized'
p275
S'randomize'
p276
S'VBN'
p277
S'I-NP'
p278
g35
tp279
a(g259
g259
g259
S'I-NP'
p280
g35
tp281
a(S'open-label'
p282
S'open-label'
p283
S'JJ'
p284
S'I-NP'
p285
g35
tp286
a(S'study'
p287
S'study'
p288
S'NN'
p289
S'I-NP'
p290
g35
tp291
a(S'in'
p292
S'in'
p293
S'IN'
p294
S'B-PP'
p295
g35
tp296
a(S'which'
p297
S'which'
p298
S'WDT'
p299
S'B-NP'
p300
g35
tp301
a(S'patients'
p302
S'patient'
p303
S'NNS'
p304
S'B-NP'
p305
g35
tp306
a(S'were'
p307
S'be'
p308
S'VBD'
p309
S'B-VP'
p310
g35
tp311
a(S'assigned'
p312
S'assign'
p313
S'VBN'
p314
S'I-VP'
p315
g35
tp316
a(S'to'
p317
S'to'
p318
S'TO'
p319
S'B-PP'
p320
g35
tp321
a(S'one'
p322
S'one'
p323
S'CD'
p324
S'B-NP'
p325
g35
tp326
a(S'of'
p327
S'of'
p328
S'IN'
p329
S'B-PP'
p330
g35
tp331
a(S'two'
p332
S'two'
p333
S'CD'
p334
S'B-NP'
p335
g35
tp336
a(S'groups.'
p337
S'groups.'
p338
S'NN'
p339
S'I-NP'
p340
g35
tp341
a(S'Zidovudine'
p342
S'Zidovudine'
p343
S'NN'
p344
S'I-NP'
p345
g35
tp346
a(S'was'
p347
S'be'
p348
S'VBD'
p349
S'B-VP'
p350
g35
tp351
a(S'discontinued'
p352
S'discontinue'
p353
S'VBN'
p354
S'I-VP'
p355
g35
tp356
a(S'in'
p357
S'in'
p358
S'IN'
p359
S'B-PP'
p360
g35
tp361
a(S'group'
p362
S'group'
p363
S'NN'
p364
S'B-NP'
p365
g35
tp366
a(S'A'
p367
g367
S'NN'
p368
S'I-NP'
p369
g35
tp370
a(S'patients'
p371
S'patient'
p372
S'NNS'
p373
S'I-NP'
p374
g35
tp375
a(S'before'
p376
S'before'
p377
S'IN'
p378
S'B-PP'
p379
g35
tp380
a(S'instituting'
p381
S'institute'
p382
S'VBG'
p383
S'B-VP'
p384
g35
tp385
a(S'GM-CSF'
p386
S'GM-CSF'
p387
S'NN'
p388
S'B-NP'
p389
S'B-protein'
p390
tp391
a(S'treatment'
p392
S'treatment'
p393
S'NN'
p394
S'I-NP'
p395
g35
tp396
a(S'and'
p397
S'and'
p398
S'CC'
p399
g35
g35
tp400
a(S'was'
p401
S'be'
p402
S'VBD'
p403
S'B-VP'
p404
g35
tp405
a(S'restarted'
p406
S'restart'
p407
S'VBN'
p408
S'I-VP'
p409
g35
tp410
a(S'in'
p411
S'in'
p412
S'IN'
p413
S'B-PP'
p414
g35
tp415
a(g271
g271
S'DT'
p416
S'B-NP'
p417
g35
tp418
a(S'graduated'
p419
S'graduated'
p420
S'JJ'
p421
S'I-NP'
p422
g35
tp423
a(S'fashion'
p424
S'fashion'
p425
S'NN'
p426
S'I-NP'
p427
g35
tp428
a(S'over'
p429
S'over'
p430
S'IN'
p431
S'B-PP'
p432
g35
tp433
a(S'4'
p434
g434
S'CD'
p435
S'B-NP'
p436
g35
tp437
a(S'weeks.'
p438
S'weeks.'
p439
S'NN'
p440
S'I-NP'
p441
g35
tp442
a(S'Group'
p443
S'Group'
p444
S'NN'
p445
S'I-NP'
p446
g35
tp447
a(S'B'
p448
g448
S'NN'
p449
S'I-NP'
p450
g35
tp451
a(S'patients'
p452
S'patient'
p453
S'NNS'
p454
S'I-NP'
p455
g35
tp456
a(S'continued'
p457
S'continue'
p458
S'VBN'
p459
S'B-VP'
p460
g35
tp461
a(S'on'
p462
S'on'
p463
S'IN'
p464
S'B-PP'
p465
g35
tp466
a(S'full-dose'
p467
S'full-dose'
p468
S'JJ'
p469
S'B-ADJP'
p470
g35
tp471
a(g77
g77
g77
g35
g35
tp472
a(S'1'
p473
g473
S'CD'
p474
S'B-NP'
p475
g35
tp476
a(g259
g259
g259
g35
g35
tp477
a(S'200'
p478
S'200'
p479
S'CD'
p480
S'B-NP'
p481
g35
tp482
a(S'mg/d'
p483
S'mg/d'
p484
S'NN'
p485
S'I-NP'
p486
g35
tp487
a(g85
g85
g85
g35
g35
tp488
a(S'zidovudine'
p489
S'zidovudine'
p490
S'NN'
p491
S'B-NP'
p492
g35
tp493
a(S'therapy'
p494
S'therapy'
p495
S'NN'
p496
S'I-NP'
p497
g35
tp498
a(S'while'
p499
S'while'
p500
S'IN'
p501
S'B-SBAR'
p502
g35
tp503
a(S'beginning'
p504
S'begin'
p505
S'VBG'
p506
S'B-VP'
p507
g35
tp508
a(S'GM-CSF'
p509
S'GM-CSF'
p510
S'NN'
p511
S'B-NP'
p512
S'B-protein'
p513
tp514
a(S'therapy.'
p515
S'therapy.'
p516
S'RB'
p517
S'B-ADVP'
p518
g35
tp519
a(g367
g367
S'DT'
p520
S'B-NP'
p521
g35
tp522
a(S'total'
p523
S'total'
p524
S'NN'
p525
S'I-NP'
p526
g35
tp527
a(S'of'
p528
S'of'
p529
S'IN'
p530
S'B-PP'
p531
g35
tp532
a(S'17'
p533
S'17'
p534
S'CD'
p535
S'B-NP'
p536
g35
tp537
a(S'patients'
p538
S'patient'
p539
S'NNS'
p540
S'I-NP'
p541
g35
tp542
a(S'were'
p543
S'be'
p544
S'VBD'
p545
S'B-VP'
p546
g35
tp547
a(S'entered'
p548
S'enter'
p549
S'VBN'
p550
S'I-VP'
p551
g35
tp552
a(g259
g259
g259
g35
g35
tp553
a(S'eight'
p554
S'eight'
p555
S'CD'
p556
S'B-NP'
p557
g35
tp558
a(S'in'
p559
S'in'
p560
S'IN'
p561
S'B-PP'
p562
g35
tp563
a(S'group'
p564
S'group'
p565
S'NN'
p566
S'B-NP'
p567
g35
tp568
a(g367
g367
S'NN'
p569
S'I-NP'
p570
g35
tp571
a(S'and'
p572
S'and'
p573
S'CC'
p574
g35
g35
tp575
a(S'nine'
p576
S'nine'
p577
S'CD'
p578
S'B-NP'
p579
g35
tp580
a(S'in'
p581
S'in'
p582
S'IN'
p583
S'B-PP'
p584
g35
tp585
a(S'group'
p586
S'group'
p587
S'NN'
p588
S'B-NP'
p589
g35
tp590
a(S'B.'
p591
S'B.'
p592
S'NNP'
p593
S'B-NP'
p594
g35
tp595
a(S'Five'
p596
S'Five'
p597
S'CD'
p598
S'I-NP'
p599
g35
tp600
a(S'of'
p601
S'of'
p602
S'IN'
p603
S'B-PP'
p604
g35
tp605
a(S'eight'
p606
S'eight'
p607
S'CD'
p608
S'B-NP'
p609
g35
tp610
a(S'patients'
p611
S'patient'
p612
S'NNS'
p613
S'I-NP'
p614
g35
tp615
a(S'in'
p616
S'in'
p617
S'IN'
p618
S'B-PP'
p619
g35
tp620
a(S'group'
p621
S'group'
p622
S'NN'
p623
S'B-NP'
p624
g35
tp625
a(g367
g367
S'NN'
p626
S'I-NP'
p627
g35
tp628
a(S'and'
p629
S'and'
p630
S'CC'
p631
g35
g35
tp632
a(S'seven'
p633
S'seven'
p634
S'CD'
p635
S'B-NP'
p636
g35
tp637
a(S'of'
p638
S'of'
p639
S'IN'
p640
S'B-PP'
p641
g35
tp642
a(S'nine'
p643
S'nine'
p644
S'CD'
p645
S'B-NP'
p646
g35
tp647
a(S'in'
p648
S'in'
p649
S'IN'
p650
S'B-PP'
p651
g35
tp652
a(S'group'
p653
S'group'
p654
S'NN'
p655
S'B-NP'
p656
g35
tp657
a(g448
g448
S'NN'
p658
S'I-NP'
p659
g35
tp660
a(S'had'
p661
S'have'
p662
S'VBD'
p663
S'B-VP'
p664
g35
tp665
a(g271
g271
S'DT'
p666
S'B-NP'
p667
g35
tp668
a(S'history'
p669
S'history'
p670
S'NN'
p671
S'I-NP'
p672
g35
tp673
a(S'of'
p674
S'of'
p675
S'IN'
p676
S'B-PP'
p677
g35
tp678
a(S'Pneumocystis'
p679
S'Pneumocystis'
p680
S'NN'
p681
S'B-NP'
p682
g35
tp683
a(S'carinii'
p684
S'carinii'
p685
S'NN'
p686
S'I-NP'
p687
g35
tp688
a(S'pneumonia'
p689
S'pneumonia'
p690
S'NN'
p691
S'I-NP'
p692
g35
tp693
a(g77
g77
g77
g35
g35
tp694
a(S'PCP'
p695
S'PCP'
p696
S'NN'
p697
S'B-NP'
p698
S'B-protein'
p699
tp700
a(g85
g85
g85
g35
g35
tp701
a(g100
g100
g100
g35
g35
tp702
a(S'All'
p703
S'All'
p704
S'DT'
p705
g35
g35
tp706
a(S'were'
p707
S'be'
p708
S'VBD'
p709
S'B-VP'
p710
g35
tp711
a(S'homosexual'
p712
S'homosexual'
p713
S'JJ'
p714
S'B-NP'
p715
g35
tp716
a(S'males'
p717
S'male'
p718
S'NNS'
p719
S'I-NP'
p720
g35
tp721
a(g259
g259
g259
g35
g35
tp722
a(S'except'
p723
S'except'
p724
S'IN'
p725
S'B-PP'
p726
g35
tp727
a(S'one'
p728
S'one'
p729
S'CD'
p730
S'B-NP'
p731
g35
tp732
a(S'female'
p733
S'female'
p734
S'NN'
p735
S'I-NP'
p736
g35
tp737
a(S'in'
p738
S'in'
p739
S'IN'
p740
S'B-PP'
p741
g35
tp742
a(S'group'
p743
S'group'
p744
S'NN'
p745
S'B-NP'
p746
g35
tp747
a(g367
g367
S'NN'
p748
S'I-NP'
p749
g35
tp750
a(S'who'
p751
S'who'
p752
S'WP'
p753
S'B-NP'
p754
g35
tp755
a(S'was'
p756
S'be'
p757
S'VBD'
p758
S'B-VP'
p759
g35
tp760
a(S'the'
p761
S'the'
p762
S'DT'
p763
S'B-NP'
p764
g35
tp765
a(S'sex'
p766
S'sex'
p767
S'NN'
p768
S'I-NP'
p769
g35
tp770
a(S'partner'
p771
S'partner'
p772
S'NN'
p773
S'I-NP'
p774
g35
tp775
a(S'of'
p776
S'of'
p777
S'IN'
p778
S'B-PP'
p779
g35
tp780
a(g271
g271
S'DT'
p781
S'B-NP'
p782
g35
tp783
a(S'bisexual'
p784
S'bisexual'
p785
S'JJ'
p786
S'I-NP'
p787
g35
tp788
a(S'male'
p789
S'male'
p790
S'NN'
p791
S'I-NP'
p792
g35
tp793
a(S'with'
p794
S'with'
p795
S'IN'
p796
S'B-PP'
p797
g35
tp798
a(S'AIDS.'
p799
S'AIDS.'
p800
S'NNP'
p801
S'B-NP'
p802
g35
tp803
a(S'All'
p804
S'All'
p805
S'DT'
p806
S'B-NP'
p807
g35
tp808
a(S'patients'
p809
S'patient'
p810
S'NNS'
p811
S'I-NP'
p812
g35
tp813
a(S'had'
p814
S'have'
p815
S'VBD'
p816
S'B-VP'
p817
g35
tp818
a(S'neutropenia'
p819
S'neutropenia'
p820
S'NN'
p821
S'B-NP'
p822
g35
tp823
a(g77
g77
g77
g35
g35
tp824
a(S'absolute'
p825
S'absolute'
p826
S'JJ'
p827
S'B-NP'
p828
g35
tp829
a(S'neutrophil'
p830
S'neutrophil'
p831
S'NN'
p832
S'I-NP'
p833
g35
tp834
a(S'count'
p835
S'count'
p836
S'NN'
p837
S'I-NP'
p838
g35
tp839
a(S'['
p840
g840
g77
g35
g35
tp841
a(S'ANC'
p842
S'ANC'
p843
S'NN'
p844
S'B-NP'
p845
g35
tp846
a(S']'
p847
g847
g85
g35
g35
tp848
a(S'less'
p849
S'less'
p850
S'JJR'
p851
S'B-NP'
p852
g35
tp853
a(S'than'
p854
S'than'
p855
S'IN'
p856
S'I-NP'
p857
g35
tp858
a(g473
g473
S'CD'
p859
S'I-NP'
p860
g35
tp861
a(g259
g259
g259
S'I-NP'
p862
g35
tp863
a(S'000/microL'
p864
S'000/microL'
p865
S'NN'
p866
S'I-NP'
p867
g35
tp868
a(g85
g85
g85
g35
g35
tp869
a(S'while'
p870
S'while'
p871
S'IN'
p872
S'B-SBAR'
p873
g35
tp874
a(S'taking'
p875
S'take'
p876
S'VBG'
p877
S'B-VP'
p878
g35
tp879
a(S'full-dose'
p880
S'full-dose'
p881
S'JJ'
p882
S'B-NP'
p883
g35
tp884
a(S'zidovudine.'
p885
S'zidovudine.'
p886
S'NN'
p887
S'I-NP'
p888
g35
tp889
a(S'The'
p890
S'The'
p891
S'DT'
p892
S'B-NP'
p893
g35
tp894
a(S'mean'
p895
S'mean'
p896
S'JJ'
p897
S'I-NP'
p898
g35
tp899
a(S'CD4'
p900
S'CD4'
p901
S'NN'
p902
S'I-NP'
p903
g35
tp904
a(g77
g77
g77
g35
g35
tp905
a(S'+/-'
p906
S'+/-'
p907
S'SYM'
p908
S'B-NP'
p909
g35
tp910
a(S'SD'
p911
S'SD'
p912
S'NN'
p913
S'I-NP'
p914
g35
tp915
a(g85
g85
g85
S'I-NP'
p916
g35
tp917
a(S'lymphocyte'
p918
S'lymphocyte'
p919
S'NN'
p920
S'I-NP'
p921
g35
tp922
a(S'level'
p923
S'level'
p924
S'NN'
p925
S'I-NP'
p926
g35
tp927
a(S'was'
p928
S'be'
p929
S'VBD'
p930
S'B-VP'
p931
g35
tp932
a(S'37'
p933
S'37'
p934
S'CD'
p935
S'B-NP'
p936
g35
tp937
a(g77
g77
g77
g35
g35
tp938
a(S'+/-'
p939
S'+/-'
p940
S'SYM'
p941
g35
g35
tp942
a(S'29'
p943
S'29'
p944
S'CD'
p945
g35
g35
tp946
a(g85
g85
g85
g35
g35
tp947
a(S'/microL'
p948
S'/microL'
p949
S'NN'
p950
S'B-NP'
p951
g35
tp952
a(S'and'
p953
S'and'
p954
S'CC'
p955
g35
g35
tp956
a(S'39'
p957
S'39'
p958
S'CD'
p959
S'B-NP'
p960
g35
tp961
a(g77
g77
g77
g35
g35
tp962
a(S'+/-'
p963
S'+/-'
p964
S'SYM'
p965
g35
g35
tp966
a(S'44'
p967
S'44'
p968
S'CD'
p969
g35
g35
tp970
a(g85
g85
g85
g35
g35
tp971
a(S'/microL'
p972
S'/microL'
p973
S'NN'
p974
S'B-NP'
p975
g35
tp976
a(S'in'
p977
S'in'
p978
S'IN'
p979
S'B-PP'
p980
g35
tp981
a(S'groups'
p982
S'group'
p983
S'NNS'
p984
S'B-NP'
p985
g35
tp986
a(g367
g367
S'NN'
p987
S'I-NP'
p988
g35
tp989
a(S'and'
p990
S'and'
p991
S'CC'
p992
S'I-NP'
p993
g35
tp994
a(g448
g448
S'NN'
p995
S'I-NP'
p996
g35
tp997
a(g259
g259
g259
g35
g35
tp998
a(S'respectively.'
p999
S'respectively.'
p1000
S'NN'
p1001
S'B-NP'
p1002
g35
tp1003
a(S'After'
p1004
S'After'
p1005
S'IN'
p1006
S'B-PP'
p1007
g35
tp1008
a(S'randomization'
p1009
S'randomization'
p1010
S'NN'
p1011
S'B-NP'
p1012
g35
tp1013
a(g259
g259
g259
g35
g35
tp1014
a(S'patients'
p1015
S'patient'
p1016
S'NNS'
p1017
S'B-NP'
p1018
g35
tp1019
a(S'were'
p1020
S'be'
p1021
S'VBD'
p1022
S'B-VP'
p1023
g35
tp1024
a(S'begun'
p1025
S'begin'
p1026
S'VBN'
p1027
S'I-VP'
p1028
g35
tp1029
a(S'on'
p1030
S'on'
p1031
S'IN'
p1032
S'B-PP'
p1033
g35
tp1034
a(S'subcutaneous'
p1035
S'subcutaneous'
p1036
S'JJ'
p1037
S'B-NP'
p1038
g35
tp1039
a(S'GM-CSF'
p1040
S'GM-CSF'
p1041
S'NN'
p1042
S'I-NP'
p1043
S'B-protein'
p1044
tp1045
a(S'at'
p1046
S'at'
p1047
S'IN'
p1048
S'B-PP'
p1049
g35
tp1050
a(g271
g271
S'DT'
p1051
S'B-NP'
p1052
g35
tp1053
a(S'dose'
p1054
S'dose'
p1055
S'NN'
p1056
S'I-NP'
p1057
g35
tp1058
a(S'of'
p1059
S'of'
p1060
S'IN'
p1061
S'B-PP'
p1062
g35
tp1063
a(S'1.0'
p1064
S'1.0'
p1065
S'CD'
p1066
S'B-NP'
p1067
g35
tp1068
a(S'microgram/kg/d.'
p1069
S'microgram/kg/d.'
p1070
S'NN'
p1071
S'I-NP'
p1072
g35
tp1073
a(S'Patients'
p1074
S'Patient'
p1075
S'NNS'
p1076
S'I-NP'
p1077
g35
tp1078
a(S'in'
p1079
S'in'
p1080
S'IN'
p1081
S'B-PP'
p1082
g35
tp1083
a(S'group'
p1084
S'group'
p1085
S'NN'
p1086
S'B-NP'
p1087
g35
tp1088
a(g367
g367
S'NN'
p1089
S'I-NP'
p1090
g35
tp1091
a(S'received'
p1092
S'receive'
p1093
S'VBD'
p1094
S'B-VP'
p1095
g35
tp1096
a(S'2'
p1097
g1097
S'CD'
p1098
S'B-NP'
p1099
g35
tp1100
a(S'weeks'
p1101
S'week'
p1102
S'NNS'
p1103
S'I-NP'
p1104
g35
tp1105
a(S'of'
p1106
S'of'
p1107
S'IN'
p1108
S'B-PP'
p1109
g35
tp1110
a(S'daily'
p1111
S'daily'
p1112
S'JJ'
p1113
S'B-NP'
p1114
g35
tp1115
a(S'GM-CSF'
p1116
S'GM-CSF'
p1117
S'NN'
p1118
S'I-NP'
p1119
S'B-protein'
p1120
tp1121
a(g259
g259
g259
g35
g35
tp1122
a(S'at'
p1123
S'at'
p1124
S'IN'
p1125
S'B-PP'
p1126
g35
tp1127
a(S'which'
p1128
S'which'
p1129
S'WDT'
p1130
S'B-NP'
p1131
g35
tp1132
a(S'time'
p1133
S'time'
p1134
S'NN'
p1135
S'B-NP'
p1136
g35
tp1137
a(S'zidovudine'
p1138
S'zidovudine'
p1139
S'NN'
p1140
S'I-NP'
p1141
g35
tp1142
a(S'was'
p1143
S'be'
p1144
S'VBD'
p1145
S'B-VP'
p1146
g35
tp1147
a(S'restarted'
p1148
S'restart'
p1149
S'VBN'
p1150
S'I-VP'
p1151
g35
tp1152
a(S'if'
p1153
S'if'
p1154
S'IN'
p1155
S'B-SBAR'
p1156
g35
tp1157
a(S'the'
p1158
S'the'
p1159
S'DT'
p1160
S'B-NP'
p1161
g35
tp1162
a(S'ANC'
p1163
S'ANC'
p1164
S'NNP'
p1165
S'I-NP'
p1166
g35
tp1167
a(S'was'
p1168
S'be'
p1169
S'VBD'
p1170
S'B-VP'
p1171
g35
tp1172
a(S'greater'
p1173
S'great'
p1174
S'JJR'
p1175
S'B-ADJP'
p1176
g35
tp1177
a(S'than'
p1178
S'than'
p1179
S'IN'
p1180
S'B-PP'
p1181
g35
tp1182
a(g473
g473
S'CD'
p1183
S'B-NP'
p1184
g35
tp1185
a(g259
g259
g259
g35
g35
tp1186
a(S'000/microL'
p1187
S'000/microL'
p1188
S'NN'
p1189
S'B-NP'
p1190
g35
tp1191
a(S';'
p1192
g1192
S':'
p1193
g35
g35
tp1194
a(S'if'
p1195
S'if'
p1196
S'IN'
p1197
S'B-SBAR'
p1198
g35
tp1199
a(S'the'
p1200
S'the'
p1201
S'DT'
p1202
S'B-NP'
p1203
g35
tp1204
a(S'ANC'
p1205
S'ANC'
p1206
S'NNP'
p1207
S'I-NP'
p1208
g35
tp1209
a(S'was'
p1210
S'be'
p1211
S'VBD'
p1212
S'B-VP'
p1213
g35
tp1214
a(S'less'
p1215
S'less'
p1216
S'JJR'
p1217
S'B-NP'
p1218
g35
tp1219
a(S'than'
p1220
S'than'
p1221
S'IN'
p1222
S'I-NP'
p1223
g35
tp1224
a(g473
g473
S'CD'
p1225
S'I-NP'
p1226
g35
tp1227
a(g259
g259
g259
S'I-NP'
p1228
g35
tp1229
a(S'000/microL'
p1230
S'000/microL'
p1231
S'NN'
p1232
S'I-NP'
p1233
g35
tp1234
a(g259
g259
g259
g35
g35
tp1235
a(S'the'
p1236
S'the'
p1237
S'DT'
p1238
S'B-NP'
p1239
g35
tp1240
a(S'dose'
p1241
S'dose'
p1242
S'NN'
p1243
S'I-NP'
p1244
g35
tp1245
a(S'of'
p1246
S'of'
p1247
S'IN'
p1248
S'B-PP'
p1249
g35
tp1250
a(S'GM-CSF'
p1251
S'GM-CSF'
p1252
S'NN'
p1253
S'B-NP'
p1254
S'B-protein'
p1255
tp1256
a(S'was'
p1257
S'be'
p1258
S'VBD'
p1259
S'B-VP'
p1260
g35
tp1261
a(S'increased'
p1262
S'increase'
p1263
S'VBN'
p1264
S'I-VP'
p1265
g35
tp1266
a(S'to'
p1267
S'to'
p1268
S'TO'
p1269
S'B-PP'
p1270
g35
tp1271
a(S'3.0'
p1272
S'3.0'
p1273
S'CD'
p1274
S'B-NP'
p1275
g35
tp1276
a(S'micrograms/kg'
p1277
S'micrograms/kg'
p1278
S'NN'
p1279
S'I-NP'
p1280
g35
tp1281
a(g259
g259
g259
S'B-PP'
p1282
g35
tp1283
a(S'and'
p1284
S'and'
p1285
S'CC'
p1286
S'I-PP'
p1287
g35
tp1288
a(S'at'
p1289
S'at'
p1290
S'IN'
p1291
S'B-PP'
p1292
g35
tp1293
a(S'2-week'
p1294
S'2-week'
p1295
S'JJ'
p1296
S'B-NP'
p1297
g35
tp1298
a(S'intervals'
p1299
S'interval'
p1300
S'NNS'
p1301
S'I-NP'
p1302
g35
tp1303
a(S'either'
p1304
S'either'
p1305
S'CC'
p1306
g35
g35
tp1307
a(S'zidovudine'
p1308
S'zidovudine'
p1309
S'NN'
p1310
S'B-NP'
p1311
g35
tp1312
a(S'was'
p1313
S'be'
p1314
S'VBD'
p1315
S'B-VP'
p1316
g35
tp1317
a(S'restarted'
p1318
S'restart'
p1319
S'VBN'
p1320
S'I-VP'
p1321
g35
tp1322
a(S'or'
p1323
S'or'
p1324
S'CC'
p1325
g35
g35
tp1326
a(S'the'
p1327
S'the'
p1328
S'DT'
p1329
S'B-NP'
p1330
g35
tp1331
a(S'dose'
p1332
S'dose'
p1333
S'NN'
p1334
S'I-NP'
p1335
g35
tp1336
a(S'of'
p1337
S'of'
p1338
S'IN'
p1339
S'B-PP'
p1340
g35
tp1341
a(S'GM-CSF'
p1342
S'GM-CSF'
p1343
S'NN'
p1344
S'B-NP'
p1345
S'B-protein'
p1346
tp1347
a(S'was'
p1348
S'be'
p1349
S'VBD'
p1350
S'B-VP'
p1351
g35
tp1352
a(S'increased'
p1353
S'increase'
p1354
S'VBN'
p1355
S'I-VP'
p1356
g35
tp1357
a(S'to'
p1358
S'to'
p1359
S'TO'
p1360
S'B-PP'
p1361
g35
tp1362
a(S'5'
p1363
g1363
S'CD'
p1364
S'B-NP'
p1365
g35
tp1366
a(S'micrograms/kg'
p1367
S'micrograms/kg'
p1368
S'NN'
p1369
S'I-NP'
p1370
g35
tp1371
a(S'and'
p1372
S'and'
p1373
S'CC'
p1374
g35
g35
tp1375
a(S'then'
p1376
S'then'
p1377
S'RB'
p1378
g35
g35
tp1379
a(S'10'
p1380
S'10'
p1381
S'CD'
p1382
S'B-NP'
p1383
g35
tp1384
a(S'micrograms/kg'
p1385
S'micrograms/kg'
p1386
S'NN'
p1387
S'I-NP'
p1388
g35
tp1389
a(g259
g259
g259
g35
g35
tp1390
a(S'to'
p1391
S'to'
p1392
S'TO'
p1393
S'B-VP'
p1394
g35
tp1395
a(S'maintain'
p1396
S'maintain'
p1397
S'VB'
p1398
S'I-VP'
p1399
g35
tp1400
a(S'the'
p1401
S'the'
p1402
S'DT'
p1403
S'B-NP'
p1404
g35
tp1405
a(S'ANC'
p1406
S'ANC'
p1407
S'NNP'
p1408
S'I-NP'
p1409
g35
tp1410
a(S'greater'
p1411
S'great'
p1412
S'JJR'
p1413
S'B-ADJP'
p1414
g35
tp1415
a(S'than'
p1416
S'than'
p1417
S'IN'
p1418
S'B-PP'
p1419
g35
tp1420
a(g473
g473
S'CD'
p1421
S'B-NP'
p1422
g35
tp1423
a(g259
g259
g259
g35
g35
tp1424
a(S'000/microL.'
p1425
S'000/microL.'
p1426
S'NNP'
p1427
S'B-NP'
p1428
g35
tp1429
a(S'Group'
p1430
S'Group'
p1431
S'NNP'
p1432
S'I-NP'
p1433
g35
tp1434
a(g448
g448
S'NNP'
p1435
S'I-NP'
p1436
g35
tp1437
a(S'patients'
p1438
S'patient'
p1439
S'NNS'
p1440
S'I-NP'
p1441
g35
tp1442
a(S'received'
p1443
S'receive'
p1444
S'VBD'
p1445
S'B-VP'
p1446
g35
tp1447
a(S'full-dose'
p1448
S'full-dose'
p1449
S'JJ'
p1450
S'B-NP'
p1451
g35
tp1452
a(S'zidovudine'
p1453
S'zidovudine'
p1454
S'NN'
p1455
S'I-NP'
p1456
g35
tp1457
a(S'concurrently'
p1458
S'concurrently'
p1459
S'RB'
p1460
S'B-ADVP'
p1461
g35
tp1462
a(S'with'
p1463
S'with'
p1464
S'IN'
p1465
S'B-PP'
p1466
g35
tp1467
a(S'GM-CSF'
p1468
S'GM-CSF'
p1469
S'NN'
p1470
S'B-NP'
p1471
S'B-protein'
p1472
tp1473
a(S'administration.'
p1474
S'administration.'
p1475
S'NN'
p1476
S'I-NP'
p1477
g35
tp1478
a(S'The'
p1479
S'The'
p1480
S'DT'
p1481
S'B-NP'
p1482
g35
tp1483
a(S'dose'
p1484
S'dose'
p1485
S'NN'
p1486
S'I-NP'
p1487
g35
tp1488
a(S'of'
p1489
S'of'
p1490
S'IN'
p1491
S'B-PP'
p1492
g35
tp1493
a(S'GM-CSF'
p1494
S'GM-CSF'
p1495
S'NN'
p1496
S'B-NP'
p1497
S'B-protein'
p1498
tp1499
a(S'was'
p1500
S'be'
p1501
S'VBD'
p1502
S'B-VP'
p1503
g35
tp1504
a(S'increased'
p1505
S'increase'
p1506
S'VBN'
p1507
S'I-VP'
p1508
g35
tp1509
a(S'every'
p1510
S'every'
p1511
S'DT'
p1512
S'B-NP'
p1513
g35
tp1514
a(g1097
g1097
S'CD'
p1515
S'I-NP'
p1516
g35
tp1517
a(S'weeks'
p1518
S'week'
p1519
S'NNS'
p1520
S'I-NP'
p1521
g35
tp1522
a(S'if'
p1523
S'if'
p1524
S'IN'
p1525
S'B-SBAR'
p1526
g35
tp1527
a(S'necessary'
p1528
S'necessary'
p1529
S'JJ'
p1530
S'B-ADJP'
p1531
g35
tp1532
a(S'to'
p1533
S'to'
p1534
S'TO'
p1535
S'B-VP'
p1536
g35
tp1537
a(S'keep'
p1538
S'keep'
p1539
S'VB'
p1540
S'I-VP'
p1541
g35
tp1542
a(S'the'
p1543
S'the'
p1544
S'DT'
p1545
S'B-NP'
p1546
g35
tp1547
a(S'ANC'
p1548
S'ANC'
p1549
S'NNP'
p1550
S'I-NP'
p1551
g35
tp1552
a(S'greater'
p1553
S'great'
p1554
S'JJR'
p1555
S'B-ADJP'
p1556
g35
tp1557
a(S'than'
p1558
S'than'
p1559
S'IN'
p1560
S'B-PP'
p1561
g35
tp1562
a(g473
g473
S'CD'
p1563
S'B-NP'
p1564
g35
tp1565
a(g259
g259
g259
g35
g35
tp1566
a(S'000/microL'
p1567
S'000/microL'
p1568
S'NN'
p1569
S'B-NP'
p1570
g35
tp1571
a(S'while'
p1572
S'while'
p1573
S'IN'
p1574
S'B-SBAR'
p1575
g35
tp1576
a(S'maintaining'
p1577
S'maintain'
p1578
S'VBG'
p1579
S'B-VP'
p1580
g35
tp1581
a(S'full-dose'
p1582
S'full-dose'
p1583
S'JJ'
p1584
S'B-NP'
p1585
g35
tp1586
a(S'zidovudine'
p1587
S'zidovudine'
p1588
S'NN'
p1589
S'I-NP'
p1590
g35
tp1591
a(S'therapy.'
p1592
S'therapy.'
p1593
S'NN'
p1594
S'I-NP'
p1595
g35
tp1596
a(S'Patients'
p1597
S'Patient'
p1598
S'NNS'
p1599
S'I-NP'
p1600
g35
tp1601
a(S'in'
p1602
S'in'
p1603
S'IN'
p1604
S'B-PP'
p1605
g35
tp1606
a(S'each'
p1607
S'each'
p1608
S'DT'
p1609
S'B-NP'
p1610
g35
tp1611
a(S'group'
p1612
S'group'
p1613
S'NN'
p1614
S'I-NP'
p1615
g35
tp1616
a(S'showed'
p1617
S'show'
p1618
S'VBD'
p1619
S'B-VP'
p1620
g35
tp1621
a(S'an'
p1622
S'an'
p1623
S'DT'
p1624
S'B-NP'
p1625
g35
tp1626
a(S'increase'
p1627
S'increase'
p1628
S'NN'
p1629
S'I-NP'
p1630
g35
tp1631
a(S'in'
p1632
S'in'
p1633
S'IN'
p1634
S'B-PP'
p1635
g35
tp1636
a(S'total'
p1637
S'total'
p1638
S'JJ'
p1639
S'B-NP'
p1640
S'B-cell_type'
p1641
tp1642
a(S'white'
p1643
S'white'
p1644
S'JJ'
p1645
S'I-NP'
p1646
S'I-cell_type'
p1647
tp1648
a(S'blood'
p1649
S'blood'
p1650
S'NN'
p1651
S'I-NP'
p1652
S'I-cell_type'
p1653
tp1654
a(S'cell'
p1655
S'cell'
p1656
S'NN'
p1657
S'I-NP'
p1658
S'I-cell_type'
p1659
tp1660
a(g77
g77
g77
g35
g35
tp1661
a(S'WBC'
p1662
S'WBC'
p1663
S'NN'
p1664
S'B-NP'
p1665
S'B-cell_type'
p1666
tp1667
a(g85
g85
g85
g35
g35
tp1668
a(S'count.'
p1669
S'count.'
p1670
S'NN'
p1671
S'B-NP'
p1672
g35
tp1673
a(S'Neutrophils'
p1674
S'Neutrophil'
p1675
S'NNS'
p1676
S'I-NP'
p1677
g35
tp1678
a(S'and'
p1679
S'and'
p1680
S'CC'
p1681
S'I-NP'
p1682
g35
tp1683
a(S'eosinophils'
p1684
S'eosinophil'
p1685
S'NNS'
p1686
S'I-NP'
p1687
S'B-cell_type'
p1688
tp1689
a(S'were'
p1690
S'be'
p1691
S'VBD'
p1692
S'B-VP'
p1693
g35
tp1694
a(S'responsible'
p1695
S'responsible'
p1696
S'JJ'
p1697
S'B-ADJP'
p1698
g35
tp1699
a(S'for'
p1700
S'for'
p1701
S'IN'
p1702
S'B-PP'
p1703
g35
tp1704
a(S'the'
p1705
S'the'
p1706
S'DT'
p1707
S'B-NP'
p1708
g35
tp1709
a(S'majority'
p1710
S'majority'
p1711
S'NN'
p1712
S'I-NP'
p1713
g35
tp1714
a(S'of'
p1715
S'of'
p1716
S'IN'
p1717
S'B-PP'
p1718
g35
tp1719
a(S'this'
p1720
S'this'
p1721
S'DT'
p1722
S'B-NP'
p1723
g35
tp1724
a(S'increase.'
p1725
S'increase.'
p1726
S'FW'
p1727
S'I-NP'
p1728
g35
tp1729
a(S'Patients'
p1730
S'Patient'
p1731
S'NNS'
p1732
S'I-NP'
p1733
g35
tp1734
a(S'in'
p1735
S'in'
p1736
S'IN'
p1737
S'B-PP'
p1738
g35
tp1739
a(S'group'
p1740
S'group'
p1741
S'NN'
p1742
S'B-NP'
p1743
g35
tp1744
a(g367
g367
S'NN'
p1745
S'I-NP'
p1746
g35
tp1747
a(S'had'
p1748
S'have'
p1749
S'VBD'
p1750
S'B-VP'
p1751
g35
tp1752
a(g271
g271
S'DT'
p1753
S'B-NP'
p1754
g35
tp1755
a(S'more'
p1756
S'more'
p1757
S'RBR'
p1758
S'I-NP'
p1759
g35
tp1760
a(S'rapid'
p1761
S'rapid'
p1762
S'JJ'
p1763
S'I-NP'
p1764
g35
tp1765
a(S'increase'
p1766
S'increase'
p1767
S'NN'
p1768
S'I-NP'
p1769
g35
tp1770
a(S'in'
p1771
S'in'
p1772
S'IN'
p1773
S'B-PP'
p1774
g35
tp1775
a(S'WBC'
p1776
S'WBC'
p1777
S'NN'
p1778
S'B-NP'
p1779
S'B-cell_type'
p1780
tp1781
a(S'than'
p1782
S'than'
p1783
S'IN'
p1784
S'B-PP'
p1785
g35
tp1786
a(S'those'
p1787
S'those'
p1788
S'DT'
p1789
S'B-NP'
p1790
g35
tp1791
a(S'in'
p1792
S'in'
p1793
S'IN'
p1794
S'B-PP'
p1795
g35
tp1796
a(S'group'
p1797
S'group'
p1798
S'NN'
p1799
S'B-NP'
p1800
g35
tp1801
a(g448
g448
S'NN'
p1802
S'I-NP'
p1803
g35
tp1804
a(g1192
g1192
g1193
g35
g35
tp1805
a(S'however'
p1806
S'however'
p1807
S'RB'
p1808
S'B-ADVP'
p1809
g35
tp1810
a(g259
g259
g259
g35
g35
tp1811
a(S'by'
p1812
S'by'
p1813
S'IN'
p1814
S'B-PP'
p1815
g35
tp1816
a(S'week'
p1817
S'week'
p1818
S'NN'
p1819
S'B-NP'
p1820
g35
tp1821
a(S'8'
p1822
g1822
S'CD'
p1823
S'I-NP'
p1824
g35
tp1825
a(g259
g259
g259
g35
g35
tp1826
a(S'the'
p1827
S'the'
p1828
S'DT'
p1829
S'B-NP'
p1830
g35
tp1831
a(S'WBC'
p1832
S'WBC'
p1833
S'NNP'
p1834
S'I-NP'
p1835
S'B-cell_type'
p1836
tp1837
a(S'in'
p1838
S'in'
p1839
S'IN'
p1840
S'B-PP'
p1841
g35
tp1842
a(S'each'
p1843
S'each'
p1844
S'DT'
p1845
S'B-NP'
p1846
g35
tp1847
a(S'group'
p1848
S'group'
p1849
S'NN'
p1850
S'I-NP'
p1851
g35
tp1852
a(S'was'
p1853
S'be'
p1854
S'VBD'
p1855
S'B-VP'
p1856
g35
tp1857
a(S'essentially'
p1858
S'essentially'
p1859
S'RB'
p1860
S'B-NP'
p1861
g35
tp1862
a(S'equal.'
p1863
S'equal.'
p1864
S'JJ'
p1865
S'I-NP'
p1866
g35
tp1867
a(S'Viral'
p1868
S'Viral'
p1869
S'JJ'
p1870
S'I-NP'
p1871
g35
tp1872
a(S'replication'
p1873
S'replication'
p1874
S'NN'
p1875
S'I-NP'
p1876
g35
tp1877
a(S'as'
p1878
S'as'
p1879
S'IN'
p1880
S'B-SBAR'
p1881
g35
tp1882
a(S'measured'
p1883
S'measure'
p1884
S'VBN'
p1885
S'B-VP'
p1886
g35
tp1887
a(S'by'
p1888
S'by'
p1889
S'IN'
p1890
S'B-PP'
p1891
g35
tp1892
a(S'human'
p1893
S'human'
p1894
S'JJ'
p1895
S'B-NP'
p1896
g35
tp1897
a(S'immunodeficiency'
p1898
S'immunodeficiency'
p1899
S'NN'
p1900
S'I-NP'
p1901
g35
tp1902
a(S'virus'
p1903
S'virus'
p1904
S'NN'
p1905
S'I-NP'
p1906
g35
tp1907
a(g77
g77
g77
g35
g35
tp1908
a(S'HIV'
p1909
S'HIV'
p1910
S'NN'
p1911
S'B-NP'
p1912
g35
tp1913
a(g85
g85
g85
g35
g35
tp1914
a(S'p24'
p1915
S'p24'
p1916
S'NN'
p1917
S'B-NP'
p1918
S'B-protein'
p1919
tp1920
a(S'antigen'
p1921
S'antigen'
p1922
S'NN'
p1923
S'I-NP'
p1924
S'I-protein'
p1925
tp1926
a(g77
g77
g77
g35
g35
tp1927
a(S'Ag'
p1928
S'Ag'
p1929
S'NN'
p1930
S'B-NP'
p1931
S'B-protein'
p1932
tp1933
a(g85
g85
g85
g35
g35
tp1934
a(S'was'
p1935
S'be'
p1936
S'VBD'
p1937
S'B-VP'
p1938
g35
tp1939
a(S'decreased'
p1940
S'decrease'
p1941
S'VBN'
p1942
S'I-VP'
p1943
g35
tp1944
a(S'in'
p1945
S'in'
p1946
S'IN'
p1947
S'B-PP'
p1948
g35
tp1949
a(S'four'
p1950
S'four'
p1951
S'CD'
p1952
S'B-NP'
p1953
g35
tp1954
a(S'patients'
p1955
S'patient'
p1956
S'NNS'
p1957
S'I-NP'
p1958
g35
tp1959
a(S'in'
p1960
S'in'
p1961
S'IN'
p1962
S'B-PP'
p1963
g35
tp1964
a(S'each'
p1965
S'each'
p1966
S'DT'
p1967
S'B-NP'
p1968
g35
tp1969
a(S'group'
p1970
S'group'
p1971
S'NN'
p1972
S'I-NP'
p1973
g35
tp1974
a(g259
g259
g259
g35
g35
tp1975
a(S'increased'
p1976
S'increase'
p1977
S'VBD'
p1978
S'B-VP'
p1979
g35
tp1980
a(S'in'
p1981
S'in'
p1982
S'IN'
p1983
S'B-PP'
p1984
g35
tp1985
a(S'one'
p1986
S'one'
p1987
S'CD'
p1988
S'B-NP'
p1989
g35
tp1990
a(S'patient'
p1991
S'patient'
p1992
S'NN'
p1993
S'I-NP'
p1994
g35
tp1995
a(S'in'
p1996
S'in'
p1997
S'IN'
p1998
S'B-PP'
p1999
g35
tp2000
a(S'each'
p2001
S'each'
p2002
S'DT'
p2003
S'B-NP'
p2004
g35
tp2005
a(S'group'
p2006
S'group'
p2007
S'NN'
p2008
S'I-NP'
p2009
g35
tp2010
a(g259
g259
g259
g35
g35
tp2011
a(S'and'
p2012
S'and'
p2013
S'CC'
p2014
g35
g35
tp2015
a(S'remained'
p2016
S'remain'
p2017
S'VBD'
p2018
S'B-VP'
p2019
g35
tp2020
a(S'unchanged'
p2021
S'unchanged'
p2022
S'JJ'
p2023
S'B-ADJP'
p2024
g35
tp2025
a(S'in'
p2026
S'in'
p2027
S'IN'
p2028
S'B-PP'
p2029
g35
tp2030
a(S'the'
p2031
S'the'
p2032
S'DT'
p2033
S'B-NP'
p2034
g35
tp2035
a(S'remainder.'
p2036
S'remainder.'
p2037
S'NN'
p2038
S'I-NP'
p2039
g35
tp2040
a(S'The'
p2041
S'The'
p2042
S'DT'
p2043
S'B-NP'
p2044
g35
tp2045
a(S'ability'
p2046
S'ability'
p2047
S'NN'
p2048
S'I-NP'
p2049
g35
tp2050
a(S'to'
p2051
S'to'
p2052
S'TO'
p2053
S'B-PP'
p2054
g35
tp2055
a(S'culture'
p2056
S'culture'
p2057
S'NN'
p2058
S'B-NP'
p2059
g35
tp2060
a(S'virus'
p2061
S'virus'
p2062
S'NN'
p2063
S'I-NP'
p2064
g35
tp2065
a(S'from'
p2066
S'from'
p2067
S'IN'
p2068
S'B-PP'
p2069
g35
tp2070
a(S'peripheral'
p2071
S'peripheral'
p2072
S'JJ'
p2073
S'B-NP'
p2074
S'B-cell_type'
p2075
tp2076
a(S'blood'
p2077
S'blood'
p2078
S'NN'
p2079
S'I-NP'
p2080
S'I-cell_type'
p2081
tp2082
a(S'mononuclear'
p2083
S'mononuclear'
p2084
S'JJ'
p2085
S'I-NP'
p2086
S'I-cell_type'
p2087
tp2088
a(S'cells'
p2089
S'cell'
p2090
S'NNS'
p2091
S'I-NP'
p2092
S'I-cell_type'
p2093
tp2094
a(S'was'
p2095
S'be'
p2096
S'VBD'
p2097
S'B-VP'
p2098
g35
tp2099
a(S'not'
p2100
S'not'
p2101
S'RB'
p2102
S'I-VP'
p2103
g35
tp2104
a(S'changed'
p2105
S'change'
p2106
S'VBN'
p2107
S'I-VP'
p2108
g35
tp2109
a(S'by'
p2110
S'by'
p2111
S'IN'
p2112
S'B-PP'
p2113
g35
tp2114
a(S'the'
p2115
S'the'
p2116
S'DT'
p2117
S'B-NP'
p2118
g35
tp2119
a(S'regimen.'
p2120
S'regimen.'
p2121
S'NN'
p2122
S'I-NP'
p2123
g35
tp2124
a(S'The'
p2125
S'The'
p2126
S'DT'
p2127
S'B-NP'
p2128
g35
tp2129
a(S'major'
p2130
S'major'
p2131
S'JJ'
p2132
S'I-NP'
p2133
g35
tp2134
a(S'toxicities'
p2135
S'toxicity'
p2136
S'NNS'
p2137
S'I-NP'
p2138
g35
tp2139
a(S'of'
p2140
S'of'
p2141
S'IN'
p2142
S'B-PP'
p2143
g35
tp2144
a(S'the'
p2145
S'the'
p2146
S'DT'
p2147
S'B-NP'
p2148
g35
tp2149
a(S'regimen'
p2150
S'regimen'
p2151
S'NN'
p2152
S'I-NP'
p2153
g35
tp2154
a(S'were'
p2155
S'be'
p2156
S'VBD'
p2157
S'B-VP'
p2158
g35
tp2159
a(S'fever'
p2160
S'fever'
p2161
S'NN'
p2162
S'B-NP'
p2163
g35
tp2164
a(S'and'
p2165
S'and'
p2166
S'CC'
p2167
g35
g35
tp2168
a(S'malaise.'
p2169
S'malaise.'
p2170
S'NN'
p2171
S'B-NP'
p2172
g35
tp2173
a(g77
g77
g77
g35
g35
tp2174
a(S'ABSTRACT'
p2175
S'ABSTRACT'
p2176
S'NN'
p2177
S'B-NP'
p2178
g35
tp2179
a(S'TRUNCATED'
p2180
S'TRUNCATED'
p2181
S'VBN'
p2182
S'B-VP'
p2183
g35
tp2184
a(S'AT'
p2185
S'AT'
p2186
S'IN'
p2187
S'B-PP'
p2188
g35
tp2189
a(S'400'
p2190
S'400'
p2191
S'CD'
p2192
S'B-NP'
p2193
g35
tp2194
a(S'WORDS'
p2195
S'WORDS'
p2196
S'NNS'
p2197
S'I-NP'
p2198
g35
tp2199
a(g85
g85
g85
g35
g35
tp2200
a.