(lp0
(S'A'
p1
g1
S'DT'
p2
S'B-NP'
p3
S'O'
p4
tp5
a(S'randomized'
p6
S'randomize'
p7
S'VBN'
p8
S'I-NP'
p9
g4
tp10
a(S'trial'
p11
S'trial'
p12
S'NN'
p13
S'I-NP'
p14
g4
tp15
a(S'of'
p16
S'of'
p17
S'IN'
p18
S'B-PP'
p19
g4
tp20
a(S'chiropractic'
p21
S'chiropractic'
p22
S'JJ'
p23
S'B-NP'
p24
g4
tp25
a(S'and'
p26
S'and'
p27
S'CC'
p28
S'I-NP'
p29
g4
tp30
a(S'medical'
p31
S'medical'
p32
S'JJ'
p33
S'I-NP'
p34
g4
tp35
a(S'care'
p36
S'care'
p37
S'NN'
p38
S'I-NP'
p39
g4
tp40
a(S'for'
p41
S'for'
p42
S'IN'
p43
S'B-PP'
p44
g4
tp45
a(S'patients'
p46
S'patient'
p47
S'NNS'
p48
S'B-NP'
p49
g4
tp50
a(S'with'
p51
S'with'
p52
S'IN'
p53
S'B-PP'
p54
g4
tp55
a(S'low'
p56
S'low'
p57
S'JJ'
p58
S'B-NP'
p59
g4
tp60
a(S'back'
p61
S'back'
p62
S'JJ'
p63
S'I-NP'
p64
g4
tp65
a(S'pain'
p66
S'pain'
p67
S'NN'
p68
S'I-NP'
p69
g4
tp70
a(S':'
p71
g71
g71
g4
g4
tp72
a(S'eighteen-month'
p73
S'eighteen-month'
p74
S'JJ'
p75
S'B-NP'
p76
g4
tp77
a(S'follow-up'
p78
S'follow-up'
p79
S'JJ'
p80
S'I-NP'
p81
g4
tp82
a(S'outcomes'
p83
S'outcome'
p84
S'NNS'
p85
S'I-NP'
p86
g4
tp87
a(S'from'
p88
S'from'
p89
S'IN'
p90
S'B-PP'
p91
g4
tp92
a(S'the'
p93
S'the'
p94
S'DT'
p95
S'B-NP'
p96
g4
tp97
a(S'UCLA'
p98
S'UCLA'
p99
S'NN'
p100
S'I-NP'
p101
g4
tp102
a(S'low'
p103
S'low'
p104
S'JJ'
p105
S'I-NP'
p106
g4
tp107
a(S'back'
p108
S'back'
p109
S'JJ'
p110
S'I-NP'
p111
g4
tp112
a(S'pain'
p113
S'pain'
p114
S'NN'
p115
S'I-NP'
p116
g4
tp117
a(S'study'
p118
S'study'
p119
S'NN'
p120
S'I-NP'
p121
g4
tp122
a(S'.'
p123
g123
g123
g4
g4
tp124
a(S'STUDY'
p125
S'STUDY'
p126
S'NN'
p127
S'B-NP'
p128
g4
tp129
a(S'DESIGN'
p130
S'DESIGN'
p131
S'NN'
p132
S'I-NP'
p133
g4
tp134
a(S'Randomized'
p135
S'Randomize'
p136
S'VBD'
p137
S'B-VP'
p138
g4
tp139
a(S'clinical'
p140
S'clinical'
p141
S'JJ'
p142
S'B-NP'
p143
g4
tp144
a(S'trial'
p145
S'trial'
p146
S'NN'
p147
S'I-NP'
p148
g4
tp149
a(g123
g123
g123
g4
g4
tp150
a(S'OBJECTIVES'
p151
S'OBJECTIVES'
p152
S'NNS'
p153
S'B-NP'
p154
g4
tp155
a(S'To'
p156
S'To'
p157
S'TO'
p158
S'B-VP'
p159
g4
tp160
a(S'compare'
p161
S'compare'
p162
S'VB'
p163
S'I-VP'
p164
g4
tp165
a(S'the'
p166
S'the'
p167
S'DT'
p168
S'B-NP'
p169
g4
tp170
a(S'long-term'
p171
S'long-term'
p172
S'JJ'
p173
S'I-NP'
p174
g4
tp175
a(S'effectiveness'
p176
S'effectiveness'
p177
S'NN'
p178
S'I-NP'
p179
g4
tp180
a(S'of'
p181
S'of'
p182
S'IN'
p183
S'B-PP'
p184
g4
tp185
a(S'medical'
p186
S'medical'
p187
S'JJ'
p188
S'B-NP'
p189
g4
tp190
a(S'and'
p191
S'and'
p192
S'CC'
p193
S'I-NP'
p194
g4
tp195
a(S'chiropractic'
p196
S'chiropractic'
p197
S'JJ'
p198
S'I-NP'
p199
g4
tp200
a(S'care'
p201
S'care'
p202
S'NN'
p203
S'I-NP'
p204
g4
tp205
a(S'for'
p206
S'for'
p207
S'IN'
p208
S'B-PP'
p209
g4
tp210
a(S'low'
p211
S'low'
p212
S'JJ'
p213
S'B-NP'
p214
g4
tp215
a(S'back'
p216
S'back'
p217
S'JJ'
p218
S'I-NP'
p219
g4
tp220
a(S'pain'
p221
S'pain'
p222
S'NN'
p223
S'I-NP'
p224
g4
tp225
a(S'in'
p226
S'in'
p227
S'IN'
p228
S'B-PP'
p229
g4
tp230
a(S'managed'
p231
S'manage'
p232
S'VBN'
p233
S'B-NP'
p234
g4
tp235
a(S'care'
p236
S'care'
p237
S'NN'
p238
S'I-NP'
p239
g4
tp240
a(S'and'
p241
S'and'
p242
S'CC'
p243
g4
g4
tp244
a(S'to'
p245
S'to'
p246
S'TO'
p247
S'B-VP'
p248
g4
tp249
a(S'assess'
p250
S'assess'
p251
S'VB'
p252
S'I-VP'
p253
g4
tp254
a(S'the'
p255
S'the'
p256
S'DT'
p257
S'B-NP'
p258
g4
tp259
a(S'effectiveness'
p260
S'effectiveness'
p261
S'NN'
p262
S'I-NP'
p263
g4
tp264
a(S'of'
p265
S'of'
p266
S'IN'
p267
S'B-PP'
p268
g4
tp269
a(S'physical'
p270
S'physical'
p271
S'JJ'
p272
S'B-NP'
p273
g4
tp274
a(S'therapy'
p275
S'therapy'
p276
S'NN'
p277
S'I-NP'
p278
g4
tp279
a(S'and'
p280
S'and'
p281
S'CC'
p282
g4
g4
tp283
a(S'modalities'
p284
S'modality'
p285
S'NNS'
p286
S'B-NP'
p287
g4
tp288
a(S'among'
p289
S'among'
p290
S'IN'
p291
S'B-PP'
p292
g4
tp293
a(S'patients'
p294
S'patient'
p295
S'NNS'
p296
S'B-NP'
p297
g4
tp298
a(S'receiving'
p299
S'receive'
p300
S'VBG'
p301
S'B-VP'
p302
g4
tp303
a(S'medical'
p304
S'medical'
p305
S'JJ'
p306
S'B-NP'
p307
g4
tp308
a(S'or'
p309
S'or'
p310
S'CC'
p311
S'I-NP'
p312
g4
tp313
a(S'chiropractic'
p314
S'chiropractic'
p315
S'JJ'
p316
S'I-NP'
p317
g4
tp318
a(S'care'
p319
S'care'
p320
S'NN'
p321
S'I-NP'
p322
g4
tp323
a(g123
g123
g123
g4
g4
tp324
a(S'SUMMARY'
p325
S'SUMMARY'
p326
S'NN'
p327
S'B-NP'
p328
g4
tp329
a(S'OF'
p330
S'OF'
p331
S'IN'
p332
S'B-PP'
p333
g4
tp334
a(S'BACKGROUND'
p335
S'BACKGROUND'
p336
S'NN'
p337
S'B-NP'
p338
g4
tp339
a(S'DATA'
p340
S'DATA'
p341
S'NN'
p342
S'I-NP'
p343
g4
tp344
a(S'Evidence'
p345
S'Evidence'
p346
S'NN'
p347
S'I-NP'
p348
g4
tp349
a(S'comparing'
p350
S'compare'
p351
S'VBG'
p352
S'B-VP'
p353
g4
tp354
a(S'the'
p355
S'the'
p356
S'DT'
p357
S'B-NP'
p358
g4
tp359
a(S'long-term'
p360
S'long-term'
p361
S'JJ'
p362
S'I-NP'
p363
g4
tp364
a(S'relative'
p365
S'relative'
p366
S'JJ'
p367
S'I-NP'
p368
g4
tp369
a(S'effectiveness'
p370
S'effectiveness'
p371
S'NN'
p372
S'I-NP'
p373
g4
tp374
a(S'of'
p375
S'of'
p376
S'IN'
p377
S'B-PP'
p378
g4
tp379
a(S'common'
p380
S'common'
p381
S'JJ'
p382
S'B-NP'
p383
g4
tp384
a(S'treatment'
p385
S'treatment'
p386
S'NN'
p387
S'I-NP'
p388
g4
tp389
a(S'strategies'
p390
S'strategy'
p391
S'NNS'
p392
S'I-NP'
p393
g4
tp394
a(S'offered'
p395
S'offer'
p396
S'VBD'
p397
S'B-VP'
p398
g4
tp399
a(S'to'
p400
S'to'
p401
S'TO'
p402
S'I-VP'
p403
g4
tp404
a(S'low'
p405
S'low'
p406
S'VB'
p407
S'I-VP'
p408
g4
tp409
a(S'back'
p410
S'back'
p411
S'RP'
p412
S'B-PRT'
p413
g4
tp414
a(S'pain'
p415
S'pain'
p416
S'NN'
p417
S'B-NP'
p418
g4
tp419
a(S'patients'
p420
S'patient'
p421
S'NNS'
p422
S'I-NP'
p423
g4
tp424
a(S'in'
p425
S'in'
p426
S'IN'
p427
S'B-PP'
p428
g4
tp429
a(S'managed'
p430
S'manage'
p431
S'VBN'
p432
S'B-NP'
p433
g4
tp434
a(S'care'
p435
S'care'
p436
S'NN'
p437
S'I-NP'
p438
g4
tp439
a(S'is'
p440
S'be'
p441
S'VBZ'
p442
S'B-VP'
p443
g4
tp444
a(S'lacking'
p445
S'lack'
p446
S'VBG'
p447
S'I-VP'
p448
g4
tp449
a(g123
g123
g123
g4
g4
tp450
a(S'METHODS'
p451
S'METHODS'
p452
S'NNS'
p453
S'B-NP'
p454
g4
tp455
a(g1
g1
S'DT'
p456
S'B-NP'
p457
g4
tp458
a(S'total'
p459
S'total'
p460
S'NN'
p461
S'I-NP'
p462
g4
tp463
a(S'of'
p464
S'of'
p465
S'IN'
p466
S'B-PP'
p467
g4
tp468
a(S'681'
p469
S'681'
p470
S'CD'
p471
S'B-NP'
p472
g4
tp473
a(S'low'
p474
S'low'
p475
S'JJ'
p476
S'I-NP'
p477
g4
tp478
a(S'back'
p479
S'back'
p480
S'JJ'
p481
S'I-NP'
p482
g4
tp483
a(S'pain'
p484
S'pain'
p485
S'NN'
p486
S'I-NP'
p487
g4
tp488
a(S'patients'
p489
S'patient'
p490
S'NNS'
p491
S'I-NP'
p492
g4
tp493
a(S'presenting'
p494
S'present'
p495
S'VBG'
p496
S'B-VP'
p497
g4
tp498
a(S'to'
p499
S'to'
p500
S'TO'
p501
S'B-PP'
p502
g4
tp503
a(S'a'
p504
g504
S'DT'
p505
S'B-NP'
p506
g4
tp507
a(S'managed-care'
p508
S'managed-care'
p509
S'JJ'
p510
S'I-NP'
p511
g4
tp512
a(S'facility'
p513
S'facility'
p514
S'NN'
p515
S'I-NP'
p516
g4
tp517
a(S'were'
p518
S'be'
p519
S'VBD'
p520
S'B-VP'
p521
g4
tp522
a(S'randomized'
p523
S'randomize'
p524
S'VBN'
p525
S'I-VP'
p526
g4
tp527
a(S'to'
p528
S'to'
p529
S'TO'
p530
S'B-PP'
p531
g4
tp532
a(S'chiropractic'
p533
S'chiropractic'
p534
S'JJ'
p535
S'B-ADJP'
p536
g4
tp537
a(S'with'
p538
S'with'
p539
S'IN'
p540
S'B-PP'
p541
g4
tp542
a(S'or'
p543
S'or'
p544
S'CC'
p545
S'B-PP'
p546
g4
tp547
a(S'without'
p548
S'without'
p549
S'IN'
p550
S'B-PP'
p551
g4
tp552
a(S'physical'
p553
S'physical'
p554
S'JJ'
p555
S'B-NP'
p556
g4
tp557
a(S'modalities'
p558
S'modality'
p559
S'NNS'
p560
S'I-NP'
p561
g4
tp562
a(S','
p563
g563
g563
g4
g4
tp564
a(S'or'
p565
S'or'
p566
S'CC'
p567
g4
g4
tp568
a(S'medical'
p569
S'medical'
p570
S'JJ'
p571
S'B-NP'
p572
g4
tp573
a(S'care'
p574
S'care'
p575
S'NN'
p576
S'I-NP'
p577
g4
tp578
a(S'with'
p579
S'with'
p580
S'IN'
p581
S'B-PP'
p582
g4
tp583
a(S'or'
p584
S'or'
p585
S'CC'
p586
S'B-PP'
p587
g4
tp588
a(S'without'
p589
S'without'
p590
S'IN'
p591
S'B-PP'
p592
g4
tp593
a(S'physical'
p594
S'physical'
p595
S'JJ'
p596
S'B-NP'
p597
g4
tp598
a(S'therapy'
p599
S'therapy'
p600
S'NN'
p601
S'I-NP'
p602
g4
tp603
a(g563
g563
g563
g4
g4
tp604
a(S'and'
p605
S'and'
p606
S'CC'
p607
g4
g4
tp608
a(S'followed'
p609
S'follow'
p610
S'VBN'
p611
S'B-VP'
p612
g4
tp613
a(S'for'
p614
S'for'
p615
S'IN'
p616
S'B-PP'
p617
g4
tp618
a(S'18'
p619
S'18'
p620
S'CD'
p621
S'B-NP'
p622
g4
tp623
a(S'months.'
p624
S'months.'
p625
S'NN'
p626
S'I-NP'
p627
g4
tp628
a(S'The'
p629
S'The'
p630
S'DT'
p631
S'B-NP'
p632
g4
tp633
a(S'primary'
p634
S'primary'
p635
S'JJ'
p636
S'I-NP'
p637
g4
tp638
a(S'outcome'
p639
S'outcome'
p640
S'NN'
p641
S'I-NP'
p642
g4
tp643
a(S'variables'
p644
S'variable'
p645
S'NNS'
p646
S'I-NP'
p647
g4
tp648
a(S'are'
p649
S'be'
p650
S'VBP'
p651
S'B-VP'
p652
g4
tp653
a(S'low'
p654
S'low'
p655
S'JJ'
p656
S'B-NP'
p657
g4
tp658
a(S'back'
p659
S'back'
p660
S'JJ'
p661
S'I-NP'
p662
g4
tp663
a(S'pain'
p664
S'pain'
p665
S'NN'
p666
S'I-NP'
p667
g4
tp668
a(S'intensity'
p669
S'intensity'
p670
S'NN'
p671
S'I-NP'
p672
g4
tp673
a(g563
g563
g563
g4
g4
tp674
a(S'disability'
p675
S'disability'
p676
S'NN'
p677
S'B-NP'
p678
g4
tp679
a(g563
g563
g563
g4
g4
tp680
a(S'and'
p681
S'and'
p682
S'CC'
p683
g4
g4
tp684
a(S'complete'
p685
S'complete'
p686
S'JJ'
p687
S'B-NP'
p688
g4
tp689
a(S'remission.'
p690
S'remission.'
p691
S'NN'
p692
S'I-NP'
p693
g4
tp694
a(S'The'
p695
S'The'
p696
S'DT'
p697
S'B-NP'
p698
g4
tp699
a(S'secondary'
p700
S'secondary'
p701
S'JJ'
p702
S'I-NP'
p703
g4
tp704
a(S'outcome'
p705
S'outcome'
p706
S'NN'
p707
S'I-NP'
p708
g4
tp709
a(S'is'
p710
S'be'
p711
S'VBZ'
p712
S'B-VP'
p713
g4
tp714
a(S'participants'
p715
S'participant'
p716
S'NNS'
p717
S'B-NP'
p718
g4
tp719
a(S"'"
p720
g720
S'POS'
p721
S'B-NP'
p722
g4
tp723
a(S'perception'
p724
S'perception'
p725
S'NN'
p726
S'I-NP'
p727
g4
tp728
a(S'of'
p729
S'of'
p730
S'IN'
p731
S'B-PP'
p732
g4
tp733
a(S'improvement'
p734
S'improvement'
p735
S'NN'
p736
S'B-NP'
p737
g4
tp738
a(S'in'
p739
S'in'
p740
S'IN'
p741
S'B-PP'
p742
g4
tp743
a(S'low'
p744
S'low'
p745
S'JJ'
p746
S'B-NP'
p747
g4
tp748
a(S'back'
p749
S'back'
p750
S'JJ'
p751
S'I-NP'
p752
g4
tp753
a(S'symptoms'
p754
S'symptom'
p755
S'NNS'
p756
S'I-NP'
p757
g4
tp758
a(g123
g123
g123
g4
g4
tp759
a(S'RESULTS'
p760
S'RESULTS'
p761
S'NNS'
p762
S'B-NP'
p763
g4
tp764
a(S'Of'
p765
S'Of'
p766
S'IN'
p767
S'B-PP'
p768
g4
tp769
a(S'the'
p770
S'the'
p771
S'DT'
p772
S'B-NP'
p773
g4
tp774
a(S'681'
p775
S'681'
p776
S'CD'
p777
S'I-NP'
p778
g4
tp779
a(S'patients'
p780
S'patient'
p781
S'NNS'
p782
S'I-NP'
p783
g4
tp784
a(g563
g563
g563
g4
g4
tp785
a(S'610'
p786
S'610'
p787
S'CD'
p788
S'B-NP'
p789
g4
tp790
a(S'('
p791
g791
g791
g4
g4
tp792
a(S'89.6'
p793
S'89.6'
p794
S'CD'
p795
S'B-NP'
p796
g4
tp797
a(S'%'
p798
g798
S'NN'
p799
S'I-NP'
p800
g4
tp801
a(S')'
p802
g802
g802
g4
g4
tp803
a(S'were'
p804
S'be'
p805
S'VBD'
p806
S'B-VP'
p807
g4
tp808
a(S'followed'
p809
S'follow'
p810
S'VBN'
p811
S'I-VP'
p812
g4
tp813
a(S'through'
p814
S'through'
p815
S'IN'
p816
S'B-PP'
p817
g4
tp818
a(S'18'
p819
S'18'
p820
S'CD'
p821
S'B-NP'
p822
g4
tp823
a(S'months.'
p824
S'months.'
p825
S'NNS'
p826
S'I-NP'
p827
g4
tp828
a(S'Among'
p829
S'Among'
p830
S'IN'
p831
S'B-PP'
p832
g4
tp833
a(S'participants'
p834
S'participant'
p835
S'NNS'
p836
S'B-NP'
p837
g4
tp838
a(S'not'
p839
S'not'
p840
S'RB'
p841
S'B-VP'
p842
g4
tp843
a(S'assigned'
p844
S'assign'
p845
S'VBN'
p846
S'I-VP'
p847
g4
tp848
a(S'to'
p849
S'to'
p850
S'TO'
p851
S'I-VP'
p852
g4
tp853
a(S'receive'
p854
S'receive'
p855
S'VB'
p856
S'I-VP'
p857
g4
tp858
a(S'physical'
p859
S'physical'
p860
S'JJ'
p861
S'B-NP'
p862
g4
tp863
a(S'therapy'
p864
S'therapy'
p865
S'NN'
p866
S'I-NP'
p867
g4
tp868
a(S'or'
p869
S'or'
p870
S'CC'
p871
S'I-NP'
p872
g4
tp873
a(S'modalities'
p874
S'modality'
p875
S'NNS'
p876
S'I-NP'
p877
g4
tp878
a(g563
g563
g563
g4
g4
tp879
a(S'the'
p880
S'the'
p881
S'DT'
p882
S'B-NP'
p883
g4
tp884
a(S'estimated'
p885
S'estimate'
p886
S'VBN'
p887
S'I-NP'
p888
g4
tp889
a(S'improvements'
p890
S'improvement'
p891
S'NNS'
p892
S'I-NP'
p893
g4
tp894
a(S'in'
p895
S'in'
p896
S'IN'
p897
S'B-PP'
p898
g4
tp899
a(S'pain'
p900
S'pain'
p901
S'NN'
p902
S'B-NP'
p903
g4
tp904
a(S'and'
p905
S'and'
p906
S'CC'
p907
S'I-NP'
p908
g4
tp909
a(S'disability'
p910
S'disability'
p911
S'NN'
p912
S'I-NP'
p913
g4
tp914
a(S'and'
p915
S'and'
p916
S'CC'
p917
g4
g4
tp918
a(S'18-month'
p919
S'18-month'
p920
S'JJ'
p921
S'B-NP'
p922
g4
tp923
a(S'risk'
p924
S'risk'
p925
S'NN'
p926
S'I-NP'
p927
g4
tp928
a(S'of'
p929
S'of'
p930
S'IN'
p931
S'B-PP'
p932
g4
tp933
a(S'complete'
p934
S'complete'
p935
S'JJ'
p936
S'B-NP'
p937
g4
tp938
a(S'remission'
p939
S'remission'
p940
S'NN'
p941
S'I-NP'
p942
g4
tp943
a(S'were'
p944
S'be'
p945
S'VBD'
p946
S'B-VP'
p947
g4
tp948
a(g504
g504
S'DT'
p949
S'B-NP'
p950
g4
tp951
a(S'little'
p952
S'little'
p953
S'RB'
p954
S'I-NP'
p955
g4
tp956
a(S'greater'
p957
S'great'
p958
S'JJR'
p959
S'B-ADJP'
p960
g4
tp961
a(S'in'
p962
S'in'
p963
S'IN'
p964
S'B-PP'
p965
g4
tp966
a(S'the'
p967
S'the'
p968
S'DT'
p969
S'B-NP'
p970
g4
tp971
a(S'chiropractic'
p972
S'chiropractic'
p973
S'JJ'
p974
S'I-NP'
p975
g4
tp976
a(S'group'
p977
S'group'
p978
S'NN'
p979
S'I-NP'
p980
g4
tp981
a(S'than'
p982
S'than'
p983
S'IN'
p984
S'B-PP'
p985
g4
tp986
a(S'in'
p987
S'in'
p988
S'IN'
p989
S'B-PP'
p990
g4
tp991
a(S'the'
p992
S'the'
p993
S'DT'
p994
S'B-NP'
p995
g4
tp996
a(S'medical'
p997
S'medical'
p998
S'JJ'
p999
S'I-NP'
p1000
g4
tp1001
a(S'group'
p1002
S'group'
p1003
S'NN'
p1004
S'I-NP'
p1005
g4
tp1006
a(g791
g791
g791
g4
g4
tp1007
a(S'adjusted'
p1008
S'adjust'
p1009
S'VBN'
p1010
S'B-NP'
p1011
g4
tp1012
a(S'RR'
p1013
S'RR'
p1014
S'NN'
p1015
S'I-NP'
p1016
g4
tp1017
a(S'of'
p1018
S'of'
p1019
S'IN'
p1020
S'B-PP'
p1021
g4
tp1022
a(S'remission'
p1023
S'remission'
p1024
S'NN'
p1025
S'B-NP'
p1026
g4
tp1027
a(S'='
p1028
g1028
S'SYM'
p1029
S'B-VP'
p1030
g4
tp1031
a(S'1.29'
p1032
S'1.29'
p1033
S'CD'
p1034
S'B-NP'
p1035
g4
tp1036
a(S';'
p1037
g1037
g71
g4
g4
tp1038
a(S'95'
p1039
S'95'
p1040
S'CD'
p1041
S'B-NP'
p1042
g4
tp1043
a(g798
g798
S'NN'
p1044
S'I-NP'
p1045
g4
tp1046
a(S'CI'
p1047
S'CI'
p1048
S'NN'
p1049
S'I-NP'
p1050
g4
tp1051
a(g1028
g1028
S'SYM'
p1052
S'B-VP'
p1053
g4
tp1054
a(S'0.80-2.07'
p1055
S'0.80-2.07'
p1056
S'CD'
p1057
S'B-NP'
p1058
g4
tp1059
a(g802
g802
g802
g4
g4
tp1060
a(g123
g123
g123
g4
g4
tp1061
a(S'Among'
p1062
S'Among'
p1063
S'IN'
p1064
S'B-PP'
p1065
g4
tp1066
a(S'participants'
p1067
S'participant'
p1068
S'NNS'
p1069
S'B-NP'
p1070
g4
tp1071
a(S'assigned'
p1072
S'assign'
p1073
S'VBN'
p1074
S'B-VP'
p1075
g4
tp1076
a(S'to'
p1077
S'to'
p1078
S'TO'
p1079
S'B-PP'
p1080
g4
tp1081
a(S'medical'
p1082
S'medical'
p1083
S'JJ'
p1084
S'B-NP'
p1085
g4
tp1086
a(S'care'
p1087
S'care'
p1088
S'NN'
p1089
S'I-NP'
p1090
g4
tp1091
a(g563
g563
g563
g4
g4
tp1092
a(S'mean'
p1093
S'mean'
p1094
S'JJ'
p1095
S'B-NP'
p1096
g4
tp1097
a(S'changes'
p1098
S'change'
p1099
S'NNS'
p1100
S'I-NP'
p1101
g4
tp1102
a(S'in'
p1103
S'in'
p1104
S'IN'
p1105
S'B-PP'
p1106
g4
tp1107
a(S'pain'
p1108
S'pain'
p1109
S'NN'
p1110
S'B-NP'
p1111
g4
tp1112
a(S'and'
p1113
S'and'
p1114
S'CC'
p1115
S'I-NP'
p1116
g4
tp1117
a(S'disability'
p1118
S'disability'
p1119
S'NN'
p1120
S'I-NP'
p1121
g4
tp1122
a(S'and'
p1123
S'and'
p1124
S'CC'
p1125
S'I-NP'
p1126
g4
tp1127
a(S'risk'
p1128
S'risk'
p1129
S'NN'
p1130
S'I-NP'
p1131
g4
tp1132
a(S'of'
p1133
S'of'
p1134
S'IN'
p1135
S'B-PP'
p1136
g4
tp1137
a(S'remission'
p1138
S'remission'
p1139
S'NN'
p1140
S'B-NP'
p1141
g4
tp1142
a(S'were'
p1143
S'be'
p1144
S'VBD'
p1145
S'B-VP'
p1146
g4
tp1147
a(S'larger'
p1148
S'large'
p1149
S'JJR'
p1150
S'B-ADJP'
p1151
g4
tp1152
a(S'in'
p1153
S'in'
p1154
S'IN'
p1155
S'B-PP'
p1156
g4
tp1157
a(S'patients'
p1158
S'patient'
p1159
S'NNS'
p1160
S'B-NP'
p1161
g4
tp1162
a(S'assigned'
p1163
S'assign'
p1164
S'VBN'
p1165
S'B-VP'
p1166
g4
tp1167
a(S'to'
p1168
S'to'
p1169
S'TO'
p1170
S'I-VP'
p1171
g4
tp1172
a(S'receive'
p1173
S'receive'
p1174
S'VB'
p1175
S'I-VP'
p1176
g4
tp1177
a(S'physical'
p1178
S'physical'
p1179
S'JJ'
p1180
S'B-NP'
p1181
g4
tp1182
a(S'therapy'
p1183
S'therapy'
p1184
S'NN'
p1185
S'I-NP'
p1186
g4
tp1187
a(g791
g791
g791
g4
g4
tp1188
a(S'adjusted'
p1189
S'adjust'
p1190
S'VBN'
p1191
S'B-NP'
p1192
g4
tp1193
a(S'RR'
p1194
S'RR'
p1195
S'NN'
p1196
S'I-NP'
p1197
g4
tp1198
a(g1028
g1028
S'SYM'
p1199
S'B-VP'
p1200
g4
tp1201
a(S'1.69'
p1202
S'1.69'
p1203
S'CD'
p1204
S'B-NP'
p1205
g4
tp1206
a(g1037
g1037
g71
g4
g4
tp1207
a(S'95'
p1208
S'95'
p1209
S'CD'
p1210
S'B-NP'
p1211
g4
tp1212
a(g798
g798
S'NN'
p1213
S'I-NP'
p1214
g4
tp1215
a(S'CI'
p1216
S'CI'
p1217
S'NN'
p1218
S'I-NP'
p1219
g4
tp1220
a(g1028
g1028
S'SYM'
p1221
S'B-VP'
p1222
g4
tp1223
a(S'1.08-2.66'
p1224
S'1.08-2.66'
p1225
S'CD'
p1226
S'B-NP'
p1227
g4
tp1228
a(g802
g802
g802
g4
g4
tp1229
a(g123
g123
g123
g4
g4
tp1230
a(S'Among'
p1231
S'Among'
p1232
S'IN'
p1233
S'B-PP'
p1234
g4
tp1235
a(S'those'
p1236
S'those'
p1237
S'DT'
p1238
S'B-NP'
p1239
g4
tp1240
a(S'assigned'
p1241
S'assign'
p1242
S'VBN'
p1243
S'B-VP'
p1244
g4
tp1245
a(S'to'
p1246
S'to'
p1247
S'TO'
p1248
S'B-PP'
p1249
g4
tp1250
a(S'chiropractic'
p1251
S'chiropractic'
p1252
S'JJ'
p1253
S'B-NP'
p1254
g4
tp1255
a(S'care'
p1256
S'care'
p1257
S'NN'
p1258
S'I-NP'
p1259
g4
tp1260
a(g563
g563
g563
g4
g4
tp1261
a(S'however'
p1262
S'however'
p1263
S'RB'
p1264
S'B-ADVP'
p1265
g4
tp1266
a(g563
g563
g563
g4
g4
tp1267
a(S'assignment'
p1268
S'assignment'
p1269
S'NN'
p1270
S'B-NP'
p1271
g4
tp1272
a(S'to'
p1273
S'to'
p1274
S'TO'
p1275
S'B-PP'
p1276
g4
tp1277
a(S'methods'
p1278
S'method'
p1279
S'NNS'
p1280
S'B-NP'
p1281
g4
tp1282
a(S'was'
p1283
S'be'
p1284
S'VBD'
p1285
S'B-VP'
p1286
g4
tp1287
a(S'not'
p1288
S'not'
p1289
S'RB'
p1290
S'I-VP'
p1291
g4
tp1292
a(S'associated'
p1293
S'associate'
p1294
S'VBN'
p1295
S'I-VP'
p1296
g4
tp1297
a(S'with'
p1298
S'with'
p1299
S'IN'
p1300
S'B-PP'
p1301
g4
tp1302
a(S'improvement'
p1303
S'improvement'
p1304
S'NN'
p1305
S'B-NP'
p1306
g4
tp1307
a(S'or'
p1308
S'or'
p1309
S'CC'
p1310
S'I-NP'
p1311
g4
tp1312
a(S'remission'
p1313
S'remission'
p1314
S'NN'
p1315
S'I-NP'
p1316
g4
tp1317
a(g791
g791
g791
g4
g4
tp1318
a(S'adjusted'
p1319
S'adjust'
p1320
S'VBN'
p1321
S'B-NP'
p1322
g4
tp1323
a(S'RR'
p1324
S'RR'
p1325
S'NN'
p1326
S'I-NP'
p1327
g4
tp1328
a(g1028
g1028
S'SYM'
p1329
S'B-VP'
p1330
g4
tp1331
a(S'0.98'
p1332
S'0.98'
p1333
S'CD'
p1334
S'B-NP'
p1335
g4
tp1336
a(g1037
g1037
g71
g4
g4
tp1337
a(S'95'
p1338
S'95'
p1339
S'CD'
p1340
S'B-NP'
p1341
g4
tp1342
a(g798
g798
S'NN'
p1343
S'I-NP'
p1344
g4
tp1345
a(S'CI'
p1346
S'CI'
p1347
S'NN'
p1348
S'I-NP'
p1349
g4
tp1350
a(g1028
g1028
S'SYM'
p1351
S'B-VP'
p1352
g4
tp1353
a(S'0.62-1.55'
p1354
S'0.62-1.55'
p1355
S'CD'
p1356
S'B-NP'
p1357
g4
tp1358
a(g802
g802
g802
g4
g4
tp1359
a(g123
g123
g123
g4
g4
tp1360
a(S'Compared'
p1361
S'Compare'
p1362
S'VBN'
p1363
S'B-VP'
p1364
g4
tp1365
a(S'with'
p1366
S'with'
p1367
S'IN'
p1368
S'B-PP'
p1369
g4
tp1370
a(S'medical'
p1371
S'medical'
p1372
S'JJ'
p1373
S'B-NP'
p1374
g4
tp1375
a(S'care'
p1376
S'care'
p1377
S'NN'
p1378
S'I-NP'
p1379
g4
tp1380
a(S'only'
p1381
S'only'
p1382
S'JJ'
p1383
S'B-NP'
p1384
g4
tp1385
a(S'patients'
p1386
S'patient'
p1387
S'NNS'
p1388
S'I-NP'
p1389
g4
tp1390
a(g563
g563
g563
g4
g4
tp1391
a(S'chiropractic'
p1392
S'chiropractic'
p1393
S'JJ'
p1394
S'B-NP'
p1395
g4
tp1396
a(S'and'
p1397
S'and'
p1398
S'CC'
p1399
S'I-NP'
p1400
g4
tp1401
a(S'physical'
p1402
S'physical'
p1403
S'JJ'
p1404
S'I-NP'
p1405
g4
tp1406
a(S'therapy'
p1407
S'therapy'
p1408
S'NN'
p1409
S'I-NP'
p1410
g4
tp1411
a(S'patients'
p1412
S'patient'
p1413
S'NNS'
p1414
S'I-NP'
p1415
g4
tp1416
a(S'were'
p1417
S'be'
p1418
S'VBD'
p1419
S'B-VP'
p1420
g4
tp1421
a(S'much'
p1422
S'much'
p1423
S'RB'
p1424
S'B-ADJP'
p1425
g4
tp1426
a(S'more'
p1427
S'more'
p1428
S'RBR'
p1429
S'I-ADJP'
p1430
g4
tp1431
a(S'likely'
p1432
S'likely'
p1433
S'JJ'
p1434
S'I-ADJP'
p1435
g4
tp1436
a(S'to'
p1437
S'to'
p1438
S'TO'
p1439
S'B-VP'
p1440
g4
tp1441
a(S'perceive'
p1442
S'perceive'
p1443
S'VB'
p1444
S'I-VP'
p1445
g4
tp1446
a(S'improvement'
p1447
S'improvement'
p1448
S'NN'
p1449
S'B-NP'
p1450
g4
tp1451
a(S'in'
p1452
S'in'
p1453
S'IN'
p1454
S'B-PP'
p1455
g4
tp1456
a(S'their'
p1457
S'their'
p1458
S'PRP$'
p1459
S'B-NP'
p1460
g4
tp1461
a(S'low'
p1462
S'low'
p1463
S'JJ'
p1464
S'I-NP'
p1465
g4
tp1466
a(S'back'
p1467
S'back'
p1468
S'JJ'
p1469
S'I-NP'
p1470
g4
tp1471
a(S'symptoms.'
p1472
S'symptoms.'
p1473
S'NN'
p1474
S'I-NP'
p1475
g4
tp1476
a(S'However'
p1477
S'However'
p1478
S'RB'
p1479
S'B-ADVP'
p1480
g4
tp1481
a(g563
g563
g563
g4
g4
tp1482
a(S'less'
p1483
S'less'
p1484
S'JJR'
p1485
S'B-NP'
p1486
g4
tp1487
a(S'than'
p1488
S'than'
p1489
S'IN'
p1490
S'I-NP'
p1491
g4
tp1492
a(S'20'
p1493
S'20'
p1494
S'CD'
p1495
S'I-NP'
p1496
g4
tp1497
a(g798
g798
S'NN'
p1498
S'I-NP'
p1499
g4
tp1500
a(S'of'
p1501
S'of'
p1502
S'IN'
p1503
S'B-PP'
p1504
g4
tp1505
a(S'all'
p1506
S'all'
p1507
S'DT'
p1508
S'B-NP'
p1509
g4
tp1510
a(S'patients'
p1511
S'patient'
p1512
S'NNS'
p1513
S'I-NP'
p1514
g4
tp1515
a(S'were'
p1516
S'be'
p1517
S'VBD'
p1518
S'B-VP'
p1519
g4
tp1520
a(S'pain-free'
p1521
S'pain-free'
p1522
S'JJ'
p1523
S'B-ADJP'
p1524
g4
tp1525
a(S'at'
p1526
S'at'
p1527
S'IN'
p1528
S'B-PP'
p1529
g4
tp1530
a(S'18'
p1531
S'18'
p1532
S'CD'
p1533
S'B-NP'
p1534
g4
tp1535
a(S'months'
p1536
S'month'
p1537
S'NNS'
p1538
S'I-NP'
p1539
g4
tp1540
a(g123
g123
g123
g4
g4
tp1541
a(S'CONCLUSIONS'
p1542
S'CONCLUSIONS'
p1543
S'NNS'
p1544
S'B-NP'
p1545
g4
tp1546
a(S'Differences'
p1547
S'Difference'
p1548
S'NNS'
p1549
S'I-NP'
p1550
g4
tp1551
a(S'in'
p1552
S'in'
p1553
S'IN'
p1554
S'B-PP'
p1555
g4
tp1556
a(S'outcomes'
p1557
S'outcome'
p1558
S'NNS'
p1559
S'B-NP'
p1560
g4
tp1561
a(S'between'
p1562
S'between'
p1563
S'IN'
p1564
S'B-PP'
p1565
g4
tp1566
a(S'medical'
p1567
S'medical'
p1568
S'JJ'
p1569
S'B-NP'
p1570
g4
tp1571
a(S'and'
p1572
S'and'
p1573
S'CC'
p1574
S'I-NP'
p1575
g4
tp1576
a(S'chiropractic'
p1577
S'chiropractic'
p1578
S'JJ'
p1579
S'I-NP'
p1580
g4
tp1581
a(S'care'
p1582
S'care'
p1583
S'NN'
p1584
S'I-NP'
p1585
g4
tp1586
a(S'without'
p1587
S'without'
p1588
S'IN'
p1589
S'B-PP'
p1590
g4
tp1591
a(S'physical'
p1592
S'physical'
p1593
S'JJ'
p1594
S'B-NP'
p1595
g4
tp1596
a(S'therapy'
p1597
S'therapy'
p1598
S'NN'
p1599
S'I-NP'
p1600
g4
tp1601
a(S'or'
p1602
S'or'
p1603
S'CC'
p1604
S'I-NP'
p1605
g4
tp1606
a(S'modalities'
p1607
S'modality'
p1608
S'NNS'
p1609
S'I-NP'
p1610
g4
tp1611
a(S'are'
p1612
S'be'
p1613
S'VBP'
p1614
S'B-VP'
p1615
g4
tp1616
a(S'not'
p1617
S'not'
p1618
S'RB'
p1619
g4
g4
tp1620
a(S'clinically'
p1621
S'clinically'
p1622
S'RB'
p1623
S'B-ADJP'
p1624
g4
tp1625
a(S'meaningful'
p1626
S'meaningful'
p1627
S'JJ'
p1628
S'I-ADJP'
p1629
g4
tp1630
a(g563
g563
g563
g4
g4
tp1631
a(S'although'
p1632
S'although'
p1633
S'IN'
p1634
S'B-SBAR'
p1635
g4
tp1636
a(S'chiropractic'
p1637
S'chiropractic'
p1638
S'NN'
p1639
S'B-NP'
p1640
g4
tp1641
a(S'may'
p1642
S'may'
p1643
S'MD'
p1644
S'B-VP'
p1645
g4
tp1646
a(S'result'
p1647
S'result'
p1648
S'VB'
p1649
S'I-VP'
p1650
g4
tp1651
a(S'in'
p1652
S'in'
p1653
S'IN'
p1654
S'B-PP'
p1655
g4
tp1656
a(g504
g504
S'DT'
p1657
S'B-NP'
p1658
g4
tp1659
a(S'greater'
p1660
S'great'
p1661
S'JJR'
p1662
S'I-NP'
p1663
g4
tp1664
a(S'likelihood'
p1665
S'likelihood'
p1666
S'NN'
p1667
S'I-NP'
p1668
g4
tp1669
a(S'of'
p1670
S'of'
p1671
S'IN'
p1672
S'B-PP'
p1673
g4
tp1674
a(S'perceived'
p1675
S'perceive'
p1676
S'VBN'
p1677
S'B-NP'
p1678
g4
tp1679
a(S'improvement'
p1680
S'improvement'
p1681
S'NN'
p1682
S'I-NP'
p1683
g4
tp1684
a(g563
g563
g563
g4
g4
tp1685
a(S'perhaps'
p1686
S'perhaps'
p1687
S'RB'
p1688
S'B-ADVP'
p1689
g4
tp1690
a(S'reflecting'
p1691
S'reflect'
p1692
S'VBG'
p1693
S'B-VP'
p1694
g4
tp1695
a(S'satisfaction'
p1696
S'satisfaction'
p1697
S'NN'
p1698
S'B-NP'
p1699
g4
tp1700
a(S'or'
p1701
S'or'
p1702
S'CC'
p1703
S'I-NP'
p1704
g4
tp1705
a(S'lack'
p1706
S'lack'
p1707
S'NN'
p1708
S'I-NP'
p1709
g4
tp1710
a(S'of'
p1711
S'of'
p1712
S'IN'
p1713
S'B-PP'
p1714
g4
tp1715
a(S'blinding.'
p1716
S'blinding.'
p1717
S'JJ'
p1718
S'B-NP'
p1719
g4
tp1720
a(S'Physical'
p1721
S'Physical'
p1722
S'NNP'
p1723
S'I-NP'
p1724
g4
tp1725
a(S'therapy'
p1726
S'therapy'
p1727
S'NN'
p1728
S'I-NP'
p1729
g4
tp1730
a(S'may'
p1731
S'may'
p1732
S'MD'
p1733
S'B-VP'
p1734
g4
tp1735
a(S'be'
p1736
S'be'
p1737
S'VB'
p1738
S'I-VP'
p1739
g4
tp1740
a(S'more'
p1741
S'more'
p1742
S'RBR'
p1743
S'B-ADJP'
p1744
g4
tp1745
a(S'effective'
p1746
S'effective'
p1747
S'JJ'
p1748
S'I-ADJP'
p1749
g4
tp1750
a(S'than'
p1751
S'than'
p1752
S'IN'
p1753
S'B-PP'
p1754
g4
tp1755
a(S'medical'
p1756
S'medical'
p1757
S'JJ'
p1758
S'B-NP'
p1759
g4
tp1760
a(S'care'
p1761
S'care'
p1762
S'NN'
p1763
S'I-NP'
p1764
g4
tp1765
a(S'alone'
p1766
S'alone'
p1767
S'RB'
p1768
S'B-ADVP'
p1769
g4
tp1770
a(S'for'
p1771
S'for'
p1772
S'IN'
p1773
S'B-PP'
p1774
g4
tp1775
a(S'some'
p1776
S'some'
p1777
S'DT'
p1778
S'B-NP'
p1779
g4
tp1780
a(S'patients'
p1781
S'patient'
p1782
S'NNS'
p1783
S'I-NP'
p1784
g4
tp1785
a(g563
g563
g563
g4
g4
tp1786
a(S'while'
p1787
S'while'
p1788
S'IN'
p1789
S'B-SBAR'
p1790
g4
tp1791
a(S'physical'
p1792
S'physical'
p1793
S'JJ'
p1794
S'B-NP'
p1795
g4
tp1796
a(S'modalities'
p1797
S'modality'
p1798
S'NNS'
p1799
S'I-NP'
p1800
g4
tp1801
a(S'appear'
p1802
S'appear'
p1803
S'VBP'
p1804
S'B-VP'
p1805
g4
tp1806
a(S'to'
p1807
S'to'
p1808
S'TO'
p1809
S'I-VP'
p1810
g4
tp1811
a(S'have'
p1812
S'have'
p1813
S'VB'
p1814
S'I-VP'
p1815
g4
tp1816
a(S'no'
p1817
S'no'
p1818
S'DT'
p1819
S'B-NP'
p1820
g4
tp1821
a(S'benefit'
p1822
S'benefit'
p1823
S'NN'
p1824
S'I-NP'
p1825
g4
tp1826
a(S'in'
p1827
S'in'
p1828
S'IN'
p1829
S'B-PP'
p1830
g4
tp1831
a(S'chiropractic'
p1832
S'chiropractic'
p1833
S'JJ'
p1834
S'B-NP'
p1835
g4
tp1836
a(S'care'
p1837
S'care'
p1838
S'NN'
p1839
S'I-NP'
p1840
g4
tp1841
a(g123
g123
g123
g4
g4
tp1842
a.