(lp0
(S'Randomized'
p1
S'Randomize'
p2
S'VBN'
p3
S'B-NP'
p4
S'O'
p5
tp6
a(S'study'
p7
S'study'
p8
S'NN'
p9
S'I-NP'
p10
g5
tp11
a(S'of'
p12
S'of'
p13
S'IN'
p14
S'B-PP'
p15
g5
tp16
a(S'continuous'
p17
S'continuous'
p18
S'JJ'
p19
S'B-NP'
p20
g5
tp21
a(S'infusion'
p22
S'infusion'
p23
S'NN'
p24
S'I-NP'
p25
g5
tp26
a(S'fluorouracil'
p27
S'fluorouracil'
p28
S'NN'
p29
S'I-NP'
p30
g5
tp31
a(S'versus'
p32
S'versus'
p33
S'IN'
p34
S'B-PP'
p35
g5
tp36
a(S'fluorouracil'
p37
S'fluorouracil'
p38
S'NN'
p39
S'B-NP'
p40
g5
tp41
a(S'plus'
p42
S'plus'
p43
S'CC'
p44
g5
g5
tp45
a(S'cisplatin'
p46
S'cisplatin'
p47
S'NN'
p48
S'B-NP'
p49
g5
tp50
a(S'in'
p51
S'in'
p52
S'IN'
p53
S'B-PP'
p54
g5
tp55
a(S'patients'
p56
S'patient'
p57
S'NNS'
p58
S'B-NP'
p59
g5
tp60
a(S'with'
p61
S'with'
p62
S'IN'
p63
S'B-PP'
p64
g5
tp65
a(S'metastatic'
p66
S'metastatic'
p67
S'JJ'
p68
S'B-NP'
p69
g5
tp70
a(S'colorectal'
p71
S'colorectal'
p72
S'JJ'
p73
S'I-NP'
p74
g5
tp75
a(S'cancer'
p76
S'cancer'
p77
S'NN'
p78
S'I-NP'
p79
g5
tp80
a(S'.'
p81
g81
g81
g5
g5
tp82
a(S'One'
p83
S'One'
p84
S'CD'
p85
S'B-NP'
p86
g5
tp87
a(S'hundred'
p88
S'hundred'
p89
S'CD'
p90
S'I-NP'
p91
g5
tp92
a(S'twenty-two'
p93
S'twenty-two'
p94
S'CD'
p95
S'I-NP'
p96
g5
tp97
a(S'chemotherapy-naive'
p98
S'chemotherapy-naive'
p99
S'JJ'
p100
S'I-NP'
p101
g5
tp102
a(S'patients'
p103
S'patient'
p104
S'NNS'
p105
S'I-NP'
p106
g5
tp107
a(S'with'
p108
S'with'
p109
S'IN'
p110
S'B-PP'
p111
g5
tp112
a(S'histologically'
p113
S'histologically'
p114
S'RB'
p115
S'B-NP'
p116
g5
tp117
a(S'confirmed'
p118
S'confirm'
p119
S'VBN'
p120
S'I-NP'
p121
g5
tp122
a(S'colorectal'
p123
S'colorectal'
p124
S'JJ'
p125
S'I-NP'
p126
g5
tp127
a(S'adenocarcinoma'
p128
S'adenocarcinoma'
p129
S'NN'
p130
S'I-NP'
p131
g5
tp132
a(S'were'
p133
S'be'
p134
S'VBD'
p135
S'B-VP'
p136
g5
tp137
a(S'entered'
p138
S'enter'
p139
S'VBN'
p140
S'I-VP'
p141
g5
tp142
a(S'into'
p143
S'into'
p144
S'IN'
p145
S'B-PP'
p146
g5
tp147
a(S'a'
p148
g148
S'DT'
p149
S'B-NP'
p150
g5
tp151
a(S'randomized'
p152
S'randomize'
p153
S'VBN'
p154
S'I-NP'
p155
g5
tp156
a(S'trial'
p157
S'trial'
p158
S'NN'
p159
S'I-NP'
p160
g5
tp161
a(S'comparing'
p162
S'compare'
p163
S'VBG'
p164
S'B-VP'
p165
g5
tp166
a(S'infusional'
p167
S'infusional'
p168
S'JJ'
p169
S'B-NP'
p170
g5
tp171
a(S'fluorouracil'
p172
S'fluorouracil'
p173
S'NN'
p174
S'I-NP'
p175
g5
tp176
a(S'('
p177
g177
g177
g5
g5
tp178
a(S'FU'
p179
S'FU'
p180
S'NN'
p181
S'B-NP'
p182
g5
tp183
a(S')'
p184
g184
g184
g5
g5
tp185
a(S'versus'
p186
S'versus'
p187
S'CC'
p188
g5
g5
tp189
a(S'cisplatin'
p190
S'cisplatin'
p191
S'NN'
p192
S'B-NP'
p193
g5
tp194
a(g177
g177
g177
g5
g5
tp195
a(S'CDDP'
p196
S'CDDP'
p197
S'NN'
p198
S'B-NP'
p199
S'B-protein'
p200
tp201
a(g184
g184
g184
g5
g5
tp202
a(S'and'
p203
S'and'
p204
S'CC'
p205
g5
g5
tp206
a(S'FU.'
p207
S'FU.'
p208
S'NNP'
p209
S'B-NP'
p210
g5
tp211
a(S'In'
p212
S'In'
p213
S'IN'
p214
S'B-PP'
p215
g5
tp216
a(S'both'
p217
S'both'
p218
S'DT'
p219
S'B-NP'
p220
g5
tp221
a(S'groups'
p222
S'group'
p223
S'NNS'
p224
S'I-NP'
p225
g5
tp226
a(S','
p227
g227
g227
g5
g5
tp228
a(S'patients'
p229
S'patient'
p230
S'NNS'
p231
S'B-NP'
p232
g5
tp233
a(S'received'
p234
S'receive'
p235
S'VBD'
p236
S'B-VP'
p237
g5
tp238
a(S'continuous'
p239
S'continuous'
p240
S'JJ'
p241
S'B-NP'
p242
g5
tp243
a(S'infusion'
p244
S'infusion'
p245
S'NN'
p246
S'I-NP'
p247
g5
tp248
a(S'FU'
p249
S'FU'
p250
S'NN'
p251
S'I-NP'
p252
g5
tp253
a(S'1'
p254
g254
S'CD'
p255
S'I-NP'
p256
g5
tp257
a(g227
g227
g227
S'I-NP'
p258
g5
tp259
a(S'000'
p260
S'000'
p261
S'CD'
p262
S'I-NP'
p263
g5
tp264
a(S'mg/m2/d'
p265
S'mg/m2/d'
p266
S'NN'
p267
S'I-NP'
p268
g5
tp269
a(S'for'
p270
S'for'
p271
S'IN'
p272
S'B-PP'
p273
g5
tp274
a(S'5'
p275
g275
S'CD'
p276
S'B-NP'
p277
g5
tp278
a(S'consecutive'
p279
S'consecutive'
p280
S'JJ'
p281
S'I-NP'
p282
g5
tp283
a(S'days'
p284
S'day'
p285
S'NNS'
p286
S'I-NP'
p287
g5
tp288
a(S'every'
p289
S'every'
p290
S'DT'
p291
S'B-NP'
p292
g5
tp293
a(S'4'
p294
g294
S'CD'
p295
S'I-NP'
p296
g5
tp297
a(S'weeks.'
p298
S'weeks.'
p299
S'NN'
p300
S'I-NP'
p301
g5
tp302
a(S'Patients'
p303
S'Patient'
p304
S'NNS'
p305
S'I-NP'
p306
g5
tp307
a(S'randomized'
p308
S'randomize'
p309
S'VBN'
p310
S'B-VP'
p311
g5
tp312
a(S'to'
p313
S'to'
p314
S'TO'
p315
S'B-PP'
p316
g5
tp317
a(S'CDDP/FU'
p318
S'CDDP/FU'
p319
S'NN'
p320
S'B-NP'
p321
g5
tp322
a(S'also'
p323
S'also'
p324
S'RB'
p325
S'B-ADVP'
p326
g5
tp327
a(S'received'
p328
S'receive'
p329
S'VBD'
p330
S'B-VP'
p331
g5
tp332
a(S'CDDP'
p333
S'CDDP'
p334
S'NN'
p335
S'B-NP'
p336
g5
tp337
a(S'20'
p338
S'20'
p339
S'CD'
p340
S'I-NP'
p341
g5
tp342
a(S'mg/m2'
p343
S'mg/m2'
p344
S'NN'
p345
S'I-NP'
p346
g5
tp347
a(S'intravenous'
p348
S'intravenous'
p349
S'JJ'
p350
S'B-ADJP'
p351
g5
tp352
a(g177
g177
g177
g5
g5
tp353
a(S'IV'
p354
S'IV'
p355
S'CD'
p356
g5
g5
tp357
a(g184
g184
g184
g5
g5
tp358
a(S'bolus'
p359
S'bolus'
p360
S'NN'
p361
S'B-NP'
p362
g5
tp363
a(S'on'
p364
S'on'
p365
S'IN'
p366
S'B-PP'
p367
g5
tp368
a(S'days'
p369
S'day'
p370
S'NNS'
p371
S'B-NP'
p372
g5
tp373
a(g254
g254
S'CD'
p374
S'B-NP'
p375
g5
tp376
a(S'to'
p377
S'to'
p378
S'TO'
p379
S'B-PP'
p380
g5
tp381
a(g275
g275
S'CD'
p382
S'B-NP'
p383
g5
tp384
a(S'of'
p385
S'of'
p386
S'IN'
p387
S'B-PP'
p388
g5
tp389
a(S'each'
p390
S'each'
p391
S'DT'
p392
S'B-NP'
p393
g5
tp394
a(S'cycle.'
p395
S'cycle.'
p396
S'NN'
p397
S'I-NP'
p398
g5
tp399
a(S'Patients'
p400
S'Patient'
p401
S'NNPS'
p402
S'I-NP'
p403
g5
tp404
a(S'were'
p405
S'be'
p406
S'VBD'
p407
S'B-VP'
p408
g5
tp409
a(S'comparable'
p410
S'comparable'
p411
S'JJ'
p412
S'B-ADJP'
p413
g5
tp414
a(S'in'
p415
S'in'
p416
S'IN'
p417
S'B-PP'
p418
g5
tp419
a(S'terms'
p420
S'term'
p421
S'NNS'
p422
S'B-NP'
p423
g5
tp424
a(S'of'
p425
S'of'
p426
S'IN'
p427
S'B-PP'
p428
g5
tp429
a(S'age'
p430
S'age'
p431
S'NN'
p432
S'B-NP'
p433
g5
tp434
a(g227
g227
g227
g5
g5
tp435
a(S'performance'
p436
S'performance'
p437
S'NN'
p438
S'B-NP'
p439
g5
tp440
a(S'status'
p441
S'status'
p442
S'NN'
p443
S'I-NP'
p444
g5
tp445
a(g227
g227
g227
g5
g5
tp446
a(S'baseline'
p447
S'baseline'
p448
S'NN'
p449
S'B-NP'
p450
g5
tp451
a(S'laboratory'
p452
S'laboratory'
p453
S'NN'
p454
S'I-NP'
p455
g5
tp456
a(S'values'
p457
S'value'
p458
S'NNS'
p459
S'I-NP'
p460
g5
tp461
a(g227
g227
g227
g5
g5
tp462
a(S'dominant'
p463
S'dominant'
p464
S'JJ'
p465
S'B-NP'
p466
g5
tp467
a(S'sites'
p468
S'site'
p469
S'NNS'
p470
S'I-NP'
p471
g5
tp472
a(S'of'
p473
S'of'
p474
S'IN'
p475
S'B-PP'
p476
g5
tp477
a(S'measurable'
p478
S'measurable'
p479
S'JJ'
p480
S'B-NP'
p481
g5
tp482
a(S'disease'
p483
S'disease'
p484
S'NN'
p485
S'I-NP'
p486
g5
tp487
a(g227
g227
g227
g5
g5
tp488
a(S'and'
p489
S'and'
p490
S'CC'
p491
g5
g5
tp492
a(S'percent'
p493
S'percent'
p494
S'NN'
p495
S'B-NP'
p496
g5
tp497
a(S'of'
p498
S'of'
p499
S'IN'
p500
S'B-PP'
p501
g5
tp502
a(S'liver'
p503
S'liver'
p504
S'NN'
p505
S'B-NP'
p506
g5
tp507
a(S'involvement.'
p508
S'involvement.'
p509
S'VBP'
p510
S'B-VP'
p511
g5
tp512
a(S'The'
p513
S'The'
p514
S'DT'
p515
S'B-NP'
p516
g5
tp517
a(S'partial'
p518
S'partial'
p519
S'JJ'
p520
S'I-NP'
p521
g5
tp522
a(S'response'
p523
S'response'
p524
S'NN'
p525
S'I-NP'
p526
g5
tp527
a(S'rate'
p528
S'rate'
p529
S'NN'
p530
S'I-NP'
p531
g5
tp532
a(S'was'
p533
S'be'
p534
S'VBD'
p535
S'B-VP'
p536
g5
tp537
a(S'significantly'
p538
S'significantly'
p539
S'RB'
p540
S'B-ADJP'
p541
g5
tp542
a(S'greater'
p543
S'great'
p544
S'JJR'
p545
S'I-ADJP'
p546
g5
tp547
a(S'in'
p548
S'in'
p549
S'IN'
p550
S'B-PP'
p551
g5
tp552
a(S'patients'
p553
S'patient'
p554
S'NNS'
p555
S'B-NP'
p556
g5
tp557
a(S'who'
p558
S'who'
p559
S'WP'
p560
S'B-NP'
p561
g5
tp562
a(S'received'
p563
S'receive'
p564
S'VBD'
p565
S'B-VP'
p566
g5
tp567
a(S'CDDP/FU'
p568
S'CDDP/FU'
p569
S'NN'
p570
S'B-NP'
p571
g5
tp572
a(S'versus'
p573
S'versus'
p574
S'IN'
p575
S'B-PP'
p576
g5
tp577
a(S'FU'
p578
S'FU'
p579
S'NN'
p580
S'B-NP'
p581
g5
tp582
a(S'alone'
p583
S'alone'
p584
S'RB'
p585
S'B-ADVP'
p586
g5
tp587
a(g177
g177
g177
g5
g5
tp588
a(S'25'
p589
S'25'
p590
S'CD'
p591
S'B-NP'
p592
g5
tp593
a(S'%'
p594
g594
S'NN'
p595
S'I-NP'
p596
g5
tp597
a(S'v'
p598
g598
S'IN'
p599
S'B-PP'
p600
g5
tp601
a(S'3'
p602
g602
S'CD'
p603
S'B-NP'
p604
g5
tp605
a(g594
g594
S'NN'
p606
S'I-NP'
p607
g5
tp608
a(g227
g227
g227
g5
g5
tp609
a(S'P'
p610
g610
S'NN'
p611
S'B-NP'
p612
g5
tp613
a(S'='
p614
g614
S'SYM'
p615
S'B-VP'
p616
g5
tp617
a(S'.001'
p618
S'.001'
p619
S'CD'
p620
S'B-NP'
p621
g5
tp622
a(g184
g184
g184
g5
g5
tp623
a(g81
g81
g81
g5
g5
tp624
a(S'Patients'
p625
S'Patient'
p626
S'NNPS'
p627
S'B-NP'
p628
g5
tp629
a(S'who'
p630
S'who'
p631
S'WP'
p632
S'B-NP'
p633
g5
tp634
a(S'received'
p635
S'receive'
p636
S'VBD'
p637
S'B-VP'
p638
g5
tp639
a(S'CDDP/FU'
p640
S'CDDP/FU'
p641
S'NN'
p642
S'B-NP'
p643
g5
tp644
a(S'experienced'
p645
S'experience'
p646
S'VBD'
p647
S'B-VP'
p648
g5
tp649
a(S'significantly'
p650
S'significantly'
p651
S'RB'
p652
S'B-NP'
p653
g5
tp654
a(S'greater'
p655
S'great'
p656
S'JJR'
p657
S'I-NP'
p658
g5
tp659
a(S'toxicity'
p660
S'toxicity'
p661
S'NN'
p662
S'I-NP'
p663
g5
tp664
a(S'compared'
p665
S'compare'
p666
S'VBN'
p667
S'B-PP'
p668
g5
tp669
a(S'with'
p670
S'with'
p671
S'IN'
p672
S'B-PP'
p673
g5
tp674
a(S'FU'
p675
S'FU'
p676
S'NN'
p677
S'B-NP'
p678
g5
tp679
a(S'alone'
p680
S'alone'
p681
S'RB'
p682
S'B-ADVP'
p683
g5
tp684
a(S':'
p685
g685
g685
g5
g5
tp686
a(S'grades'
p687
S'grade'
p688
S'NNS'
p689
S'B-NP'
p690
g5
tp691
a(g602
g602
S'CD'
p692
S'B-NP'
p693
g5
tp694
a(S'and'
p695
S'and'
p696
S'CC'
p697
S'I-NP'
p698
g5
tp699
a(g294
g294
S'CD'
p700
S'I-NP'
p701
g5
tp702
a(S'hematologic'
p703
S'hematologic'
p704
S'JJ'
p705
S'I-NP'
p706
g5
tp707
a(S'toxicity'
p708
S'toxicity'
p709
S'NN'
p710
S'I-NP'
p711
g5
tp712
a(S'occurred'
p713
S'occur'
p714
S'VBD'
p715
S'B-VP'
p716
g5
tp717
a(S'in'
p718
S'in'
p719
S'IN'
p720
S'B-PP'
p721
g5
tp722
a(S'22'
p723
S'22'
p724
S'CD'
p725
S'B-NP'
p726
g5
tp727
a(g594
g594
S'NN'
p728
S'I-NP'
p729
g5
tp730
a(S'and'
p731
S'and'
p732
S'CC'
p733
g5
g5
tp734
a(S'0'
p735
g735
S'CD'
p736
S'B-NP'
p737
g5
tp738
a(g594
g594
S'NN'
p739
S'I-NP'
p740
g5
tp741
a(S'of'
p742
S'of'
p743
S'IN'
p744
S'B-PP'
p745
g5
tp746
a(S'patients'
p747
S'patient'
p748
S'NNS'
p749
S'B-NP'
p750
g5
tp751
a(g227
g227
g227
g5
g5
tp752
a(S'respectively'
p753
S'respectively'
p754
S'RB'
p755
S'B-ADVP'
p756
g5
tp757
a(g177
g177
g177
g5
g5
tp758
a(g610
g610
S'NN'
p759
S'B-NP'
p760
g5
tp761
a(g614
g614
S'SYM'
p762
S'B-VP'
p763
g5
tp764
a(S'.0001'
p765
S'.0001'
p766
S'CD'
p767
S'B-NP'
p768
g5
tp769
a(g184
g184
g184
g5
g5
tp770
a(S';'
p771
g771
g685
g5
g5
tp772
a(S'grades'
p773
S'grade'
p774
S'NNS'
p775
S'B-NP'
p776
g5
tp777
a(S'2'
p778
g778
S'CD'
p779
S'B-NP'
p780
g5
tp781
a(S'to'
p782
S'to'
p783
S'TO'
p784
S'I-NP'
p785
g5
tp786
a(g294
g294
S'CD'
p787
S'I-NP'
p788
g5
tp789
a(S'nausea'
p790
S'nausea'
p791
S'NN'
p792
S'I-NP'
p793
g5
tp794
a(S'and'
p795
S'and'
p796
S'CC'
p797
S'I-NP'
p798
g5
tp799
a(S'vomiting'
p800
S'vomiting'
p801
S'NN'
p802
S'I-NP'
p803
g5
tp804
a(S'occurred'
p805
S'occur'
p806
S'VBD'
p807
S'B-VP'
p808
g5
tp809
a(S'in'
p810
S'in'
p811
S'IN'
p812
S'B-PP'
p813
g5
tp814
a(S'80'
p815
S'80'
p816
S'CD'
p817
S'B-NP'
p818
g5
tp819
a(g594
g594
S'NN'
p820
S'I-NP'
p821
g5
tp822
a(S'and'
p823
S'and'
p824
S'CC'
p825
g5
g5
tp826
a(S'15'
p827
S'15'
p828
S'CD'
p829
S'B-NP'
p830
g5
tp831
a(g594
g594
S'NN'
p832
S'I-NP'
p833
g5
tp834
a(S'of'
p835
S'of'
p836
S'IN'
p837
S'B-PP'
p838
g5
tp839
a(S'patients'
p840
S'patient'
p841
S'NNS'
p842
S'B-NP'
p843
g5
tp844
a(g227
g227
g227
g5
g5
tp845
a(S'respectively'
p846
S'respectively'
p847
S'RB'
p848
S'B-ADVP'
p849
g5
tp850
a(g177
g177
g177
g5
g5
tp851
a(g610
g610
S'NN'
p852
S'B-NP'
p853
g5
tp854
a(g614
g614
S'SYM'
p855
S'B-VP'
p856
g5
tp857
a(S'.0001'
p858
S'.0001'
p859
S'CD'
p860
S'B-NP'
p861
g5
tp862
a(g184
g184
g184
g5
g5
tp863
a(g81
g81
g81
g5
g5
tp864
a(S'There'
p865
S'There'
p866
S'EX'
p867
S'B-NP'
p868
g5
tp869
a(S'were'
p870
S'be'
p871
S'VBD'
p872
S'B-VP'
p873
g5
tp874
a(S'no'
p875
S'no'
p876
S'DT'
p877
S'B-NP'
p878
g5
tp879
a(S'significant'
p880
S'significant'
p881
S'JJ'
p882
S'I-NP'
p883
g5
tp884
a(S'differences'
p885
S'difference'
p886
S'NNS'
p887
S'I-NP'
p888
g5
tp889
a(S'in'
p890
S'in'
p891
S'IN'
p892
S'B-PP'
p893
g5
tp894
a(S'either'
p895
S'either'
p896
S'CC'
p897
g5
g5
tp898
a(S'the'
p899
S'the'
p900
S'DT'
p901
S'B-NP'
p902
g5
tp903
a(S'duration'
p904
S'duration'
p905
S'NN'
p906
S'I-NP'
p907
g5
tp908
a(S'of'
p909
S'of'
p910
S'IN'
p911
S'B-PP'
p912
g5
tp913
a(S'response'
p914
S'response'
p915
S'NN'
p916
S'B-NP'
p917
g5
tp918
a(g177
g177
g177
g5
g5
tp919
a(S'median'
p920
S'median'
p921
S'NN'
p922
S'B-NP'
p923
g5
tp924
a(g227
g227
g227
g5
g5
tp925
a(S'6'
p926
g926
S'CD'
p927
S'B-NP'
p928
g5
tp929
a(S'and'
p930
S'and'
p931
S'CC'
p932
S'I-NP'
p933
g5
tp934
a(S'4.7'
p935
S'4.7'
p936
S'CD'
p937
S'I-NP'
p938
g5
tp939
a(S'months'
p940
S'month'
p941
S'NNS'
p942
S'I-NP'
p943
g5
tp944
a(S'for'
p945
S'for'
p946
S'IN'
p947
S'B-PP'
p948
g5
tp949
a(S'CDDP/FU'
p950
S'CDDP/FU'
p951
S'NN'
p952
S'B-NP'
p953
g5
tp954
a(S'and'
p955
S'and'
p956
S'CC'
p957
S'I-NP'
p958
g5
tp959
a(S'FU'
p960
S'FU'
p961
S'NN'
p962
S'I-NP'
p963
g5
tp964
a(S'groups'
p965
S'group'
p966
S'NNS'
p967
S'I-NP'
p968
g5
tp969
a(g227
g227
g227
g5
g5
tp970
a(S'respectively'
p971
S'respectively'
p972
S'RB'
p973
S'B-ADVP'
p974
g5
tp975
a(g184
g184
g184
g5
g5
tp976
a(S'or'
p977
S'or'
p978
S'CC'
p979
g5
g5
tp980
a(S'survival'
p981
S'survival'
p982
S'NN'
p983
S'B-NP'
p984
g5
tp985
a(g177
g177
g177
g5
g5
tp986
a(S'median'
p987
S'median'
p988
S'NN'
p989
S'B-NP'
p990
g5
tp991
a(S'10'
p992
S'10'
p993
S'CD'
p994
S'I-NP'
p995
g5
tp996
a(g227
g227
g227
g5
g5
tp997
a(S'and'
p998
S'and'
p999
S'CC'
p1000
g5
g5
tp1001
a(S'12'
p1002
S'12'
p1003
S'CD'
p1004
S'B-NP'
p1005
g5
tp1006
a(S'months'
p1007
S'month'
p1008
S'NNS'
p1009
S'I-NP'
p1010
g5
tp1011
a(g227
g227
g227
g5
g5
tp1012
a(S'respectively'
p1013
S'respectively'
p1014
S'RB'
p1015
S'B-ADVP'
p1016
g5
tp1017
a(g184
g184
g184
g5
g5
tp1018
a(g81
g81
g81
g5
g5
tp1019
a(S'Compared'
p1020
S'Compare'
p1021
S'VBN'
p1022
S'B-VP'
p1023
g5
tp1024
a(S'with'
p1025
S'with'
p1026
S'IN'
p1027
S'B-PP'
p1028
g5
tp1029
a(S'infusional'
p1030
S'infusional'
p1031
S'JJ'
p1032
S'B-NP'
p1033
g5
tp1034
a(S'FU'
p1035
S'FU'
p1036
S'NN'
p1037
S'I-NP'
p1038
g5
tp1039
a(S'alone'
p1040
S'alone'
p1041
S'RB'
p1042
S'B-ADVP'
p1043
g5
tp1044
a(g227
g227
g227
g5
g5
tp1045
a(S'CDDP/FU'
p1046
S'CDDP/FU'
p1047
S'NN'
p1048
S'B-NP'
p1049
g5
tp1050
a(S'provided'
p1051
S'provide'
p1052
S'VBD'
p1053
S'B-VP'
p1054
g5
tp1055
a(g148
g148
S'DT'
p1056
S'B-NP'
p1057
g5
tp1058
a(S'significantly'
p1059
S'significantly'
p1060
S'RB'
p1061
S'I-NP'
p1062
g5
tp1063
a(S'greater'
p1064
S'great'
p1065
S'JJR'
p1066
S'I-NP'
p1067
g5
tp1068
a(S'partial'
p1069
S'partial'
p1070
S'JJ'
p1071
S'I-NP'
p1072
g5
tp1073
a(S'response'
p1074
S'response'
p1075
S'NN'
p1076
S'I-NP'
p1077
g5
tp1078
a(S'rate'
p1079
S'rate'
p1080
S'NN'
p1081
S'I-NP'
p1082
g5
tp1083
a(S'with'
p1084
S'with'
p1085
S'IN'
p1086
S'B-PP'
p1087
g5
tp1088
a(S'increased'
p1089
S'increase'
p1090
S'VBN'
p1091
S'B-NP'
p1092
g5
tp1093
a(S'toxicity'
p1094
S'toxicity'
p1095
S'NN'
p1096
S'I-NP'
p1097
g5
tp1098
a(g227
g227
g227
g5
g5
tp1099
a(S'but'
p1100
S'but'
p1101
S'CC'
p1102
g5
g5
tp1103
a(S'it'
p1104
S'it'
p1105
S'PRP'
p1106
S'B-NP'
p1107
g5
tp1108
a(S'did'
p1109
S'do'
p1110
S'VBD'
p1111
S'B-VP'
p1112
g5
tp1113
a(S'not'
p1114
S'not'
p1115
S'RB'
p1116
S'I-VP'
p1117
g5
tp1118
a(S'improve'
p1119
S'improve'
p1120
S'VB'
p1121
S'I-VP'
p1122
g5
tp1123
a(S'overall'
p1124
S'overall'
p1125
S'JJ'
p1126
S'B-NP'
p1127
g5
tp1128
a(S'survival'
p1129
S'survival'
p1130
S'NN'
p1131
S'I-NP'
p1132
g5
tp1133
a(S'in'
p1134
S'in'
p1135
S'IN'
p1136
S'B-PP'
p1137
g5
tp1138
a(S'patients'
p1139
S'patient'
p1140
S'NNS'
p1141
S'B-NP'
p1142
g5
tp1143
a(S'with'
p1144
S'with'
p1145
S'IN'
p1146
S'B-PP'
p1147
g5
tp1148
a(S'advanced'
p1149
S'advance'
p1150
S'VBN'
p1151
S'B-NP'
p1152
g5
tp1153
a(S'colorectal'
p1154
S'colorectal'
p1155
S'JJ'
p1156
S'I-NP'
p1157
g5
tp1158
a(S'carcinoma.'
p1159
S'carcinoma.'
p1160
S'NN'
p1161
S'I-NP'
p1162
g5
tp1163
a(S'Therefore'
p1164
S'Therefore'
p1165
S'RB'
p1166
S'B-ADVP'
p1167
g5
tp1168
a(g227
g227
g227
g5
g5
tp1169
a(S'the'
p1170
S'the'
p1171
S'DT'
p1172
S'B-NP'
p1173
g5
tp1174
a(S'use'
p1175
S'use'
p1176
S'NN'
p1177
S'I-NP'
p1178
g5
tp1179
a(S'of'
p1180
S'of'
p1181
S'IN'
p1182
S'B-PP'
p1183
g5
tp1184
a(S'CDDP/FU'
p1185
S'CDDP/FU'
p1186
S'NN'
p1187
S'B-NP'
p1188
g5
tp1189
a(S'as'
p1190
S'as'
p1191
S'IN'
p1192
S'B-PP'
p1193
g5
tp1194
a(S'routine'
p1195
S'routine'
p1196
S'JJ'
p1197
S'B-NP'
p1198
g5
tp1199
a(S'therapy'
p1200
S'therapy'
p1201
S'NN'
p1202
S'I-NP'
p1203
g5
tp1204
a(S'for'
p1205
S'for'
p1206
S'IN'
p1207
S'B-PP'
p1208
g5
tp1209
a(S'the'
p1210
S'the'
p1211
S'DT'
p1212
S'B-NP'
p1213
g5
tp1214
a(S'treatment'
p1215
S'treatment'
p1216
S'NN'
p1217
S'I-NP'
p1218
g5
tp1219
a(S'of'
p1220
S'of'
p1221
S'IN'
p1222
S'B-PP'
p1223
g5
tp1224
a(S'colorectal'
p1225
S'colorectal'
p1226
S'JJ'
p1227
S'B-NP'
p1228
g5
tp1229
a(S'carcinoma'
p1230
S'carcinoma'
p1231
S'NN'
p1232
S'I-NP'
p1233
g5
tp1234
a(S'can'
p1235
S'can'
p1236
S'MD'
p1237
S'B-VP'
p1238
g5
tp1239
a(S'not'
p1240
S'not'
p1241
S'RB'
p1242
S'I-VP'
p1243
g5
tp1244
a(S'be'
p1245
S'be'
p1246
S'VB'
p1247
S'I-VP'
p1248
g5
tp1249
a(S'recommended'
p1250
S'recommend'
p1251
S'VBN'
p1252
S'I-VP'
p1253
g5
tp1254
a(g81
g81
g81
g5
g5
tp1255
a.