(lp0
(S'Influence'
p1
S'Influence'
p2
S'NN'
p3
S'B-NP'
p4
S'O'
p5
tp6
a(S'of'
p7
S'of'
p8
S'IN'
p9
S'B-PP'
p10
g5
tp11
a(S'asimadoline'
p12
S'asimadoline'
p13
S'NN'
p14
S'B-NP'
p15
g5
tp16
a(S','
p17
g17
g17
g5
g5
tp18
a(S'a'
p19
g19
S'DT'
p20
S'B-NP'
p21
g5
tp22
a(S'new'
p23
S'new'
p24
S'JJ'
p25
S'I-NP'
p26
g5
tp27
a(S'kappa-opioid'
p28
S'kappa-opioid'
p29
S'JJ'
p30
S'I-NP'
p31
g5
tp32
a(S'receptor'
p33
S'receptor'
p34
S'NN'
p35
S'I-NP'
p36
g5
tp37
a(S'agonist'
p38
S'agonist'
p39
S'NN'
p40
S'I-NP'
p41
g5
tp42
a(g17
g17
g17
g5
g5
tp43
a(S'on'
p44
S'on'
p45
S'IN'
p46
S'B-PP'
p47
g5
tp48
a(S'tubular'
p49
S'tubular'
p50
S'JJ'
p51
S'B-NP'
p52
g5
tp53
a(S'water'
p54
S'water'
p55
S'NN'
p56
S'I-NP'
p57
g5
tp58
a(S'absorption'
p59
S'absorption'
p60
S'NN'
p61
S'I-NP'
p62
g5
tp63
a(S'and'
p64
S'and'
p65
S'CC'
p66
g5
g5
tp67
a(S'vasopressin'
p68
S'vasopressin'
p69
S'NN'
p70
S'B-NP'
p71
g5
tp72
a(S'secretion'
p73
S'secretion'
p74
S'NN'
p75
S'I-NP'
p76
g5
tp77
a(S'in'
p78
S'in'
p79
S'IN'
p80
S'B-PP'
p81
g5
tp82
a(S'man'
p83
S'man'
p84
S'NN'
p85
S'B-NP'
p86
g5
tp87
a(S'.'
p88
g88
g88
g5
g5
tp89
a(S'AIMS'
p90
S'AIMS'
p91
S'NNS'
p92
S'B-NP'
p93
g5
tp94
a(S'The'
p95
S'The'
p96
S'DT'
p97
S'B-NP'
p98
g5
tp99
a(S'purpose'
p100
S'purpose'
p101
S'NN'
p102
S'I-NP'
p103
g5
tp104
a(S'of'
p105
S'of'
p106
S'IN'
p107
S'B-PP'
p108
g5
tp109
a(S'the'
p110
S'the'
p111
S'DT'
p112
S'B-NP'
p113
g5
tp114
a(S'study'
p115
S'study'
p116
S'NN'
p117
S'I-NP'
p118
g5
tp119
a(S'was'
p120
S'be'
p121
S'VBD'
p122
S'B-VP'
p123
g5
tp124
a(S'to'
p125
S'to'
p126
S'TO'
p127
S'B-VP'
p128
g5
tp129
a(S'investigate'
p130
S'investigate'
p131
S'VB'
p132
S'I-VP'
p133
g5
tp134
a(S'the'
p135
S'the'
p136
S'DT'
p137
S'B-NP'
p138
g5
tp139
a(S'effects'
p140
S'effect'
p141
S'NNS'
p142
S'I-NP'
p143
g5
tp144
a(S'of'
p145
S'of'
p146
S'IN'
p147
S'B-PP'
p148
g5
tp149
a(S'asimadoline'
p150
S'asimadoline'
p151
S'NN'
p152
S'B-NP'
p153
g5
tp154
a(g17
g17
g17
g5
g5
tp155
a(g19
g19
S'DT'
p156
S'B-NP'
p157
g5
tp158
a(S'new'
p159
S'new'
p160
S'JJ'
p161
S'I-NP'
p162
g5
tp163
a(S'kappa-opioid'
p164
S'kappa-opioid'
p165
S'JJ'
p166
S'I-NP'
p167
g5
tp168
a(S'agonist'
p169
S'agonist'
p170
S'NN'
p171
S'I-NP'
p172
g5
tp173
a(g17
g17
g17
g5
g5
tp174
a(S'on'
p175
S'on'
p176
S'IN'
p177
S'B-PP'
p178
g5
tp179
a(S'renal'
p180
S'renal'
p181
S'JJ'
p182
S'B-NP'
p183
g5
tp184
a(S'function'
p185
S'function'
p186
S'NN'
p187
S'I-NP'
p188
g5
tp189
a(S'and'
p190
S'and'
p191
S'CC'
p192
S'B-PP'
p193
g5
tp194
a(S'on'
p195
S'on'
p196
S'IN'
p197
S'B-PP'
p198
g5
tp199
a(S'hormones'
p200
S'hormone'
p201
S'NNS'
p202
S'B-NP'
p203
g5
tp204
a(S'related'
p205
S'relate'
p206
S'VBN'
p207
S'B-VP'
p208
g5
tp209
a(S'to'
p210
S'to'
p211
S'TO'
p212
S'B-PP'
p213
g5
tp214
a(S'body'
p215
S'body'
p216
S'NN'
p217
S'B-NP'
p218
g5
tp219
a(S'fluid'
p220
S'fluid'
p221
S'NN'
p222
S'I-NP'
p223
g5
tp224
a(S'balance'
p225
S'balance'
p226
S'NN'
p227
S'I-NP'
p228
g5
tp229
a(S'as'
p230
S'as'
p231
S'RB'
p232
S'B-CONJP'
p233
g5
tp234
a(S'well'
p235
S'well'
p236
S'RB'
p237
S'I-CONJP'
p238
g5
tp239
a(S'as'
p240
S'as'
p241
S'IN'
p242
S'I-CONJP'
p243
g5
tp244
a(S'its'
p245
S'its'
p246
S'PRP$'
p247
S'B-NP'
p248
g5
tp249
a(S'tolerability'
p250
S'tolerability'
p251
S'NN'
p252
S'I-NP'
p253
g5
tp254
a(S'in'
p255
S'in'
p256
S'IN'
p257
S'B-PP'
p258
g5
tp259
a(S'healthy'
p260
S'healthy'
p261
S'JJ'
p262
S'B-NP'
p263
g5
tp264
a(S'subjects'
p265
S'subject'
p266
S'NNS'
p267
S'I-NP'
p268
g5
tp269
a(g88
g88
g88
g5
g5
tp270
a(S'METHODS'
p271
S'METHODS'
p272
S'NNS'
p273
S'B-NP'
p274
g5
tp275
a(S'In'
p276
S'In'
p277
S'IN'
p278
S'B-PP'
p279
g5
tp280
a(g19
g19
S'DT'
p281
S'B-NP'
p282
g5
tp283
a(S'placebo-controlled'
p284
S'placebo-controlled'
p285
S'JJ'
p286
S'I-NP'
p287
g5
tp288
a(g17
g17
g17
S'I-NP'
p289
g5
tp290
a(S'randomised'
p291
S'randomise'
p292
S'VBN'
p293
S'I-NP'
p294
g5
tp295
a(g17
g17
g17
S'I-NP'
p296
g5
tp297
a(S'double-blind'
p298
S'double-blind'
p299
S'JJ'
p300
S'I-NP'
p301
g5
tp302
a(S'crossover'
p303
S'crossover'
p304
S'NN'
p305
S'I-NP'
p306
g5
tp307
a(S'design'
p308
S'design'
p309
S'NN'
p310
S'I-NP'
p311
g5
tp312
a(S'we'
p313
S'we'
p314
S'PRP'
p315
S'B-NP'
p316
g5
tp317
a(S'studied'
p318
S'study'
p319
S'VBD'
p320
S'B-VP'
p321
g5
tp322
a(S'the'
p323
S'the'
p324
S'DT'
p325
S'B-NP'
p326
g5
tp327
a(S'effects'
p328
S'effect'
p329
S'NNS'
p330
S'I-NP'
p331
g5
tp332
a(S'of'
p333
S'of'
p334
S'IN'
p335
S'B-PP'
p336
g5
tp337
a(S'single'
p338
S'single'
p339
S'JJ'
p340
S'B-NP'
p341
g5
tp342
a(S'oral'
p343
S'oral'
p344
S'JJ'
p345
S'I-NP'
p346
g5
tp347
a(S'doses'
p348
S'dose'
p349
S'NNS'
p350
S'I-NP'
p351
g5
tp352
a(S'of'
p353
S'of'
p354
S'IN'
p355
S'B-PP'
p356
g5
tp357
a(S'1'
p358
g358
S'CD'
p359
S'B-NP'
p360
g5
tp361
a(g17
g17
g17
S'I-NP'
p362
g5
tp363
a(S'5'
p364
g364
S'CD'
p365
S'I-NP'
p366
g5
tp367
a(g17
g17
g17
g5
g5
tp368
a(S'and'
p369
S'and'
p370
S'CC'
p371
g5
g5
tp372
a(S'10'
p373
S'10'
p374
S'CD'
p375
S'B-NP'
p376
g5
tp377
a(S'mg'
p378
S'mg'
p379
S'NN'
p380
S'I-NP'
p381
g5
tp382
a(S'of'
p383
S'of'
p384
S'IN'
p385
S'B-PP'
p386
g5
tp387
a(S'asimadoline'
p388
S'asimadoline'
p389
S'NN'
p390
S'B-NP'
p391
g5
tp392
a(g17
g17
g17
g5
g5
tp393
a(S'in'
p394
S'in'
p395
S'IN'
p396
S'B-PP'
p397
g5
tp398
a(S'24'
p399
S'24'
p400
S'CD'
p401
S'B-NP'
p402
g5
tp403
a(S'healthy'
p404
S'healthy'
p405
S'JJ'
p406
S'I-NP'
p407
g5
tp408
a(S'volunteers.'
p409
S'volunteers.'
p410
S'NN'
p411
S'I-NP'
p412
g5
tp413
a(S'Two'
p414
S'Two'
p415
S'CD'
p416
S'I-NP'
p417
g5
tp418
a(S'hour'
p419
S'hour'
p420
S'NN'
p421
S'I-NP'
p422
g5
tp423
a(S'control'
p424
S'control'
p425
S'NN'
p426
S'I-NP'
p427
g5
tp428
a(S'urine'
p429
S'urine'
p430
S'NN'
p431
S'I-NP'
p432
g5
tp433
a(S'collections'
p434
S'collection'
p435
S'NNS'
p436
S'I-NP'
p437
g5
tp438
a(S'were'
p439
S'be'
p440
S'VBD'
p441
S'B-VP'
p442
g5
tp443
a(S'followed'
p444
S'follow'
p445
S'VBN'
p446
S'I-VP'
p447
g5
tp448
a(S'by'
p449
S'by'
p450
S'IN'
p451
S'B-PP'
p452
g5
tp453
a(S'2'
p454
g454
S'CD'
p455
S'B-NP'
p456
g5
tp457
a(S'h'
p458
g458
S'NN'
p459
S'I-NP'
p460
g5
tp461
a(S'postdose'
p462
S'postdose'
p463
S'JJ'
p464
S'I-NP'
p465
g5
tp466
a(S'urine'
p467
S'urine'
p468
S'NN'
p469
S'I-NP'
p470
g5
tp471
a(S'collections'
p472
S'collection'
p473
S'NNS'
p474
S'I-NP'
p475
g5
tp476
a(S'and'
p477
S'and'
p478
S'CC'
p479
g5
g5
tp480
a(S'subsequently'
p481
S'subsequently'
p482
S'RB'
p483
S'B-NP'
p484
g5
tp485
a(S'2.5'
p486
S'2.5'
p487
S'CD'
p488
S'I-NP'
p489
g5
tp490
a(S'%'
p491
g491
S'NN'
p492
S'I-NP'
p493
g5
tp494
a(S'saline'
p495
S'saline'
p496
S'NN'
p497
S'I-NP'
p498
g5
tp499
a(S'was'
p500
S'be'
p501
S'VBD'
p502
S'B-VP'
p503
g5
tp504
a(S'given'
p505
S'give'
p506
S'VBN'
p507
S'I-VP'
p508
g5
tp509
a(S'i.v.'
p510
S'i.v.'
p511
S'JJ'
p512
S'B-ADJP'
p513
g5
tp514
a(S'at'
p515
S'at'
p516
S'IN'
p517
S'B-PP'
p518
g5
tp519
a(g19
g19
S'DT'
p520
S'B-NP'
p521
g5
tp522
a(S'rate'
p523
S'rate'
p524
S'NN'
p525
S'I-NP'
p526
g5
tp527
a(S'of'
p528
S'of'
p529
S'IN'
p530
S'B-PP'
p531
g5
tp532
a(S'0.3'
p533
S'0.3'
p534
S'CD'
p535
S'B-NP'
p536
g5
tp537
a(S'ml'
p538
S'ml'
p539
S'NN'
p540
S'I-NP'
p541
g5
tp542
a(S'min'
p543
S'min'
p544
S'NN'
p545
S'I-NP'
p546
g5
tp547
a(S'('
p548
g548
g548
g5
g5
tp549
a(S'-1'
p550
S'-1'
p551
S'CD'
p552
S'B-NP'
p553
g5
tp554
a(S')'
p555
g555
g555
g5
g5
tp556
a(S'kg'
p557
S'kg'
p558
S'NN'
p559
S'B-NP'
p560
g5
tp561
a(g548
g548
g548
g5
g5
tp562
a(S'-1'
p563
S'-1'
p564
S'CD'
p565
S'B-NP'
p566
g5
tp567
a(g555
g555
g555
g5
g5
tp568
a(S'during'
p569
S'during'
p570
S'IN'
p571
S'B-PP'
p572
g5
tp573
a(S'another'
p574
S'another'
p575
S'DT'
p576
S'B-NP'
p577
g5
tp578
a(g454
g454
S'CD'
p579
S'I-NP'
p580
g5
tp581
a(g458
g458
S'NN'
p582
S'I-NP'
p583
g5
tp584
a(S'urine'
p585
S'urine'
p586
S'NN'
p587
S'I-NP'
p588
g5
tp589
a(S'collection.'
p590
S'collection.'
p591
S'NN'
p592
S'I-NP'
p593
g5
tp594
a(S'Blood'
p595
S'Blood'
p596
S'NN'
p597
S'I-NP'
p598
g5
tp599
a(S'was'
p600
S'be'
p601
S'VBD'
p602
S'B-VP'
p603
g5
tp604
a(S'obtained'
p605
S'obtain'
p606
S'VBN'
p607
S'I-VP'
p608
g5
tp609
a(S'hourly.'
p610
S'hourly.'
p611
S'NN'
p612
S'B-NP'
p613
g5
tp614
a(S'Arginine-vasopressin'
p615
S'Arginine-vasopressin'
p616
S'NN'
p617
S'I-NP'
p618
g5
tp619
a(g548
g548
g548
g5
g5
tp620
a(S'AVP'
p621
S'AVP'
p622
S'NN'
p623
S'B-NP'
p624
S'B-protein'
p625
tp626
a(g555
g555
g555
g5
g5
tp627
a(g17
g17
g17
g5
g5
tp628
a(S'atrial'
p629
S'atrial'
p630
S'JJ'
p631
S'B-NP'
p632
g5
tp633
a(S'natriuretic'
p634
S'natriuretic'
p635
S'JJ'
p636
S'I-NP'
p637
g5
tp638
a(S'peptide'
p639
S'peptide'
p640
S'NN'
p641
S'I-NP'
p642
g5
tp643
a(g548
g548
g548
g5
g5
tp644
a(S'alpha-hANP'
p645
S'alpha-hANP'
p646
S'NN'
p647
S'B-NP'
p648
S'B-protein'
p649
tp650
a(g555
g555
g555
g5
g5
tp651
a(g17
g17
g17
g5
g5
tp652
a(S'endothelin'
p653
S'endothelin'
p654
S'NN'
p655
S'B-NP'
p656
S'B-protein'
p657
tp658
a(g548
g548
g548
g5
g5
tp659
a(S'ET-1'
p660
S'ET-1'
p661
S'NN'
p662
S'B-NP'
p663
S'B-protein'
p664
tp665
a(g555
g555
g555
g5
g5
tp666
a(S'and'
p667
S'and'
p668
S'CC'
p669
g5
g5
tp670
a(S'cAMP'
p671
S'cAMP'
p672
S'NN'
p673
S'B-NP'
p674
g5
tp675
a(S'were'
p676
S'be'
p677
S'VBD'
p678
S'B-VP'
p679
g5
tp680
a(S'determined'
p681
S'determine'
p682
S'VBN'
p683
S'I-VP'
p684
g5
tp685
a(S'by'
p686
S'by'
p687
S'IN'
p688
S'B-PP'
p689
g5
tp690
a(S'r.i.a.'
p691
S'r.i.a.'
p692
S'NN'
p693
S'B-NP'
p694
g5
tp695
a(S'or'
p696
S'or'
p697
S'CC'
p698
S'I-NP'
p699
g5
tp700
a(S'ELISA'
p701
S'ELISA'
p702
S'NN'
p703
S'I-NP'
p704
g5
tp705
a(g88
g88
g88
g5
g5
tp706
a(S'RESULTS'
p707
S'RESULTS'
p708
S'NNS'
p709
S'B-NP'
p710
g5
tp711
a(S'GC-MS'
p712
S'GC-MS'
p713
S'NN'
p714
S'I-NP'
p715
g5
tp716
a(S'measurements'
p717
S'measurement'
p718
S'NNS'
p719
S'I-NP'
p720
g5
tp721
a(S'revealed'
p722
S'reveal'
p723
S'VBD'
p724
S'B-VP'
p725
g5
tp726
a(S'Cmax'
p727
S'Cmax'
p728
S'NN'
p729
S'B-NP'
p730
g5
tp731
a(S'values'
p732
S'value'
p733
S'NNS'
p734
S'I-NP'
p735
g5
tp736
a(S'of'
p737
S'of'
p738
S'IN'
p739
S'B-PP'
p740
g5
tp741
a(S'asimadoline'
p742
S'asimadoline'
p743
S'NN'
p744
S'B-NP'
p745
g5
tp746
a(S'in'
p747
S'in'
p748
S'IN'
p749
S'B-PP'
p750
g5
tp751
a(S'plasma'
p752
S'plasma'
p753
S'NN'
p754
S'B-NP'
p755
g5
tp756
a(S'ranging'
p757
S'range'
p758
S'VBG'
p759
S'B-VP'
p760
g5
tp761
a(S'from'
p762
S'from'
p763
S'IN'
p764
S'B-PP'
p765
g5
tp766
a(S'18'
p767
S'18'
p768
S'CD'
p769
S'B-NP'
p770
g5
tp771
a(S'ng'
p772
S'ng'
p773
S'NN'
p774
S'I-NP'
p775
g5
tp776
a(S'ml'
p777
S'ml'
p778
S'NN'
p779
S'I-NP'
p780
g5
tp781
a(g548
g548
g548
g5
g5
tp782
a(S'-1'
p783
S'-1'
p784
S'CD'
p785
S'B-NP'
p786
g5
tp787
a(g555
g555
g555
g5
g5
tp788
a(S'at'
p789
S'at'
p790
S'IN'
p791
S'B-PP'
p792
g5
tp793
a(S'the'
p794
S'the'
p795
S'DT'
p796
S'B-NP'
p797
g5
tp798
a(g358
g358
S'CD'
p799
S'I-NP'
p800
g5
tp801
a(S'mg'
p802
S'mg'
p803
S'NN'
p804
S'I-NP'
p805
g5
tp806
a(S'dose'
p807
S'dose'
p808
S'NN'
p809
S'I-NP'
p810
g5
tp811
a(g17
g17
g17
g5
g5
tp812
a(S'91'
p813
S'91'
p814
S'CD'
p815
S'B-NP'
p816
g5
tp817
a(S'ng'
p818
S'ng'
p819
S'NN'
p820
S'I-NP'
p821
g5
tp822
a(S'ml'
p823
S'ml'
p824
S'NN'
p825
S'I-NP'
p826
g5
tp827
a(g548
g548
g548
g5
g5
tp828
a(S'-1'
p829
S'-1'
p830
S'CD'
p831
S'B-NP'
p832
g5
tp833
a(g555
g555
g555
g5
g5
tp834
a(S'at'
p835
S'at'
p836
S'IN'
p837
S'B-PP'
p838
g5
tp839
a(S'the'
p840
S'the'
p841
S'DT'
p842
S'B-NP'
p843
g5
tp844
a(g364
g364
S'CD'
p845
S'I-NP'
p846
g5
tp847
a(S'mg'
p848
S'mg'
p849
S'NN'
p850
S'I-NP'
p851
g5
tp852
a(S'dose'
p853
S'dose'
p854
S'NN'
p855
S'I-NP'
p856
g5
tp857
a(g17
g17
g17
g5
g5
tp858
a(S'to'
p859
S'to'
p860
S'TO'
p861
S'B-PP'
p862
g5
tp863
a(S'214'
p864
S'214'
p865
S'CD'
p866
S'B-NP'
p867
g5
tp868
a(S'ng'
p869
S'ng'
p870
S'NN'
p871
S'I-NP'
p872
g5
tp873
a(S'ml'
p874
S'ml'
p875
S'NN'
p876
S'I-NP'
p877
g5
tp878
a(g548
g548
g548
g5
g5
tp879
a(S'-1'
p880
S'-1'
p881
S'CD'
p882
S'B-NP'
p883
g5
tp884
a(g555
g555
g555
g5
g5
tp885
a(S'at'
p886
S'at'
p887
S'IN'
p888
S'B-PP'
p889
g5
tp890
a(S'the'
p891
S'the'
p892
S'DT'
p893
S'B-NP'
p894
g5
tp895
a(S'10'
p896
S'10'
p897
S'CD'
p898
S'I-NP'
p899
g5
tp900
a(S'mg'
p901
S'mg'
p902
S'NN'
p903
S'I-NP'
p904
g5
tp905
a(S'dose'
p906
S'dose'
p907
S'NN'
p908
S'I-NP'
p909
g5
tp910
a(S'after'
p911
S'after'
p912
S'IN'
p913
S'B-PP'
p914
g5
tp915
a(S'an'
p916
S'an'
p917
S'DT'
p918
S'B-NP'
p919
g5
tp920
a(S'average'
p921
S'average'
p922
S'NN'
p923
S'I-NP'
p924
g5
tp925
a(S'of'
p926
S'of'
p927
S'IN'
p928
S'B-PP'
p929
g5
tp930
a(S'1.1-1.4'
p931
S'1.1-1.4'
p932
S'CD'
p933
S'B-NP'
p934
g5
tp935
a(S'h.'
p936
S'h.'
p937
S'NN'
p938
S'I-NP'
p939
g5
tp940
a(S'Without'
p941
S'Without'
p942
S'IN'
p943
S'B-PP'
p944
g5
tp945
a(S'effects'
p946
S'effect'
p947
S'NNS'
p948
S'B-NP'
p949
g5
tp950
a(S'on'
p951
S'on'
p952
S'IN'
p953
S'B-PP'
p954
g5
tp955
a(S'blood'
p956
S'blood'
p957
S'NN'
p958
S'B-NP'
p959
g5
tp960
a(S'pressure'
p961
S'pressure'
p962
S'NN'
p963
S'I-NP'
p964
g5
tp965
a(g17
g17
g17
g5
g5
tp966
a(S'heart'
p967
S'heart'
p968
S'NN'
p969
S'B-NP'
p970
g5
tp971
a(S'rate'
p972
S'rate'
p973
S'NN'
p974
S'I-NP'
p975
g5
tp976
a(g17
g17
g17
g5
g5
tp977
a(S'GFR'
p978
S'GFR'
p979
S'NN'
p980
S'B-NP'
p981
S'B-protein'
p982
tp983
a(S'or'
p984
S'or'
p985
S'CC'
p986
S'I-NP'
p987
g5
tp988
a(S'urine'
p989
S'urine'
p990
S'NN'
p991
S'I-NP'
p992
g5
tp993
a(S'electrolyte'
p994
S'electrolyte'
p995
S'NN'
p996
S'I-NP'
p997
g5
tp998
a(S'excretion'
p999
S'excretion'
p1000
S'NN'
p1001
S'I-NP'
p1002
g5
tp1003
a(g17
g17
g17
g5
g5
tp1004
a(S'urine'
p1005
S'urine'
p1006
S'NN'
p1007
S'B-NP'
p1008
g5
tp1009
a(S'volume'
p1010
S'volume'
p1011
S'NN'
p1012
S'I-NP'
p1013
g5
tp1014
a(S'increased'
p1015
S'increase'
p1016
S'VBD'
p1017
S'B-VP'
p1018
g5
tp1019
a(S'after'
p1020
S'after'
p1021
S'IN'
p1022
S'B-SBAR'
p1023
g5
tp1024
a(S'1-2'
p1025
S'1-2'
p1026
S'CD'
p1027
S'B-NP'
p1028
g5
tp1029
a(g458
g458
S'NN'
p1030
S'I-NP'
p1031
g5
tp1032
a(S'after'
p1033
S'after'
p1034
S'IN'
p1035
S'B-PP'
p1036
g5
tp1037
a(S'administration'
p1038
S'administration'
p1039
S'NN'
p1040
S'B-NP'
p1041
g5
tp1042
a(S'of'
p1043
S'of'
p1044
S'IN'
p1045
S'B-PP'
p1046
g5
tp1047
a(g364
g364
S'CD'
p1048
S'B-NP'
p1049
g5
tp1050
a(S'and'
p1051
S'and'
p1052
S'CC'
p1053
S'I-NP'
p1054
g5
tp1055
a(S'10'
p1056
S'10'
p1057
S'CD'
p1058
S'I-NP'
p1059
g5
tp1060
a(S'mg'
p1061
S'mg'
p1062
S'NN'
p1063
S'I-NP'
p1064
g5
tp1065
a(S'asimadoline'
p1066
S'asimadoline'
p1067
S'NN'
p1068
S'I-NP'
p1069
g5
tp1070
a(S'from'
p1071
S'from'
p1072
S'IN'
p1073
S'B-PP'
p1074
g5
tp1075
a(S'3.3+/-1.3'
p1076
S'3.3+/-1.3'
p1077
S'CD'
p1078
S'B-NP'
p1079
g5
tp1080
a(S'to'
p1081
S'to'
p1082
S'TO'
p1083
S'B-PP'
p1084
g5
tp1085
a(S'5.6+/-1.4'
p1086
S'5.6+/-1.4'
p1087
S'CD'
p1088
S'B-NP'
p1089
g5
tp1090
a(g548
g548
g548
g5
g5
tp1091
a(S'P'
p1092
g1092
S'NN'
p1093
S'B-NP'
p1094
g5
tp1095
a(S'<'
p1096
g1096
S'SYM'
p1097
g5
g5
tp1098
a(S'0.05'
p1099
S'0.05'
p1100
S'CD'
p1101
S'B-NP'
p1102
g5
tp1103
a(g555
g555
g555
g5
g5
tp1104
a(S'and'
p1105
S'and'
p1106
S'CC'
p1107
g5
g5
tp1108
a(S'from'
p1109
S'from'
p1110
S'IN'
p1111
S'B-PP'
p1112
g5
tp1113
a(S'3.2'
p1114
S'3.2'
p1115
S'CD'
p1116
S'B-NP'
p1117
g5
tp1118
a(S'+/-1.6'
p1119
S'+/-1.6'
p1120
S'CD'
p1121
S'I-NP'
p1122
g5
tp1123
a(S'to'
p1124
S'to'
p1125
S'TO'
p1126
S'I-NP'
p1127
g5
tp1128
a(S'5.5+/-2.2'
p1129
S'5.5+/-2.2'
p1130
S'CD'
p1131
S'I-NP'
p1132
g5
tp1133
a(S'ml'
p1134
S'ml'
p1135
S'NN'
p1136
S'I-NP'
p1137
g5
tp1138
a(S'min'
p1139
S'min'
p1140
S'NN'
p1141
S'I-NP'
p1142
g5
tp1143
a(g548
g548
g548
g5
g5
tp1144
a(S'-1'
p1145
S'-1'
p1146
S'CD'
p1147
S'B-NP'
p1148
g5
tp1149
a(g555
g555
g555
g5
g5
tp1150
a(g548
g548
g548
g5
g5
tp1151
a(g1092
g1092
S'NN'
p1152
S'B-NP'
p1153
g5
tp1154
a(g1096
g1096
S'SYM'
p1155
g5
g5
tp1156
a(S'0.01'
p1157
S'0.01'
p1158
S'CD'
p1159
S'B-NP'
p1160
g5
tp1161
a(g555
g555
g555
g5
g5
tp1162
a(g17
g17
g17
g5
g5
tp1163
a(S'respectively.'
p1164
S'respectively.'
p1165
S'NN'
p1166
S'B-NP'
p1167
g5
tp1168
a(S'CH2O'
p1169
S'CH2O'
p1170
S'NN'
p1171
S'I-NP'
p1172
g5
tp1173
a(S'rose'
p1174
S'rise'
p1175
S'VBD'
p1176
S'B-VP'
p1177
g5
tp1178
a(S'from'
p1179
S'from'
p1180
S'IN'
p1181
S'B-PP'
p1182
g5
tp1183
a(S'0.2+/-1.5'
p1184
S'0.2+/-1.5'
p1185
S'CD'
p1186
S'B-NP'
p1187
g5
tp1188
a(S'to'
p1189
S'to'
p1190
S'TO'
p1191
S'B-PP'
p1192
g5
tp1193
a(S'2.0+/-1.6'
p1194
S'2.0+/-1.6'
p1195
S'CD'
p1196
S'B-NP'
p1197
g5
tp1198
a(g548
g548
g548
g5
g5
tp1199
a(g1092
g1092
S'NN'
p1200
S'B-NP'
p1201
g5
tp1202
a(g1096
g1096
S'SYM'
p1203
g5
g5
tp1204
a(S'0.05'
p1205
S'0.05'
p1206
S'CD'
p1207
S'B-NP'
p1208
g5
tp1209
a(g555
g555
g555
g5
g5
tp1210
a(S'and'
p1211
S'and'
p1212
S'CC'
p1213
g5
g5
tp1214
a(S'from'
p1215
S'from'
p1216
S'IN'
p1217
S'B-PP'
p1218
g5
tp1219
a(S'0.6+/-1.6'
p1220
S'0.6+/-1.6'
p1221
S'CD'
p1222
S'B-NP'
p1223
g5
tp1224
a(S'to'
p1225
S'to'
p1226
S'TO'
p1227
S'I-NP'
p1228
g5
tp1229
a(S'3.0+/-1.6'
p1230
S'3.0+/-1.6'
p1231
S'CD'
p1232
S'I-NP'
p1233
g5
tp1234
a(S'ml'
p1235
S'ml'
p1236
S'NN'
p1237
S'I-NP'
p1238
g5
tp1239
a(S'min'
p1240
S'min'
p1241
S'NN'
p1242
S'I-NP'
p1243
g5
tp1244
a(g548
g548
g548
g5
g5
tp1245
a(S'-1'
p1246
S'-1'
p1247
S'CD'
p1248
S'B-NP'
p1249
g5
tp1250
a(g555
g555
g555
g5
g5
tp1251
a(g548
g548
g548
g5
g5
tp1252
a(g1092
g1092
S'NN'
p1253
S'B-NP'
p1254
g5
tp1255
a(g1096
g1096
S'SYM'
p1256
g5
g5
tp1257
a(S'0.01'
p1258
S'0.01'
p1259
S'CD'
p1260
S'B-NP'
p1261
g5
tp1262
a(g555
g555
g555
g5
g5
tp1263
a(g88
g88
g88
g5
g5
tp1264
a(S'Urinary'
p1265
S'Urinary'
p1266
S'JJ'
p1267
S'B-NP'
p1268
g5
tp1269
a(S'excretion'
p1270
S'excretion'
p1271
S'NN'
p1272
S'I-NP'
p1273
g5
tp1274
a(S'of'
p1275
S'of'
p1276
S'IN'
p1277
S'B-PP'
p1278
g5
tp1279
a(S'AVP'
p1280
S'AVP'
p1281
S'NN'
p1282
S'B-NP'
p1283
S'B-protein'
p1284
tp1285
a(S'was'
p1286
S'be'
p1287
S'VBD'
p1288
S'B-VP'
p1289
g5
tp1290
a(S'suppressed'
p1291
S'suppress'
p1292
S'VBN'
p1293
S'I-VP'
p1294
g5
tp1295
a(S'only'
p1296
S'only'
p1297
S'RB'
p1298
S'B-ADVP'
p1299
g5
tp1300
a(S'with'
p1301
S'with'
p1302
S'IN'
p1303
S'B-PP'
p1304
g5
tp1305
a(S'the'
p1306
S'the'
p1307
S'DT'
p1308
S'B-NP'
p1309
g5
tp1310
a(S'10'
p1311
S'10'
p1312
S'CD'
p1313
S'I-NP'
p1314
g5
tp1315
a(S'mg'
p1316
S'mg'
p1317
S'NN'
p1318
S'I-NP'
p1319
g5
tp1320
a(S'dose'
p1321
S'dose'
p1322
S'NN'
p1323
S'I-NP'
p1324
g5
tp1325
a(S'from'
p1326
S'from'
p1327
S'IN'
p1328
S'B-PP'
p1329
g5
tp1330
a(S'46+/-23'
p1331
S'46+/-23'
p1332
S'CD'
p1333
S'B-NP'
p1334
g5
tp1335
a(S'to'
p1336
S'to'
p1337
S'TO'
p1338
S'I-NP'
p1339
g5
tp1340
a(S'25+/-15'
p1341
S'25+/-15'
p1342
S'CD'
p1343
S'I-NP'
p1344
g5
tp1345
a(S'fmol'
p1346
S'fmol'
p1347
S'NN'
p1348
S'I-NP'
p1349
g5
tp1350
a(S'min'
p1351
S'min'
p1352
S'NN'
p1353
S'I-NP'
p1354
g5
tp1355
a(g548
g548
g548
g5
g5
tp1356
a(S'-1'
p1357
S'-1'
p1358
S'CD'
p1359
S'B-NP'
p1360
g5
tp1361
a(g555
g555
g555
g5
g5
tp1362
a(g548
g548
g548
g5
g5
tp1363
a(g1092
g1092
S'NN'
p1364
S'B-NP'
p1365
g5
tp1366
a(g1096
g1096
S'SYM'
p1367
g5
g5
tp1368
a(S'0.05'
p1369
S'0.05'
p1370
S'CD'
p1371
S'B-NP'
p1372
g5
tp1373
a(g555
g555
g555
g5
g5
tp1374
a(S'without'
p1375
S'without'
p1376
S'IN'
p1377
S'B-PP'
p1378
g5
tp1379
a(S'and'
p1380
S'and'
p1381
S'CC'
p1382
S'I-PP'
p1383
g5
tp1384
a(S'from'
p1385
S'from'
p1386
S'IN'
p1387
S'I-PP'
p1388
g5
tp1389
a(S'410+/-206'
p1390
S'410+/-206'
p1391
S'CD'
p1392
S'B-NP'
p1393
g5
tp1394
a(S'to'
p1395
S'to'
p1396
S'TO'
p1397
S'I-NP'
p1398
g5
tp1399
a(S'181+/-125'
p1400
S'181+/-125'
p1401
S'CD'
p1402
S'I-NP'
p1403
g5
tp1404
a(S'fmol'
p1405
S'fmol'
p1406
S'NN'
p1407
S'I-NP'
p1408
g5
tp1409
a(S'min'
p1410
S'min'
p1411
S'NN'
p1412
S'I-NP'
p1413
g5
tp1414
a(g548
g548
g548
g5
g5
tp1415
a(S'-1'
p1416
S'-1'
p1417
S'CD'
p1418
S'B-NP'
p1419
g5
tp1420
a(g555
g555
g555
g5
g5
tp1421
a(g548
g548
g548
g5
g5
tp1422
a(g1092
g1092
S'NN'
p1423
S'B-NP'
p1424
g5
tp1425
a(g1096
g1096
S'SYM'
p1426
g5
g5
tp1427
a(S'0.05'
p1428
S'0.05'
p1429
S'CD'
p1430
S'B-NP'
p1431
g5
tp1432
a(g555
g555
g555
g5
g5
tp1433
a(S'with'
p1434
S'with'
p1435
S'IN'
p1436
S'B-PP'
p1437
g5
tp1438
a(S'stimulation'
p1439
S'stimulation'
p1440
S'NN'
p1441
S'B-NP'
p1442
g5
tp1443
a(S'by'
p1444
S'by'
p1445
S'IN'
p1446
S'B-PP'
p1447
g5
tp1448
a(S'2.5'
p1449
S'2.5'
p1450
S'CD'
p1451
S'B-NP'
p1452
g5
tp1453
a(g491
g491
S'NN'
p1454
S'I-NP'
p1455
g5
tp1456
a(S'saline.'
p1457
S'saline.'
p1458
S'NN'
p1459
S'I-NP'
p1460
g5
tp1461
a(S'Plasma'
p1462
S'Plasma'
p1463
S'NN'
p1464
S'I-NP'
p1465
g5
tp1466
a(S'AVP'
p1467
S'AVP'
p1468
S'NN'
p1469
S'I-NP'
p1470
g5
tp1471
a(S'was'
p1472
S'be'
p1473
S'VBD'
p1474
S'B-VP'
p1475
g5
tp1476
a(S'suppressed'
p1477
S'suppress'
p1478
S'VBN'
p1479
S'I-VP'
p1480
g5
tp1481
a(S'only'
p1482
S'only'
p1483
S'RB'
p1484
S'B-ADVP'
p1485
g5
tp1486
a(S'by'
p1487
S'by'
p1488
S'IN'
p1489
S'B-PP'
p1490
g5
tp1491
a(S'the'
p1492
S'the'
p1493
S'DT'
p1494
S'B-NP'
p1495
g5
tp1496
a(S'10'
p1497
S'10'
p1498
S'CD'
p1499
S'I-NP'
p1500
g5
tp1501
a(S'mg'
p1502
S'mg'
p1503
S'NN'
p1504
S'I-NP'
p1505
g5
tp1506
a(S'dose'
p1507
S'dose'
p1508
S'NN'
p1509
S'I-NP'
p1510
g5
tp1511
a(S'of'
p1512
S'of'
p1513
S'IN'
p1514
S'B-PP'
p1515
g5
tp1516
a(S'asimadoline'
p1517
S'asimadoline'
p1518
S'NN'
p1519
S'B-NP'
p1520
g5
tp1521
a(S'in'
p1522
S'in'
p1523
S'IN'
p1524
S'B-PP'
p1525
g5
tp1526
a(S'six'
p1527
S'six'
p1528
S'CD'
p1529
S'B-NP'
p1530
g5
tp1531
a(S'of'
p1532
S'of'
p1533
S'IN'
p1534
S'B-PP'
p1535
g5
tp1536
a(S'eight'
p1537
S'eight'
p1538
S'CD'
p1539
S'B-NP'
p1540
g5
tp1541
a(S'subjects'
p1542
S'subject'
p1543
S'NNS'
p1544
S'I-NP'
p1545
g5
tp1546
a(S'during'
p1547
S'during'
p1548
S'IN'
p1549
S'B-PP'
p1550
g5
tp1551
a(S'the'
p1552
S'the'
p1553
S'DT'
p1554
S'B-NP'
p1555
g5
tp1556
a(S'2.5'
p1557
S'2.5'
p1558
S'CD'
p1559
S'I-NP'
p1560
g5
tp1561
a(g491
g491
S'NN'
p1562
S'I-NP'
p1563
g5
tp1564
a(S'saline'
p1565
S'saline'
p1566
S'NN'
p1567
S'I-NP'
p1568
g5
tp1569
a(S'infusion.'
p1570
S'infusion.'
p1571
S'NN'
p1572
S'I-NP'
p1573
g5
tp1574
a(S'Changes'
p1575
S'Change'
p1576
S'NNS'
p1577
S'I-NP'
p1578
g5
tp1579
a(S'in'
p1580
S'in'
p1581
S'IN'
p1582
S'B-PP'
p1583
g5
tp1584
a(S'the'
p1585
S'the'
p1586
S'DT'
p1587
S'B-NP'
p1588
g5
tp1589
a(S'alpha-hANP'
p1590
S'alpha-hANP'
p1591
S'NN'
p1592
S'I-NP'
p1593
g5
tp1594
a(S'or'
p1595
S'or'
p1596
S'CC'
p1597
S'I-NP'
p1598
g5
tp1599
a(S'ET-1'
p1600
S'ET-1'
p1601
S'NN'
p1602
S'I-NP'
p1603
S'B-protein'
p1604
tp1605
a(S'systems'
p1606
S'system'
p1607
S'NNS'
p1608
S'I-NP'
p1609
g5
tp1610
a(S'were'
p1611
S'be'
p1612
S'VBD'
p1613
S'B-VP'
p1614
g5
tp1615
a(S'not'
p1616
S'not'
p1617
S'RB'
p1618
S'I-VP'
p1619
g5
tp1620
a(S'affected'
p1621
S'affect'
p1622
S'VBN'
p1623
S'I-VP'
p1624
g5
tp1625
a(S'by'
p1626
S'by'
p1627
S'IN'
p1628
S'B-PP'
p1629
g5
tp1630
a(S'asimadoline'
p1631
S'asimadoline'
p1632
S'NN'
p1633
S'B-NP'
p1634
g5
tp1635
a(g88
g88
g88
g5
g5
tp1636
a(S'CONCLUSIONS'
p1637
S'CONCLUSIONS'
p1638
S'NNS'
p1639
S'B-NP'
p1640
g5
tp1641
a(S'Asimadoline'
p1642
S'Asimadoline'
p1643
S'NN'
p1644
S'I-NP'
p1645
g5
tp1646
a(S'is'
p1647
S'be'
p1648
S'VBZ'
p1649
S'B-VP'
p1650
g5
tp1651
a(S'diuretic'
p1652
S'diuretic'
p1653
S'JJ'
p1654
S'B-ADJP'
p1655
g5
tp1656
a(S'in'
p1657
S'in'
p1658
S'IN'
p1659
S'B-PP'
p1660
g5
tp1661
a(S'man'
p1662
S'man'
p1663
S'NN'
p1664
S'B-NP'
p1665
g5
tp1666
a(S'after'
p1667
S'after'
p1668
S'IN'
p1669
S'B-PP'
p1670
g5
tp1671
a(S'single'
p1672
S'single'
p1673
S'JJ'
p1674
S'B-NP'
p1675
g5
tp1676
a(S'doses'
p1677
S'dose'
p1678
S'NNS'
p1679
S'I-NP'
p1680
g5
tp1681
a(S'of'
p1682
S'of'
p1683
S'IN'
p1684
S'B-PP'
p1685
g5
tp1686
a(g364
g364
S'CD'
p1687
S'B-NP'
p1688
g5
tp1689
a(S'or'
p1690
S'or'
p1691
S'CC'
p1692
S'I-NP'
p1693
g5
tp1694
a(S'10'
p1695
S'10'
p1696
S'CD'
p1697
S'I-NP'
p1698
g5
tp1699
a(S'mg'
p1700
S'mg'
p1701
S'NN'
p1702
S'I-NP'
p1703
g5
tp1704
a(S'probably'
p1705
S'probably'
p1706
S'RB'
p1707
S'B-ADVP'
p1708
g5
tp1709
a(S'through'
p1710
S'through'
p1711
S'IN'
p1712
S'B-PP'
p1713
g5
tp1714
a(g19
g19
S'DT'
p1715
S'B-NP'
p1716
g5
tp1717
a(S'direct'
p1718
S'direct'
p1719
S'JJ'
p1720
S'I-NP'
p1721
g5
tp1722
a(S'effect'
p1723
S'effect'
p1724
S'NN'
p1725
S'I-NP'
p1726
g5
tp1727
a(S'at'
p1728
S'at'
p1729
S'IN'
p1730
S'B-PP'
p1731
g5
tp1732
a(S'the'
p1733
S'the'
p1734
S'DT'
p1735
S'B-NP'
p1736
g5
tp1737
a(S'renal'
p1738
S'renal'
p1739
S'JJ'
p1740
S'I-NP'
p1741
g5
tp1742
a(S'tubular'
p1743
S'tubular'
p1744
S'JJ'
p1745
S'I-NP'
p1746
g5
tp1747
a(S'level.'
p1748
S'level.'
p1749
S'NN'
p1750
S'I-NP'
p1751
g5
tp1752
a(S'Suppression'
p1753
S'Suppression'
p1754
S'NN'
p1755
S'I-NP'
p1756
g5
tp1757
a(S'of'
p1758
S'of'
p1759
S'IN'
p1760
S'B-PP'
p1761
g5
tp1762
a(S'AVP'
p1763
S'AVP'
p1764
S'NN'
p1765
S'B-NP'
p1766
g5
tp1767
a(S'secretion'
p1768
S'secretion'
p1769
S'NN'
p1770
S'I-NP'
p1771
g5
tp1772
a(S'was'
p1773
S'be'
p1774
S'VBD'
p1775
S'B-VP'
p1776
g5
tp1777
a(S'observed'
p1778
S'observe'
p1779
S'VBN'
p1780
S'I-VP'
p1781
g5
tp1782
a(S'only'
p1783
S'only'
p1784
S'RB'
p1785
S'B-ADVP'
p1786
g5
tp1787
a(S'at'
p1788
S'at'
p1789
S'IN'
p1790
S'B-PP'
p1791
g5
tp1792
a(S'the'
p1793
S'the'
p1794
S'DT'
p1795
S'B-NP'
p1796
g5
tp1797
a(S'highest'
p1798
S'high'
p1799
S'JJS'
p1800
S'I-NP'
p1801
g5
tp1802
a(S'dose'
p1803
S'dose'
p1804
S'NN'
p1805
S'I-NP'
p1806
g5
tp1807
a(S'level'
p1808
S'level'
p1809
S'NN'
p1810
S'I-NP'
p1811
g5
tp1812
a(S'of'
p1813
S'of'
p1814
S'IN'
p1815
S'B-PP'
p1816
g5
tp1817
a(S'10'
p1818
S'10'
p1819
S'CD'
p1820
S'B-NP'
p1821
g5
tp1822
a(S'mg'
p1823
S'mg'
p1824
S'NN'
p1825
S'I-NP'
p1826
g5
tp1827
a(S'of'
p1828
S'of'
p1829
S'IN'
p1830
S'B-PP'
p1831
g5
tp1832
a(S'asimadoline'
p1833
S'asimadoline'
p1834
S'NN'
p1835
S'B-NP'
p1836
g5
tp1837
a(g88
g88
g88
g5
g5
tp1838
a.