(lp0
(S'Aerobic'
p1
S'Aerobic'
p2
S'JJ'
p3
S'B-NP'
p4
S'O'
p5
tp6
a(S'versus'
p7
S'versus'
p8
S'CC'
p9
S'I-NP'
p10
g5
tp11
a(S'resistance'
p12
S'resistance'
p13
S'NN'
p14
S'I-NP'
p15
g5
tp16
a(S'training'
p17
S'training'
p18
S'NN'
p19
S'I-NP'
p20
g5
tp21
a(S'effects'
p22
S'effect'
p23
S'NNS'
p24
S'I-NP'
p25
g5
tp26
a(S'on'
p27
S'on'
p28
S'IN'
p29
S'B-PP'
p30
g5
tp31
a(S'health-related'
p32
S'health-related'
p33
S'JJ'
p34
S'B-NP'
p35
g5
tp36
a(S'quality'
p37
S'quality'
p38
S'NN'
p39
S'I-NP'
p40
g5
tp41
a(S'of'
p42
S'of'
p43
S'IN'
p44
S'B-PP'
p45
g5
tp46
a(S'life'
p47
S'life'
p48
S'NN'
p49
S'B-NP'
p50
g5
tp51
a(S','
p52
g52
g52
g5
g5
tp53
a(S'body'
p54
S'body'
p55
S'NN'
p56
S'B-NP'
p57
g5
tp58
a(S'composition'
p59
S'composition'
p60
S'NN'
p61
S'I-NP'
p62
g5
tp63
a(g52
g52
g52
g5
g5
tp64
a(S'and'
p65
S'and'
p66
S'CC'
p67
g5
g5
tp68
a(S'function'
p69
S'function'
p70
S'NN'
p71
S'B-NP'
p72
g5
tp73
a(S'of'
p74
S'of'
p75
S'IN'
p76
S'B-PP'
p77
g5
tp78
a(S'older'
p79
S'old'
p80
S'JJR'
p81
S'B-NP'
p82
g5
tp83
a(S'adults'
p84
S'adult'
p85
S'NNS'
p86
S'I-NP'
p87
g5
tp88
a(S'.'
p89
g89
g89
g5
g5
tp90
a(S'This'
p91
S'This'
p92
S'DT'
p93
S'B-NP'
p94
g5
tp95
a(S'study'
p96
S'study'
p97
S'NN'
p98
S'I-NP'
p99
g5
tp100
a(S'aimed'
p101
S'aim'
p102
S'VBD'
p103
S'B-VP'
p104
g5
tp105
a(S'to'
p106
S'to'
p107
S'TO'
p108
S'I-VP'
p109
g5
tp110
a(S'investigate'
p111
S'investigate'
p112
S'VB'
p113
S'I-VP'
p114
g5
tp115
a(S'the'
p116
S'the'
p117
S'DT'
p118
S'B-NP'
p119
g5
tp120
a(S'effects'
p121
S'effect'
p122
S'NNS'
p123
S'I-NP'
p124
g5
tp125
a(S'of'
p126
S'of'
p127
S'IN'
p128
S'B-PP'
p129
g5
tp130
a(S'training'
p131
S'training'
p132
S'NN'
p133
S'B-NP'
p134
g5
tp135
a(S'on'
p136
S'on'
p137
S'IN'
p138
S'B-PP'
p139
g5
tp140
a(S'health-related'
p141
S'health-related'
p142
S'JJ'
p143
S'B-NP'
p144
g5
tp145
a(S'quality'
p146
S'quality'
p147
S'NN'
p148
S'I-NP'
p149
g5
tp150
a(S'of'
p151
S'of'
p152
S'IN'
p153
S'B-PP'
p154
g5
tp155
a(S'life'
p156
S'life'
p157
S'NN'
p158
S'B-NP'
p159
g5
tp160
a(S'('
p161
g161
g161
g5
g5
tp162
a(S'HRQoL'
p163
S'HRQoL'
p164
S'NN'
p165
S'B-NP'
p166
g5
tp167
a(S')'
p168
g168
g168
g5
g5
tp169
a(g52
g52
g52
g5
g5
tp170
a(S'body'
p171
S'body'
p172
S'NN'
p173
S'B-NP'
p174
g5
tp175
a(S'composition'
p176
S'composition'
p177
S'NN'
p178
S'I-NP'
p179
g5
tp180
a(g52
g52
g52
g5
g5
tp181
a(S'and'
p182
S'and'
p183
S'CC'
p184
g5
g5
tp185
a(S'function'
p186
S'function'
p187
S'NN'
p188
S'B-NP'
p189
g5
tp190
a(S'in'
p191
S'in'
p192
S'IN'
p193
S'B-PP'
p194
g5
tp195
a(S'older'
p196
S'old'
p197
S'JJR'
p198
S'B-NP'
p199
g5
tp200
a(S'adults.'
p201
S'adults.'
p202
S'JJ'
p203
S'I-NP'
p204
g5
tp205
a(S'Fifty'
p206
S'Fifty'
p207
S'NNP'
p208
S'I-NP'
p209
g5
tp210
a(S'participants'
p211
S'participant'
p212
S'NNS'
p213
S'I-NP'
p214
g5
tp215
a(S'were'
p216
S'be'
p217
S'VBD'
p218
S'B-VP'
p219
g5
tp220
a(S'randomized'
p221
S'randomize'
p222
S'VBN'
p223
S'I-VP'
p224
g5
tp225
a(S'into'
p226
S'into'
p227
S'IN'
p228
S'B-PP'
p229
g5
tp230
a(S'aerobic'
p231
S'aerobic'
p232
S'JJ'
p233
S'B-NP'
p234
g5
tp235
a(S'training'
p236
S'training'
p237
S'NN'
p238
S'I-NP'
p239
g5
tp240
a(g161
g161
g161
g5
g5
tp241
a(S'AT'
p242
S'AT'
p243
S'NN'
p244
S'B-NP'
p245
g5
tp246
a(S'--'
p247
S'--'
p248
S':'
p249
g5
g5
tp250
a(S'70'
p251
S'70'
p252
S'CD'
p253
S'B-NP'
p254
g5
tp255
a(S'%'
p256
g256
S'NN'
p257
S'I-NP'
p258
g5
tp259
a(S'-80'
p260
S'-80'
p261
S'CD'
p262
S'B-NP'
p263
g5
tp264
a(g256
g256
S'NN'
p265
S'I-NP'
p266
g5
tp267
a(S'HR'
p268
S'HR'
p269
S'NN'
p270
S'I-NP'
p271
g5
tp272
a(S'reserve'
p273
S'reserve'
p274
S'NN'
p275
S'I-NP'
p276
g5
tp277
a(g168
g168
g168
g5
g5
tp278
a(g52
g52
g52
g5
g5
tp279
a(S'resistance'
p280
S'resistance'
p281
S'NN'
p282
S'B-NP'
p283
g5
tp284
a(S'training'
p285
S'training'
p286
S'NN'
p287
S'I-NP'
p288
g5
tp289
a(g161
g161
g161
g5
g5
tp290
a(S'RT'
p291
S'RT'
p292
S'NN'
p293
S'B-NP'
p294
g5
tp295
a(S'--'
p296
S'--'
p297
g249
g5
g5
tp298
a(S'80'
p299
S'80'
p300
S'CD'
p301
S'B-NP'
p302
g5
tp303
a(g256
g256
S'NN'
p304
S'I-NP'
p305
g5
tp306
a(S'1RM'
p307
S'1RM'
p308
S'NN'
p309
S'I-NP'
p310
g5
tp311
a(g168
g168
g168
g5
g5
tp312
a(g52
g52
g52
g5
g5
tp313
a(S'or'
p314
S'or'
p315
S'CC'
p316
g5
g5
tp317
a(S'controls.'
p318
S'controls.'
p319
S'VB'
p320
S'B-VP'
p321
g5
tp322
a(S'They'
p323
S'They'
p324
S'PRP'
p325
S'B-NP'
p326
g5
tp327
a(S'had'
p328
S'have'
p329
S'VBD'
p330
S'B-VP'
p331
g5
tp332
a(S'HRQoL'
p333
S'HRQoL'
p334
S'NN'
p335
S'B-NP'
p336
g5
tp337
a(g52
g52
g52
g5
g5
tp338
a(S'body'
p339
S'body'
p340
S'NN'
p341
S'B-NP'
p342
g5
tp343
a(S'composition'
p344
S'composition'
p345
S'NN'
p346
S'I-NP'
p347
g5
tp348
a(g52
g52
g52
g5
g5
tp349
a(S'and'
p350
S'and'
p351
S'CC'
p352
g5
g5
tp353
a(S'function'
p354
S'function'
p355
S'NN'
p356
S'B-NP'
p357
g5
tp358
a(S'assessed'
p359
S'assess'
p360
S'VBN'
p361
S'B-VP'
p362
g5
tp363
a(S'before'
p364
S'before'
p365
S'IN'
p366
S'B-PP'
p367
g5
tp368
a(S'and'
p369
S'and'
p370
S'CC'
p371
S'I-PP'
p372
g5
tp373
a(S'after'
p374
S'after'
p375
S'IN'
p376
S'I-PP'
p377
g5
tp378
a(S'8'
p379
g379
S'CD'
p380
S'B-NP'
p381
g5
tp382
a(S'months.'
p383
S'months.'
p384
S'NN'
p385
S'I-NP'
p386
g5
tp387
a(S'Training'
p388
S'Training'
p389
S'NN'
p390
S'I-NP'
p391
g5
tp392
a(S'groups'
p393
S'group'
p394
S'NNS'
p395
S'I-NP'
p396
g5
tp397
a(S'reduced'
p398
S'reduce'
p399
S'VBD'
p400
S'B-VP'
p401
g5
tp402
a(S'body'
p403
S'body'
p404
S'NN'
p405
S'B-NP'
p406
g5
tp407
a(S'fat'
p408
S'fat'
p409
S'NN'
p410
S'I-NP'
p411
g5
tp412
a(g52
g52
g52
g5
g5
tp413
a(S'increased'
p414
S'increase'
p415
S'VBD'
p416
S'B-VP'
p417
g5
tp418
a(S'performance'
p419
S'performance'
p420
S'NN'
p421
S'B-NP'
p422
g5
tp423
a(S'in'
p424
S'in'
p425
S'IN'
p426
S'B-PP'
p427
g5
tp428
a(S'the'
p429
S'the'
p430
S'DT'
p431
S'B-NP'
p432
g5
tp433
a(S'stair'
p434
S'stair'
p435
S'NN'
p436
S'I-NP'
p437
g5
tp438
a(S'ascent'
p439
S'ascent'
p440
S'NN'
p441
S'I-NP'
p442
g5
tp443
a(g52
g52
g52
g5
g5
tp444
a(S'8-ft'
p445
S'8-ft'
p446
S'JJ'
p447
S'B-NP'
p448
g5
tp449
a(S'up-and-go'
p450
S'up-and-go'
p451
S'NN'
p452
S'I-NP'
p453
g5
tp454
a(S'and'
p455
S'and'
p456
S'CC'
p457
g5
g5
tp458
a(S'sit-to-stand'
p459
S'sit-to-stand'
p460
S'JJ'
p461
S'B-NP'
p462
g5
tp463
a(S'five-times'
p464
S'five-times'
p465
S'JJ'
p466
S'I-NP'
p467
g5
tp468
a(S'tests'
p469
S'test'
p470
S'NNS'
p471
S'I-NP'
p472
g5
tp473
a(g52
g52
g52
g5
g5
tp474
a(S'and'
p475
S'and'
p476
S'CC'
p477
g5
g5
tp478
a(S'improved'
p479
S'improve'
p480
S'VBD'
p481
S'B-VP'
p482
g5
tp483
a(S'their'
p484
S'their'
p485
S'PRP$'
p486
S'B-NP'
p487
g5
tp488
a(S'physical'
p489
S'physical'
p490
S'JJ'
p491
S'I-NP'
p492
g5
tp493
a(S'component'
p494
S'component'
p495
S'NN'
p496
S'I-NP'
p497
g5
tp498
a(S'score'
p499
S'score'
p500
S'NN'
p501
S'I-NP'
p502
g5
tp503
a(g161
g161
g161
g5
g5
tp504
a(S'PCS'
p505
S'PCS'
p506
S'NN'
p507
S'B-NP'
p508
g5
tp509
a(S';'
p510
g510
g249
g5
g5
tp511
a(S'p'
p512
g512
S'NN'
p513
S'B-NP'
p514
g5
tp515
a(S'\xe2\x89\xa4'
p516
S'\xe2\x89\xa4'
p517
S'NN'
p518
S'I-NP'
p519
g5
tp520
a(S'.03'
p521
S'.03'
p522
S'CD'
p523
S'I-NP'
p524
g5
tp525
a(g168
g168
g168
g5
g5
tp526
a(g89
g89
g89
g5
g5
tp527
a(S'AT'
p528
S'AT'
p529
S'NN'
p530
S'B-NP'
p531
g5
tp532
a(S'increased'
p533
S'increase'
p534
S'VBD'
p535
S'B-VP'
p536
g5
tp537
a(S'performance'
p538
S'performance'
p539
S'NN'
p540
S'B-NP'
p541
g5
tp542
a(S'in'
p543
S'in'
p544
S'IN'
p545
S'B-PP'
p546
g5
tp547
a(S'the'
p548
S'the'
p549
S'DT'
p550
S'B-NP'
p551
g5
tp552
a(S'6MWT'
p553
S'6MWT'
p554
S'NN'
p555
S'I-NP'
p556
g5
tp557
a(S'test'
p558
S'test'
p559
S'NN'
p560
S'I-NP'
p561
g5
tp562
a(g52
g52
g52
g5
g5
tp563
a(S'and'
p564
S'and'
p565
S'CC'
p566
g5
g5
tp567
a(S'improved'
p568
S'improve'
p569
S'VBN'
p570
S'B-NP'
p571
g5
tp572
a(S'general'
p573
S'general'
p574
S'JJ'
p575
S'I-NP'
p576
g5
tp577
a(S'and'
p578
S'and'
p579
S'CC'
p580
S'I-NP'
p581
g5
tp582
a(S'mental'
p583
S'mental'
p584
S'JJ'
p585
S'I-NP'
p586
S'B-protein'
p587
tp588
a(S'health'
p589
S'health'
p590
S'NN'
p591
S'I-NP'
p592
S'I-protein'
p593
tp594
a(g161
g161
g161
g5
S'I-protein'
p595
tp596
a(S'MH'
p597
S'MH'
p598
S'NN'
p599
S'B-NP'
p600
S'I-protein'
p601
tp602
a(g168
g168
g168
g5
S'I-protein'
p603
tp604
a(S'domains'
p605
S'domain'
p606
S'NNS'
p607
S'B-NP'
p608
S'I-protein'
p609
tp610
a(S'when'
p611
S'when'
p612
S'WRB'
p613
S'B-ADVP'
p614
g5
tp615
a(S'compared'
p616
S'compare'
p617
S'VBN'
p618
S'B-PP'
p619
g5
tp620
a(S'to'
p621
S'to'
p622
S'TO'
p623
S'B-PP'
p624
g5
tp625
a(S'controls'
p626
S'control'
p627
S'NNS'
p628
S'B-NP'
p629
g5
tp630
a(g161
g161
g161
g5
g5
tp631
a(g512
g512
S'NN'
p632
S'B-NP'
p633
g5
tp634
a(S'<'
p635
g635
S'JJR'
p636
S'B-NP'
p637
g5
tp638
a(S'.01'
p639
S'.01'
p640
S'CD'
p641
S'I-NP'
p642
g5
tp643
a(g168
g168
g168
g5
g5
tp644
a(g89
g89
g89
g5
g5
tp645
a(S'Finally'
p646
S'Finally'
p647
S'RB'
p648
S'B-ADVP'
p649
g5
tp650
a(g52
g52
g52
g5
g5
tp651
a(S'changes'
p652
S'change'
p653
S'NNS'
p654
S'B-NP'
p655
g5
tp656
a(S'in'
p657
S'in'
p658
S'IN'
p659
S'B-PP'
p660
g5
tp661
a(S'stair'
p662
S'stair'
p663
S'NN'
p664
S'B-NP'
p665
g5
tp666
a(S'ascent'
p667
S'ascent'
p668
S'NN'
p669
S'I-NP'
p670
g5
tp671
a(S'were'
p672
S'be'
p673
S'VBD'
p674
S'B-VP'
p675
g5
tp676
a(S'associated'
p677
S'associate'
p678
S'VBN'
p679
S'I-VP'
p680
g5
tp681
a(S'with'
p682
S'with'
p683
S'IN'
p684
S'B-PP'
p685
g5
tp686
a(S'changes'
p687
S'change'
p688
S'NNS'
p689
S'B-NP'
p690
g5
tp691
a(S'in'
p692
S'in'
p693
S'IN'
p694
S'B-PP'
p695
g5
tp696
a(S'bodily'
p697
S'bodily'
p698
S'JJ'
p699
S'B-NP'
p700
g5
tp701
a(S'pain'
p702
S'pain'
p703
S'NN'
p704
S'I-NP'
p705
g5
tp706
a(g52
g52
g52
g5
g5
tp707
a(S'MH'
p708
S'MH'
p709
S'NN'
p710
S'B-NP'
p711
g5
tp712
a(g52
g52
g52
g5
g5
tp713
a(S'and'
p714
S'and'
p715
S'CC'
p716
g5
g5
tp717
a(S'mental'
p718
S'mental'
p719
S'JJ'
p720
S'B-NP'
p721
g5
tp722
a(S'component'
p723
S'component'
p724
S'NN'
p725
S'I-NP'
p726
g5
tp727
a(S'score'
p728
S'score'
p729
S'NN'
p730
S'I-NP'
p731
g5
tp732
a(g161
g161
g161
g5
g5
tp733
a(g512
g512
S'NN'
p734
S'B-NP'
p735
g5
tp736
a(S'\xe2\x89\xa4'
p737
S'\xe2\x89\xa4'
p738
S'NN'
p739
S'I-NP'
p740
g5
tp741
a(S'.04'
p742
S'.04'
p743
S'CD'
p744
S'I-NP'
p745
g5
tp746
a(g168
g168
g168
g5
g5
tp747
a(g52
g52
g52
g5
g5
tp748
a(S'while'
p749
S'while'
p750
S'IN'
p751
S'B-SBAR'
p752
g5
tp753
a(S'changes'
p754
S'change'
p755
S'NNS'
p756
S'B-NP'
p757
g5
tp758
a(S'in'
p759
S'in'
p760
S'IN'
p761
S'B-PP'
p762
g5
tp763
a(S'handgrip'
p764
S'handgrip'
p765
S'NN'
p766
S'B-NP'
p767
g5
tp768
a(S'strength'
p769
S'strength'
p770
S'NN'
p771
S'I-NP'
p772
g5
tp773
a(S'were'
p774
S'be'
p775
S'VBD'
p776
S'B-VP'
p777
g5
tp778
a(S'associated'
p779
S'associate'
p780
S'VBN'
p781
S'I-VP'
p782
g5
tp783
a(S'with'
p784
S'with'
p785
S'IN'
p786
S'B-PP'
p787
g5
tp788
a(S'changes'
p789
S'change'
p790
S'NNS'
p791
S'B-NP'
p792
g5
tp793
a(S'in'
p794
S'in'
p795
S'IN'
p796
S'B-PP'
p797
g5
tp798
a(S'physical'
p799
S'physical'
p800
S'JJ'
p801
S'B-NP'
p802
g5
tp803
a(S'role'
p804
S'role'
p805
S'NN'
p806
S'I-NP'
p807
g5
tp808
a(S'and'
p809
S'and'
p810
S'CC'
p811
g5
g5
tp812
a(S'MH'
p813
S'MH'
p814
S'NN'
p815
S'B-NP'
p816
g5
tp817
a(g161
g161
g161
g5
g5
tp818
a(g512
g512
S'NN'
p819
S'B-NP'
p820
g5
tp821
a(S'='
p822
g822
S'SYM'
p823
S'B-VP'
p824
g5
tp825
a(S'.03'
p826
S'.03'
p827
S'CD'
p828
S'B-NP'
p829
g5
tp830
a(g168
g168
g168
g5
g5
tp831
a(g89
g89
g89
g5
g5
tp832
a(S'AT'
p833
S'AT'
p834
S'NN'
p835
S'B-NP'
p836
g5
tp837
a(S'and'
p838
S'and'
p839
S'CC'
p840
S'I-NP'
p841
g5
tp842
a(S'RT'
p843
S'RT'
p844
S'NN'
p845
S'I-NP'
p846
g5
tp847
a(S'were'
p848
S'be'
p849
S'VBD'
p850
S'B-VP'
p851
g5
tp852
a(S'effective'
p853
S'effective'
p854
S'JJ'
p855
S'B-NP'
p856
g5
tp857
a(S'interventions'
p858
S'intervention'
p859
S'NNS'
p860
S'I-NP'
p861
g5
tp862
a(S'for'
p863
S'for'
p864
S'IN'
p865
S'B-PP'
p866
g5
tp867
a(S'decreasing'
p868
S'decrease'
p869
S'VBG'
p870
S'B-VP'
p871
g5
tp872
a(S'body'
p873
S'body'
p874
S'NN'
p875
S'B-NP'
p876
g5
tp877
a(S'fat'
p878
S'fat'
p879
S'NN'
p880
S'I-NP'
p881
g5
tp882
a(S'and'
p883
S'and'
p884
S'CC'
p885
g5
g5
tp886
a(S'improving'
p887
S'improve'
p888
S'VBG'
p889
S'B-VP'
p890
g5
tp891
a(S'functionality'
p892
S'functionality'
p893
S'NN'
p894
S'B-NP'
p895
g5
tp896
a(S'and'
p897
S'and'
p898
S'CC'
p899
g5
g5
tp900
a(S'the'
p901
S'the'
p902
S'DT'
p903
S'B-NP'
p904
g5
tp905
a(S'PCS'
p906
S'PCS'
p907
S'NN'
p908
S'I-NP'
p909
S'B-protein'
p910
tp911
a(S'in'
p912
S'in'
p913
S'IN'
p914
S'B-PP'
p915
g5
tp916
a(S'older'
p917
S'old'
p918
S'JJR'
p919
S'B-NP'
p920
g5
tp921
a(S'adults'
p922
S'adult'
p923
S'NNS'
p924
S'I-NP'
p925
g5
tp926
a(g89
g89
g89
g5
g5
tp927
a.