(lp0
(S'The'
p1
S'The'
p2
S'DT'
p3
S'B-NP'
p4
S'O'
p5
tp6
a(S'Toronto'
p7
S'Toronto'
p8
S'NNP'
p9
S'I-NP'
p10
g5
tp11
a(S'prehospital'
p12
S'prehospital'
p13
S'NN'
p14
S'I-NP'
p15
g5
tp16
a(S'hypertonic'
p17
S'hypertonic'
p18
S'JJ'
p19
S'I-NP'
p20
g5
tp21
a(S'resuscitation'
p22
S'resuscitation'
p23
S'NN'
p24
S'I-NP'
p25
g5
tp26
a(S'--'
p27
S'--'
p28
S':'
p29
g5
g5
tp30
a(S'head'
p31
S'head'
p32
S'NN'
p33
S'B-NP'
p34
g5
tp35
a(S'injury'
p36
S'injury'
p37
S'NN'
p38
S'I-NP'
p39
g5
tp40
a(S'and'
p41
S'and'
p42
S'CC'
p43
g5
g5
tp44
a(S'multiorgan'
p45
S'multiorgan'
p46
S'JJ'
p47
S'B-NP'
p48
g5
tp49
a(S'dysfunction'
p50
S'dysfunction'
p51
S'NN'
p52
S'I-NP'
p53
g5
tp54
a(S'trial'
p55
S'trial'
p56
S'NN'
p57
S'I-NP'
p58
g5
tp59
a(g29
g29
g29
g5
g5
tp60
a(S'feasibility'
p61
S'feasibility'
p62
S'NN'
p63
S'B-NP'
p64
g5
tp65
a(S'study'
p66
S'study'
p67
S'NN'
p68
S'I-NP'
p69
g5
tp70
a(S'of'
p71
S'of'
p72
S'IN'
p73
S'B-PP'
p74
g5
tp75
a(S'a'
p76
g76
S'DT'
p77
S'B-NP'
p78
g5
tp79
a(S'randomized'
p80
S'randomize'
p81
S'VBN'
p82
S'I-NP'
p83
g5
tp84
a(S'controlled'
p85
S'control'
p86
S'VBN'
p87
S'I-NP'
p88
g5
tp89
a(S'trial'
p90
S'trial'
p91
S'NN'
p92
S'I-NP'
p93
g5
tp94
a(S'.'
p95
g95
g95
g5
g5
tp96
a(S'OBJECTIVE'
p97
S'OBJECTIVE'
p98
S'NN'
p99
S'B-NP'
p100
g5
tp101
a(S'The'
p102
S'The'
p103
S'DT'
p104
S'B-NP'
p105
g5
tp106
a(S'aim'
p107
S'aim'
p108
S'NN'
p109
S'I-NP'
p110
g5
tp111
a(S'of'
p112
S'of'
p113
S'IN'
p114
S'B-PP'
p115
g5
tp116
a(S'the'
p117
S'the'
p118
S'DT'
p119
S'B-NP'
p120
g5
tp121
a(S'study'
p122
S'study'
p123
S'NN'
p124
S'I-NP'
p125
g5
tp126
a(S'was'
p127
S'be'
p128
S'VBD'
p129
S'B-VP'
p130
g5
tp131
a(S'to'
p132
S'to'
p133
S'TO'
p134
S'B-VP'
p135
g5
tp136
a(S'evaluate'
p137
S'evaluate'
p138
S'VB'
p139
S'I-VP'
p140
g5
tp141
a(S'the'
p142
S'the'
p143
S'DT'
p144
S'B-NP'
p145
g5
tp146
a(S'feasibility'
p147
S'feasibility'
p148
S'NN'
p149
S'I-NP'
p150
g5
tp151
a(S'of'
p152
S'of'
p153
S'IN'
p154
S'B-PP'
p155
g5
tp156
a(g76
g76
S'DT'
p157
S'B-NP'
p158
g5
tp159
a(S'prehospital'
p160
S'prehospital'
p161
S'NN'
p162
S'I-NP'
p163
g5
tp164
a(S'trial'
p165
S'trial'
p166
S'NN'
p167
S'I-NP'
p168
g5
tp169
a(S'comparing'
p170
S'compare'
p171
S'VBG'
p172
S'B-VP'
p173
g5
tp174
a(S'hypertonic'
p175
S'hypertonic'
p176
S'JJ'
p177
S'B-NP'
p178
g5
tp179
a(S'saline'
p180
S'saline'
p181
S'NN'
p182
S'I-NP'
p183
g5
tp184
a(S'and'
p185
S'and'
p186
S'CC'
p187
S'I-NP'
p188
g5
tp189
a(S'dextran'
p190
S'dextran'
p191
S'NN'
p192
S'I-NP'
p193
g5
tp194
a(S'('
p195
g195
g195
g5
g5
tp196
a(S'HSD'
p197
S'HSD'
p198
S'NN'
p199
S'B-NP'
p200
g5
tp201
a(S')'
p202
g202
g202
g5
g5
tp203
a(S'with'
p204
S'with'
p205
S'IN'
p206
S'B-PP'
p207
g5
tp208
a(S'normal'
p209
S'normal'
p210
S'JJ'
p211
S'B-NP'
p212
g5
tp213
a(S'saline'
p214
S'saline'
p215
S'NN'
p216
S'I-NP'
p217
g5
tp218
a(g195
g195
g195
g5
g5
tp219
a(S'NS'
p220
S'NS'
p221
S'NN'
p222
S'B-NP'
p223
g5
tp224
a(g202
g202
g202
g5
g5
tp225
a(S'in'
p226
S'in'
p227
S'IN'
p228
S'B-PP'
p229
g5
tp230
a(S'blunt'
p231
S'blunt'
p232
S'NN'
p233
S'B-NP'
p234
g5
tp235
a(S'head'
p236
S'head'
p237
S'NN'
p238
S'I-NP'
p239
g5
tp240
a(S'injury'
p241
S'injury'
p242
S'NN'
p243
S'B-NP'
p244
g5
tp245
a(S'patients'
p246
S'patient'
p247
S'NNS'
p248
S'I-NP'
p249
g5
tp250
a(g95
g95
g95
g5
g5
tp251
a(S'DESIGN'
p252
S'DESIGN'
p253
S'NN'
p254
S'B-NP'
p255
g5
tp256
a(S'The'
p257
S'The'
p258
S'DT'
p259
S'B-NP'
p260
g5
tp261
a(S'study'
p262
S'study'
p263
S'NN'
p264
S'I-NP'
p265
g5
tp266
a(S'used'
p267
S'use'
p268
S'VBD'
p269
S'B-VP'
p270
g5
tp271
a(g76
g76
S'DT'
p272
S'B-NP'
p273
g5
tp274
a(S'double'
p275
S'double'
p276
S'JJ'
p277
S'I-NP'
p278
g5
tp279
a(S'blind'
p280
S'blind'
p281
S'JJ'
p282
S'I-NP'
p283
g5
tp284
a(S'randomized'
p285
S'randomize'
p286
S'VBN'
p287
S'I-NP'
p288
g5
tp289
a(S'trial'
p290
S'trial'
p291
S'NN'
p292
S'I-NP'
p293
g5
tp294
a(g95
g95
g95
g5
g5
tp295
a(S'SETTING'
p296
S'SETTING'
p297
S'VBG'
p298
S'B-VP'
p299
g5
tp300
a(S'The'
p301
S'The'
p302
S'DT'
p303
S'B-NP'
p304
g5
tp305
a(S'study'
p306
S'study'
p307
S'NN'
p308
S'I-NP'
p309
g5
tp310
a(S'was'
p311
S'be'
p312
S'VBD'
p313
S'B-VP'
p314
g5
tp315
a(S'conducted'
p316
S'conduct'
p317
S'VBN'
p318
S'I-VP'
p319
g5
tp320
a(S'in'
p321
S'in'
p322
S'IN'
p323
S'B-PP'
p324
g5
tp325
a(S'air'
p326
S'air'
p327
S'NN'
p328
S'B-NP'
p329
g5
tp330
a(S'and'
p331
S'and'
p332
S'CC'
p333
S'I-NP'
p334
g5
tp335
a(S'land'
p336
S'land'
p337
S'NN'
p338
S'I-NP'
p339
g5
tp340
a(S'emergency'
p341
S'emergency'
p342
S'NN'
p343
S'I-NP'
p344
g5
tp345
a(S'medical'
p346
S'medical'
p347
S'JJ'
p348
S'I-NP'
p349
g5
tp350
a(S'services'
p351
S'service'
p352
S'NNS'
p353
S'I-NP'
p354
g5
tp355
a(S'and'
p356
S'and'
p357
S'CC'
p358
g5
g5
tp359
a(S'2'
p360
g360
S'CD'
p361
S'B-NP'
p362
g5
tp363
a(S'trauma'
p364
S'trauma'
p365
S'NN'
p366
S'I-NP'
p367
g5
tp368
a(S'centers'
p369
S'center'
p370
S'NNS'
p371
S'I-NP'
p372
g5
tp373
a(S'serving'
p374
S'serve'
p375
S'VBG'
p376
S'B-VP'
p377
g5
tp378
a(g76
g76
S'DT'
p379
S'B-NP'
p380
g5
tp381
a(S'population'
p382
S'population'
p383
S'NN'
p384
S'I-NP'
p385
g5
tp386
a(S'of'
p387
S'of'
p388
S'IN'
p389
S'B-PP'
p390
g5
tp391
a(S'4'
p392
g392
S'CD'
p393
S'B-NP'
p394
g5
tp395
a(S'million'
p396
S'million'
p397
S'CD'
p398
S'I-NP'
p399
g5
tp400
a(S'people'
p401
S'people'
p402
S'NNS'
p403
S'I-NP'
p404
g5
tp405
a(g95
g95
g95
g5
g5
tp406
a(S'PATIENTS'
p407
S'PATIENTS'
p408
S'NNS'
p409
S'B-NP'
p410
g5
tp411
a(S'The'
p412
S'The'
p413
S'DT'
p414
S'B-NP'
p415
g5
tp416
a(S'study'
p417
S'study'
p418
S'NN'
p419
S'I-NP'
p420
g5
tp421
a(S'population'
p422
S'population'
p423
S'NN'
p424
S'I-NP'
p425
g5
tp426
a(S'consisted'
p427
S'consist'
p428
S'VBD'
p429
S'B-VP'
p430
g5
tp431
a(S'of'
p432
S'of'
p433
S'IN'
p434
S'B-PP'
p435
g5
tp436
a(S'head'
p437
S'head'
p438
S'NN'
p439
S'B-NP'
p440
g5
tp441
a(S'injured'
p442
S'injure'
p443
S'VBN'
p444
S'B-VP'
p445
g5
tp446
a(S','
p447
g447
g447
g5
g5
tp448
a(S'blunt'
p449
S'blunt'
p450
S'NN'
p451
S'B-NP'
p452
g5
tp453
a(S'trauma'
p454
S'trauma'
p455
S'NN'
p456
S'I-NP'
p457
g5
tp458
a(S'adult'
p459
S'adult'
p460
S'JJ'
p461
S'B-NP'
p462
g5
tp463
a(S'patients'
p464
S'patient'
p465
S'NNS'
p466
S'I-NP'
p467
g5
tp468
a(S'with'
p469
S'with'
p470
S'IN'
p471
S'B-PP'
p472
g5
tp473
a(g76
g76
S'DT'
p474
S'B-NP'
p475
g5
tp476
a(S'Glasgow'
p477
S'Glasgow'
p478
S'NNP'
p479
S'I-NP'
p480
g5
tp481
a(S'Coma'
p482
S'Coma'
p483
S'NNP'
p484
S'I-NP'
p485
g5
tp486
a(S'Scale'
p487
S'Scale'
p488
S'NNP'
p489
S'I-NP'
p490
g5
tp491
a(S'of'
p492
S'of'
p493
S'IN'
p494
S'B-PP'
p495
g5
tp496
a(S'lower'
p497
S'low'
p498
S'JJR'
p499
S'B-NP'
p500
g5
tp501
a(S'than'
p502
S'than'
p503
S'IN'
p504
S'I-NP'
p505
g5
tp506
a(S'9'
p507
g507
S'CD'
p508
S'I-NP'
p509
g5
tp510
a(g95
g95
g95
g5
g5
tp511
a(S'INTERVENTIONS'
p512
S'INTERVENTIONS'
p513
S'NNS'
p514
S'B-NP'
p515
g5
tp516
a(S'We'
p517
S'We'
p518
S'PRP'
p519
S'B-NP'
p520
g5
tp521
a(S'used'
p522
S'use'
p523
S'VBD'
p524
S'B-VP'
p525
g5
tp526
a(S'250'
p527
S'250'
p528
S'CD'
p529
S'B-NP'
p530
g5
tp531
a(S'mL'
p532
S'mL'
p533
S'NN'
p534
S'I-NP'
p535
g5
tp536
a(S'of'
p537
S'of'
p538
S'IN'
p539
S'B-PP'
p540
g5
tp541
a(S'HSD'
p542
S'HSD'
p543
S'NN'
p544
S'B-NP'
p545
S'B-protein'
p546
tp547
a(S'vs'
p548
S'vs'
p549
S'IN'
p550
S'B-PP'
p551
g5
tp552
a(S'NS'
p553
S'NS'
p554
S'NN'
p555
S'B-NP'
p556
g5
tp557
a(S'given'
p558
S'give'
p559
S'VBN'
p560
S'B-VP'
p561
g5
tp562
a(S'within'
p563
S'within'
p564
S'IN'
p565
S'B-PP'
p566
g5
tp567
a(g392
g392
S'CD'
p568
S'B-NP'
p569
g5
tp570
a(S'hours'
p571
S'hour'
p572
S'NNS'
p573
S'I-NP'
p574
g5
tp575
a(S'of'
p576
S'of'
p577
S'IN'
p578
S'B-PP'
p579
g5
tp580
a(S'the'
p581
S'the'
p582
S'DT'
p583
S'B-NP'
p584
g5
tp585
a(S'accident'
p586
S'accident'
p587
S'NN'
p588
S'I-NP'
p589
g5
tp590
a(g95
g95
g95
g5
g5
tp591
a(S'MEASUREMENTS'
p592
S'MEASUREMENTS'
p593
S'NNS'
p594
S'B-NP'
p595
g5
tp596
a(S'The'
p597
S'The'
p598
S'DT'
p599
S'B-NP'
p600
g5
tp601
a(S'specific'
p602
S'specific'
p603
S'JJ'
p604
S'I-NP'
p605
g5
tp606
a(S'objectives'
p607
S'objective'
p608
S'NNS'
p609
S'I-NP'
p610
g5
tp611
a(S'were'
p612
S'be'
p613
S'VBD'
p614
S'B-VP'
p615
g5
tp616
a(S'to'
p617
S'to'
p618
S'TO'
p619
S'I-VP'
p620
g5
tp621
a(S'assess'
p622
S'assess'
p623
S'VB'
p624
S'I-VP'
p625
g5
tp626
a(S'protocol-related'
p627
S'protocol-related'
p628
S'JJ'
p629
S'B-NP'
p630
g5
tp631
a(S'logistical'
p632
S'logistical'
p633
S'JJ'
p634
S'I-NP'
p635
g5
tp636
a(S'issues'
p637
S'issue'
p638
S'NNS'
p639
S'I-NP'
p640
g5
tp641
a(g447
g447
g447
g5
g5
tp642
a(S'randomization'
p643
S'randomization'
p644
S'NN'
p645
S'B-NP'
p646
g5
tp647
a(g447
g447
g447
g5
g5
tp648
a(S'HSD'
p649
S'HSD'
p650
S'NN'
p651
S'B-NP'
p652
g5
tp653
a(S'safety'
p654
S'safety'
p655
S'NN'
p656
S'I-NP'
p657
g5
tp658
a(g447
g447
g447
g5
g5
tp659
a(S'and'
p660
S'and'
p661
S'CC'
p662
g5
g5
tp663
a(S'follow'
p664
S'follow'
p665
S'VB'
p666
S'B-VP'
p667
g5
tp668
a(S'up'
p669
S'up'
p670
S'RP'
p671
S'B-PRT'
p672
g5
tp673
a(S'rates'
p674
S'rate'
p675
S'NNS'
p676
S'B-NP'
p677
g5
tp678
a(S'and'
p679
S'and'
p680
S'CC'
p681
g5
g5
tp682
a(S'to'
p683
S'to'
p684
S'TO'
p685
S'B-VP'
p686
g5
tp687
a(S'obtain'
p688
S'obtain'
p689
S'VB'
p690
S'I-VP'
p691
g5
tp692
a(S'survival'
p693
S'survival'
p694
S'NN'
p695
S'B-NP'
p696
g5
tp697
a(S'and'
p698
S'and'
p699
S'CC'
p700
g5
g5
tp701
a(S'neurocognitive'
p702
S'neurocognitive'
p703
S'JJ'
p704
S'B-NP'
p705
g5
tp706
a(S'end'
p707
S'end'
p708
S'NN'
p709
S'I-NP'
p710
g5
tp711
a(S'point'
p712
S'point'
p713
S'NN'
p714
S'I-NP'
p715
g5
tp716
a(S'estimates'
p717
S'estimate'
p718
S'NNS'
p719
S'I-NP'
p720
g5
tp721
a(g95
g95
g95
g5
g5
tp722
a(S'MAIN'
p723
S'MAIN'
p724
S'NN'
p725
S'B-NP'
p726
g5
tp727
a(S'RESULTS'
p728
S'RESULTS'
p729
S'NNS'
p730
S'I-NP'
p731
g5
tp732
a(S'Of'
p733
S'Of'
p734
S'IN'
p735
S'B-PP'
p736
g5
tp737
a(S'132'
p738
S'132'
p739
S'CD'
p740
S'B-NP'
p741
g5
tp742
a(S'eligible'
p743
S'eligible'
p744
S'JJ'
p745
S'I-NP'
p746
g5
tp747
a(S'patients'
p748
S'patient'
p749
S'NNS'
p750
S'I-NP'
p751
g5
tp752
a(g447
g447
g447
g5
g5
tp753
a(S'113'
p754
S'113'
p755
S'CD'
p756
S'B-NP'
p757
g5
tp758
a(S'were'
p759
S'be'
p760
S'VBD'
p761
S'B-VP'
p762
g5
tp763
a(S'randomized.'
p764
S'randomized.'
p765
S'VBN'
p766
S'I-VP'
p767
g5
tp768
a(S'Nineteen'
p769
S'Nineteen'
p770
S'CD'
p771
S'B-NP'
p772
g5
tp773
a(S'eligible'
p774
S'eligible'
p775
S'JJ'
p776
S'I-NP'
p777
g5
tp778
a(S'patients'
p779
S'patient'
p780
S'NNS'
p781
S'I-NP'
p782
g5
tp783
a(S'were'
p784
S'be'
p785
S'VBD'
p786
S'B-VP'
p787
g5
tp788
a(S'missed'
p789
S'miss'
p790
S'VBN'
p791
S'I-VP'
p792
g5
tp793
a(S'because'
p794
S'because'
p795
S'IN'
p796
S'B-PP'
p797
g5
tp798
a(S'of'
p799
S'of'
p800
S'IN'
p801
S'I-PP'
p802
g5
tp803
a(S'lack'
p804
S'lack'
p805
S'NN'
p806
S'B-NP'
p807
g5
tp808
a(S'of'
p809
S'of'
p810
S'IN'
p811
S'B-PP'
p812
g5
tp813
a(S'time'
p814
S'time'
p815
S'NN'
p816
S'B-NP'
p817
g5
tp818
a(g195
g195
g195
g5
g5
tp819
a(g507
g507
S'CD'
p820
S'B-NP'
p821
g5
tp822
a(S'['
p823
g823
g195
g5
g5
tp824
a(S'22'
p825
S'22'
p826
S'CD'
p827
S'B-NP'
p828
g5
tp829
a(S'%'
p830
g830
S'NN'
p831
S'I-NP'
p832
g5
tp833
a(S']'
p834
g834
g202
g5
g5
tp835
a(g202
g202
g202
g5
g5
tp836
a(g447
g447
g447
g5
g5
tp837
a(S'paramedic'
p838
S'paramedic'
p839
S'JJ'
p840
S'B-NP'
p841
g5
tp842
a(S'discretion'
p843
S'discretion'
p844
S'NN'
p845
S'I-NP'
p846
g5
tp847
a(g195
g195
g195
g5
g5
tp848
a(S'3'
p849
g849
S'CD'
p850
S'B-NP'
p851
g5
tp852
a(g823
g823
g195
g5
g5
tp853
a(S'7'
p854
g854
S'CD'
p855
S'B-NP'
p856
g5
tp857
a(g830
g830
S'NN'
p858
S'I-NP'
p859
g5
tp860
a(g834
g834
g202
g5
g5
tp861
a(g202
g202
g202
g5
g5
tp862
a(g447
g447
g447
g5
g5
tp863
a(S'the'
p864
S'the'
p865
S'DT'
p866
S'B-NP'
p867
g5
tp868
a(S'paramedic'
p869
S'paramedic'
p870
S'JJ'
p871
S'I-NP'
p872
g5
tp873
a(S'forgot'
p874
S'forgot'
p875
S'NN'
p876
S'I-NP'
p877
g5
tp878
a(g195
g195
g195
g5
g5
tp879
a(S'6'
p880
g880
S'CD'
p881
S'B-NP'
p882
g5
tp883
a(g823
g823
g195
g5
g5
tp884
a(S'15'
p885
S'15'
p886
S'CD'
p887
S'B-NP'
p888
g5
tp889
a(g830
g830
S'NN'
p890
S'I-NP'
p891
g5
tp892
a(g834
g834
g202
g5
g5
tp893
a(g202
g202
g202
g5
g5
tp894
a(g447
g447
g447
g5
g5
tp895
a(S'and'
p896
S'and'
p897
S'CC'
p898
g5
g5
tp899
a(S'the'
p900
S'the'
p901
S'DT'
p902
S'B-NP'
p903
g5
tp904
a(S'paramedic'
p905
S'paramedic'
p906
S'JJ'
p907
S'I-NP'
p908
g5
tp909
a(S'refused'
p910
S'refuse'
p911
S'VBD'
p912
S'B-VP'
p913
g5
tp914
a(g195
g195
g195
g5
g5
tp915
a(S'1'
p916
g916
S'CD'
p917
S'B-NP'
p918
g5
tp919
a(g823
g823
g195
g5
g5
tp920
a(g360
g360
S'CD'
p921
S'B-NP'
p922
g5
tp923
a(g830
g830
S'NN'
p924
S'I-NP'
p925
g5
tp926
a(g834
g834
g202
g5
g5
tp927
a(g202
g202
g202
g5
g5
tp928
a(g95
g95
g95
g5
g5
tp929
a(S'Randomization'
p930
S'Randomization'
p931
S'NN'
p932
S'B-NP'
p933
g5
tp934
a(S'compliance'
p935
S'compliance'
p936
S'NN'
p937
S'I-NP'
p938
g5
tp939
a(S'was'
p940
S'be'
p941
S'VBD'
p942
S'B-VP'
p943
g5
tp944
a(S'96'
p945
S'96'
p946
S'CD'
p947
S'B-NP'
p948
g5
tp949
a(g830
g830
S'NN'
p950
S'I-NP'
p951
g5
tp952
a(g195
g195
g195
g5
g5
tp953
a(S'109/113'
p954
S'109/113'
p955
S'CD'
p956
S'B-NP'
p957
g5
tp958
a(g202
g202
g202
g5
g5
tp959
a(g95
g95
g95
g5
g5
tp960
a(S'Four'
p961
S'Four'
p962
S'CD'
p963
S'B-NP'
p964
g5
tp965
a(S'randomized'
p966
S'randomize'
p967
S'VBD'
p968
S'B-VP'
p969
g5
tp970
a(S'cases'
p971
S'case'
p972
S'NNS'
p973
S'B-NP'
p974
g5
tp975
a(S'met'
p976
S'meet'
p977
S'VBD'
p978
S'B-VP'
p979
g5
tp980
a(S'exclusion'
p981
S'exclusion'
p982
S'NN'
p983
S'B-NP'
p984
g5
tp985
a(S'criteria'
p986
S'criterion'
p987
S'NNS'
p988
S'I-NP'
p989
g5
tp990
a(g29
g29
g29
g5
g5
tp991
a(S'penetrating'
p992
S'penetrate'
p993
S'VBG'
p994
S'B-VP'
p995
g5
tp996
a(S'trauma'
p997
S'trauma'
p998
S'NN'
p999
S'B-NP'
p1000
g5
tp1001
a(g195
g195
g195
g5
g5
tp1002
a(g916
g916
S'CD'
p1003
S'B-NP'
p1004
g5
tp1005
a(g202
g202
g202
g5
g5
tp1006
a(g447
g447
g447
g5
g5
tp1007
a(S'cardiac'
p1008
S'cardiac'
p1009
S'JJ'
p1010
S'B-NP'
p1011
g5
tp1012
a(S'arrest'
p1013
S'arrest'
p1014
S'NN'
p1015
S'I-NP'
p1016
g5
tp1017
a(g195
g195
g195
g5
g5
tp1018
a(g360
g360
S'CD'
p1019
S'B-NP'
p1020
g5
tp1021
a(g202
g202
g202
g5
g5
tp1022
a(g447
g447
g447
g5
g5
tp1023
a(S'and'
p1024
S'and'
p1025
S'CC'
p1026
g5
g5
tp1027
a(S'fall'
p1028
S'fall'
p1029
S'NN'
p1030
S'B-NP'
p1031
g5
tp1032
a(S'from'
p1033
S'from'
p1034
S'IN'
p1035
S'B-PP'
p1036
g5
tp1037
a(S'standing'
p1038
S'stand'
p1039
S'VBG'
p1040
S'B-VP'
p1041
g5
tp1042
a(g195
g195
g195
g5
g5
tp1043
a(g916
g916
S'CD'
p1044
S'B-NP'
p1045
g5
tp1046
a(g202
g202
g202
g5
g5
tp1047
a(g95
g95
g95
g5
g5
tp1048
a(S'Three'
p1049
S'Three'
p1050
S'CD'
p1051
S'B-NP'
p1052
g5
tp1053
a(S'randomized'
p1054
S'randomize'
p1055
S'VBD'
p1056
S'B-VP'
p1057
g5
tp1058
a(S'patients'
p1059
S'patient'
p1060
S'NNS'
p1061
S'B-NP'
p1062
g5
tp1063
a(S'were'
p1064
S'be'
p1065
S'VBD'
p1066
S'B-VP'
p1067
g5
tp1068
a(S'excluded'
p1069
S'exclude'
p1070
S'VBN'
p1071
S'I-VP'
p1072
g5
tp1073
a(S'from'
p1074
S'from'
p1075
S'IN'
p1076
S'B-PP'
p1077
g5
tp1078
a(S'the'
p1079
S'the'
p1080
S'DT'
p1081
S'B-NP'
p1082
g5
tp1083
a(S'final'
p1084
S'final'
p1085
S'JJ'
p1086
S'I-NP'
p1087
g5
tp1088
a(S'analysis'
p1089
S'analysis'
p1090
S'NN'
p1091
S'I-NP'
p1092
g5
tp1093
a(g29
g29
g29
g5
g5
tp1094
a(g360
g360
S'CD'
p1095
S'B-NP'
p1096
g5
tp1097
a(S'patients'
p1098
S'patient'
p1099
S'NNS'
p1100
S'I-NP'
p1101
g5
tp1102
a(S'received'
p1103
S'receive'
p1104
S'VBD'
p1105
S'B-VP'
p1106
g5
tp1107
a(S'less'
p1108
S'less'
p1109
S'JJR'
p1110
S'B-NP'
p1111
g5
tp1112
a(S'than'
p1113
S'than'
p1114
S'IN'
p1115
S'I-NP'
p1116
g5
tp1117
a(S'50'
p1118
S'50'
p1119
S'CD'
p1120
S'I-NP'
p1121
g5
tp1122
a(S'mL'
p1123
S'mL'
p1124
S'NN'
p1125
S'I-NP'
p1126
g5
tp1127
a(S'of'
p1128
S'of'
p1129
S'IN'
p1130
S'B-PP'
p1131
g5
tp1132
a(S'study'
p1133
S'study'
p1134
S'NN'
p1135
S'B-NP'
p1136
g5
tp1137
a(S'solution'
p1138
S'solution'
p1139
S'NN'
p1140
S'I-NP'
p1141
g5
tp1142
a(S'due'
p1143
S'due'
p1144
S'JJ'
p1145
S'B-ADJP'
p1146
g5
tp1147
a(S'to'
p1148
S'to'
p1149
S'TO'
p1150
S'B-PP'
p1151
g5
tp1152
a(S'an'
p1153
S'an'
p1154
S'DT'
p1155
S'B-NP'
p1156
g5
tp1157
a(S'interstitial'
p1158
S'interstitial'
p1159
S'JJ'
p1160
S'I-NP'
p1161
g5
tp1162
a(S'intravenous'
p1163
S'intravenous'
p1164
S'JJ'
p1165
S'I-NP'
p1166
g5
tp1167
a(S'line'
p1168
S'line'
p1169
S'NN'
p1170
S'I-NP'
p1171
g5
tp1172
a(S'and'
p1173
S'and'
p1174
S'CC'
p1175
g5
g5
tp1176
a(g916
g916
S'CD'
p1177
S'B-NP'
p1178
g5
tp1179
a(S'lost'
p1180
S'lose'
p1181
S'VBN'
p1182
S'I-NP'
p1183
g5
tp1184
a(S'randomization'
p1185
S'randomization'
p1186
S'NN'
p1187
S'I-NP'
p1188
g5
tp1189
a(S'identification.'
p1190
S'identification.'
p1191
S'NN'
p1192
S'I-NP'
p1193
g5
tp1194
a(S'Fifty'
p1195
S'Fifty'
p1196
S'CD'
p1197
S'B-NP'
p1198
g5
tp1199
a(S'patients'
p1200
S'patient'
p1201
S'NNS'
p1202
S'I-NP'
p1203
g5
tp1204
a(g195
g195
g195
g5
g5
tp1205
a(S'47'
p1206
S'47'
p1207
S'CD'
p1208
S'B-NP'
p1209
g5
tp1210
a(g830
g830
S'NN'
p1211
S'I-NP'
p1212
g5
tp1213
a(g202
g202
g202
g5
g5
tp1214
a(S'were'
p1215
S'be'
p1216
S'VBD'
p1217
S'B-VP'
p1218
g5
tp1219
a(S'randomized'
p1220
S'randomize'
p1221
S'VBN'
p1222
S'I-VP'
p1223
g5
tp1224
a(S'to'
p1225
S'to'
p1226
S'TO'
p1227
S'B-PP'
p1228
g5
tp1229
a(S'HSD'
p1230
S'HSD'
p1231
S'NN'
p1232
S'B-NP'
p1233
g5
tp1234
a(S'and'
p1235
S'and'
p1236
S'CC'
p1237
g5
g5
tp1238
a(S'56'
p1239
S'56'
p1240
S'CD'
p1241
S'B-NP'
p1242
g5
tp1243
a(g195
g195
g195
g5
g5
tp1244
a(S'53'
p1245
S'53'
p1246
S'CD'
p1247
S'B-NP'
p1248
g5
tp1249
a(g830
g830
S'NN'
p1250
S'I-NP'
p1251
g5
tp1252
a(g202
g202
g202
g5
g5
tp1253
a(S'to'
p1254
S'to'
p1255
S'TO'
p1256
S'B-PP'
p1257
g5
tp1258
a(S'NS.'
p1259
S'NS.'
p1260
S'NNP'
p1261
S'B-NP'
p1262
g5
tp1263
a(S'Mean'
p1264
S'Mean'
p1265
S'NNP'
p1266
S'I-NP'
p1267
g5
tp1268
a(S'injury'
p1269
S'injury'
p1270
S'NN'
p1271
S'I-NP'
p1272
g5
tp1273
a(S'severity'
p1274
S'severity'
p1275
S'NN'
p1276
S'I-NP'
p1277
g5
tp1278
a(S'score'
p1279
S'score'
p1280
S'NN'
p1281
S'I-NP'
p1282
g5
tp1283
a(S'was'
p1284
S'be'
p1285
S'VBD'
p1286
S'B-VP'
p1287
g5
tp1288
a(S'32.7'
p1289
S'32.7'
p1290
S'CD'
p1291
S'B-NP'
p1292
g5
tp1293
a(S'for'
p1294
S'for'
p1295
S'IN'
p1296
S'B-PP'
p1297
g5
tp1298
a(S'HSD'
p1299
S'HSD'
p1300
S'NN'
p1301
S'B-NP'
p1302
S'B-protein'
p1303
tp1304
a(S'and'
p1305
S'and'
p1306
S'CC'
p1307
g5
g5
tp1308
a(S'32.6'
p1309
S'32.6'
p1310
S'CD'
p1311
S'B-NP'
p1312
g5
tp1313
a(S'for'
p1314
S'for'
p1315
S'IN'
p1316
S'B-PP'
p1317
g5
tp1318
a(S'NS.'
p1319
S'NS.'
p1320
S'NNP'
p1321
S'B-NP'
p1322
g5
tp1323
a(S'There'
p1324
S'There'
p1325
S'EX'
p1326
S'B-NP'
p1327
g5
tp1328
a(S'was'
p1329
S'be'
p1330
S'VBD'
p1331
S'B-VP'
p1332
g5
tp1333
a(S'no'
p1334
S'no'
p1335
S'DT'
p1336
S'B-NP'
p1337
g5
tp1338
a(S'difference'
p1339
S'difference'
p1340
S'NN'
p1341
S'I-NP'
p1342
g5
tp1343
a(S'in'
p1344
S'in'
p1345
S'IN'
p1346
S'B-PP'
p1347
g5
tp1348
a(S'length'
p1349
S'length'
p1350
S'NN'
p1351
S'B-NP'
p1352
g5
tp1353
a(S'of'
p1354
S'of'
p1355
S'IN'
p1356
S'B-PP'
p1357
g5
tp1358
a(S'stay'
p1359
S'stay'
p1360
S'NN'
p1361
S'B-NP'
p1362
g5
tp1363
a(g447
g447
g447
g5
g5
tp1364
a(S'Sequential'
p1365
S'Sequential'
p1366
S'NNP'
p1367
S'B-NP'
p1368
g5
tp1369
a(S'Organ'
p1370
S'Organ'
p1371
S'NNP'
p1372
S'I-NP'
p1373
g5
tp1374
a(S'Failure'
p1375
S'Failure'
p1376
S'NNP'
p1377
S'I-NP'
p1378
g5
tp1379
a(S'Assessment'
p1380
S'Assessment'
p1381
S'NNP'
p1382
S'I-NP'
p1383
g5
tp1384
a(S'maximum'
p1385
S'maximum'
p1386
S'NNP'
p1387
S'I-NP'
p1388
g5
tp1389
a(g447
g447
g447
g5
g5
tp1390
a(S'Multiple'
p1391
S'Multiple'
p1392
S'NNP'
p1393
S'B-NP'
p1394
g5
tp1395
a(S'Organ'
p1396
S'Organ'
p1397
S'NNP'
p1398
S'I-NP'
p1399
g5
tp1400
a(S'Dysfunction'
p1401
S'Dysfunction'
p1402
S'NNP'
p1403
S'I-NP'
p1404
g5
tp1405
a(S'Score'
p1406
S'Score'
p1407
S'NNP'
p1408
S'I-NP'
p1409
g5
tp1410
a(S'maximum'
p1411
S'maximum'
p1412
S'NN'
p1413
S'I-NP'
p1414
g5
tp1415
a(g447
g447
g447
g5
g5
tp1416
a(S'delta'
p1417
S'delta'
p1418
S'NN'
p1419
S'B-NP'
p1420
g5
tp1421
a(S'Multiple'
p1422
S'Multiple'
p1423
S'NNP'
p1424
S'I-NP'
p1425
g5
tp1426
a(S'Organ'
p1427
S'Organ'
p1428
S'NNP'
p1429
S'I-NP'
p1430
g5
tp1431
a(S'Dysfunction'
p1432
S'Dysfunction'
p1433
S'NNP'
p1434
S'I-NP'
p1435
g5
tp1436
a(S'Score'
p1437
S'Score'
p1438
S'NNP'
p1439
S'I-NP'
p1440
g5
tp1441
a(g447
g447
g447
g5
g5
tp1442
a(S'or'
p1443
S'or'
p1444
S'CC'
p1445
g5
g5
tp1446
a(S'Apache'
p1447
S'Apache'
p1448
S'NNP'
p1449
S'B-NP'
p1450
g5
tp1451
a(S'scores.'
p1452
S'scores.'
p1453
S'VBP'
p1454
S'B-VP'
p1455
g5
tp1456
a(S'Initial'
p1457
S'Initial'
p1458
S'JJ'
p1459
S'B-NP'
p1460
g5
tp1461
a(S'head'
p1462
S'head'
p1463
S'NN'
p1464
S'I-NP'
p1465
g5
tp1466
a(S'scans'
p1467
S'scan'
p1468
S'NNS'
p1469
S'I-NP'
p1470
g5
tp1471
a(S'scored'
p1472
S'score'
p1473
S'VBD'
p1474
S'B-VP'
p1475
g5
tp1476
a(g849
g849
S'CD'
p1477
S'B-NP'
p1478
g5
tp1479
a(S'or'
p1480
S'or'
p1481
S'CC'
p1482
g5
g5
tp1483
a(S'higher'
p1484
S'high'
p1485
S'JJR'
p1486
S'B-ADJP'
p1487
g5
tp1488
a(S'by'
p1489
S'by'
p1490
S'IN'
p1491
S'B-PP'
p1492
g5
tp1493
a(S'Marshall'
p1494
S'Marshall'
p1495
S'NNP'
p1496
S'B-NP'
p1497
g5
tp1498
a(S'classification'
p1499
S'classification'
p1500
S'NN'
p1501
S'I-NP'
p1502
g5
tp1503
a(S'for'
p1504
S'for'
p1505
S'IN'
p1506
S'B-PP'
p1507
g5
tp1508
a(S'12'
p1509
S'12'
p1510
S'CD'
p1511
S'B-NP'
p1512
g5
tp1513
a(S'HSD'
p1514
S'HSD'
p1515
S'NN'
p1516
S'I-NP'
p1517
g5
tp1518
a(S'and'
p1519
S'and'
p1520
S'CC'
p1521
g5
g5
tp1522
a(S'11'
p1523
S'11'
p1524
S'CD'
p1525
S'B-NP'
p1526
g5
tp1527
a(S'NS'
p1528
S'NS'
p1529
S'NN'
p1530
S'I-NP'
p1531
g5
tp1532
a(S'patients.'
p1533
S'patients.'
p1534
S'NN'
p1535
S'I-NP'
p1536
g5
tp1537
a(S'Zero'
p1538
S'Zero'
p1539
S'NNP'
p1540
S'I-NP'
p1541
g5
tp1542
a(S'adverse'
p1543
S'adverse'
p1544
S'JJ'
p1545
S'I-NP'
p1546
g5
tp1547
a(S'events'
p1548
S'event'
p1549
S'NNS'
p1550
S'I-NP'
p1551
g5
tp1552
a(S'occurred'
p1553
S'occur'
p1554
S'VBD'
p1555
S'B-VP'
p1556
g5
tp1557
a(g447
g447
g447
g5
g5
tp1558
a(S'and'
p1559
S'and'
p1560
S'CC'
p1561
g5
g5
tp1562
a(S'follow-up'
p1563
S'follow-up'
p1564
S'NN'
p1565
S'B-NP'
p1566
g5
tp1567
a(S'for'
p1568
S'for'
p1569
S'IN'
p1570
S'B-PP'
p1571
g5
tp1572
a(S'the'
p1573
S'the'
p1574
S'DT'
p1575
S'B-NP'
p1576
g5
tp1577
a(S'primary'
p1578
S'primary'
p1579
S'JJ'
p1580
S'I-NP'
p1581
g5
tp1582
a(S'outcome'
p1583
S'outcome'
p1584
S'NN'
p1585
S'I-NP'
p1586
g5
tp1587
a(S'was'
p1588
S'be'
p1589
S'VBD'
p1590
S'B-VP'
p1591
g5
tp1592
a(S'100'
p1593
S'100'
p1594
S'CD'
p1595
S'B-NP'
p1596
g5
tp1597
a(g830
g830
S'NN'
p1598
S'I-NP'
p1599
g5
tp1600
a(g95
g95
g95
g5
g5
tp1601
a(S'Alive'
p1602
S'Alive'
p1603
S'NNP'
p1604
S'B-NP'
p1605
g5
tp1606
a(S'at'
p1607
S'at'
p1608
S'IN'
p1609
S'B-PP'
p1610
g5
tp1611
a(S'30'
p1612
S'30'
p1613
S'CD'
p1614
S'B-NP'
p1615
g5
tp1616
a(S'days'
p1617
S'day'
p1618
S'NNS'
p1619
S'I-NP'
p1620
g5
tp1621
a(S'for'
p1622
S'for'
p1623
S'IN'
p1624
S'B-PP'
p1625
g5
tp1626
a(S'HSD'
p1627
S'HSD'
p1628
S'NN'
p1629
S'B-NP'
p1630
S'B-protein'
p1631
tp1632
a(S'and'
p1633
S'and'
p1634
S'CC'
p1635
S'I-NP'
p1636
g5
tp1637
a(S'NS'
p1638
S'NS'
p1639
S'NN'
p1640
S'I-NP'
p1641
g5
tp1642
a(g447
g447
g447
g5
g5
tp1643
a(S'respectively'
p1644
S'respectively'
p1645
S'RB'
p1646
S'B-ADVP'
p1647
g5
tp1648
a(g447
g447
g447
g5
g5
tp1649
a(S'was'
p1650
S'be'
p1651
S'VBD'
p1652
S'B-VP'
p1653
g5
tp1654
a(S'70'
p1655
S'70'
p1656
S'CD'
p1657
S'B-NP'
p1658
g5
tp1659
a(g830
g830
S'NN'
p1660
S'I-NP'
p1661
g5
tp1662
a(g195
g195
g195
g5
g5
tp1663
a(S'35/50'
p1664
S'35/50'
p1665
S'CD'
p1666
S'B-NP'
p1667
g5
tp1668
a(g202
g202
g202
g5
g5
tp1669
a(S'and'
p1670
S'and'
p1671
S'CC'
p1672
g5
g5
tp1673
a(S'75'
p1674
S'75'
p1675
S'CD'
p1676
S'B-NP'
p1677
g5
tp1678
a(g830
g830
S'NN'
p1679
S'I-NP'
p1680
g5
tp1681
a(g195
g195
g195
g5
g5
tp1682
a(S'42/56'
p1683
S'42/56'
p1684
S'CD'
p1685
S'B-NP'
p1686
g5
tp1687
a(g202
g202
g202
g5
g5
tp1688
a(S'and'
p1689
S'and'
p1690
S'CC'
p1691
g5
g5
tp1692
a(S'at'
p1693
S'at'
p1694
S'IN'
p1695
S'B-PP'
p1696
g5
tp1697
a(S'discharge'
p1698
S'discharge'
p1699
S'NN'
p1700
S'B-NP'
p1701
g5
tp1702
a(S'was'
p1703
S'be'
p1704
S'VBD'
p1705
S'B-VP'
p1706
g5
tp1707
a(S'68'
p1708
S'68'
p1709
S'CD'
p1710
S'B-NP'
p1711
g5
tp1712
a(g830
g830
S'NN'
p1713
S'I-NP'
p1714
g5
tp1715
a(g195
g195
g195
g5
g5
tp1716
a(S'34/50'
p1717
S'34/50'
p1718
S'CD'
p1719
S'B-NP'
p1720
g5
tp1721
a(g202
g202
g202
g5
g5
tp1722
a(S'and'
p1723
S'and'
p1724
S'CC'
p1725
g5
g5
tp1726
a(S'73'
p1727
S'73'
p1728
S'CD'
p1729
S'B-NP'
p1730
g5
tp1731
a(g830
g830
S'NN'
p1732
S'I-NP'
p1733
g5
tp1734
a(g195
g195
g195
g5
g5
tp1735
a(S'41/56'
p1736
S'41/56'
p1737
S'CD'
p1738
S'B-NP'
p1739
g5
tp1740
a(g202
g202
g202
g5
g5
tp1741
a(g95
g95
g95
g5
g5
tp1742
a(S'Only'
p1743
S'Only'
p1744
S'RB'
p1745
S'B-NP'
p1746
g5
tp1747
a(S'49.3'
p1748
S'49.3'
p1749
S'CD'
p1750
S'I-NP'
p1751
g5
tp1752
a(g830
g830
S'NN'
p1753
S'I-NP'
p1754
g5
tp1755
a(g195
g195
g195
g5
g5
tp1756
a(S'37/77'
p1757
S'37/77'
p1758
S'CD'
p1759
S'B-NP'
p1760
g5
tp1761
a(g202
g202
g202
g5
g5
tp1762
a(S'of'
p1763
S'of'
p1764
S'IN'
p1765
S'B-PP'
p1766
g5
tp1767
a(S'surviving'
p1768
S'survive'
p1769
S'VBG'
p1770
S'B-NP'
p1771
g5
tp1772
a(S'patients'
p1773
S'patient'
p1774
S'NNS'
p1775
S'I-NP'
p1776
g5
tp1777
a(S'consented'
p1778
S'consent'
p1779
S'VBD'
p1780
S'B-VP'
p1781
g5
tp1782
a(S'to'
p1783
S'to'
p1784
S'TO'
p1785
S'I-VP'
p1786
g5
tp1787
a(S'follow-up'
p1788
S'follow-up'
p1789
S'VB'
p1790
S'I-VP'
p1791
g5
tp1792
a(S'at'
p1793
S'at'
p1794
S'IN'
p1795
S'B-PP'
p1796
g5
tp1797
a(g392
g392
S'CD'
p1798
S'B-NP'
p1799
g5
tp1800
a(S'months'
p1801
S'month'
p1802
S'NNS'
p1803
S'I-NP'
p1804
g5
tp1805
a(S'and'
p1806
S'and'
p1807
S'CC'
p1808
g5
g5
tp1809
a(S'89'
p1810
S'89'
p1811
S'CD'
p1812
S'B-NP'
p1813
g5
tp1814
a(g830
g830
S'NN'
p1815
S'I-NP'
p1816
g5
tp1817
a(g195
g195
g195
g5
g5
tp1818
a(S'33/37'
p1819
S'33/37'
p1820
S'CD'
p1821
S'B-NP'
p1822
g5
tp1823
a(g202
g202
g202
g5
g5
tp1824
a(S'completed'
p1825
S'complete'
p1826
S'VBD'
p1827
S'B-VP'
p1828
g5
tp1829
a(S'the'
p1830
S'the'
p1831
S'DT'
p1832
S'B-NP'
p1833
g5
tp1834
a(S'assessment.'
p1835
S'assessment.'
p1836
S'NN'
p1837
S'I-NP'
p1838
g5
tp1839
a(S'Disability'
p1840
S'Disability'
p1841
S'NN'
p1842
S'I-NP'
p1843
g5
tp1844
a(S'rating'
p1845
S'rating'
p1846
S'NN'
p1847
S'I-NP'
p1848
g5
tp1849
a(S'scale'
p1850
S'scale'
p1851
S'NN'
p1852
S'I-NP'
p1853
g5
tp1854
a(g195
g195
g195
g5
g5
tp1855
a(S'median'
p1856
S'median'
p1857
S'JJ'
p1858
S'B-NP'
p1859
g5
tp1860
a(g447
g447
g447
S'I-NP'
p1861
g5
tp1862
a(S'interquartile'
p1863
S'interquartile'
p1864
S'JJ'
p1865
S'I-NP'
p1866
g5
tp1867
a(S'range'
p1868
S'range'
p1869
S'NN'
p1870
S'I-NP'
p1871
g5
tp1872
a(g202
g202
g202
g5
g5
tp1873
a(S'was'
p1874
S'be'
p1875
S'VBD'
p1876
S'B-VP'
p1877
g5
tp1878
a(g849
g849
S'CD'
p1879
S'B-NP'
p1880
g5
tp1881
a(g195
g195
g195
g5
g5
tp1882
a(S'0'
p1883
g1883
S'CD'
p1884
S'B-NP'
p1885
g5
tp1886
a(g447
g447
g447
S'I-NP'
p1887
g5
tp1888
a(g880
g880
S'CD'
p1889
S'I-NP'
p1890
g5
tp1891
a(g202
g202
g202
g5
g5
tp1892
a(S'for'
p1893
S'for'
p1894
S'IN'
p1895
S'B-PP'
p1896
g5
tp1897
a(S'HSD'
p1898
S'HSD'
p1899
S'NN'
p1900
S'B-NP'
p1901
g5
tp1902
a(S'and'
p1903
S'and'
p1904
S'CC'
p1905
g5
g5
tp1906
a(S'was'
p1907
S'be'
p1908
S'VBD'
p1909
S'B-VP'
p1910
g5
tp1911
a(g1883
g1883
S'CD'
p1912
S'B-NP'
p1913
g5
tp1914
a(g195
g195
g195
g5
g5
tp1915
a(g1883
g1883
S'CD'
p1916
S'B-NP'
p1917
g5
tp1918
a(g447
g447
g447
S'I-NP'
p1919
g5
tp1920
a(g880
g880
S'CD'
p1921
S'I-NP'
p1922
g5
tp1923
a(g202
g202
g202
g5
g5
tp1924
a(S'for'
p1925
S'for'
p1926
S'IN'
p1927
S'B-PP'
p1928
g5
tp1929
a(S'NS.'
p1930
S'NS.'
p1931
S'NNP'
p1932
S'B-NP'
p1933
g5
tp1934
a(S'Glasgow'
p1935
S'Glasgow'
p1936
S'NNP'
p1937
S'I-NP'
p1938
g5
tp1939
a(S'Outcome'
p1940
S'Outcome'
p1941
S'NNP'
p1942
S'I-NP'
p1943
g5
tp1944
a(S'Scale'
p1945
S'Scale'
p1946
S'NNP'
p1947
S'I-NP'
p1948
g5
tp1949
a(S'Evaluation'
p1950
S'Evaluation'
p1951
S'NNP'
p1952
S'I-NP'
p1953
g5
tp1954
a(S'was'
p1955
S'be'
p1956
S'VBD'
p1957
S'B-VP'
p1958
g5
tp1959
a(S'higher'
p1960
S'high'
p1961
S'JJR'
p1962
S'B-ADJP'
p1963
g5
tp1964
a(S'than'
p1965
S'than'
p1966
S'IN'
p1967
S'B-PP'
p1968
g5
tp1969
a(g392
g392
S'CD'
p1970
S'B-NP'
p1971
g5
tp1972
a(S'for'
p1973
S'for'
p1974
S'IN'
p1975
S'B-PP'
p1976
g5
tp1977
a(S'HSD'
p1978
S'HSD'
p1979
S'NN'
p1980
S'B-NP'
p1981
g5
tp1982
a(g195
g195
g195
g5
g5
tp1983
a(S'12/12'
p1984
S'12/12'
p1985
S'CD'
p1986
S'B-NP'
p1987
g5
tp1988
a(g823
g823
g195
g5
g5
tp1989
a(S'100'
p1990
S'100'
p1991
S'CD'
p1992
S'B-NP'
p1993
g5
tp1994
a(g830
g830
S'NN'
p1995
S'I-NP'
p1996
g5
tp1997
a(g834
g834
g202
g5
g5
tp1998
a(g202
g202
g202
g5
g5
tp1999
a(S'and'
p2000
S'and'
p2001
S'CC'
p2002
g5
g5
tp2003
a(S'NS'
p2004
S'NS'
p2005
S'NN'
p2006
S'B-NP'
p2007
g5
tp2008
a(g195
g195
g195
g5
g5
tp2009
a(S'15/21'
p2010
S'15/21'
p2011
S'CD'
p2012
S'B-NP'
p2013
g5
tp2014
a(g823
g823
g195
g5
g5
tp2015
a(S'72'
p2016
S'72'
p2017
S'CD'
p2018
S'B-NP'
p2019
g5
tp2020
a(g830
g830
S'NN'
p2021
S'I-NP'
p2022
g5
tp2023
a(g834
g834
g202
g5
g5
tp2024
a(g202
g202
g202
g5
g5
tp2025
a(g95
g95
g95
g5
g5
tp2026
a(S'Functional'
p2027
S'Functional'
p2028
S'JJ'
p2029
S'B-NP'
p2030
g5
tp2031
a(S'Independence'
p2032
S'Independence'
p2033
S'NN'
p2034
S'I-NP'
p2035
g5
tp2036
a(S'Measure'
p2037
S'Measure'
p2038
S'NN'
p2039
S'I-NP'
p2040
g5
tp2041
a(g195
g195
g195
g5
g5
tp2042
a(S'mean'
p2043
S'mean'
p2044
S'NN'
p2045
S'B-NP'
p2046
g5
tp2047
a(g447
g447
g447
g5
g5
tp2048
a(S'SD'
p2049
S'SD'
p2050
S'NN'
p2051
S'B-NP'
p2052
g5
tp2053
a(g202
g202
g202
g5
g5
tp2054
a(S'was'
p2055
S'be'
p2056
S'VBD'
p2057
S'B-VP'
p2058
g5
tp2059
a(S'62'
p2060
S'62'
p2061
S'CD'
p2062
S'B-NP'
p2063
g5
tp2064
a(g195
g195
g195
g5
g5
tp2065
a(S'37'
p2066
S'37'
p2067
S'CD'
p2068
S'B-NP'
p2069
g5
tp2070
a(g202
g202
g202
g5
g5
tp2071
a(S'for'
p2072
S'for'
p2073
S'IN'
p2074
S'B-PP'
p2075
g5
tp2076
a(S'HSD'
p2077
S'HSD'
p2078
S'NN'
p2079
S'B-NP'
p2080
g5
tp2081
a(S'and'
p2082
S'and'
p2083
S'CC'
p2084
g5
g5
tp2085
a(S'80'
p2086
S'80'
p2087
S'CD'
p2088
S'B-NP'
p2089
g5
tp2090
a(g195
g195
g195
g5
g5
tp2091
a(S'32'
p2092
S'32'
p2093
S'CD'
p2094
S'B-NP'
p2095
g5
tp2096
a(g202
g202
g202
g5
g5
tp2097
a(S'for'
p2098
S'for'
p2099
S'IN'
p2100
S'B-PP'
p2101
g5
tp2102
a(S'NS'
p2103
S'NS'
p2104
S'NN'
p2105
S'B-NP'
p2106
g5
tp2107
a(g95
g95
g95
g5
g5
tp2108
a(S'CONCLUSIONS'
p2109
S'CONCLUSIONS'
p2110
S'NNS'
p2111
S'B-NP'
p2112
g5
tp2113
a(S'It'
p2114
S'It'
p2115
S'PRP'
p2116
S'B-NP'
p2117
g5
tp2118
a(S'is'
p2119
S'be'
p2120
S'VBZ'
p2121
S'B-VP'
p2122
g5
tp2123
a(S'feasible'
p2124
S'feasible'
p2125
S'JJ'
p2126
S'B-ADJP'
p2127
g5
tp2128
a(S'to'
p2129
S'to'
p2130
S'TO'
p2131
S'B-VP'
p2132
g5
tp2133
a(S'conduct'
p2134
S'conduct'
p2135
S'VB'
p2136
S'I-VP'
p2137
g5
tp2138
a(g76
g76
S'DT'
p2139
S'B-NP'
p2140
g5
tp2141
a(S'prehospital'
p2142
S'prehospital'
p2143
S'NN'
p2144
S'I-NP'
p2145
g5
tp2146
a(S'randomized'
p2147
S'randomize'
p2148
S'VBD'
p2149
S'B-VP'
p2150
g5
tp2151
a(S'controlled'
p2152
S'control'
p2153
S'VBN'
p2154
S'I-VP'
p2155
g5
tp2156
a(S'trial'
p2157
S'trial'
p2158
S'NN'
p2159
S'B-NP'
p2160
g5
tp2161
a(S'with'
p2162
S'with'
p2163
S'IN'
p2164
S'B-PP'
p2165
g5
tp2166
a(S'HSD'
p2167
S'HSD'
p2168
S'NN'
p2169
S'B-NP'
p2170
S'B-protein'
p2171
tp2172
a(S'for'
p2173
S'for'
p2174
S'IN'
p2175
S'B-PP'
p2176
g5
tp2177
a(S'treatment'
p2178
S'treatment'
p2179
S'NN'
p2180
S'B-NP'
p2181
g5
tp2182
a(S'of'
p2183
S'of'
p2184
S'IN'
p2185
S'B-PP'
p2186
g5
tp2187
a(S'blunt'
p2188
S'blunt'
p2189
S'NN'
p2190
S'B-NP'
p2191
g5
tp2192
a(S'trauma'
p2193
S'trauma'
p2194
S'NN'
p2195
S'I-NP'
p2196
g5
tp2197
a(S'patients'
p2198
S'patient'
p2199
S'NNS'
p2200
S'I-NP'
p2201
g5
tp2202
a(S'with'
p2203
S'with'
p2204
S'IN'
p2205
S'B-PP'
p2206
g5
tp2207
a(S'head'
p2208
S'head'
p2209
S'NN'
p2210
S'B-NP'
p2211
g5
tp2212
a(S'injuries'
p2213
S'injury'
p2214
S'NNS'
p2215
S'I-NP'
p2216
g5
tp2217
a(S';'
p2218
g2218
g29
g5
g5
tp2219
a(S'however'
p2220
S'however'
p2221
S'RB'
p2222
S'B-ADVP'
p2223
g5
tp2224
a(g447
g447
g447
g5
g5
tp2225
a(S'consent'
p2226
S'consent'
p2227
S'NN'
p2228
S'B-NP'
p2229
g5
tp2230
a(S'for'
p2231
S'for'
p2232
S'IN'
p2233
S'B-PP'
p2234
g5
tp2235
a(S'neurofunctional'
p2236
S'neurofunctional'
p2237
S'JJ'
p2238
S'B-NP'
p2239
S'B-protein'
p2240
tp2241
a(S'outcomes'
p2242
S'outcome'
p2243
S'NNS'
p2244
S'I-NP'
p2245
S'I-protein'
p2246
tp2247
a(S'in'
p2248
S'in'
p2249
S'IN'
p2250
S'B-PP'
p2251
g5
tp2252
a(S'this'
p2253
S'this'
p2254
S'DT'
p2255
S'B-NP'
p2256
g5
tp2257
a(S'cohort'
p2258
S'cohort'
p2259
S'NN'
p2260
S'I-NP'
p2261
g5
tp2262
a(S'is'
p2263
S'be'
p2264
S'VBZ'
p2265
S'B-VP'
p2266
g5
tp2267
a(S'problematic'
p2268
S'problematic'
p2269
S'JJ'
p2270
S'B-ADJP'
p2271
g5
tp2272
a(S'and'
p2273
S'and'
p2274
S'CC'
p2275
g5
g5
tp2276
a(S'threatens'
p2277
S'threaten'
p2278
S'VBZ'
p2279
S'B-VP'
p2280
g5
tp2281
a(S'the'
p2282
S'the'
p2283
S'DT'
p2284
S'B-NP'
p2285
g5
tp2286
a(S'feasibility'
p2287
S'feasibility'
p2288
S'NN'
p2289
S'I-NP'
p2290
g5
tp2291
a(S'of'
p2292
S'of'
p2293
S'IN'
p2294
S'B-PP'
p2295
g5
tp2296
a(S'definitive'
p2297
S'definitive'
p2298
S'JJ'
p2299
S'B-NP'
p2300
g5
tp2301
a(S'trials'
p2302
S'trial'
p2303
S'NNS'
p2304
S'I-NP'
p2305
g5
tp2306
a(S'using'
p2307
S'use'
p2308
S'VBG'
p2309
S'B-VP'
p2310
g5
tp2311
a(S'these'
p2312
S'these'
p2313
S'DT'
p2314
S'B-NP'
p2315
g5
tp2316
a(S'potentially'
p2317
S'potentially'
p2318
S'RB'
p2319
S'I-NP'
p2320
g5
tp2321
a(S'meaningful'
p2322
S'meaningful'
p2323
S'JJ'
p2324
S'I-NP'
p2325
g5
tp2326
a(S'end'
p2327
S'end'
p2328
S'NN'
p2329
S'I-NP'
p2330
g5
tp2331
a(S'points'
p2332
S'point'
p2333
S'NNS'
p2334
S'I-NP'
p2335
g5
tp2336
a(g95
g95
g95
g5
g5
tp2337
a.