(lp0
(S'Mastication'
p1
S'Mastication'
p2
S'NN'
p3
S'B-NP'
p4
S'O'
p5
tp6
a(S'and'
p7
S'and'
p8
S'CC'
p9
g5
g5
tp10
a(S'late'
p11
S'late'
p12
S'JJ'
p13
S'B-NP'
p14
g5
tp15
a(S'mandibular'
p16
S'mandibular'
p17
S'JJ'
p18
S'I-NP'
p19
g5
tp20
a(S'fracture'
p21
S'fracture'
p22
S'NN'
p23
S'I-NP'
p24
g5
tp25
a(S'after'
p26
S'after'
p27
S'IN'
p28
S'B-PP'
p29
g5
tp30
a(S'surgery'
p31
S'surgery'
p32
S'NN'
p33
S'B-NP'
p34
g5
tp35
a(S'of'
p36
S'of'
p37
S'IN'
p38
S'B-PP'
p39
g5
tp40
a(S'impacted'
p41
S'impacted'
p42
S'JJ'
p43
S'B-NP'
p44
g5
tp45
a(S'third'
p46
S'third'
p47
S'JJ'
p48
S'I-NP'
p49
g5
tp50
a(S'molars'
p51
S'molar'
p52
S'NNS'
p53
S'I-NP'
p54
g5
tp55
a(S'associated'
p56
S'associate'
p57
S'VBN'
p58
S'B-VP'
p59
g5
tp60
a(S'with'
p61
S'with'
p62
S'IN'
p63
S'B-PP'
p64
g5
tp65
a(S'no'
p66
S'no'
p67
S'DT'
p68
S'B-NP'
p69
g5
tp70
a(S'gross'
p71
S'gross'
p72
S'JJ'
p73
S'I-NP'
p74
g5
tp75
a(S'pathology'
p76
S'pathology'
p77
S'NN'
p78
S'I-NP'
p79
g5
tp80
a(S'.'
p81
g81
g81
g5
g5
tp82
a(S'PURPOSE'
p83
S'PURPOSE'
p84
S'NN'
p85
S'B-NP'
p86
g5
tp87
a(S'This'
p88
S'This'
p89
S'DT'
p90
S'B-NP'
p91
g5
tp92
a(S'study'
p93
S'study'
p94
S'NN'
p95
S'I-NP'
p96
g5
tp97
a(S'was'
p98
S'be'
p99
S'VBD'
p100
S'B-VP'
p101
g5
tp102
a(S'undertaken'
p103
S'undertake'
p104
S'VBN'
p105
S'I-VP'
p106
g5
tp107
a(S'with'
p108
S'with'
p109
S'IN'
p110
S'B-PP'
p111
g5
tp112
a(S'the'
p113
S'the'
p114
S'DT'
p115
S'B-NP'
p116
g5
tp117
a(S'null'
p118
S'null'
p119
S'JJ'
p120
S'I-NP'
p121
g5
tp122
a(S'hypothesis'
p123
S'hypothesis'
p124
S'NN'
p125
S'I-NP'
p126
g5
tp127
a(S'that'
p128
S'that'
p129
S'IN'
p130
S'B-NP'
p131
g5
tp132
a(S'in'
p133
S'in'
p134
S'IN'
p135
S'B-PP'
p136
g5
tp137
a(S'patients'
p138
S'patient'
p139
S'NNS'
p140
S'B-NP'
p141
g5
tp142
a(S','
p143
g143
g143
g5
g5
tp144
a(S'fully'
p145
S'fully'
p146
S'RB'
p147
S'B-ADVP'
p148
g5
tp149
a(S'denate'
p150
S'denate'
p151
S'VBP'
p152
S'B-VP'
p153
g5
tp154
a(S'or'
p155
S'or'
p156
S'CC'
p157
g5
g5
tp158
a(S'with'
p159
S'with'
p160
S'IN'
p161
S'B-PP'
p162
g5
tp163
a(S'1'
p164
g164
S'CD'
p165
S'B-NP'
p166
g5
tp167
a(S'or'
p168
S'or'
p169
S'CC'
p170
S'I-NP'
p171
g5
tp172
a(S'2'
p173
g173
S'CD'
p174
S'I-NP'
p175
g5
tp176
a(S'teeth'
p177
S'tooth'
p178
S'NNS'
p179
S'I-NP'
p180
g5
tp181
a(S'missing'
p182
S'miss'
p183
S'VBG'
p184
S'B-VP'
p185
g5
tp186
a(S'and'
p187
S'and'
p188
S'CC'
p189
g5
g5
tp190
a(S'older'
p191
S'old'
p192
S'JJR'
p193
S'B-NP'
p194
g5
tp195
a(S'than'
p196
S'than'
p197
S'IN'
p198
S'I-NP'
p199
g5
tp200
a(S'25'
p201
S'25'
p202
S'CD'
p203
S'I-NP'
p204
g5
tp205
a(S'years'
p206
S'year'
p207
S'NNS'
p208
S'I-NP'
p209
g5
tp210
a(g143
g143
g143
g5
g5
tp211
a(S'mastication'
p212
S'mastication'
p213
S'NN'
p214
S'B-NP'
p215
g5
tp216
a(S'does'
p217
S'do'
p218
S'VBZ'
p219
S'B-VP'
p220
g5
tp221
a(S'not'
p222
S'not'
p223
S'RB'
p224
S'I-VP'
p225
g5
tp226
a(S'affect'
p227
S'affect'
p228
S'VB'
p229
S'I-VP'
p230
g5
tp231
a(S'late'
p232
S'late'
p233
S'JJ'
p234
S'B-NP'
p235
g5
tp236
a(S'mandibular'
p237
S'mandibular'
p238
S'JJ'
p239
S'I-NP'
p240
g5
tp241
a(S'fracture'
p242
S'fracture'
p243
S'NN'
p244
S'I-NP'
p245
g5
tp246
a(S'after'
p247
S'after'
p248
S'IN'
p249
S'B-PP'
p250
g5
tp251
a(S'surgical'
p252
S'surgical'
p253
S'JJ'
p254
S'B-NP'
p255
g5
tp256
a(S'removal'
p257
S'removal'
p258
S'NN'
p259
S'I-NP'
p260
g5
tp261
a(S'of'
p262
S'of'
p263
S'IN'
p264
S'B-PP'
p265
g5
tp266
a(S'impacted'
p267
S'impacted'
p268
S'JJ'
p269
S'B-NP'
p270
g5
tp271
a(S'third'
p272
S'third'
p273
S'JJ'
p274
S'I-NP'
p275
g5
tp276
a(S'molars'
p277
S'molar'
p278
S'NNS'
p279
S'I-NP'
p280
g5
tp281
a(S'('
p282
g282
g282
g5
g5
tp283
a(S'M3s'
p284
S'M3'
p285
S'NNS'
p286
S'B-NP'
p287
g5
tp288
a(S')'
p289
g289
g289
g5
g5
tp290
a(S'associated'
p291
S'associate'
p292
S'VBN'
p293
S'B-VP'
p294
g5
tp295
a(S'with'
p296
S'with'
p297
S'IN'
p298
S'B-PP'
p299
g5
tp300
a(S'no'
p301
S'no'
p302
S'DT'
p303
S'B-NP'
p304
g5
tp305
a(S'gross'
p306
S'gross'
p307
S'JJ'
p308
S'I-NP'
p309
g5
tp310
a(S'pathology'
p311
S'pathology'
p312
S'NN'
p313
S'I-NP'
p314
g5
tp315
a(g81
g81
g81
g5
g5
tp316
a(S'MATERIALS'
p317
S'MATERIALS'
p318
S'NNS'
p319
S'B-NP'
p320
g5
tp321
a(S'AND'
p322
S'AND'
p323
S'CC'
p324
S'I-NP'
p325
g5
tp326
a(S'METHODS'
p327
S'METHODS'
p328
S'NNS'
p329
S'I-NP'
p330
g5
tp331
a(S'Five'
p332
S'Five'
p333
S'CD'
p334
S'B-NP'
p335
g5
tp336
a(S'hundred'
p337
S'hundred'
p338
S'CD'
p339
S'I-NP'
p340
g5
tp341
a(S'sixty'
p342
S'sixty'
p343
S'CD'
p344
S'B-NP'
p345
g5
tp346
a(S'patients'
p347
S'patient'
p348
S'NNS'
p349
S'I-NP'
p350
g5
tp351
a(g143
g143
g143
g5
g5
tp352
a(S'fully'
p353
S'fully'
p354
S'RB'
p355
S'B-ADVP'
p356
g5
tp357
a(S'dentate'
p358
S'dentate'
p359
S'VBP'
p360
S'B-VP'
p361
g5
tp362
a(S'or'
p363
S'or'
p364
S'CC'
p365
g5
g5
tp366
a(S'with'
p367
S'with'
p368
S'IN'
p369
S'B-PP'
p370
g5
tp371
a(g164
g164
S'CD'
p372
S'B-NP'
p373
g5
tp374
a(S'or'
p375
S'or'
p376
S'CC'
p377
S'I-NP'
p378
g5
tp379
a(g173
g173
S'CD'
p380
S'I-NP'
p381
g5
tp382
a(S'teeth'
p383
S'tooth'
p384
S'NNS'
p385
S'I-NP'
p386
g5
tp387
a(S'missing'
p388
S'miss'
p389
S'VBG'
p390
S'B-VP'
p391
g5
tp392
a(S'and'
p393
S'and'
p394
S'CC'
p395
g5
g5
tp396
a(S'older'
p397
S'old'
p398
S'JJR'
p399
S'B-NP'
p400
g5
tp401
a(S'than'
p402
S'than'
p403
S'IN'
p404
S'I-NP'
p405
g5
tp406
a(S'25'
p407
S'25'
p408
S'CD'
p409
S'I-NP'
p410
g5
tp411
a(S'years'
p412
S'year'
p413
S'NNS'
p414
S'I-NP'
p415
g5
tp416
a(S'who'
p417
S'who'
p418
S'WP'
p419
S'B-NP'
p420
g5
tp421
a(S'had'
p422
S'have'
p423
S'VBD'
p424
S'B-VP'
p425
g5
tp426
a(S'no'
p427
S'no'
p428
S'DT'
p429
S'B-NP'
p430
g5
tp431
a(S'gross'
p432
S'gross'
p433
S'JJ'
p434
S'I-NP'
p435
g5
tp436
a(S'pathology'
p437
S'pathology'
p438
S'NN'
p439
S'I-NP'
p440
g5
tp441
a(S'associated'
p442
S'associate'
p443
S'VBN'
p444
S'B-VP'
p445
g5
tp446
a(S'with'
p447
S'with'
p448
S'IN'
p449
S'B-PP'
p450
g5
tp451
a(S'their'
p452
S'their'
p453
S'PRP$'
p454
S'B-NP'
p455
g5
tp456
a(S'impacted'
p457
S'impact'
p458
S'VBN'
p459
S'I-NP'
p460
g5
tp461
a(S'lower'
p462
S'low'
p463
S'JJR'
p464
S'I-NP'
p465
g5
tp466
a(S'M3s'
p467
S'M3'
p468
S'NNS'
p469
S'I-NP'
p470
g5
tp471
a(g143
g143
g143
g5
g5
tp472
a(S'were'
p473
S'be'
p474
S'VBD'
p475
S'B-VP'
p476
g5
tp477
a(S'recruited'
p478
S'recruit'
p479
S'VBN'
p480
S'I-VP'
p481
g5
tp482
a(S'in'
p483
S'in'
p484
S'IN'
p485
S'B-PP'
p486
g5
tp487
a(S'this'
p488
S'this'
p489
S'DT'
p490
S'B-NP'
p491
g5
tp492
a(S'study.'
p493
S'study.'
p494
S'NN'
p495
S'I-NP'
p496
g5
tp497
a(S'They'
p498
S'They'
p499
S'PRP'
p500
S'B-NP'
p501
g5
tp502
a(S'were'
p503
S'be'
p504
S'VBD'
p505
S'B-VP'
p506
g5
tp507
a(S'operated'
p508
S'operate'
p509
S'VBN'
p510
S'I-VP'
p511
g5
tp512
a(S'on'
p513
S'on'
p514
S'IN'
p515
S'B-PP'
p516
g5
tp517
a(S'under'
p518
S'under'
p519
S'IN'
p520
S'B-PP'
p521
g5
tp522
a(S'local'
p523
S'local'
p524
S'JJ'
p525
S'B-NP'
p526
g5
tp527
a(S'anesthesia'
p528
S'anesthesia'
p529
S'NN'
p530
S'I-NP'
p531
g5
tp532
a(S'using'
p533
S'use'
p534
S'VBG'
p535
S'B-VP'
p536
g5
tp537
a(S'a'
p538
g538
S'DT'
p539
S'B-NP'
p540
g5
tp541
a(S'standard'
p542
S'standard'
p543
S'JJ'
p544
S'I-NP'
p545
g5
tp546
a(S'technique'
p547
S'technique'
p548
S'NN'
p549
S'I-NP'
p550
g5
tp551
a(S'and'
p552
S'and'
p553
S'CC'
p554
g5
g5
tp555
a(S'randomly'
p556
S'randomly'
p557
S'RB'
p558
S'B-VP'
p559
g5
tp560
a(S'assigned'
p561
S'assign'
p562
S'VBN'
p563
S'I-VP'
p564
g5
tp565
a(S'into'
p566
S'into'
p567
S'IN'
p568
S'B-PP'
p569
g5
tp570
a(g173
g173
S'CD'
p571
S'B-NP'
p572
g5
tp573
a(S'groups'
p574
S'group'
p575
S'NNS'
p576
S'I-NP'
p577
g5
tp578
a(S'for'
p579
S'for'
p580
S'IN'
p581
S'B-PP'
p582
g5
tp583
a(S'nonroutine'
p584
S'nonroutine'
p585
S'JJ'
p586
S'B-NP'
p587
g5
tp588
a(g282
g282
g282
S'I-NP'
p589
g5
tp590
a(S'NR'
p591
S'NR'
p592
S'NN'
p593
S'I-NP'
p594
g5
tp595
a(S'group'
p596
S'group'
p597
S'NN'
p598
S'I-NP'
p599
g5
tp600
a(g289
g289
g289
g5
g5
tp601
a(S'and'
p602
S'and'
p603
S'CC'
p604
g5
g5
tp605
a(S'routine'
p606
S'routine'
p607
S'JJ'
p608
S'B-NP'
p609
g5
tp610
a(g282
g282
g282
S'I-NP'
p611
g5
tp612
a(S'R'
p613
g613
S'NN'
p614
S'I-NP'
p615
g5
tp616
a(S'group'
p617
S'group'
p618
S'NN'
p619
S'I-NP'
p620
g5
tp621
a(g289
g289
g289
S'I-NP'
p622
g5
tp623
a(S'postoperative'
p624
S'postoperative'
p625
S'JJ'
p626
S'I-NP'
p627
g5
tp628
a(S'instructions.'
p629
S'instructions.'
p630
S'NN'
p631
S'I-NP'
p632
g5
tp633
a(S'In'
p634
S'In'
p635
S'IN'
p636
S'B-PP'
p637
g5
tp638
a(S'the'
p639
S'the'
p640
S'DT'
p641
S'B-NP'
p642
g5
tp643
a(S'NR'
p644
S'NR'
p645
S'NN'
p646
S'I-NP'
p647
g5
tp648
a(S'group'
p649
S'group'
p650
S'NN'
p651
S'I-NP'
p652
g5
tp653
a(g143
g143
g143
g5
g5
tp654
a(S'patients'
p655
S'patient'
p656
S'NNS'
p657
S'B-NP'
p658
g5
tp659
a(S'were'
p660
S'be'
p661
S'VBD'
p662
S'B-VP'
p663
g5
tp664
a(S'postoperatively'
p665
S'postoperatively'
p666
S'RB'
p667
S'I-VP'
p668
g5
tp669
a(S'educated'
p670
S'educate'
p671
S'VBN'
p672
S'I-VP'
p673
g5
tp674
a(S'in'
p675
S'in'
p676
S'IN'
p677
S'B-PP'
p678
g5
tp679
a(S'the'
p680
S'the'
p681
S'DT'
p682
S'B-NP'
p683
g5
tp684
a(S'possibility'
p685
S'possibility'
p686
S'NN'
p687
S'I-NP'
p688
g5
tp689
a(S'of'
p690
S'of'
p691
S'IN'
p692
S'B-PP'
p693
g5
tp694
a(S'mandibular'
p695
S'mandibular'
p696
S'JJ'
p697
S'B-NP'
p698
g5
tp699
a(S'fracture'
p700
S'fracture'
p701
S'NN'
p702
S'I-NP'
p703
g5
tp704
a(S'and'
p705
S'and'
p706
S'CC'
p707
g5
g5
tp708
a(S'were'
p709
S'be'
p710
S'VBD'
p711
S'B-VP'
p712
g5
tp713
a(S'given'
p714
S'give'
p715
S'VBN'
p716
S'I-VP'
p717
g5
tp718
a(S'an'
p719
S'an'
p720
S'DT'
p721
S'B-NP'
p722
g5
tp723
a(S'emphasis'
p724
S'emphasis'
p725
S'NN'
p726
S'I-NP'
p727
g5
tp728
a(S'on'
p729
S'on'
p730
S'IN'
p731
S'B-PP'
p732
g5
tp733
a(S'the'
p734
S'the'
p735
S'DT'
p736
S'B-NP'
p737
g5
tp738
a(S'necessity'
p739
S'necessity'
p740
S'NN'
p741
S'I-NP'
p742
g5
tp743
a(S'of'
p744
S'of'
p745
S'IN'
p746
S'B-PP'
p747
g5
tp748
a(S'limiting'
p749
S'limit'
p750
S'VBG'
p751
S'B-VP'
p752
g5
tp753
a(S'mastication'
p754
S'mastication'
p755
S'NN'
p756
S'B-NP'
p757
g5
tp758
a(S'to'
p759
S'to'
p760
S'TO'
p761
S'B-PP'
p762
g5
tp763
a(g538
g538
S'DT'
p764
S'B-NP'
p765
g5
tp766
a(S'soft'
p767
S'soft'
p768
S'JJ'
p769
S'I-NP'
p770
g5
tp771
a(S'diet'
p772
S'diet'
p773
S'NN'
p774
S'I-NP'
p775
g5
tp776
a(S'for'
p777
S'for'
p778
S'IN'
p779
S'B-PP'
p780
g5
tp781
a(S'4'
p782
g782
S'CD'
p783
S'B-NP'
p784
g5
tp785
a(S'weeks.'
p786
S'weeks.'
p787
S'NN'
p788
S'I-NP'
p789
g5
tp790
a(S'In'
p791
S'In'
p792
S'IN'
p793
S'B-PP'
p794
g5
tp795
a(S'the'
p796
S'the'
p797
S'DT'
p798
S'B-NP'
p799
g5
tp800
a(g613
g613
S'NN'
p801
S'I-NP'
p802
g5
tp803
a(S'group'
p804
S'group'
p805
S'NN'
p806
S'I-NP'
p807
g5
tp808
a(g143
g143
g143
g5
g5
tp809
a(S'patients'
p810
S'patient'
p811
S'NNS'
p812
S'B-NP'
p813
g5
tp814
a(S'were'
p815
S'be'
p816
S'VBD'
p817
S'B-VP'
p818
g5
tp819
a(S'given'
p820
S'give'
p821
S'VBN'
p822
S'I-VP'
p823
g5
tp824
a(S'no'
p825
S'no'
p826
S'DT'
p827
S'B-NP'
p828
g5
tp829
a(S'such'
p830
S'such'
p831
S'JJ'
p832
S'I-NP'
p833
g5
tp834
a(S'education'
p835
S'education'
p836
S'NN'
p837
S'I-NP'
p838
g5
tp839
a(S'or'
p840
S'or'
p841
S'CC'
p842
S'I-NP'
p843
g5
tp844
a(S'emphasis.'
p845
S'emphasis.'
p846
S'NN'
p847
S'I-NP'
p848
g5
tp849
a(S'Patients'
p850
S'Patient'
p851
S'NNS'
p852
S'I-NP'
p853
g5
tp854
a(S'were'
p855
S'be'
p856
S'VBD'
p857
S'B-VP'
p858
g5
tp859
a(S'followed'
p860
S'follow'
p861
S'VBN'
p862
S'I-VP'
p863
g5
tp864
a(S'up'
p865
S'up'
p866
S'RP'
p867
S'B-PRT'
p868
g5
tp869
a(S'for'
p870
S'for'
p871
S'IN'
p872
S'B-PP'
p873
g5
tp874
a(g173
g173
S'CD'
p875
S'B-NP'
p876
g5
tp877
a(S'months'
p878
S'month'
p879
S'NNS'
p880
S'I-NP'
p881
g5
tp882
a(g143
g143
g143
g5
g5
tp883
a(S'and'
p884
S'and'
p885
S'CC'
p886
g5
g5
tp887
a(S'data'
p888
S'datum'
p889
S'NNS'
p890
S'B-NP'
p891
g5
tp892
a(S'concerning'
p893
S'concern'
p894
S'VBG'
p895
S'B-VP'
p896
g5
tp897
a(S'patients'
p898
S'patient'
p899
S'NNS'
p900
S'B-NP'
p901
g5
tp902
a(S"'"
p903
g903
S'POS'
p904
S'B-NP'
p905
g5
tp906
a(S'age'
p907
S'age'
p908
S'NN'
p909
S'I-NP'
p910
g5
tp911
a(S'and'
p912
S'and'
p913
S'CC'
p914
S'I-NP'
p915
g5
tp916
a(S'gender'
p917
S'gender'
p918
S'NN'
p919
S'I-NP'
p920
g5
tp921
a(S';'
p922
g922
S':'
p923
g5
g5
tp924
a(S'tooth'
p925
S'tooth'
p926
S'DT'
p927
S'B-NP'
p928
g5
tp929
a(S'position'
p930
S'position'
p931
S'NN'
p932
S'I-NP'
p933
g5
tp934
a(g143
g143
g143
g5
g5
tp935
a(S'angulation'
p936
S'angulation'
p937
S'NN'
p938
S'B-NP'
p939
g5
tp940
a(g143
g143
g143
g5
g5
tp941
a(S'and'
p942
S'and'
p943
S'CC'
p944
g5
g5
tp945
a(S'depth'
p946
S'depth'
p947
S'NN'
p948
S'B-NP'
p949
g5
tp950
a(g922
g922
g923
g5
g5
tp951
a(S'date'
p952
S'date'
p953
S'NN'
p954
S'B-NP'
p955
g5
tp956
a(S'and'
p957
S'and'
p958
S'CC'
p959
S'I-NP'
p960
g5
tp961
a(S'site'
p962
S'site'
p963
S'NN'
p964
S'I-NP'
p965
g5
tp966
a(S'of'
p967
S'of'
p968
S'IN'
p969
S'B-PP'
p970
g5
tp971
a(S'surgery'
p972
S'surgery'
p973
S'NN'
p974
S'B-NP'
p975
g5
tp976
a(g922
g922
g923
g5
g5
tp977
a(S'and'
p978
S'and'
p979
S'CC'
p980
g5
g5
tp981
a(S'occurrence'
p982
S'occurrence'
p983
S'NN'
p984
S'B-NP'
p985
g5
tp986
a(S'of'
p987
S'of'
p988
S'IN'
p989
S'B-PP'
p990
g5
tp991
a(S'late'
p992
S'late'
p993
S'JJ'
p994
S'B-NP'
p995
g5
tp996
a(S'mandibular'
p997
S'mandibular'
p998
S'JJ'
p999
S'I-NP'
p1000
g5
tp1001
a(S'fracture'
p1002
S'fracture'
p1003
S'NN'
p1004
S'I-NP'
p1005
g5
tp1006
a(S'were'
p1007
S'be'
p1008
S'VBD'
p1009
S'B-VP'
p1010
g5
tp1011
a(S'recorded'
p1012
S'record'
p1013
S'VBN'
p1014
S'I-VP'
p1015
g5
tp1016
a(S'and'
p1017
S'and'
p1018
S'CC'
p1019
g5
g5
tp1020
a(S'statistically'
p1021
S'statistically'
p1022
S'RB'
p1023
S'B-NP'
p1024
g5
tp1025
a(S'analyzed.'
p1026
S'analyzed.'
p1027
S'DT'
p1028
S'I-NP'
p1029
g5
tp1030
a(S'A'
p1031
g1031
S'NN'
p1032
S'I-NP'
p1033
g5
tp1034
a(S'value'
p1035
S'value'
p1036
S'NN'
p1037
S'I-NP'
p1038
g5
tp1039
a(S'of'
p1040
S'of'
p1041
S'IN'
p1042
S'B-PP'
p1043
g5
tp1044
a(S'P'
p1045
g1045
S'NN'
p1046
S'B-NP'
p1047
g5
tp1048
a(S'less'
p1049
S'less'
p1050
S'JJR'
p1051
S'B-NP'
p1052
g5
tp1053
a(S'than'
p1054
S'than'
p1055
S'IN'
p1056
S'I-NP'
p1057
g5
tp1058
a(S'.05'
p1059
S'.05'
p1060
S'CD'
p1061
S'I-NP'
p1062
g5
tp1063
a(S'was'
p1064
S'be'
p1065
S'VBD'
p1066
S'B-VP'
p1067
g5
tp1068
a(S'considered'
p1069
S'consider'
p1070
S'VBN'
p1071
S'I-VP'
p1072
g5
tp1073
a(S'statistically'
p1074
S'statistically'
p1075
S'RB'
p1076
S'B-ADJP'
p1077
g5
tp1078
a(S'significant'
p1079
S'significant'
p1080
S'JJ'
p1081
S'I-ADJP'
p1082
g5
tp1083
a(g81
g81
g81
g5
g5
tp1084
a(S'RESULTS'
p1085
S'RESULTS'
p1086
S'NNS'
p1087
S'B-NP'
p1088
g5
tp1089
a(S'In'
p1090
S'In'
p1091
S'IN'
p1092
S'B-PP'
p1093
g5
tp1094
a(S'no'
p1095
S'no'
p1096
S'DT'
p1097
S'B-NP'
p1098
g5
tp1099
a(S'patient'
p1100
S'patient'
p1101
S'NN'
p1102
S'I-NP'
p1103
g5
tp1104
a(S'group'
p1105
S'group'
p1106
S'NN'
p1107
S'I-NP'
p1108
g5
tp1109
a(S'was'
p1110
S'be'
p1111
S'VBD'
p1112
S'B-VP'
p1113
g5
tp1114
a(S'there'
p1115
S'there'
p1116
S'RB'
p1117
S'B-ADVP'
p1118
g5
tp1119
a(g538
g538
S'DT'
p1120
S'B-NP'
p1121
g5
tp1122
a(S'late'
p1123
S'late'
p1124
S'JJ'
p1125
S'I-NP'
p1126
g5
tp1127
a(S'mandibular'
p1128
S'mandibular'
p1129
S'JJ'
p1130
S'I-NP'
p1131
g5
tp1132
a(S'fracture'
p1133
S'fracture'
p1134
S'NN'
p1135
S'I-NP'
p1136
g5
tp1137
a(S'recorded.'
p1138
S'recorded.'
p1139
S'VB'
p1140
S'B-VP'
p1141
g5
tp1142
a(S'All'
p1143
S'All'
p1144
S'DT'
p1145
S'B-NP'
p1146
g5
tp1147
a(S'patients'
p1148
S'patient'
p1149
S'NNS'
p1150
S'I-NP'
p1151
g5
tp1152
a(S'completed'
p1153
S'complete'
p1154
S'VBD'
p1155
S'B-VP'
p1156
g5
tp1157
a(S'the'
p1158
S'the'
p1159
S'DT'
p1160
S'B-NP'
p1161
g5
tp1162
a(S'follow-up'
p1163
S'follow-up'
p1164
S'JJ'
p1165
S'I-NP'
p1166
g5
tp1167
a(S'period'
p1168
S'period'
p1169
S'NN'
p1170
S'I-NP'
p1171
g5
tp1172
a(g143
g143
g143
g5
g5
tp1173
a(S'and'
p1174
S'and'
p1175
S'CC'
p1176
g5
g5
tp1177
a(S'most'
p1178
S'most'
p1179
S'JJS'
p1180
S'B-NP'
p1181
g5
tp1182
a(S'of'
p1183
S'of'
p1184
S'IN'
p1185
S'B-PP'
p1186
g5
tp1187
a(S'the'
p1188
S'the'
p1189
S'DT'
p1190
S'B-NP'
p1191
g5
tp1192
a(g613
g613
S'NN'
p1193
S'I-NP'
p1194
g5
tp1195
a(S'group'
p1196
S'group'
p1197
S'NN'
p1198
S'I-NP'
p1199
g5
tp1200
a(S'patients'
p1201
S'patient'
p1202
S'NNS'
p1203
S'I-NP'
p1204
g5
tp1205
a(S'had'
p1206
S'have'
p1207
S'VBD'
p1208
S'B-VP'
p1209
g5
tp1210
a(S'normal'
p1211
S'normal'
p1212
S'JJ'
p1213
S'B-NP'
p1214
g5
tp1215
a(S'eating'
p1216
S'eat'
p1217
S'VBG'
p1218
S'I-NP'
p1219
g5
tp1220
a(S'habits'
p1221
S'habit'
p1222
S'NNS'
p1223
S'I-NP'
p1224
g5
tp1225
a(S'10'
p1226
S'10'
p1227
S'CD'
p1228
S'B-NP'
p1229
g5
tp1230
a(S'to'
p1231
S'to'
p1232
S'TO'
p1233
S'I-NP'
p1234
g5
tp1235
a(S'14'
p1236
S'14'
p1237
S'CD'
p1238
S'I-NP'
p1239
g5
tp1240
a(S'days'
p1241
S'day'
p1242
S'NNS'
p1243
S'I-NP'
p1244
g5
tp1245
a(S'after'
p1246
S'after'
p1247
S'IN'
p1248
S'B-PP'
p1249
g5
tp1250
a(S'surgery.'
p1251
S'surgery.'
p1252
S'NN'
p1253
S'B-NP'
p1254
g5
tp1255
a(S'In'
p1256
S'In'
p1257
S'IN'
p1258
S'B-PP'
p1259
g5
tp1260
a(S'no'
p1261
S'no'
p1262
S'DT'
p1263
S'B-NP'
p1264
g5
tp1265
a(S'patient'
p1266
S'patient'
p1267
S'NN'
p1268
S'I-NP'
p1269
g5
tp1270
a(S'group'
p1271
S'group'
p1272
S'NN'
p1273
S'I-NP'
p1274
g5
tp1275
a(S'was'
p1276
S'be'
p1277
S'VBD'
p1278
S'B-VP'
p1279
g5
tp1280
a(S'there'
p1281
S'there'
p1282
S'RB'
p1283
S'B-ADVP'
p1284
g5
tp1285
a(g538
g538
S'DT'
p1286
S'B-NP'
p1287
g5
tp1288
a(S'statistically'
p1289
S'statistically'
p1290
S'RB'
p1291
S'I-NP'
p1292
g5
tp1293
a(S'significant'
p1294
S'significant'
p1295
S'JJ'
p1296
S'I-NP'
p1297
g5
tp1298
a(S'difference'
p1299
S'difference'
p1300
S'NN'
p1301
S'I-NP'
p1302
g5
tp1303
a(S'in'
p1304
S'in'
p1305
S'IN'
p1306
S'B-PP'
p1307
g5
tp1308
a(S'relation'
p1309
S'relation'
p1310
S'NN'
p1311
S'B-NP'
p1312
g5
tp1313
a(S'to'
p1314
S'to'
p1315
S'TO'
p1316
S'B-PP'
p1317
g5
tp1318
a(S'gender'
p1319
S'gender'
p1320
S'NN'
p1321
S'B-NP'
p1322
g5
tp1323
a(g282
g282
g282
g5
g5
tp1324
a(g1045
g1045
S'NN'
p1325
S'B-NP'
p1326
g5
tp1327
a(S'='
p1328
g1328
S'SYM'
p1329
S'B-VP'
p1330
g5
tp1331
a(S'.735'
p1332
S'.735'
p1333
S'CD'
p1334
S'B-NP'
p1335
g5
tp1336
a(g289
g289
g289
g5
g5
tp1337
a(g143
g143
g143
g5
g5
tp1338
a(S'site'
p1339
S'site'
p1340
S'NN'
p1341
S'B-NP'
p1342
g5
tp1343
a(S'of'
p1344
S'of'
p1345
S'IN'
p1346
S'B-PP'
p1347
g5
tp1348
a(S'surgery'
p1349
S'surgery'
p1350
S'NN'
p1351
S'B-NP'
p1352
g5
tp1353
a(g282
g282
g282
g5
g5
tp1354
a(g1045
g1045
S'NN'
p1355
S'B-NP'
p1356
g5
tp1357
a(g1328
g1328
S'SYM'
p1358
S'B-VP'
p1359
g5
tp1360
a(S'.552'
p1361
S'.552'
p1362
S'CD'
p1363
S'B-NP'
p1364
g5
tp1365
a(g289
g289
g289
g5
g5
tp1366
a(g143
g143
g143
g5
g5
tp1367
a(S'class'
p1368
S'class'
p1369
S'NN'
p1370
S'B-NP'
p1371
g5
tp1372
a(S'horizontal'
p1373
S'horizontal'
p1374
S'JJ'
p1375
S'I-NP'
p1376
g5
tp1377
a(S'space'
p1378
S'space'
p1379
S'NN'
p1380
S'I-NP'
p1381
g5
tp1382
a(S'available'
p1383
S'available'
p1384
S'JJ'
p1385
S'B-ADJP'
p1386
g5
tp1387
a(g282
g282
g282
g5
g5
tp1388
a(g1045
g1045
S'NN'
p1389
S'B-NP'
p1390
g5
tp1391
a(g1328
g1328
S'SYM'
p1392
S'B-VP'
p1393
g5
tp1394
a(S'.427'
p1395
S'.427'
p1396
S'CD'
p1397
S'B-NP'
p1398
g5
tp1399
a(g289
g289
g289
g5
g5
tp1400
a(g143
g143
g143
g5
g5
tp1401
a(S'class'
p1402
S'class'
p1403
S'NN'
p1404
S'B-NP'
p1405
g5
tp1406
a(S'highest'
p1407
S'high'
p1408
S'JJS'
p1409
S'I-NP'
p1410
g5
tp1411
a(S'portion'
p1412
S'portion'
p1413
S'NN'
p1414
S'I-NP'
p1415
g5
tp1416
a(S'of'
p1417
S'of'
p1418
S'IN'
p1419
S'B-PP'
p1420
g5
tp1421
a(S'the'
p1422
S'the'
p1423
S'DT'
p1424
S'B-NP'
p1425
g5
tp1426
a(S'M3'
p1427
S'M3'
p1428
S'NN'
p1429
S'I-NP'
p1430
g5
tp1431
a(S'crown'
p1432
S'crown'
p1433
S'NN'
p1434
S'I-NP'
p1435
g5
tp1436
a(g282
g282
g282
g5
g5
tp1437
a(g1045
g1045
S'NN'
p1438
S'B-NP'
p1439
g5
tp1440
a(g1328
g1328
S'SYM'
p1441
S'B-VP'
p1442
g5
tp1443
a(S'.424'
p1444
S'.424'
p1445
S'CD'
p1446
S'B-NP'
p1447
g5
tp1448
a(g289
g289
g289
g5
g5
tp1449
a(g143
g143
g143
g5
g5
tp1450
a(S'angulations'
p1451
S'angulation'
p1452
S'NNS'
p1453
S'B-NP'
p1454
g5
tp1455
a(S'of'
p1456
S'of'
p1457
S'IN'
p1458
S'B-PP'
p1459
g5
tp1460
a(S'the'
p1461
S'the'
p1462
S'DT'
p1463
S'B-NP'
p1464
g5
tp1465
a(S'teeth'
p1466
S'tooth'
p1467
S'NNS'
p1468
S'I-NP'
p1469
g5
tp1470
a(g282
g282
g282
g5
g5
tp1471
a(g1045
g1045
S'NN'
p1472
S'B-NP'
p1473
g5
tp1474
a(g1328
g1328
S'SYM'
p1475
S'B-VP'
p1476
g5
tp1477
a(S'.925'
p1478
S'.925'
p1479
S'CD'
p1480
S'B-NP'
p1481
g5
tp1482
a(g289
g289
g289
g5
g5
tp1483
a(g143
g143
g143
g5
g5
tp1484
a(S'and'
p1485
S'and'
p1486
S'CC'
p1487
g5
g5
tp1488
a(S'severity'
p1489
S'severity'
p1490
S'NN'
p1491
S'B-NP'
p1492
g5
tp1493
a(S'of'
p1494
S'of'
p1495
S'IN'
p1496
S'B-PP'
p1497
g5
tp1498
a(S'impaction'
p1499
S'impaction'
p1500
S'NN'
p1501
S'B-NP'
p1502
g5
tp1503
a(g282
g282
g282
g5
g5
tp1504
a(g1045
g1045
S'NN'
p1505
S'B-NP'
p1506
g5
tp1507
a(g1328
g1328
S'SYM'
p1508
S'B-VP'
p1509
g5
tp1510
a(S'.445'
p1511
S'.445'
p1512
S'CD'
p1513
S'B-NP'
p1514
g5
tp1515
a(g289
g289
g289
g5
g5
tp1516
a(g81
g81
g81
g5
g5
tp1517
a(S'CONCLUSIONS'
p1518
S'CONCLUSIONS'
p1519
S'NNS'
p1520
S'B-NP'
p1521
g5
tp1522
a(S'In'
p1523
S'In'
p1524
S'IN'
p1525
S'B-PP'
p1526
g5
tp1527
a(S'patients'
p1528
S'patient'
p1529
S'NNS'
p1530
S'B-NP'
p1531
g5
tp1532
a(g143
g143
g143
g5
g5
tp1533
a(S'fully'
p1534
S'fully'
p1535
S'RB'
p1536
S'B-ADVP'
p1537
g5
tp1538
a(S'dentate'
p1539
S'dentate'
p1540
S'VBP'
p1541
S'B-VP'
p1542
g5
tp1543
a(S'or'
p1544
S'or'
p1545
S'CC'
p1546
g5
g5
tp1547
a(S'with'
p1548
S'with'
p1549
S'IN'
p1550
S'B-PP'
p1551
g5
tp1552
a(g164
g164
S'CD'
p1553
S'B-NP'
p1554
g5
tp1555
a(S'or'
p1556
S'or'
p1557
S'CC'
p1558
S'I-NP'
p1559
g5
tp1560
a(g173
g173
S'CD'
p1561
S'I-NP'
p1562
g5
tp1563
a(S'teeth'
p1564
S'tooth'
p1565
S'NNS'
p1566
S'I-NP'
p1567
g5
tp1568
a(S'missing'
p1569
S'miss'
p1570
S'VBG'
p1571
S'B-VP'
p1572
g5
tp1573
a(S'and'
p1574
S'and'
p1575
S'CC'
p1576
g5
g5
tp1577
a(S'older'
p1578
S'old'
p1579
S'JJR'
p1580
S'B-NP'
p1581
g5
tp1582
a(S'than'
p1583
S'than'
p1584
S'IN'
p1585
S'I-NP'
p1586
g5
tp1587
a(S'25'
p1588
S'25'
p1589
S'CD'
p1590
S'I-NP'
p1591
g5
tp1592
a(S'years'
p1593
S'year'
p1594
S'NNS'
p1595
S'I-NP'
p1596
g5
tp1597
a(S'who'
p1598
S'who'
p1599
S'WP'
p1600
S'B-NP'
p1601
g5
tp1602
a(S'have'
p1603
S'have'
p1604
S'VBP'
p1605
S'B-VP'
p1606
g5
tp1607
a(S'no'
p1608
S'no'
p1609
S'DT'
p1610
S'B-NP'
p1611
g5
tp1612
a(S'jawbone'
p1613
S'jawbone'
p1614
S'NN'
p1615
S'I-NP'
p1616
g5
tp1617
a(S'atrophy'
p1618
S'atrophy'
p1619
S'NN'
p1620
S'I-NP'
p1621
g5
tp1622
a(S'and'
p1623
S'and'
p1624
S'CC'
p1625
g5
g5
tp1626
a(S'no'
p1627
S'no'
p1628
S'DT'
p1629
S'B-NP'
p1630
g5
tp1631
a(S'systemic'
p1632
S'systemic'
p1633
S'JJ'
p1634
S'I-NP'
p1635
g5
tp1636
a(S'problems'
p1637
S'problem'
p1638
S'NNS'
p1639
S'I-NP'
p1640
g5
tp1641
a(S'that'
p1642
S'that'
p1643
S'WDT'
p1644
S'B-NP'
p1645
g5
tp1646
a(S'may'
p1647
S'may'
p1648
S'MD'
p1649
S'B-VP'
p1650
g5
tp1651
a(S'impair'
p1652
S'impair'
p1653
S'VB'
p1654
S'I-VP'
p1655
g5
tp1656
a(S'bone'
p1657
S'bone'
p1658
S'NN'
p1659
S'B-NP'
p1660
g5
tp1661
a(S'strength'
p1662
S'strength'
p1663
S'NN'
p1664
S'I-NP'
p1665
g5
tp1666
a(g143
g143
g143
g5
g5
tp1667
a(S'mastication'
p1668
S'mastication'
p1669
S'NN'
p1670
S'B-NP'
p1671
g5
tp1672
a(S'seems'
p1673
S'seem'
p1674
S'VBZ'
p1675
S'B-VP'
p1676
g5
tp1677
a(S'not'
p1678
S'not'
p1679
S'RB'
p1680
g5
g5
tp1681
a(S'to'
p1682
S'to'
p1683
S'TO'
p1684
S'B-VP'
p1685
g5
tp1686
a(S'affect'
p1687
S'affect'
p1688
S'VB'
p1689
S'I-VP'
p1690
g5
tp1691
a(S'late'
p1692
S'late'
p1693
S'JJ'
p1694
S'B-NP'
p1695
g5
tp1696
a(S'mandibular'
p1697
S'mandibular'
p1698
S'JJ'
p1699
S'I-NP'
p1700
g5
tp1701
a(S'fracture'
p1702
S'fracture'
p1703
S'NN'
p1704
S'I-NP'
p1705
g5
tp1706
a(S'after'
p1707
S'after'
p1708
S'IN'
p1709
S'B-PP'
p1710
g5
tp1711
a(S'surgical'
p1712
S'surgical'
p1713
S'JJ'
p1714
S'B-NP'
p1715
g5
tp1716
a(S'removal'
p1717
S'removal'
p1718
S'NN'
p1719
S'I-NP'
p1720
g5
tp1721
a(S'of'
p1722
S'of'
p1723
S'IN'
p1724
S'B-PP'
p1725
g5
tp1726
a(S'impacted'
p1727
S'impact'
p1728
S'VBN'
p1729
S'B-NP'
p1730
g5
tp1731
a(S'M3s'
p1732
S'M3'
p1733
S'NNS'
p1734
S'I-NP'
p1735
g5
tp1736
a(S'associated'
p1737
S'associate'
p1738
S'VBN'
p1739
S'B-VP'
p1740
g5
tp1741
a(S'with'
p1742
S'with'
p1743
S'IN'
p1744
S'B-PP'
p1745
g5
tp1746
a(S'no'
p1747
S'no'
p1748
S'DT'
p1749
S'B-NP'
p1750
g5
tp1751
a(S'gross'
p1752
S'gross'
p1753
S'JJ'
p1754
S'I-NP'
p1755
g5
tp1756
a(S'pathology.'
p1757
S'pathology.'
p1758
S'NN'
p1759
S'I-NP'
p1760
g5
tp1761
a(S'The'
p1762
S'The'
p1763
S'DT'
p1764
S'B-NP'
p1765
g5
tp1766
a(S'remote'
p1767
S'remote'
p1768
S'JJ'
p1769
S'I-NP'
p1770
g5
tp1771
a(S'possible'
p1772
S'possible'
p1773
S'JJ'
p1774
S'I-NP'
p1775
g5
tp1776
a(S'risk'
p1777
S'risk'
p1778
S'NN'
p1779
S'I-NP'
p1780
g5
tp1781
a(S'of'
p1782
S'of'
p1783
S'IN'
p1784
S'B-PP'
p1785
g5
tp1786
a(S'the'
p1787
S'the'
p1788
S'DT'
p1789
S'B-NP'
p1790
g5
tp1791
a(S'late'
p1792
S'late'
p1793
S'JJ'
p1794
S'I-NP'
p1795
g5
tp1796
a(S'fracture'
p1797
S'fracture'
p1798
S'NN'
p1799
S'I-NP'
p1800
g5
tp1801
a(S'shown'
p1802
S'show'
p1803
S'VBN'
p1804
S'B-VP'
p1805
g5
tp1806
a(S'in'
p1807
S'in'
p1808
S'IN'
p1809
S'B-PP'
p1810
g5
tp1811
a(S'our'
p1812
S'our'
p1813
S'PRP$'
p1814
S'B-NP'
p1815
g5
tp1816
a(S'patients'
p1817
S'patient'
p1818
S'NNS'
p1819
S'I-NP'
p1820
g5
tp1821
a(S'indicates'
p1822
S'indicate'
p1823
S'VBZ'
p1824
S'B-VP'
p1825
g5
tp1826
a(S'the'
p1827
S'the'
p1828
S'DT'
p1829
S'B-NP'
p1830
g5
tp1831
a(S'need'
p1832
S'need'
p1833
S'NN'
p1834
S'I-NP'
p1835
g5
tp1836
a(S'for'
p1837
S'for'
p1838
S'IN'
p1839
S'B-PP'
p1840
g5
tp1841
a(S'no'
p1842
S'no'
p1843
S'DT'
p1844
S'B-NP'
p1845
g5
tp1846
a(S'special'
p1847
S'special'
p1848
S'JJ'
p1849
S'I-NP'
p1850
g5
tp1851
a(S'precautions'
p1852
S'precaution'
p1853
S'NNS'
p1854
S'I-NP'
p1855
g5
tp1856
a(g81
g81
g81
g5
g5
tp1857
a.