(lp0
(S'Effects'
p1
S'Effect'
p2
S'NNS'
p3
S'B-NP'
p4
S'O'
p5
tp6
a(S'of'
p7
S'of'
p8
S'IN'
p9
S'B-PP'
p10
g5
tp11
a(S'individualized'
p12
S'individualize'
p13
S'VBN'
p14
S'B-NP'
p15
g5
tp16
a(S'breast'
p17
S'breast'
p18
S'NN'
p19
S'I-NP'
p20
g5
tp21
a(S'cancer'
p22
S'cancer'
p23
S'NN'
p24
S'I-NP'
p25
g5
tp26
a(S'risk'
p27
S'risk'
p28
S'NN'
p29
S'I-NP'
p30
g5
tp31
a(S'counseling'
p32
S'counseling'
p33
S'NN'
p34
S'I-NP'
p35
g5
tp36
a(S':'
p37
g37
g37
g5
g5
tp38
a(S'a'
p39
g39
S'DT'
p40
S'B-NP'
p41
g5
tp42
a(S'randomized'
p43
S'randomize'
p44
S'VBN'
p45
S'I-NP'
p46
g5
tp47
a(S'trial'
p48
S'trial'
p49
S'NN'
p50
S'I-NP'
p51
g5
tp52
a(S'.'
p53
g53
g53
g5
g5
tp54
a(S'BACKGROUND'
p55
S'BACKGROUND'
p56
S'NN'
p57
S'B-NP'
p58
g5
tp59
a(S'Studies'
p60
S'Study'
p61
S'NNS'
p62
S'I-NP'
p63
g5
tp64
a(S'have'
p65
S'have'
p66
S'VBP'
p67
S'B-VP'
p68
g5
tp69
a(S'shown'
p70
S'show'
p71
S'VBN'
p72
S'I-VP'
p73
g5
tp74
a(S'that'
p75
S'that'
p76
S'IN'
p77
S'B-SBAR'
p78
g5
tp79
a(g39
g39
S'DT'
p80
S'B-NP'
p81
g5
tp82
a(S'majority'
p83
S'majority'
p84
S'NN'
p85
S'I-NP'
p86
g5
tp87
a(S'of'
p88
S'of'
p89
S'IN'
p90
S'B-PP'
p91
g5
tp92
a(S'women'
p93
S'woman'
p94
S'NNS'
p95
S'B-NP'
p96
g5
tp97
a(S'with'
p98
S'with'
p99
S'IN'
p100
S'B-PP'
p101
g5
tp102
a(g39
g39
S'DT'
p103
S'B-NP'
p104
g5
tp105
a(S'family'
p106
S'family'
p107
S'NN'
p108
S'I-NP'
p109
g5
tp110
a(S'history'
p111
S'history'
p112
S'NN'
p113
S'I-NP'
p114
g5
tp115
a(S'of'
p116
S'of'
p117
S'IN'
p118
S'B-PP'
p119
g5
tp120
a(S'breast'
p121
S'breast'
p122
S'NN'
p123
S'B-NP'
p124
g5
tp125
a(S'cancer'
p126
S'cancer'
p127
S'NN'
p128
S'I-NP'
p129
g5
tp130
a(S'have'
p131
S'have'
p132
S'VBP'
p133
S'B-VP'
p134
g5
tp135
a(S'exaggerated'
p136
S'exaggerate'
p137
S'VBN'
p138
S'I-VP'
p139
g5
tp140
a(S'perceptions'
p141
S'perception'
p142
S'NNS'
p143
S'B-NP'
p144
g5
tp145
a(S'of'
p146
S'of'
p147
S'IN'
p148
S'B-PP'
p149
g5
tp150
a(S'their'
p151
S'their'
p152
S'PRP$'
p153
S'B-NP'
p154
g5
tp155
a(S'own'
p156
S'own'
p157
S'JJ'
p158
S'I-NP'
p159
g5
tp160
a(S'risk'
p161
S'risk'
p162
S'NN'
p163
S'I-NP'
p164
g5
tp165
a(S'of'
p166
S'of'
p167
S'IN'
p168
S'B-PP'
p169
g5
tp170
a(S'this'
p171
S'this'
p172
S'DT'
p173
S'B-NP'
p174
g5
tp175
a(S'disease'
p176
S'disease'
p177
S'NN'
p178
S'I-NP'
p179
g5
tp180
a(S'and'
p181
S'and'
p182
S'CC'
p183
g5
g5
tp184
a(S'experience'
p185
S'experience'
p186
S'NN'
p187
S'B-NP'
p188
g5
tp189
a(S'excessive'
p190
S'excessive'
p191
S'JJ'
p192
S'I-NP'
p193
g5
tp194
a(S'anxiety.'
p195
S'anxiety.'
p196
S'NN'
p197
S'I-NP'
p198
g5
tp199
a(S'In'
p200
S'In'
p201
S'IN'
p202
S'B-PP'
p203
g5
tp204
a(S'response'
p205
S'response'
p206
S'NN'
p207
S'B-NP'
p208
g5
tp209
a(S'to'
p210
S'to'
p211
S'TO'
p212
S'B-PP'
p213
g5
tp214
a(S'the'
p215
S'the'
p216
S'DT'
p217
S'B-NP'
p218
g5
tp219
a(S'need'
p220
S'need'
p221
S'NN'
p222
S'I-NP'
p223
g5
tp224
a(S'to'
p225
S'to'
p226
S'TO'
p227
S'B-VP'
p228
g5
tp229
a(S'communicate'
p230
S'communicate'
p231
S'VB'
p232
S'I-VP'
p233
g5
tp234
a(S'more'
p235
S'more'
p236
S'RBR'
p237
S'B-NP'
p238
g5
tp239
a(S'accurate'
p240
S'accurate'
p241
S'JJ'
p242
S'I-NP'
p243
g5
tp244
a(S'risk'
p245
S'risk'
p246
S'NN'
p247
S'I-NP'
p248
g5
tp249
a(S'information'
p250
S'information'
p251
S'NN'
p252
S'I-NP'
p253
g5
tp254
a(S'to'
p255
S'to'
p256
S'TO'
p257
S'B-PP'
p258
g5
tp259
a(S'these'
p260
S'these'
p261
S'DT'
p262
S'B-NP'
p263
g5
tp264
a(S'women'
p265
S'woman'
p266
S'NNS'
p267
S'I-NP'
p268
g5
tp269
a(S','
p270
g270
g270
g5
g5
tp271
a(S'specialized'
p272
S'specialize'
p273
S'VBD'
p274
S'B-VP'
p275
g5
tp276
a(S'programs'
p277
S'program'
p278
S'NNS'
p279
S'B-NP'
p280
g5
tp281
a(S'for'
p282
S'for'
p283
S'IN'
p284
S'B-PP'
p285
g5
tp286
a(S'breast'
p287
S'breast'
p288
S'NN'
p289
S'B-NP'
p290
g5
tp291
a(S'cancer'
p292
S'cancer'
p293
S'NN'
p294
S'I-NP'
p295
g5
tp296
a(S'risk'
p297
S'risk'
p298
S'NN'
p299
S'I-NP'
p300
g5
tp301
a(S'counseling'
p302
S'counseling'
p303
S'NN'
p304
S'I-NP'
p305
g5
tp306
a(S'have'
p307
S'have'
p308
S'VBP'
p309
S'B-VP'
p310
g5
tp311
a(S'been'
p312
S'be'
p313
S'VBN'
p314
S'I-VP'
p315
g5
tp316
a(S'initiated'
p317
S'initiate'
p318
S'VBN'
p319
S'I-VP'
p320
g5
tp321
a(S'in'
p322
S'in'
p323
S'IN'
p324
S'B-PP'
p325
g5
tp326
a(S'medical'
p327
S'medical'
p328
S'JJ'
p329
S'B-NP'
p330
g5
tp331
a(S'centers'
p332
S'center'
p333
S'NNS'
p334
S'I-NP'
p335
g5
tp336
a(S'across'
p337
S'across'
p338
S'IN'
p339
S'B-PP'
p340
g5
tp341
a(S'the'
p342
S'the'
p343
S'DT'
p344
S'B-NP'
p345
g5
tp346
a(S'United'
p347
S'United'
p348
S'NNP'
p349
S'I-NP'
p350
g5
tp351
a(S'States'
p352
S'State'
p353
S'NNPS'
p354
S'I-NP'
p355
g5
tp356
a(g53
g53
g53
g5
g5
tp357
a(S'PURPOSE'
p358
S'PURPOSE'
p359
S'NN'
p360
S'B-NP'
p361
g5
tp362
a(S'Our'
p363
S'Our'
p364
S'PRP$'
p365
S'B-NP'
p366
g5
tp367
a(S'purpose'
p368
S'purpose'
p369
S'NN'
p370
S'I-NP'
p371
g5
tp372
a(S'was'
p373
S'be'
p374
S'VBD'
p375
S'B-VP'
p376
g5
tp377
a(S'1'
p378
g378
S'CD'
p379
S'B-NP'
p380
g5
tp381
a(S')'
p382
g382
g382
g5
g5
tp383
a(S'to'
p384
S'to'
p385
S'TO'
p386
S'B-VP'
p387
g5
tp388
a(S'evaluate'
p389
S'evaluate'
p390
S'VB'
p391
S'I-VP'
p392
g5
tp393
a(S'the'
p394
S'the'
p395
S'DT'
p396
S'B-NP'
p397
g5
tp398
a(S'impact'
p399
S'impact'
p400
S'NN'
p401
S'I-NP'
p402
g5
tp403
a(S'of'
p404
S'of'
p405
S'IN'
p406
S'B-PP'
p407
g5
tp408
a(g39
g39
S'DT'
p409
S'B-NP'
p410
g5
tp411
a(S'standardized'
p412
S'standardized'
p413
S'JJ'
p414
S'I-NP'
p415
g5
tp416
a(S'protocol'
p417
S'protocol'
p418
S'NN'
p419
S'I-NP'
p420
g5
tp421
a(S'for'
p422
S'for'
p423
S'IN'
p424
S'B-PP'
p425
g5
tp426
a(S'individualized'
p427
S'individualize'
p428
S'VBN'
p429
S'B-NP'
p430
g5
tp431
a(S'breast'
p432
S'breast'
p433
S'NN'
p434
S'I-NP'
p435
g5
tp436
a(S'cancer'
p437
S'cancer'
p438
S'NN'
p439
S'I-NP'
p440
g5
tp441
a(S'risk'
p442
S'risk'
p443
S'NN'
p444
S'I-NP'
p445
g5
tp446
a(S'counseling'
p447
S'counsel'
p448
S'VBG'
p449
S'B-VP'
p450
g5
tp451
a(S'on'
p452
S'on'
p453
S'IN'
p454
S'B-PP'
p455
g5
tp456
a(S'comprehension'
p457
S'comprehension'
p458
S'NN'
p459
S'B-NP'
p460
g5
tp461
a(S'of'
p462
S'of'
p463
S'IN'
p464
S'B-PP'
p465
g5
tp466
a(S'personal'
p467
S'personal'
p468
S'JJ'
p469
S'B-NP'
p470
g5
tp471
a(S'risk'
p472
S'risk'
p473
S'NN'
p474
S'I-NP'
p475
g5
tp476
a(S'among'
p477
S'among'
p478
S'IN'
p479
S'B-PP'
p480
g5
tp481
a(S'first-degree'
p482
S'first-degree'
p483
S'JJ'
p484
S'B-NP'
p485
g5
tp486
a(S'relatives'
p487
S'relative'
p488
S'NNS'
p489
S'I-NP'
p490
g5
tp491
a(S'of'
p492
S'of'
p493
S'IN'
p494
S'B-PP'
p495
g5
tp496
a(S'index'
p497
S'index'
p498
S'NN'
p499
S'B-NP'
p500
g5
tp501
a(S'breast'
p502
S'breast'
p503
S'NN'
p504
S'I-NP'
p505
g5
tp506
a(S'cancer'
p507
S'cancer'
p508
S'NN'
p509
S'I-NP'
p510
g5
tp511
a(S'patients'
p512
S'patient'
p513
S'NNS'
p514
S'I-NP'
p515
g5
tp516
a(S'and'
p517
S'and'
p518
S'CC'
p519
g5
g5
tp520
a(S'2'
p521
g521
S'LS'
p522
S'B-LST'
p523
g5
tp524
a(g382
g382
g382
g5
g5
tp525
a(S'to'
p526
S'to'
p527
S'TO'
p528
S'B-VP'
p529
g5
tp530
a(S'identify'
p531
S'identify'
p532
S'VB'
p533
S'I-VP'
p534
g5
tp535
a(S'women'
p536
S'woman'
p537
S'NNS'
p538
S'B-NP'
p539
g5
tp540
a(S'most'
p541
S'most'
p542
S'RBS'
p543
S'B-ADVP'
p544
g5
tp545
a(S'and'
p546
S'and'
p547
S'CC'
p548
g5
g5
tp549
a(S'least'
p550
S'least'
p551
S'RBS'
p552
S'B-ADJP'
p553
g5
tp554
a(S'likely'
p555
S'likely'
p556
S'JJ'
p557
S'I-ADJP'
p558
g5
tp559
a(S'to'
p560
S'to'
p561
S'TO'
p562
S'B-VP'
p563
g5
tp564
a(S'benefit'
p565
S'benefit'
p566
S'VB'
p567
S'I-VP'
p568
g5
tp569
a(S'from'
p570
S'from'
p571
S'IN'
p572
S'B-PP'
p573
g5
tp574
a(S'such'
p575
S'such'
p576
S'JJ'
p577
S'B-NP'
p578
g5
tp579
a(S'counseling'
p580
S'counseling'
p581
S'NN'
p582
S'I-NP'
p583
g5
tp584
a(g53
g53
g53
g5
g5
tp585
a(S'METHODS'
p586
S'METHODS'
p587
S'NNS'
p588
S'B-NP'
p589
g5
tp590
a(S'This'
p591
S'This'
p592
S'DT'
p593
S'B-NP'
p594
g5
tp595
a(S'study'
p596
S'study'
p597
S'NN'
p598
S'I-NP'
p599
g5
tp600
a(S'is'
p601
S'be'
p602
S'VBZ'
p603
S'B-VP'
p604
g5
tp605
a(g39
g39
S'DT'
p606
S'B-NP'
p607
g5
tp608
a(S'prospective'
p609
S'prospective'
p610
S'JJ'
p611
S'I-NP'
p612
g5
tp613
a(S'randomized'
p614
S'randomize'
p615
S'VBN'
p616
S'I-NP'
p617
g5
tp618
a(S'trial'
p619
S'trial'
p620
S'NN'
p621
S'I-NP'
p622
g5
tp623
a(S'comparing'
p624
S'compare'
p625
S'VBG'
p626
S'B-VP'
p627
g5
tp628
a(S'individualized'
p629
S'individualize'
p630
S'VBN'
p631
S'B-NP'
p632
g5
tp633
a(S'breast'
p634
S'breast'
p635
S'NN'
p636
S'I-NP'
p637
g5
tp638
a(S'cancer'
p639
S'cancer'
p640
S'NN'
p641
S'I-NP'
p642
g5
tp643
a(S'risk'
p644
S'risk'
p645
S'NN'
p646
S'I-NP'
p647
g5
tp648
a(S'counseling'
p649
S'counsel'
p650
S'VBG'
p651
S'B-VP'
p652
g5
tp653
a(S'to'
p654
S'to'
p655
S'TO'
p656
S'B-PP'
p657
g5
tp658
a(S'general'
p659
S'general'
p660
S'JJ'
p661
S'B-NP'
p662
g5
tp663
a(S'health'
p664
S'health'
p665
S'NN'
p666
S'I-NP'
p667
g5
tp668
a(S'counseling'
p669
S'counseling'
p670
S'NN'
p671
S'I-NP'
p672
g5
tp673
a(S'('
p674
g674
g674
g5
g5
tp675
a(S'control'
p676
S'control'
p677
S'NN'
p678
S'B-NP'
p679
g5
tp680
a(g382
g382
g382
g5
g5
tp681
a(g53
g53
g53
g5
g5
tp682
a(S'We'
p683
S'We'
p684
S'PRP'
p685
S'B-NP'
p686
g5
tp687
a(S'studied'
p688
S'study'
p689
S'VBD'
p690
S'B-VP'
p691
g5
tp692
a(S'200'
p693
S'200'
p694
S'CD'
p695
S'B-NP'
p696
g5
tp697
a(S'women'
p698
S'woman'
p699
S'NNS'
p700
S'I-NP'
p701
g5
tp702
a(S'aged'
p703
S'age'
p704
S'VBN'
p705
S'B-VP'
p706
g5
tp707
a(S'35'
p708
S'35'
p709
S'CD'
p710
S'B-NP'
p711
g5
tp712
a(S'years'
p713
S'year'
p714
S'NNS'
p715
S'I-NP'
p716
g5
tp717
a(S'and'
p718
S'and'
p719
S'CC'
p720
g5
g5
tp721
a(S'older'
p722
S'old'
p723
S'JJR'
p724
S'B-NP'
p725
g5
tp726
a(S'who'
p727
S'who'
p728
S'WP'
p729
S'B-NP'
p730
g5
tp731
a(S'had'
p732
S'have'
p733
S'VBD'
p734
S'B-VP'
p735
g5
tp736
a(g39
g39
S'DT'
p737
S'B-NP'
p738
g5
tp739
a(S'family'
p740
S'family'
p741
S'NN'
p742
S'I-NP'
p743
g5
tp744
a(S'history'
p745
S'history'
p746
S'NN'
p747
S'I-NP'
p748
g5
tp749
a(S'of'
p750
S'of'
p751
S'IN'
p752
S'B-PP'
p753
g5
tp754
a(S'breast'
p755
S'breast'
p756
S'NN'
p757
S'B-NP'
p758
g5
tp759
a(S'cancer'
p760
S'cancer'
p761
S'NN'
p762
S'I-NP'
p763
g5
tp764
a(S'in'
p765
S'in'
p766
S'IN'
p767
S'B-PP'
p768
g5
tp769
a(g39
g39
S'DT'
p770
S'B-NP'
p771
g5
tp772
a(S'first-degree'
p773
S'first-degree'
p774
S'JJ'
p775
S'I-NP'
p776
g5
tp777
a(S'relative.'
p778
S'relative.'
p779
S'NN'
p780
S'I-NP'
p781
g5
tp782
a(S'Women'
p783
S'Woman'
p784
S'NNS'
p785
S'I-NP'
p786
g5
tp787
a(S'with'
p788
S'with'
p789
S'IN'
p790
S'B-PP'
p791
g5
tp792
a(g39
g39
S'DT'
p793
S'B-NP'
p794
g5
tp795
a(S'personal'
p796
S'personal'
p797
S'JJ'
p798
S'I-NP'
p799
g5
tp800
a(S'history'
p801
S'history'
p802
S'NN'
p803
S'I-NP'
p804
g5
tp805
a(S'of'
p806
S'of'
p807
S'IN'
p808
S'B-PP'
p809
g5
tp810
a(S'cancer'
p811
S'cancer'
p812
S'NN'
p813
S'B-NP'
p814
g5
tp815
a(S'were'
p816
S'be'
p817
S'VBD'
p818
S'B-VP'
p819
g5
tp820
a(S'excluded.'
p821
S'excluded.'
p822
S'VBN'
p823
S'I-VP'
p824
g5
tp825
a(S'Risk'
p826
S'Risk'
p827
S'NN'
p828
S'B-NP'
p829
g5
tp830
a(S'comprehension'
p831
S'comprehension'
p832
S'NN'
p833
S'I-NP'
p834
g5
tp835
a(S'was'
p836
S'be'
p837
S'VBD'
p838
S'B-VP'
p839
g5
tp840
a(S'assessed'
p841
S'assess'
p842
S'VBN'
p843
S'I-VP'
p844
g5
tp845
a(S'as'
p846
S'as'
p847
S'IN'
p848
S'B-PP'
p849
g5
tp850
a(S'the'
p851
S'the'
p852
S'DT'
p853
S'B-NP'
p854
g5
tp855
a(S'concordance'
p856
S'concordance'
p857
S'NN'
p858
S'I-NP'
p859
g5
tp860
a(S'between'
p861
S'between'
p862
S'IN'
p863
S'B-PP'
p864
g5
tp865
a(S'perceived'
p866
S'perceive'
p867
S'VBN'
p868
S'B-NP'
p869
g5
tp870
a(S'``'
p871
S'``'
p872
S'``'
p873
S'I-NP'
p874
g5
tp875
a(S'subjective'
p876
S'subjective'
p877
S'JJ'
p878
S'I-NP'
p879
g5
tp880
a(S"''"
p881
S"''"
p882
S"''"
p883
S'I-NP'
p884
g5
tp885
a(S'lifetime'
p886
S'lifetime'
p887
S'NN'
p888
S'I-NP'
p889
g5
tp890
a(S'breast'
p891
S'breast'
p892
S'NN'
p893
S'I-NP'
p894
g5
tp895
a(S'cancer'
p896
S'cancer'
p897
S'NN'
p898
S'I-NP'
p899
g5
tp900
a(S'risk'
p901
S'risk'
p902
S'NN'
p903
S'I-NP'
p904
g5
tp905
a(S'and'
p906
S'and'
p907
S'CC'
p908
g5
g5
tp909
a(S'estimated'
p910
S'estimate'
p911
S'VBN'
p912
S'B-VP'
p913
g5
tp914
a(S'``'
p915
S'``'
p916
S'``'
p917
S'B-NP'
p918
g5
tp919
a(S'objective'
p920
S'objective'
p921
S'JJ'
p922
S'I-NP'
p923
g5
tp924
a(S"''"
p925
S"''"
p926
S"''"
p927
S'I-NP'
p928
g5
tp929
a(S'lifetime'
p930
S'lifetime'
p931
S'NN'
p932
S'I-NP'
p933
g5
tp934
a(S'risk'
p935
S'risk'
p936
S'NN'
p937
S'I-NP'
p938
g5
tp939
a(g53
g53
g53
g5
g5
tp940
a(S'RESULTS'
p941
S'RESULTS'
p942
S'NNS'
p943
S'B-NP'
p944
g5
tp945
a(S'The'
p946
S'The'
p947
S'DT'
p948
S'B-NP'
p949
g5
tp950
a(S'results'
p951
S'result'
p952
S'NNS'
p953
S'I-NP'
p954
g5
tp955
a(S'of'
p956
S'of'
p957
S'IN'
p958
S'B-PP'
p959
g5
tp960
a(S'logistic'
p961
S'logistic'
p962
S'JJ'
p963
S'B-NP'
p964
g5
tp965
a(S'regression'
p966
S'regression'
p967
S'NN'
p968
S'I-NP'
p969
g5
tp970
a(S'analysis'
p971
S'analysis'
p972
S'NN'
p973
S'I-NP'
p974
g5
tp975
a(S'showed'
p976
S'show'
p977
S'VBD'
p978
S'B-VP'
p979
g5
tp980
a(S'that'
p981
S'that'
p982
S'IN'
p983
S'B-SBAR'
p984
g5
tp985
a(S'women'
p986
S'woman'
p987
S'NNS'
p988
S'B-NP'
p989
g5
tp990
a(S'who'
p991
S'who'
p992
S'WP'
p993
S'B-NP'
p994
g5
tp995
a(S'received'
p996
S'receive'
p997
S'VBD'
p998
S'B-VP'
p999
g5
tp1000
a(S'risk'
p1001
S'risk'
p1002
S'NN'
p1003
S'B-NP'
p1004
g5
tp1005
a(S'counseling'
p1006
S'counseling'
p1007
S'NN'
p1008
S'I-NP'
p1009
g5
tp1010
a(S'were'
p1011
S'be'
p1012
S'VBD'
p1013
S'B-VP'
p1014
g5
tp1015
a(S'significantly'
p1016
S'significantly'
p1017
S'RB'
p1018
S'B-ADJP'
p1019
g5
tp1020
a(S'more'
p1021
S'more'
p1022
S'RBR'
p1023
S'I-ADJP'
p1024
g5
tp1025
a(S'likely'
p1026
S'likely'
p1027
S'JJ'
p1028
S'I-ADJP'
p1029
g5
tp1030
a(S'to'
p1031
S'to'
p1032
S'TO'
p1033
S'B-VP'
p1034
g5
tp1035
a(S'improve'
p1036
S'improve'
p1037
S'VB'
p1038
S'I-VP'
p1039
g5
tp1040
a(S'their'
p1041
S'their'
p1042
S'PRP$'
p1043
S'B-NP'
p1044
g5
tp1045
a(S'risk'
p1046
S'risk'
p1047
S'NN'
p1048
S'I-NP'
p1049
g5
tp1050
a(S'comprehension'
p1051
S'comprehension'
p1052
S'NN'
p1053
S'I-NP'
p1054
g5
tp1055
a(g270
g270
g270
g5
g5
tp1056
a(S'compared'
p1057
S'compare'
p1058
S'VBN'
p1059
S'B-PP'
p1060
g5
tp1061
a(S'with'
p1062
S'with'
p1063
S'IN'
p1064
S'B-PP'
p1065
g5
tp1066
a(S'women'
p1067
S'woman'
p1068
S'NNS'
p1069
S'B-NP'
p1070
g5
tp1071
a(S'in'
p1072
S'in'
p1073
S'IN'
p1074
S'B-PP'
p1075
g5
tp1076
a(S'the'
p1077
S'the'
p1078
S'DT'
p1079
S'B-NP'
p1080
g5
tp1081
a(S'control'
p1082
S'control'
p1083
S'NN'
p1084
S'I-NP'
p1085
g5
tp1086
a(S'condition'
p1087
S'condition'
p1088
S'NN'
p1089
S'I-NP'
p1090
g5
tp1091
a(g674
g674
g674
g5
g5
tp1092
a(S'odds'
p1093
S'odd'
p1094
S'NNS'
p1095
S'B-NP'
p1096
g5
tp1097
a(S'ratio'
p1098
S'ratio'
p1099
S'NN'
p1100
S'I-NP'
p1101
g5
tp1102
a(S'['
p1103
g1103
g674
g5
g5
tp1104
a(S'OR'
p1105
S'OR'
p1106
S'NN'
p1107
S'B-NP'
p1108
g5
tp1109
a(S']'
p1110
g1110
g382
g5
g5
tp1111
a(S'='
p1112
g1112
S'SYM'
p1113
S'B-VP'
p1114
g5
tp1115
a(S'3.5'
p1116
S'3.5'
p1117
S'CD'
p1118
S'B-NP'
p1119
g5
tp1120
a(S';'
p1121
g1121
g37
g5
g5
tp1122
a(S'95'
p1123
S'95'
p1124
S'CD'
p1125
S'B-NP'
p1126
g5
tp1127
a(S'%'
p1128
g1128
S'NN'
p1129
S'I-NP'
p1130
g5
tp1131
a(S'confidence'
p1132
S'confidence'
p1133
S'NN'
p1134
S'I-NP'
p1135
g5
tp1136
a(S'interval'
p1137
S'interval'
p1138
S'NN'
p1139
S'I-NP'
p1140
g5
tp1141
a(g1103
g1103
g674
g5
g5
tp1142
a(S'CI'
p1143
S'CI'
p1144
S'NN'
p1145
S'B-NP'
p1146
g5
tp1147
a(g1110
g1110
g382
g5
g5
tp1148
a(g1112
g1112
S'SYM'
p1149
S'B-VP'
p1150
g5
tp1151
a(S'1.3-9.5'
p1152
S'1.3-9.5'
p1153
S'CD'
p1154
S'B-NP'
p1155
g5
tp1156
a(g1121
g1121
g37
g5
g5
tp1157
a(S'P'
p1158
g1158
S'NN'
p1159
S'B-NP'
p1160
g5
tp1161
a(g1112
g1112
S'SYM'
p1162
S'B-VP'
p1163
g5
tp1164
a(S'.01'
p1165
S'.01'
p1166
S'CD'
p1167
S'B-NP'
p1168
g5
tp1169
a(g382
g382
g382
g5
g5
tp1170
a(g53
g53
g53
g5
g5
tp1171
a(S'However'
p1172
S'However'
p1173
S'RB'
p1174
S'B-ADVP'
p1175
g5
tp1176
a(g270
g270
g270
g5
g5
tp1177
a(S'in'
p1178
S'in'
p1179
S'IN'
p1180
S'B-PP'
p1181
g5
tp1182
a(S'both'
p1183
S'both'
p1184
S'DT'
p1185
S'B-NP'
p1186
g5
tp1187
a(S'groups'
p1188
S'group'
p1189
S'NNS'
p1190
S'I-NP'
p1191
g5
tp1192
a(g270
g270
g270
g5
g5
tp1193
a(S'about'
p1194
S'about'
p1195
S'IN'
p1196
S'B-NP'
p1197
g5
tp1198
a(S'two'
p1199
S'two'
p1200
S'CD'
p1201
S'I-NP'
p1202
g5
tp1203
a(S'thirds'
p1204
S'third'
p1205
S'NNS'
p1206
S'I-NP'
p1207
g5
tp1208
a(S'of'
p1209
S'of'
p1210
S'IN'
p1211
S'B-PP'
p1212
g5
tp1213
a(S'women'
p1214
S'woman'
p1215
S'NNS'
p1216
S'B-NP'
p1217
g5
tp1218
a(S'continued'
p1219
S'continue'
p1220
S'VBD'
p1221
S'B-VP'
p1222
g5
tp1223
a(S'to'
p1224
S'to'
p1225
S'TO'
p1226
S'I-VP'
p1227
g5
tp1228
a(S'overestimate'
p1229
S'overestimate'
p1230
S'VB'
p1231
S'I-VP'
p1232
g5
tp1233
a(S'their'
p1234
S'their'
p1235
S'PRP$'
p1236
S'B-NP'
p1237
g5
tp1238
a(S'lifetime'
p1239
S'lifetime'
p1240
S'NN'
p1241
S'I-NP'
p1242
g5
tp1243
a(S'risks'
p1244
S'risk'
p1245
S'NNS'
p1246
S'I-NP'
p1247
g5
tp1248
a(S'substantially'
p1249
S'substantially'
p1250
S'RB'
p1251
S'B-VP'
p1252
g5
tp1253
a(S'following'
p1254
S'follow'
p1255
S'VBG'
p1256
S'I-VP'
p1257
g5
tp1258
a(S'counseling.'
p1259
S'counseling.'
p1260
S'NN'
p1261
S'B-NP'
p1262
g5
tp1263
a(S'Examination'
p1264
S'Examination'
p1265
S'NN'
p1266
S'I-NP'
p1267
g5
tp1268
a(S'of'
p1269
S'of'
p1270
S'IN'
p1271
S'B-PP'
p1272
g5
tp1273
a(S'subjects'
p1274
S'subject'
p1275
S'NNS'
p1276
S'B-NP'
p1277
g5
tp1278
a(S'by'
p1279
S'by'
p1280
S'IN'
p1281
S'B-PP'
p1282
g5
tp1283
a(S'treatment'
p1284
S'treatment'
p1285
S'NN'
p1286
S'B-NP'
p1287
g5
tp1288
a(S'interaction'
p1289
S'interaction'
p1290
S'NN'
p1291
S'I-NP'
p1292
g5
tp1293
a(S'effects'
p1294
S'effect'
p1295
S'NNS'
p1296
S'I-NP'
p1297
g5
tp1298
a(S'indicated'
p1299
S'indicate'
p1300
S'VBD'
p1301
S'B-VP'
p1302
g5
tp1303
a(S'that'
p1304
S'that'
p1305
S'IN'
p1306
S'B-SBAR'
p1307
g5
tp1308
a(S'risk'
p1309
S'risk'
p1310
S'NN'
p1311
S'B-NP'
p1312
g5
tp1313
a(S'counseling'
p1314
S'counseling'
p1315
S'NN'
p1316
S'I-NP'
p1317
g5
tp1318
a(S'did'
p1319
S'do'
p1320
S'VBD'
p1321
S'B-VP'
p1322
g5
tp1323
a(S'not'
p1324
S'not'
p1325
S'RB'
p1326
S'I-VP'
p1327
g5
tp1328
a(S'produce'
p1329
S'produce'
p1330
S'VB'
p1331
S'I-VP'
p1332
g5
tp1333
a(S'improved'
p1334
S'improved'
p1335
S'JJ'
p1336
S'B-NP'
p1337
g5
tp1338
a(S'comprehension'
p1339
S'comprehension'
p1340
S'NN'
p1341
S'I-NP'
p1342
g5
tp1343
a(S'among'
p1344
S'among'
p1345
S'IN'
p1346
S'B-PP'
p1347
g5
tp1348
a(S'the'
p1349
S'the'
p1350
S'DT'
p1351
S'B-NP'
p1352
g5
tp1353
a(S'large'
p1354
S'large'
p1355
S'JJ'
p1356
S'I-NP'
p1357
g5
tp1358
a(S'proportion'
p1359
S'proportion'
p1360
S'NN'
p1361
S'I-NP'
p1362
g5
tp1363
a(S'of'
p1364
S'of'
p1365
S'IN'
p1366
S'B-PP'
p1367
g5
tp1368
a(S'women'
p1369
S'woman'
p1370
S'NNS'
p1371
S'B-NP'
p1372
g5
tp1373
a(S'who'
p1374
S'who'
p1375
S'WP'
p1376
S'B-NP'
p1377
g5
tp1378
a(S'had'
p1379
S'have'
p1380
S'VBD'
p1381
S'B-VP'
p1382
g5
tp1383
a(S'high'
p1384
S'high'
p1385
S'JJ'
p1386
S'B-NP'
p1387
g5
tp1388
a(S'levels'
p1389
S'level'
p1390
S'NNS'
p1391
S'I-NP'
p1392
g5
tp1393
a(S'of'
p1394
S'of'
p1395
S'IN'
p1396
S'B-PP'
p1397
g5
tp1398
a(S'anxious'
p1399
S'anxious'
p1400
S'JJ'
p1401
S'B-NP'
p1402
g5
tp1403
a(S'preoccupation'
p1404
S'preoccupation'
p1405
S'NN'
p1406
S'I-NP'
p1407
g5
tp1408
a(S'with'
p1409
S'with'
p1410
S'IN'
p1411
S'B-PP'
p1412
g5
tp1413
a(S'breast'
p1414
S'breast'
p1415
S'NN'
p1416
S'B-NP'
p1417
g5
tp1418
a(S'cancer'
p1419
S'cancer'
p1420
S'NN'
p1421
S'I-NP'
p1422
g5
tp1423
a(S'at'
p1424
S'at'
p1425
S'IN'
p1426
S'B-PP'
p1427
g5
tp1428
a(S'base'
p1429
S'base'
p1430
S'NN'
p1431
S'B-NP'
p1432
g5
tp1433
a(S'line'
p1434
S'line'
p1435
S'NN'
p1436
S'I-NP'
p1437
g5
tp1438
a(g674
g674
g674
g5
g5
tp1439
a(g1158
g1158
S'NN'
p1440
S'B-NP'
p1441
g5
tp1442
a(g1112
g1112
S'SYM'
p1443
S'B-VP'
p1444
g5
tp1445
a(S'.02'
p1446
S'.02'
p1447
S'CD'
p1448
S'B-NP'
p1449
g5
tp1450
a(g382
g382
g382
g5
g5
tp1451
a(g53
g53
g53
g5
g5
tp1452
a(S'In'
p1453
S'In'
p1454
S'IN'
p1455
S'B-PP'
p1456
g5
tp1457
a(S'addition'
p1458
S'addition'
p1459
S'NN'
p1460
S'B-NP'
p1461
g5
tp1462
a(g270
g270
g270
g5
g5
tp1463
a(S'white'
p1464
S'white'
p1465
S'JJ'
p1466
S'B-NP'
p1467
g5
tp1468
a(S'women'
p1469
S'woman'
p1470
S'NNS'
p1471
S'I-NP'
p1472
g5
tp1473
a(S'were'
p1474
S'be'
p1475
S'VBD'
p1476
S'B-VP'
p1477
g5
tp1478
a(S'less'
p1479
S'less'
p1480
S'RBR'
p1481
S'B-ADJP'
p1482
g5
tp1483
a(S'likely'
p1484
S'likely'
p1485
S'JJ'
p1486
S'I-ADJP'
p1487
g5
tp1488
a(S'to'
p1489
S'to'
p1490
S'TO'
p1491
S'B-VP'
p1492
g5
tp1493
a(S'benefit'
p1494
S'benefit'
p1495
S'VB'
p1496
S'I-VP'
p1497
g5
tp1498
a(S'than'
p1499
S'than'
p1500
S'IN'
p1501
S'B-PP'
p1502
g5
tp1503
a(S'African-American'
p1504
S'African-American'
p1505
S'JJ'
p1506
S'B-NP'
p1507
g5
tp1508
a(S'women'
p1509
S'woman'
p1510
S'NNS'
p1511
S'I-NP'
p1512
g5
tp1513
a(g674
g674
g674
g5
g5
tp1514
a(S'OR'
p1515
S'OR'
p1516
S'NN'
p1517
S'B-NP'
p1518
g5
tp1519
a(g1112
g1112
S'SYM'
p1520
S'B-VP'
p1521
g5
tp1522
a(S'0.34'
p1523
S'0.34'
p1524
S'CD'
p1525
S'B-NP'
p1526
g5
tp1527
a(g1121
g1121
g37
g5
g5
tp1528
a(S'95'
p1529
S'95'
p1530
S'CD'
p1531
S'B-NP'
p1532
g5
tp1533
a(g1128
g1128
S'NN'
p1534
S'I-NP'
p1535
g5
tp1536
a(S'CI'
p1537
S'CI'
p1538
S'NN'
p1539
S'I-NP'
p1540
g5
tp1541
a(g1112
g1112
S'SYM'
p1542
S'B-VP'
p1543
g5
tp1544
a(S'0.11-0.99'
p1545
S'0.11-0.99'
p1546
S'CD'
p1547
S'B-NP'
p1548
g5
tp1549
a(g1121
g1121
g37
g5
g5
tp1550
a(g1158
g1158
S'NN'
p1551
S'B-NP'
p1552
g5
tp1553
a(g1112
g1112
S'SYM'
p1554
S'B-VP'
p1555
g5
tp1556
a(S'.05'
p1557
S'.05'
p1558
S'CD'
p1559
S'B-NP'
p1560
g5
tp1561
a(g382
g382
g382
g5
g5
tp1562
a(g53
g53
g53
g5
g5
tp1563
a(S'CONCLUSION'
p1564
S'CONCLUSION'
p1565
S'NN'
p1566
S'B-NP'
p1567
g5
tp1568
a(S'Efforts'
p1569
S'Effort'
p1570
S'NNS'
p1571
S'I-NP'
p1572
g5
tp1573
a(S'to'
p1574
S'to'
p1575
S'TO'
p1576
S'B-VP'
p1577
g5
tp1578
a(S'counsel'
p1579
S'counsel'
p1580
S'VB'
p1581
S'I-VP'
p1582
g5
tp1583
a(S'women'
p1584
S'woman'
p1585
S'NNS'
p1586
S'B-NP'
p1587
g5
tp1588
a(S'about'
p1589
S'about'
p1590
S'IN'
p1591
S'B-PP'
p1592
g5
tp1593
a(S'their'
p1594
S'their'
p1595
S'PRP$'
p1596
S'B-NP'
p1597
g5
tp1598
a(S'breast'
p1599
S'breast'
p1600
S'NN'
p1601
S'I-NP'
p1602
g5
tp1603
a(S'cancer'
p1604
S'cancer'
p1605
S'NN'
p1606
S'I-NP'
p1607
g5
tp1608
a(S'risks'
p1609
S'risk'
p1610
S'NNS'
p1611
S'I-NP'
p1612
g5
tp1613
a(S'are'
p1614
S'be'
p1615
S'VBP'
p1616
S'B-VP'
p1617
g5
tp1618
a(S'not'
p1619
S'not'
p1620
S'RB'
p1621
g5
g5
tp1622
a(S'likely'
p1623
S'likely'
p1624
S'JJ'
p1625
S'B-ADJP'
p1626
g5
tp1627
a(S'to'
p1628
S'to'
p1629
S'TO'
p1630
S'B-VP'
p1631
g5
tp1632
a(S'be'
p1633
S'be'
p1634
S'VB'
p1635
S'I-VP'
p1636
g5
tp1637
a(S'effective'
p1638
S'effective'
p1639
S'JJ'
p1640
S'B-ADJP'
p1641
g5
tp1642
a(S'unless'
p1643
S'unless'
p1644
S'IN'
p1645
S'B-SBAR'
p1646
g5
tp1647
a(S'their'
p1648
S'their'
p1649
S'PRP$'
p1650
S'B-NP'
p1651
g5
tp1652
a(S'breast'
p1653
S'breast'
p1654
S'NN'
p1655
S'I-NP'
p1656
g5
tp1657
a(S'cancer'
p1658
S'cancer'
p1659
S'NN'
p1660
S'I-NP'
p1661
g5
tp1662
a(S'anxieties'
p1663
S'anxiety'
p1664
S'NNS'
p1665
S'I-NP'
p1666
g5
tp1667
a(S'are'
p1668
S'be'
p1669
S'VBP'
p1670
S'B-VP'
p1671
g5
tp1672
a(S'also'
p1673
S'also'
p1674
S'RB'
p1675
S'I-VP'
p1676
g5
tp1677
a(S'addressed'
p1678
S'address'
p1679
S'VBN'
p1680
S'I-VP'
p1681
g5
tp1682
a(g53
g53
g53
g5
g5
tp1683
a(S'IMPLICATIONS'
p1684
S'IMPLICATIONS'
p1685
S'NNS'
p1686
S'B-NP'
p1687
g5
tp1688
a(S'Attention'
p1689
S'Attention'
p1690
S'NN'
p1691
S'I-NP'
p1692
g5
tp1693
a(S'to'
p1694
S'to'
p1695
S'TO'
p1696
S'B-PP'
p1697
g5
tp1698
a(S'the'
p1699
S'the'
p1700
S'DT'
p1701
S'B-NP'
p1702
g5
tp1703
a(S'psychological'
p1704
S'psychological'
p1705
S'JJ'
p1706
S'I-NP'
p1707
g5
tp1708
a(S'aspects'
p1709
S'aspect'
p1710
S'NNS'
p1711
S'I-NP'
p1712
g5
tp1713
a(S'of'
p1714
S'of'
p1715
S'IN'
p1716
S'B-PP'
p1717
g5
tp1718
a(S'breast'
p1719
S'breast'
p1720
S'NN'
p1721
S'B-NP'
p1722
g5
tp1723
a(S'cancer'
p1724
S'cancer'
p1725
S'NN'
p1726
S'I-NP'
p1727
g5
tp1728
a(S'risk'
p1729
S'risk'
p1730
S'NN'
p1731
S'I-NP'
p1732
g5
tp1733
a(S'will'
p1734
S'will'
p1735
S'MD'
p1736
S'B-VP'
p1737
g5
tp1738
a(S'be'
p1739
S'be'
p1740
S'VB'
p1741
S'I-VP'
p1742
g5
tp1743
a(S'critical'
p1744
S'critical'
p1745
S'JJ'
p1746
S'B-ADJP'
p1747
g5
tp1748
a(S'in'
p1749
S'in'
p1750
S'IN'
p1751
S'B-PP'
p1752
g5
tp1753
a(S'the'
p1754
S'the'
p1755
S'DT'
p1756
S'B-NP'
p1757
g5
tp1758
a(S'development'
p1759
S'development'
p1760
S'NN'
p1761
S'I-NP'
p1762
g5
tp1763
a(S'of'
p1764
S'of'
p1765
S'IN'
p1766
S'B-PP'
p1767
g5
tp1768
a(S'risk-counseling'
p1769
S'risk-counseling'
p1770
S'JJ'
p1771
S'B-NP'
p1772
g5
tp1773
a(S'programs'
p1774
S'program'
p1775
S'NNS'
p1776
S'I-NP'
p1777
g5
tp1778
a(S'that'
p1779
S'that'
p1780
S'WDT'
p1781
S'B-NP'
p1782
g5
tp1783
a(S'incorporate'
p1784
S'incorporate'
p1785
S'VBP'
p1786
S'B-VP'
p1787
g5
tp1788
a(S'testing'
p1789
S'testing'
p1790
S'NN'
p1791
S'B-NP'
p1792
g5
tp1793
a(S'for'
p1794
S'for'
p1795
S'IN'
p1796
S'B-PP'
p1797
g5
tp1798
a(S'the'
p1799
S'the'
p1800
S'DT'
p1801
S'B-NP'
p1802
g5
tp1803
a(S'recently'
p1804
S'recently'
p1805
S'RB'
p1806
S'I-NP'
p1807
g5
tp1808
a(S'cloned'
p1809
S'clone'
p1810
S'VBN'
p1811
S'I-NP'
p1812
g5
tp1813
a(S'breast'
p1814
S'breast'
p1815
S'NN'
p1816
S'I-NP'
p1817
S'B-DNA'
p1818
tp1819
a(S'cancer'
p1820
S'cancer'
p1821
S'NN'
p1822
S'I-NP'
p1823
S'I-DNA'
p1824
tp1825
a(S'susceptibility'
p1826
S'susceptibility'
p1827
S'NN'
p1828
S'I-NP'
p1829
S'I-DNA'
p1830
tp1831
a(S'gene'
p1832
S'gene'
p1833
S'NN'
p1834
S'I-NP'
p1835
S'I-DNA'
p1836
tp1837
a(g270
g270
g270
g5
g5
tp1838
a(S'BRCA1'
p1839
S'BRCA1'
p1840
S'NN'
p1841
S'B-NP'
p1842
S'B-DNA'
p1843
tp1844
a(g674
g674
g674
g5
g5
tp1845
a(S'and'
p1846
S'and'
p1847
S'CC'
p1848
g5
g5
tp1849
a(S'BRCA2'
p1850
S'BRCA2'
p1851
S'NN'
p1852
S'B-NP'
p1853
S'B-DNA'
p1854
tp1855
a(S'when'
p1856
S'when'
p1857
S'WRB'
p1858
S'B-ADVP'
p1859
g5
tp1860
a(S'that'
p1861
S'that'
p1862
S'DT'
p1863
S'B-NP'
p1864
g5
tp1865
a(S'gene'
p1866
S'gene'
p1867
S'NN'
p1868
S'I-NP'
p1869
g5
tp1870
a(S'has'
p1871
S'have'
p1872
S'VBZ'
p1873
S'B-VP'
p1874
g5
tp1875
a(S'also'
p1876
S'also'
p1877
S'RB'
p1878
S'I-VP'
p1879
g5
tp1880
a(S'been'
p1881
S'be'
p1882
S'VBN'
p1883
S'I-VP'
p1884
g5
tp1885
a(S'cloned'
p1886
S'clone'
p1887
S'VBN'
p1888
S'I-VP'
p1889
g5
tp1890
a(g382
g382
g382
g5
g5
tp1891
a(g53
g53
g53
g5
g5
tp1892
a.