(lp0
(S'Standard'
p1
S'Standard'
p2
S'JJ'
p3
S'B-ADJP'
p4
S'O'
p5
tp6
a(S'versus'
p7
S'versus'
p8
S'IN'
p9
S'B-PP'
p10
g5
tp11
a(S'newer'
p12
S'new'
p13
S'JJR'
p14
S'B-NP'
p15
g5
tp16
a(S'antibacterial'
p17
S'antibacterial'
p18
S'JJ'
p19
S'I-NP'
p20
g5
tp21
a(S'agents'
p22
S'agent'
p23
S'NNS'
p24
S'I-NP'
p25
g5
tp26
a(S'in'
p27
S'in'
p28
S'IN'
p29
S'B-PP'
p30
g5
tp31
a(S'the'
p32
S'the'
p33
S'DT'
p34
S'B-NP'
p35
g5
tp36
a(S'treatment'
p37
S'treatment'
p38
S'NN'
p39
S'I-NP'
p40
g5
tp41
a(S'of'
p42
S'of'
p43
S'IN'
p44
S'B-PP'
p45
g5
tp46
a(S'severe'
p47
S'severe'
p48
S'JJ'
p49
S'B-NP'
p50
g5
tp51
a(S'acute'
p52
S'acute'
p53
S'JJ'
p54
S'I-NP'
p55
g5
tp56
a(S'exacerbation'
p57
S'exacerbation'
p58
S'NN'
p59
S'I-NP'
p60
g5
tp61
a(S'of'
p62
S'of'
p63
S'IN'
p64
S'B-PP'
p65
g5
tp66
a(S'chronic'
p67
S'chronic'
p68
S'JJ'
p69
S'B-NP'
p70
g5
tp71
a(S'obstructive'
p72
S'obstructive'
p73
S'JJ'
p74
S'I-NP'
p75
g5
tp76
a(S'pulmonary'
p77
S'pulmonary'
p78
S'JJ'
p79
S'I-NP'
p80
g5
tp81
a(S'disease'
p82
S'disease'
p83
S'NN'
p84
S'I-NP'
p85
g5
tp86
a(S':'
p87
g87
g87
g5
g5
tp88
a(S'a'
p89
g89
S'DT'
p90
S'B-NP'
p91
g5
tp92
a(S'randomized'
p93
S'randomize'
p94
S'VBN'
p95
S'I-NP'
p96
g5
tp97
a(S'trial'
p98
S'trial'
p99
S'NN'
p100
S'I-NP'
p101
g5
tp102
a(S'of'
p103
S'of'
p104
S'IN'
p105
S'B-PP'
p106
g5
tp107
a(S'trimethoprim-sulfamethoxazole'
p108
S'trimethoprim-sulfamethoxazole'
p109
S'NN'
p110
S'B-NP'
p111
g5
tp112
a(S'versus'
p113
S'versus'
p114
S'IN'
p115
S'B-PP'
p116
g5
tp117
a(S'ciprofloxacin'
p118
S'ciprofloxacin'
p119
S'NN'
p120
S'B-NP'
p121
g5
tp122
a(S'.'
p123
g123
g123
g5
g5
tp124
a(S'BACKGROUND.'
p125
S'BACKGROUND.'
p126
S'NN'
p127
S'B-NP'
p128
g5
tp129
a(S'Although'
p130
S'Although'
p131
S'IN'
p132
S'B-PP'
p133
g5
tp134
a(S'the'
p135
S'the'
p136
S'DT'
p137
S'B-NP'
p138
g5
tp139
a(S'use'
p140
S'use'
p141
S'NN'
p142
S'I-NP'
p143
g5
tp144
a(S'of'
p145
S'of'
p146
S'IN'
p147
S'B-PP'
p148
g5
tp149
a(S'antibiotics'
p150
S'antibiotic'
p151
S'NNS'
p152
S'B-NP'
p153
g5
tp154
a(S'in'
p155
S'in'
p156
S'IN'
p157
S'B-PP'
p158
g5
tp159
a(S'the'
p160
S'the'
p161
S'DT'
p162
S'B-NP'
p163
g5
tp164
a(S'treatment'
p165
S'treatment'
p166
S'NN'
p167
S'I-NP'
p168
g5
tp169
a(S'of'
p170
S'of'
p171
S'IN'
p172
S'B-PP'
p173
g5
tp174
a(S'acute'
p175
S'acute'
p176
S'JJ'
p177
S'B-NP'
p178
g5
tp179
a(S'exacerbation'
p180
S'exacerbation'
p181
S'NN'
p182
S'I-NP'
p183
g5
tp184
a(S'of'
p185
S'of'
p186
S'IN'
p187
S'B-PP'
p188
g5
tp189
a(S'chronic'
p190
S'chronic'
p191
S'JJ'
p192
S'B-NP'
p193
g5
tp194
a(S'obstructive'
p195
S'obstructive'
p196
S'JJ'
p197
S'I-NP'
p198
g5
tp199
a(S'pulmonary'
p200
S'pulmonary'
p201
S'JJ'
p202
S'I-NP'
p203
g5
tp204
a(S'disease'
p205
S'disease'
p206
S'NN'
p207
S'I-NP'
p208
g5
tp209
a(S'('
p210
g210
g210
g5
g5
tp211
a(S'COPD'
p212
S'COPD'
p213
S'NN'
p214
S'B-NP'
p215
g5
tp216
a(S')'
p217
g217
g217
g5
g5
tp218
a(S'is'
p219
S'be'
p220
S'VBZ'
p221
S'B-VP'
p222
g5
tp223
a(S'largely'
p224
S'largely'
p225
S'RB'
p226
S'I-VP'
p227
g5
tp228
a(S'accepted'
p229
S'accept'
p230
S'VBN'
p231
S'I-VP'
p232
g5
tp233
a(S','
p234
g234
g234
g5
g5
tp235
a(S'controversy'
p236
S'controversy'
p237
S'NN'
p238
S'B-NP'
p239
g5
tp240
a(S'remains'
p241
S'remain'
p242
S'VBZ'
p243
S'B-VP'
p244
g5
tp245
a(S'regarding'
p246
S'regard'
p247
S'VBG'
p248
S'B-PP'
p249
g5
tp250
a(S'whether'
p251
S'whether'
p252
S'IN'
p253
S'B-SBAR'
p254
g5
tp255
a(S'the'
p256
S'the'
p257
S'DT'
p258
S'B-NP'
p259
g5
tp260
a(S'choice'
p261
S'choice'
p262
S'NN'
p263
S'I-NP'
p264
g5
tp265
a(S'of'
p266
S'of'
p267
S'IN'
p268
S'B-PP'
p269
g5
tp270
a(S'antibiotic'
p271
S'antibiotic'
p272
S'NN'
p273
S'B-NP'
p274
g5
tp275
a(S'has'
p276
S'have'
p277
S'VBZ'
p278
S'B-VP'
p279
g5
tp280
a(S'any'
p281
S'any'
p282
S'DT'
p283
S'B-NP'
p284
g5
tp285
a(S'impact'
p286
S'impact'
p287
S'NN'
p288
S'I-NP'
p289
g5
tp290
a(S'on'
p291
S'on'
p292
S'IN'
p293
S'B-PP'
p294
g5
tp295
a(S'outcome.'
p296
S'outcome.'
p297
S'NN'
p298
S'B-NP'
p299
g5
tp300
a(S'Our'
p301
S'Our'
p302
S'PRP$'
p303
S'B-NP'
p304
g5
tp305
a(S'aim'
p306
S'aim'
p307
S'NN'
p308
S'I-NP'
p309
g5
tp310
a(S'was'
p311
S'be'
p312
S'VBD'
p313
S'B-VP'
p314
g5
tp315
a(S'to'
p316
S'to'
p317
S'TO'
p318
S'B-VP'
p319
g5
tp320
a(S'compare'
p321
S'compare'
p322
S'VB'
p323
S'I-VP'
p324
g5
tp325
a(S'the'
p326
S'the'
p327
S'DT'
p328
S'B-NP'
p329
g5
tp330
a(S'effects'
p331
S'effect'
p332
S'NNS'
p333
S'I-NP'
p334
g5
tp335
a(S'of'
p336
S'of'
p337
S'IN'
p338
S'B-PP'
p339
g5
tp340
a(S'the'
p341
S'the'
p342
S'DT'
p343
S'B-NP'
p344
g5
tp345
a(S'combination'
p346
S'combination'
p347
S'NN'
p348
S'I-NP'
p349
g5
tp350
a(S'of'
p351
S'of'
p352
S'IN'
p353
S'B-PP'
p354
g5
tp355
a(S'trimethoprim'
p356
S'trimethoprim'
p357
S'NN'
p358
S'B-NP'
p359
g5
tp360
a(S'and'
p361
S'and'
p362
S'CC'
p363
S'I-NP'
p364
g5
tp365
a(S'sulfamethoxazole'
p366
S'sulfamethoxazole'
p367
S'NN'
p368
S'I-NP'
p369
g5
tp370
a(S'and'
p371
S'and'
p372
S'CC'
p373
S'I-NP'
p374
g5
tp375
a(S'ciprofloxacin'
p376
S'ciprofloxacin'
p377
S'NN'
p378
S'I-NP'
p379
g5
tp380
a(S'in'
p381
S'in'
p382
S'IN'
p383
S'B-PP'
p384
g5
tp385
a(S'patients'
p386
S'patient'
p387
S'NNS'
p388
S'B-NP'
p389
g5
tp390
a(S'treated'
p391
S'treat'
p392
S'VBN'
p393
S'B-VP'
p394
g5
tp395
a(S'for'
p396
S'for'
p397
S'IN'
p398
S'B-PP'
p399
g5
tp400
a(S'severe'
p401
S'severe'
p402
S'JJ'
p403
S'B-NP'
p404
g5
tp405
a(S'COPD'
p406
S'COPD'
p407
S'NN'
p408
S'I-NP'
p409
g5
tp410
a(S'exacerbation'
p411
S'exacerbation'
p412
S'NN'
p413
S'I-NP'
p414
g5
tp415
a(S'requiring'
p416
S'require'
p417
S'VBG'
p418
S'B-VP'
p419
g5
tp420
a(S'mechanical'
p421
S'mechanical'
p422
S'JJ'
p423
S'B-NP'
p424
g5
tp425
a(S'ventilation.'
p426
S'ventilation.'
p427
S'NN'
p428
S'I-NP'
p429
g5
tp430
a(S'METHODS.'
p431
S'METHODS.'
p432
S'NN'
p433
S'I-NP'
p434
g5
tp435
a(S'In'
p436
S'In'
p437
S'IN'
p438
S'B-PP'
p439
g5
tp440
a(g89
g89
S'DT'
p441
S'B-NP'
p442
g5
tp443
a(S'randomized'
p444
S'randomize'
p445
S'VBN'
p446
S'I-NP'
p447
g5
tp448
a(g234
g234
g234
S'I-NP'
p449
g5
tp450
a(S'double-blind'
p451
S'double-blind'
p452
S'JJ'
p453
S'I-NP'
p454
g5
tp455
a(S'trial'
p456
S'trial'
p457
S'NN'
p458
S'I-NP'
p459
g5
tp460
a(g234
g234
g234
g5
g5
tp461
a(S'we'
p462
S'we'
p463
S'PRP'
p464
S'B-NP'
p465
g5
tp466
a(S'included'
p467
S'include'
p468
S'VBD'
p469
S'B-VP'
p470
g5
tp471
a(S'170'
p472
S'170'
p473
S'CD'
p474
S'B-NP'
p475
g5
tp476
a(S'patients'
p477
S'patient'
p478
S'NNS'
p479
S'I-NP'
p480
g5
tp481
a(S'with'
p482
S'with'
p483
S'IN'
p484
S'B-PP'
p485
g5
tp486
a(S'an'
p487
S'an'
p488
S'DT'
p489
S'B-NP'
p490
g5
tp491
a(S'acute'
p492
S'acute'
p493
S'JJ'
p494
S'I-NP'
p495
g5
tp496
a(S'exacerbation'
p497
S'exacerbation'
p498
S'NN'
p499
S'I-NP'
p500
g5
tp501
a(S'of'
p502
S'of'
p503
S'IN'
p504
S'B-PP'
p505
g5
tp506
a(S'COPD'
p507
S'COPD'
p508
S'NN'
p509
S'B-NP'
p510
g5
tp511
a(S'requiring'
p512
S'require'
p513
S'VBG'
p514
S'B-VP'
p515
g5
tp516
a(S'mechanical'
p517
S'mechanical'
p518
S'JJ'
p519
S'B-NP'
p520
g5
tp521
a(S'ventilation.'
p522
S'ventilation.'
p523
S'NN'
p524
S'I-NP'
p525
g5
tp526
a(S'Enrolled'
p527
S'Enrol'
p528
S'VBD'
p529
S'B-VP'
p530
g5
tp531
a(S'patients'
p532
S'patient'
p533
S'NNS'
p534
S'B-NP'
p535
g5
tp536
a(S'received'
p537
S'receive'
p538
S'VBD'
p539
S'B-VP'
p540
g5
tp541
a(S'trimethoprim-sulfamethoxazole'
p542
S'trimethoprim-sulfamethoxazole'
p543
S'NN'
p544
S'B-NP'
p545
g5
tp546
a(g210
g210
g210
g5
g5
tp547
a(S'n'
p548
g548
S'NN'
p549
S'B-NP'
p550
g5
tp551
a(S'='
p552
g552
S'SYM'
p553
S'B-VP'
p554
g5
tp555
a(S'85'
p556
S'85'
p557
S'CD'
p558
S'B-NP'
p559
g5
tp560
a(g217
g217
g217
g5
g5
tp561
a(S'or'
p562
S'or'
p563
S'CC'
p564
g5
g5
tp565
a(S'ciprofloxacin'
p566
S'ciprofloxacin'
p567
S'NN'
p568
S'B-NP'
p569
g5
tp570
a(g210
g210
g210
g5
g5
tp571
a(g548
g548
S'NN'
p572
S'B-NP'
p573
g5
tp574
a(g552
g552
S'SYM'
p575
S'B-VP'
p576
g5
tp577
a(S'85'
p578
S'85'
p579
S'CD'
p580
S'B-NP'
p581
g5
tp582
a(g217
g217
g217
g5
g5
tp583
a(S'for'
p584
S'for'
p585
S'IN'
p586
S'B-PP'
p587
g5
tp588
a(S'10'
p589
S'10'
p590
S'CD'
p591
S'B-NP'
p592
g5
tp593
a(S'days.'
p594
S'days.'
p595
S'NN'
p596
S'I-NP'
p597
g5
tp598
a(S'Main'
p599
S'Main'
p600
S'NNP'
p601
S'I-NP'
p602
g5
tp603
a(S'outcomes'
p604
S'outcome'
p605
S'NNS'
p606
S'I-NP'
p607
g5
tp608
a(S'were'
p609
S'be'
p610
S'VBD'
p611
S'B-VP'
p612
g5
tp613
a(S'hospital'
p614
S'hospital'
p615
S'NN'
p616
S'B-NP'
p617
g5
tp618
a(S'death'
p619
S'death'
p620
S'NN'
p621
S'I-NP'
p622
g5
tp623
a(S'and'
p624
S'and'
p625
S'CC'
p626
g5
g5
tp627
a(S'need'
p628
S'need'
p629
S'VB'
p630
S'B-VP'
p631
g5
tp632
a(S'for'
p633
S'for'
p634
S'IN'
p635
S'B-PP'
p636
g5
tp637
a(S'an'
p638
S'an'
p639
S'DT'
p640
S'B-NP'
p641
g5
tp642
a(S'additional'
p643
S'additional'
p644
S'JJ'
p645
S'I-NP'
p646
g5
tp647
a(S'course'
p648
S'course'
p649
S'NN'
p650
S'I-NP'
p651
g5
tp652
a(S'of'
p653
S'of'
p654
S'IN'
p655
S'B-PP'
p656
g5
tp657
a(S'antibiotics.'
p658
S'antibiotics.'
p659
S'JJ'
p660
S'B-NP'
p661
g5
tp662
a(S'Secondary'
p663
S'Secondary'
p664
S'JJ'
p665
S'I-NP'
p666
g5
tp667
a(S'outcomes'
p668
S'outcome'
p669
S'NNS'
p670
S'I-NP'
p671
g5
tp672
a(S'were'
p673
S'be'
p674
S'VBD'
p675
S'B-VP'
p676
g5
tp677
a(S'duration'
p678
S'duration'
p679
S'NN'
p680
S'B-NP'
p681
g5
tp682
a(S'of'
p683
S'of'
p684
S'IN'
p685
S'B-PP'
p686
g5
tp687
a(S'mechanical'
p688
S'mechanical'
p689
S'JJ'
p690
S'B-NP'
p691
g5
tp692
a(S'ventilation'
p693
S'ventilation'
p694
S'NN'
p695
S'I-NP'
p696
g5
tp697
a(g234
g234
g234
g5
g5
tp698
a(S'length'
p699
S'length'
p700
S'NN'
p701
S'B-NP'
p702
g5
tp703
a(S'of'
p704
S'of'
p705
S'IN'
p706
S'B-PP'
p707
g5
tp708
a(S'hospital'
p709
S'hospital'
p710
S'NN'
p711
S'B-NP'
p712
g5
tp713
a(S'stay'
p714
S'stay'
p715
S'NN'
p716
S'I-NP'
p717
g5
tp718
a(g234
g234
g234
g5
g5
tp719
a(S'and'
p720
S'and'
p721
S'CC'
p722
g5
g5
tp723
a(S'exacerbation-free'
p724
S'exacerbation-free'
p725
S'JJ'
p726
S'B-NP'
p727
g5
tp728
a(S'interval.'
p729
S'interval.'
p730
S'NN'
p731
S'I-NP'
p732
g5
tp733
a(S'RESULTS.'
p734
S'RESULTS.'
p735
S'NNP'
p736
S'I-NP'
p737
g5
tp738
a(S'Combined'
p739
S'Combined'
p740
S'NNP'
p741
S'I-NP'
p742
g5
tp743
a(S'hospital'
p744
S'hospital'
p745
S'NN'
p746
S'I-NP'
p747
g5
tp748
a(S'death'
p749
S'death'
p750
S'NN'
p751
S'I-NP'
p752
g5
tp753
a(S'and'
p754
S'and'
p755
S'CC'
p756
g5
g5
tp757
a(S'additional'
p758
S'additional'
p759
S'JJ'
p760
S'B-NP'
p761
g5
tp762
a(S'antibiotic'
p763
S'antibiotic'
p764
S'JJ'
p765
S'I-NP'
p766
g5
tp767
a(S'prescription'
p768
S'prescription'
p769
S'NN'
p770
S'I-NP'
p771
g5
tp772
a(S'rates'
p773
S'rate'
p774
S'NNS'
p775
S'I-NP'
p776
g5
tp777
a(S'were'
p778
S'be'
p779
S'VBD'
p780
S'B-VP'
p781
g5
tp782
a(S'similar'
p783
S'similar'
p784
S'JJ'
p785
S'B-ADJP'
p786
g5
tp787
a(S'in'
p788
S'in'
p789
S'IN'
p790
S'B-PP'
p791
g5
tp792
a(S'the'
p793
S'the'
p794
S'DT'
p795
S'B-NP'
p796
g5
tp797
a(S'2'
p798
g798
S'CD'
p799
S'I-NP'
p800
g5
tp801
a(S'groups'
p802
S'group'
p803
S'NNS'
p804
S'I-NP'
p805
g5
tp806
a(g210
g210
g210
g5
g5
tp807
a(S'16.4'
p808
S'16.4'
p809
S'CD'
p810
S'B-NP'
p811
g5
tp812
a(S'%'
p813
g813
S'NN'
p814
S'I-NP'
p815
g5
tp816
a(S'vs'
p817
S'vs'
p818
S'IN'
p819
S'B-PP'
p820
g5
tp821
a(S'15.3'
p822
S'15.3'
p823
S'CD'
p824
S'B-NP'
p825
g5
tp826
a(g813
g813
S'NN'
p827
S'I-NP'
p828
g5
tp829
a(S'for'
p830
S'for'
p831
S'IN'
p832
S'B-PP'
p833
g5
tp834
a(S'trimethoprim-sulfamethoxazole'
p835
S'trimethoprim-sulfamethoxazole'
p836
S'NN'
p837
S'B-NP'
p838
g5
tp839
a(S'group'
p840
S'group'
p841
S'NN'
p842
S'I-NP'
p843
g5
tp844
a(S'vs'
p845
S'vs'
p846
S'IN'
p847
S'B-PP'
p848
g5
tp849
a(S'ciprofloxacin'
p850
S'ciprofloxacin'
p851
S'NN'
p852
S'B-NP'
p853
g5
tp854
a(S'group'
p855
S'group'
p856
S'NN'
p857
S'I-NP'
p858
g5
tp859
a(S';'
p860
g860
g87
g5
g5
tp861
a(S'difference'
p862
S'difference'
p863
S'NN'
p864
S'B-NP'
p865
g5
tp866
a(g234
g234
g234
g5
g5
tp867
a(S'1.1'
p868
S'1.1'
p869
S'CD'
p870
S'B-NP'
p871
g5
tp872
a(g813
g813
S'NN'
p873
S'I-NP'
p874
g5
tp875
a(g860
g860
g87
g5
g5
tp876
a(S'95'
p877
S'95'
p878
S'CD'
p879
S'B-NP'
p880
g5
tp881
a(g813
g813
S'NN'
p882
S'I-NP'
p883
g5
tp884
a(S'confidence'
p885
S'confidence'
p886
S'NN'
p887
S'I-NP'
p888
g5
tp889
a(S'interval'
p890
S'interval'
p891
S'NN'
p892
S'I-NP'
p893
g5
tp894
a(S'['
p895
g895
g210
g5
g5
tp896
a(S'CI'
p897
S'CI'
p898
S'NN'
p899
S'B-NP'
p900
g5
tp901
a(S']'
p902
g902
g217
g5
g5
tp903
a(S'-9.8'
p904
S'-9.8'
p905
S'CD'
p906
S'B-NP'
p907
g5
tp908
a(g813
g813
S'NN'
p909
S'I-NP'
p910
g5
tp911
a(S'to'
p912
S'to'
p913
S'TO'
p914
S'B-PP'
p915
g5
tp916
a(S'12.0'
p917
S'12.0'
p918
S'CD'
p919
S'B-NP'
p920
g5
tp921
a(g813
g813
S'NN'
p922
S'I-NP'
p923
g5
tp924
a(g860
g860
g87
g5
g5
tp925
a(S'P'
p926
g926
S'NN'
p927
S'B-NP'
p928
g5
tp929
a(g552
g552
S'SYM'
p930
S'B-VP'
p931
g5
tp932
a(S'.832'
p933
S'.832'
p934
S'CD'
p935
S'B-NP'
p936
g5
tp937
a(g217
g217
g217
g5
g5
tp938
a(g123
g123
g123
g5
g5
tp939
a(S'Hospital'
p940
S'Hospital'
p941
S'NN'
p942
S'B-NP'
p943
g5
tp944
a(S'death'
p945
S'death'
p946
S'NN'
p947
S'I-NP'
p948
g5
tp949
a(S'occurred'
p950
S'occur'
p951
S'VBD'
p952
S'B-VP'
p953
g5
tp954
a(S'in'
p955
S'in'
p956
S'IN'
p957
S'B-PP'
p958
g5
tp959
a(S'7'
p960
g960
S'CD'
p961
S'B-NP'
p962
g5
tp963
a(S'patients'
p964
S'patient'
p965
S'NNS'
p966
S'I-NP'
p967
g5
tp968
a(g210
g210
g210
g5
g5
tp969
a(S'8.2'
p970
S'8.2'
p971
S'CD'
p972
S'B-NP'
p973
g5
tp974
a(g813
g813
S'NN'
p975
S'I-NP'
p976
g5
tp977
a(g217
g217
g217
g5
g5
tp978
a(S'receiving'
p979
S'receive'
p980
S'VBG'
p981
S'B-VP'
p982
g5
tp983
a(S'trimethoprim-sulfamethoxazole'
p984
S'trimethoprim-sulfamethoxazole'
p985
S'NN'
p986
S'B-NP'
p987
g5
tp988
a(S'and'
p989
S'and'
p990
S'CC'
p991
g5
g5
tp992
a(S'8'
p993
g993
S'CD'
p994
S'B-NP'
p995
g5
tp996
a(S'patients'
p997
S'patient'
p998
S'NNS'
p999
S'I-NP'
p1000
g5
tp1001
a(g210
g210
g210
g5
g5
tp1002
a(S'9.4'
p1003
S'9.4'
p1004
S'CD'
p1005
S'B-NP'
p1006
g5
tp1007
a(g813
g813
S'NN'
p1008
S'I-NP'
p1009
g5
tp1010
a(g217
g217
g217
g5
g5
tp1011
a(S'receiving'
p1012
S'receive'
p1013
S'VBG'
p1014
S'B-VP'
p1015
g5
tp1016
a(S'ciprofloxacin'
p1017
S'ciprofloxacin'
p1018
S'NN'
p1019
S'B-NP'
p1020
g5
tp1021
a(g210
g210
g210
g5
g5
tp1022
a(S'difference'
p1023
S'difference'
p1024
S'NN'
p1025
S'B-NP'
p1026
g5
tp1027
a(g234
g234
g234
g5
g5
tp1028
a(S'-1.2'
p1029
S'-1.2'
p1030
S'CD'
p1031
S'B-NP'
p1032
g5
tp1033
a(g813
g813
S'NN'
p1034
S'I-NP'
p1035
g5
tp1036
a(g860
g860
g87
g5
g5
tp1037
a(S'95'
p1038
S'95'
p1039
S'CD'
p1040
S'B-NP'
p1041
g5
tp1042
a(g813
g813
S'NN'
p1043
S'I-NP'
p1044
g5
tp1045
a(S'CI'
p1046
S'CI'
p1047
S'NN'
p1048
S'I-NP'
p1049
g5
tp1050
a(g234
g234
g234
g5
g5
tp1051
a(S'-9.7'
p1052
S'-9.7'
p1053
S'CD'
p1054
S'B-NP'
p1055
g5
tp1056
a(S'to'
p1057
S'to'
p1058
S'TO'
p1059
S'B-PP'
p1060
g5
tp1061
a(S'7.3'
p1062
S'7.3'
p1063
S'CD'
p1064
S'B-NP'
p1065
g5
tp1066
a(g860
g860
g87
g5
g5
tp1067
a(g926
g926
S'NN'
p1068
S'B-NP'
p1069
g5
tp1070
a(g552
g552
S'SYM'
p1071
S'B-VP'
p1072
g5
tp1073
a(S'.90'
p1074
S'.90'
p1075
S'CD'
p1076
S'B-NP'
p1077
g5
tp1078
a(g217
g217
g217
g5
g5
tp1079
a(g123
g123
g123
g5
g5
tp1080
a(S'The'
p1081
S'The'
p1082
S'DT'
p1083
S'B-NP'
p1084
g5
tp1085
a(S'need'
p1086
S'need'
p1087
S'NN'
p1088
S'I-NP'
p1089
g5
tp1090
a(S'for'
p1091
S'for'
p1092
S'IN'
p1093
S'B-PP'
p1094
g5
tp1095
a(S'an'
p1096
S'an'
p1097
S'DT'
p1098
S'B-NP'
p1099
g5
tp1100
a(S'additional'
p1101
S'additional'
p1102
S'JJ'
p1103
S'I-NP'
p1104
g5
tp1105
a(S'antibiotic'
p1106
S'antibiotic'
p1107
S'JJ'
p1108
S'I-NP'
p1109
g5
tp1110
a(S'course'
p1111
S'course'
p1112
S'NN'
p1113
S'I-NP'
p1114
g5
tp1115
a(S'was'
p1116
S'be'
p1117
S'VBD'
p1118
S'B-VP'
p1119
g5
tp1120
a(S'observed'
p1121
S'observe'
p1122
S'VBN'
p1123
S'I-VP'
p1124
g5
tp1125
a(S'in'
p1126
S'in'
p1127
S'IN'
p1128
S'B-PP'
p1129
g5
tp1130
a(g993
g993
S'CD'
p1131
S'B-NP'
p1132
g5
tp1133
a(S'patients'
p1134
S'patient'
p1135
S'NNS'
p1136
S'I-NP'
p1137
g5
tp1138
a(S'in'
p1139
S'in'
p1140
S'IN'
p1141
S'B-PP'
p1142
g5
tp1143
a(S'the'
p1144
S'the'
p1145
S'DT'
p1146
S'B-NP'
p1147
g5
tp1148
a(S'trimethoprim-sulfamethoxazole'
p1149
S'trimethoprim-sulfamethoxazole'
p1150
S'NN'
p1151
S'I-NP'
p1152
g5
tp1153
a(S'group'
p1154
S'group'
p1155
S'NN'
p1156
S'I-NP'
p1157
g5
tp1158
a(S'and'
p1159
S'and'
p1160
S'CC'
p1161
g5
g5
tp1162
a(S'5'
p1163
g1163
S'CD'
p1164
S'B-NP'
p1165
g5
tp1166
a(S'patients'
p1167
S'patient'
p1168
S'NNS'
p1169
S'I-NP'
p1170
g5
tp1171
a(S'in'
p1172
S'in'
p1173
S'IN'
p1174
S'B-PP'
p1175
g5
tp1176
a(S'the'
p1177
S'the'
p1178
S'DT'
p1179
S'B-NP'
p1180
g5
tp1181
a(S'ciprofloxacin'
p1182
S'ciprofloxacin'
p1183
S'NN'
p1184
S'I-NP'
p1185
g5
tp1186
a(S'group'
p1187
S'group'
p1188
S'NN'
p1189
S'I-NP'
p1190
g5
tp1191
a(g210
g210
g210
g5
g5
tp1192
a(S'difference'
p1193
S'difference'
p1194
S'NN'
p1195
S'B-NP'
p1196
g5
tp1197
a(g234
g234
g234
g5
g5
tp1198
a(S'2.3'
p1199
S'2.3'
p1200
S'CD'
p1201
S'B-NP'
p1202
g5
tp1203
a(g813
g813
S'NN'
p1204
S'I-NP'
p1205
g5
tp1206
a(g860
g860
g87
g5
g5
tp1207
a(S'95'
p1208
S'95'
p1209
S'CD'
p1210
S'B-NP'
p1211
g5
tp1212
a(g813
g813
S'NN'
p1213
S'I-NP'
p1214
g5
tp1215
a(S'CI'
p1216
S'CI'
p1217
S'NN'
p1218
S'I-NP'
p1219
g5
tp1220
a(g234
g234
g234
g5
g5
tp1221
a(S'-5.4'
p1222
S'-5.4'
p1223
S'CD'
p1224
S'B-NP'
p1225
g5
tp1226
a(S'to'
p1227
S'to'
p1228
S'TO'
p1229
S'B-PP'
p1230
g5
tp1231
a(S'10.0'
p1232
S'10.0'
p1233
S'CD'
p1234
S'B-NP'
p1235
g5
tp1236
a(g860
g860
g87
g5
g5
tp1237
a(g926
g926
S'NN'
p1238
S'B-NP'
p1239
g5
tp1240
a(g552
g552
S'SYM'
p1241
S'B-VP'
p1242
g5
tp1243
a(S'.549'
p1244
S'.549'
p1245
S'CD'
p1246
S'B-NP'
p1247
g5
tp1248
a(g217
g217
g217
g5
g5
tp1249
a(g123
g123
g123
g5
g5
tp1250
a(S'The'
p1251
S'The'
p1252
S'DT'
p1253
S'B-NP'
p1254
g5
tp1255
a(S'mean'
p1256
S'mean'
p1257
S'JJ'
p1258
S'I-NP'
p1259
g5
tp1260
a(S'exacerbation-free'
p1261
S'exacerbation-free'
p1262
S'JJ'
p1263
S'I-NP'
p1264
g5
tp1265
a(S'interval'
p1266
S'interval'
p1267
S'NN'
p1268
S'I-NP'
p1269
g5
tp1270
a(g210
g210
g210
g5
g5
tp1271
a(S'+/-'
p1272
S'+/-'
p1273
S'SYM'
p1274
S'B-NP'
p1275
g5
tp1276
a(S'standard'
p1277
S'standard'
p1278
S'JJ'
p1279
S'I-NP'
p1280
g5
tp1281
a(S'deviation'
p1282
S'deviation'
p1283
S'NN'
p1284
S'I-NP'
p1285
g5
tp1286
a(g217
g217
g217
g5
g5
tp1287
a(S'was'
p1288
S'be'
p1289
S'VBD'
p1290
S'B-VP'
p1291
g5
tp1292
a(S'similar'
p1293
S'similar'
p1294
S'JJ'
p1295
S'B-ADJP'
p1296
g5
tp1297
a(S'in'
p1298
S'in'
p1299
S'IN'
p1300
S'B-PP'
p1301
g5
tp1302
a(S'both'
p1303
S'both'
p1304
S'CC'
p1305
g5
g5
tp1306
a(S'treatment'
p1307
S'treatment'
p1308
S'NN'
p1309
S'B-NP'
p1310
g5
tp1311
a(S'groups'
p1312
S'group'
p1313
S'NNS'
p1314
S'I-NP'
p1315
g5
tp1316
a(g210
g210
g210
g5
g5
tp1317
a(S'83'
p1318
S'83'
p1319
S'CD'
p1320
S'B-NP'
p1321
g5
tp1322
a(S'+/-'
p1323
S'+/-'
p1324
S'SYM'
p1325
S'I-NP'
p1326
g5
tp1327
a(S'25'
p1328
S'25'
p1329
S'CD'
p1330
S'I-NP'
p1331
g5
tp1332
a(S'vs'
p1333
S'vs'
p1334
S'IN'
p1335
S'B-NP'
p1336
g5
tp1337
a(S'79'
p1338
S'79'
p1339
S'CD'
p1340
S'I-NP'
p1341
g5
tp1342
a(S'+/-'
p1343
S'+/-'
p1344
S'SYM'
p1345
S'I-NP'
p1346
g5
tp1347
a(S'22'
p1348
S'22'
p1349
S'CD'
p1350
S'I-NP'
p1351
g5
tp1352
a(S'for'
p1353
S'for'
p1354
S'IN'
p1355
S'B-PP'
p1356
g5
tp1357
a(S'the'
p1358
S'the'
p1359
S'DT'
p1360
S'B-NP'
p1361
g5
tp1362
a(S'trimethoprim-sulfamethoxazole'
p1363
S'trimethoprim-sulfamethoxazole'
p1364
S'NN'
p1365
S'I-NP'
p1366
g5
tp1367
a(S'group'
p1368
S'group'
p1369
S'NN'
p1370
S'I-NP'
p1371
g5
tp1372
a(S'vs'
p1373
S'vs'
p1374
S'IN'
p1375
S'B-PP'
p1376
g5
tp1377
a(S'ciprofloxacin'
p1378
S'ciprofloxacin'
p1379
S'NN'
p1380
S'B-NP'
p1381
g5
tp1382
a(S'group'
p1383
S'group'
p1384
S'NN'
p1385
S'I-NP'
p1386
g5
tp1387
a(g860
g860
g87
g5
g5
tp1388
a(S'difference'
p1389
S'difference'
p1390
S'NN'
p1391
S'B-NP'
p1392
g5
tp1393
a(g234
g234
g234
g5
g5
tp1394
a(S'4'
p1395
g1395
S'CD'
p1396
S'B-NP'
p1397
g5
tp1398
a(S'days'
p1399
S'day'
p1400
S'NNS'
p1401
S'I-NP'
p1402
g5
tp1403
a(g860
g860
g87
g5
g5
tp1404
a(S'95'
p1405
S'95'
p1406
S'CD'
p1407
S'B-NP'
p1408
g5
tp1409
a(g813
g813
S'NN'
p1410
S'I-NP'
p1411
g5
tp1412
a(S'CI'
p1413
S'CI'
p1414
S'NN'
p1415
S'I-NP'
p1416
g5
tp1417
a(g234
g234
g234
g5
g5
tp1418
a(S'-15'
p1419
S'-15'
p1420
S'CD'
p1421
S'B-NP'
p1422
g5
tp1423
a(S'to'
p1424
S'to'
p1425
S'TO'
p1426
S'I-NP'
p1427
g5
tp1428
a(S'19'
p1429
S'19'
p1430
S'CD'
p1431
S'I-NP'
p1432
g5
tp1433
a(S'days'
p1434
S'day'
p1435
S'NNS'
p1436
S'I-NP'
p1437
g5
tp1438
a(g860
g860
g87
g5
g5
tp1439
a(g926
g926
S'NN'
p1440
S'B-NP'
p1441
g5
tp1442
a(g552
g552
S'SYM'
p1443
S'B-VP'
p1444
g5
tp1445
a(S'.41'
p1446
S'.41'
p1447
S'CD'
p1448
S'B-NP'
p1449
g5
tp1450
a(g217
g217
g217
g5
g5
tp1451
a(g123
g123
g123
g5
g5
tp1452
a(S'Duration'
p1453
S'Duration'
p1454
S'NN'
p1455
S'B-NP'
p1456
g5
tp1457
a(S'of'
p1458
S'of'
p1459
S'IN'
p1460
S'B-PP'
p1461
g5
tp1462
a(S'mechanical'
p1463
S'mechanical'
p1464
S'JJ'
p1465
S'B-NP'
p1466
g5
tp1467
a(S'ventilation'
p1468
S'ventilation'
p1469
S'NN'
p1470
S'I-NP'
p1471
g5
tp1472
a(S'and'
p1473
S'and'
p1474
S'CC'
p1475
S'I-NP'
p1476
g5
tp1477
a(S'hospital'
p1478
S'hospital'
p1479
S'NN'
p1480
S'I-NP'
p1481
g5
tp1482
a(S'stay'
p1483
S'stay'
p1484
S'NN'
p1485
S'I-NP'
p1486
g5
tp1487
a(S'was'
p1488
S'be'
p1489
S'VBD'
p1490
S'B-VP'
p1491
g5
tp1492
a(S'not'
p1493
S'not'
p1494
S'RB'
p1495
g5
g5
tp1496
a(S'significantly'
p1497
S'significantly'
p1498
S'RB'
p1499
S'B-ADJP'
p1500
g5
tp1501
a(S'different'
p1502
S'different'
p1503
S'JJ'
p1504
S'I-ADJP'
p1505
g5
tp1506
a(S'between'
p1507
S'between'
p1508
S'IN'
p1509
S'B-PP'
p1510
g5
tp1511
a(S'the'
p1512
S'the'
p1513
S'DT'
p1514
S'B-NP'
p1515
g5
tp1516
a(g798
g798
S'CD'
p1517
S'I-NP'
p1518
g5
tp1519
a(S'groups.'
p1520
S'groups.'
p1521
S'NNS'
p1522
S'I-NP'
p1523
g5
tp1524
a(S'CONCLUSIONS.'
p1525
S'CONCLUSIONS.'
p1526
S'NNP'
p1527
S'B-NP'
p1528
g5
tp1529
a(S'In'
p1530
S'In'
p1531
S'IN'
p1532
S'B-PP'
p1533
g5
tp1534
a(S'patients'
p1535
S'patient'
p1536
S'NNS'
p1537
S'B-NP'
p1538
g5
tp1539
a(S'with'
p1540
S'with'
p1541
S'IN'
p1542
S'B-PP'
p1543
g5
tp1544
a(S'acute'
p1545
S'acute'
p1546
S'JJ'
p1547
S'B-NP'
p1548
g5
tp1549
a(S'exacerbation'
p1550
S'exacerbation'
p1551
S'NN'
p1552
S'I-NP'
p1553
g5
tp1554
a(S'of'
p1555
S'of'
p1556
S'IN'
p1557
S'B-PP'
p1558
g5
tp1559
a(S'COPD'
p1560
S'COPD'
p1561
S'NN'
p1562
S'B-NP'
p1563
g5
tp1564
a(S'requiring'
p1565
S'require'
p1566
S'VBG'
p1567
S'B-VP'
p1568
g5
tp1569
a(S'mechanical'
p1570
S'mechanical'
p1571
S'JJ'
p1572
S'B-NP'
p1573
g5
tp1574
a(S'ventilation'
p1575
S'ventilation'
p1576
S'NN'
p1577
S'I-NP'
p1578
g5
tp1579
a(g234
g234
g234
g5
g5
tp1580
a(S'efficacy'
p1581
S'efficacy'
p1582
S'NN'
p1583
S'B-NP'
p1584
g5
tp1585
a(S'of'
p1586
S'of'
p1587
S'IN'
p1588
S'B-PP'
p1589
g5
tp1590
a(S'trimethoprim-sulfamethoxazole'
p1591
S'trimethoprim-sulfamethoxazole'
p1592
S'NN'
p1593
S'B-NP'
p1594
g5
tp1595
a(S'was'
p1596
S'be'
p1597
S'VBD'
p1598
S'B-VP'
p1599
g5
tp1600
a(S'not'
p1601
S'not'
p1602
S'RB'
p1603
g5
g5
tp1604
a(S'inferior'
p1605
S'inferior'
p1606
S'JJ'
p1607
S'B-ADJP'
p1608
g5
tp1609
a(S'to'
p1610
S'to'
p1611
S'TO'
p1612
S'B-VP'
p1613
g5
tp1614
a(S'ciprofloxacin.'
p1615
S'ciprofloxacin.'
p1616
S'VB'
p1617
S'I-VP'
p1618
g5
tp1619
a(S'Trial'
p1620
S'Trial'
p1621
S'NNP'
p1622
S'B-NP'
p1623
g5
tp1624
a(S'registration.'
p1625
S'registration.'
p1626
S'FW'
p1627
S'I-NP'
p1628
g5
tp1629
a(S'ClinicalTrials.gov'
p1630
S'ClinicalTrials.gov'
p1631
S'NNP'
p1632
S'I-NP'
p1633
g5
tp1634
a(S'identifier'
p1635
S'identifier'
p1636
S'NN'
p1637
S'I-NP'
p1638
g5
tp1639
a(g87
g87
g87
g5
g5
tp1640
a(S'NCT00791505'
p1641
S'NCT00791505'
p1642
S'NN'
p1643
S'B-NP'
p1644
g5
tp1645
a(g123
g123
g123
g5
g5
tp1646
a.