(lp0
(S'JobTIPS'
p1
S'JobTIPS'
p2
S'NNP'
p3
S'B-NP'
p4
S'O'
p5
tp6
a(S':'
p7
g7
g7
g5
g5
tp8
a(S'a'
p9
g9
S'DT'
p10
S'B-NP'
p11
g5
tp12
a(S'transition'
p13
S'transition'
p14
S'NN'
p15
S'I-NP'
p16
g5
tp17
a(S'to'
p18
S'to'
p19
S'TO'
p20
S'B-PP'
p21
g5
tp22
a(S'employment'
p23
S'employment'
p24
S'NN'
p25
S'B-NP'
p26
g5
tp27
a(S'program'
p28
S'program'
p29
S'NN'
p30
S'I-NP'
p31
g5
tp32
a(S'for'
p33
S'for'
p34
S'IN'
p35
S'B-PP'
p36
g5
tp37
a(S'individuals'
p38
S'individual'
p39
S'NNS'
p40
S'B-NP'
p41
g5
tp42
a(S'with'
p43
S'with'
p44
S'IN'
p45
S'B-PP'
p46
g5
tp47
a(S'autism'
p48
S'autism'
p49
S'NN'
p50
S'B-NP'
p51
g5
tp52
a(S'spectrum'
p53
S'spectrum'
p54
S'NN'
p55
S'I-NP'
p56
g5
tp57
a(S'disorders'
p58
S'disorder'
p59
S'NNS'
p60
S'I-NP'
p61
g5
tp62
a(S'.'
p63
g63
g63
g5
g5
tp64
a(S'This'
p65
S'This'
p66
S'DT'
p67
S'B-NP'
p68
g5
tp69
a(S'study'
p70
S'study'
p71
S'NN'
p72
S'I-NP'
p73
g5
tp74
a(S'evaluated'
p75
S'evaluate'
p76
S'VBD'
p77
S'B-VP'
p78
g5
tp79
a(S'the'
p80
S'the'
p81
S'DT'
p82
S'B-NP'
p83
g5
tp84
a(S'effectiveness'
p85
S'effectiveness'
p86
S'NN'
p87
S'I-NP'
p88
g5
tp89
a(S'of'
p90
S'of'
p91
S'IN'
p92
S'B-PP'
p93
g5
tp94
a(S'an'
p95
S'an'
p96
S'DT'
p97
S'B-NP'
p98
g5
tp99
a(S'internet'
p100
S'internet'
p101
S'NN'
p102
S'I-NP'
p103
g5
tp104
a(S'accessed'
p105
S'access'
p106
S'VBD'
p107
S'B-VP'
p108
g5
tp109
a(S'training'
p110
S'training'
p111
S'NN'
p112
S'B-NP'
p113
g5
tp114
a(S'program'
p115
S'program'
p116
S'NN'
p117
S'I-NP'
p118
g5
tp119
a(S'that'
p120
S'that'
p121
S'WDT'
p122
S'B-NP'
p123
g5
tp124
a(S'included'
p125
S'include'
p126
S'VBD'
p127
S'B-VP'
p128
g5
tp129
a(S'Theory'
p130
S'Theory'
p131
S'NN'
p132
S'B-NP'
p133
g5
tp134
a(S'of'
p135
S'of'
p136
S'IN'
p137
S'B-PP'
p138
g5
tp139
a(S'Mind-based'
p140
S'Mind-based'
p141
S'JJ'
p142
S'B-NP'
p143
g5
tp144
a(S'guidance'
p145
S'guidance'
p146
S'NN'
p147
S'I-NP'
p148
g5
tp149
a(S','
p150
g150
g150
g5
g5
tp151
a(S'video'
p152
S'video'
p153
S'NN'
p154
S'B-NP'
p155
g5
tp156
a(S'models'
p157
S'model'
p158
S'NNS'
p159
S'I-NP'
p160
g5
tp161
a(g150
g150
g150
g5
g5
tp162
a(S'visual'
p163
S'visual'
p164
S'JJ'
p165
S'B-NP'
p166
g5
tp167
a(S'supports'
p168
S'support'
p169
S'NNS'
p170
S'I-NP'
p171
g5
tp172
a(g150
g150
g150
g5
g5
tp173
a(S'and'
p174
S'and'
p175
S'CC'
p176
g5
g5
tp177
a(S'virtual'
p178
S'virtual'
p179
S'JJ'
p180
S'B-NP'
p181
g5
tp182
a(S'reality'
p183
S'reality'
p184
S'NN'
p185
S'I-NP'
p186
g5
tp187
a(S'practice'
p188
S'practice'
p189
S'NN'
p190
S'I-NP'
p191
g5
tp192
a(S'sessions'
p193
S'session'
p194
S'NNS'
p195
S'I-NP'
p196
g5
tp197
a(S'in'
p198
S'in'
p199
S'IN'
p200
S'B-PP'
p201
g5
tp202
a(S'teaching'
p203
S'teach'
p204
S'VBG'
p205
S'B-VP'
p206
g5
tp207
a(S'appropriate'
p208
S'appropriate'
p209
S'JJ'
p210
S'B-NP'
p211
g5
tp212
a(S'job'
p213
S'job'
p214
S'NN'
p215
S'I-NP'
p216
g5
tp217
a(S'interview'
p218
S'interview'
p219
S'NN'
p220
S'I-NP'
p221
g5
tp222
a(S'skills'
p223
S'skill'
p224
S'NNS'
p225
S'I-NP'
p226
g5
tp227
a(S'to'
p228
S'to'
p229
S'TO'
p230
S'B-PP'
p231
g5
tp232
a(S'individuals'
p233
S'individual'
p234
S'NNS'
p235
S'B-NP'
p236
g5
tp237
a(S'with'
p238
S'with'
p239
S'IN'
p240
S'B-PP'
p241
g5
tp242
a(S'high'
p243
S'high'
p244
S'JJ'
p245
S'B-NP'
p246
g5
tp247
a(S'functioning'
p248
S'function'
p249
S'VBG'
p250
S'I-NP'
p251
g5
tp252
a(S'Autism'
p253
S'Autism'
p254
S'NNP'
p255
S'I-NP'
p256
g5
tp257
a(S'Spectrum'
p258
S'Spectrum'
p259
S'NNP'
p260
S'I-NP'
p261
g5
tp262
a(S'Disorders.'
p263
S'Disorders.'
p264
S'NNP'
p265
S'I-NP'
p266
g5
tp267
a(S'In'
p268
S'In'
p269
S'IN'
p270
S'B-PP'
p271
g5
tp272
a(g9
g9
S'DT'
p273
S'B-NP'
p274
g5
tp275
a(S'randomized'
p276
S'randomize'
p277
S'VBN'
p278
S'I-NP'
p279
g5
tp280
a(S'study'
p281
S'study'
p282
S'NN'
p283
S'I-NP'
p284
g5
tp285
a(g150
g150
g150
g5
g5
tp286
a(S'twenty-two'
p287
S'twenty-two'
p288
S'CD'
p289
S'B-NP'
p290
g5
tp291
a(S'youth'
p292
S'youth'
p293
S'NN'
p294
S'I-NP'
p295
g5
tp296
a(g150
g150
g150
g5
g5
tp297
a(S'ages'
p298
S'age'
p299
S'NNS'
p300
S'B-NP'
p301
g5
tp302
a(S'16-19'
p303
S'16-19'
p304
S'CD'
p305
S'B-NP'
p306
g5
tp307
a(g150
g150
g150
g5
g5
tp308
a(S'were'
p309
S'be'
p310
S'VBD'
p311
S'B-VP'
p312
g5
tp313
a(S'evaluated'
p314
S'evaluate'
p315
S'VBN'
p316
S'I-VP'
p317
g5
tp318
a(S'during'
p319
S'during'
p320
S'IN'
p321
S'B-PP'
p322
g5
tp323
a(S'two'
p324
S'two'
p325
S'CD'
p326
S'B-NP'
p327
g5
tp328
a(S'employment'
p329
S'employment'
p330
S'NN'
p331
S'I-NP'
p332
g5
tp333
a(S'interviews.'
p334
S'interviews.'
p335
S'NN'
p336
S'I-NP'
p337
g5
tp338
a(S'Half'
p339
S'Half'
p340
S'NN'
p341
S'I-NP'
p342
g5
tp343
a(S'received'
p344
S'receive'
p345
S'VBD'
p346
S'B-VP'
p347
g5
tp348
a(g9
g9
S'DT'
p349
S'B-NP'
p350
g5
tp351
a(S'training'
p352
S'training'
p353
S'NN'
p354
S'I-NP'
p355
g5
tp356
a(S'intervention'
p357
S'intervention'
p358
S'NN'
p359
S'I-NP'
p360
g5
tp361
a(S'following'
p362
S'follow'
p363
S'VBG'
p364
S'B-PP'
p365
g5
tp366
a(S'the'
p367
S'the'
p368
S'DT'
p369
S'B-NP'
p370
g5
tp371
a(S'initial'
p372
S'initial'
p373
S'JJ'
p374
S'I-NP'
p375
g5
tp376
a(S'interview'
p377
S'interview'
p378
S'NN'
p379
S'I-NP'
p380
g5
tp381
a(S'and'
p382
S'and'
p383
S'CC'
p384
g5
g5
tp385
a(S'the'
p386
S'the'
p387
S'DT'
p388
S'B-NP'
p389
g5
tp390
a(S'half'
p391
S'half'
p392
S'NN'
p393
S'I-NP'
p394
g5
tp395
a(S'who'
p396
S'who'
p397
S'WP'
p398
S'B-NP'
p399
g5
tp400
a(S'served'
p401
S'serve'
p402
S'VBD'
p403
S'B-VP'
p404
g5
tp405
a(S'as'
p406
S'as'
p407
S'IN'
p408
S'B-PP'
p409
g5
tp410
a(g9
g9
S'DT'
p411
S'B-NP'
p412
g5
tp413
a(S'contrast'
p414
S'contrast'
p415
S'NN'
p416
S'I-NP'
p417
g5
tp418
a(S'group'
p419
S'group'
p420
S'NN'
p421
S'I-NP'
p422
g5
tp423
a(S'did'
p424
S'do'
p425
S'VBD'
p426
S'B-VP'
p427
g5
tp428
a(S'not.'
p429
S'not.'
p430
S'DT'
p431
g5
g5
tp432
a(S'Their'
p433
S'Their'
p434
S'PRP$'
p435
S'B-NP'
p436
g5
tp437
a(S'performance'
p438
S'performance'
p439
S'NN'
p440
S'I-NP'
p441
g5
tp442
a(S'pre'
p443
S'pre'
p444
S'NN'
p445
S'I-NP'
p446
g5
tp447
a(S'and'
p448
S'and'
p449
S'CC'
p450
g5
g5
tp451
a(S'post'
p452
S'post'
p453
S'NN'
p454
S'B-NP'
p455
g5
tp456
a(S'intervention'
p457
S'intervention'
p458
S'NN'
p459
S'I-NP'
p460
g5
tp461
a(S'was'
p462
S'be'
p463
S'VBD'
p464
S'B-VP'
p465
g5
tp466
a(S'assessed'
p467
S'assess'
p468
S'VBN'
p469
S'I-VP'
p470
g5
tp471
a(S'by'
p472
S'by'
p473
S'IN'
p474
S'B-PP'
p475
g5
tp476
a(S'four'
p477
S'four'
p478
S'CD'
p479
S'B-NP'
p480
g5
tp481
a(S'independent'
p482
S'independent'
p483
S'JJ'
p484
S'I-NP'
p485
g5
tp486
a(S'raters'
p487
S'rater'
p488
S'NNS'
p489
S'I-NP'
p490
g5
tp491
a(S'using'
p492
S'use'
p493
S'VBG'
p494
S'B-VP'
p495
g5
tp496
a(g9
g9
S'DT'
p497
S'B-NP'
p498
g5
tp499
a(S'scale'
p500
S'scale'
p501
S'NN'
p502
S'I-NP'
p503
g5
tp504
a(S'that'
p505
S'that'
p506
S'WDT'
p507
S'B-NP'
p508
g5
tp509
a(S'included'
p510
S'include'
p511
S'VBD'
p512
S'B-VP'
p513
g5
tp514
a(S'evaluation'
p515
S'evaluation'
p516
S'NN'
p517
S'B-NP'
p518
g5
tp519
a(S'of'
p520
S'of'
p521
S'IN'
p522
S'B-PP'
p523
g5
tp524
a(S'both'
p525
S'both'
p526
S'DT'
p527
S'B-NP'
p528
g5
tp529
a(S'Content'
p530
S'Content'
p531
S'NNP'
p532
S'I-NP'
p533
g5
tp534
a(S'and'
p535
S'and'
p536
S'CC'
p537
S'I-NP'
p538
g5
tp539
a(S'Delivery.'
p540
S'Delivery.'
p541
S'NNP'
p542
S'I-NP'
p543
g5
tp544
a(S'Results'
p545
S'Result'
p546
S'NNPS'
p547
S'I-NP'
p548
g5
tp549
a(S'suggest'
p550
S'suggest'
p551
S'VBP'
p552
S'B-VP'
p553
g5
tp554
a(S'that'
p555
S'that'
p556
S'IN'
p557
S'B-SBAR'
p558
g5
tp559
a(S'youth'
p560
S'youth'
p561
S'PRP'
p562
S'B-NP'
p563
g5
tp564
a(S'who'
p565
S'who'
p566
S'WP'
p567
S'B-NP'
p568
g5
tp569
a(S'completed'
p570
S'complete'
p571
S'VBD'
p572
S'B-VP'
p573
g5
tp574
a(S'the'
p575
S'the'
p576
S'DT'
p577
S'B-NP'
p578
g5
tp579
a(S'JobTIPS'
p580
S'JobTIPS'
p581
S'NNP'
p582
S'I-NP'
p583
g5
tp584
a(S'employment'
p585
S'employment'
p586
S'NN'
p587
S'I-NP'
p588
g5
tp589
a(S'program'
p590
S'program'
p591
S'NN'
p592
S'I-NP'
p593
g5
tp594
a(S'demonstrated'
p595
S'demonstrate'
p596
S'VBD'
p597
S'B-VP'
p598
g5
tp599
a(S'significantly'
p600
S'significantly'
p601
S'RB'
p602
S'B-NP'
p603
g5
tp604
a(S'more'
p605
S'more'
p606
S'RBR'
p607
S'I-NP'
p608
g5
tp609
a(S'effective'
p610
S'effective'
p611
S'JJ'
p612
S'I-NP'
p613
g5
tp614
a(S'verbal'
p615
S'verbal'
p616
S'JJ'
p617
S'I-NP'
p618
g5
tp619
a(S'content'
p620
S'content'
p621
S'NN'
p622
S'I-NP'
p623
g5
tp624
a(S'skills'
p625
S'skill'
p626
S'NNS'
p627
S'I-NP'
p628
g5
tp629
a(S'than'
p630
S'than'
p631
S'IN'
p632
S'B-PP'
p633
g5
tp634
a(S'those'
p635
S'those'
p636
S'DT'
p637
S'B-NP'
p638
g5
tp639
a(S'who'
p640
S'who'
p641
S'WP'
p642
S'B-NP'
p643
g5
tp644
a(S'did'
p645
S'do'
p646
S'VBD'
p647
S'B-VP'
p648
g5
tp649
a(S'not'
p650
S'not'
p651
S'RB'
p652
g5
g5
tp653
a(g63
g63
g63
g5
g5
tp654
a.