(lp0
(S'A'
p1
g1
S'DT'
p2
S'B-NP'
p3
S'O'
p4
tp5
a(S'randomized'
p6
S'randomize'
p7
S'VBN'
p8
S'I-NP'
p9
g4
tp10
a(S','
p11
g11
g11
S'I-NP'
p12
g4
tp13
a(S'double-blind'
p14
S'double-blind'
p15
S'JJ'
p16
S'I-NP'
p17
g4
tp18
a(g11
g11
g11
S'I-NP'
p19
g4
tp20
a(S'placebo-controlled'
p21
S'placebo-controlled'
p22
S'JJ'
p23
S'I-NP'
p24
g4
tp25
a(S'MRI'
p26
S'MRI'
p27
S'NN'
p28
S'I-NP'
p29
g4
tp30
a(S'study'
p31
S'study'
p32
S'NN'
p33
S'I-NP'
p34
g4
tp35
a(S'of'
p36
S'of'
p37
S'IN'
p38
S'B-PP'
p39
g4
tp40
a(S'anti-herpes'
p41
S'anti-herpes'
p42
S'JJ'
p43
S'B-NP'
p44
g4
tp45
a(S'virus'
p46
S'virus'
p47
S'NN'
p48
S'I-NP'
p49
g4
tp50
a(S'therapy'
p51
S'therapy'
p52
S'NN'
p53
S'I-NP'
p54
g4
tp55
a(S'in'
p56
S'in'
p57
S'IN'
p58
S'B-PP'
p59
g4
tp60
a(S'MS'
p61
S'MS'
p62
S'NN'
p63
S'B-NP'
p64
g4
tp65
a(S'.'
p66
g66
g66
g4
g4
tp67
a(S'OBJECTIVE'
p68
S'OBJECTIVE'
p69
S'NN'
p70
S'B-NP'
p71
g4
tp72
a(S'To'
p73
S'To'
p74
S'TO'
p75
S'B-VP'
p76
g4
tp77
a(S'evaluate'
p78
S'evaluate'
p79
S'VB'
p80
S'I-VP'
p81
g4
tp82
a(S'the'
p83
S'the'
p84
S'DT'
p85
S'B-NP'
p86
g4
tp87
a(S'effect'
p88
S'effect'
p89
S'NN'
p90
S'I-NP'
p91
g4
tp92
a(S'of'
p93
S'of'
p94
S'IN'
p95
S'B-PP'
p96
g4
tp97
a(S'treatment'
p98
S'treatment'
p99
S'NN'
p100
S'B-NP'
p101
g4
tp102
a(S'with'
p103
S'with'
p104
S'IN'
p105
S'B-PP'
p106
g4
tp107
a(S'the'
p108
S'the'
p109
S'DT'
p110
S'B-NP'
p111
g4
tp112
a(S'antiherpes'
p113
S'antiherpes'
p114
S'NN'
p115
S'I-NP'
p116
g4
tp117
a(S'drug'
p118
S'drug'
p119
S'NN'
p120
S'I-NP'
p121
g4
tp122
a(S'valacyclovir'
p123
S'valacyclovir'
p124
S'NN'
p125
S'I-NP'
p126
g4
tp127
a(S'on'
p128
S'on'
p129
S'IN'
p130
S'B-PP'
p131
g4
tp132
a(S'MRI-evident'
p133
S'MRI-evident'
p134
S'JJ'
p135
S'B-NP'
p136
g4
tp137
a(S'lesions'
p138
S'lesion'
p139
S'NNS'
p140
S'I-NP'
p141
g4
tp142
a(S'in'
p143
S'in'
p144
S'IN'
p145
S'B-PP'
p146
g4
tp147
a(S'patients'
p148
S'patient'
p149
S'NNS'
p150
S'B-NP'
p151
g4
tp152
a(S'with'
p153
S'with'
p154
S'IN'
p155
S'B-PP'
p156
g4
tp157
a(S'relapsing-remitting'
p158
S'relapsing-remitting'
p159
S'JJ'
p160
S'B-NP'
p161
g4
tp162
a(S'MS'
p163
S'MS'
p164
S'NN'
p165
S'I-NP'
p166
g4
tp167
a(S'in'
p168
S'in'
p169
S'IN'
p170
S'B-PP'
p171
g4
tp172
a(S'a'
p173
g173
S'DT'
p174
S'B-NP'
p175
g4
tp176
a(S'phase'
p177
S'phase'
p178
S'NN'
p179
S'I-NP'
p180
g4
tp181
a(S'2'
p182
g182
S'CD'
p183
S'I-NP'
p184
g4
tp185
a(g11
g11
g11
g4
g4
tp186
a(S'randomized'
p187
S'randomize'
p188
S'VBN'
p189
S'B-NP'
p190
g4
tp191
a(g11
g11
g11
S'I-NP'
p192
g4
tp193
a(S'double-blind'
p194
S'double-blind'
p195
S'JJ'
p196
S'I-NP'
p197
g4
tp198
a(g11
g11
g11
S'I-NP'
p199
g4
tp200
a(S'placebo-controlled'
p201
S'placebo-controlled'
p202
S'JJ'
p203
S'I-NP'
p204
g4
tp205
a(S'study'
p206
S'study'
p207
S'NN'
p208
S'I-NP'
p209
g4
tp210
a(g66
g66
g66
g4
g4
tp211
a(S'BACKGROUND'
p212
S'BACKGROUND'
p213
S'NN'
p214
S'B-NP'
p215
g4
tp216
a(S'It'
p217
S'It'
p218
S'PRP'
p219
S'B-NP'
p220
g4
tp221
a(S'has'
p222
S'have'
p223
S'VBZ'
p224
S'B-VP'
p225
g4
tp226
a(S'been'
p227
S'be'
p228
S'VBN'
p229
S'I-VP'
p230
g4
tp231
a(S'postulated'
p232
S'postulate'
p233
S'VBN'
p234
S'I-VP'
p235
g4
tp236
a(S'from'
p237
S'from'
p238
S'IN'
p239
S'B-PP'
p240
g4
tp241
a(S'virologic'
p242
S'virologic'
p243
S'JJ'
p244
S'B-NP'
p245
g4
tp246
a(S'studies'
p247
S'study'
p248
S'NNS'
p249
S'I-NP'
p250
g4
tp251
a(S'that'
p252
S'that'
p253
S'IN'
p254
S'B-NP'
p255
g4
tp256
a(S'herpesvirus'
p257
S'herpesvirus'
p258
S'NN'
p259
S'B-NP'
p260
g4
tp261
a(S'infection'
p262
S'infection'
p263
S'NN'
p264
S'I-NP'
p265
g4
tp266
a(S'could'
p267
S'could'
p268
S'MD'
p269
S'B-VP'
p270
g4
tp271
a(S'play'
p272
S'play'
p273
S'VB'
p274
S'I-VP'
p275
g4
tp276
a(g173
g173
S'DT'
p277
S'B-NP'
p278
g4
tp279
a(S'role'
p280
S'role'
p281
S'NN'
p282
S'I-NP'
p283
g4
tp284
a(S'in'
p285
S'in'
p286
S'IN'
p287
S'B-PP'
p288
g4
tp289
a(S'the'
p290
S'the'
p291
S'DT'
p292
S'B-NP'
p293
g4
tp294
a(S'progression'
p295
S'progression'
p296
S'NN'
p297
S'I-NP'
p298
g4
tp299
a(S'of'
p300
S'of'
p301
S'IN'
p302
S'B-PP'
p303
g4
tp304
a(S'MS'
p305
S'MS'
p306
S'NN'
p307
S'B-NP'
p308
g4
tp309
a(g66
g66
g66
g4
g4
tp310
a(S'METHODS'
p311
S'METHODS'
p312
S'NNS'
p313
S'B-NP'
p314
g4
tp315
a(S'Patients'
p316
S'Patient'
p317
S'NNS'
p318
S'I-NP'
p319
g4
tp320
a(S'were'
p321
S'be'
p322
S'VBD'
p323
S'B-VP'
p324
g4
tp325
a(S'eligible'
p326
S'eligible'
p327
S'JJ'
p328
S'B-ADJP'
p329
g4
tp330
a(S'for'
p331
S'for'
p332
S'IN'
p333
S'B-PP'
p334
g4
tp335
a(S'the'
p336
S'the'
p337
S'DT'
p338
S'B-NP'
p339
g4
tp340
a(S'study'
p341
S'study'
p342
S'NN'
p343
S'I-NP'
p344
g4
tp345
a(S'if'
p346
S'if'
p347
S'IN'
p348
S'B-SBAR'
p349
g4
tp350
a(S'they'
p351
S'they'
p352
S'PRP'
p353
S'B-NP'
p354
g4
tp355
a(S'had'
p356
S'have'
p357
S'VBD'
p358
S'B-VP'
p359
g4
tp360
a(S'had'
p361
S'have'
p362
S'VBN'
p363
S'I-VP'
p364
g4
tp365
a(S'two'
p366
S'two'
p367
S'CD'
p368
S'B-NP'
p369
g4
tp370
a(S'or'
p371
S'or'
p372
S'CC'
p373
S'I-NP'
p374
g4
tp375
a(S'more'
p376
S'more'
p377
S'JJR'
p378
S'I-NP'
p379
g4
tp380
a(S'MS'
p381
S'MS'
p382
S'NN'
p383
S'I-NP'
p384
g4
tp385
a(S'relapses'
p386
S'relapse'
p387
S'NNS'
p388
S'I-NP'
p389
g4
tp390
a(S'in'
p391
S'in'
p392
S'IN'
p393
S'B-PP'
p394
g4
tp395
a(S'the'
p396
S'the'
p397
S'DT'
p398
S'B-NP'
p399
g4
tp400
a(S'2-year'
p401
S'2-year'
p402
S'JJ'
p403
S'I-NP'
p404
g4
tp405
a(S'period'
p406
S'period'
p407
S'NN'
p408
S'I-NP'
p409
g4
tp410
a(S'before'
p411
S'before'
p412
S'IN'
p413
S'B-PP'
p414
g4
tp415
a(S'enrollment.'
p416
S'enrollment.'
p417
S'NN'
p418
S'B-NP'
p419
g4
tp420
a(S'Seventy'
p421
S'Seventy'
p422
S'CD'
p423
S'B-NP'
p424
g4
tp425
a(S'patients'
p426
S'patient'
p427
S'NNS'
p428
S'I-NP'
p429
g4
tp430
a(S'with'
p431
S'with'
p432
S'IN'
p433
S'B-PP'
p434
g4
tp435
a(S'Expanded'
p436
S'Expanded'
p437
S'JJ'
p438
S'B-NP'
p439
g4
tp440
a(S'Disability'
p441
S'Disability'
p442
S'NN'
p443
S'I-NP'
p444
g4
tp445
a(S'Status'
p446
S'Status'
p447
S'NNP'
p448
S'I-NP'
p449
g4
tp450
a(S'Scale'
p451
S'Scale'
p452
S'NNP'
p453
S'I-NP'
p454
g4
tp455
a(S'scores'
p456
S'score'
p457
S'NNS'
p458
S'I-NP'
p459
g4
tp460
a(S'of'
p461
S'of'
p462
S'IN'
p463
S'B-PP'
p464
g4
tp465
a(S'0'
p466
g466
S'CD'
p467
S'B-NP'
p468
g4
tp469
a(S'to'
p470
S'to'
p471
S'TO'
p472
S'B-PP'
p473
g4
tp474
a(S'5.5'
p475
S'5.5'
p476
S'CD'
p477
S'B-NP'
p478
g4
tp479
a(S'were'
p480
S'be'
p481
S'VBD'
p482
S'B-VP'
p483
g4
tp484
a(S'randomly'
p485
S'randomly'
p486
S'RB'
p487
S'I-VP'
p488
g4
tp489
a(S'assigned'
p490
S'assign'
p491
S'VBN'
p492
S'I-VP'
p493
g4
tp494
a(S'to'
p495
S'to'
p496
S'TO'
p497
S'I-VP'
p498
g4
tp499
a(S'receive'
p500
S'receive'
p501
S'VB'
p502
S'I-VP'
p503
g4
tp504
a(S'1'
p505
g505
S'CD'
p506
S'B-NP'
p507
g4
tp508
a(S'gram'
p509
S'gram'
p510
S'NN'
p511
S'I-NP'
p512
g4
tp513
a(S'of'
p514
S'of'
p515
S'IN'
p516
S'B-PP'
p517
g4
tp518
a(S'valacyclovir'
p519
S'valacyclovir'
p520
S'NN'
p521
S'B-NP'
p522
g4
tp523
a(S'('
p524
g524
g524
g4
g4
tp525
a(S'n'
p526
g526
S'NN'
p527
S'B-NP'
p528
g4
tp529
a(S'='
p530
g530
S'SYM'
p531
S'B-VP'
p532
g4
tp533
a(S'36'
p534
S'36'
p535
S'CD'
p536
S'B-NP'
p537
g4
tp538
a(S')'
p539
g539
g539
g4
g4
tp540
a(S'or'
p541
S'or'
p542
S'CC'
p543
g4
g4
tp544
a(S'placebo'
p545
S'placebo'
p546
S'NN'
p547
S'B-NP'
p548
g4
tp549
a(g524
g524
g524
g4
g4
tp550
a(g526
g526
S'NN'
p551
S'B-NP'
p552
g4
tp553
a(g530
g530
S'SYM'
p554
S'B-VP'
p555
g4
tp556
a(S'34'
p557
S'34'
p558
S'CD'
p559
S'B-NP'
p560
g4
tp561
a(g539
g539
g539
g4
g4
tp562
a(S'three'
p563
S'three'
p564
S'CD'
p565
S'B-NP'
p566
g4
tp567
a(S'times'
p568
S'time'
p569
S'NNS'
p570
S'I-NP'
p571
g4
tp572
a(S'daily'
p573
S'daily'
p574
S'RB'
p575
S'I-NP'
p576
g4
tp577
a(S'for'
p578
S'for'
p579
S'IN'
p580
S'B-PP'
p581
g4
tp582
a(S'24'
p583
S'24'
p584
S'CD'
p585
S'B-NP'
p586
g4
tp587
a(S'weeks.'
p588
S'weeks.'
p589
S'NN'
p590
S'I-NP'
p591
g4
tp592
a(S'Patients'
p593
S'Patient'
p594
S'NNS'
p595
S'I-NP'
p596
g4
tp597
a(S'underwent'
p598
S'undergo'
p599
S'VBD'
p600
S'B-VP'
p601
g4
tp602
a(S'MRI'
p603
S'MRI'
p604
S'NN'
p605
S'B-NP'
p606
g4
tp607
a(S'every'
p608
S'every'
p609
S'DT'
p610
S'B-NP'
p611
g4
tp612
a(S'fourth'
p613
S'fourth'
p614
S'JJ'
p615
S'I-NP'
p616
g4
tp617
a(S'week'
p618
S'week'
p619
S'NN'
p620
S'I-NP'
p621
g4
tp622
a(S'for'
p623
S'for'
p624
S'IN'
p625
S'B-PP'
p626
g4
tp627
a(S'32'
p628
S'32'
p629
S'CD'
p630
S'B-NP'
p631
g4
tp632
a(S'weeks'
p633
S'week'
p634
S'NNS'
p635
S'I-NP'
p636
g4
tp637
a(S':'
p638
g638
g638
g4
g4
tp639
a(S'twice'
p640
S'twice'
p641
S'RB'
p642
S'B-ADVP'
p643
g4
tp644
a(S'during'
p645
S'during'
p646
S'IN'
p647
S'B-PP'
p648
g4
tp649
a(S'pretreatment'
p650
S'pretreatment'
p651
S'NN'
p652
S'B-NP'
p653
g4
tp654
a(g11
g11
g11
g4
g4
tp655
a(S'six'
p656
S'six'
p657
S'CD'
p658
S'B-NP'
p659
g4
tp660
a(S'times'
p661
S'time'
p662
S'NNS'
p663
S'I-NP'
p664
g4
tp665
a(S'during'
p666
S'during'
p667
S'IN'
p668
S'B-PP'
p669
g4
tp670
a(S'treatment'
p671
S'treatment'
p672
S'NN'
p673
S'B-NP'
p674
g4
tp675
a(g11
g11
g11
g4
g4
tp676
a(S'and'
p677
S'and'
p678
S'CC'
p679
g4
g4
tp680
a(S'once'
p681
S'once'
p682
S'RB'
p683
S'B-ADVP'
p684
g4
tp685
a(S'after'
p686
S'after'
p687
S'IN'
p688
S'B-PP'
p689
g4
tp690
a(S'treatment.'
p691
S'treatment.'
p692
S'NN'
p693
S'B-NP'
p694
g4
tp695
a(S'Scoring'
p696
S'Scoring'
p697
S'NN'
p698
S'I-NP'
p699
g4
tp700
a(S'of'
p701
S'of'
p702
S'IN'
p703
S'B-PP'
p704
g4
tp705
a(S'neurologic'
p706
S'neurologic'
p707
S'JJ'
p708
S'B-NP'
p709
g4
tp710
a(S'disability'
p711
S'disability'
p712
S'NN'
p713
S'I-NP'
p714
g4
tp715
a(S'was'
p716
S'be'
p717
S'VBD'
p718
S'B-VP'
p719
g4
tp720
a(S'performed'
p721
S'perform'
p722
S'VBN'
p723
S'I-VP'
p724
g4
tp725
a(S'at'
p726
S'at'
p727
S'IN'
p728
S'B-PP'
p729
g4
tp730
a(S'the'
p731
S'the'
p732
S'DT'
p733
S'B-NP'
p734
g4
tp735
a(S'start'
p736
S'start'
p737
S'NN'
p738
S'I-NP'
p739
g4
tp740
a(S'and'
p741
S'and'
p742
S'CC'
p743
S'I-NP'
p744
g4
tp745
a(S'end'
p746
S'end'
p747
S'NN'
p748
S'I-NP'
p749
g4
tp750
a(S'of'
p751
S'of'
p752
S'IN'
p753
S'B-PP'
p754
g4
tp755
a(S'the'
p756
S'the'
p757
S'DT'
p758
S'B-NP'
p759
g4
tp760
a(S'treatment'
p761
S'treatment'
p762
S'NN'
p763
S'I-NP'
p764
g4
tp765
a(S'period.'
p766
S'period.'
p767
S'NN'
p768
S'I-NP'
p769
g4
tp770
a(S'The'
p771
S'The'
p772
S'DT'
p773
S'B-NP'
p774
g4
tp775
a(S'primary'
p776
S'primary'
p777
S'JJ'
p778
S'I-NP'
p779
g4
tp780
a(S'endpoint'
p781
S'endpoint'
p782
S'NN'
p783
S'I-NP'
p784
g4
tp785
a(S'was'
p786
S'be'
p787
S'VBD'
p788
S'B-VP'
p789
g4
tp790
a(S'the'
p791
S'the'
p792
S'DT'
p793
S'B-NP'
p794
g4
tp795
a(S'number'
p796
S'number'
p797
S'NN'
p798
S'I-NP'
p799
g4
tp800
a(S'of'
p801
S'of'
p802
S'IN'
p803
S'B-PP'
p804
g4
tp805
a(S'new'
p806
S'new'
p807
S'JJ'
p808
S'B-NP'
p809
g4
tp810
a(S'active'
p811
S'active'
p812
S'JJ'
p813
S'I-NP'
p814
g4
tp815
a(S'MRI-evident'
p816
S'MRI-evident'
p817
S'JJ'
p818
S'I-NP'
p819
g4
tp820
a(S'lesions'
p821
S'lesion'
p822
S'NNS'
p823
S'I-NP'
p824
g4
tp825
a(S'over'
p826
S'over'
p827
S'IN'
p828
S'B-PP'
p829
g4
tp830
a(S'24'
p831
S'24'
p832
S'CD'
p833
S'B-NP'
p834
g4
tp835
a(S'weeks'
p836
S'week'
p837
S'NNS'
p838
S'I-NP'
p839
g4
tp840
a(S'of'
p841
S'of'
p842
S'IN'
p843
S'B-PP'
p844
g4
tp845
a(S'treatment.'
p846
S'treatment.'
p847
S'NN'
p848
S'B-NP'
p849
g4
tp850
a(S'Secondary'
p851
S'Secondary'
p852
S'JJ'
p853
S'I-NP'
p854
g4
tp855
a(S'endpoints'
p856
S'endpoint'
p857
S'NNS'
p858
S'I-NP'
p859
g4
tp860
a(S'included'
p861
S'include'
p862
S'VBD'
p863
S'B-VP'
p864
g4
tp865
a(S'other'
p866
S'other'
p867
S'JJ'
p868
S'B-NP'
p869
g4
tp870
a(S'MRI'
p871
S'MRI'
p872
S'NN'
p873
S'I-NP'
p874
g4
tp875
a(S'measures'
p876
S'measure'
p877
S'NNS'
p878
S'I-NP'
p879
g4
tp880
a(S'and'
p881
S'and'
p882
S'CC'
p883
g4
g4
tp884
a(S'clinical'
p885
S'clinical'
p886
S'JJ'
p887
S'B-NP'
p888
g4
tp889
a(S'endpoints'
p890
S'endpoint'
p891
S'NNS'
p892
S'I-NP'
p893
g4
tp894
a(g66
g66
g66
g4
g4
tp895
a(S'RESULTS'
p896
S'RESULTS'
p897
S'NNS'
p898
S'B-NP'
p899
g4
tp900
a(S'The'
p901
S'The'
p902
S'DT'
p903
S'B-NP'
p904
g4
tp905
a(S'mean'
p906
S'mean'
p907
S'JJ'
p908
S'I-NP'
p909
g4
tp910
a(S'number'
p911
S'number'
p912
S'NN'
p913
S'I-NP'
p914
g4
tp915
a(S'of'
p916
S'of'
p917
S'IN'
p918
S'B-PP'
p919
g4
tp920
a(S'new'
p921
S'new'
p922
S'JJ'
p923
S'B-NP'
p924
g4
tp925
a(S'active'
p926
S'active'
p927
S'JJ'
p928
S'I-NP'
p929
g4
tp930
a(S'lesions'
p931
S'lesion'
p932
S'NNS'
p933
S'I-NP'
p934
g4
tp935
a(S'+/-'
p936
S'+/-'
p937
S'CC'
p938
g4
g4
tp939
a(S'SD'
p940
S'SD'
p941
S'NN'
p942
S'B-NP'
p943
g4
tp944
a(S'per'
p945
S'per'
p946
S'IN'
p947
S'B-PP'
p948
g4
tp949
a(S'patient'
p950
S'patient'
p951
S'NN'
p952
S'B-NP'
p953
g4
tp954
a(S'during'
p955
S'during'
p956
S'IN'
p957
S'B-PP'
p958
g4
tp959
a(S'24'
p960
S'24'
p961
S'CD'
p962
S'B-NP'
p963
g4
tp964
a(S'weeks'
p965
S'week'
p966
S'NNS'
p967
S'I-NP'
p968
g4
tp969
a(S'of'
p970
S'of'
p971
S'IN'
p972
S'B-PP'
p973
g4
tp974
a(S'treatment'
p975
S'treatment'
p976
S'NN'
p977
S'B-NP'
p978
g4
tp979
a(S'with'
p980
S'with'
p981
S'IN'
p982
S'B-PP'
p983
g4
tp984
a(S'valacyclovir'
p985
S'valacyclovir'
p986
S'NN'
p987
S'B-NP'
p988
g4
tp989
a(S'was'
p990
S'be'
p991
S'VBD'
p992
S'B-VP'
p993
g4
tp994
a(S'11.9'
p995
S'11.9'
p996
S'CD'
p997
S'B-NP'
p998
g4
tp999
a(S'+/-'
p1000
S'+/-'
p1001
S'SYM'
p1002
S'I-NP'
p1003
g4
tp1004
a(S'17.6'
p1005
S'17.6'
p1006
S'CD'
p1007
S'I-NP'
p1008
g4
tp1009
a(S'and'
p1010
S'and'
p1011
S'CC'
p1012
g4
g4
tp1013
a(S'that'
p1014
S'that'
p1015
S'DT'
p1016
S'B-NP'
p1017
g4
tp1018
a(S'during'
p1019
S'during'
p1020
S'IN'
p1021
S'B-PP'
p1022
g4
tp1023
a(S'placebo'
p1024
S'placebo'
p1025
S'NN'
p1026
S'B-NP'
p1027
g4
tp1028
a(S'treatment'
p1029
S'treatment'
p1030
S'NN'
p1031
S'I-NP'
p1032
g4
tp1033
a(S'was'
p1034
S'be'
p1035
S'VBD'
p1036
S'B-VP'
p1037
g4
tp1038
a(S'14.5'
p1039
S'14.5'
p1040
S'CD'
p1041
S'B-NP'
p1042
g4
tp1043
a(S'+/-'
p1044
S'+/-'
p1045
S'SYM'
p1046
S'I-NP'
p1047
g4
tp1048
a(S'21.4.'
p1049
S'21.4.'
p1050
S'CD'
p1051
S'I-NP'
p1052
g4
tp1053
a(g1
g1
S'DT'
p1054
S'B-NP'
p1055
g4
tp1056
a(S'protocol-planned'
p1057
S'protocol-planned'
p1058
S'JJ'
p1059
S'I-NP'
p1060
g4
tp1061
a(S'exploratory'
p1062
S'exploratory'
p1063
S'JJ'
p1064
S'I-NP'
p1065
g4
tp1066
a(S'analysis'
p1067
S'analysis'
p1068
S'NN'
p1069
S'I-NP'
p1070
g4
tp1071
a(S'stratified'
p1072
S'stratify'
p1073
S'VBD'
p1074
S'B-VP'
p1075
g4
tp1076
a(S'patients'
p1077
S'patient'
p1078
S'NNS'
p1079
S'B-NP'
p1080
g4
tp1081
a(S'according'
p1082
S'accord'
p1083
S'VBG'
p1084
S'B-PP'
p1085
g4
tp1086
a(S'to'
p1087
S'to'
p1088
S'TO'
p1089
S'B-PP'
p1090
g4
tp1091
a(S'baseline'
p1092
S'baseline'
p1093
S'NN'
p1094
S'B-NP'
p1095
g4
tp1096
a(S'activity'
p1097
S'activity'
p1098
S'NN'
p1099
S'I-NP'
p1100
g4
tp1101
a(S';'
p1102
g1102
g638
g4
g4
tp1103
a(S'this'
p1104
S'this'
p1105
S'DT'
p1106
S'B-NP'
p1107
g4
tp1108
a(S'analysis'
p1109
S'analysis'
p1110
S'NN'
p1111
S'I-NP'
p1112
g4
tp1113
a(S'showed'
p1114
S'show'
p1115
S'VBD'
p1116
S'B-VP'
p1117
g4
tp1118
a(S'that'
p1119
S'that'
p1120
S'IN'
p1121
S'B-SBAR'
p1122
g4
tp1123
a(S'patients'
p1124
S'patient'
p1125
S'NNS'
p1126
S'B-NP'
p1127
g4
tp1128
a(S'with'
p1129
S'with'
p1130
S'IN'
p1131
S'B-PP'
p1132
g4
tp1133
a(S'high'
p1134
S'high'
p1135
S'JJ'
p1136
S'B-NP'
p1137
g4
tp1138
a(S'levels'
p1139
S'level'
p1140
S'NNS'
p1141
S'I-NP'
p1142
g4
tp1143
a(S'of'
p1144
S'of'
p1145
S'IN'
p1146
S'B-PP'
p1147
g4
tp1148
a(S'disease'
p1149
S'disease'
p1150
S'NN'
p1151
S'B-NP'
p1152
g4
tp1153
a(S'activity'
p1154
S'activity'
p1155
S'NN'
p1156
S'I-NP'
p1157
g4
tp1158
a(S'in'
p1159
S'in'
p1160
S'IN'
p1161
S'B-PP'
p1162
g4
tp1163
a(S'the'
p1164
S'the'
p1165
S'DT'
p1166
S'B-NP'
p1167
g4
tp1168
a(S'valacyclovir'
p1169
S'valacyclovir'
p1170
S'NN'
p1171
S'I-NP'
p1172
g4
tp1173
a(S'treatment'
p1174
S'treatment'
p1175
S'NN'
p1176
S'I-NP'
p1177
g4
tp1178
a(S'group'
p1179
S'group'
p1180
S'NN'
p1181
S'I-NP'
p1182
g4
tp1183
a(g524
g524
g524
g4
g4
tp1184
a(g526
g526
S'NN'
p1185
S'B-NP'
p1186
g4
tp1187
a(g530
g530
S'SYM'
p1188
S'B-VP'
p1189
g4
tp1190
a(S'17'
p1191
S'17'
p1192
S'CD'
p1193
S'B-NP'
p1194
g4
tp1195
a(g539
g539
g539
g4
g4
tp1196
a(S'developed'
p1197
S'develop'
p1198
S'VBD'
p1199
S'B-VP'
p1200
g4
tp1201
a(S'fewer'
p1202
S'few'
p1203
S'JJR'
p1204
S'B-NP'
p1205
g4
tp1206
a(S'new'
p1207
S'new'
p1208
S'JJ'
p1209
S'I-NP'
p1210
g4
tp1211
a(S'active'
p1212
S'active'
p1213
S'JJ'
p1214
S'I-NP'
p1215
g4
tp1216
a(S'lesions'
p1217
S'lesion'
p1218
S'NNS'
p1219
S'I-NP'
p1220
g4
tp1221
a(S'per'
p1222
S'per'
p1223
S'IN'
p1224
S'B-PP'
p1225
g4
tp1226
a(S'scan'
p1227
S'scan'
p1228
S'NN'
p1229
S'B-NP'
p1230
g4
tp1231
a(S'than'
p1232
S'than'
p1233
S'IN'
p1234
S'B-SBAR'
p1235
g4
tp1236
a(S'did'
p1237
S'do'
p1238
S'VBD'
p1239
g4
g4
tp1240
a(S'those'
p1241
S'those'
p1242
S'DT'
p1243
S'B-NP'
p1244
g4
tp1245
a(S'in'
p1246
S'in'
p1247
S'IN'
p1248
S'B-PP'
p1249
g4
tp1250
a(S'the'
p1251
S'the'
p1252
S'DT'
p1253
S'B-NP'
p1254
g4
tp1255
a(S'placebo'
p1256
S'placebo'
p1257
S'NN'
p1258
S'I-NP'
p1259
g4
tp1260
a(S'treatment'
p1261
S'treatment'
p1262
S'NN'
p1263
S'I-NP'
p1264
g4
tp1265
a(S'group'
p1266
S'group'
p1267
S'NN'
p1268
S'I-NP'
p1269
g4
tp1270
a(g524
g524
g524
g4
g4
tp1271
a(g526
g526
S'NN'
p1272
S'B-NP'
p1273
g4
tp1274
a(g530
g530
S'SYM'
p1275
S'B-VP'
p1276
g4
tp1277
a(S'11'
p1278
S'11'
p1279
S'CD'
p1280
S'B-NP'
p1281
g4
tp1282
a(g539
g539
g539
g4
g4
tp1283
a(g66
g66
g66
g4
g4
tp1284
a(S'The'
p1285
S'The'
p1286
S'DT'
p1287
S'B-NP'
p1288
g4
tp1289
a(S'median'
p1290
S'median'
p1291
S'JJ'
p1292
S'I-NP'
p1293
g4
tp1294
a(S'number'
p1295
S'number'
p1296
S'NN'
p1297
S'I-NP'
p1298
g4
tp1299
a(g524
g524
g524
g4
g4
tp1300
a(S'Q'
p1301
g1301
S'NN'
p1302
S'B-NP'
p1303
g4
tp1304
a(g524
g524
g524
g4
g4
tp1305
a(g505
g505
S'CD'
p1306
S'B-NP'
p1307
g4
tp1308
a(g539
g539
g539
g4
g4
tp1309
a(g11
g11
g11
g4
g4
tp1310
a(g1301
g1301
S'NN'
p1311
S'B-NP'
p1312
g4
tp1313
a(g524
g524
g524
g4
g4
tp1314
a(S'3'
p1315
g1315
S'CD'
p1316
S'B-NP'
p1317
g4
tp1318
a(g539
g539
g539
g4
g4
tp1319
a(S'range'
p1320
S'range'
p1321
S'NN'
p1322
S'B-NP'
p1323
g4
tp1324
a(g539
g539
g539
g4
g4
tp1325
a(S'of'
p1326
S'of'
p1327
S'IN'
p1328
S'B-PP'
p1329
g4
tp1330
a(S'active'
p1331
S'active'
p1332
S'JJ'
p1333
S'B-NP'
p1334
g4
tp1335
a(S'lesions'
p1336
S'lesion'
p1337
S'NNS'
p1338
S'I-NP'
p1339
g4
tp1340
a(S'was'
p1341
S'be'
p1342
S'VBD'
p1343
S'B-VP'
p1344
g4
tp1345
a(S'2.0'
p1346
S'2.0'
p1347
S'CD'
p1348
S'B-NP'
p1349
g4
tp1350
a(g524
g524
g524
g4
g4
tp1351
a(S'1.38'
p1352
S'1.38'
p1353
S'CD'
p1354
S'B-NP'
p1355
g4
tp1356
a(g11
g11
g11
S'I-NP'
p1357
g4
tp1358
a(S'3.96'
p1359
S'3.96'
p1360
S'CD'
p1361
S'I-NP'
p1362
g4
tp1363
a(g539
g539
g539
g4
g4
tp1364
a(S'in'
p1365
S'in'
p1366
S'IN'
p1367
S'B-PP'
p1368
g4
tp1369
a(S'the'
p1370
S'the'
p1371
S'DT'
p1372
S'B-NP'
p1373
g4
tp1374
a(S'valacyclovir'
p1375
S'valacyclovir'
p1376
S'NN'
p1377
S'I-NP'
p1378
g4
tp1379
a(S'treatment'
p1380
S'treatment'
p1381
S'NN'
p1382
S'I-NP'
p1383
g4
tp1384
a(S'group'
p1385
S'group'
p1386
S'NN'
p1387
S'I-NP'
p1388
g4
tp1389
a(S'and'
p1390
S'and'
p1391
S'CC'
p1392
g4
g4
tp1393
a(S'6.5'
p1394
S'6.5'
p1395
S'CD'
p1396
S'B-NP'
p1397
g4
tp1398
a(g524
g524
g524
g4
g4
tp1399
a(S'2.63'
p1400
S'2.63'
p1401
S'CD'
p1402
S'B-NP'
p1403
g4
tp1404
a(g11
g11
g11
S'I-NP'
p1405
g4
tp1406
a(S'9.0'
p1407
S'9.0'
p1408
S'CD'
p1409
S'I-NP'
p1410
g4
tp1411
a(g539
g539
g539
g4
g4
tp1412
a(S'in'
p1413
S'in'
p1414
S'IN'
p1415
S'B-PP'
p1416
g4
tp1417
a(S'the'
p1418
S'the'
p1419
S'DT'
p1420
S'B-NP'
p1421
g4
tp1422
a(S'placebo'
p1423
S'placebo'
p1424
S'NN'
p1425
S'I-NP'
p1426
g4
tp1427
a(S'treatment'
p1428
S'treatment'
p1429
S'NN'
p1430
S'I-NP'
p1431
g4
tp1432
a(S'group'
p1433
S'group'
p1434
S'NN'
p1435
S'I-NP'
p1436
g4
tp1437
a(g66
g66
g66
g4
g4
tp1438
a(S'CONCLUSIONS'
p1439
S'CONCLUSIONS'
p1440
S'NNS'
p1441
S'B-NP'
p1442
g4
tp1443
a(S'Valacyclovir'
p1444
S'Valacyclovir'
p1445
S'NN'
p1446
S'I-NP'
p1447
g4
tp1448
a(S'treatment'
p1449
S'treatment'
p1450
S'NN'
p1451
S'I-NP'
p1452
g4
tp1453
a(S'did'
p1454
S'do'
p1455
S'VBD'
p1456
S'B-VP'
p1457
g4
tp1458
a(S'not'
p1459
S'not'
p1460
S'RB'
p1461
S'I-VP'
p1462
g4
tp1463
a(S'reduce'
p1464
S'reduce'
p1465
S'VB'
p1466
S'I-VP'
p1467
g4
tp1468
a(S'the'
p1469
S'the'
p1470
S'DT'
p1471
S'B-NP'
p1472
g4
tp1473
a(S'formation'
p1474
S'formation'
p1475
S'NN'
p1476
S'I-NP'
p1477
g4
tp1478
a(S'of'
p1479
S'of'
p1480
S'IN'
p1481
S'B-PP'
p1482
g4
tp1483
a(S'active'
p1484
S'active'
p1485
S'JJ'
p1486
S'B-NP'
p1487
g4
tp1488
a(S'lesions'
p1489
S'lesion'
p1490
S'NNS'
p1491
S'I-NP'
p1492
g4
tp1493
a(S'in'
p1494
S'in'
p1495
S'IN'
p1496
S'B-PP'
p1497
g4
tp1498
a(S'patients'
p1499
S'patient'
p1500
S'NNS'
p1501
S'B-NP'
p1502
g4
tp1503
a(S'with'
p1504
S'with'
p1505
S'IN'
p1506
S'B-PP'
p1507
g4
tp1508
a(S'relapsing-remitting'
p1509
S'relapsing-remitting'
p1510
S'JJ'
p1511
S'B-NP'
p1512
g4
tp1513
a(S'MS'
p1514
S'MS'
p1515
S'NN'
p1516
S'I-NP'
p1517
g4
tp1518
a(S'who'
p1519
S'who'
p1520
S'WP'
p1521
S'B-NP'
p1522
g4
tp1523
a(S'had'
p1524
S'have'
p1525
S'VBD'
p1526
S'B-VP'
p1527
g4
tp1528
a(S'two'
p1529
S'two'
p1530
S'CD'
p1531
S'B-NP'
p1532
g4
tp1533
a(S'or'
p1534
S'or'
p1535
S'CC'
p1536
S'I-NP'
p1537
g4
tp1538
a(S'more'
p1539
S'more'
p1540
S'JJR'
p1541
S'I-NP'
p1542
g4
tp1543
a(S'relapses'
p1544
S'relapse'
p1545
S'NNS'
p1546
S'I-NP'
p1547
g4
tp1548
a(S'during'
p1549
S'during'
p1550
S'IN'
p1551
S'B-PP'
p1552
g4
tp1553
a(S'the'
p1554
S'the'
p1555
S'DT'
p1556
S'B-NP'
p1557
g4
tp1558
a(S'previous'
p1559
S'previous'
p1560
S'JJ'
p1561
S'I-NP'
p1562
g4
tp1563
a(S'2-year'
p1564
S'2-year'
p1565
S'JJ'
p1566
S'I-NP'
p1567
g4
tp1568
a(S'period.'
p1569
S'period.'
p1570
S'NN'
p1571
S'I-NP'
p1572
g4
tp1573
a(S'In'
p1574
S'In'
p1575
S'IN'
p1576
S'B-PP'
p1577
g4
tp1578
a(g173
g173
S'DT'
p1579
S'B-NP'
p1580
g4
tp1581
a(S'subgroup'
p1582
S'subgroup'
p1583
S'NN'
p1584
S'I-NP'
p1585
g4
tp1586
a(S'of'
p1587
S'of'
p1588
S'IN'
p1589
S'B-PP'
p1590
g4
tp1591
a(S'patients'
p1592
S'patient'
p1593
S'NNS'
p1594
S'B-NP'
p1595
g4
tp1596
a(S'with'
p1597
S'with'
p1598
S'IN'
p1599
S'B-PP'
p1600
g4
tp1601
a(S'high'
p1602
S'high'
p1603
S'JJ'
p1604
S'B-NP'
p1605
g4
tp1606
a(S'levels'
p1607
S'level'
p1608
S'NNS'
p1609
S'I-NP'
p1610
g4
tp1611
a(S'of'
p1612
S'of'
p1613
S'IN'
p1614
S'B-PP'
p1615
g4
tp1616
a(S'disease'
p1617
S'disease'
p1618
S'NN'
p1619
S'B-NP'
p1620
g4
tp1621
a(S'activity'
p1622
S'activity'
p1623
S'NN'
p1624
S'I-NP'
p1625
g4
tp1626
a(S'who'
p1627
S'who'
p1628
S'WP'
p1629
S'B-NP'
p1630
g4
tp1631
a(S'had'
p1632
S'have'
p1633
S'VBD'
p1634
S'B-VP'
p1635
g4
tp1636
a(S'more'
p1637
S'more'
p1638
S'JJR'
p1639
S'B-NP'
p1640
g4
tp1641
a(S'than'
p1642
S'than'
p1643
S'IN'
p1644
S'I-NP'
p1645
g4
tp1646
a(S'one'
p1647
S'one'
p1648
S'CD'
p1649
S'I-NP'
p1650
g4
tp1651
a(S'active'
p1652
S'active'
p1653
S'JJ'
p1654
S'I-NP'
p1655
g4
tp1656
a(S'MRI-evident'
p1657
S'MRI-evident'
p1658
S'JJ'
p1659
S'I-NP'
p1660
g4
tp1661
a(S'lesion'
p1662
S'lesion'
p1663
S'NN'
p1664
S'I-NP'
p1665
g4
tp1666
a(S'during'
p1667
S'during'
p1668
S'IN'
p1669
S'B-PP'
p1670
g4
tp1671
a(S'4'
p1672
g1672
S'CD'
p1673
S'B-NP'
p1674
g4
tp1675
a(S'weeks'
p1676
S'week'
p1677
S'NNS'
p1678
S'I-NP'
p1679
g4
tp1680
a(g11
g11
g11
g4
g4
tp1681
a(S'valacyclovir'
p1682
S'valacyclovir'
p1683
S'NN'
p1684
S'B-NP'
p1685
g4
tp1686
a(S'treatment'
p1687
S'treatment'
p1688
S'NN'
p1689
S'I-NP'
p1690
g4
tp1691
a(S'was'
p1692
S'be'
p1693
S'VBD'
p1694
S'B-VP'
p1695
g4
tp1696
a(S'associated'
p1697
S'associate'
p1698
S'VBN'
p1699
S'I-VP'
p1700
g4
tp1701
a(S'with'
p1702
S'with'
p1703
S'IN'
p1704
S'B-PP'
p1705
g4
tp1706
a(g173
g173
S'DT'
p1707
S'B-NP'
p1708
g4
tp1709
a(S'reduced'
p1710
S'reduce'
p1711
S'VBN'
p1712
S'I-NP'
p1713
g4
tp1714
a(S'number'
p1715
S'number'
p1716
S'NN'
p1717
S'I-NP'
p1718
g4
tp1719
a(S'of'
p1720
S'of'
p1721
S'IN'
p1722
S'B-PP'
p1723
g4
tp1724
a(S'new'
p1725
S'new'
p1726
S'JJ'
p1727
S'B-NP'
p1728
g4
tp1729
a(S'active'
p1730
S'active'
p1731
S'JJ'
p1732
S'I-NP'
p1733
g4
tp1734
a(S'MRI-evident'
p1735
S'MRI-evident'
p1736
S'JJ'
p1737
S'I-NP'
p1738
g4
tp1739
a(S'lesions'
p1740
S'lesion'
p1741
S'NNS'
p1742
S'I-NP'
p1743
g4
tp1744
a(S'and'
p1745
S'and'
p1746
S'CC'
p1747
S'B-PP'
p1748
g4
tp1749
a(S'with'
p1750
S'with'
p1751
S'IN'
p1752
S'B-PP'
p1753
g4
tp1754
a(S'an'
p1755
S'an'
p1756
S'DT'
p1757
S'B-NP'
p1758
g4
tp1759
a(S'increase'
p1760
S'increase'
p1761
S'NN'
p1762
S'I-NP'
p1763
g4
tp1764
a(S'in'
p1765
S'in'
p1766
S'IN'
p1767
S'B-PP'
p1768
g4
tp1769
a(S'the'
p1770
S'the'
p1771
S'DT'
p1772
S'B-NP'
p1773
g4
tp1774
a(S'number'
p1775
S'number'
p1776
S'NN'
p1777
S'I-NP'
p1778
g4
tp1779
a(S'of'
p1780
S'of'
p1781
S'IN'
p1782
S'B-PP'
p1783
g4
tp1784
a(S'scans'
p1785
S'scan'
p1786
S'NNS'
p1787
S'B-NP'
p1788
g4
tp1789
a(S'free'
p1790
S'free'
p1791
S'JJ'
p1792
S'B-ADJP'
p1793
g4
tp1794
a(S'of'
p1795
S'of'
p1796
S'IN'
p1797
S'B-PP'
p1798
g4
tp1799
a(S'new'
p1800
S'new'
p1801
S'JJ'
p1802
S'B-NP'
p1803
g4
tp1804
a(S'active'
p1805
S'active'
p1806
S'JJ'
p1807
S'I-NP'
p1808
g4
tp1809
a(S'lesions.'
p1810
S'lesions.'
p1811
S'NN'
p1812
S'I-NP'
p1813
g4
tp1814
a(S'The'
p1815
S'The'
p1816
S'DT'
p1817
S'B-NP'
p1818
g4
tp1819
a(S'results'
p1820
S'result'
p1821
S'NNS'
p1822
S'I-NP'
p1823
g4
tp1824
a(S'of'
p1825
S'of'
p1826
S'IN'
p1827
S'B-PP'
p1828
g4
tp1829
a(S'the'
p1830
S'the'
p1831
S'DT'
p1832
S'B-NP'
p1833
g4
tp1834
a(S'exploratory'
p1835
S'exploratory'
p1836
S'JJ'
p1837
S'I-NP'
p1838
g4
tp1839
a(S'subgroup'
p1840
S'subgroup'
p1841
S'NN'
p1842
S'I-NP'
p1843
g4
tp1844
a(S'analysis'
p1845
S'analysis'
p1846
S'NN'
p1847
S'I-NP'
p1848
g4
tp1849
a(S'provide'
p1850
S'provide'
p1851
S'VBP'
p1852
S'B-VP'
p1853
g4
tp1854
a(S'support'
p1855
S'support'
p1856
S'NN'
p1857
S'B-NP'
p1858
g4
tp1859
a(S'for'
p1860
S'for'
p1861
S'IN'
p1862
S'B-PP'
p1863
g4
tp1864
a(S'further'
p1865
S'further'
p1866
S'JJ'
p1867
S'B-NP'
p1868
g4
tp1869
a(S'studies'
p1870
S'study'
p1871
S'NNS'
p1872
S'I-NP'
p1873
g4
tp1874
a(S'of'
p1875
S'of'
p1876
S'IN'
p1877
S'B-PP'
p1878
g4
tp1879
a(S'antiherpes'
p1880
S'antiherpes'
p1881
S'NN'
p1882
S'B-NP'
p1883
g4
tp1884
a(S'therapy'
p1885
S'therapy'
p1886
S'NN'
p1887
S'I-NP'
p1888
g4
tp1889
a(S'for'
p1890
S'for'
p1891
S'IN'
p1892
S'B-PP'
p1893
g4
tp1894
a(S'patients'
p1895
S'patient'
p1896
S'NNS'
p1897
S'B-NP'
p1898
g4
tp1899
a(S'with'
p1900
S'with'
p1901
S'IN'
p1902
S'B-PP'
p1903
g4
tp1904
a(S'MS'
p1905
S'MS'
p1906
S'NN'
p1907
S'B-NP'
p1908
g4
tp1909
a(S'and'
p1910
S'and'
p1911
S'CC'
p1912
g4
g4
tp1913
a(S'high'
p1914
S'high'
p1915
S'JJ'
p1916
S'B-NP'
p1917
g4
tp1918
a(S'levels'
p1919
S'level'
p1920
S'NNS'
p1921
S'I-NP'
p1922
g4
tp1923
a(S'of'
p1924
S'of'
p1925
S'IN'
p1926
S'B-PP'
p1927
g4
tp1928
a(S'MRI-evident'
p1929
S'MRI-evident'
p1930
S'JJ'
p1931
S'B-NP'
p1932
g4
tp1933
a(S'disease'
p1934
S'disease'
p1935
S'NN'
p1936
S'I-NP'
p1937
g4
tp1938
a(S'activity'
p1939
S'activity'
p1940
S'NN'
p1941
S'I-NP'
p1942
g4
tp1943
a(g66
g66
g66
g4
g4
tp1944
a.