(lp0
(S'Comparison'
p1
S'Comparison'
p2
S'NN'
p3
S'B-NP'
p4
S'O'
p5
tp6
a(S'of'
p7
S'of'
p8
S'IN'
p9
S'B-PP'
p10
g5
tp11
a(S'the'
p12
S'the'
p13
S'DT'
p14
S'B-NP'
p15
g5
tp16
a(S'time'
p17
S'time'
p18
S'NN'
p19
S'I-NP'
p20
g5
tp21
a(S'required'
p22
S'require'
p23
S'VBN'
p24
S'B-VP'
p25
g5
tp26
a(S'to'
p27
S'to'
p28
S'TO'
p29
S'B-VP'
p30
g5
tp31
a(S'administer'
p32
S'administer'
p33
S'VB'
p34
S'I-VP'
p35
g5
tp36
a(S'three'
p37
S'three'
p38
S'CD'
p39
S'B-NP'
p40
g5
tp41
a(S'different'
p42
S'different'
p43
S'JJ'
p44
S'I-NP'
p45
g5
tp46
a(S'fluke'
p47
S'fluke'
p48
S'NN'
p49
S'I-NP'
p50
g5
tp51
a(S'and'
p52
S'and'
p53
S'CC'
p54
S'I-NP'
p55
g5
tp56
a(S'worm'
p57
S'worm'
p58
S'NN'
p59
S'I-NP'
p60
g5
tp61
a(S'combination'
p62
S'combination'
p63
S'NN'
p64
S'I-NP'
p65
g5
tp66
a(S'products'
p67
S'product'
p68
S'NNS'
p69
S'I-NP'
p70
g5
tp71
a(S'to'
p72
S'to'
p73
S'TO'
p74
S'B-PP'
p75
g5
tp76
a(S'commercial'
p77
S'commercial'
p78
S'JJ'
p79
S'B-NP'
p80
g5
tp81
a(S'beef'
p82
S'beef'
p83
S'NN'
p84
S'I-NP'
p85
g5
tp86
a(S'cattle'
p87
S'cattle'
p88
S'NNS'
p89
S'I-NP'
p90
g5
tp91
a(S'at'
p92
S'at'
p93
S'IN'
p94
S'B-PP'
p95
g5
tp96
a(S'housing'
p97
S'housing'
p98
S'NN'
p99
S'B-NP'
p100
g5
tp101
a(S'.'
p102
g102
g102
g5
g5
tp103
a(S'Larger'
p104
S'Larger'
p105
S'NN'
p106
S'B-NP'
p107
S'B-protein'
p108
tp109
a(S'livestock'
p110
S'livestock'
p111
S'NN'
p112
S'I-NP'
p113
S'I-protein'
p114
tp115
a(S'units'
p116
S'unit'
p117
S'NNS'
p118
S'I-NP'
p119
S'I-protein'
p120
tp121
a(S','
p122
g122
g122
g5
g5
tp123
a(S'a'
p124
g124
S'DT'
p125
S'B-NP'
p126
g5
tp127
a(S'decline'
p128
S'decline'
p129
S'NN'
p130
S'I-NP'
p131
g5
tp132
a(S'in'
p133
S'in'
p134
S'IN'
p135
S'B-PP'
p136
g5
tp137
a(S'the'
p138
S'the'
p139
S'DT'
p140
S'B-NP'
p141
g5
tp142
a(S'farm'
p143
S'farm'
p144
S'NN'
p145
S'I-NP'
p146
g5
tp147
a(S'labor'
p148
S'labor'
p149
S'NN'
p150
S'I-NP'
p151
g5
tp152
a(S'force'
p153
S'force'
p154
S'NN'
p155
S'I-NP'
p156
g5
tp157
a(g122
g122
g122
g5
g5
tp158
a(S'animal'
p159
S'animal'
p160
S'NN'
p161
S'B-NP'
p162
g5
tp163
a(S'welfare'
p164
S'welfare'
p165
S'NN'
p166
S'I-NP'
p167
g5
tp168
a(S'concerns'
p169
S'concern'
p170
S'NNS'
p171
S'I-NP'
p172
g5
tp173
a(g122
g122
g122
g5
g5
tp174
a(S'and'
p175
S'and'
p176
S'CC'
p177
g5
g5
tp178
a(g124
g124
S'DT'
p179
S'B-NP'
p180
g5
tp181
a(S'trend'
p182
S'trend'
p183
S'NN'
p184
S'I-NP'
p185
g5
tp186
a(S'toward'
p187
S'toward'
p188
S'IN'
p189
S'B-PP'
p190
g5
tp191
a(S'more'
p192
S'more'
p193
S'RBR'
p194
S'B-NP'
p195
g5
tp196
a(S'selective'
p197
S'selective'
p198
S'JJ'
p199
S'I-NP'
p200
g5
tp201
a(S'use'
p202
S'use'
p203
S'NN'
p204
S'I-NP'
p205
g5
tp206
a(S'of'
p207
S'of'
p208
S'IN'
p209
S'B-PP'
p210
g5
tp211
a(S'drugs'
p212
S'drug'
p213
S'NNS'
p214
S'B-NP'
p215
g5
tp216
a(S'have'
p217
S'have'
p218
S'VBP'
p219
S'B-VP'
p220
g5
tp221
a(S'increased'
p222
S'increase'
p223
S'VBN'
p224
S'I-VP'
p225
g5
tp226
a(S'the'
p227
S'the'
p228
S'DT'
p229
S'B-NP'
p230
g5
tp231
a(S'focus'
p232
S'focus'
p233
S'NN'
p234
S'I-NP'
p235
g5
tp236
a(S'on'
p237
S'on'
p238
S'IN'
p239
S'B-PP'
p240
g5
tp241
a(S'animal'
p242
S'animal'
p243
S'NN'
p244
S'B-NP'
p245
g5
tp246
a(S'handling'
p247
S'handling'
p248
S'NN'
p249
S'I-NP'
p250
g5
tp251
a(g122
g122
g122
g5
g5
tp252
a(S'time'
p253
S'time'
p254
S'NN'
p255
S'B-NP'
p256
g5
tp257
a(S'management'
p258
S'management'
p259
S'NN'
p260
S'I-NP'
p261
g5
tp262
a(g122
g122
g122
g5
g5
tp263
a(S'convenience'
p264
S'convenience'
p265
S'NN'
p266
S'B-NP'
p267
g5
tp268
a(g122
g122
g122
g5
g5
tp269
a(S'and'
p270
S'and'
p271
S'CC'
p272
g5
g5
tp273
a(S'compliance'
p274
S'compliance'
p275
S'NN'
p276
S'B-NP'
p277
g5
tp278
a(S'in'
p279
S'in'
p280
S'IN'
p281
S'B-PP'
p282
g5
tp283
a(S'administering'
p284
S'administer'
p285
S'VBG'
p286
S'B-VP'
p287
g5
tp288
a(S'veterinary'
p289
S'veterinary'
p290
S'JJ'
p291
S'B-NP'
p292
g5
tp293
a(S'therapeutics.'
p294
S'therapeutics.'
p295
S'RB'
p296
S'I-NP'
p297
g5
tp298
a(S'This'
p299
S'This'
p300
S'DT'
p301
S'B-NP'
p302
g5
tp303
a(S'study'
p304
S'study'
p305
S'NN'
p306
S'I-NP'
p307
g5
tp308
a(S'was'
p309
S'be'
p310
S'VBD'
p311
S'B-VP'
p312
g5
tp313
a(S'undertaken'
p314
S'undertake'
p315
S'VBN'
p316
S'I-VP'
p317
g5
tp318
a(S'to'
p319
S'to'
p320
S'TO'
p321
S'I-VP'
p322
g5
tp323
a(S'quantify'
p324
S'quantify'
p325
S'VB'
p326
S'I-VP'
p327
g5
tp328
a(S'and'
p329
S'and'
p330
S'CC'
p331
S'I-VP'
p332
g5
tp333
a(S'compare'
p334
S'compare'
p335
S'VB'
p336
S'I-VP'
p337
g5
tp338
a(S'the'
p339
S'the'
p340
S'DT'
p341
S'B-NP'
p342
g5
tp343
a(S'time'
p344
S'time'
p345
S'NN'
p346
S'I-NP'
p347
g5
tp348
a(S'needed'
p349
S'need'
p350
S'VBN'
p351
S'B-VP'
p352
g5
tp353
a(S'to'
p354
S'to'
p355
S'TO'
p356
S'B-VP'
p357
g5
tp358
a(S'treat'
p359
S'treat'
p360
S'VB'
p361
S'I-VP'
p362
g5
tp363
a(S'commercial'
p364
S'commercial'
p365
S'JJ'
p366
S'B-NP'
p367
g5
tp368
a(S'beef'
p369
S'beef'
p370
S'NN'
p371
S'I-NP'
p372
g5
tp373
a(S'cattle'
p374
S'cattle'
p375
S'NNS'
p376
S'I-NP'
p377
g5
tp378
a(S'with'
p379
S'with'
p380
S'IN'
p381
S'B-PP'
p382
g5
tp383
a(S'three'
p384
S'three'
p385
S'CD'
p386
S'B-NP'
p387
g5
tp388
a(S'fluke'
p389
S'fluke'
p390
S'NN'
p391
S'I-NP'
p392
g5
tp393
a(S'and'
p394
S'and'
p395
S'CC'
p396
S'I-NP'
p397
g5
tp398
a(S'worm'
p399
S'worm'
p400
S'NN'
p401
S'I-NP'
p402
g5
tp403
a(S'combination'
p404
S'combination'
p405
S'NN'
p406
S'I-NP'
p407
g5
tp408
a(S'products'
p409
S'product'
p410
S'NNS'
p411
S'I-NP'
p412
g5
tp413
a(S'with'
p414
S'with'
p415
S'IN'
p416
S'B-PP'
p417
g5
tp418
a(S'different'
p419
S'different'
p420
S'JJ'
p421
S'B-NP'
p422
g5
tp423
a(S'administration'
p424
S'administration'
p425
S'NN'
p426
S'I-NP'
p427
g5
tp428
a(S'profiles.'
p429
S'profiles.'
p430
S'NN'
p431
S'I-NP'
p432
g5
tp433
a(S'Young'
p434
S'Young'
p435
S'JJ'
p436
S'I-NP'
p437
g5
tp438
a(S'beef'
p439
S'beef'
p440
S'NN'
p441
S'I-NP'
p442
g5
tp443
a(S'cattle'
p444
S'cattle'
p445
S'NNS'
p446
S'I-NP'
p447
g5
tp448
a(S'('
p449
g449
g449
g5
g5
tp450
a(S'n'
p451
g451
S'NN'
p452
S'B-NP'
p453
g5
tp454
a(S'='
p455
g455
S'SYM'
p456
S'B-VP'
p457
g5
tp458
a(S'270'
p459
S'270'
p460
S'CD'
p461
S'B-NP'
p462
g5
tp463
a(S')'
p464
g464
g464
g5
g5
tp465
a(S'weighing'
p466
S'weigh'
p467
S'VBG'
p468
S'B-VP'
p469
g5
tp470
a(S'approximately'
p471
S'approximately'
p472
S'RB'
p473
S'B-NP'
p474
g5
tp475
a(S'400'
p476
S'400'
p477
S'CD'
p478
S'I-NP'
p479
g5
tp480
a(S'kg'
p481
S'kg'
p482
S'NN'
p483
S'I-NP'
p484
g5
tp485
a(S'were'
p486
S'be'
p487
S'VBD'
p488
S'B-VP'
p489
g5
tp490
a(S'allocated'
p491
S'allocate'
p492
S'VBN'
p493
S'I-VP'
p494
g5
tp495
a(S'to'
p496
S'to'
p497
S'TO'
p498
S'B-PP'
p499
g5
tp500
a(S'batches'
p501
S'batch'
p502
S'NNS'
p503
S'B-NP'
p504
g5
tp505
a(S'of'
p506
S'of'
p507
S'IN'
p508
S'B-PP'
p509
g5
tp510
a(S'five'
p511
S'five'
p512
S'CD'
p513
S'B-NP'
p514
g5
tp515
a(g122
g122
g122
g5
g5
tp516
a(S'which'
p517
S'which'
p518
S'WDT'
p519
S'B-NP'
p520
g5
tp521
a(S'were'
p522
S'be'
p523
S'VBD'
p524
S'B-VP'
p525
g5
tp526
a(S'randomly'
p527
S'randomly'
p528
S'RB'
p529
S'I-VP'
p530
g5
tp531
a(S'assigned'
p532
S'assign'
p533
S'VBN'
p534
S'I-VP'
p535
g5
tp536
a(S'to'
p537
S'to'
p538
S'TO'
p539
S'I-VP'
p540
g5
tp541
a(S'receive'
p542
S'receive'
p543
S'VB'
p544
S'I-VP'
p545
g5
tp546
a(S'ivermectin'
p547
S'ivermectin'
p548
S'NN'
p549
S'B-NP'
p550
S'B-protein'
p551
tp552
a(S'+'
p553
g553
S'SYM'
p554
S'I-NP'
p555
g5
tp556
a(S'clorsulon'
p557
S'clorsulon'
p558
S'NN'
p559
S'I-NP'
p560
g5
tp561
a(S'injection'
p562
S'injection'
p563
S'NN'
p564
S'I-NP'
p565
g5
tp566
a(g122
g122
g122
g5
g5
tp567
a(S'ivermectin'
p568
S'ivermectin'
p569
S'NN'
p570
S'B-NP'
p571
S'B-protein'
p572
tp573
a(g553
g553
S'SYM'
p574
S'B-NP'
p575
g5
tp576
a(S'closantel'
p577
S'closantel'
p578
S'NN'
p579
S'I-NP'
p580
g5
tp581
a(S'injection'
p582
S'injection'
p583
S'NN'
p584
S'I-NP'
p585
g5
tp586
a(g122
g122
g122
g5
g5
tp587
a(S'or'
p588
S'or'
p589
S'CC'
p590
g5
g5
tp591
a(S'levamisole'
p592
S'levamisole'
p593
S'NN'
p594
S'B-NP'
p595
g5
tp596
a(g553
g553
S'SYM'
p597
S'B-VP'
p598
g5
tp599
a(S'triclabendazole'
p600
S'triclabendazole'
p601
S'NN'
p602
S'B-NP'
p603
g5
tp604
a(S'oral'
p605
S'oral'
p606
S'JJ'
p607
S'I-NP'
p608
g5
tp609
a(S'drench.'
p610
S'drench.'
p611
S'NN'
p612
S'I-NP'
p613
g5
tp614
a(S'The'
p615
S'The'
p616
S'DT'
p617
S'B-NP'
p618
g5
tp619
a(S'mean'
p620
S'mean'
p621
S'JJ'
p622
S'I-NP'
p623
g5
tp624
a(S'time'
p625
S'time'
p626
S'NN'
p627
S'I-NP'
p628
g5
tp629
a(S'needed'
p630
S'need'
p631
S'VBN'
p632
S'B-VP'
p633
g5
tp634
a(S'to'
p635
S'to'
p636
S'TO'
p637
S'B-VP'
p638
g5
tp639
a(S'administer'
p640
S'administer'
p641
S'VB'
p642
S'I-VP'
p643
g5
tp644
a(S'ivermectin'
p645
S'ivermectin'
p646
S'NN'
p647
S'B-NP'
p648
S'B-protein'
p649
tp650
a(g553
g553
S'SYM'
p651
S'B-NP'
p652
g5
tp653
a(S'clorsulon'
p654
S'clorsulon'
p655
S'NN'
p656
S'I-NP'
p657
g5
tp658
a(g449
g449
g449
g5
g5
tp659
a(S'single'
p660
S'single'
p661
S'JJ'
p662
S'B-NP'
p663
g5
tp664
a(S'injection'
p665
S'injection'
p666
S'NN'
p667
S'I-NP'
p668
g5
tp669
a(g464
g464
g464
g5
g5
tp670
a(S'to'
p671
S'to'
p672
S'TO'
p673
S'B-PP'
p674
g5
tp675
a(S'five'
p676
S'five'
p677
S'CD'
p678
S'B-NP'
p679
g5
tp680
a(S'cattle'
p681
S'cattle'
p682
S'NNS'
p683
S'I-NP'
p684
g5
tp685
a(S'was'
p686
S'be'
p687
S'VBD'
p688
S'B-VP'
p689
g5
tp690
a(S'31'
p691
S'31'
p692
S'CD'
p693
S'B-NP'
p694
g5
tp695
a(S'seconds'
p696
S'second'
p697
S'NNS'
p698
S'I-NP'
p699
g5
tp700
a(g122
g122
g122
g5
g5
tp701
a(S'which'
p702
S'which'
p703
S'WDT'
p704
S'B-NP'
p705
g5
tp706
a(S'was'
p707
S'be'
p708
S'VBD'
p709
S'B-VP'
p710
g5
tp711
a(S'significantly'
p712
S'significantly'
p713
S'RB'
p714
S'B-ADJP'
p715
g5
tp716
a(S'less'
p717
S'less'
p718
S'JJR'
p719
S'I-ADJP'
p720
g5
tp721
a(S'than'
p722
S'than'
p723
S'IN'
p724
S'B-PP'
p725
g5
tp726
a(S'the'
p727
S'the'
p728
S'DT'
p729
S'B-NP'
p730
g5
tp731
a(S'100'
p732
S'100'
p733
S'CD'
p734
S'I-NP'
p735
g5
tp736
a(S'seconds'
p737
S'second'
p738
S'NNS'
p739
S'I-NP'
p740
g5
tp741
a(S'needed'
p742
S'need'
p743
S'VBN'
p744
S'B-VP'
p745
g5
tp746
a(S'for'
p747
S'for'
p748
S'IN'
p749
S'B-PP'
p750
g5
tp751
a(S'ivermectin'
p752
S'ivermectin'
p753
S'NN'
p754
S'B-NP'
p755
S'B-protein'
p756
tp757
a(g553
g553
S'SYM'
p758
g5
g5
tp759
a(S'closantel'
p760
S'closantel'
p761
S'NN'
p762
S'B-NP'
p763
g5
tp764
a(g449
g449
g449
g5
g5
tp765
a(S'two'
p766
S'two'
p767
S'CD'
p768
S'B-NP'
p769
g5
tp770
a(S'injections'
p771
S'injection'
p772
S'NNS'
p773
S'I-NP'
p774
g5
tp775
a(g464
g464
g464
g5
g5
tp776
a(S'and'
p777
S'and'
p778
S'CC'
p779
g5
g5
tp780
a(S'the'
p781
S'the'
p782
S'DT'
p783
S'B-NP'
p784
g5
tp785
a(S'126'
p786
S'126'
p787
S'CD'
p788
S'I-NP'
p789
g5
tp790
a(S'seconds'
p791
S'second'
p792
S'NNS'
p793
S'I-NP'
p794
g5
tp795
a(S'needed'
p796
S'need'
p797
S'VBN'
p798
S'B-VP'
p799
g5
tp800
a(S'for'
p801
S'for'
p802
S'IN'
p803
S'B-PP'
p804
g5
tp805
a(S'levamisole'
p806
S'levamisole'
p807
S'NN'
p808
S'B-NP'
p809
g5
tp810
a(g553
g553
S'SYM'
p811
g5
g5
tp812
a(S'triclabendazole'
p813
S'triclabendazole'
p814
S'NN'
p815
S'B-NP'
p816
g5
tp817
a(g449
g449
g449
g5
g5
tp818
a(S'P'
p819
g819
S'NN'
p820
S'B-NP'
p821
g5
tp822
a(S'<'
p823
g823
S'JJR'
p824
S'B-NP'
p825
g5
tp826
a(S'.001'
p827
S'.001'
p828
S'CD'
p829
S'I-NP'
p830
g5
tp831
a(g464
g464
g464
g5
g5
tp832
a(g102
g102
g102
g5
g5
tp833
a(S'Such'
p834
S'Such'
p835
S'JJ'
p836
S'B-NP'
p837
g5
tp838
a(S'quantitative'
p839
S'quantitative'
p840
S'JJ'
p841
S'I-NP'
p842
g5
tp843
a(S'data'
p844
S'datum'
p845
S'NNS'
p846
S'I-NP'
p847
g5
tp848
a(S'can'
p849
S'can'
p850
S'MD'
p851
S'B-VP'
p852
g5
tp853
a(S'allow'
p854
S'allow'
p855
S'VB'
p856
S'I-VP'
p857
g5
tp858
a(S'for'
p859
S'for'
p860
S'IN'
p861
S'B-PP'
p862
g5
tp863
a(S'better'
p864
S'good'
p865
S'JJR'
p866
S'B-NP'
p867
g5
tp868
a(S'planning'
p869
S'planning'
p870
S'NN'
p871
S'I-NP'
p872
g5
tp873
a(S'and'
p874
S'and'
p875
S'CC'
p876
S'I-NP'
p877
g5
tp878
a(S'selection'
p879
S'selection'
p880
S'NN'
p881
S'I-NP'
p882
g5
tp883
a(S'of'
p884
S'of'
p885
S'IN'
p886
S'B-PP'
p887
g5
tp888
a(S'parasiticide'
p889
S'parasiticide'
p890
S'NN'
p891
S'B-NP'
p892
g5
tp893
a(S'treatment'
p894
S'treatment'
p895
S'NN'
p896
S'I-NP'
p897
g5
tp898
a(S'approaches'
p899
S'approach'
p900
S'VBZ'
p901
S'B-VP'
p902
g5
tp903
a(S'at'
p904
S'at'
p905
S'IN'
p906
S'B-PP'
p907
g5
tp908
a(S'the'
p909
S'the'
p910
S'DT'
p911
S'B-NP'
p912
g5
tp913
a(S'farm'
p914
S'farm'
p915
S'NN'
p916
S'I-NP'
p917
g5
tp918
a(S'level'
p919
S'level'
p920
S'NN'
p921
S'I-NP'
p922
g5
tp923
a(g102
g102
g102
g5
g5
tp924
a.