(lp0
(S'Utilization'
p1
S'Utilization'
p2
S'NN'
p3
S'B-NP'
p4
S'O'
p5
tp6
a(S'of'
p7
S'of'
p8
S'IN'
p9
S'B-PP'
p10
g5
tp11
a(S'health'
p12
S'health'
p13
S'NN'
p14
S'B-NP'
p15
g5
tp16
a(S'care'
p17
S'care'
p18
S'NN'
p19
S'I-NP'
p20
g5
tp21
a(S'services'
p22
S'service'
p23
S'NNS'
p24
S'I-NP'
p25
g5
tp26
a(S'by'
p27
S'by'
p28
S'IN'
p29
S'B-PP'
p30
g5
tp31
a(S'patients'
p32
S'patient'
p33
S'NNS'
p34
S'B-NP'
p35
g5
tp36
a(S'with'
p37
S'with'
p38
S'IN'
p39
S'B-PP'
p40
g5
tp41
a(S'chronic'
p42
S'chronic'
p43
S'JJ'
p44
S'B-NP'
p45
g5
tp46
a(S'obstructive'
p47
S'obstructive'
p48
S'JJ'
p49
S'I-NP'
p50
g5
tp51
a(S'pulmonary'
p52
S'pulmonary'
p53
S'JJ'
p54
S'I-NP'
p55
g5
tp56
a(S'disease'
p57
S'disease'
p58
S'NN'
p59
S'I-NP'
p60
g5
tp61
a(S'.'
p62
g62
g62
g5
g5
tp63
a(S'In'
p64
S'In'
p65
S'IN'
p66
S'B-SBAR'
p67
g5
tp68
a(S'order'
p69
S'order'
p70
S'NN'
p71
g5
g5
tp72
a(S'to'
p73
S'to'
p74
S'TO'
p75
S'B-VP'
p76
g5
tp77
a(S'identify'
p78
S'identify'
p79
S'VB'
p80
S'I-VP'
p81
g5
tp82
a(S'healthcare'
p83
S'healthcare'
p84
S'NN'
p85
S'B-NP'
p86
g5
tp87
a(S'resource'
p88
S'resource'
p89
S'NN'
p90
S'I-NP'
p91
g5
tp92
a(S'use'
p93
S'use'
p94
S'NN'
p95
S'I-NP'
p96
g5
tp97
a(S'patterns'
p98
S'pattern'
p99
S'NNS'
p100
S'I-NP'
p101
g5
tp102
a(S'associated'
p103
S'associate'
p104
S'VBN'
p105
S'B-VP'
p106
g5
tp107
a(S'with'
p108
S'with'
p109
S'IN'
p110
S'B-PP'
p111
g5
tp112
a(S'chronic'
p113
S'chronic'
p114
S'JJ'
p115
S'B-NP'
p116
g5
tp117
a(S'obstructive'
p118
S'obstructive'
p119
S'JJ'
p120
S'I-NP'
p121
g5
tp122
a(S'pulmonary'
p123
S'pulmonary'
p124
S'JJ'
p125
S'I-NP'
p126
g5
tp127
a(S'disease'
p128
S'disease'
p129
S'NN'
p130
S'I-NP'
p131
g5
tp132
a(S'('
p133
g133
g133
g5
g5
tp134
a(S'COPD'
p135
S'COPD'
p136
S'NN'
p137
S'B-NP'
p138
g5
tp139
a(S')'
p140
g140
g140
g5
g5
tp141
a(S','
p142
g142
g142
g5
g5
tp143
a(S'resource'
p144
S'resource'
p145
S'NN'
p146
S'B-NP'
p147
g5
tp148
a(S'utilization'
p149
S'utilization'
p150
S'NN'
p151
S'I-NP'
p152
g5
tp153
a(g133
g133
g133
g5
g5
tp154
a(S'RU'
p155
S'RU'
p156
S'NN'
p157
S'B-NP'
p158
g5
tp159
a(g140
g140
g140
g5
g5
tp160
a(S'data'
p161
S'datum'
p162
S'NNS'
p163
S'B-NP'
p164
g5
tp165
a(S'collection'
p166
S'collection'
p167
S'NN'
p168
S'I-NP'
p169
g5
tp170
a(S'was'
p171
S'be'
p172
S'VBD'
p173
S'B-VP'
p174
g5
tp175
a(S'integrated'
p176
S'integrate'
p177
S'VBN'
p178
S'I-VP'
p179
g5
tp180
a(S'into'
p181
S'into'
p182
S'IN'
p183
S'B-PP'
p184
g5
tp185
a(S'a'
p186
g186
S'DT'
p187
S'B-NP'
p188
g5
tp189
a(S'randomized'
p190
S'randomize'
p191
S'VBN'
p192
S'I-NP'
p193
g5
tp194
a(g142
g142
g142
S'I-NP'
p195
g5
tp196
a(S'double-blind'
p197
S'double-blind'
p198
S'JJ'
p199
S'I-NP'
p200
g5
tp201
a(S'placebo-controlled'
p202
S'placebo-controlled'
p203
S'JJ'
p204
S'I-NP'
p205
g5
tp206
a(S'study'
p207
S'study'
p208
S'NN'
p209
S'I-NP'
p210
g5
tp211
a(S'of'
p212
S'of'
p213
S'IN'
p214
S'B-PP'
p215
g5
tp216
a(S'Viozan'
p217
S'Viozan'
p218
S'NN'
p219
S'B-NP'
p220
g5
tp221
a(g133
g133
g133
g5
g5
tp222
a(S'sibenadet'
p223
S'sibenadet'
p224
S'NN'
p225
S'B-NP'
p226
g5
tp227
a(S'HCl'
p228
S'HCl'
p229
S'NN'
p230
S'I-NP'
p231
g5
tp232
a(g140
g140
g140
g5
g5
tp233
a(g62
g62
g62
g5
g5
tp234
a(S'This'
p235
S'This'
p236
S'DT'
p237
S'B-NP'
p238
g5
tp239
a(S'study'
p240
S'study'
p241
S'NN'
p242
S'I-NP'
p243
g5
tp244
a(S'enrolled'
p245
S'enrol'
p246
S'VBD'
p247
S'B-VP'
p248
g5
tp249
a(S'patients'
p250
S'patient'
p251
S'NNS'
p252
S'B-NP'
p253
g5
tp254
a(S'with'
p255
S'with'
p256
S'IN'
p257
S'B-PP'
p258
g5
tp259
a(S'symptomatic'
p260
S'symptomatic'
p261
S'JJ'
p262
S'B-NP'
p263
g5
tp264
a(g142
g142
g142
S'I-NP'
p265
g5
tp266
a(S'smoking-related'
p267
S'smoking-related'
p268
S'JJ'
p269
S'I-NP'
p270
g5
tp271
a(S'COPD'
p272
S'COPD'
p273
S'NN'
p274
S'I-NP'
p275
g5
tp276
a(g142
g142
g142
g5
g5
tp277
a(S'randomized'
p278
S'randomize'
p279
S'VBN'
p280
S'B-VP'
p281
g5
tp282
a(S'to'
p283
S'to'
p284
S'TO'
p285
S'I-VP'
p286
g5
tp287
a(S'receive'
p288
S'receive'
p289
S'VB'
p290
S'I-VP'
p291
g5
tp292
a(S'sibenadet'
p293
S'sibenadet'
p294
S'NN'
p295
S'B-NP'
p296
g5
tp297
a(S'or'
p298
S'or'
p299
S'CC'
p300
S'I-NP'
p301
g5
tp302
a(S'placebo'
p303
S'placebo'
p304
S'NN'
p305
S'I-NP'
p306
g5
tp307
a(S'for'
p308
S'for'
p309
S'IN'
p310
S'B-PP'
p311
g5
tp312
a(g186
g186
S'DT'
p313
S'B-NP'
p314
g5
tp315
a(S'52-week'
p316
S'52-week'
p317
S'JJ'
p318
S'I-NP'
p319
g5
tp320
a(S'treatment'
p321
S'treatment'
p322
S'NN'
p323
S'I-NP'
p324
g5
tp325
a(S'period.'
p326
S'period.'
p327
S'NN'
p328
S'I-NP'
p329
g5
tp330
a(S'A'
p331
g331
S'NN'
p332
S'I-NP'
p333
g5
tp334
a(S'questionnaire'
p335
S'questionnaire'
p336
S'NN'
p337
S'I-NP'
p338
g5
tp339
a(S'establishing'
p340
S'establish'
p341
S'VBG'
p342
S'B-VP'
p343
g5
tp344
a(S'typical'
p345
S'typical'
p346
S'JJ'
p347
S'B-NP'
p348
g5
tp349
a(S'pre-trial'
p350
S'pre-trial'
p351
S'JJ'
p352
S'I-NP'
p353
g5
tp354
a(g142
g142
g142
S'I-NP'
p355
g5
tp356
a(S'COPD-related'
p357
S'COPD-related'
p358
S'JJ'
p359
S'I-NP'
p360
g5
tp361
a(S'RU'
p362
S'RU'
p363
S'NN'
p364
S'I-NP'
p365
g5
tp366
a(S'was'
p367
S'be'
p368
S'VBD'
p369
S'B-VP'
p370
g5
tp371
a(S'completed'
p372
S'complete'
p373
S'VBN'
p374
S'I-VP'
p375
g5
tp376
a(S'by'
p377
S'by'
p378
S'IN'
p379
S'B-PP'
p380
g5
tp381
a(S'each'
p382
S'each'
p383
S'DT'
p384
S'B-NP'
p385
g5
tp386
a(S'patient.'
p387
S'patient.'
p388
S'NN'
p389
S'I-NP'
p390
g5
tp391
a(S'Subsequent'
p392
S'Subsequent'
p393
S'JJ'
p394
S'I-NP'
p395
g5
tp396
a(S'data'
p397
S'datum'
p398
S'NNS'
p399
S'I-NP'
p400
g5
tp401
a(S'were'
p402
S'be'
p403
S'VBD'
p404
S'B-VP'
p405
g5
tp406
a(S'collected'
p407
S'collect'
p408
S'VBN'
p409
S'I-VP'
p410
g5
tp411
a(S'by'
p412
S'by'
p413
S'IN'
p414
S'B-PP'
p415
g5
tp416
a(S'means'
p417
S'mean'
p418
S'NNS'
p419
S'B-NP'
p420
g5
tp421
a(S'of'
p422
S'of'
p423
S'IN'
p424
S'B-PP'
p425
g5
tp426
a(S'an'
p427
S'an'
p428
S'DT'
p429
S'B-NP'
p430
g5
tp431
a(S'Interactive'
p432
S'Interactive'
p433
S'JJ'
p434
S'I-NP'
p435
g5
tp436
a(S'Voice'
p437
S'Voice'
p438
S'NNP'
p439
S'I-NP'
p440
g5
tp441
a(S'Response'
p442
S'Response'
p443
S'NNP'
p444
S'I-NP'
p445
g5
tp446
a(S'System'
p447
S'System'
p448
S'NNP'
p449
S'I-NP'
p450
g5
tp451
a(g133
g133
g133
g5
g5
tp452
a(S'IVRS'
p453
S'IVRS'
p454
S'NNP'
p455
S'B-NP'
p456
g5
tp457
a(g140
g140
g140
g5
g5
tp458
a(S'at'
p459
S'at'
p460
S'IN'
p461
S'B-PP'
p462
g5
tp463
a(S'30-day'
p464
S'30-day'
p465
S'JJ'
p466
S'B-NP'
p467
g5
tp468
a(S'intervals'
p469
S'interval'
p470
S'NNS'
p471
S'I-NP'
p472
g5
tp473
a(g133
g133
g133
g5
g5
tp474
a(S'14'
p475
S'14'
p476
S'CD'
p477
S'B-NP'
p478
g5
tp479
a(S'time'
p480
S'time'
p481
S'NN'
p482
S'I-NP'
p483
g5
tp484
a(S'points'
p485
S'point'
p486
S'NNS'
p487
S'I-NP'
p488
g5
tp489
a(g140
g140
g140
g5
g5
tp490
a(S'during'
p491
S'during'
p492
S'IN'
p493
S'B-PP'
p494
g5
tp495
a(S'the'
p496
S'the'
p497
S'DT'
p498
S'B-NP'
p499
g5
tp500
a(S'study'
p501
S'study'
p502
S'NN'
p503
S'I-NP'
p504
g5
tp505
a(S'and'
p506
S'and'
p507
S'CC'
p508
S'B-PP'
p509
g5
tp510
a(S'in'
p511
S'in'
p512
S'IN'
p513
S'B-PP'
p514
g5
tp515
a(S'the'
p516
S'the'
p517
S'DT'
p518
S'B-NP'
p519
g5
tp520
a(S'follow-up'
p521
S'follow-up'
p522
S'JJ'
p523
S'I-NP'
p524
g5
tp525
a(S'period.'
p526
S'period.'
p527
S'NN'
p528
S'I-NP'
p529
g5
tp530
a(S'The'
p531
S'The'
p532
S'DT'
p533
S'B-NP'
p534
g5
tp535
a(S'IVRS'
p536
S'IVRS'
p537
S'NN'
p538
S'I-NP'
p539
S'B-protein'
p540
tp541
a(S'system'
p542
S'system'
p543
S'NN'
p544
S'I-NP'
p545
g5
tp546
a(S'facilitated'
p547
S'facilitated'
p548
S'JJ'
p549
S'I-NP'
p550
g5
tp551
a(S'data'
p552
S'datum'
p553
S'NNS'
p554
S'I-NP'
p555
g5
tp556
a(S'collection'
p557
S'collection'
p558
S'NN'
p559
S'I-NP'
p560
g5
tp561
a(S'and'
p562
S'and'
p563
S'CC'
p564
g5
g5
tp565
a(S'minimized'
p566
S'minimize'
p567
S'VBN'
p568
S'B-VP'
p569
g5
tp570
a(S'inconvenience'
p571
S'inconvenience'
p572
S'NN'
p573
S'B-NP'
p574
g5
tp575
a(S'to'
p576
S'to'
p577
S'TO'
p578
S'B-PP'
p579
g5
tp580
a(S'the'
p581
S'the'
p582
S'DT'
p583
S'B-NP'
p584
g5
tp585
a(S'patient.'
p586
S'patient.'
p587
S'NN'
p588
S'I-NP'
p589
g5
tp590
a(S'Compliance'
p591
S'Compliance'
p592
S'NN'
p593
S'I-NP'
p594
g5
tp595
a(S'with'
p596
S'with'
p597
S'IN'
p598
S'B-PP'
p599
g5
tp600
a(S'the'
p601
S'the'
p602
S'DT'
p603
S'B-NP'
p604
g5
tp605
a(S'requirement'
p606
S'requirement'
p607
S'NN'
p608
S'I-NP'
p609
g5
tp610
a(S'to'
p611
S'to'
p612
S'TO'
p613
S'B-VP'
p614
g5
tp615
a(S'record'
p616
S'record'
p617
S'VB'
p618
S'I-VP'
p619
g5
tp620
a(S'details'
p621
S'detail'
p622
S'NNS'
p623
S'B-NP'
p624
g5
tp625
a(S'of'
p626
S'of'
p627
S'IN'
p628
S'B-PP'
p629
g5
tp630
a(S'the'
p631
S'the'
p632
S'DT'
p633
S'B-NP'
p634
g5
tp635
a(S'healthcare'
p636
S'healthcare'
p637
S'NN'
p638
S'I-NP'
p639
g5
tp640
a(S'services'
p641
S'service'
p642
S'NNS'
p643
S'I-NP'
p644
g5
tp645
a(S'during'
p646
S'during'
p647
S'IN'
p648
S'B-PP'
p649
g5
tp650
a(S'the'
p651
S'the'
p652
S'DT'
p653
S'B-NP'
p654
g5
tp655
a(S'year-long'
p656
S'year-long'
p657
S'JJ'
p658
S'I-NP'
p659
g5
tp660
a(S'study'
p661
S'study'
p662
S'NN'
p663
S'I-NP'
p664
g5
tp665
a(S'was'
p666
S'be'
p667
S'VBD'
p668
S'B-VP'
p669
g5
tp670
a(S'high.'
p671
S'high.'
p672
S'RB'
p673
S'B-ADVP'
p674
g5
tp675
a(S'No'
p676
S'No'
p677
S'DT'
p678
S'B-NP'
p679
g5
tp680
a(S'overall'
p681
S'overall'
p682
S'JJ'
p683
S'I-NP'
p684
g5
tp685
a(S'trend'
p686
S'trend'
p687
S'NN'
p688
S'I-NP'
p689
g5
tp690
a(S'for'
p691
S'for'
p692
S'IN'
p693
S'B-PP'
p694
g5
tp695
a(S'lower'
p696
S'low'
p697
S'JJR'
p698
S'B-NP'
p699
g5
tp700
a(S'RU'
p701
S'RU'
p702
S'NN'
p703
S'I-NP'
p704
g5
tp705
a(S'was'
p706
S'be'
p707
S'VBD'
p708
S'B-VP'
p709
g5
tp710
a(S'associated'
p711
S'associate'
p712
S'VBN'
p713
S'I-VP'
p714
g5
tp715
a(S'with'
p716
S'with'
p717
S'IN'
p718
S'B-PP'
p719
g5
tp720
a(S'sibenadet'
p721
S'sibenadet'
p722
S'NN'
p723
S'B-NP'
p724
g5
tp725
a(S'therapy'
p726
S'therapy'
p727
S'NN'
p728
S'I-NP'
p729
g5
tp730
a(g142
g142
g142
g5
g5
tp731
a(S'which'
p732
S'which'
p733
S'WDT'
p734
S'B-NP'
p735
g5
tp736
a(S'correlates'
p737
S'correlate'
p738
S'VBZ'
p739
S'B-VP'
p740
g5
tp741
a(S'with'
p742
S'with'
p743
S'IN'
p744
S'B-PP'
p745
g5
tp746
a(S'the'
p747
S'the'
p748
S'DT'
p749
S'B-NP'
p750
g5
tp751
a(S'lack'
p752
S'lack'
p753
S'NN'
p754
S'I-NP'
p755
g5
tp756
a(S'of'
p757
S'of'
p758
S'IN'
p759
S'B-PP'
p760
g5
tp761
a(S'sustained'
p762
S'sustained'
p763
S'JJ'
p764
S'B-NP'
p765
g5
tp766
a(S'clinical'
p767
S'clinical'
p768
S'JJ'
p769
S'I-NP'
p770
g5
tp771
a(S'effect'
p772
S'effect'
p773
S'NN'
p774
S'I-NP'
p775
g5
tp776
a(S'seen'
p777
S'see'
p778
S'VBN'
p779
S'B-VP'
p780
g5
tp781
a(S'in'
p782
S'in'
p783
S'IN'
p784
S'B-PP'
p785
g5
tp786
a(S'studies'
p787
S'study'
p788
S'NNS'
p789
S'B-NP'
p790
g5
tp791
a(S'conducted'
p792
S'conduct'
p793
S'VBN'
p794
S'B-VP'
p795
g5
tp796
a(S'concurrently.'
p797
S'concurrently.'
p798
S'VBP'
p799
S'B-VP'
p800
g5
tp801
a(S'These'
p802
S'These'
p803
S'DT'
p804
S'B-NP'
p805
g5
tp806
a(S'data'
p807
S'datum'
p808
S'NNS'
p809
S'I-NP'
p810
g5
tp811
a(S'do'
p812
S'do'
p813
S'VBP'
p814
S'B-VP'
p815
g5
tp816
a(g142
g142
g142
g5
g5
tp817
a(S'however'
p818
S'however'
p819
S'RB'
p820
S'B-ADVP'
p821
g5
tp822
a(g142
g142
g142
g5
g5
tp823
a(S'provide'
p824
S'provide'
p825
S'VB'
p826
S'B-VP'
p827
g5
tp828
a(S'valuable'
p829
S'valuable'
p830
S'JJ'
p831
S'B-NP'
p832
g5
tp833
a(S'information'
p834
S'information'
p835
S'NN'
p836
S'I-NP'
p837
g5
tp838
a(S'on'
p839
S'on'
p840
S'IN'
p841
S'B-PP'
p842
g5
tp843
a(S'RU'
p844
S'RU'
p845
S'NN'
p846
S'B-NP'
p847
g5
tp848
a(S'associated'
p849
S'associate'
p850
S'VBN'
p851
S'B-VP'
p852
g5
tp853
a(S'with'
p854
S'with'
p855
S'IN'
p856
S'B-PP'
p857
g5
tp858
a(S'COPD'
p859
S'COPD'
p860
S'NN'
p861
S'B-NP'
p862
g5
tp863
a(S'and'
p864
S'and'
p865
S'CC'
p866
g5
g5
tp867
a(S'insights'
p868
S'insight'
p869
S'VBZ'
p870
S'B-VP'
p871
g5
tp872
a(S'into'
p873
S'into'
p874
S'IN'
p875
S'B-PP'
p876
g5
tp877
a(S'adjustments'
p878
S'adjustment'
p879
S'NNS'
p880
S'B-NP'
p881
g5
tp882
a(S'associated'
p883
S'associate'
p884
S'VBN'
p885
S'B-VP'
p886
g5
tp887
a(S'with'
p888
S'with'
p889
S'IN'
p890
S'B-PP'
p891
g5
tp892
a(S'changes'
p893
S'change'
p894
S'NNS'
p895
S'B-NP'
p896
g5
tp897
a(S'in'
p898
S'in'
p899
S'IN'
p900
S'B-PP'
p901
g5
tp902
a(S'disease'
p903
S'disease'
p904
S'NN'
p905
S'B-NP'
p906
g5
tp907
a(S'course.'
p908
S'course.'
p909
S'NN'
p910
S'I-NP'
p911
g5
tp912
a(S'Physicians'
p913
S'Physician'
p914
S'NNS'
p915
S'I-NP'
p916
g5
tp917
a(S'were'
p918
S'be'
p919
S'VBD'
p920
S'B-VP'
p921
g5
tp922
a(S'seen'
p923
S'see'
p924
S'VBN'
p925
S'I-VP'
p926
g5
tp927
a(S'to'
p928
S'to'
p929
S'TO'
p930
S'I-VP'
p931
g5
tp932
a(S'be'
p933
S'be'
p934
S'VB'
p935
S'I-VP'
p936
g5
tp937
a(S'the'
p938
S'the'
p939
S'DT'
p940
S'B-NP'
p941
g5
tp942
a(S'most'
p943
S'most'
p944
S'RBS'
p945
S'I-NP'
p946
g5
tp947
a(S'common'
p948
S'common'
p949
S'JJ'
p950
S'I-NP'
p951
g5
tp952
a(S'source'
p953
S'source'
p954
S'NN'
p955
S'I-NP'
p956
g5
tp957
a(S'of'
p958
S'of'
p959
S'IN'
p960
S'B-PP'
p961
g5
tp962
a(S'care'
p963
S'care'
p964
S'NN'
p965
S'B-NP'
p966
g5
tp967
a(S'for'
p968
S'for'
p969
S'IN'
p970
S'B-PP'
p971
g5
tp972
a(S'patients'
p973
S'patient'
p974
S'NNS'
p975
S'B-NP'
p976
g5
tp977
a(S'with'
p978
S'with'
p979
S'IN'
p980
S'B-PP'
p981
g5
tp982
a(S'COPD'
p983
S'COPD'
p984
S'NN'
p985
S'B-NP'
p986
g5
tp987
a(S'and'
p988
S'and'
p989
S'CC'
p990
g5
g5
tp991
a(S'more'
p992
S'more'
p993
S'JJR'
p994
S'B-NP'
p995
g5
tp996
a(S'of'
p997
S'of'
p998
S'IN'
p999
S'B-PP'
p1000
g5
tp1001
a(S'the'
p1002
S'the'
p1003
S'DT'
p1004
S'B-NP'
p1005
g5
tp1006
a(S'patients'
p1007
S'patient'
p1008
S'NNS'
p1009
S'I-NP'
p1010
g5
tp1011
a(S'with'
p1012
S'with'
p1013
S'IN'
p1014
S'B-PP'
p1015
g5
tp1016
a(S'severe'
p1017
S'severe'
p1018
S'JJ'
p1019
S'B-NP'
p1020
g5
tp1021
a(S'COPD'
p1022
S'COPD'
p1023
S'NN'
p1024
S'I-NP'
p1025
g5
tp1026
a(g133
g133
g133
g5
g5
tp1027
a(S'stage'
p1028
S'stage'
p1029
S'NN'
p1030
S'B-NP'
p1031
g5
tp1032
a(S'III'
p1033
S'III'
p1034
S'CD'
p1035
S'I-NP'
p1036
g5
tp1037
a(g140
g140
g140
g5
g5
tp1038
a(S'than'
p1039
S'than'
p1040
S'IN'
p1041
S'B-PP'
p1042
g5
tp1043
a(S'mild'
p1044
S'mild'
p1045
S'JJ'
p1046
S'B-ADJP'
p1047
g5
tp1048
a(g133
g133
g133
g5
g5
tp1049
a(S'stage'
p1050
S'stage'
p1051
S'NN'
p1052
S'B-NP'
p1053
g5
tp1054
a(S'I'
p1055
g1055
S'CD'
p1056
S'I-NP'
p1057
g5
tp1058
a(g140
g140
g140
g5
g5
tp1059
a(S'were'
p1060
S'be'
p1061
S'VBD'
p1062
S'B-VP'
p1063
g5
tp1064
a(S'seen'
p1065
S'see'
p1066
S'VBN'
p1067
S'I-VP'
p1068
g5
tp1069
a(S'to'
p1070
S'to'
p1071
S'TO'
p1072
S'I-VP'
p1073
g5
tp1074
a(S'utilize'
p1075
S'utilize'
p1076
S'VB'
p1077
S'I-VP'
p1078
g5
tp1079
a(S'the'
p1080
S'the'
p1081
S'DT'
p1082
S'B-NP'
p1083
g5
tp1084
a(S'most'
p1085
S'most'
p1086
S'RBS'
p1087
S'I-NP'
p1088
g5
tp1089
a(S'expensive'
p1090
S'expensive'
p1091
S'JJ'
p1092
S'I-NP'
p1093
g5
tp1094
a(S'resources'
p1095
S'resource'
p1096
S'NNS'
p1097
S'I-NP'
p1098
g5
tp1099
a(g133
g133
g133
g5
g5
tp1100
a(S'e.g.'
p1101
S'e.g.'
p1102
S'FW'
p1103
S'B-NP'
p1104
g5
tp1105
a(S'inpatient'
p1106
S'inpatient'
p1107
S'NN'
p1108
S'I-NP'
p1109
g5
tp1110
a(S'hospital'
p1111
S'hospital'
p1112
S'NN'
p1113
S'I-NP'
p1114
g5
tp1115
a(S'care'
p1116
S'care'
p1117
S'NN'
p1118
S'I-NP'
p1119
g5
tp1120
a(g140
g140
g140
g5
g5
tp1121
a(g62
g62
g62
g5
g5
tp1122
a(S'For'
p1123
S'For'
p1124
S'IN'
p1125
S'B-PP'
p1126
g5
tp1127
a(S'those'
p1128
S'those'
p1129
S'DT'
p1130
S'B-NP'
p1131
g5
tp1132
a(S'patients'
p1133
S'patient'
p1134
S'NNS'
p1135
S'I-NP'
p1136
g5
tp1137
a(S'who'
p1138
S'who'
p1139
S'WP'
p1140
S'B-NP'
p1141
g5
tp1142
a(S'experienced'
p1143
S'experience'
p1144
S'VBD'
p1145
S'B-VP'
p1146
g5
tp1147
a(S'an'
p1148
S'an'
p1149
S'DT'
p1150
S'B-NP'
p1151
g5
tp1152
a(S'exacerbation'
p1153
S'exacerbation'
p1154
S'NN'
p1155
S'I-NP'
p1156
g5
tp1157
a(S'during'
p1158
S'during'
p1159
S'IN'
p1160
S'B-PP'
p1161
g5
tp1162
a(S'the'
p1163
S'the'
p1164
S'DT'
p1165
S'B-NP'
p1166
g5
tp1167
a(S'trial'
p1168
S'trial'
p1169
S'NN'
p1170
S'I-NP'
p1171
g5
tp1172
a(g133
g133
g133
g5
g5
tp1173
a(S'irrespective'
p1174
S'irrespective'
p1175
S'JJ'
p1176
S'B-ADJP'
p1177
g5
tp1178
a(S'of'
p1179
S'of'
p1180
S'IN'
p1181
S'B-PP'
p1182
g5
tp1183
a(S'treatment'
p1184
S'treatment'
p1185
S'NN'
p1186
S'B-NP'
p1187
g5
tp1188
a(S'group'
p1189
S'group'
p1190
S'NN'
p1191
S'I-NP'
p1192
g5
tp1193
a(g140
g140
g140
g5
g5
tp1194
a(g142
g142
g142
g5
g5
tp1195
a(S'resource'
p1196
S'resource'
p1197
S'NN'
p1198
S'B-NP'
p1199
g5
tp1200
a(S'use'
p1201
S'use'
p1202
S'NN'
p1203
S'I-NP'
p1204
g5
tp1205
a(S'was'
p1206
S'be'
p1207
S'VBD'
p1208
S'B-VP'
p1209
g5
tp1210
a(S'increased'
p1211
S'increase'
p1212
S'VBN'
p1213
S'I-VP'
p1214
g5
tp1215
a(S'during'
p1216
S'during'
p1217
S'IN'
p1218
S'B-PP'
p1219
g5
tp1220
a(S'the'
p1221
S'the'
p1222
S'DT'
p1223
S'B-NP'
p1224
g5
tp1225
a(S'periods'
p1226
S'period'
p1227
S'NNS'
p1228
S'I-NP'
p1229
g5
tp1230
a(S'when'
p1231
S'when'
p1232
S'WRB'
p1233
S'B-ADVP'
p1234
g5
tp1235
a(S'an'
p1236
S'an'
p1237
S'DT'
p1238
S'B-NP'
p1239
g5
tp1240
a(S'exacerbation'
p1241
S'exacerbation'
p1242
S'NN'
p1243
S'I-NP'
p1244
g5
tp1245
a(S'was'
p1246
S'be'
p1247
S'VBD'
p1248
S'B-VP'
p1249
g5
tp1250
a(S'reported'
p1251
S'report'
p1252
S'VBN'
p1253
S'I-VP'
p1254
g5
tp1255
a(S'when'
p1256
S'when'
p1257
S'WRB'
p1258
S'B-ADVP'
p1259
g5
tp1260
a(S'compared'
p1261
S'compare'
p1262
S'VBN'
p1263
S'B-PP'
p1264
g5
tp1265
a(S'with'
p1266
S'with'
p1267
S'IN'
p1268
S'B-PP'
p1269
g5
tp1270
a(S'the'
p1271
S'the'
p1272
S'DT'
p1273
S'B-NP'
p1274
g5
tp1275
a(S'periods'
p1276
S'period'
p1277
S'NNS'
p1278
S'I-NP'
p1279
g5
tp1280
a(S'before'
p1281
S'before'
p1282
S'IN'
p1283
S'B-PP'
p1284
g5
tp1285
a(S'or'
p1286
S'or'
p1287
S'CC'
p1288
S'I-PP'
p1289
g5
tp1290
a(S'after'
p1291
S'after'
p1292
S'IN'
p1293
S'I-PP'
p1294
g5
tp1295
a(S'an'
p1296
S'an'
p1297
S'DT'
p1298
S'B-NP'
p1299
g5
tp1300
a(S'exacerbation.'
p1301
S'exacerbation.'
p1302
S'NN'
p1303
S'I-NP'
p1304
g5
tp1305
a(S'The'
p1306
S'The'
p1307
S'DT'
p1308
S'B-NP'
p1309
g5
tp1310
a(S'proportion'
p1311
S'proportion'
p1312
S'NN'
p1313
S'I-NP'
p1314
g5
tp1315
a(S'of'
p1316
S'of'
p1317
S'IN'
p1318
S'B-PP'
p1319
g5
tp1320
a(S'cases'
p1321
S'case'
p1322
S'NNS'
p1323
S'B-NP'
p1324
g5
tp1325
a(S'attending'
p1326
S'attend'
p1327
S'VBG'
p1328
S'B-VP'
p1329
g5
tp1330
a(S'the'
p1331
S'the'
p1332
S'DT'
p1333
S'B-NP'
p1334
g5
tp1335
a(S'physician'
p1336
S'physician'
p1337
S'NN'
p1338
S'I-NP'
p1339
g5
tp1340
a(S'doubled'
p1341
S'double'
p1342
S'VBD'
p1343
S'B-VP'
p1344
g5
tp1345
a(S'and'
p1346
S'and'
p1347
S'CC'
p1348
g5
g5
tp1349
a(S'with'
p1350
S'with'
p1351
S'IN'
p1352
S'B-PP'
p1353
g5
tp1354
a(g186
g186
S'DT'
p1355
S'B-NP'
p1356
g5
tp1357
a(S'trip'
p1358
S'trip'
p1359
S'NN'
p1360
S'I-NP'
p1361
g5
tp1362
a(S'to'
p1363
S'to'
p1364
S'TO'
p1365
S'B-PP'
p1366
g5
tp1367
a(S'the'
p1368
S'the'
p1369
S'DT'
p1370
S'B-NP'
p1371
g5
tp1372
a(S'Emergency'
p1373
S'Emergency'
p1374
S'NNP'
p1375
S'I-NP'
p1376
g5
tp1377
a(S'Room'
p1378
S'Room'
p1379
S'NNP'
p1380
S'I-NP'
p1381
g5
tp1382
a(g133
g133
g133
g5
g5
tp1383
a(S'ER'
p1384
S'ER'
p1385
S'NN'
p1386
S'B-NP'
p1387
S'B-protein'
p1388
tp1389
a(g140
g140
g140
g5
g5
tp1390
a(S'increased'
p1391
S'increase'
p1392
S'VBD'
p1393
S'B-VP'
p1394
g5
tp1395
a(S'approximately'
p1396
S'approximately'
p1397
S'RB'
p1398
S'B-ADVP'
p1399
g5
tp1400
a(S'ninefold'
p1401
S'ninefold'
p1402
S'RB'
p1403
S'I-ADVP'
p1404
g5
tp1405
a(S'during'
p1406
S'during'
p1407
S'IN'
p1408
S'B-PP'
p1409
g5
tp1410
a(S'the'
p1411
S'the'
p1412
S'DT'
p1413
S'B-NP'
p1414
g5
tp1415
a(S'reporting'
p1416
S'reporting'
p1417
S'NN'
p1418
S'I-NP'
p1419
g5
tp1420
a(S'period'
p1421
S'period'
p1422
S'NN'
p1423
S'I-NP'
p1424
g5
tp1425
a(S'in'
p1426
S'in'
p1427
S'IN'
p1428
S'B-PP'
p1429
g5
tp1430
a(S'which'
p1431
S'which'
p1432
S'WDT'
p1433
S'B-NP'
p1434
g5
tp1435
a(S'the'
p1436
S'the'
p1437
S'DT'
p1438
S'B-NP'
p1439
g5
tp1440
a(S'exacerbation'
p1441
S'exacerbation'
p1442
S'NN'
p1443
S'I-NP'
p1444
g5
tp1445
a(S'occurred'
p1446
S'occur'
p1447
S'VBD'
p1448
S'B-VP'
p1449
g5
tp1450
a(S'compared'
p1451
S'compare'
p1452
S'VBN'
p1453
S'I-VP'
p1454
g5
tp1455
a(S'with'
p1456
S'with'
p1457
S'IN'
p1458
S'B-PP'
p1459
g5
tp1460
a(S'the'
p1461
S'the'
p1462
S'DT'
p1463
S'B-NP'
p1464
g5
tp1465
a(S'previous'
p1466
S'previous'
p1467
S'JJ'
p1468
S'I-NP'
p1469
g5
tp1470
a(S'month.'
p1471
S'month.'
p1472
S'NN'
p1473
S'I-NP'
p1474
g5
tp1475
a(S'This'
p1476
S'This'
p1477
S'DT'
p1478
S'B-NP'
p1479
g5
tp1480
a(S'study'
p1481
S'study'
p1482
S'NN'
p1483
S'I-NP'
p1484
g5
tp1485
a(S'has'
p1486
S'have'
p1487
S'VBZ'
p1488
S'B-VP'
p1489
g5
tp1490
a(S'shown'
p1491
S'show'
p1492
S'VBN'
p1493
S'I-VP'
p1494
g5
tp1495
a(S'that'
p1496
S'that'
p1497
S'IN'
p1498
S'B-SBAR'
p1499
g5
tp1500
a(S'use'
p1501
S'use'
p1502
S'NN'
p1503
S'B-NP'
p1504
g5
tp1505
a(S'of'
p1506
S'of'
p1507
S'IN'
p1508
S'B-PP'
p1509
g5
tp1510
a(S'an'
p1511
S'an'
p1512
S'DT'
p1513
S'B-NP'
p1514
g5
tp1515
a(S'IVRS'
p1516
S'IVRS'
p1517
S'NN'
p1518
S'I-NP'
p1519
S'B-protein'
p1520
tp1521
a(g142
g142
g142
g5
g5
tp1522
a(S'even'
p1523
S'even'
p1524
S'RB'
p1525
S'B-ADVP'
p1526
g5
tp1527
a(S'in'
p1528
S'in'
p1529
S'IN'
p1530
S'B-PP'
p1531
g5
tp1532
a(S'elderly'
p1533
S'elderly'
p1534
S'JJ'
p1535
S'B-NP'
p1536
g5
tp1537
a(S'patients'
p1538
S'patient'
p1539
S'NNS'
p1540
S'I-NP'
p1541
g5
tp1542
a(g142
g142
g142
g5
g5
tp1543
a(S'is'
p1544
S'be'
p1545
S'VBZ'
p1546
S'B-VP'
p1547
g5
tp1548
a(S'an'
p1549
S'an'
p1550
S'DT'
p1551
S'B-NP'
p1552
g5
tp1553
a(S'effective'
p1554
S'effective'
p1555
S'JJ'
p1556
S'I-NP'
p1557
g5
tp1558
a(S'means'
p1559
S'mean'
p1560
S'NNS'
p1561
S'I-NP'
p1562
g5
tp1563
a(S'of'
p1564
S'of'
p1565
S'IN'
p1566
S'B-PP'
p1567
g5
tp1568
a(S'gathering'
p1569
S'gather'
p1570
S'VBG'
p1571
S'B-VP'
p1572
g5
tp1573
a(S'RU'
p1574
S'RU'
p1575
S'NN'
p1576
S'B-NP'
p1577
g5
tp1578
a(S'data'
p1579
S'datum'
p1580
S'NNS'
p1581
S'I-NP'
p1582
g5
tp1583
a(S'over'
p1584
S'over'
p1585
S'IN'
p1586
S'B-PP'
p1587
g5
tp1588
a(S'long'
p1589
S'long'
p1590
S'JJ'
p1591
S'B-NP'
p1592
g5
tp1593
a(S'periods.'
p1594
S'periods.'
p1595
S'NN'
p1596
S'I-NP'
p1597
g5
tp1598
a(S'The'
p1599
S'The'
p1600
S'DT'
p1601
S'B-NP'
p1602
g5
tp1603
a(S'study'
p1604
S'study'
p1605
S'NN'
p1606
S'I-NP'
p1607
g5
tp1608
a(S'findings'
p1609
S'finding'
p1610
S'NNS'
p1611
S'I-NP'
p1612
g5
tp1613
a(S'suggest'
p1614
S'suggest'
p1615
S'VBP'
p1616
S'B-VP'
p1617
g5
tp1618
a(S'that'
p1619
S'that'
p1620
S'IN'
p1621
S'B-SBAR'
p1622
g5
tp1623
a(S'the'
p1624
S'the'
p1625
S'DT'
p1626
S'B-NP'
p1627
g5
tp1628
a(S'advent'
p1629
S'advent'
p1630
S'NN'
p1631
S'I-NP'
p1632
g5
tp1633
a(S'of'
p1634
S'of'
p1635
S'IN'
p1636
S'B-PP'
p1637
g5
tp1638
a(S'effective'
p1639
S'effective'
p1640
S'JJ'
p1641
S'B-NP'
p1642
g5
tp1643
a(S'therapeutic'
p1644
S'therapeutic'
p1645
S'JJ'
p1646
S'I-NP'
p1647
g5
tp1648
a(S'interventions'
p1649
S'intervention'
p1650
S'NNS'
p1651
S'I-NP'
p1652
g5
tp1653
a(g142
g142
g142
g5
g5
tp1654
a(S'particularly'
p1655
S'particularly'
p1656
S'RB'
p1657
S'B-ADVP'
p1658
g5
tp1659
a(S'any'
p1660
S'any'
p1661
S'DT'
p1662
S'B-ADVP'
p1663
g5
tp1664
a(S'with'
p1665
S'with'
p1666
S'IN'
p1667
S'B-PP'
p1668
g5
tp1669
a(S'the'
p1670
S'the'
p1671
S'DT'
p1672
S'B-NP'
p1673
g5
tp1674
a(S'ability'
p1675
S'ability'
p1676
S'NN'
p1677
S'I-NP'
p1678
g5
tp1679
a(S'to'
p1680
S'to'
p1681
S'TO'
p1682
S'B-VP'
p1683
g5
tp1684
a(S'minimize'
p1685
S'minimize'
p1686
S'VB'
p1687
S'I-VP'
p1688
g5
tp1689
a(S'exacerbations'
p1690
S'exacerbation'
p1691
S'NNS'
p1692
S'B-NP'
p1693
g5
tp1694
a(S'and'
p1695
S'and'
p1696
S'CC'
p1697
S'I-NP'
p1698
g5
tp1699
a(S'limit'
p1700
S'limit'
p1701
S'NN'
p1702
S'I-NP'
p1703
g5
tp1704
a(S'disease'
p1705
S'disease'
p1706
S'NN'
p1707
S'I-NP'
p1708
g5
tp1709
a(S'progression'
p1710
S'progression'
p1711
S'NN'
p1712
S'I-NP'
p1713
g5
tp1714
a(g142
g142
g142
g5
g5
tp1715
a(S'could'
p1716
S'could'
p1717
S'MD'
p1718
S'B-VP'
p1719
g5
tp1720
a(S'impact'
p1721
S'impact'
p1722
S'VB'
p1723
S'I-VP'
p1724
g5
tp1725
a(S'on'
p1726
S'on'
p1727
S'IN'
p1728
S'B-PP'
p1729
g5
tp1730
a(S'the'
p1731
S'the'
p1732
S'DT'
p1733
S'B-NP'
p1734
g5
tp1735
a(S'health'
p1736
S'health'
p1737
S'NN'
p1738
S'I-NP'
p1739
g5
tp1740
a(S'care'
p1741
S'care'
p1742
S'NN'
p1743
S'I-NP'
p1744
g5
tp1745
a(S'services'
p1746
S'service'
p1747
S'NNS'
p1748
S'I-NP'
p1749
g5
tp1750
a(S'used'
p1751
S'use'
p1752
S'VBN'
p1753
S'B-VP'
p1754
g5
tp1755
a(S'and'
p1756
S'and'
p1757
S'CC'
p1758
g5
g5
tp1759
a(S'potentially'
p1760
S'potentially'
p1761
S'RB'
p1762
S'B-VP'
p1763
g5
tp1764
a(S'reduce'
p1765
S'reduce'
p1766
S'VB'
p1767
S'I-VP'
p1768
g5
tp1769
a(S'associated'
p1770
S'associate'
p1771
S'VBN'
p1772
S'B-NP'
p1773
g5
tp1774
a(S'costs'
p1775
S'cost'
p1776
S'NNS'
p1777
S'I-NP'
p1778
g5
tp1779
a(g62
g62
g62
g5
g5
tp1780
a.