(lp0
(S'Is'
p1
S'Be'
p2
S'VBZ'
p3
S'O'
p4
g4
tp5
a(S'prophylactic'
p6
S'prophylactic'
p7
S'JJ'
p8
S'B-NP'
p9
g4
tp10
a(S'intravenous'
p11
S'intravenous'
p12
S'JJ'
p13
S'I-NP'
p14
g4
tp15
a(S'administration'
p16
S'administration'
p17
S'NN'
p18
S'I-NP'
p19
g4
tp20
a(S'of'
p21
S'of'
p22
S'IN'
p23
S'B-PP'
p24
g4
tp25
a(S'a'
p26
g26
S'DT'
p27
S'B-NP'
p28
g4
tp29
a(S'proton'
p30
S'proton'
p31
S'NN'
p32
S'I-NP'
p33
g4
tp34
a(S'pump'
p35
S'pump'
p36
S'NN'
p37
S'I-NP'
p38
g4
tp39
a(S'inhibitor'
p40
S'inhibitor'
p41
S'NN'
p42
S'I-NP'
p43
g4
tp44
a(S'necessary'
p45
S'necessary'
p46
S'JJ'
p47
S'B-ADJP'
p48
g4
tp49
a(S'for'
p50
S'for'
p51
S'IN'
p52
S'B-PP'
p53
g4
tp54
a(S'perioperative'
p55
S'perioperative'
p56
S'JJ'
p57
S'B-NP'
p58
g4
tp59
a(S'management'
p60
S'management'
p61
S'NN'
p62
S'I-NP'
p63
g4
tp64
a(S'of'
p65
S'of'
p66
S'IN'
p67
S'B-PP'
p68
g4
tp69
a(S'cardiac'
p70
S'cardiac'
p71
S'JJ'
p72
S'B-NP'
p73
g4
tp74
a(S'surgery'
p75
S'surgery'
p76
S'NN'
p77
S'I-NP'
p78
g4
tp79
a(S'?'
p80
g80
S'.'
p81
g4
g4
tp82
a(S'BACKGROUND'
p83
S'BACKGROUND'
p84
S'NN'
p85
S'B-NP'
p86
g4
tp87
a(S'Mortality'
p88
S'Mortality'
p89
S'NN'
p90
S'I-NP'
p91
g4
tp92
a(S'from'
p93
S'from'
p94
S'IN'
p95
S'B-PP'
p96
g4
tp97
a(S'gastrointestinal'
p98
S'gastrointestinal'
p99
S'JJ'
p100
S'B-NP'
p101
g4
tp102
a(S'('
p103
g103
g103
g4
g4
tp104
a(S'GI'
p105
S'GI'
p106
S'NN'
p107
S'B-NP'
p108
g4
tp109
a(S')'
p110
g110
g110
g4
g4
tp111
a(S'hemorrhage'
p112
S'hemorrhage'
p113
S'NN'
p114
S'B-NP'
p115
g4
tp116
a(S'caused'
p117
S'cause'
p118
S'VBN'
p119
S'B-VP'
p120
g4
tp121
a(S'by'
p122
S'by'
p123
S'IN'
p124
S'B-PP'
p125
g4
tp126
a(S'antiplatelet'
p127
S'antiplatelet'
p128
S'JJ'
p129
S'B-NP'
p130
g4
tp131
a(S'or'
p132
S'or'
p133
S'CC'
p134
S'I-NP'
p135
g4
tp136
a(S'anticoagulant'
p137
S'anticoagulant'
p138
S'JJ'
p139
S'I-NP'
p140
g4
tp141
a(S'therapy'
p142
S'therapy'
p143
S'NN'
p144
S'I-NP'
p145
g4
tp146
a(g103
g103
g103
g4
g4
tp147
a(S'or'
p148
S'or'
p149
S'CC'
p150
g4
g4
tp151
a(S'both'
p152
S'both'
p153
S'DT'
p154
g4
g4
tp155
a(g110
g110
g110
g4
g4
tp156
a(S'is'
p157
S'be'
p158
S'VBZ'
p159
S'B-VP'
p160
g4
tp161
a(S'quite'
p162
S'quite'
p163
S'RB'
p164
S'B-ADJP'
p165
g4
tp166
a(S'high'
p167
S'high'
p168
S'JJ'
p169
S'I-ADJP'
p170
g4
tp171
a(S'after'
p172
S'after'
p173
S'IN'
p174
S'B-PP'
p175
g4
tp176
a(S'cardiac'
p177
S'cardiac'
p178
S'JJ'
p179
S'B-NP'
p180
g4
tp181
a(S'surgery.'
p182
S'surgery.'
p183
S'NN'
p184
S'I-NP'
p185
g4
tp186
a(S'We'
p187
S'We'
p188
S'PRP'
p189
S'B-NP'
p190
g4
tp191
a(S'previously'
p192
S'previously'
p193
S'RB'
p194
S'B-ADVP'
p195
g4
tp196
a(S'reported'
p197
S'report'
p198
S'VBD'
p199
S'B-VP'
p200
g4
tp201
a(S'that'
p202
S'that'
p203
S'IN'
p204
S'B-SBAR'
p205
g4
tp206
a(S'proton'
p207
S'proton'
p208
S'NN'
p209
S'B-NP'
p210
g4
tp211
a(S'pump'
p212
S'pump'
p213
S'NN'
p214
S'I-NP'
p215
g4
tp216
a(S'inhibitor'
p217
S'inhibitor'
p218
S'NN'
p219
S'I-NP'
p220
g4
tp221
a(g103
g103
g103
g4
g4
tp222
a(S'PPI'
p223
S'PPI'
p224
S'NN'
p225
S'B-NP'
p226
g4
tp227
a(g110
g110
g110
g4
g4
tp228
a(S'therapy'
p229
S'therapy'
p230
S'NN'
p231
S'B-NP'
p232
g4
tp233
a(S'is'
p234
S'be'
p235
S'VBZ'
p236
S'B-VP'
p237
g4
tp238
a(S'indispensable'
p239
S'indispensable'
p240
S'JJ'
p241
S'B-ADJP'
p242
g4
tp243
a(S'in'
p244
S'in'
p245
S'IN'
p246
S'B-PP'
p247
g4
tp248
a(S'preventing'
p249
S'prevent'
p250
S'VBG'
p251
S'B-VP'
p252
g4
tp253
a(S'postoperative'
p254
S'postoperative'
p255
S'JJ'
p256
S'B-NP'
p257
g4
tp258
a(S'GI'
p259
S'GI'
p260
S'NN'
p261
S'I-NP'
p262
g4
tp263
a(S'complications.'
p264
S'complications.'
p265
S'NN'
p266
S'I-NP'
p267
g4
tp268
a(S'PPIs'
p269
S'PPI'
p270
S'NNS'
p271
S'I-NP'
p272
g4
tp273
a(S'are'
p274
S'be'
p275
S'VBP'
p276
S'B-VP'
p277
g4
tp278
a(S'usually'
p279
S'usually'
p280
S'RB'
p281
S'I-VP'
p282
g4
tp283
a(S'administered'
p284
S'administer'
p285
S'VBN'
p286
S'I-VP'
p287
g4
tp288
a(S'intravenously'
p289
S'intravenously'
p290
S'RB'
p291
S'B-ADVP'
p292
g4
tp293
a(S'immediately'
p294
S'immediately'
p295
S'RB'
p296
S'I-ADVP'
p297
g4
tp298
a(S'after'
p299
S'after'
p300
S'IN'
p301
S'B-PP'
p302
g4
tp303
a(S'surgery'
p304
S'surgery'
p305
S'NN'
p306
S'B-NP'
p307
g4
tp308
a(S'and'
p309
S'and'
p310
S'CC'
p311
g4
g4
tp312
a(S'subsequently'
p313
S'subsequently'
p314
S'RB'
p315
S'B-ADVP'
p316
g4
tp317
a(S'by'
p318
S'by'
p319
S'IN'
p320
S'B-PP'
p321
g4
tp322
a(S'oral'
p323
S'oral'
p324
S'JJ'
p325
S'B-NP'
p326
g4
tp327
a(S'formulations.'
p328
S'formulations.'
p329
S'NNS'
p330
S'I-NP'
p331
g4
tp332
a(S'We'
p333
S'We'
p334
S'PRP'
p335
S'B-NP'
p336
g4
tp337
a(S'conducted'
p338
S'conduct'
p339
S'VBD'
p340
S'B-VP'
p341
g4
tp342
a(g26
g26
S'DT'
p343
S'B-NP'
p344
g4
tp345
a(S'prospective'
p346
S'prospective'
p347
S'JJ'
p348
S'I-NP'
p349
g4
tp350
a(S'study'
p351
S'study'
p352
S'NN'
p353
S'I-NP'
p354
g4
tp355
a(S'to'
p356
S'to'
p357
S'TO'
p358
S'B-VP'
p359
g4
tp360
a(S'evaluate'
p361
S'evaluate'
p362
S'VB'
p363
S'I-VP'
p364
g4
tp365
a(S'whether'
p366
S'whether'
p367
S'IN'
p368
S'B-SBAR'
p369
g4
tp370
a(S'intravenous'
p371
S'intravenous'
p372
S'JJ'
p373
S'B-NP'
p374
g4
tp375
a(S'PPI'
p376
S'PPI'
p377
S'NN'
p378
S'I-NP'
p379
g4
tp380
a(S'followed'
p381
S'follow'
p382
S'VBN'
p383
S'B-VP'
p384
g4
tp385
a(S'by'
p386
S'by'
p387
S'IN'
p388
S'B-PP'
p389
g4
tp390
a(S'oral'
p391
S'oral'
p392
S'JJ'
p393
S'B-NP'
p394
g4
tp395
a(S'administration'
p396
S'administration'
p397
S'NN'
p398
S'I-NP'
p399
g4
tp400
a(S'is'
p401
S'be'
p402
S'VBZ'
p403
S'B-VP'
p404
g4
tp405
a(S'more'
p406
S'more'
p407
S'RBR'
p408
S'B-ADJP'
p409
g4
tp410
a(S'efficient'
p411
S'efficient'
p412
S'JJ'
p413
S'I-ADJP'
p414
g4
tp415
a(S'as'
p416
S'as'
p417
S'IN'
p418
S'B-PP'
p419
g4
tp420
a(S'prophylaxis'
p421
S'prophylaxis'
p422
S'NN'
p423
S'B-NP'
p424
g4
tp425
a(S'than'
p426
S'than'
p427
S'IN'
p428
S'B-PP'
p429
g4
tp430
a(S'oral-only'
p431
S'oral-only'
p432
S'JJ'
p433
S'B-NP'
p434
g4
tp435
a(S'administration'
p436
S'administration'
p437
S'NN'
p438
S'I-NP'
p439
g4
tp440
a(g81
g81
g81
g4
g4
tp441
a(S'METHODS'
p442
S'METHODS'
p443
S'NNS'
p444
S'B-NP'
p445
g4
tp446
a(S'AND'
p447
S'AND'
p448
S'CC'
p449
S'I-NP'
p450
g4
tp451
a(S'RESULTS'
p452
S'RESULTS'
p453
S'NNS'
p454
S'I-NP'
p455
g4
tp456
a(S'We'
p457
S'We'
p458
S'PRP'
p459
S'B-NP'
p460
g4
tp461
a(S'enrolled'
p462
S'enrol'
p463
S'VBD'
p464
S'B-VP'
p465
g4
tp466
a(S'40'
p467
S'40'
p468
S'CD'
p469
S'B-NP'
p470
g4
tp471
a(S'patients'
p472
S'patient'
p473
S'NNS'
p474
S'I-NP'
p475
g4
tp476
a(S'scheduled'
p477
S'schedule'
p478
S'VBN'
p479
S'B-VP'
p480
g4
tp481
a(S'to'
p482
S'to'
p483
S'TO'
p484
S'I-VP'
p485
g4
tp486
a(S'undergo'
p487
S'undergo'
p488
S'VB'
p489
S'I-VP'
p490
g4
tp491
a(S'coronary'
p492
S'coronary'
p493
S'JJ'
p494
S'B-NP'
p495
g4
tp496
a(S'artery'
p497
S'artery'
p498
S'NN'
p499
S'I-NP'
p500
g4
tp501
a(S'bypass'
p502
S'bypass'
p503
S'IN'
p504
S'B-PP'
p505
g4
tp506
a(S'grafting'
p507
S'graft'
p508
S'VBG'
p509
S'B-VP'
p510
g4
tp511
a(S'with'
p512
S'with'
p513
S'IN'
p514
S'B-PP'
p515
g4
tp516
a(S'cardiopulmonary'
p517
S'cardiopulmonary'
p518
S'JJ'
p519
S'B-NP'
p520
g4
tp521
a(S'bypass'
p522
S'bypass'
p523
S'NN'
p524
S'I-NP'
p525
g4
tp526
a(S'and'
p527
S'and'
p528
S'CC'
p529
g4
g4
tp530
a(S'randomly'
p531
S'randomly'
p532
S'RB'
p533
S'B-VP'
p534
g4
tp535
a(S'assigned'
p536
S'assign'
p537
S'VBD'
p538
S'I-VP'
p539
g4
tp540
a(S'them'
p541
S'them'
p542
S'PRP'
p543
S'B-NP'
p544
g4
tp545
a(S'to'
p546
S'to'
p547
S'TO'
p548
S'B-VP'
p549
g4
tp550
a(S'receive'
p551
S'receive'
p552
S'VB'
p553
S'I-VP'
p554
g4
tp555
a(S'oral'
p556
S'oral'
p557
S'JJ'
p558
S'B-NP'
p559
g4
tp560
a(S'PPIs'
p561
S'PPI'
p562
S'NNS'
p563
S'I-NP'
p564
g4
tp565
a(S'alone'
p566
S'alone'
p567
S'RB'
p568
S'B-ADVP'
p569
g4
tp570
a(g103
g103
g103
g4
g4
tp571
a(S'group'
p572
S'group'
p573
S'NN'
p574
S'B-NP'
p575
g4
tp576
a(S'1'
p577
g577
S'CD'
p578
S'I-NP'
p579
g4
tp580
a(g110
g110
g110
g4
g4
tp581
a(S'or'
p582
S'or'
p583
S'CC'
p584
g4
g4
tp585
a(S'intravenous'
p586
S'intravenous'
p587
S'JJ'
p588
S'B-NP'
p589
g4
tp590
a(S'PPI'
p591
S'PPI'
p592
S'NN'
p593
S'I-NP'
p594
g4
tp595
a(S'followed'
p596
S'follow'
p597
S'VBN'
p598
S'B-VP'
p599
g4
tp600
a(S'by'
p601
S'by'
p602
S'IN'
p603
S'B-PP'
p604
g4
tp605
a(S'oral'
p606
S'oral'
p607
S'JJ'
p608
S'B-NP'
p609
g4
tp610
a(S'administration'
p611
S'administration'
p612
S'NN'
p613
S'I-NP'
p614
g4
tp615
a(g103
g103
g103
g4
g4
tp616
a(S'group'
p617
S'group'
p618
S'NN'
p619
S'B-NP'
p620
g4
tp621
a(S'2'
p622
g622
S'CD'
p623
S'I-NP'
p624
g4
tp625
a(g110
g110
g110
g4
g4
tp626
a(g81
g81
g81
g4
g4
tp627
a(S'Postoperative'
p628
S'Postoperative'
p629
S'JJ'
p630
S'B-NP'
p631
g4
tp632
a(S'upper'
p633
S'upper'
p634
S'JJ'
p635
S'I-NP'
p636
g4
tp637
a(S'GI'
p638
S'GI'
p639
S'NN'
p640
S'I-NP'
p641
g4
tp642
a(S'endoscopy'
p643
S'endoscopy'
p644
S'NN'
p645
S'I-NP'
p646
g4
tp647
a(S'evaluations'
p648
S'evaluation'
p649
S'NNS'
p650
S'I-NP'
p651
g4
tp652
a(S'showed'
p653
S'show'
p654
S'VBD'
p655
S'B-VP'
p656
g4
tp657
a(S'no'
p658
S'no'
p659
S'DT'
p660
S'B-NP'
p661
g4
tp662
a(S'evidence'
p663
S'evidence'
p664
S'NN'
p665
S'I-NP'
p666
g4
tp667
a(S'of'
p668
S'of'
p669
S'IN'
p670
S'B-PP'
p671
g4
tp672
a(S'GI'
p673
S'GI'
p674
S'NN'
p675
S'B-NP'
p676
g4
tp677
a(S'bleeding.'
p678
S'bleeding.'
p679
S'NN'
p680
S'I-NP'
p681
g4
tp682
a(S'Only'
p683
S'Only'
p684
S'RB'
p685
S'B-NP'
p686
g4
tp687
a(S'gastritis'
p688
S'gastritis'
p689
S'NN'
p690
S'I-NP'
p691
g4
tp692
a(S','
p693
g693
g693
g4
g4
tp694
a(S'esophagitis'
p695
S'esophagitis'
p696
S'NN'
p697
S'B-NP'
p698
g4
tp699
a(g693
g693
g693
g4
g4
tp700
a(S'and'
p701
S'and'
p702
S'CC'
p703
g4
g4
tp704
a(S'hiatal'
p705
S'hiatal'
p706
S'JJ'
p707
S'B-NP'
p708
g4
tp709
a(S'hernia'
p710
S'hernia'
p711
S'NN'
p712
S'I-NP'
p713
g4
tp714
a(S'were'
p715
S'be'
p716
S'VBD'
p717
S'B-VP'
p718
g4
tp719
a(S'observed'
p720
S'observe'
p721
S'VBN'
p722
S'I-VP'
p723
g4
tp724
a(S'at'
p725
S'at'
p726
S'IN'
p727
S'B-PP'
p728
g4
tp729
a(S'similar'
p730
S'similar'
p731
S'JJ'
p732
S'B-NP'
p733
g4
tp734
a(S'incidences'
p735
S'incidence'
p736
S'NNS'
p737
S'I-NP'
p738
g4
tp739
a(S'in'
p740
S'in'
p741
S'IN'
p742
S'B-PP'
p743
g4
tp744
a(S'the'
p745
S'the'
p746
S'DT'
p747
S'B-NP'
p748
g4
tp749
a(S'groups.'
p750
S'groups.'
p751
S'NN'
p752
S'I-NP'
p753
g4
tp754
a(S'Mean'
p755
S'Mean'
p756
S'NN'
p757
S'I-NP'
p758
g4
tp759
a(S'hospital'
p760
S'hospital'
p761
S'NN'
p762
S'I-NP'
p763
g4
tp764
a(S'stays'
p765
S'stay'
p766
S'NNS'
p767
S'I-NP'
p768
g4
tp769
a(S'were'
p770
S'be'
p771
S'VBD'
p772
S'B-VP'
p773
g4
tp774
a(S'also'
p775
S'also'
p776
S'RB'
p777
S'B-ADVP'
p778
g4
tp779
a(S'similar'
p780
S'similar'
p781
S'JJ'
p782
S'B-ADJP'
p783
g4
tp784
a(g693
g693
g693
g4
g4
tp785
a(S'but'
p786
S'but'
p787
S'CC'
p788
g4
g4
tp789
a(S'the'
p790
S'the'
p791
S'DT'
p792
S'B-NP'
p793
g4
tp794
a(S'cost'
p795
S'cost'
p796
S'NN'
p797
S'I-NP'
p798
g4
tp799
a(S'of'
p800
S'of'
p801
S'IN'
p802
S'B-PP'
p803
g4
tp804
a(S'PPI'
p805
S'PPI'
p806
S'NN'
p807
S'B-NP'
p808
S'B-protein'
p809
tp810
a(S'treatment'
p811
S'treatment'
p812
S'NN'
p813
S'I-NP'
p814
g4
tp815
a(S'was'
p816
S'be'
p817
S'VBD'
p818
S'B-VP'
p819
g4
tp820
a(S'significantly'
p821
S'significantly'
p822
S'RB'
p823
S'B-ADJP'
p824
g4
tp825
a(S'lower'
p826
S'low'
p827
S'JJR'
p828
S'I-ADJP'
p829
g4
tp830
a(S'in'
p831
S'in'
p832
S'IN'
p833
S'B-PP'
p834
g4
tp835
a(S'group'
p836
S'group'
p837
S'NN'
p838
S'B-NP'
p839
g4
tp840
a(g577
g577
S'CD'
p841
S'I-NP'
p842
g4
tp843
a(g81
g81
g81
g4
g4
tp844
a(S'CONCLUSION'
p845
S'CONCLUSION'
p846
S'NN'
p847
S'B-NP'
p848
g4
tp849
a(S'No'
p850
S'No'
p851
S'DT'
p852
S'B-NP'
p853
g4
tp854
a(S'additional'
p855
S'additional'
p856
S'JJ'
p857
S'I-NP'
p858
g4
tp859
a(S'benefits'
p860
S'benefit'
p861
S'NNS'
p862
S'I-NP'
p863
g4
tp864
a(S'of'
p865
S'of'
p866
S'IN'
p867
S'B-PP'
p868
g4
tp869
a(S'intravenous'
p870
S'intravenous'
p871
S'JJ'
p872
S'B-NP'
p873
g4
tp874
a(S'PPIs'
p875
S'PPI'
p876
S'NNS'
p877
S'I-NP'
p878
g4
tp879
a(S'over'
p880
S'over'
p881
S'IN'
p882
S'B-PP'
p883
g4
tp884
a(S'oral'
p885
S'oral'
p886
S'JJ'
p887
S'B-NP'
p888
g4
tp889
a(S'formulations'
p890
S'formulation'
p891
S'NNS'
p892
S'I-NP'
p893
g4
tp894
a(S'were'
p895
S'be'
p896
S'VBD'
p897
S'B-VP'
p898
g4
tp899
a(S'demonstrated.'
p900
S'demonstrated.'
p901
S'VBN'
p902
S'I-VP'
p903
g4
tp904
a(S'Oral'
p905
S'Oral'
p906
S'JJ'
p907
S'B-NP'
p908
g4
tp909
a(S'PPIs'
p910
S'PPI'
p911
S'NNS'
p912
S'I-NP'
p913
g4
tp914
a(S'alone'
p915
S'alone'
p916
S'RB'
p917
S'B-ADVP'
p918
g4
tp919
a(S'were'
p920
S'be'
p921
S'VBD'
p922
S'B-VP'
p923
g4
tp924
a(S'effective'
p925
S'effective'
p926
S'JJ'
p927
S'B-ADJP'
p928
g4
tp929
a(S'and'
p930
S'and'
p931
S'CC'
p932
g4
g4
tp933
a(S'economical'
p934
S'economical'
p935
S'JJ'
p936
S'B-ADJP'
p937
g4
tp938
a(S'as'
p939
S'as'
p940
S'IN'
p941
S'B-PP'
p942
g4
tp943
a(S'prophylaxis'
p944
S'prophylaxis'
p945
S'NN'
p946
S'B-NP'
p947
g4
tp948
a(S'against'
p949
S'against'
p950
S'IN'
p951
S'B-PP'
p952
g4
tp953
a(S'GI'
p954
S'GI'
p955
S'NN'
p956
S'B-NP'
p957
S'B-protein'
p958
tp959
a(S'complications.'
p960
S'complications.'
p961
S'NN'
p962
S'I-NP'
p963
S'I-protein'
p964
tp965
a(S'Intravenous'
p966
S'Intravenous'
p967
S'JJ'
p968
S'I-NP'
p969
S'I-protein'
p970
tp971
a(S'PPIs'
p972
S'PPI'
p973
S'NNS'
p974
S'I-NP'
p975
S'I-protein'
p976
tp977
a(S'might'
p978
S'might'
p979
S'MD'
p980
S'B-VP'
p981
g4
tp982
a(S'be'
p983
S'be'
p984
S'VB'
p985
S'I-VP'
p986
g4
tp987
a(S'unnecessary'
p988
S'unnecessary'
p989
S'JJ'
p990
S'B-ADJP'
p991
g4
tp992
a(S'in'
p993
S'in'
p994
S'IN'
p995
S'B-PP'
p996
g4
tp997
a(S'selected'
p998
S'select'
p999
S'VBN'
p1000
S'B-NP'
p1001
g4
tp1002
a(S'patients'
p1003
S'patient'
p1004
S'NNS'
p1005
S'I-NP'
p1006
g4
tp1007
a(S'after'
p1008
S'after'
p1009
S'IN'
p1010
S'B-PP'
p1011
g4
tp1012
a(S'cardiac'
p1013
S'cardiac'
p1014
S'JJ'
p1015
S'B-NP'
p1016
g4
tp1017
a(S'surgery'
p1018
S'surgery'
p1019
S'NN'
p1020
S'I-NP'
p1021
g4
tp1022
a(g81
g81
g81
g4
g4
tp1023
a.