(lp0
(S'Residual'
p1
S'Residual'
p2
S'JJ'
p3
S'B-NP'
p4
S'O'
p5
tp6
a(S'platelet'
p7
S'platelet'
p8
S'NN'
p9
S'I-NP'
p10
g5
tp11
a(S'reactivity'
p12
S'reactivity'
p13
S'NN'
p14
S'I-NP'
p15
g5
tp16
a(S','
p17
g17
g17
g5
g5
tp18
a(S'bleedings'
p19
S'bleeding'
p20
S'NNS'
p21
S'B-NP'
p22
g5
tp23
a(g17
g17
g17
g5
g5
tp24
a(S'and'
p25
S'and'
p26
S'CC'
p27
g5
g5
tp28
a(S'adherence'
p29
S'adherence'
p30
S'NN'
p31
S'B-NP'
p32
g5
tp33
a(S'to'
p34
S'to'
p35
S'TO'
p36
S'B-PP'
p37
g5
tp38
a(S'treatment'
p39
S'treatment'
p40
S'NN'
p41
S'B-NP'
p42
g5
tp43
a(S'in'
p44
S'in'
p45
S'IN'
p46
S'B-PP'
p47
g5
tp48
a(S'patients'
p49
S'patient'
p50
S'NNS'
p51
S'B-NP'
p52
g5
tp53
a(S'having'
p54
S'have'
p55
S'VBG'
p56
S'B-VP'
p57
g5
tp58
a(S'coronary'
p59
S'coronary'
p60
S'JJ'
p61
S'B-NP'
p62
g5
tp63
a(S'stent'
p64
S'stent'
p65
S'JJ'
p66
S'I-NP'
p67
g5
tp68
a(S'implantation'
p69
S'implantation'
p70
S'NN'
p71
S'I-NP'
p72
g5
tp73
a(S'treated'
p74
S'treat'
p75
S'VBN'
p76
S'B-VP'
p77
g5
tp78
a(S'with'
p79
S'with'
p80
S'IN'
p81
S'B-PP'
p82
g5
tp83
a(S'prasugrel'
p84
S'prasugrel'
p85
S'NN'
p86
S'B-NP'
p87
g5
tp88
a(S'.'
p89
g89
g89
g5
g5
tp90
a(S'Recent'
p91
S'Recent'
p92
S'JJ'
p93
S'B-NP'
p94
g5
tp95
a(S'guidelines'
p96
S'guideline'
p97
S'NNS'
p98
S'I-NP'
p99
g5
tp100
a(S'have'
p101
S'have'
p102
S'VBP'
p103
S'B-VP'
p104
g5
tp105
a(S'recommended'
p106
S'recommend'
p107
S'VBN'
p108
S'I-VP'
p109
g5
tp110
a(S'the'
p111
S'the'
p112
S'DT'
p113
S'B-NP'
p114
g5
tp115
a(S'use'
p116
S'use'
p117
S'NN'
p118
S'I-NP'
p119
g5
tp120
a(S'of'
p121
S'of'
p122
S'IN'
p123
S'B-PP'
p124
g5
tp125
a(S'aspirin'
p126
S'aspirin'
p127
S'NN'
p128
S'B-NP'
p129
g5
tp130
a(S'and'
p131
S'and'
p132
S'CC'
p133
S'I-NP'
p134
g5
tp135
a(S'prasugrel'
p136
S'prasugrel'
p137
S'NN'
p138
S'I-NP'
p139
g5
tp140
a(S'in'
p141
S'in'
p142
S'IN'
p143
S'B-PP'
p144
g5
tp145
a(S'patients'
p146
S'patient'
p147
S'NNS'
p148
S'B-NP'
p149
g5
tp150
a(S'with'
p151
S'with'
p152
S'IN'
p153
S'B-PP'
p154
g5
tp155
a(S'acute'
p156
S'acute'
p157
S'JJ'
p158
S'B-NP'
p159
g5
tp160
a(S'coronary'
p161
S'coronary'
p162
S'JJ'
p163
S'I-NP'
p164
g5
tp165
a(S'syndromes'
p166
S'syndrome'
p167
S'NNS'
p168
S'I-NP'
p169
g5
tp170
a(S'undergoing'
p171
S'undergo'
p172
S'VBG'
p173
S'B-VP'
p174
g5
tp175
a(S'percutaneous'
p176
S'percutaneous'
p177
S'JJ'
p178
S'B-NP'
p179
g5
tp180
a(S'coronary'
p181
S'coronary'
p182
S'JJ'
p183
S'I-NP'
p184
g5
tp185
a(S'intervention.'
p186
S'intervention.'
p187
S'NN'
p188
S'I-NP'
p189
g5
tp190
a(S'However'
p191
S'However'
p192
S'RB'
p193
S'B-ADVP'
p194
g5
tp195
a(g17
g17
g17
g5
g5
tp196
a(S'prasugrel'
p197
S'prasugrel'
p198
S'NN'
p199
S'B-NP'
p200
g5
tp201
a(S'use'
p202
S'use'
p203
S'NN'
p204
S'I-NP'
p205
g5
tp206
a(S'has'
p207
S'have'
p208
S'VBZ'
p209
S'B-VP'
p210
g5
tp211
a(S'been'
p212
S'be'
p213
S'VBN'
p214
S'I-VP'
p215
g5
tp216
a(S'evaluated'
p217
S'evaluate'
p218
S'VBN'
p219
S'I-VP'
p220
g5
tp221
a(S'only'
p222
S'only'
p223
S'RB'
p224
S'B-ADVP'
p225
g5
tp226
a(S'in'
p227
S'in'
p228
S'IN'
p229
S'B-PP'
p230
g5
tp231
a(S'randomized'
p232
S'randomize'
p233
S'VBN'
p234
S'B-NP'
p235
g5
tp236
a(S'trials.'
p237
S'trials.'
p238
S'NN'
p239
S'I-NP'
p240
g5
tp241
a(S'This'
p242
S'This'
p243
S'DT'
p244
S'B-NP'
p245
g5
tp246
a(S'study'
p247
S'study'
p248
S'NN'
p249
S'I-NP'
p250
g5
tp251
a(S'sought'
p252
S'seek'
p253
S'VBD'
p254
S'B-VP'
p255
g5
tp256
a(S'to'
p257
S'to'
p258
S'TO'
p259
S'I-VP'
p260
g5
tp261
a(S'evaluate'
p262
S'evaluate'
p263
S'VB'
p264
S'I-VP'
p265
g5
tp266
a(S'bleeding'
p267
S'bleed'
p268
S'VBG'
p269
S'B-NP'
p270
g5
tp271
a(S'rates'
p272
S'rate'
p273
S'NNS'
p274
S'I-NP'
p275
g5
tp276
a(S'and'
p277
S'and'
p278
S'CC'
p279
g5
g5
tp280
a(S'adherence'
p281
S'adherence'
p282
S'NN'
p283
S'B-NP'
p284
g5
tp285
a(S'to'
p286
S'to'
p287
S'TO'
p288
S'B-PP'
p289
g5
tp290
a(S'treatment'
p291
S'treatment'
p292
S'NN'
p293
S'B-NP'
p294
g5
tp295
a(S'in'
p296
S'in'
p297
S'IN'
p298
S'B-PP'
p299
g5
tp300
a(S'``'
p301
S'``'
p302
S'``'
p303
S'B-NP'
p304
g5
tp305
a(S'real-world'
p306
S'real-world'
p307
S'JJ'
p308
S'I-NP'
p309
g5
tp310
a(S"''"
p311
S"''"
p312
S"''"
p313
S'I-NP'
p314
g5
tp315
a(S'patients'
p316
S'patient'
p317
S'NNS'
p318
S'I-NP'
p319
g5
tp320
a(S'treated'
p321
S'treat'
p322
S'VBN'
p323
S'B-VP'
p324
g5
tp325
a(S'with'
p326
S'with'
p327
S'IN'
p328
S'B-PP'
p329
g5
tp330
a(S'prasugrel.'
p331
S'prasugrel.'
p332
S'NN'
p333
S'B-NP'
p334
g5
tp335
a(S'In'
p336
S'In'
p337
S'IN'
p338
S'B-PP'
p339
g5
tp340
a(S'total'
p341
S'total'
p342
S'JJ'
p343
S'B-NP'
p344
g5
tp345
a(S'298'
p346
S'298'
p347
S'CD'
p348
S'I-NP'
p349
g5
tp350
a(S'consecutive'
p351
S'consecutive'
p352
S'JJ'
p353
S'I-NP'
p354
g5
tp355
a(S'patients'
p356
S'patient'
p357
S'NNS'
p358
S'I-NP'
p359
g5
tp360
a(S'68'
p361
S'68'
p362
S'CD'
p363
S'B-NP'
p364
g5
tp365
a(S'\xc2\xb1'
p366
S'\xc2\xb1'
p367
S'HYPH'
p368
S'I-NP'
p369
g5
tp370
a(S'10'
p371
S'10'
p372
S'CD'
p373
S'I-NP'
p374
g5
tp375
a(S'years'
p376
S'year'
p377
S'NNS'
p378
S'I-NP'
p379
g5
tp380
a(S'old'
p381
S'old'
p382
S'JJ'
p383
S'B-ADJP'
p384
g5
tp385
a(S'('
p386
g386
g386
g5
g5
tp387
a(S'31'
p388
S'31'
p389
S'CD'
p390
S'B-NP'
p391
g5
tp392
a(S'%'
p393
g393
S'NN'
p394
S'I-NP'
p395
g5
tp396
a(S'>'
p397
g397
S'SYM'
p398
S'B-NP'
p399
g5
tp400
a(S'75'
p401
S'75'
p402
S'CD'
p403
S'B-NP'
p404
g5
tp405
a(S'years'
p406
S'year'
p407
S'NNS'
p408
S'I-NP'
p409
g5
tp410
a(S'old'
p411
S'old'
p412
S'JJ'
p413
S'B-ADJP'
p414
g5
tp415
a(S')'
p416
g416
g416
g5
g5
tp417
a(S'underwent'
p418
S'undergo'
p419
S'VBD'
p420
S'B-VP'
p421
g5
tp422
a(S'stent'
p423
S'stent'
p424
S'JJ'
p425
S'B-NP'
p426
g5
tp427
a(S'implantation'
p428
S'implantation'
p429
S'NN'
p430
S'I-NP'
p431
g5
tp432
a(S'and'
p433
S'and'
p434
S'CC'
p435
g5
g5
tp436
a(S'received'
p437
S'receive'
p438
S'VBD'
p439
S'B-VP'
p440
g5
tp441
a(S'prasugrel'
p442
S'prasugrel'
p443
S'NN'
p444
S'B-NP'
p445
g5
tp446
a(S'therapy.'
p447
S'therapy.'
p448
S'NN'
p449
S'I-NP'
p450
g5
tp451
a(S'Indications'
p452
S'Indication'
p453
S'NNS'
p454
S'I-NP'
p455
g5
tp456
a(S'to'
p457
S'to'
p458
S'TO'
p459
S'B-PP'
p460
g5
tp461
a(S'prasugrel'
p462
S'prasugrel'
p463
S'NN'
p464
S'B-NP'
p465
g5
tp466
a(S'therapy'
p467
S'therapy'
p468
S'NN'
p469
S'I-NP'
p470
g5
tp471
a(S'were'
p472
S'be'
p473
S'VBD'
p474
S'B-VP'
p475
g5
tp476
a(g386
g386
g386
S'B-LST'
p477
g5
tp478
a(S'1'
p479
g479
S'LS'
p480
S'I-LST'
p481
g5
tp482
a(g416
g416
g416
g5
g5
tp483
a(S'ST-elevation'
p484
S'ST-elevation'
p485
S'NN'
p486
S'B-NP'
p487
g5
tp488
a(S'acute'
p489
S'acute'
p490
S'JJ'
p491
S'I-NP'
p492
g5
tp493
a(S'myocardial'
p494
S'myocardial'
p495
S'JJ'
p496
S'I-NP'
p497
g5
tp498
a(S'infarction'
p499
S'infarction'
p500
S'NN'
p501
S'I-NP'
p502
g5
tp503
a(g386
g386
g386
g5
g5
tp504
a(S'41'
p505
S'41'
p506
S'CD'
p507
S'B-NP'
p508
g5
tp509
a(g393
g393
S'NN'
p510
S'I-NP'
p511
g5
tp512
a(g416
g416
g416
g5
g5
tp513
a(g17
g17
g17
g5
g5
tp514
a(g386
g386
g386
S'B-LST'
p515
g5
tp516
a(S'2'
p517
g517
S'LS'
p518
S'I-LST'
p519
g5
tp520
a(g416
g416
g416
g5
g5
tp521
a(S'drug-eluting'
p522
S'drug-eluting'
p523
S'JJ'
p524
S'B-NP'
p525
g5
tp526
a(S'stent'
p527
S'stent'
p528
S'JJ'
p529
S'I-NP'
p530
g5
tp531
a(S'implantation'
p532
S'implantation'
p533
S'NN'
p534
S'I-NP'
p535
g5
tp536
a(S'in'
p537
S'in'
p538
S'IN'
p539
S'B-PP'
p540
g5
tp541
a(S'diabetics'
p542
S'diabetic'
p543
S'NNS'
p544
S'B-NP'
p545
g5
tp546
a(g386
g386
g386
g5
g5
tp547
a(S'24'
p548
S'24'
p549
S'CD'
p550
S'B-NP'
p551
g5
tp552
a(g393
g393
S'NN'
p553
S'I-NP'
p554
g5
tp555
a(g416
g416
g416
g5
g5
tp556
a(g17
g17
g17
g5
g5
tp557
a(g386
g386
g386
S'B-LST'
p558
g5
tp559
a(S'3'
p560
g560
S'LS'
p561
S'I-LST'
p562
g5
tp563
a(g416
g416
g416
g5
g5
tp564
a(S'stent'
p565
S'stent'
p566
S'JJ'
p567
S'B-NP'
p568
g5
tp569
a(S'thrombosis'
p570
S'thrombosis'
p571
S'NN'
p572
S'I-NP'
p573
g5
tp574
a(g386
g386
g386
g5
g5
tp575
a(g560
g560
S'CD'
p576
S'B-NP'
p577
g5
tp578
a(g393
g393
S'NN'
p579
S'I-NP'
p580
g5
tp581
a(g416
g416
g416
g5
g5
tp582
a(g17
g17
g17
g5
g5
tp583
a(g386
g386
g386
g5
g5
tp584
a(S'4'
p585
g585
S'CD'
p586
S'B-NP'
p587
g5
tp588
a(g416
g416
g416
g5
g5
tp589
a(S'left'
p590
S'leave'
p591
S'VBD'
p592
S'B-VP'
p593
g5
tp594
a(S'main'
p595
S'main'
p596
S'JJ'
p597
S'B-NP'
p598
g5
tp599
a(S'coronary'
p600
S'coronary'
p601
S'JJ'
p602
S'I-NP'
p603
g5
tp604
a(S'artery'
p605
S'artery'
p606
S'NN'
p607
S'I-NP'
p608
g5
tp609
a(S'drug-eluting'
p610
S'drug-eluting'
p611
S'JJ'
p612
S'I-NP'
p613
g5
tp614
a(S'stent'
p615
S'stent'
p616
S'JJ'
p617
S'I-NP'
p618
g5
tp619
a(S'implantation'
p620
S'implantation'
p621
S'NN'
p622
S'I-NP'
p623
g5
tp624
a(g386
g386
g386
g5
g5
tp625
a(S'6'
p626
g626
S'CD'
p627
S'B-NP'
p628
g5
tp629
a(g393
g393
S'NN'
p630
S'I-NP'
p631
g5
tp632
a(g416
g416
g416
g5
g5
tp633
a(g17
g17
g17
g5
g5
tp634
a(S'and'
p635
S'and'
p636
S'CC'
p637
g5
g5
tp638
a(g386
g386
g386
S'B-LST'
p639
g5
tp640
a(S'5'
p641
g641
S'LS'
p642
S'I-LST'
p643
g5
tp644
a(g416
g416
g416
g5
g5
tp645
a(S'percutaneous'
p646
S'percutaneous'
p647
S'JJ'
p648
S'B-NP'
p649
g5
tp650
a(S'coronary'
p651
S'coronary'
p652
S'JJ'
p653
S'I-NP'
p654
g5
tp655
a(S'intervention'
p656
S'intervention'
p657
S'NN'
p658
S'I-NP'
p659
g5
tp660
a(S'in'
p661
S'in'
p662
S'IN'
p663
S'B-PP'
p664
g5
tp665
a(S'patients'
p666
S'patient'
p667
S'NNS'
p668
S'B-NP'
p669
g5
tp670
a(S'with'
p671
S'with'
p672
S'IN'
p673
S'B-PP'
p674
g5
tp675
a(S'high'
p676
S'high'
p677
S'JJ'
p678
S'B-NP'
p679
g5
tp680
a(S'residual'
p681
S'residual'
p682
S'JJ'
p683
S'I-NP'
p684
g5
tp685
a(S'platelet'
p686
S'platelet'
p687
S'NN'
p688
S'I-NP'
p689
g5
tp690
a(S'reactivity'
p691
S'reactivity'
p692
S'NN'
p693
S'I-NP'
p694
g5
tp695
a(S'on'
p696
S'on'
p697
S'IN'
p698
S'B-PP'
p699
g5
tp700
a(S'clopidogrel'
p701
S'clopidogrel'
p702
S'NN'
p703
S'B-NP'
p704
g5
tp705
a(S'therapy'
p706
S'therapy'
p707
S'NN'
p708
S'I-NP'
p709
g5
tp710
a(g386
g386
g386
g5
g5
tp711
a(S'26'
p712
S'26'
p713
S'CD'
p714
S'B-NP'
p715
g5
tp716
a(g393
g393
S'NN'
p717
S'I-NP'
p718
g5
tp719
a(g416
g416
g416
g5
g5
tp720
a(g89
g89
g89
g5
g5
tp721
a(S'All'
p722
S'All'
p723
S'DT'
p724
S'B-NP'
p725
g5
tp726
a(S'patients'
p727
S'patient'
p728
S'NNS'
p729
S'I-NP'
p730
g5
tp731
a(S'received'
p732
S'receive'
p733
S'VBD'
p734
S'B-VP'
p735
g5
tp736
a(S'a'
p737
g737
S'DT'
p738
S'B-NP'
p739
g5
tp740
a(S'loading'
p741
S'loading'
p742
S'NN'
p743
S'I-NP'
p744
g5
tp745
a(S'of'
p746
S'of'
p747
S'IN'
p748
S'B-PP'
p749
g5
tp750
a(S'prasugrel'
p751
S'prasugrel'
p752
S'NN'
p753
S'B-NP'
p754
g5
tp755
a(S'60'
p756
S'60'
p757
S'CD'
p758
S'I-NP'
p759
g5
tp760
a(S'mg.'
p761
S'mg.'
p762
S'NN'
p763
S'I-NP'
p764
g5
tp765
a(S'Patients'
p766
S'Patient'
p767
S'NNS'
p768
S'I-NP'
p769
g5
tp770
a(S'\xe2\x89\xa575'
p771
S'\xe2\x89\xa575'
p772
S'CD'
p773
S'B-NP'
p774
g5
tp775
a(S'years'
p776
S'year'
p777
S'NNS'
p778
S'I-NP'
p779
g5
tp780
a(S'old'
p781
S'old'
p782
S'JJ'
p783
S'B-ADJP'
p784
g5
tp785
a(S'and'
p786
S'and'
p787
S'CC'
p788
g5
g5
tp789
a(S'with'
p790
S'with'
p791
S'IN'
p792
S'B-PP'
p793
g5
tp794
a(S'body'
p795
S'body'
p796
S'NN'
p797
S'B-NP'
p798
g5
tp799
a(S'weight'
p800
S'weight'
p801
S'NN'
p802
S'I-NP'
p803
g5
tp804
a(S'\xe2\x89\xa460'
p805
S'\xe2\x89\xa460'
p806
S'CD'
p807
S'I-NP'
p808
g5
tp809
a(S'kg'
p810
S'kg'
p811
S'NN'
p812
S'I-NP'
p813
g5
tp814
a(S'received'
p815
S'receive'
p816
S'VBD'
p817
S'B-VP'
p818
g5
tp819
a(g737
g737
S'DT'
p820
S'B-NP'
p821
g5
tp822
a(S'maintenance'
p823
S'maintenance'
p824
S'NN'
p825
S'I-NP'
p826
g5
tp827
a(S'dose'
p828
S'dose'
p829
S'NN'
p830
S'I-NP'
p831
g5
tp832
a(S'of'
p833
S'of'
p834
S'IN'
p835
S'B-PP'
p836
g5
tp837
a(g641
g641
S'CD'
p838
S'B-NP'
p839
g5
tp840
a(S'mg/day'
p841
S'mg/day'
p842
S'NN'
p843
S'I-NP'
p844
g5
tp845
a(g386
g386
g386
g5
g5
tp846
a(S'10'
p847
S'10'
p848
S'CD'
p849
S'B-NP'
p850
g5
tp851
a(S'mg/day'
p852
S'mg/day'
p853
S'NN'
p854
S'I-NP'
p855
g5
tp856
a(S'for'
p857
S'for'
p858
S'IN'
p859
S'B-PP'
p860
g5
tp861
a(S'all'
p862
S'all'
p863
S'PDT'
p864
S'B-NP'
p865
g5
tp866
a(S'the'
p867
S'the'
p868
S'DT'
p869
S'I-NP'
p870
g5
tp871
a(S'other'
p872
S'other'
p873
S'JJ'
p874
S'I-NP'
p875
g5
tp876
a(S'patients'
p877
S'patient'
p878
S'NNS'
p879
S'I-NP'
p880
g5
tp881
a(g416
g416
g416
g5
g5
tp882
a(g89
g89
g89
g5
g5
tp883
a(S'Follow-up'
p884
S'Follow-up'
p885
S'JJ'
p886
S'B-NP'
p887
g5
tp888
a(S'data'
p889
S'datum'
p890
S'NNS'
p891
S'I-NP'
p892
g5
tp893
a(S'including'
p894
S'include'
p895
S'VBG'
p896
S'B-PP'
p897
g5
tp898
a(S'adherence'
p899
S'adherence'
p900
S'NN'
p901
S'B-NP'
p902
g5
tp903
a(S'to'
p904
S'to'
p905
S'TO'
p906
S'B-PP'
p907
g5
tp908
a(S'prasugrel'
p909
S'prasugrel'
p910
S'NN'
p911
S'B-NP'
p912
g5
tp913
a(S'therapy'
p914
S'therapy'
p915
S'NN'
p916
S'I-NP'
p917
g5
tp918
a(S'were'
p919
S'be'
p920
S'VBD'
p921
S'B-VP'
p922
g5
tp923
a(S'collected'
p924
S'collect'
p925
S'VBN'
p926
S'I-VP'
p927
g5
tp928
a(S'by'
p929
S'by'
p930
S'IN'
p931
S'B-PP'
p932
g5
tp933
a(S'telephone'
p934
S'telephone'
p935
S'NN'
p936
S'B-NP'
p937
g5
tp938
a(S'interviews'
p939
S'interview'
p940
S'NNS'
p941
S'I-NP'
p942
g5
tp943
a(S'or'
p944
S'or'
p945
S'CC'
p946
g5
g5
tp947
a(S'outpatient'
p948
S'outpatient'
p949
S'NN'
p950
S'B-NP'
p951
g5
tp952
a(S'visits.'
p953
S'visits.'
p954
S'FW'
p955
S'I-NP'
p956
g5
tp957
a(S'Minimal'
p958
S'Minimal'
p959
S'JJ'
p960
S'I-NP'
p961
g5
tp962
a(S'follow-up'
p963
S'follow-up'
p964
S'JJ'
p965
S'I-NP'
p966
g5
tp967
a(S'length'
p968
S'length'
p969
S'NN'
p970
S'I-NP'
p971
g5
tp972
a(S'was'
p973
S'be'
p974
S'VBD'
p975
S'B-VP'
p976
g5
tp977
a(g626
g626
S'CD'
p978
S'B-NP'
p979
g5
tp980
a(S'months'
p981
S'month'
p982
S'NNS'
p983
S'I-NP'
p984
g5
tp985
a(g386
g386
g386
g5
g5
tp986
a(S'mean'
p987
S'mean'
p988
S'NN'
p989
S'B-NP'
p990
g5
tp991
a(S'9'
p992
g992
S'CD'
p993
S'I-NP'
p994
g5
tp995
a(S'\xc2\xb1'
p996
S'\xc2\xb1'
p997
S'NN'
p998
S'I-NP'
p999
g5
tp1000
a(g560
g560
S'CD'
p1001
S'I-NP'
p1002
g5
tp1003
a(g416
g416
g416
g5
g5
tp1004
a(g89
g89
g89
g5
g5
tp1005
a(S'Major'
p1006
S'Major'
p1007
S'JJ'
p1008
g5
g5
tp1009
a(g17
g17
g17
g5
g5
tp1010
a(S'minor'
p1011
S'minor'
p1012
S'JJ'
p1013
S'B-ADJP'
p1014
g5
tp1015
a(g17
g17
g17
g5
g5
tp1016
a(S'and'
p1017
S'and'
p1018
S'CC'
p1019
g5
g5
tp1020
a(S'minimal'
p1021
S'minimal'
p1022
S'JJ'
p1023
S'B-NP'
p1024
g5
tp1025
a(S'bleedings'
p1026
S'bleeding'
p1027
S'NNS'
p1028
S'I-NP'
p1029
g5
tp1030
a(g386
g386
g386
g5
g5
tp1031
a(S'Thrombolysis'
p1032
S'Thrombolysis'
p1033
S'NN'
p1034
S'B-NP'
p1035
g5
tp1036
a(S'In'
p1037
S'In'
p1038
S'IN'
p1039
S'B-PP'
p1040
g5
tp1041
a(S'Myocardial'
p1042
S'Myocardial'
p1043
S'JJ'
p1044
S'B-NP'
p1045
g5
tp1046
a(S'Infarction'
p1047
S'Infarction'
p1048
S'NN'
p1049
S'I-NP'
p1050
g5
tp1051
a(S'criteria'
p1052
S'criterion'
p1053
S'NNS'
p1054
S'I-NP'
p1055
g5
tp1056
a(g416
g416
g416
g5
g5
tp1057
a(S'occurred'
p1058
S'occur'
p1059
S'VBD'
p1060
S'B-VP'
p1061
g5
tp1062
a(S'in'
p1063
S'in'
p1064
S'IN'
p1065
S'B-PP'
p1066
g5
tp1067
a(S'2.7'
p1068
S'2.7'
p1069
S'CD'
p1070
S'B-NP'
p1071
g5
tp1072
a(g393
g393
S'NN'
p1073
S'I-NP'
p1074
g5
tp1075
a(g17
g17
g17
g5
g5
tp1076
a(S'4.7'
p1077
S'4.7'
p1078
S'CD'
p1079
S'B-NP'
p1080
g5
tp1081
a(g393
g393
S'NN'
p1082
S'I-NP'
p1083
g5
tp1084
a(g17
g17
g17
g5
g5
tp1085
a(S'and'
p1086
S'and'
p1087
S'CC'
p1088
g5
g5
tp1089
a(S'15.1'
p1090
S'15.1'
p1091
S'CD'
p1092
S'B-NP'
p1093
g5
tp1094
a(g393
g393
S'NN'
p1095
S'I-NP'
p1096
g5
tp1097
a(S'of'
p1098
S'of'
p1099
S'IN'
p1100
S'B-PP'
p1101
g5
tp1102
a(S'enrolled'
p1103
S'enrol'
p1104
S'VBN'
p1105
S'B-NP'
p1106
g5
tp1107
a(S'patients.'
p1108
S'patients.'
p1109
S'NN'
p1110
S'I-NP'
p1111
g5
tp1112
a(S'Low'
p1113
S'Low'
p1114
S'JJ'
p1115
S'I-NP'
p1116
g5
tp1117
a(S'residual'
p1118
S'residual'
p1119
S'JJ'
p1120
S'I-NP'
p1121
g5
tp1122
a(S'platelet'
p1123
S'platelet'
p1124
S'NN'
p1125
S'I-NP'
p1126
g5
tp1127
a(S'reactivity'
p1128
S'reactivity'
p1129
S'NN'
p1130
S'I-NP'
p1131
g5
tp1132
a(g386
g386
g386
g5
g5
tp1133
a(S'p'
p1134
g1134
S'NN'
p1135
S'B-NP'
p1136
g5
tp1137
a(S'='
p1138
g1138
S'SYM'
p1139
S'B-VP'
p1140
g5
tp1141
a(S'0.001'
p1142
S'0.001'
p1143
S'CD'
p1144
S'B-NP'
p1145
g5
tp1146
a(g416
g416
g416
g5
g5
tp1147
a(S'and'
p1148
S'and'
p1149
S'CC'
p1150
g5
g5
tp1151
a(S'female'
p1152
S'female'
p1153
S'JJ'
p1154
S'B-NP'
p1155
g5
tp1156
a(S'gender'
p1157
S'gender'
p1158
S'NN'
p1159
S'I-NP'
p1160
g5
tp1161
a(g386
g386
g386
g5
g5
tp1162
a(g1134
g1134
S'NN'
p1163
S'B-NP'
p1164
g5
tp1165
a(g1138
g1138
S'SYM'
p1166
S'B-VP'
p1167
g5
tp1168
a(S'0.29'
p1169
S'0.29'
p1170
S'CD'
p1171
S'B-NP'
p1172
g5
tp1173
a(g416
g416
g416
g5
g5
tp1174
a(S'were'
p1175
S'be'
p1176
S'VBD'
p1177
S'B-VP'
p1178
g5
tp1179
a(S'independent'
p1180
S'independent'
p1181
S'JJ'
p1182
S'B-NP'
p1183
g5
tp1184
a(S'predictors'
p1185
S'predictor'
p1186
S'NNS'
p1187
S'I-NP'
p1188
g5
tp1189
a(S'of'
p1190
S'of'
p1191
S'IN'
p1192
S'B-PP'
p1193
g5
tp1194
a(S'bleeding'
p1195
S'bleed'
p1196
S'VBG'
p1197
S'B-VP'
p1198
g5
tp1199
a(S'events.'
p1200
S'events.'
p1201
S'RB'
p1202
S'B-NP'
p1203
g5
tp1204
a(S'The'
p1205
S'The'
p1206
S'DT'
p1207
S'I-NP'
p1208
g5
tp1209
a(S'most'
p1210
S'most'
p1211
S'RBS'
p1212
S'I-NP'
p1213
g5
tp1214
a(S'frequent'
p1215
S'frequent'
p1216
S'JJ'
p1217
S'I-NP'
p1218
g5
tp1219
a(S'minimal'
p1220
S'minimal'
p1221
S'JJ'
p1222
S'I-NP'
p1223
g5
tp1224
a(S'bleeding'
p1225
S'bleeding'
p1226
S'NN'
p1227
S'I-NP'
p1228
g5
tp1229
a(S'event'
p1230
S'event'
p1231
S'NN'
p1232
S'I-NP'
p1233
g5
tp1234
a(S'was'
p1235
S'be'
p1236
S'VBD'
p1237
S'B-VP'
p1238
g5
tp1239
a(S'epistaxis.'
p1240
S'epistaxis.'
p1241
S'NN'
p1242
S'B-NP'
p1243
g5
tp1244
a(S'Only'
p1245
S'Only'
p1246
S'RB'
p1247
S'B-NP'
p1248
g5
tp1249
a(S'8'
p1250
g1250
S'CD'
p1251
S'I-NP'
p1252
g5
tp1253
a(S'patients'
p1254
S'patient'
p1255
S'NNS'
p1256
S'I-NP'
p1257
g5
tp1258
a(g386
g386
g386
g5
g5
tp1259
a(S'2.7'
p1260
S'2.7'
p1261
S'CD'
p1262
S'B-NP'
p1263
g5
tp1264
a(g393
g393
S'NN'
p1265
S'I-NP'
p1266
g5
tp1267
a(g416
g416
g416
g5
g5
tp1268
a(S'permanently'
p1269
S'permanently'
p1270
S'RB'
p1271
S'B-ADVP'
p1272
g5
tp1273
a(S'discontinued'
p1274
S'discontinue'
p1275
S'VBD'
p1276
S'B-VP'
p1277
g5
tp1278
a(S'prasugrel'
p1279
S'prasugrel'
p1280
S'NN'
p1281
S'B-NP'
p1282
g5
tp1283
a(S'therapy'
p1284
S'therapy'
p1285
S'NN'
p1286
S'I-NP'
p1287
g5
tp1288
a(S'because'
p1289
S'because'
p1290
S'IN'
p1291
S'B-PP'
p1292
g5
tp1293
a(S'of'
p1294
S'of'
p1295
S'IN'
p1296
S'I-PP'
p1297
g5
tp1298
a(S'bleeding'
p1299
S'bleed'
p1300
S'VBG'
p1301
S'B-VP'
p1302
g5
tp1303
a(S'events'
p1304
S'event'
p1305
S'NNS'
p1306
S'B-NP'
p1307
g5
tp1308
a(g386
g386
g386
g5
g5
tp1309
a(S'n'
p1310
g1310
S'NN'
p1311
S'B-NP'
p1312
g5
tp1313
a(g1138
g1138
S'SYM'
p1314
S'B-VP'
p1315
g5
tp1316
a(g585
g585
S'CD'
p1317
S'B-NP'
p1318
g5
tp1319
a(g416
g416
g416
g5
g5
tp1320
a(g17
g17
g17
g5
g5
tp1321
a(S'possible'
p1322
S'possible'
p1323
S'JJ'
p1324
S'B-NP'
p1325
g5
tp1326
a(S'side'
p1327
S'side'
p1328
S'NN'
p1329
S'I-NP'
p1330
g5
tp1331
a(S'effects'
p1332
S'effect'
p1333
S'NNS'
p1334
S'I-NP'
p1335
g5
tp1336
a(g386
g386
g386
g5
g5
tp1337
a(g1310
g1310
S'NN'
p1338
S'B-NP'
p1339
g5
tp1340
a(g1138
g1138
S'SYM'
p1341
S'B-VP'
p1342
g5
tp1343
a(g517
g517
S'CD'
p1344
S'B-NP'
p1345
g5
tp1346
a(g416
g416
g416
g5
g5
tp1347
a(g17
g17
g17
g5
g5
tp1348
a(S'or'
p1349
S'or'
p1350
S'CC'
p1351
g5
g5
tp1352
a(S'medical'
p1353
S'medical'
p1354
S'JJ'
p1355
S'B-NP'
p1356
g5
tp1357
a(S'decisions'
p1358
S'decision'
p1359
S'NNS'
p1360
S'I-NP'
p1361
g5
tp1362
a(S'not'
p1363
S'not'
p1364
S'RB'
p1365
S'B-VP'
p1366
g5
tp1367
a(S'associated'
p1368
S'associate'
p1369
S'VBN'
p1370
S'I-VP'
p1371
g5
tp1372
a(S'with'
p1373
S'with'
p1374
S'IN'
p1375
S'B-PP'
p1376
g5
tp1377
a(S'bleeding'
p1378
S'bleed'
p1379
S'VBG'
p1380
S'B-VP'
p1381
g5
tp1382
a(S'or'
p1383
S'or'
p1384
S'CC'
p1385
g5
g5
tp1386
a(S'side'
p1387
S'side'
p1388
S'JJ'
p1389
S'B-NP'
p1390
g5
tp1391
a(S'effects'
p1392
S'effect'
p1393
S'NNS'
p1394
S'I-NP'
p1395
g5
tp1396
a(g386
g386
g386
g5
g5
tp1397
a(g1310
g1310
S'NN'
p1398
S'B-NP'
p1399
g5
tp1400
a(g1138
g1138
S'SYM'
p1401
S'B-VP'
p1402
g5
tp1403
a(g517
g517
S'CD'
p1404
S'B-NP'
p1405
g5
tp1406
a(g416
g416
g416
g5
g5
tp1407
a(g89
g89
g89
g5
g5
tp1408
a(S'Fourteen'
p1409
S'Fourteen'
p1410
S'CD'
p1411
S'B-NP'
p1412
g5
tp1413
a(S'patients'
p1414
S'patient'
p1415
S'NNS'
p1416
S'I-NP'
p1417
g5
tp1418
a(g386
g386
g386
g5
g5
tp1419
a(S'4.7'
p1420
S'4.7'
p1421
S'CD'
p1422
S'B-NP'
p1423
g5
tp1424
a(g393
g393
S'NN'
p1425
S'I-NP'
p1426
g5
tp1427
a(g416
g416
g416
g5
g5
tp1428
a(S'temporarily'
p1429
S'temporarily'
p1430
S'RB'
p1431
S'B-ADVP'
p1432
g5
tp1433
a(S'discontinued'
p1434
S'discontinue'
p1435
S'VBD'
p1436
S'B-VP'
p1437
g5
tp1438
a(S'prasugrel'
p1439
S'prasugrel'
p1440
S'NN'
p1441
S'B-NP'
p1442
g5
tp1443
a(g386
g386
g386
g5
g5
tp1444
a(S'average'
p1445
S'average'
p1446
S'NN'
p1447
S'B-NP'
p1448
g5
tp1449
a(S'6.5'
p1450
S'6.5'
p1451
S'CD'
p1452
S'B-NP'
p1453
g5
tp1454
a(S'days'
p1455
S'day'
p1456
S'NNS'
p1457
S'I-NP'
p1458
g5
tp1459
a(g416
g416
g416
g5
g5
tp1460
a(S'mainly'
p1461
S'mainly'
p1462
S'RB'
p1463
S'B-ADVP'
p1464
g5
tp1465
a(S'because'
p1466
S'because'
p1467
S'IN'
p1468
S'B-PP'
p1469
g5
tp1470
a(S'of'
p1471
S'of'
p1472
S'IN'
p1473
S'I-PP'
p1474
g5
tp1475
a(S'surgical'
p1476
S'surgical'
p1477
S'JJ'
p1478
S'B-NP'
p1479
g5
tp1480
a(S'procedures.'
p1481
S'procedures.'
p1482
S'NN'
p1483
S'I-NP'
p1484
g5
tp1485
a(S'No'
p1486
S'No'
p1487
S'DT'
p1488
S'B-NP'
p1489
g5
tp1490
a(S'definite'
p1491
S'definite'
p1492
S'JJ'
p1493
S'I-NP'
p1494
g5
tp1495
a(S'or'
p1496
S'or'
p1497
S'CC'
p1498
S'I-NP'
p1499
g5
tp1500
a(S'probable'
p1501
S'probable'
p1502
S'JJ'
p1503
S'I-NP'
p1504
g5
tp1505
a(S'stent'
p1506
S'stent'
p1507
S'JJ'
p1508
S'I-NP'
p1509
g5
tp1510
a(S'thrombosis'
p1511
S'thrombosis'
p1512
S'NN'
p1513
S'I-NP'
p1514
g5
tp1515
a(S'occurred'
p1516
S'occur'
p1517
S'VBD'
p1518
S'B-VP'
p1519
g5
tp1520
a(g17
g17
g17
g5
g5
tp1521
a(S'although'
p1522
S'although'
p1523
S'IN'
p1524
S'B-SBAR'
p1525
g5
tp1526
a(g560
g560
S'CD'
p1527
S'B-NP'
p1528
g5
tp1529
a(S'patients'
p1530
S'patient'
p1531
S'NNS'
p1532
S'I-NP'
p1533
g5
tp1534
a(S'develop'
p1535
S'develop'
p1536
S'VBP'
p1537
S'B-VP'
p1538
g5
tp1539
a(S'de'
p1540
S'de'
p1541
S'FW'
p1542
S'B-NP'
p1543
g5
tp1544
a(S'novo'
p1545
S'novo'
p1546
S'FW'
p1547
S'I-NP'
p1548
g5
tp1549
a(S'myocardial'
p1550
S'myocardial'
p1551
S'JJ'
p1552
S'I-NP'
p1553
g5
tp1554
a(S'infarction'
p1555
S'infarction'
p1556
S'NN'
p1557
S'I-NP'
p1558
g5
tp1559
a(S'and'
p1560
S'and'
p1561
S'CC'
p1562
g5
g5
tp1563
a(g479
g479
S'CD'
p1564
S'B-NP'
p1565
g5
tp1566
a(S'an'
p1567
S'an'
p1568
S'DT'
p1569
S'B-NP'
p1570
g5
tp1571
a(S'ischemic'
p1572
S'ischemic'
p1573
S'JJ'
p1574
S'I-NP'
p1575
g5
tp1576
a(S'stroke.'
p1577
S'stroke.'
p1578
S'NN'
p1579
S'I-NP'
p1580
g5
tp1581
a(S'There'
p1582
S'There'
p1583
S'EX'
p1584
S'B-NP'
p1585
g5
tp1586
a(S'were'
p1587
S'be'
p1588
S'VBD'
p1589
S'B-VP'
p1590
g5
tp1591
a(S'11'
p1592
S'11'
p1593
S'CD'
p1594
S'B-NP'
p1595
g5
tp1596
a(S'deaths'
p1597
S'death'
p1598
S'NNS'
p1599
S'I-NP'
p1600
g5
tp1601
a(S'because'
p1602
S'because'
p1603
S'IN'
p1604
S'B-PP'
p1605
g5
tp1606
a(S'of'
p1607
S'of'
p1608
S'IN'
p1609
S'I-PP'
p1610
g5
tp1611
a(S'heart'
p1612
S'heart'
p1613
S'NN'
p1614
S'B-NP'
p1615
g5
tp1616
a(S'failure'
p1617
S'failure'
p1618
S'NN'
p1619
S'I-NP'
p1620
g5
tp1621
a(S'or'
p1622
S'or'
p1623
S'CC'
p1624
g5
g5
tp1625
a(S'refractory'
p1626
S'refractory'
p1627
S'JJ'
p1628
S'B-NP'
p1629
g5
tp1630
a(S'cardiogenic'
p1631
S'cardiogenic'
p1632
S'JJ'
p1633
S'I-NP'
p1634
g5
tp1635
a(S'shock'
p1636
S'shock'
p1637
S'NN'
p1638
S'I-NP'
p1639
g5
tp1640
a(S'in'
p1641
S'in'
p1642
S'IN'
p1643
S'B-PP'
p1644
g5
tp1645
a(g992
g992
S'CD'
p1646
S'B-NP'
p1647
g5
tp1648
a(g17
g17
g17
g5
g5
tp1649
a(S'pulmonary'
p1650
S'pulmonary'
p1651
S'JJ'
p1652
S'B-NP'
p1653
g5
tp1654
a(S'embolism'
p1655
S'embolism'
p1656
S'NN'
p1657
S'I-NP'
p1658
g5
tp1659
a(S'in'
p1660
S'in'
p1661
S'IN'
p1662
S'B-PP'
p1663
g5
tp1664
a(g479
g479
S'CD'
p1665
S'B-NP'
p1666
g5
tp1667
a(g17
g17
g17
g5
g5
tp1668
a(S'and'
p1669
S'and'
p1670
S'CC'
p1671
g5
g5
tp1672
a(S'cancer'
p1673
S'cancer'
p1674
S'NN'
p1675
S'B-NP'
p1676
g5
tp1677
a(S'in'
p1678
S'in'
p1679
S'IN'
p1680
S'B-PP'
p1681
g5
tp1682
a(S'1.'
p1683
S'1.'
p1684
S'CD'
p1685
S'B-NP'
p1686
g5
tp1687
a(S'In'
p1688
S'In'
p1689
S'IN'
p1690
S'B-PP'
p1691
g5
tp1692
a(S'conclusion'
p1693
S'conclusion'
p1694
S'NN'
p1695
S'B-NP'
p1696
g5
tp1697
a(g17
g17
g17
g5
g5
tp1698
a(S'in'
p1699
S'in'
p1700
S'IN'
p1701
S'B-PP'
p1702
g5
tp1703
a(S'clinical'
p1704
S'clinical'
p1705
S'JJ'
p1706
S'B-NP'
p1707
g5
tp1708
a(S'practice'
p1709
S'practice'
p1710
S'NN'
p1711
S'I-NP'
p1712
g5
tp1713
a(g17
g17
g17
g5
g5
tp1714
a(S'major'
p1715
S'major'
p1716
S'JJ'
p1717
S'B-NP'
p1718
g5
tp1719
a(S'and'
p1720
S'and'
p1721
S'CC'
p1722
S'I-NP'
p1723
g5
tp1724
a(S'minor'
p1725
S'minor'
p1726
S'JJ'
p1727
S'I-NP'
p1728
g5
tp1729
a(S'bleeding'
p1730
S'bleed'
p1731
S'VBG'
p1732
S'I-NP'
p1733
g5
tp1734
a(S'event'
p1735
S'event'
p1736
S'NN'
p1737
S'I-NP'
p1738
g5
tp1739
a(S'rates'
p1740
S'rate'
p1741
S'NNS'
p1742
S'I-NP'
p1743
g5
tp1744
a(S'associated'
p1745
S'associate'
p1746
S'VBN'
p1747
S'B-VP'
p1748
g5
tp1749
a(S'with'
p1750
S'with'
p1751
S'IN'
p1752
S'B-PP'
p1753
g5
tp1754
a(S'prasugrel'
p1755
S'prasugrel'
p1756
S'NN'
p1757
S'B-NP'
p1758
g5
tp1759
a(S'therapy'
p1760
S'therapy'
p1761
S'NN'
p1762
S'I-NP'
p1763
g5
tp1764
a(S'are'
p1765
S'be'
p1766
S'VBP'
p1767
S'B-VP'
p1768
g5
tp1769
a(S'comparable'
p1770
S'comparable'
p1771
S'JJ'
p1772
S'B-ADJP'
p1773
g5
tp1774
a(S'to'
p1775
S'to'
p1776
S'TO'
p1777
S'B-PP'
p1778
g5
tp1779
a(S'those'
p1780
S'those'
p1781
S'DT'
p1782
S'B-NP'
p1783
g5
tp1784
a(S'reported'
p1785
S'report'
p1786
S'VBN'
p1787
S'B-VP'
p1788
g5
tp1789
a(S'in'
p1790
S'in'
p1791
S'IN'
p1792
S'B-PP'
p1793
g5
tp1794
a(S'controlled'
p1795
S'control'
p1796
S'VBN'
p1797
S'B-NP'
p1798
g5
tp1799
a(S'randomized'
p1800
S'randomize'
p1801
S'VBN'
p1802
S'I-NP'
p1803
g5
tp1804
a(S'trials.'
p1805
S'trials.'
p1806
S'NN'
p1807
S'I-NP'
p1808
g5
tp1809
a(S'The'
p1810
S'The'
p1811
S'DT'
p1812
S'B-NP'
p1813
g5
tp1814
a(S'minimal'
p1815
S'minimal'
p1816
S'JJ'
p1817
S'I-NP'
p1818
g5
tp1819
a(S'bleeding'
p1820
S'bleeding'
p1821
S'NN'
p1822
S'I-NP'
p1823
g5
tp1824
a(S'event'
p1825
S'event'
p1826
S'NN'
p1827
S'I-NP'
p1828
g5
tp1829
a(S'rate'
p1830
S'rate'
p1831
S'NN'
p1832
S'I-NP'
p1833
g5
tp1834
a(S'is'
p1835
S'be'
p1836
S'VBZ'
p1837
S'B-VP'
p1838
g5
tp1839
a(S'higher'
p1840
S'high'
p1841
S'JJR'
p1842
S'B-ADJP'
p1843
g5
tp1844
a(S'than'
p1845
S'than'
p1846
S'IN'
p1847
S'B-PP'
p1848
g5
tp1849
a(S'reported'
p1850
S'report'
p1851
S'VBN'
p1852
S'B-VP'
p1853
g5
tp1854
a(S'but'
p1855
S'but'
p1856
S'CC'
p1857
g5
g5
tp1858
a(S'does'
p1859
S'do'
p1860
S'VBZ'
p1861
S'B-VP'
p1862
g5
tp1863
a(S'not'
p1864
S'not'
p1865
S'RB'
p1866
S'I-VP'
p1867
g5
tp1868
a(S'seem'
p1869
S'seem'
p1870
S'VB'
p1871
S'I-VP'
p1872
g5
tp1873
a(S'to'
p1874
S'to'
p1875
S'TO'
p1876
S'I-VP'
p1877
g5
tp1878
a(S'affect'
p1879
S'affect'
p1880
S'VB'
p1881
S'I-VP'
p1882
g5
tp1883
a(S'adherence'
p1884
S'adherence'
p1885
S'NN'
p1886
S'B-NP'
p1887
g5
tp1888
a(S'to'
p1889
S'to'
p1890
S'TO'
p1891
S'B-PP'
p1892
g5
tp1893
a(S'treatment'
p1894
S'treatment'
p1895
S'NN'
p1896
S'B-NP'
p1897
g5
tp1898
a(g89
g89
g89
g5
g5
tp1899
a.