(lp0
(S'Pulse'
p1
S'Pulse'
p2
S'NN'
p3
S'B-NP'
p4
S'O'
p5
tp6
a(S'versus'
p7
S'versus'
p8
S'CC'
p9
g5
g5
tp10
a(S'continuous'
p11
S'continuous'
p12
S'JJ'
p13
S'B-NP'
p14
g5
tp15
a(S'terbinafine'
p16
S'terbinafine'
p17
S'NN'
p18
S'I-NP'
p19
g5
tp20
a(S'for'
p21
S'for'
p22
S'IN'
p23
S'B-PP'
p24
g5
tp25
a(S'onychomycosis'
p26
S'onychomycosis'
p27
S'NN'
p28
S'B-NP'
p29
g5
tp30
a(S':'
p31
g31
g31
g5
g5
tp32
a(S'a'
p33
g33
S'DT'
p34
S'B-NP'
p35
g5
tp36
a(S'randomized'
p37
S'randomize'
p38
S'VBN'
p39
S'I-NP'
p40
g5
tp41
a(S','
p42
g42
g42
S'I-NP'
p43
g5
tp44
a(S'double-blind'
p45
S'double-blind'
p46
S'JJ'
p47
S'I-NP'
p48
g5
tp49
a(g42
g42
g42
S'I-NP'
p50
g5
tp51
a(S'controlled'
p52
S'controlled'
p53
S'JJ'
p54
S'I-NP'
p55
g5
tp56
a(S'trial'
p57
S'trial'
p58
S'NN'
p59
S'I-NP'
p60
g5
tp61
a(S'.'
p62
g62
g62
g5
g5
tp63
a(S'BACKGROUND'
p64
S'BACKGROUND'
p65
S'NN'
p66
S'B-NP'
p67
g5
tp68
a(S'Effective'
p69
S'Effective'
p70
S'JJ'
p71
S'I-NP'
p72
g5
tp73
a(S'treatments'
p74
S'treatment'
p75
S'NNS'
p76
S'I-NP'
p77
g5
tp78
a(S'for'
p79
S'for'
p80
S'IN'
p81
S'B-PP'
p82
g5
tp83
a(S'onychomycosis'
p84
S'onychomycosis'
p85
S'NN'
p86
S'B-NP'
p87
g5
tp88
a(S'are'
p89
S'be'
p90
S'VBP'
p91
S'B-VP'
p92
g5
tp93
a(S'expensive.'
p94
S'expensive.'
p95
S'JJ'
p96
S'B-NP'
p97
g5
tp98
a(S'Previous'
p99
S'Previous'
p100
S'JJ'
p101
S'I-NP'
p102
g5
tp103
a(S'studies'
p104
S'study'
p105
S'NNS'
p106
S'I-NP'
p107
g5
tp108
a(S'suggest'
p109
S'suggest'
p110
S'VBP'
p111
S'B-VP'
p112
g5
tp113
a(S'that'
p114
S'that'
p115
S'IN'
p116
S'B-SBAR'
p117
g5
tp118
a(S'less'
p119
S'less'
p120
S'RBR'
p121
S'B-NP'
p122
g5
tp123
a(S'costly'
p124
S'costly'
p125
S'JJ'
p126
S'I-NP'
p127
g5
tp128
a(g42
g42
g42
S'I-NP'
p129
g5
tp130
a(S'pulsed'
p131
S'pulsed'
p132
S'JJ'
p133
S'I-NP'
p134
g5
tp135
a(S'doses'
p136
S'dose'
p137
S'NNS'
p138
S'I-NP'
p139
g5
tp140
a(S'of'
p141
S'of'
p142
S'IN'
p143
S'B-PP'
p144
g5
tp145
a(S'antifungal'
p146
S'antifungal'
p147
S'JJ'
p148
S'B-NP'
p149
g5
tp150
a(S'medications'
p151
S'medication'
p152
S'NNS'
p153
S'I-NP'
p154
g5
tp155
a(S'may'
p156
S'may'
p157
S'MD'
p158
S'B-VP'
p159
g5
tp160
a(S'be'
p161
S'be'
p162
S'VB'
p163
S'I-VP'
p164
g5
tp165
a(S'as'
p166
S'as'
p167
S'RB'
p168
S'B-ADJP'
p169
g5
tp170
a(S'effective'
p171
S'effective'
p172
S'JJ'
p173
S'I-ADJP'
p174
g5
tp175
a(S'as'
p176
S'as'
p177
S'IN'
p178
S'B-PP'
p179
g5
tp180
a(S'standard'
p181
S'standard'
p182
S'JJ'
p183
S'B-NP'
p184
g5
tp185
a(g42
g42
g42
S'I-NP'
p186
g5
tp187
a(S'continuous'
p188
S'continuous'
p189
S'JJ'
p190
S'I-NP'
p191
g5
tp192
a(S'doses.'
p193
S'doses.'
p194
S'NN'
p195
S'I-NP'
p196
g5
tp197
a(S'Terbinafine'
p198
S'Terbinafine'
p199
S'NN'
p200
S'I-NP'
p201
g5
tp202
a(S'is'
p203
S'be'
p204
S'VBZ'
p205
S'B-VP'
p206
g5
tp207
a(S'the'
p208
S'the'
p209
S'DT'
p210
S'B-NP'
p211
g5
tp212
a(S'current'
p213
S'current'
p214
S'JJ'
p215
S'I-NP'
p216
g5
tp217
a(S'treatment'
p218
S'treatment'
p219
S'NN'
p220
S'I-NP'
p221
g5
tp222
a(S'of'
p223
S'of'
p224
S'IN'
p225
S'B-PP'
p226
g5
tp227
a(S'choice'
p228
S'choice'
p229
S'NN'
p230
S'B-NP'
p231
g5
tp232
a(S'for'
p233
S'for'
p234
S'IN'
p235
S'B-PP'
p236
g5
tp237
a(S'toenail'
p238
S'toenail'
p239
S'NN'
p240
S'B-NP'
p241
g5
tp242
a(S'onychomycosis'
p243
S'onychomycosis'
p244
S'NN'
p245
S'I-NP'
p246
g5
tp247
a(g62
g62
g62
g5
g5
tp248
a(S'OBJECTIVE'
p249
S'OBJECTIVE'
p250
S'NN'
p251
S'B-NP'
p252
g5
tp253
a(S'Our'
p254
S'Our'
p255
S'PRP$'
p256
S'B-NP'
p257
g5
tp258
a(S'purpose'
p259
S'purpose'
p260
S'NN'
p261
S'I-NP'
p262
g5
tp263
a(S'was'
p264
S'be'
p265
S'VBD'
p266
S'B-VP'
p267
g5
tp268
a(S'to'
p269
S'to'
p270
S'TO'
p271
S'B-VP'
p272
g5
tp273
a(S'determine'
p274
S'determine'
p275
S'VB'
p276
S'I-VP'
p277
g5
tp278
a(S'whether'
p279
S'whether'
p280
S'IN'
p281
S'B-SBAR'
p282
g5
tp283
a(S'pulse-dose'
p284
S'pulse-dose'
p285
S'JJ'
p286
S'B-NP'
p287
g5
tp288
a(S'terbinafine'
p289
S'terbinafine'
p290
S'NN'
p291
S'I-NP'
p292
g5
tp293
a(S'is'
p294
S'be'
p295
S'VBZ'
p296
S'B-VP'
p297
g5
tp298
a(S'as'
p299
S'as'
p300
S'RB'
p301
S'B-ADJP'
p302
g5
tp303
a(S'effective'
p304
S'effective'
p305
S'JJ'
p306
S'I-ADJP'
p307
g5
tp308
a(S'as'
p309
S'as'
p310
S'IN'
p311
S'B-PP'
p312
g5
tp313
a(S'standard'
p314
S'standard'
p315
S'JJ'
p316
S'B-NP'
p317
g5
tp318
a(S'continuous-dose'
p319
S'continuous-dose'
p320
S'JJ'
p321
S'I-NP'
p322
g5
tp323
a(S'terbinafine'
p324
S'terbinafine'
p325
S'NN'
p326
S'I-NP'
p327
g5
tp328
a(S'for'
p329
S'for'
p330
S'IN'
p331
S'B-PP'
p332
g5
tp333
a(S'treatment'
p334
S'treatment'
p335
S'NN'
p336
S'B-NP'
p337
g5
tp338
a(S'of'
p339
S'of'
p340
S'IN'
p341
S'B-PP'
p342
g5
tp343
a(S'toenail'
p344
S'toenail'
p345
S'NN'
p346
S'B-NP'
p347
g5
tp348
a(S'onychomycosis'
p349
S'onychomycosis'
p350
S'NN'
p351
S'I-NP'
p352
g5
tp353
a(g62
g62
g62
g5
g5
tp354
a(S'METHODS'
p355
S'METHODS'
p356
S'NNS'
p357
S'B-NP'
p358
g5
tp359
a(S'We'
p360
S'We'
p361
S'PRP'
p362
S'B-NP'
p363
g5
tp364
a(S'conducted'
p365
S'conduct'
p366
S'VBD'
p367
S'B-VP'
p368
g5
tp369
a(g33
g33
S'DT'
p370
S'B-NP'
p371
g5
tp372
a(S'double-blind'
p373
S'double-blind'
p374
S'JJ'
p375
S'I-NP'
p376
g5
tp377
a(g42
g42
g42
g5
g5
tp378
a(S'randomized'
p379
S'randomize'
p380
S'VBN'
p381
S'B-VP'
p382
g5
tp383
a(g42
g42
g42
g5
g5
tp384
a(S'noninferiority'
p385
S'noninferiority'
p386
S'NN'
p387
S'B-NP'
p388
g5
tp389
a(g42
g42
g42
g5
g5
tp390
a(S'clinical'
p391
S'clinical'
p392
S'JJ'
p393
S'B-NP'
p394
g5
tp395
a(S'intervention'
p396
S'intervention'
p397
S'NN'
p398
S'I-NP'
p399
g5
tp400
a(S'trial'
p401
S'trial'
p402
S'NN'
p403
S'I-NP'
p404
g5
tp405
a(S'in'
p406
S'in'
p407
S'IN'
p408
S'B-PP'
p409
g5
tp410
a(S'the'
p411
S'the'
p412
S'DT'
p413
S'B-NP'
p414
g5
tp415
a(S'Minneapolis'
p416
S'Minneapolis'
p417
S'NNP'
p418
S'I-NP'
p419
g5
tp420
a(S'Veterans'
p421
S'Veterans'
p422
S'NNP'
p423
S'I-NP'
p424
g5
tp425
a(S'Affairs'
p426
S'Affairs'
p427
S'NNP'
p428
S'I-NP'
p429
g5
tp430
a(S'Medical'
p431
S'Medical'
p432
S'NNP'
p433
S'I-NP'
p434
g5
tp435
a(S'Center.'
p436
S'Center.'
p437
S'NNP'
p438
S'I-NP'
p439
g5
tp440
a(S'The'
p441
S'The'
p442
S'DT'
p443
S'B-NP'
p444
g5
tp445
a(S'main'
p446
S'main'
p447
S'JJ'
p448
S'I-NP'
p449
g5
tp450
a(S'inclusion'
p451
S'inclusion'
p452
S'NN'
p453
S'I-NP'
p454
g5
tp455
a(S'criteria'
p456
S'criterion'
p457
S'NNS'
p458
S'I-NP'
p459
g5
tp460
a(S'for'
p461
S'for'
p462
S'IN'
p463
S'B-PP'
p464
g5
tp465
a(S'participants'
p466
S'participant'
p467
S'NNS'
p468
S'B-NP'
p469
g5
tp470
a(S'were'
p471
S'be'
p472
S'VBD'
p473
S'B-VP'
p474
g5
tp475
a(g33
g33
S'DT'
p476
S'B-NP'
p477
g5
tp478
a(S'positive'
p479
S'positive'
p480
S'JJ'
p481
S'I-NP'
p482
S'B-cell_line'
p483
tp484
a(S'dermatophyte'
p485
S'dermatophyte'
p486
S'NN'
p487
S'I-NP'
p488
S'I-cell_line'
p489
tp490
a(S'culture'
p491
S'culture'
p492
S'NN'
p493
S'I-NP'
p494
S'I-cell_line'
p495
tp496
a(S'and'
p497
S'and'
p498
S'CC'
p499
g5
g5
tp500
a(S'at'
p501
S'at'
p502
S'IN'
p503
S'B-NP'
p504
g5
tp505
a(S'least'
p506
S'least'
p507
S'JJS'
p508
S'I-NP'
p509
g5
tp510
a(S'25'
p511
S'25'
p512
S'CD'
p513
S'I-NP'
p514
g5
tp515
a(S'%'
p516
g516
S'NN'
p517
S'I-NP'
p518
g5
tp519
a(S'distal'
p520
S'distal'
p521
S'JJ'
p522
S'I-NP'
p523
g5
tp524
a(S'subungual'
p525
S'subungual'
p526
S'JJ'
p527
S'I-NP'
p528
g5
tp529
a(S'clinical'
p530
S'clinical'
p531
S'JJ'
p532
S'I-NP'
p533
g5
tp534
a(S'involvement.'
p535
S'involvement.'
p536
S'NN'
p537
S'I-NP'
p538
g5
tp539
a(S'Six'
p540
S'Six'
p541
S'CD'
p542
S'I-NP'
p543
g5
tp544
a(S'hundred'
p545
S'hundred'
p546
S'CD'
p547
S'I-NP'
p548
g5
tp549
a(S'eighteen'
p550
S'eighteen'
p551
S'CD'
p552
S'I-NP'
p553
g5
tp554
a(S'volunteers'
p555
S'volunteer'
p556
S'NNS'
p557
S'I-NP'
p558
g5
tp559
a(S'were'
p560
S'be'
p561
S'VBD'
p562
S'B-VP'
p563
g5
tp564
a(S'screened'
p565
S'screen'
p566
S'VBN'
p567
S'I-VP'
p568
g5
tp569
a(S';'
p570
g570
g31
g5
g5
tp571
a(S'306'
p572
S'306'
p573
S'CD'
p574
S'B-NP'
p575
g5
tp576
a(S'were'
p577
S'be'
p578
S'VBD'
p579
S'B-VP'
p580
g5
tp581
a(S'randomized.'
p582
S'randomized.'
p583
S'VBN'
p584
S'I-VP'
p585
g5
tp586
a(S'Terbinafine'
p587
S'Terbinafine'
p588
S'NN'
p589
S'B-NP'
p590
g5
tp591
a(g42
g42
g42
g5
g5
tp592
a(S'250'
p593
S'250'
p594
S'CD'
p595
S'B-NP'
p596
g5
tp597
a(S'mg'
p598
S'mg'
p599
S'NN'
p600
S'I-NP'
p601
g5
tp602
a(S'daily'
p603
S'daily'
p604
S'RB'
p605
S'B-ADVP'
p606
g5
tp607
a(S'for'
p608
S'for'
p609
S'IN'
p610
S'B-PP'
p611
g5
tp612
a(S'3'
p613
g613
S'CD'
p614
S'B-NP'
p615
g5
tp616
a(S'months'
p617
S'month'
p618
S'NNS'
p619
S'I-NP'
p620
g5
tp621
a(S'('
p622
g622
g622
g5
g5
tp623
a(S'continuous'
p624
S'continuous'
p625
S'JJ'
p626
S'B-ADJP'
p627
g5
tp628
a(S')'
p629
g629
g629
g5
g5
tp630
a(S'or'
p631
S'or'
p632
S'CC'
p633
g5
g5
tp634
a(S'terbinafine'
p635
S'terbinafine'
p636
S'NN'
p637
S'B-NP'
p638
g5
tp639
a(g42
g42
g42
g5
g5
tp640
a(S'500'
p641
S'500'
p642
S'CD'
p643
S'B-NP'
p644
g5
tp645
a(S'mg'
p646
S'mg'
p647
S'NN'
p648
S'I-NP'
p649
g5
tp650
a(S'daily'
p651
S'daily'
p652
S'RB'
p653
S'B-ADVP'
p654
g5
tp655
a(S'for'
p656
S'for'
p657
S'IN'
p658
S'B-PP'
p659
g5
tp660
a(S'1'
p661
g661
S'CD'
p662
S'B-NP'
p663
g5
tp664
a(S'week'
p665
S'week'
p666
S'NN'
p667
S'I-NP'
p668
g5
tp669
a(S'per'
p670
S'per'
p671
S'IN'
p672
S'B-PP'
p673
g5
tp674
a(S'month'
p675
S'month'
p676
S'NN'
p677
S'B-NP'
p678
g5
tp679
a(S'for'
p680
S'for'
p681
S'IN'
p682
S'B-PP'
p683
g5
tp684
a(g613
g613
S'CD'
p685
S'B-NP'
p686
g5
tp687
a(S'months'
p688
S'month'
p689
S'NNS'
p690
S'I-NP'
p691
g5
tp692
a(g622
g622
g622
g5
g5
tp693
a(S'pulse'
p694
S'pulse'
p695
S'NN'
p696
S'B-NP'
p697
g5
tp698
a(g629
g629
g629
g5
g5
tp699
a(S'was'
p700
S'be'
p701
S'VBD'
p702
S'B-VP'
p703
g5
tp704
a(S'administered.'
p705
S'administered.'
p706
S'VBN'
p707
S'I-VP'
p708
g5
tp709
a(S'The'
p710
S'The'
p711
S'DT'
p712
S'B-NP'
p713
g5
tp714
a(S'primary'
p715
S'primary'
p716
S'JJ'
p717
S'I-NP'
p718
g5
tp719
a(S'outcome'
p720
S'outcome'
p721
S'NN'
p722
S'I-NP'
p723
g5
tp724
a(S'measure'
p725
S'measure'
p726
S'NN'
p727
S'I-NP'
p728
g5
tp729
a(S'was'
p730
S'be'
p731
S'VBD'
p732
S'B-VP'
p733
g5
tp734
a(S'mycological'
p735
S'mycological'
p736
S'JJ'
p737
S'B-NP'
p738
g5
tp739
a(S'cure'
p740
S'cure'
p741
S'NN'
p742
S'I-NP'
p743
g5
tp744
a(S'of'
p745
S'of'
p746
S'IN'
p747
S'B-PP'
p748
g5
tp749
a(S'the'
p750
S'the'
p751
S'DT'
p752
S'B-NP'
p753
g5
tp754
a(S'target'
p755
S'target'
p756
S'NN'
p757
S'I-NP'
p758
g5
tp759
a(S'toenail'
p760
S'toenail'
p761
S'NN'
p762
S'I-NP'
p763
g5
tp764
a(S'at'
p765
S'at'
p766
S'IN'
p767
S'B-PP'
p768
g5
tp769
a(S'18'
p770
S'18'
p771
S'CD'
p772
S'B-NP'
p773
g5
tp774
a(S'months.'
p775
S'months.'
p776
S'NN'
p777
S'I-NP'
p778
g5
tp779
a(S'Secondary'
p780
S'Secondary'
p781
S'JJ'
p782
S'I-NP'
p783
g5
tp784
a(S'outcome'
p785
S'outcome'
p786
S'NN'
p787
S'I-NP'
p788
g5
tp789
a(S'measures'
p790
S'measure'
p791
S'NNS'
p792
S'I-NP'
p793
g5
tp794
a(S'included'
p795
S'include'
p796
S'VBD'
p797
S'B-VP'
p798
g5
tp799
a(S'clinical'
p800
S'clinical'
p801
S'JJ'
p802
S'B-NP'
p803
g5
tp804
a(S'cure'
p805
S'cure'
p806
S'NN'
p807
S'I-NP'
p808
g5
tp809
a(S'and'
p810
S'and'
p811
S'CC'
p812
g5
g5
tp813
a(S'complete'
p814
S'complete'
p815
S'JJ'
p816
g5
g5
tp817
a(g622
g622
g622
g5
g5
tp818
a(S'clinical'
p819
S'clinical'
p820
S'JJ'
p821
S'B-ADJP'
p822
g5
tp823
a(S'plus'
p824
S'plus'
p825
S'CC'
p826
S'I-ADJP'
p827
g5
tp828
a(S'mycological'
p829
S'mycological'
p830
S'JJ'
p831
S'I-ADJP'
p832
g5
tp833
a(g629
g629
g629
g5
g5
tp834
a(S'cure'
p835
S'cure'
p836
S'NN'
p837
S'B-NP'
p838
g5
tp839
a(S'of'
p840
S'of'
p841
S'IN'
p842
S'B-PP'
p843
g5
tp844
a(S'the'
p845
S'the'
p846
S'DT'
p847
S'B-NP'
p848
g5
tp849
a(S'target'
p850
S'target'
p851
S'NN'
p852
S'I-NP'
p853
g5
tp854
a(S'toenail'
p855
S'toenail'
p856
S'NN'
p857
S'I-NP'
p858
g5
tp859
a(S'and'
p860
S'and'
p861
S'CC'
p862
g5
g5
tp863
a(S'complete'
p864
S'complete'
p865
S'JJ'
p866
S'B-NP'
p867
g5
tp868
a(S'cure'
p869
S'cure'
p870
S'NN'
p871
S'I-NP'
p872
g5
tp873
a(S'of'
p874
S'of'
p875
S'IN'
p876
S'B-PP'
p877
g5
tp878
a(S'all'
p879
S'all'
p880
S'DT'
p881
S'B-NP'
p882
g5
tp883
a(S'10'
p884
S'10'
p885
S'CD'
p886
S'I-NP'
p887
g5
tp888
a(S'toenails'
p889
S'toenail'
p890
S'NNS'
p891
S'I-NP'
p892
g5
tp893
a(g62
g62
g62
g5
g5
tp894
a(S'RESULTS'
p895
S'RESULTS'
p896
S'NNS'
p897
S'B-NP'
p898
g5
tp899
a(S'Results'
p900
S'Result'
p901
S'NNS'
p902
S'I-NP'
p903
g5
tp904
a(S'of'
p905
S'of'
p906
S'IN'
p907
S'B-PP'
p908
g5
tp909
a(S'an'
p910
S'an'
p911
S'DT'
p912
S'B-NP'
p913
g5
tp914
a(S'intent-to-treat'
p915
S'intent-to-treat'
p916
S'JJ'
p917
S'I-NP'
p918
g5
tp919
a(S'analysis'
p920
S'analysis'
p921
S'NN'
p922
S'I-NP'
p923
g5
tp924
a(S'did'
p925
S'do'
p926
S'VBD'
p927
S'B-VP'
p928
g5
tp929
a(S'not'
p930
S'not'
p931
S'RB'
p932
S'I-VP'
p933
g5
tp934
a(S'meet'
p935
S'meet'
p936
S'VB'
p937
S'I-VP'
p938
g5
tp939
a(S'the'
p940
S'the'
p941
S'DT'
p942
S'B-NP'
p943
g5
tp944
a(S'prespecified'
p945
S'prespecifie'
p946
S'VBN'
p947
S'I-NP'
p948
g5
tp949
a(S'criterion'
p950
S'criterion'
p951
S'NN'
p952
S'I-NP'
p953
g5
tp954
a(S'for'
p955
S'for'
p956
S'IN'
p957
S'B-PP'
p958
g5
tp959
a(S'noninferiority'
p960
S'noninferiority'
p961
S'NN'
p962
S'B-NP'
p963
g5
tp964
a(S'but'
p965
S'but'
p966
S'CC'
p967
g5
g5
tp968
a(S'did'
p969
S'do'
p970
S'VBD'
p971
S'B-VP'
p972
g5
tp973
a(S'demonstrate'
p974
S'demonstrate'
p975
S'VB'
p976
S'I-VP'
p977
g5
tp978
a(S'the'
p979
S'the'
p980
S'DT'
p981
S'B-NP'
p982
g5
tp983
a(S'superiority'
p984
S'superiority'
p985
S'NN'
p986
S'I-NP'
p987
g5
tp988
a(S'of'
p989
S'of'
p990
S'IN'
p991
S'B-PP'
p992
g5
tp993
a(S'continuous-dose'
p994
S'continuous-dose'
p995
S'JJ'
p996
S'B-NP'
p997
g5
tp998
a(S'terbinafine'
p999
S'terbinafine'
p1000
S'NN'
p1001
S'I-NP'
p1002
g5
tp1003
a(S'for'
p1004
S'for'
p1005
S'IN'
p1006
S'B-PP'
p1007
g5
tp1008
a(g31
g31
g31
g5
g5
tp1009
a(S'mycological'
p1010
S'mycological'
p1011
S'JJ'
p1012
S'B-NP'
p1013
g5
tp1014
a(S'cure'
p1015
S'cure'
p1016
S'NN'
p1017
S'I-NP'
p1018
g5
tp1019
a(S'of'
p1020
S'of'
p1021
S'IN'
p1022
S'B-PP'
p1023
g5
tp1024
a(S'the'
p1025
S'the'
p1026
S'DT'
p1027
S'B-NP'
p1028
g5
tp1029
a(S'target'
p1030
S'target'
p1031
S'NN'
p1032
S'I-NP'
p1033
g5
tp1034
a(S'toenail'
p1035
S'toenail'
p1036
S'NN'
p1037
S'I-NP'
p1038
g5
tp1039
a(g622
g622
g622
g5
g5
tp1040
a(S'70.9'
p1041
S'70.9'
p1042
S'CD'
p1043
S'B-NP'
p1044
g5
tp1045
a(g516
g516
S'NN'
p1046
S'I-NP'
p1047
g5
tp1048
a(S'['
p1049
g1049
g622
g5
g5
tp1050
a(S'105/148'
p1051
S'105/148'
p1052
S'CD'
p1053
S'B-NP'
p1054
g5
tp1055
a(S']'
p1056
g1056
g629
g5
g5
tp1057
a(S'vs'
p1058
S'vs'
p1059
S'IN'
p1060
S'B-PP'
p1061
g5
tp1062
a(S'58.7'
p1063
S'58.7'
p1064
S'CD'
p1065
S'B-NP'
p1066
g5
tp1067
a(g516
g516
S'NN'
p1068
S'I-NP'
p1069
g5
tp1070
a(g1049
g1049
g622
g5
g5
tp1071
a(S'84/143'
p1072
S'84/143'
p1073
S'CD'
p1074
S'B-NP'
p1075
g5
tp1076
a(g1056
g1056
g629
g5
g5
tp1077
a(g570
g570
g31
g5
g5
tp1078
a(S'P'
p1079
g1079
S'NN'
p1080
S'B-NP'
p1081
g5
tp1082
a(S'=.03'
p1083
S'=.03'
p1084
S'CD'
p1085
S'I-NP'
p1086
g5
tp1087
a(g42
g42
g42
g5
g5
tp1088
a(S'relative'
p1089
S'relative'
p1090
S'JJ'
p1091
S'B-NP'
p1092
g5
tp1093
a(S'risk'
p1094
S'risk'
p1095
S'NN'
p1096
S'I-NP'
p1097
g5
tp1098
a(g1049
g1049
g622
g5
g5
tp1099
a(S'RR'
p1100
S'RR'
p1101
S'NN'
p1102
S'B-NP'
p1103
g5
tp1104
a(g1056
g1056
g629
g5
g5
tp1105
a(S'of'
p1106
S'of'
p1107
S'IN'
p1108
S'B-PP'
p1109
g5
tp1110
a(S'1.21'
p1111
S'1.21'
p1112
S'CD'
p1113
S'B-NP'
p1114
g5
tp1115
a(g1049
g1049
g622
g5
g5
tp1116
a(S'95'
p1117
S'95'
p1118
S'CD'
p1119
S'B-NP'
p1120
g5
tp1121
a(g516
g516
S'NN'
p1122
S'I-NP'
p1123
g5
tp1124
a(S'confidence'
p1125
S'confidence'
p1126
S'NN'
p1127
S'I-NP'
p1128
g5
tp1129
a(S'interval'
p1130
S'interval'
p1131
S'NN'
p1132
S'I-NP'
p1133
g5
tp1134
a(g622
g622
g622
g5
g5
tp1135
a(S'CI'
p1136
S'CI'
p1137
S'NN'
p1138
S'B-NP'
p1139
S'B-protein'
p1140
tp1141
a(g629
g629
g629
g5
g5
tp1142
a(g42
g42
g42
g5
g5
tp1143
a(S'1.02-1.43'
p1144
S'1.02-1.43'
p1145
S'CD'
p1146
S'B-NP'
p1147
g5
tp1148
a(g1056
g1056
g629
g5
g5
tp1149
a(g629
g629
g629
g5
g5
tp1150
a(g570
g570
g31
g5
g5
tp1151
a(S'clinical'
p1152
S'clinical'
p1153
S'JJ'
p1154
S'B-NP'
p1155
g5
tp1156
a(S'cure'
p1157
S'cure'
p1158
S'NN'
p1159
S'I-NP'
p1160
g5
tp1161
a(S'of'
p1162
S'of'
p1163
S'IN'
p1164
S'B-PP'
p1165
g5
tp1166
a(S'the'
p1167
S'the'
p1168
S'DT'
p1169
S'B-NP'
p1170
g5
tp1171
a(S'target'
p1172
S'target'
p1173
S'NN'
p1174
S'I-NP'
p1175
g5
tp1176
a(S'toenail'
p1177
S'toenail'
p1178
S'NN'
p1179
S'I-NP'
p1180
g5
tp1181
a(g622
g622
g622
g5
g5
tp1182
a(S'44.6'
p1183
S'44.6'
p1184
S'CD'
p1185
S'B-NP'
p1186
g5
tp1187
a(g516
g516
S'NN'
p1188
S'I-NP'
p1189
g5
tp1190
a(g1049
g1049
g622
g5
g5
tp1191
a(S'66/148'
p1192
S'66/148'
p1193
S'CD'
p1194
S'B-NP'
p1195
g5
tp1196
a(g1056
g1056
g629
g5
g5
tp1197
a(S'vs'
p1198
S'vs'
p1199
S'IN'
p1200
S'B-PP'
p1201
g5
tp1202
a(S'29.3'
p1203
S'29.3'
p1204
S'CD'
p1205
S'B-NP'
p1206
g5
tp1207
a(g516
g516
S'NN'
p1208
S'I-NP'
p1209
g5
tp1210
a(g1049
g1049
g622
g5
g5
tp1211
a(S'42/143'
p1212
S'42/143'
p1213
S'CD'
p1214
S'B-NP'
p1215
g5
tp1216
a(g1056
g1056
g629
g5
g5
tp1217
a(g570
g570
g31
g5
g5
tp1218
a(g1079
g1079
S'NN'
p1219
S'B-NP'
p1220
g5
tp1221
a(S'=.007'
p1222
S'=.007'
p1223
S'NN'
p1224
S'I-NP'
p1225
g5
tp1226
a(g42
g42
g42
g5
g5
tp1227
a(S'RR'
p1228
S'RR'
p1229
S'NN'
p1230
S'B-NP'
p1231
S'B-protein'
p1232
tp1233
a(S'=1.52'
p1234
S'=1.52'
p1235
S'CD'
p1236
S'I-NP'
p1237
S'I-protein'
p1238
tp1239
a(g1049
g1049
g622
g5
S'I-protein'
p1240
tp1241
a(S'95'
p1242
S'95'
p1243
S'CD'
p1244
S'B-NP'
p1245
S'I-protein'
p1246
tp1247
a(g516
g516
S'NN'
p1248
S'I-NP'
p1249
S'I-protein'
p1250
tp1251
a(S'CI'
p1252
S'CI'
p1253
S'NN'
p1254
S'I-NP'
p1255
S'I-protein'
p1256
tp1257
a(g42
g42
g42
g5
g5
tp1258
a(S'1.11-2.07'
p1259
S'1.11-2.07'
p1260
S'CD'
p1261
S'B-NP'
p1262
g5
tp1263
a(g629
g629
g629
g5
g5
tp1264
a(g570
g570
g31
g5
g5
tp1265
a(S'complete'
p1266
S'complete'
p1267
S'JJ'
p1268
S'B-NP'
p1269
g5
tp1270
a(S'cure'
p1271
S'cure'
p1272
S'NN'
p1273
S'I-NP'
p1274
g5
tp1275
a(S'of'
p1276
S'of'
p1277
S'IN'
p1278
S'B-PP'
p1279
g5
tp1280
a(S'the'
p1281
S'the'
p1282
S'DT'
p1283
S'B-NP'
p1284
g5
tp1285
a(S'target'
p1286
S'target'
p1287
S'NN'
p1288
S'I-NP'
p1289
g5
tp1290
a(S'toenail'
p1291
S'toenail'
p1292
S'NN'
p1293
S'I-NP'
p1294
g5
tp1295
a(g622
g622
g622
g5
g5
tp1296
a(S'40.5'
p1297
S'40.5'
p1298
S'CD'
p1299
S'B-NP'
p1300
g5
tp1301
a(g516
g516
S'NN'
p1302
S'I-NP'
p1303
g5
tp1304
a(g1049
g1049
g622
g5
g5
tp1305
a(S'60/148'
p1306
S'60/148'
p1307
S'CD'
p1308
S'B-NP'
p1309
g5
tp1310
a(g1056
g1056
g629
g5
g5
tp1311
a(S'vs'
p1312
S'vs'
p1313
S'IN'
p1314
S'B-PP'
p1315
g5
tp1316
a(S'28.0'
p1317
S'28.0'
p1318
S'CD'
p1319
S'B-NP'
p1320
g5
tp1321
a(g516
g516
S'NN'
p1322
S'I-NP'
p1323
g5
tp1324
a(g1049
g1049
g622
g5
g5
tp1325
a(S'40/143'
p1326
S'40/143'
p1327
S'CD'
p1328
S'B-NP'
p1329
g5
tp1330
a(g1056
g1056
g629
g5
g5
tp1331
a(g570
g570
g31
g5
g5
tp1332
a(g1079
g1079
S'NN'
p1333
S'B-NP'
p1334
g5
tp1335
a(S'=.02'
p1336
S'=.02'
p1337
S'NN'
p1338
S'I-NP'
p1339
g5
tp1340
a(g42
g42
g42
g5
g5
tp1341
a(S'RR=1.45'
p1342
S'RR=1.45'
p1343
S'NN'
p1344
S'B-NP'
p1345
S'B-protein'
p1346
tp1347
a(g1049
g1049
g622
g5
S'I-protein'
p1348
tp1349
a(S'95'
p1350
S'95'
p1351
S'CD'
p1352
S'B-NP'
p1353
S'I-protein'
p1354
tp1355
a(g516
g516
S'NN'
p1356
S'I-NP'
p1357
S'I-protein'
p1358
tp1359
a(S'CI'
p1360
S'CI'
p1361
S'NN'
p1362
S'I-NP'
p1363
S'I-protein'
p1364
tp1365
a(g42
g42
g42
g5
g5
tp1366
a(S'1.04-2.01'
p1367
S'1.04-2.01'
p1368
S'CD'
p1369
S'B-NP'
p1370
g5
tp1371
a(g629
g629
g629
g5
g5
tp1372
a(g570
g570
g31
g5
g5
tp1373
a(S'and'
p1374
S'and'
p1375
S'CC'
p1376
g5
g5
tp1377
a(S'complete'
p1378
S'complete'
p1379
S'JJ'
p1380
S'B-NP'
p1381
g5
tp1382
a(S'cure'
p1383
S'cure'
p1384
S'NN'
p1385
S'I-NP'
p1386
g5
tp1387
a(S'of'
p1388
S'of'
p1389
S'IN'
p1390
S'B-PP'
p1391
g5
tp1392
a(S'all'
p1393
S'all'
p1394
S'DT'
p1395
S'B-NP'
p1396
g5
tp1397
a(S'10'
p1398
S'10'
p1399
S'CD'
p1400
S'I-NP'
p1401
g5
tp1402
a(S'toenails'
p1403
S'toenail'
p1404
S'NNS'
p1405
S'I-NP'
p1406
g5
tp1407
a(g622
g622
g622
g5
g5
tp1408
a(S'25.2'
p1409
S'25.2'
p1410
S'CD'
p1411
S'B-NP'
p1412
g5
tp1413
a(g516
g516
S'NN'
p1414
S'I-NP'
p1415
g5
tp1416
a(g1049
g1049
g622
g5
g5
tp1417
a(S'36/143'
p1418
S'36/143'
p1419
S'CD'
p1420
S'B-NP'
p1421
g5
tp1422
a(g1056
g1056
g629
g5
g5
tp1423
a(S'vs'
p1424
S'vs'
p1425
S'IN'
p1426
S'B-PP'
p1427
g5
tp1428
a(S'14.7'
p1429
S'14.7'
p1430
S'CD'
p1431
S'B-NP'
p1432
g5
tp1433
a(g516
g516
S'NN'
p1434
S'I-NP'
p1435
g5
tp1436
a(g1049
g1049
g622
g5
g5
tp1437
a(S'21/143'
p1438
S'21/143'
p1439
S'CD'
p1440
S'B-NP'
p1441
g5
tp1442
a(g1056
g1056
g629
g5
g5
tp1443
a(g570
g570
g31
g5
g5
tp1444
a(g1079
g1079
S'NN'
p1445
S'B-NP'
p1446
g5
tp1447
a(S'=.03'
p1448
S'=.03'
p1449
S'NN'
p1450
S'I-NP'
p1451
g5
tp1452
a(g42
g42
g42
g5
g5
tp1453
a(S'RR'
p1454
S'RR'
p1455
S'NN'
p1456
S'B-NP'
p1457
S'B-protein'
p1458
tp1459
a(S'=1.71'
p1460
S'=1.71'
p1461
S'CD'
p1462
S'I-NP'
p1463
S'I-protein'
p1464
tp1465
a(g1049
g1049
g622
g5
S'I-protein'
p1466
tp1467
a(S'95'
p1468
S'95'
p1469
S'CD'
p1470
S'B-NP'
p1471
S'I-protein'
p1472
tp1473
a(g516
g516
S'NN'
p1474
S'I-NP'
p1475
S'I-protein'
p1476
tp1477
a(S'CI'
p1478
S'CI'
p1479
S'NN'
p1480
S'I-NP'
p1481
S'I-protein'
p1482
tp1483
a(g42
g42
g42
g5
g5
tp1484
a(S'1.05-2.79'
p1485
S'1.05-2.79'
p1486
S'CD'
p1487
S'B-NP'
p1488
g5
tp1489
a(g629
g629
g629
g5
g5
tp1490
a(g62
g62
g62
g5
g5
tp1491
a(S'Tolerability'
p1492
S'Tolerability'
p1493
S'NN'
p1494
S'B-NP'
p1495
g5
tp1496
a(S'of'
p1497
S'of'
p1498
S'IN'
p1499
S'B-PP'
p1500
g5
tp1501
a(S'the'
p1502
S'the'
p1503
S'DT'
p1504
S'B-NP'
p1505
g5
tp1506
a(S'regimens'
p1507
S'regimen'
p1508
S'NNS'
p1509
S'I-NP'
p1510
g5
tp1511
a(S'did'
p1512
S'do'
p1513
S'VBD'
p1514
S'B-VP'
p1515
g5
tp1516
a(S'not'
p1517
S'not'
p1518
S'RB'
p1519
S'I-VP'
p1520
g5
tp1521
a(S'differ'
p1522
S'differ'
p1523
S'VB'
p1524
S'I-VP'
p1525
g5
tp1526
a(S'significantly'
p1527
S'significantly'
p1528
S'RB'
p1529
S'B-ADVP'
p1530
g5
tp1531
a(S'between'
p1532
S'between'
p1533
S'IN'
p1534
S'B-PP'
p1535
g5
tp1536
a(S'the'
p1537
S'the'
p1538
S'DT'
p1539
S'B-NP'
p1540
g5
tp1541
a(S'groups'
p1542
S'group'
p1543
S'NNS'
p1544
S'I-NP'
p1545
g5
tp1546
a(g622
g622
g622
g5
g5
tp1547
a(S'chi2'
p1548
S'chi2'
p1549
S'NN'
p1550
S'B-NP'
p1551
g5
tp1552
a(S'=1.63'
p1553
S'=1.63'
p1554
S'NN'
p1555
S'I-NP'
p1556
g5
tp1557
a(g570
g570
g31
g5
g5
tp1558
a(g1079
g1079
S'NN'
p1559
S'B-NP'
p1560
g5
tp1561
a(S'=.65'
p1562
S'=.65'
p1563
S'CD'
p1564
S'I-NP'
p1565
g5
tp1566
a(g629
g629
g629
g5
g5
tp1567
a(g62
g62
g62
g5
g5
tp1568
a(S'LIMITATIONS'
p1569
S'LIMITATIONS'
p1570
S'NNS'
p1571
S'B-NP'
p1572
g5
tp1573
a(S'The'
p1574
S'The'
p1575
S'DT'
p1576
S'B-NP'
p1577
g5
tp1578
a(S'study'
p1579
S'study'
p1580
S'NN'
p1581
S'I-NP'
p1582
g5
tp1583
a(S'population'
p1584
S'population'
p1585
S'NN'
p1586
S'I-NP'
p1587
g5
tp1588
a(S'primarily'
p1589
S'primarily'
p1590
S'RB'
p1591
S'B-ADVP'
p1592
g5
tp1593
a(S'consisted'
p1594
S'consist'
p1595
S'VBD'
p1596
S'B-VP'
p1597
g5
tp1598
a(S'of'
p1599
S'of'
p1600
S'IN'
p1601
S'B-PP'
p1602
g5
tp1603
a(S'older'
p1604
S'old'
p1605
S'JJR'
p1606
S'B-NP'
p1607
g5
tp1608
a(S'men'
p1609
S'man'
p1610
S'NNS'
p1611
S'I-NP'
p1612
g5
tp1613
a(S'with'
p1614
S'with'
p1615
S'IN'
p1616
S'B-PP'
p1617
g5
tp1618
a(S'severe'
p1619
S'severe'
p1620
S'JJ'
p1621
S'B-NP'
p1622
g5
tp1623
a(S'onychomycosis'
p1624
S'onychomycosis'
p1625
S'NN'
p1626
S'I-NP'
p1627
g5
tp1628
a(g62
g62
g62
g5
g5
tp1629
a(S'CONCLUSIONS'
p1630
S'CONCLUSIONS'
p1631
S'NNS'
p1632
S'B-NP'
p1633
g5
tp1634
a(S'This'
p1635
S'This'
p1636
S'DT'
p1637
S'B-NP'
p1638
g5
tp1639
a(S'study'
p1640
S'study'
p1641
S'NN'
p1642
S'I-NP'
p1643
g5
tp1644
a(S'demonstrated'
p1645
S'demonstrate'
p1646
S'VBD'
p1647
S'B-VP'
p1648
g5
tp1649
a(S'the'
p1650
S'the'
p1651
S'DT'
p1652
S'B-NP'
p1653
g5
tp1654
a(S'superiority'
p1655
S'superiority'
p1656
S'NN'
p1657
S'I-NP'
p1658
g5
tp1659
a(S'of'
p1660
S'of'
p1661
S'IN'
p1662
S'B-PP'
p1663
g5
tp1664
a(S'continuous-'
p1665
S'continuous-'
p1666
S'NN'
p1667
S'B-NP'
p1668
g5
tp1669
a(S'over'
p1670
S'over'
p1671
S'IN'
p1672
S'B-PP'
p1673
g5
tp1674
a(S'pulse-dose'
p1675
S'pulse-dose'
p1676
S'JJ'
p1677
S'B-NP'
p1678
g5
tp1679
a(S'terbinafine.'
p1680
S'terbinafine.'
p1681
S'NN'
p1682
S'I-NP'
p1683
g5
tp1684
a(S'We'
p1685
S'We'
p1686
S'PRP'
p1687
S'B-NP'
p1688
g5
tp1689
a(S'also'
p1690
S'also'
p1691
S'RB'
p1692
S'B-ADVP'
p1693
g5
tp1694
a(S'found'
p1695
S'find'
p1696
S'VBD'
p1697
S'B-VP'
p1698
g5
tp1699
a(S'this'
p1700
S'this'
p1701
S'DT'
p1702
S'B-NP'
p1703
g5
tp1704
a(S'expensive'
p1705
S'expensive'
p1706
S'JJ'
p1707
S'I-NP'
p1708
g5
tp1709
a(S'therapy'
p1710
S'therapy'
p1711
S'NN'
p1712
S'I-NP'
p1713
g5
tp1714
a(S'to'
p1715
S'to'
p1716
S'TO'
p1717
S'B-VP'
p1718
g5
tp1719
a(S'be'
p1720
S'be'
p1721
S'VB'
p1722
S'I-VP'
p1723
g5
tp1724
a(S'much'
p1725
S'much'
p1726
S'RB'
p1727
S'B-ADJP'
p1728
g5
tp1729
a(S'less'
p1730
S'less'
p1731
S'RBR'
p1732
S'I-ADJP'
p1733
g5
tp1734
a(S'effective'
p1735
S'effective'
p1736
S'JJ'
p1737
S'I-ADJP'
p1738
g5
tp1739
a(S'than'
p1740
S'than'
p1741
S'IN'
p1742
S'B-SBAR'
p1743
g5
tp1744
a(S'previously'
p1745
S'previously'
p1746
S'RB'
p1747
S'B-ADVP'
p1748
g5
tp1749
a(S'believed'
p1750
S'believe'
p1751
S'VBN'
p1752
S'B-VP'
p1753
g5
tp1754
a(g42
g42
g42
g5
g5
tp1755
a(S'particularly'
p1756
S'particularly'
p1757
S'RB'
p1758
S'B-ADVP'
p1759
g5
tp1760
a(S'for'
p1761
S'for'
p1762
S'IN'
p1763
S'B-PP'
p1764
g5
tp1765
a(S'achieving'
p1766
S'achieve'
p1767
S'VBG'
p1768
S'B-VP'
p1769
g5
tp1770
a(S'complete'
p1771
S'complete'
p1772
S'JJ'
p1773
S'B-NP'
p1774
g5
tp1775
a(S'cure'
p1776
S'cure'
p1777
S'NN'
p1778
S'I-NP'
p1779
g5
tp1780
a(S'of'
p1781
S'of'
p1782
S'IN'
p1783
S'B-PP'
p1784
g5
tp1785
a(S'all'
p1786
S'all'
p1787
S'DT'
p1788
S'B-NP'
p1789
g5
tp1790
a(S'10'
p1791
S'10'
p1792
S'CD'
p1793
S'I-NP'
p1794
g5
tp1795
a(S'toenails'
p1796
S'toenail'
p1797
S'NNS'
p1798
S'I-NP'
p1799
g5
tp1800
a(g62
g62
g62
g5
g5
tp1801
a.