(lp0
(S'A'
p1
g1
S'DT'
p2
S'B-NP'
p3
S'O'
p4
tp5
a(S'single'
p6
S'single'
p7
S'JJ'
p8
S'I-NP'
p9
g4
tp10
a(S'nasal'
p11
S'nasal'
p12
S'JJ'
p13
S'I-NP'
p14
g4
tp15
a(S'allergen'
p16
S'allergen'
p17
S'NN'
p18
S'I-NP'
p19
g4
tp20
a(S'challenge'
p21
S'challenge'
p22
S'NN'
p23
S'I-NP'
p24
g4
tp25
a(S'increases'
p26
S'increase'
p27
S'NNS'
p28
S'I-NP'
p29
g4
tp30
a(S'induced'
p31
S'induce'
p32
S'VBD'
p33
S'B-VP'
p34
g4
tp35
a(S'sputum'
p36
S'sputum'
p37
S'NN'
p38
S'B-NP'
p39
S'B-protein'
p40
tp41
a(S'inflammatory'
p42
S'inflammatory'
p43
S'JJ'
p44
S'I-NP'
p45
S'I-protein'
p46
tp47
a(S'markers'
p48
S'marker'
p49
S'NNS'
p50
S'I-NP'
p51
S'I-protein'
p52
tp53
a(S'in'
p54
S'in'
p55
S'IN'
p56
S'B-PP'
p57
g4
tp58
a(S'non-asthmatic'
p59
S'non-asthmatic'
p60
S'JJ'
p61
S'B-NP'
p62
g4
tp63
a(S'subjects'
p64
S'subject'
p65
S'NNS'
p66
S'I-NP'
p67
g4
tp68
a(S'with'
p69
S'with'
p70
S'IN'
p71
S'B-PP'
p72
g4
tp73
a(S'seasonal'
p74
S'seasonal'
p75
S'JJ'
p76
S'B-NP'
p77
g4
tp78
a(S'allergic'
p79
S'allergic'
p80
S'JJ'
p81
S'I-NP'
p82
g4
tp83
a(S'rhinitis'
p84
S'rhinitis'
p85
S'NN'
p86
S'I-NP'
p87
g4
tp88
a(S':'
p89
g89
g89
g4
g4
tp90
a(S'correlation'
p91
S'correlation'
p92
S'NN'
p93
S'B-NP'
p94
g4
tp95
a(S'with'
p96
S'with'
p97
S'IN'
p98
S'B-PP'
p99
g4
tp100
a(S'plasma'
p101
S'plasma'
p102
S'NN'
p103
S'B-NP'
p104
S'B-protein'
p105
tp106
a(S'interleukin-5'
p107
S'interleukin-5'
p108
S'NN'
p109
S'I-NP'
p110
S'I-protein'
p111
tp112
a(S'.'
p113
g113
g113
g4
g4
tp114
a(S'BACKGROUND'
p115
S'BACKGROUND'
p116
S'NN'
p117
S'B-NP'
p118
g4
tp119
a(S'Seasonal'
p120
S'Seasonal'
p121
S'JJ'
p122
S'I-NP'
p123
g4
tp124
a(S'allergic'
p125
S'allergic'
p126
S'JJ'
p127
S'I-NP'
p128
g4
tp129
a(S'rhinitis'
p130
S'rhinitis'
p131
S'NN'
p132
S'I-NP'
p133
g4
tp134
a(S'('
p135
g135
g135
g4
g4
tp136
a(S'SAR'
p137
S'SAR'
p138
S'NN'
p139
S'B-NP'
p140
S'B-protein'
p141
tp142
a(S')'
p143
g143
g143
g4
g4
tp144
a(S'is'
p145
S'be'
p146
S'VBZ'
p147
S'B-VP'
p148
g4
tp149
a(S'a'
p150
g150
S'DT'
p151
S'B-NP'
p152
g4
tp153
a(S'risk'
p154
S'risk'
p155
S'NN'
p156
S'I-NP'
p157
g4
tp158
a(S'factor'
p159
S'factor'
p160
S'NN'
p161
S'I-NP'
p162
g4
tp163
a(S'for'
p164
S'for'
p165
S'IN'
p166
S'B-PP'
p167
g4
tp168
a(S'asthma'
p169
S'asthma'
p170
S'NN'
p171
S'B-NP'
p172
g4
tp173
a(S'in'
p174
S'in'
p175
S'IN'
p176
S'B-PP'
p177
g4
tp178
a(S'affected'
p179
S'affect'
p180
S'VBN'
p181
S'B-NP'
p182
g4
tp183
a(S'individuals.'
p184
S'individuals.'
p185
S'NN'
p186
S'I-NP'
p187
g4
tp188
a(S'Nasal'
p189
S'Nasal'
p190
S'JJ'
p191
S'I-NP'
p192
g4
tp193
a(S'allergic'
p194
S'allergic'
p195
S'JJ'
p196
S'I-NP'
p197
g4
tp198
a(S'inflammation'
p199
S'inflammation'
p200
S'NN'
p201
S'I-NP'
p202
g4
tp203
a(S'enhances'
p204
S'enhance'
p205
S'VBZ'
p206
S'B-VP'
p207
g4
tp208
a(S'bone-marrow'
p209
S'bone-marrow'
p210
S'JJ'
p211
S'B-NP'
p212
S'B-cell_type'
p213
tp214
a(S'eosinophil'
p215
S'eosinophil'
p216
S'NN'
p217
S'I-NP'
p218
S'I-cell_type'
p219
tp220
a(S'production'
p221
S'production'
p222
S'NN'
p223
S'I-NP'
p224
g4
tp225
a(S','
p226
g226
g226
g4
g4
tp227
a(S'mainly'
p228
S'mainly'
p229
S'RB'
p230
S'B-ADVP'
p231
g4
tp232
a(S'via'
p233
S'via'
p234
S'IN'
p235
S'B-PP'
p236
g4
tp237
a(S'IL-5'
p238
S'IL-5'
p239
S'NN'
p240
S'B-NP'
p241
S'B-protein'
p242
tp243
a(g226
g226
g226
g4
g4
tp244
a(S'and'
p245
S'and'
p246
S'CC'
p247
g4
g4
tp248
a(S'rhinitis'
p249
S'rhinitis'
p250
S'NN'
p251
S'B-NP'
p252
g4
tp253
a(S'patients'
p254
S'patient'
p255
S'NNS'
p256
S'I-NP'
p257
g4
tp258
a(S'have'
p259
S'have'
p260
S'VBP'
p261
S'B-VP'
p262
g4
tp263
a(S'increased'
p264
S'increase'
p265
S'VBN'
p266
S'I-VP'
p267
g4
tp268
a(S'airway'
p269
S'airway'
p270
S'NN'
p271
S'B-NP'
p272
g4
tp273
a(S'inflammation'
p274
S'inflammation'
p275
S'NN'
p276
S'I-NP'
p277
g4
tp278
a(S'during'
p279
S'during'
p280
S'IN'
p281
S'B-PP'
p282
g4
tp283
a(S'the'
p284
S'the'
p285
S'DT'
p286
S'B-NP'
p287
g4
tp288
a(S'pollen'
p289
S'pollen'
p290
S'NN'
p291
S'I-NP'
p292
g4
tp293
a(S'season'
p294
S'season'
p295
S'NN'
p296
S'I-NP'
p297
g4
tp298
a(g113
g113
g113
g4
g4
tp299
a(S'OBJECTIVE'
p300
S'OBJECTIVE'
p301
S'NN'
p302
S'B-NP'
p303
g4
tp304
a(S'To'
p305
S'To'
p306
S'TO'
p307
S'B-VP'
p308
g4
tp309
a(S'assess'
p310
S'assess'
p311
S'VB'
p312
S'I-VP'
p313
g4
tp314
a(S'the'
p315
S'the'
p316
S'DT'
p317
S'B-NP'
p318
g4
tp319
a(S'impact'
p320
S'impact'
p321
S'NN'
p322
S'I-NP'
p323
g4
tp324
a(S'of'
p325
S'of'
p326
S'IN'
p327
S'B-PP'
p328
g4
tp329
a(S'nasal'
p330
S'nasal'
p331
S'JJ'
p332
S'B-NP'
p333
g4
tp334
a(S'allergy'
p335
S'allergy'
p336
S'NN'
p337
S'I-NP'
p338
g4
tp339
a(S'on'
p340
S'on'
p341
S'IN'
p342
S'B-PP'
p343
g4
tp344
a(S'sputum'
p345
S'sputum'
p346
S'NN'
p347
S'B-NP'
p348
S'B-protein'
p349
tp350
a(S'inflammatory'
p351
S'inflammatory'
p352
S'JJ'
p353
S'I-NP'
p354
S'I-protein'
p355
tp356
a(S'markers'
p357
S'marker'
p358
S'NNS'
p359
S'I-NP'
p360
S'I-protein'
p361
tp362
a(g113
g113
g113
g4
g4
tp363
a(S'METHODS'
p364
S'METHODS'
p365
S'NNS'
p366
S'B-NP'
p367
g4
tp368
a(S'In'
p369
S'In'
p370
S'IN'
p371
S'B-PP'
p372
g4
tp373
a(S'an'
p374
S'an'
p375
S'DT'
p376
S'B-NP'
p377
g4
tp378
a(S'open-labelled'
p379
S'open-labelled'
p380
S'JJ'
p381
S'I-NP'
p382
g4
tp383
a(g226
g226
g226
S'I-NP'
p384
g4
tp385
a(S'randomized'
p386
S'randomize'
p387
S'VBN'
p388
S'I-NP'
p389
g4
tp390
a(g226
g226
g226
S'I-NP'
p391
g4
tp392
a(S'placebo-controlled'
p393
S'placebo-controlled'
p394
S'JJ'
p395
S'I-NP'
p396
g4
tp397
a(S'cross-over'
p398
S'cross-over'
p399
S'JJ'
p400
S'I-NP'
p401
g4
tp402
a(S'study'
p403
S'study'
p404
S'NN'
p405
S'I-NP'
p406
g4
tp407
a(S'with'
p408
S'with'
p409
S'IN'
p410
S'B-PP'
p411
g4
tp412
a(S'16'
p413
S'16'
p414
S'CD'
p415
S'B-NP'
p416
g4
tp417
a(S'non-asthmatic'
p418
S'non-asthmatic'
p419
S'JJ'
p420
S'I-NP'
p421
g4
tp422
a(S'SAR'
p423
S'SAR'
p424
S'NN'
p425
S'I-NP'
p426
g4
tp427
a(S'patients'
p428
S'patient'
p429
S'NNS'
p430
S'I-NP'
p431
g4
tp432
a(g135
g135
g135
g4
g4
tp433
a(S'median'
p434
S'median'
p435
S'JJ'
p436
S'B-NP'
p437
g4
tp438
a(S'age'
p439
S'age'
p440
S'NN'
p441
S'I-NP'
p442
g4
tp443
a(S'25'
p444
S'25'
p445
S'CD'
p446
S'B-NP'
p447
g4
tp448
a(S'years'
p449
S'year'
p450
S'NNS'
p451
S'I-NP'
p452
g4
tp453
a(g226
g226
g226
g4
g4
tp454
a(S'56'
p455
S'56'
p456
S'CD'
p457
S'B-NP'
p458
g4
tp459
a(S'%'
p460
g460
S'NN'
p461
S'I-NP'
p462
g4
tp463
a(S'males'
p464
S'male'
p465
S'NNS'
p466
S'I-NP'
p467
g4
tp468
a(g143
g143
g143
g4
g4
tp469
a(g226
g226
g226
g4
g4
tp470
a(S'the'
p471
S'the'
p472
S'DT'
p473
S'B-NP'
p474
g4
tp475
a(S'effect'
p476
S'effect'
p477
S'NN'
p478
S'I-NP'
p479
g4
tp480
a(S'of'
p481
S'of'
p482
S'IN'
p483
S'B-PP'
p484
g4
tp485
a(g150
g150
S'DT'
p486
S'B-NP'
p487
g4
tp488
a(S'single'
p489
S'single'
p490
S'JJ'
p491
S'I-NP'
p492
g4
tp493
a(S'nasal'
p494
S'nasal'
p495
S'JJ'
p496
S'I-NP'
p497
g4
tp498
a(S'allergen'
p499
S'allergen'
p500
S'NN'
p501
S'I-NP'
p502
g4
tp503
a(S'challenge'
p504
S'challenge'
p505
S'NN'
p506
S'I-NP'
p507
g4
tp508
a(S'performed'
p509
S'perform'
p510
S'VBN'
p511
S'B-VP'
p512
g4
tp513
a(S'out'
p514
S'out'
p515
S'IN'
p516
S'B-PP'
p517
g4
tp518
a(S'of'
p519
S'of'
p520
S'IN'
p521
S'B-PP'
p522
g4
tp523
a(S'season'
p524
S'season'
p525
S'NN'
p526
S'B-NP'
p527
g4
tp528
a(S'on'
p529
S'on'
p530
S'IN'
p531
S'B-PP'
p532
g4
tp533
a(S'induced'
p534
S'induce'
p535
S'VBN'
p536
S'B-NP'
p537
g4
tp538
a(S'sputum'
p539
S'sputum'
p540
S'NN'
p541
S'I-NP'
p542
g4
tp543
a(S'inflammatory'
p544
S'inflammatory'
p545
S'JJ'
p546
S'I-NP'
p547
g4
tp548
a(S'parameters'
p549
S'parameter'
p550
S'NNS'
p551
S'I-NP'
p552
g4
tp553
a(S'was'
p554
S'be'
p555
S'VBD'
p556
S'B-VP'
p557
g4
tp558
a(S'evaluated.'
p559
S'evaluated.'
p560
S'VBN'
p561
S'I-VP'
p562
g4
tp563
a(S'SAR'
p564
S'SAR'
p565
S'NN'
p566
S'B-NP'
p567
g4
tp568
a(S'patients'
p569
S'patient'
p570
S'NNS'
p571
S'I-NP'
p572
g4
tp573
a(S'were'
p574
S'be'
p575
S'VBD'
p576
S'B-VP'
p577
g4
tp578
a(S'identified'
p579
S'identify'
p580
S'VBN'
p581
S'I-VP'
p582
g4
tp583
a(S'by'
p584
S'by'
p585
S'IN'
p586
S'B-PP'
p587
g4
tp588
a(S'history'
p589
S'history'
p590
S'NN'
p591
S'B-NP'
p592
g4
tp593
a(g226
g226
g226
g4
g4
tp594
a(S'skin-prick'
p595
S'skin-prick'
p596
S'NN'
p597
S'B-NP'
p598
g4
tp599
a(S'test'
p600
S'test'
p601
S'NN'
p602
S'I-NP'
p603
g4
tp604
a(S'and'
p605
S'and'
p606
S'CC'
p607
g4
g4
tp608
a(S'specific'
p609
S'specific'
p610
S'JJ'
p611
S'B-NP'
p612
g4
tp613
a(S'IgE.'
p614
S'IgE.'
p615
S'NN'
p616
S'I-NP'
p617
S'B-protein'
p618
tp619
a(S'All'
p620
S'All'
p621
S'DT'
p622
S'B-NP'
p623
g4
tp624
a(S'patients'
p625
S'patient'
p626
S'NNS'
p627
S'I-NP'
p628
g4
tp629
a(S'had'
p630
S'have'
p631
S'VBD'
p632
S'B-VP'
p633
g4
tp634
a(S'normal'
p635
S'normal'
p636
S'JJ'
p637
S'B-NP'
p638
g4
tp639
a(S'lung'
p640
S'lung'
p641
S'NN'
p642
S'I-NP'
p643
g4
tp644
a(S'function/bronchial'
p645
S'function/bronchial'
p646
S'JJ'
p647
S'I-NP'
p648
g4
tp649
a(S'hyper-responsiveness'
p650
S'hyper-responsiveness'
p651
S'NN'
p652
S'I-NP'
p653
g4
tp654
a(S'out'
p655
S'out'
p656
S'IN'
p657
S'B-PP'
p658
g4
tp659
a(S'of'
p660
S'of'
p661
S'IN'
p662
S'B-PP'
p663
g4
tp664
a(S'season'
p665
S'season'
p666
S'NN'
p667
S'B-NP'
p668
g4
tp669
a(S'and'
p670
S'and'
p671
S'CC'
p672
g4
g4
tp673
a(g150
g150
S'DT'
p674
S'B-NP'
p675
g4
tp676
a(S'negative'
p677
S'negative'
p678
S'JJ'
p679
S'I-NP'
p680
S'B-cell_type'
p681
tp682
a(S'asthma/wheezing'
p683
S'asthma/wheeze'
p684
S'VBG'
p685
S'I-NP'
p686
S'I-cell_type'
p687
tp688
a(S'history.'
p689
S'history.'
p690
S'NN'
p691
S'I-NP'
p692
S'I-cell_type'
p693
tp694
a(S'Sputum'
p695
S'Sputum'
p696
S'NN'
p697
S'I-NP'
p698
S'I-cell_type'
p699
tp700
a(S'cells'
p701
S'cell'
p702
S'NNS'
p703
S'I-NP'
p704
S'I-cell_type'
p705
tp706
a(S'and'
p707
S'and'
p708
S'CC'
p709
g4
g4
tp710
a(S'supernatant'
p711
S'supernatant'
p712
S'JJ'
p713
S'B-NP'
p714
g4
tp715
a(S'levels'
p716
S'level'
p717
S'NNS'
p718
S'I-NP'
p719
g4
tp720
a(S'of'
p721
S'of'
p722
S'IN'
p723
S'B-PP'
p724
g4
tp725
a(S'ECP'
p726
S'ECP'
p727
S'NN'
p728
S'B-NP'
p729
S'B-protein'
p730
tp731
a(g226
g226
g226
g4
g4
tp732
a(S'sICAM'
p733
S'sICAM'
p734
S'NN'
p735
S'B-NP'
p736
g4
tp737
a(g226
g226
g226
g4
g4
tp738
a(S'IL-5'
p739
S'IL-5'
p740
S'NN'
p741
S'B-NP'
p742
S'B-protein'
p743
tp744
a(S'and'
p745
S'and'
p746
S'CC'
p747
S'I-NP'
p748
g4
tp749
a(S'IL-10'
p750
S'IL-10'
p751
S'NN'
p752
S'I-NP'
p753
S'B-protein'
p754
tp755
a(g226
g226
g226
g4
g4
tp756
a(S'and'
p757
S'and'
p758
S'CC'
p759
g4
g4
tp760
a(S'plasma'
p761
S'plasma'
p762
S'NN'
p763
S'B-NP'
p764
g4
tp765
a(S'levels'
p766
S'level'
p767
S'NNS'
p768
S'I-NP'
p769
g4
tp770
a(S'of'
p771
S'of'
p772
S'IN'
p773
S'B-PP'
p774
g4
tp775
a(S'IL-5'
p776
S'IL-5'
p777
S'NN'
p778
S'B-NP'
p779
S'B-protein'
p780
tp781
a(S'and'
p782
S'and'
p783
S'CC'
p784
S'I-NP'
p785
g4
tp786
a(S'ECP'
p787
S'ECP'
p788
S'NN'
p789
S'I-NP'
p790
S'B-protein'
p791
tp792
a(g226
g226
g226
g4
g4
tp793
a(S'were'
p794
S'be'
p795
S'VBD'
p796
S'B-VP'
p797
g4
tp798
a(S'measured'
p799
S'measure'
p800
S'VBN'
p801
S'I-VP'
p802
g4
tp803
a(S'before'
p804
S'before'
p805
S'IN'
p806
S'B-PP'
p807
g4
tp808
a(S'and'
p809
S'and'
p810
S'CC'
p811
g4
g4
tp812
a(S'24'
p813
S'24'
p814
S'CD'
p815
S'B-NP'
p816
g4
tp817
a(S'h'
p818
g818
S'NN'
p819
S'I-NP'
p820
g4
tp821
a(S'after'
p822
S'after'
p823
S'IN'
p824
S'B-PP'
p825
g4
tp826
a(S'nasal'
p827
S'nasal'
p828
S'JJ'
p829
S'B-NP'
p830
g4
tp831
a(S'allergen'
p832
S'allergen'
p833
S'NN'
p834
S'I-NP'
p835
g4
tp836
a(S'challenge.'
p837
S'challenge.'
p838
S'NN'
p839
S'I-NP'
p840
g4
tp841
a(S'After'
p842
S'After'
p843
S'IN'
p844
S'B-PP'
p845
g4
tp846
a(g150
g150
S'DT'
p847
S'B-NP'
p848
g4
tp849
a(S'washout'
p850
S'washout'
p851
S'NN'
p852
S'I-NP'
p853
g4
tp854
a(S'period'
p855
S'period'
p856
S'NN'
p857
S'I-NP'
p858
g4
tp859
a(S'of'
p860
S'of'
p861
S'IN'
p862
S'B-PP'
p863
g4
tp864
a(S'at'
p865
S'at'
p866
S'IN'
p867
S'B-NP'
p868
g4
tp869
a(S'least'
p870
S'least'
p871
S'JJS'
p872
S'I-NP'
p873
g4
tp874
a(S'4'
p875
g875
S'CD'
p876
S'I-NP'
p877
g4
tp878
a(S'weeks'
p879
S'week'
p880
S'NNS'
p881
S'I-NP'
p882
g4
tp883
a(g226
g226
g226
g4
g4
tp884
a(S'the'
p885
S'the'
p886
S'DT'
p887
S'B-NP'
p888
g4
tp889
a(S'procedure'
p890
S'procedure'
p891
S'NN'
p892
S'I-NP'
p893
g4
tp894
a(S'was'
p895
S'be'
p896
S'VBD'
p897
S'B-VP'
p898
g4
tp899
a(S'repeated'
p900
S'repeat'
p901
S'VBN'
p902
S'I-VP'
p903
g4
tp904
a(S'with'
p905
S'with'
p906
S'IN'
p907
S'B-PP'
p908
g4
tp909
a(S'placebo'
p910
S'placebo'
p911
S'NN'
p912
S'B-NP'
p913
g4
tp914
a(S'challenge'
p915
S'challenge'
p916
S'NN'
p917
S'I-NP'
p918
g4
tp919
a(g135
g135
g135
g4
g4
tp920
a(S'diluent'
p921
S'diluent'
p922
S'JJ'
p923
S'B-ADJP'
p924
g4
tp925
a(g143
g143
g143
g4
g4
tp926
a(g113
g113
g113
g4
g4
tp927
a(S'RESULTS'
p928
S'RESULTS'
p929
S'NNS'
p930
S'B-NP'
p931
g4
tp932
a(S'Nasal'
p933
S'Nasal'
p934
S'JJ'
p935
S'I-NP'
p936
g4
tp937
a(S'allergen'
p938
S'allergen'
p939
S'NN'
p940
S'I-NP'
p941
g4
tp942
a(S'challenge'
p943
S'challenge'
p944
S'NN'
p945
S'I-NP'
p946
g4
tp947
a(S'led'
p948
S'lead'
p949
S'VBD'
p950
S'B-VP'
p951
g4
tp952
a(S'to'
p953
S'to'
p954
S'TO'
p955
S'B-PP'
p956
g4
tp957
a(S'an'
p958
S'an'
p959
S'DT'
p960
S'B-NP'
p961
g4
tp962
a(S'increase'
p963
S'increase'
p964
S'NN'
p965
S'I-NP'
p966
g4
tp967
a(S'in'
p968
S'in'
p969
S'IN'
p970
S'B-PP'
p971
g4
tp972
a(S'sputum'
p973
S'sputum'
p974
S'NN'
p975
S'B-NP'
p976
g4
tp977
a(S'ECP'
p978
S'ECP'
p979
S'NN'
p980
S'I-NP'
p981
g4
tp982
a(g135
g135
g135
g4
g4
tp983
a(S'pre'
p984
S'pre'
p985
S'NN'
p986
S'B-NP'
p987
g4
tp988
a(S'='
p989
g989
S'SYM'
p990
S'B-VP'
p991
g4
tp992
a(S'60'
p993
S'60'
p994
S'CD'
p995
S'B-NP'
p996
g4
tp997
a(S'+/-'
p998
S'+/-'
p999
S'SYM'
p1000
S'I-NP'
p1001
g4
tp1002
a(S'12'
p1003
S'12'
p1004
S'CD'
p1005
S'I-NP'
p1006
g4
tp1007
a(g226
g226
g226
g4
g4
tp1008
a(S'post'
p1009
S'post'
p1010
S'NN'
p1011
S'B-NP'
p1012
g4
tp1013
a(g989
g989
S'SYM'
p1014
S'B-VP'
p1015
g4
tp1016
a(S'212'
p1017
S'212'
p1018
S'CD'
p1019
S'B-NP'
p1020
g4
tp1021
a(S'+/-'
p1022
S'+/-'
p1023
S'SYM'
p1024
S'I-NP'
p1025
g4
tp1026
a(S'63'
p1027
S'63'
p1028
S'CD'
p1029
S'I-NP'
p1030
g4
tp1031
a(S'micro'
p1032
S'micro'
p1033
S'NN'
p1034
S'I-NP'
p1035
g4
tp1036
a(S'g/L'
p1037
S'g/L'
p1038
S'NN'
p1039
S'I-NP'
p1040
g4
tp1041
a(g226
g226
g226
g4
g4
tp1042
a(S'P'
p1043
g1043
S'NN'
p1044
S'B-NP'
p1045
g4
tp1046
a(g989
g989
S'SYM'
p1047
S'B-VP'
p1048
g4
tp1049
a(S'0.02'
p1050
S'0.02'
p1051
S'CD'
p1052
S'B-NP'
p1053
g4
tp1054
a(S'vs.'
p1055
S'vs.'
p1056
S'IN'
p1057
S'B-PP'
p1058
g4
tp1059
a(S'placebo'
p1060
S'placebo'
p1061
S'NN'
p1062
S'B-NP'
p1063
g4
tp1064
a(g143
g143
g143
g4
g4
tp1065
a(g226
g226
g226
g4
g4
tp1066
a(S'and'
p1067
S'and'
p1068
S'CC'
p1069
g4
g4
tp1070
a(S'sICAM'
p1071
S'sICAM'
p1072
S'NN'
p1073
S'B-NP'
p1074
g4
tp1075
a(g135
g135
g135
g4
g4
tp1076
a(S'4.8'
p1077
S'4.8'
p1078
S'CD'
p1079
S'B-NP'
p1080
g4
tp1081
a(S'+/-'
p1082
S'+/-'
p1083
S'SYM'
p1084
g4
g4
tp1085
a(S'2.7'
p1086
S'2.7'
p1087
S'CD'
p1088
S'B-NP'
p1089
g4
tp1090
a(S'to'
p1091
S'to'
p1092
S'TO'
p1093
S'I-NP'
p1094
g4
tp1095
a(S'6.5'
p1096
S'6.5'
p1097
S'CD'
p1098
S'I-NP'
p1099
g4
tp1100
a(S'+/-'
p1101
S'+/-'
p1102
S'SYM'
p1103
S'I-NP'
p1104
g4
tp1105
a(S'2.9'
p1106
S'2.9'
p1107
S'CD'
p1108
S'I-NP'
p1109
g4
tp1110
a(S'ng/mL'
p1111
S'ng/mL'
p1112
S'NN'
p1113
S'I-NP'
p1114
g4
tp1115
a(g226
g226
g226
g4
g4
tp1116
a(g1043
g1043
S'NN'
p1117
S'B-NP'
p1118
g4
tp1119
a(g989
g989
S'SYM'
p1120
S'B-VP'
p1121
g4
tp1122
a(S'0.02'
p1123
S'0.02'
p1124
S'CD'
p1125
S'B-NP'
p1126
g4
tp1127
a(S'vs.'
p1128
S'vs.'
p1129
S'IN'
p1130
S'B-PP'
p1131
g4
tp1132
a(S'placebo'
p1133
S'placebo'
p1134
S'NN'
p1135
S'B-NP'
p1136
g4
tp1137
a(g143
g143
g143
g4
g4
tp1138
a(g226
g226
g226
g4
g4
tp1139
a(S'whereas'
p1140
S'whereas'
p1141
S'IN'
p1142
g4
g4
tp1143
a(S'IL-10'
p1144
S'IL-10'
p1145
S'NN'
p1146
S'B-NP'
p1147
S'B-protein'
p1148
tp1149
a(S'decreased'
p1150
S'decrease'
p1151
S'VBD'
p1152
S'B-VP'
p1153
g4
tp1154
a(S'after'
p1155
S'after'
p1156
S'IN'
p1157
S'B-PP'
p1158
g4
tp1159
a(S'provocation'
p1160
S'provocation'
p1161
S'NN'
p1162
S'B-NP'
p1163
g4
tp1164
a(g135
g135
g135
g4
g4
tp1165
a(S'44'
p1166
S'44'
p1167
S'CD'
p1168
S'B-NP'
p1169
g4
tp1170
a(S'+/-'
p1171
S'+/-'
p1172
S'SYM'
p1173
S'I-NP'
p1174
g4
tp1175
a(S'11'
p1176
S'11'
p1177
S'CD'
p1178
S'I-NP'
p1179
g4
tp1180
a(S'to'
p1181
S'to'
p1182
S'TO'
p1183
S'I-NP'
p1184
g4
tp1185
a(S'29'
p1186
S'29'
p1187
S'CD'
p1188
S'I-NP'
p1189
g4
tp1190
a(S'+/-'
p1191
S'+/-'
p1192
S'SYM'
p1193
S'I-NP'
p1194
g4
tp1195
a(S'6'
p1196
g1196
S'CD'
p1197
S'I-NP'
p1198
g4
tp1199
a(S'pg/mL'
p1200
S'pg/mL'
p1201
S'NN'
p1202
S'I-NP'
p1203
g4
tp1204
a(g226
g226
g226
g4
g4
tp1205
a(g1043
g1043
S'NN'
p1206
S'B-NP'
p1207
g4
tp1208
a(g989
g989
S'SYM'
p1209
S'B-VP'
p1210
g4
tp1211
a(S'0.06'
p1212
S'0.06'
p1213
S'CD'
p1214
S'B-NP'
p1215
g4
tp1216
a(S'vs.'
p1217
S'vs.'
p1218
S'IN'
p1219
S'B-PP'
p1220
g4
tp1221
a(S'placebo'
p1222
S'placebo'
p1223
S'NN'
p1224
S'B-NP'
p1225
g4
tp1226
a(g143
g143
g143
g4
g4
tp1227
a(g113
g113
g113
g4
g4
tp1228
a(S'Sputum'
p1229
S'Sputum'
p1230
S'NNP'
p1231
S'B-NP'
p1232
g4
tp1233
a(S'IL-5'
p1234
S'IL-5'
p1235
S'NN'
p1236
S'I-NP'
p1237
S'B-protein'
p1238
tp1239
a(S'was'
p1240
S'be'
p1241
S'VBD'
p1242
S'B-VP'
p1243
g4
tp1244
a(S'undetectable'
p1245
S'undetectable'
p1246
S'JJ'
p1247
S'B-ADJP'
p1248
g4
tp1249
a(S'in'
p1250
S'in'
p1251
S'IN'
p1252
S'B-PP'
p1253
g4
tp1254
a(S'all'
p1255
S'all'
p1256
S'DT'
p1257
S'B-NP'
p1258
g4
tp1259
a(S'patients.'
p1260
S'patients.'
p1261
S'NN'
p1262
S'I-NP'
p1263
g4
tp1264
a(S'The'
p1265
S'The'
p1266
S'DT'
p1267
S'B-NP'
p1268
g4
tp1269
a(S'absolute'
p1270
S'absolute'
p1271
S'JJ'
p1272
S'I-NP'
p1273
g4
tp1274
a(S'number'
p1275
S'number'
p1276
S'NN'
p1277
S'I-NP'
p1278
g4
tp1279
a(S'of'
p1280
S'of'
p1281
S'IN'
p1282
S'B-PP'
p1283
g4
tp1284
a(S'blood'
p1285
S'blood'
p1286
S'NN'
p1287
S'B-NP'
p1288
S'B-cell_type'
p1289
tp1290
a(S'and'
p1291
S'and'
p1292
S'CC'
p1293
S'I-NP'
p1294
S'I-cell_type'
p1295
tp1296
a(S'sputum'
p1297
S'sputum'
p1298
S'NN'
p1299
S'I-NP'
p1300
S'I-cell_type'
p1301
tp1302
a(S'eosinophils'
p1303
S'eosinophil'
p1304
S'NNS'
p1305
S'I-NP'
p1306
S'I-cell_type'
p1307
tp1308
a(S'did'
p1309
S'do'
p1310
S'VBD'
p1311
S'B-VP'
p1312
g4
tp1313
a(S'not'
p1314
S'not'
p1315
S'RB'
p1316
S'I-VP'
p1317
g4
tp1318
a(S'change'
p1319
S'change'
p1320
S'VB'
p1321
S'I-VP'
p1322
g4
tp1323
a(S'significantly'
p1324
S'significantly'
p1325
S'RB'
p1326
S'B-ADVP'
p1327
g4
tp1328
a(S'after'
p1329
S'after'
p1330
S'IN'
p1331
S'B-PP'
p1332
g4
tp1333
a(S'allergen'
p1334
S'allergen'
p1335
S'NN'
p1336
S'B-NP'
p1337
g4
tp1338
a(S'or'
p1339
S'or'
p1340
S'CC'
p1341
g4
g4
tp1342
a(S'placebo'
p1343
S'placebo'
p1344
S'NN'
p1345
S'B-NP'
p1346
g4
tp1347
a(S'challenge'
p1348
S'challenge'
p1349
S'NN'
p1350
S'I-NP'
p1351
g4
tp1352
a(g135
g135
g135
g4
g4
tp1353
a(g1043
g1043
S'NN'
p1354
S'B-NP'
p1355
g4
tp1356
a(S'>'
p1357
g1357
S'JJR'
p1358
S'B-NP'
p1359
g4
tp1360
a(S'0.07'
p1361
S'0.07'
p1362
S'CD'
p1363
S'I-NP'
p1364
g4
tp1365
a(g226
g226
g226
g4
g4
tp1366
a(S'both'
p1367
S'both'
p1368
S'DT'
p1369
S'B-NP'
p1370
g4
tp1371
a(S'comparisons'
p1372
S'comparison'
p1373
S'NNS'
p1374
S'I-NP'
p1375
g4
tp1376
a(g143
g143
g143
g4
g4
tp1377
a(g113
g113
g113
g4
g4
tp1378
a(S'Plasma'
p1379
S'Plasma'
p1380
S'NN'
p1381
S'B-NP'
p1382
g4
tp1383
a(S'levels'
p1384
S'level'
p1385
S'NNS'
p1386
S'I-NP'
p1387
g4
tp1388
a(S'of'
p1389
S'of'
p1390
S'IN'
p1391
S'B-PP'
p1392
g4
tp1393
a(S'IL-5'
p1394
S'IL-5'
p1395
S'NN'
p1396
S'B-NP'
p1397
S'B-protein'
p1398
tp1399
a(S'increased'
p1400
S'increase'
p1401
S'VBD'
p1402
S'B-VP'
p1403
g4
tp1404
a(S'after'
p1405
S'after'
p1406
S'IN'
p1407
S'B-PP'
p1408
g4
tp1409
a(S'allergen'
p1410
S'allergen'
p1411
S'NN'
p1412
S'B-NP'
p1413
g4
tp1414
a(S'challenge'
p1415
S'challenge'
p1416
S'NN'
p1417
S'I-NP'
p1418
g4
tp1419
a(g135
g135
g135
g4
g4
tp1420
a(S'8.7'
p1421
S'8.7'
p1422
S'CD'
p1423
S'B-NP'
p1424
g4
tp1425
a(S'+/-'
p1426
S'+/-'
p1427
S'SYM'
p1428
S'I-NP'
p1429
g4
tp1430
a(S'2.9'
p1431
S'2.9'
p1432
S'CD'
p1433
S'I-NP'
p1434
g4
tp1435
a(S'to'
p1436
S'to'
p1437
S'TO'
p1438
S'I-NP'
p1439
g4
tp1440
a(S'14.5'
p1441
S'14.5'
p1442
S'CD'
p1443
S'I-NP'
p1444
g4
tp1445
a(S'+/-'
p1446
S'+/-'
p1447
S'SYM'
p1448
S'I-NP'
p1449
g4
tp1450
a(S'3.9'
p1451
S'3.9'
p1452
S'CD'
p1453
S'I-NP'
p1454
g4
tp1455
a(S'pg/mL'
p1456
S'pg/mL'
p1457
S'NN'
p1458
S'I-NP'
p1459
g4
tp1460
a(g226
g226
g226
g4
g4
tp1461
a(g1043
g1043
S'NN'
p1462
S'B-NP'
p1463
g4
tp1464
a(g989
g989
S'SYM'
p1465
S'B-VP'
p1466
g4
tp1467
a(S'0.001'
p1468
S'0.001'
p1469
S'CD'
p1470
S'B-NP'
p1471
g4
tp1472
a(g143
g143
g143
g4
g4
tp1473
a(g226
g226
g226
g4
g4
tp1474
a(S'and'
p1475
S'and'
p1476
S'CC'
p1477
g4
g4
tp1478
a(S'the'
p1479
S'the'
p1480
S'DT'
p1481
S'B-NP'
p1482
g4
tp1483
a(S'increase'
p1484
S'increase'
p1485
S'NN'
p1486
S'I-NP'
p1487
g4
tp1488
a(S'in'
p1489
S'in'
p1490
S'IN'
p1491
S'B-PP'
p1492
g4
tp1493
a(S'plasma'
p1494
S'plasma'
p1495
S'NN'
p1496
S'B-NP'
p1497
g4
tp1498
a(S'IL-5'
p1499
S'IL-5'
p1500
S'NN'
p1501
S'I-NP'
p1502
S'B-protein'
p1503
tp1504
a(S'was'
p1505
S'be'
p1506
S'VBD'
p1507
S'B-VP'
p1508
g4
tp1509
a(S'positively'
p1510
S'positively'
p1511
S'RB'
p1512
S'I-VP'
p1513
g4
tp1514
a(S'correlated'
p1515
S'correlate'
p1516
S'VBN'
p1517
S'I-VP'
p1518
g4
tp1519
a(S'with'
p1520
S'with'
p1521
S'IN'
p1522
S'B-PP'
p1523
g4
tp1524
a(S'the'
p1525
S'the'
p1526
S'DT'
p1527
S'B-NP'
p1528
g4
tp1529
a(S'rise'
p1530
S'rise'
p1531
S'NN'
p1532
S'I-NP'
p1533
g4
tp1534
a(S'in'
p1535
S'in'
p1536
S'IN'
p1537
S'B-PP'
p1538
g4
tp1539
a(S'sputum'
p1540
S'sputum'
p1541
S'NN'
p1542
S'B-NP'
p1543
g4
tp1544
a(S'ECP'
p1545
S'ECP'
p1546
S'NN'
p1547
S'I-NP'
p1548
g4
tp1549
a(S'in'
p1550
S'in'
p1551
S'IN'
p1552
S'B-PP'
p1553
g4
tp1554
a(g150
g150
S'DT'
p1555
S'B-NP'
p1556
g4
tp1557
a(S'subgroup'
p1558
S'subgroup'
p1559
S'NN'
p1560
S'I-NP'
p1561
g4
tp1562
a(S'of'
p1563
S'of'
p1564
S'IN'
p1565
S'B-PP'
p1566
g4
tp1567
a(S"'responders"
p1568
S"'responder"
p1569
S'NNS'
p1570
S'B-NP'
p1571
g4
tp1572
a(S"'"
p1573
g1573
S'POS'
p1574
S'B-NP'
p1575
g4
tp1576
a(g135
g135
g135
g4
g4
tp1577
a(S'n'
p1578
g1578
S'NN'
p1579
S'B-NP'
p1580
g4
tp1581
a(g989
g989
S'SYM'
p1582
S'B-VP'
p1583
g4
tp1584
a(S'12'
p1585
S'12'
p1586
S'CD'
p1587
S'B-NP'
p1588
g4
tp1589
a(g226
g226
g226
g4
g4
tp1590
a(S'r'
p1591
g1591
S'NN'
p1592
S'B-NP'
p1593
g4
tp1594
a(g989
g989
S'SYM'
p1595
S'B-VP'
p1596
g4
tp1597
a(S'0.71'
p1598
S'0.71'
p1599
S'CD'
p1600
S'B-NP'
p1601
g4
tp1602
a(g226
g226
g226
g4
g4
tp1603
a(g1043
g1043
S'NN'
p1604
S'B-NP'
p1605
g4
tp1606
a(g989
g989
S'SYM'
p1607
S'B-VP'
p1608
g4
tp1609
a(S'0.01'
p1610
S'0.01'
p1611
S'CD'
p1612
S'B-NP'
p1613
g4
tp1614
a(g143
g143
g143
g4
g4
tp1615
a(g113
g113
g113
g4
g4
tp1616
a(S'CONCLUSIONS'
p1617
S'CONCLUSIONS'
p1618
S'NNS'
p1619
S'B-NP'
p1620
g4
tp1621
a(g1
g1
S'DT'
p1622
S'B-NP'
p1623
g4
tp1624
a(S'single'
p1625
S'single'
p1626
S'JJ'
p1627
S'I-NP'
p1628
g4
tp1629
a(S'nasal'
p1630
S'nasal'
p1631
S'JJ'
p1632
S'I-NP'
p1633
g4
tp1634
a(S'allergen'
p1635
S'allergen'
p1636
S'NN'
p1637
S'I-NP'
p1638
g4
tp1639
a(S'challenge'
p1640
S'challenge'
p1641
S'NN'
p1642
S'I-NP'
p1643
g4
tp1644
a(S'in'
p1645
S'in'
p1646
S'IN'
p1647
S'B-PP'
p1648
g4
tp1649
a(S'SAR'
p1650
S'SAR'
p1651
S'NN'
p1652
S'B-NP'
p1653
g4
tp1654
a(S'patients'
p1655
S'patient'
p1656
S'NNS'
p1657
S'I-NP'
p1658
g4
tp1659
a(S'increased'
p1660
S'increase'
p1661
S'VBD'
p1662
S'B-VP'
p1663
g4
tp1664
a(S'markers'
p1665
S'marker'
p1666
S'NNS'
p1667
S'B-NP'
p1668
g4
tp1669
a(S'of'
p1670
S'of'
p1671
S'IN'
p1672
S'B-PP'
p1673
g4
tp1674
a(S'allergic'
p1675
S'allergic'
p1676
S'JJ'
p1677
S'B-NP'
p1678
g4
tp1679
a(S'inflammation'
p1680
S'inflammation'
p1681
S'NN'
p1682
S'I-NP'
p1683
g4
tp1684
a(S'in'
p1685
S'in'
p1686
S'IN'
p1687
S'B-PP'
p1688
g4
tp1689
a(S'the'
p1690
S'the'
p1691
S'DT'
p1692
S'B-NP'
p1693
g4
tp1694
a(S'lower'
p1695
S'low'
p1696
S'JJR'
p1697
S'I-NP'
p1698
g4
tp1699
a(S'respiratory'
p1700
S'respiratory'
p1701
S'JJ'
p1702
S'I-NP'
p1703
g4
tp1704
a(S'tract'
p1705
S'tract'
p1706
S'NN'
p1707
S'I-NP'
p1708
g4
tp1709
a(g226
g226
g226
g4
g4
tp1710
a(S'possibly'
p1711
S'possibly'
p1712
S'RB'
p1713
S'B-ADVP'
p1714
g4
tp1715
a(S'via'
p1716
S'via'
p1717
S'IN'
p1718
S'B-PP'
p1719
g4
tp1720
a(S'pronounced'
p1721
S'pronounced'
p1722
S'JJ'
p1723
S'B-NP'
p1724
g4
tp1725
a(S'activation'
p1726
S'activation'
p1727
S'NN'
p1728
S'I-NP'
p1729
g4
tp1730
a(S'of'
p1731
S'of'
p1732
S'IN'
p1733
S'B-PP'
p1734
g4
tp1735
a(S'inflammatory'
p1736
S'inflammatory'
p1737
S'JJ'
p1738
S'B-NP'
p1739
S'B-cell_type'
p1740
tp1741
a(S'cells'
p1742
S'cell'
p1743
S'NNS'
p1744
S'I-NP'
p1745
S'I-cell_type'
p1746
tp1747
a(S'through'
p1748
S'through'
p1749
S'IN'
p1750
S'B-PP'
p1751
g4
tp1752
a(S'circulating'
p1753
S'circulate'
p1754
S'VBG'
p1755
S'B-VP'
p1756
S'B-protein'
p1757
tp1758
a(S'immediate-type'
p1759
S'immediate-type'
p1760
S'JJ'
p1761
S'B-NP'
p1762
S'I-protein'
p1763
tp1764
a(S'reaction'
p1765
S'reaction'
p1766
S'NN'
p1767
S'I-NP'
p1768
S'I-protein'
p1769
tp1770
a(S'cytokines'
p1771
S'cytokine'
p1772
S'NNS'
p1773
S'I-NP'
p1774
S'I-protein'
p1775
tp1776
a(S'like'
p1777
S'like'
p1778
S'IN'
p1779
S'B-PP'
p1780
g4
tp1781
a(S'IL-5.'
p1782
S'IL-5.'
p1783
S'NN'
p1784
S'B-NP'
p1785
S'B-protein'
p1786
tp1787
a(S'These'
p1788
S'These'
p1789
S'DT'
p1790
S'B-NP'
p1791
g4
tp1792
a(S'findings'
p1793
S'finding'
p1794
S'NNS'
p1795
S'I-NP'
p1796
g4
tp1797
a(S'may'
p1798
S'may'
p1799
S'MD'
p1800
S'B-VP'
p1801
g4
tp1802
a(S'provide'
p1803
S'provide'
p1804
S'VB'
p1805
S'I-VP'
p1806
g4
tp1807
a(S'additional'
p1808
S'additional'
p1809
S'JJ'
p1810
S'B-NP'
p1811
g4
tp1812
a(S'explanatory'
p1813
S'explanatory'
p1814
S'JJ'
p1815
S'I-NP'
p1816
g4
tp1817
a(S'data'
p1818
S'datum'
p1819
S'NNS'
p1820
S'I-NP'
p1821
g4
tp1822
a(S'for'
p1823
S'for'
p1824
S'IN'
p1825
S'B-PP'
p1826
g4
tp1827
a(S'the'
p1828
S'the'
p1829
S'DT'
p1830
S'B-NP'
p1831
g4
tp1832
a(S'high'
p1833
S'high'
p1834
S'JJ'
p1835
S'I-NP'
p1836
g4
tp1837
a(S'susceptibility'
p1838
S'susceptibility'
p1839
S'NN'
p1840
S'I-NP'
p1841
g4
tp1842
a(S'of'
p1843
S'of'
p1844
S'IN'
p1845
S'B-PP'
p1846
g4
tp1847
a(S'SAR'
p1848
S'SAR'
p1849
S'NN'
p1850
S'B-NP'
p1851
g4
tp1852
a(S'patients'
p1853
S'patient'
p1854
S'NNS'
p1855
S'I-NP'
p1856
g4
tp1857
a(S'to'
p1858
S'to'
p1859
S'TO'
p1860
S'B-PP'
p1861
g4
tp1862
a(S'incident'
p1863
S'incident'
p1864
S'JJ'
p1865
S'B-NP'
p1866
g4
tp1867
a(S'asthma'
p1868
S'asthma'
p1869
S'NN'
p1870
S'I-NP'
p1871
g4
tp1872
a(g113
g113
g113
g4
g4
tp1873
a.