(lp0
(S'['
p1
g1
S'('
p2
S'O'
p3
g3
tp4
a(S'Randomized'
p5
S'Randomize'
p6
S'VBN'
p7
S'B-NP'
p8
g3
tp9
a(S'study'
p10
S'study'
p11
S'NN'
p12
S'I-NP'
p13
g3
tp14
a(S'on'
p15
S'on'
p16
S'IN'
p17
S'B-PP'
p18
g3
tp19
a(S'the'
p20
S'the'
p21
S'DT'
p22
S'B-NP'
p23
g3
tp24
a(S'long-term'
p25
S'long-term'
p26
S'JJ'
p27
S'I-NP'
p28
g3
tp29
a(S'adjuvant'
p30
S'adjuvant'
p31
S'JJ'
p32
S'I-NP'
p33
g3
tp34
a(S'chemotherapy'
p35
S'chemotherapy'
p36
S'NN'
p37
S'I-NP'
p38
g3
tp39
a(S'with'
p40
S'with'
p41
S'IN'
p42
S'B-PP'
p43
g3
tp44
a(S'ftorafur'
p45
S'ftorafur'
p46
S'NN'
p47
S'B-NP'
p48
g3
tp49
a(S'and'
p50
S'and'
p51
S'CC'
p52
S'I-NP'
p53
g3
tp54
a(S'mitomycin'
p55
S'mitomycin'
p56
S'NN'
p57
S'I-NP'
p58
g3
tp59
a(S'C'
p60
g60
S'NN'
p61
S'I-NP'
p62
g3
tp63
a(S'for'
p64
S'for'
p65
S'IN'
p66
S'B-PP'
p67
g3
tp68
a(S'stomach'
p69
S'stomach'
p70
S'NN'
p71
S'B-NP'
p72
g3
tp73
a(S'cancer'
p74
S'cancer'
p75
S'NN'
p76
S'I-NP'
p77
g3
tp78
a(S':'
p79
g79
g79
g3
g3
tp80
a(S'second'
p81
S'second'
p82
S'JJ'
p83
S'B-NP'
p84
g3
tp85
a(S'report'
p86
S'report'
p87
S'NN'
p88
S'I-NP'
p89
g3
tp90
a(S']'
p91
g91
S')'
p92
g3
g3
tp93
a(S'.'
p94
g94
g94
g3
g3
tp95
a(S'In'
p96
S'In'
p97
S'IN'
p98
S'B-PP'
p99
g3
tp100
a(S'view'
p101
S'view'
p102
S'NN'
p103
S'B-NP'
p104
g3
tp105
a(S'of'
p106
S'of'
p107
S'IN'
p108
S'B-PP'
p109
g3
tp110
a(S'the'
p111
S'the'
p112
S'DT'
p113
S'B-NP'
p114
g3
tp115
a(S'usefulness'
p116
S'usefulness'
p117
S'NN'
p118
S'I-NP'
p119
g3
tp120
a(S'of'
p121
S'of'
p122
S'IN'
p123
S'B-PP'
p124
g3
tp125
a(S'long-term'
p126
S'long-term'
p127
S'JJ'
p128
S'B-NP'
p129
g3
tp130
a(S'adjuvant'
p131
S'adjuvant'
p132
S'JJ'
p133
S'I-NP'
p134
g3
tp135
a(S'chemotherapy'
p136
S'chemotherapy'
p137
S'NN'
p138
S'I-NP'
p139
g3
tp140
a(S','
p141
g141
g141
g3
g3
tp142
a(S'the'
p143
S'the'
p144
S'DT'
p145
S'B-NP'
p146
g3
tp147
a(S'Cooperative'
p148
S'Cooperative'
p149
S'NNP'
p150
S'I-NP'
p151
g3
tp152
a(S'Study'
p153
S'Study'
p154
S'NNP'
p155
S'I-NP'
p156
g3
tp157
a(S'Group'
p158
S'Group'
p159
S'NNP'
p160
S'I-NP'
p161
g3
tp162
a(S'of'
p163
S'of'
p164
S'IN'
p165
S'B-PP'
p166
g3
tp167
a(S'Surgical'
p168
S'Surgical'
p169
S'NNP'
p170
S'B-NP'
p171
g3
tp172
a(S'Adjuvant'
p173
S'Adjuvant'
p174
S'NNP'
p175
S'I-NP'
p176
g3
tp177
a(S'Chemotherapy'
p178
S'Chemotherapy'
p179
S'NNP'
p180
S'I-NP'
p181
g3
tp182
a(S'for'
p183
S'for'
p184
S'IN'
p185
S'B-PP'
p186
g3
tp187
a(S'Gastric'
p188
S'Gastric'
p189
S'NNP'
p190
S'B-NP'
p191
g3
tp192
a(S'Cancer'
p193
S'Cancer'
p194
S'NNP'
p195
S'I-NP'
p196
g3
tp197
a(S'adopted'
p198
S'adopt'
p199
S'VBD'
p200
S'B-VP'
p201
g3
tp202
a(S'as'
p203
S'as'
p204
S'IN'
p205
S'B-PP'
p206
g3
tp207
a(S'the'
p208
S'the'
p209
S'DT'
p210
S'B-NP'
p211
g3
tp212
a(S'second'
p213
S'second'
p214
S'JJ'
p215
S'I-NP'
p216
g3
tp217
a(S'cooperative'
p218
S'cooperative'
p219
S'JJ'
p220
S'I-NP'
p221
g3
tp222
a(S'study'
p223
S'study'
p224
S'NN'
p225
S'I-NP'
p226
g3
tp227
a(S'a'
p228
g228
S'DT'
p229
S'B-NP'
p230
g3
tp231
a(S'prospective'
p232
S'prospective'
p233
S'JJ'
p234
S'I-NP'
p235
g3
tp236
a(S'randomized'
p237
S'randomize'
p238
S'VBN'
p239
S'I-NP'
p240
g3
tp241
a(S'trial'
p242
S'trial'
p243
S'NN'
p244
S'I-NP'
p245
g3
tp246
a(S'on'
p247
S'on'
p248
S'IN'
p249
S'B-PP'
p250
g3
tp251
a(S'three'
p252
S'three'
p253
S'CD'
p254
S'B-NP'
p255
g3
tp256
a(S'groups'
p257
S'group'
p258
S'NNS'
p259
S'I-NP'
p260
g3
tp261
a(S';'
p262
g262
g79
g3
g3
tp263
a(S'MMC'
p264
S'MMC'
p265
S'NN'
p266
S'B-NP'
p267
g3
tp268
a(S'alone'
p269
S'alone'
p270
S'RB'
p271
S'B-ADVP'
p272
g3
tp273
a(g141
g141
g141
g3
g3
tp274
a(S'Futraful'
p275
S'Futraful'
p276
S'JJ'
p277
S'B-ADJP'
p278
g3
tp279
a(S'alone'
p280
S'alone'
p281
S'RB'
p282
S'B-ADVP'
p283
g3
tp284
a(S'and'
p285
S'and'
p286
S'CC'
p287
g3
g3
tp288
a(g228
g228
S'DT'
p289
S'B-NP'
p290
g3
tp291
a(S'combination'
p292
S'combination'
p293
S'NN'
p294
S'I-NP'
p295
g3
tp296
a(S'of'
p297
S'of'
p298
S'IN'
p299
S'B-PP'
p300
g3
tp301
a(S'MMC'
p302
S'MMC'
p303
S'NNP'
p304
S'B-NP'
p305
S'B-cell_type'
p306
tp307
a(S'and'
p308
S'and'
p309
S'CC'
p310
S'I-NP'
p311
g3
tp312
a(S'Futraful.'
p313
S'Futraful.'
p314
S'NNP'
p315
S'I-NP'
p316
g3
tp317
a(S'In'
p318
S'In'
p319
S'IN'
p320
S'B-PP'
p321
g3
tp322
a(S'the'
p323
S'the'
p324
S'DT'
p325
S'B-NP'
p326
g3
tp327
a(S'group'
p328
S'group'
p329
S'NN'
p330
S'I-NP'
p331
g3
tp332
a(S'of'
p333
S'of'
p334
S'IN'
p335
S'B-PP'
p336
g3
tp337
a(S'Futraful'
p338
S'Futraful'
p339
S'JJ'
p340
S'B-NP'
p341
g3
tp342
a(S'alone'
p343
S'alone'
p344
S'RB'
p345
S'I-NP'
p346
g3
tp347
a(S'the'
p348
S'the'
p349
S'DT'
p350
S'B-NP'
p351
g3
tp352
a(S'survival'
p353
S'survival'
p354
S'NN'
p355
S'I-NP'
p356
g3
tp357
a(S'and'
p358
S'and'
p359
S'CC'
p360
S'I-NP'
p361
g3
tp362
a(S'disease-free'
p363
S'disease-free'
p364
S'JJ'
p365
S'I-NP'
p366
g3
tp367
a(S'rate'
p368
S'rate'
p369
S'NN'
p370
S'I-NP'
p371
g3
tp372
a(S'were'
p373
S'be'
p374
S'VBD'
p375
S'B-VP'
p376
g3
tp377
a(S'improved'
p378
S'improve'
p379
S'VBN'
p380
S'I-VP'
p381
g3
tp382
a(S'in'
p383
S'in'
p384
S'IN'
p385
S'B-PP'
p386
g3
tp387
a(S'three'
p388
S'three'
p389
S'CD'
p390
S'B-NP'
p391
g3
tp392
a(S'years'
p393
S'year'
p394
S'NNS'
p395
S'I-NP'
p396
g3
tp397
a(S'after'
p398
S'after'
p399
S'IN'
p400
S'B-PP'
p401
g3
tp402
a(S'operation'
p403
S'operation'
p404
S'NN'
p405
S'B-NP'
p406
g3
tp407
a(g141
g141
g141
g3
g3
tp408
a(S'especially'
p409
S'especially'
p410
S'RB'
p411
S'B-VP'
p412
g3
tp413
a(S'marked'
p414
S'mark'
p415
S'VBN'
p416
S'I-VP'
p417
g3
tp418
a(S'in'
p419
S'in'
p420
S'IN'
p421
S'B-PP'
p422
g3
tp423
a(S'patients'
p424
S'patient'
p425
S'NNS'
p426
S'B-NP'
p427
g3
tp428
a(S'with'
p429
S'with'
p430
S'IN'
p431
S'B-PP'
p432
g3
tp433
a(S'the'
p434
S'the'
p435
S'DT'
p436
S'B-NP'
p437
g3
tp438
a(S'advanced'
p439
S'advanced'
p440
S'JJ'
p441
S'I-NP'
p442
g3
tp443
a(S'stage.'
p444
S'stage.'
p445
S'NN'
p446
S'I-NP'
p447
g3
tp448
a(S'Moreover'
p449
S'Moreover'
p450
S'RB'
p451
S'B-ADVP'
p452
g3
tp453
a(g141
g141
g141
g3
g3
tp454
a(S'the'
p455
S'the'
p456
S'DT'
p457
S'B-NP'
p458
g3
tp459
a(S'survival'
p460
S'survival'
p461
S'NN'
p462
S'I-NP'
p463
g3
tp464
a(S'and'
p465
S'and'
p466
S'CC'
p467
S'I-NP'
p468
g3
tp469
a(S'disease-free'
p470
S'disease-free'
p471
S'JJ'
p472
S'I-NP'
p473
g3
tp474
a(S'rate'
p475
S'rate'
p476
S'NN'
p477
S'I-NP'
p478
g3
tp479
a(S'in'
p480
S'in'
p481
S'IN'
p482
S'B-PP'
p483
g3
tp484
a(S'the'
p485
S'the'
p486
S'DT'
p487
S'B-NP'
p488
g3
tp489
a(S'group'
p490
S'group'
p491
S'NN'
p492
S'I-NP'
p493
g3
tp494
a(S'of'
p495
S'of'
p496
S'IN'
p497
S'B-PP'
p498
g3
tp499
a(S'the'
p500
S'the'
p501
S'DT'
p502
S'B-NP'
p503
g3
tp504
a(S'combination'
p505
S'combination'
p506
S'NN'
p507
S'I-NP'
p508
g3
tp509
a(S'therapy'
p510
S'therapy'
p511
S'NN'
p512
S'I-NP'
p513
g3
tp514
a(S'were'
p515
S'be'
p516
S'VBD'
p517
S'B-VP'
p518
g3
tp519
a(S'higher'
p520
S'high'
p521
S'JJR'
p522
S'B-ADJP'
p523
g3
tp524
a(S'than'
p525
S'than'
p526
S'IN'
p527
S'B-PP'
p528
g3
tp529
a(S'those'
p530
S'those'
p531
S'DT'
p532
S'B-NP'
p533
g3
tp534
a(S'in'
p535
S'in'
p536
S'IN'
p537
S'B-PP'
p538
g3
tp539
a(S'the'
p540
S'the'
p541
S'DT'
p542
S'B-NP'
p543
g3
tp544
a(S'group'
p545
S'group'
p546
S'NN'
p547
S'I-NP'
p548
g3
tp549
a(S'of'
p550
S'of'
p551
S'IN'
p552
S'B-PP'
p553
g3
tp554
a(S'Futraful'
p555
S'Futraful'
p556
S'JJ'
p557
S'B-NP'
p558
g3
tp559
a(S'alone'
p560
S'alone'
p561
S'RB'
p562
S'B-ADVP'
p563
g3
tp564
a(g141
g141
g141
g3
g3
tp565
a(S'and'
p566
S'and'
p567
S'CC'
p568
g3
g3
tp569
a(S'the'
p570
S'the'
p571
S'DT'
p572
S'B-NP'
p573
g3
tp574
a(S'relapse'
p575
S'relapse'
p576
S'NN'
p577
S'I-NP'
p578
g3
tp579
a(S'rate'
p580
S'rate'
p581
S'NN'
p582
S'I-NP'
p583
g3
tp584
a(S'was'
p585
S'be'
p586
S'VBD'
p587
S'B-VP'
p588
g3
tp589
a(S'lower'
p590
S'low'
p591
S'JJR'
p592
S'B-ADJP'
p593
g3
tp594
a(S'in'
p595
S'in'
p596
S'IN'
p597
S'B-PP'
p598
g3
tp599
a(S'the'
p600
S'the'
p601
S'DT'
p602
S'B-NP'
p603
g3
tp604
a(S'former.'
p605
S'former.'
p606
S'NN'
p607
S'I-NP'
p608
g3
tp609
a(S'Therefore'
p610
S'Therefore'
p611
S'RB'
p612
S'B-ADVP'
p613
g3
tp614
a(g141
g141
g141
g3
g3
tp615
a(g228
g228
S'DT'
p616
S'B-NP'
p617
g3
tp618
a(S'long-term'
p619
S'long-term'
p620
S'JJ'
p621
S'I-NP'
p622
g3
tp623
a(S'combined'
p624
S'combined'
p625
S'JJ'
p626
S'I-NP'
p627
g3
tp628
a(S'adjuvant'
p629
S'adjuvant'
p630
S'JJ'
p631
S'I-NP'
p632
g3
tp633
a(S'chemotherapy'
p634
S'chemotherapy'
p635
S'NN'
p636
S'I-NP'
p637
g3
tp638
a(S'with'
p639
S'with'
p640
S'IN'
p641
S'B-PP'
p642
g3
tp643
a(S'MMC'
p644
S'MMC'
p645
S'NN'
p646
S'B-NP'
p647
S'B-protein'
p648
tp649
a(S'and'
p650
S'and'
p651
S'CC'
p652
g3
g3
tp653
a(S'Futraful'
p654
S'Futraful'
p655
S'NNP'
p656
S'B-NP'
p657
g3
tp658
a(S'seems'
p659
S'seem'
p660
S'VBZ'
p661
S'B-VP'
p662
g3
tp663
a(S'to'
p664
S'to'
p665
S'TO'
p666
S'I-VP'
p667
g3
tp668
a(S'be'
p669
S'be'
p670
S'VB'
p671
S'I-VP'
p672
g3
tp673
a(S'one'
p674
S'one'
p675
S'CD'
p676
S'B-NP'
p677
g3
tp678
a(S'of'
p679
S'of'
p680
S'IN'
p681
S'B-PP'
p682
g3
tp683
a(S'the'
p684
S'the'
p685
S'DT'
p686
S'B-NP'
p687
g3
tp688
a(S'most'
p689
S'most'
p690
S'RBS'
p691
S'I-NP'
p692
g3
tp693
a(S'effective'
p694
S'effective'
p695
S'JJ'
p696
S'I-NP'
p697
g3
tp698
a(S'chemotherapy'
p699
S'chemotherapy'
p700
S'NN'
p701
S'I-NP'
p702
g3
tp703
a(S'regimens'
p704
S'regimen'
p705
S'NNS'
p706
S'I-NP'
p707
g3
tp708
a(S'for'
p709
S'for'
p710
S'IN'
p711
S'B-PP'
p712
g3
tp713
a(S'resectable'
p714
S'resectable'
p715
S'JJ'
p716
S'B-NP'
p717
g3
tp718
a(S'advanced'
p719
S'advanced'
p720
S'JJ'
p721
S'I-NP'
p722
g3
tp723
a(S'gastric'
p724
S'gastric'
p725
S'JJ'
p726
S'I-NP'
p727
g3
tp728
a(S'cancer'
p729
S'cancer'
p730
S'NN'
p731
S'I-NP'
p732
g3
tp733
a(g94
g94
g94
g3
g3
tp734
a.