(lp0
(S'['
p1
g1
S'('
p2
S'O'
p3
g3
tp4
a(S'A'
p5
g5
S'DT'
p6
S'B-NP'
p7
g3
tp8
a(S'clinical'
p9
S'clinical'
p10
S'JJ'
p11
S'I-NP'
p12
g3
tp13
a(S'trial'
p14
S'trial'
p15
S'NN'
p16
S'I-NP'
p17
g3
tp18
a(S'of'
p19
S'of'
p20
S'IN'
p21
S'B-PP'
p22
g3
tp23
a(S'ultrasound-guided'
p24
S'ultrasound-guided'
p25
S'JJ'
p26
S'B-NP'
p27
g3
tp28
a(S'facet'
p29
S'facet'
p30
S'NN'
p31
S'I-NP'
p32
g3
tp33
a(S'joint'
p34
S'joint'
p35
S'NN'
p36
S'I-NP'
p37
g3
tp38
a(S'block'
p39
S'block'
p40
S'NN'
p41
S'I-NP'
p42
g3
tp43
a(S'in'
p44
S'in'
p45
S'IN'
p46
S'B-PP'
p47
g3
tp48
a(S'the'
p49
S'the'
p50
S'DT'
p51
S'B-NP'
p52
g3
tp53
a(S'lumbar'
p54
S'lumbar'
p55
S'JJ'
p56
S'I-NP'
p57
g3
tp58
a(S'spine'
p59
S'spine'
p60
S'NN'
p61
S'I-NP'
p62
g3
tp63
a(S'to'
p64
S'to'
p65
S'TO'
p66
S'B-VP'
p67
g3
tp68
a(S'treat'
p69
S'treat'
p70
S'VB'
p71
S'I-VP'
p72
g3
tp73
a(S'facet'
p74
S'facet'
p75
S'NN'
p76
S'B-NP'
p77
g3
tp78
a(S'joint'
p79
S'joint'
p80
S'JJ'
p81
S'I-NP'
p82
g3
tp83
a(S'related'
p84
S'relate'
p85
S'VBN'
p86
S'I-NP'
p87
g3
tp88
a(S'low'
p89
S'low'
p90
S'JJ'
p91
S'I-NP'
p92
g3
tp93
a(S'back'
p94
S'back'
p95
S'JJ'
p96
S'I-NP'
p97
g3
tp98
a(S'pain'
p99
S'pain'
p100
S'NN'
p101
S'I-NP'
p102
g3
tp103
a(S']'
p104
g104
S')'
p105
g3
g3
tp106
a(S'.'
p107
g107
g107
g3
g3
tp108
a(S'OBJECTIVE'
p109
S'OBJECTIVE'
p110
S'NN'
p111
S'B-NP'
p112
g3
tp113
a(S'To'
p114
S'To'
p115
S'TO'
p116
S'B-VP'
p117
g3
tp118
a(S'determine'
p119
S'determine'
p120
S'VB'
p121
S'I-VP'
p122
g3
tp123
a(S'the'
p124
S'the'
p125
S'DT'
p126
S'B-NP'
p127
g3
tp128
a(S'feasibility'
p129
S'feasibility'
p130
S'NN'
p131
S'I-NP'
p132
g3
tp133
a(S'and'
p134
S'and'
p135
S'CC'
p136
g3
g3
tp137
a(S'clinical'
p138
S'clinical'
p139
S'JJ'
p140
S'B-NP'
p141
g3
tp142
a(S'efficacy'
p143
S'efficacy'
p144
S'NN'
p145
S'I-NP'
p146
g3
tp147
a(S'of'
p148
S'of'
p149
S'IN'
p150
S'B-PP'
p151
g3
tp152
a(S'ultrasound-guided'
p153
S'ultrasound-guided'
p154
S'JJ'
p155
S'B-NP'
p156
g3
tp157
a(S'facet'
p158
S'facet'
p159
S'NN'
p160
S'I-NP'
p161
g3
tp162
a(S'joint'
p163
S'joint'
p164
S'NN'
p165
S'I-NP'
p166
g3
tp167
a(S'injection'
p168
S'injection'
p169
S'NN'
p170
S'I-NP'
p171
g3
tp172
a(S'and'
p173
S'and'
p174
S'CC'
p175
S'I-NP'
p176
g3
tp177
a(S'nerve'
p178
S'nerve'
p179
S'NN'
p180
S'I-NP'
p181
g3
tp182
a(S'block'
p183
S'block'
p184
S'NN'
p185
S'I-NP'
p186
g3
tp187
a(S'in'
p188
S'in'
p189
S'IN'
p190
S'B-PP'
p191
g3
tp192
a(S'lumbar'
p193
S'lumbar'
p194
S'NN'
p195
S'B-NP'
p196
g3
tp197
a(S'facet'
p198
S'facet'
p199
S'NN'
p200
S'I-NP'
p201
g3
tp202
a(S'joint'
p203
S'joint'
p204
S'NN'
p205
S'I-NP'
p206
g3
tp207
a(S'for'
p208
S'for'
p209
S'IN'
p210
S'B-PP'
p211
g3
tp212
a(S'the'
p213
S'the'
p214
S'DT'
p215
S'B-NP'
p216
g3
tp217
a(S'treatment'
p218
S'treatment'
p219
S'NN'
p220
S'I-NP'
p221
g3
tp222
a(S'of'
p223
S'of'
p224
S'IN'
p225
S'B-PP'
p226
g3
tp227
a(S'facet-joint'
p228
S'facet-joint'
p229
S'JJ'
p230
S'B-NP'
p231
g3
tp232
a(S'related'
p233
S'relate'
p234
S'VBN'
p235
S'I-NP'
p236
g3
tp237
a(S'low'
p238
S'low'
p239
S'JJ'
p240
S'I-NP'
p241
g3
tp242
a(S'back'
p243
S'back'
p244
S'JJ'
p245
S'I-NP'
p246
g3
tp247
a(S'pain'
p248
S'pain'
p249
S'NN'
p250
S'I-NP'
p251
g3
tp252
a(g107
g107
g107
g3
g3
tp253
a(S'METHODS'
p254
S'METHODS'
p255
S'NNS'
p256
S'B-NP'
p257
g3
tp258
a(S'20'
p259
S'20'
p260
S'CD'
p261
S'B-NP'
p262
g3
tp263
a(S'patients'
p264
S'patient'
p265
S'NNS'
p266
S'I-NP'
p267
g3
tp268
a(S'with'
p269
S'with'
p270
S'IN'
p271
S'B-PP'
p272
g3
tp273
a(S'facet-joint'
p274
S'facet-joint'
p275
S'JJ'
p276
S'B-NP'
p277
g3
tp278
a(S'pain'
p279
S'pain'
p280
S'NN'
p281
S'I-NP'
p282
g3
tp283
a(S'were'
p284
S'be'
p285
S'VBD'
p286
S'B-VP'
p287
g3
tp288
a(S'randomized'
p289
S'randomize'
p290
S'VBN'
p291
S'I-VP'
p292
g3
tp293
a(S'into'
p294
S'into'
p295
S'IN'
p296
S'B-PP'
p297
g3
tp298
a(S'two'
p299
S'two'
p300
S'CD'
p301
S'B-NP'
p302
g3
tp303
a(S'groups'
p304
S'group'
p305
S'NNS'
p306
S'I-NP'
p307
g3
tp308
a(S'received'
p309
S'receive'
p310
S'VBD'
p311
S'B-VP'
p312
g3
tp313
a(S'block'
p314
S'block'
p315
S'NN'
p316
S'B-NP'
p317
g3
tp318
a(S'blindly'
p319
S'blindly'
p320
S'RB'
p321
S'B-ADVP'
p322
g3
tp323
a(g2
g2
g2
g3
g3
tp324
a(S'B'
p325
g325
S'NN'
p326
S'B-NP'
p327
g3
tp328
a(S'group'
p329
S'group'
p330
S'NN'
p331
S'I-NP'
p332
g3
tp333
a(g105
g105
g105
g3
g3
tp334
a(S'or'
p335
S'or'
p336
S'CC'
p337
g3
g3
tp338
a(S'guided'
p339
S'guide'
p340
S'VBN'
p341
S'B-VP'
p342
g3
tp343
a(S'by'
p344
S'by'
p345
S'IN'
p346
S'B-PP'
p347
g3
tp348
a(S'ultrasound'
p349
S'ultrasound'
p350
S'NN'
p351
S'B-NP'
p352
g3
tp353
a(g2
g2
g2
g3
g3
tp354
a(S'US'
p355
S'US'
p356
S'NNP'
p357
S'B-NP'
p358
g3
tp359
a(S'group'
p360
S'group'
p361
S'NN'
p362
S'I-NP'
p363
g3
tp364
a(g105
g105
g105
g3
g3
tp365
a(S'respectively.'
p366
S'respectively.'
p367
S'VBP'
p368
S'B-VP'
p369
g3
tp370
a(S'The'
p371
S'The'
p372
S'DT'
p373
S'B-NP'
p374
g3
tp375
a(S'location'
p376
S'location'
p377
S'NN'
p378
S'I-NP'
p379
g3
tp380
a(S'of'
p381
S'of'
p382
S'IN'
p383
S'B-PP'
p384
g3
tp385
a(S'needle'
p386
S'needle'
p387
S'NN'
p388
S'B-NP'
p389
g3
tp390
a(S'tip'
p391
S'tip'
p392
S'NN'
p393
S'I-NP'
p394
g3
tp395
a(S'was'
p396
S'be'
p397
S'VBD'
p398
S'B-VP'
p399
g3
tp400
a(S'confirmed'
p401
S'confirm'
p402
S'VBN'
p403
S'I-VP'
p404
g3
tp405
a(S'by'
p406
S'by'
p407
S'IN'
p408
S'B-PP'
p409
g3
tp410
a(S'CT'
p411
S'CT'
p412
S'NN'
p413
S'B-NP'
p414
S'B-protein'
p415
tp416
a(S'in'
p417
S'in'
p418
S'IN'
p419
S'B-PP'
p420
g3
tp421
a(S'both'
p422
S'both'
p423
S'DT'
p424
S'B-NP'
p425
g3
tp426
a(S'groups'
p427
S'group'
p428
S'NNS'
p429
S'I-NP'
p430
g3
tp431
a(S','
p432
g432
g432
g3
g3
tp433
a(S'and'
p434
S'and'
p435
S'CC'
p436
g3
g3
tp437
a(S'the'
p438
S'the'
p439
S'DT'
p440
S'B-NP'
p441
g3
tp442
a(S'accuracy'
p443
S'accuracy'
p444
S'NN'
p445
S'I-NP'
p446
g3
tp447
a(S'was'
p448
S'be'
p449
S'VBD'
p450
S'B-VP'
p451
g3
tp452
a(S'computed'
p453
S'compute'
p454
S'VBN'
p455
S'I-VP'
p456
g3
tp457
a(S'afterwards.'
p458
S'afterwards.'
p459
S'RB'
p460
S'B-ADVP'
p461
g3
tp462
a(S'VAS'
p463
S'VAS'
p464
S'VBZ'
p465
S'B-VP'
p466
g3
tp467
a(S'score'
p468
S'score'
p469
S'NN'
p470
S'B-NP'
p471
g3
tp472
a(g432
g432
g432
g3
g3
tp473
a(S'puncture'
p474
S'puncture'
p475
S'NN'
p476
S'B-NP'
p477
g3
tp478
a(S'time'
p479
S'time'
p480
S'NN'
p481
S'I-NP'
p482
g3
tp483
a(S'and'
p484
S'and'
p485
S'CC'
p486
g3
g3
tp487
a(S'one-time'
p488
S'one-time'
p489
S'JJ'
p490
S'B-NP'
p491
g3
tp492
a(S'puncture'
p493
S'puncture'
p494
S'NN'
p495
S'I-NP'
p496
g3
tp497
a(S'success'
p498
S'success'
p499
S'NN'
p500
S'I-NP'
p501
g3
tp502
a(S'rate'
p503
S'rate'
p504
S'NN'
p505
S'I-NP'
p506
g3
tp507
a(g2
g2
g2
g3
g3
tp508
a(S'%'
p509
g509
S'NN'
p510
S'B-NP'
p511
g3
tp512
a(g105
g105
g105
g3
g3
tp513
a(S'were'
p514
S'be'
p515
S'VBD'
p516
S'B-VP'
p517
g3
tp518
a(S'recorded.'
p519
S'recorded.'
p520
S'VBN'
p521
S'I-VP'
p522
g3
tp523
a(S'VAS'
p524
S'VAS'
p525
S'NNP'
p526
S'B-NP'
p527
g3
tp528
a(S'scores'
p529
S'score'
p530
S'NNS'
p531
S'I-NP'
p532
g3
tp533
a(S'and'
p534
S'and'
p535
S'CC'
p536
g3
g3
tp537
a(S'pain'
p538
S'pain'
p539
S'NN'
p540
S'B-NP'
p541
g3
tp542
a(S'remission'
p543
S'remission'
p544
S'NN'
p545
S'I-NP'
p546
g3
tp547
a(S'rates'
p548
S'rate'
p549
S'NNS'
p550
S'I-NP'
p551
g3
tp552
a(S'in'
p553
S'in'
p554
S'IN'
p555
S'B-PP'
p556
g3
tp557
a(S'both'
p558
S'both'
p559
S'DT'
p560
S'B-NP'
p561
g3
tp562
a(S'groups'
p563
S'group'
p564
S'NNS'
p565
S'I-NP'
p566
g3
tp567
a(S'were'
p568
S'be'
p569
S'VBD'
p570
S'B-VP'
p571
g3
tp572
a(S'recorded'
p573
S'record'
p574
S'VBN'
p575
S'I-VP'
p576
g3
tp577
a(S'at'
p578
S'at'
p579
S'IN'
p580
S'B-PP'
p581
g3
tp582
a(S'30'
p583
S'30'
p584
S'CD'
p585
S'B-NP'
p586
g3
tp587
a(S'min'
p588
S'min'
p589
S'NN'
p590
S'I-NP'
p591
g3
tp592
a(g432
g432
g432
g3
g3
tp593
a(S'1'
p594
g594
S'CD'
p595
S'B-NP'
p596
g3
tp597
a(S'd'
p598
g598
S'NN'
p599
S'I-NP'
p600
g3
tp601
a(g432
g432
g432
g3
g3
tp602
a(S'2'
p603
g603
S'CD'
p604
S'B-NP'
p605
g3
tp606
a(g598
g598
S'NN'
p607
S'I-NP'
p608
g3
tp609
a(g432
g432
g432
g3
g3
tp610
a(S'6'
p611
g611
S'CD'
p612
S'B-NP'
p613
g3
tp614
a(S'weeks'
p615
S'week'
p616
S'NNS'
p617
S'I-NP'
p618
g3
tp619
a(S'after'
p620
S'after'
p621
S'IN'
p622
S'B-PP'
p623
g3
tp624
a(S'the'
p625
S'the'
p626
S'DT'
p627
S'B-NP'
p628
g3
tp629
a(S'block'
p630
S'block'
p631
S'NN'
p632
S'I-NP'
p633
g3
tp634
a(g107
g107
g107
g3
g3
tp635
a(S'RESULTS'
p636
S'RESULTS'
p637
S'NNS'
p638
S'B-NP'
p639
g3
tp640
a(S'The'
p641
S'The'
p642
S'DT'
p643
S'B-NP'
p644
g3
tp645
a(S'VAS'
p646
S'VAS'
p647
S'NN'
p648
S'I-NP'
p649
S'B-DNA'
p650
tp651
a(S'scores'
p652
S'score'
p653
S'NNS'
p654
S'I-NP'
p655
S'I-DNA'
p656
tp657
a(S'were'
p658
S'be'
p659
S'VBD'
p660
S'B-VP'
p661
g3
tp662
a(S'3.3'
p663
S'3.3'
p664
S'CD'
p665
S'B-NP'
p666
g3
tp667
a(S'+/-'
p668
S'+/-'
p669
S'SYM'
p670
S'I-NP'
p671
g3
tp672
a(S'0.4'
p673
S'0.4'
p674
S'CD'
p675
S'I-NP'
p676
g3
tp677
a(S'in'
p678
S'in'
p679
S'IN'
p680
S'B-PP'
p681
g3
tp682
a(S'US'
p683
S'US'
p684
S'NNP'
p685
S'B-NP'
p686
g3
tp687
a(S'group'
p688
S'group'
p689
S'NN'
p690
S'I-NP'
p691
g3
tp692
a(S'and'
p693
S'and'
p694
S'CC'
p695
g3
g3
tp696
a(S'1.2'
p697
S'1.2'
p698
S'CD'
p699
S'B-NP'
p700
g3
tp701
a(S'+/-'
p702
S'+/-'
p703
S'SYM'
p704
S'I-NP'
p705
g3
tp706
a(S'0.3'
p707
S'0.3'
p708
S'CD'
p709
S'I-NP'
p710
g3
tp711
a(S'in'
p712
S'in'
p713
S'IN'
p714
S'B-PP'
p715
g3
tp716
a(g325
g325
S'NN'
p717
S'B-NP'
p718
g3
tp719
a(S'group'
p720
S'group'
p721
S'NN'
p722
S'I-NP'
p723
g3
tp724
a(g2
g2
g2
g3
g3
tp725
a(S'P'
p726
g726
S'NN'
p727
S'B-NP'
p728
g3
tp729
a(S'<'
p730
g730
S'SYM'
p731
g3
g3
tp732
a(S'0.05'
p733
S'0.05'
p734
S'CD'
p735
S'B-NP'
p736
g3
tp737
a(g105
g105
g105
g3
g3
tp738
a(g107
g107
g107
g3
g3
tp739
a(S'The'
p740
S'The'
p741
S'DT'
p742
S'B-NP'
p743
g3
tp744
a(S'puncture'
p745
S'puncture'
p746
S'NN'
p747
S'I-NP'
p748
g3
tp749
a(S'time'
p750
S'time'
p751
S'NN'
p752
S'I-NP'
p753
g3
tp754
a(S'was'
p755
S'be'
p756
S'VBD'
p757
S'B-VP'
p758
g3
tp759
a(g2
g2
g2
g3
g3
tp760
a(S'206'
p761
S'206'
p762
S'CD'
p763
S'B-NP'
p764
g3
tp765
a(S'+/-'
p766
S'+/-'
p767
S'CC'
p768
S'I-NP'
p769
g3
tp770
a(S'27'
p771
S'27'
p772
S'CD'
p773
S'I-NP'
p774
g3
tp775
a(g105
g105
g105
S'I-NP'
p776
g3
tp777
a(S's'
p778
g778
S'NNS'
p779
S'I-NP'
p780
g3
tp781
a(S'in'
p782
S'in'
p783
S'IN'
p784
S'B-PP'
p785
g3
tp786
a(S'US'
p787
S'US'
p788
S'NNP'
p789
S'B-NP'
p790
g3
tp791
a(S'group'
p792
S'group'
p793
S'NN'
p794
S'I-NP'
p795
g3
tp796
a(S'while'
p797
S'while'
p798
S'IN'
p799
S'B-SBAR'
p800
g3
tp801
a(g2
g2
g2
g3
g3
tp802
a(S'397'
p803
S'397'
p804
S'CD'
p805
S'B-NP'
p806
g3
tp807
a(S'+/-'
p808
S'+/-'
p809
S'CC'
p810
S'I-NP'
p811
g3
tp812
a(S'31'
p813
S'31'
p814
S'CD'
p815
S'I-NP'
p816
g3
tp817
a(g105
g105
g105
S'I-NP'
p818
g3
tp819
a(g778
g778
S'NNS'
p820
S'I-NP'
p821
g3
tp822
a(S'in'
p823
S'in'
p824
S'IN'
p825
S'B-PP'
p826
g3
tp827
a(g325
g325
S'NN'
p828
S'B-NP'
p829
g3
tp830
a(S'group'
p831
S'group'
p832
S'NN'
p833
S'I-NP'
p834
g3
tp835
a(g2
g2
g2
g3
g3
tp836
a(g726
g726
S'NN'
p837
S'B-NP'
p838
g3
tp839
a(g730
g730
S'SYM'
p840
g3
g3
tp841
a(S'0.05'
p842
S'0.05'
p843
S'CD'
p844
S'B-NP'
p845
g3
tp846
a(g105
g105
g105
g3
g3
tp847
a(g107
g107
g107
g3
g3
tp848
a(S'There'
p849
S'There'
p850
S'EX'
p851
S'B-NP'
p852
g3
tp853
a(S'were'
p854
S'be'
p855
S'VBD'
p856
S'B-VP'
p857
g3
tp858
a(S'37'
p859
S'37'
p860
S'CD'
p861
S'B-NP'
p862
g3
tp863
a(S'facet'
p864
S'facet'
p865
S'JJ'
p866
S'I-NP'
p867
g3
tp868
a(S'joint'
p869
S'joint'
p870
S'JJ'
p871
S'I-NP'
p872
g3
tp873
a(S'blocks'
p874
S'block'
p875
S'NNS'
p876
S'I-NP'
p877
g3
tp878
a(S'guided'
p879
S'guide'
p880
S'VBN'
p881
S'B-VP'
p882
g3
tp883
a(S'by'
p884
S'by'
p885
S'IN'
p886
S'B-PP'
p887
g3
tp888
a(S'ultrasound'
p889
S'ultrasound'
p890
S'NN'
p891
S'B-NP'
p892
g3
tp893
a(g432
g432
g432
g3
g3
tp894
a(S'in'
p895
S'in'
p896
S'IN'
p897
S'B-PP'
p898
g3
tp899
a(S'which'
p900
S'which'
p901
S'WDT'
p902
S'B-NP'
p903
g3
tp904
a(S'32'
p905
S'32'
p906
S'CD'
p907
S'B-NP'
p908
g3
tp909
a(S'were'
p910
S'be'
p911
S'VBD'
p912
S'B-VP'
p913
g3
tp914
a(S'correctly'
p915
S'correctly'
p916
S'RB'
p917
S'I-VP'
p918
g3
tp919
a(S'targeted'
p920
S'target'
p921
S'VBN'
p922
S'I-VP'
p923
g3
tp924
a(S'with'
p925
S'with'
p926
S'IN'
p927
S'B-PP'
p928
g3
tp929
a(S'the'
p930
S'the'
p931
S'DT'
p932
S'B-NP'
p933
g3
tp934
a(S'first'
p935
S'first'
p936
S'JJ'
p937
S'I-NP'
p938
g3
tp939
a(S'puncture.'
p940
S'puncture.'
p941
S'NN'
p942
S'I-NP'
p943
g3
tp944
a(S'The'
p945
S'The'
p946
S'DT'
p947
S'B-NP'
p948
g3
tp949
a(S'success'
p950
S'success'
p951
S'NN'
p952
S'I-NP'
p953
g3
tp954
a(S'rate'
p955
S'rate'
p956
S'NN'
p957
S'I-NP'
p958
g3
tp959
a(S'is'
p960
S'be'
p961
S'VBZ'
p962
S'B-VP'
p963
g3
tp964
a(S'86.5'
p965
S'86.5'
p966
S'CD'
p967
S'B-NP'
p968
g3
tp969
a(g509
g509
S'NN'
p970
S'I-NP'
p971
g3
tp972
a(g107
g107
g107
g3
g3
tp973
a(S'There'
p974
S'There'
p975
S'EX'
p976
S'B-NP'
p977
g3
tp978
a(S'were'
p979
S'be'
p980
S'VBD'
p981
S'B-VP'
p982
g3
tp983
a(S'35'
p984
S'35'
p985
S'CD'
p986
S'B-NP'
p987
g3
tp988
a(S'facet'
p989
S'facet'
p990
S'NN'
p991
S'I-NP'
p992
g3
tp993
a(S'joint'
p994
S'joint'
p995
S'NN'
p996
S'I-NP'
p997
g3
tp998
a(S'blocks'
p999
S'block'
p1000
S'VBZ'
p1001
S'B-VP'
p1002
g3
tp1003
a(S'blindly'
p1004
S'blindly'
p1005
S'RB'
p1006
S'B-ADVP'
p1007
g3
tp1008
a(g432
g432
g432
g3
g3
tp1009
a(S'in'
p1010
S'in'
p1011
S'IN'
p1012
S'B-PP'
p1013
g3
tp1014
a(S'which'
p1015
S'which'
p1016
S'WDT'
p1017
S'B-NP'
p1018
g3
tp1019
a(S'11'
p1020
S'11'
p1021
S'CD'
p1022
S'B-NP'
p1023
g3
tp1024
a(S'were'
p1025
S'be'
p1026
S'VBD'
p1027
S'B-VP'
p1028
g3
tp1029
a(S'correctly'
p1030
S'correctly'
p1031
S'RB'
p1032
S'I-VP'
p1033
g3
tp1034
a(S'targeted'
p1035
S'target'
p1036
S'VBN'
p1037
S'I-VP'
p1038
g3
tp1039
a(S'with'
p1040
S'with'
p1041
S'IN'
p1042
S'B-PP'
p1043
g3
tp1044
a(S'the'
p1045
S'the'
p1046
S'DT'
p1047
S'B-NP'
p1048
g3
tp1049
a(S'first'
p1050
S'first'
p1051
S'JJ'
p1052
S'I-NP'
p1053
g3
tp1054
a(S'puncture.'
p1055
S'puncture.'
p1056
S'NN'
p1057
S'I-NP'
p1058
g3
tp1059
a(S'The'
p1060
S'The'
p1061
S'DT'
p1062
S'B-NP'
p1063
g3
tp1064
a(S'success'
p1065
S'success'
p1066
S'NN'
p1067
S'I-NP'
p1068
g3
tp1069
a(S'rate'
p1070
S'rate'
p1071
S'NN'
p1072
S'I-NP'
p1073
g3
tp1074
a(S'is'
p1075
S'be'
p1076
S'VBZ'
p1077
S'B-VP'
p1078
g3
tp1079
a(S'31.4'
p1080
S'31.4'
p1081
S'CD'
p1082
S'B-NP'
p1083
g3
tp1084
a(g509
g509
S'NN'
p1085
S'I-NP'
p1086
g3
tp1087
a(g107
g107
g107
g3
g3
tp1088
a(S'The'
p1089
S'The'
p1090
S'DT'
p1091
S'B-NP'
p1092
g3
tp1093
a(S'difference'
p1094
S'difference'
p1095
S'NN'
p1096
S'I-NP'
p1097
g3
tp1098
a(S'of'
p1099
S'of'
p1100
S'IN'
p1101
S'B-PP'
p1102
g3
tp1103
a(S'one-time'
p1104
S'one-time'
p1105
S'JJ'
p1106
S'B-NP'
p1107
g3
tp1108
a(S'puncture'
p1109
S'puncture'
p1110
S'NN'
p1111
S'I-NP'
p1112
g3
tp1113
a(S'success'
p1114
S'success'
p1115
S'NN'
p1116
S'I-NP'
p1117
g3
tp1118
a(S'rate'
p1119
S'rate'
p1120
S'NN'
p1121
S'I-NP'
p1122
g3
tp1123
a(S'between'
p1124
S'between'
p1125
S'IN'
p1126
S'B-PP'
p1127
g3
tp1128
a(S'the'
p1129
S'the'
p1130
S'DT'
p1131
S'B-NP'
p1132
g3
tp1133
a(S'two'
p1134
S'two'
p1135
S'CD'
p1136
S'I-NP'
p1137
g3
tp1138
a(S'groups'
p1139
S'group'
p1140
S'NNS'
p1141
S'I-NP'
p1142
g3
tp1143
a(S'was'
p1144
S'be'
p1145
S'VBD'
p1146
S'B-VP'
p1147
g3
tp1148
a(S'significant'
p1149
S'significant'
p1150
S'JJ'
p1151
S'B-ADJP'
p1152
g3
tp1153
a(g2
g2
g2
g3
g3
tp1154
a(g726
g726
S'NN'
p1155
S'B-NP'
p1156
g3
tp1157
a(g730
g730
S'SYM'
p1158
g3
g3
tp1159
a(S'0.05'
p1160
S'0.05'
p1161
S'CD'
p1162
S'B-NP'
p1163
g3
tp1164
a(g105
g105
g105
g3
g3
tp1165
a(g107
g107
g107
g3
g3
tp1166
a(S'Differences'
p1167
S'Difference'
p1168
S'NNS'
p1169
S'B-NP'
p1170
g3
tp1171
a(S'of'
p1172
S'of'
p1173
S'IN'
p1174
S'B-PP'
p1175
g3
tp1176
a(S'VAS'
p1177
S'VAS'
p1178
S'NN'
p1179
S'B-NP'
p1180
S'B-protein'
p1181
tp1182
a(S'and'
p1183
S'and'
p1184
S'CC'
p1185
S'I-NP'
p1186
g3
tp1187
a(S'pain'
p1188
S'pain'
p1189
S'NN'
p1190
S'I-NP'
p1191
g3
tp1192
a(S'remission'
p1193
S'remission'
p1194
S'NN'
p1195
S'I-NP'
p1196
g3
tp1197
a(S'rate'
p1198
S'rate'
p1199
S'NN'
p1200
S'I-NP'
p1201
g3
tp1202
a(S'at'
p1203
S'at'
p1204
S'IN'
p1205
S'B-PP'
p1206
g3
tp1207
a(S'half'
p1208
S'half'
p1209
S'PDT'
p1210
S'B-NP'
p1211
g3
tp1212
a(S'an'
p1213
S'an'
p1214
S'DT'
p1215
S'I-NP'
p1216
g3
tp1217
a(S'hour'
p1218
S'hour'
p1219
S'NN'
p1220
S'I-NP'
p1221
g3
tp1222
a(S'after'
p1223
S'after'
p1224
S'IN'
p1225
S'B-PP'
p1226
g3
tp1227
a(S'facet'
p1228
S'facet'
p1229
S'JJ'
p1230
S'B-NP'
p1231
g3
tp1232
a(S'joint'
p1233
S'joint'
p1234
S'JJ'
p1235
S'I-NP'
p1236
g3
tp1237
a(S'injection'
p1238
S'injection'
p1239
S'NN'
p1240
S'I-NP'
p1241
g3
tp1242
a(S'between'
p1243
S'between'
p1244
S'IN'
p1245
S'B-PP'
p1246
g3
tp1247
a(g325
g325
S'NN'
p1248
S'B-NP'
p1249
g3
tp1250
a(S'group'
p1251
S'group'
p1252
S'NN'
p1253
S'I-NP'
p1254
g3
tp1255
a(S'and'
p1256
S'and'
p1257
S'CC'
p1258
g3
g3
tp1259
a(S'US'
p1260
S'US'
p1261
S'NNP'
p1262
S'B-NP'
p1263
g3
tp1264
a(S'group'
p1265
S'group'
p1266
S'NN'
p1267
S'I-NP'
p1268
g3
tp1269
a(S'were'
p1270
S'be'
p1271
S'VBD'
p1272
S'B-VP'
p1273
g3
tp1274
a(S'significant'
p1275
S'significant'
p1276
S'JJ'
p1277
S'B-ADJP'
p1278
g3
tp1279
a(g2
g2
g2
g3
g3
tp1280
a(g726
g726
S'NN'
p1281
S'B-NP'
p1282
g3
tp1283
a(g730
g730
S'SYM'
p1284
g3
g3
tp1285
a(S'0.05'
p1286
S'0.05'
p1287
S'CD'
p1288
S'B-NP'
p1289
g3
tp1290
a(g105
g105
g105
g3
g3
tp1291
a(g107
g107
g107
g3
g3
tp1292
a(S'There'
p1293
S'There'
p1294
S'EX'
p1295
S'B-NP'
p1296
g3
tp1297
a(S'were'
p1298
S'be'
p1299
S'VBD'
p1300
S'B-VP'
p1301
g3
tp1302
a(S'8'
p1303
g1303
S'CD'
p1304
S'B-NP'
p1305
g3
tp1306
a(g432
g432
g432
S'I-NP'
p1307
g3
tp1308
a(S'9'
p1309
g1309
S'CD'
p1310
S'I-NP'
p1311
g3
tp1312
a(g432
g432
g432
S'I-NP'
p1313
g3
tp1314
a(g1309
g1309
S'CD'
p1315
S'I-NP'
p1316
g3
tp1317
a(g432
g432
g432
g3
g3
tp1318
a(S'and'
p1319
S'and'
p1320
S'CC'
p1321
g3
g3
tp1322
a(g1309
g1309
S'CD'
p1323
S'B-NP'
p1324
g3
tp1325
a(S'patients'
p1326
S'patient'
p1327
S'NNS'
p1328
S'I-NP'
p1329
g3
tp1330
a(S'in'
p1331
S'in'
p1332
S'IN'
p1333
S'B-PP'
p1334
g3
tp1335
a(S'US'
p1336
S'US'
p1337
S'NNP'
p1338
S'B-NP'
p1339
g3
tp1340
a(S'group'
p1341
S'group'
p1342
S'NN'
p1343
S'I-NP'
p1344
g3
tp1345
a(S'obtaining'
p1346
S'obtain'
p1347
S'VBG'
p1348
S'B-VP'
p1349
g3
tp1350
a(S'a'
p1351
g1351
S'DT'
p1352
S'B-NP'
p1353
g3
tp1354
a(S'reduction'
p1355
S'reduction'
p1356
S'NN'
p1357
S'I-NP'
p1358
g3
tp1359
a(S'in'
p1360
S'in'
p1361
S'IN'
p1362
S'B-PP'
p1363
g3
tp1364
a(S'VAS'
p1365
S'VAS'
p1366
S'NN'
p1367
S'B-NP'
p1368
g3
tp1369
a(S'scores'
p1370
S'score'
p1371
S'NNS'
p1372
S'I-NP'
p1373
g3
tp1374
a(S'>'
p1375
g1375
S'SYM'
p1376
S'B-VP'
p1377
g3
tp1378
a(S'or'
p1379
S'or'
p1380
S'CC'
p1381
g3
g3
tp1382
a(S'='
p1383
g1383
S'SYM'
p1384
S'B-VP'
p1385
g3
tp1386
a(S'3'
p1387
g1387
S'CD'
p1388
S'B-NP'
p1389
g3
tp1390
a(S'at'
p1391
S'at'
p1392
S'IN'
p1393
S'B-PP'
p1394
g3
tp1395
a(S'30'
p1396
S'30'
p1397
S'CD'
p1398
S'B-NP'
p1399
g3
tp1400
a(S'min'
p1401
S'min'
p1402
S'NN'
p1403
S'I-NP'
p1404
g3
tp1405
a(g432
g432
g432
g3
g3
tp1406
a(g594
g594
S'CD'
p1407
S'B-NP'
p1408
g3
tp1409
a(g598
g598
S'NN'
p1410
S'I-NP'
p1411
g3
tp1412
a(g432
g432
g432
g3
g3
tp1413
a(g603
g603
S'CD'
p1414
S'B-NP'
p1415
g3
tp1416
a(g598
g598
S'NN'
p1417
S'I-NP'
p1418
g3
tp1419
a(S'and'
p1420
S'and'
p1421
S'CC'
p1422
g3
g3
tp1423
a(g611
g611
S'CD'
p1424
S'B-NP'
p1425
g3
tp1426
a(S'weeks'
p1427
S'week'
p1428
S'NNS'
p1429
S'I-NP'
p1430
g3
tp1431
a(S'after'
p1432
S'after'
p1433
S'IN'
p1434
S'B-PP'
p1435
g3
tp1436
a(S'the'
p1437
S'the'
p1438
S'DT'
p1439
S'B-NP'
p1440
g3
tp1441
a(S'procedure'
p1442
S'procedure'
p1443
S'NN'
p1444
S'I-NP'
p1445
g3
tp1446
a(S'respectively'
p1447
S'respectively'
p1448
S'RB'
p1449
S'B-ADVP'
p1450
g3
tp1451
a(g432
g432
g432
g3
g3
tp1452
a(S'while'
p1453
S'while'
p1454
S'IN'
p1455
S'B-SBAR'
p1456
g3
tp1457
a(S'the'
p1458
S'the'
p1459
S'DT'
p1460
S'B-NP'
p1461
g3
tp1462
a(S'numbers'
p1463
S'number'
p1464
S'NNS'
p1465
S'I-NP'
p1466
g3
tp1467
a(S'of'
p1468
S'of'
p1469
S'IN'
p1470
S'B-PP'
p1471
g3
tp1472
a(S'such'
p1473
S'such'
p1474
S'JJ'
p1475
S'B-NP'
p1476
g3
tp1477
a(S'patients'
p1478
S'patient'
p1479
S'NNS'
p1480
S'I-NP'
p1481
g3
tp1482
a(S'were'
p1483
S'be'
p1484
S'VBD'
p1485
S'B-VP'
p1486
g3
tp1487
a(S'5'
p1488
g1488
S'CD'
p1489
S'B-NP'
p1490
g3
tp1491
a(g432
g432
g432
S'I-NP'
p1492
g3
tp1493
a(g611
g611
S'CD'
p1494
S'I-NP'
p1495
g3
tp1496
a(g432
g432
g432
S'I-NP'
p1497
g3
tp1498
a(g1488
g1488
S'CD'
p1499
S'I-NP'
p1500
g3
tp1501
a(g432
g432
g432
S'I-NP'
p1502
g3
tp1503
a(g1488
g1488
S'CD'
p1504
S'I-NP'
p1505
g3
tp1506
a(S'in'
p1507
S'in'
p1508
S'IN'
p1509
S'B-PP'
p1510
g3
tp1511
a(g325
g325
S'NN'
p1512
S'B-NP'
p1513
g3
tp1514
a(S'group'
p1515
S'group'
p1516
S'NN'
p1517
S'I-NP'
p1518
g3
tp1519
a(g2
g2
g2
g3
g3
tp1520
a(g726
g726
S'NN'
p1521
S'B-NP'
p1522
g3
tp1523
a(g1375
g1375
S'JJR'
p1524
S'B-NP'
p1525
g3
tp1526
a(S'0.05'
p1527
S'0.05'
p1528
S'CD'
p1529
S'I-NP'
p1530
g3
tp1531
a(g105
g105
g105
g3
g3
tp1532
a(g107
g107
g107
g3
g3
tp1533
a(S'After'
p1534
S'After'
p1535
S'IN'
p1536
S'B-PP'
p1537
g3
tp1538
a(g611
g611
S'CD'
p1539
S'B-NP'
p1540
g3
tp1541
a(S'weeks'
p1542
S'week'
p1543
S'NNS'
p1544
S'I-NP'
p1545
g3
tp1546
a(S'of'
p1547
S'of'
p1548
S'IN'
p1549
S'B-PP'
p1550
g3
tp1551
a(S'follow-up'
p1552
S'follow-up'
p1553
S'NN'
p1554
S'B-NP'
p1555
g3
tp1556
a(g432
g432
g432
g3
g3
tp1557
a(S'the'
p1558
S'the'
p1559
S'DT'
p1560
S'B-NP'
p1561
g3
tp1562
a(S'overall'
p1563
S'overall'
p1564
S'JJ'
p1565
S'I-NP'
p1566
g3
tp1567
a(S'remission'
p1568
S'remission'
p1569
S'NN'
p1570
S'I-NP'
p1571
g3
tp1572
a(S'rates'
p1573
S'rate'
p1574
S'NNS'
p1575
S'I-NP'
p1576
g3
tp1577
a(S'were'
p1578
S'be'
p1579
S'VBD'
p1580
S'B-VP'
p1581
g3
tp1582
a(g2
g2
g2
g3
g3
tp1583
a(S'72.3'
p1584
S'72.3'
p1585
S'CD'
p1586
S'B-NP'
p1587
g3
tp1588
a(S'+/-'
p1589
S'+/-'
p1590
S'CC'
p1591
g3
g3
tp1592
a(S'14.0'
p1593
S'14.0'
p1594
S'CD'
p1595
g3
g3
tp1596
a(g105
g105
g105
g3
g3
tp1597
a(g509
g509
S'NN'
p1598
S'B-NP'
p1599
g3
tp1600
a(S'in'
p1601
S'in'
p1602
S'IN'
p1603
S'B-PP'
p1604
g3
tp1605
a(S'US'
p1606
S'US'
p1607
S'NNP'
p1608
S'B-NP'
p1609
g3
tp1610
a(S'group'
p1611
S'group'
p1612
S'NN'
p1613
S'I-NP'
p1614
g3
tp1615
a(g432
g432
g432
g3
g3
tp1616
a(S'and'
p1617
S'and'
p1618
S'CC'
p1619
g3
g3
tp1620
a(g2
g2
g2
g3
g3
tp1621
a(S'56.7'
p1622
S'56.7'
p1623
S'CD'
p1624
S'B-NP'
p1625
g3
tp1626
a(S'+/-'
p1627
S'+/-'
p1628
S'CC'
p1629
g3
g3
tp1630
a(S'11.0'
p1631
S'11.0'
p1632
S'CD'
p1633
g3
g3
tp1634
a(g105
g105
g105
g3
g3
tp1635
a(g509
g509
S'NN'
p1636
S'B-NP'
p1637
g3
tp1638
a(S'in'
p1639
S'in'
p1640
S'IN'
p1641
S'B-PP'
p1642
g3
tp1643
a(g325
g325
S'NN'
p1644
S'B-NP'
p1645
g3
tp1646
a(S'group'
p1647
S'group'
p1648
S'NN'
p1649
S'I-NP'
p1650
g3
tp1651
a(g432
g432
g432
g3
g3
tp1652
a(S'there'
p1653
S'there'
p1654
S'EX'
p1655
S'B-NP'
p1656
g3
tp1657
a(S'was'
p1658
S'be'
p1659
S'VBD'
p1660
S'B-VP'
p1661
g3
tp1662
a(S'no'
p1663
S'no'
p1664
S'DT'
p1665
S'B-NP'
p1666
g3
tp1667
a(S'significant'
p1668
S'significant'
p1669
S'JJ'
p1670
S'I-NP'
p1671
g3
tp1672
a(S'difference'
p1673
S'difference'
p1674
S'NN'
p1675
S'I-NP'
p1676
g3
tp1677
a(S'between'
p1678
S'between'
p1679
S'IN'
p1680
S'B-PP'
p1681
g3
tp1682
a(S'the'
p1683
S'the'
p1684
S'DT'
p1685
S'B-NP'
p1686
g3
tp1687
a(S'two'
p1688
S'two'
p1689
S'CD'
p1690
S'I-NP'
p1691
g3
tp1692
a(S'groups'
p1693
S'group'
p1694
S'NNS'
p1695
S'I-NP'
p1696
g3
tp1697
a(g2
g2
g2
g3
g3
tp1698
a(g726
g726
S'NN'
p1699
S'B-NP'
p1700
g3
tp1701
a(g1375
g1375
S'JJR'
p1702
S'B-NP'
p1703
g3
tp1704
a(S'0.05'
p1705
S'0.05'
p1706
S'CD'
p1707
S'I-NP'
p1708
g3
tp1709
a(g105
g105
g105
g3
g3
tp1710
a(g107
g107
g107
g3
g3
tp1711
a(S'CONCLUSION'
p1712
S'CONCLUSION'
p1713
S'NN'
p1714
S'B-NP'
p1715
g3
tp1716
a(S'The'
p1717
S'The'
p1718
S'DT'
p1719
S'B-NP'
p1720
g3
tp1721
a(S'ultrasound-guided'
p1722
S'ultrasound-guided'
p1723
S'JJ'
p1724
S'I-NP'
p1725
g3
tp1726
a(S'lumbar'
p1727
S'lumbar'
p1728
S'NN'
p1729
S'I-NP'
p1730
g3
tp1731
a(S'facet'
p1732
S'facet'
p1733
S'NN'
p1734
S'I-NP'
p1735
g3
tp1736
a(S'joint'
p1737
S'joint'
p1738
S'NN'
p1739
S'I-NP'
p1740
g3
tp1741
a(S'injection'
p1742
S'injection'
p1743
S'NN'
p1744
S'I-NP'
p1745
g3
tp1746
a(S'technique'
p1747
S'technique'
p1748
S'NN'
p1749
S'I-NP'
p1750
g3
tp1751
a(S'had'
p1752
S'have'
p1753
S'VBD'
p1754
S'B-VP'
p1755
g3
tp1756
a(g1351
g1351
S'DT'
p1757
S'B-NP'
p1758
g3
tp1759
a(S'high'
p1760
S'high'
p1761
S'JJ'
p1762
S'I-NP'
p1763
g3
tp1764
a(S'feasibility'
p1765
S'feasibility'
p1766
S'NN'
p1767
S'I-NP'
p1768
g3
tp1769
a(S'and'
p1770
S'and'
p1771
S'CC'
p1772
S'I-NP'
p1773
g3
tp1774
a(S'accuracy'
p1775
S'accuracy'
p1776
S'NN'
p1777
S'I-NP'
p1778
g3
tp1779
a(g432
g432
g432
g3
g3
tp1780
a(S'and'
p1781
S'and'
p1782
S'CC'
p1783
g3
g3
tp1784
a(S'had'
p1785
S'have'
p1786
S'VBD'
p1787
S'B-VP'
p1788
g3
tp1789
a(S'better'
p1790
S'good'
p1791
S'JJR'
p1792
S'B-NP'
p1793
g3
tp1794
a(S'clinical'
p1795
S'clinical'
p1796
S'JJ'
p1797
S'I-NP'
p1798
g3
tp1799
a(S'efficacy'
p1800
S'efficacy'
p1801
S'NN'
p1802
S'I-NP'
p1803
g3
tp1804
a(S'than'
p1805
S'than'
p1806
S'IN'
p1807
S'B-PP'
p1808
g3
tp1809
a(S'block'
p1810
S'block'
p1811
S'NN'
p1812
S'B-NP'
p1813
g3
tp1814
a(S'blindly'
p1815
S'blindly'
p1816
S'RB'
p1817
S'B-ADVP'
p1818
g3
tp1819
a(g107
g107
g107
g3
g3
tp1820
a.