(lp0
(S'Comparison'
p1
S'Comparison'
p2
S'NN'
p3
S'B-NP'
p4
S'O'
p5
tp6
a(S'of'
p7
S'of'
p8
S'IN'
p9
S'B-PP'
p10
g5
tp11
a(S'the'
p12
S'the'
p13
S'DT'
p14
S'B-NP'
p15
g5
tp16
a(S'therapeutic'
p17
S'therapeutic'
p18
S'JJ'
p19
S'I-NP'
p20
g5
tp21
a(S'effects'
p22
S'effect'
p23
S'NNS'
p24
S'I-NP'
p25
g5
tp26
a(S'of'
p27
S'of'
p28
S'IN'
p29
S'B-PP'
p30
g5
tp31
a(S'epoetin'
p32
S'epoetin'
p33
S'NN'
p34
S'B-NP'
p35
S'B-protein'
p36
tp37
a(S'zeta'
p38
S'zeta'
p39
S'NN'
p40
S'I-NP'
p41
S'I-protein'
p42
tp43
a(S'to'
p44
S'to'
p45
S'TO'
p46
S'B-PP'
p47
g5
tp48
a(S'epoetin'
p49
S'epoetin'
p50
S'NN'
p51
S'B-NP'
p52
g5
tp53
a(S'alfa'
p54
S'alfa'
p55
S'NN'
p56
S'I-NP'
p57
g5
tp58
a(S'in'
p59
S'in'
p60
S'IN'
p61
S'B-PP'
p62
g5
tp63
a(S'the'
p64
S'the'
p65
S'DT'
p66
S'B-NP'
p67
g5
tp68
a(S'maintenance'
p69
S'maintenance'
p70
S'NN'
p71
S'I-NP'
p72
g5
tp73
a(S'phase'
p74
S'phase'
p75
S'NN'
p76
S'I-NP'
p77
g5
tp78
a(S'of'
p79
S'of'
p80
S'IN'
p81
S'B-PP'
p82
g5
tp83
a(S'renal'
p84
S'renal'
p85
S'JJ'
p86
S'B-NP'
p87
g5
tp88
a(S'anaemia'
p89
S'anaemia'
p90
S'NN'
p91
S'I-NP'
p92
g5
tp93
a(S'treatment'
p94
S'treatment'
p95
S'NN'
p96
S'I-NP'
p97
g5
tp98
a(S'.'
p99
g99
g99
g5
g5
tp100
a(S'OBJECTIVE'
p101
S'OBJECTIVE'
p102
S'NN'
p103
S'B-NP'
p104
g5
tp105
a(S'To'
p106
S'To'
p107
S'TO'
p108
S'B-VP'
p109
g5
tp110
a(S'evaluate'
p111
S'evaluate'
p112
S'VB'
p113
S'I-VP'
p114
g5
tp115
a(S'the'
p116
S'the'
p117
S'DT'
p118
S'B-NP'
p119
g5
tp120
a(S'therapeutic'
p121
S'therapeutic'
p122
S'JJ'
p123
S'I-NP'
p124
g5
tp125
a(S'efficacy'
p126
S'efficacy'
p127
S'NN'
p128
S'I-NP'
p129
g5
tp130
a(S'and'
p131
S'and'
p132
S'CC'
p133
S'I-NP'
p134
g5
tp135
a(S'safety'
p136
S'safety'
p137
S'NN'
p138
S'I-NP'
p139
g5
tp140
a(S'of'
p141
S'of'
p142
S'IN'
p143
S'B-PP'
p144
g5
tp145
a(S'epoetin'
p146
S'epoetin'
p147
S'NN'
p148
S'B-NP'
p149
S'B-protein'
p150
tp151
a(S'zeta'
p152
S'zeta'
p153
S'NN'
p154
S'I-NP'
p155
S'I-protein'
p156
tp157
a(S','
p158
g158
g158
g5
g5
tp159
a(S'compared'
p160
S'compare'
p161
S'VBN'
p162
S'B-PP'
p163
g5
tp164
a(S'with'
p165
S'with'
p166
S'IN'
p167
S'B-PP'
p168
g5
tp169
a(S'epoetin'
p170
S'epoetin'
p171
S'NN'
p172
S'B-NP'
p173
S'B-protein'
p174
tp175
a(S'alfa'
p176
S'alfa'
p177
S'NN'
p178
S'I-NP'
p179
S'I-protein'
p180
tp181
a(g158
g158
g158
g5
g5
tp182
a(S'in'
p183
S'in'
p184
S'IN'
p185
S'B-PP'
p186
g5
tp187
a(S'maintaining'
p188
S'maintain'
p189
S'VBG'
p190
S'B-VP'
p191
g5
tp192
a(S'target'
p193
S'target'
p194
S'NN'
p195
S'B-NP'
p196
g5
tp197
a(S'haemoglobin'
p198
S'haemoglobin'
p199
S'NN'
p200
S'I-NP'
p201
g5
tp202
a(S'('
p203
g203
g203
g5
g5
tp204
a(S'Hb'
p205
S'Hb'
p206
S'NN'
p207
S'B-NP'
p208
S'B-protein'
p209
tp210
a(S')'
p211
g211
g211
g5
g5
tp212
a(S'concentrations'
p213
S'concentration'
p214
S'NNS'
p215
S'B-NP'
p216
g5
tp217
a(S'in'
p218
S'in'
p219
S'IN'
p220
S'B-PP'
p221
g5
tp222
a(S'patients'
p223
S'patient'
p224
S'NNS'
p225
S'B-NP'
p226
g5
tp227
a(S'with'
p228
S'with'
p229
S'IN'
p230
S'B-PP'
p231
g5
tp232
a(S'anaemia'
p233
S'anaemia'
p234
S'NN'
p235
S'B-NP'
p236
g5
tp237
a(S'and'
p238
S'and'
p239
S'CC'
p240
g5
g5
tp241
a(S'chronic'
p242
S'chronic'
p243
S'JJ'
p244
S'B-NP'
p245
g5
tp246
a(S'kidney'
p247
S'kidney'
p248
S'NN'
p249
S'I-NP'
p250
g5
tp251
a(S'disease'
p252
S'disease'
p253
S'NN'
p254
S'I-NP'
p255
g5
tp256
a(g203
g203
g203
g5
g5
tp257
a(S'CKD'
p258
S'CKD'
p259
S'NN'
p260
S'B-NP'
p261
g5
tp262
a(g211
g211
g211
g5
g5
tp263
a(S'maintained'
p264
S'maintain'
p265
S'VBN'
p266
S'B-VP'
p267
g5
tp268
a(S'on'
p269
S'on'
p270
S'IN'
p271
S'B-PP'
p272
g5
tp273
a(S'haemodialysis'
p274
S'haemodialysis'
p275
S'NN'
p276
S'B-NP'
p277
g5
tp278
a(g99
g99
g99
g5
g5
tp279
a(S'METHODS'
p280
S'METHODS'
p281
S'NNS'
p282
S'B-NP'
p283
g5
tp284
a(S'Patients'
p285
S'Patient'
p286
S'NNS'
p287
S'I-NP'
p288
g5
tp289
a(S'received'
p290
S'receive'
p291
S'VBD'
p292
S'B-VP'
p293
g5
tp294
a(S'epoetin'
p295
S'epoetin'
p296
S'NN'
p297
S'B-NP'
p298
S'B-protein'
p299
tp300
a(S'zeta'
p301
S'zeta'
p302
S'NN'
p303
S'I-NP'
p304
S'I-protein'
p305
tp306
a(S'or'
p307
S'or'
p308
S'CC'
p309
S'I-NP'
p310
g5
tp311
a(S'epoetin'
p312
S'epoetin'
p313
S'NN'
p314
S'I-NP'
p315
g5
tp316
a(S'alfa'
p317
S'alfa'
p318
S'NN'
p319
S'I-NP'
p320
g5
tp321
a(S'intravenously'
p322
S'intravenously'
p323
S'RB'
p324
S'B-ADVP'
p325
g5
tp326
a(g158
g158
g158
g5
g5
tp327
a(S'1-3'
p328
S'1-3'
p329
S'NN'
p330
S'B-NP'
p331
g5
tp332
a(S'times/week'
p333
S'times/week'
p334
S'NN'
p335
S'I-NP'
p336
g5
tp337
a(S'for'
p338
S'for'
p339
S'IN'
p340
S'B-PP'
p341
g5
tp342
a(S'12'
p343
S'12'
p344
S'CD'
p345
S'B-NP'
p346
g5
tp347
a(S'weeks'
p348
S'week'
p349
S'NNS'
p350
S'I-NP'
p351
g5
tp352
a(g158
g158
g158
g5
g5
tp353
a(S'then'
p354
S'then'
p355
S'RB'
p356
S'B-ADVP'
p357
g5
tp358
a(S'the'
p359
S'the'
p360
S'DT'
p361
S'B-NP'
p362
g5
tp363
a(S'alternative'
p364
S'alternative'
p365
S'JJ'
p366
S'I-NP'
p367
g5
tp368
a(S'treatment'
p369
S'treatment'
p370
S'NN'
p371
S'I-NP'
p372
g5
tp373
a(S'for'
p374
S'for'
p375
S'IN'
p376
S'B-PP'
p377
g5
tp378
a(S'12'
p379
S'12'
p380
S'CD'
p381
S'B-NP'
p382
g5
tp383
a(S'weeks'
p384
S'week'
p385
S'NNS'
p386
S'I-NP'
p387
g5
tp388
a(g158
g158
g158
g5
g5
tp389
a(S'in'
p390
S'in'
p391
S'IN'
p392
S'B-PP'
p393
g5
tp394
a(S'this'
p395
S'this'
p396
S'DT'
p397
S'B-NP'
p398
g5
tp399
a(S'double-blind'
p400
S'double-blind'
p401
S'JJ'
p402
S'I-NP'
p403
g5
tp404
a(g158
g158
g158
S'I-NP'
p405
g5
tp406
a(S'crossover'
p407
S'crossover'
p408
S'NN'
p409
S'I-NP'
p410
g5
tp411
a(g158
g158
g158
g5
g5
tp412
a(S'phase'
p413
S'phase'
p414
S'NN'
p415
S'B-NP'
p416
g5
tp417
a(S'III'
p418
S'III'
p419
S'CD'
p420
S'I-NP'
p421
g5
tp422
a(S'trial.'
p423
S'trial.'
p424
S'NN'
p425
S'I-NP'
p426
g5
tp427
a(S'Eligible'
p428
S'Eligible'
p429
S'JJ'
p430
S'B-NP'
p431
g5
tp432
a(S'patients'
p433
S'patient'
p434
S'NNS'
p435
S'I-NP'
p436
g5
tp437
a(S'were'
p438
S'be'
p439
S'VBD'
p440
S'B-VP'
p441
g5
tp442
a(S'18-75'
p443
S'18-75'
p444
S'CD'
p445
S'B-NP'
p446
g5
tp447
a(S'years'
p448
S'year'
p449
S'NNS'
p450
S'I-NP'
p451
g5
tp452
a(S'old'
p453
S'old'
p454
S'JJ'
p455
S'B-ADJP'
p456
g5
tp457
a(S'with'
p458
S'with'
p459
S'IN'
p460
S'B-PP'
p461
g5
tp462
a(S'CKD'
p463
S'CKD'
p464
S'NN'
p465
S'B-NP'
p466
S'B-protein'
p467
tp468
a(S'stage'
p469
S'stage'
p470
S'NN'
p471
S'I-NP'
p472
S'I-protein'
p473
tp474
a(S'5'
p475
g475
S'CD'
p476
S'I-NP'
p477
S'I-protein'
p478
tp479
a(S'maintained'
p480
S'maintain'
p481
S'VBN'
p482
S'B-VP'
p483
g5
tp484
a(S'on'
p485
S'on'
p486
S'IN'
p487
S'B-PP'
p488
g5
tp489
a(S'haemodialysis.'
p490
S'haemodialysis.'
p491
S'NN'
p492
S'B-NP'
p493
g5
tp494
a(S'Patients'
p495
S'Patient'
p496
S'NNS'
p497
S'I-NP'
p498
g5
tp499
a(S'had'
p500
S'have'
p501
S'VBD'
p502
S'B-VP'
p503
g5
tp504
a(S'received'
p505
S'receive'
p506
S'VBN'
p507
S'I-VP'
p508
g5
tp509
a(S'epoetin'
p510
S'epoetin'
p511
S'NN'
p512
S'B-NP'
p513
g5
tp514
a(S'for'
p515
S'for'
p516
S'IN'
p517
S'B-PP'
p518
g5
tp519
a(S'>'
p520
g520
S'SYM'
p521
S'B-NP'
p522
g5
tp523
a(S'or'
p524
S'or'
p525
S'CC'
p526
g5
g5
tp527
a(S'='
p528
g528
S'SYM'
p529
S'B-VP'
p530
g5
tp531
a(S'3'
p532
g532
S'CD'
p533
S'B-NP'
p534
g5
tp535
a(S'months'
p536
S'month'
p537
S'NNS'
p538
S'I-NP'
p539
g5
tp540
a(S'upon'
p541
S'upon'
p542
S'IN'
p543
S'B-PP'
p544
g5
tp545
a(S'study'
p546
S'study'
p547
S'NN'
p548
S'B-NP'
p549
g5
tp550
a(S'entry'
p551
S'entry'
p552
S'NN'
p553
S'I-NP'
p554
g5
tp555
a(S'and'
p556
S'and'
p557
S'CC'
p558
g5
g5
tp559
a(S'had'
p560
S'have'
p561
S'VBD'
p562
S'B-VP'
p563
g5
tp564
a(S'achieved'
p565
S'achieve'
p566
S'VBN'
p567
S'I-VP'
p568
g5
tp569
a(S'a'
p570
g570
S'DT'
p571
S'B-NP'
p572
g5
tp573
a(S'target'
p574
S'target'
p575
S'NN'
p576
S'I-NP'
p577
g5
tp578
a(S'Hb'
p579
S'Hb'
p580
S'NN'
p581
S'I-NP'
p582
S'B-protein'
p583
tp584
a(S'level'
p585
S'level'
p586
S'NN'
p587
S'I-NP'
p588
g5
tp589
a(S'of'
p590
S'of'
p591
S'IN'
p592
S'B-PP'
p593
g5
tp594
a(S'10.5-12.5'
p595
S'10.5-12.5'
p596
S'CD'
p597
S'B-NP'
p598
g5
tp599
a(S'g/dL'
p600
S'g/dL'
p601
S'NN'
p602
S'I-NP'
p603
g5
tp604
a(S'with'
p605
S'with'
p606
S'IN'
p607
S'B-PP'
p608
g5
tp609
a(g570
g570
S'DT'
p610
S'B-NP'
p611
g5
tp612
a(S'stable'
p613
S'stable'
p614
S'JJ'
p615
S'I-NP'
p616
g5
tp617
a(S'epoetin'
p618
S'epoetin'
p619
S'NN'
p620
S'I-NP'
p621
g5
tp622
a(S'dose'
p623
S'dose'
p624
S'NN'
p625
S'I-NP'
p626
g5
tp627
a(g99
g99
g99
g5
g5
tp628
a(S'MAIN'
p629
S'MAIN'
p630
S'NNP'
p631
S'B-NP'
p632
g5
tp633
a(S'OUTCOME'
p634
S'OUTCOME'
p635
S'NNP'
p636
S'I-NP'
p637
g5
tp638
a(S'MEASURES'
p639
S'MEASURES'
p640
S'NNP'
p641
S'I-NP'
p642
g5
tp643
a(S'Primary'
p644
S'Primary'
p645
S'JJ'
p646
S'I-NP'
p647
g5
tp648
a(S'efficacy'
p649
S'efficacy'
p650
S'NN'
p651
S'I-NP'
p652
g5
tp653
a(S'endpoints'
p654
S'endpoint'
p655
S'NNS'
p656
S'I-NP'
p657
g5
tp658
a(S'were'
p659
S'be'
p660
S'VBD'
p661
S'B-VP'
p662
g5
tp663
a(S'intra-individual'
p664
S'intra-individual'
p665
S'JJ'
p666
S'B-NP'
p667
g5
tp668
a(S'differences'
p669
S'difference'
p670
S'NNS'
p671
S'I-NP'
p672
g5
tp673
a(g203
g203
g203
g5
g5
tp674
a(S'test-reference'
p675
S'test-reference'
p676
S'NN'
p677
S'B-NP'
p678
g5
tp679
a(g211
g211
g211
g5
g5
tp680
a(S'in'
p681
S'in'
p682
S'IN'
p683
S'B-PP'
p684
g5
tp685
a(S'mean'
p686
S'mean'
p687
S'JJ'
p688
S'B-NP'
p689
g5
tp690
a(S'Hb'
p691
S'Hb'
p692
S'NN'
p693
S'I-NP'
p694
S'B-protein'
p695
tp696
a(S'levels'
p697
S'level'
p698
S'NNS'
p699
S'I-NP'
p700
g5
tp701
a(S'and'
p702
S'and'
p703
S'CC'
p704
g5
g5
tp705
a(S'mean'
p706
S'mean'
p707
S'JJ'
p708
S'B-NP'
p709
g5
tp710
a(S'weekly'
p711
S'weekly'
p712
S'JJ'
p713
S'I-NP'
p714
g5
tp715
a(S'dose/kg'
p716
S'dose/kg'
p717
S'NN'
p718
S'I-NP'
p719
g5
tp720
a(S'of'
p721
S'of'
p722
S'IN'
p723
S'B-PP'
p724
g5
tp725
a(S'body'
p726
S'body'
p727
S'NN'
p728
S'B-NP'
p729
g5
tp730
a(S'weight.'
p731
S'weight.'
p732
S'NN'
p733
S'I-NP'
p734
g5
tp735
a(S'Safety'
p736
S'Safety'
p737
S'NN'
p738
S'I-NP'
p739
g5
tp740
a(S'endpoints'
p741
S'endpoint'
p742
S'NNS'
p743
S'I-NP'
p744
g5
tp745
a(S'included'
p746
S'include'
p747
S'VBD'
p748
S'B-VP'
p749
g5
tp750
a(S'occurrence'
p751
S'occurrence'
p752
S'NN'
p753
S'B-NP'
p754
g5
tp755
a(S'of'
p756
S'of'
p757
S'IN'
p758
S'B-PP'
p759
g5
tp760
a(S'neutralizing'
p761
S'neutralize'
p762
S'VBG'
p763
S'B-VP'
p764
g5
tp765
a(S'anti-erythro'
p766
S'anti-erythro'
p767
S'JJ'
p768
S'B-NP'
p769
S'B-protein'
p770
tp771
a(S'poietin'
p772
S'poietin'
p773
S'NN'
p774
S'I-NP'
p775
S'I-protein'
p776
tp777
a(S'antibodies'
p778
S'antibody'
p779
S'NNS'
p780
S'I-NP'
p781
S'I-protein'
p782
tp783
a(g158
g158
g158
g5
g5
tp784
a(S'tolerability'
p785
S'tolerability'
p786
S'NN'
p787
S'B-NP'
p788
g5
tp789
a(g158
g158
g158
g5
g5
tp790
a(S'and'
p791
S'and'
p792
S'CC'
p793
g5
g5
tp794
a(S'adverse'
p795
S'adverse'
p796
S'JJ'
p797
S'B-NP'
p798
g5
tp799
a(S'events'
p800
S'event'
p801
S'NNS'
p802
S'I-NP'
p803
g5
tp804
a(g203
g203
g203
g5
g5
tp805
a(S'AEs'
p806
S'AE'
p807
S'NNS'
p808
S'B-NP'
p809
g5
tp810
a(g211
g211
g211
g5
g5
tp811
a(g99
g99
g99
g5
g5
tp812
a(S'RESULTS'
p813
S'RESULTS'
p814
S'NNS'
p815
S'B-NP'
p816
g5
tp817
a(S'In'
p818
S'In'
p819
S'IN'
p820
S'B-PP'
p821
g5
tp822
a(S'total'
p823
S'total'
p824
S'NN'
p825
S'B-NP'
p826
g5
tp827
a(g158
g158
g158
g5
g5
tp828
a(S'313'
p829
S'313'
p830
S'CD'
p831
S'B-NP'
p832
g5
tp833
a(S'patients'
p834
S'patient'
p835
S'NNS'
p836
S'I-NP'
p837
g5
tp838
a(S'were'
p839
S'be'
p840
S'VBD'
p841
S'B-VP'
p842
g5
tp843
a(S'randomized'
p844
S'randomize'
p845
S'VBN'
p846
S'I-VP'
p847
g5
tp848
a(S'to'
p849
S'to'
p850
S'TO'
p851
S'I-VP'
p852
g5
tp853
a(S'receive'
p854
S'receive'
p855
S'VB'
p856
S'I-VP'
p857
g5
tp858
a(S'epoetin'
p859
S'epoetin'
p860
S'NN'
p861
S'B-NP'
p862
S'B-protein'
p863
tp864
a(S'zeta'
p865
S'zeta'
p866
S'NN'
p867
S'I-NP'
p868
S'I-protein'
p869
tp870
a(g203
g203
g203
g5
g5
tp871
a(S'n'
p872
g872
S'NN'
p873
S'B-NP'
p874
g5
tp875
a(g528
g528
S'SYM'
p876
S'B-VP'
p877
g5
tp878
a(S'155'
p879
S'155'
p880
S'CD'
p881
S'B-NP'
p882
g5
tp883
a(g211
g211
g211
g5
g5
tp884
a(S'or'
p885
S'or'
p886
S'CC'
p887
g5
g5
tp888
a(S'epoetin'
p889
S'epoetin'
p890
S'NN'
p891
S'B-NP'
p892
g5
tp893
a(S'alfa'
p894
S'alfa'
p895
S'NN'
p896
S'I-NP'
p897
g5
tp898
a(g203
g203
g203
g5
g5
tp899
a(g872
g872
S'NN'
p900
S'B-NP'
p901
g5
tp902
a(g528
g528
S'SYM'
p903
S'B-VP'
p904
g5
tp905
a(S'158'
p906
S'158'
p907
S'CD'
p908
S'B-NP'
p909
g5
tp910
a(g211
g211
g211
g5
g5
tp911
a(S';'
p912
g912
S':'
p913
g5
g5
tp914
a(S'146'
p915
S'146'
p916
S'CD'
p917
S'B-NP'
p918
g5
tp919
a(S'and'
p920
S'and'
p921
S'CC'
p922
S'I-NP'
p923
g5
tp924
a(S'145'
p925
S'145'
p926
S'CD'
p927
S'I-NP'
p928
g5
tp929
a(S'patients'
p930
S'patient'
p931
S'NNS'
p932
S'I-NP'
p933
g5
tp934
a(g203
g203
g203
g5
g5
tp935
a(S'respectively'
p936
S'respectively'
p937
S'RB'
p938
S'B-ADVP'
p939
g5
tp940
a(g211
g211
g211
g5
g5
tp941
a(S'switched'
p942
S'switch'
p943
S'VBD'
p944
S'B-VP'
p945
g5
tp946
a(S'treatment'
p947
S'treatment'
p948
S'NN'
p949
S'B-NP'
p950
g5
tp951
a(S'after'
p952
S'after'
p953
S'IN'
p954
S'B-PP'
p955
g5
tp956
a(S'12'
p957
S'12'
p958
S'CD'
p959
S'B-NP'
p960
g5
tp961
a(S'weeks.'
p962
S'weeks.'
p963
S'NN'
p964
S'I-NP'
p965
g5
tp966
a(S'Mean'
p967
S'Mean'
p968
S'NN'
p969
S'I-NP'
p970
g5
tp971
a(g203
g203
g203
g5
g5
tp972
a(S'range'
p973
S'range'
p974
S'NN'
p975
S'B-NP'
p976
g5
tp977
a(g211
g211
g211
g5
g5
tp978
a(S'Hb'
p979
S'Hb'
p980
S'NN'
p981
S'B-NP'
p982
g5
tp983
a(S'levels'
p984
S'level'
p985
S'NNS'
p986
S'I-NP'
p987
g5
tp988
a(S'were'
p989
S'be'
p990
S'VBD'
p991
S'B-VP'
p992
g5
tp993
a(S'11.35'
p994
S'11.35'
p995
S'CD'
p996
S'B-NP'
p997
g5
tp998
a(g203
g203
g203
g5
g5
tp999
a(S'8.96-14.22'
p1000
S'8.96-14.22'
p1001
S'CD'
p1002
S'B-NP'
p1003
g5
tp1004
a(g211
g211
g211
g5
g5
tp1005
a(S'g/dL'
p1006
S'g/dL'
p1007
S'NN'
p1008
S'B-NP'
p1009
g5
tp1010
a(S'and'
p1011
S'and'
p1012
S'CC'
p1013
g5
g5
tp1014
a(S'11.54'
p1015
S'11.54'
p1016
S'CD'
p1017
S'B-NP'
p1018
g5
tp1019
a(g203
g203
g203
g5
g5
tp1020
a(S'8.74-13.84'
p1021
S'8.74-13.84'
p1022
S'CD'
p1023
S'B-NP'
p1024
g5
tp1025
a(g211
g211
g211
g5
g5
tp1026
a(S'g/dL'
p1027
S'g/dL'
p1028
S'NN'
p1029
S'B-NP'
p1030
g5
tp1031
a(S'for'
p1032
S'for'
p1033
S'IN'
p1034
S'B-PP'
p1035
g5
tp1036
a(S'patients'
p1037
S'patient'
p1038
S'NNS'
p1039
S'B-NP'
p1040
g5
tp1041
a(S'receiving'
p1042
S'receive'
p1043
S'VBG'
p1044
S'B-VP'
p1045
g5
tp1046
a(S'epoetin'
p1047
S'epoetin'
p1048
S'NN'
p1049
S'B-NP'
p1050
S'B-protein'
p1051
tp1052
a(S'zeta'
p1053
S'zeta'
p1054
S'NN'
p1055
S'I-NP'
p1056
S'I-protein'
p1057
tp1058
a(S'and'
p1059
S'and'
p1060
S'CC'
p1061
g5
g5
tp1062
a(S'epoetin'
p1063
S'epoetin'
p1064
S'NN'
p1065
S'B-NP'
p1066
g5
tp1067
a(S'alfa'
p1068
S'alfa'
p1069
S'NN'
p1070
S'I-NP'
p1071
g5
tp1072
a(g158
g158
g158
g5
g5
tp1073
a(S'respectively'
p1074
S'respectively'
p1075
S'RB'
p1076
S'B-ADVP'
p1077
g5
tp1078
a(g203
g203
g203
g5
g5
tp1079
a(S'95'
p1080
S'95'
p1081
S'CD'
p1082
S'B-NP'
p1083
g5
tp1084
a(S'%'
p1085
g1085
S'NN'
p1086
S'I-NP'
p1087
g5
tp1088
a(S'confidence'
p1089
S'confidence'
p1090
S'NN'
p1091
S'I-NP'
p1092
g5
tp1093
a(S'interval'
p1094
S'interval'
p1095
S'NN'
p1096
S'I-NP'
p1097
g5
tp1098
a(S'['
p1099
g1099
g203
g5
g5
tp1100
a(S'CI'
p1101
S'CI'
p1102
S'NN'
p1103
S'B-NP'
p1104
g5
tp1105
a(S']'
p1106
g1106
g211
g5
g5
tp1107
a(g1099
g1099
g203
g5
g5
tp1108
a(S'test-reference'
p1109
S'test-reference'
p1110
S'NN'
p1111
S'B-NP'
p1112
g5
tp1113
a(g1106
g1106
g211
g5
g5
tp1114
a(g913
g913
g913
g5
g5
tp1115
a(S'0.09-0.28'
p1116
S'0.09-0.28'
p1117
S'CD'
p1118
S'B-NP'
p1119
g5
tp1120
a(S'g/dL'
p1121
S'g/dL'
p1122
S'NN'
p1123
S'I-NP'
p1124
g5
tp1125
a(g158
g158
g158
g5
g5
tp1126
a(S'within'
p1127
S'within'
p1128
S'IN'
p1129
S'B-PP'
p1130
g5
tp1131
a(S'the'
p1132
S'the'
p1133
S'DT'
p1134
S'B-NP'
p1135
g5
tp1136
a(S'predefined'
p1137
S'predefine'
p1138
S'VBN'
p1139
S'I-NP'
p1140
g5
tp1141
a(S'equivalence'
p1142
S'equivalence'
p1143
S'NN'
p1144
S'I-NP'
p1145
g5
tp1146
a(S'range'
p1147
S'range'
p1148
S'NN'
p1149
S'I-NP'
p1150
g5
tp1151
a(S'of'
p1152
S'of'
p1153
S'IN'
p1154
S'B-PP'
p1155
g5
tp1156
a(S'+/-0.6'
p1157
S'+/-0.6'
p1158
S'CC'
p1159
g5
g5
tp1160
a(S'g/dL'
p1161
S'g/dL'
p1162
S'NN'
p1163
S'B-NP'
p1164
g5
tp1165
a(g211
g211
g211
g5
g5
tp1166
a(g99
g99
g99
g5
g5
tp1167
a(S'Mean'
p1168
S'Mean'
p1169
S'NN'
p1170
S'B-NP'
p1171
g5
tp1172
a(g203
g203
g203
g5
g5
tp1173
a(S'range'
p1174
S'range'
p1175
S'NN'
p1176
S'B-NP'
p1177
g5
tp1178
a(g211
g211
g211
g5
g5
tp1179
a(S'weekly'
p1180
S'weekly'
p1181
S'JJ'
p1182
S'B-NP'
p1183
g5
tp1184
a(S'doses'
p1185
S'dose'
p1186
S'NNS'
p1187
S'I-NP'
p1188
g5
tp1189
a(S'were'
p1190
S'be'
p1191
S'VBD'
p1192
S'B-VP'
p1193
g5
tp1194
a(S'92.68'
p1195
S'92.68'
p1196
S'CD'
p1197
S'B-NP'
p1198
g5
tp1199
a(g203
g203
g203
g5
g5
tp1200
a(S'12.74-398.41'
p1201
S'12.74-398.41'
p1202
S'CD'
p1203
S'B-NP'
p1204
g5
tp1205
a(g211
g211
g211
g5
g5
tp1206
a(S'IU/kg/wk'
p1207
S'IU/kg/wk'
p1208
S'NNP'
p1209
S'B-NP'
p1210
g5
tp1211
a(S'and'
p1212
S'and'
p1213
S'CC'
p1214
g5
g5
tp1215
a(S'92.58'
p1216
S'92.58'
p1217
S'CD'
p1218
S'B-NP'
p1219
g5
tp1220
a(g203
g203
g203
g5
g5
tp1221
a(S'10.53-393.07'
p1222
S'10.53-393.07'
p1223
S'CD'
p1224
S'B-NP'
p1225
g5
tp1226
a(g211
g211
g211
g5
g5
tp1227
a(S'IU/kg/wk'
p1228
S'IU/kg/wk'
p1229
S'NN'
p1230
S'B-NP'
p1231
g5
tp1232
a(S'for'
p1233
S'for'
p1234
S'IN'
p1235
S'B-PP'
p1236
g5
tp1237
a(S'patients'
p1238
S'patient'
p1239
S'NNS'
p1240
S'B-NP'
p1241
g5
tp1242
a(S'receiving'
p1243
S'receive'
p1244
S'VBG'
p1245
S'B-VP'
p1246
g5
tp1247
a(S'epoetin'
p1248
S'epoetin'
p1249
S'NN'
p1250
S'B-NP'
p1251
S'B-protein'
p1252
tp1253
a(S'zeta'
p1254
S'zeta'
p1255
S'NN'
p1256
S'I-NP'
p1257
S'I-protein'
p1258
tp1259
a(S'and'
p1260
S'and'
p1261
S'CC'
p1262
g5
g5
tp1263
a(S'epoetin'
p1264
S'epoetin'
p1265
S'NN'
p1266
S'B-NP'
p1267
g5
tp1268
a(S'alfa'
p1269
S'alfa'
p1270
S'NN'
p1271
S'I-NP'
p1272
g5
tp1273
a(g158
g158
g158
g5
g5
tp1274
a(S'respectively'
p1275
S'respectively'
p1276
S'RB'
p1277
S'B-ADVP'
p1278
g5
tp1279
a(g203
g203
g203
g5
g5
tp1280
a(S'95'
p1281
S'95'
p1282
S'CD'
p1283
S'B-NP'
p1284
g5
tp1285
a(g1085
g1085
S'NN'
p1286
S'I-NP'
p1287
g5
tp1288
a(S'CI'
p1289
S'CI'
p1290
S'NN'
p1291
S'I-NP'
p1292
g5
tp1293
a(g1099
g1099
g203
g5
g5
tp1294
a(S'test-reference'
p1295
S'test-reference'
p1296
S'NN'
p1297
S'B-NP'
p1298
g5
tp1299
a(g1106
g1106
g211
g5
g5
tp1300
a(g913
g913
g913
g5
g5
tp1301
a(S'-4.67'
p1302
S'-4.67'
p1303
S'CD'
p1304
S'B-NP'
p1305
g5
tp1306
a(S'and'
p1307
S'and'
p1308
S'CC'
p1309
S'I-NP'
p1310
g5
tp1311
a(S'4.29'
p1312
S'4.29'
p1313
S'CD'
p1314
S'I-NP'
p1315
g5
tp1316
a(S'IU/kg/wk'
p1317
S'IU/kg/wk'
p1318
S'NN'
p1319
S'I-NP'
p1320
g5
tp1321
a(g158
g158
g158
g5
g5
tp1322
a(S'within'
p1323
S'within'
p1324
S'IN'
p1325
S'B-PP'
p1326
g5
tp1327
a(S'the'
p1328
S'the'
p1329
S'DT'
p1330
S'B-NP'
p1331
g5
tp1332
a(S'equivalence'
p1333
S'equivalence'
p1334
S'NN'
p1335
S'I-NP'
p1336
g5
tp1337
a(S'range'
p1338
S'range'
p1339
S'NN'
p1340
S'I-NP'
p1341
g5
tp1342
a(S'of'
p1343
S'of'
p1344
S'IN'
p1345
S'B-PP'
p1346
g5
tp1347
a(S'+/-45.00'
p1348
S'+/-45.00'
p1349
S'CD'
p1350
S'B-NP'
p1351
g5
tp1352
a(S'IU/kg/wk'
p1353
S'IU/kg/wk'
p1354
S'NN'
p1355
S'I-NP'
p1356
g5
tp1357
a(g211
g211
g211
g5
g5
tp1358
a(g99
g99
g99
g5
g5
tp1359
a(S'Patients'
p1360
S'Patient'
p1361
S'NNPS'
p1362
S'B-NP'
p1363
g5
tp1364
a(S'underwent'
p1365
S'undergo'
p1366
S'VBD'
p1367
S'B-VP'
p1368
g5
tp1369
a(S'minor'
p1370
S'minor'
p1371
S'JJ'
p1372
S'B-NP'
p1373
g5
tp1374
a(S'nominal'
p1375
S'nominal'
p1376
S'JJ'
p1377
S'I-NP'
p1378
g5
tp1379
a(S'dose'
p1380
S'dose'
p1381
S'NN'
p1382
S'I-NP'
p1383
g5
tp1384
a(S'adjustments'
p1385
S'adjustment'
p1386
S'NNS'
p1387
S'I-NP'
p1388
g5
tp1389
a(S'during'
p1390
S'during'
p1391
S'IN'
p1392
S'B-PP'
p1393
g5
tp1394
a(S'treatment'
p1395
S'treatment'
p1396
S'NN'
p1397
S'B-NP'
p1398
g5
tp1399
a(S'crossover.'
p1400
S'crossover.'
p1401
S'NN'
p1402
S'I-NP'
p1403
g5
tp1404
a(S'AE'
p1405
S'AE'
p1406
S'NN'
p1407
S'I-NP'
p1408
g5
tp1409
a(S'profile'
p1410
S'profile'
p1411
S'NN'
p1412
S'I-NP'
p1413
g5
tp1414
a(S'was'
p1415
S'be'
p1416
S'VBD'
p1417
S'B-VP'
p1418
g5
tp1419
a(S'similar'
p1420
S'similar'
p1421
S'JJ'
p1422
S'B-ADJP'
p1423
g5
tp1424
a(S'for'
p1425
S'for'
p1426
S'IN'
p1427
S'B-PP'
p1428
g5
tp1429
a(S'both'
p1430
S'both'
p1431
S'DT'
p1432
S'B-NP'
p1433
g5
tp1434
a(S'products'
p1435
S'product'
p1436
S'NNS'
p1437
S'I-NP'
p1438
g5
tp1439
a(g912
g912
g913
g5
g5
tp1440
a(S'the'
p1441
S'the'
p1442
S'DT'
p1443
S'B-NP'
p1444
g5
tp1445
a(S'most'
p1446
S'most'
p1447
S'RBS'
p1448
S'I-NP'
p1449
g5
tp1450
a(S'commonly'
p1451
S'commonly'
p1452
S'RB'
p1453
S'I-NP'
p1454
g5
tp1455
a(S'reported'
p1456
S'report'
p1457
S'VBN'
p1458
S'I-NP'
p1459
g5
tp1460
a(S'AEs'
p1461
S'AE'
p1462
S'NNS'
p1463
S'I-NP'
p1464
g5
tp1465
a(S'were'
p1466
S'be'
p1467
S'VBD'
p1468
S'B-VP'
p1469
g5
tp1470
a(S'infections'
p1471
S'infection'
p1472
S'NNS'
p1473
S'B-NP'
p1474
g5
tp1475
a(S'and'
p1476
S'and'
p1477
S'CC'
p1478
S'I-NP'
p1479
g5
tp1480
a(S'infestations'
p1481
S'infestation'
p1482
S'NNS'
p1483
S'I-NP'
p1484
g5
tp1485
a(g203
g203
g203
g5
g5
tp1486
a(S'in'
p1487
S'in'
p1488
S'IN'
p1489
S'B-PP'
p1490
g5
tp1491
a(S'26.5'
p1492
S'26.5'
p1493
S'CD'
p1494
S'B-NP'
p1495
g5
tp1496
a(g1085
g1085
S'NN'
p1497
S'I-NP'
p1498
g5
tp1499
a(S'of'
p1500
S'of'
p1501
S'IN'
p1502
S'B-PP'
p1503
g5
tp1504
a(S'patients'
p1505
S'patient'
p1506
S'NNS'
p1507
S'B-NP'
p1508
g5
tp1509
a(S'receiving'
p1510
S'receive'
p1511
S'VBG'
p1512
S'B-VP'
p1513
g5
tp1514
a(S'epoetin'
p1515
S'epoetin'
p1516
S'NN'
p1517
S'B-NP'
p1518
S'B-protein'
p1519
tp1520
a(S'zeta'
p1521
S'zeta'
p1522
S'NN'
p1523
S'I-NP'
p1524
S'I-protein'
p1525
tp1526
a(S'and'
p1527
S'and'
p1528
S'CC'
p1529
g5
g5
tp1530
a(S'23.6'
p1531
S'23.6'
p1532
S'CD'
p1533
S'B-NP'
p1534
g5
tp1535
a(g1085
g1085
S'NN'
p1536
S'I-NP'
p1537
g5
tp1538
a(S'receiving'
p1539
S'receive'
p1540
S'VBG'
p1541
S'B-VP'
p1542
g5
tp1543
a(S'epoetin'
p1544
S'epoetin'
p1545
S'NN'
p1546
S'B-NP'
p1547
g5
tp1548
a(S'alfa'
p1549
S'alfa'
p1550
S'NN'
p1551
S'I-NP'
p1552
g5
tp1553
a(g211
g211
g211
g5
g5
tp1554
a(g99
g99
g99
g5
g5
tp1555
a(S'No'
p1556
S'No'
p1557
S'DT'
p1558
S'B-NP'
p1559
g5
tp1560
a(S'patients'
p1561
S'patient'
p1562
S'NNS'
p1563
S'I-NP'
p1564
g5
tp1565
a(S'developed'
p1566
S'develop'
p1567
S'VBD'
p1568
S'B-VP'
p1569
g5
tp1570
a(S'neutralizing'
p1571
S'neutralize'
p1572
S'VBG'
p1573
S'I-VP'
p1574
g5
tp1575
a(S'anti-erythropoietin'
p1576
S'anti-erythropoietin'
p1577
S'JJ'
p1578
S'B-NP'
p1579
S'B-protein'
p1580
tp1581
a(S'antibodies'
p1582
S'antibody'
p1583
S'NNS'
p1584
S'I-NP'
p1585
S'I-protein'
p1586
tp1587
a(g99
g99
g99
g5
g5
tp1588
a(S'CONCLUSIONS'
p1589
S'CONCLUSIONS'
p1590
S'NNS'
p1591
S'B-NP'
p1592
g5
tp1593
a(S'Epoetin'
p1594
S'Epoetin'
p1595
S'NN'
p1596
S'I-NP'
p1597
S'B-protein'
p1598
tp1599
a(S'zeta'
p1600
S'zeta'
p1601
S'NN'
p1602
S'I-NP'
p1603
S'I-protein'
p1604
tp1605
a(S'is'
p1606
S'be'
p1607
S'VBZ'
p1608
S'B-VP'
p1609
g5
tp1610
a(S'therapeutically'
p1611
S'therapeutically'
p1612
S'RB'
p1613
S'B-ADJP'
p1614
g5
tp1615
a(S'equivalent'
p1616
S'equivalent'
p1617
S'JJ'
p1618
S'I-ADJP'
p1619
g5
tp1620
a(S'to'
p1621
S'to'
p1622
S'TO'
p1623
S'B-PP'
p1624
g5
tp1625
a(S'epoetin'
p1626
S'epoetin'
p1627
S'NN'
p1628
S'B-NP'
p1629
g5
tp1630
a(S'alfa'
p1631
S'alfa'
p1632
S'NN'
p1633
S'I-NP'
p1634
g5
tp1635
a(S'in'
p1636
S'in'
p1637
S'IN'
p1638
S'B-PP'
p1639
g5
tp1640
a(S'the'
p1641
S'the'
p1642
S'DT'
p1643
S'B-NP'
p1644
g5
tp1645
a(S'maintenance'
p1646
S'maintenance'
p1647
S'NN'
p1648
S'I-NP'
p1649
g5
tp1650
a(S'of'
p1651
S'of'
p1652
S'IN'
p1653
S'B-PP'
p1654
g5
tp1655
a(S'target'
p1656
S'target'
p1657
S'NN'
p1658
S'B-NP'
p1659
g5
tp1660
a(S'Hb'
p1661
S'Hb'
p1662
S'NN'
p1663
S'I-NP'
p1664
g5
tp1665
a(S'levels'
p1666
S'level'
p1667
S'NNS'
p1668
S'I-NP'
p1669
g5
tp1670
a(S'in'
p1671
S'in'
p1672
S'IN'
p1673
S'B-PP'
p1674
g5
tp1675
a(S'patients'
p1676
S'patient'
p1677
S'NNS'
p1678
S'B-NP'
p1679
g5
tp1680
a(S'with'
p1681
S'with'
p1682
S'IN'
p1683
S'B-PP'
p1684
g5
tp1685
a(S'renal'
p1686
S'renal'
p1687
S'JJ'
p1688
S'B-NP'
p1689
g5
tp1690
a(S'anaemia.'
p1691
S'anaemia.'
p1692
S'NN'
p1693
S'I-NP'
p1694
g5
tp1695
a(S'No'
p1696
S'No'
p1697
S'DT'
p1698
S'B-NP'
p1699
g5
tp1700
a(S'unexpected'
p1701
S'unexpected'
p1702
S'JJ'
p1703
S'I-NP'
p1704
g5
tp1705
a(S'AEs'
p1706
S'AE'
p1707
S'NNS'
p1708
S'I-NP'
p1709
g5
tp1710
a(S'were'
p1711
S'be'
p1712
S'VBD'
p1713
S'B-VP'
p1714
g5
tp1715
a(S'seen'
p1716
S'see'
p1717
S'VBN'
p1718
S'I-VP'
p1719
g5
tp1720
a(g99
g99
g99
g5
g5
tp1721
a.