(lp0
(S'Pharmacokinetics'
p1
S'Pharmacokinetic'
p2
S'NNS'
p3
S'B-NP'
p4
S'O'
p5
tp6
a(S'and'
p7
S'and'
p8
S'CC'
p9
S'I-NP'
p10
g5
tp11
a(S'pharmacodynamics'
p12
S'pharmacodynamic'
p13
S'NNS'
p14
S'I-NP'
p15
g5
tp16
a(S'of'
p17
S'of'
p18
S'IN'
p19
S'B-PP'
p20
g5
tp21
a(S'intravenous'
p22
S'intravenous'
p23
S'JJ'
p24
S'B-NP'
p25
g5
tp26
a(S'diltiazem'
p27
S'diltiazem'
p28
S'NN'
p29
S'I-NP'
p30
g5
tp31
a(S'in'
p32
S'in'
p33
S'IN'
p34
S'B-PP'
p35
g5
tp36
a(S'patients'
p37
S'patient'
p38
S'NNS'
p39
S'B-NP'
p40
g5
tp41
a(S'with'
p42
S'with'
p43
S'IN'
p44
S'B-PP'
p45
g5
tp46
a(S'atrial'
p47
S'atrial'
p48
S'JJ'
p49
S'B-NP'
p50
g5
tp51
a(S'fibrillation'
p52
S'fibrillation'
p53
S'NN'
p54
S'I-NP'
p55
g5
tp56
a(S'or'
p57
S'or'
p58
S'CC'
p59
g5
g5
tp60
a(S'atrial'
p61
S'atrial'
p62
S'JJ'
p63
S'B-NP'
p64
g5
tp65
a(S'flutter'
p66
S'flutter'
p67
S'NN'
p68
S'I-NP'
p69
g5
tp70
a(S'.'
p71
g71
g71
g5
g5
tp72
a(S'BACKGROUND'
p73
S'BACKGROUND'
p74
S'NN'
p75
S'B-NP'
p76
g5
tp77
a(S'Diltiazem'
p78
S'Diltiazem'
p79
S'NNP'
p80
S'I-NP'
p81
g5
tp82
a(S','
p83
g83
g83
g5
g5
tp84
a(S'a'
p85
g85
S'DT'
p86
S'B-NP'
p87
g5
tp88
a(S'calcium'
p89
S'calcium'
p90
S'NN'
p91
S'I-NP'
p92
g5
tp93
a(S'channel'
p94
S'channel'
p95
S'NN'
p96
S'I-NP'
p97
g5
tp98
a(S'blocker'
p99
S'blocker'
p100
S'NN'
p101
S'I-NP'
p102
g5
tp103
a(g83
g83
g83
g5
g5
tp104
a(S'has'
p105
S'have'
p106
S'VBZ'
p107
S'B-VP'
p108
g5
tp109
a(S'been'
p110
S'be'
p111
S'VBN'
p112
S'I-VP'
p113
g5
tp114
a(S'shown'
p115
S'show'
p116
S'VBN'
p117
S'I-VP'
p118
g5
tp119
a(S'to'
p120
S'to'
p121
S'TO'
p122
S'I-VP'
p123
g5
tp124
a(S'be'
p125
S'be'
p126
S'VB'
p127
S'I-VP'
p128
g5
tp129
a(S'safe'
p130
S'safe'
p131
S'JJ'
p132
S'B-ADJP'
p133
g5
tp134
a(S'and'
p135
S'and'
p136
S'CC'
p137
S'I-ADJP'
p138
g5
tp139
a(S'effective'
p140
S'effective'
p141
S'JJ'
p142
S'I-ADJP'
p143
g5
tp144
a(S'in'
p145
S'in'
p146
S'IN'
p147
S'B-PP'
p148
g5
tp149
a(S'the'
p150
S'the'
p151
S'DT'
p152
S'B-NP'
p153
g5
tp154
a(S'treatment'
p155
S'treatment'
p156
S'NN'
p157
S'I-NP'
p158
g5
tp159
a(S'of'
p160
S'of'
p161
S'IN'
p162
S'B-PP'
p163
g5
tp164
a(S'patients'
p165
S'patient'
p166
S'NNS'
p167
S'B-NP'
p168
g5
tp169
a(S'in'
p170
S'in'
p171
S'IN'
p172
S'B-PP'
p173
g5
tp174
a(S'atrial'
p175
S'atrial'
p176
S'JJ'
p177
S'B-NP'
p178
g5
tp179
a(S'fibrillation'
p180
S'fibrillation'
p181
S'NN'
p182
S'I-NP'
p183
g5
tp184
a(S'and/or'
p185
S'and/or'
p186
S'CC'
p187
g5
g5
tp188
a(S'atrial'
p189
S'atrial'
p190
S'JJ'
p191
S'B-NP'
p192
g5
tp193
a(S'flutter.'
p194
S'flutter.'
p195
S'NN'
p196
S'I-NP'
p197
g5
tp198
a(S'However'
p199
S'However'
p200
S'RB'
p201
S'B-ADVP'
p202
g5
tp203
a(g83
g83
g83
g5
g5
tp204
a(S'there'
p205
S'there'
p206
S'EX'
p207
S'B-NP'
p208
g5
tp209
a(S'have'
p210
S'have'
p211
S'VBP'
p212
S'B-VP'
p213
g5
tp214
a(S'been'
p215
S'be'
p216
S'VBN'
p217
S'I-VP'
p218
g5
tp219
a(S'no'
p220
S'no'
p221
S'DT'
p222
S'B-NP'
p223
g5
tp224
a(S'pharmacokinetic/pharmacodynamic'
p225
S'pharmacokinetic/pharmacodynamic'
p226
S'JJ'
p227
S'I-NP'
p228
g5
tp229
a(S'studies'
p230
S'study'
p231
S'NNS'
p232
S'I-NP'
p233
g5
tp234
a(S'of'
p235
S'of'
p236
S'IN'
p237
S'B-PP'
p238
g5
tp239
a(S'diltiazem'
p240
S'diltiazem'
p241
S'NN'
p242
S'B-NP'
p243
g5
tp244
a(S'in'
p245
S'in'
p246
S'IN'
p247
S'B-PP'
p248
g5
tp249
a(S'these'
p250
S'these'
p251
S'DT'
p252
S'B-NP'
p253
g5
tp254
a(S'patients'
p255
S'patient'
p256
S'NNS'
p257
S'I-NP'
p258
g5
tp259
a(g71
g71
g71
g5
g5
tp260
a(S'METHODS'
p261
S'METHODS'
p262
S'NNS'
p263
S'B-NP'
p264
g5
tp265
a(S'AND'
p266
S'AND'
p267
S'CC'
p268
S'I-NP'
p269
g5
tp270
a(S'RESULTS'
p271
S'RESULTS'
p272
S'NNS'
p273
S'I-NP'
p274
g5
tp275
a(S'The'
p276
S'The'
p277
S'DT'
p278
S'B-NP'
p279
g5
tp280
a(S'pharmacokinetics'
p281
S'pharmacokinetic'
p282
S'NNS'
p283
S'I-NP'
p284
g5
tp285
a(S'and'
p286
S'and'
p287
S'CC'
p288
S'I-NP'
p289
g5
tp290
a(S'pharmacodynamics'
p291
S'pharmacodynamic'
p292
S'NNS'
p293
S'I-NP'
p294
g5
tp295
a(S'of'
p296
S'of'
p297
S'IN'
p298
S'B-PP'
p299
g5
tp300
a(S'intravenous'
p301
S'intravenous'
p302
S'JJ'
p303
S'B-NP'
p304
g5
tp305
a(S'diltiazem'
p306
S'diltiazem'
p307
S'NN'
p308
S'I-NP'
p309
g5
tp310
a(S'were'
p311
S'be'
p312
S'VBD'
p313
S'B-VP'
p314
g5
tp315
a(S'determined'
p316
S'determine'
p317
S'VBN'
p318
S'I-VP'
p319
g5
tp320
a(S'in'
p321
S'in'
p322
S'IN'
p323
S'B-PP'
p324
g5
tp325
a(S'32'
p326
S'32'
p327
S'CD'
p328
S'B-NP'
p329
g5
tp330
a(S'patients'
p331
S'patient'
p332
S'NNS'
p333
S'I-NP'
p334
g5
tp335
a(S'with'
p336
S'with'
p337
S'IN'
p338
S'B-PP'
p339
g5
tp340
a(S'atrial'
p341
S'atrial'
p342
S'JJ'
p343
S'B-NP'
p344
g5
tp345
a(S'fibrillation'
p346
S'fibrillation'
p347
S'NN'
p348
S'I-NP'
p349
g5
tp350
a(S'or'
p351
S'or'
p352
S'CC'
p353
g5
g5
tp354
a(S'atrial'
p355
S'atrial'
p356
S'JJ'
p357
S'B-NP'
p358
g5
tp359
a(S'flutter'
p360
S'flutter'
p361
S'NN'
p362
S'I-NP'
p363
g5
tp364
a(S'('
p365
g365
g365
g5
g5
tp366
a(S'mean'
p367
S'mean'
p368
S'NN'
p369
S'B-NP'
p370
g5
tp371
a(S'+/-'
p372
S'+/-'
p373
S'SYM'
p374
S'I-NP'
p375
g5
tp376
a(S'SD'
p377
S'SD'
p378
S'NN'
p379
S'I-NP'
p380
g5
tp381
a(S'age'
p382
S'age'
p383
S'NN'
p384
S'I-NP'
p385
g5
tp386
a(g83
g83
g83
g5
g5
tp387
a(S'66'
p388
S'66'
p389
S'CD'
p390
S'B-NP'
p391
g5
tp392
a(S'+/-'
p393
S'+/-'
p394
S'CC'
p395
S'I-NP'
p396
g5
tp397
a(S'7'
p398
g398
S'CD'
p399
S'I-NP'
p400
g5
tp401
a(S'years'
p402
S'year'
p403
S'NNS'
p404
S'I-NP'
p405
g5
tp406
a(S';'
p407
g407
S':'
p408
g5
g5
tp409
a(S'mean'
p410
S'mean'
p411
S'JJ'
p412
S'B-NP'
p413
g5
tp414
a(S'baseline'
p415
S'baseline'
p416
S'NN'
p417
S'I-NP'
p418
g5
tp419
a(S'heart'
p420
S'heart'
p421
S'NN'
p422
S'I-NP'
p423
g5
tp424
a(S'rate'
p425
S'rate'
p426
S'NN'
p427
S'I-NP'
p428
g5
tp429
a(g83
g83
g83
g5
g5
tp430
a(S'131'
p431
S'131'
p432
S'CD'
p433
S'B-NP'
p434
g5
tp435
a(S'+/-'
p436
S'+/-'
p437
S'SYM'
p438
S'I-NP'
p439
g5
tp440
a(S'10'
p441
S'10'
p442
S'CD'
p443
S'I-NP'
p444
g5
tp445
a(S'beats'
p446
S'beat'
p447
S'NNS'
p448
S'I-NP'
p449
g5
tp450
a(S'per'
p451
S'per'
p452
S'IN'
p453
S'B-PP'
p454
g5
tp455
a(S'minute'
p456
S'minute'
p457
S'NN'
p458
S'B-NP'
p459
g5
tp460
a(S')'
p461
g461
g461
g5
g5
tp462
a(S'after'
p463
S'after'
p464
S'IN'
p465
S'B-PP'
p466
g5
tp467
a(S'20'
p468
S'20'
p469
S'CD'
p470
S'B-NP'
p471
g5
tp472
a(S'mg'
p473
S'mg'
p474
S'NN'
p475
S'I-NP'
p476
g5
tp477
a(S'or'
p478
S'or'
p479
S'CC'
p480
g5
g5
tp481
a(S'20'
p482
S'20'
p483
S'CD'
p484
S'B-NP'
p485
g5
tp486
a(S'mg'
p487
S'mg'
p488
S'NN'
p489
S'I-NP'
p490
g5
tp491
a(S'followed'
p492
S'follow'
p493
S'VBN'
p494
S'B-VP'
p495
g5
tp496
a(S'by'
p497
S'by'
p498
S'IN'
p499
S'B-PP'
p500
g5
tp501
a(S'25-mg'
p502
S'25-mg'
p503
S'NN'
p504
S'B-NP'
p505
g5
tp506
a(S'bolus'
p507
S'bolus'
p508
S'NN'
p509
S'I-NP'
p510
g5
tp511
a(S'doses'
p512
S'dose'
p513
S'NNS'
p514
S'I-NP'
p515
g5
tp516
a(S'and'
p517
S'and'
p518
S'CC'
p519
g5
g5
tp520
a(g85
g85
S'DT'
p521
S'B-NP'
p522
g5
tp523
a(S'10'
p524
S'10'
p525
S'CD'
p526
S'I-NP'
p527
g5
tp528
a(S'and'
p529
S'and'
p530
S'CC'
p531
S'I-NP'
p532
g5
tp533
a(S'15'
p534
S'15'
p535
S'CD'
p536
S'I-NP'
p537
g5
tp538
a(S'mg/hr'
p539
S'mg/hr'
p540
S'NN'
p541
S'I-NP'
p542
g5
tp543
a(S'infusion'
p544
S'infusion'
p545
S'NN'
p546
S'I-NP'
p547
g5
tp548
a(S'for'
p549
S'for'
p550
S'IN'
p551
S'B-PP'
p552
g5
tp553
a(S'24'
p554
S'24'
p555
S'CD'
p556
S'B-NP'
p557
g5
tp558
a(S'hours.'
p559
S'hours.'
p560
S'NNS'
p561
S'I-NP'
p562
g5
tp563
a(S'After'
p564
S'After'
p565
S'IN'
p566
S'B-PP'
p567
g5
tp568
a(S'the'
p569
S'the'
p570
S'DT'
p571
S'B-NP'
p572
g5
tp573
a(S'10'
p574
S'10'
p575
S'CD'
p576
S'I-NP'
p577
g5
tp578
a(S'and'
p579
S'and'
p580
S'CC'
p581
S'I-NP'
p582
g5
tp583
a(S'15'
p584
S'15'
p585
S'CD'
p586
S'I-NP'
p587
g5
tp588
a(S'mg/hr'
p589
S'mg/hr'
p590
S'NN'
p591
S'I-NP'
p592
g5
tp593
a(S'infusions'
p594
S'infusion'
p595
S'NNS'
p596
S'I-NP'
p597
g5
tp598
a(S'of'
p599
S'of'
p600
S'IN'
p601
S'B-PP'
p602
g5
tp603
a(S'diltiazem'
p604
S'diltiazem'
p605
S'NN'
p606
S'B-NP'
p607
g5
tp608
a(g83
g83
g83
g5
g5
tp609
a(S'mean'
p610
S'mean'
p611
S'NN'
p612
S'B-NP'
p613
g5
tp614
a(S'+/-'
p615
S'+/-'
p616
S'SYM'
p617
S'I-NP'
p618
g5
tp619
a(S'SD'
p620
S'SD'
p621
S'NN'
p622
S'I-NP'
p623
g5
tp624
a(S'elimination'
p625
S'elimination'
p626
S'NN'
p627
S'I-NP'
p628
g5
tp629
a(S'half-life'
p630
S'half-life'
p631
S'NN'
p632
S'I-NP'
p633
g5
tp634
a(S'was'
p635
S'be'
p636
S'VBD'
p637
S'B-VP'
p638
g5
tp639
a(S'6.8'
p640
S'6.8'
p641
S'CD'
p642
S'B-NP'
p643
g5
tp644
a(S'+/-'
p645
S'+/-'
p646
S'SYM'
p647
S'I-NP'
p648
g5
tp649
a(S'1.8'
p650
S'1.8'
p651
S'CD'
p652
S'I-NP'
p653
g5
tp654
a(S'and'
p655
S'and'
p656
S'CC'
p657
S'I-NP'
p658
g5
tp659
a(S'6.9'
p660
S'6.9'
p661
S'CD'
p662
S'I-NP'
p663
g5
tp664
a(S'+/-'
p665
S'+/-'
p666
S'CC'
p667
S'I-NP'
p668
g5
tp669
a(S'1.5'
p670
S'1.5'
p671
S'CD'
p672
S'I-NP'
p673
g5
tp674
a(S'hours'
p675
S'hour'
p676
S'NNS'
p677
S'I-NP'
p678
g5
tp679
a(g83
g83
g83
g5
g5
tp680
a(S'volume'
p681
S'volume'
p682
S'NN'
p683
S'B-NP'
p684
g5
tp685
a(S'of'
p686
S'of'
p687
S'IN'
p688
S'B-PP'
p689
g5
tp690
a(S'distribution'
p691
S'distribution'
p692
S'NN'
p693
S'B-NP'
p694
g5
tp695
a(S'was'
p696
S'be'
p697
S'VBD'
p698
S'B-VP'
p699
g5
tp700
a(S'411'
p701
S'411'
p702
S'CD'
p703
S'B-NP'
p704
g5
tp705
a(S'+/-'
p706
S'+/-'
p707
S'SYM'
p708
S'I-NP'
p709
g5
tp710
a(S'151.8'
p711
S'151.8'
p712
S'CD'
p713
S'I-NP'
p714
g5
tp715
a(S'and'
p716
S'and'
p717
S'CC'
p718
S'I-NP'
p719
g5
tp720
a(S'299'
p721
S'299'
p722
S'CD'
p723
S'I-NP'
p724
g5
tp725
a(S'+/-'
p726
S'+/-'
p727
S'SYM'
p728
S'I-NP'
p729
g5
tp730
a(S'70.8'
p731
S'70.8'
p732
S'CD'
p733
S'I-NP'
p734
g5
tp735
a(S'I'
p736
g736
S'PRP'
p737
S'B-NP'
p738
g5
tp739
a(g83
g83
g83
g5
g5
tp740
a(S'and'
p741
S'and'
p742
S'CC'
p743
g5
g5
tp744
a(S'systemic'
p745
S'systemic'
p746
S'JJ'
p747
S'B-NP'
p748
g5
tp749
a(S'clearance'
p750
S'clearance'
p751
S'NN'
p752
S'I-NP'
p753
g5
tp754
a(S'was'
p755
S'be'
p756
S'VBD'
p757
S'B-VP'
p758
g5
tp759
a(S'42'
p760
S'42'
p761
S'CD'
p762
S'B-NP'
p763
g5
tp764
a(S'+/-'
p765
S'+/-'
p766
S'SYM'
p767
S'I-NP'
p768
g5
tp769
a(S'12.4'
p770
S'12.4'
p771
S'CD'
p772
S'I-NP'
p773
g5
tp774
a(S'and'
p775
S'and'
p776
S'CC'
p777
S'I-NP'
p778
g5
tp779
a(S'31'
p780
S'31'
p781
S'CD'
p782
S'I-NP'
p783
g5
tp784
a(S'+/-'
p785
S'+/-'
p786
S'SYM'
p787
S'I-NP'
p788
g5
tp789
a(S'8.3'
p790
S'8.3'
p791
S'CD'
p792
S'I-NP'
p793
g5
tp794
a(S'l/hr'
p795
S'l/hr'
p796
S'NN'
p797
S'I-NP'
p798
g5
tp799
a(g83
g83
g83
g5
g5
tp800
a(S'respectively.'
p801
S'respectively.'
p802
S'NN'
p803
S'B-NP'
p804
g5
tp805
a(S'Percentages'
p806
S'Percentage'
p807
S'NNS'
p808
S'I-NP'
p809
g5
tp810
a(S'of'
p811
S'of'
p812
S'IN'
p813
S'B-PP'
p814
g5
tp815
a(S'the'
p816
S'the'
p817
S'DT'
p818
S'B-NP'
p819
g5
tp820
a(S'plasma'
p821
S'plasma'
p822
S'NN'
p823
S'I-NP'
p824
g5
tp825
a(S'concentrations'
p826
S'concentration'
p827
S'NNS'
p828
S'I-NP'
p829
g5
tp830
a(S'of'
p831
S'of'
p832
S'IN'
p833
S'B-PP'
p834
g5
tp835
a(S'the'
p836
S'the'
p837
S'DT'
p838
S'B-NP'
p839
g5
tp840
a(S'principal'
p841
S'principal'
p842
S'JJ'
p843
S'I-NP'
p844
g5
tp845
a(S'metabolites'
p846
S'metabolite'
p847
S'NNS'
p848
S'I-NP'
p849
g5
tp850
a(S'desacetyldiltiazem'
p851
S'desacetyldiltiazem'
p852
S'NN'
p853
S'I-NP'
p854
g5
tp855
a(S'and'
p856
S'and'
p857
S'CC'
p858
S'I-NP'
p859
g5
tp860
a(S'N-desmethyldiltiazem'
p861
S'N-desmethyldiltiazem'
p862
S'NN'
p863
S'I-NP'
p864
g5
tp865
a(S'to'
p866
S'to'
p867
S'TO'
p868
S'B-PP'
p869
g5
tp870
a(S'diltiazem'
p871
S'diltiazem'
p872
S'NN'
p873
S'B-NP'
p874
g5
tp875
a(S'were'
p876
S'be'
p877
S'VBD'
p878
S'B-VP'
p879
g5
tp880
a(S'<'
p881
g881
S'SYM'
p882
S'B-ADJP'
p883
g5
tp884
a(S'15'
p885
S'15'
p886
S'CD'
p887
S'B-NP'
p888
g5
tp889
a(S'%'
p890
g890
S'NN'
p891
S'I-NP'
p892
g5
tp893
a(S'and'
p894
S'and'
p895
S'CC'
p896
g5
g5
tp897
a(g881
g881
S'SYM'
p898
S'B-NP'
p899
g5
tp900
a(S'10'
p901
S'10'
p902
S'CD'
p903
S'B-NP'
p904
g5
tp905
a(g890
g890
S'NN'
p906
S'I-NP'
p907
g5
tp908
a(g83
g83
g83
g5
g5
tp909
a(S'respectively.'
p910
S'respectively.'
p911
S'NN'
p912
S'B-NP'
p913
g5
tp914
a(S'Thirty'
p915
S'Thirty'
p916
S'CD'
p917
S'I-NP'
p918
g5
tp919
a(S'of'
p920
S'of'
p921
S'IN'
p922
S'B-PP'
p923
g5
tp924
a(S'32'
p925
S'32'
p926
S'CD'
p927
S'B-NP'
p928
g5
tp929
a(S'patients'
p930
S'patient'
p931
S'NNS'
p932
S'I-NP'
p933
g5
tp934
a(S'maintained'
p935
S'maintain'
p936
S'VBD'
p937
S'B-VP'
p938
g5
tp939
a(S'response'
p940
S'response'
p941
S'NN'
p942
S'B-NP'
p943
g5
tp944
a(S'throughout'
p945
S'throughout'
p946
S'IN'
p947
S'B-PP'
p948
g5
tp949
a(S'the'
p950
S'the'
p951
S'DT'
p952
S'B-NP'
p953
g5
tp954
a(S'24-hour'
p955
S'24-hour'
p956
S'JJ'
p957
S'I-NP'
p958
g5
tp959
a(S'infusion'
p960
S'infusion'
p961
S'NN'
p962
S'I-NP'
p963
g5
tp964
a(S'of'
p965
S'of'
p966
S'IN'
p967
S'B-PP'
p968
g5
tp969
a(S'diltiazem.'
p970
S'diltiazem.'
p971
S'NN'
p972
S'B-NP'
p973
g5
tp974
a(S'Using'
p975
S'Use'
p976
S'VBG'
p977
S'B-VP'
p978
g5
tp979
a(g85
g85
S'DT'
p980
S'B-NP'
p981
g5
tp982
a(S'sigmoidal'
p983
S'sigmoidal'
p984
S'JJ'
p985
S'I-NP'
p986
g5
tp987
a(S'Emax'
p988
S'Emax'
p989
S'NN'
p990
S'I-NP'
p991
g5
tp992
a(S'pharmacodynamic'
p993
S'pharmacodynamic'
p994
S'JJ'
p995
S'I-NP'
p996
g5
tp997
a(S'model'
p998
S'model'
p999
S'NN'
p1000
S'I-NP'
p1001
g5
tp1002
a(g83
g83
g83
g5
g5
tp1003
a(g85
g85
S'DT'
p1004
S'B-NP'
p1005
g5
tp1006
a(S'strong'
p1007
S'strong'
p1008
S'JJ'
p1009
S'I-NP'
p1010
g5
tp1011
a(S'relation'
p1012
S'relation'
p1013
S'NN'
p1014
S'I-NP'
p1015
g5
tp1016
a(g365
g365
g365
g5
g5
tp1017
a(S'mean'
p1018
S'mean'
p1019
S'NN'
p1020
S'B-NP'
p1021
g5
tp1022
a(S'+/-'
p1023
S'+/-'
p1024
S'SYM'
p1025
S'I-NP'
p1026
g5
tp1027
a(S'SD'
p1028
S'SD'
p1029
S'NN'
p1030
S'I-NP'
p1031
g5
tp1032
a(S'r2'
p1033
S'r2'
p1034
S'NN'
p1035
S'I-NP'
p1036
g5
tp1037
a(g83
g83
g83
g5
g5
tp1038
a(S'0.78'
p1039
S'0.78'
p1040
S'CD'
p1041
S'B-NP'
p1042
g5
tp1043
a(S'+/-'
p1044
S'+/-'
p1045
S'CC'
p1046
S'I-NP'
p1047
g5
tp1048
a(S'0.2'
p1049
S'0.2'
p1050
S'CD'
p1051
S'I-NP'
p1052
g5
tp1053
a(g461
g461
g461
g5
g5
tp1054
a(S'was'
p1055
S'be'
p1056
S'VBD'
p1057
S'B-VP'
p1058
g5
tp1059
a(S'observed'
p1060
S'observe'
p1061
S'VBN'
p1062
S'I-VP'
p1063
g5
tp1064
a(S'between'
p1065
S'between'
p1066
S'IN'
p1067
S'B-PP'
p1068
g5
tp1069
a(S'plasma'
p1070
S'plasma'
p1071
S'NN'
p1072
S'B-NP'
p1073
g5
tp1074
a(S'diltiazem'
p1075
S'diltiazem'
p1076
S'NN'
p1077
S'I-NP'
p1078
g5
tp1079
a(S'concentration'
p1080
S'concentration'
p1081
S'NN'
p1082
S'I-NP'
p1083
g5
tp1084
a(S'and'
p1085
S'and'
p1086
S'CC'
p1087
S'I-NP'
p1088
g5
tp1089
a(S'percent'
p1090
S'percent'
p1091
S'NN'
p1092
S'I-NP'
p1093
g5
tp1094
a(S'heart'
p1095
S'heart'
p1096
S'NN'
p1097
S'I-NP'
p1098
g5
tp1099
a(S'rate'
p1100
S'rate'
p1101
S'NN'
p1102
S'I-NP'
p1103
g5
tp1104
a(S'reduction.'
p1105
S'reduction.'
p1106
S'NN'
p1107
S'I-NP'
p1108
g5
tp1109
a(S'Mean'
p1110
S'Mean'
p1111
S'NN'
p1112
S'I-NP'
p1113
g5
tp1114
a(S'+/-'
p1115
S'+/-'
p1116
S'SYM'
p1117
S'B-VP'
p1118
g5
tp1119
a(S'SD'
p1120
S'SD'
p1121
S'NN'
p1122
S'B-NP'
p1123
g5
tp1124
a(S'Emax'
p1125
S'Emax'
p1126
S'NN'
p1127
S'I-NP'
p1128
g5
tp1129
a(g365
g365
g365
g5
g5
tp1130
a(S'maximum'
p1131
S'maximum'
p1132
S'JJ'
p1133
S'B-NP'
p1134
g5
tp1135
a(S'percent'
p1136
S'percent'
p1137
S'NN'
p1138
S'I-NP'
p1139
g5
tp1140
a(S'reduction'
p1141
S'reduction'
p1142
S'NN'
p1143
S'I-NP'
p1144
g5
tp1145
a(S'in'
p1146
S'in'
p1147
S'IN'
p1148
S'B-PP'
p1149
g5
tp1150
a(S'heart'
p1151
S'heart'
p1152
S'NN'
p1153
S'B-NP'
p1154
g5
tp1155
a(S'rate'
p1156
S'rate'
p1157
S'NN'
p1158
S'I-NP'
p1159
g5
tp1160
a(S'from'
p1161
S'from'
p1162
S'IN'
p1163
S'B-PP'
p1164
g5
tp1165
a(S'baseline'
p1166
S'baseline'
p1167
S'NN'
p1168
S'B-NP'
p1169
g5
tp1170
a(g461
g461
g461
g5
g5
tp1171
a(S'and'
p1172
S'and'
p1173
S'CC'
p1174
g5
g5
tp1175
a(S'EC50'
p1176
S'EC50'
p1177
S'NN'
p1178
S'B-NP'
p1179
S'B-protein'
p1180
tp1181
a(g365
g365
g365
g5
g5
tp1182
a(S'plasma'
p1183
S'plasma'
p1184
S'NN'
p1185
S'B-NP'
p1186
g5
tp1187
a(S'diltiazem'
p1188
S'diltiazem'
p1189
S'NN'
p1190
S'I-NP'
p1191
g5
tp1192
a(S'concentration'
p1193
S'concentration'
p1194
S'NN'
p1195
S'I-NP'
p1196
g5
tp1197
a(S'that'
p1198
S'that'
p1199
S'WDT'
p1200
S'B-NP'
p1201
g5
tp1202
a(S'achieves'
p1203
S'achieve'
p1204
S'VBZ'
p1205
S'B-VP'
p1206
g5
tp1207
a(S'half'
p1208
S'half'
p1209
S'JJ'
p1210
S'B-NP'
p1211
g5
tp1212
a(S'Emax'
p1213
S'Emax'
p1214
S'NN'
p1215
S'I-NP'
p1216
g5
tp1217
a(g461
g461
g461
g5
g5
tp1218
a(S'were'
p1219
S'be'
p1220
S'VBD'
p1221
S'B-VP'
p1222
g5
tp1223
a(S'52'
p1224
S'52'
p1225
S'CD'
p1226
S'B-NP'
p1227
g5
tp1228
a(S'+/-'
p1229
S'+/-'
p1230
S'SYM'
p1231
S'I-NP'
p1232
g5
tp1233
a(S'17'
p1234
S'17'
p1235
S'CD'
p1236
S'I-NP'
p1237
g5
tp1238
a(g890
g890
S'NN'
p1239
S'I-NP'
p1240
g5
tp1241
a(S'and'
p1242
S'and'
p1243
S'CC'
p1244
S'I-NP'
p1245
g5
tp1246
a(S'110'
p1247
S'110'
p1248
S'CD'
p1249
S'I-NP'
p1250
g5
tp1251
a(S'+/-'
p1252
S'+/-'
p1253
S'SYM'
p1254
S'I-NP'
p1255
g5
tp1256
a(S'84'
p1257
S'84'
p1258
S'CD'
p1259
S'I-NP'
p1260
g5
tp1261
a(S'ng/ml'
p1262
S'ng/ml'
p1263
S'NN'
p1264
S'I-NP'
p1265
g5
tp1266
a(g83
g83
g83
g5
g5
tp1267
a(S'respectively.'
p1268
S'respectively.'
p1269
S'VB'
p1270
S'B-VP'
p1271
g5
tp1272
a(S'The'
p1273
S'The'
p1274
S'DT'
p1275
S'B-NP'
p1276
g5
tp1277
a(S'model'
p1278
S'model'
p1279
S'NN'
p1280
S'I-NP'
p1281
g5
tp1282
a(S'predicts'
p1283
S'predict'
p1284
S'VBZ'
p1285
S'B-VP'
p1286
g5
tp1287
a(S'that'
p1288
S'that'
p1289
S'IN'
p1290
S'B-SBAR'
p1291
g5
tp1292
a(S'mean'
p1293
S'mean'
p1294
S'JJ'
p1295
S'B-NP'
p1296
g5
tp1297
a(S'plasma'
p1298
S'plasma'
p1299
S'NN'
p1300
S'I-NP'
p1301
g5
tp1302
a(S'diltiazem'
p1303
S'diltiazem'
p1304
S'NN'
p1305
S'I-NP'
p1306
g5
tp1307
a(S'concentration'
p1308
S'concentration'
p1309
S'NN'
p1310
S'I-NP'
p1311
g5
tp1312
a(S'of'
p1313
S'of'
p1314
S'IN'
p1315
S'B-PP'
p1316
g5
tp1317
a(S'79'
p1318
S'79'
p1319
S'CD'
p1320
S'B-NP'
p1321
g5
tp1322
a(g83
g83
g83
S'I-NP'
p1323
g5
tp1324
a(S'172'
p1325
S'172'
p1326
S'CD'
p1327
S'I-NP'
p1328
g5
tp1329
a(g83
g83
g83
g5
g5
tp1330
a(S'and'
p1331
S'and'
p1332
S'CC'
p1333
g5
g5
tp1334
a(S'294'
p1335
S'294'
p1336
S'CD'
p1337
S'B-NP'
p1338
g5
tp1339
a(S'ng/ml'
p1340
S'ng/ml'
p1341
S'NN'
p1342
S'I-NP'
p1343
g5
tp1344
a(S'are'
p1345
S'be'
p1346
S'VBP'
p1347
S'B-VP'
p1348
g5
tp1349
a(S'required'
p1350
S'require'
p1351
S'VBN'
p1352
S'I-VP'
p1353
g5
tp1354
a(S'to'
p1355
S'to'
p1356
S'TO'
p1357
S'I-VP'
p1358
g5
tp1359
a(S'produce'
p1360
S'produce'
p1361
S'VB'
p1362
S'I-VP'
p1363
g5
tp1364
a(g85
g85
S'DT'
p1365
S'B-NP'
p1366
g5
tp1367
a(S'20'
p1368
S'20'
p1369
S'CD'
p1370
S'I-NP'
p1371
g5
tp1372
a(g890
g890
S'NN'
p1373
S'I-NP'
p1374
g5
tp1375
a(g83
g83
g83
g5
g5
tp1376
a(S'30'
p1377
S'30'
p1378
S'CD'
p1379
S'B-NP'
p1380
g5
tp1381
a(g890
g890
S'NN'
p1382
S'I-NP'
p1383
g5
tp1384
a(g83
g83
g83
g5
g5
tp1385
a(S'and'
p1386
S'and'
p1387
S'CC'
p1388
g5
g5
tp1389
a(S'40'
p1390
S'40'
p1391
S'CD'
p1392
S'B-NP'
p1393
g5
tp1394
a(g890
g890
S'NN'
p1395
S'I-NP'
p1396
g5
tp1397
a(S'reduction'
p1398
S'reduction'
p1399
S'NN'
p1400
S'I-NP'
p1401
g5
tp1402
a(S'in'
p1403
S'in'
p1404
S'IN'
p1405
S'B-PP'
p1406
g5
tp1407
a(S'heart'
p1408
S'heart'
p1409
S'NN'
p1410
S'B-NP'
p1411
g5
tp1412
a(S'rate'
p1413
S'rate'
p1414
S'NN'
p1415
S'I-NP'
p1416
g5
tp1417
a(g83
g83
g83
g5
g5
tp1418
a(S'respectively.'
p1419
S'respectively.'
p1420
S'NN'
p1421
S'B-NP'
p1422
g5
tp1423
a(S'A'
p1424
g1424
S'NN'
p1425
S'I-NP'
p1426
g5
tp1427
a(S'relation'
p1428
S'relation'
p1429
S'NN'
p1430
S'I-NP'
p1431
g5
tp1432
a(S'between'
p1433
S'between'
p1434
S'IN'
p1435
S'B-PP'
p1436
g5
tp1437
a(S'plasma'
p1438
S'plasma'
p1439
S'NN'
p1440
S'B-NP'
p1441
g5
tp1442
a(S'diltiazem'
p1443
S'diltiazem'
p1444
S'NN'
p1445
S'I-NP'
p1446
g5
tp1447
a(S'concentration'
p1448
S'concentration'
p1449
S'NN'
p1450
S'I-NP'
p1451
g5
tp1452
a(S'and'
p1453
S'and'
p1454
S'CC'
p1455
S'I-NP'
p1456
g5
tp1457
a(S'percent'
p1458
S'percent'
p1459
S'NN'
p1460
S'I-NP'
p1461
g5
tp1462
a(S'change'
p1463
S'change'
p1464
S'NN'
p1465
S'I-NP'
p1466
g5
tp1467
a(S'in'
p1468
S'in'
p1469
S'IN'
p1470
S'B-PP'
p1471
g5
tp1472
a(S'systolic'
p1473
S'systolic'
p1474
S'JJ'
p1475
S'B-NP'
p1476
g5
tp1477
a(S'blood'
p1478
S'blood'
p1479
S'NN'
p1480
S'I-NP'
p1481
g5
tp1482
a(S'pressure'
p1483
S'pressure'
p1484
S'NN'
p1485
S'I-NP'
p1486
g5
tp1487
a(g365
g365
g365
g5
g5
tp1488
a(S'SBP'
p1489
S'SBP'
p1490
S'NN'
p1491
S'B-NP'
p1492
S'B-protein'
p1493
tp1494
a(g461
g461
g461
g5
g5
tp1495
a(S'or'
p1496
S'or'
p1497
S'CC'
p1498
g5
g5
tp1499
a(S'diastolic'
p1500
S'diastolic'
p1501
S'JJ'
p1502
S'B-NP'
p1503
g5
tp1504
a(S'blood'
p1505
S'blood'
p1506
S'NN'
p1507
S'I-NP'
p1508
g5
tp1509
a(S'pressure'
p1510
S'pressure'
p1511
S'NN'
p1512
S'I-NP'
p1513
g5
tp1514
a(g365
g365
g365
g5
g5
tp1515
a(S'DBP'
p1516
S'DBP'
p1517
S'NN'
p1518
S'B-NP'
p1519
S'B-protein'
p1520
tp1521
a(g461
g461
g461
g5
g5
tp1522
a(S'from'
p1523
S'from'
p1524
S'IN'
p1525
S'B-PP'
p1526
g5
tp1527
a(S'baseline'
p1528
S'baseline'
p1529
S'NN'
p1530
S'B-NP'
p1531
g5
tp1532
a(S'was'
p1533
S'be'
p1534
S'VBD'
p1535
S'B-VP'
p1536
g5
tp1537
a(S'not'
p1538
S'not'
p1539
S'RB'
p1540
S'I-VP'
p1541
g5
tp1542
a(S'observed'
p1543
S'observe'
p1544
S'VBN'
p1545
S'I-VP'
p1546
g5
tp1547
a(g365
g365
g365
g5
g5
tp1548
a(S'mean'
p1549
S'mean'
p1550
S'NN'
p1551
S'B-NP'
p1552
g5
tp1553
a(S'+/-'
p1554
S'+/-'
p1555
S'SYM'
p1556
S'I-NP'
p1557
g5
tp1558
a(S'SD'
p1559
S'SD'
p1560
S'NN'
p1561
S'I-NP'
p1562
g5
tp1563
a(S'r2'
p1564
S'r2'
p1565
S'NN'
p1566
S'I-NP'
p1567
g5
tp1568
a(g83
g83
g83
g5
g5
tp1569
a(S'SBP/DBP'
p1570
S'SBP/DBP'
p1571
S'NN'
p1572
S'B-NP'
p1573
g5
tp1574
a(g408
g408
g408
g5
g5
tp1575
a(S'0.35'
p1576
S'0.35'
p1577
S'CD'
p1578
S'B-NP'
p1579
g5
tp1580
a(S'+/-'
p1581
S'+/-'
p1582
S'CC'
p1583
S'I-NP'
p1584
g5
tp1585
a(S'0.24/0.36'
p1586
S'0.24/0.36'
p1587
S'CD'
p1588
S'I-NP'
p1589
g5
tp1590
a(S'+/-'
p1591
S'+/-'
p1592
S'CC'
p1593
S'I-NP'
p1594
g5
tp1595
a(S'0.2'
p1596
S'0.2'
p1597
S'CD'
p1598
S'I-NP'
p1599
g5
tp1600
a(g461
g461
g461
g5
g5
tp1601
a(g71
g71
g71
g5
g5
tp1602
a(S'There'
p1603
S'There'
p1604
S'EX'
p1605
S'B-NP'
p1606
g5
tp1607
a(S'were'
p1608
S'be'
p1609
S'VBD'
p1610
S'B-VP'
p1611
g5
tp1612
a(S'no'
p1613
S'no'
p1614
S'DT'
p1615
S'B-NP'
p1616
g5
tp1617
a(S'untoward'
p1618
S'untoward'
p1619
S'JJ'
p1620
S'I-NP'
p1621
g5
tp1622
a(S'side'
p1623
S'side'
p1624
S'NN'
p1625
S'I-NP'
p1626
g5
tp1627
a(S'effects'
p1628
S'effect'
p1629
S'NNS'
p1630
S'I-NP'
p1631
g5
tp1632
a(S'observed'
p1633
S'observe'
p1634
S'VBN'
p1635
S'B-VP'
p1636
g5
tp1637
a(g71
g71
g71
g5
g5
tp1638
a(S'CONCLUSIONS'
p1639
S'CONCLUSIONS'
p1640
S'NNS'
p1641
S'B-NP'
p1642
g5
tp1643
a(S'First'
p1644
S'First'
p1645
S'JJ'
p1646
S'B-ADVP'
p1647
g5
tp1648
a(g83
g83
g83
g5
g5
tp1649
a(S'the'
p1650
S'the'
p1651
S'DT'
p1652
S'B-NP'
p1653
g5
tp1654
a(S'pharmacokinetics'
p1655
S'pharmacokinetic'
p1656
S'NNS'
p1657
S'I-NP'
p1658
g5
tp1659
a(S'of'
p1660
S'of'
p1661
S'IN'
p1662
S'B-PP'
p1663
g5
tp1664
a(S'diltiazem'
p1665
S'diltiazem'
p1666
S'NN'
p1667
S'B-NP'
p1668
g5
tp1669
a(S'in'
p1670
S'in'
p1671
S'IN'
p1672
S'B-PP'
p1673
g5
tp1674
a(S'patients'
p1675
S'patient'
p1676
S'NNS'
p1677
S'B-NP'
p1678
g5
tp1679
a(S'with'
p1680
S'with'
p1681
S'IN'
p1682
S'B-PP'
p1683
g5
tp1684
a(S'atrial'
p1685
S'atrial'
p1686
S'JJ'
p1687
S'B-NP'
p1688
g5
tp1689
a(S'fibrillation'
p1690
S'fibrillation'
p1691
S'NN'
p1692
S'I-NP'
p1693
g5
tp1694
a(S'or'
p1695
S'or'
p1696
S'CC'
p1697
g5
g5
tp1698
a(S'atrial'
p1699
S'atrial'
p1700
S'JJ'
p1701
S'B-NP'
p1702
g5
tp1703
a(S'flutter'
p1704
S'flutter'
p1705
S'NN'
p1706
S'I-NP'
p1707
g5
tp1708
a(S'is'
p1709
S'be'
p1710
S'VBZ'
p1711
S'B-VP'
p1712
g5
tp1713
a(S'nonlinear'
p1714
S'nonlinear'
p1715
S'JJ'
p1716
S'B-ADJP'
p1717
g5
tp1718
a(S'with'
p1719
S'with'
p1720
S'IN'
p1721
S'B-PP'
p1722
g5
tp1723
a(S'an'
p1724
S'an'
p1725
S'DT'
p1726
S'B-NP'
p1727
g5
tp1728
a(S'apparent'
p1729
S'apparent'
p1730
S'JJ'
p1731
S'I-NP'
p1732
g5
tp1733
a(S'dose-dependent'
p1734
S'dose-dependent'
p1735
S'JJ'
p1736
S'I-NP'
p1737
g5
tp1738
a(S'decrease'
p1739
S'decrease'
p1740
S'NN'
p1741
S'I-NP'
p1742
g5
tp1743
a(S'in'
p1744
S'in'
p1745
S'IN'
p1746
S'B-PP'
p1747
g5
tp1748
a(S'systemic'
p1749
S'systemic'
p1750
S'JJ'
p1751
S'B-NP'
p1752
g5
tp1753
a(S'clearance'
p1754
S'clearance'
p1755
S'NN'
p1756
S'I-NP'
p1757
g5
tp1758
a(S'with'
p1759
S'with'
p1760
S'IN'
p1761
S'B-PP'
p1762
g5
tp1763
a(S'increasing'
p1764
S'increase'
p1765
S'VBG'
p1766
S'B-NP'
p1767
g5
tp1768
a(S'infusion'
p1769
S'infusion'
p1770
S'NN'
p1771
S'I-NP'
p1772
g5
tp1773
a(S'rate.'
p1774
S'rate.'
p1775
S'NN'
p1776
S'I-NP'
p1777
g5
tp1778
a(S'Second'
p1779
S'Second'
p1780
S'NN'
p1781
S'I-NP'
p1782
g5
tp1783
a(g83
g83
g83
g5
g5
tp1784
a(S'using'
p1785
S'use'
p1786
S'VBG'
p1787
S'B-VP'
p1788
g5
tp1789
a(g85
g85
S'DT'
p1790
S'B-NP'
p1791
g5
tp1792
a(S'sigmoidal'
p1793
S'sigmoidal'
p1794
S'JJ'
p1795
S'I-NP'
p1796
g5
tp1797
a(S'Emax'
p1798
S'Emax'
p1799
S'NN'
p1800
S'I-NP'
p1801
g5
tp1802
a(S'model'
p1803
S'model'
p1804
S'NN'
p1805
S'I-NP'
p1806
g5
tp1807
a(g83
g83
g83
g5
g5
tp1808
a(S'there'
p1809
S'there'
p1810
S'EX'
p1811
S'B-NP'
p1812
g5
tp1813
a(S'is'
p1814
S'be'
p1815
S'VBZ'
p1816
S'B-VP'
p1817
g5
tp1818
a(g85
g85
S'DT'
p1819
S'B-NP'
p1820
g5
tp1821
a(S'strong'
p1822
S'strong'
p1823
S'JJ'
p1824
S'I-NP'
p1825
g5
tp1826
a(S'relation'
p1827
S'relation'
p1828
S'NN'
p1829
S'I-NP'
p1830
g5
tp1831
a(S'between'
p1832
S'between'
p1833
S'IN'
p1834
S'B-PP'
p1835
g5
tp1836
a(S'plasma'
p1837
S'plasma'
p1838
S'NN'
p1839
S'B-NP'
p1840
g5
tp1841
a(S'diltiazem'
p1842
S'diltiazem'
p1843
S'NN'
p1844
S'I-NP'
p1845
g5
tp1846
a(S'concentration'
p1847
S'concentration'
p1848
S'NN'
p1849
S'I-NP'
p1850
g5
tp1851
a(S'and'
p1852
S'and'
p1853
S'CC'
p1854
S'I-NP'
p1855
g5
tp1856
a(S'percent'
p1857
S'percent'
p1858
S'NN'
p1859
S'I-NP'
p1860
g5
tp1861
a(S'heart'
p1862
S'heart'
p1863
S'NN'
p1864
S'I-NP'
p1865
g5
tp1866
a(S'rate'
p1867
S'rate'
p1868
S'NN'
p1869
S'I-NP'
p1870
g5
tp1871
a(S'reduction.'
p1872
S'reduction.'
p1873
S'NN'
p1874
S'I-NP'
p1875
g5
tp1876
a(S'Third'
p1877
S'Third'
p1878
S'NNP'
p1879
S'I-NP'
p1880
g5
tp1881
a(g83
g83
g83
g5
g5
tp1882
a(S'the'
p1883
S'the'
p1884
S'DT'
p1885
S'B-NP'
p1886
g5
tp1887
a(S'plasma'
p1888
S'plasma'
p1889
S'NN'
p1890
S'I-NP'
p1891
g5
tp1892
a(S'concentrations'
p1893
S'concentration'
p1894
S'NNS'
p1895
S'I-NP'
p1896
g5
tp1897
a(S'of'
p1898
S'of'
p1899
S'IN'
p1900
S'B-PP'
p1901
g5
tp1902
a(S'the'
p1903
S'the'
p1904
S'DT'
p1905
S'B-NP'
p1906
g5
tp1907
a(S'principal'
p1908
S'principal'
p1909
S'JJ'
p1910
S'I-NP'
p1911
g5
tp1912
a(S'metabolites'
p1913
S'metabolite'
p1914
S'NNS'
p1915
S'I-NP'
p1916
g5
tp1917
a(S'desacetyldiltiazem'
p1918
S'desacetyldiltiazem'
p1919
S'NN'
p1920
S'I-NP'
p1921
g5
tp1922
a(S'and'
p1923
S'and'
p1924
S'CC'
p1925
S'I-NP'
p1926
g5
tp1927
a(S'N-desmethyldiltiazem'
p1928
S'N-desmethyldiltiazem'
p1929
S'NN'
p1930
S'I-NP'
p1931
g5
tp1932
a(S'are'
p1933
S'be'
p1934
S'VBP'
p1935
S'B-VP'
p1936
g5
tp1937
a(S'low'
p1938
S'low'
p1939
S'JJ'
p1940
S'B-ADJP'
p1941
g5
tp1942
a(S'and'
p1943
S'and'
p1944
S'CC'
p1945
g5
g5
tp1946
a(S'are'
p1947
S'be'
p1948
S'VBP'
p1949
S'B-VP'
p1950
g5
tp1951
a(S'not'
p1952
S'not'
p1953
S'RB'
p1954
S'I-VP'
p1955
g5
tp1956
a(S'expected'
p1957
S'expect'
p1958
S'VBN'
p1959
S'I-VP'
p1960
g5
tp1961
a(S'to'
p1962
S'to'
p1963
S'TO'
p1964
S'I-VP'
p1965
g5
tp1966
a(S'contribute'
p1967
S'contribute'
p1968
S'VB'
p1969
S'I-VP'
p1970
g5
tp1971
a(S'significantly'
p1972
S'significantly'
p1973
S'RB'
p1974
S'B-ADVP'
p1975
g5
tp1976
a(S'to'
p1977
S'to'
p1978
S'TO'
p1979
S'B-PP'
p1980
g5
tp1981
a(S'the'
p1982
S'the'
p1983
S'DT'
p1984
S'B-NP'
p1985
g5
tp1986
a(S'pharmacodynamics'
p1987
S'pharmacodynamic'
p1988
S'NNS'
p1989
S'I-NP'
p1990
g5
tp1991
a(S'of'
p1992
S'of'
p1993
S'IN'
p1994
S'B-PP'
p1995
g5
tp1996
a(S'intravenous'
p1997
S'intravenous'
p1998
S'JJ'
p1999
S'B-NP'
p2000
g5
tp2001
a(S'diltiazem'
p2002
S'diltiazem'
p2003
S'NN'
p2004
S'I-NP'
p2005
g5
tp2006
a(S'in'
p2007
S'in'
p2008
S'IN'
p2009
S'B-PP'
p2010
g5
tp2011
a(S'these'
p2012
S'these'
p2013
S'DT'
p2014
S'B-NP'
p2015
g5
tp2016
a(S'patients'
p2017
S'patient'
p2018
S'NNS'
p2019
S'I-NP'
p2020
g5
tp2021
a(g71
g71
g71
g5
g5
tp2022
a.