(lp0
(S'Triple'
p1
S'Triple'
p2
S'JJ'
p3
S'B-NP'
p4
S'O'
p5
tp6
a(S'antiretroviral'
p7
S'antiretroviral'
p8
S'JJ'
p9
S'I-NP'
p10
g5
tp11
a(S'compared'
p12
S'compare'
p13
S'VBN'
p14
S'B-PP'
p15
g5
tp16
a(S'with'
p17
S'with'
p18
S'IN'
p19
S'B-PP'
p20
g5
tp21
a(S'zidovudine'
p22
S'zidovudine'
p23
S'NN'
p24
S'B-NP'
p25
g5
tp26
a(S'and'
p27
S'and'
p28
S'CC'
p29
g5
g5
tp30
a(S'single-dose'
p31
S'single-dose'
p32
S'JJ'
p33
S'B-NP'
p34
g5
tp35
a(S'nevirapine'
p36
S'nevirapine'
p37
S'NN'
p38
S'I-NP'
p39
g5
tp40
a(S'prophylaxis'
p41
S'prophylaxis'
p42
S'NN'
p43
S'I-NP'
p44
g5
tp45
a(S'during'
p46
S'during'
p47
S'IN'
p48
S'B-PP'
p49
g5
tp50
a(S'pregnancy'
p51
S'pregnancy'
p52
S'NN'
p53
S'B-NP'
p54
g5
tp55
a(S'and'
p56
S'and'
p57
S'CC'
p58
S'I-NP'
p59
g5
tp60
a(S'breastfeeding'
p61
S'breastfeeding'
p62
S'NN'
p63
S'I-NP'
p64
g5
tp65
a(S'for'
p66
S'for'
p67
S'IN'
p68
S'B-PP'
p69
g5
tp70
a(S'prevention'
p71
S'prevention'
p72
S'NN'
p73
S'B-NP'
p74
g5
tp75
a(S'of'
p76
S'of'
p77
S'IN'
p78
S'B-PP'
p79
g5
tp80
a(S'mother-to-child'
p81
S'mother-to-child'
p82
S'NN'
p83
S'B-NP'
p84
g5
tp85
a(S'transmission'
p86
S'transmission'
p87
S'NN'
p88
S'I-NP'
p89
g5
tp90
a(S'of'
p91
S'of'
p92
S'IN'
p93
S'B-PP'
p94
g5
tp95
a(S'HIV-1'
p96
S'HIV-1'
p97
S'NN'
p98
S'B-NP'
p99
g5
tp100
a(S'('
p101
g101
g101
g5
g5
tp102
a(S'Kesho'
p103
S'Kesho'
p104
S'NNP'
p105
S'B-NP'
p106
g5
tp107
a(S'Bora'
p108
S'Bora'
p109
S'NNP'
p110
S'I-NP'
p111
g5
tp112
a(S'study'
p113
S'study'
p114
S'NN'
p115
S'I-NP'
p116
g5
tp117
a(S')'
p118
g118
g118
g5
g5
tp119
a(S':'
p120
g120
g120
g5
g5
tp121
a(S'a'
p122
g122
S'DT'
p123
S'B-NP'
p124
g5
tp125
a(S'randomised'
p126
S'randomise'
p127
S'VBN'
p128
S'I-NP'
p129
g5
tp130
a(S'controlled'
p131
S'control'
p132
S'VBN'
p133
S'I-NP'
p134
g5
tp135
a(S'trial'
p136
S'trial'
p137
S'NN'
p138
S'I-NP'
p139
g5
tp140
a(S'.'
p141
g141
g141
g5
g5
tp142
a(S'BACKGROUND'
p143
S'BACKGROUND'
p144
S'NN'
p145
S'B-NP'
p146
g5
tp147
a(S'Breastfeeding'
p148
S'Breastfeeding'
p149
S'NNP'
p150
S'I-NP'
p151
g5
tp152
a(S'is'
p153
S'be'
p154
S'VBZ'
p155
S'B-VP'
p156
g5
tp157
a(S'essential'
p158
S'essential'
p159
S'JJ'
p160
S'B-ADJP'
p161
g5
tp162
a(S'for'
p163
S'for'
p164
S'IN'
p165
S'B-PP'
p166
g5
tp167
a(S'child'
p168
S'child'
p169
S'NN'
p170
S'B-NP'
p171
g5
tp172
a(S'health'
p173
S'health'
p174
S'NN'
p175
S'I-NP'
p176
g5
tp177
a(S'and'
p178
S'and'
p179
S'CC'
p180
S'I-NP'
p181
g5
tp182
a(S'development'
p183
S'development'
p184
S'NN'
p185
S'I-NP'
p186
g5
tp187
a(S'in'
p188
S'in'
p189
S'IN'
p190
S'B-PP'
p191
g5
tp192
a(S'low-resource'
p193
S'low-resource'
p194
S'JJ'
p195
S'B-NP'
p196
g5
tp197
a(S'settings'
p198
S'setting'
p199
S'NNS'
p200
S'I-NP'
p201
g5
tp202
a(S'but'
p203
S'but'
p204
S'CC'
p205
g5
g5
tp206
a(S'carries'
p207
S'carry'
p208
S'VBZ'
p209
S'B-VP'
p210
g5
tp211
a(g122
g122
S'DT'
p212
S'B-NP'
p213
g5
tp214
a(S'significant'
p215
S'significant'
p216
S'JJ'
p217
S'I-NP'
p218
g5
tp219
a(S'risk'
p220
S'risk'
p221
S'NN'
p222
S'I-NP'
p223
g5
tp224
a(S'of'
p225
S'of'
p226
S'IN'
p227
S'B-PP'
p228
g5
tp229
a(S'transmission'
p230
S'transmission'
p231
S'NN'
p232
S'B-NP'
p233
g5
tp234
a(S'of'
p235
S'of'
p236
S'IN'
p237
S'B-PP'
p238
g5
tp239
a(S'HIV-1'
p240
S'HIV-1'
p241
S'NN'
p242
S'B-NP'
p243
g5
tp244
a(S','
p245
g245
g245
g5
g5
tp246
a(S'especially'
p247
S'especially'
p248
S'RB'
p249
S'B-ADVP'
p250
g5
tp251
a(S'in'
p252
S'in'
p253
S'IN'
p254
S'B-PP'
p255
g5
tp256
a(S'late'
p257
S'late'
p258
S'JJ'
p259
S'B-NP'
p260
g5
tp261
a(S'stages'
p262
S'stage'
p263
S'NNS'
p264
S'I-NP'
p265
g5
tp266
a(S'of'
p267
S'of'
p268
S'IN'
p269
S'B-PP'
p270
g5
tp271
a(S'maternal'
p272
S'maternal'
p273
S'JJ'
p274
S'B-NP'
p275
g5
tp276
a(S'disease.'
p277
S'disease.'
p278
S'NN'
p279
S'I-NP'
p280
g5
tp281
a(S'We'
p282
S'We'
p283
S'PRP'
p284
S'B-NP'
p285
g5
tp286
a(S'aimed'
p287
S'aim'
p288
S'VBD'
p289
S'B-VP'
p290
g5
tp291
a(S'to'
p292
S'to'
p293
S'TO'
p294
S'I-VP'
p295
g5
tp296
a(S'assess'
p297
S'assess'
p298
S'VB'
p299
S'I-VP'
p300
g5
tp301
a(S'the'
p302
S'the'
p303
S'DT'
p304
S'B-NP'
p305
g5
tp306
a(S'efficacy'
p307
S'efficacy'
p308
S'NN'
p309
S'I-NP'
p310
g5
tp311
a(S'and'
p312
S'and'
p313
S'CC'
p314
S'I-NP'
p315
g5
tp316
a(S'safety'
p317
S'safety'
p318
S'NN'
p319
S'I-NP'
p320
g5
tp321
a(S'of'
p322
S'of'
p323
S'IN'
p324
S'B-PP'
p325
g5
tp326
a(S'triple'
p327
S'triple'
p328
S'JJ'
p329
S'B-NP'
p330
g5
tp331
a(S'antiretroviral'
p332
S'antiretroviral'
p333
S'JJ'
p334
S'I-NP'
p335
g5
tp336
a(S'compared'
p337
S'compare'
p338
S'VBN'
p339
S'B-PP'
p340
g5
tp341
a(S'with'
p342
S'with'
p343
S'IN'
p344
S'B-PP'
p345
g5
tp346
a(S'zidovudine'
p347
S'zidovudine'
p348
S'NN'
p349
S'B-NP'
p350
g5
tp351
a(S'and'
p352
S'and'
p353
S'CC'
p354
g5
g5
tp355
a(S'single-dose'
p356
S'single-dose'
p357
S'JJ'
p358
S'B-NP'
p359
g5
tp360
a(S'nevirapine'
p361
S'nevirapine'
p362
S'NN'
p363
S'I-NP'
p364
g5
tp365
a(S'prophylaxis'
p366
S'prophylaxis'
p367
S'NN'
p368
S'I-NP'
p369
g5
tp370
a(S'in'
p371
S'in'
p372
S'IN'
p373
S'B-PP'
p374
g5
tp375
a(S'pregnant'
p376
S'pregnant'
p377
S'JJ'
p378
S'B-NP'
p379
g5
tp380
a(S'women'
p381
S'woman'
p382
S'NNS'
p383
S'I-NP'
p384
g5
tp385
a(S'infected'
p386
S'infect'
p387
S'VBN'
p388
S'B-VP'
p389
g5
tp390
a(S'with'
p391
S'with'
p392
S'IN'
p393
S'B-PP'
p394
g5
tp395
a(S'HIV'
p396
S'HIV'
p397
S'NN'
p398
S'B-NP'
p399
g5
tp400
a(g141
g141
g141
g5
g5
tp401
a(S'METHODS'
p402
S'METHODS'
p403
S'NNS'
p404
S'B-NP'
p405
g5
tp406
a(S'Pregnant'
p407
S'Pregnant'
p408
S'JJ'
p409
S'B-NP'
p410
g5
tp411
a(S'women'
p412
S'woman'
p413
S'NNS'
p414
S'I-NP'
p415
g5
tp416
a(S'with'
p417
S'with'
p418
S'IN'
p419
S'B-PP'
p420
g5
tp421
a(S'WHO'
p422
S'WHO'
p423
S'NN'
p424
S'B-NP'
p425
g5
tp426
a(S'stage'
p427
S'stage'
p428
S'NN'
p429
S'I-NP'
p430
g5
tp431
a(S'1'
p432
g432
S'CD'
p433
S'I-NP'
p434
g5
tp435
a(g245
g245
g245
S'I-NP'
p436
g5
tp437
a(S'2'
p438
g438
S'CD'
p439
S'I-NP'
p440
g5
tp441
a(g245
g245
g245
g5
g5
tp442
a(S'or'
p443
S'or'
p444
S'CC'
p445
g5
g5
tp446
a(S'3'
p447
g447
S'CD'
p448
S'B-NP'
p449
g5
tp450
a(S'HIV-1'
p451
S'HIV-1'
p452
S'NN'
p453
S'I-NP'
p454
g5
tp455
a(S'infection'
p456
S'infection'
p457
S'NN'
p458
S'I-NP'
p459
g5
tp460
a(S'who'
p461
S'who'
p462
S'WP'
p463
S'B-NP'
p464
g5
tp465
a(S'had'
p466
S'have'
p467
S'VBD'
p468
S'B-VP'
p469
g5
tp470
a(S'CD4'
p471
S'CD4'
p472
S'NN'
p473
S'B-NP'
p474
S'B-protein'
p475
tp476
a(S'cell'
p477
S'cell'
p478
S'NN'
p479
S'I-NP'
p480
g5
tp481
a(S'counts'
p482
S'count'
p483
S'NNS'
p484
S'I-NP'
p485
g5
tp486
a(S'of'
p487
S'of'
p488
S'IN'
p489
S'B-PP'
p490
g5
tp491
a(S'200-500'
p492
S'200-500'
p493
S'CD'
p494
S'B-NP'
p495
g5
tp496
a(S'cells'
p497
S'cell'
p498
S'NNS'
p499
S'I-NP'
p500
g5
tp501
a(S'per'
p502
S'per'
p503
S'IN'
p504
S'B-PP'
p505
g5
tp506
a(S'\xce\xbcL'
p507
S'\xce\xbcL'
p508
S'NN'
p509
S'B-NP'
p510
g5
tp511
a(S'were'
p512
S'be'
p513
S'VBD'
p514
S'B-VP'
p515
g5
tp516
a(S'enrolled'
p517
S'enrol'
p518
S'VBN'
p519
S'I-VP'
p520
g5
tp521
a(S'at'
p522
S'at'
p523
S'IN'
p524
S'B-PP'
p525
g5
tp526
a(S'five'
p527
S'five'
p528
S'CD'
p529
S'B-NP'
p530
g5
tp531
a(S'study'
p532
S'study'
p533
S'NN'
p534
S'I-NP'
p535
g5
tp536
a(S'sites'
p537
S'site'
p538
S'NNS'
p539
S'I-NP'
p540
g5
tp541
a(S'in'
p542
S'in'
p543
S'IN'
p544
S'B-PP'
p545
g5
tp546
a(S'Burkina'
p547
S'Burkina'
p548
S'NNP'
p549
S'B-NP'
p550
g5
tp551
a(S'Faso'
p552
S'Faso'
p553
S'NNP'
p554
S'I-NP'
p555
g5
tp556
a(g245
g245
g245
g5
g5
tp557
a(S'Kenya'
p558
S'Kenya'
p559
S'NNP'
p560
S'B-NP'
p561
g5
tp562
a(g245
g245
g245
g5
g5
tp563
a(S'and'
p564
S'and'
p565
S'CC'
p566
g5
g5
tp567
a(S'South'
p568
S'South'
p569
S'NNP'
p570
S'B-NP'
p571
g5
tp572
a(S'Africa'
p573
S'Africa'
p574
S'NNP'
p575
S'I-NP'
p576
g5
tp577
a(S'to'
p578
S'to'
p579
S'TO'
p580
S'B-VP'
p581
g5
tp582
a(S'start'
p583
S'start'
p584
S'VB'
p585
S'I-VP'
p586
g5
tp587
a(S'study'
p588
S'study'
p589
S'NN'
p590
S'B-NP'
p591
g5
tp592
a(S'treatment'
p593
S'treatment'
p594
S'NN'
p595
S'I-NP'
p596
g5
tp597
a(S'at'
p598
S'at'
p599
S'IN'
p600
S'B-PP'
p601
g5
tp602
a(S'28-36'
p603
S'28-36'
p604
S'CD'
p605
S'B-NP'
p606
g5
tp607
a(S'weeks'
p608
S'week'
p609
S'NNS'
p610
S'I-NP'
p611
g5
tp612
a(S"'"
p613
g613
S'POS'
p614
S'B-NP'
p615
g5
tp616
a(S'gestation.'
p617
S'gestation.'
p618
S'NN'
p619
S'I-NP'
p620
g5
tp621
a(S'Women'
p622
S'Woman'
p623
S'NNS'
p624
S'I-NP'
p625
g5
tp626
a(S'were'
p627
S'be'
p628
S'VBD'
p629
S'B-VP'
p630
g5
tp631
a(S'randomly'
p632
S'randomly'
p633
S'RB'
p634
S'I-VP'
p635
g5
tp636
a(S'assigned'
p637
S'assign'
p638
S'VBN'
p639
S'I-VP'
p640
g5
tp641
a(g101
g101
g101
g5
g5
tp642
a(g432
g432
S'CD'
p643
S'B-NP'
p644
g5
tp645
a(g120
g120
S'SYM'
p646
S'B-NP'
p647
g5
tp648
a(g432
g432
S'CD'
p649
S'I-NP'
p650
g5
tp651
a(g118
g118
g118
g5
g5
tp652
a(S'by'
p653
S'by'
p654
S'IN'
p655
S'B-PP'
p656
g5
tp657
a(g122
g122
S'DT'
p658
S'B-NP'
p659
g5
tp660
a(S'computer'
p661
S'computer'
p662
S'NN'
p663
S'I-NP'
p664
g5
tp665
a(S'generated'
p666
S'generate'
p667
S'VBD'
p668
S'B-VP'
p669
g5
tp670
a(S'random'
p671
S'random'
p672
S'JJ'
p673
S'B-NP'
p674
S'B-DNA'
p675
tp676
a(S'sequence'
p677
S'sequence'
p678
S'NN'
p679
S'I-NP'
p680
S'I-DNA'
p681
tp682
a(S'to'
p683
S'to'
p684
S'TO'
p685
S'B-PP'
p686
g5
tp687
a(S'either'
p688
S'either'
p689
S'CC'
p690
g5
g5
tp691
a(S'triple'
p692
S'triple'
p693
S'JJ'
p694
S'B-NP'
p695
g5
tp696
a(S'antiretroviral'
p697
S'antiretroviral'
p698
S'JJ'
p699
S'I-NP'
p700
g5
tp701
a(S'prophylaxis'
p702
S'prophylaxis'
p703
S'NN'
p704
S'I-NP'
p705
g5
tp706
a(g101
g101
g101
g5
g5
tp707
a(g122
g122
S'DT'
p708
S'B-NP'
p709
g5
tp710
a(S'combination'
p711
S'combination'
p712
S'NN'
p713
S'I-NP'
p714
g5
tp715
a(S'of'
p716
S'of'
p717
S'IN'
p718
S'B-PP'
p719
g5
tp720
a(S'300'
p721
S'300'
p722
S'CD'
p723
S'B-NP'
p724
g5
tp725
a(S'mg'
p726
S'mg'
p727
S'NN'
p728
S'I-NP'
p729
g5
tp730
a(S'zidovudine'
p731
S'zidovudine'
p732
S'NN'
p733
S'I-NP'
p734
g5
tp735
a(g245
g245
g245
g5
g5
tp736
a(S'150'
p737
S'150'
p738
S'CD'
p739
S'B-NP'
p740
g5
tp741
a(S'mg'
p742
S'mg'
p743
S'NN'
p744
S'I-NP'
p745
g5
tp746
a(S'lamivudine'
p747
S'lamivudine'
p748
S'NN'
p749
S'I-NP'
p750
g5
tp751
a(g245
g245
g245
g5
g5
tp752
a(S'and'
p753
S'and'
p754
S'CC'
p755
g5
g5
tp756
a(S'400'
p757
S'400'
p758
S'CD'
p759
S'B-NP'
p760
g5
tp761
a(S'mg'
p762
S'mg'
p763
S'NN'
p764
S'I-NP'
p765
g5
tp766
a(S'lopinavir'
p767
S'lopinavir'
p768
S'NN'
p769
S'I-NP'
p770
g5
tp771
a(S'plus'
p772
S'plus'
p773
S'CC'
p774
g5
g5
tp775
a(S'100'
p776
S'100'
p777
S'CD'
p778
S'B-NP'
p779
g5
tp780
a(S'mg'
p781
S'mg'
p782
S'NN'
p783
S'I-NP'
p784
g5
tp785
a(S'ritonavir'
p786
S'ritonavir'
p787
S'NN'
p788
S'I-NP'
p789
g5
tp790
a(S'twice'
p791
S'twice'
p792
S'RB'
p793
S'B-ADVP'
p794
g5
tp795
a(S'daily'
p796
S'daily'
p797
S'RB'
p798
S'I-ADVP'
p799
g5
tp800
a(S'until'
p801
S'until'
p802
S'IN'
p803
S'B-PP'
p804
g5
tp805
a(S'cessation'
p806
S'cessation'
p807
S'NN'
p808
S'B-NP'
p809
g5
tp810
a(S'of'
p811
S'of'
p812
S'IN'
p813
S'B-PP'
p814
g5
tp815
a(S'breastfeeding'
p816
S'breastfeed'
p817
S'VBG'
p818
S'B-VP'
p819
g5
tp820
a(S'to'
p821
S'to'
p822
S'TO'
p823
S'B-PP'
p824
g5
tp825
a(g122
g122
S'DT'
p826
S'B-NP'
p827
g5
tp828
a(S'maximum'
p829
S'maximum'
p830
S'NN'
p831
S'I-NP'
p832
g5
tp833
a(S'of'
p834
S'of'
p835
S'IN'
p836
S'B-PP'
p837
g5
tp838
a(S'6\xc2\xb75'
p839
S'6\xc2\xb75'
p840
S'CD'
p841
S'B-NP'
p842
g5
tp843
a(S'months'
p844
S'month'
p845
S'NNS'
p846
S'I-NP'
p847
g5
tp848
a(S'post'
p849
S'post'
p850
S'IN'
p851
S'B-PP'
p852
g5
tp853
a(S'partum'
p854
S'partum'
p855
S'NN'
p856
S'B-NP'
p857
g5
tp858
a(g118
g118
g118
g5
g5
tp859
a(S'or'
p860
S'or'
p861
S'CC'
p862
g5
g5
tp863
a(S'zidovudine'
p864
S'zidovudine'
p865
S'NN'
p866
S'B-NP'
p867
g5
tp868
a(S'and'
p869
S'and'
p870
S'CC'
p871
g5
g5
tp872
a(S'single-dose'
p873
S'single-dose'
p874
S'JJ'
p875
S'B-NP'
p876
g5
tp877
a(S'nevirapine'
p878
S'nevirapine'
p879
S'NN'
p880
S'I-NP'
p881
g5
tp882
a(g101
g101
g101
g5
g5
tp883
a(S'300'
p884
S'300'
p885
S'CD'
p886
S'B-NP'
p887
g5
tp888
a(S'mg'
p889
S'mg'
p890
S'NN'
p891
S'I-NP'
p892
g5
tp893
a(S'zidovudine'
p894
S'zidovudine'
p895
S'NN'
p896
S'I-NP'
p897
g5
tp898
a(S'twice'
p899
S'twice'
p900
S'RB'
p901
S'B-ADVP'
p902
g5
tp903
a(S'daily'
p904
S'daily'
p905
S'RB'
p906
S'I-ADVP'
p907
g5
tp908
a(S'until'
p909
S'until'
p910
S'IN'
p911
S'B-PP'
p912
g5
tp913
a(S'delivery'
p914
S'delivery'
p915
S'NN'
p916
S'B-NP'
p917
g5
tp918
a(S'and'
p919
S'and'
p920
S'CC'
p921
g5
g5
tp922
a(g122
g122
S'DT'
p923
S'B-NP'
p924
g5
tp925
a(S'dose'
p926
S'dose'
p927
S'NN'
p928
S'I-NP'
p929
g5
tp930
a(S'of'
p931
S'of'
p932
S'IN'
p933
S'B-PP'
p934
g5
tp935
a(S'600'
p936
S'600'
p937
S'CD'
p938
S'B-NP'
p939
g5
tp940
a(S'mg'
p941
S'mg'
p942
S'NN'
p943
S'I-NP'
p944
g5
tp945
a(S'zidovudine'
p946
S'zidovudine'
p947
S'NN'
p948
S'I-NP'
p949
g5
tp950
a(S'plus'
p951
S'plus'
p952
S'CC'
p953
g5
g5
tp954
a(S'200'
p955
S'200'
p956
S'CD'
p957
S'B-NP'
p958
g5
tp959
a(S'mg'
p960
S'mg'
p961
S'NN'
p962
S'I-NP'
p963
g5
tp964
a(S'nevirapine'
p965
S'nevirapine'
p966
S'NN'
p967
S'I-NP'
p968
g5
tp969
a(S'at'
p970
S'at'
p971
S'IN'
p972
S'B-PP'
p973
g5
tp974
a(S'the'
p975
S'the'
p976
S'DT'
p977
S'B-NP'
p978
g5
tp979
a(S'onset'
p980
S'onset'
p981
S'NN'
p982
S'I-NP'
p983
g5
tp984
a(S'of'
p985
S'of'
p986
S'IN'
p987
S'B-PP'
p988
g5
tp989
a(S'labour'
p990
S'labour'
p991
S'NN'
p992
S'B-NP'
p993
g5
tp994
a(S'and'
p995
S'and'
p996
S'CC'
p997
g5
g5
tp998
a(g245
g245
g245
g5
g5
tp999
a(S'after'
p1000
S'after'
p1001
S'IN'
p1002
S'B-PP'
p1003
g5
tp1004
a(g122
g122
S'DT'
p1005
S'B-NP'
p1006
g5
tp1007
a(S'protocol'
p1008
S'protocol'
p1009
S'NN'
p1010
S'I-NP'
p1011
g5
tp1012
a(S'amendment'
p1013
S'amendment'
p1014
S'NN'
p1015
S'I-NP'
p1016
g5
tp1017
a(S'in'
p1018
S'in'
p1019
S'IN'
p1020
S'B-PP'
p1021
g5
tp1022
a(S'December'
p1023
S'December'
p1024
S'NNP'
p1025
S'B-NP'
p1026
g5
tp1027
a(g245
g245
g245
g5
g5
tp1028
a(S'2006'
p1029
S'2006'
p1030
S'CD'
p1031
S'B-NP'
p1032
g5
tp1033
a(g245
g245
g245
S'I-NP'
p1034
g5
tp1035
a(g432
g432
S'CD'
p1036
S'I-NP'
p1037
g5
tp1038
a(S'week'
p1039
S'week'
p1040
S'NN'
p1041
S'I-NP'
p1042
g5
tp1043
a(S'post-partum'
p1044
S'post-partum'
p1045
S'JJ'
p1046
S'I-NP'
p1047
g5
tp1048
a(S'zidovudine'
p1049
S'zidovudine'
p1050
S'NN'
p1051
S'I-NP'
p1052
g5
tp1053
a(S'300'
p1054
S'300'
p1055
S'CD'
p1056
S'I-NP'
p1057
g5
tp1058
a(S'mg'
p1059
S'mg'
p1060
S'NN'
p1061
S'I-NP'
p1062
g5
tp1063
a(S'twice'
p1064
S'twice'
p1065
S'RB'
p1066
S'B-ADVP'
p1067
g5
tp1068
a(S'daily'
p1069
S'daily'
p1070
S'RB'
p1071
S'I-ADVP'
p1072
g5
tp1073
a(S'and'
p1074
S'and'
p1075
S'CC'
p1076
g5
g5
tp1077
a(S'lamivudine'
p1078
S'lamivudine'
p1079
S'NN'
p1080
S'B-NP'
p1081
g5
tp1082
a(S'150'
p1083
S'150'
p1084
S'CD'
p1085
S'I-NP'
p1086
g5
tp1087
a(S'mg'
p1088
S'mg'
p1089
S'NN'
p1090
S'I-NP'
p1091
g5
tp1092
a(S'twice'
p1093
S'twice'
p1094
S'RB'
p1095
S'B-ADVP'
p1096
g5
tp1097
a(S'daily'
p1098
S'daily'
p1099
S'RB'
p1100
S'I-ADVP'
p1101
g5
tp1102
a(g118
g118
g118
g5
g5
tp1103
a(g141
g141
g141
g5
g5
tp1104
a(S'All'
p1105
S'All'
p1106
S'DT'
p1107
S'B-NP'
p1108
g5
tp1109
a(S'infants'
p1110
S'infant'
p1111
S'NNS'
p1112
S'I-NP'
p1113
g5
tp1114
a(S'received'
p1115
S'receive'
p1116
S'VBD'
p1117
S'B-VP'
p1118
g5
tp1119
a(g122
g122
S'DT'
p1120
S'B-NP'
p1121
g5
tp1122
a(S'0\xc2\xb76'
p1123
S'0\xc2\xb76'
p1124
S'CD'
p1125
S'I-NP'
p1126
g5
tp1127
a(S'mL'
p1128
S'mL'
p1129
S'NN'
p1130
S'I-NP'
p1131
g5
tp1132
a(S'dose'
p1133
S'dose'
p1134
S'NN'
p1135
S'I-NP'
p1136
g5
tp1137
a(S'of'
p1138
S'of'
p1139
S'IN'
p1140
S'B-PP'
p1141
g5
tp1142
a(S'nevirapine'
p1143
S'nevirapine'
p1144
S'NN'
p1145
S'B-NP'
p1146
g5
tp1147
a(S'at'
p1148
S'at'
p1149
S'IN'
p1150
S'B-PP'
p1151
g5
tp1152
a(S'birth'
p1153
S'birth'
p1154
S'NN'
p1155
S'B-NP'
p1156
g5
tp1157
a(S'and'
p1158
S'and'
p1159
S'CC'
p1160
g5
g5
tp1161
a(g245
g245
g245
g5
g5
tp1162
a(S'from'
p1163
S'from'
p1164
S'IN'
p1165
S'B-PP'
p1166
g5
tp1167
a(S'December'
p1168
S'December'
p1169
S'NNP'
p1170
S'B-NP'
p1171
g5
tp1172
a(g245
g245
g245
g5
g5
tp1173
a(S'2006'
p1174
S'2006'
p1175
S'CD'
p1176
S'B-NP'
p1177
g5
tp1178
a(g245
g245
g245
g5
g5
tp1179
a(S'4'
p1180
g1180
S'CD'
p1181
S'B-NP'
p1182
g5
tp1183
a(S'mg/kg'
p1184
S'mg/kg'
p1185
S'NN'
p1186
S'I-NP'
p1187
g5
tp1188
a(S'twice'
p1189
S'twice'
p1190
S'RB'
p1191
S'B-ADVP'
p1192
g5
tp1193
a(S'daily'
p1194
S'daily'
p1195
S'RB'
p1196
S'I-ADVP'
p1197
g5
tp1198
a(S'of'
p1199
S'of'
p1200
S'IN'
p1201
S'B-PP'
p1202
g5
tp1203
a(S'zidovudine'
p1204
S'zidovudine'
p1205
S'NN'
p1206
S'B-NP'
p1207
g5
tp1208
a(S'for'
p1209
S'for'
p1210
S'IN'
p1211
S'B-PP'
p1212
g5
tp1213
a(g432
g432
S'CD'
p1214
S'B-NP'
p1215
g5
tp1216
a(S'week'
p1217
S'week'
p1218
S'NN'
p1219
S'I-NP'
p1220
g5
tp1221
a(S'after'
p1222
S'after'
p1223
S'IN'
p1224
S'B-PP'
p1225
g5
tp1226
a(S'birth.'
p1227
S'birth.'
p1228
S'NN'
p1229
S'B-NP'
p1230
g5
tp1231
a(S'Patients'
p1232
S'Patient'
p1233
S'NNS'
p1234
S'I-NP'
p1235
g5
tp1236
a(S'and'
p1237
S'and'
p1238
S'CC'
p1239
S'I-NP'
p1240
g5
tp1241
a(S'investigators'
p1242
S'investigator'
p1243
S'NNS'
p1244
S'I-NP'
p1245
g5
tp1246
a(S'were'
p1247
S'be'
p1248
S'VBD'
p1249
S'B-VP'
p1250
g5
tp1251
a(S'not'
p1252
S'not'
p1253
S'RB'
p1254
S'I-VP'
p1255
g5
tp1256
a(S'masked'
p1257
S'mask'
p1258
S'VBN'
p1259
S'I-VP'
p1260
g5
tp1261
a(S'to'
p1262
S'to'
p1263
S'TO'
p1264
S'I-VP'
p1265
g5
tp1266
a(S'treatment.'
p1267
S'treatment.'
p1268
S'VB'
p1269
S'I-VP'
p1270
g5
tp1271
a(S'The'
p1272
S'The'
p1273
S'DT'
p1274
S'B-NP'
p1275
g5
tp1276
a(S'primary'
p1277
S'primary'
p1278
S'JJ'
p1279
S'I-NP'
p1280
g5
tp1281
a(S'endpoints'
p1282
S'endpoint'
p1283
S'NNS'
p1284
S'I-NP'
p1285
g5
tp1286
a(S'were'
p1287
S'be'
p1288
S'VBD'
p1289
S'B-VP'
p1290
g5
tp1291
a(S'HIV-free'
p1292
S'HIV-free'
p1293
S'JJ'
p1294
S'B-NP'
p1295
g5
tp1296
a(S'infant'
p1297
S'infant'
p1298
S'NN'
p1299
S'I-NP'
p1300
g5
tp1301
a(S'survival'
p1302
S'survival'
p1303
S'NN'
p1304
S'I-NP'
p1305
g5
tp1306
a(S'at'
p1307
S'at'
p1308
S'IN'
p1309
S'B-PP'
p1310
g5
tp1311
a(S'6'
p1312
g1312
S'CD'
p1313
S'B-NP'
p1314
g5
tp1315
a(S'weeks'
p1316
S'week'
p1317
S'NNS'
p1318
S'I-NP'
p1319
g5
tp1320
a(S'and'
p1321
S'and'
p1322
S'CC'
p1323
g5
g5
tp1324
a(S'12'
p1325
S'12'
p1326
S'CD'
p1327
S'B-NP'
p1328
g5
tp1329
a(S'months'
p1330
S'month'
p1331
S'NNS'
p1332
S'I-NP'
p1333
g5
tp1334
a(S';'
p1335
g1335
g120
g5
g5
tp1336
a(S'HIV-free'
p1337
S'HIV-free'
p1338
S'JJ'
p1339
S'B-NP'
p1340
g5
tp1341
a(S'survival'
p1342
S'survival'
p1343
S'NN'
p1344
S'I-NP'
p1345
g5
tp1346
a(S'at'
p1347
S'at'
p1348
S'IN'
p1349
S'B-PP'
p1350
g5
tp1351
a(S'12'
p1352
S'12'
p1353
S'CD'
p1354
S'B-NP'
p1355
g5
tp1356
a(S'months'
p1357
S'month'
p1358
S'NNS'
p1359
S'I-NP'
p1360
g5
tp1361
a(S'in'
p1362
S'in'
p1363
S'IN'
p1364
S'B-PP'
p1365
g5
tp1366
a(S'infants'
p1367
S'infant'
p1368
S'NNS'
p1369
S'B-NP'
p1370
g5
tp1371
a(S'who'
p1372
S'who'
p1373
S'WP'
p1374
S'B-NP'
p1375
g5
tp1376
a(S'were'
p1377
S'be'
p1378
S'VBD'
p1379
S'B-VP'
p1380
g5
tp1381
a(S'ever'
p1382
S'ever'
p1383
S'RB'
p1384
S'I-VP'
p1385
g5
tp1386
a(S'breastfed'
p1387
S'breastfe'
p1388
S'VBN'
p1389
S'I-VP'
p1390
g5
tp1391
a(g1335
g1335
g120
g5
g5
tp1392
a(S'AIDS-free'
p1393
S'AIDS-free'
p1394
S'JJ'
p1395
S'B-NP'
p1396
g5
tp1397
a(S'survival'
p1398
S'survival'
p1399
S'NN'
p1400
S'I-NP'
p1401
g5
tp1402
a(S'in'
p1403
S'in'
p1404
S'IN'
p1405
S'B-PP'
p1406
g5
tp1407
a(S'mothers'
p1408
S'mother'
p1409
S'NNS'
p1410
S'B-NP'
p1411
g5
tp1412
a(S'at'
p1413
S'at'
p1414
S'IN'
p1415
S'B-PP'
p1416
g5
tp1417
a(S'18'
p1418
S'18'
p1419
S'CD'
p1420
S'B-NP'
p1421
g5
tp1422
a(S'months'
p1423
S'month'
p1424
S'NNS'
p1425
S'I-NP'
p1426
g5
tp1427
a(g1335
g1335
g120
g5
g5
tp1428
a(S'and'
p1429
S'and'
p1430
S'CC'
p1431
g5
g5
tp1432
a(S'serious'
p1433
S'serious'
p1434
S'JJ'
p1435
S'B-NP'
p1436
g5
tp1437
a(S'adverse'
p1438
S'adverse'
p1439
S'JJ'
p1440
S'I-NP'
p1441
g5
tp1442
a(S'events'
p1443
S'event'
p1444
S'NNS'
p1445
S'I-NP'
p1446
g5
tp1447
a(S'in'
p1448
S'in'
p1449
S'IN'
p1450
S'B-PP'
p1451
g5
tp1452
a(S'mothers'
p1453
S'mother'
p1454
S'NNS'
p1455
S'B-NP'
p1456
g5
tp1457
a(S'and'
p1458
S'and'
p1459
S'CC'
p1460
g5
g5
tp1461
a(S'babies.'
p1462
S'babies.'
p1463
S'NN'
p1464
S'B-NP'
p1465
g5
tp1466
a(S'Analysis'
p1467
S'Analysis'
p1468
S'NN'
p1469
S'I-NP'
p1470
g5
tp1471
a(S'was'
p1472
S'be'
p1473
S'VBD'
p1474
S'B-VP'
p1475
g5
tp1476
a(S'by'
p1477
S'by'
p1478
S'IN'
p1479
S'B-PP'
p1480
g5
tp1481
a(S'intention'
p1482
S'intention'
p1483
S'NN'
p1484
S'B-NP'
p1485
g5
tp1486
a(S'to'
p1487
S'to'
p1488
S'TO'
p1489
S'B-VP'
p1490
g5
tp1491
a(S'treat.'
p1492
S'treat.'
p1493
S'VB'
p1494
S'I-VP'
p1495
g5
tp1496
a(S'This'
p1497
S'This'
p1498
S'DT'
p1499
S'B-NP'
p1500
g5
tp1501
a(S'trial'
p1502
S'trial'
p1503
S'NN'
p1504
S'I-NP'
p1505
g5
tp1506
a(S'is'
p1507
S'be'
p1508
S'VBZ'
p1509
S'B-VP'
p1510
g5
tp1511
a(S'registered'
p1512
S'register'
p1513
S'VBN'
p1514
S'I-VP'
p1515
g5
tp1516
a(S'with'
p1517
S'with'
p1518
S'IN'
p1519
S'B-PP'
p1520
g5
tp1521
a(S'Current'
p1522
S'Current'
p1523
S'NNP'
p1524
S'B-NP'
p1525
g5
tp1526
a(S'Controlled'
p1527
S'Controlled'
p1528
S'NNP'
p1529
S'I-NP'
p1530
g5
tp1531
a(S'Trials'
p1532
S'Trial'
p1533
S'NNPS'
p1534
S'I-NP'
p1535
g5
tp1536
a(g245
g245
g245
g5
g5
tp1537
a(S'ISRCTN71468401'
p1538
S'ISRCTN71468401'
p1539
S'NN'
p1540
S'B-NP'
p1541
g5
tp1542
a(g141
g141
g141
g5
g5
tp1543
a(S'FINDINGS'
p1544
S'FINDINGS'
p1545
S'NNP'
p1546
S'B-NP'
p1547
g5
tp1548
a(S'From'
p1549
S'From'
p1550
S'NNP'
p1551
S'I-NP'
p1552
g5
tp1553
a(S'June'
p1554
S'June'
p1555
S'NNP'
p1556
S'I-NP'
p1557
g5
tp1558
a(g245
g245
g245
g5
g5
tp1559
a(S'2005'
p1560
S'2005'
p1561
S'CD'
p1562
S'B-NP'
p1563
g5
tp1564
a(g245
g245
g245
g5
g5
tp1565
a(S'to'
p1566
S'to'
p1567
S'TO'
p1568
S'B-PP'
p1569
g5
tp1570
a(S'August'
p1571
S'August'
p1572
S'NNP'
p1573
S'B-NP'
p1574
g5
tp1575
a(g245
g245
g245
g5
g5
tp1576
a(S'2008'
p1577
S'2008'
p1578
S'CD'
p1579
S'B-NP'
p1580
g5
tp1581
a(g245
g245
g245
g5
g5
tp1582
a(S'882'
p1583
S'882'
p1584
S'CD'
p1585
S'B-NP'
p1586
g5
tp1587
a(S'women'
p1588
S'woman'
p1589
S'NNS'
p1590
S'I-NP'
p1591
g5
tp1592
a(S'were'
p1593
S'be'
p1594
S'VBD'
p1595
S'B-VP'
p1596
g5
tp1597
a(S'enrolled'
p1598
S'enrol'
p1599
S'VBN'
p1600
S'I-VP'
p1601
g5
tp1602
a(g245
g245
g245
g5
g5
tp1603
a(S'824'
p1604
S'824'
p1605
S'CD'
p1606
S'B-NP'
p1607
g5
tp1608
a(S'of'
p1609
S'of'
p1610
S'IN'
p1611
S'B-PP'
p1612
g5
tp1613
a(S'whom'
p1614
S'whom'
p1615
S'WP'
p1616
S'B-NP'
p1617
g5
tp1618
a(S'were'
p1619
S'be'
p1620
S'VBD'
p1621
S'B-VP'
p1622
g5
tp1623
a(S'randomised'
p1624
S'randomise'
p1625
S'VBN'
p1626
S'I-VP'
p1627
g5
tp1628
a(S'and'
p1629
S'and'
p1630
S'CC'
p1631
g5
g5
tp1632
a(S'gave'
p1633
S'give'
p1634
S'VBD'
p1635
S'B-VP'
p1636
g5
tp1637
a(S'birth'
p1638
S'birth'
p1639
S'NN'
p1640
S'B-NP'
p1641
g5
tp1642
a(S'to'
p1643
S'to'
p1644
S'TO'
p1645
S'B-PP'
p1646
g5
tp1647
a(S'805'
p1648
S'805'
p1649
S'CD'
p1650
S'B-NP'
p1651
g5
tp1652
a(S'singleton'
p1653
S'singleton'
p1654
S'NN'
p1655
S'I-NP'
p1656
g5
tp1657
a(S'or'
p1658
S'or'
p1659
S'CC'
p1660
S'I-NP'
p1661
g5
tp1662
a(S'first'
p1663
S'first'
p1664
S'JJ'
p1665
S'I-NP'
p1666
g5
tp1667
a(g245
g245
g245
S'I-NP'
p1668
g5
tp1669
a(S'liveborn'
p1670
S'liveborn'
p1671
S'JJ'
p1672
S'I-NP'
p1673
g5
tp1674
a(S'infants.'
p1675
S'infants.'
p1676
S'NN'
p1677
S'I-NP'
p1678
g5
tp1679
a(S'The'
p1680
S'The'
p1681
S'DT'
p1682
S'B-NP'
p1683
g5
tp1684
a(S'cumulative'
p1685
S'cumulative'
p1686
S'JJ'
p1687
S'I-NP'
p1688
g5
tp1689
a(S'rate'
p1690
S'rate'
p1691
S'NN'
p1692
S'I-NP'
p1693
g5
tp1694
a(S'of'
p1695
S'of'
p1696
S'IN'
p1697
S'B-PP'
p1698
g5
tp1699
a(S'HIV'
p1700
S'HIV'
p1701
S'NN'
p1702
S'B-NP'
p1703
g5
tp1704
a(S'transmission'
p1705
S'transmission'
p1706
S'NN'
p1707
S'I-NP'
p1708
g5
tp1709
a(S'at'
p1710
S'at'
p1711
S'IN'
p1712
S'B-PP'
p1713
g5
tp1714
a(g1312
g1312
S'CD'
p1715
S'B-NP'
p1716
g5
tp1717
a(S'weeks'
p1718
S'week'
p1719
S'NNS'
p1720
S'I-NP'
p1721
g5
tp1722
a(S'was'
p1723
S'be'
p1724
S'VBD'
p1725
S'B-VP'
p1726
g5
tp1727
a(S'3\xc2\xb73'
p1728
S'3\xc2\xb73'
p1729
S'CD'
p1730
S'B-NP'
p1731
g5
tp1732
a(S'%'
p1733
g1733
S'NN'
p1734
S'I-NP'
p1735
g5
tp1736
a(g101
g101
g101
g5
g5
tp1737
a(S'95'
p1738
S'95'
p1739
S'CD'
p1740
S'B-NP'
p1741
g5
tp1742
a(g1733
g1733
S'NN'
p1743
S'I-NP'
p1744
g5
tp1745
a(S'CI'
p1746
S'CI'
p1747
S'NN'
p1748
S'I-NP'
p1749
g5
tp1750
a(S'1\xc2\xb79-5\xc2\xb76'
p1751
S'1\xc2\xb79-5\xc2\xb76'
p1752
S'CD'
p1753
S'B-NP'
p1754
g5
tp1755
a(g1733
g1733
S'NN'
p1756
S'I-NP'
p1757
g5
tp1758
a(g118
g118
g118
g5
g5
tp1759
a(S'in'
p1760
S'in'
p1761
S'IN'
p1762
S'B-PP'
p1763
g5
tp1764
a(S'the'
p1765
S'the'
p1766
S'DT'
p1767
S'B-NP'
p1768
g5
tp1769
a(S'triple'
p1770
S'triple'
p1771
S'JJ'
p1772
S'I-NP'
p1773
g5
tp1774
a(S'antiretroviral'
p1775
S'antiretroviral'
p1776
S'JJ'
p1777
S'I-NP'
p1778
g5
tp1779
a(S'group'
p1780
S'group'
p1781
S'NN'
p1782
S'I-NP'
p1783
g5
tp1784
a(S'compared'
p1785
S'compare'
p1786
S'VBN'
p1787
S'B-PP'
p1788
g5
tp1789
a(S'with'
p1790
S'with'
p1791
S'IN'
p1792
S'B-PP'
p1793
g5
tp1794
a(S'5\xc2\xb70'
p1795
S'5\xc2\xb70'
p1796
S'CD'
p1797
S'B-NP'
p1798
g5
tp1799
a(g1733
g1733
S'NN'
p1800
S'I-NP'
p1801
g5
tp1802
a(g101
g101
g101
g5
g5
tp1803
a(S'3\xc2\xb73-7\xc2\xb77'
p1804
S'3\xc2\xb73-7\xc2\xb77'
p1805
S'CD'
p1806
S'B-NP'
p1807
g5
tp1808
a(g1733
g1733
S'NN'
p1809
S'I-NP'
p1810
g5
tp1811
a(g118
g118
g118
g5
g5
tp1812
a(S'in'
p1813
S'in'
p1814
S'IN'
p1815
S'B-PP'
p1816
g5
tp1817
a(S'the'
p1818
S'the'
p1819
S'DT'
p1820
S'B-NP'
p1821
g5
tp1822
a(S'zidovudine'
p1823
S'zidovudine'
p1824
S'NN'
p1825
S'I-NP'
p1826
g5
tp1827
a(S'and'
p1828
S'and'
p1829
S'CC'
p1830
S'I-NP'
p1831
g5
tp1832
a(S'single-dose'
p1833
S'single-dose'
p1834
S'JJ'
p1835
S'I-NP'
p1836
g5
tp1837
a(S'nevirapine'
p1838
S'nevirapine'
p1839
S'NN'
p1840
S'I-NP'
p1841
g5
tp1842
a(S'group'
p1843
S'group'
p1844
S'NN'
p1845
S'I-NP'
p1846
g5
tp1847
a(g245
g245
g245
g5
g5
tp1848
a(S'and'
p1849
S'and'
p1850
S'CC'
p1851
g5
g5
tp1852
a(S'at'
p1853
S'at'
p1854
S'IN'
p1855
S'B-PP'
p1856
g5
tp1857
a(S'12'
p1858
S'12'
p1859
S'CD'
p1860
S'B-NP'
p1861
g5
tp1862
a(S'months'
p1863
S'month'
p1864
S'NNS'
p1865
S'I-NP'
p1866
g5
tp1867
a(S'was'
p1868
S'be'
p1869
S'VBD'
p1870
S'B-VP'
p1871
g5
tp1872
a(S'5\xc2\xb74'
p1873
S'5\xc2\xb74'
p1874
S'CD'
p1875
S'B-NP'
p1876
g5
tp1877
a(g1733
g1733
S'NN'
p1878
S'I-NP'
p1879
g5
tp1880
a(g101
g101
g101
g5
g5
tp1881
a(S'3\xc2\xb76-8\xc2\xb71'
p1882
S'3\xc2\xb76-8\xc2\xb71'
p1883
S'CD'
p1884
S'B-NP'
p1885
g5
tp1886
a(g1733
g1733
S'NN'
p1887
S'I-NP'
p1888
g5
tp1889
a(g118
g118
g118
g5
g5
tp1890
a(S'in'
p1891
S'in'
p1892
S'IN'
p1893
S'B-PP'
p1894
g5
tp1895
a(S'the'
p1896
S'the'
p1897
S'DT'
p1898
S'B-NP'
p1899
g5
tp1900
a(S'triple'
p1901
S'triple'
p1902
S'JJ'
p1903
S'I-NP'
p1904
g5
tp1905
a(S'antiretroviral'
p1906
S'antiretroviral'
p1907
S'JJ'
p1908
S'I-NP'
p1909
g5
tp1910
a(S'group'
p1911
S'group'
p1912
S'NN'
p1913
S'I-NP'
p1914
g5
tp1915
a(S'compared'
p1916
S'compare'
p1917
S'VBN'
p1918
S'B-PP'
p1919
g5
tp1920
a(S'with'
p1921
S'with'
p1922
S'IN'
p1923
S'B-PP'
p1924
g5
tp1925
a(S'9\xc2\xb75'
p1926
S'9\xc2\xb75'
p1927
S'CD'
p1928
S'B-NP'
p1929
g5
tp1930
a(g1733
g1733
S'NN'
p1931
S'I-NP'
p1932
g5
tp1933
a(g101
g101
g101
g5
g5
tp1934
a(S'7\xc2\xb70-12\xc2\xb79'
p1935
S'7\xc2\xb70-12\xc2\xb79'
p1936
S'CD'
p1937
S'B-NP'
p1938
g5
tp1939
a(g1733
g1733
S'NN'
p1940
S'I-NP'
p1941
g5
tp1942
a(g118
g118
g118
g5
g5
tp1943
a(S'in'
p1944
S'in'
p1945
S'IN'
p1946
S'B-PP'
p1947
g5
tp1948
a(S'the'
p1949
S'the'
p1950
S'DT'
p1951
S'B-NP'
p1952
g5
tp1953
a(S'zidovudine'
p1954
S'zidovudine'
p1955
S'NN'
p1956
S'I-NP'
p1957
g5
tp1958
a(S'and'
p1959
S'and'
p1960
S'CC'
p1961
S'I-NP'
p1962
g5
tp1963
a(S'single-dose'
p1964
S'single-dose'
p1965
S'JJ'
p1966
S'I-NP'
p1967
g5
tp1968
a(S'nevirapine'
p1969
S'nevirapine'
p1970
S'NN'
p1971
S'I-NP'
p1972
g5
tp1973
a(S'group'
p1974
S'group'
p1975
S'NN'
p1976
S'I-NP'
p1977
g5
tp1978
a(g101
g101
g101
g5
g5
tp1979
a(S'p=0\xc2\xb7029'
p1980
S'p=0\xc2\xb7029'
p1981
S'NN'
p1982
S'B-NP'
p1983
g5
tp1984
a(g118
g118
g118
g5
g5
tp1985
a(g141
g141
g141
g5
g5
tp1986
a(S'The'
p1987
S'The'
p1988
S'DT'
p1989
S'B-NP'
p1990
g5
tp1991
a(S'cumulative'
p1992
S'cumulative'
p1993
S'JJ'
p1994
S'I-NP'
p1995
g5
tp1996
a(S'rate'
p1997
S'rate'
p1998
S'NN'
p1999
S'I-NP'
p2000
g5
tp2001
a(S'of'
p2002
S'of'
p2003
S'IN'
p2004
S'B-PP'
p2005
g5
tp2006
a(S'HIV'
p2007
S'HIV'
p2008
S'NN'
p2009
S'B-NP'
p2010
g5
tp2011
a(S'transmission'
p2012
S'transmission'
p2013
S'NN'
p2014
S'I-NP'
p2015
g5
tp2016
a(S'or'
p2017
S'or'
p2018
S'CC'
p2019
S'I-NP'
p2020
g5
tp2021
a(S'death'
p2022
S'death'
p2023
S'NN'
p2024
S'I-NP'
p2025
g5
tp2026
a(S'at'
p2027
S'at'
p2028
S'IN'
p2029
S'B-PP'
p2030
g5
tp2031
a(S'12'
p2032
S'12'
p2033
S'CD'
p2034
S'B-NP'
p2035
g5
tp2036
a(S'months'
p2037
S'month'
p2038
S'NNS'
p2039
S'I-NP'
p2040
g5
tp2041
a(S'was'
p2042
S'be'
p2043
S'VBD'
p2044
S'B-VP'
p2045
g5
tp2046
a(S'10\xc2\xb72'
p2047
S'10\xc2\xb72'
p2048
S'CD'
p2049
S'B-NP'
p2050
g5
tp2051
a(g1733
g1733
S'NN'
p2052
S'I-NP'
p2053
g5
tp2054
a(g101
g101
g101
g5
g5
tp2055
a(S'95'
p2056
S'95'
p2057
S'CD'
p2058
S'B-NP'
p2059
g5
tp2060
a(g1733
g1733
S'NN'
p2061
S'I-NP'
p2062
g5
tp2063
a(S'CI'
p2064
S'CI'
p2065
S'NN'
p2066
S'I-NP'
p2067
g5
tp2068
a(S'7\xc2\xb76-13\xc2\xb76'
p2069
S'7\xc2\xb76-13\xc2\xb76'
p2070
S'CD'
p2071
S'B-NP'
p2072
g5
tp2073
a(g1733
g1733
S'NN'
p2074
S'I-NP'
p2075
g5
tp2076
a(g118
g118
g118
g5
g5
tp2077
a(S'in'
p2078
S'in'
p2079
S'IN'
p2080
S'B-PP'
p2081
g5
tp2082
a(S'the'
p2083
S'the'
p2084
S'DT'
p2085
S'B-NP'
p2086
g5
tp2087
a(S'triple'
p2088
S'triple'
p2089
S'JJ'
p2090
S'I-NP'
p2091
g5
tp2092
a(S'antiretroviral'
p2093
S'antiretroviral'
p2094
S'JJ'
p2095
S'I-NP'
p2096
g5
tp2097
a(S'group'
p2098
S'group'
p2099
S'NN'
p2100
S'I-NP'
p2101
g5
tp2102
a(S'compared'
p2103
S'compare'
p2104
S'VBN'
p2105
S'B-PP'
p2106
g5
tp2107
a(S'with'
p2108
S'with'
p2109
S'IN'
p2110
S'B-PP'
p2111
g5
tp2112
a(S'16\xc2\xb70'
p2113
S'16\xc2\xb70'
p2114
S'CD'
p2115
S'B-NP'
p2116
g5
tp2117
a(g1733
g1733
S'NN'
p2118
S'I-NP'
p2119
g5
tp2120
a(g101
g101
g101
g5
g5
tp2121
a(S'12\xc2\xb77-20\xc2\xb70'
p2122
S'12\xc2\xb77-20\xc2\xb70'
p2123
S'CD'
p2124
S'B-NP'
p2125
g5
tp2126
a(g1733
g1733
S'NN'
p2127
S'I-NP'
p2128
g5
tp2129
a(g118
g118
g118
g5
g5
tp2130
a(S'in'
p2131
S'in'
p2132
S'IN'
p2133
S'B-PP'
p2134
g5
tp2135
a(S'the'
p2136
S'the'
p2137
S'DT'
p2138
S'B-NP'
p2139
g5
tp2140
a(S'zidovudine'
p2141
S'zidovudine'
p2142
S'NN'
p2143
S'I-NP'
p2144
g5
tp2145
a(S'and'
p2146
S'and'
p2147
S'CC'
p2148
S'I-NP'
p2149
g5
tp2150
a(S'single-dose'
p2151
S'single-dose'
p2152
S'JJ'
p2153
S'I-NP'
p2154
g5
tp2155
a(S'nevirapine'
p2156
S'nevirapine'
p2157
S'NN'
p2158
S'I-NP'
p2159
g5
tp2160
a(S'group'
p2161
S'group'
p2162
S'NN'
p2163
S'I-NP'
p2164
g5
tp2165
a(g101
g101
g101
g5
g5
tp2166
a(S'p=0\xc2\xb7017'
p2167
S'p=0\xc2\xb7017'
p2168
S'NN'
p2169
S'B-NP'
p2170
g5
tp2171
a(g118
g118
g118
g5
g5
tp2172
a(g141
g141
g141
g5
g5
tp2173
a(S'In'
p2174
S'In'
p2175
S'IN'
p2176
S'B-PP'
p2177
g5
tp2178
a(S'infants'
p2179
S'infant'
p2180
S'NNS'
p2181
S'B-NP'
p2182
g5
tp2183
a(S'whose'
p2184
S'whose'
p2185
S'WP$'
p2186
S'B-NP'
p2187
g5
tp2188
a(S'mothers'
p2189
S'mother'
p2190
S'NNS'
p2191
S'I-NP'
p2192
g5
tp2193
a(S'declared'
p2194
S'declare'
p2195
S'VBD'
p2196
S'B-VP'
p2197
g5
tp2198
a(S'they'
p2199
S'they'
p2200
S'PRP'
p2201
S'B-NP'
p2202
g5
tp2203
a(S'intended'
p2204
S'intend'
p2205
S'VBD'
p2206
S'B-VP'
p2207
g5
tp2208
a(S'to'
p2209
S'to'
p2210
S'TO'
p2211
S'I-VP'
p2212
g5
tp2213
a(S'breastfeed'
p2214
S'breastfeed'
p2215
S'VB'
p2216
S'I-VP'
p2217
g5
tp2218
a(g245
g245
g245
g5
g5
tp2219
a(S'the'
p2220
S'the'
p2221
S'DT'
p2222
S'B-NP'
p2223
g5
tp2224
a(S'cumulative'
p2225
S'cumulative'
p2226
S'JJ'
p2227
S'I-NP'
p2228
g5
tp2229
a(S'rate'
p2230
S'rate'
p2231
S'NN'
p2232
S'I-NP'
p2233
g5
tp2234
a(S'of'
p2235
S'of'
p2236
S'IN'
p2237
S'B-PP'
p2238
g5
tp2239
a(S'HIV'
p2240
S'HIV'
p2241
S'NN'
p2242
S'B-NP'
p2243
g5
tp2244
a(S'transmission'
p2245
S'transmission'
p2246
S'NN'
p2247
S'I-NP'
p2248
g5
tp2249
a(S'at'
p2250
S'at'
p2251
S'IN'
p2252
S'B-PP'
p2253
g5
tp2254
a(S'12'
p2255
S'12'
p2256
S'CD'
p2257
S'B-NP'
p2258
g5
tp2259
a(S'months'
p2260
S'month'
p2261
S'NNS'
p2262
S'I-NP'
p2263
g5
tp2264
a(S'was'
p2265
S'be'
p2266
S'VBD'
p2267
S'B-VP'
p2268
g5
tp2269
a(S'5\xc2\xb76'
p2270
S'5\xc2\xb76'
p2271
S'CD'
p2272
S'B-NP'
p2273
g5
tp2274
a(g1733
g1733
S'NN'
p2275
S'I-NP'
p2276
g5
tp2277
a(g101
g101
g101
g5
g5
tp2278
a(S'95'
p2279
S'95'
p2280
S'CD'
p2281
S'B-NP'
p2282
g5
tp2283
a(g1733
g1733
S'NN'
p2284
S'I-NP'
p2285
g5
tp2286
a(S'CI'
p2287
S'CI'
p2288
S'NN'
p2289
S'I-NP'
p2290
g5
tp2291
a(S'3\xc2\xb74-8\xc2\xb79'
p2292
S'3\xc2\xb74-8\xc2\xb79'
p2293
S'CD'
p2294
S'B-NP'
p2295
g5
tp2296
a(g1733
g1733
S'NN'
p2297
S'I-NP'
p2298
g5
tp2299
a(g118
g118
g118
g5
g5
tp2300
a(S'in'
p2301
S'in'
p2302
S'IN'
p2303
S'B-PP'
p2304
g5
tp2305
a(S'the'
p2306
S'the'
p2307
S'DT'
p2308
S'B-NP'
p2309
g5
tp2310
a(S'triple'
p2311
S'triple'
p2312
S'JJ'
p2313
S'I-NP'
p2314
g5
tp2315
a(S'antiretroviral'
p2316
S'antiretroviral'
p2317
S'JJ'
p2318
S'I-NP'
p2319
g5
tp2320
a(S'group'
p2321
S'group'
p2322
S'NN'
p2323
S'I-NP'
p2324
g5
tp2325
a(S'compared'
p2326
S'compare'
p2327
S'VBN'
p2328
S'B-PP'
p2329
g5
tp2330
a(S'with'
p2331
S'with'
p2332
S'IN'
p2333
S'B-PP'
p2334
g5
tp2335
a(S'10\xc2\xb77'
p2336
S'10\xc2\xb77'
p2337
S'CD'
p2338
S'B-NP'
p2339
g5
tp2340
a(g1733
g1733
S'NN'
p2341
S'I-NP'
p2342
g5
tp2343
a(g101
g101
g101
g5
g5
tp2344
a(S'7\xc2\xb76-14\xc2\xb78'
p2345
S'7\xc2\xb76-14\xc2\xb78'
p2346
S'CD'
p2347
S'B-NP'
p2348
g5
tp2349
a(g1733
g1733
S'NN'
p2350
S'I-NP'
p2351
g5
tp2352
a(g118
g118
g118
g5
g5
tp2353
a(S'in'
p2354
S'in'
p2355
S'IN'
p2356
S'B-PP'
p2357
g5
tp2358
a(S'the'
p2359
S'the'
p2360
S'DT'
p2361
S'B-NP'
p2362
g5
tp2363
a(S'zidovudine'
p2364
S'zidovudine'
p2365
S'NN'
p2366
S'I-NP'
p2367
g5
tp2368
a(S'and'
p2369
S'and'
p2370
S'CC'
p2371
S'I-NP'
p2372
g5
tp2373
a(S'single-dose'
p2374
S'single-dose'
p2375
S'JJ'
p2376
S'I-NP'
p2377
g5
tp2378
a(S'nevirapine'
p2379
S'nevirapine'
p2380
S'NN'
p2381
S'I-NP'
p2382
g5
tp2383
a(S'group'
p2384
S'group'
p2385
S'NN'
p2386
S'I-NP'
p2387
g5
tp2388
a(g101
g101
g101
g5
g5
tp2389
a(S'p=0\xc2\xb702'
p2390
S'p=0\xc2\xb702'
p2391
S'NN'
p2392
S'B-NP'
p2393
S'B-protein'
p2394
tp2395
a(g118
g118
g118
g5
g5
tp2396
a(g141
g141
g141
g5
g5
tp2397
a(S'AIDS-free'
p2398
S'AIDS-free'
p2399
S'JJ'
p2400
S'B-NP'
p2401
g5
tp2402
a(S'survival'
p2403
S'survival'
p2404
S'NN'
p2405
S'I-NP'
p2406
g5
tp2407
a(S'in'
p2408
S'in'
p2409
S'IN'
p2410
S'B-PP'
p2411
g5
tp2412
a(S'mothers'
p2413
S'mother'
p2414
S'NNS'
p2415
S'B-NP'
p2416
g5
tp2417
a(S'at'
p2418
S'at'
p2419
S'IN'
p2420
S'B-PP'
p2421
g5
tp2422
a(S'18'
p2423
S'18'
p2424
S'CD'
p2425
S'B-NP'
p2426
g5
tp2427
a(S'months'
p2428
S'month'
p2429
S'NNS'
p2430
S'I-NP'
p2431
g5
tp2432
a(S'will'
p2433
S'will'
p2434
S'MD'
p2435
S'B-VP'
p2436
g5
tp2437
a(S'be'
p2438
S'be'
p2439
S'VB'
p2440
S'I-VP'
p2441
g5
tp2442
a(S'reported'
p2443
S'report'
p2444
S'VBN'
p2445
S'I-VP'
p2446
g5
tp2447
a(S'in'
p2448
S'in'
p2449
S'IN'
p2450
S'B-PP'
p2451
g5
tp2452
a(g122
g122
S'DT'
p2453
S'B-NP'
p2454
g5
tp2455
a(S'different'
p2456
S'different'
p2457
S'JJ'
p2458
S'I-NP'
p2459
g5
tp2460
a(S'publication.'
p2461
S'publication.'
p2462
S'NN'
p2463
S'I-NP'
p2464
g5
tp2465
a(S'The'
p2466
S'The'
p2467
S'DT'
p2468
S'B-NP'
p2469
g5
tp2470
a(S'incidence'
p2471
S'incidence'
p2472
S'NN'
p2473
S'I-NP'
p2474
g5
tp2475
a(S'of'
p2476
S'of'
p2477
S'IN'
p2478
S'B-PP'
p2479
g5
tp2480
a(S'laboratory'
p2481
S'laboratory'
p2482
S'NN'
p2483
S'B-NP'
p2484
g5
tp2485
a(S'and'
p2486
S'and'
p2487
S'CC'
p2488
g5
g5
tp2489
a(S'clinical'
p2490
S'clinical'
p2491
S'JJ'
p2492
S'B-NP'
p2493
g5
tp2494
a(S'serious'
p2495
S'serious'
p2496
S'JJ'
p2497
S'I-NP'
p2498
g5
tp2499
a(S'adverse'
p2500
S'adverse'
p2501
S'JJ'
p2502
S'I-NP'
p2503
g5
tp2504
a(S'events'
p2505
S'event'
p2506
S'NNS'
p2507
S'I-NP'
p2508
g5
tp2509
a(S'in'
p2510
S'in'
p2511
S'IN'
p2512
S'B-PP'
p2513
g5
tp2514
a(S'both'
p2515
S'both'
p2516
S'CC'
p2517
g5
g5
tp2518
a(S'mothers'
p2519
S'mother'
p2520
S'NNS'
p2521
S'B-NP'
p2522
g5
tp2523
a(S'and'
p2524
S'and'
p2525
S'CC'
p2526
g5
g5
tp2527
a(S'their'
p2528
S'their'
p2529
S'PRP$'
p2530
S'B-NP'
p2531
g5
tp2532
a(S'babies'
p2533
S'baby'
p2534
S'NNS'
p2535
S'I-NP'
p2536
g5
tp2537
a(S'was'
p2538
S'be'
p2539
S'VBD'
p2540
S'B-VP'
p2541
g5
tp2542
a(S'similar'
p2543
S'similar'
p2544
S'JJ'
p2545
S'B-ADJP'
p2546
g5
tp2547
a(S'between'
p2548
S'between'
p2549
S'IN'
p2550
S'B-PP'
p2551
g5
tp2552
a(S'groups'
p2553
S'group'
p2554
S'NNS'
p2555
S'B-NP'
p2556
g5
tp2557
a(g141
g141
g141
g5
g5
tp2558
a(S'INTERPRETATION'
p2559
S'INTERPRETATION'
p2560
S'NN'
p2561
S'B-NP'
p2562
g5
tp2563
a(S'Triple'
p2564
S'Triple'
p2565
S'JJ'
p2566
S'I-NP'
p2567
g5
tp2568
a(S'antiretroviral'
p2569
S'antiretroviral'
p2570
S'JJ'
p2571
S'I-NP'
p2572
g5
tp2573
a(S'prophylaxis'
p2574
S'prophylaxis'
p2575
S'NN'
p2576
S'I-NP'
p2577
g5
tp2578
a(S'during'
p2579
S'during'
p2580
S'IN'
p2581
S'B-PP'
p2582
g5
tp2583
a(S'pregnancy'
p2584
S'pregnancy'
p2585
S'NN'
p2586
S'B-NP'
p2587
g5
tp2588
a(S'and'
p2589
S'and'
p2590
S'CC'
p2591
S'I-NP'
p2592
g5
tp2593
a(S'breastfeeding'
p2594
S'breastfeeding'
p2595
S'NN'
p2596
S'I-NP'
p2597
g5
tp2598
a(S'is'
p2599
S'be'
p2600
S'VBZ'
p2601
S'B-VP'
p2602
g5
tp2603
a(S'safe'
p2604
S'safe'
p2605
S'JJ'
p2606
S'B-ADJP'
p2607
g5
tp2608
a(S'and'
p2609
S'and'
p2610
S'CC'
p2611
g5
g5
tp2612
a(S'reduces'
p2613
S'reduce'
p2614
S'VBZ'
p2615
S'B-VP'
p2616
g5
tp2617
a(S'the'
p2618
S'the'
p2619
S'DT'
p2620
S'B-NP'
p2621
g5
tp2622
a(S'risk'
p2623
S'risk'
p2624
S'NN'
p2625
S'I-NP'
p2626
g5
tp2627
a(S'of'
p2628
S'of'
p2629
S'IN'
p2630
S'B-PP'
p2631
g5
tp2632
a(S'HIV'
p2633
S'HIV'
p2634
S'NN'
p2635
S'B-NP'
p2636
g5
tp2637
a(S'transmission'
p2638
S'transmission'
p2639
S'NN'
p2640
S'I-NP'
p2641
g5
tp2642
a(S'to'
p2643
S'to'
p2644
S'TO'
p2645
S'B-VP'
p2646
g5
tp2647
a(S'infants.'
p2648
S'infants.'
p2649
S'VB'
p2650
S'I-VP'
p2651
g5
tp2652
a(S'Revised'
p2653
S'Revise'
p2654
S'VBN'
p2655
S'I-VP'
p2656
g5
tp2657
a(S'WHO'
p2658
S'WHO'
p2659
S'WP'
p2660
S'B-NP'
p2661
g5
tp2662
a(S'guidelines'
p2663
S'guideline'
p2664
S'NNS'
p2665
S'B-NP'
p2666
g5
tp2667
a(S'now'
p2668
S'now'
p2669
S'RB'
p2670
S'B-ADVP'
p2671
g5
tp2672
a(S'recommend'
p2673
S'recommend'
p2674
S'VBP'
p2675
S'B-VP'
p2676
g5
tp2677
a(S'antiretroviral'
p2678
S'antiretroviral'
p2679
S'JJ'
p2680
S'B-NP'
p2681
g5
tp2682
a(S'prophylaxis'
p2683
S'prophylaxis'
p2684
S'NN'
p2685
S'I-NP'
p2686
g5
tp2687
a(g101
g101
g101
g5
g5
tp2688
a(S'either'
p2689
S'either'
p2690
S'CC'
p2691
S'B-PP'
p2692
g5
tp2693
a(S'to'
p2694
S'to'
p2695
S'TO'
p2696
S'I-PP'
p2697
g5
tp2698
a(S'the'
p2699
S'the'
p2700
S'DT'
p2701
S'B-NP'
p2702
g5
tp2703
a(S'mother'
p2704
S'mother'
p2705
S'NN'
p2706
S'I-NP'
p2707
g5
tp2708
a(S'or'
p2709
S'or'
p2710
S'CC'
p2711
S'B-PP'
p2712
g5
tp2713
a(S'to'
p2714
S'to'
p2715
S'TO'
p2716
S'B-PP'
p2717
g5
tp2718
a(S'the'
p2719
S'the'
p2720
S'DT'
p2721
S'B-NP'
p2722
g5
tp2723
a(S'baby'
p2724
S'baby'
p2725
S'NN'
p2726
S'I-NP'
p2727
g5
tp2728
a(g118
g118
g118
g5
g5
tp2729
a(S'during'
p2730
S'during'
p2731
S'IN'
p2732
S'B-PP'
p2733
g5
tp2734
a(S'breastfeeding'
p2735
S'breastfeed'
p2736
S'VBG'
p2737
S'B-VP'
p2738
g5
tp2739
a(S'if'
p2740
S'if'
p2741
S'IN'
p2742
S'B-SBAR'
p2743
g5
tp2744
a(S'the'
p2745
S'the'
p2746
S'DT'
p2747
S'B-NP'
p2748
g5
tp2749
a(S'mother'
p2750
S'mother'
p2751
S'NN'
p2752
S'I-NP'
p2753
g5
tp2754
a(S'is'
p2755
S'be'
p2756
S'VBZ'
p2757
S'B-VP'
p2758
g5
tp2759
a(S'not'
p2760
S'not'
p2761
S'RB'
p2762
S'I-VP'
p2763
g5
tp2764
a(S'already'
p2765
S'already'
p2766
S'RB'
p2767
S'I-VP'
p2768
g5
tp2769
a(S'receiving'
p2770
S'receive'
p2771
S'VBG'
p2772
S'I-VP'
p2773
g5
tp2774
a(S'antiretroviral'
p2775
S'antiretroviral'
p2776
S'JJ'
p2777
S'B-NP'
p2778
g5
tp2779
a(S'treatment'
p2780
S'treatment'
p2781
S'NN'
p2782
S'I-NP'
p2783
g5
tp2784
a(S'for'
p2785
S'for'
p2786
S'IN'
p2787
S'B-PP'
p2788
g5
tp2789
a(S'her'
p2790
S'her'
p2791
S'PRP$'
p2792
S'B-NP'
p2793
g5
tp2794
a(S'own'
p2795
S'own'
p2796
S'JJ'
p2797
S'I-NP'
p2798
g5
tp2799
a(S'health'
p2800
S'health'
p2801
S'NN'
p2802
S'I-NP'
p2803
g5
tp2804
a(g141
g141
g141
g5
g5
tp2805
a(S'FUNDING'
p2806
S'FUNDING'
p2807
S'VBG'
p2808
S'B-VP'
p2809
g5
tp2810
a(S'Agence'
p2811
S'Agence'
p2812
S'NNP'
p2813
S'B-NP'
p2814
g5
tp2815
a(S'nationale'
p2816
S'nationale'
p2817
S'NNP'
p2818
S'I-NP'
p2819
g5
tp2820
a(S'de'
p2821
S'de'
p2822
S'IN'
p2823
S'B-ADVP'
p2824
g5
tp2825
a(S'recherches'
p2826
S'recherche'
p2827
S'VBZ'
p2828
S'B-VP'
p2829
g5
tp2830
a(S'sur'
p2831
S'sur'
p2832
S'NN'
p2833
S'B-NP'
p2834
g5
tp2835
a(S'le'
p2836
S'le'
p2837
S'JJ'
p2838
S'I-NP'
p2839
g5
tp2840
a(S'sida'
p2841
S'sida'
p2842
S'NN'
p2843
S'I-NP'
p2844
g5
tp2845
a(S'et'
p2846
S'et'
p2847
S'NN'
p2848
S'I-NP'
p2849
g5
tp2850
a(S'les'
p2851
S'le'
p2852
S'NNS'
p2853
S'I-NP'
p2854
g5
tp2855
a(S'h\xc3\xa9patites'
p2856
S'h\xc3\xa9patite'
p2857
S'VBZ'
p2858
S'B-VP'
p2859
g5
tp2860
a(S'virales'
p2861
S'virale'
p2862
S'NNS'
p2863
S'B-NP'
p2864
g5
tp2865
a(g245
g245
g245
g5
g5
tp2866
a(S'Department'
p2867
S'Department'
p2868
S'NNP'
p2869
S'B-NP'
p2870
g5
tp2871
a(S'for'
p2872
S'for'
p2873
S'IN'
p2874
S'B-PP'
p2875
g5
tp2876
a(S'International'
p2877
S'International'
p2878
S'NNP'
p2879
S'B-NP'
p2880
g5
tp2881
a(S'Development'
p2882
S'Development'
p2883
S'NNP'
p2884
S'I-NP'
p2885
g5
tp2886
a(g245
g245
g245
g5
g5
tp2887
a(S'European'
p2888
S'European'
p2889
S'NNP'
p2890
S'B-NP'
p2891
g5
tp2892
a(S'and'
p2893
S'and'
p2894
S'CC'
p2895
S'I-NP'
p2896
g5
tp2897
a(S'Developing'
p2898
S'Developing'
p2899
S'NNP'
p2900
S'I-NP'
p2901
g5
tp2902
a(S'Countries'
p2903
S'Countries'
p2904
S'NNP'
p2905
S'I-NP'
p2906
g5
tp2907
a(S'Clinical'
p2908
S'Clinical'
p2909
S'NNP'
p2910
S'I-NP'
p2911
g5
tp2912
a(S'Trials'
p2913
S'Trials'
p2914
S'NNP'
p2915
S'I-NP'
p2916
g5
tp2917
a(S'Partnership'
p2918
S'Partnership'
p2919
S'NNP'
p2920
S'I-NP'
p2921
g5
tp2922
a(g245
g245
g245
g5
g5
tp2923
a(S'Thrasher'
p2924
S'Thrasher'
p2925
S'NNP'
p2926
S'B-NP'
p2927
g5
tp2928
a(S'Research'
p2929
S'Research'
p2930
S'NNP'
p2931
S'I-NP'
p2932
g5
tp2933
a(S'Fund'
p2934
S'Fund'
p2935
S'NNP'
p2936
S'I-NP'
p2937
g5
tp2938
a(g245
g245
g245
g5
g5
tp2939
a(S'Belgian'
p2940
S'Belgian'
p2941
S'NNP'
p2942
S'B-NP'
p2943
g5
tp2944
a(S'Directorate'
p2945
S'Directorate'
p2946
S'NNP'
p2947
S'I-NP'
p2948
g5
tp2949
a(S'General'
p2950
S'General'
p2951
S'NNP'
p2952
S'I-NP'
p2953
g5
tp2954
a(S'for'
p2955
S'for'
p2956
S'IN'
p2957
S'B-PP'
p2958
g5
tp2959
a(S'International'
p2960
S'International'
p2961
S'NNP'
p2962
S'B-NP'
p2963
g5
tp2964
a(S'Cooperation'
p2965
S'Cooperation'
p2966
S'NNP'
p2967
S'I-NP'
p2968
g5
tp2969
a(g245
g245
g245
g5
g5
tp2970
a(S'Centers'
p2971
S'Centers'
p2972
S'NNP'
p2973
S'B-NP'
p2974
g5
tp2975
a(S'for'
p2976
S'for'
p2977
S'IN'
p2978
S'B-PP'
p2979
g5
tp2980
a(S'Disease'
p2981
S'Disease'
p2982
S'NNP'
p2983
S'B-NP'
p2984
g5
tp2985
a(S'Control'
p2986
S'Control'
p2987
S'NNP'
p2988
S'I-NP'
p2989
g5
tp2990
a(S'and'
p2991
S'and'
p2992
S'CC'
p2993
g5
g5
tp2994
a(S'Prevention'
p2995
S'Prevention'
p2996
S'NN'
p2997
S'B-NP'
p2998
g5
tp2999
a(g245
g245
g245
g5
g5
tp3000
a(S'Eunice'
p3001
S'Eunice'
p3002
S'NNP'
p3003
S'B-NP'
p3004
g5
tp3005
a(S'Kennedy'
p3006
S'Kennedy'
p3007
S'NNP'
p3008
S'I-NP'
p3009
g5
tp3010
a(S'Shriver'
p3011
S'Shriver'
p3012
S'NNP'
p3013
S'I-NP'
p3014
g5
tp3015
a(S'National'
p3016
S'National'
p3017
S'NNP'
p3018
S'I-NP'
p3019
g5
tp3020
a(S'Institute'
p3021
S'Institute'
p3022
S'NNP'
p3023
S'I-NP'
p3024
g5
tp3025
a(S'of'
p3026
S'of'
p3027
S'IN'
p3028
S'B-PP'
p3029
g5
tp3030
a(S'Child'
p3031
S'Child'
p3032
S'NNP'
p3033
S'B-NP'
p3034
g5
tp3035
a(S'Health'
p3036
S'Health'
p3037
S'NNP'
p3038
S'I-NP'
p3039
g5
tp3040
a(S'and'
p3041
S'and'
p3042
S'CC'
p3043
g5
g5
tp3044
a(S'Human'
p3045
S'Human'
p3046
S'NNP'
p3047
S'B-NP'
p3048
g5
tp3049
a(S'Development'
p3050
S'Development'
p3051
S'NNP'
p3052
S'I-NP'
p3053
g5
tp3054
a(g245
g245
g245
g5
g5
tp3055
a(S'and'
p3056
S'and'
p3057
S'CC'
p3058
g5
g5
tp3059
a(S'UNDP/UNFPA/World'
p3060
S'UNDP/UNFPA/World'
p3061
S'NNP'
p3062
S'B-NP'
p3063
g5
tp3064
a(S'Bank/WHO'
p3065
S'Bank/WHO'
p3066
S'NNP'
p3067
S'I-NP'
p3068
g5
tp3069
a(S'Special'
p3070
S'Special'
p3071
S'NNP'
p3072
S'I-NP'
p3073
g5
tp3074
a(S'Programme'
p3075
S'Programme'
p3076
S'NNP'
p3077
S'I-NP'
p3078
g5
tp3079
a(S'of'
p3080
S'of'
p3081
S'IN'
p3082
S'B-PP'
p3083
g5
tp3084
a(S'Research'
p3085
S'Research'
p3086
S'NNP'
p3087
S'B-NP'
p3088
g5
tp3089
a(g245
g245
g245
S'I-NP'
p3090
g5
tp3091
a(S'Development'
p3092
S'Development'
p3093
S'NNP'
p3094
S'I-NP'
p3095
g5
tp3096
a(S'and'
p3097
S'and'
p3098
S'CC'
p3099
S'I-NP'
p3100
g5
tp3101
a(S'Research'
p3102
S'Research'
p3103
S'NNP'
p3104
S'I-NP'
p3105
g5
tp3106
a(S'Training'
p3107
S'Training'
p3108
S'NNP'
p3109
S'I-NP'
p3110
g5
tp3111
a(S'in'
p3112
S'in'
p3113
S'IN'
p3114
S'B-PP'
p3115
g5
tp3116
a(S'Human'
p3117
S'Human'
p3118
S'NNP'
p3119
S'B-NP'
p3120
g5
tp3121
a(S'Reproduction'
p3122
S'Reproduction'
p3123
S'NNP'
p3124
S'I-NP'
p3125
g5
tp3126
a(g141
g141
g141
g5
g5
tp3127
a.