(lp0
(S'Lower'
p1
S'Low'
p2
S'JJR'
p3
S'B-NP'
p4
S'O'
p5
tp6
a(S'extremity'
p7
S'extremity'
p8
S'NN'
p9
S'I-NP'
p10
g5
tp11
a(S'deep'
p12
S'deep'
p13
S'JJ'
p14
S'I-NP'
p15
g5
tp16
a(S'vein'
p17
S'vein'
p18
S'NN'
p19
S'I-NP'
p20
g5
tp21
a(S'thrombosis'
p22
S'thrombosis'
p23
S'NN'
p24
S'I-NP'
p25
g5
tp26
a(S':'
p27
g27
g27
g5
g5
tp28
a(S'a'
p29
g29
S'DT'
p30
S'B-NP'
p31
g5
tp32
a(S'prospective'
p33
S'prospective'
p34
S'JJ'
p35
S'I-NP'
p36
g5
tp37
a(S','
p38
g38
g38
S'I-NP'
p39
g5
tp40
a(S'randomized'
p41
S'randomize'
p42
S'VBN'
p43
S'I-NP'
p44
g5
tp45
a(g38
g38
g38
S'I-NP'
p46
g5
tp47
a(S'controlled'
p48
S'control'
p49
S'VBN'
p50
S'I-NP'
p51
g5
tp52
a(S'trial'
p53
S'trial'
p54
S'NN'
p55
S'I-NP'
p56
g5
tp57
a(S'in'
p58
S'in'
p59
S'IN'
p60
S'B-PP'
p61
g5
tp62
a(S'comatose'
p63
S'comatose'
p64
S'NN'
p65
S'B-NP'
p66
g5
tp67
a(S'or'
p68
S'or'
p69
S'CC'
p70
g5
g5
tp71
a(S'sedated'
p72
S'sedate'
p73
S'VBN'
p74
S'B-VP'
p75
g5
tp76
a(S'patients'
p77
S'patient'
p78
S'NNS'
p79
S'B-NP'
p80
g5
tp81
a(S'undergoing'
p82
S'undergo'
p83
S'VBG'
p84
S'B-VP'
p85
g5
tp86
a(S'femoral'
p87
S'femoral'
p88
S'JJ'
p89
S'B-NP'
p90
g5
tp91
a(S'vein'
p92
S'vein'
p93
S'NN'
p94
S'I-NP'
p95
g5
tp96
a(S'catheterization'
p97
S'catheterization'
p98
S'NN'
p99
S'I-NP'
p100
g5
tp101
a(S'.'
p102
g102
g102
g5
g5
tp103
a(S'OBJECTIVES'
p104
S'OBJECTIVES'
p105
S'NNS'
p106
S'B-NP'
p107
g5
tp108
a(S'To'
p109
S'To'
p110
S'TO'
p111
S'B-VP'
p112
g5
tp113
a(S'determine'
p114
S'determine'
p115
S'VB'
p116
S'I-VP'
p117
g5
tp118
a(S'the'
p119
S'the'
p120
S'DT'
p121
S'B-NP'
p122
g5
tp123
a(S'rate'
p124
S'rate'
p125
S'NN'
p126
S'I-NP'
p127
g5
tp128
a(S'of'
p129
S'of'
p130
S'IN'
p131
S'B-PP'
p132
g5
tp133
a(S'lower'
p134
S'low'
p135
S'JJR'
p136
S'B-NP'
p137
g5
tp138
a(S'extremity'
p139
S'extremity'
p140
S'NN'
p141
S'I-NP'
p142
g5
tp143
a(S'deep'
p144
S'deep'
p145
S'JJ'
p146
S'I-NP'
p147
g5
tp148
a(S'vein'
p149
S'vein'
p150
S'NN'
p151
S'I-NP'
p152
g5
tp153
a(S'thrombosis'
p154
S'thrombosis'
p155
S'NN'
p156
S'I-NP'
p157
g5
tp158
a(S'after'
p159
S'after'
p160
S'IN'
p161
S'B-PP'
p162
g5
tp163
a(S'the'
p164
S'the'
p165
S'DT'
p166
S'B-NP'
p167
g5
tp168
a(S'use'
p169
S'use'
p170
S'NN'
p171
S'I-NP'
p172
g5
tp173
a(S'of'
p174
S'of'
p175
S'IN'
p176
S'B-PP'
p177
g5
tp178
a(S'femoral'
p179
S'femoral'
p180
S'JJ'
p181
S'B-NP'
p182
g5
tp183
a(S'catheters'
p184
S'catheter'
p185
S'NNS'
p186
S'I-NP'
p187
g5
tp188
a(S'in'
p189
S'in'
p190
S'IN'
p191
S'B-PP'
p192
g5
tp193
a(S'intensive'
p194
S'intensive'
p195
S'JJ'
p196
S'B-NP'
p197
g5
tp198
a(S'care'
p199
S'care'
p200
S'NN'
p201
S'I-NP'
p202
g5
tp203
a(S'unit'
p204
S'unit'
p205
S'NN'
p206
S'I-NP'
p207
g5
tp208
a(S'('
p209
g209
g209
g5
g5
tp210
a(S'ICU'
p211
S'ICU'
p212
S'NN'
p213
S'B-NP'
p214
g5
tp215
a(S')'
p216
g216
g216
g5
g5
tp217
a(S'comatose'
p218
S'comatose'
p219
S'NN'
p220
S'B-NP'
p221
g5
tp222
a(S'or'
p223
S'or'
p224
S'CC'
p225
g5
g5
tp226
a(S'sedated'
p227
S'sedate'
p228
S'VBN'
p229
S'B-VP'
p230
g5
tp231
a(S'adults.'
p232
S'adults.'
p233
S'JJ'
p234
S'B-NP'
p235
g5
tp236
a(S'Results'
p237
S'Result'
p238
S'NNS'
p239
S'I-NP'
p240
g5
tp241
a(S'were'
p242
S'be'
p243
S'VBD'
p244
S'B-VP'
p245
g5
tp246
a(S'then'
p247
S'then'
p248
S'RB'
p249
S'I-VP'
p250
g5
tp251
a(S'compared'
p252
S'compare'
p253
S'VBN'
p254
S'I-VP'
p255
g5
tp256
a(S'with'
p257
S'with'
p258
S'IN'
p259
S'B-PP'
p260
g5
tp261
a(S'results'
p262
S'result'
p263
S'NNS'
p264
S'B-NP'
p265
g5
tp266
a(S'of'
p267
S'of'
p268
S'IN'
p269
S'B-PP'
p270
g5
tp271
a(S'patients'
p272
S'patient'
p273
S'NNS'
p274
S'B-NP'
p275
g5
tp276
a(S'undergoing'
p277
S'undergo'
p278
S'VBG'
p279
S'B-VP'
p280
g5
tp281
a(S'superior'
p282
S'superior'
p283
S'JJ'
p284
S'B-NP'
p285
g5
tp286
a(S'vena'
p287
S'vena'
p288
S'NN'
p289
S'I-NP'
p290
g5
tp291
a(S'cava'
p292
S'cava'
p293
S'NN'
p294
S'I-NP'
p295
g5
tp296
a(S'catheterization'
p297
S'catheterization'
p298
S'NN'
p299
S'I-NP'
p300
g5
tp301
a(g102
g102
g102
g5
g5
tp302
a(S'DESIGN'
p303
S'DESIGN'
p304
S'NNP'
p305
S'B-NP'
p306
g5
tp307
a(S'Prospective'
p308
S'Prospective'
p309
S'NNP'
p310
S'I-NP'
p311
g5
tp312
a(g38
g38
g38
g5
g5
tp313
a(S'randomized'
p314
S'randomize'
p315
S'VBN'
p316
S'B-VP'
p317
g5
tp318
a(g38
g38
g38
g5
g5
tp319
a(S'controlled'
p320
S'control'
p321
S'VBN'
p322
S'B-NP'
p323
g5
tp324
a(g38
g38
g38
S'I-NP'
p325
g5
tp326
a(S'unblinded'
p327
S'unblinded'
p328
S'JJ'
p329
S'I-NP'
p330
g5
tp331
a(S'study'
p332
S'study'
p333
S'NN'
p334
S'I-NP'
p335
g5
tp336
a(g102
g102
g102
g5
g5
tp337
a(S'SETTING'
p338
S'SETTING'
p339
S'VBG'
p340
S'B-VP'
p341
g5
tp342
a(S'A'
p343
g343
S'DT'
p344
S'B-NP'
p345
g5
tp346
a(S'mixed'
p347
S'mixed'
p348
S'JJ'
p349
S'I-NP'
p350
g5
tp351
a(S'medical/surgical'
p352
S'medical/surgical'
p353
S'JJ'
p354
S'I-NP'
p355
g5
tp356
a(S'ICU'
p357
S'ICU'
p358
S'NN'
p359
S'I-NP'
p360
g5
tp361
a(S'in'
p362
S'in'
p363
S'IN'
p364
S'B-PP'
p365
g5
tp366
a(g29
g29
S'DT'
p367
S'B-NP'
p368
g5
tp369
a(S'university'
p370
S'university'
p371
S'NN'
p372
S'I-NP'
p373
g5
tp374
a(S'hospital'
p375
S'hospital'
p376
S'NN'
p377
S'I-NP'
p378
g5
tp379
a(g102
g102
g102
g5
g5
tp380
a(S'PATIENTS'
p381
S'PATIENTS'
p382
S'NNS'
p383
S'B-NP'
p384
g5
tp385
a(S'Sixty-one'
p386
S'Sixty-one'
p387
S'CD'
p388
S'B-NP'
p389
g5
tp390
a(S'comatose'
p391
S'comatose'
p392
S'NN'
p393
S'I-NP'
p394
g5
tp395
a(S'or'
p396
S'or'
p397
S'CC'
p398
g5
g5
tp399
a(S'sedated'
p400
S'sedate'
p401
S'VBN'
p402
S'B-NP'
p403
g5
tp404
a(S'patients'
p405
S'patient'
p406
S'NNS'
p407
S'I-NP'
p408
g5
tp409
a(S'admitted'
p410
S'admit'
p411
S'VBN'
p412
S'B-VP'
p413
g5
tp414
a(S'to'
p415
S'to'
p416
S'TO'
p417
S'B-PP'
p418
g5
tp419
a(S'the'
p420
S'the'
p421
S'DT'
p422
S'B-NP'
p423
g5
tp424
a(S'ICU'
p425
S'ICU'
p426
S'NN'
p427
S'I-NP'
p428
S'B-DNA'
p429
tp430
a(S'who'
p431
S'who'
p432
S'WP'
p433
S'B-NP'
p434
g5
tp435
a(S'underwent'
p436
S'undergo'
p437
S'VBD'
p438
S'B-VP'
p439
g5
tp440
a(S'central'
p441
S'central'
p442
S'JJ'
p443
S'B-NP'
p444
g5
tp445
a(S'venous'
p446
S'venous'
p447
S'JJ'
p448
S'I-NP'
p449
g5
tp450
a(S'catheterization'
p451
S'catheterization'
p452
S'NN'
p453
S'I-NP'
p454
g5
tp455
a(g102
g102
g102
g5
g5
tp456
a(S'INTERVENTIONS'
p457
S'INTERVENTIONS'
p458
S'NNS'
p459
S'B-NP'
p460
g5
tp461
a(S'Patients'
p462
S'Patient'
p463
S'NNS'
p464
S'I-NP'
p465
g5
tp466
a(S'were'
p467
S'be'
p468
S'VBD'
p469
S'B-VP'
p470
g5
tp471
a(S'monitored'
p472
S'monitor'
p473
S'VBN'
p474
S'I-VP'
p475
g5
tp476
a(S'for'
p477
S'for'
p478
S'IN'
p479
S'B-PP'
p480
g5
tp481
a(S'signs'
p482
S'sign'
p483
S'NNS'
p484
S'B-NP'
p485
g5
tp486
a(S'of'
p487
S'of'
p488
S'IN'
p489
S'B-PP'
p490
g5
tp491
a(S'thrombotic'
p492
S'thrombotic'
p493
S'JJ'
p494
S'B-NP'
p495
g5
tp496
a(S'complications.'
p497
S'complications.'
p498
S'NN'
p499
S'I-NP'
p500
g5
tp501
a(S'On'
p502
S'On'
p503
S'IN'
p504
S'B-PP'
p505
g5
tp506
a(S'catheter'
p507
S'catheter'
p508
S'NN'
p509
S'B-NP'
p510
g5
tp511
a(S'removal'
p512
S'removal'
p513
S'NN'
p514
S'I-NP'
p515
g5
tp516
a(g38
g38
g38
g5
g5
tp517
a(g29
g29
S'DT'
p518
S'B-NP'
p519
g5
tp520
a(S'lower-extremity'
p521
S'lower-extremity'
p522
S'JJ'
p523
S'I-NP'
p524
g5
tp525
a(S'bilateral'
p526
S'bilateral'
p527
S'JJ'
p528
S'I-NP'
p529
g5
tp530
a(S'phlebographic'
p531
S'phlebographic'
p532
S'JJ'
p533
S'I-NP'
p534
g5
tp535
a(S'examination'
p536
S'examination'
p537
S'NN'
p538
S'I-NP'
p539
g5
tp540
a(S'was'
p541
S'be'
p542
S'VBD'
p543
S'B-VP'
p544
g5
tp545
a(S'performed'
p546
S'perform'
p547
S'VBN'
p548
S'I-VP'
p549
g5
tp550
a(S'in'
p551
S'in'
p552
S'IN'
p553
S'B-PP'
p554
g5
tp555
a(S'each'
p556
S'each'
p557
S'DT'
p558
S'B-NP'
p559
g5
tp560
a(S'patient'
p561
S'patient'
p562
S'NN'
p563
S'I-NP'
p564
g5
tp565
a(g102
g102
g102
g5
g5
tp566
a(S'MEASUREMENTS'
p567
S'MEASUREMENTS'
p568
S'NNS'
p569
S'B-NP'
p570
g5
tp571
a(S'AND'
p572
S'AND'
p573
S'CC'
p574
S'I-NP'
p575
g5
tp576
a(S'MAIN'
p577
S'MAIN'
p578
S'NN'
p579
S'I-NP'
p580
g5
tp581
a(S'RESULTS'
p582
S'RESULTS'
p583
S'NNS'
p584
S'I-NP'
p585
g5
tp586
a(S'After'
p587
S'After'
p588
S'IN'
p589
S'B-PP'
p590
g5
tp591
a(S'randomization'
p592
S'randomization'
p593
S'NN'
p594
S'B-NP'
p595
g5
tp596
a(g38
g38
g38
g5
g5
tp597
a(S'31'
p598
S'31'
p599
S'CD'
p600
S'B-NP'
p601
g5
tp602
a(S'patients'
p603
S'patient'
p604
S'NNS'
p605
S'I-NP'
p606
g5
tp607
a(S'underwent'
p608
S'undergo'
p609
S'VBD'
p610
S'B-VP'
p611
g5
tp612
a(S'femoral'
p613
S'femoral'
p614
S'JJ'
p615
S'B-NP'
p616
g5
tp617
a(S'vein'
p618
S'vein'
p619
S'NN'
p620
S'I-NP'
p621
g5
tp622
a(S'catheterization'
p623
S'catheterization'
p624
S'NN'
p625
S'I-NP'
p626
g5
tp627
a(S'and'
p628
S'and'
p629
S'CC'
p630
g5
g5
tp631
a(S'30'
p632
S'30'
p633
S'CD'
p634
S'B-NP'
p635
g5
tp636
a(S'patients'
p637
S'patient'
p638
S'NNS'
p639
S'I-NP'
p640
g5
tp641
a(S'underwent'
p642
S'undergo'
p643
S'VBD'
p644
S'B-VP'
p645
g5
tp646
a(S'superior'
p647
S'superior'
p648
S'JJ'
p649
S'B-NP'
p650
g5
tp651
a(S'vena'
p652
S'vena'
p653
S'NN'
p654
S'I-NP'
p655
g5
tp656
a(S'cava'
p657
S'cava'
p658
S'NN'
p659
S'I-NP'
p660
g5
tp661
a(S'catheterization'
p662
S'catheterization'
p663
S'NN'
p664
S'I-NP'
p665
g5
tp666
a(g38
g38
g38
g5
g5
tp667
a(S'either'
p668
S'either'
p669
S'CC'
p670
g5
g5
tp671
a(S'by'
p672
S'by'
p673
S'IN'
p674
S'B-PP'
p675
g5
tp676
a(S'axillary'
p677
S'axillary'
p678
S'NN'
p679
S'B-NP'
p680
g5
tp681
a(g209
g209
g209
g5
g5
tp682
a(S'21'
p683
S'21'
p684
S'CD'
p685
S'B-NP'
p686
g5
tp687
a(S'patients'
p688
S'patient'
p689
S'NNS'
p690
S'I-NP'
p691
g5
tp692
a(g216
g216
g216
g5
g5
tp693
a(S'or'
p694
S'or'
p695
S'CC'
p696
g5
g5
tp697
a(S'internal'
p698
S'internal'
p699
S'JJ'
p700
S'B-NP'
p701
g5
tp702
a(S'jugular'
p703
S'jugular'
p704
S'JJ'
p705
S'I-NP'
p706
g5
tp707
a(S'vein'
p708
S'vein'
p709
S'NN'
p710
S'I-NP'
p711
g5
tp712
a(g209
g209
g209
g5
g5
tp713
a(S'10'
p714
S'10'
p715
S'CD'
p716
S'B-NP'
p717
g5
tp718
a(S'patients'
p719
S'patient'
p720
S'NNS'
p721
S'I-NP'
p722
g5
tp723
a(g216
g216
g216
g5
g5
tp724
a(S'cannulation.'
p725
S'cannulation.'
p726
S'MD'
p727
S'B-VP'
p728
g5
tp729
a(S'Single'
p730
S'Single'
p731
S'JJ'
p732
S'B-NP'
p733
g5
tp734
a(S'lumen'
p735
S'lumen'
p736
S'NN'
p737
S'I-NP'
p738
g5
tp739
a(S'polyurethane'
p740
S'polyurethane'
p741
S'NN'
p742
S'I-NP'
p743
g5
tp744
a(S'catheters'
p745
S'catheter'
p746
S'NNS'
p747
S'I-NP'
p748
g5
tp749
a(S'were'
p750
S'be'
p751
S'VBD'
p752
S'B-VP'
p753
g5
tp754
a(S'inserted'
p755
S'insert'
p756
S'VBN'
p757
S'I-VP'
p758
g5
tp759
a(S'for'
p760
S'for'
p761
S'IN'
p762
S'B-PP'
p763
g5
tp764
a(g29
g29
S'DT'
p765
S'B-NP'
p766
g5
tp767
a(S'mean'
p768
S'mean'
p769
S'JJ'
p770
S'I-NP'
p771
g5
tp772
a(S'duration'
p773
S'duration'
p774
S'NN'
p775
S'I-NP'
p776
g5
tp777
a(S'of'
p778
S'of'
p779
S'IN'
p780
S'B-PP'
p781
g5
tp782
a(S'7.1'
p783
S'7.1'
p784
S'CD'
p785
S'B-NP'
p786
g5
tp787
a(S'+/-'
p788
S'+/-'
p789
S'SYM'
p790
S'I-NP'
p791
g5
tp792
a(S'4.6'
p793
S'4.6'
p794
S'CD'
p795
S'I-NP'
p796
g5
tp797
a(g209
g209
g209
g5
g5
tp798
a(S'SD'
p799
S'SD'
p800
S'NN'
p801
S'B-NP'
p802
g5
tp803
a(g216
g216
g216
g5
g5
tp804
a(S'days'
p805
S'day'
p806
S'NNS'
p807
S'B-NP'
p808
g5
tp809
a(S'in'
p810
S'in'
p811
S'IN'
p812
S'B-PP'
p813
g5
tp814
a(S'the'
p815
S'the'
p816
S'DT'
p817
S'B-NP'
p818
g5
tp819
a(S'femoral'
p820
S'femoral'
p821
S'JJ'
p822
S'I-NP'
p823
g5
tp824
a(S'vein'
p825
S'vein'
p826
S'NN'
p827
S'I-NP'
p828
g5
tp829
a(S'group'
p830
S'group'
p831
S'NN'
p832
S'I-NP'
p833
g5
tp834
a(S'and'
p835
S'and'
p836
S'CC'
p837
g5
g5
tp838
a(S'9.9'
p839
S'9.9'
p840
S'CD'
p841
S'B-NP'
p842
g5
tp843
a(S'+/-'
p844
S'+/-'
p845
S'CC'
p846
S'I-NP'
p847
g5
tp848
a(S'5.5'
p849
S'5.5'
p850
S'CD'
p851
S'I-NP'
p852
g5
tp853
a(S'days'
p854
S'day'
p855
S'NNS'
p856
S'I-NP'
p857
g5
tp858
a(S'in'
p859
S'in'
p860
S'IN'
p861
S'B-PP'
p862
g5
tp863
a(S'the'
p864
S'the'
p865
S'DT'
p866
S'B-NP'
p867
g5
tp868
a(S'superior'
p869
S'superior'
p870
S'JJ'
p871
S'I-NP'
p872
g5
tp873
a(S'vena'
p874
S'vena'
p875
S'NN'
p876
S'I-NP'
p877
g5
tp878
a(S'cava'
p879
S'cava'
p880
S'NN'
p881
S'I-NP'
p882
g5
tp883
a(S'group'
p884
S'group'
p885
S'NN'
p886
S'I-NP'
p887
g5
tp888
a(g209
g209
g209
g5
g5
tp889
a(S'p'
p890
g890
S'NN'
p891
S'B-NP'
p892
g5
tp893
a(S'='
p894
g894
S'SYM'
p895
S'B-VP'
p896
g5
tp897
a(S'NS'
p898
S'NS'
p899
S'NN'
p900
S'B-NP'
p901
g5
tp902
a(g216
g216
g216
g5
g5
tp903
a(g102
g102
g102
g5
g5
tp904
a(S'No'
p905
S'No'
p906
S'DT'
p907
S'B-NP'
p908
g5
tp909
a(S'patient'
p910
S'patient'
p911
S'NN'
p912
S'I-NP'
p913
g5
tp914
a(S'had'
p915
S'have'
p916
S'VBD'
p917
S'B-VP'
p918
g5
tp919
a(S'clinical'
p920
S'clinical'
p921
S'JJ'
p922
S'B-NP'
p923
g5
tp924
a(S'signs'
p925
S'sign'
p926
S'NNS'
p927
S'I-NP'
p928
g5
tp929
a(S'of'
p930
S'of'
p931
S'IN'
p932
S'B-PP'
p933
g5
tp934
a(S'leg'
p935
S'leg'
p936
S'NN'
p937
S'B-NP'
p938
g5
tp939
a(S'venous'
p940
S'venous'
p941
S'JJ'
p942
S'I-NP'
p943
g5
tp944
a(S'thrombosis'
p945
S'thrombosis'
p946
S'NN'
p947
S'I-NP'
p948
g5
tp949
a(S'or'
p950
S'or'
p951
S'CC'
p952
g5
g5
tp953
a(S'pulmonary'
p954
S'pulmonary'
p955
S'JJ'
p956
S'B-NP'
p957
g5
tp958
a(S'embolism'
p959
S'embolism'
p960
S'NN'
p961
S'I-NP'
p962
g5
tp963
a(S'during'
p964
S'during'
p965
S'IN'
p966
S'B-PP'
p967
g5
tp968
a(S'the'
p969
S'the'
p970
S'DT'
p971
S'B-NP'
p972
g5
tp973
a(S'study'
p974
S'study'
p975
S'NN'
p976
S'I-NP'
p977
g5
tp978
a(S'period.'
p979
S'period.'
p980
S'NN'
p981
S'I-NP'
p982
g5
tp983
a(S'In'
p984
S'In'
p985
S'IN'
p986
S'B-PP'
p987
g5
tp988
a(S'each'
p989
S'each'
p990
S'DT'
p991
S'B-NP'
p992
g5
tp993
a(S'patient'
p994
S'patient'
p995
S'NN'
p996
S'I-NP'
p997
g5
tp998
a(g38
g38
g38
g5
g5
tp999
a(S'lower'
p1000
S'low'
p1001
S'JJR'
p1002
S'B-NP'
p1003
g5
tp1004
a(S'extremity'
p1005
S'extremity'
p1006
S'NN'
p1007
S'I-NP'
p1008
g5
tp1009
a(S'bilateral'
p1010
S'bilateral'
p1011
S'JJ'
p1012
S'I-NP'
p1013
g5
tp1014
a(S'phlebography'
p1015
S'phlebography'
p1016
S'NN'
p1017
S'I-NP'
p1018
g5
tp1019
a(S'was'
p1020
S'be'
p1021
S'VBD'
p1022
S'B-VP'
p1023
g5
tp1024
a(S'performed'
p1025
S'perform'
p1026
S'VBN'
p1027
S'I-VP'
p1028
g5
tp1029
a(S'at'
p1030
S'at'
p1031
S'IN'
p1032
S'B-PP'
p1033
g5
tp1034
a(S'the'
p1035
S'the'
p1036
S'DT'
p1037
S'B-NP'
p1038
g5
tp1039
a(S'time'
p1040
S'time'
p1041
S'NN'
p1042
S'I-NP'
p1043
g5
tp1044
a(S'of'
p1045
S'of'
p1046
S'IN'
p1047
S'B-PP'
p1048
g5
tp1049
a(S'catheter'
p1050
S'catheter'
p1051
S'NN'
p1052
S'B-NP'
p1053
g5
tp1054
a(S'removal.'
p1055
S'removal.'
p1056
S'NN'
p1057
S'I-NP'
p1058
g5
tp1059
a(S'Leg'
p1060
S'Leg'
p1061
S'NNP'
p1062
S'I-NP'
p1063
g5
tp1064
a(S'phlebographies'
p1065
S'phlebography'
p1066
S'NNS'
p1067
S'I-NP'
p1068
g5
tp1069
a(S'were'
p1070
S'be'
p1071
S'VBD'
p1072
S'B-VP'
p1073
g5
tp1074
a(S'normal'
p1075
S'normal'
p1076
S'JJ'
p1077
S'B-ADJP'
p1078
g5
tp1079
a(S'in'
p1080
S'in'
p1081
S'IN'
p1082
S'B-PP'
p1083
g5
tp1084
a(S'18'
p1085
S'18'
p1086
S'CD'
p1087
S'B-NP'
p1088
g5
tp1089
a(g209
g209
g209
g5
g5
tp1090
a(S'60'
p1091
S'60'
p1092
S'CD'
p1093
S'B-NP'
p1094
g5
tp1095
a(S'%'
p1096
g1096
S'NN'
p1097
S'I-NP'
p1098
g5
tp1099
a(g216
g216
g216
g5
g5
tp1100
a(S'patients'
p1101
S'patient'
p1102
S'NNS'
p1103
S'B-NP'
p1104
g5
tp1105
a(S'in'
p1106
S'in'
p1107
S'IN'
p1108
S'B-PP'
p1109
g5
tp1110
a(S'the'
p1111
S'the'
p1112
S'DT'
p1113
S'B-NP'
p1114
g5
tp1115
a(S'femoral'
p1116
S'femoral'
p1117
S'JJ'
p1118
S'I-NP'
p1119
g5
tp1120
a(S'vein'
p1121
S'vein'
p1122
S'NN'
p1123
S'I-NP'
p1124
g5
tp1125
a(S'group'
p1126
S'group'
p1127
S'NN'
p1128
S'I-NP'
p1129
g5
tp1130
a(S'and'
p1131
S'and'
p1132
S'CC'
p1133
g5
g5
tp1134
a(S'26'
p1135
S'26'
p1136
S'CD'
p1137
S'B-NP'
p1138
g5
tp1139
a(g209
g209
g209
g5
g5
tp1140
a(S'84'
p1141
S'84'
p1142
S'CD'
p1143
S'B-NP'
p1144
g5
tp1145
a(g1096
g1096
S'NN'
p1146
S'I-NP'
p1147
g5
tp1148
a(g216
g216
g216
g5
g5
tp1149
a(S'patients'
p1150
S'patient'
p1151
S'NNS'
p1152
S'B-NP'
p1153
g5
tp1154
a(S'in'
p1155
S'in'
p1156
S'IN'
p1157
S'B-PP'
p1158
g5
tp1159
a(S'the'
p1160
S'the'
p1161
S'DT'
p1162
S'B-NP'
p1163
g5
tp1164
a(S'superior'
p1165
S'superior'
p1166
S'JJ'
p1167
S'I-NP'
p1168
g5
tp1169
a(S'vena'
p1170
S'vena'
p1171
S'NN'
p1172
S'I-NP'
p1173
g5
tp1174
a(S'cava'
p1175
S'cava'
p1176
S'NN'
p1177
S'I-NP'
p1178
g5
tp1179
a(S'group.'
p1180
S'group.'
p1181
S'NN'
p1182
S'I-NP'
p1183
g5
tp1184
a(S'Fibrin'
p1185
S'Fibrin'
p1186
S'NN'
p1187
S'I-NP'
p1188
g5
tp1189
a(S'sleeves'
p1190
S'sleeve'
p1191
S'NNS'
p1192
S'I-NP'
p1193
g5
tp1194
a(S'which'
p1195
S'which'
p1196
S'WDT'
p1197
S'B-NP'
p1198
g5
tp1199
a(S'developed'
p1200
S'develop'
p1201
S'VBD'
p1202
S'B-VP'
p1203
g5
tp1204
a(S'around'
p1205
S'around'
p1206
S'IN'
p1207
S'B-PP'
p1208
g5
tp1209
a(S'the'
p1210
S'the'
p1211
S'DT'
p1212
S'B-NP'
p1213
g5
tp1214
a(S'femoral'
p1215
S'femoral'
p1216
S'JJ'
p1217
S'I-NP'
p1218
g5
tp1219
a(S'catheters'
p1220
S'catheter'
p1221
S'NNS'
p1222
S'I-NP'
p1223
g5
tp1224
a(S'were'
p1225
S'be'
p1226
S'VBD'
p1227
S'B-VP'
p1228
g5
tp1229
a(S'seen'
p1230
S'see'
p1231
S'VBN'
p1232
S'I-VP'
p1233
g5
tp1234
a(S'in'
p1235
S'in'
p1236
S'IN'
p1237
S'B-PP'
p1238
g5
tp1239
a(S'seven'
p1240
S'seven'
p1241
S'CD'
p1242
S'B-NP'
p1243
g5
tp1244
a(g209
g209
g209
g5
g5
tp1245
a(S'23.3'
p1246
S'23.3'
p1247
S'CD'
p1248
S'B-NP'
p1249
g5
tp1250
a(g1096
g1096
S'NN'
p1251
S'I-NP'
p1252
g5
tp1253
a(g216
g216
g216
g5
g5
tp1254
a(S'patients'
p1255
S'patient'
p1256
S'NNS'
p1257
S'B-NP'
p1258
g5
tp1259
a(S'in'
p1260
S'in'
p1261
S'IN'
p1262
S'B-PP'
p1263
g5
tp1264
a(S'the'
p1265
S'the'
p1266
S'DT'
p1267
S'B-NP'
p1268
g5
tp1269
a(S'femoral'
p1270
S'femoral'
p1271
S'JJ'
p1272
S'I-NP'
p1273
g5
tp1274
a(S'vein'
p1275
S'vein'
p1276
S'NN'
p1277
S'I-NP'
p1278
g5
tp1279
a(S'group'
p1280
S'group'
p1281
S'NN'
p1282
S'I-NP'
p1283
g5
tp1284
a(S'and'
p1285
S'and'
p1286
S'CC'
p1287
S'B-PP'
p1288
g5
tp1289
a(S'in'
p1290
S'in'
p1291
S'IN'
p1292
S'B-PP'
p1293
g5
tp1294
a(S'no'
p1295
S'no'
p1296
S'DT'
p1297
S'B-NP'
p1298
g5
tp1299
a(S'patients'
p1300
S'patient'
p1301
S'NNS'
p1302
S'I-NP'
p1303
g5
tp1304
a(S'in'
p1305
S'in'
p1306
S'IN'
p1307
S'B-PP'
p1308
g5
tp1309
a(S'the'
p1310
S'the'
p1311
S'DT'
p1312
S'B-NP'
p1313
g5
tp1314
a(S'superior'
p1315
S'superior'
p1316
S'JJ'
p1317
S'I-NP'
p1318
g5
tp1319
a(S'vena'
p1320
S'vena'
p1321
S'NN'
p1322
S'I-NP'
p1323
g5
tp1324
a(S'cava'
p1325
S'cava'
p1326
S'NN'
p1327
S'I-NP'
p1328
g5
tp1329
a(S'cannulation'
p1330
S'cannulation'
p1331
S'NN'
p1332
S'I-NP'
p1333
g5
tp1334
a(S'group.'
p1335
S'group.'
p1336
S'NN'
p1337
S'I-NP'
p1338
g5
tp1339
a(S'Three'
p1340
S'Three'
p1341
S'CD'
p1342
S'B-NP'
p1343
g5
tp1344
a(S'patients'
p1345
S'patient'
p1346
S'NNS'
p1347
S'I-NP'
p1348
g5
tp1349
a(S'had'
p1350
S'have'
p1351
S'VBD'
p1352
S'B-VP'
p1353
g5
tp1354
a(S'femoral'
p1355
S'femoral'
p1356
S'JJ'
p1357
S'B-NP'
p1358
g5
tp1359
a(S'vein'
p1360
S'vein'
p1361
S'NN'
p1362
S'I-NP'
p1363
g5
tp1364
a(S'thrombosis'
p1365
S'thrombosis'
p1366
S'NN'
p1367
S'I-NP'
p1368
g5
tp1369
a(g38
g38
g38
g5
g5
tp1370
a(S'two'
p1371
S'two'
p1372
S'CD'
p1373
S'B-NP'
p1374
g5
tp1375
a(g209
g209
g209
g5
g5
tp1376
a(S'6.6'
p1377
S'6.6'
p1378
S'CD'
p1379
S'B-NP'
p1380
g5
tp1381
a(g1096
g1096
S'NN'
p1382
S'I-NP'
p1383
g5
tp1384
a(g216
g216
g216
g5
g5
tp1385
a(S'patients'
p1386
S'patient'
p1387
S'NNS'
p1388
S'B-NP'
p1389
g5
tp1390
a(S'in'
p1391
S'in'
p1392
S'IN'
p1393
S'B-PP'
p1394
g5
tp1395
a(S'the'
p1396
S'the'
p1397
S'DT'
p1398
S'B-NP'
p1399
g5
tp1400
a(S'femoral'
p1401
S'femoral'
p1402
S'JJ'
p1403
S'I-NP'
p1404
g5
tp1405
a(S'vein'
p1406
S'vein'
p1407
S'NN'
p1408
S'I-NP'
p1409
g5
tp1410
a(S'group'
p1411
S'group'
p1412
S'NN'
p1413
S'I-NP'
p1414
g5
tp1415
a(g209
g209
g209
g5
g5
tp1416
a(S'two'
p1417
S'two'
p1418
S'CD'
p1419
S'B-NP'
p1420
g5
tp1421
a(S'nonobstructive'
p1422
S'nonobstructive'
p1423
S'JJ'
p1424
S'I-NP'
p1425
g5
tp1426
a(S'thromboses'
p1427
S'thrombos'
p1428
S'NNS'
p1429
S'I-NP'
p1430
g5
tp1431
a(g38
g38
g38
g5
g5
tp1432
a(S'adherent'
p1433
S'adherent'
p1434
S'JJ'
p1435
S'B-ADJP'
p1436
g5
tp1437
a(S'to'
p1438
S'to'
p1439
S'TO'
p1440
S'B-PP'
p1441
g5
tp1442
a(S'the'
p1443
S'the'
p1444
S'DT'
p1445
S'B-NP'
p1446
g5
tp1447
a(S'common'
p1448
S'common'
p1449
S'JJ'
p1450
S'I-NP'
p1451
g5
tp1452
a(S'femoral'
p1453
S'femoral'
p1454
S'JJ'
p1455
S'I-NP'
p1456
g5
tp1457
a(S'vein'
p1458
S'vein'
p1459
S'NN'
p1460
S'I-NP'
p1461
g5
tp1462
a(S'wall'
p1463
S'wall'
p1464
S'NN'
p1465
S'I-NP'
p1466
g5
tp1467
a(g216
g216
g216
g5
g5
tp1468
a(S'and'
p1469
S'and'
p1470
S'CC'
p1471
g5
g5
tp1472
a(S'one'
p1473
S'one'
p1474
S'CD'
p1475
S'B-NP'
p1476
g5
tp1477
a(g209
g209
g209
g5
g5
tp1478
a(S'3.0'
p1479
S'3.0'
p1480
S'CD'
p1481
S'B-NP'
p1482
g5
tp1483
a(g1096
g1096
S'NN'
p1484
S'I-NP'
p1485
g5
tp1486
a(g216
g216
g216
g5
g5
tp1487
a(S'patient'
p1488
S'patient'
p1489
S'NN'
p1490
S'B-NP'
p1491
g5
tp1492
a(S'in'
p1493
S'in'
p1494
S'IN'
p1495
S'B-PP'
p1496
g5
tp1497
a(S'the'
p1498
S'the'
p1499
S'DT'
p1500
S'B-NP'
p1501
g5
tp1502
a(S'superior'
p1503
S'superior'
p1504
S'JJ'
p1505
S'I-NP'
p1506
g5
tp1507
a(S'vena'
p1508
S'vena'
p1509
S'NN'
p1510
S'I-NP'
p1511
g5
tp1512
a(S'cava'
p1513
S'cava'
p1514
S'NN'
p1515
S'I-NP'
p1516
g5
tp1517
a(S'group'
p1518
S'group'
p1519
S'NN'
p1520
S'I-NP'
p1521
g5
tp1522
a(g209
g209
g209
g5
g5
tp1523
a(S'nonobstructive'
p1524
S'nonobstructive'
p1525
S'JJ'
p1526
S'B-NP'
p1527
g5
tp1528
a(S'thrombosis'
p1529
S'thrombosis'
p1530
S'NN'
p1531
S'I-NP'
p1532
g5
tp1533
a(S'which'
p1534
S'which'
p1535
S'WDT'
p1536
S'B-NP'
p1537
g5
tp1538
a(S'developed'
p1539
S'develop'
p1540
S'VBD'
p1541
S'B-VP'
p1542
g5
tp1543
a(S'in'
p1544
S'in'
p1545
S'IN'
p1546
S'B-PP'
p1547
g5
tp1548
a(S'the'
p1549
S'the'
p1550
S'DT'
p1551
S'B-NP'
p1552
g5
tp1553
a(S'superficial'
p1554
S'superficial'
p1555
S'JJ'
p1556
S'I-NP'
p1557
g5
tp1558
a(S'femoral'
p1559
S'femoral'
p1560
S'JJ'
p1561
S'I-NP'
p1562
g5
tp1563
a(S'vein'
p1564
S'vein'
p1565
S'NN'
p1566
S'I-NP'
p1567
g5
tp1568
a(g216
g216
g216
g5
g5
tp1569
a(g209
g209
g209
g5
g5
tp1570
a(g890
g890
S'NN'
p1571
S'B-NP'
p1572
g5
tp1573
a(g894
g894
S'SYM'
p1574
S'B-VP'
p1575
g5
tp1576
a(S'NS'
p1577
S'NS'
p1578
S'NN'
p1579
S'B-NP'
p1580
g5
tp1581
a(g216
g216
g216
g5
g5
tp1582
a(g102
g102
g102
g5
g5
tp1583
a(S'Lower'
p1584
S'Low'
p1585
S'JJR'
p1586
S'B-NP'
p1587
g5
tp1588
a(S'deep'
p1589
S'deep'
p1590
S'JJ'
p1591
S'I-NP'
p1592
g5
tp1593
a(S'extremities'
p1594
S'extremity'
p1595
S'NNS'
p1596
S'I-NP'
p1597
g5
tp1598
a(S'thrombosis'
p1599
S'thrombosis'
p1600
S'NN'
p1601
S'I-NP'
p1602
g5
tp1603
a(S'developed'
p1604
S'develop'
p1605
S'VBD'
p1606
S'B-VP'
p1607
g5
tp1608
a(S'in'
p1609
S'in'
p1610
S'IN'
p1611
S'B-PP'
p1612
g5
tp1613
a(S'five'
p1614
S'five'
p1615
S'CD'
p1616
S'B-NP'
p1617
g5
tp1618
a(g209
g209
g209
g5
g5
tp1619
a(S'16.7'
p1620
S'16.7'
p1621
S'CD'
p1622
S'B-NP'
p1623
g5
tp1624
a(g1096
g1096
S'NN'
p1625
S'I-NP'
p1626
g5
tp1627
a(g216
g216
g216
g5
g5
tp1628
a(S'patients'
p1629
S'patient'
p1630
S'NNS'
p1631
S'B-NP'
p1632
g5
tp1633
a(S'in'
p1634
S'in'
p1635
S'IN'
p1636
S'B-PP'
p1637
g5
tp1638
a(S'the'
p1639
S'the'
p1640
S'DT'
p1641
S'B-NP'
p1642
g5
tp1643
a(S'femoral'
p1644
S'femoral'
p1645
S'JJ'
p1646
S'I-NP'
p1647
g5
tp1648
a(S'vein'
p1649
S'vein'
p1650
S'NN'
p1651
S'I-NP'
p1652
g5
tp1653
a(S'group'
p1654
S'group'
p1655
S'NN'
p1656
S'I-NP'
p1657
g5
tp1658
a(S'and'
p1659
S'and'
p1660
S'CC'
p1661
g5
g5
tp1662
a(S'in'
p1663
S'in'
p1664
S'IN'
p1665
S'B-PP'
p1666
g5
tp1667
a(S'five'
p1668
S'five'
p1669
S'CD'
p1670
S'B-NP'
p1671
g5
tp1672
a(g209
g209
g209
g5
g5
tp1673
a(S'16'
p1674
S'16'
p1675
S'CD'
p1676
S'B-NP'
p1677
g5
tp1678
a(g1096
g1096
S'NN'
p1679
S'I-NP'
p1680
g5
tp1681
a(g216
g216
g216
g5
g5
tp1682
a(S'patients'
p1683
S'patient'
p1684
S'NNS'
p1685
S'B-NP'
p1686
g5
tp1687
a(S'in'
p1688
S'in'
p1689
S'IN'
p1690
S'B-PP'
p1691
g5
tp1692
a(S'the'
p1693
S'the'
p1694
S'DT'
p1695
S'B-NP'
p1696
g5
tp1697
a(S'superior'
p1698
S'superior'
p1699
S'JJ'
p1700
S'I-NP'
p1701
g5
tp1702
a(S'vena'
p1703
S'vena'
p1704
S'NN'
p1705
S'I-NP'
p1706
g5
tp1707
a(S'cava'
p1708
S'cava'
p1709
S'NN'
p1710
S'I-NP'
p1711
g5
tp1712
a(S'group'
p1713
S'group'
p1714
S'NN'
p1715
S'I-NP'
p1716
g5
tp1717
a(g209
g209
g209
g5
g5
tp1718
a(g890
g890
S'NN'
p1719
S'B-NP'
p1720
g5
tp1721
a(g894
g894
S'SYM'
p1722
S'B-VP'
p1723
g5
tp1724
a(S'NS'
p1725
S'NS'
p1726
S'NN'
p1727
S'B-NP'
p1728
g5
tp1729
a(g216
g216
g216
g5
g5
tp1730
a(g102
g102
g102
g5
g5
tp1731
a(S'CONCLUSIONS'
p1732
S'CONCLUSIONS'
p1733
S'NNS'
p1734
S'B-NP'
p1735
g5
tp1736
a(S'Femoral'
p1737
S'Femoral'
p1738
S'JJ'
p1739
S'I-NP'
p1740
g5
tp1741
a(S'vein'
p1742
S'vein'
p1743
S'NN'
p1744
S'I-NP'
p1745
g5
tp1746
a(S'catheterization'
p1747
S'catheterization'
p1748
S'NN'
p1749
S'I-NP'
p1750
g5
tp1751
a(S'with'
p1752
S'with'
p1753
S'IN'
p1754
S'B-PP'
p1755
g5
tp1756
a(g29
g29
S'DT'
p1757
S'B-NP'
p1758
g5
tp1759
a(S'polyurethane'
p1760
S'polyurethane'
p1761
S'NN'
p1762
S'I-NP'
p1763
g5
tp1764
a(S'catheter'
p1765
S'catheter'
p1766
S'NN'
p1767
S'I-NP'
p1768
g5
tp1769
a(S'is'
p1770
S'be'
p1771
S'VBZ'
p1772
S'B-VP'
p1773
g5
tp1774
a(S'associated'
p1775
S'associate'
p1776
S'VBN'
p1777
S'I-VP'
p1778
g5
tp1779
a(S'with'
p1780
S'with'
p1781
S'IN'
p1782
S'B-PP'
p1783
g5
tp1784
a(g29
g29
S'DT'
p1785
S'B-NP'
p1786
g5
tp1787
a(S'lower'
p1788
S'low'
p1789
S'JJR'
p1790
S'I-NP'
p1791
g5
tp1792
a(S'rate'
p1793
S'rate'
p1794
S'NN'
p1795
S'I-NP'
p1796
g5
tp1797
a(S'of'
p1798
S'of'
p1799
S'IN'
p1800
S'B-PP'
p1801
g5
tp1802
a(S'extremity'
p1803
S'extremity'
p1804
S'NN'
p1805
S'B-NP'
p1806
g5
tp1807
a(S'deep'
p1808
S'deep'
p1809
S'JJ'
p1810
S'I-NP'
p1811
g5
tp1812
a(S'vein'
p1813
S'vein'
p1814
S'NN'
p1815
S'I-NP'
p1816
g5
tp1817
a(S'thrombosis'
p1818
S'thrombosis'
p1819
S'NN'
p1820
S'I-NP'
p1821
g5
tp1822
a(S'which'
p1823
S'which'
p1824
S'WDT'
p1825
S'B-NP'
p1826
g5
tp1827
a(S'is'
p1828
S'be'
p1829
S'VBZ'
p1830
S'B-VP'
p1831
g5
tp1832
a(S'similar'
p1833
S'similar'
p1834
S'JJ'
p1835
S'B-ADJP'
p1836
g5
tp1837
a(S'to'
p1838
S'to'
p1839
S'TO'
p1840
S'B-PP'
p1841
g5
tp1842
a(S'the'
p1843
S'the'
p1844
S'DT'
p1845
S'B-NP'
p1846
g5
tp1847
a(S'rate'
p1848
S'rate'
p1849
S'NN'
p1850
S'I-NP'
p1851
g5
tp1852
a(S'observed'
p1853
S'observe'
p1854
S'VBN'
p1855
S'B-VP'
p1856
g5
tp1857
a(S'after'
p1858
S'after'
p1859
S'IN'
p1860
S'B-PP'
p1861
g5
tp1862
a(S'superior'
p1863
S'superior'
p1864
S'JJ'
p1865
S'B-NP'
p1866
g5
tp1867
a(S'vena'
p1868
S'vena'
p1869
S'NN'
p1870
S'I-NP'
p1871
g5
tp1872
a(S'cannulation'
p1873
S'cannulation'
p1874
S'NN'
p1875
S'I-NP'
p1876
g5
tp1877
a(S'in'
p1878
S'in'
p1879
S'IN'
p1880
S'B-PP'
p1881
g5
tp1882
a(S'comatose'
p1883
S'comatose'
p1884
S'NN'
p1885
S'B-NP'
p1886
g5
tp1887
a(S'or'
p1888
S'or'
p1889
S'CC'
p1890
g5
g5
tp1891
a(S'sedated'
p1892
S'sedate'
p1893
S'VBN'
p1894
S'B-NP'
p1895
g5
tp1896
a(S'patients.'
p1897
S'patients.'
p1898
S'NN'
p1899
S'I-NP'
p1900
g5
tp1901
a(S'Femoral'
p1902
S'Femoral'
p1903
S'JJ'
p1904
S'I-NP'
p1905
g5
tp1906
a(S'vein'
p1907
S'vein'
p1908
S'NN'
p1909
S'I-NP'
p1910
g5
tp1911
a(S'thrombosis'
p1912
S'thrombosis'
p1913
S'NN'
p1914
S'I-NP'
p1915
g5
tp1916
a(S'was'
p1917
S'be'
p1918
S'VBD'
p1919
S'B-VP'
p1920
g5
tp1921
a(S'observed'
p1922
S'observe'
p1923
S'VBN'
p1924
S'I-VP'
p1925
g5
tp1926
a(S'at'
p1927
S'at'
p1928
S'IN'
p1929
S'B-PP'
p1930
g5
tp1931
a(g29
g29
S'DT'
p1932
S'B-NP'
p1933
g5
tp1934
a(S'rate'
p1935
S'rate'
p1936
S'NN'
p1937
S'I-NP'
p1938
g5
tp1939
a(S'of'
p1940
S'of'
p1941
S'IN'
p1942
S'B-PP'
p1943
g5
tp1944
a(S'6.6'
p1945
S'6.6'
p1946
S'CD'
p1947
S'B-NP'
p1948
g5
tp1949
a(g1096
g1096
S'NN'
p1950
S'I-NP'
p1951
g5
tp1952
a(S'after'
p1953
S'after'
p1954
S'IN'
p1955
S'B-PP'
p1956
g5
tp1957
a(S'femoral'
p1958
S'femoral'
p1959
S'JJ'
p1960
S'B-NP'
p1961
g5
tp1962
a(S'vein'
p1963
S'vein'
p1964
S'NN'
p1965
S'I-NP'
p1966
g5
tp1967
a(S'cannulation'
p1968
S'cannulation'
p1969
S'NN'
p1970
S'I-NP'
p1971
g5
tp1972
a(S'and'
p1973
S'and'
p1974
S'CC'
p1975
g5
g5
tp1976
a(g29
g29
S'DT'
p1977
S'B-NP'
p1978
g5
tp1979
a(S'rate'
p1980
S'rate'
p1981
S'NN'
p1982
S'I-NP'
p1983
g5
tp1984
a(S'of'
p1985
S'of'
p1986
S'IN'
p1987
S'B-PP'
p1988
g5
tp1989
a(S'3'
p1990
g1990
S'CD'
p1991
S'B-NP'
p1992
g5
tp1993
a(g1096
g1096
S'NN'
p1994
S'I-NP'
p1995
g5
tp1996
a(S'after'
p1997
S'after'
p1998
S'IN'
p1999
S'B-PP'
p2000
g5
tp2001
a(S'superior'
p2002
S'superior'
p2003
S'JJ'
p2004
S'B-NP'
p2005
g5
tp2006
a(S'vena'
p2007
S'vena'
p2008
S'NN'
p2009
S'I-NP'
p2010
g5
tp2011
a(S'cava'
p2012
S'cava'
p2013
S'NN'
p2014
S'I-NP'
p2015
g5
tp2016
a(S'cannulation.'
p2017
S'cannulation.'
p2018
S'MD'
p2019
S'B-VP'
p2020
g5
tp2021
a(S'Given'
p2022
S'Given'
p2023
S'VB'
p2024
S'I-VP'
p2025
g5
tp2026
a(S'the'
p2027
S'the'
p2028
S'DT'
p2029
S'B-NP'
p2030
g5
tp2031
a(S'acceptable'
p2032
S'acceptable'
p2033
S'JJ'
p2034
S'I-NP'
p2035
g5
tp2036
a(S'rate'
p2037
S'rate'
p2038
S'NN'
p2039
S'I-NP'
p2040
g5
tp2041
a(S'of'
p2042
S'of'
p2043
S'IN'
p2044
S'B-PP'
p2045
g5
tp2046
a(S'this'
p2047
S'this'
p2048
S'DT'
p2049
S'B-NP'
p2050
g5
tp2051
a(S'clinically'
p2052
S'clinically'
p2053
S'RB'
p2054
S'I-NP'
p2055
g5
tp2056
a(S'important'
p2057
S'important'
p2058
S'JJ'
p2059
S'I-NP'
p2060
g5
tp2061
a(S'complication'
p2062
S'complication'
p2063
S'NN'
p2064
S'I-NP'
p2065
g5
tp2066
a(g38
g38
g38
g5
g5
tp2067
a(S'femoral'
p2068
S'femoral'
p2069
S'JJ'
p2070
S'B-NP'
p2071
g5
tp2072
a(S'vein'
p2073
S'vein'
p2074
S'NN'
p2075
S'I-NP'
p2076
g5
tp2077
a(S'cannulation'
p2078
S'cannulation'
p2079
S'NN'
p2080
S'I-NP'
p2081
g5
tp2082
a(S'offers'
p2083
S'offer'
p2084
S'VBZ'
p2085
S'B-VP'
p2086
g5
tp2087
a(S'an'
p2088
S'an'
p2089
S'DT'
p2090
S'B-NP'
p2091
g5
tp2092
a(S'attractive'
p2093
S'attractive'
p2094
S'JJ'
p2095
S'I-NP'
p2096
g5
tp2097
a(S'alternative'
p2098
S'alternative'
p2099
S'NN'
p2100
S'I-NP'
p2101
g5
tp2102
a(S'to'
p2103
S'to'
p2104
S'TO'
p2105
S'B-PP'
p2106
g5
tp2107
a(S'insertion'
p2108
S'insertion'
p2109
S'NN'
p2110
S'B-NP'
p2111
g5
tp2112
a(S'via'
p2113
S'via'
p2114
S'IN'
p2115
S'B-PP'
p2116
g5
tp2117
a(S'the'
p2118
S'the'
p2119
S'DT'
p2120
S'B-NP'
p2121
g5
tp2122
a(S'vena'
p2123
S'vena'
p2124
S'NN'
p2125
S'I-NP'
p2126
g5
tp2127
a(S'cava'
p2128
S'cava'
p2129
S'NN'
p2130
S'I-NP'
p2131
g5
tp2132
a(S'in'
p2133
S'in'
p2134
S'IN'
p2135
S'B-PP'
p2136
g5
tp2137
a(S'the'
p2138
S'the'
p2139
S'DT'
p2140
g5
g5
tp2141
a(S'critically'
p2142
S'critically'
p2143
S'RB'
p2144
S'B-ADVP'
p2145
g5
tp2146
a(S'ill'
p2147
S'ill'
p2148
S'RB'
p2149
S'I-ADVP'
p2150
g5
tp2151
a(g102
g102
g102
g5
g5
tp2152
a.