(lp0
(S'Determining'
p1
S'Determine'
p2
S'VBG'
p3
S'B-VP'
p4
S'O'
p5
tp6
a(S'the'
p7
S'the'
p8
S'DT'
p9
S'B-NP'
p10
g5
tp11
a(S'trough-to-peak'
p12
S'trough-to-peak'
p13
S'JJ'
p14
S'I-NP'
p15
g5
tp16
a(S'ratio'
p17
S'ratio'
p18
S'NN'
p19
S'I-NP'
p20
g5
tp21
a(S'in'
p22
S'in'
p23
S'IN'
p24
S'B-PP'
p25
g5
tp26
a(S'parallel-group'
p27
S'parallel-group'
p28
S'JJ'
p29
S'B-NP'
p30
g5
tp31
a(S'trials.'
p32
S'trials.'
p33
S'NN'
p34
S'I-NP'
p35
g5
tp36
a(S'Systolic'
p37
S'Systolic'
p38
S'JJ'
p39
S'I-NP'
p40
g5
tp41
a(S'Hypertension'
p42
S'Hypertension'
p43
S'NN'
p44
S'I-NP'
p45
g5
tp46
a(S'in'
p47
S'in'
p48
S'IN'
p49
S'B-PP'
p50
g5
tp51
a(S'Europe'
p52
S'Europe'
p53
S'NNP'
p54
S'B-NP'
p55
g5
tp56
a(S'('
p57
g57
g57
g5
g5
tp58
a(S'SYST-EUR'
p59
S'SYST-EUR'
p60
S'NN'
p61
S'B-NP'
p62
g5
tp63
a(S')'
p64
g64
g64
g5
g5
tp65
a(S'Trial'
p66
S'Trial'
p67
S'NNP'
p68
S'B-NP'
p69
g5
tp70
a(S'Investigators'
p71
S'Investigator'
p72
S'NNPS'
p73
S'I-NP'
p74
g5
tp75
a(S'.'
p76
g76
g76
g5
g5
tp77
a(S'We'
p78
S'We'
p79
S'PRP'
p80
S'B-NP'
p81
g5
tp82
a(S'explored'
p83
S'explore'
p84
S'VBD'
p85
S'B-VP'
p86
g5
tp87
a(S'how'
p88
S'how'
p89
S'WRB'
p90
S'B-ADVP'
p91
g5
tp92
a(S'in'
p93
S'in'
p94
S'IN'
p95
S'B-PP'
p96
g5
tp97
a(S'parallel-group'
p98
S'parallel-group'
p99
S'JJ'
p100
S'B-NP'
p101
g5
tp102
a(S'trials'
p103
S'trial'
p104
S'NNS'
p105
S'I-NP'
p106
g5
tp107
a(S'interindividual'
p108
S'interindividual'
p109
S'JJ'
p110
S'B-NP'
p111
g5
tp112
a(S'variability'
p113
S'variability'
p114
S'NN'
p115
S'I-NP'
p116
g5
tp117
a(S','
p118
g118
g118
g5
g5
tp119
a(S'correction'
p120
S'correction'
p121
S'NN'
p122
S'B-NP'
p123
g5
tp124
a(S'for'
p125
S'for'
p126
S'IN'
p127
S'B-PP'
p128
g5
tp129
a(S'placebo'
p130
S'placebo'
p131
S'NN'
p132
S'B-NP'
p133
g5
tp134
a(S'effects'
p135
S'effect'
p136
S'NNS'
p137
S'I-NP'
p138
g5
tp139
a(g118
g118
g118
g5
g5
tp140
a(S'and'
p141
S'and'
p142
S'CC'
p143
g5
g5
tp144
a(S'smoothing'
p145
S'smoothing'
p146
S'NN'
p147
S'B-NP'
p148
g5
tp149
a(S'of'
p150
S'of'
p151
S'IN'
p152
S'B-PP'
p153
g5
tp154
a(S'blood'
p155
S'blood'
p156
S'NN'
p157
S'B-NP'
p158
g5
tp159
a(S'pressure'
p160
S'pressure'
p161
S'NN'
p162
S'I-NP'
p163
g5
tp164
a(S'profiles'
p165
S'profile'
p166
S'NNS'
p167
S'I-NP'
p168
g5
tp169
a(S'can'
p170
S'can'
p171
S'MD'
p172
S'B-VP'
p173
g5
tp174
a(S'be'
p175
S'be'
p176
S'VB'
p177
S'I-VP'
p178
g5
tp179
a(S'handled'
p180
S'handle'
p181
S'VBN'
p182
S'I-VP'
p183
g5
tp184
a(S'in'
p185
S'in'
p186
S'IN'
p187
S'B-PP'
p188
g5
tp189
a(S'measuring'
p190
S'measure'
p191
S'VBG'
p192
S'B-VP'
p193
g5
tp194
a(S'the'
p195
S'the'
p196
S'DT'
p197
S'B-NP'
p198
g5
tp199
a(S'trough-to-peak'
p200
S'trough-to-peak'
p201
S'JJ'
p202
S'I-NP'
p203
g5
tp204
a(S'ratio'
p205
S'ratio'
p206
S'NN'
p207
S'I-NP'
p208
g5
tp209
a(S'in'
p210
S'in'
p211
S'IN'
p212
S'B-PP'
p213
g5
tp214
a(S'244'
p215
S'244'
p216
S'CD'
p217
S'B-NP'
p218
g5
tp219
a(S'individuals'
p220
S'individual'
p221
S'NNS'
p222
S'I-NP'
p223
g5
tp224
a(S'with'
p225
S'with'
p226
S'IN'
p227
S'B-PP'
p228
g5
tp229
a(S'isolated'
p230
S'isolate'
p231
S'VBN'
p232
S'B-NP'
p233
g5
tp234
a(S'systolic'
p235
S'systolic'
p236
S'JJ'
p237
S'I-NP'
p238
g5
tp239
a(S'hypertension'
p240
S'hypertension'
p241
S'NN'
p242
S'I-NP'
p243
g5
tp244
a(g57
g57
g57
g5
g5
tp245
a(S'>'
p246
g246
S'SYM'
p247
S'B-NP'
p248
g5
tp249
a(S'or'
p250
S'or'
p251
S'CC'
p252
g5
g5
tp253
a(S'='
p254
g254
S'SYM'
p255
S'B-VP'
p256
g5
tp257
a(S'60'
p258
S'60'
p259
S'CD'
p260
S'B-NP'
p261
g5
tp262
a(S'years'
p263
S'year'
p264
S'NNS'
p265
S'I-NP'
p266
g5
tp267
a(g64
g64
g64
g5
g5
tp268
a(S'enrolled'
p269
S'enrol'
p270
S'VBN'
p271
S'B-VP'
p272
g5
tp273
a(S'in'
p274
S'in'
p275
S'IN'
p276
S'B-PP'
p277
g5
tp278
a(S'the'
p279
S'the'
p280
S'DT'
p281
S'B-NP'
p282
g5
tp283
a(S'placebo-controlled'
p284
S'placebo-controlled'
p285
S'JJ'
p286
S'I-NP'
p287
g5
tp288
a(S'Systolic'
p289
S'Systolic'
p290
S'JJ'
p291
S'I-NP'
p292
g5
tp293
a(S'Hypertension'
p294
S'Hypertension'
p295
S'NN'
p296
S'I-NP'
p297
g5
tp298
a(S'in'
p299
S'in'
p300
S'IN'
p301
S'B-PP'
p302
g5
tp303
a(S'europe'
p304
S'europe'
p305
S'NN'
p306
S'B-NP'
p307
g5
tp308
a(S'Trial.'
p309
S'Trial.'
p310
S'NNP'
p311
S'I-NP'
p312
g5
tp313
a(S'Net'
p314
S'Net'
p315
S'NNP'
p316
S'I-NP'
p317
g5
tp318
a(S'treatment'
p319
S'treatment'
p320
S'NN'
p321
S'I-NP'
p322
g5
tp323
a(S'effects'
p324
S'effect'
p325
S'NNS'
p326
S'I-NP'
p327
g5
tp328
a(S'were'
p329
S'be'
p330
S'VBD'
p331
S'B-VP'
p332
g5
tp333
a(S'computed'
p334
S'compute'
p335
S'VBN'
p336
S'I-VP'
p337
g5
tp338
a(S'by'
p339
S'by'
p340
S'IN'
p341
S'B-PP'
p342
g5
tp343
a(S'subtracting'
p344
S'subtract'
p345
S'VBG'
p346
S'B-VP'
p347
g5
tp348
a(S'the'
p349
S'the'
p350
S'DT'
p351
S'B-NP'
p352
g5
tp353
a(S'mean'
p354
S'mean'
p355
S'JJ'
p356
S'I-NP'
p357
g5
tp358
a(S'changes'
p359
S'change'
p360
S'NNS'
p361
S'I-NP'
p362
g5
tp363
a(S'from'
p364
S'from'
p365
S'IN'
p366
S'B-PP'
p367
g5
tp368
a(S'baseline'
p369
S'baseline'
p370
S'NN'
p371
S'B-NP'
p372
g5
tp373
a(S'during'
p374
S'during'
p375
S'IN'
p376
S'B-PP'
p377
g5
tp378
a(S'placebo'
p379
S'placebo'
p380
S'NN'
p381
S'B-NP'
p382
g5
tp383
a(g57
g57
g57
g5
g5
tp384
a(S'n'
p385
g385
S'NN'
p386
S'B-NP'
p387
g5
tp388
a(g254
g254
S'SYM'
p389
S'B-VP'
p390
g5
tp391
a(S'133'
p392
S'133'
p393
S'CD'
p394
S'B-NP'
p395
g5
tp396
a(g64
g64
g64
g5
g5
tp397
a(S'from'
p398
S'from'
p399
S'IN'
p400
S'B-PP'
p401
g5
tp402
a(S'those'
p403
S'those'
p404
S'DT'
p405
S'B-NP'
p406
g5
tp407
a(S'during'
p408
S'during'
p409
S'IN'
p410
S'B-PP'
p411
g5
tp412
a(S'active'
p413
S'active'
p414
S'JJ'
p415
S'B-NP'
p416
g5
tp417
a(S'treatment'
p418
S'treatment'
p419
S'NN'
p420
S'I-NP'
p421
g5
tp422
a(g57
g57
g57
g5
g5
tp423
a(g385
g385
S'NN'
p424
S'B-NP'
p425
g5
tp426
a(g254
g254
S'SYM'
p427
S'B-VP'
p428
g5
tp429
a(S'111'
p430
S'111'
p431
S'CD'
p432
S'B-NP'
p433
g5
tp434
a(g64
g64
g64
g5
g5
tp435
a(g76
g76
g76
g5
g5
tp436
a(S'At'
p437
S'At'
p438
S'IN'
p439
S'B-PP'
p440
g5
tp441
a(S'entry'
p442
S'entry'
p443
S'NN'
p444
S'B-NP'
p445
g5
tp446
a(g118
g118
g118
g5
g5
tp447
a(S'systolic/diastolic'
p448
S'systolic/diastolic'
p449
S'JJ'
p450
S'B-NP'
p451
g5
tp452
a(S'pressures'
p453
S'pressure'
p454
S'NNS'
p455
S'I-NP'
p456
g5
tp457
a(S'averaged'
p458
S'average'
p459
S'VBD'
p460
S'B-VP'
p461
g5
tp462
a(S'176/86'
p463
S'176/86'
p464
S'CD'
p465
S'B-NP'
p466
g5
tp467
a(S'mm'
p468
S'mm'
p469
S'NN'
p470
S'I-NP'
p471
g5
tp472
a(S'Hg'
p473
S'Hg'
p474
S'NN'
p475
S'I-NP'
p476
g5
tp477
a(S'in'
p478
S'in'
p479
S'IN'
p480
S'B-PP'
p481
g5
tp482
a(S'the'
p483
S'the'
p484
S'DT'
p485
S'B-NP'
p486
g5
tp487
a(S'clinic'
p488
S'clinic'
p489
S'NN'
p490
S'I-NP'
p491
g5
tp492
a(S'and'
p493
S'and'
p494
S'CC'
p495
g5
g5
tp496
a(S'149/80'
p497
S'149/80'
p498
S'CD'
p499
S'B-NP'
p500
g5
tp501
a(S'mm'
p502
S'mm'
p503
S'NN'
p504
S'I-NP'
p505
g5
tp506
a(S'Hg'
p507
S'Hg'
p508
S'NN'
p509
S'I-NP'
p510
g5
tp511
a(S'on'
p512
S'on'
p513
S'IN'
p514
S'B-PP'
p515
g5
tp516
a(S'24-hour'
p517
S'24-hour'
p518
S'JJ'
p519
S'B-NP'
p520
g5
tp521
a(S'ambulatory'
p522
S'ambulatory'
p523
S'JJ'
p524
S'I-NP'
p525
g5
tp526
a(S'monitoring.'
p527
S'monitoring.'
p528
S'NN'
p529
S'I-NP'
p530
g5
tp531
a(S'With'
p532
S'With'
p533
S'IN'
p534
S'B-PP'
p535
g5
tp536
a(S'corrections'
p537
S'correction'
p538
S'NNS'
p539
S'B-NP'
p540
g5
tp541
a(S'applied'
p542
S'apply'
p543
S'VBN'
p544
S'B-VP'
p545
g5
tp546
a(S'for'
p547
S'for'
p548
S'IN'
p549
S'B-PP'
p550
g5
tp551
a(S'baseline'
p552
S'baseline'
p553
S'NN'
p554
S'B-NP'
p555
g5
tp556
a(S'and'
p557
S'and'
p558
S'CC'
p559
S'I-NP'
p560
g5
tp561
a(S'placebo'
p562
S'placebo'
p563
S'NN'
p564
S'I-NP'
p565
g5
tp566
a(g118
g118
g118
g5
g5
tp567
a(S'nitrendipine'
p568
S'nitrendipine'
p569
S'NN'
p570
S'B-NP'
p571
g5
tp572
a(g57
g57
g57
g5
g5
tp573
a(S'10'
p574
S'10'
p575
S'CD'
p576
S'B-NP'
p577
g5
tp578
a(S'to'
p579
S'to'
p580
S'TO'
p581
S'I-NP'
p582
g5
tp583
a(S'40'
p584
S'40'
p585
S'CD'
p586
S'I-NP'
p587
g5
tp588
a(S'mg/d'
p589
S'mg/d'
p590
S'NN'
p591
S'I-NP'
p592
g5
tp593
a(g64
g64
g64
g5
g5
tp594
a(g118
g118
g118
g5
g5
tp595
a(S'with'
p596
S'with'
p597
S'IN'
p598
S'B-PP'
p599
g5
tp600
a(S'the'
p601
S'the'
p602
S'DT'
p603
S'B-NP'
p604
g5
tp605
a(S'possible'
p606
S'possible'
p607
S'JJ'
p608
S'I-NP'
p609
g5
tp610
a(S'addition'
p611
S'addition'
p612
S'NN'
p613
S'I-NP'
p614
g5
tp615
a(S'of'
p616
S'of'
p617
S'IN'
p618
S'B-PP'
p619
g5
tp620
a(S'enalapril'
p621
S'enalapril'
p622
S'NN'
p623
S'B-NP'
p624
g5
tp625
a(g57
g57
g57
g5
g5
tp626
a(S'5'
p627
g627
S'CD'
p628
S'B-NP'
p629
g5
tp630
a(S'to'
p631
S'to'
p632
S'TO'
p633
S'I-NP'
p634
g5
tp635
a(S'20'
p636
S'20'
p637
S'CD'
p638
S'I-NP'
p639
g5
tp640
a(S'mg/d'
p641
S'mg/d'
p642
S'NN'
p643
S'I-NP'
p644
g5
tp645
a(g64
g64
g64
g5
g5
tp646
a(S'and/or'
p647
S'and/or'
p648
S'CC'
p649
g5
g5
tp650
a(S'hydrochlorothiazide'
p651
S'hydrochlorothiazide'
p652
S'NN'
p653
S'B-NP'
p654
g5
tp655
a(g57
g57
g57
g5
g5
tp656
a(S'12.5'
p657
S'12.5'
p658
S'CD'
p659
S'B-NP'
p660
g5
tp661
a(S'to'
p662
S'to'
p663
S'TO'
p664
S'I-NP'
p665
g5
tp666
a(S'25'
p667
S'25'
p668
S'CD'
p669
S'I-NP'
p670
g5
tp671
a(S'mg/d'
p672
S'mg/d'
p673
S'NN'
p674
S'I-NP'
p675
g5
tp676
a(g64
g64
g64
g5
g5
tp677
a(g118
g118
g118
g5
g5
tp678
a(S'reduced'
p679
S'reduce'
p680
S'VBN'
p681
S'B-VP'
p682
g5
tp683
a(g57
g57
g57
g5
g5
tp684
a(S'P'
p685
g685
S'NN'
p686
S'B-NP'
p687
g5
tp688
a(S'<'
p689
g689
S'JJR'
p690
S'B-NP'
p691
g5
tp692
a(S'.001'
p693
S'.001'
p694
S'CD'
p695
S'I-NP'
p696
g5
tp697
a(g64
g64
g64
g5
g5
tp698
a(S'these'
p699
S'these'
p700
S'DT'
p701
S'B-NP'
p702
g5
tp703
a(S'blood'
p704
S'blood'
p705
S'NN'
p706
S'I-NP'
p707
g5
tp708
a(S'pressure'
p709
S'pressure'
p710
S'NN'
p711
S'I-NP'
p712
g5
tp713
a(S'values'
p714
S'value'
p715
S'NNS'
p716
S'I-NP'
p717
g5
tp718
a(S'by'
p719
S'by'
p720
S'IN'
p721
S'B-PP'
p722
g5
tp723
a(S'16.6/7.3'
p724
S'16.6/7.3'
p725
S'CD'
p726
S'B-NP'
p727
g5
tp728
a(S'and'
p729
S'and'
p730
S'CC'
p731
S'I-NP'
p732
g5
tp733
a(S'9.8/4.7'
p734
S'9.8/4.7'
p735
S'CD'
p736
S'I-NP'
p737
g5
tp738
a(S'mm'
p739
S'mm'
p740
S'NN'
p741
S'I-NP'
p742
g5
tp743
a(S'Hg'
p744
S'Hg'
p745
S'NN'
p746
S'I-NP'
p747
g5
tp748
a(g118
g118
g118
g5
g5
tp749
a(S'respectively.'
p750
S'respectively.'
p751
S'VBP'
p752
S'B-VP'
p753
g5
tp754
a(S'The'
p755
S'The'
p756
S'DT'
p757
S'B-NP'
p758
g5
tp759
a(S'net'
p760
S'net'
p761
S'JJ'
p762
S'I-NP'
p763
g5
tp764
a(S'trough-to-peak'
p765
S'trough-to-peak'
p766
S'JJ'
p767
S'I-NP'
p768
g5
tp769
a(S'ratios'
p770
S'ratio'
p771
S'NNS'
p772
S'I-NP'
p773
g5
tp774
a(S'were'
p775
S'be'
p776
S'VBD'
p777
S'B-VP'
p778
g5
tp779
a(S'first'
p780
S'first'
p781
S'RB'
p782
S'I-VP'
p783
g5
tp784
a(S'determined'
p785
S'determine'
p786
S'VBN'
p787
S'I-VP'
p788
g5
tp789
a(S'from'
p790
S'from'
p791
S'IN'
p792
S'B-PP'
p793
g5
tp794
a(S'blood'
p795
S'blood'
p796
S'NN'
p797
S'B-NP'
p798
g5
tp799
a(S'pressure'
p800
S'pressure'
p801
S'NN'
p802
S'I-NP'
p803
g5
tp804
a(S'profiles'
p805
S'profile'
p806
S'NNS'
p807
S'I-NP'
p808
g5
tp809
a(g57
g57
g57
g5
g5
tp810
a(S'12'
p811
S'12'
p812
S'CD'
p813
S'B-NP'
p814
g5
tp815
a(S'hours'
p816
S'hour'
p817
S'NNS'
p818
S'I-NP'
p819
g5
tp820
a(g64
g64
g64
g5
g5
tp821
a(S'with'
p822
S'with'
p823
S'IN'
p824
S'B-PP'
p825
g5
tp826
a(S'1-hour'
p827
S'1-hour'
p828
S'JJ'
p829
S'B-NP'
p830
g5
tp831
a(S'precision'
p832
S'precision'
p833
S'NN'
p834
S'I-NP'
p835
g5
tp836
a(g118
g118
g118
g5
g5
tp837
a(S'synchronized'
p838
S'synchronize'
p839
S'VBN'
p840
S'B-VP'
p841
g5
tp842
a(S'by'
p843
S'by'
p844
S'IN'
p845
S'B-PP'
p846
g5
tp847
a(S'the'
p848
S'the'
p849
S'DT'
p850
S'B-NP'
p851
g5
tp852
a(S'morning'
p853
S'morning'
p854
S'NN'
p855
S'I-NP'
p856
g5
tp857
a(S'and'
p858
S'and'
p859
S'CC'
p860
S'I-NP'
p861
g5
tp862
a(S'evening'
p863
S'evening'
p864
S'NN'
p865
S'I-NP'
p866
g5
tp867
a(S'doses'
p868
S'dose'
p869
S'NNS'
p870
S'I-NP'
p871
g5
tp872
a(S'of'
p873
S'of'
p874
S'IN'
p875
S'B-PP'
p876
g5
tp877
a(S'the'
p878
S'the'
p879
S'DT'
p880
S'B-NP'
p881
g5
tp882
a(S'double-blind'
p883
S'double-blind'
p884
S'JJ'
p885
S'I-NP'
p886
g5
tp887
a(S'medication.'
p888
S'medication.'
p889
S'NN'
p890
S'I-NP'
p891
g5
tp892
a(S'According'
p893
S'Accord'
p894
S'VBG'
p895
S'B-PP'
p896
g5
tp897
a(S'to'
p898
S'to'
p899
S'TO'
p900
S'B-PP'
p901
g5
tp902
a(S'the'
p903
S'the'
p904
S'DT'
p905
S'B-NP'
p906
g5
tp907
a(S'usual'
p908
S'usual'
p909
S'JJ'
p910
S'I-NP'
p911
g5
tp912
a(S'approach'
p913
S'approach'
p914
S'NN'
p915
S'I-NP'
p916
g5
tp917
a(g118
g118
g118
g5
g5
tp918
a(S'disregarding'
p919
S'disregard'
p920
S'VBG'
p921
S'B-VP'
p922
g5
tp923
a(S'interindividual'
p924
S'interindividual'
p925
S'JJ'
p926
S'B-NP'
p927
g5
tp928
a(S'variability'
p929
S'variability'
p930
S'NN'
p931
S'I-NP'
p932
g5
tp933
a(g118
g118
g118
g5
g5
tp934
a(S'the'
p935
S'the'
p936
S'DT'
p937
S'B-NP'
p938
g5
tp939
a(S'systolic/diastolic'
p940
S'systolic/diastolic'
p941
S'JJ'
p942
S'I-NP'
p943
g5
tp944
a(S'net'
p945
S'net'
p946
S'JJ'
p947
S'I-NP'
p948
g5
tp949
a(S'trough-to-peak'
p950
S'trough-to-peak'
p951
S'JJ'
p952
S'I-NP'
p953
g5
tp954
a(S'ratios'
p955
S'ratio'
p956
S'NNS'
p957
S'I-NP'
p958
g5
tp959
a(S'were'
p960
S'be'
p961
S'VBD'
p962
S'B-VP'
p963
g5
tp964
a(S'0.46/0.40'
p965
S'0.46/0.40'
p966
S'CD'
p967
S'B-NP'
p968
g5
tp969
a(S'in'
p970
S'in'
p971
S'IN'
p972
S'B-PP'
p973
g5
tp974
a(S'the'
p975
S'the'
p976
S'DT'
p977
S'B-NP'
p978
g5
tp979
a(S'morning'
p980
S'morning'
p981
S'NN'
p982
S'I-NP'
p983
g5
tp984
a(S'and'
p985
S'and'
p986
S'CC'
p987
g5
g5
tp988
a(S'0.77/0.99'
p989
S'0.77/0.99'
p990
S'CD'
p991
S'B-NP'
p992
g5
tp993
a(S'in'
p994
S'in'
p995
S'IN'
p996
S'B-PP'
p997
g5
tp998
a(S'the'
p999
S'the'
p1000
S'DT'
p1001
S'B-NP'
p1002
g5
tp1003
a(S'evening.'
p1004
S'evening.'
p1005
S'NN'
p1006
S'I-NP'
p1007
g5
tp1008
a(S'In'
p1009
S'In'
p1010
S'IN'
p1011
S'B-PP'
p1012
g5
tp1013
a(S'individual'
p1014
S'individual'
p1015
S'JJ'
p1016
S'B-NP'
p1017
g5
tp1018
a(S'subjects'
p1019
S'subject'
p1020
S'NNS'
p1021
S'I-NP'
p1022
g5
tp1023
a(g118
g118
g118
g5
g5
tp1024
a(S'the'
p1025
S'the'
p1026
S'DT'
p1027
S'B-NP'
p1028
g5
tp1029
a(S'baseline-adjusted'
p1030
S'baseline-adjusted'
p1031
S'JJ'
p1032
S'I-NP'
p1033
g5
tp1034
a(S'trough-to-peak'
p1035
S'trough-to-peak'
p1036
S'JJ'
p1037
S'I-NP'
p1038
g5
tp1039
a(S'ratios'
p1040
S'ratio'
p1041
S'NNS'
p1042
S'I-NP'
p1043
g5
tp1044
a(S'were'
p1045
S'be'
p1046
S'VBD'
p1047
S'B-VP'
p1048
g5
tp1049
a(S'nonnormally'
p1050
S'nonnormally'
p1051
S'RB'
p1052
S'I-VP'
p1053
g5
tp1054
a(S'distributed.'
p1055
S'distributed.'
p1056
S'VBN'
p1057
S'I-VP'
p1058
g5
tp1059
a(S'We'
p1060
S'We'
p1061
S'PRP'
p1062
S'B-NP'
p1063
g5
tp1064
a(S'therefore'
p1065
S'therefore'
p1066
S'RB'
p1067
S'B-ADVP'
p1068
g5
tp1069
a(S'used'
p1070
S'use'
p1071
S'VBD'
p1072
S'B-VP'
p1073
g5
tp1074
a(S'a'
p1075
g1075
S'DT'
p1076
S'B-NP'
p1077
g5
tp1078
a(S'nonparametric'
p1079
S'nonparametric'
p1080
S'JJ'
p1081
S'I-NP'
p1082
g5
tp1083
a(S'technique'
p1084
S'technique'
p1085
S'NN'
p1086
S'I-NP'
p1087
g5
tp1088
a(S'to'
p1089
S'to'
p1090
S'TO'
p1091
S'B-VP'
p1092
g5
tp1093
a(S'calculate'
p1094
S'calculate'
p1095
S'VB'
p1096
S'I-VP'
p1097
g5
tp1098
a(S'the'
p1099
S'the'
p1100
S'DT'
p1101
S'B-NP'
p1102
g5
tp1103
a(S'net'
p1104
S'net'
p1105
S'JJ'
p1106
S'I-NP'
p1107
g5
tp1108
a(S'trough-to-peak'
p1109
S'trough-to-peak'
p1110
S'JJ'
p1111
S'I-NP'
p1112
g5
tp1113
a(S'ratios'
p1114
S'ratio'
p1115
S'NNS'
p1116
S'I-NP'
p1117
g5
tp1118
a(S'from'
p1119
S'from'
p1120
S'IN'
p1121
S'B-PP'
p1122
g5
tp1123
a(S'the'
p1124
S'the'
p1125
S'DT'
p1126
S'B-NP'
p1127
g5
tp1128
a(S'results'
p1129
S'result'
p1130
S'NNS'
p1131
S'I-NP'
p1132
g5
tp1133
a(S'in'
p1134
S'in'
p1135
S'IN'
p1136
S'B-PP'
p1137
g5
tp1138
a(S'individual'
p1139
S'individual'
p1140
S'JJ'
p1141
S'B-NP'
p1142
g5
tp1143
a(S'subjects.'
p1144
S'subjects.'
p1145
S'NNS'
p1146
S'I-NP'
p1147
g5
tp1148
a(S'In'
p1149
S'In'
p1150
S'IN'
p1151
S'B-PP'
p1152
g5
tp1153
a(S'the'
p1154
S'the'
p1155
S'DT'
p1156
S'B-NP'
p1157
g5
tp1158
a(S'morning'
p1159
S'morning'
p1160
S'NN'
p1161
S'I-NP'
p1162
g5
tp1163
a(g118
g118
g118
g5
g5
tp1164
a(S'these'
p1165
S'these'
p1166
S'DT'
p1167
S'B-NP'
p1168
g5
tp1169
a(S'ratios'
p1170
S'ratio'
p1171
S'NNS'
p1172
S'I-NP'
p1173
g5
tp1174
a(S'averaged'
p1175
S'average'
p1176
S'VBD'
p1177
S'B-VP'
p1178
g5
tp1179
a(S'0.25'
p1180
S'0.25'
p1181
S'CD'
p1182
S'B-NP'
p1183
g5
tp1184
a(S'systolic'
p1185
S'systolic'
p1186
S'JJ'
p1187
S'I-NP'
p1188
g5
tp1189
a(g57
g57
g57
g5
g5
tp1190
a(S'95'
p1191
S'95'
p1192
S'CD'
p1193
S'B-NP'
p1194
g5
tp1195
a(S'%'
p1196
g1196
S'NN'
p1197
S'I-NP'
p1198
g5
tp1199
a(S'confidence'
p1200
S'confidence'
p1201
S'NN'
p1202
S'I-NP'
p1203
g5
tp1204
a(S'interval'
p1205
S'interval'
p1206
S'NN'
p1207
S'I-NP'
p1208
g5
tp1209
a(g118
g118
g118
g5
g5
tp1210
a(S'0.09'
p1211
S'0.09'
p1212
S'CD'
p1213
S'B-NP'
p1214
g5
tp1215
a(S'to'
p1216
S'to'
p1217
S'TO'
p1218
S'B-PP'
p1219
g5
tp1220
a(S'0.41'
p1221
S'0.41'
p1222
S'CD'
p1223
S'B-NP'
p1224
g5
tp1225
a(g64
g64
g64
g5
g5
tp1226
a(S'and'
p1227
S'and'
p1228
S'CC'
p1229
g5
g5
tp1230
a(S'0.15'
p1231
S'0.15'
p1232
S'CD'
p1233
S'B-NP'
p1234
g5
tp1235
a(S'diastolic'
p1236
S'diastolic'
p1237
S'JJ'
p1238
S'I-NP'
p1239
g5
tp1240
a(g57
g57
g57
g5
g5
tp1241
a(S'95'
p1242
S'95'
p1243
S'CD'
p1244
S'B-NP'
p1245
g5
tp1246
a(g1196
g1196
S'NN'
p1247
S'I-NP'
p1248
g5
tp1249
a(S'confidence'
p1250
S'confidence'
p1251
S'NN'
p1252
S'I-NP'
p1253
g5
tp1254
a(S'interval'
p1255
S'interval'
p1256
S'NN'
p1257
S'I-NP'
p1258
g5
tp1259
a(g118
g118
g118
g5
g5
tp1260
a(S'0.00'
p1261
S'0.00'
p1262
S'CD'
p1263
S'B-NP'
p1264
g5
tp1265
a(S'to'
p1266
S'to'
p1267
S'TO'
p1268
S'B-PP'
p1269
g5
tp1270
a(S'0.31'
p1271
S'0.31'
p1272
S'CD'
p1273
S'B-NP'
p1274
g5
tp1275
a(g64
g64
g64
g5
g5
tp1276
a(S'and'
p1277
S'and'
p1278
S'CC'
p1279
g5
g5
tp1280
a(S'in'
p1281
S'in'
p1282
S'IN'
p1283
S'B-PP'
p1284
g5
tp1285
a(S'the'
p1286
S'the'
p1287
S'DT'
p1288
S'B-NP'
p1289
g5
tp1290
a(S'evening'
p1291
S'evening'
p1292
S'NN'
p1293
S'I-NP'
p1294
g5
tp1295
a(g118
g118
g118
g5
g5
tp1296
a(S'0.19'
p1297
S'0.19'
p1298
S'CD'
p1299
S'B-NP'
p1300
g5
tp1301
a(S'and'
p1302
S'and'
p1303
S'CC'
p1304
S'I-NP'
p1305
g5
tp1306
a(S'0.36'
p1307
S'0.36'
p1308
S'CD'
p1309
S'I-NP'
p1310
g5
tp1311
a(g57
g57
g57
g5
g5
tp1312
a(S'95'
p1313
S'95'
p1314
S'CD'
p1315
S'B-NP'
p1316
g5
tp1317
a(g1196
g1196
S'NN'
p1318
S'I-NP'
p1319
g5
tp1320
a(S'confidence'
p1321
S'confidence'
p1322
S'NN'
p1323
S'I-NP'
p1324
g5
tp1325
a(S'intervals'
p1326
S'interval'
p1327
S'NNS'
p1328
S'I-NP'
p1329
g5
tp1330
a(g118
g118
g118
g5
g5
tp1331
a(S'0.00'
p1332
S'0.00'
p1333
S'CD'
p1334
S'B-ADVP'
p1335
g5
tp1336
a(S'to'
p1337
S'to'
p1338
S'TO'
p1339
S'I-ADVP'
p1340
g5
tp1341
a(S'0.38'
p1342
S'0.38'
p1343
S'CD'
p1344
S'I-ADVP'
p1345
g5
tp1346
a(S'and'
p1347
S'and'
p1348
S'CC'
p1349
g5
g5
tp1350
a(S'0.14'
p1351
S'0.14'
p1352
S'CD'
p1353
S'B-NP'
p1354
g5
tp1355
a(S'to'
p1356
S'to'
p1357
S'TO'
p1358
S'B-PP'
p1359
g5
tp1360
a(S'0.56'
p1361
S'0.56'
p1362
S'CD'
p1363
S'B-NP'
p1364
g5
tp1365
a(g64
g64
g64
g5
g5
tp1366
a(g118
g118
g118
g5
g5
tp1367
a(S'respectively.'
p1368
S'respectively.'
p1369
S'NN'
p1370
S'B-NP'
p1371
g5
tp1372
a(S'When'
p1373
S'When'
p1374
S'WRB'
p1375
S'B-ADVP'
p1376
g5
tp1377
a(S'the'
p1378
S'the'
p1379
S'DT'
p1380
S'B-NP'
p1381
g5
tp1382
a(S'blood'
p1383
S'blood'
p1384
S'NN'
p1385
S'I-NP'
p1386
g5
tp1387
a(S'pressure'
p1388
S'pressure'
p1389
S'NN'
p1390
S'I-NP'
p1391
g5
tp1392
a(S'profiles'
p1393
S'profile'
p1394
S'NNS'
p1395
S'I-NP'
p1396
g5
tp1397
a(S'were'
p1398
S'be'
p1399
S'VBD'
p1400
S'B-VP'
p1401
g5
tp1402
a(S'smoothed'
p1403
S'smooth'
p1404
S'VBN'
p1405
S'I-VP'
p1406
g5
tp1407
a(S'by'
p1408
S'by'
p1409
S'IN'
p1410
S'B-PP'
p1411
g5
tp1412
a(S'substituting'
p1413
S'substitute'
p1414
S'VBG'
p1415
S'B-VP'
p1416
g5
tp1417
a(S'the'
p1418
S'the'
p1419
S'DT'
p1420
S'B-NP'
p1421
g5
tp1422
a(S'1-hour'
p1423
S'1-hour'
p1424
S'JJ'
p1425
S'I-NP'
p1426
g5
tp1427
a(S'averages'
p1428
S'average'
p1429
S'NNS'
p1430
S'I-NP'
p1431
g5
tp1432
a(S'by'
p1433
S'by'
p1434
S'IN'
p1435
S'B-PP'
p1436
g5
tp1437
a(S'moving'
p1438
S'move'
p1439
S'VBG'
p1440
S'B-VP'
p1441
g5
tp1442
a(S'or'
p1443
S'or'
p1444
S'CC'
p1445
g5
g5
tp1446
a(S'fixed'
p1447
S'fix'
p1448
S'VBN'
p1449
S'B-VP'
p1450
g5
tp1451
a(S'2-hour'
p1452
S'2-hour'
p1453
S'JJ'
p1454
S'B-NP'
p1455
g5
tp1456
a(S'averages'
p1457
S'average'
p1458
S'NNS'
p1459
S'I-NP'
p1460
g5
tp1461
a(S'or'
p1462
S'or'
p1463
S'CC'
p1464
g5
g5
tp1465
a(S'by'
p1466
S'by'
p1467
S'IN'
p1468
S'B-PP'
p1469
g5
tp1470
a(S'Fourier'
p1471
S'Fouri'
p1472
S'JJR'
p1473
S'B-NP'
p1474
g5
tp1475
a(S'modeling'
p1476
S'modeling'
p1477
S'NN'
p1478
S'I-NP'
p1479
g5
tp1480
a(g118
g118
g118
g5
g5
tp1481
a(S'the'
p1482
S'the'
p1483
S'DT'
p1484
S'B-NP'
p1485
g5
tp1486
a(S'trough-to-peak'
p1487
S'trough-to-peak'
p1488
S'JJ'
p1489
S'I-NP'
p1490
g5
tp1491
a(S'ratios'
p1492
S'ratio'
p1493
S'NNS'
p1494
S'I-NP'
p1495
g5
tp1496
a(S'remained'
p1497
S'remain'
p1498
S'VBD'
p1499
S'B-VP'
p1500
g5
tp1501
a(S'unchanged'
p1502
S'unchanged'
p1503
S'JJ'
p1504
S'B-ADJP'
p1505
g5
tp1506
a(S'after'
p1507
S'after'
p1508
S'IN'
p1509
S'B-SBAR'
p1510
g5
tp1511
a(S'the'
p1512
S'the'
p1513
S'DT'
p1514
S'B-NP'
p1515
g5
tp1516
a(S'morning'
p1517
S'morning'
p1518
S'NN'
p1519
S'I-NP'
p1520
g5
tp1521
a(S'dose'
p1522
S'dose'
p1523
S'NN'
p1524
S'I-NP'
p1525
g5
tp1526
a(g57
g57
g57
g5
g5
tp1527
a(S'0.20/0.13'
p1528
S'0.20/0.13'
p1529
S'CD'
p1530
S'B-NP'
p1531
g5
tp1532
a(g118
g118
g118
S'I-NP'
p1533
g5
tp1534
a(S'0.20/0.14'
p1535
S'0.20/0.14'
p1536
S'CD'
p1537
S'I-NP'
p1538
g5
tp1539
a(g118
g118
g118
g5
g5
tp1540
a(S'and'
p1541
S'and'
p1542
S'CC'
p1543
g5
g5
tp1544
a(S'0.16/0.21'
p1545
S'0.16/0.21'
p1546
S'CD'
p1547
S'B-NP'
p1548
g5
tp1549
a(g118
g118
g118
g5
g5
tp1550
a(S'respectively'
p1551
S'respectively'
p1552
S'RB'
p1553
S'B-ADVP'
p1554
g5
tp1555
a(g64
g64
g64
g5
g5
tp1556
a(S'but'
p1557
S'but'
p1558
S'CC'
p1559
g5
g5
tp1560
a(S'tended'
p1561
S'tend'
p1562
S'VBD'
p1563
S'B-VP'
p1564
g5
tp1565
a(S'to'
p1566
S'to'
p1567
S'TO'
p1568
S'I-VP'
p1569
g5
tp1570
a(S'increase'
p1571
S'increase'
p1572
S'VB'
p1573
S'I-VP'
p1574
g5
tp1575
a(S'in'
p1576
S'in'
p1577
S'IN'
p1578
S'B-PP'
p1579
g5
tp1580
a(S'the'
p1581
S'the'
p1582
S'DT'
p1583
S'B-NP'
p1584
g5
tp1585
a(S'evening'
p1586
S'evening'
p1587
S'NN'
p1588
S'I-NP'
p1589
g5
tp1590
a(g57
g57
g57
g5
g5
tp1591
a(S'0.32/0.38'
p1592
S'0.32/0.38'
p1593
S'CD'
p1594
S'B-NP'
p1595
g5
tp1596
a(g118
g118
g118
S'I-NP'
p1597
g5
tp1598
a(S'0.28/0.40'
p1599
S'0.28/0.40'
p1600
S'CD'
p1601
S'I-NP'
p1602
g5
tp1603
a(g118
g118
g118
g5
g5
tp1604
a(S'and'
p1605
S'and'
p1606
S'CC'
p1607
g5
g5
tp1608
a(S'0.48/0.49'
p1609
S'0.48/0.49'
p1610
S'CD'
p1611
S'B-NP'
p1612
g5
tp1613
a(g64
g64
g64
g5
g5
tp1614
a(g76
g76
g76
g5
g5
tp1615
a(S'In'
p1616
S'In'
p1617
S'IN'
p1618
S'B-PP'
p1619
g5
tp1620
a(S'conclusion'
p1621
S'conclusion'
p1622
S'NN'
p1623
S'B-NP'
p1624
g5
tp1625
a(g118
g118
g118
g5
g5
tp1626
a(S'the'
p1627
S'the'
p1628
S'DT'
p1629
S'B-NP'
p1630
g5
tp1631
a(S'parallel-group'
p1632
S'parallel-group'
p1633
S'JJ'
p1634
S'I-NP'
p1635
g5
tp1636
a(S'analysis'
p1637
S'analysis'
p1638
S'NN'
p1639
S'I-NP'
p1640
g5
tp1641
a(S'proposed'
p1642
S'propose'
p1643
S'VBN'
p1644
S'B-VP'
p1645
g5
tp1646
a(S'makes'
p1647
S'make'
p1648
S'VBZ'
p1649
S'B-VP'
p1650
g5
tp1651
a(S'it'
p1652
S'it'
p1653
S'PRP'
p1654
S'B-NP'
p1655
g5
tp1656
a(S'possible'
p1657
S'possible'
p1658
S'JJ'
p1659
S'B-ADJP'
p1660
g5
tp1661
a(S'for'
p1662
S'for'
p1663
S'IN'
p1664
S'B-PP'
p1665
g5
tp1666
a(S'one'
p1667
S'one'
p1668
S'CD'
p1669
S'B-NP'
p1670
g5
tp1671
a(S'to'
p1672
S'to'
p1673
S'TO'
p1674
S'B-VP'
p1675
g5
tp1676
a(S'correct'
p1677
S'correct'
p1678
S'VB'
p1679
S'I-VP'
p1680
g5
tp1681
a(S'the'
p1682
S'the'
p1683
S'DT'
p1684
S'B-NP'
p1685
g5
tp1686
a(S'trough-to-peak'
p1687
S'trough-to-peak'
p1688
S'JJ'
p1689
S'I-NP'
p1690
g5
tp1691
a(S'ratio'
p1692
S'ratio'
p1693
S'NN'
p1694
S'I-NP'
p1695
g5
tp1696
a(S'for'
p1697
S'for'
p1698
S'IN'
p1699
S'B-PP'
p1700
g5
tp1701
a(S'baseline'
p1702
S'baseline'
p1703
S'NN'
p1704
S'B-NP'
p1705
g5
tp1706
a(S'as'
p1707
S'as'
p1708
S'RB'
p1709
S'B-CONJP'
p1710
g5
tp1711
a(S'well'
p1712
S'well'
p1713
S'RB'
p1714
S'I-CONJP'
p1715
g5
tp1716
a(S'as'
p1717
S'as'
p1718
S'IN'
p1719
S'I-CONJP'
p1720
g5
tp1721
a(S'placebo'
p1722
S'placebo'
p1723
S'NN'
p1724
S'B-NP'
p1725
g5
tp1726
a(g118
g118
g118
g5
g5
tp1727
a(S'to'
p1728
S'to'
p1729
S'TO'
p1730
S'B-VP'
p1731
g5
tp1732
a(S'account'
p1733
S'account'
p1734
S'VB'
p1735
S'I-VP'
p1736
g5
tp1737
a(S'for'
p1738
S'for'
p1739
S'IN'
p1740
S'B-PP'
p1741
g5
tp1742
a(S'interindividual'
p1743
S'interindividual'
p1744
S'JJ'
p1745
S'B-NP'
p1746
g5
tp1747
a(S'variability'
p1748
S'variability'
p1749
S'NN'
p1750
S'I-NP'
p1751
g5
tp1752
a(g118
g118
g118
g5
g5
tp1753
a(S'and'
p1754
S'and'
p1755
S'CC'
p1756
g5
g5
tp1757
a(S'to'
p1758
S'to'
p1759
S'TO'
p1760
S'B-VP'
p1761
g5
tp1762
a(S'calculate'
p1763
S'calculate'
p1764
S'VB'
p1765
S'I-VP'
p1766
g5
tp1767
a(g1075
g1075
S'DT'
p1768
S'B-NP'
p1769
g5
tp1770
a(S'confidence'
p1771
S'confidence'
p1772
S'NN'
p1773
S'I-NP'
p1774
g5
tp1775
a(S'interval'
p1776
S'interval'
p1777
S'NN'
p1778
S'I-NP'
p1779
g5
tp1780
a(S'for'
p1781
S'for'
p1782
S'IN'
p1783
S'B-PP'
p1784
g5
tp1785
a(S'the'
p1786
S'the'
p1787
S'DT'
p1788
S'B-NP'
p1789
g5
tp1790
a(S'net'
p1791
S'net'
p1792
S'JJ'
p1793
S'I-NP'
p1794
g5
tp1795
a(S'trough-to-peak'
p1796
S'trough-to-peak'
p1797
S'JJ'
p1798
S'I-NP'
p1799
g5
tp1800
a(S'ratio.'
p1801
S'ratio.'
p1802
S'NN'
p1803
S'I-NP'
p1804
g5
tp1805
a(S'Accounting'
p1806
S'Accounting'
p1807
S'NN'
p1808
S'I-NP'
p1809
g5
tp1810
a(S'for'
p1811
S'for'
p1812
S'IN'
p1813
S'B-PP'
p1814
g5
tp1815
a(S'interindividual'
p1816
S'interindividual'
p1817
S'JJ'
p1818
S'B-NP'
p1819
g5
tp1820
a(S'variability'
p1821
S'variability'
p1822
S'NN'
p1823
S'I-NP'
p1824
g5
tp1825
a(S'reduces'
p1826
S'reduce'
p1827
S'VBZ'
p1828
S'B-VP'
p1829
g5
tp1830
a(S'the'
p1831
S'the'
p1832
S'DT'
p1833
S'B-NP'
p1834
g5
tp1835
a(S'trough-to-peak'
p1836
S'trough-to-peak'
p1837
S'JJ'
p1838
S'I-NP'
p1839
g5
tp1840
a(S'ratio.'
p1841
S'ratio.'
p1842
S'NN'
p1843
S'I-NP'
p1844
g5
tp1845
a(S'Smoothing'
p1846
S'Smoothing'
p1847
S'NN'
p1848
S'I-NP'
p1849
g5
tp1850
a(S'affects'
p1851
S'affect'
p1852
S'VBZ'
p1853
S'B-VP'
p1854
g5
tp1855
a(S'the'
p1856
S'the'
p1857
S'DT'
p1858
S'B-NP'
p1859
g5
tp1860
a(S'individualized'
p1861
S'individualize'
p1862
S'VBN'
p1863
S'I-NP'
p1864
g5
tp1865
a(S'net'
p1866
S'net'
p1867
S'JJ'
p1868
S'I-NP'
p1869
g5
tp1870
a(S'trough-to-peak'
p1871
S'trough-to-peak'
p1872
S'JJ'
p1873
S'I-NP'
p1874
g5
tp1875
a(S'ratios'
p1876
S'ratio'
p1877
S'NNS'
p1878
S'I-NP'
p1879
g5
tp1880
a(S'in'
p1881
S'in'
p1882
S'IN'
p1883
S'B-PP'
p1884
g5
tp1885
a(S'an'
p1886
S'an'
p1887
S'DT'
p1888
S'B-NP'
p1889
g5
tp1890
a(S'unpredictable'
p1891
S'unpredictable'
p1892
S'JJ'
p1893
S'I-NP'
p1894
g5
tp1895
a(S'way'
p1896
S'way'
p1897
S'NN'
p1898
S'I-NP'
p1899
g5
tp1900
a(S'and'
p1901
S'and'
p1902
S'CC'
p1903
g5
g5
tp1904
a(S'should'
p1905
S'should'
p1906
S'MD'
p1907
S'B-VP'
p1908
g5
tp1909
a(S'therefore'
p1910
S'therefore'
p1911
S'RB'
p1912
S'I-VP'
p1913
g5
tp1914
a(S'be'
p1915
S'be'
p1916
S'VB'
p1917
S'I-VP'
p1918
g5
tp1919
a(S'avoided'
p1920
S'avoid'
p1921
S'VBN'
p1922
S'I-VP'
p1923
g5
tp1924
a(g76
g76
g76
g5
g5
tp1925
a.