(lp0
(S'Replacing'
p1
S'Replace'
p2
S'VBG'
p3
S'B-VP'
p4
S'O'
p5
tp6
a(S'Non-Active'
p7
S'Non-Active'
p8
S'JJ'
p9
S'B-NP'
p10
g5
tp11
a(S'Video'
p12
S'Video'
p13
S'NNP'
p14
S'I-NP'
p15
g5
tp16
a(S'Gaming'
p17
S'Gaming'
p18
S'NN'
p19
S'I-NP'
p20
g5
tp21
a(S'by'
p22
S'by'
p23
S'IN'
p24
S'B-PP'
p25
g5
tp26
a(S'Active'
p27
S'Active'
p28
S'JJ'
p29
S'B-NP'
p30
g5
tp31
a(S'Video'
p32
S'Video'
p33
S'NN'
p34
S'I-NP'
p35
g5
tp36
a(S'Gaming'
p37
S'Game'
p38
S'VBG'
p39
S'B-VP'
p40
g5
tp41
a(S'to'
p42
S'to'
p43
S'TO'
p44
S'I-VP'
p45
g5
tp46
a(S'Prevent'
p47
S'Prevent'
p48
S'VB'
p49
S'I-VP'
p50
g5
tp51
a(S'Excessive'
p52
S'Excessive'
p53
S'JJ'
p54
S'B-NP'
p55
g5
tp56
a(S'Weight'
p57
S'Weight'
p58
S'NN'
p59
S'I-NP'
p60
g5
tp61
a(S'Gain'
p62
S'Gain'
p63
S'NN'
p64
S'I-NP'
p65
g5
tp66
a(S'in'
p67
S'in'
p68
S'IN'
p69
S'B-PP'
p70
g5
tp71
a(S'Adolescents'
p72
S'Adolescent'
p73
S'NNS'
p74
S'B-NP'
p75
g5
tp76
a(S'.'
p77
g77
g77
g5
g5
tp78
a(S'OBJECTIVE'
p79
S'OBJECTIVE'
p80
S'NN'
p81
S'B-NP'
p82
g5
tp83
a(S'The'
p84
S'The'
p85
S'DT'
p86
S'B-NP'
p87
g5
tp88
a(S'aim'
p89
S'aim'
p90
S'NN'
p91
S'I-NP'
p92
g5
tp93
a(S'of'
p94
S'of'
p95
S'IN'
p96
S'B-PP'
p97
g5
tp98
a(S'the'
p99
S'the'
p100
S'DT'
p101
S'B-NP'
p102
g5
tp103
a(S'current'
p104
S'current'
p105
S'JJ'
p106
S'I-NP'
p107
g5
tp108
a(S'study'
p109
S'study'
p110
S'NN'
p111
S'I-NP'
p112
g5
tp113
a(S'was'
p114
S'be'
p115
S'VBD'
p116
S'B-VP'
p117
g5
tp118
a(S'to'
p119
S'to'
p120
S'TO'
p121
S'B-VP'
p122
g5
tp123
a(S'evaluate'
p124
S'evaluate'
p125
S'VB'
p126
S'I-VP'
p127
g5
tp128
a(S'the'
p129
S'the'
p130
S'DT'
p131
S'B-NP'
p132
g5
tp133
a(S'effects'
p134
S'effect'
p135
S'NNS'
p136
S'I-NP'
p137
g5
tp138
a(S'of'
p139
S'of'
p140
S'IN'
p141
S'B-PP'
p142
g5
tp143
a(S'and'
p144
S'and'
p145
S'CC'
p146
g5
g5
tp147
a(S'adherence'
p148
S'adherence'
p149
S'NN'
p150
S'B-NP'
p151
g5
tp152
a(S'to'
p153
S'to'
p154
S'TO'
p155
S'B-PP'
p156
g5
tp157
a(S'an'
p158
S'an'
p159
S'DT'
p160
S'B-NP'
p161
g5
tp162
a(S'active'
p163
S'active'
p164
S'JJ'
p165
S'I-NP'
p166
g5
tp167
a(S'video'
p168
S'video'
p169
S'NN'
p170
S'I-NP'
p171
g5
tp172
a(S'game'
p173
S'game'
p174
S'NN'
p175
S'I-NP'
p176
g5
tp177
a(S'promotion'
p178
S'promotion'
p179
S'NN'
p180
S'I-NP'
p181
g5
tp182
a(S'intervention'
p183
S'intervention'
p184
S'NN'
p185
S'I-NP'
p186
g5
tp187
a(S'on'
p188
S'on'
p189
S'IN'
p190
S'B-PP'
p191
g5
tp192
a(S'anthropometrics'
p193
S'anthropometric'
p194
S'NNS'
p195
S'B-NP'
p196
g5
tp197
a(S','
p198
g198
g198
g5
g5
tp199
a(S'sedentary'
p200
S'sedentary'
p201
S'JJ'
p202
S'B-NP'
p203
g5
tp204
a(S'screen'
p205
S'screen'
p206
S'NN'
p207
S'I-NP'
p208
g5
tp209
a(S'time'
p210
S'time'
p211
S'NN'
p212
S'I-NP'
p213
g5
tp214
a(S'and'
p215
S'and'
p216
S'CC'
p217
S'B-NP'
p218
g5
tp219
a(S'consumption'
p220
S'consumption'
p221
S'NN'
p222
S'I-NP'
p223
g5
tp224
a(S'of'
p225
S'of'
p226
S'IN'
p227
S'B-PP'
p228
g5
tp229
a(S'sugar-sweetened'
p230
S'sugar-sweetened'
p231
S'JJ'
p232
S'B-NP'
p233
g5
tp234
a(S'beverages'
p235
S'beverage'
p236
S'NNS'
p237
S'I-NP'
p238
g5
tp239
a(S'and'
p240
S'and'
p241
S'CC'
p242
S'I-NP'
p243
g5
tp244
a(S'snacks'
p245
S'snack'
p246
S'NNS'
p247
S'I-NP'
p248
g5
tp249
a(S'among'
p250
S'among'
p251
S'IN'
p252
S'B-PP'
p253
g5
tp254
a(S'non-active'
p255
S'non-active'
p256
S'JJ'
p257
S'B-NP'
p258
g5
tp259
a(S'video'
p260
S'video'
p261
S'NN'
p262
S'I-NP'
p263
g5
tp264
a(S'gaming'
p265
S'gaming'
p266
S'NN'
p267
S'I-NP'
p268
g5
tp269
a(S'adolescents'
p270
S'adolescent'
p271
S'NNS'
p272
S'I-NP'
p273
g5
tp274
a(S'who'
p275
S'who'
p276
S'WP'
p277
S'B-NP'
p278
g5
tp279
a(S'primarily'
p280
S'primarily'
p281
S'RB'
p282
S'B-ADVP'
p283
g5
tp284
a(S'were'
p285
S'be'
p286
S'VBD'
p287
S'B-VP'
p288
g5
tp289
a(S'of'
p290
S'of'
p291
S'IN'
p292
S'B-PP'
p293
g5
tp294
a(S'healthy'
p295
S'healthy'
p296
S'JJ'
p297
S'B-NP'
p298
g5
tp299
a(S'weight'
p300
S'weight'
p301
S'NN'
p302
S'I-NP'
p303
g5
tp304
a(g77
g77
g77
g5
g5
tp305
a(S'METHODS'
p306
S'METHODS'
p307
S'NNS'
p308
S'B-NP'
p309
g5
tp310
a(S'We'
p311
S'We'
p312
S'PRP'
p313
S'B-NP'
p314
g5
tp315
a(S'assigned'
p316
S'assign'
p317
S'VBD'
p318
S'B-VP'
p319
g5
tp320
a(S'270'
p321
S'270'
p322
S'CD'
p323
S'B-NP'
p324
g5
tp325
a(S'gaming'
p326
S'gaming'
p327
S'NN'
p328
S'I-NP'
p329
g5
tp330
a(S'('
p331
g331
g331
g5
g5
tp332
a(S'i.e.'
p333
S'i.e.'
p334
S'FW'
p335
S'B-NP'
p336
g5
tp337
a(S'\xe2\x89\xa5'
p338
S'\xe2\x89\xa5'
p339
S'FW'
p340
S'I-NP'
p341
g5
tp342
a(S'2'
p343
g343
S'CD'
p344
S'I-NP'
p345
g5
tp346
a(S'hours/week'
p347
S'hours/week'
p348
S'NN'
p349
S'I-NP'
p350
g5
tp351
a(S'non-active'
p352
S'non-active'
p353
S'JJ'
p354
S'I-NP'
p355
g5
tp356
a(S'video'
p357
S'video'
p358
S'NN'
p359
S'I-NP'
p360
g5
tp361
a(S'game'
p362
S'game'
p363
S'NN'
p364
S'I-NP'
p365
g5
tp366
a(S'time'
p367
S'time'
p368
S'NN'
p369
S'I-NP'
p370
g5
tp371
a(S')'
p372
g372
g372
g5
g5
tp373
a(S'adolescents'
p374
S'adolescent'
p375
S'NNS'
p376
S'B-NP'
p377
g5
tp378
a(S'randomly'
p379
S'randomly'
p380
S'RB'
p381
S'B-ADVP'
p382
g5
tp383
a(S'to'
p384
S'to'
p385
S'TO'
p386
S'B-PP'
p387
g5
tp388
a(S'an'
p389
S'an'
p390
S'DT'
p391
S'B-NP'
p392
g5
tp393
a(S'intervention'
p394
S'intervention'
p395
S'NN'
p396
S'I-NP'
p397
g5
tp398
a(S'group'
p399
S'group'
p400
S'NN'
p401
S'I-NP'
p402
g5
tp403
a(g331
g331
g331
g5
g5
tp404
a(S'n'
p405
g405
S'NN'
p406
S'B-NP'
p407
g5
tp408
a(S'='
p409
g409
S'SYM'
p410
S'B-VP'
p411
g5
tp412
a(S'140'
p413
S'140'
p414
S'CD'
p415
S'B-NP'
p416
g5
tp417
a(g372
g372
g372
g5
g5
tp418
a(g331
g331
g331
g5
g5
tp419
a(S'receiving'
p420
S'receive'
p421
S'VBG'
p422
S'B-VP'
p423
g5
tp424
a(S'active'
p425
S'active'
p426
S'JJ'
p427
S'B-NP'
p428
g5
tp429
a(S'video'
p430
S'video'
p431
S'NN'
p432
S'I-NP'
p433
g5
tp434
a(S'games'
p435
S'game'
p436
S'NNS'
p437
S'I-NP'
p438
g5
tp439
a(S'and'
p440
S'and'
p441
S'CC'
p442
g5
g5
tp443
a(S'encouragement'
p444
S'encouragement'
p445
S'NN'
p446
S'B-NP'
p447
g5
tp448
a(S'to'
p449
S'to'
p450
S'TO'
p451
S'B-VP'
p452
g5
tp453
a(S'play'
p454
S'play'
p455
S'VB'
p456
S'I-VP'
p457
g5
tp458
a(g372
g372
g372
g5
g5
tp459
a(S'or'
p460
S'or'
p461
S'CC'
p462
g5
g5
tp463
a(S'a'
p464
g464
S'DT'
p465
S'B-NP'
p466
g5
tp467
a(S'waiting-list'
p468
S'waiting-list'
p469
S'JJ'
p470
S'I-NP'
p471
g5
tp472
a(S'control'
p473
S'control'
p474
S'NN'
p475
S'I-NP'
p476
g5
tp477
a(S'group'
p478
S'group'
p479
S'NN'
p480
S'I-NP'
p481
g5
tp482
a(g331
g331
g331
g5
g5
tp483
a(g405
g405
S'NN'
p484
S'B-NP'
p485
g5
tp486
a(g409
g409
S'SYM'
p487
S'B-VP'
p488
g5
tp489
a(S'130'
p490
S'130'
p491
S'CD'
p492
S'B-NP'
p493
g5
tp494
a(g372
g372
g372
g5
g5
tp495
a(g77
g77
g77
g5
g5
tp496
a(S'BMI-SDS'
p497
S'BMI-SDS'
p498
S'NN'
p499
S'B-NP'
p500
g5
tp501
a(g331
g331
g331
g5
g5
tp502
a(S'SDS'
p503
S'SDS'
p504
S'NN'
p505
S'B-NP'
p506
g5
tp507
a(g409
g409
S'SYM'
p508
S'B-NP'
p509
g5
tp510
a(S'adjusted'
p511
S'adjust'
p512
S'VBN'
p513
S'B-VP'
p514
g5
tp515
a(S'for'
p516
S'for'
p517
S'IN'
p518
S'B-PP'
p519
g5
tp520
a(S'mean'
p521
S'mean'
p522
S'JJ'
p523
S'B-NP'
p524
g5
tp525
a(S'standard'
p526
S'standard'
p527
S'JJ'
p528
S'I-NP'
p529
g5
tp530
a(S'deviation'
p531
S'deviation'
p532
S'NN'
p533
S'I-NP'
p534
g5
tp535
a(S'score'
p536
S'score'
p537
S'NN'
p538
S'I-NP'
p539
g5
tp540
a(g372
g372
g372
g5
g5
tp541
a(g198
g198
g198
g5
g5
tp542
a(S'waist'
p543
S'waist'
p544
S'NN'
p545
S'B-NP'
p546
g5
tp547
a(S'circumference-SDS'
p548
S'circumference-SDS'
p549
S'NN'
p550
S'I-NP'
p551
g5
tp552
a(g198
g198
g198
g5
g5
tp553
a(S'hip'
p554
S'hip'
p555
S'NN'
p556
S'B-NP'
p557
g5
tp558
a(S'circumference'
p559
S'circumference'
p560
S'NN'
p561
S'I-NP'
p562
g5
tp563
a(S'and'
p564
S'and'
p565
S'CC'
p566
S'I-NP'
p567
g5
tp568
a(S'sum'
p569
S'sum'
p570
S'NN'
p571
S'I-NP'
p572
g5
tp573
a(S'of'
p574
S'of'
p575
S'IN'
p576
S'B-PP'
p577
g5
tp578
a(S'skinfolds'
p579
S'skinfold'
p580
S'NNS'
p581
S'B-NP'
p582
g5
tp583
a(S'were'
p584
S'be'
p585
S'VBD'
p586
S'B-VP'
p587
g5
tp588
a(S'measured'
p589
S'measure'
p590
S'VBN'
p591
S'I-VP'
p592
g5
tp593
a(S'at'
p594
S'at'
p595
S'IN'
p596
S'B-PP'
p597
g5
tp598
a(S'baseline'
p599
S'baseline'
p600
S'NN'
p601
S'B-NP'
p602
g5
tp603
a(g198
g198
g198
g5
g5
tp604
a(S'at'
p605
S'at'
p606
S'IN'
p607
S'B-PP'
p608
g5
tp609
a(S'four'
p610
S'four'
p611
S'CD'
p612
S'B-NP'
p613
g5
tp614
a(S'and'
p615
S'and'
p616
S'CC'
p617
S'I-NP'
p618
g5
tp619
a(S'ten'
p620
S'ten'
p621
S'CD'
p622
S'I-NP'
p623
g5
tp624
a(S'months'
p625
S'month'
p626
S'NNS'
p627
S'I-NP'
p628
g5
tp629
a(S'follow-up'
p630
S'follow-up'
p631
S'JJ'
p632
S'B-ADJP'
p633
g5
tp634
a(g331
g331
g331
g5
g5
tp635
a(S'primary'
p636
S'primary'
p637
S'JJ'
p638
S'B-NP'
p639
g5
tp640
a(S'outcomes'
p641
S'outcome'
p642
S'NNS'
p643
S'I-NP'
p644
g5
tp645
a(g372
g372
g372
g5
g5
tp646
a(g77
g77
g77
g5
g5
tp647
a(S'Sedentary'
p648
S'Sedentary'
p649
S'JJ'
p650
S'B-NP'
p651
g5
tp652
a(S'screen'
p653
S'screen'
p654
S'NN'
p655
S'I-NP'
p656
g5
tp657
a(S'time'
p658
S'time'
p659
S'NN'
p660
S'I-NP'
p661
g5
tp662
a(g198
g198
g198
g5
g5
tp663
a(S'physical'
p664
S'physical'
p665
S'JJ'
p666
S'B-NP'
p667
g5
tp668
a(S'activity'
p669
S'activity'
p670
S'NN'
p671
S'I-NP'
p672
g5
tp673
a(g198
g198
g198
g5
g5
tp674
a(S'consumption'
p675
S'consumption'
p676
S'NN'
p677
S'B-NP'
p678
g5
tp679
a(S'of'
p680
S'of'
p681
S'IN'
p682
S'B-PP'
p683
g5
tp684
a(S'sugar-sweetened'
p685
S'sugar-sweetened'
p686
S'JJ'
p687
S'B-NP'
p688
g5
tp689
a(S'beverages'
p690
S'beverage'
p691
S'NNS'
p692
S'I-NP'
p693
g5
tp694
a(S'and'
p695
S'and'
p696
S'CC'
p697
S'I-NP'
p698
g5
tp699
a(S'snacks'
p700
S'snack'
p701
S'NNS'
p702
S'I-NP'
p703
g5
tp704
a(g198
g198
g198
g5
g5
tp705
a(S'and'
p706
S'and'
p707
S'CC'
p708
g5
g5
tp709
a(S'process'
p710
S'process'
p711
S'NN'
p712
S'B-NP'
p713
g5
tp714
a(S'measures'
p715
S'measure'
p716
S'NNS'
p717
S'I-NP'
p718
g5
tp719
a(g331
g331
g331
g5
g5
tp720
a(S'not'
p721
S'not'
p722
S'RB'
p723
g5
g5
tp724
a(S'at'
p725
S'at'
p726
S'IN'
p727
S'B-PP'
p728
g5
tp729
a(S'baseline'
p730
S'baseline'
p731
S'NN'
p732
S'B-NP'
p733
g5
tp734
a(g372
g372
g372
g5
g5
tp735
a(S'were'
p736
S'be'
p737
S'VBD'
p738
S'B-VP'
p739
g5
tp740
a(S'assessed'
p741
S'assess'
p742
S'VBN'
p743
S'I-VP'
p744
g5
tp745
a(S'with'
p746
S'with'
p747
S'IN'
p748
S'B-PP'
p749
g5
tp750
a(S'self-reports'
p751
S'self-report'
p752
S'NNS'
p753
S'B-NP'
p754
g5
tp755
a(S'at'
p756
S'at'
p757
S'IN'
p758
S'B-PP'
p759
g5
tp760
a(S'baseline'
p761
S'baseline'
p762
S'NN'
p763
S'B-NP'
p764
g5
tp765
a(g198
g198
g198
g5
g5
tp766
a(S'one'
p767
S'one'
p768
S'CD'
p769
S'B-NP'
p770
g5
tp771
a(g198
g198
g198
S'I-NP'
p772
g5
tp773
a(S'four'
p774
S'four'
p775
S'CD'
p776
S'I-NP'
p777
g5
tp778
a(S'and'
p779
S'and'
p780
S'CC'
p781
S'I-NP'
p782
g5
tp783
a(S'ten'
p784
S'ten'
p785
S'CD'
p786
S'I-NP'
p787
g5
tp788
a(S'months'
p789
S'month'
p790
S'NNS'
p791
S'I-NP'
p792
g5
tp793
a(S'follow-up.'
p794
S'follow-up.'
p795
S'JJ'
p796
S'B-NP'
p797
g5
tp798
a(S'Multi-level-intention'
p799
S'Multi-level-intention'
p800
S'NN'
p801
S'I-NP'
p802
g5
tp803
a(S'to'
p804
S'to'
p805
S'TO'
p806
S'B-PP'
p807
g5
tp808
a(S'treat-regression'
p809
S'treat-regression'
p810
S'NN'
p811
S'B-NP'
p812
g5
tp813
a(S'analyses'
p814
S'analysis'
p815
S'NNS'
p816
S'I-NP'
p817
g5
tp818
a(S'were'
p819
S'be'
p820
S'VBD'
p821
S'B-VP'
p822
g5
tp823
a(S'conducted'
p824
S'conduct'
p825
S'VBN'
p826
S'I-VP'
p827
g5
tp828
a(g77
g77
g77
g5
g5
tp829
a(S'RESULTS'
p830
S'RESULTS'
p831
S'NNS'
p832
S'B-NP'
p833
g5
tp834
a(S'The'
p835
S'The'
p836
S'DT'
p837
S'B-NP'
p838
g5
tp839
a(S'control'
p840
S'control'
p841
S'NN'
p842
S'I-NP'
p843
g5
tp844
a(S'group'
p845
S'group'
p846
S'NN'
p847
S'I-NP'
p848
g5
tp849
a(S'decreased'
p850
S'decrease'
p851
S'VBD'
p852
S'B-VP'
p853
g5
tp854
a(S'significantly'
p855
S'significantly'
p856
S'RB'
p857
S'B-ADJP'
p858
g5
tp859
a(S'more'
p860
S'more'
p861
S'JJR'
p862
S'I-ADJP'
p863
g5
tp864
a(S'than'
p865
S'than'
p866
S'IN'
p867
S'B-PP'
p868
g5
tp869
a(S'the'
p870
S'the'
p871
S'DT'
p872
S'B-NP'
p873
g5
tp874
a(S'intervention'
p875
S'intervention'
p876
S'NN'
p877
S'I-NP'
p878
g5
tp879
a(S'group'
p880
S'group'
p881
S'NN'
p882
S'I-NP'
p883
g5
tp884
a(S'on'
p885
S'on'
p886
S'IN'
p887
S'B-PP'
p888
g5
tp889
a(S'BMI-SDS'
p890
S'BMI-SDS'
p891
S'NN'
p892
S'B-NP'
p893
g5
tp894
a(g331
g331
g331
g5
g5
tp895
a(S'\xce\xb2'
p896
S'\xce\xb2'
p897
S'NN'
p898
S'B-NP'
p899
g5
tp900
a(g409
g409
S'SYM'
p901
S'B-VP'
p902
g5
tp903
a(S'0.074'
p904
S'0.074'
p905
S'CD'
p906
S'B-NP'
p907
g5
tp908
a(g198
g198
g198
g5
g5
tp909
a(S'95'
p910
S'95'
p911
S'CD'
p912
S'B-NP'
p913
g5
tp914
a(S'%'
p915
g915
S'NN'
p916
S'I-NP'
p917
g5
tp918
a(S'CI'
p919
S'CI'
p920
S'NN'
p921
S'I-NP'
p922
g5
tp923
a(S':'
p924
g924
g924
g5
g5
tp925
a(S'0.008'
p926
S'0.008'
p927
S'CD'
p928
S'B-NP'
p929
g5
tp930
a(S';'
p931
g931
g924
g5
g5
tp932
a(S'0.14'
p933
S'0.14'
p934
S'CD'
p935
S'B-NP'
p936
g5
tp937
a(g372
g372
g372
g5
g5
tp938
a(g198
g198
g198
g5
g5
tp939
a(S'and'
p940
S'and'
p941
S'CC'
p942
g5
g5
tp943
a(S'sum'
p944
S'sum'
p945
S'NN'
p946
S'B-NP'
p947
g5
tp948
a(S'of'
p949
S'of'
p950
S'IN'
p951
S'B-PP'
p952
g5
tp953
a(S'skinfolds'
p954
S'skinfold'
p955
S'NNS'
p956
S'B-NP'
p957
g5
tp958
a(g331
g331
g331
g5
g5
tp959
a(S'\xce\xb2'
p960
S'\xce\xb2'
p961
S'NN'
p962
S'B-NP'
p963
g5
tp964
a(g409
g409
S'SYM'
p965
S'B-VP'
p966
g5
tp967
a(S'3.22'
p968
S'3.22'
p969
S'CD'
p970
S'B-NP'
p971
g5
tp972
a(g198
g198
g198
g5
g5
tp973
a(S'95'
p974
S'95'
p975
S'CD'
p976
S'B-NP'
p977
g5
tp978
a(g915
g915
S'NN'
p979
S'I-NP'
p980
g5
tp981
a(S'CI'
p982
S'CI'
p983
S'NN'
p984
S'I-NP'
p985
g5
tp986
a(g924
g924
g924
g5
g5
tp987
a(S'0.27'
p988
S'0.27'
p989
S'CD'
p990
S'B-NP'
p991
g5
tp992
a(g931
g931
g924
g5
g5
tp993
a(S'6.17'
p994
S'6.17'
p995
S'CD'
p996
S'B-NP'
p997
g5
tp998
a(g372
g372
g372
g5
g5
tp999
a(g331
g331
g331
g5
g5
tp1000
a(S'overall'
p1001
S'overall'
p1002
S'JJ'
p1003
S'B-NP'
p1004
g5
tp1005
a(S'effects'
p1006
S'effect'
p1007
S'NNS'
p1008
S'I-NP'
p1009
g5
tp1010
a(g372
g372
g372
g5
g5
tp1011
a(g77
g77
g77
g5
g5
tp1012
a(S'The'
p1013
S'The'
p1014
S'DT'
p1015
S'B-NP'
p1016
g5
tp1017
a(S'intervention'
p1018
S'intervention'
p1019
S'NN'
p1020
S'I-NP'
p1021
g5
tp1022
a(S'group'
p1023
S'group'
p1024
S'NN'
p1025
S'I-NP'
p1026
g5
tp1027
a(S'had'
p1028
S'have'
p1029
S'VBD'
p1030
S'B-VP'
p1031
g5
tp1032
a(g464
g464
S'DT'
p1033
S'B-NP'
p1034
g5
tp1035
a(S'significantly'
p1036
S'significantly'
p1037
S'RB'
p1038
S'I-NP'
p1039
g5
tp1040
a(S'higher'
p1041
S'high'
p1042
S'JJR'
p1043
S'I-NP'
p1044
g5
tp1045
a(S'decrease'
p1046
S'decrease'
p1047
S'NN'
p1048
S'I-NP'
p1049
g5
tp1050
a(S'in'
p1051
S'in'
p1052
S'IN'
p1053
S'B-PP'
p1054
g5
tp1055
a(S'self-reported'
p1056
S'self-reported'
p1057
S'JJ'
p1058
S'B-NP'
p1059
g5
tp1060
a(S'non-active'
p1061
S'non-active'
p1062
S'JJ'
p1063
S'I-NP'
p1064
g5
tp1065
a(S'video'
p1066
S'video'
p1067
S'NN'
p1068
S'I-NP'
p1069
g5
tp1070
a(S'game'
p1071
S'game'
p1072
S'NN'
p1073
S'I-NP'
p1074
g5
tp1075
a(S'time'
p1076
S'time'
p1077
S'NN'
p1078
S'I-NP'
p1079
g5
tp1080
a(g331
g331
g331
g5
g5
tp1081
a(S'\xce\xb2'
p1082
S'\xce\xb2'
p1083
S'NN'
p1084
S'B-NP'
p1085
g5
tp1086
a(g409
g409
S'SYM'
p1087
S'B-VP'
p1088
g5
tp1089
a(S'-1.76'
p1090
S'-1.76'
p1091
S'CD'
p1092
S'B-NP'
p1093
g5
tp1094
a(g198
g198
g198
g5
g5
tp1095
a(S'95'
p1096
S'95'
p1097
S'CD'
p1098
S'B-NP'
p1099
g5
tp1100
a(g915
g915
S'NN'
p1101
S'I-NP'
p1102
g5
tp1103
a(S'CI'
p1104
S'CI'
p1105
S'NN'
p1106
S'I-NP'
p1107
g5
tp1108
a(g924
g924
g924
g5
g5
tp1109
a(S'-3.20'
p1110
S'-3.20'
p1111
S'CD'
p1112
S'B-NP'
p1113
g5
tp1114
a(g931
g931
g924
g5
g5
tp1115
a(S'-0.32'
p1116
S'-0.32'
p1117
S'CD'
p1118
S'B-NP'
p1119
g5
tp1120
a(g372
g372
g372
g5
g5
tp1121
a(S'and'
p1122
S'and'
p1123
S'CC'
p1124
g5
g5
tp1125
a(S'total'
p1126
S'total'
p1127
S'JJ'
p1128
S'B-NP'
p1129
g5
tp1130
a(S'sedentary'
p1131
S'sedentary'
p1132
S'JJ'
p1133
S'I-NP'
p1134
g5
tp1135
a(S'screen'
p1136
S'screen'
p1137
S'NN'
p1138
S'I-NP'
p1139
g5
tp1140
a(S'time'
p1141
S'time'
p1142
S'NN'
p1143
S'I-NP'
p1144
g5
tp1145
a(g331
g331
g331
g5
g5
tp1146
a(S'Exp'
p1147
S'Exp'
p1148
S'NN'
p1149
S'B-NP'
p1150
g5
tp1151
a(g331
g331
g331
g5
g5
tp1152
a(S'\xce\xb2'
p1153
S'\xce\xb2'
p1154
S'NN'
p1155
S'B-NP'
p1156
g5
tp1157
a(g409
g409
S'SYM'
p1158
S'B-VP'
p1159
g5
tp1160
a(S'0.81'
p1161
S'0.81'
p1162
S'CD'
p1163
S'B-NP'
p1164
g5
tp1165
a(g198
g198
g198
g5
g5
tp1166
a(S'95'
p1167
S'95'
p1168
S'CD'
p1169
S'B-NP'
p1170
g5
tp1171
a(g915
g915
S'NN'
p1172
S'I-NP'
p1173
g5
tp1174
a(S'CI'
p1175
S'CI'
p1176
S'NN'
p1177
S'I-NP'
p1178
g5
tp1179
a(g924
g924
g924
g5
g5
tp1180
a(S'0.74'
p1181
S'0.74'
p1182
S'CD'
p1183
S'B-NP'
p1184
g5
tp1185
a(g931
g931
g924
g5
g5
tp1186
a(S'0.88'
p1187
S'0.88'
p1188
S'CD'
p1189
S'B-NP'
p1190
g5
tp1191
a(g372
g372
g372
g5
g5
tp1192
a(S'than'
p1193
S'than'
p1194
S'IN'
p1195
S'B-PP'
p1196
g5
tp1197
a(S'the'
p1198
S'the'
p1199
S'DT'
p1200
S'B-NP'
p1201
g5
tp1202
a(S'control'
p1203
S'control'
p1204
S'NN'
p1205
S'I-NP'
p1206
g5
tp1207
a(S'group'
p1208
S'group'
p1209
S'NN'
p1210
S'I-NP'
p1211
g5
tp1212
a(g331
g331
g331
g5
g5
tp1213
a(S'overall'
p1214
S'overall'
p1215
S'JJ'
p1216
S'B-NP'
p1217
g5
tp1218
a(S'effects'
p1219
S'effect'
p1220
S'NNS'
p1221
S'I-NP'
p1222
g5
tp1223
a(g372
g372
g372
g5
g5
tp1224
a(g77
g77
g77
g5
g5
tp1225
a(S'The'
p1226
S'The'
p1227
S'DT'
p1228
S'B-NP'
p1229
g5
tp1230
a(S'process'
p1231
S'process'
p1232
S'NN'
p1233
S'I-NP'
p1234
g5
tp1235
a(S'evaluation'
p1236
S'evaluation'
p1237
S'NN'
p1238
S'I-NP'
p1239
g5
tp1240
a(S'showed'
p1241
S'show'
p1242
S'VBD'
p1243
S'B-VP'
p1244
g5
tp1245
a(S'that'
p1246
S'that'
p1247
S'IN'
p1248
S'B-SBAR'
p1249
g5
tp1250
a(S'14'
p1251
S'14'
p1252
S'CD'
p1253
S'B-NP'
p1254
g5
tp1255
a(g915
g915
S'NN'
p1256
S'I-NP'
p1257
g5
tp1258
a(S'of'
p1259
S'of'
p1260
S'IN'
p1261
S'B-PP'
p1262
g5
tp1263
a(S'the'
p1264
S'the'
p1265
S'DT'
p1266
S'B-NP'
p1267
g5
tp1268
a(S'adolescents'
p1269
S'adolescent'
p1270
S'NNS'
p1271
S'I-NP'
p1272
g5
tp1273
a(S'played'
p1274
S'play'
p1275
S'VBD'
p1276
S'B-VP'
p1277
g5
tp1278
a(S'the'
p1279
S'the'
p1280
S'DT'
p1281
S'B-NP'
p1282
g5
tp1283
a(S'Move'
p1284
S'Move'
p1285
S'NNP'
p1286
S'I-NP'
p1287
g5
tp1288
a(S'video'
p1289
S'video'
p1290
S'NN'
p1291
S'I-NP'
p1292
g5
tp1293
a(S'games'
p1294
S'game'
p1295
S'NNS'
p1296
S'I-NP'
p1297
g5
tp1298
a(S'every'
p1299
S'every'
p1300
S'DT'
p1301
S'B-NP'
p1302
g5
tp1303
a(S'week'
p1304
S'week'
p1305
S'NN'
p1306
S'I-NP'
p1307
g5
tp1308
a(S'\xe2\x89\xa5'
p1309
S'\xe2\x89\xa5'
p1310
S'VBD'
p1311
S'B-VP'
p1312
g5
tp1313
a(S'1'
p1314
g1314
S'CD'
p1315
S'B-NP'
p1316
g5
tp1317
a(S'hour/week'
p1318
S'hour/week'
p1319
S'NN'
p1320
S'I-NP'
p1321
g5
tp1322
a(S'during'
p1323
S'during'
p1324
S'IN'
p1325
S'B-PP'
p1326
g5
tp1327
a(S'the'
p1328
S'the'
p1329
S'DT'
p1330
S'B-NP'
p1331
g5
tp1332
a(S'whole'
p1333
S'whole'
p1334
S'JJ'
p1335
S'I-NP'
p1336
g5
tp1337
a(S'intervention'
p1338
S'intervention'
p1339
S'NN'
p1340
S'I-NP'
p1341
g5
tp1342
a(S'period'
p1343
S'period'
p1344
S'NN'
p1345
S'I-NP'
p1346
g5
tp1347
a(g77
g77
g77
g5
g5
tp1348
a(S'CONCLUSIONS'
p1349
S'CONCLUSIONS'
p1350
S'NNS'
p1351
S'B-NP'
p1352
g5
tp1353
a(S'The'
p1354
S'The'
p1355
S'DT'
p1356
S'B-NP'
p1357
g5
tp1358
a(S'active'
p1359
S'active'
p1360
S'JJ'
p1361
S'I-NP'
p1362
g5
tp1363
a(S'video'
p1364
S'video'
p1365
S'NN'
p1366
S'I-NP'
p1367
g5
tp1368
a(S'game'
p1369
S'game'
p1370
S'NN'
p1371
S'I-NP'
p1372
g5
tp1373
a(S'intervention'
p1374
S'intervention'
p1375
S'NN'
p1376
S'I-NP'
p1377
g5
tp1378
a(S'did'
p1379
S'do'
p1380
S'VBD'
p1381
S'B-VP'
p1382
g5
tp1383
a(S'not'
p1384
S'not'
p1385
S'RB'
p1386
S'I-VP'
p1387
g5
tp1388
a(S'result'
p1389
S'result'
p1390
S'VB'
p1391
S'I-VP'
p1392
g5
tp1393
a(S'in'
p1394
S'in'
p1395
S'IN'
p1396
S'B-PP'
p1397
g5
tp1398
a(S'lower'
p1399
S'low'
p1400
S'JJR'
p1401
S'B-NP'
p1402
g5
tp1403
a(S'values'
p1404
S'value'
p1405
S'NNS'
p1406
S'I-NP'
p1407
g5
tp1408
a(S'on'
p1409
S'on'
p1410
S'IN'
p1411
S'B-PP'
p1412
g5
tp1413
a(S'anthropometrics'
p1414
S'anthropometric'
p1415
S'NNS'
p1416
S'B-NP'
p1417
g5
tp1418
a(S'in'
p1419
S'in'
p1420
S'IN'
p1421
S'B-PP'
p1422
g5
tp1423
a(g464
g464
S'DT'
p1424
S'B-NP'
p1425
g5
tp1426
a(S'group'
p1427
S'group'
p1428
S'NN'
p1429
S'I-NP'
p1430
g5
tp1431
a(S'of'
p1432
S'of'
p1433
S'IN'
p1434
S'B-PP'
p1435
g5
tp1436
a(S"'excessive"
p1437
S"'excessive"
p1438
S'JJ'
p1439
S'B-NP'
p1440
g5
tp1441
a(S"'"
p1442
g1442
S'``'
p1443
S'I-NP'
p1444
g5
tp1445
a(S'non-active'
p1446
S'non-active'
p1447
S'JJ'
p1448
S'I-NP'
p1449
g5
tp1450
a(S'video'
p1451
S'video'
p1452
S'NN'
p1453
S'I-NP'
p1454
g5
tp1455
a(S'gamers'
p1456
S'gamer'
p1457
S'NNS'
p1458
S'I-NP'
p1459
g5
tp1460
a(g331
g331
g331
g5
g5
tp1461
a(S'mean'
p1462
S'mean'
p1463
S'JJ'
p1464
S'B-ADJP'
p1465
g5
tp1466
a(S'~'
p1467
g1467
S'IN'
p1468
S'B-PP'
p1469
g5
tp1470
a(S'14'
p1471
S'14'
p1472
S'CD'
p1473
S'B-NP'
p1474
g5
tp1475
a(S'hours/week'
p1476
S'hours/week'
p1477
S'NN'
p1478
S'I-NP'
p1479
g5
tp1480
a(g372
g372
g372
g5
g5
tp1481
a(S'who'
p1482
S'who'
p1483
S'WP'
p1484
S'B-NP'
p1485
g5
tp1486
a(S'primarily'
p1487
S'primarily'
p1488
S'RB'
p1489
S'B-ADVP'
p1490
g5
tp1491
a(S'were'
p1492
S'be'
p1493
S'VBD'
p1494
S'B-VP'
p1495
g5
tp1496
a(S'of'
p1497
S'of'
p1498
S'IN'
p1499
S'B-PP'
p1500
g5
tp1501
a(S'healthy'
p1502
S'healthy'
p1503
S'JJ'
p1504
S'B-NP'
p1505
g5
tp1506
a(S'weight'
p1507
S'weight'
p1508
S'NN'
p1509
S'I-NP'
p1510
g5
tp1511
a(S'compared'
p1512
S'compare'
p1513
S'VBN'
p1514
S'B-VP'
p1515
g5
tp1516
a(S'to'
p1517
S'to'
p1518
S'TO'
p1519
S'B-PP'
p1520
g5
tp1521
a(g464
g464
S'DT'
p1522
S'B-NP'
p1523
g5
tp1524
a(S'control'
p1525
S'control'
p1526
S'NN'
p1527
S'I-NP'
p1528
g5
tp1529
a(S'group'
p1530
S'group'
p1531
S'NN'
p1532
S'I-NP'
p1533
g5
tp1534
a(S'throughout'
p1535
S'throughout'
p1536
S'IN'
p1537
S'B-PP'
p1538
g5
tp1539
a(g464
g464
S'DT'
p1540
S'B-NP'
p1541
g5
tp1542
a(S'ten-month-period.'
p1543
S'ten-month-period.'
p1544
S'NN'
p1545
S'I-NP'
p1546
g5
tp1547
a(S'Even'
p1548
S'Even'
p1549
S'RB'
p1550
S'B-NP'
p1551
g5
tp1552
a(S'some'
p1553
S'some'
p1554
S'DT'
p1555
S'I-NP'
p1556
g5
tp1557
a(S'effects'
p1558
S'effect'
p1559
S'NNS'
p1560
S'I-NP'
p1561
g5
tp1562
a(S'in'
p1563
S'in'
p1564
S'IN'
p1565
S'B-PP'
p1566
g5
tp1567
a(S'the'
p1568
S'the'
p1569
S'DT'
p1570
S'B-NP'
p1571
g5
tp1572
a(S'unexpected'
p1573
S'unexpected'
p1574
S'JJ'
p1575
S'I-NP'
p1576
g5
tp1577
a(S'direction'
p1578
S'direction'
p1579
S'NN'
p1580
S'I-NP'
p1581
g5
tp1582
a(S'were'
p1583
S'be'
p1584
S'VBD'
p1585
S'B-VP'
p1586
g5
tp1587
a(S'found'
p1588
S'find'
p1589
S'VBN'
p1590
S'I-VP'
p1591
g5
tp1592
a(g198
g198
g198
g5
g5
tp1593
a(S'with'
p1594
S'with'
p1595
S'IN'
p1596
S'B-PP'
p1597
g5
tp1598
a(S'the'
p1599
S'the'
p1600
S'DT'
p1601
S'B-NP'
p1602
g5
tp1603
a(S'control'
p1604
S'control'
p1605
S'NN'
p1606
S'I-NP'
p1607
g5
tp1608
a(S'group'
p1609
S'group'
p1610
S'NN'
p1611
S'I-NP'
p1612
g5
tp1613
a(S'showing'
p1614
S'show'
p1615
S'VBG'
p1616
S'B-VP'
p1617
g5
tp1618
a(S'lower'
p1619
S'low'
p1620
S'JJR'
p1621
S'B-NP'
p1622
g5
tp1623
a(S'BMI-SDS'
p1624
S'BMI-SDS'
p1625
S'NN'
p1626
S'I-NP'
p1627
g5
tp1628
a(S'and'
p1629
S'and'
p1630
S'CC'
p1631
S'I-NP'
p1632
g5
tp1633
a(S'skin'
p1634
S'skin'
p1635
S'NN'
p1636
S'I-NP'
p1637
g5
tp1638
a(S'folds'
p1639
S'fold'
p1640
S'NNS'
p1641
S'I-NP'
p1642
g5
tp1643
a(S'than'
p1644
S'than'
p1645
S'IN'
p1646
S'B-PP'
p1647
g5
tp1648
a(S'the'
p1649
S'the'
p1650
S'DT'
p1651
S'B-NP'
p1652
g5
tp1653
a(S'intervention'
p1654
S'intervention'
p1655
S'NN'
p1656
S'I-NP'
p1657
g5
tp1658
a(S'group.'
p1659
S'group.'
p1660
S'NN'
p1661
S'I-NP'
p1662
g5
tp1663
a(S'The'
p1664
S'The'
p1665
S'DT'
p1666
S'B-NP'
p1667
g5
tp1668
a(S'intervention'
p1669
S'intervention'
p1670
S'NN'
p1671
S'I-NP'
p1672
g5
tp1673
a(S'did'
p1674
S'do'
p1675
S'VBD'
p1676
S'B-VP'
p1677
g5
tp1678
a(S'result'
p1679
S'result'
p1680
S'VB'
p1681
S'I-VP'
p1682
g5
tp1683
a(S'in'
p1684
S'in'
p1685
S'IN'
p1686
S'B-PP'
p1687
g5
tp1688
a(S'less'
p1689
S'less'
p1690
S'RBR'
p1691
S'B-NP'
p1692
g5
tp1693
a(S'self-reported'
p1694
S'self-reported'
p1695
S'JJ'
p1696
S'I-NP'
p1697
g5
tp1698
a(S'sedentary'
p1699
S'sedentary'
p1700
S'JJ'
p1701
S'I-NP'
p1702
g5
tp1703
a(S'screen'
p1704
S'screen'
p1705
S'NN'
p1706
S'I-NP'
p1707
g5
tp1708
a(S'time'
p1709
S'time'
p1710
S'NN'
p1711
S'I-NP'
p1712
g5
tp1713
a(g198
g198
g198
g5
g5
tp1714
a(S'although'
p1715
S'although'
p1716
S'IN'
p1717
S'B-SBAR'
p1718
g5
tp1719
a(S'these'
p1720
S'these'
p1721
S'DT'
p1722
S'B-NP'
p1723
g5
tp1724
a(S'results'
p1725
S'result'
p1726
S'NNS'
p1727
S'I-NP'
p1728
g5
tp1729
a(S'are'
p1730
S'be'
p1731
S'VBP'
p1732
S'B-VP'
p1733
g5
tp1734
a(S'likely'
p1735
S'likely'
p1736
S'RB'
p1737
S'I-VP'
p1738
g5
tp1739
a(S'biased'
p1740
S'bias'
p1741
S'VBN'
p1742
S'I-VP'
p1743
g5
tp1744
a(S'by'
p1745
S'by'
p1746
S'IN'
p1747
S'B-PP'
p1748
g5
tp1749
a(S'social'
p1750
S'social'
p1751
S'JJ'
p1752
S'B-NP'
p1753
g5
tp1754
a(S'desirability'
p1755
S'desirability'
p1756
S'NN'
p1757
S'I-NP'
p1758
g5
tp1759
a(g77
g77
g77
g5
g5
tp1760
a(S'TRIAL'
p1761
S'TRIAL'
p1762
S'NNP'
p1763
S'B-NP'
p1764
g5
tp1765
a(S'REGISTRATION'
p1766
S'REGISTRATION'
p1767
S'NNP'
p1768
S'I-NP'
p1769
g5
tp1770
a(S'Dutch'
p1771
S'Dutch'
p1772
S'NNP'
p1773
S'I-NP'
p1774
g5
tp1775
a(S'Trial'
p1776
S'Trial'
p1777
S'NNP'
p1778
S'I-NP'
p1779
g5
tp1780
a(S'Register'
p1781
S'Register'
p1782
S'NNP'
p1783
S'I-NP'
p1784
g5
tp1785
a(S'NTR3228'
p1786
S'NTR3228'
p1787
S'NNP'
p1788
S'I-NP'
p1789
g5
tp1790
a(g77
g77
g77
g5
g5
tp1791
a.