(lp0
(S'A'
p1
g1
S'DT'
p2
S'B-NP'
p3
S'O'
p4
tp5
a(S'randomized'
p6
S'randomize'
p7
S'VBN'
p8
S'I-NP'
p9
g4
tp10
a(S'double'
p11
S'double'
p12
S'JJ'
p13
S'I-NP'
p14
g4
tp15
a(S'blind'
p16
S'blind'
p17
S'JJ'
p18
S'I-NP'
p19
g4
tp20
a(S'placebo'
p21
S'placebo'
p22
S'NN'
p23
S'I-NP'
p24
g4
tp25
a(S'controlled'
p26
S'controlled'
p27
S'JJ'
p28
S'I-NP'
p29
g4
tp30
a(S'clinical'
p31
S'clinical'
p32
S'JJ'
p33
S'I-NP'
p34
g4
tp35
a(S'trial'
p36
S'trial'
p37
S'NN'
p38
S'I-NP'
p39
g4
tp40
a(S'of'
p41
S'of'
p42
S'IN'
p43
S'B-PP'
p44
g4
tp45
a(S'N-Acetylcysteine'
p46
S'N-Acetylcysteine'
p47
S'NN'
p48
S'B-NP'
p49
g4
tp50
a(S'added'
p51
S'add'
p52
S'VBN'
p53
S'B-VP'
p54
g4
tp55
a(S'to'
p56
S'to'
p57
S'TO'
p58
S'B-PP'
p59
g4
tp60
a(S'risperidone'
p61
S'risperidone'
p62
S'NN'
p63
S'B-NP'
p64
g4
tp65
a(S'for'
p66
S'for'
p67
S'IN'
p68
S'B-PP'
p69
g4
tp70
a(S'treating'
p71
S'treat'
p72
S'VBG'
p73
S'B-VP'
p74
g4
tp75
a(S'autistic'
p76
S'autistic'
p77
S'JJ'
p78
S'B-NP'
p79
g4
tp80
a(S'disorders'
p81
S'disorder'
p82
S'NNS'
p83
S'I-NP'
p84
g4
tp85
a(S'.'
p86
g86
g86
g4
g4
tp87
a(S'BACKGROUND'
p88
S'BACKGROUND'
p89
S'NN'
p90
S'B-NP'
p91
g4
tp92
a(S'This'
p93
S'This'
p94
S'DT'
p95
S'B-NP'
p96
g4
tp97
a(S'study'
p98
S'study'
p99
S'NN'
p100
S'I-NP'
p101
g4
tp102
a(S'examined'
p103
S'examine'
p104
S'VBD'
p105
S'B-VP'
p106
g4
tp107
a(S'the'
p108
S'the'
p109
S'DT'
p110
S'B-NP'
p111
g4
tp112
a(S'efficacy'
p113
S'efficacy'
p114
S'NN'
p115
S'I-NP'
p116
g4
tp117
a(S'and'
p118
S'and'
p119
S'CC'
p120
S'I-NP'
p121
g4
tp122
a(S'safety'
p123
S'safety'
p124
S'NN'
p125
S'I-NP'
p126
g4
tp127
a(S'of'
p128
S'of'
p129
S'IN'
p130
S'B-PP'
p131
g4
tp132
a(S'N-acetylcysteine'
p133
S'N-acetylcysteine'
p134
S'NN'
p135
S'B-NP'
p136
g4
tp137
a(S'('
p138
g138
g138
g4
g4
tp139
a(S'NAC'
p140
S'NAC'
p141
S'NN'
p142
S'B-NP'
p143
g4
tp144
a(S')'
p145
g145
g145
g4
g4
tp146
a(S'augmentation'
p147
S'augmentation'
p148
S'NN'
p149
S'B-NP'
p150
g4
tp151
a(S'for'
p152
S'for'
p153
S'IN'
p154
S'B-PP'
p155
g4
tp156
a(S'treating'
p157
S'treat'
p158
S'VBG'
p159
S'B-VP'
p160
g4
tp161
a(S'irritability'
p162
S'irritability'
p163
S'NN'
p164
S'B-NP'
p165
g4
tp166
a(S'in'
p167
S'in'
p168
S'IN'
p169
S'B-PP'
p170
g4
tp171
a(S'children'
p172
S'child'
p173
S'NNS'
p174
S'B-NP'
p175
g4
tp176
a(S'and'
p177
S'and'
p178
S'CC'
p179
S'I-NP'
p180
g4
tp181
a(S'adolescents'
p182
S'adolescent'
p183
S'NNS'
p184
S'I-NP'
p185
g4
tp186
a(S'with'
p187
S'with'
p188
S'IN'
p189
S'B-PP'
p190
g4
tp191
a(S'autism'
p192
S'autism'
p193
S'NN'
p194
S'B-NP'
p195
g4
tp196
a(S'spectrum'
p197
S'spectrum'
p198
S'NN'
p199
S'I-NP'
p200
g4
tp201
a(S'disorders'
p202
S'disorder'
p203
S'NNS'
p204
S'I-NP'
p205
g4
tp206
a(g138
g138
g138
g4
g4
tp207
a(S'ASD'
p208
S'ASD'
p209
S'NN'
p210
S'B-NP'
p211
g4
tp212
a(g145
g145
g145
g4
g4
tp213
a(g86
g86
g86
g4
g4
tp214
a(S'METHOD'
p215
S'METHOD'
p216
S'NN'
p217
S'B-NP'
p218
g4
tp219
a(S'Forty'
p220
S'Forty'
p221
S'CD'
p222
S'B-NP'
p223
g4
tp224
a(S'children'
p225
S'child'
p226
S'NNS'
p227
S'I-NP'
p228
g4
tp229
a(S'and'
p230
S'and'
p231
S'CC'
p232
S'I-NP'
p233
g4
tp234
a(S'adolescents'
p235
S'adolescent'
p236
S'NNS'
p237
S'I-NP'
p238
g4
tp239
a(S'met'
p240
S'meet'
p241
S'VBD'
p242
S'B-VP'
p243
g4
tp244
a(S'diagnostic'
p245
S'diagnostic'
p246
S'JJ'
p247
S'B-NP'
p248
g4
tp249
a(S'criteria'
p250
S'criterion'
p251
S'NNS'
p252
S'I-NP'
p253
g4
tp254
a(S'for'
p255
S'for'
p256
S'IN'
p257
S'B-PP'
p258
g4
tp259
a(S'ASD'
p260
S'ASD'
p261
S'NN'
p262
S'B-NP'
p263
g4
tp264
a(S'according'
p265
S'accord'
p266
S'VBG'
p267
S'B-PP'
p268
g4
tp269
a(S'to'
p270
S'to'
p271
S'TO'
p272
S'B-PP'
p273
g4
tp274
a(S'DSM-IV.'
p275
S'DSM-IV.'
p276
S'NNP'
p277
S'B-NP'
p278
g4
tp279
a(S'They'
p280
S'They'
p281
S'PRP'
p282
S'B-NP'
p283
g4
tp284
a(S'were'
p285
S'be'
p286
S'VBD'
p287
S'B-VP'
p288
g4
tp289
a(S'randomly'
p290
S'randomly'
p291
S'RB'
p292
S'I-VP'
p293
g4
tp294
a(S'allocated'
p295
S'allocate'
p296
S'VBN'
p297
S'I-VP'
p298
g4
tp299
a(S'into'
p300
S'into'
p301
S'IN'
p302
S'B-PP'
p303
g4
tp304
a(S'one'
p305
S'one'
p306
S'CD'
p307
S'B-NP'
p308
g4
tp309
a(S'of'
p310
S'of'
p311
S'IN'
p312
S'B-PP'
p313
g4
tp314
a(S'the'
p315
S'the'
p316
S'DT'
p317
S'B-NP'
p318
g4
tp319
a(S'two'
p320
S'two'
p321
S'CD'
p322
S'I-NP'
p323
g4
tp324
a(S'groups'
p325
S'group'
p326
S'NNS'
p327
S'I-NP'
p328
g4
tp329
a(S'of'
p330
S'of'
p331
S'IN'
p332
S'B-PP'
p333
g4
tp334
a(S'NAC'
p335
S'NAC'
p336
S'NN'
p337
S'B-NP'
p338
g4
tp339
a(g138
g138
g138
g4
g4
tp340
a(S'1200\xe2\x80\x89mg/day'
p341
S'1200\xe2\x80\x89mg/day'
p342
S'NN'
p343
S'B-NP'
p344
g4
tp345
a(g145
g145
g145
g4
g4
tp346
a(S'+risperidone'
p347
S'+risperidone'
p348
S'NN'
p349
S'B-NP'
p350
g4
tp351
a(S'or'
p352
S'or'
p353
S'CC'
p354
S'I-NP'
p355
g4
tp356
a(S'placebo+risperidone.'
p357
S'placebo+risperidone.'
p358
S'NN'
p359
S'I-NP'
p360
g4
tp361
a(S'NAC'
p362
S'NAC'
p363
S'NN'
p364
S'I-NP'
p365
g4
tp366
a(S'and'
p367
S'and'
p368
S'CC'
p369
S'I-NP'
p370
g4
tp371
a(S'placebo'
p372
S'placebo'
p373
S'NN'
p374
S'I-NP'
p375
g4
tp376
a(S'were'
p377
S'be'
p378
S'VBD'
p379
S'B-VP'
p380
g4
tp381
a(S'administered'
p382
S'administer'
p383
S'VBN'
p384
S'I-VP'
p385
g4
tp386
a(S'in'
p387
S'in'
p388
S'IN'
p389
S'B-PP'
p390
g4
tp391
a(S'the'
p392
S'the'
p393
S'DT'
p394
S'B-NP'
p395
g4
tp396
a(S'form'
p397
S'form'
p398
S'NN'
p399
S'I-NP'
p400
g4
tp401
a(S'of'
p402
S'of'
p403
S'IN'
p404
S'B-PP'
p405
g4
tp406
a(S'effervescent'
p407
S'effervescent'
p408
S'NN'
p409
S'B-NP'
p410
g4
tp411
a(S'and'
p412
S'and'
p413
S'CC'
p414
g4
g4
tp415
a(S'in'
p416
S'in'
p417
S'IN'
p418
S'B-PP'
p419
g4
tp420
a(S'two'
p421
S'two'
p422
S'CD'
p423
S'B-NP'
p424
g4
tp425
a(S'divided'
p426
S'divide'
p427
S'VBN'
p428
S'I-NP'
p429
g4
tp430
a(S'doses'
p431
S'dose'
p432
S'NNS'
p433
S'I-NP'
p434
g4
tp435
a(S'for'
p436
S'for'
p437
S'IN'
p438
S'B-PP'
p439
g4
tp440
a(S'8'
p441
g441
S'CD'
p442
S'B-NP'
p443
g4
tp444
a(S'weeks.'
p445
S'weeks.'
p446
S'NN'
p447
S'I-NP'
p448
g4
tp449
a(S'Irritability'
p450
S'Irritability'
p451
S'NN'
p452
S'I-NP'
p453
g4
tp454
a(S'subscale'
p455
S'subscale'
p456
S'NN'
p457
S'I-NP'
p458
g4
tp459
a(S'score'
p460
S'score'
p461
S'NN'
p462
S'I-NP'
p463
g4
tp464
a(S'of'
p465
S'of'
p466
S'IN'
p467
S'B-PP'
p468
g4
tp469
a(S'Aberrant'
p470
S'Aberrant'
p471
S'NNP'
p472
S'B-NP'
p473
g4
tp474
a(S'Behavior'
p475
S'Behavior'
p476
S'NNP'
p477
S'I-NP'
p478
g4
tp479
a(S'Checklist'
p480
S'Checklist'
p481
S'NNP'
p482
S'I-NP'
p483
g4
tp484
a(g138
g138
g138
g4
g4
tp485
a(S'ABC'
p486
S'ABC'
p487
S'NNP'
p488
S'B-NP'
p489
g4
tp490
a(g145
g145
g145
g4
g4
tp491
a(S'was'
p492
S'be'
p493
S'VBD'
p494
S'B-VP'
p495
g4
tp496
a(S'considered'
p497
S'consider'
p498
S'VBN'
p499
S'I-VP'
p500
g4
tp501
a(S'as'
p502
S'as'
p503
S'IN'
p504
S'B-PP'
p505
g4
tp506
a(S'the'
p507
S'the'
p508
S'DT'
p509
S'B-NP'
p510
g4
tp511
a(S'main'
p512
S'main'
p513
S'JJ'
p514
S'I-NP'
p515
g4
tp516
a(S'outcome'
p517
S'outcome'
p518
S'NN'
p519
S'I-NP'
p520
g4
tp521
a(S'measure.'
p522
S'measure.'
p523
S'NN'
p524
S'I-NP'
p525
g4
tp526
a(S'Adverse'
p527
S'Adverse'
p528
S'JJ'
p529
S'I-NP'
p530
g4
tp531
a(S'effects'
p532
S'effect'
p533
S'NNS'
p534
S'I-NP'
p535
g4
tp536
a(S'were'
p537
S'be'
p538
S'VBD'
p539
S'B-VP'
p540
g4
tp541
a(S'also'
p542
S'also'
p543
S'RB'
p544
S'I-VP'
p545
g4
tp546
a(S'checked'
p547
S'check'
p548
S'VBN'
p549
S'I-VP'
p550
g4
tp551
a(g86
g86
g86
g4
g4
tp552
a(S'RESULTS'
p553
S'RESULTS'
p554
S'NNS'
p555
S'B-NP'
p556
g4
tp557
a(S'The'
p558
S'The'
p559
S'DT'
p560
S'B-NP'
p561
g4
tp562
a(S'mean'
p563
S'mean'
p564
S'JJ'
p565
S'I-NP'
p566
g4
tp567
a(S'score'
p568
S'score'
p569
S'NN'
p570
S'I-NP'
p571
g4
tp572
a(S'of'
p573
S'of'
p574
S'IN'
p575
S'B-PP'
p576
g4
tp577
a(S'irritability'
p578
S'irritability'
p579
S'NN'
p580
S'B-NP'
p581
g4
tp582
a(S'in'
p583
S'in'
p584
S'IN'
p585
S'B-PP'
p586
g4
tp587
a(S'the'
p588
S'the'
p589
S'DT'
p590
S'B-NP'
p591
g4
tp592
a(S'NAC+risperidone'
p593
S'NAC+risperidone'
p594
S'NN'
p595
S'I-NP'
p596
g4
tp597
a(S'and'
p598
S'and'
p599
S'CC'
p600
S'I-NP'
p601
g4
tp602
a(S'placebo+risperidone'
p603
S'placebo+risperidone'
p604
S'NN'
p605
S'I-NP'
p606
g4
tp607
a(S'groups'
p608
S'group'
p609
S'NNS'
p610
S'I-NP'
p611
g4
tp612
a(S'at'
p613
S'at'
p614
S'IN'
p615
S'B-PP'
p616
g4
tp617
a(S'baseline'
p618
S'baseline'
p619
S'NN'
p620
S'B-NP'
p621
g4
tp622
a(S'was'
p623
S'be'
p624
S'VBD'
p625
S'B-VP'
p626
g4
tp627
a(S'13.2'
p628
S'13.2'
p629
S'CD'
p630
S'B-NP'
p631
g4
tp632
a(g138
g138
g138
g4
g4
tp633
a(S'5.3'
p634
S'5.3'
p635
S'CD'
p636
S'B-NP'
p637
g4
tp638
a(g145
g145
g145
g4
g4
tp639
a(S'and'
p640
S'and'
p641
S'CC'
p642
g4
g4
tp643
a(S'16.7'
p644
S'16.7'
p645
S'CD'
p646
S'B-NP'
p647
g4
tp648
a(g138
g138
g138
g4
g4
tp649
a(S'7.8'
p650
S'7.8'
p651
S'CD'
p652
S'B-NP'
p653
g4
tp654
a(g145
g145
g145
g4
g4
tp655
a(S','
p656
g656
g656
g4
g4
tp657
a(S'respectively.'
p658
S'respectively.'
p659
S'VBP'
p660
S'B-VP'
p661
g4
tp662
a(S'The'
p663
S'The'
p664
S'DT'
p665
S'B-NP'
p666
g4
tp667
a(S'scores'
p668
S'score'
p669
S'NNS'
p670
S'I-NP'
p671
g4
tp672
a(S'after'
p673
S'after'
p674
S'IN'
p675
S'B-PP'
p676
g4
tp677
a(g441
g441
S'CD'
p678
S'B-NP'
p679
g4
tp680
a(S'weeks'
p681
S'week'
p682
S'NNS'
p683
S'I-NP'
p684
g4
tp685
a(S'were'
p686
S'be'
p687
S'VBD'
p688
S'B-VP'
p689
g4
tp690
a(S'9.7'
p691
S'9.7'
p692
S'CD'
p693
S'B-NP'
p694
g4
tp695
a(g138
g138
g138
g4
g4
tp696
a(S'4.1'
p697
S'4.1'
p698
S'CD'
p699
S'B-NP'
p700
g4
tp701
a(g145
g145
g145
g4
g4
tp702
a(S'and'
p703
S'and'
p704
S'CC'
p705
g4
g4
tp706
a(S'15.1'
p707
S'15.1'
p708
S'CD'
p709
S'B-NP'
p710
g4
tp711
a(g138
g138
g138
g4
g4
tp712
a(S'7.8'
p713
S'7.8'
p714
S'CD'
p715
S'B-NP'
p716
g4
tp717
a(g145
g145
g145
g4
g4
tp718
a(g656
g656
g656
g4
g4
tp719
a(S'respectively.'
p720
S'respectively.'
p721
S'RB'
p722
S'B-NP'
p723
g4
tp724
a(S'Repeated'
p725
S'Repeat'
p726
S'VBN'
p727
S'I-NP'
p728
g4
tp729
a(S'measures'
p730
S'measure'
p731
S'NNS'
p732
S'I-NP'
p733
g4
tp734
a(S'of'
p735
S'of'
p736
S'IN'
p737
S'B-PP'
p738
g4
tp739
a(S'ANOVA'
p740
S'ANOVA'
p741
S'NN'
p742
S'B-NP'
p743
S'B-protein'
p744
tp745
a(S'showed'
p746
S'show'
p747
S'VBD'
p748
S'B-VP'
p749
g4
tp750
a(S'that'
p751
S'that'
p752
S'IN'
p753
S'B-SBAR'
p754
g4
tp755
a(S'there'
p756
S'there'
p757
S'EX'
p758
S'B-NP'
p759
g4
tp760
a(S'was'
p761
S'be'
p762
S'VBD'
p763
S'B-VP'
p764
g4
tp765
a(S'a'
p766
g766
S'DT'
p767
S'B-NP'
p768
g4
tp769
a(S'significant'
p770
S'significant'
p771
S'JJ'
p772
S'I-NP'
p773
g4
tp774
a(S'difference'
p775
S'difference'
p776
S'NN'
p777
S'I-NP'
p778
g4
tp779
a(S'between'
p780
S'between'
p781
S'IN'
p782
S'B-PP'
p783
g4
tp784
a(S'the'
p785
S'the'
p786
S'DT'
p787
S'B-NP'
p788
g4
tp789
a(S'two'
p790
S'two'
p791
S'CD'
p792
S'I-NP'
p793
g4
tp794
a(S'groups'
p795
S'group'
p796
S'NNS'
p797
S'I-NP'
p798
g4
tp799
a(S'after'
p800
S'after'
p801
S'IN'
p802
S'B-PP'
p803
g4
tp804
a(g441
g441
S'CD'
p805
S'B-NP'
p806
g4
tp807
a(S'weeks.'
p808
S'weeks.'
p809
S'NN'
p810
S'I-NP'
p811
g4
tp812
a(S'The'
p813
S'The'
p814
S'DT'
p815
S'B-NP'
p816
g4
tp817
a(S'most'
p818
S'most'
p819
S'RBS'
p820
S'I-NP'
p821
g4
tp822
a(S'common'
p823
S'common'
p824
S'JJ'
p825
S'I-NP'
p826
g4
tp827
a(S'adverse'
p828
S'adverse'
p829
S'JJ'
p830
S'I-NP'
p831
g4
tp832
a(S'effects'
p833
S'effect'
p834
S'NNS'
p835
S'I-NP'
p836
g4
tp837
a(S'in'
p838
S'in'
p839
S'IN'
p840
S'B-PP'
p841
g4
tp842
a(S'the'
p843
S'the'
p844
S'DT'
p845
S'B-NP'
p846
g4
tp847
a(S'NAC+risperidone'
p848
S'NAC+risperidone'
p849
S'NN'
p850
S'I-NP'
p851
g4
tp852
a(S'group'
p853
S'group'
p854
S'NN'
p855
S'I-NP'
p856
g4
tp857
a(S'were'
p858
S'be'
p859
S'VBD'
p860
S'B-VP'
p861
g4
tp862
a(S'constipation'
p863
S'constipation'
p864
S'NN'
p865
S'B-NP'
p866
g4
tp867
a(g138
g138
g138
g4
g4
tp868
a(S'16.1'
p869
S'16.1'
p870
S'CD'
p871
S'B-NP'
p872
g4
tp873
a(S'%'
p874
g874
S'NN'
p875
S'I-NP'
p876
g4
tp877
a(g145
g145
g145
g4
g4
tp878
a(g656
g656
g656
g4
g4
tp879
a(S'increased'
p880
S'increase'
p881
S'VBN'
p882
S'B-NP'
p883
g4
tp884
a(S'appetite'
p885
S'appetite'
p886
S'NN'
p887
S'I-NP'
p888
g4
tp889
a(g138
g138
g138
g4
g4
tp890
a(S'16.1'
p891
S'16.1'
p892
S'CD'
p893
S'B-NP'
p894
g4
tp895
a(g874
g874
S'NN'
p896
S'I-NP'
p897
g4
tp898
a(g145
g145
g145
g4
g4
tp899
a(g656
g656
g656
g4
g4
tp900
a(S'fatigue'
p901
S'fatigue'
p902
S'NN'
p903
S'B-NP'
p904
g4
tp905
a(g138
g138
g138
g4
g4
tp906
a(S'12.9'
p907
S'12.9'
p908
S'CD'
p909
S'B-NP'
p910
g4
tp911
a(g874
g874
S'NN'
p912
S'I-NP'
p913
g4
tp914
a(g145
g145
g145
g4
g4
tp915
a(g656
g656
g656
g4
g4
tp916
a(S'nervousness'
p917
S'nervousness'
p918
S'NN'
p919
S'B-NP'
p920
g4
tp921
a(g138
g138
g138
g4
g4
tp922
a(S'12.9'
p923
S'12.9'
p924
S'CD'
p925
S'B-NP'
p926
g4
tp927
a(g874
g874
S'NN'
p928
S'I-NP'
p929
g4
tp930
a(g145
g145
g145
g4
g4
tp931
a(g656
g656
g656
g4
g4
tp932
a(S'and'
p933
S'and'
p934
S'CC'
p935
g4
g4
tp936
a(S'daytime'
p937
S'daytime'
p938
S'NN'
p939
S'B-NP'
p940
g4
tp941
a(S'drowsiness'
p942
S'drowsiness'
p943
S'NN'
p944
S'I-NP'
p945
g4
tp946
a(g138
g138
g138
g4
g4
tp947
a(S'12.9'
p948
S'12.9'
p949
S'CD'
p950
S'B-NP'
p951
g4
tp952
a(g874
g874
S'NN'
p953
S'I-NP'
p954
g4
tp955
a(g145
g145
g145
g4
g4
tp956
a(g86
g86
g86
g4
g4
tp957
a(S'There'
p958
S'There'
p959
S'EX'
p960
S'B-NP'
p961
g4
tp962
a(S'was'
p963
S'be'
p964
S'VBD'
p965
S'B-VP'
p966
g4
tp967
a(S'no'
p968
S'no'
p969
S'DT'
p970
S'B-NP'
p971
g4
tp972
a(S'fatal'
p973
S'fatal'
p974
S'JJ'
p975
S'I-NP'
p976
g4
tp977
a(S'adverse'
p978
S'adverse'
p979
S'JJ'
p980
S'I-NP'
p981
g4
tp982
a(S'effect'
p983
S'effect'
p984
S'NN'
p985
S'I-NP'
p986
g4
tp987
a(g86
g86
g86
g4
g4
tp988
a(S'CONCLUSIONS'
p989
S'CONCLUSIONS'
p990
S'NNS'
p991
S'B-NP'
p992
g4
tp993
a(S'Risperidone'
p994
S'Risperidone'
p995
S'NN'
p996
S'I-NP'
p997
g4
tp998
a(S'plus'
p999
S'plus'
p1000
S'CC'
p1001
g4
g4
tp1002
a(S'NAC'
p1003
S'NAC'
p1004
S'NN'
p1005
S'B-NP'
p1006
g4
tp1007
a(S'more'
p1008
S'more'
p1009
S'JJR'
p1010
S'B-ADJP'
p1011
g4
tp1012
a(S'than'
p1013
S'than'
p1014
S'IN'
p1015
S'B-PP'
p1016
g4
tp1017
a(S'risperidone'
p1018
S'risperidone'
p1019
S'NN'
p1020
S'B-NP'
p1021
g4
tp1022
a(S'plus'
p1023
S'plus'
p1024
S'CC'
p1025
g4
g4
tp1026
a(S'placebo'
p1027
S'placebo'
p1028
S'NN'
p1029
S'B-NP'
p1030
g4
tp1031
a(S'decreased'
p1032
S'decrease'
p1033
S'VBD'
p1034
S'B-VP'
p1035
g4
tp1036
a(S'irritability'
p1037
S'irritability'
p1038
S'NN'
p1039
S'B-NP'
p1040
g4
tp1041
a(S'in'
p1042
S'in'
p1043
S'IN'
p1044
S'B-PP'
p1045
g4
tp1046
a(S'children'
p1047
S'child'
p1048
S'NNS'
p1049
S'B-NP'
p1050
g4
tp1051
a(S'and'
p1052
S'and'
p1053
S'CC'
p1054
S'I-NP'
p1055
g4
tp1056
a(S'adolescents'
p1057
S'adolescent'
p1058
S'NNS'
p1059
S'I-NP'
p1060
g4
tp1061
a(S'with'
p1062
S'with'
p1063
S'IN'
p1064
S'B-PP'
p1065
g4
tp1066
a(S'ASD.'
p1067
S'ASD.'
p1068
S'NNP'
p1069
S'B-NP'
p1070
g4
tp1071
a(S'Meanwhile'
p1072
S'Meanwhile'
p1073
S'RB'
p1074
S'B-ADVP'
p1075
g4
tp1076
a(g656
g656
g656
g4
g4
tp1077
a(S'it'
p1078
S'it'
p1079
S'PRP'
p1080
S'B-NP'
p1081
g4
tp1082
a(S'did'
p1083
S'do'
p1084
S'VBD'
p1085
S'B-VP'
p1086
g4
tp1087
a(S'not'
p1088
S'not'
p1089
S'RB'
p1090
S'I-VP'
p1091
g4
tp1092
a(S'change'
p1093
S'change'
p1094
S'VB'
p1095
S'I-VP'
p1096
g4
tp1097
a(S'the'
p1098
S'the'
p1099
S'DT'
p1100
S'B-NP'
p1101
g4
tp1102
a(S'core'
p1103
S'core'
p1104
S'NN'
p1105
S'I-NP'
p1106
g4
tp1107
a(S'symptoms'
p1108
S'symptom'
p1109
S'NNS'
p1110
S'I-NP'
p1111
g4
tp1112
a(S'of'
p1113
S'of'
p1114
S'IN'
p1115
S'B-PP'
p1116
g4
tp1117
a(S'autism.'
p1118
S'autism.'
p1119
S'NN'
p1120
S'B-NP'
p1121
g4
tp1122
a(S'Adverse'
p1123
S'Adverse'
p1124
S'JJ'
p1125
S'I-NP'
p1126
g4
tp1127
a(S'effects'
p1128
S'effect'
p1129
S'NNS'
p1130
S'I-NP'
p1131
g4
tp1132
a(S'were'
p1133
S'be'
p1134
S'VBD'
p1135
S'B-VP'
p1136
g4
tp1137
a(S'not'
p1138
S'not'
p1139
S'RB'
p1140
g4
g4
tp1141
a(S'common'
p1142
S'common'
p1143
S'JJ'
p1144
S'B-ADJP'
p1145
g4
tp1146
a(S'and'
p1147
S'and'
p1148
S'CC'
p1149
g4
g4
tp1150
a(S'NAC'
p1151
S'NAC'
p1152
S'NN'
p1153
S'B-NP'
p1154
g4
tp1155
a(S'was'
p1156
S'be'
p1157
S'VBD'
p1158
S'B-VP'
p1159
g4
tp1160
a(S'generally'
p1161
S'generally'
p1162
S'RB'
p1163
S'I-VP'
p1164
g4
tp1165
a(S'tolerated'
p1166
S'tolerate'
p1167
S'VBN'
p1168
S'I-VP'
p1169
g4
tp1170
a(S'well'
p1171
S'well'
p1172
S'RB'
p1173
S'B-ADVP'
p1174
g4
tp1175
a(g86
g86
g86
g4
g4
tp1176
a(S'TRIAL'
p1177
S'TRIAL'
p1178
S'NN'
p1179
S'B-NP'
p1180
g4
tp1181
a(S'REGISTRATION'
p1182
S'REGISTRATION'
p1183
S'NN'
p1184
S'I-NP'
p1185
g4
tp1186
a(S'This'
p1187
S'This'
p1188
S'DT'
p1189
S'B-NP'
p1190
g4
tp1191
a(S'trial'
p1192
S'trial'
p1193
S'NN'
p1194
S'I-NP'
p1195
g4
tp1196
a(S'was'
p1197
S'be'
p1198
S'VBD'
p1199
S'B-VP'
p1200
g4
tp1201
a(S'registered'
p1202
S'register'
p1203
S'VBN'
p1204
S'I-VP'
p1205
g4
tp1206
a(S'at'
p1207
S'at'
p1208
S'IN'
p1209
S'B-PP'
p1210
g4
tp1211
a(S'http'
p1212
S'http'
p1213
S'NN'
p1214
S'B-NP'
p1215
g4
tp1216
a(S':'
p1217
g1217
g1217
g4
g4
tp1218
a(S'//www.irct.ir.'
p1219
S'//www.irct.ir.'
p1220
S'LS'
p1221
S'B-LST'
p1222
g4
tp1223
a(S'The'
p1224
S'The'
p1225
S'DT'
p1226
S'B-NP'
p1227
g4
tp1228
a(S'registration'
p1229
S'registration'
p1230
S'NN'
p1231
S'I-NP'
p1232
g4
tp1233
a(S'number'
p1234
S'number'
p1235
S'NN'
p1236
S'I-NP'
p1237
g4
tp1238
a(S'of'
p1239
S'of'
p1240
S'IN'
p1241
S'B-PP'
p1242
g4
tp1243
a(S'this'
p1244
S'this'
p1245
S'DT'
p1246
S'B-NP'
p1247
g4
tp1248
a(S'trial'
p1249
S'trial'
p1250
S'NN'
p1251
S'I-NP'
p1252
S'B-protein'
p1253
tp1254
a(S'was'
p1255
S'be'
p1256
S'VBD'
p1257
S'B-VP'
p1258
S'I-protein'
p1259
tp1260
a(S'IRCT201106103930N6'
p1261
S'IRCT201106103930N6'
p1262
S'NN'
p1263
S'B-NP'
p1264
S'I-protein'
p1265
tp1266
a(g86
g86
g86
g4
g4
tp1267
a.