(lp0
(S'['
p1
g1
S'('
p2
S'O'
p3
g3
tp4
a(S'Evaluation'
p5
S'Evaluation'
p6
S'NN'
p7
S'B-NP'
p8
g3
tp9
a(S'of'
p10
S'of'
p11
S'IN'
p12
S'B-PP'
p13
g3
tp14
a(S'Stepping'
p15
S'Stepping'
p16
S'NNP'
p17
S'B-NP'
p18
g3
tp19
a(S'Stones'
p20
S'Stones'
p21
S'NNP'
p22
S'I-NP'
p23
g3
tp24
a(S'Triple'
p25
S'Triple'
p26
S'NNP'
p27
S'I-NP'
p28
g3
tp29
a(S'P'
p30
g30
S'NNP'
p31
S'I-NP'
p32
g3
tp33
a(S':'
p34
g34
g34
g3
g3
tp35
a(S'Interims'
p36
S'Interim'
p37
S'NNS'
p38
S'B-NP'
p39
g3
tp40
a(S'analysis'
p41
S'analysis'
p42
S'NN'
p43
S'I-NP'
p44
g3
tp45
a(S'of'
p46
S'of'
p47
S'IN'
p48
S'B-PP'
p49
g3
tp50
a(S'the'
p51
S'the'
p52
S'DT'
p53
S'B-NP'
p54
g3
tp55
a(S'Stepping-Stones-SPC-Multicentric'
p56
S'Stepping-Stones-SPC-Multicentric'
p57
S'JJ'
p58
S'I-NP'
p59
g3
tp60
a(S'Study'
p61
S'Study'
p62
S'NN'
p63
S'I-NP'
p64
g3
tp65
a(S']'
p66
g66
S')'
p67
g3
g3
tp68
a(S'.'
p69
g69
g69
g3
g3
tp70
a(S'Stepping'
p71
S'Step'
p72
S'VBG'
p73
S'B-VP'
p74
g3
tp75
a(S'Stones'
p76
S'Stones'
p77
S'NNP'
p78
S'B-NP'
p79
g3
tp80
a(S'Triple'
p81
S'Triple'
p82
S'NNP'
p83
S'I-NP'
p84
g3
tp85
a(g30
g30
S'NNP'
p86
S'I-NP'
p87
g3
tp88
a(S'is'
p89
S'be'
p90
S'VBZ'
p91
S'B-VP'
p92
g3
tp93
a(S'a'
p94
g94
S'DT'
p95
S'B-NP'
p96
g3
tp97
a(S'behavioural'
p98
S'behavioural'
p99
S'JJ'
p100
S'I-NP'
p101
g3
tp102
a(S'parenting'
p103
S'parenting'
p104
S'NN'
p105
S'I-NP'
p106
g3
tp107
a(S'training'
p108
S'training'
p109
S'NN'
p110
S'I-NP'
p111
g3
tp112
a(S'for'
p113
S'for'
p114
S'IN'
p115
S'B-PP'
p116
g3
tp117
a(S'families'
p118
S'family'
p119
S'NNS'
p120
S'B-NP'
p121
g3
tp122
a(S'with'
p123
S'with'
p124
S'IN'
p125
S'B-PP'
p126
g3
tp127
a(g94
g94
S'DT'
p128
S'B-NP'
p129
g3
tp130
a(S'handicapped'
p131
S'handicapped'
p132
S'JJ'
p133
S'I-NP'
p134
g3
tp135
a(S'child'
p136
S'child'
p137
S'NN'
p138
S'I-NP'
p139
g3
tp140
a(S','
p141
g141
g141
g3
g3
tp142
a(S'which'
p143
S'which'
p144
S'WDT'
p145
S'B-NP'
p146
g3
tp147
a(S'has'
p148
S'have'
p149
S'VBZ'
p150
S'B-VP'
p151
g3
tp152
a(S'already'
p153
S'already'
p154
S'RB'
p155
S'I-VP'
p156
g3
tp157
a(S'been'
p158
S'be'
p159
S'VBN'
p160
S'I-VP'
p161
g3
tp162
a(S'successfully'
p163
S'successfully'
p164
S'RB'
p165
S'I-VP'
p166
g3
tp167
a(S'evaluated'
p168
S'evaluate'
p169
S'VBN'
p170
S'I-VP'
p171
g3
tp172
a(S'in'
p173
S'in'
p174
S'IN'
p175
S'B-PP'
p176
g3
tp177
a(S'its'
p178
S'its'
p179
S'PRP$'
p180
S'B-NP'
p181
g3
tp182
a(S'country'
p183
S'country'
p184
S'NN'
p185
S'I-NP'
p186
g3
tp187
a(S'of'
p188
S'of'
p189
S'IN'
p190
S'B-PP'
p191
g3
tp192
a(S'origin'
p193
S'origin'
p194
S'NN'
p195
S'B-NP'
p196
g3
tp197
a(g141
g141
g141
g3
g3
tp198
a(S'Australia.'
p199
S'Australia.'
p200
S'NNP'
p201
S'B-NP'
p202
g3
tp203
a(S'Within'
p204
S'Within'
p205
S'IN'
p206
S'B-PP'
p207
g3
tp208
a(g94
g94
S'DT'
p209
S'B-NP'
p210
g3
tp211
a(S'multicentric'
p212
S'multicentric'
p213
S'JJ'
p214
S'I-NP'
p215
g3
tp216
a(S'study'
p217
S'study'
p218
S'NN'
p219
S'I-NP'
p220
g3
tp221
a(S'of'
p222
S'of'
p223
S'IN'
p224
S'B-PP'
p225
g3
tp226
a(S'several'
p227
S'several'
p228
S'JJ'
p229
S'B-NP'
p230
g3
tp231
a(S'Social'
p232
S'Social'
p233
S'NNP'
p234
S'I-NP'
p235
g3
tp236
a(S'Pediatric'
p237
S'Pediatric'
p238
S'NNP'
p239
S'I-NP'
p240
g3
tp241
a(S'Centers'
p242
S'Center'
p243
S'NNPS'
p244
S'I-NP'
p245
g3
tp246
a(g2
g2
g2
g3
g3
tp247
a(S'SPCs'
p248
S'SPC'
p249
S'NNS'
p250
S'B-NP'
p251
S'B-cell_type'
p252
tp253
a(g67
g67
g67
g3
g3
tp254
a(S'and'
p255
S'and'
p256
S'CC'
p257
g3
g3
tp258
a(S'further'
p259
S'further'
p260
S'JJ'
p261
S'B-NP'
p262
g3
tp263
a(S'clinics/institutions'
p264
S'clinics/institution'
p265
S'NNS'
p266
S'I-NP'
p267
g3
tp268
a(S'in'
p269
S'in'
p270
S'IN'
p271
S'B-PP'
p272
g3
tp273
a(S'Germany'
p274
S'Germany'
p275
S'NNP'
p276
S'B-NP'
p277
g3
tp278
a(g141
g141
g141
g3
g3
tp279
a(S'it'
p280
S'it'
p281
S'PRP'
p282
S'B-NP'
p283
g3
tp284
a(S'has'
p285
S'have'
p286
S'VBZ'
p287
S'B-VP'
p288
g3
tp289
a(S'been'
p290
S'be'
p291
S'VBN'
p292
S'I-VP'
p293
g3
tp294
a(S'established'
p295
S'establish'
p296
S'VBN'
p297
S'I-VP'
p298
g3
tp299
a(S'as'
p300
S'as'
p301
S'IN'
p302
S'B-PP'
p303
g3
tp304
a(g94
g94
S'DT'
p305
S'B-NP'
p306
g3
tp307
a(S'group'
p308
S'group'
p309
S'NN'
p310
S'I-NP'
p311
g3
tp312
a(S'parenting'
p313
S'parenting'
p314
S'NN'
p315
S'I-NP'
p316
g3
tp317
a(S'training'
p318
S'training'
p319
S'NN'
p320
S'I-NP'
p321
g3
tp322
a(g2
g2
g2
g3
g3
tp323
a(S'3-7'
p324
S'3-7'
p325
S'CD'
p326
S'B-NP'
p327
g3
tp328
a(S'families'
p329
S'family'
p330
S'NNS'
p331
S'I-NP'
p332
g3
tp333
a(S'per'
p334
S'per'
p335
S'IN'
p336
S'B-PP'
p337
g3
tp338
a(S'training'
p339
S'training'
p340
S'NN'
p341
S'B-NP'
p342
g3
tp343
a(g67
g67
g67
g3
g3
tp344
a(g69
g69
g69
g3
g3
tp345
a(S'Statistical'
p346
S'Statistical'
p347
S'JJ'
p348
S'B-NP'
p349
g3
tp350
a(S'analysis'
p351
S'analysis'
p352
S'NN'
p353
S'I-NP'
p354
g3
tp355
a(S'proved'
p356
S'prove'
p357
S'VBD'
p358
S'B-VP'
p359
g3
tp360
a(S'significant'
p361
S'significant'
p362
S'JJ'
p363
S'B-NP'
p364
g3
tp365
a(S'effects'
p366
S'effect'
p367
S'NNS'
p368
S'I-NP'
p369
g3
tp370
a(S'concerning'
p371
S'concern'
p372
S'VBG'
p373
S'B-VP'
p374
g3
tp375
a(S'dysfunctional'
p376
S'dysfunctional'
p377
S'JJ'
p378
S'B-NP'
p379
g3
tp380
a(S'parenting'
p381
S'parenting'
p382
S'NN'
p383
S'I-NP'
p384
g3
tp385
a(g141
g141
g141
g3
g3
tp386
a(S'parental'
p387
S'parental'
p388
S'JJ'
p389
S'B-NP'
p390
g3
tp391
a(S'stress'
p392
S'stress'
p393
S'NN'
p394
S'I-NP'
p395
g3
tp396
a(S'and'
p397
S'and'
p398
S'CC'
p399
S'I-NP'
p400
g3
tp401
a(S'child'
p402
S'child'
p403
S'NN'
p404
S'I-NP'
p405
g3
tp406
a(S'behaviour'
p407
S'behaviour'
p408
S'NN'
p409
S'I-NP'
p410
g3
tp411
a(S'problems'
p412
S'problem'
p413
S'NNS'
p414
S'I-NP'
p415
g3
tp416
a(S'as'
p417
S'as'
p418
S'RB'
p419
S'B-CONJP'
p420
g3
tp421
a(S'well'
p422
S'well'
p423
S'RB'
p424
S'I-CONJP'
p425
g3
tp426
a(S'as'
p427
S'as'
p428
S'IN'
p429
S'I-CONJP'
p430
g3
tp431
a(S'little'
p432
S'little'
p433
S'JJ'
p434
S'B-NP'
p435
g3
tp436
a(S'side'
p437
S'side'
p438
S'JJ'
p439
S'I-NP'
p440
g3
tp441
a(S'effects'
p442
S'effect'
p443
S'NNS'
p444
S'I-NP'
p445
g3
tp446
a(S'and'
p447
S'and'
p448
S'CC'
p449
g3
g3
tp450
a(g94
g94
S'DT'
p451
S'B-NP'
p452
g3
tp453
a(S'positive'
p454
S'positive'
p455
S'JJ'
p456
S'I-NP'
p457
g3
tp458
a(S'acceptance'
p459
S'acceptance'
p460
S'NN'
p461
S'I-NP'
p462
g3
tp463
a(S'of'
p464
S'of'
p465
S'IN'
p466
S'B-PP'
p467
g3
tp468
a(S'stepping'
p469
S'step'
p470
S'VBG'
p471
S'B-VP'
p472
g3
tp473
a(S'stones'
p474
S'stone'
p475
S'NNS'
p476
S'B-NP'
p477
g3
tp478
a(S'by'
p479
S'by'
p480
S'IN'
p481
S'B-PP'
p482
g3
tp483
a(S'the'
p484
S'the'
p485
S'DT'
p486
S'B-NP'
p487
g3
tp488
a(S'families'
p489
S'family'
p490
S'NNS'
p491
S'I-NP'
p492
g3
tp493
a(g69
g69
g69
g3
g3
tp494
a.