(lp0
(S'Split-face'
p1
S'Split-face'
p2
S'JJ'
p3
S'B-NP'
p4
S'O'
p5
tp6
a(S'comparison'
p7
S'comparison'
p8
S'NN'
p9
S'I-NP'
p10
g5
tp11
a(S'of'
p12
S'of'
p13
S'IN'
p14
S'B-PP'
p15
g5
tp16
a(S'the'
p17
S'the'
p18
S'DT'
p19
S'B-NP'
p20
g5
tp21
a(S'erbium'
p22
S'erbium'
p23
S'NN'
p24
S'I-NP'
p25
g5
tp26
a(S'micropeel'
p27
S'micropeel'
p28
S'NN'
p29
S'I-NP'
p30
g5
tp31
a(S'with'
p32
S'with'
p33
S'IN'
p34
S'B-PP'
p35
g5
tp36
a(S'intense'
p37
S'intense'
p38
S'JJ'
p39
S'B-NP'
p40
g5
tp41
a(S'pulsed'
p42
S'pulsed'
p43
S'JJ'
p44
S'I-NP'
p45
g5
tp46
a(S'light'
p47
S'light'
p48
S'NN'
p49
S'I-NP'
p50
g5
tp51
a(S'.'
p52
g52
g52
g5
g5
tp53
a(S'BACKGROUND'
p54
S'BACKGROUND'
p55
S'NN'
p56
S'B-NP'
p57
g5
tp58
a(S'A'
p59
g59
S'NN'
p60
S'I-NP'
p61
g5
tp62
a(S'variety'
p63
S'variety'
p64
S'NN'
p65
S'I-NP'
p66
g5
tp67
a(S'of'
p68
S'of'
p69
S'IN'
p70
S'B-PP'
p71
g5
tp72
a(S'photorejuvenative'
p73
S'photorejuvenative'
p74
S'JJ'
p75
S'B-NP'
p76
g5
tp77
a(S'techniques'
p78
S'technique'
p79
S'NNS'
p80
S'I-NP'
p81
g5
tp82
a(S'have'
p83
S'have'
p84
S'VBP'
p85
S'B-VP'
p86
g5
tp87
a(S'been'
p88
S'be'
p89
S'VBN'
p90
S'I-VP'
p91
g5
tp92
a(S'utilized'
p93
S'utilize'
p94
S'VBN'
p95
S'I-VP'
p96
g5
tp97
a(S'to'
p98
S'to'
p99
S'TO'
p100
S'I-VP'
p101
g5
tp102
a(S'reverse'
p103
S'reverse'
p104
S'VB'
p105
S'I-VP'
p106
g5
tp107
a(S'the'
p108
S'the'
p109
S'DT'
p110
S'B-NP'
p111
g5
tp112
a(S'signs'
p113
S'sign'
p114
S'NNS'
p115
S'I-NP'
p116
g5
tp117
a(S'of'
p118
S'of'
p119
S'IN'
p120
S'B-PP'
p121
g5
tp122
a(S'cutaneous'
p123
S'cutaneous'
p124
S'JJ'
p125
S'B-NP'
p126
g5
tp127
a(S'photoaging'
p128
S'photoaging'
p129
S'NN'
p130
S'I-NP'
p131
g5
tp132
a(S','
p133
g133
g133
g5
g5
tp134
a(S'including'
p135
S'include'
p136
S'VBG'
p137
S'B-PP'
p138
g5
tp139
a(S'ablative'
p140
S'ablative'
p141
S'JJ'
p142
S'B-NP'
p143
g5
tp144
a(S'and'
p145
S'and'
p146
S'CC'
p147
S'I-NP'
p148
g5
tp149
a(S'nonablative'
p150
S'nonablative'
p151
S'JJ'
p152
S'I-NP'
p153
g5
tp154
a(S'laser'
p155
S'laser'
p156
S'NN'
p157
S'I-NP'
p158
g5
tp159
a(S'resurfacing'
p160
S'resurface'
p161
S'VBG'
p162
S'B-VP'
p163
g5
tp164
a(S'as'
p165
S'as'
p166
S'RB'
p167
S'B-CONJP'
p168
g5
tp169
a(S'well'
p170
S'well'
p171
S'RB'
p172
S'I-CONJP'
p173
g5
tp174
a(S'as'
p175
S'as'
p176
S'IN'
p177
S'I-CONJP'
p178
g5
tp179
a(S'light-based'
p180
S'light-based'
p181
S'JJ'
p182
S'B-NP'
p183
g5
tp184
a(S'devices'
p185
S'device'
p186
S'NNS'
p187
S'I-NP'
p188
g5
tp189
a(g52
g52
g52
g5
g5
tp190
a(S'OBJECTIVE'
p191
S'OBJECTIVE'
p192
S'NN'
p193
S'B-NP'
p194
g5
tp195
a(S'The'
p196
S'The'
p197
S'DT'
p198
S'B-NP'
p199
g5
tp200
a(S'purpose'
p201
S'purpose'
p202
S'NN'
p203
S'I-NP'
p204
g5
tp205
a(S'of'
p206
S'of'
p207
S'IN'
p208
S'B-PP'
p209
g5
tp210
a(S'this'
p211
S'this'
p212
S'DT'
p213
S'B-NP'
p214
g5
tp215
a(S'split-face'
p216
S'split-face'
p217
S'JJ'
p218
S'I-NP'
p219
g5
tp220
a(S'randomized'
p221
S'randomize'
p222
S'VBN'
p223
S'I-NP'
p224
g5
tp225
a(S'prospective'
p226
S'prospective'
p227
S'JJ'
p228
S'I-NP'
p229
g5
tp230
a(S'open-label'
p231
S'open-label'
p232
S'JJ'
p233
S'I-NP'
p234
g5
tp235
a(S'trial'
p236
S'trial'
p237
S'NN'
p238
S'I-NP'
p239
g5
tp240
a(S'was'
p241
S'be'
p242
S'VBD'
p243
S'B-VP'
p244
g5
tp245
a(S'to'
p246
S'to'
p247
S'TO'
p248
S'B-VP'
p249
g5
tp250
a(S'determine'
p251
S'determine'
p252
S'VB'
p253
S'I-VP'
p254
g5
tp255
a(S'the'
p256
S'the'
p257
S'DT'
p258
S'B-NP'
p259
g5
tp260
a(S'effectiveness'
p261
S'effectiveness'
p262
S'NN'
p263
S'I-NP'
p264
g5
tp265
a(S'of'
p266
S'of'
p267
S'IN'
p268
S'B-PP'
p269
g5
tp270
a(S'sequential'
p271
S'sequential'
p272
S'JJ'
p273
S'B-NP'
p274
g5
tp275
a(S'erbium'
p276
S'erbium'
p277
S'NN'
p278
S'I-NP'
p279
g5
tp280
a(S':'
p281
g281
g281
g5
g5
tp282
a(S'yttrium-aluminum-garnet'
p283
S'yttrium-aluminum-garnet'
p284
S'NN'
p285
S'B-NP'
p286
g5
tp287
a(S'('
p288
g288
g288
g5
g5
tp289
a(S'Er'
p290
S'Er'
p291
S'NN'
p292
S'B-NP'
p293
S'B-protein'
p294
tp295
a(g281
g281
g281
g5
g5
tp296
a(S'YAG'
p297
S'YAG'
p298
S'NN'
p299
S'B-NP'
p300
g5
tp301
a(S')'
p302
g302
g302
g5
g5
tp303
a(S'laser'
p304
S'laser'
p305
S'NN'
p306
S'B-NP'
p307
g5
tp308
a(S'versus'
p309
S'versus'
p310
S'IN'
p311
S'B-PP'
p312
g5
tp313
a(S'intense'
p314
S'intense'
p315
S'JJ'
p316
S'B-NP'
p317
g5
tp318
a(S'pulsed'
p319
S'pulsed'
p320
S'JJ'
p321
S'I-NP'
p322
g5
tp323
a(S'light'
p324
S'light'
p325
S'NN'
p326
S'I-NP'
p327
g5
tp328
a(g288
g288
g288
g5
g5
tp329
a(S'IPL'
p330
S'IPL'
p331
S'NN'
p332
S'B-NP'
p333
g5
tp334
a(g302
g302
g302
g5
g5
tp335
a(S'for'
p336
S'for'
p337
S'IN'
p338
S'B-PP'
p339
g5
tp340
a(S'the'
p341
S'the'
p342
S'DT'
p343
S'B-NP'
p344
g5
tp345
a(S'treatment'
p346
S'treatment'
p347
S'NN'
p348
S'I-NP'
p349
g5
tp350
a(S'of'
p351
S'of'
p352
S'IN'
p353
S'B-PP'
p354
g5
tp355
a(S'mild'
p356
S'mild'
p357
S'JJ'
p358
S'B-NP'
p359
g5
tp360
a(S'to'
p361
S'to'
p362
S'TO'
p363
S'B-PP'
p364
g5
tp365
a(S'moderate'
p366
S'moderate'
p367
S'JJ'
p368
S'B-NP'
p369
g5
tp370
a(S'facial'
p371
S'facial'
p372
S'JJ'
p373
S'I-NP'
p374
g5
tp375
a(S'photodamage'
p376
S'photodamage'
p377
S'NN'
p378
S'I-NP'
p379
g5
tp380
a(g52
g52
g52
g5
g5
tp381
a(S'MATERIALS'
p382
S'MATERIALS'
p383
S'NNS'
p384
S'B-NP'
p385
g5
tp386
a(S'AND'
p387
S'AND'
p388
S'CC'
p389
S'I-NP'
p390
g5
tp391
a(S'METHODS'
p392
S'METHODS'
p393
S'NNS'
p394
S'I-NP'
p395
g5
tp396
a(S'Ten'
p397
S'Ten'
p398
S'CD'
p399
S'B-NP'
p400
g5
tp401
a(S'subjects'
p402
S'subject'
p403
S'NNS'
p404
S'I-NP'
p405
g5
tp406
a(g288
g288
g288
g5
g5
tp407
a(S'ages'
p408
S'age'
p409
S'NNS'
p410
S'B-NP'
p411
g5
tp412
a(S'35-63'
p413
S'35-63'
p414
S'CD'
p415
S'B-NP'
p416
g5
tp417
a(g302
g302
g302
g5
g5
tp418
a(S'with'
p419
S'with'
p420
S'IN'
p421
S'B-PP'
p422
g5
tp423
a(S'facial'
p424
S'facial'
p425
S'JJ'
p426
S'B-NP'
p427
g5
tp428
a(S'dyschromia'
p429
S'dyschromia'
p430
S'NN'
p431
S'I-NP'
p432
g5
tp433
a(S'and'
p434
S'and'
p435
S'CC'
p436
S'I-NP'
p437
g5
tp438
a(S'rhytides'
p439
S'rhytide'
p440
S'NNS'
p441
S'I-NP'
p442
g5
tp443
a(S'were'
p444
S'be'
p445
S'VBD'
p446
S'B-VP'
p447
g5
tp448
a(S'enrolled.'
p449
S'enrolled.'
p450
S'VBN'
p451
S'I-VP'
p452
g5
tp453
a(S'Study'
p454
S'Study'
p455
S'NNP'
p456
S'B-NP'
p457
g5
tp458
a(S'patients'
p459
S'patient'
p460
S'NNS'
p461
S'I-NP'
p462
g5
tp463
a(S'were'
p464
S'be'
p465
S'VBD'
p466
S'B-VP'
p467
g5
tp468
a(S'randomized'
p469
S'randomize'
p470
S'VBN'
p471
S'I-VP'
p472
g5
tp473
a(S'to'
p474
S'to'
p475
S'TO'
p476
S'B-PP'
p477
g5
tp478
a(S'the'
p479
S'the'
p480
S'DT'
p481
S'B-NP'
p482
g5
tp483
a(S'two'
p484
S'two'
p485
S'CD'
p486
S'I-NP'
p487
g5
tp488
a(S'treatment'
p489
S'treatment'
p490
S'NN'
p491
S'I-NP'
p492
g5
tp493
a(S'arms'
p494
S'arm'
p495
S'NNS'
p496
S'I-NP'
p497
g5
tp498
a(g133
g133
g133
g5
g5
tp499
a(S'Er'
p500
S'Er'
p501
S'NNP'
p502
S'B-NP'
p503
S'B-protein'
p504
tp505
a(g281
g281
g281
g5
g5
tp506
a(S'YAG'
p507
S'YAG'
p508
S'NN'
p509
S'B-NP'
p510
S'B-protein'
p511
tp512
a(g288
g288
g288
g5
g5
tp513
a(S'3.8'
p514
S'3.8'
p515
S'CD'
p516
S'B-NP'
p517
g5
tp518
a(S'J/cm'
p519
S'J/cm'
p520
S'NN'
p521
S'I-NP'
p522
g5
tp523
a(g288
g288
g288
g5
g5
tp524
a(S'2'
p525
g525
S'CD'
p526
S'B-NP'
p527
g5
tp528
a(g302
g302
g302
g5
g5
tp529
a(g133
g133
g133
g5
g5
tp530
a(S'30'
p531
S'30'
p532
S'CD'
p533
S'B-NP'
p534
g5
tp535
a(S'%'
p536
g536
S'NN'
p537
S'I-NP'
p538
g5
tp539
a(S'pattern'
p540
S'pattern'
p541
S'NN'
p542
S'I-NP'
p543
g5
tp544
a(S'overlap'
p545
S'overlap'
p546
S'NN'
p547
S'I-NP'
p548
g5
tp549
a(g133
g133
g133
g5
g5
tp550
a(S'0'
p551
g551
S'CD'
p552
S'B-NP'
p553
g5
tp554
a(g536
g536
S'NN'
p555
S'I-NP'
p556
g5
tp557
a(S'interpulse'
p558
S'interpulse'
p559
S'NN'
p560
S'I-NP'
p561
g5
tp562
a(S'overlap'
p563
S'overlap'
p564
S'NN'
p565
S'I-NP'
p566
g5
tp567
a(g133
g133
g133
g5
g5
tp568
a(S'15'
p569
S'15'
p570
S'CD'
p571
S'B-NP'
p572
g5
tp573
a(S'microm'
p574
S'microm'
p575
S'NN'
p576
S'I-NP'
p577
g5
tp578
a(S'per'
p579
S'per'
p580
S'IN'
p581
S'B-PP'
p582
g5
tp583
a(S'pass'
p584
S'pass'
p585
S'NN'
p586
S'B-NP'
p587
g5
tp588
a(S'with'
p589
S'with'
p590
S'IN'
p591
S'B-PP'
p592
g5
tp593
a(S'no'
p594
S'no'
p595
S'DT'
p596
S'B-NP'
p597
g5
tp598
a(S'coagulation'
p599
S'coagulation'
p600
S'NN'
p601
S'I-NP'
p602
g5
tp603
a(g302
g302
g302
g5
g5
tp604
a(S'and'
p605
S'and'
p606
S'CC'
p607
g5
g5
tp608
a(S'IPL'
p609
S'IPL'
p610
S'NN'
p611
S'B-NP'
p612
S'B-protein'
p613
tp614
a(g288
g288
g288
g5
g5
tp615
a(S'560-nm'
p616
S'560-nm'
p617
S'JJ'
p618
S'B-NP'
p619
g5
tp620
a(S'filter'
p621
S'filter'
p622
S'NN'
p623
S'I-NP'
p624
g5
tp625
a(g133
g133
g133
g5
g5
tp626
a(S'30'
p627
S'30'
p628
S'CD'
p629
S'B-NP'
p630
g5
tp631
a(S'J/cm'
p632
S'J/cm'
p633
S'NN'
p634
S'I-NP'
p635
g5
tp636
a(g288
g288
g288
g5
g5
tp637
a(g525
g525
S'CD'
p638
S'B-NP'
p639
g5
tp640
a(g302
g302
g302
g5
g5
tp641
a(g133
g133
g133
g5
g5
tp642
a(S'2.4/4.0-ms'
p643
S'2.4/4.0-ms'
p644
S'JJ'
p645
S'B-NP'
p646
g5
tp647
a(S'pulse'
p648
S'pulse'
p649
S'NN'
p650
S'I-NP'
p651
g5
tp652
a(S'with'
p653
S'with'
p654
S'IN'
p655
S'B-PP'
p656
g5
tp657
a(S'10-ms'
p658
S'10-m'
p659
S'NNS'
p660
S'B-NP'
p661
g5
tp662
a(S'delay'
p663
S'delay'
p664
S'NN'
p665
S'I-NP'
p666
g5
tp667
a(g302
g302
g302
g5
g5
tp668
a(g133
g133
g133
g5
g5
tp669
a(S'each'
p670
S'each'
p671
S'DT'
p672
S'B-NP'
p673
g5
tp674
a(S'receiving'
p675
S'receive'
p676
S'VBG'
p677
S'B-VP'
p678
g5
tp679
a(S'three'
p680
S'three'
p681
S'CD'
p682
S'B-NP'
p683
g5
tp684
a(S'sequential'
p685
S'sequential'
p686
S'JJ'
p687
S'I-NP'
p688
g5
tp689
a(S'treatments'
p690
S'treatment'
p691
S'NNS'
p692
S'I-NP'
p693
g5
tp694
a(S'spaced'
p695
S'space'
p696
S'VBD'
p697
S'B-VP'
p698
g5
tp699
a(S'1'
p700
g700
S'CD'
p701
S'B-NP'
p702
g5
tp703
a(S'month'
p704
S'month'
p705
S'NN'
p706
S'I-NP'
p707
g5
tp708
a(S'apart.'
p709
S'apart.'
p710
S'NN'
p711
S'I-NP'
p712
g5
tp713
a(S'Subjective'
p714
S'Subjective'
p715
S'JJ'
p716
S'I-NP'
p717
g5
tp718
a(S'and'
p719
S'and'
p720
S'CC'
p721
S'I-NP'
p722
g5
tp723
a(S'blinded'
p724
S'blinded'
p725
S'JJ'
p726
S'I-NP'
p727
g5
tp728
a(S'physician'
p729
S'physician'
p730
S'NN'
p731
S'I-NP'
p732
g5
tp733
a(S'evaluations'
p734
S'evaluation'
p735
S'NNS'
p736
S'I-NP'
p737
g5
tp738
a(S'were'
p739
S'be'
p740
S'VBD'
p741
S'B-VP'
p742
g5
tp743
a(S'performed'
p744
S'perform'
p745
S'VBN'
p746
S'I-VP'
p747
g5
tp748
a(S'at'
p749
S'at'
p750
S'IN'
p751
S'B-PP'
p752
g5
tp753
a(S'baseline'
p754
S'baseline'
p755
S'NN'
p756
S'B-NP'
p757
g5
tp758
a(S'and'
p759
S'and'
p760
S'CC'
p761
g5
g5
tp762
a(S'4'
p763
g763
S'CD'
p764
S'B-NP'
p765
g5
tp766
a(g133
g133
g133
S'I-NP'
p767
g5
tp768
a(S'8'
p769
g769
S'CD'
p770
S'I-NP'
p771
g5
tp772
a(g133
g133
g133
g5
g5
tp773
a(S'and'
p774
S'and'
p775
S'CC'
p776
g5
g5
tp777
a(S'20'
p778
S'20'
p779
S'CD'
p780
S'B-NP'
p781
g5
tp782
a(S'weeks'
p783
S'week'
p784
S'NNS'
p785
S'I-NP'
p786
g5
tp787
a(S'posttreatment'
p788
S'posttreatment'
p789
S'NN'
p790
S'I-NP'
p791
g5
tp792
a(S'using'
p793
S'use'
p794
S'VBG'
p795
S'B-VP'
p796
g5
tp797
a(S'a'
p798
g798
S'DT'
p799
S'B-NP'
p800
g5
tp801
a(S'nominal'
p802
S'nominal'
p803
S'JJ'
p804
S'I-NP'
p805
g5
tp806
a(S'scale'
p807
S'scale'
p808
S'NN'
p809
S'I-NP'
p810
g5
tp811
a(S'from'
p812
S'from'
p813
S'IN'
p814
S'B-PP'
p815
g5
tp816
a(g700
g700
S'CD'
p817
S'B-NP'
p818
g5
tp819
a(S'to'
p820
S'to'
p821
S'TO'
p822
S'I-NP'
p823
g5
tp824
a(S'4.'
p825
S'4.'
p826
S'CD'
p827
S'I-NP'
p828
g5
tp829
a(S'Erythema'
p830
S'Erythema'
p831
S'NN'
p832
S'I-NP'
p833
g5
tp834
a(S'and'
p835
S'and'
p836
S'CC'
p837
g5
g5
tp838
a(S'adverse'
p839
S'adverse'
p840
S'JJ'
p841
S'B-NP'
p842
g5
tp843
a(S'events'
p844
S'event'
p845
S'NNS'
p846
S'I-NP'
p847
g5
tp848
a(S'were'
p849
S'be'
p850
S'VBD'
p851
S'B-VP'
p852
g5
tp853
a(S'assessed'
p854
S'assess'
p855
S'VBN'
p856
S'I-VP'
p857
g5
tp858
a(g700
g700
S'CD'
p859
S'B-NP'
p860
g5
tp861
a(S'week'
p862
S'week'
p863
S'NN'
p864
S'I-NP'
p865
g5
tp866
a(S'following'
p867
S'follow'
p868
S'VBG'
p869
S'B-PP'
p870
g5
tp871
a(S'each'
p872
S'each'
p873
S'DT'
p874
S'B-NP'
p875
g5
tp876
a(S'treatment'
p877
S'treatment'
p878
S'NN'
p879
S'I-NP'
p880
g5
tp881
a(g52
g52
g52
g5
g5
tp882
a(S'RESULTS'
p883
S'RESULTS'
p884
S'NNS'
p885
S'B-NP'
p886
g5
tp887
a(S'Ten'
p888
S'Ten'
p889
S'CD'
p890
S'B-NP'
p891
g5
tp892
a(S'female'
p893
S'female'
p894
S'JJ'
p895
S'I-NP'
p896
g5
tp897
a(S'subjects'
p898
S'subject'
p899
S'NNS'
p900
S'I-NP'
p901
g5
tp902
a(S'with'
p903
S'with'
p904
S'IN'
p905
S'B-PP'
p906
g5
tp907
a(S'mild'
p908
S'mild'
p909
S'JJ'
p910
S'B-ADJP'
p911
g5
tp912
a(S'to'
p913
S'to'
p914
S'TO'
p915
S'B-PP'
p916
g5
tp917
a(S'moderate'
p918
S'moderate'
p919
S'JJ'
p920
S'B-NP'
p921
g5
tp922
a(S'facial'
p923
S'facial'
p924
S'JJ'
p925
S'I-NP'
p926
g5
tp927
a(S'photodamage'
p928
S'photodamage'
p929
S'NN'
p930
S'I-NP'
p931
g5
tp932
a(S'were'
p933
S'be'
p934
S'VBD'
p935
S'B-VP'
p936
g5
tp937
a(S'treated'
p938
S'treat'
p939
S'VBN'
p940
S'I-VP'
p941
g5
tp942
a(S'with'
p943
S'with'
p944
S'IN'
p945
S'B-PP'
p946
g5
tp947
a(S'one'
p948
S'one'
p949
S'CD'
p950
S'B-NP'
p951
g5
tp952
a(S'pass'
p953
S'pass'
p954
S'NN'
p955
S'I-NP'
p956
g5
tp957
a(S'of'
p958
S'of'
p959
S'IN'
p960
S'B-PP'
p961
g5
tp962
a(S'either'
p963
S'either'
p964
S'CC'
p965
g5
g5
tp966
a(S'IPL'
p967
S'IPL'
p968
S'NN'
p969
S'B-NP'
p970
S'B-protein'
p971
tp972
a(S'or'
p973
S'or'
p974
S'CC'
p975
S'I-NP'
p976
g5
tp977
a(S'Er'
p978
S'Er'
p979
S'NN'
p980
S'I-NP'
p981
S'B-protein'
p982
tp983
a(g281
g281
g281
g5
g5
tp984
a(S'YAG'
p985
S'YAG'
p986
S'NN'
p987
S'B-NP'
p988
S'B-protein'
p989
tp990
a(S'in'
p991
S'in'
p992
S'IN'
p993
S'B-PP'
p994
g5
tp995
a(g798
g798
S'DT'
p996
S'B-NP'
p997
g5
tp998
a(S'split-face'
p999
S'split-face'
p1000
S'JJ'
p1001
S'I-NP'
p1002
g5
tp1003
a(S'fashion.'
p1004
S'fashion.'
p1005
S'NN'
p1006
S'I-NP'
p1007
g5
tp1008
a(S'Patients'
p1009
S'Patient'
p1010
S'NNS'
p1011
S'I-NP'
p1012
g5
tp1013
a(S'received'
p1014
S'receive'
p1015
S'VBD'
p1016
S'B-VP'
p1017
g5
tp1018
a(S'three'
p1019
S'three'
p1020
S'CD'
p1021
S'B-NP'
p1022
g5
tp1023
a(S'treatments'
p1024
S'treatment'
p1025
S'NNS'
p1026
S'I-NP'
p1027
g5
tp1028
a(S'each'
p1029
S'each'
p1030
S'DT'
p1031
S'B-NP'
p1032
g5
tp1033
a(S'spaced'
p1034
S'space'
p1035
S'VBD'
p1036
S'B-VP'
p1037
g5
tp1038
a(g700
g700
S'CD'
p1039
S'B-NP'
p1040
g5
tp1041
a(S'month'
p1042
S'month'
p1043
S'NN'
p1044
S'I-NP'
p1045
g5
tp1046
a(S'apart.'
p1047
S'apart.'
p1048
S'IN'
p1049
S'B-PP'
p1050
g5
tp1051
a(S'Nine'
p1052
S'Nine'
p1053
S'CD'
p1054
S'B-NP'
p1055
g5
tp1056
a(S'of'
p1057
S'of'
p1058
S'IN'
p1059
S'B-PP'
p1060
g5
tp1061
a(S'10'
p1062
S'10'
p1063
S'CD'
p1064
S'B-NP'
p1065
g5
tp1066
a(S'patients'
p1067
S'patient'
p1068
S'NNS'
p1069
S'I-NP'
p1070
g5
tp1071
a(S'completed'
p1072
S'complete'
p1073
S'VBD'
p1074
S'B-VP'
p1075
g5
tp1076
a(S'the'
p1077
S'the'
p1078
S'DT'
p1079
S'B-NP'
p1080
g5
tp1081
a(S'trial'
p1082
S'trial'
p1083
S'NN'
p1084
S'I-NP'
p1085
g5
tp1086
a(S';'
p1087
g1087
g281
g5
g5
tp1088
a(g700
g700
S'CD'
p1089
S'B-NP'
p1090
g5
tp1091
a(S'withdrew'
p1092
S'withdraw'
p1093
S'VBD'
p1094
S'B-VP'
p1095
g5
tp1096
a(S'due'
p1097
S'due'
p1098
S'JJ'
p1099
S'B-ADJP'
p1100
g5
tp1101
a(S'to'
p1102
S'to'
p1103
S'TO'
p1104
S'B-VP'
p1105
g5
tp1106
a(S'pain'
p1107
S'pain'
p1108
S'VB'
p1109
S'I-VP'
p1110
g5
tp1111
a(S'during'
p1112
S'during'
p1113
S'IN'
p1114
S'B-PP'
p1115
g5
tp1116
a(S'the'
p1117
S'the'
p1118
S'DT'
p1119
S'B-NP'
p1120
g5
tp1121
a(S'second'
p1122
S'second'
p1123
S'JJ'
p1124
S'I-NP'
p1125
g5
tp1126
a(S'Er'
p1127
S'Er'
p1128
S'NN'
p1129
S'I-NP'
p1130
S'B-protein'
p1131
tp1132
a(g281
g281
g281
g5
g5
tp1133
a(S'YAG'
p1134
S'YAG'
p1135
S'NNP'
p1136
S'B-NP'
p1137
g5
tp1138
a(S'treatment.'
p1139
S'treatment.'
p1140
S'NNP'
p1141
S'I-NP'
p1142
g5
tp1143
a(S'Baseline'
p1144
S'Baseline'
p1145
S'NNP'
p1146
S'I-NP'
p1147
g5
tp1148
a(S'subjective'
p1149
S'subjective'
p1150
S'JJ'
p1151
S'I-NP'
p1152
g5
tp1153
a(S'and'
p1154
S'and'
p1155
S'CC'
p1156
S'I-NP'
p1157
g5
tp1158
a(S'blinded'
p1159
S'blind'
p1160
S'VBN'
p1161
S'I-NP'
p1162
g5
tp1163
a(S'physician'
p1164
S'physician'
p1165
S'NN'
p1166
S'I-NP'
p1167
g5
tp1168
a(S'dyschromia'
p1169
S'dyschromia'
p1170
S'NN'
p1171
S'I-NP'
p1172
g5
tp1173
a(S'and'
p1174
S'and'
p1175
S'CC'
p1176
S'I-NP'
p1177
g5
tp1178
a(S'rhytid'
p1179
S'rhytid'
p1180
S'NN'
p1181
S'I-NP'
p1182
g5
tp1183
a(S'scores'
p1184
S'score'
p1185
S'NNS'
p1186
S'I-NP'
p1187
g5
tp1188
a(S'revealed'
p1189
S'reveal'
p1190
S'VBD'
p1191
S'B-VP'
p1192
g5
tp1193
a(S'no'
p1194
S'no'
p1195
S'DT'
p1196
S'B-NP'
p1197
g5
tp1198
a(S'significant'
p1199
S'significant'
p1200
S'JJ'
p1201
S'I-NP'
p1202
g5
tp1203
a(S'difference'
p1204
S'difference'
p1205
S'NN'
p1206
S'I-NP'
p1207
g5
tp1208
a(S'between'
p1209
S'between'
p1210
S'IN'
p1211
S'B-PP'
p1212
g5
tp1213
a(S'the'
p1214
S'the'
p1215
S'DT'
p1216
S'B-NP'
p1217
g5
tp1218
a(S'IPL'
p1219
S'IPL'
p1220
S'NN'
p1221
S'I-NP'
p1222
g5
tp1223
a(S'and'
p1224
S'and'
p1225
S'CC'
p1226
S'I-NP'
p1227
g5
tp1228
a(S'Er'
p1229
S'Er'
p1230
S'NN'
p1231
S'I-NP'
p1232
S'B-protein'
p1233
tp1234
a(g281
g281
g281
g5
g5
tp1235
a(S'YAG'
p1236
S'YAG'
p1237
S'NN'
p1238
S'B-NP'
p1239
S'B-protein'
p1240
tp1241
a(S'randomly'
p1242
S'randomly'
p1243
S'RB'
p1244
S'B-NP'
p1245
g5
tp1246
a(S'assigned'
p1247
S'assign'
p1248
S'VBN'
p1249
S'I-NP'
p1250
g5
tp1251
a(S'sides.'
p1252
S'sides.'
p1253
S'NN'
p1254
S'I-NP'
p1255
g5
tp1256
a(S'Up'
p1257
S'Up'
p1258
S'NN'
p1259
S'I-NP'
p1260
g5
tp1261
a(S'to'
p1262
S'to'
p1263
S'TO'
p1264
S'B-PP'
p1265
g5
tp1266
a(S'three'
p1267
S'three'
p1268
S'CD'
p1269
S'B-NP'
p1270
g5
tp1271
a(S'IPL'
p1272
S'IPL'
p1273
S'NN'
p1274
S'I-NP'
p1275
S'B-protein'
p1276
tp1277
a(S'or'
p1278
S'or'
p1279
S'CC'
p1280
S'I-NP'
p1281
g5
tp1282
a(S'Er'
p1283
S'Er'
p1284
S'NN'
p1285
S'I-NP'
p1286
S'B-protein'
p1287
tp1288
a(g281
g281
g281
g5
g5
tp1289
a(S'YAG'
p1290
S'YAG'
p1291
S'NN'
p1292
S'B-NP'
p1293
g5
tp1294
a(S'treatments'
p1295
S'treatment'
p1296
S'NNS'
p1297
S'I-NP'
p1298
g5
tp1299
a(S'did'
p1300
S'do'
p1301
S'VBD'
p1302
S'B-VP'
p1303
g5
tp1304
a(S'not'
p1305
S'not'
p1306
S'RB'
p1307
S'I-VP'
p1308
g5
tp1309
a(S'result'
p1310
S'result'
p1311
S'VB'
p1312
S'I-VP'
p1313
g5
tp1314
a(S'in'
p1315
S'in'
p1316
S'IN'
p1317
S'B-PP'
p1318
g5
tp1319
a(g798
g798
S'DT'
p1320
S'B-NP'
p1321
g5
tp1322
a(S'significant'
p1323
S'significant'
p1324
S'JJ'
p1325
S'I-NP'
p1326
g5
tp1327
a(S'improvement'
p1328
S'improvement'
p1329
S'NN'
p1330
S'I-NP'
p1331
g5
tp1332
a(S'in'
p1333
S'in'
p1334
S'IN'
p1335
S'B-PP'
p1336
g5
tp1337
a(S'rhytid'
p1338
S'rhytid'
p1339
S'JJ'
p1340
S'B-NP'
p1341
g5
tp1342
a(S'scores.'
p1343
S'scores.'
p1344
S'NN'
p1345
S'I-NP'
p1346
g5
tp1347
a(S'Subjective'
p1348
S'Subjective'
p1349
S'NN'
p1350
S'I-NP'
p1351
g5
tp1352
a(S'and'
p1353
S'and'
p1354
S'CC'
p1355
g5
g5
tp1356
a(S'blinded'
p1357
S'blind'
p1358
S'VBD'
p1359
S'B-VP'
p1360
g5
tp1361
a(S'physician'
p1362
S'physician'
p1363
S'NN'
p1364
S'B-NP'
p1365
g5
tp1366
a(S'dyschromia'
p1367
S'dyschromia'
p1368
S'NN'
p1369
S'I-NP'
p1370
g5
tp1371
a(S'scores'
p1372
S'score'
p1373
S'NNS'
p1374
S'I-NP'
p1375
g5
tp1376
a(S'improved'
p1377
S'improve'
p1378
S'VBD'
p1379
S'B-VP'
p1380
g5
tp1381
a(S'26'
p1382
S'26'
p1383
S'CD'
p1384
S'B-NP'
p1385
g5
tp1386
a(S'and'
p1387
S'and'
p1388
S'CC'
p1389
S'I-NP'
p1390
g5
tp1391
a(S'38'
p1392
S'38'
p1393
S'CD'
p1394
S'I-NP'
p1395
g5
tp1396
a(g536
g536
S'NN'
p1397
S'I-NP'
p1398
g5
tp1399
a(g133
g133
g133
g5
g5
tp1400
a(S'respectively'
p1401
S'respectively'
p1402
S'RB'
p1403
S'B-ADVP'
p1404
g5
tp1405
a(g133
g133
g133
g5
g5
tp1406
a(S'3'
p1407
g1407
S'CD'
p1408
S'B-NP'
p1409
g5
tp1410
a(S'months'
p1411
S'month'
p1412
S'NNS'
p1413
S'I-NP'
p1414
g5
tp1415
a(S'after'
p1416
S'after'
p1417
S'IN'
p1418
S'B-PP'
p1419
g5
tp1420
a(S'the'
p1421
S'the'
p1422
S'DT'
p1423
S'B-NP'
p1424
g5
tp1425
a(S'final'
p1426
S'final'
p1427
S'JJ'
p1428
S'I-NP'
p1429
g5
tp1430
a(S'IPL'
p1431
S'IPL'
p1432
S'NN'
p1433
S'I-NP'
p1434
g5
tp1435
a(S'treatment'
p1436
S'treatment'
p1437
S'NN'
p1438
S'I-NP'
p1439
g5
tp1440
a(g133
g133
g133
g5
g5
tp1441
a(S'but'
p1442
S'but'
p1443
S'CC'
p1444
g5
g5
tp1445
a(S'only'
p1446
S'only'
p1447
S'RB'
p1448
S'B-ADVP'
p1449
g5
tp1450
a(S'by'
p1451
S'by'
p1452
S'IN'
p1453
S'B-PP'
p1454
g5
tp1455
a(S'7'
p1456
g1456
S'CD'
p1457
S'B-NP'
p1458
g5
tp1459
a(S'and'
p1460
S'and'
p1461
S'CC'
p1462
S'I-NP'
p1463
g5
tp1464
a(S'29'
p1465
S'29'
p1466
S'CD'
p1467
S'I-NP'
p1468
g5
tp1469
a(g536
g536
S'NN'
p1470
S'I-NP'
p1471
g5
tp1472
a(g133
g133
g133
g5
g5
tp1473
a(S'respectively'
p1474
S'respectively'
p1475
S'RB'
p1476
S'B-ADVP'
p1477
g5
tp1478
a(g133
g133
g133
g5
g5
tp1479
a(S'with'
p1480
S'with'
p1481
S'IN'
p1482
S'B-PP'
p1483
g5
tp1484
a(S'Er'
p1485
S'Er'
p1486
S'NN'
p1487
S'B-NP'
p1488
S'B-protein'
p1489
tp1490
a(g281
g281
g281
g5
g5
tp1491
a(S'YAG.'
p1492
S'YAG.'
p1493
S'FW'
p1494
S'B-NP'
p1495
g5
tp1496
a(S'Subjective'
p1497
S'Subjective'
p1498
S'JJ'
p1499
S'I-NP'
p1500
g5
tp1501
a(S'global'
p1502
S'global'
p1503
S'JJ'
p1504
S'I-NP'
p1505
g5
tp1506
a(S'facial'
p1507
S'facial'
p1508
S'JJ'
p1509
S'I-NP'
p1510
g5
tp1511
a(S'appearance'
p1512
S'appearance'
p1513
S'NN'
p1514
S'I-NP'
p1515
g5
tp1516
a(S'scores'
p1517
S'score'
p1518
S'NNS'
p1519
S'I-NP'
p1520
g5
tp1521
a(S'worsened'
p1522
S'worsen'
p1523
S'VBN'
p1524
S'B-VP'
p1525
g5
tp1526
a(S'by'
p1527
S'by'
p1528
S'IN'
p1529
S'B-PP'
p1530
g5
tp1531
a(S'5'
p1532
g1532
S'CD'
p1533
S'B-NP'
p1534
g5
tp1535
a(g536
g536
S'NN'
p1536
S'I-NP'
p1537
g5
tp1538
a(S'while'
p1539
S'while'
p1540
S'IN'
p1541
S'B-SBAR'
p1542
g5
tp1543
a(S'blinded'
p1544
S'blind'
p1545
S'VBN'
p1546
S'B-NP'
p1547
g5
tp1548
a(S'physician'
p1549
S'physician'
p1550
S'NN'
p1551
S'I-NP'
p1552
g5
tp1553
a(S'scores'
p1554
S'score'
p1555
S'NNS'
p1556
S'I-NP'
p1557
g5
tp1558
a(S'improved'
p1559
S'improve'
p1560
S'VBN'
p1561
S'B-VP'
p1562
g5
tp1563
a(S'by'
p1564
S'by'
p1565
S'IN'
p1566
S'B-PP'
p1567
g5
tp1568
a(S'16'
p1569
S'16'
p1570
S'CD'
p1571
S'B-NP'
p1572
g5
tp1573
a(g536
g536
S'NN'
p1574
S'I-NP'
p1575
g5
tp1576
a(g1407
g1407
S'CD'
p1577
S'B-NP'
p1578
g5
tp1579
a(S'months'
p1580
S'month'
p1581
S'NNS'
p1582
S'I-NP'
p1583
g5
tp1584
a(S'after'
p1585
S'after'
p1586
S'IN'
p1587
S'B-SBAR'
p1588
g5
tp1589
a(g1407
g1407
S'CD'
p1590
S'B-NP'
p1591
g5
tp1592
a(S'Er'
p1593
S'Er'
p1594
S'NN'
p1595
S'I-NP'
p1596
S'B-protein'
p1597
tp1598
a(g281
g281
g281
g5
g5
tp1599
a(S'YAG'
p1600
S'YAG'
p1601
S'NN'
p1602
S'B-NP'
p1603
g5
tp1604
a(S'treatments'
p1605
S'treatment'
p1606
S'NNS'
p1607
S'I-NP'
p1608
g5
tp1609
a(g133
g133
g133
g5
g5
tp1610
a(S'but'
p1611
S'but'
p1612
S'CC'
p1613
g5
g5
tp1614
a(S'by'
p1615
S'by'
p1616
S'IN'
p1617
S'B-PP'
p1618
g5
tp1619
a(S'28'
p1620
S'28'
p1621
S'CD'
p1622
S'B-NP'
p1623
g5
tp1624
a(S'and'
p1625
S'and'
p1626
S'CC'
p1627
S'I-NP'
p1628
g5
tp1629
a(S'20'
p1630
S'20'
p1631
S'CD'
p1632
S'I-NP'
p1633
g5
tp1634
a(g536
g536
S'NN'
p1635
S'I-NP'
p1636
g5
tp1637
a(S'for'
p1638
S'for'
p1639
S'IN'
p1640
S'B-PP'
p1641
g5
tp1642
a(S'IPL'
p1643
S'IPL'
p1644
S'NN'
p1645
S'B-NP'
p1646
S'B-protein'
p1647
tp1648
a(g133
g133
g133
g5
g5
tp1649
a(S'respectively.'
p1650
S'respectively.'
p1651
S'VBP'
p1652
S'B-VP'
p1653
g5
tp1654
a(S'The'
p1655
S'The'
p1656
S'DT'
p1657
S'B-NP'
p1658
g5
tp1659
a(S'overall'
p1660
S'overall'
p1661
S'JJ'
p1662
S'I-NP'
p1663
g5
tp1664
a(S'incidence'
p1665
S'incidence'
p1666
S'NN'
p1667
S'I-NP'
p1668
g5
tp1669
a(S'of'
p1670
S'of'
p1671
S'IN'
p1672
S'B-PP'
p1673
g5
tp1674
a(S'adverse'
p1675
S'adverse'
p1676
S'JJ'
p1677
S'B-NP'
p1678
g5
tp1679
a(S'events'
p1680
S'event'
p1681
S'NNS'
p1682
S'I-NP'
p1683
g5
tp1684
a(S'and'
p1685
S'and'
p1686
S'CC'
p1687
g5
g5
tp1688
a(S'subsequent'
p1689
S'subsequent'
p1690
S'JJ'
p1691
S'B-NP'
p1692
g5
tp1693
a(S'downtime'
p1694
S'downtime'
p1695
S'NN'
p1696
S'I-NP'
p1697
g5
tp1698
a(S'was'
p1699
S'be'
p1700
S'VBD'
p1701
S'B-VP'
p1702
g5
tp1703
a(S'increased'
p1704
S'increase'
p1705
S'VBN'
p1706
S'I-VP'
p1707
g5
tp1708
a(S'for'
p1709
S'for'
p1710
S'IN'
p1711
S'B-PP'
p1712
g5
tp1713
a(S'Er'
p1714
S'Er'
p1715
S'NN'
p1716
S'B-NP'
p1717
S'B-protein'
p1718
tp1719
a(g281
g281
g281
g5
g5
tp1720
a(S'YAG'
p1721
S'YAG'
p1722
S'NN'
p1723
S'B-NP'
p1724
S'B-protein'
p1725
tp1726
a(g288
g288
g288
g5
g5
tp1727
a(S'1/10'
p1728
S'1/10'
p1729
S'CD'
p1730
S'B-NP'
p1731
g5
tp1732
a(S'patients'
p1733
S'patient'
p1734
S'NNS'
p1735
S'I-NP'
p1736
g5
tp1737
a(S'experienced'
p1738
S'experience'
p1739
S'VBD'
p1740
S'B-VP'
p1741
g5
tp1742
a(S'hyperpigmentation'
p1743
S'hyperpigmentation'
p1744
S'NN'
p1745
S'B-NP'
p1746
g5
tp1747
a(g133
g133
g133
g5
g5
tp1748
a(S'3/10'
p1749
S'3/10'
p1750
S'CD'
p1751
S'B-NP'
p1752
g5
tp1753
a(S'exfoliation'
p1754
S'exfoliation'
p1755
S'NN'
p1756
S'I-NP'
p1757
g5
tp1758
a(g133
g133
g133
g5
g5
tp1759
a(S'1/10'
p1760
S'1/10'
p1761
S'CD'
p1762
S'B-NP'
p1763
g5
tp1764
a(S'blistering'
p1765
S'blistering'
p1766
S'NN'
p1767
S'I-NP'
p1768
g5
tp1769
a(g133
g133
g133
g5
g5
tp1770
a(S'and'
p1771
S'and'
p1772
S'CC'
p1773
g5
g5
tp1774
a(S'5/10'
p1775
S'5/10'
p1776
S'CD'
p1777
S'B-NP'
p1778
g5
tp1779
a(S'discomfort'
p1780
S'discomfort'
p1781
S'NN'
p1782
S'I-NP'
p1783
g5
tp1784
a(g302
g302
g302
g5
g5
tp1785
a(S'compared'
p1786
S'compare'
p1787
S'VBN'
p1788
S'B-VP'
p1789
g5
tp1790
a(S'to'
p1791
S'to'
p1792
S'TO'
p1793
S'B-PP'
p1794
g5
tp1795
a(S'IPL'
p1796
S'IPL'
p1797
S'NN'
p1798
S'B-NP'
p1799
S'B-protein'
p1800
tp1801
a(g288
g288
g288
g5
g5
tp1802
a(S'1/10'
p1803
S'1/10'
p1804
S'CD'
p1805
S'B-NP'
p1806
g5
tp1807
a(S'exfoliation'
p1808
S'exfoliation'
p1809
S'NN'
p1810
S'I-NP'
p1811
g5
tp1812
a(S'and'
p1813
S'and'
p1814
S'CC'
p1815
g5
g5
tp1816
a(S'1/10'
p1817
S'1/10'
p1818
S'CD'
p1819
S'B-NP'
p1820
g5
tp1821
a(S'discomfort'
p1822
S'discomfort'
p1823
S'NN'
p1824
S'I-NP'
p1825
g5
tp1826
a(g302
g302
g302
g5
g5
tp1827
a(g133
g133
g133
g5
g5
tp1828
a(S'although'
p1829
S'although'
p1830
S'IN'
p1831
S'B-SBAR'
p1832
g5
tp1833
a(S'no'
p1834
S'no'
p1835
S'DT'
p1836
S'B-NP'
p1837
g5
tp1838
a(S'permanent'
p1839
S'permanent'
p1840
S'JJ'
p1841
S'I-NP'
p1842
g5
tp1843
a(S'side'
p1844
S'side'
p1845
S'NN'
p1846
S'I-NP'
p1847
g5
tp1848
a(S'effects'
p1849
S'effect'
p1850
S'NNS'
p1851
S'I-NP'
p1852
g5
tp1853
a(S'were'
p1854
S'be'
p1855
S'VBD'
p1856
S'B-VP'
p1857
g5
tp1858
a(S'observed'
p1859
S'observe'
p1860
S'VBN'
p1861
S'I-VP'
p1862
g5
tp1863
a(S'with'
p1864
S'with'
p1865
S'IN'
p1866
S'B-PP'
p1867
g5
tp1868
a(S'either'
p1869
S'either'
p1870
S'CC'
p1871
g5
g5
tp1872
a(S'treatment'
p1873
S'treatment'
p1874
S'NN'
p1875
S'B-NP'
p1876
g5
tp1877
a(S'arm'
p1878
S'arm'
p1879
S'NN'
p1880
S'I-NP'
p1881
g5
tp1882
a(g52
g52
g52
g5
g5
tp1883
a(S'CONCLUSIONS'
p1884
S'CONCLUSIONS'
p1885
S'NNS'
p1886
S'B-NP'
p1887
g5
tp1888
a(S'While'
p1889
S'While'
p1890
S'IN'
p1891
S'B-SBAR'
p1892
g5
tp1893
a(S'low-fluence'
p1894
S'low-fluence'
p1895
S'JJ'
p1896
S'B-NP'
p1897
g5
tp1898
a(S'erbium'
p1899
S'erbium'
p1900
S'NN'
p1901
S'I-NP'
p1902
g5
tp1903
a(S'resurfacing'
p1904
S'resurface'
p1905
S'VBG'
p1906
S'B-VP'
p1907
g5
tp1908
a(S'has'
p1909
S'have'
p1910
S'VBZ'
p1911
S'B-VP'
p1912
g5
tp1913
a(g798
g798
S'DT'
p1914
S'B-NP'
p1915
g5
tp1916
a(S'modest'
p1917
S'modest'
p1918
S'JJ'
p1919
S'I-NP'
p1920
g5
tp1921
a(S'effect'
p1922
S'effect'
p1923
S'NN'
p1924
S'I-NP'
p1925
g5
tp1926
a(S'on'
p1927
S'on'
p1928
S'IN'
p1929
S'B-PP'
p1930
g5
tp1931
a(S'facial'
p1932
S'facial'
p1933
S'JJ'
p1934
S'B-NP'
p1935
g5
tp1936
a(S'photodamage'
p1937
S'photodamage'
p1938
S'NN'
p1939
S'I-NP'
p1940
g5
tp1941
a(g133
g133
g133
g5
g5
tp1942
a(S'patients'
p1943
S'patient'
p1944
S'NNS'
p1945
S'B-NP'
p1946
g5
tp1947
a(S'preferred'
p1948
S'prefer'
p1949
S'VBD'
p1950
S'B-VP'
p1951
g5
tp1952
a(S'IPL'
p1953
S'IPL'
p1954
S'NN'
p1955
S'B-NP'
p1956
S'B-protein'
p1957
tp1958
a(S'because'
p1959
S'because'
p1960
S'IN'
p1961
S'B-SBAR'
p1962
g5
tp1963
a(S'it'
p1964
S'it'
p1965
S'PRP'
p1966
S'B-NP'
p1967
g5
tp1968
a(S'resulted'
p1969
S'result'
p1970
S'VBD'
p1971
S'B-VP'
p1972
g5
tp1973
a(S'in'
p1974
S'in'
p1975
S'IN'
p1976
S'B-PP'
p1977
g5
tp1978
a(S'less'
p1979
S'less'
p1980
S'RBR'
p1981
S'B-ADJP'
p1982
g5
tp1983
a(S'downtime.'
p1984
S'downtime.'
p1985
S'JJ'
p1986
S'I-ADJP'
p1987
g5
tp1988
a(S'The'
p1989
S'The'
p1990
S'DT'
p1991
S'B-NP'
p1992
g5
tp1993
a(S'authors'
p1994
S'author'
p1995
S'NNS'
p1996
S'I-NP'
p1997
g5
tp1998
a(S'have'
p1999
S'have'
p2000
S'VBP'
p2001
S'B-VP'
p2002
g5
tp2003
a(S'indicated'
p2004
S'indicate'
p2005
S'VBN'
p2006
S'I-VP'
p2007
g5
tp2008
a(S'no'
p2009
S'no'
p2010
S'DT'
p2011
S'B-NP'
p2012
g5
tp2013
a(S'significant'
p2014
S'significant'
p2015
S'JJ'
p2016
S'I-NP'
p2017
g5
tp2018
a(S'interest'
p2019
S'interest'
p2020
S'NN'
p2021
S'I-NP'
p2022
g5
tp2023
a(S'with'
p2024
S'with'
p2025
S'IN'
p2026
S'B-PP'
p2027
g5
tp2028
a(S'commercial'
p2029
S'commercial'
p2030
S'JJ'
p2031
S'B-NP'
p2032
g5
tp2033
a(S'supporters'
p2034
S'supporter'
p2035
S'NNS'
p2036
S'I-NP'
p2037
g5
tp2038
a(g52
g52
g52
g5
g5
tp2039
a.