(lp0
(S'Pharmacokinetic'
p1
S'Pharmacokinetic'
p2
S'JJ'
p3
S'B-NP'
p4
S'O'
p5
tp6
a(S'interaction'
p7
S'interaction'
p8
S'NN'
p9
S'I-NP'
p10
g5
tp11
a(S'between'
p12
S'between'
p13
S'IN'
p14
S'B-PP'
p15
g5
tp16
a(S'proton'
p17
S'proton'
p18
S'NN'
p19
S'B-NP'
p20
g5
tp21
a(S'pump'
p22
S'pump'
p23
S'NN'
p24
S'I-NP'
p25
g5
tp26
a(S'inhibitors'
p27
S'inhibitor'
p28
S'NNS'
p29
S'I-NP'
p30
g5
tp31
a(S'and'
p32
S'and'
p33
S'CC'
p34
g5
g5
tp35
a(S'roxithromycin'
p36
S'roxithromycin'
p37
S'NN'
p38
S'B-NP'
p39
g5
tp40
a(S'in'
p41
S'in'
p42
S'IN'
p43
S'B-PP'
p44
g5
tp45
a(S'volunteers'
p46
S'volunteer'
p47
S'NNS'
p48
S'B-NP'
p49
g5
tp50
a(S'.'
p51
g51
g51
g5
g5
tp52
a(S'BACKGROUND'
p53
S'BACKGROUND'
p54
S'NN'
p55
S'B-NP'
p56
g5
tp57
a(S'Triple'
p58
S'Triple'
p59
S'JJ'
p60
S'I-NP'
p61
g5
tp62
a(S'therapy'
p63
S'therapy'
p64
S'NN'
p65
S'I-NP'
p66
g5
tp67
a(S'including'
p68
S'include'
p69
S'VBG'
p70
S'B-PP'
p71
g5
tp72
a(S'two'
p73
S'two'
p74
S'CD'
p75
S'B-NP'
p76
g5
tp77
a(S'antibiotics'
p78
S'antibiotic'
p79
S'NNS'
p80
S'I-NP'
p81
g5
tp82
a(S'and'
p83
S'and'
p84
S'CC'
p85
g5
g5
tp86
a(S'a'
p87
g87
S'DT'
p88
S'B-NP'
p89
g5
tp90
a(S'proton'
p91
S'proton'
p92
S'NN'
p93
S'I-NP'
p94
g5
tp95
a(S'pump'
p96
S'pump'
p97
S'NN'
p98
S'I-NP'
p99
g5
tp100
a(S'inhibitor'
p101
S'inhibitor'
p102
S'NN'
p103
S'I-NP'
p104
g5
tp105
a(S'is'
p106
S'be'
p107
S'VBZ'
p108
S'B-VP'
p109
g5
tp110
a(g87
g87
S'DT'
p111
S'B-NP'
p112
g5
tp113
a(S'rational'
p114
S'rational'
p115
S'JJ'
p116
S'I-NP'
p117
g5
tp118
a(S'approach'
p119
S'approach'
p120
S'NN'
p121
S'I-NP'
p122
g5
tp123
a(S'to'
p124
S'to'
p125
S'TO'
p126
S'B-PP'
p127
g5
tp128
a(S'the'
p129
S'the'
p130
S'DT'
p131
S'B-NP'
p132
g5
tp133
a(S'treatment'
p134
S'treatment'
p135
S'NN'
p136
S'I-NP'
p137
g5
tp138
a(S'of'
p139
S'of'
p140
S'IN'
p141
S'B-PP'
p142
g5
tp143
a(S'Helicobacter'
p144
S'Helicobacter'
p145
S'NN'
p146
S'B-NP'
p147
g5
tp148
a(S'pylori'
p149
S'pylori'
p150
S'NN'
p151
S'I-NP'
p152
g5
tp153
a(S'induced'
p154
S'induce'
p155
S'VBD'
p156
S'B-VP'
p157
g5
tp158
a(S'peptic'
p159
S'peptic'
p160
S'JJ'
p161
S'B-NP'
p162
g5
tp163
a(S'ulcer'
p164
S'ulcer'
p165
S'NN'
p166
S'I-NP'
p167
g5
tp168
a(S'disease.'
p169
S'disease.'
p170
S'NN'
p171
S'I-NP'
p172
g5
tp173
a(S'The'
p174
S'The'
p175
S'DT'
p176
S'B-NP'
p177
g5
tp178
a(S'interaction'
p179
S'interaction'
p180
S'NN'
p181
S'I-NP'
p182
g5
tp183
a(S'of'
p184
S'of'
p185
S'IN'
p186
S'B-PP'
p187
g5
tp188
a(S'antimicrobial'
p189
S'antimicrobial'
p190
S'JJ'
p191
S'B-NP'
p192
g5
tp193
a(S'therapy'
p194
S'therapy'
p195
S'NN'
p196
S'I-NP'
p197
g5
tp198
a(S'and'
p199
S'and'
p200
S'CC'
p201
S'I-NP'
p202
g5
tp203
a(S'acid'
p204
S'acid'
p205
S'NN'
p206
S'I-NP'
p207
g5
tp208
a(S'suppression'
p209
S'suppression'
p210
S'NN'
p211
S'I-NP'
p212
g5
tp213
a(S'is'
p214
S'be'
p215
S'VBZ'
p216
S'B-VP'
p217
g5
tp218
a(S'not'
p219
S'not'
p220
S'RB'
p221
S'I-VP'
p222
g5
tp223
a(S'yet'
p224
S'yet'
p225
S'RB'
p226
S'I-VP'
p227
g5
tp228
a(S'well'
p229
S'well'
p230
S'RB'
p231
S'I-VP'
p232
g5
tp233
a(S'elucidated'
p234
S'elucidate'
p235
S'VBN'
p236
S'I-VP'
p237
g5
tp238
a(g51
g51
g51
g5
g5
tp239
a(S'AIMS'
p240
S'AIMS'
p241
S'NNS'
p242
S'B-NP'
p243
g5
tp244
a(S'To'
p245
S'To'
p246
S'TO'
p247
S'B-VP'
p248
g5
tp249
a(S'investigate'
p250
S'investigate'
p251
S'VB'
p252
S'I-VP'
p253
g5
tp254
a(S'the'
p255
S'the'
p256
S'DT'
p257
S'B-NP'
p258
g5
tp259
a(S'effects'
p260
S'effect'
p261
S'NNS'
p262
S'I-NP'
p263
g5
tp264
a(S'of'
p265
S'of'
p266
S'IN'
p267
S'B-PP'
p268
g5
tp269
a(S'proton'
p270
S'proton'
p271
S'NN'
p272
S'B-NP'
p273
g5
tp274
a(S'pump'
p275
S'pump'
p276
S'NN'
p277
S'I-NP'
p278
g5
tp279
a(S'inhibitors'
p280
S'inhibitor'
p281
S'NNS'
p282
S'I-NP'
p283
g5
tp284
a(S'on'
p285
S'on'
p286
S'IN'
p287
S'B-PP'
p288
g5
tp289
a(S'roxithromycin'
p290
S'roxithromycin'
p291
S'NN'
p292
S'B-NP'
p293
g5
tp294
a(S'levels'
p295
S'level'
p296
S'NNS'
p297
S'I-NP'
p298
g5
tp299
a(S'in'
p300
S'in'
p301
S'IN'
p302
S'B-PP'
p303
g5
tp304
a(S'plasma'
p305
S'plasma'
p306
S'NN'
p307
S'B-NP'
p308
g5
tp309
a(S'and'
p310
S'and'
p311
S'CC'
p312
g5
g5
tp313
a(S'gastric'
p314
S'gastric'
p315
S'JJ'
p316
S'B-NP'
p317
g5
tp318
a(S'tissue'
p319
S'tissue'
p320
S'NN'
p321
S'I-NP'
p322
g5
tp323
a(S'under'
p324
S'under'
p325
S'IN'
p326
S'B-PP'
p327
g5
tp328
a(S'steady-state'
p329
S'steady-state'
p330
S'JJ'
p331
S'B-NP'
p332
g5
tp333
a(S'conditions'
p334
S'condition'
p335
S'NNS'
p336
S'I-NP'
p337
g5
tp338
a(S'in'
p339
S'in'
p340
S'IN'
p341
S'B-PP'
p342
g5
tp343
a(S'volunteers'
p344
S'volunteer'
p345
S'NNS'
p346
S'B-NP'
p347
g5
tp348
a(g51
g51
g51
g5
g5
tp349
a(S'METHODS'
p350
S'METHODS'
p351
S'NNS'
p352
S'B-NP'
p353
g5
tp354
a(S'In'
p355
S'In'
p356
S'IN'
p357
S'B-PP'
p358
g5
tp359
a(S'two'
p360
S'two'
p361
S'CD'
p362
S'B-NP'
p363
g5
tp364
a(S'crossover'
p365
S'crossover'
p366
S'NN'
p367
S'I-NP'
p368
g5
tp369
a(S'studies'
p370
S'study'
p371
S'NNS'
p372
S'I-NP'
p373
g5
tp374
a(S'omeprazole'
p375
S'omeprazole'
p376
S'VBP'
p377
S'B-VP'
p378
g5
tp379
a(S'20'
p380
S'20'
p381
S'CD'
p382
S'B-NP'
p383
g5
tp384
a(S'mg'
p385
S'mg'
p386
S'NN'
p387
S'I-NP'
p388
g5
tp389
a(S'b.d.'
p390
S'b.d.'
p391
S'NN'
p392
S'I-NP'
p393
g5
tp394
a(S','
p395
g395
g395
g5
g5
tp396
a(S'lansoprazole'
p397
S'lansoprazole'
p398
S'NN'
p399
S'B-NP'
p400
g5
tp401
a(S'30'
p402
S'30'
p403
S'CD'
p404
S'I-NP'
p405
g5
tp406
a(S'mg'
p407
S'mg'
p408
S'NN'
p409
S'I-NP'
p410
g5
tp411
a(S'b.d.'
p412
S'b.d.'
p413
S'NN'
p414
S'I-NP'
p415
g5
tp416
a(g395
g395
g395
g5
g5
tp417
a(S'roxithromycin'
p418
S'roxithromycin'
p419
S'NN'
p420
S'B-NP'
p421
g5
tp422
a(S'300'
p423
S'300'
p424
S'CD'
p425
S'I-NP'
p426
g5
tp427
a(S'mg'
p428
S'mg'
p429
S'NN'
p430
S'I-NP'
p431
g5
tp432
a(S'b.d.'
p433
S'b.d.'
p434
S'RB'
p435
S'B-ADVP'
p436
g5
tp437
a(g395
g395
g395
g5
g5
tp438
a(S'and'
p439
S'and'
p440
S'CC'
p441
g5
g5
tp442
a(S'the'
p443
S'the'
p444
S'DT'
p445
S'B-NP'
p446
g5
tp447
a(S'combination'
p448
S'combination'
p449
S'NN'
p450
S'I-NP'
p451
g5
tp452
a(S'of'
p453
S'of'
p454
S'IN'
p455
S'B-PP'
p456
g5
tp457
a(S'roxithromycin'
p458
S'roxithromycin'
p459
S'NN'
p460
S'B-NP'
p461
g5
tp462
a(S'with'
p463
S'with'
p464
S'IN'
p465
S'B-PP'
p466
g5
tp467
a(S'either'
p468
S'either'
p469
S'CC'
p470
g5
g5
tp471
a(S'omeprazole'
p472
S'omeprazole'
p473
S'NN'
p474
S'B-NP'
p475
g5
tp476
a(S'or'
p477
S'or'
p478
S'CC'
p479
S'I-NP'
p480
g5
tp481
a(S'lansoprazole'
p482
S'lansoprazole'
p483
S'NN'
p484
S'I-NP'
p485
g5
tp486
a(S'were'
p487
S'be'
p488
S'VBD'
p489
S'B-VP'
p490
g5
tp491
a(S'administered'
p492
S'administer'
p493
S'VBN'
p494
S'I-VP'
p495
g5
tp496
a(S'to'
p497
S'to'
p498
S'TO'
p499
S'B-PP'
p500
g5
tp501
a(S'12'
p502
S'12'
p503
S'CD'
p504
S'B-NP'
p505
g5
tp506
a(S'healthy'
p507
S'healthy'
p508
S'JJ'
p509
S'I-NP'
p510
g5
tp511
a(S'volunteers'
p512
S'volunteer'
p513
S'NNS'
p514
S'I-NP'
p515
g5
tp516
a(S'over'
p517
S'over'
p518
S'IN'
p519
S'B-PP'
p520
g5
tp521
a(S'6'
p522
g522
S'CD'
p523
S'B-NP'
p524
g5
tp525
a(S'days.'
p526
S'days.'
p527
S'NN'
p528
S'I-NP'
p529
g5
tp530
a(S'Blood'
p531
S'Blood'
p532
S'NN'
p533
S'I-NP'
p534
g5
tp535
a(S'plasma'
p536
S'plasma'
p537
S'NN'
p538
S'I-NP'
p539
g5
tp540
a(S'levels'
p541
S'level'
p542
S'NNS'
p543
S'I-NP'
p544
g5
tp545
a(S'of'
p546
S'of'
p547
S'IN'
p548
S'B-PP'
p549
g5
tp550
a(S'the'
p551
S'the'
p552
S'DT'
p553
S'B-NP'
p554
g5
tp555
a(S'drugs'
p556
S'drug'
p557
S'NNS'
p558
S'I-NP'
p559
g5
tp560
a(S'were'
p561
S'be'
p562
S'VBD'
p563
S'B-VP'
p564
g5
tp565
a(S'measured.'
p566
S'measured.'
p567
S'VBN'
p568
S'I-VP'
p569
g5
tp570
a(S'In'
p571
S'In'
p572
S'IN'
p573
S'B-PP'
p574
g5
tp575
a(S'addition'
p576
S'addition'
p577
S'NN'
p578
S'B-NP'
p579
g5
tp580
a(g395
g395
g395
g5
g5
tp581
a(S'roxithromycin'
p582
S'roxithromycin'
p583
S'NN'
p584
S'B-NP'
p585
g5
tp586
a(S'concentrations'
p587
S'concentration'
p588
S'NNS'
p589
S'I-NP'
p590
g5
tp591
a(S'were'
p592
S'be'
p593
S'VBD'
p594
S'B-VP'
p595
g5
tp596
a(S'also'
p597
S'also'
p598
S'RB'
p599
S'I-VP'
p600
g5
tp601
a(S'determined'
p602
S'determine'
p603
S'VBN'
p604
S'I-VP'
p605
g5
tp606
a(S'in'
p607
S'in'
p608
S'IN'
p609
S'B-PP'
p610
g5
tp611
a(S'gastric'
p612
S'gastric'
p613
S'JJ'
p614
S'B-NP'
p615
g5
tp616
a(S'juice'
p617
S'juice'
p618
S'NN'
p619
S'I-NP'
p620
g5
tp621
a(S'and'
p622
S'and'
p623
S'CC'
p624
g5
g5
tp625
a(S'gastric'
p626
S'gastric'
p627
S'JJ'
p628
S'B-NP'
p629
g5
tp630
a(S'tissue'
p631
S'tissue'
p632
S'NN'
p633
S'I-NP'
p634
g5
tp635
a(S'obtained'
p636
S'obtain'
p637
S'VBN'
p638
S'B-VP'
p639
g5
tp640
a(S'during'
p641
S'during'
p642
S'IN'
p643
S'B-PP'
p644
g5
tp645
a(S'endoscopy'
p646
S'endoscopy'
p647
S'NN'
p648
S'B-NP'
p649
g5
tp650
a(g51
g51
g51
g5
g5
tp651
a(S'RESULTS'
p652
S'RESULTS'
p653
S'NNS'
p654
S'B-NP'
p655
g5
tp656
a(S'The'
p657
S'The'
p658
S'DT'
p659
S'B-NP'
p660
g5
tp661
a(S'proton'
p662
S'proton'
p663
S'NN'
p664
S'I-NP'
p665
g5
tp666
a(S'pump'
p667
S'pump'
p668
S'NN'
p669
S'I-NP'
p670
g5
tp671
a(S'inhibitors'
p672
S'inhibitor'
p673
S'NNS'
p674
S'I-NP'
p675
g5
tp676
a(S'and'
p677
S'and'
p678
S'CC'
p679
g5
g5
tp680
a(S'roxithromycin'
p681
S'roxithromycin'
p682
S'NN'
p683
S'B-NP'
p684
g5
tp685
a(S'did'
p686
S'do'
p687
S'VBD'
p688
S'B-VP'
p689
g5
tp690
a(S'not'
p691
S'not'
p692
S'RB'
p693
S'I-VP'
p694
g5
tp695
a(S'alter'
p696
S'alter'
p697
S'VB'
p698
S'I-VP'
p699
g5
tp700
a(S'the'
p701
S'the'
p702
S'DT'
p703
S'B-NP'
p704
g5
tp705
a(S'blood'
p706
S'blood'
p707
S'NN'
p708
S'I-NP'
p709
g5
tp710
a(S'plasma'
p711
S'plasma'
p712
S'NN'
p713
S'I-NP'
p714
g5
tp715
a(S'pharmacokinetics'
p716
S'pharmacokinetic'
p717
S'NNS'
p718
S'I-NP'
p719
g5
tp720
a(S'of'
p721
S'of'
p722
S'IN'
p723
S'B-PP'
p724
g5
tp725
a(S'each'
p726
S'each'
p727
S'DT'
p728
S'B-NP'
p729
g5
tp730
a(S'other.'
p731
S'other.'
p732
S'NN'
p733
S'I-NP'
p734
g5
tp735
a(S'When'
p736
S'When'
p737
S'WRB'
p738
S'B-ADVP'
p739
g5
tp740
a(S'compared'
p741
S'compare'
p742
S'VBN'
p743
S'B-VP'
p744
g5
tp745
a(S'to'
p746
S'to'
p747
S'TO'
p748
S'B-PP'
p749
g5
tp750
a(S'roxithromycin'
p751
S'roxithromycin'
p752
S'NN'
p753
S'B-NP'
p754
g5
tp755
a(S'administered'
p756
S'administer'
p757
S'VBN'
p758
S'B-VP'
p759
g5
tp760
a(S'alone'
p761
S'alone'
p762
S'RB'
p763
S'B-ADVP'
p764
g5
tp765
a(g395
g395
g395
g5
g5
tp766
a(S'its'
p767
S'its'
p768
S'PRP$'
p769
S'B-NP'
p770
g5
tp771
a(S'combination'
p772
S'combination'
p773
S'NN'
p774
S'I-NP'
p775
g5
tp776
a(S'with'
p777
S'with'
p778
S'IN'
p779
S'B-PP'
p780
g5
tp781
a(g87
g87
S'DT'
p782
S'B-NP'
p783
g5
tp784
a(S'proton'
p785
S'proton'
p786
S'NN'
p787
S'I-NP'
p788
g5
tp789
a(S'pump'
p790
S'pump'
p791
S'NN'
p792
S'I-NP'
p793
g5
tp794
a(S'inhibitor'
p795
S'inhibitor'
p796
S'NN'
p797
S'I-NP'
p798
g5
tp799
a(S'significantly'
p800
S'significantly'
p801
S'RB'
p802
S'B-ADVP'
p803
g5
tp804
a(S'increased'
p805
S'increase'
p806
S'VBD'
p807
S'B-VP'
p808
g5
tp809
a(S'the'
p810
S'the'
p811
S'DT'
p812
S'B-NP'
p813
g5
tp814
a(S'roxithromycin'
p815
S'roxithromycin'
p816
S'NN'
p817
S'I-NP'
p818
g5
tp819
a(S'concentrations'
p820
S'concentration'
p821
S'NNS'
p822
S'I-NP'
p823
g5
tp824
a(S'in'
p825
S'in'
p826
S'IN'
p827
S'B-PP'
p828
g5
tp829
a(S'gastric'
p830
S'gastric'
p831
S'JJ'
p832
S'B-NP'
p833
g5
tp834
a(S'juice'
p835
S'juice'
p836
S'NN'
p837
S'I-NP'
p838
g5
tp839
a(S'('
p840
g840
g840
g5
g5
tp841
a(S'3.0-5.0'
p842
S'3.0-5.0'
p843
S'CD'
p844
S'B-NP'
p845
g5
tp846
a(S'microg/mL'
p847
S'microg/mL'
p848
S'NN'
p849
S'I-NP'
p850
g5
tp851
a(S'vs.'
p852
S'vs.'
p853
S'IN'
p854
S'B-PP'
p855
g5
tp856
a(S'0.3-0.4'
p857
S'0.3-0.4'
p858
S'CD'
p859
S'B-NP'
p860
g5
tp861
a(S'microg/mL'
p862
S'microg/mL'
p863
S'NN'
p864
S'I-NP'
p865
g5
tp866
a(S')'
p867
g867
g867
g5
g5
tp868
a(S'and'
p869
S'and'
p870
S'CC'
p871
g5
g5
tp872
a(S'gastric'
p873
S'gastric'
p874
S'JJ'
p875
S'B-NP'
p876
g5
tp877
a(S'tissue'
p878
S'tissue'
p879
S'NN'
p880
S'I-NP'
p881
g5
tp882
a(g840
g840
g840
g5
g5
tp883
a(S'antrum'
p884
S'antrum'
p885
S'NN'
p886
S'B-NP'
p887
g5
tp888
a(S':'
p889
g889
g889
g5
g5
tp890
a(S'3.8-4.0'
p891
S'3.8-4.0'
p892
S'CD'
p893
S'B-NP'
p894
g5
tp895
a(S'vs.'
p896
S'vs.'
p897
S'IN'
p898
S'B-PP'
p899
g5
tp900
a(S'2.8'
p901
S'2.8'
p902
S'CD'
p903
S'B-NP'
p904
g5
tp905
a(S'microg/g'
p906
S'microg/g'
p907
S'NN'
p908
S'I-NP'
p909
g5
tp910
a(g395
g395
g395
g5
g5
tp911
a(S'fundus'
p912
S'fundus'
p913
S'NN'
p914
S'B-NP'
p915
g5
tp916
a(g889
g889
g889
g5
g5
tp917
a(S'5.9-7.4'
p918
S'5.9-7.4'
p919
S'CD'
p920
S'B-NP'
p921
g5
tp922
a(S'vs.'
p923
S'vs.'
p924
S'IN'
p925
S'B-PP'
p926
g5
tp927
a(S'4.2-4.4'
p928
S'4.2-4.4'
p929
S'CD'
p930
S'B-NP'
p931
g5
tp932
a(S'microg/g'
p933
S'microg/g'
p934
S'NN'
p935
S'I-NP'
p936
g5
tp937
a(g867
g867
g867
g5
g5
tp938
a(g51
g51
g51
g5
g5
tp939
a(S'CONCLUSIONS'
p940
S'CONCLUSIONS'
p941
S'NNS'
p942
S'B-NP'
p943
g5
tp944
a(S'Proton'
p945
S'Proton'
p946
S'NNP'
p947
S'I-NP'
p948
g5
tp949
a(S'pump'
p950
S'pump'
p951
S'NN'
p952
S'I-NP'
p953
g5
tp954
a(S'inhibitors'
p955
S'inhibitor'
p956
S'NNS'
p957
S'I-NP'
p958
g5
tp959
a(S'and'
p960
S'and'
p961
S'CC'
p962
g5
g5
tp963
a(S'roxithromycin'
p964
S'roxithromycin'
p965
S'NN'
p966
S'B-NP'
p967
g5
tp968
a(S'do'
p969
S'do'
p970
S'VBP'
p971
S'B-VP'
p972
g5
tp973
a(S'not'
p974
S'not'
p975
S'RB'
p976
S'I-VP'
p977
g5
tp978
a(S'alter'
p979
S'alter'
p980
S'VB'
p981
S'I-VP'
p982
g5
tp983
a(S'the'
p984
S'the'
p985
S'DT'
p986
S'B-NP'
p987
g5
tp988
a(S'systemic'
p989
S'systemic'
p990
S'JJ'
p991
S'I-NP'
p992
g5
tp993
a(S'bioavailability'
p994
S'bioavailability'
p995
S'NN'
p996
S'I-NP'
p997
g5
tp998
a(S'of'
p999
S'of'
p1000
S'IN'
p1001
S'B-PP'
p1002
g5
tp1003
a(S'each'
p1004
S'each'
p1005
S'DT'
p1006
S'B-NP'
p1007
g5
tp1008
a(S'other.'
p1009
S'other.'
p1010
S'NN'
p1011
S'I-NP'
p1012
g5
tp1013
a(S'However'
p1014
S'However'
p1015
S'RB'
p1016
S'B-ADVP'
p1017
g5
tp1018
a(g395
g395
g395
g5
g5
tp1019
a(S'proton'
p1020
S'proton'
p1021
S'NN'
p1022
S'B-NP'
p1023
g5
tp1024
a(S'pump'
p1025
S'pump'
p1026
S'NN'
p1027
S'I-NP'
p1028
g5
tp1029
a(S'inhibitors'
p1030
S'inhibitor'
p1031
S'NNS'
p1032
S'I-NP'
p1033
g5
tp1034
a(S'increase'
p1035
S'increase'
p1036
S'VBP'
p1037
S'B-VP'
p1038
g5
tp1039
a(S'the'
p1040
S'the'
p1041
S'DT'
p1042
S'B-NP'
p1043
g5
tp1044
a(S'local'
p1045
S'local'
p1046
S'JJ'
p1047
S'I-NP'
p1048
g5
tp1049
a(S'concentration'
p1050
S'concentration'
p1051
S'NN'
p1052
S'I-NP'
p1053
g5
tp1054
a(S'of'
p1055
S'of'
p1056
S'IN'
p1057
S'B-PP'
p1058
g5
tp1059
a(S'roxithromycin'
p1060
S'roxithromycin'
p1061
S'NN'
p1062
S'B-NP'
p1063
g5
tp1064
a(S'in'
p1065
S'in'
p1066
S'IN'
p1067
S'B-PP'
p1068
g5
tp1069
a(S'the'
p1070
S'the'
p1071
S'DT'
p1072
S'B-NP'
p1073
g5
tp1074
a(S'stomach'
p1075
S'stomach'
p1076
S'NN'
p1077
S'I-NP'
p1078
g5
tp1079
a(S'which'
p1080
S'which'
p1081
S'WDT'
p1082
S'B-NP'
p1083
g5
tp1084
a(S'may'
p1085
S'may'
p1086
S'MD'
p1087
S'B-VP'
p1088
g5
tp1089
a(S'contribute'
p1090
S'contribute'
p1091
S'VB'
p1092
S'I-VP'
p1093
g5
tp1094
a(S'to'
p1095
S'to'
p1096
S'TO'
p1097
S'B-PP'
p1098
g5
tp1099
a(S'the'
p1100
S'the'
p1101
S'DT'
p1102
S'B-NP'
p1103
g5
tp1104
a(S'clinically'
p1105
S'clinically'
p1106
S'RB'
p1107
S'I-NP'
p1108
g5
tp1109
a(S'proven'
p1110
S'prove'
p1111
S'VBN'
p1112
S'I-NP'
p1113
g5
tp1114
a(S'synergic'
p1115
S'synergic'
p1116
S'JJ'
p1117
S'I-NP'
p1118
g5
tp1119
a(S'beneficial'
p1120
S'beneficial'
p1121
S'JJ'
p1122
S'I-NP'
p1123
g5
tp1124
a(S'action'
p1125
S'action'
p1126
S'NN'
p1127
S'I-NP'
p1128
g5
tp1129
a(S'in'
p1130
S'in'
p1131
S'IN'
p1132
S'B-PP'
p1133
g5
tp1134
a(S'eradication'
p1135
S'eradication'
p1136
S'NN'
p1137
S'B-NP'
p1138
g5
tp1139
a(S'therapy'
p1140
S'therapy'
p1141
S'NN'
p1142
S'I-NP'
p1143
g5
tp1144
a(S'of'
p1145
S'of'
p1146
S'IN'
p1147
S'B-PP'
p1148
g5
tp1149
a(S'H.'
p1150
S'H.'
p1151
S'NN'
p1152
S'B-NP'
p1153
g5
tp1154
a(S'pylori'
p1155
S'pylori'
p1156
S'NN'
p1157
S'I-NP'
p1158
g5
tp1159
a(g51
g51
g51
g5
g5
tp1160
a.