(lp0
(S'Implementing'
p1
S'Implement'
p2
S'VBG'
p3
S'B-VP'
p4
S'O'
p5
tp6
a(S'a'
p7
g7
S'DT'
p8
S'B-NP'
p9
g5
tp10
a(S'simplified'
p11
S'simplified'
p12
S'JJ'
p13
S'I-NP'
p14
g5
tp15
a(S'neonatal'
p16
S'neonatal'
p17
S'JJ'
p18
S'I-NP'
p19
g5
tp20
a(S'resuscitation'
p21
S'resuscitation'
p22
S'NN'
p23
S'I-NP'
p24
g5
tp25
a(S'protocol-helping'
p26
S'protocol-helping'
p27
S'NN'
p28
S'I-NP'
p29
g5
tp30
a(S'babies'
p31
S'baby'
p32
S'NNS'
p33
S'I-NP'
p34
g5
tp35
a(S'breathe'
p36
S'breathe'
p37
S'VBP'
p38
S'B-VP'
p39
g5
tp40
a(S'at'
p41
S'at'
p42
S'IN'
p43
S'B-PP'
p44
g5
tp45
a(S'birth'
p46
S'birth'
p47
S'NN'
p48
S'B-NP'
p49
g5
tp50
a(S'('
p51
g51
g51
g5
g5
tp52
a(S'HBB'
p53
S'HBB'
p54
S'NN'
p55
S'B-NP'
p56
S'B-protein'
p57
tp58
a(S')'
p59
g59
g59
g5
g5
tp60
a(S'-'
p61
g61
S':'
p62
g5
g5
tp63
a(S'at'
p64
S'at'
p65
S'IN'
p66
S'B-PP'
p67
g5
tp68
a(g7
g7
S'DT'
p69
S'B-NP'
p70
g5
tp71
a(S'tertiary'
p72
S'tertiary'
p73
S'JJ'
p74
S'I-NP'
p75
g5
tp76
a(S'level'
p77
S'level'
p78
S'NN'
p79
S'I-NP'
p80
g5
tp81
a(S'hospital'
p82
S'hospital'
p83
S'NN'
p84
S'I-NP'
p85
g5
tp86
a(S'in'
p87
S'in'
p88
S'IN'
p89
S'B-PP'
p90
g5
tp91
a(S'Nepal'
p92
S'Nepal'
p93
S'NNP'
p94
S'B-NP'
p95
g5
tp96
a(S'for'
p97
S'for'
p98
S'IN'
p99
S'B-PP'
p100
g5
tp101
a(S'an'
p102
S'an'
p103
S'DT'
p104
S'B-NP'
p105
g5
tp106
a(S'increased'
p107
S'increase'
p108
S'VBN'
p109
S'I-NP'
p110
g5
tp111
a(S'perinatal'
p112
S'perinatal'
p113
S'JJ'
p114
S'I-NP'
p115
g5
tp116
a(S'survival'
p117
S'survival'
p118
S'NN'
p119
S'I-NP'
p120
g5
tp121
a(S'.'
p122
g122
g122
g5
g5
tp123
a(S'BACKGROUND'
p124
S'BACKGROUND'
p125
S'NN'
p126
S'B-NP'
p127
g5
tp128
a(S'Reducing'
p129
S'Reduce'
p130
S'VBG'
p131
S'B-VP'
p132
g5
tp133
a(S'neonatal'
p134
S'neonatal'
p135
S'JJ'
p136
S'B-NP'
p137
g5
tp138
a(S'death'
p139
S'death'
p140
S'NN'
p141
S'I-NP'
p142
g5
tp143
a(S'has'
p144
S'have'
p145
S'VBZ'
p146
S'B-VP'
p147
g5
tp148
a(S'been'
p149
S'be'
p150
S'VBN'
p151
S'I-VP'
p152
g5
tp153
a(S'an'
p154
S'an'
p155
S'DT'
p156
S'B-NP'
p157
g5
tp158
a(S'emerging'
p159
S'emerge'
p160
S'VBG'
p161
S'I-NP'
p162
g5
tp163
a(S'challenge'
p164
S'challenge'
p165
S'NN'
p166
S'I-NP'
p167
g5
tp168
a(S'in'
p169
S'in'
p170
S'IN'
p171
S'B-PP'
p172
g5
tp173
a(S'low'
p174
S'low'
p175
S'JJ'
p176
S'B-NP'
p177
g5
tp178
a(S'and'
p179
S'and'
p180
S'CC'
p181
S'I-NP'
p182
g5
tp183
a(S'middle'
p184
S'middle'
p185
S'JJ'
p186
S'I-NP'
p187
g5
tp188
a(S'income'
p189
S'income'
p190
S'NN'
p191
S'I-NP'
p192
g5
tp193
a(S'countries'
p194
S'country'
p195
S'NNS'
p196
S'I-NP'
p197
g5
tp198
a(S'in'
p199
S'in'
p200
S'IN'
p201
S'B-PP'
p202
g5
tp203
a(S'the'
p204
S'the'
p205
S'DT'
p206
S'B-NP'
p207
g5
tp208
a(S'past'
p209
S'past'
p210
S'JJ'
p211
S'I-NP'
p212
g5
tp213
a(S'decade.'
p214
S'decade.'
p215
S'NN'
p216
S'I-NP'
p217
g5
tp218
a(S'The'
p219
S'The'
p220
S'DT'
p221
S'B-NP'
p222
g5
tp223
a(S'development'
p224
S'development'
p225
S'NN'
p226
S'I-NP'
p227
g5
tp228
a(S'of'
p229
S'of'
p230
S'IN'
p231
S'B-PP'
p232
g5
tp233
a(S'the'
p234
S'the'
p235
S'DT'
p236
S'B-NP'
p237
g5
tp238
a(S'low'
p239
S'low'
p240
S'JJ'
p241
S'I-NP'
p242
g5
tp243
a(S'cost'
p244
S'cost'
p245
S'NN'
p246
S'I-NP'
p247
g5
tp248
a(S'interventions'
p249
S'intervention'
p250
S'NNS'
p251
S'I-NP'
p252
g5
tp253
a(S'and'
p254
S'and'
p255
S'CC'
p256
g5
g5
tp257
a(S'their'
p258
S'their'
p259
S'PRP$'
p260
S'B-NP'
p261
g5
tp262
a(S'effective'
p263
S'effective'
p264
S'JJ'
p265
S'I-NP'
p266
g5
tp267
a(S'delivery'
p268
S'delivery'
p269
S'NN'
p270
S'I-NP'
p271
g5
tp272
a(S'are'
p273
S'be'
p274
S'VBP'
p275
S'B-VP'
p276
g5
tp277
a(S'needed'
p278
S'need'
p279
S'VBN'
p280
S'I-VP'
p281
g5
tp282
a(S'to'
p283
S'to'
p284
S'TO'
p285
S'B-VP'
p286
g5
tp287
a(S'reduce'
p288
S'reduce'
p289
S'VB'
p290
S'I-VP'
p291
g5
tp292
a(S'deaths'
p293
S'death'
p294
S'NNS'
p295
S'B-NP'
p296
g5
tp297
a(S'from'
p298
S'from'
p299
S'IN'
p300
S'B-PP'
p301
g5
tp302
a(S'birth'
p303
S'birth'
p304
S'NN'
p305
S'B-NP'
p306
g5
tp307
a(S'asphyxia.'
p308
S'asphyxia.'
p309
S'RB'
p310
S'B-ADVP'
p311
g5
tp312
a(S'This'
p313
S'This'
p314
S'DT'
p315
S'B-NP'
p316
g5
tp317
a(S'study'
p318
S'study'
p319
S'NN'
p320
S'I-NP'
p321
g5
tp322
a(S'will'
p323
S'will'
p324
S'MD'
p325
S'B-VP'
p326
g5
tp327
a(S'assess'
p328
S'assess'
p329
S'VB'
p330
S'I-VP'
p331
g5
tp332
a(S'the'
p333
S'the'
p334
S'DT'
p335
S'B-NP'
p336
g5
tp337
a(S'impact'
p338
S'impact'
p339
S'NN'
p340
S'I-NP'
p341
g5
tp342
a(S'of'
p343
S'of'
p344
S'IN'
p345
S'B-PP'
p346
g5
tp347
a(g7
g7
S'DT'
p348
S'B-NP'
p349
g5
tp350
a(S'simplified'
p351
S'simplified'
p352
S'JJ'
p353
S'I-NP'
p354
g5
tp355
a(S'neonatal'
p356
S'neonatal'
p357
S'JJ'
p358
S'I-NP'
p359
g5
tp360
a(S'resuscitation'
p361
S'resuscitation'
p362
S'NN'
p363
S'I-NP'
p364
g5
tp365
a(S'protocol'
p366
S'protocol'
p367
S'NN'
p368
S'I-NP'
p369
g5
tp370
a(S'provided'
p371
S'provide'
p372
S'VBN'
p373
S'B-VP'
p374
g5
tp375
a(S'by'
p376
S'by'
p377
S'IN'
p378
S'B-PP'
p379
g5
tp380
a(S'Helping'
p381
S'Helping'
p382
S'NNP'
p383
S'B-NP'
p384
g5
tp385
a(S'Babies'
p386
S'Babies'
p387
S'NNP'
p388
S'I-NP'
p389
g5
tp390
a(S'Breathe'
p391
S'Breathe'
p392
S'NNP'
p393
S'I-NP'
p394
g5
tp395
a(g51
g51
g51
g5
g5
tp396
a(S'HBB'
p397
S'HBB'
p398
S'NNP'
p399
S'B-NP'
p400
g5
tp401
a(g59
g59
g59
g5
g5
tp402
a(S'at'
p403
S'at'
p404
S'IN'
p405
S'B-PP'
p406
g5
tp407
a(g7
g7
S'DT'
p408
S'B-NP'
p409
g5
tp410
a(S'tertiary'
p411
S'tertiary'
p412
S'JJ'
p413
S'I-NP'
p414
g5
tp415
a(S'hospital'
p416
S'hospital'
p417
S'NN'
p418
S'I-NP'
p419
g5
tp420
a(S'in'
p421
S'in'
p422
S'IN'
p423
S'B-PP'
p424
g5
tp425
a(S'Nepal.'
p426
S'Nepal.'
p427
S'NNP'
p428
S'B-NP'
p429
g5
tp430
a(S'Perinatal'
p431
S'Perinatal'
p432
S'NNP'
p433
S'I-NP'
p434
g5
tp435
a(S'outcomes'
p436
S'outcome'
p437
S'VBZ'
p438
S'B-VP'
p439
g5
tp440
a(S'and'
p441
S'and'
p442
S'CC'
p443
g5
g5
tp444
a(S'performance'
p445
S'performance'
p446
S'NN'
p447
S'B-NP'
p448
g5
tp449
a(S'of'
p450
S'of'
p451
S'IN'
p452
S'B-PP'
p453
g5
tp454
a(S'skilled'
p455
S'skilled'
p456
S'JJ'
p457
S'B-NP'
p458
g5
tp459
a(S'birth'
p460
S'birth'
p461
S'NN'
p462
S'I-NP'
p463
g5
tp464
a(S'attendants'
p465
S'attendant'
p466
S'NNS'
p467
S'I-NP'
p468
g5
tp469
a(S'on'
p470
S'on'
p471
S'IN'
p472
S'B-PP'
p473
g5
tp474
a(S'management'
p475
S'management'
p476
S'NN'
p477
S'B-NP'
p478
g5
tp479
a(S'of'
p480
S'of'
p481
S'IN'
p482
S'B-PP'
p483
g5
tp484
a(S'intrapartum-related'
p485
S'intrapartum-related'
p486
S'JJ'
p487
S'B-NP'
p488
g5
tp489
a(S'neonatal'
p490
S'neonatal'
p491
S'JJ'
p492
S'I-NP'
p493
g5
tp494
a(S'hypoxia'
p495
S'hypoxia'
p496
S'NN'
p497
S'I-NP'
p498
g5
tp499
a(S'will'
p500
S'will'
p501
S'MD'
p502
S'B-VP'
p503
g5
tp504
a(S'be'
p505
S'be'
p506
S'VB'
p507
S'I-VP'
p508
g5
tp509
a(S'the'
p510
S'the'
p511
S'DT'
p512
S'B-NP'
p513
g5
tp514
a(S'main'
p515
S'main'
p516
S'JJ'
p517
S'I-NP'
p518
g5
tp519
a(S'measurements'
p520
S'measurement'
p521
S'NNS'
p522
S'I-NP'
p523
g5
tp524
a(g122
g122
g122
g5
g5
tp525
a(S'METHODS/DESIGN'
p526
S'METHODS/DESIGN'
p527
S'PDT'
p528
S'B-NP'
p529
g5
tp530
a(S'The'
p531
S'The'
p532
S'DT'
p533
S'I-NP'
p534
g5
tp535
a(S'study'
p536
S'study'
p537
S'NN'
p538
S'I-NP'
p539
g5
tp540
a(S'will'
p541
S'will'
p542
S'MD'
p543
S'B-VP'
p544
g5
tp545
a(S'be'
p546
S'be'
p547
S'VB'
p548
S'I-VP'
p549
g5
tp550
a(S'carried'
p551
S'carry'
p552
S'VBN'
p553
S'I-VP'
p554
g5
tp555
a(S'out'
p556
S'out'
p557
S'RP'
p558
S'B-PRT'
p559
g5
tp560
a(S'at'
p561
S'at'
p562
S'IN'
p563
S'B-PP'
p564
g5
tp565
a(g7
g7
S'DT'
p566
S'B-NP'
p567
g5
tp568
a(S'tertiary'
p569
S'tertiary'
p570
S'JJ'
p571
S'I-NP'
p572
g5
tp573
a(S'level'
p574
S'level'
p575
S'NN'
p576
S'I-NP'
p577
g5
tp578
a(S'maternity'
p579
S'maternity'
p580
S'NN'
p581
S'I-NP'
p582
g5
tp583
a(S'hospital'
p584
S'hospital'
p585
S'NN'
p586
S'I-NP'
p587
g5
tp588
a(S'in'
p589
S'in'
p590
S'IN'
p591
S'B-PP'
p592
g5
tp593
a(S'Nepal.'
p594
S'Nepal.'
p595
S'NNP'
p596
S'B-NP'
p597
g5
tp598
a(S'A'
p599
g599
S'NNP'
p600
S'I-NP'
p601
g5
tp602
a(S'prospective'
p603
S'prospective'
p604
S'JJ'
p605
S'I-NP'
p606
g5
tp607
a(S'cohort-study'
p608
S'cohort-study'
p609
S'NN'
p610
S'I-NP'
p611
g5
tp612
a(S'will'
p613
S'will'
p614
S'MD'
p615
S'B-VP'
p616
g5
tp617
a(S'include'
p618
S'include'
p619
S'VB'
p620
S'I-VP'
p621
g5
tp622
a(g7
g7
S'DT'
p623
S'B-NP'
p624
g5
tp625
a(S'six-month'
p626
S'six-month'
p627
S'JJ'
p628
S'I-NP'
p629
g5
tp630
a(S'baseline'
p631
S'baseline'
p632
S'NN'
p633
S'I-NP'
p634
g5
tp635
a(g7
g7
S'DT'
p636
S'B-NP'
p637
g5
tp638
a(S'six'
p639
S'six'
p640
S'CD'
p641
S'I-NP'
p642
g5
tp643
a(S'month'
p644
S'month'
p645
S'NN'
p646
S'I-NP'
p647
g5
tp648
a(S'intervention'
p649
S'intervention'
p650
S'NN'
p651
S'I-NP'
p652
g5
tp653
a(S'period'
p654
S'period'
p655
S'NN'
p656
S'I-NP'
p657
g5
tp658
a(S'and'
p659
S'and'
p660
S'CC'
p661
g5
g5
tp662
a(g7
g7
S'DT'
p663
S'B-NP'
p664
g5
tp665
a(S'three-month'
p666
S'three-month'
p667
S'JJ'
p668
S'I-NP'
p669
g5
tp670
a(S'post'
p671
S'post'
p672
S'NN'
p673
S'I-NP'
p674
g5
tp675
a(S'intervention'
p676
S'intervention'
p677
S'NN'
p678
S'I-NP'
p679
g5
tp680
a(S'period.'
p681
S'period.'
p682
S'NN'
p683
S'I-NP'
p684
g5
tp685
a(g599
g599
S'NN'
p686
S'I-NP'
p687
g5
tp688
a(S'quality'
p689
S'quality'
p690
S'NN'
p691
S'I-NP'
p692
g5
tp693
a(S'improvement'
p694
S'improvement'
p695
S'NN'
p696
S'I-NP'
p697
g5
tp698
a(S'process'
p699
S'process'
p700
S'NN'
p701
S'I-NP'
p702
g5
tp703
a(S'cycle'
p704
S'cycle'
p705
S'NN'
p706
S'I-NP'
p707
g5
tp708
a(S'will'
p709
S'will'
p710
S'MD'
p711
S'B-VP'
p712
g5
tp713
a(S'introduce'
p714
S'introduce'
p715
S'VB'
p716
S'I-VP'
p717
g5
tp718
a(S'the'
p719
S'the'
p720
S'DT'
p721
S'B-NP'
p722
g5
tp723
a(S'neonatal'
p724
S'neonatal'
p725
S'JJ'
p726
S'I-NP'
p727
g5
tp728
a(S'resuscitation'
p729
S'resuscitation'
p730
S'NN'
p731
S'I-NP'
p732
g5
tp733
a(S'protocol.'
p734
S'protocol.'
p735
S'NN'
p736
S'I-NP'
p737
g5
tp738
a(g599
g599
S'NN'
p739
S'I-NP'
p740
g5
tp741
a(S'surveillance'
p742
S'surveillance'
p743
S'NN'
p744
S'I-NP'
p745
g5
tp746
a(S'system'
p747
S'system'
p748
S'NN'
p749
S'I-NP'
p750
g5
tp751
a(S','
p752
g752
g752
g5
g5
tp753
a(S'including'
p754
S'include'
p755
S'VBG'
p756
S'B-PP'
p757
g5
tp758
a(S'CCD'
p759
S'CCD'
p760
S'NN'
p761
S'B-NP'
p762
S'B-protein'
p763
tp764
a(S'cameras'
p765
S'camera'
p766
S'NNS'
p767
S'I-NP'
p768
S'I-protein'
p769
tp770
a(S'and'
p771
S'and'
p772
S'CC'
p773
g5
g5
tp774
a(S'pulse'
p775
S'pulse'
p776
S'NN'
p777
S'B-NP'
p778
g5
tp779
a(S'oximeters'
p780
S'oximeter'
p781
S'NNS'
p782
S'I-NP'
p783
g5
tp784
a(g752
g752
g752
g5
g5
tp785
a(S'will'
p786
S'will'
p787
S'MD'
p788
S'B-VP'
p789
g5
tp790
a(S'be'
p791
S'be'
p792
S'VB'
p793
S'I-VP'
p794
g5
tp795
a(S'set'
p796
S'set'
p797
S'VBN'
p798
S'I-VP'
p799
g5
tp800
a(S'up'
p801
S'up'
p802
S'RP'
p803
S'B-PRT'
p804
g5
tp805
a(S'to'
p806
S'to'
p807
S'TO'
p808
S'B-VP'
p809
g5
tp810
a(S'evaluate'
p811
S'evaluate'
p812
S'VB'
p813
S'I-VP'
p814
g5
tp815
a(S'the'
p816
S'the'
p817
S'DT'
p818
S'B-NP'
p819
g5
tp820
a(S'intervention'
p821
S'intervention'
p822
S'NN'
p823
S'I-NP'
p824
g5
tp825
a(g122
g122
g122
g5
g5
tp826
a(S'DISCUSSION'
p827
S'DISCUSSION'
p828
S'NN'
p829
S'B-NP'
p830
g5
tp831
a(S'Along'
p832
S'Along'
p833
S'IN'
p834
S'B-ADVP'
p835
g5
tp836
a(S'with'
p837
S'with'
p838
S'IN'
p839
S'B-PP'
p840
g5
tp841
a(g7
g7
S'DT'
p842
S'B-NP'
p843
g5
tp844
a(S'technique'
p845
S'technique'
p846
S'NN'
p847
S'I-NP'
p848
g5
tp849
a(S'to'
p850
S'to'
p851
S'TO'
p852
S'B-VP'
p853
g5
tp854
a(S'improve'
p855
S'improve'
p856
S'VB'
p857
S'I-VP'
p858
g5
tp859
a(S'health'
p860
S'health'
p861
S'NN'
p862
S'B-NP'
p863
g5
tp864
a(S'workers'
p865
S'worker'
p866
S'NNS'
p867
S'I-NP'
p868
g5
tp869
a(S'performance'
p870
S'performance'
p871
S'NN'
p872
S'I-NP'
p873
g5
tp874
a(S'on'
p875
S'on'
p876
S'IN'
p877
S'B-PP'
p878
g5
tp879
a(S'the'
p880
S'the'
p881
S'DT'
p882
S'B-NP'
p883
g5
tp884
a(S'protocol'
p885
S'protocol'
p886
S'NN'
p887
S'I-NP'
p888
g5
tp889
a(g752
g752
g752
g5
g5
tp890
a(S'the'
p891
S'the'
p892
S'DT'
p893
S'B-NP'
p894
g5
tp895
a(S'study'
p896
S'study'
p897
S'NN'
p898
S'I-NP'
p899
g5
tp900
a(S'will'
p901
S'will'
p902
S'MD'
p903
S'B-VP'
p904
g5
tp905
a(S'generate'
p906
S'generate'
p907
S'VB'
p908
S'I-VP'
p909
g5
tp910
a(S'evidence'
p911
S'evidence'
p912
S'NN'
p913
S'B-NP'
p914
g5
tp915
a(S'on'
p916
S'on'
p917
S'IN'
p918
S'B-PP'
p919
g5
tp920
a(S'the'
p921
S'the'
p922
S'DT'
p923
S'B-NP'
p924
g5
tp925
a(S'research'
p926
S'research'
p927
S'NN'
p928
S'I-NP'
p929
g5
tp930
a(S'gap'
p931
S'gap'
p932
S'NN'
p933
S'I-NP'
p934
g5
tp935
a(S'on'
p936
S'on'
p937
S'IN'
p938
S'B-PP'
p939
g5
tp940
a(S'the'
p941
S'the'
p942
S'DT'
p943
S'B-NP'
p944
g5
tp945
a(S'effectiveness'
p946
S'effectiveness'
p947
S'NN'
p948
S'I-NP'
p949
g5
tp950
a(S'of'
p951
S'of'
p952
S'IN'
p953
S'B-PP'
p954
g5
tp955
a(S'the'
p956
S'the'
p957
S'DT'
p958
S'B-NP'
p959
g5
tp960
a(S'simplified'
p961
S'simplified'
p962
S'JJ'
p963
S'I-NP'
p964
g5
tp965
a(S'neonatal'
p966
S'neonatal'
p967
S'JJ'
p968
S'I-NP'
p969
g5
tp970
a(S'resuscitation'
p971
S'resuscitation'
p972
S'NN'
p973
S'I-NP'
p974
g5
tp975
a(S'protocol'
p976
S'protocol'
p977
S'NN'
p978
S'I-NP'
p979
g5
tp980
a(S'on'
p981
S'on'
p982
S'IN'
p983
S'B-PP'
p984
g5
tp985
a(S'intrapartum'
p986
S'intrapartum'
p987
S'JJ'
p988
S'B-NP'
p989
g5
tp990
a(S'outcome'
p991
S'outcome'
p992
S'NN'
p993
S'I-NP'
p994
g5
tp995
a(S'and'
p996
S'and'
p997
S'CC'
p998
g5
g5
tp999
a(S'early'
p1000
S'early'
p1001
S'JJ'
p1002
S'B-NP'
p1003
g5
tp1004
a(S'neonatal'
p1005
S'neonatal'
p1006
S'JJ'
p1007
S'I-NP'
p1008
g5
tp1009
a(S'survival.'
p1010
S'survival.'
p1011
S'NN'
p1012
S'I-NP'
p1013
g5
tp1014
a(S'This'
p1015
S'This'
p1016
S'DT'
p1017
S'B-NP'
p1018
g5
tp1019
a(S'will'
p1020
S'will'
p1021
S'MD'
p1022
S'B-VP'
p1023
g5
tp1024
a(S'generate'
p1025
S'generate'
p1026
S'VB'
p1027
S'I-VP'
p1028
g5
tp1029
a(g7
g7
S'DT'
p1030
S'B-NP'
p1031
g5
tp1032
a(S'global'
p1033
S'global'
p1034
S'JJ'
p1035
S'I-NP'
p1036
g5
tp1037
a(S'interest'
p1038
S'interest'
p1039
S'NN'
p1040
S'I-NP'
p1041
g5
tp1042
a(S'and'
p1043
S'and'
p1044
S'CC'
p1045
S'I-NP'
p1046
g5
tp1047
a(S'inform'
p1048
S'inform'
p1049
S'NN'
p1050
S'I-NP'
p1051
g5
tp1052
a(S'policymaking'
p1053
S'policymaking'
p1054
S'NN'
p1055
S'I-NP'
p1056
g5
tp1057
a(S'in'
p1058
S'in'
p1059
S'IN'
p1060
S'B-PP'
p1061
g5
tp1062
a(S'relation'
p1063
S'relation'
p1064
S'NN'
p1065
S'B-NP'
p1066
g5
tp1067
a(S'to'
p1068
S'to'
p1069
S'TO'
p1070
S'B-PP'
p1071
g5
tp1072
a(S'delivery'
p1073
S'delivery'
p1074
S'NN'
p1075
S'B-NP'
p1076
g5
tp1077
a(S'care'
p1078
S'care'
p1079
S'NN'
p1080
S'I-NP'
p1081
g5
tp1082
a(S'in'
p1083
S'in'
p1084
S'IN'
p1085
S'B-PP'
p1086
g5
tp1087
a(S'all'
p1088
S'all'
p1089
S'DT'
p1090
S'B-NP'
p1091
g5
tp1092
a(S'income'
p1093
S'income'
p1094
S'NN'
p1095
S'I-NP'
p1096
g5
tp1097
a(S'settings'
p1098
S'setting'
p1099
S'NNS'
p1100
S'I-NP'
p1101
g5
tp1102
a(g122
g122
g122
g5
g5
tp1103
a(S'TRIAL'
p1104
S'TRIAL'
p1105
S'NN'
p1106
S'B-NP'
p1107
g5
tp1108
a(S'REGISTRATION'
p1109
S'REGISTRATION'
p1110
S'NN'
p1111
S'I-NP'
p1112
g5
tp1113
a(S'ISRCTN97846009'
p1114
S'ISRCTN97846009'
p1115
S'NN'
p1116
S'I-NP'
p1117
g5
tp1118
a(g122
g122
g122
g5
g5
tp1119
a.