(lp0
(S'Multicyclic'
p1
S'Multicyclic'
p2
S'JJ'
p3
S'B-NP'
p4
S'O'
p5
tp6
a(S','
p7
g7
g7
S'I-NP'
p8
g5
tp9
a(S'dose-intensive'
p10
S'dose-intensive'
p11
S'JJ'
p12
S'I-NP'
p13
g5
tp14
a(S'chemotherapy'
p15
S'chemotherapy'
p16
S'NN'
p17
S'I-NP'
p18
g5
tp19
a(S'supported'
p20
S'support'
p21
S'VBN'
p22
S'B-VP'
p23
g5
tp24
a(S'by'
p25
S'by'
p26
S'IN'
p27
S'B-PP'
p28
g5
tp29
a(S'sequential'
p30
S'sequential'
p31
S'JJ'
p32
S'B-NP'
p33
g5
tp34
a(S'reinfusion'
p35
S'reinfusion'
p36
S'NN'
p37
S'I-NP'
p38
g5
tp39
a(S'of'
p40
S'of'
p41
S'IN'
p42
S'B-PP'
p43
g5
tp44
a(S'hematopoietic'
p45
S'hematopoietic'
p46
S'JJ'
p47
S'B-NP'
p48
S'B-cell_type'
p49
tp50
a(S'progenitors'
p51
S'progenitor'
p52
S'NNS'
p53
S'I-NP'
p54
S'I-cell_type'
p55
tp56
a(S'in'
p57
S'in'
p58
S'IN'
p59
S'B-PP'
p60
g5
tp61
a(S'whole'
p62
S'whole'
p63
S'JJ'
p64
S'B-NP'
p65
g5
tp66
a(S'blood'
p67
S'blood'
p68
S'NN'
p69
S'I-NP'
p70
g5
tp71
a(S'.'
p72
g72
g72
g5
g5
tp73
a(S'PURPOSE'
p74
S'PURPOSE'
p75
S'NN'
p76
S'B-NP'
p77
g5
tp78
a(S'To'
p79
S'To'
p80
S'TO'
p81
S'B-VP'
p82
g5
tp83
a(S'support'
p84
S'support'
p85
S'VB'
p86
S'I-VP'
p87
g5
tp88
a(S'multicyclic'
p89
S'multicyclic'
p90
S'JJ'
p91
S'B-NP'
p92
g5
tp93
a(g7
g7
g7
S'I-NP'
p94
g5
tp95
a(S'dose-intensive'
p96
S'dose-intensive'
p97
S'JJ'
p98
S'I-NP'
p99
g5
tp100
a(S'chemotherapy'
p101
S'chemotherapy'
p102
S'NN'
p103
S'I-NP'
p104
g5
tp105
a(g7
g7
g7
g5
g5
tp106
a(S'we'
p107
S'we'
p108
S'PRP'
p109
S'B-NP'
p110
g5
tp111
a(S'assessed'
p112
S'assess'
p113
S'VBD'
p114
S'B-VP'
p115
g5
tp116
a(S'the'
p117
S'the'
p118
S'DT'
p119
S'B-NP'
p120
g5
tp121
a(S'effects'
p122
S'effect'
p123
S'NNS'
p124
S'I-NP'
p125
g5
tp126
a(S'of'
p127
S'of'
p128
S'IN'
p129
S'B-PP'
p130
g5
tp131
a(S'reinfusing'
p132
S'reinfuse'
p133
S'VBG'
p134
S'B-VP'
p135
g5
tp136
a(S'hematopoietic'
p137
S'hematopoietic'
p138
S'JJ'
p139
S'B-NP'
p140
S'B-cell_type'
p141
tp142
a(S'progenitors'
p143
S'progenitor'
p144
S'NNS'
p145
S'I-NP'
p146
S'I-cell_type'
p147
tp148
a(S'collected'
p149
S'collect'
p150
S'VBN'
p151
S'B-VP'
p152
g5
tp153
a(S'at'
p154
S'at'
p155
S'IN'
p156
S'B-PP'
p157
g5
tp158
a(S'each'
p159
S'each'
p160
S'DT'
p161
S'B-NP'
p162
g5
tp163
a(S'cycle'
p164
S'cycle'
p165
S'NN'
p166
S'I-NP'
p167
g5
tp168
a(S'in'
p169
S'in'
p170
S'IN'
p171
S'B-PP'
p172
g5
tp173
a(S'leukapheresis'
p174
S'leukapheresis'
p175
S'NN'
p176
S'B-NP'
p177
g5
tp178
a(S'product'
p179
S'product'
p180
S'NN'
p181
S'I-NP'
p182
g5
tp183
a(S'or'
p184
S'or'
p185
S'CC'
p186
g5
g5
tp187
a(S'whole'
p188
S'whole'
p189
S'JJ'
p190
S'B-NP'
p191
g5
tp192
a(S'blood'
p193
S'blood'
p194
S'NN'
p195
S'I-NP'
p196
g5
tp197
a(g72
g72
g72
g5
g5
tp198
a(S'PATIENTS'
p199
S'PATIENTS'
p200
S'NNS'
p201
S'B-NP'
p202
g5
tp203
a(S'AND'
p204
S'AND'
p205
S'CC'
p206
S'I-NP'
p207
g5
tp208
a(S'METHODS'
p209
S'METHODS'
p210
S'NNS'
p211
S'I-NP'
p212
g5
tp213
a(S'Twenty-five'
p214
S'Twenty-five'
p215
S'CD'
p216
S'B-NP'
p217
g5
tp218
a(S'patients'
p219
S'patient'
p220
S'NNS'
p221
S'I-NP'
p222
g5
tp223
a(S'with'
p224
S'with'
p225
S'IN'
p226
S'B-PP'
p227
g5
tp228
a(S'small-cell'
p229
S'small-cell'
p230
S'JJ'
p231
S'B-NP'
p232
g5
tp233
a(S'lung'
p234
S'lung'
p235
S'NN'
p236
S'I-NP'
p237
g5
tp238
a(S'cancer'
p239
S'cancer'
p240
S'NN'
p241
S'I-NP'
p242
g5
tp243
a(S'('
p244
g244
g244
g5
g5
tp245
a(S'SCLC'
p246
S'SCLC'
p247
S'NN'
p248
S'B-NP'
p249
S'B-protein'
p250
tp251
a(S')'
p252
g252
g252
g5
g5
tp253
a(S'were'
p254
S'be'
p255
S'VBD'
p256
S'B-VP'
p257
g5
tp258
a(S'treated'
p259
S'treat'
p260
S'VBN'
p261
S'I-VP'
p262
g5
tp263
a(S'with'
p264
S'with'
p265
S'IN'
p266
S'B-PP'
p267
g5
tp268
a(S'six'
p269
S'six'
p270
S'CD'
p271
S'B-NP'
p272
g5
tp273
a(S'cycles'
p274
S'cycle'
p275
S'NNS'
p276
S'I-NP'
p277
g5
tp278
a(S'of'
p279
S'of'
p280
S'IN'
p281
S'B-PP'
p282
g5
tp283
a(S'ifosfamide'
p284
S'ifosfamide'
p285
S'NN'
p286
S'B-NP'
p287
g5
tp288
a(g7
g7
g7
g5
g5
tp289
a(S'carboplatin'
p290
S'carboplatin'
p291
S'NN'
p292
S'B-NP'
p293
S'B-protein'
p294
tp295
a(g7
g7
g7
g5
g5
tp296
a(S'and'
p297
S'and'
p298
S'CC'
p299
g5
g5
tp300
a(S'etoposide'
p301
S'etoposide'
p302
S'NN'
p303
S'B-NP'
p304
g5
tp305
a(g244
g244
g244
g5
g5
tp306
a(S'ICE'
p307
S'ICE'
p308
S'NN'
p309
S'B-NP'
p310
S'B-protein'
p311
tp312
a(g252
g252
g252
g5
g5
tp313
a(S'with'
p314
S'with'
p315
S'IN'
p316
S'B-PP'
p317
g5
tp318
a(S'granulocyte'
p319
S'granulocyte'
p320
S'NN'
p321
S'B-NP'
p322
S'B-protein'
p323
tp324
a(S'colony-stimulating'
p325
S'colony-stimulating'
p326
S'JJ'
p327
S'I-NP'
p328
S'I-protein'
p329
tp330
a(S'factor'
p331
S'factor'
p332
S'NN'
p333
S'I-NP'
p334
S'I-protein'
p335
tp336
a(g244
g244
g244
g5
g5
tp337
a(S'G-CSF'
p338
S'G-CSF'
p339
S'NN'
p340
S'B-NP'
p341
S'B-protein'
p342
tp343
a(g252
g252
g252
g5
g5
tp344
a(S'300'
p345
S'300'
p346
S'CD'
p347
S'B-NP'
p348
g5
tp349
a(S'micrograms/d'
p350
S'micrograms/d'
p351
S'NN'
p352
S'I-NP'
p353
g5
tp354
a(S'subcutaneously'
p355
S'subcutaneously'
p356
S'RB'
p357
S'B-ADVP'
p358
g5
tp359
a(g244
g244
g244
g5
g5
tp360
a(S'SC'
p361
S'SC'
p362
S'NN'
p363
S'B-NP'
p364
g5
tp365
a(g252
g252
g252
g5
g5
tp366
a(S'on'
p367
S'on'
p368
S'IN'
p369
S'B-PP'
p370
g5
tp371
a(S'days'
p372
S'day'
p373
S'NNS'
p374
S'B-NP'
p375
g5
tp376
a(S'4'
p377
g377
S'CD'
p378
S'B-NP'
p379
g5
tp380
a(S'to'
p381
S'to'
p382
S'TO'
p383
S'B-PP'
p384
g5
tp385
a(S'15.'
p386
S'15.'
p387
S'CD'
p388
S'B-NP'
p389
g5
tp390
a(S'Hematopoietic'
p391
S'Hematopoietic'
p392
S'JJ'
p393
S'I-NP'
p394
S'B-cell_type'
p395
tp396
a(S'progenitors'
p397
S'progenitor'
p398
S'NNS'
p399
S'I-NP'
p400
S'I-cell_type'
p401
tp402
a(S'collected'
p403
S'collect'
p404
S'VBN'
p405
S'B-VP'
p406
g5
tp407
a(S'during'
p408
S'during'
p409
S'IN'
p410
S'B-PP'
p411
g5
tp412
a(S'each'
p413
S'each'
p414
S'DT'
p415
S'B-NP'
p416
g5
tp417
a(S'cycle'
p418
S'cycle'
p419
S'NN'
p420
S'I-NP'
p421
g5
tp422
a(S'were'
p423
S'be'
p424
S'VBD'
p425
S'B-VP'
p426
g5
tp427
a(S'reinfused'
p428
S'reinfuse'
p429
S'VBN'
p430
S'I-VP'
p431
g5
tp432
a(S'on'
p433
S'on'
p434
S'IN'
p435
S'B-PP'
p436
g5
tp437
a(S'day'
p438
S'day'
p439
S'NN'
p440
S'B-NP'
p441
g5
tp442
a(S'3'
p443
g443
S'CD'
p444
S'I-NP'
p445
g5
tp446
a(S'of'
p447
S'of'
p448
S'IN'
p449
S'B-PP'
p450
g5
tp451
a(S'the'
p452
S'the'
p453
S'DT'
p454
S'B-NP'
p455
g5
tp456
a(S'next'
p457
S'next'
p458
S'JJ'
p459
S'I-NP'
p460
g5
tp461
a(S'cycle.'
p462
S'cycle.'
p463
S'NN'
p464
S'I-NP'
p465
g5
tp466
a(S'Cohort'
p467
S'Cohort'
p468
S'NNP'
p469
S'B-NP'
p470
g5
tp471
a(S'1'
p472
g472
S'CD'
p473
S'I-NP'
p474
g5
tp475
a(g244
g244
g244
g5
g5
tp476
a(S'n'
p477
g477
S'NN'
p478
S'B-NP'
p479
g5
tp480
a(S'='
p481
g481
S'SYM'
p482
S'B-VP'
p483
g5
tp484
a(S'6'
p485
g485
S'CD'
p486
S'B-NP'
p487
g5
tp488
a(g252
g252
g252
g5
g5
tp489
a(S'was'
p490
S'be'
p491
S'VBD'
p492
S'B-VP'
p493
g5
tp494
a(S'treated'
p495
S'treat'
p496
S'VBN'
p497
S'I-VP'
p498
g5
tp499
a(S'every'
p500
S'every'
p501
S'DT'
p502
S'B-NP'
p503
g5
tp504
a(g443
g443
S'CD'
p505
S'I-NP'
p506
g5
tp507
a(S'weeks'
p508
S'week'
p509
S'NNS'
p510
S'I-NP'
p511
g5
tp512
a(g7
g7
g7
g5
g5
tp513
a(S'with'
p514
S'with'
p515
S'IN'
p516
S'B-PP'
p517
g5
tp518
a(S'leukapheresis'
p519
S'leukapheresis'
p520
S'NN'
p521
S'B-NP'
p522
g5
tp523
a(S'after'
p524
S'after'
p525
S'IN'
p526
S'B-PP'
p527
g5
tp528
a(S'2'
p529
g529
S'CD'
p530
S'B-NP'
p531
g5
tp532
a(S'weeks'
p533
S'week'
p534
S'NNS'
p535
S'I-NP'
p536
g5
tp537
a(S'and'
p538
S'and'
p539
S'CC'
p540
g5
g5
tp541
a(S'cryopreservation'
p542
S'cryopreservation'
p543
S'NN'
p544
S'B-NP'
p545
g5
tp546
a(S'of'
p547
S'of'
p548
S'IN'
p549
S'B-PP'
p550
g5
tp551
a(S'the'
p552
S'the'
p553
S'DT'
p554
S'B-NP'
p555
g5
tp556
a(S'leukapheresis'
p557
S'leukapheresis'
p558
S'NN'
p559
S'I-NP'
p560
g5
tp561
a(S'product.'
p562
S'product.'
p563
S'NN'
p564
S'I-NP'
p565
g5
tp566
a(S'Chemotherapy'
p567
S'Chemotherapy'
p568
S'NN'
p569
S'I-NP'
p570
g5
tp571
a(S'was'
p572
S'be'
p573
S'VBD'
p574
S'B-VP'
p575
g5
tp576
a(S'given'
p577
S'give'
p578
S'VBN'
p579
S'I-VP'
p580
g5
tp581
a(S'if'
p582
S'if'
p583
S'IN'
p584
S'B-SBAR'
p585
g5
tp586
a(S'the'
p587
S'the'
p588
S'DT'
p589
S'B-NP'
p590
g5
tp591
a(S'WBC'
p592
S'WBC'
p593
S'NNP'
p594
S'I-NP'
p595
g5
tp596
a(S'count'
p597
S'count'
p598
S'NN'
p599
S'I-NP'
p600
g5
tp601
a(S'was'
p602
S'be'
p603
S'VBD'
p604
S'B-VP'
p605
g5
tp606
a(S'>'
p607
g607
S'SYM'
p608
S'B-ADJP'
p609
g5
tp610
a(S'or'
p611
S'or'
p612
S'CC'
p613
g5
g5
tp614
a(g481
g481
S'SYM'
p615
S'B-VP'
p616
g5
tp617
a(g443
g443
S'CD'
p618
S'B-NP'
p619
g5
tp620
a(S'x'
p621
g621
S'SYM'
p622
S'B-NP'
p623
g5
tp624
a(S'10'
p625
S'10'
p626
S'CD'
p627
S'I-NP'
p628
g5
tp629
a(g244
g244
g244
g5
g5
tp630
a(S'9'
p631
g631
S'CD'
p632
S'B-NP'
p633
g5
tp634
a(g252
g252
g252
g5
g5
tp635
a(S'/L'
p636
S'/L'
p637
S'NN'
p638
S'B-NP'
p639
g5
tp640
a(S'and'
p641
S'and'
p642
S'CC'
p643
S'I-NP'
p644
g5
tp645
a(S'platelet'
p646
S'platelet'
p647
S'NN'
p648
S'I-NP'
p649
g5
tp650
a(S'count'
p651
S'count'
p652
S'NN'
p653
S'I-NP'
p654
g5
tp655
a(g607
g607
S'SYM'
p656
S'B-VP'
p657
g5
tp658
a(S'or'
p659
S'or'
p660
S'CC'
p661
g5
g5
tp662
a(g481
g481
S'SYM'
p663
S'B-VP'
p664
g5
tp665
a(S'100'
p666
S'100'
p667
S'CD'
p668
S'B-NP'
p669
g5
tp670
a(g621
g621
S'SYM'
p671
S'B-NP'
p672
g5
tp673
a(S'10'
p674
S'10'
p675
S'CD'
p676
S'I-NP'
p677
g5
tp678
a(g244
g244
g244
g5
g5
tp679
a(g631
g631
S'CD'
p680
S'B-NP'
p681
g5
tp682
a(g252
g252
g252
g5
g5
tp683
a(S'/L.'
p684
S'/L.'
p685
S'NNP'
p686
S'B-NP'
p687
S'B-protein'
p688
tp689
a(S'Cohort'
p690
S'Cohort'
p691
S'NNP'
p692
S'I-NP'
p693
S'I-protein'
p694
tp695
a(g529
g529
S'CD'
p696
S'I-NP'
p697
S'I-protein'
p698
tp699
a(g244
g244
g244
g5
g5
tp700
a(g477
g477
S'NN'
p701
S'B-NP'
p702
g5
tp703
a(g481
g481
S'SYM'
p704
S'B-VP'
p705
g5
tp706
a(S'7'
p707
g707
S'CD'
p708
S'B-NP'
p709
g5
tp710
a(g252
g252
g252
g5
g5
tp711
a(S'was'
p712
S'be'
p713
S'VBD'
p714
S'B-VP'
p715
g5
tp716
a(S'treated'
p717
S'treat'
p718
S'VBN'
p719
S'I-VP'
p720
g5
tp721
a(S'every'
p722
S'every'
p723
S'DT'
p724
S'B-NP'
p725
g5
tp726
a(g529
g529
S'CD'
p727
S'I-NP'
p728
g5
tp729
a(S'weeks'
p730
S'week'
p731
S'NNS'
p732
S'I-NP'
p733
g5
tp734
a(g7
g7
g7
g5
g5
tp735
a(S'with'
p736
S'with'
p737
S'IN'
p738
S'B-PP'
p739
g5
tp740
a(S'leukapheresis'
p741
S'leukapheresis'
p742
S'NN'
p743
S'B-NP'
p744
g5
tp745
a(S'on'
p746
S'on'
p747
S'IN'
p748
S'B-PP'
p749
g5
tp750
a(S'day'
p751
S'day'
p752
S'NN'
p753
S'B-NP'
p754
g5
tp755
a(g472
g472
S'CD'
p756
S'I-NP'
p757
g5
tp758
a(S'of'
p759
S'of'
p760
S'IN'
p761
S'B-PP'
p762
g5
tp763
a(S'the'
p764
S'the'
p765
S'DT'
p766
S'B-NP'
p767
g5
tp768
a(S'next'
p769
S'next'
p770
S'JJ'
p771
S'I-NP'
p772
g5
tp773
a(S'cycle'
p774
S'cycle'
p775
S'NN'
p776
S'I-NP'
p777
g5
tp778
a(S'and'
p779
S'and'
p780
S'CC'
p781
S'I-NP'
p782
g5
tp783
a(S'storage'
p784
S'storage'
p785
S'NN'
p786
S'I-NP'
p787
g5
tp788
a(S'of'
p789
S'of'
p790
S'IN'
p791
S'B-PP'
p792
g5
tp793
a(S'the'
p794
S'the'
p795
S'DT'
p796
S'B-NP'
p797
g5
tp798
a(S'leukapheresis'
p799
S'leukapheresis'
p800
S'NN'
p801
S'I-NP'
p802
S'B-protein'
p803
tp804
a(S'product'
p805
S'product'
p806
S'NN'
p807
S'I-NP'
p808
S'I-protein'
p809
tp810
a(S'at'
p811
S'at'
p812
S'IN'
p813
S'B-PP'
p814
g5
tp815
a(g377
g377
S'CD'
p816
S'B-NP'
p817
g5
tp818
a(S'degrees'
p819
S'degree'
p820
S'NNS'
p821
S'I-NP'
p822
g5
tp823
a(S'C.'
p824
S'C.'
p825
S'NNP'
p826
S'B-NP'
p827
g5
tp828
a(S'Cohort'
p829
S'Cohort'
p830
S'NNP'
p831
S'I-NP'
p832
g5
tp833
a(g443
g443
S'CD'
p834
S'I-NP'
p835
g5
tp836
a(g244
g244
g244
g5
g5
tp837
a(g477
g477
S'NN'
p838
S'B-NP'
p839
g5
tp840
a(g481
g481
S'SYM'
p841
S'B-VP'
p842
g5
tp843
a(S'12'
p844
S'12'
p845
S'CD'
p846
S'B-NP'
p847
g5
tp848
a(g252
g252
g252
g5
g5
tp849
a(S'was'
p850
S'be'
p851
S'VBD'
p852
S'B-VP'
p853
g5
tp854
a(S'treated'
p855
S'treat'
p856
S'VBN'
p857
S'I-VP'
p858
g5
tp859
a(S'every'
p860
S'every'
p861
S'DT'
p862
S'B-NP'
p863
g5
tp864
a(g529
g529
S'CD'
p865
S'I-NP'
p866
g5
tp867
a(S'weeks'
p868
S'week'
p869
S'NNS'
p870
S'I-NP'
p871
g5
tp872
a(g7
g7
g7
g5
g5
tp873
a(S'with'
p874
S'with'
p875
S'IN'
p876
S'B-PP'
p877
g5
tp878
a(S'500'
p879
S'500'
p880
S'CD'
p881
S'B-NP'
p882
g5
tp883
a(S'to'
p884
S'to'
p885
S'TO'
p886
S'B-PP'
p887
g5
tp888
a(S'750'
p889
S'750'
p890
S'CD'
p891
S'B-NP'
p892
g5
tp893
a(S'mL'
p894
S'mL'
p895
S'NN'
p896
S'I-NP'
p897
g5
tp898
a(S'of'
p899
S'of'
p900
S'IN'
p901
S'B-PP'
p902
g5
tp903
a(S'blood'
p904
S'blood'
p905
S'NN'
p906
S'B-NP'
p907
g5
tp908
a(S'drawn'
p909
S'draw'
p910
S'VBN'
p911
S'B-VP'
p912
g5
tp913
a(S'by'
p914
S'by'
p915
S'IN'
p916
S'B-PP'
p917
g5
tp918
a(S'venesection'
p919
S'venesection'
p920
S'NN'
p921
S'B-NP'
p922
g5
tp923
a(S'on'
p924
S'on'
p925
S'IN'
p926
S'B-PP'
p927
g5
tp928
a(S'day'
p929
S'day'
p930
S'NN'
p931
S'B-NP'
p932
g5
tp933
a(g472
g472
S'CD'
p934
S'I-NP'
p935
g5
tp936
a(S'of'
p937
S'of'
p938
S'IN'
p939
S'B-PP'
p940
g5
tp941
a(S'the'
p942
S'the'
p943
S'DT'
p944
S'B-NP'
p945
g5
tp946
a(S'next'
p947
S'next'
p948
S'JJ'
p949
S'I-NP'
p950
g5
tp951
a(S'cycle'
p952
S'cycle'
p953
S'NN'
p954
S'I-NP'
p955
g5
tp956
a(S'and'
p957
S'and'
p958
S'CC'
p959
g5
g5
tp960
a(S'stored'
p961
S'store'
p962
S'VBN'
p963
S'B-VP'
p964
g5
tp965
a(S'at'
p966
S'at'
p967
S'IN'
p968
S'B-PP'
p969
g5
tp970
a(g377
g377
S'CD'
p971
S'B-NP'
p972
g5
tp973
a(S'degrees'
p974
S'degree'
p975
S'NNS'
p976
S'I-NP'
p977
g5
tp978
a(S'C.'
p979
S'C.'
p980
S'FW'
p981
S'B-PP'
p982
g5
tp983
a(S'In'
p984
S'In'
p985
S'IN'
p986
S'B-PP'
p987
g5
tp988
a(S'cohorts'
p989
S'cohort'
p990
S'NNS'
p991
S'B-NP'
p992
g5
tp993
a(g529
g529
S'CD'
p994
S'B-NP'
p995
g5
tp996
a(S'and'
p997
S'and'
p998
S'CC'
p999
S'I-NP'
p1000
g5
tp1001
a(g443
g443
S'CD'
p1002
S'I-NP'
p1003
g5
tp1004
a(g7
g7
g7
g5
g5
tp1005
a(S'chemotherapy'
p1006
S'chemotherapy'
p1007
S'NN'
p1008
S'B-NP'
p1009
g5
tp1010
a(S'was'
p1011
S'be'
p1012
S'VBD'
p1013
S'B-VP'
p1014
g5
tp1015
a(S'given'
p1016
S'give'
p1017
S'VBN'
p1018
S'I-VP'
p1019
g5
tp1020
a(S'if'
p1021
S'if'
p1022
S'IN'
p1023
S'B-SBAR'
p1024
g5
tp1025
a(S'the'
p1026
S'the'
p1027
S'DT'
p1028
S'B-NP'
p1029
g5
tp1030
a(S'WBC'
p1031
S'WBC'
p1032
S'NNP'
p1033
S'I-NP'
p1034
g5
tp1035
a(S'count'
p1036
S'count'
p1037
S'NN'
p1038
S'I-NP'
p1039
g5
tp1040
a(S'was'
p1041
S'be'
p1042
S'VBD'
p1043
S'B-VP'
p1044
g5
tp1045
a(g607
g607
S'SYM'
p1046
S'B-ADJP'
p1047
g5
tp1048
a(S'or'
p1049
S'or'
p1050
S'CC'
p1051
g5
g5
tp1052
a(g481
g481
S'SYM'
p1053
S'B-VP'
p1054
g5
tp1055
a(g443
g443
S'CD'
p1056
S'B-NP'
p1057
g5
tp1058
a(g621
g621
S'SYM'
p1059
S'B-NP'
p1060
g5
tp1061
a(S'10'
p1062
S'10'
p1063
S'CD'
p1064
S'I-NP'
p1065
g5
tp1066
a(g244
g244
g244
g5
g5
tp1067
a(g631
g631
S'CD'
p1068
S'B-NP'
p1069
g5
tp1070
a(g252
g252
g252
g5
g5
tp1071
a(S'/L'
p1072
S'/L'
p1073
S'NN'
p1074
S'B-NP'
p1075
g5
tp1076
a(S'and'
p1077
S'and'
p1078
S'CC'
p1079
S'I-NP'
p1080
g5
tp1081
a(S'platelet'
p1082
S'platelet'
p1083
S'NN'
p1084
S'I-NP'
p1085
g5
tp1086
a(S'count'
p1087
S'count'
p1088
S'NN'
p1089
S'I-NP'
p1090
g5
tp1091
a(g607
g607
S'SYM'
p1092
S'B-VP'
p1093
g5
tp1094
a(S'or'
p1095
S'or'
p1096
S'CC'
p1097
g5
g5
tp1098
a(g481
g481
S'SYM'
p1099
S'B-VP'
p1100
g5
tp1101
a(S'30'
p1102
S'30'
p1103
S'CD'
p1104
S'B-NP'
p1105
g5
tp1106
a(g621
g621
S'SYM'
p1107
g5
g5
tp1108
a(S'10'
p1109
S'10'
p1110
S'CD'
p1111
S'B-NP'
p1112
g5
tp1113
a(g244
g244
g244
g5
g5
tp1114
a(g631
g631
S'CD'
p1115
S'B-NP'
p1116
g5
tp1117
a(g252
g252
g252
g5
g5
tp1118
a(S'/L.'
p1119
S'/L.'
p1120
S'NNP'
p1121
S'B-NP'
p1122
g5
tp1123
a(S'Blood'
p1124
S'Blood'
p1125
S'NN'
p1126
S'I-NP'
p1127
g5
tp1128
a(S'and'
p1129
S'and'
p1130
S'CC'
p1131
S'I-NP'
p1132
g5
tp1133
a(S'leukapheresis'
p1134
S'leukapheresis'
p1135
S'NN'
p1136
S'I-NP'
p1137
S'B-protein'
p1138
tp1139
a(S'products'
p1140
S'product'
p1141
S'NNS'
p1142
S'I-NP'
p1143
S'I-protein'
p1144
tp1145
a(S'were'
p1146
S'be'
p1147
S'VBD'
p1148
S'B-VP'
p1149
g5
tp1150
a(S'assayed'
p1151
S'assay'
p1152
S'VBN'
p1153
S'I-VP'
p1154
g5
tp1155
a(S'for'
p1156
S'for'
p1157
S'IN'
p1158
S'B-PP'
p1159
g5
tp1160
a(S'hematopoietic'
p1161
S'hematopoietic'
p1162
S'JJ'
p1163
S'B-NP'
p1164
S'B-cell_type'
p1165
tp1166
a(S'progenitors'
p1167
S'progenitor'
p1168
S'NNS'
p1169
S'I-NP'
p1170
S'I-cell_type'
p1171
tp1172
a(g72
g72
g72
g5
g5
tp1173
a(S'RESULTS'
p1174
S'RESULTS'
p1175
S'NNS'
p1176
S'B-NP'
p1177
g5
tp1178
a(S'ICE'
p1179
S'ICE'
p1180
S'NN'
p1181
S'I-NP'
p1182
g5
tp1183
a(S'chemotherapy'
p1184
S'chemotherapy'
p1185
S'NN'
p1186
S'I-NP'
p1187
g5
tp1188
a(S'with'
p1189
S'with'
p1190
S'IN'
p1191
S'B-PP'
p1192
g5
tp1193
a(S'G-CSF'
p1194
S'G-CSF'
p1195
S'NN'
p1196
S'B-NP'
p1197
S'B-protein'
p1198
tp1199
a(S'was'
p1200
S'be'
p1201
S'VBD'
p1202
S'B-VP'
p1203
g5
tp1204
a(S'effective'
p1205
S'effective'
p1206
S'JJ'
p1207
S'B-ADJP'
p1208
g5
tp1209
a(S'in'
p1210
S'in'
p1211
S'IN'
p1212
S'B-PP'
p1213
g5
tp1214
a(S'mobilizing'
p1215
S'mobilize'
p1216
S'VBG'
p1217
S'B-VP'
p1218
S'B-cell_type'
p1219
tp1220
a(S'blood'
p1221
S'blood'
p1222
S'NN'
p1223
S'B-NP'
p1224
S'I-cell_type'
p1225
tp1226
a(S'progenitors'
p1227
S'progenitor'
p1228
S'NNS'
p1229
S'I-NP'
p1230
S'I-cell_type'
p1231
tp1232
a(g244
g244
g244
g5
g5
tp1233
a(S'median'
p1234
S'median'
p1235
S'NN'
p1236
S'B-NP'
p1237
g5
tp1238
a(g7
g7
g7
g5
g5
tp1239
a(S'120-fold'
p1240
S'120-fold'
p1241
S'RB'
p1242
S'B-ADVP'
p1243
g5
tp1244
a(g252
g252
g252
g5
g5
tp1245
a(g72
g72
g72
g5
g5
tp1246
a(S'Long-term'
p1247
S'Long-term'
p1248
S'JJ'
p1249
S'B-NP'
p1250
S'B-cell_line'
p1251
tp1252
a(S'cultures'
p1253
S'culture'
p1254
S'NNS'
p1255
S'I-NP'
p1256
S'I-cell_line'
p1257
tp1258
a(S'showed'
p1259
S'show'
p1260
S'VBD'
p1261
S'B-VP'
p1262
g5
tp1263
a(S'no'
p1264
S'no'
p1265
S'DT'
p1266
S'B-NP'
p1267
g5
tp1268
a(S'evidence'
p1269
S'evidence'
p1270
S'NN'
p1271
S'I-NP'
p1272
g5
tp1273
a(S'of'
p1274
S'of'
p1275
S'IN'
p1276
S'B-PP'
p1277
g5
tp1278
a(S'stem-cell'
p1279
S'stem-cell'
p1280
S'NN'
p1281
S'B-NP'
p1282
g5
tp1283
a(S'depletion.'
p1284
S'depletion.'
p1285
S'NN'
p1286
S'I-NP'
p1287
g5
tp1288
a(S'The'
p1289
S'The'
p1290
S'DT'
p1291
S'B-NP'
p1292
g5
tp1293
a(S'cytotoxic'
p1294
S'cytotoxic'
p1295
S'JJ'
p1296
S'I-NP'
p1297
g5
tp1298
a(S'dose-intensity'
p1299
S'dose-intensity'
p1300
S'NN'
p1301
S'I-NP'
p1302
g5
tp1303
a(S'of'
p1304
S'of'
p1305
S'IN'
p1306
S'B-PP'
p1307
g5
tp1308
a(S'standard'
p1309
S'standard'
p1310
S'JJ'
p1311
S'B-NP'
p1312
g5
tp1313
a(S'every-4-weeks'
p1314
S'every-4-week'
p1315
S'NNS'
p1316
S'I-NP'
p1317
g5
tp1318
a(S'ICE'
p1319
S'ICE'
p1320
S'NN'
p1321
S'I-NP'
p1322
S'B-protein'
p1323
tp1324
a(S'is'
p1325
S'be'
p1326
S'VBZ'
p1327
S'B-VP'
p1328
g5
tp1329
a(S'100'
p1330
S'100'
p1331
S'CD'
p1332
S'B-NP'
p1333
g5
tp1334
a(S'%'
p1335
g1335
S'NN'
p1336
S'I-NP'
p1337
g5
tp1338
a(g72
g72
g72
g5
g5
tp1339
a(S'In'
p1340
S'In'
p1341
S'IN'
p1342
S'B-PP'
p1343
g5
tp1344
a(S'the'
p1345
S'the'
p1346
S'DT'
p1347
S'B-NP'
p1348
g5
tp1349
a(S'first'
p1350
S'first'
p1351
S'JJ'
p1352
S'I-NP'
p1353
g5
tp1354
a(S'three'
p1355
S'three'
p1356
S'CD'
p1357
S'I-NP'
p1358
g5
tp1359
a(S'cycles'
p1360
S'cycle'
p1361
S'NNS'
p1362
S'I-NP'
p1363
g5
tp1364
a(g7
g7
g7
g5
g5
tp1365
a(S'it'
p1366
S'it'
p1367
S'PRP'
p1368
S'B-NP'
p1369
g5
tp1370
a(S'was'
p1371
S'be'
p1372
S'VBD'
p1373
S'B-VP'
p1374
g5
tp1375
a(S'134'
p1376
S'134'
p1377
S'CD'
p1378
S'B-NP'
p1379
g5
tp1380
a(g1335
g1335
S'NN'
p1381
S'I-NP'
p1382
g5
tp1383
a(g244
g244
g244
g5
g5
tp1384
a(S'median'
p1385
S'median'
p1386
S'NN'
p1387
S'B-NP'
p1388
g5
tp1389
a(g252
g252
g252
g5
g5
tp1390
a(S'in'
p1391
S'in'
p1392
S'IN'
p1393
S'B-PP'
p1394
g5
tp1395
a(S'cohort'
p1396
S'cohort'
p1397
S'JJ'
p1398
S'B-NP'
p1399
g5
tp1400
a(g472
g472
S'CD'
p1401
S'I-NP'
p1402
g5
tp1403
a(S'and'
p1404
S'and'
p1405
S'CC'
p1406
S'I-NP'
p1407
g5
tp1408
a(S'200'
p1409
S'200'
p1410
S'CD'
p1411
S'I-NP'
p1412
g5
tp1413
a(g1335
g1335
S'NN'
p1414
S'I-NP'
p1415
g5
tp1416
a(S'in'
p1417
S'in'
p1418
S'IN'
p1419
S'B-PP'
p1420
g5
tp1421
a(S'cohorts'
p1422
S'cohort'
p1423
S'NNS'
p1424
S'B-NP'
p1425
g5
tp1426
a(g529
g529
S'CD'
p1427
S'B-NP'
p1428
g5
tp1429
a(S'and'
p1430
S'and'
p1431
S'CC'
p1432
S'I-NP'
p1433
g5
tp1434
a(g443
g443
S'CD'
p1435
S'I-NP'
p1436
g5
tp1437
a(g244
g244
g244
g5
g5
tp1438
a(S'P'
p1439
g1439
S'NN'
p1440
S'B-NP'
p1441
g5
tp1442
a(S'<'
p1443
g1443
S'JJR'
p1444
S'B-NP'
p1445
g5
tp1446
a(S'.0001'
p1447
S'.0001'
p1448
S'CD'
p1449
S'I-NP'
p1450
g5
tp1451
a(g252
g252
g252
g5
g5
tp1452
a(g72
g72
g72
g5
g5
tp1453
a(S'Toxicity'
p1454
S'Toxicity'
p1455
S'NN'
p1456
S'B-NP'
p1457
g5
tp1458
a(S'and'
p1459
S'and'
p1460
S'CC'
p1461
g5
g5
tp1462
a(S'supportive'
p1463
S'supportive'
p1464
S'JJ'
p1465
S'B-NP'
p1466
g5
tp1467
a(S'care'
p1468
S'care'
p1469
S'NN'
p1470
S'I-NP'
p1471
g5
tp1472
a(S'requirements'
p1473
S'requirement'
p1474
S'NNS'
p1475
S'I-NP'
p1476
g5
tp1477
a(S'were'
p1478
S'be'
p1479
S'VBD'
p1480
S'B-VP'
p1481
g5
tp1482
a(S'not'
p1483
S'not'
p1484
S'RB'
p1485
S'I-VP'
p1486
g5
tp1487
a(S'increased'
p1488
S'increase'
p1489
S'VBN'
p1490
S'I-VP'
p1491
g5
tp1492
a(g72
g72
g72
g5
g5
tp1493
a(S'CONCLUSION'
p1494
S'CONCLUSION'
p1495
S'NN'
p1496
S'B-NP'
p1497
g5
tp1498
a(S'The'
p1499
S'The'
p1500
S'DT'
p1501
S'B-NP'
p1502
g5
tp1503
a(S'dose-intensity'
p1504
S'dose-intensity'
p1505
S'NN'
p1506
S'I-NP'
p1507
g5
tp1508
a(S'of'
p1509
S'of'
p1510
S'IN'
p1511
S'B-PP'
p1512
g5
tp1513
a(S'ICE'
p1514
S'ICE'
p1515
S'NN'
p1516
S'B-NP'
p1517
g5
tp1518
a(S'chemotherapy'
p1519
S'chemotherapy'
p1520
S'NN'
p1521
S'I-NP'
p1522
g5
tp1523
a(S'can'
p1524
S'can'
p1525
S'MD'
p1526
S'B-VP'
p1527
g5
tp1528
a(S'be'
p1529
S'be'
p1530
S'VB'
p1531
S'I-VP'
p1532
g5
tp1533
a(S'doubled'
p1534
S'double'
p1535
S'VBN'
p1536
S'I-VP'
p1537
g5
tp1538
a(S'by'
p1539
S'by'
p1540
S'IN'
p1541
S'B-PP'
p1542
g5
tp1543
a(S'reinfusing'
p1544
S'reinfuse'
p1545
S'VBG'
p1546
S'B-VP'
p1547
g5
tp1548
a(S'hematopoietic'
p1549
S'hematopoietic'
p1550
S'JJ'
p1551
S'B-NP'
p1552
S'B-cell_type'
p1553
tp1554
a(S'progenitors'
p1555
S'progenitor'
p1556
S'NNS'
p1557
S'I-NP'
p1558
S'I-cell_type'
p1559
tp1560
a(S'collected'
p1561
S'collect'
p1562
S'VBN'
p1563
S'B-VP'
p1564
g5
tp1565
a(S'by'
p1566
S'by'
p1567
S'IN'
p1568
S'B-PP'
p1569
g5
tp1570
a(S'leukapheresis'
p1571
S'leukapheresis'
p1572
S'NN'
p1573
S'B-NP'
p1574
g5
tp1575
a(S'or'
p1576
S'or'
p1577
S'CC'
p1578
S'I-NP'
p1579
g5
tp1580
a(S'venesection'
p1581
S'venesection'
p1582
S'NN'
p1583
S'I-NP'
p1584
g5
tp1585
a(S'and'
p1586
S'and'
p1587
S'CC'
p1588
g5
g5
tp1589
a(S'stored'
p1590
S'store'
p1591
S'VBN'
p1592
S'B-VP'
p1593
g5
tp1594
a(S'at'
p1595
S'at'
p1596
S'IN'
p1597
S'B-PP'
p1598
g5
tp1599
a(g377
g377
S'CD'
p1600
S'B-NP'
p1601
g5
tp1602
a(S'degrees'
p1603
S'degree'
p1604
S'NNS'
p1605
S'I-NP'
p1606
g5
tp1607
a(S'C'
p1608
g1608
S'JJ'
p1609
S'B-ADJP'
p1610
g5
tp1611
a(g72
g72
g72
g5
g5
tp1612
a.