(lp0
(S'Association'
p1
S'Association'
p2
S'NN'
p3
S'B-NP'
p4
S'O'
p5
tp6
a(S'of'
p7
S'of'
p8
S'IN'
p9
S'B-PP'
p10
g5
tp11
a(S'race'
p12
S'race'
p13
S'NN'
p14
S'B-NP'
p15
g5
tp16
a(S'with'
p17
S'with'
p18
S'IN'
p19
S'B-PP'
p20
g5
tp21
a(S'complications'
p22
S'complication'
p23
S'NNS'
p24
S'B-NP'
p25
g5
tp26
a(S'and'
p27
S'and'
p28
S'CC'
p29
g5
g5
tp30
a(S'prognosis'
p31
S'prognosis'
p32
S'NN'
p33
S'B-NP'
p34
g5
tp35
a(S'following'
p36
S'follow'
p37
S'VBG'
p38
S'B-PP'
p39
g5
tp40
a(S'acute'
p41
S'acute'
p42
S'JJ'
p43
S'B-NP'
p44
g5
tp45
a(S'coronary'
p46
S'coronary'
p47
S'JJ'
p48
S'I-NP'
p49
g5
tp50
a(S'syndromes'
p51
S'syndrome'
p52
S'NNS'
p53
S'I-NP'
p54
g5
tp55
a(S'.'
p56
g56
g56
g5
g5
tp57
a(S'The'
p58
S'The'
p59
S'DT'
p60
S'B-NP'
p61
g5
tp62
a(S'baseline'
p63
S'baseline'
p64
S'NN'
p65
S'I-NP'
p66
g5
tp67
a(S'characteristics'
p68
S'characteristic'
p69
S'NNS'
p70
S'I-NP'
p71
g5
tp72
a(S','
p73
g73
g73
g5
g5
tp74
a(S'complications'
p75
S'complication'
p76
S'NNS'
p77
S'B-NP'
p78
g5
tp79
a(g73
g73
g73
g5
g5
tp80
a(S'and'
p81
S'and'
p82
S'CC'
p83
g5
g5
tp84
a(S'survival'
p85
S'survival'
p86
S'NN'
p87
S'B-NP'
p88
g5
tp89
a(S'of'
p90
S'of'
p91
S'IN'
p92
S'B-PP'
p93
g5
tp94
a(S'489'
p95
S'489'
p96
S'CD'
p97
S'B-NP'
p98
g5
tp99
a(S'black'
p100
S'black'
p101
S'JJ'
p102
S'I-NP'
p103
g5
tp104
a(S'and'
p105
S'and'
p106
S'CC'
p107
S'I-NP'
p108
g5
tp109
a(S'6'
p110
g110
S'CD'
p111
S'I-NP'
p112
g5
tp113
a(g73
g73
g73
S'I-NP'
p114
g5
tp115
a(S'890'
p116
S'890'
p117
S'CD'
p118
S'I-NP'
p119
g5
tp120
a(S'non-black'
p121
S'non-black'
p122
S'JJ'
p123
S'I-NP'
p124
g5
tp125
a(S'patients'
p126
S'patient'
p127
S'NNS'
p128
S'I-NP'
p129
g5
tp130
a(S'with'
p131
S'with'
p132
S'IN'
p133
S'B-PP'
p134
g5
tp135
a(S'acute'
p136
S'acute'
p137
S'JJ'
p138
S'B-NP'
p139
g5
tp140
a(S'coronary'
p141
S'coronary'
p142
S'JJ'
p143
S'I-NP'
p144
g5
tp145
a(S'syndromes'
p146
S'syndrome'
p147
S'NNS'
p148
S'I-NP'
p149
g5
tp150
a(S'were'
p151
S'be'
p152
S'VBD'
p153
S'B-VP'
p154
g5
tp155
a(S'studied.'
p156
S'studied.'
p157
S'VBN'
p158
S'I-VP'
p159
g5
tp160
a(S'Important'
p161
S'Important'
p162
S'JJ'
p163
S'B-NP'
p164
g5
tp165
a(S'racial'
p166
S'racial'
p167
S'JJ'
p168
S'I-NP'
p169
g5
tp170
a(S'differences'
p171
S'difference'
p172
S'NNS'
p173
S'I-NP'
p174
g5
tp175
a(S'were'
p176
S'be'
p177
S'VBD'
p178
S'B-VP'
p179
g5
tp180
a(S'observed'
p181
S'observe'
p182
S'VBN'
p183
S'I-VP'
p184
g5
tp185
a(S'in'
p186
S'in'
p187
S'IN'
p188
S'B-PP'
p189
g5
tp190
a(S'demographic'
p191
S'demographic'
p192
S'JJ'
p193
S'B-NP'
p194
g5
tp195
a(S'features'
p196
S'feature'
p197
S'NNS'
p198
S'I-NP'
p199
g5
tp200
a(g73
g73
g73
g5
g5
tp201
a(S'atherosclerosis'
p202
S'atherosclerosis'
p203
S'NN'
p204
S'B-NP'
p205
g5
tp206
a(S'risk'
p207
S'risk'
p208
S'NN'
p209
S'I-NP'
p210
g5
tp211
a(S'factors'
p212
S'factor'
p213
S'NNS'
p214
S'I-NP'
p215
g5
tp216
a(g73
g73
g73
g5
g5
tp217
a(S'and'
p218
S'and'
p219
S'CC'
p220
g5
g5
tp221
a(S'treatment'
p222
S'treatment'
p223
S'NN'
p224
S'B-NP'
p225
g5
tp226
a(S'strategies'
p227
S'strategy'
p228
S'NNS'
p229
S'I-NP'
p230
g5
tp231
a(S';'
p232
g232
S':'
p233
g5
g5
tp234
a(S'however'
p235
S'however'
p236
S'RB'
p237
g5
g5
tp238
a(g73
g73
g73
g5
g5
tp239
a(S'despite'
p240
S'despite'
p241
S'IN'
p242
S'B-PP'
p243
g5
tp244
a(S'these'
p245
S'these'
p246
S'DT'
p247
S'B-NP'
p248
g5
tp249
a(S'differences'
p250
S'difference'
p251
S'NNS'
p252
S'I-NP'
p253
g5
tp254
a(g73
g73
g73
g5
g5
tp255
a(S'no'
p256
S'no'
p257
S'DT'
p258
S'B-NP'
p259
g5
tp260
a(S'independent'
p261
S'independent'
p262
S'JJ'
p263
S'I-NP'
p264
g5
tp265
a(S'difference'
p266
S'difference'
p267
S'NN'
p268
S'I-NP'
p269
g5
tp270
a(S'was'
p271
S'be'
p272
S'VBD'
p273
S'B-VP'
p274
g5
tp275
a(S'observed'
p276
S'observe'
p277
S'VBN'
p278
S'I-VP'
p279
g5
tp280
a(S'in'
p281
S'in'
p282
S'IN'
p283
S'B-PP'
p284
g5
tp285
a(S'clinical'
p286
S'clinical'
p287
S'JJ'
p288
S'B-NP'
p289
g5
tp290
a(S'outcomes'
p291
S'outcome'
p292
S'NNS'
p293
S'I-NP'
p294
g5
tp295
a(S'according'
p296
S'accord'
p297
S'VBG'
p298
S'B-PP'
p299
g5
tp300
a(S'to'
p301
S'to'
p302
S'TO'
p303
S'B-VP'
p304
g5
tp305
a(S'race.'
p306
S'race.'
p307
S'VB'
p308
S'I-VP'
p309
g5
tp310
a(S'The'
p311
S'The'
p312
S'DT'
p313
S'B-NP'
p314
g5
tp315
a(S'1-year'
p316
S'1-year'
p317
S'JJ'
p318
S'I-NP'
p319
g5
tp320
a(S'mortality'
p321
S'mortality'
p322
S'NN'
p323
S'I-NP'
p324
g5
tp325
a(S'rate'
p326
S'rate'
p327
S'NN'
p328
S'I-NP'
p329
g5
tp330
a(S'was'
p331
S'be'
p332
S'VBD'
p333
S'B-VP'
p334
g5
tp335
a(S'2.9'
p336
S'2.9'
p337
S'CD'
p338
S'B-NP'
p339
g5
tp340
a(S'%'
p341
g341
S'NN'
p342
S'I-NP'
p343
g5
tp344
a(S'for'
p345
S'for'
p346
S'IN'
p347
S'B-PP'
p348
g5
tp349
a(S'black'
p350
S'black'
p351
S'JJ'
p352
S'B-NP'
p353
g5
tp354
a(S'patients'
p355
S'patient'
p356
S'NNS'
p357
S'I-NP'
p358
g5
tp359
a(S'and'
p360
S'and'
p361
S'CC'
p362
g5
g5
tp363
a(S'2.5'
p364
S'2.5'
p365
S'CD'
p366
S'B-NP'
p367
g5
tp368
a(g341
g341
S'NN'
p369
S'I-NP'
p370
g5
tp371
a(S'for'
p372
S'for'
p373
S'IN'
p374
S'B-PP'
p375
g5
tp376
a(S'non-black'
p377
S'non-black'
p378
S'JJ'
p379
S'B-NP'
p380
g5
tp381
a(S'patients'
p382
S'patient'
p383
S'NNS'
p384
S'I-NP'
p385
g5
tp386
a(S'('
p387
g387
g387
g5
g5
tp388
a(S'p'
p389
g389
S'NN'
p390
S'B-NP'
p391
g5
tp392
a(S'='
p393
g393
S'SYM'
p394
S'B-VP'
p395
g5
tp396
a(S'0.93'
p397
S'0.93'
p398
S'CD'
p399
S'B-NP'
p400
g5
tp401
a(S')'
p402
g402
g402
g5
g5
tp403
a(g56
g56
g56
g5
g5
tp404
a.