(lp0
(S'Action'
p1
S'Action'
p2
S'NN'
p3
S'B-NP'
p4
S'O'
p5
tp6
a(S'observation'
p7
S'observation'
p8
S'NN'
p9
S'I-NP'
p10
g5
tp11
a(S'treatment'
p12
S'treatment'
p13
S'NN'
p14
S'I-NP'
p15
g5
tp16
a(S'improves'
p17
S'improve'
p18
S'VBZ'
p19
S'B-VP'
p20
g5
tp21
a(S'recovery'
p22
S'recovery'
p23
S'NN'
p24
S'B-NP'
p25
g5
tp26
a(S'of'
p27
S'of'
p28
S'IN'
p29
S'B-PP'
p30
g5
tp31
a(S'postsurgical'
p32
S'postsurgical'
p33
S'JJ'
p34
S'B-NP'
p35
g5
tp36
a(S'orthopedic'
p37
S'orthopedic'
p38
S'JJ'
p39
S'I-NP'
p40
g5
tp41
a(S'patients'
p42
S'patient'
p43
S'NNS'
p44
S'I-NP'
p45
g5
tp46
a(S':'
p47
g47
g47
g5
g5
tp48
a(S'evidence'
p49
S'evidence'
p50
S'NN'
p51
S'B-NP'
p52
g5
tp53
a(S'for'
p54
S'for'
p55
S'IN'
p56
S'B-PP'
p57
g5
tp58
a(S'a'
p59
g59
S'DT'
p60
S'B-NP'
p61
g5
tp62
a(S'top-down'
p63
S'top-down'
p64
S'JJ'
p65
S'I-NP'
p66
g5
tp67
a(S'effect'
p68
S'effect'
p69
S'NN'
p70
S'I-NP'
p71
g5
tp72
a(S'?'
p73
g73
S'.'
p74
g5
g5
tp75
a(S'OBJECTIVE'
p76
S'OBJECTIVE'
p77
S'NN'
p78
S'B-NP'
p79
g5
tp80
a(S'To'
p81
S'To'
p82
S'TO'
p83
S'B-VP'
p84
g5
tp85
a(S'assess'
p86
S'assess'
p87
S'VB'
p88
S'I-VP'
p89
g5
tp90
a(S'whether'
p91
S'whether'
p92
S'IN'
p93
S'B-SBAR'
p94
g5
tp95
a(S'action'
p96
S'action'
p97
S'NN'
p98
S'B-NP'
p99
g5
tp100
a(S'observation'
p101
S'observation'
p102
S'NN'
p103
S'I-NP'
p104
g5
tp105
a(S'treatment'
p106
S'treatment'
p107
S'NN'
p108
S'I-NP'
p109
g5
tp110
a(S'('
p111
g111
g111
g5
g5
tp112
a(S'AOT'
p113
S'AOT'
p114
S'NN'
p115
S'B-NP'
p116
g5
tp117
a(S')'
p118
g118
g118
g5
g5
tp119
a(S'may'
p120
S'may'
p121
S'MD'
p122
S'B-VP'
p123
g5
tp124
a(S'also'
p125
S'also'
p126
S'RB'
p127
S'I-VP'
p128
g5
tp129
a(S'improve'
p130
S'improve'
p131
S'VB'
p132
S'I-VP'
p133
g5
tp134
a(S'motor'
p135
S'motor'
p136
S'NN'
p137
S'B-NP'
p138
g5
tp139
a(S'recovery'
p140
S'recovery'
p141
S'NN'
p142
S'I-NP'
p143
g5
tp144
a(S'in'
p145
S'in'
p146
S'IN'
p147
S'B-PP'
p148
g5
tp149
a(S'postsurgical'
p150
S'postsurgical'
p151
S'JJ'
p152
S'B-NP'
p153
g5
tp154
a(S'orthopedic'
p155
S'orthopedic'
p156
S'JJ'
p157
S'I-NP'
p158
g5
tp159
a(S'patients'
p160
S'patient'
p161
S'NNS'
p162
S'I-NP'
p163
g5
tp164
a(S','
p165
g165
g165
g5
g5
tp166
a(S'in'
p167
S'in'
p168
S'IN'
p169
S'B-PP'
p170
g5
tp171
a(S'addition'
p172
S'addition'
p173
S'NN'
p174
S'B-NP'
p175
g5
tp176
a(S'to'
p177
S'to'
p178
S'TO'
p179
S'B-PP'
p180
g5
tp181
a(S'conventional'
p182
S'conventional'
p183
S'JJ'
p184
S'B-NP'
p185
g5
tp186
a(S'physiotherapy'
p187
S'physiotherapy'
p188
S'NN'
p189
S'I-NP'
p190
g5
tp191
a(g74
g74
g74
g5
g5
tp192
a(S'DESIGN'
p193
S'DESIGN'
p194
S'NNP'
p195
S'B-NP'
p196
g5
tp197
a(S'Randomized'
p198
S'Randomized'
p199
S'NNP'
p200
S'I-NP'
p201
g5
tp202
a(S'controlled'
p203
S'controlled'
p204
S'JJ'
p205
S'I-NP'
p206
g5
tp207
a(S'trial'
p208
S'trial'
p209
S'NN'
p210
S'I-NP'
p211
g5
tp212
a(g74
g74
g74
g5
g5
tp213
a(S'SETTING'
p214
S'SETTING'
p215
S'NNP'
p216
S'B-NP'
p217
g5
tp218
a(S'Department'
p219
S'Department'
p220
S'NNP'
p221
S'I-NP'
p222
g5
tp223
a(S'of'
p224
S'of'
p225
S'IN'
p226
S'B-PP'
p227
g5
tp228
a(S'rehabilitation'
p229
S'rehabilitation'
p230
S'NN'
p231
S'B-NP'
p232
g5
tp233
a(g74
g74
g74
g5
g5
tp234
a(S'PARTICIPANTS'
p235
S'PARTICIPANTS'
p236
S'NNS'
p237
S'B-NP'
p238
g5
tp239
a(S'Patients'
p240
S'Patient'
p241
S'NNS'
p242
S'I-NP'
p243
g5
tp244
a(g111
g111
g111
g5
g5
tp245
a(S'N=60'
p246
S'N=60'
p247
S'NN'
p248
S'B-NP'
p249
g5
tp250
a(g118
g118
g118
g5
g5
tp251
a(S'admitted'
p252
S'admit'
p253
S'VBN'
p254
S'B-VP'
p255
g5
tp256
a(S'to'
p257
S'to'
p258
S'TO'
p259
S'B-PP'
p260
g5
tp261
a(S'our'
p262
S'our'
p263
S'PRP$'
p264
S'B-NP'
p265
g5
tp266
a(S'department'
p267
S'department'
p268
S'NN'
p269
S'I-NP'
p270
g5
tp271
a(S'postorthopedic'
p272
S'postorthopedic'
p273
S'JJ'
p274
S'I-NP'
p275
g5
tp276
a(S'surgery'
p277
S'surgery'
p278
S'NN'
p279
S'I-NP'
p280
g5
tp281
a(S'were'
p282
S'be'
p283
S'VBD'
p284
S'B-VP'
p285
g5
tp286
a(S'randomly'
p287
S'randomly'
p288
S'RB'
p289
S'I-VP'
p290
g5
tp291
a(S'assigned'
p292
S'assign'
p293
S'VBN'
p294
S'I-VP'
p295
g5
tp296
a(S'to'
p297
S'to'
p298
S'TO'
p299
S'B-PP'
p300
g5
tp301
a(S'either'
p302
S'either'
p303
S'CC'
p304
g5
g5
tp305
a(g59
g59
S'DT'
p306
S'B-NP'
p307
g5
tp308
a(S'case'
p309
S'case'
p310
S'NN'
p311
S'I-NP'
p312
g5
tp313
a(g111
g111
g111
g5
g5
tp314
a(S'n=30'
p315
S'n=30'
p316
S'NN'
p317
S'B-NP'
p318
g5
tp319
a(g118
g118
g118
g5
g5
tp320
a(S'or'
p321
S'or'
p322
S'CC'
p323
g5
g5
tp324
a(S'control'
p325
S'control'
p326
S'NN'
p327
S'B-NP'
p328
g5
tp329
a(g111
g111
g111
g5
g5
tp330
a(S'n=30'
p331
S'n=30'
p332
S'NN'
p333
S'B-NP'
p334
g5
tp335
a(g118
g118
g118
g5
g5
tp336
a(S'group.'
p337
S'group.'
p338
S'NN'
p339
S'B-NP'
p340
g5
tp341
a(S'Exclusion'
p342
S'Exclusion'
p343
S'NN'
p344
S'I-NP'
p345
g5
tp346
a(S'criteria'
p347
S'criterion'
p348
S'NNS'
p349
S'I-NP'
p350
g5
tp351
a(S'were'
p352
S'be'
p353
S'VBD'
p354
S'B-VP'
p355
g5
tp356
a(S'age'
p357
S'age'
p358
S'NN'
p359
S'B-NP'
p360
g5
tp361
a(S'18'
p362
S'18'
p363
S'CD'
p364
S'B-NP'
p365
g5
tp366
a(S'years'
p367
S'year'
p368
S'NNS'
p369
S'I-NP'
p370
g5
tp371
a(S'or'
p372
S'or'
p373
S'CC'
p374
g5
g5
tp375
a(S'younger'
p376
S'young'
p377
S'JJR'
p378
S'B-ADJP'
p379
g5
tp380
a(S'and'
p381
S'and'
p382
S'CC'
p383
g5
g5
tp384
a(S'90'
p385
S'90'
p386
S'CD'
p387
S'B-NP'
p388
g5
tp389
a(S'years'
p390
S'year'
p391
S'NNS'
p392
S'I-NP'
p393
g5
tp394
a(S'or'
p395
S'or'
p396
S'CC'
p397
g5
g5
tp398
a(S'older'
p399
S'old'
p400
S'JJR'
p401
S'B-ADJP'
p402
g5
tp403
a(g165
g165
g165
g5
g5
tp404
a(S'Mini-Mental'
p405
S'Mini-Mental'
p406
S'NNP'
p407
S'B-NP'
p408
g5
tp409
a(S'State'
p410
S'State'
p411
S'NNP'
p412
S'I-NP'
p413
g5
tp414
a(S'Examination'
p415
S'Examination'
p416
S'NNP'
p417
S'I-NP'
p418
g5
tp419
a(S'score'
p420
S'score'
p421
S'NN'
p422
S'I-NP'
p423
g5
tp424
a(S'of'
p425
S'of'
p426
S'IN'
p427
S'B-PP'
p428
g5
tp429
a(S'21'
p430
S'21'
p431
S'CD'
p432
S'B-NP'
p433
g5
tp434
a(S'of'
p435
S'of'
p436
S'IN'
p437
S'B-PP'
p438
g5
tp439
a(S'30'
p440
S'30'
p441
S'CD'
p442
S'B-NP'
p443
g5
tp444
a(S'or'
p445
S'or'
p446
S'CC'
p447
S'I-NP'
p448
g5
tp449
a(S'lower'
p450
S'low'
p451
S'JJR'
p452
S'I-NP'
p453
g5
tp454
a(g165
g165
g165
g5
g5
tp455
a(S'no'
p456
S'no'
p457
S'DT'
p458
S'B-NP'
p459
g5
tp460
a(S'ambulating'
p461
S'ambulate'
p462
S'VBG'
p463
S'I-NP'
p464
g5
tp465
a(S'order'
p466
S'order'
p467
S'NN'
p468
S'I-NP'
p469
g5
tp470
a(g165
g165
g165
g5
g5
tp471
a(S'advanced'
p472
S'advance'
p473
S'VBD'
p474
S'B-VP'
p475
g5
tp476
a(S'vision'
p477
S'vision'
p478
S'NN'
p479
S'B-NP'
p480
g5
tp481
a(S'impairment'
p482
S'impairment'
p483
S'NN'
p484
S'I-NP'
p485
g5
tp486
a(g165
g165
g165
g5
g5
tp487
a(S'malignancy'
p488
S'malignancy'
p489
S'NN'
p490
S'B-NP'
p491
g5
tp492
a(g165
g165
g165
g5
g5
tp493
a(S'pneumonia'
p494
S'pneumonia'
p495
S'NN'
p496
S'B-NP'
p497
g5
tp498
a(g165
g165
g165
g5
g5
tp499
a(S'or'
p500
S'or'
p501
S'CC'
p502
g5
g5
tp503
a(S'heart'
p504
S'heart'
p505
S'NN'
p506
S'B-NP'
p507
g5
tp508
a(S'failure'
p509
S'failure'
p510
S'NN'
p511
S'I-NP'
p512
g5
tp513
a(g74
g74
g74
g5
g5
tp514
a(S'INTERVENTIONS'
p515
S'INTERVENTIONS'
p516
S'NNS'
p517
S'B-NP'
p518
g5
tp519
a(S'All'
p520
S'All'
p521
S'DT'
p522
S'B-NP'
p523
g5
tp524
a(S'participants'
p525
S'participant'
p526
S'NNS'
p527
S'I-NP'
p528
g5
tp529
a(S'underwent'
p530
S'undergo'
p531
S'VBD'
p532
S'B-VP'
p533
g5
tp534
a(S'conventional'
p535
S'conventional'
p536
S'JJ'
p537
S'B-NP'
p538
g5
tp539
a(S'physiotherapy.'
p540
S'physiotherapy.'
p541
S'NN'
p542
S'I-NP'
p543
g5
tp544
a(S'In'
p545
S'In'
p546
S'IN'
p547
S'B-PP'
p548
g5
tp549
a(S'addition'
p550
S'addition'
p551
S'NN'
p552
S'B-NP'
p553
g5
tp554
a(g165
g165
g165
g5
g5
tp555
a(S'patients'
p556
S'patient'
p557
S'NNS'
p558
S'B-NP'
p559
g5
tp560
a(S'in'
p561
S'in'
p562
S'IN'
p563
S'B-PP'
p564
g5
tp565
a(S'the'
p566
S'the'
p567
S'DT'
p568
S'B-NP'
p569
g5
tp570
a(S'case'
p571
S'case'
p572
S'NN'
p573
S'I-NP'
p574
g5
tp575
a(S'group'
p576
S'group'
p577
S'NN'
p578
S'I-NP'
p579
g5
tp580
a(S'were'
p581
S'be'
p582
S'VBD'
p583
S'B-VP'
p584
g5
tp585
a(S'asked'
p586
S'ask'
p587
S'VBN'
p588
S'I-VP'
p589
g5
tp590
a(S'to'
p591
S'to'
p592
S'TO'
p593
S'B-VP'
p594
g5
tp595
a(S'observe'
p596
S'observe'
p597
S'VB'
p598
S'I-VP'
p599
g5
tp600
a(S'video'
p601
S'video'
p602
S'JJ'
p603
S'B-NP'
p604
g5
tp605
a(S'clips'
p606
S'clip'
p607
S'NNS'
p608
S'I-NP'
p609
g5
tp610
a(S'showing'
p611
S'show'
p612
S'VBG'
p613
S'B-VP'
p614
g5
tp615
a(S'daily'
p616
S'daily'
p617
S'JJ'
p618
S'B-NP'
p619
g5
tp620
a(S'actions'
p621
S'action'
p622
S'NNS'
p623
S'I-NP'
p624
g5
tp625
a(S'and'
p626
S'and'
p627
S'CC'
p628
g5
g5
tp629
a(S'to'
p630
S'to'
p631
S'TO'
p632
S'B-VP'
p633
g5
tp634
a(S'imitate'
p635
S'imitate'
p636
S'VB'
p637
S'I-VP'
p638
g5
tp639
a(S'them'
p640
S'them'
p641
S'PRP'
p642
S'B-NP'
p643
g5
tp644
a(S'afterward.'
p645
S'afterward.'
p646
S'RB'
p647
S'B-ADVP'
p648
g5
tp649
a(S'Patients'
p650
S'Patient'
p651
S'NNS'
p652
S'B-NP'
p653
g5
tp654
a(S'in'
p655
S'in'
p656
S'IN'
p657
S'B-PP'
p658
g5
tp659
a(S'the'
p660
S'the'
p661
S'DT'
p662
S'B-NP'
p663
g5
tp664
a(S'control'
p665
S'control'
p666
S'NN'
p667
S'I-NP'
p668
g5
tp669
a(S'group'
p670
S'group'
p671
S'NN'
p672
S'I-NP'
p673
g5
tp674
a(S'were'
p675
S'be'
p676
S'VBD'
p677
S'B-VP'
p678
g5
tp679
a(S'asked'
p680
S'ask'
p681
S'VBN'
p682
S'I-VP'
p683
g5
tp684
a(S'to'
p685
S'to'
p686
S'TO'
p687
S'B-VP'
p688
g5
tp689
a(S'observe'
p690
S'observe'
p691
S'VB'
p692
S'I-VP'
p693
g5
tp694
a(S'video'
p695
S'video'
p696
S'JJ'
p697
S'B-NP'
p698
g5
tp699
a(S'clips'
p700
S'clip'
p701
S'NNS'
p702
S'I-NP'
p703
g5
tp704
a(S'with'
p705
S'with'
p706
S'IN'
p707
S'B-PP'
p708
g5
tp709
a(S'no'
p710
S'no'
p711
S'DT'
p712
S'B-NP'
p713
g5
tp714
a(S'motor'
p715
S'motor'
p716
S'NN'
p717
S'I-NP'
p718
g5
tp719
a(S'content'
p720
S'content'
p721
S'NN'
p722
S'I-NP'
p723
g5
tp724
a(S'and'
p725
S'and'
p726
S'CC'
p727
g5
g5
tp728
a(S'to'
p729
S'to'
p730
S'TO'
p731
S'B-VP'
p732
g5
tp733
a(S'execute'
p734
S'execute'
p735
S'VB'
p736
S'I-VP'
p737
g5
tp738
a(S'the'
p739
S'the'
p740
S'DT'
p741
S'B-NP'
p742
g5
tp743
a(S'same'
p744
S'same'
p745
S'JJ'
p746
S'I-NP'
p747
g5
tp748
a(S'actions'
p749
S'action'
p750
S'NNS'
p751
S'I-NP'
p752
g5
tp753
a(S'as'
p754
S'as'
p755
S'IN'
p756
S'B-PP'
p757
g5
tp758
a(S'patients'
p759
S'patient'
p760
S'NNS'
p761
S'B-NP'
p762
g5
tp763
a(S'in'
p764
S'in'
p765
S'IN'
p766
S'B-PP'
p767
g5
tp768
a(S'the'
p769
S'the'
p770
S'DT'
p771
S'B-NP'
p772
g5
tp773
a(S'case'
p774
S'case'
p775
S'NN'
p776
S'I-NP'
p777
g5
tp778
a(S'group'
p779
S'group'
p780
S'NN'
p781
S'I-NP'
p782
g5
tp783
a(S'afterward.'
p784
S'afterward.'
p785
S'JJ'
p786
S'I-NP'
p787
g5
tp788
a(S'Participants'
p789
S'Participant'
p790
S'NNS'
p791
S'I-NP'
p792
g5
tp793
a(S'were'
p794
S'be'
p795
S'VBD'
p796
S'B-VP'
p797
g5
tp798
a(S'scored'
p799
S'score'
p800
S'VBN'
p801
S'I-VP'
p802
g5
tp803
a(S'on'
p804
S'on'
p805
S'IN'
p806
S'B-PP'
p807
g5
tp808
a(S'functional'
p809
S'functional'
p810
S'JJ'
p811
S'B-NP'
p812
g5
tp813
a(S'scales'
p814
S'scale'
p815
S'NNS'
p816
S'I-NP'
p817
g5
tp818
a(S'at'
p819
S'at'
p820
S'IN'
p821
S'B-PP'
p822
g5
tp823
a(S'baseline'
p824
S'baseline'
p825
S'NN'
p826
S'B-NP'
p827
g5
tp828
a(S'and'
p829
S'and'
p830
S'CC'
p831
g5
g5
tp832
a(S'after'
p833
S'after'
p834
S'IN'
p835
S'B-PP'
p836
g5
tp837
a(S'treatment'
p838
S'treatment'
p839
S'NN'
p840
S'B-NP'
p841
g5
tp842
a(S'by'
p843
S'by'
p844
S'IN'
p845
S'B-PP'
p846
g5
tp847
a(g59
g59
S'DT'
p848
S'B-NP'
p849
g5
tp850
a(S'physician'
p851
S'physician'
p852
S'NN'
p853
S'I-NP'
p854
g5
tp855
a(S'blinded'
p856
S'blind'
p857
S'VBD'
p858
S'B-VP'
p859
g5
tp860
a(S'to'
p861
S'to'
p862
S'TO'
p863
S'B-PP'
p864
g5
tp865
a(S'group'
p866
S'group'
p867
S'NN'
p868
S'B-NP'
p869
g5
tp870
a(S'assignment'
p871
S'assignment'
p872
S'NN'
p873
S'I-NP'
p874
g5
tp875
a(g74
g74
g74
g5
g5
tp876
a(S'MAIN'
p877
S'MAIN'
p878
S'NNP'
p879
S'B-NP'
p880
g5
tp881
a(S'OUTCOMES'
p882
S'OUTCOMES'
p883
S'NNP'
p884
S'I-NP'
p885
g5
tp886
a(S'MEASURES'
p887
S'MEASURES'
p888
S'NNP'
p889
S'I-NP'
p890
g5
tp891
a(S'Changes'
p892
S'Changes'
p893
S'NNP'
p894
S'I-NP'
p895
g5
tp896
a(S'in'
p897
S'in'
p898
S'IN'
p899
S'B-PP'
p900
g5
tp901
a(S'FIM'
p902
S'FIM'
p903
S'NNP'
p904
S'B-NP'
p905
g5
tp906
a(S'and'
p907
S'and'
p908
S'CC'
p909
S'I-NP'
p910
g5
tp911
a(S'Tinetti'
p912
S'Tinetti'
p913
S'NNP'
p914
S'I-NP'
p915
g5
tp916
a(S'scale'
p917
S'scale'
p918
S'NN'
p919
S'I-NP'
p920
g5
tp921
a(S'scores'
p922
S'score'
p923
S'NNS'
p924
S'I-NP'
p925
g5
tp926
a(g165
g165
g165
g5
g5
tp927
a(S'and'
p928
S'and'
p929
S'CC'
p930
g5
g5
tp931
a(S'dependence'
p932
S'dependence'
p933
S'NN'
p934
S'B-NP'
p935
g5
tp936
a(S'on'
p937
S'on'
p938
S'IN'
p939
S'B-PP'
p940
g5
tp941
a(S'walking'
p942
S'walk'
p943
S'VBG'
p944
S'B-VP'
p945
g5
tp946
a(S'aids'
p947
S'aid'
p948
S'NNS'
p949
S'B-NP'
p950
g5
tp951
a(g74
g74
g74
g5
g5
tp952
a(S'RESULTS'
p953
S'RESULTS'
p954
S'NNS'
p955
S'B-NP'
p956
g5
tp957
a(S'At'
p958
S'At'
p959
S'IN'
p960
S'B-PP'
p961
g5
tp962
a(S'baseline'
p963
S'baseline'
p964
S'NN'
p965
S'B-NP'
p966
g5
tp967
a(g165
g165
g165
g5
g5
tp968
a(S'groups'
p969
S'group'
p970
S'NNS'
p971
S'B-NP'
p972
g5
tp973
a(S'did'
p974
S'do'
p975
S'VBD'
p976
S'B-VP'
p977
g5
tp978
a(S'not'
p979
S'not'
p980
S'RB'
p981
S'I-VP'
p982
g5
tp983
a(S'differ'
p984
S'differ'
p985
S'VB'
p986
S'I-VP'
p987
g5
tp988
a(S'in'
p989
S'in'
p990
S'IN'
p991
S'B-PP'
p992
g5
tp993
a(S'clinical'
p994
S'clinical'
p995
S'JJ'
p996
S'B-NP'
p997
g5
tp998
a(S'and'
p999
S'and'
p1000
S'CC'
p1001
S'I-NP'
p1002
g5
tp1003
a(S'functional'
p1004
S'functional'
p1005
S'JJ'
p1006
S'I-NP'
p1007
g5
tp1008
a(S'scale'
p1009
S'scale'
p1010
S'NN'
p1011
S'I-NP'
p1012
g5
tp1013
a(S'scores.'
p1014
S'scores.'
p1015
S'NN'
p1016
S'I-NP'
p1017
g5
tp1018
a(S'After'
p1019
S'After'
p1020
S'IN'
p1021
S'B-PP'
p1022
g5
tp1023
a(S'treatment'
p1024
S'treatment'
p1025
S'NN'
p1026
S'B-NP'
p1027
g5
tp1028
a(g165
g165
g165
g5
g5
tp1029
a(S'patients'
p1030
S'patient'
p1031
S'NNS'
p1032
S'B-NP'
p1033
g5
tp1034
a(S'in'
p1035
S'in'
p1036
S'IN'
p1037
S'B-PP'
p1038
g5
tp1039
a(S'the'
p1040
S'the'
p1041
S'DT'
p1042
S'B-NP'
p1043
g5
tp1044
a(S'case'
p1045
S'case'
p1046
S'NN'
p1047
S'I-NP'
p1048
g5
tp1049
a(S'group'
p1050
S'group'
p1051
S'NN'
p1052
S'I-NP'
p1053
g5
tp1054
a(S'scored'
p1055
S'score'
p1056
S'VBD'
p1057
S'B-VP'
p1058
g5
tp1059
a(S'better'
p1060
S'good'
p1061
S'JJR'
p1062
S'B-ADJP'
p1063
g5
tp1064
a(S'than'
p1065
S'than'
p1066
S'IN'
p1067
S'B-PP'
p1068
g5
tp1069
a(S'patients'
p1070
S'patient'
p1071
S'NNS'
p1072
S'B-NP'
p1073
g5
tp1074
a(S'in'
p1075
S'in'
p1076
S'IN'
p1077
S'B-PP'
p1078
g5
tp1079
a(S'the'
p1080
S'the'
p1081
S'DT'
p1082
S'B-NP'
p1083
g5
tp1084
a(S'control'
p1085
S'control'
p1086
S'NN'
p1087
S'I-NP'
p1088
g5
tp1089
a(S'group'
p1090
S'group'
p1091
S'NN'
p1092
S'I-NP'
p1093
g5
tp1094
a(g111
g111
g111
g5
g5
tp1095
a(S'FIM'
p1096
S'FIM'
p1097
S'NN'
p1098
S'B-NP'
p1099
g5
tp1100
a(S'total'
p1101
S'total'
p1102
S'NN'
p1103
S'I-NP'
p1104
g5
tp1105
a(S'score'
p1106
S'score'
p1107
S'NN'
p1108
S'I-NP'
p1109
g5
tp1110
a(g165
g165
g165
g5
g5
tp1111
a(S'P=.02'
p1112
S'P=.02'
p1113
S'NN'
p1114
S'B-NP'
p1115
g5
tp1116
a(S';'
p1117
g1117
g47
g5
g5
tp1118
a(S'FIM'
p1119
S'FIM'
p1120
S'NN'
p1121
S'B-NP'
p1122
g5
tp1123
a(S'motor'
p1124
S'motor'
p1125
S'NN'
p1126
S'I-NP'
p1127
g5
tp1128
a(S'subscore'
p1129
S'subscore'
p1130
S'NN'
p1131
S'I-NP'
p1132
g5
tp1133
a(g165
g165
g165
g5
g5
tp1134
a(S'P=.001'
p1135
S'P=.001'
p1136
S'NN'
p1137
S'B-NP'
p1138
g5
tp1139
a(g1117
g1117
g47
g5
g5
tp1140
a(S'Tinetti'
p1141
S'Tinetti'
p1142
S'NNP'
p1143
S'B-NP'
p1144
g5
tp1145
a(S'scale'
p1146
S'scale'
p1147
S'NN'
p1148
S'I-NP'
p1149
g5
tp1150
a(S'score'
p1151
S'score'
p1152
S'NN'
p1153
S'I-NP'
p1154
g5
tp1155
a(g165
g165
g165
g5
g5
tp1156
a(S'P=.04'
p1157
S'P=.04'
p1158
S'NN'
p1159
S'B-NP'
p1160
g5
tp1161
a(g118
g118
g118
g5
g5
tp1162
a(g1117
g1117
g47
g5
g5
tp1163
a(S'patients'
p1164
S'patient'
p1165
S'NNS'
p1166
S'B-NP'
p1167
g5
tp1168
a(S'in'
p1169
S'in'
p1170
S'IN'
p1171
S'B-PP'
p1172
g5
tp1173
a(S'the'
p1174
S'the'
p1175
S'DT'
p1176
S'B-NP'
p1177
g5
tp1178
a(S'case'
p1179
S'case'
p1180
S'NN'
p1181
S'I-NP'
p1182
g5
tp1183
a(S'group'
p1184
S'group'
p1185
S'NN'
p1186
S'I-NP'
p1187
g5
tp1188
a(S'were'
p1189
S'be'
p1190
S'VBD'
p1191
S'B-VP'
p1192
g5
tp1193
a(S'assigned'
p1194
S'assign'
p1195
S'VBN'
p1196
S'I-VP'
p1197
g5
tp1198
a(S'more'
p1199
S'more'
p1200
S'RBR'
p1201
S'B-ADVP'
p1202
g5
tp1203
a(S'frequently'
p1204
S'frequently'
p1205
S'RB'
p1206
S'I-ADVP'
p1207
g5
tp1208
a(S'to'
p1209
S'to'
p1210
S'TO'
p1211
S'B-PP'
p1212
g5
tp1213
a(S'1'
p1214
g1214
S'CD'
p1215
S'B-NP'
p1216
g5
tp1217
a(S'crutch'
p1218
S'crutch'
p1219
S'NN'
p1220
S'I-NP'
p1221
g5
tp1222
a(g111
g111
g111
g5
g5
tp1223
a(S'P=.01'
p1224
S'P=.01'
p1225
S'NN'
p1226
S'B-NP'
p1227
g5
tp1228
a(g118
g118
g118
g5
g5
tp1229
a(g74
g74
g74
g5
g5
tp1230
a(S'CONCLUSIONS'
p1231
S'CONCLUSIONS'
p1232
S'NNS'
p1233
S'B-NP'
p1234
g5
tp1235
a(S'In'
p1236
S'In'
p1237
S'IN'
p1238
S'B-PP'
p1239
g5
tp1240
a(S'addition'
p1241
S'addition'
p1242
S'NN'
p1243
S'B-NP'
p1244
g5
tp1245
a(S'to'
p1246
S'to'
p1247
S'TO'
p1248
S'B-PP'
p1249
g5
tp1250
a(S'conventional'
p1251
S'conventional'
p1252
S'JJ'
p1253
S'B-NP'
p1254
g5
tp1255
a(S'physiotherapy'
p1256
S'physiotherapy'
p1257
S'NN'
p1258
S'I-NP'
p1259
g5
tp1260
a(g165
g165
g165
g5
g5
tp1261
a(S'AOT'
p1262
S'AOT'
p1263
S'NN'
p1264
S'B-NP'
p1265
S'B-protein'
p1266
tp1267
a(S'is'
p1268
S'be'
p1269
S'VBZ'
p1270
S'B-VP'
p1271
g5
tp1272
a(S'effective'
p1273
S'effective'
p1274
S'JJ'
p1275
S'B-ADJP'
p1276
g5
tp1277
a(S'in'
p1278
S'in'
p1279
S'IN'
p1280
S'B-PP'
p1281
g5
tp1282
a(S'the'
p1283
S'the'
p1284
S'DT'
p1285
S'B-NP'
p1286
g5
tp1287
a(S'rehabilitation'
p1288
S'rehabilitation'
p1289
S'NN'
p1290
S'I-NP'
p1291
g5
tp1292
a(S'of'
p1293
S'of'
p1294
S'IN'
p1295
S'B-PP'
p1296
g5
tp1297
a(S'postsurgical'
p1298
S'postsurgical'
p1299
S'JJ'
p1300
S'B-NP'
p1301
g5
tp1302
a(S'orthopedic'
p1303
S'orthopedic'
p1304
S'JJ'
p1305
S'I-NP'
p1306
g5
tp1307
a(S'patients.'
p1308
S'patients.'
p1309
S'NN'
p1310
S'I-NP'
p1311
g5
tp1312
a(S'The'
p1313
S'The'
p1314
S'DT'
p1315
S'B-NP'
p1316
g5
tp1317
a(S'present'
p1318
S'present'
p1319
S'JJ'
p1320
S'I-NP'
p1321
g5
tp1322
a(S'results'
p1323
S'result'
p1324
S'NNS'
p1325
S'I-NP'
p1326
g5
tp1327
a(S'strongly'
p1328
S'strongly'
p1329
S'RB'
p1330
S'B-ADVP'
p1331
g5
tp1332
a(S'support'
p1333
S'support'
p1334
S'VBP'
p1335
S'B-VP'
p1336
g5
tp1337
a(S'top-down'
p1338
S'top-down'
p1339
S'JJ'
p1340
S'B-NP'
p1341
g5
tp1342
a(S'effects'
p1343
S'effect'
p1344
S'NNS'
p1345
S'I-NP'
p1346
g5
tp1347
a(S'of'
p1348
S'of'
p1349
S'IN'
p1350
S'B-PP'
p1351
g5
tp1352
a(S'this'
p1353
S'this'
p1354
S'DT'
p1355
S'B-NP'
p1356
g5
tp1357
a(S'treatment'
p1358
S'treatment'
p1359
S'NN'
p1360
S'I-NP'
p1361
g5
tp1362
a(S'in'
p1363
S'in'
p1364
S'IN'
p1365
S'B-PP'
p1366
g5
tp1367
a(S'motor'
p1368
S'motor'
p1369
S'NN'
p1370
S'B-NP'
p1371
g5
tp1372
a(S'recovery'
p1373
S'recovery'
p1374
S'NN'
p1375
S'I-NP'
p1376
g5
tp1377
a(g165
g165
g165
g5
g5
tp1378
a(S'even'
p1379
S'even'
p1380
S'RB'
p1381
S'B-ADVP'
p1382
g5
tp1383
a(S'in'
p1384
S'in'
p1385
S'IN'
p1386
S'B-PP'
p1387
g5
tp1388
a(S'nonneurologic'
p1389
S'nonneurologic'
p1390
S'JJ'
p1391
S'B-NP'
p1392
g5
tp1393
a(S'patients'
p1394
S'patient'
p1395
S'NNS'
p1396
S'I-NP'
p1397
g5
tp1398
a(g74
g74
g74
g5
g5
tp1399
a.