(lp0
(S'Pharmacokinetic'
p1
S'Pharmacokinetic'
p2
S'JJ'
p3
S'B-NP'
p4
S'O'
p5
tp6
a(S'and'
p7
S'and'
p8
S'CC'
p9
S'I-NP'
p10
g5
tp11
a(S'safety'
p12
S'safety'
p13
S'NN'
p14
S'I-NP'
p15
g5
tp16
a(S'evaluation'
p17
S'evaluation'
p18
S'NN'
p19
S'I-NP'
p20
g5
tp21
a(S'of'
p22
S'of'
p23
S'IN'
p24
S'B-PP'
p25
g5
tp26
a(S'high-dose'
p27
S'high-dose'
p28
S'JJ'
p29
S'B-NP'
p30
g5
tp31
a(S'combinations'
p32
S'combination'
p33
S'NNS'
p34
S'I-NP'
p35
g5
tp36
a(S'of'
p37
S'of'
p38
S'IN'
p39
S'B-PP'
p40
g5
tp41
a(S'fosamprenavir'
p42
S'fosamprenavir'
p43
S'NN'
p44
S'B-NP'
p45
g5
tp46
a(S'and'
p47
S'and'
p48
S'CC'
p49
S'I-NP'
p50
g5
tp51
a(S'ritonavir'
p52
S'ritonavir'
p53
S'NN'
p54
S'I-NP'
p55
g5
tp56
a(S'.'
p57
g57
g57
g5
g5
tp58
a(S'High-dose'
p59
S'High-dose'
p60
S'JJ'
p61
S'B-NP'
p62
g5
tp63
a(S'combinations'
p64
S'combination'
p65
S'NNS'
p66
S'I-NP'
p67
g5
tp68
a(S'of'
p69
S'of'
p70
S'IN'
p71
S'B-PP'
p72
g5
tp73
a(S'fosamprenavir'
p74
S'fosamprenavir'
p75
S'NN'
p76
S'B-NP'
p77
g5
tp78
a(S'('
p79
g79
g79
g5
g5
tp80
a(S'FPV'
p81
S'FPV'
p82
S'NN'
p83
S'B-NP'
p84
S'B-protein'
p85
tp86
a(S')'
p87
g87
g87
g5
g5
tp88
a(S'and'
p89
S'and'
p90
S'CC'
p91
g5
g5
tp92
a(S'ritonavir'
p93
S'ritonavir'
p94
S'NN'
p95
S'B-NP'
p96
g5
tp97
a(g79
g79
g79
g5
g5
tp98
a(S'RTV'
p99
S'RTV'
p100
S'NN'
p101
S'B-NP'
p102
g5
tp103
a(g87
g87
g87
g5
g5
tp104
a(S'were'
p105
S'be'
p106
S'VBD'
p107
S'B-VP'
p108
g5
tp109
a(S'evaluated'
p110
S'evaluate'
p111
S'VBN'
p112
S'I-VP'
p113
g5
tp114
a(S'in'
p115
S'in'
p116
S'IN'
p117
S'B-PP'
p118
g5
tp119
a(S'healthy'
p120
S'healthy'
p121
S'JJ'
p122
S'B-NP'
p123
g5
tp124
a(S'adult'
p125
S'adult'
p126
S'JJ'
p127
S'I-NP'
p128
g5
tp129
a(S'subjects'
p130
S'subject'
p131
S'NNS'
p132
S'I-NP'
p133
g5
tp134
a(S'in'
p135
S'in'
p136
S'IN'
p137
S'B-SBAR'
p138
g5
tp139
a(S'order'
p140
S'order'
p141
S'NN'
p142
g5
g5
tp143
a(S'to'
p144
S'to'
p145
S'TO'
p146
S'B-VP'
p147
g5
tp148
a(S'select'
p149
S'select'
p150
S'VB'
p151
S'I-VP'
p152
g5
tp153
a(S'doses'
p154
S'dose'
p155
S'NNS'
p156
S'B-NP'
p157
g5
tp158
a(S'for'
p159
S'for'
p160
S'IN'
p161
S'B-PP'
p162
g5
tp163
a(S'further'
p164
S'further'
p165
S'JJ'
p166
S'B-NP'
p167
g5
tp168
a(S'study'
p169
S'study'
p170
S'NN'
p171
S'I-NP'
p172
g5
tp173
a(S'in'
p174
S'in'
p175
S'IN'
p176
S'B-PP'
p177
g5
tp178
a(S'multiple'
p179
S'multiple'
p180
S'JJ'
p181
S'B-NP'
p182
g5
tp183
a(S'protease'
p184
S'protease'
p185
S'NN'
p186
S'I-NP'
p187
g5
tp188
a(S'inhibitor'
p189
S'inhibitor'
p190
S'NN'
p191
S'I-NP'
p192
g5
tp193
a(g79
g79
g79
g5
g5
tp194
a(S'PI'
p195
S'PI'
p196
S'NN'
p197
S'B-NP'
p198
g5
tp199
a(g87
g87
g87
g5
g5
tp200
a(S'-experienced'
p201
S'-experienced'
p202
S'JJ'
p203
S'B-NP'
p204
g5
tp205
a(S'patients'
p206
S'patient'
p207
S'NNS'
p208
S'I-NP'
p209
g5
tp210
a(S'infected'
p211
S'infect'
p212
S'VBN'
p213
S'B-VP'
p214
g5
tp215
a(S'with'
p216
S'with'
p217
S'IN'
p218
S'B-PP'
p219
g5
tp220
a(S'human'
p221
S'human'
p222
S'JJ'
p223
S'B-NP'
p224
g5
tp225
a(S'immunodeficiency'
p226
S'immunodeficiency'
p227
S'NN'
p228
S'I-NP'
p229
g5
tp230
a(S'virus'
p231
S'virus'
p232
S'NN'
p233
S'I-NP'
p234
g5
tp235
a(S'type'
p236
S'type'
p237
S'NN'
p238
S'I-NP'
p239
g5
tp240
a(S'1.'
p241
S'1.'
p242
S'CD'
p243
S'I-NP'
p244
g5
tp245
a(S'Two'
p246
S'Two'
p247
S'CD'
p248
S'I-NP'
p249
g5
tp250
a(S'high-dose'
p251
S'high-dose'
p252
S'JJ'
p253
S'I-NP'
p254
g5
tp255
a(S'regimens'
p256
S'regimen'
p257
S'NNS'
p258
S'I-NP'
p259
g5
tp260
a(S','
p261
g261
g261
g5
g5
tp262
a(S'FPV'
p263
S'FPV'
p264
S'NN'
p265
S'B-NP'
p266
S'B-protein'
p267
tp268
a(S'1'
p269
g269
S'CD'
p270
S'I-NP'
p271
S'I-protein'
p272
tp273
a(g261
g261
g261
g5
g5
tp274
a(S'400'
p275
S'400'
p276
S'CD'
p277
S'B-NP'
p278
g5
tp279
a(S'mg'
p280
S'mg'
p281
S'NN'
p282
S'I-NP'
p283
g5
tp284
a(S'twice'
p285
S'twice'
p286
S'RB'
p287
S'B-NP'
p288
g5
tp289
a(S'a'
p290
g290
S'DT'
p291
S'I-NP'
p292
g5
tp293
a(S'day'
p294
S'day'
p295
S'NN'
p296
S'I-NP'
p297
g5
tp298
a(g79
g79
g79
g5
g5
tp299
a(S'BID'
p300
S'BID'
p301
S'NN'
p302
S'B-NP'
p303
g5
tp304
a(g87
g87
g87
g5
g5
tp305
a(S'plus'
p306
S'plus'
p307
S'CC'
p308
g5
g5
tp309
a(S'RTV'
p310
S'RTV'
p311
S'NN'
p312
S'B-NP'
p313
g5
tp314
a(S'100'
p315
S'100'
p316
S'CD'
p317
S'I-NP'
p318
g5
tp319
a(S'mg'
p320
S'mg'
p321
S'NN'
p322
S'I-NP'
p323
g5
tp324
a(S'BID'
p325
S'BID'
p326
S'NN'
p327
S'I-NP'
p328
g5
tp329
a(S'and'
p330
S'and'
p331
S'CC'
p332
g5
g5
tp333
a(S'FPV'
p334
S'FPV'
p335
S'NN'
p336
S'B-NP'
p337
S'B-protein'
p338
tp339
a(g269
g269
S'CD'
p340
S'I-NP'
p341
S'I-protein'
p342
tp343
a(g261
g261
g261
S'I-NP'
p344
g5
tp345
a(S'400'
p346
S'400'
p347
S'CD'
p348
S'I-NP'
p349
g5
tp350
a(S'mg'
p351
S'mg'
p352
S'NN'
p353
S'I-NP'
p354
g5
tp355
a(S'BID'
p356
S'BID'
p357
S'NN'
p358
S'I-NP'
p359
g5
tp360
a(S'plus'
p361
S'plus'
p362
S'CC'
p363
g5
g5
tp364
a(S'RTV'
p365
S'RTV'
p366
S'NN'
p367
S'B-NP'
p368
g5
tp369
a(S'200'
p370
S'200'
p371
S'CD'
p372
S'I-NP'
p373
g5
tp374
a(S'mg'
p375
S'mg'
p376
S'NN'
p377
S'I-NP'
p378
g5
tp379
a(S'BID'
p380
S'BID'
p381
S'NN'
p382
S'I-NP'
p383
g5
tp384
a(g261
g261
g261
g5
g5
tp385
a(S'were'
p386
S'be'
p387
S'VBD'
p388
S'B-VP'
p389
g5
tp390
a(S'planned'
p391
S'plan'
p392
S'VBN'
p393
S'I-VP'
p394
g5
tp395
a(S'to'
p396
S'to'
p397
S'TO'
p398
S'I-VP'
p399
g5
tp400
a(S'be'
p401
S'be'
p402
S'VB'
p403
S'I-VP'
p404
g5
tp405
a(S'compared'
p406
S'compare'
p407
S'VBN'
p408
S'I-VP'
p409
g5
tp410
a(S'to'
p411
S'to'
p412
S'TO'
p413
S'B-PP'
p414
g5
tp415
a(S'the'
p416
S'the'
p417
S'DT'
p418
S'B-NP'
p419
g5
tp420
a(S'approved'
p421
S'approve'
p422
S'VBN'
p423
S'I-NP'
p424
g5
tp425
a(S'regimen'
p426
S'regimen'
p427
S'NN'
p428
S'I-NP'
p429
g5
tp430
a(g261
g261
g261
g5
g5
tp431
a(S'FPV'
p432
S'FPV'
p433
S'NN'
p434
S'B-NP'
p435
g5
tp436
a(S'700'
p437
S'700'
p438
S'CD'
p439
S'I-NP'
p440
g5
tp441
a(S'mg'
p442
S'mg'
p443
S'NN'
p444
S'I-NP'
p445
g5
tp446
a(S'BID'
p447
S'BID'
p448
S'NN'
p449
S'I-NP'
p450
g5
tp451
a(S'plus'
p452
S'plus'
p453
S'CC'
p454
g5
g5
tp455
a(S'RTV'
p456
S'RTV'
p457
S'NN'
p458
S'B-NP'
p459
g5
tp460
a(S'100'
p461
S'100'
p462
S'CD'
p463
S'I-NP'
p464
g5
tp465
a(S'mg'
p466
S'mg'
p467
S'NN'
p468
S'I-NP'
p469
g5
tp470
a(S'BID'
p471
S'BID'
p472
S'NN'
p473
S'I-NP'
p474
g5
tp475
a(g261
g261
g261
g5
g5
tp476
a(S'in'
p477
S'in'
p478
S'IN'
p479
S'B-PP'
p480
g5
tp481
a(g290
g290
S'DT'
p482
S'B-NP'
p483
g5
tp484
a(S'randomized'
p485
S'randomize'
p486
S'VBN'
p487
S'I-NP'
p488
g5
tp489
a(S'three-period'
p490
S'three-period'
p491
S'JJ'
p492
S'I-NP'
p493
g5
tp494
a(S'crossover'
p495
S'crossover'
p496
S'NN'
p497
S'I-NP'
p498
g5
tp499
a(S'study.'
p500
S'study.'
p501
S'NN'
p502
S'I-NP'
p503
g5
tp504
a(S'Forty-two'
p505
S'Forty-two'
p506
S'CD'
p507
S'I-NP'
p508
g5
tp509
a(S'healthy'
p510
S'healthy'
p511
S'JJ'
p512
S'I-NP'
p513
g5
tp514
a(S'adult'
p515
S'adult'
p516
S'JJ'
p517
S'I-NP'
p518
g5
tp519
a(S'subjects'
p520
S'subject'
p521
S'NNS'
p522
S'I-NP'
p523
g5
tp524
a(S'were'
p525
S'be'
p526
S'VBD'
p527
S'B-VP'
p528
g5
tp529
a(S'enrolled'
p530
S'enrol'
p531
S'VBN'
p532
S'I-VP'
p533
g5
tp534
a(g261
g261
g261
g5
g5
tp535
a(S'and'
p536
S'and'
p537
S'CC'
p538
g5
g5
tp539
a(S'39'
p540
S'39'
p541
S'CD'
p542
S'B-NP'
p543
g5
tp544
a(S'subjects'
p545
S'subject'
p546
S'NNS'
p547
S'I-NP'
p548
g5
tp549
a(S'completed'
p550
S'complete'
p551
S'VBD'
p552
S'B-VP'
p553
g5
tp554
a(S'period'
p555
S'period'
p556
S'NN'
p557
S'B-NP'
p558
g5
tp559
a(S'1.'
p560
S'1.'
p561
S'CD'
p562
S'I-NP'
p563
g5
tp564
a(S'Due'
p565
S'Due'
p566
S'NN'
p567
S'I-NP'
p568
g5
tp569
a(S'to'
p570
S'to'
p571
S'TO'
p572
S'B-PP'
p573
g5
tp574
a(S'marked'
p575
S'marked'
p576
S'JJ'
p577
S'B-NP'
p578
g5
tp579
a(S'hepatic'
p580
S'hepatic'
p581
S'JJ'
p582
S'I-NP'
p583
g5
tp584
a(S'transaminase'
p585
S'transaminase'
p586
S'NN'
p587
S'I-NP'
p588
g5
tp589
a(S'elevations'
p590
S'elevation'
p591
S'NNS'
p592
S'I-NP'
p593
g5
tp594
a(g261
g261
g261
g5
g5
tp595
a(S'predominantly'
p596
S'predominantly'
p597
S'RB'
p598
S'B-ADVP'
p599
g5
tp600
a(S'with'
p601
S'with'
p602
S'IN'
p603
S'B-PP'
p604
g5
tp605
a(S'FPV'
p606
S'FPV'
p607
S'NN'
p608
S'B-NP'
p609
S'B-protein'
p610
tp611
a(g269
g269
S'CD'
p612
S'I-NP'
p613
S'I-protein'
p614
tp615
a(g261
g261
g261
S'I-NP'
p616
g5
tp617
a(S'400'
p618
S'400'
p619
S'CD'
p620
S'I-NP'
p621
g5
tp622
a(S'mg'
p623
S'mg'
p624
S'NN'
p625
S'I-NP'
p626
g5
tp627
a(S'BID'
p628
S'BID'
p629
S'NN'
p630
S'I-NP'
p631
g5
tp632
a(S'plus'
p633
S'plus'
p634
S'CC'
p635
g5
g5
tp636
a(S'RTV'
p637
S'RTV'
p638
S'NN'
p639
S'B-NP'
p640
g5
tp641
a(S'200'
p642
S'200'
p643
S'CD'
p644
S'I-NP'
p645
g5
tp646
a(S'mg'
p647
S'mg'
p648
S'NN'
p649
S'I-NP'
p650
g5
tp651
a(S'BID'
p652
S'BID'
p653
S'NN'
p654
S'I-NP'
p655
g5
tp656
a(g261
g261
g261
g5
g5
tp657
a(S'the'
p658
S'the'
p659
S'DT'
p660
S'B-NP'
p661
g5
tp662
a(S'study'
p663
S'study'
p664
S'NN'
p665
S'I-NP'
p666
g5
tp667
a(S'was'
p668
S'be'
p669
S'VBD'
p670
S'B-VP'
p671
g5
tp672
a(S'terminated'
p673
S'terminate'
p674
S'VBN'
p675
S'I-VP'
p676
g5
tp677
a(S'prematurely.'
p678
S'prematurely.'
p679
S'RB'
p680
S'B-ADVP'
p681
g5
tp682
a(S'For'
p683
S'For'
p684
S'IN'
p685
S'B-PP'
p686
g5
tp687
a(S'FPV'
p688
S'FPV'
p689
S'NN'
p690
S'B-NP'
p691
g5
tp692
a(g269
g269
S'CD'
p693
S'I-NP'
p694
g5
tp695
a(g261
g261
g261
S'I-NP'
p696
g5
tp697
a(S'400'
p698
S'400'
p699
S'CD'
p700
S'I-NP'
p701
g5
tp702
a(S'mg'
p703
S'mg'
p704
S'NN'
p705
S'I-NP'
p706
g5
tp707
a(S'BID'
p708
S'BID'
p709
S'NN'
p710
S'I-NP'
p711
g5
tp712
a(S'plus'
p713
S'plus'
p714
S'CC'
p715
g5
g5
tp716
a(S'RTV'
p717
S'RTV'
p718
S'NN'
p719
S'B-NP'
p720
g5
tp721
a(S'100'
p722
S'100'
p723
S'CD'
p724
S'I-NP'
p725
g5
tp726
a(S'mg'
p727
S'mg'
p728
S'NN'
p729
S'I-NP'
p730
g5
tp731
a(S'BID'
p732
S'BID'
p733
S'NN'
p734
S'I-NP'
p735
g5
tp736
a(g261
g261
g261
g5
g5
tp737
a(S'the'
p738
S'the'
p739
S'DT'
p740
S'B-NP'
p741
g5
tp742
a(S'values'
p743
S'value'
p744
S'NNS'
p745
S'I-NP'
p746
g5
tp747
a(S'for'
p748
S'for'
p749
S'IN'
p750
S'B-PP'
p751
g5
tp752
a(S'plasma'
p753
S'plasma'
p754
S'NN'
p755
S'B-NP'
p756
g5
tp757
a(S'amprenavir'
p758
S'amprenavir'
p759
S'NN'
p760
S'I-NP'
p761
g5
tp762
a(g79
g79
g79
g5
g5
tp763
a(S'APV'
p764
S'APV'
p765
S'NN'
p766
S'B-NP'
p767
g5
tp768
a(g87
g87
g87
g5
g5
tp769
a(S'area'
p770
S'area'
p771
S'NN'
p772
S'B-NP'
p773
g5
tp774
a(S'under'
p775
S'under'
p776
S'IN'
p777
S'B-PP'
p778
g5
tp779
a(S'the'
p780
S'the'
p781
S'DT'
p782
S'B-NP'
p783
g5
tp784
a(S'concentration-time'
p785
S'concentration-time'
p786
S'JJ'
p787
S'I-NP'
p788
g5
tp789
a(S'profile'
p790
S'profile'
p791
S'NN'
p792
S'I-NP'
p793
g5
tp794
a(S'over'
p795
S'over'
p796
S'IN'
p797
S'B-PP'
p798
g5
tp799
a(S'the'
p800
S'the'
p801
S'DT'
p802
S'B-NP'
p803
g5
tp804
a(S'dosing'
p805
S'dosing'
p806
S'NN'
p807
S'I-NP'
p808
g5
tp809
a(S'interval'
p810
S'interval'
p811
S'NN'
p812
S'I-NP'
p813
g5
tp814
a(g79
g79
g79
g5
g5
tp815
a(S'tau'
p816
S'tau'
p817
S'SYM'
p818
g5
g5
tp819
a(g87
g87
g87
g5
g5
tp820
a(S'at'
p821
S'at'
p822
S'IN'
p823
S'B-PP'
p824
g5
tp825
a(S'steady'
p826
S'steady'
p827
S'JJ'
p828
S'B-NP'
p829
g5
tp830
a(S'state'
p831
S'state'
p832
S'NN'
p833
S'I-NP'
p834
g5
tp835
a(S'['
p836
g836
g79
g5
g5
tp837
a(S'AUC'
p838
S'AUC'
p839
S'NN'
p840
S'B-NP'
p841
g5
tp842
a(g79
g79
g79
g5
g5
tp843
a(S'0-tau'
p844
S'0-tau'
p845
S'SYM'
p846
S'B-NP'
p847
g5
tp848
a(g87
g87
g87
g5
g5
tp849
a(S']'
p850
g850
g87
g5
g5
tp851
a(g261
g261
g261
g5
g5
tp852
a(S'maximum'
p853
S'maximum'
p854
S'JJ'
p855
S'B-NP'
p856
g5
tp857
a(S'concentration'
p858
S'concentration'
p859
S'NN'
p860
S'I-NP'
p861
g5
tp862
a(S'of'
p863
S'of'
p864
S'IN'
p865
S'B-PP'
p866
g5
tp867
a(S'drug'
p868
S'drug'
p869
S'NN'
p870
S'B-NP'
p871
g5
tp872
a(S'in'
p873
S'in'
p874
S'IN'
p875
S'B-PP'
p876
g5
tp877
a(S'plasma'
p878
S'plasma'
p879
S'NN'
p880
S'B-NP'
p881
g5
tp882
a(g79
g79
g79
g5
g5
tp883
a(S'C'
p884
g884
S'NN'
p885
S'B-NP'
p886
g5
tp887
a(g79
g79
g79
g5
g5
tp888
a(S'max'
p889
S'max'
p890
S'NN'
p891
S'B-NP'
p892
g5
tp893
a(g87
g87
g87
g5
g5
tp894
a(g87
g87
g87
g5
g5
tp895
a(g261
g261
g261
g5
g5
tp896
a(S'and'
p897
S'and'
p898
S'CC'
p899
g5
g5
tp900
a(S'plasma'
p901
S'plasma'
p902
S'NN'
p903
S'B-NP'
p904
g5
tp905
a(S'concentration'
p906
S'concentration'
p907
S'NN'
p908
S'I-NP'
p909
g5
tp910
a(S'at'
p911
S'at'
p912
S'IN'
p913
S'B-PP'
p914
g5
tp915
a(S'the'
p916
S'the'
p917
S'DT'
p918
S'B-NP'
p919
g5
tp920
a(S'end'
p921
S'end'
p922
S'NN'
p923
S'I-NP'
p924
g5
tp925
a(S'of'
p926
S'of'
p927
S'IN'
p928
S'B-PP'
p929
g5
tp930
a(S'tau'
p931
S'tau'
p932
S'SYM'
p933
S'B-NP'
p934
g5
tp935
a(S'at'
p936
S'at'
p937
S'IN'
p938
S'B-PP'
p939
g5
tp940
a(S'steady'
p941
S'steady'
p942
S'JJ'
p943
S'B-NP'
p944
g5
tp945
a(S'state'
p946
S'state'
p947
S'NN'
p948
S'I-NP'
p949
g5
tp950
a(g79
g79
g79
g5
g5
tp951
a(g884
g884
S'NN'
p952
S'B-NP'
p953
g5
tp954
a(g79
g79
g79
g5
g5
tp955
a(S'tau'
p956
S'tau'
p957
S'SYM'
p958
S'B-NP'
p959
g5
tp960
a(g87
g87
g87
g5
g5
tp961
a(g87
g87
g87
g5
g5
tp962
a(S'were'
p963
S'be'
p964
S'VBD'
p965
S'B-VP'
p966
g5
tp967
a(S'54'
p968
S'54'
p969
S'CD'
p970
S'B-NP'
p971
g5
tp972
a(g261
g261
g261
S'I-NP'
p973
g5
tp974
a(S'81'
p975
S'81'
p976
S'CD'
p977
S'I-NP'
p978
g5
tp979
a(g261
g261
g261
g5
g5
tp980
a(S'and'
p981
S'and'
p982
S'CC'
p983
g5
g5
tp984
a(S'26'
p985
S'26'
p986
S'CD'
p987
S'B-NP'
p988
g5
tp989
a(S'%'
p990
g990
S'NN'
p991
S'I-NP'
p992
g5
tp993
a(S'higher'
p994
S'high'
p995
S'JJR'
p996
S'B-ADJP'
p997
g5
tp998
a(g261
g261
g261
g5
g5
tp999
a(S'respectively'
p1000
S'respectively'
p1001
S'RB'
p1002
S'B-ADVP'
p1003
g5
tp1004
a(g261
g261
g261
g5
g5
tp1005
a(S'and'
p1006
S'and'
p1007
S'CC'
p1008
g5
g5
tp1009
a(S'the'
p1010
S'the'
p1011
S'DT'
p1012
S'B-NP'
p1013
g5
tp1014
a(S'values'
p1015
S'value'
p1016
S'NNS'
p1017
S'I-NP'
p1018
g5
tp1019
a(S'for'
p1020
S'for'
p1021
S'IN'
p1022
S'B-PP'
p1023
g5
tp1024
a(S'plasma'
p1025
S'plasma'
p1026
S'NN'
p1027
S'B-NP'
p1028
g5
tp1029
a(S'RTV'
p1030
S'RTV'
p1031
S'NN'
p1032
S'I-NP'
p1033
g5
tp1034
a(S'AUC'
p1035
S'AUC'
p1036
S'NN'
p1037
S'I-NP'
p1038
g5
tp1039
a(g79
g79
g79
g5
g5
tp1040
a(S'0-tau'
p1041
S'0-tau'
p1042
S'SYM'
p1043
S'B-NP'
p1044
g5
tp1045
a(g87
g87
g87
g5
g5
tp1046
a(g261
g261
g261
g5
g5
tp1047
a(g884
g884
S'NN'
p1048
S'B-NP'
p1049
g5
tp1050
a(g79
g79
g79
g5
g5
tp1051
a(S'max'
p1052
S'max'
p1053
S'NN'
p1054
S'B-NP'
p1055
S'B-protein'
p1056
tp1057
a(g87
g87
g87
g5
g5
tp1058
a(g261
g261
g261
g5
g5
tp1059
a(S'and'
p1060
S'and'
p1061
S'CC'
p1062
g5
g5
tp1063
a(g884
g884
S'NN'
p1064
S'B-NP'
p1065
g5
tp1066
a(g79
g79
g79
g5
g5
tp1067
a(S'tau'
p1068
S'tau'
p1069
S'SYM'
p1070
S'B-NP'
p1071
g5
tp1072
a(g87
g87
g87
g5
g5
tp1073
a(S'were'
p1074
S'be'
p1075
S'VBD'
p1076
S'B-VP'
p1077
g5
tp1078
a(S'49'
p1079
S'49'
p1080
S'CD'
p1081
S'B-NP'
p1082
g5
tp1083
a(g990
g990
S'NN'
p1084
S'I-NP'
p1085
g5
tp1086
a(S'higher'
p1087
S'high'
p1088
S'JJR'
p1089
S'B-ADVP'
p1090
g5
tp1091
a(g261
g261
g261
g5
g5
tp1092
a(S'71'
p1093
S'71'
p1094
S'CD'
p1095
S'B-NP'
p1096
g5
tp1097
a(g990
g990
S'NN'
p1098
S'I-NP'
p1099
g5
tp1100
a(S'higher'
p1101
S'high'
p1102
S'JJR'
p1103
S'B-ADJP'
p1104
g5
tp1105
a(g261
g261
g261
g5
g5
tp1106
a(S'and'
p1107
S'and'
p1108
S'CC'
p1109
g5
g5
tp1110
a(S'11'
p1111
S'11'
p1112
S'CD'
p1113
S'B-NP'
p1114
g5
tp1115
a(g990
g990
S'NN'
p1116
S'I-NP'
p1117
g5
tp1118
a(S'lower'
p1119
S'low'
p1120
S'JJR'
p1121
S'B-ADJP'
p1122
g5
tp1123
a(g261
g261
g261
g5
g5
tp1124
a(S'respectively'
p1125
S'respectively'
p1126
S'RB'
p1127
S'B-ADVP'
p1128
g5
tp1129
a(g261
g261
g261
g5
g5
tp1130
a(S'than'
p1131
S'than'
p1132
S'IN'
p1133
S'B-PP'
p1134
g5
tp1135
a(S'those'
p1136
S'those'
p1137
S'DT'
p1138
S'B-NP'
p1139
g5
tp1140
a(S'for'
p1141
S'for'
p1142
S'IN'
p1143
S'B-PP'
p1144
g5
tp1145
a(S'FPV'
p1146
S'FPV'
p1147
S'NN'
p1148
S'B-NP'
p1149
g5
tp1150
a(S'700'
p1151
S'700'
p1152
S'CD'
p1153
S'I-NP'
p1154
g5
tp1155
a(S'mg'
p1156
S'mg'
p1157
S'NN'
p1158
S'I-NP'
p1159
g5
tp1160
a(S'BID'
p1161
S'BID'
p1162
S'NN'
p1163
S'I-NP'
p1164
g5
tp1165
a(S'plus'
p1166
S'plus'
p1167
S'CC'
p1168
g5
g5
tp1169
a(S'RTV'
p1170
S'RTV'
p1171
S'NN'
p1172
S'B-NP'
p1173
g5
tp1174
a(S'100'
p1175
S'100'
p1176
S'CD'
p1177
S'I-NP'
p1178
g5
tp1179
a(S'mg'
p1180
S'mg'
p1181
S'NN'
p1182
S'I-NP'
p1183
g5
tp1184
a(S'BID.'
p1185
S'BID.'
p1186
S'NN'
p1187
S'I-NP'
p1188
g5
tp1189
a(S'For'
p1190
S'For'
p1191
S'IN'
p1192
S'B-PP'
p1193
g5
tp1194
a(S'FPV'
p1195
S'FPV'
p1196
S'NN'
p1197
S'B-NP'
p1198
g5
tp1199
a(g269
g269
S'CD'
p1200
S'I-NP'
p1201
g5
tp1202
a(g261
g261
g261
S'I-NP'
p1203
g5
tp1204
a(S'400'
p1205
S'400'
p1206
S'CD'
p1207
S'I-NP'
p1208
g5
tp1209
a(S'mg'
p1210
S'mg'
p1211
S'NN'
p1212
S'I-NP'
p1213
g5
tp1214
a(S'BID'
p1215
S'BID'
p1216
S'NN'
p1217
S'I-NP'
p1218
g5
tp1219
a(S'plus'
p1220
S'plus'
p1221
S'CC'
p1222
g5
g5
tp1223
a(S'RTV'
p1224
S'RTV'
p1225
S'NN'
p1226
S'B-NP'
p1227
g5
tp1228
a(S'200'
p1229
S'200'
p1230
S'CD'
p1231
S'I-NP'
p1232
g5
tp1233
a(S'mg'
p1234
S'mg'
p1235
S'NN'
p1236
S'I-NP'
p1237
g5
tp1238
a(S'BID'
p1239
S'BID'
p1240
S'NN'
p1241
S'I-NP'
p1242
g5
tp1243
a(g261
g261
g261
g5
g5
tp1244
a(S'the'
p1245
S'the'
p1246
S'DT'
p1247
S'B-NP'
p1248
g5
tp1249
a(S'values'
p1250
S'value'
p1251
S'NNS'
p1252
S'I-NP'
p1253
g5
tp1254
a(S'for'
p1255
S'for'
p1256
S'IN'
p1257
S'B-PP'
p1258
g5
tp1259
a(S'plasma'
p1260
S'plasma'
p1261
S'NN'
p1262
S'B-NP'
p1263
g5
tp1264
a(S'APV'
p1265
S'APV'
p1266
S'NN'
p1267
S'I-NP'
p1268
g5
tp1269
a(S'AUC'
p1270
S'AUC'
p1271
S'NN'
p1272
S'I-NP'
p1273
g5
tp1274
a(g79
g79
g79
g5
g5
tp1275
a(S'0-tau'
p1276
S'0-tau'
p1277
S'SYM'
p1278
S'B-NP'
p1279
g5
tp1280
a(g87
g87
g87
g5
g5
tp1281
a(g261
g261
g261
g5
g5
tp1282
a(g884
g884
S'NN'
p1283
S'B-NP'
p1284
g5
tp1285
a(g79
g79
g79
g5
g5
tp1286
a(S'max'
p1287
S'max'
p1288
S'NN'
p1289
S'B-NP'
p1290
S'B-protein'
p1291
tp1292
a(g87
g87
g87
g5
g5
tp1293
a(g261
g261
g261
g5
g5
tp1294
a(S'and'
p1295
S'and'
p1296
S'CC'
p1297
g5
g5
tp1298
a(g884
g884
S'NN'
p1299
S'B-NP'
p1300
g5
tp1301
a(g79
g79
g79
g5
g5
tp1302
a(S'tau'
p1303
S'tau'
p1304
S'SYM'
p1305
S'B-NP'
p1306
g5
tp1307
a(g87
g87
g87
g5
g5
tp1308
a(S'were'
p1309
S'be'
p1310
S'VBD'
p1311
S'B-VP'
p1312
g5
tp1313
a(S'26'
p1314
S'26'
p1315
S'CD'
p1316
S'B-NP'
p1317
g5
tp1318
a(g261
g261
g261
S'I-NP'
p1319
g5
tp1320
a(S'48'
p1321
S'48'
p1322
S'CD'
p1323
S'I-NP'
p1324
g5
tp1325
a(g261
g261
g261
g5
g5
tp1326
a(S'and'
p1327
S'and'
p1328
S'CC'
p1329
g5
g5
tp1330
a(S'32'
p1331
S'32'
p1332
S'CD'
p1333
S'B-NP'
p1334
g5
tp1335
a(g990
g990
S'NN'
p1336
S'I-NP'
p1337
g5
tp1338
a(S'higher'
p1339
S'high'
p1340
S'JJR'
p1341
S'B-ADJP'
p1342
g5
tp1343
a(g261
g261
g261
g5
g5
tp1344
a(S'respectively'
p1345
S'respectively'
p1346
S'RB'
p1347
S'B-ADVP'
p1348
g5
tp1349
a(g261
g261
g261
g5
g5
tp1350
a(S'and'
p1351
S'and'
p1352
S'CC'
p1353
g5
g5
tp1354
a(S'the'
p1355
S'the'
p1356
S'DT'
p1357
S'B-NP'
p1358
g5
tp1359
a(S'values'
p1360
S'value'
p1361
S'NNS'
p1362
S'I-NP'
p1363
g5
tp1364
a(S'for'
p1365
S'for'
p1366
S'IN'
p1367
S'B-PP'
p1368
g5
tp1369
a(S'plasma'
p1370
S'plasma'
p1371
S'NN'
p1372
S'B-NP'
p1373
g5
tp1374
a(S'RTV'
p1375
S'RTV'
p1376
S'NN'
p1377
S'I-NP'
p1378
g5
tp1379
a(S'AUC'
p1380
S'AUC'
p1381
S'NN'
p1382
S'I-NP'
p1383
g5
tp1384
a(g79
g79
g79
g5
g5
tp1385
a(S'0-tau'
p1386
S'0-tau'
p1387
S'SYM'
p1388
S'B-NP'
p1389
g5
tp1390
a(g87
g87
g87
g5
g5
tp1391
a(g261
g261
g261
g5
g5
tp1392
a(g884
g884
S'NN'
p1393
S'B-NP'
p1394
g5
tp1395
a(g79
g79
g79
g5
g5
tp1396
a(S'max'
p1397
S'max'
p1398
S'NN'
p1399
S'B-NP'
p1400
S'B-protein'
p1401
tp1402
a(g87
g87
g87
g5
g5
tp1403
a(g261
g261
g261
g5
g5
tp1404
a(S'and'
p1405
S'and'
p1406
S'CC'
p1407
g5
g5
tp1408
a(g884
g884
S'NN'
p1409
S'B-NP'
p1410
g5
tp1411
a(g79
g79
g79
g5
g5
tp1412
a(S'tau'
p1413
S'tau'
p1414
S'SYM'
p1415
S'B-NP'
p1416
g5
tp1417
a(g87
g87
g87
g5
g5
tp1418
a(S'increased'
p1419
S'increase'
p1420
S'VBD'
p1421
S'B-VP'
p1422
g5
tp1423
a(S'4.15-fold'
p1424
S'4.15-fold'
p1425
S'RB'
p1426
S'B-ADVP'
p1427
g5
tp1428
a(g261
g261
g261
g5
g5
tp1429
a(S'4.17-fold'
p1430
S'4.17-fold'
p1431
S'RB'
p1432
S'B-ADVP'
p1433
g5
tp1434
a(g261
g261
g261
g5
g5
tp1435
a(S'and'
p1436
S'and'
p1437
S'CC'
p1438
g5
g5
tp1439
a(S'3.99-fold'
p1440
S'3.99-fold'
p1441
S'RB'
p1442
S'B-ADVP'
p1443
g5
tp1444
a(g261
g261
g261
g5
g5
tp1445
a(S'respectively'
p1446
S'respectively'
p1447
S'RB'
p1448
S'B-ADVP'
p1449
g5
tp1450
a(g261
g261
g261
g5
g5
tp1451
a(S'compared'
p1452
S'compare'
p1453
S'VBN'
p1454
S'B-PP'
p1455
g5
tp1456
a(S'to'
p1457
S'to'
p1458
S'TO'
p1459
S'B-PP'
p1460
g5
tp1461
a(S'those'
p1462
S'those'
p1463
S'DT'
p1464
S'B-NP'
p1465
g5
tp1466
a(S'for'
p1467
S'for'
p1468
S'IN'
p1469
S'B-PP'
p1470
g5
tp1471
a(S'FPV'
p1472
S'FPV'
p1473
S'NN'
p1474
S'B-NP'
p1475
g5
tp1476
a(S'700'
p1477
S'700'
p1478
S'CD'
p1479
S'I-NP'
p1480
g5
tp1481
a(S'mg'
p1482
S'mg'
p1483
S'NN'
p1484
S'I-NP'
p1485
g5
tp1486
a(S'BID'
p1487
S'BID'
p1488
S'NN'
p1489
S'I-NP'
p1490
g5
tp1491
a(S'plus'
p1492
S'plus'
p1493
S'CC'
p1494
g5
g5
tp1495
a(S'RTV'
p1496
S'RTV'
p1497
S'NN'
p1498
S'B-NP'
p1499
g5
tp1500
a(S'100'
p1501
S'100'
p1502
S'CD'
p1503
S'I-NP'
p1504
g5
tp1505
a(S'mg'
p1506
S'mg'
p1507
S'NN'
p1508
S'I-NP'
p1509
g5
tp1510
a(S'BID.'
p1511
S'BID.'
p1512
S'NNP'
p1513
S'I-NP'
p1514
g5
tp1515
a(S'FPV'
p1516
S'FPV'
p1517
S'NNP'
p1518
S'I-NP'
p1519
g5
tp1520
a(g269
g269
S'CD'
p1521
S'I-NP'
p1522
g5
tp1523
a(g261
g261
g261
S'I-NP'
p1524
g5
tp1525
a(S'400'
p1526
S'400'
p1527
S'CD'
p1528
S'I-NP'
p1529
g5
tp1530
a(S'mg'
p1531
S'mg'
p1532
S'NN'
p1533
S'I-NP'
p1534
g5
tp1535
a(S'BID'
p1536
S'BID'
p1537
S'NN'
p1538
S'I-NP'
p1539
g5
tp1540
a(S'plus'
p1541
S'plus'
p1542
S'CC'
p1543
g5
g5
tp1544
a(S'RTV'
p1545
S'RTV'
p1546
S'NN'
p1547
S'B-NP'
p1548
g5
tp1549
a(S'200'
p1550
S'200'
p1551
S'CD'
p1552
S'I-NP'
p1553
g5
tp1554
a(S'mg'
p1555
S'mg'
p1556
S'NN'
p1557
S'I-NP'
p1558
g5
tp1559
a(S'BID'
p1560
S'BID'
p1561
S'NN'
p1562
S'I-NP'
p1563
g5
tp1564
a(S'is'
p1565
S'be'
p1566
S'VBZ'
p1567
S'B-VP'
p1568
g5
tp1569
a(S'not'
p1570
S'not'
p1571
S'RB'
p1572
S'I-VP'
p1573
g5
tp1574
a(S'recommended'
p1575
S'recommend'
p1576
S'VBN'
p1577
S'I-VP'
p1578
g5
tp1579
a(S'due'
p1580
S'due'
p1581
S'JJ'
p1582
S'B-ADJP'
p1583
g5
tp1584
a(S'to'
p1585
S'to'
p1586
S'TO'
p1587
S'B-PP'
p1588
g5
tp1589
a(S'an'
p1590
S'an'
p1591
S'DT'
p1592
S'B-NP'
p1593
g5
tp1594
a(S'increased'
p1595
S'increase'
p1596
S'VBN'
p1597
S'I-NP'
p1598
g5
tp1599
a(S'rate'
p1600
S'rate'
p1601
S'NN'
p1602
S'I-NP'
p1603
g5
tp1604
a(S'of'
p1605
S'of'
p1606
S'IN'
p1607
S'B-PP'
p1608
g5
tp1609
a(S'marked'
p1610
S'marked'
p1611
S'JJ'
p1612
S'B-NP'
p1613
g5
tp1614
a(S'hepatic'
p1615
S'hepatic'
p1616
S'JJ'
p1617
S'I-NP'
p1618
g5
tp1619
a(S'transaminase'
p1620
S'transaminase'
p1621
S'NN'
p1622
S'I-NP'
p1623
g5
tp1624
a(S'elevations'
p1625
S'elevation'
p1626
S'NNS'
p1627
S'I-NP'
p1628
g5
tp1629
a(S'and'
p1630
S'and'
p1631
S'CC'
p1632
g5
g5
tp1633
a(S'lack'
p1634
S'lack'
p1635
S'NN'
p1636
S'B-NP'
p1637
g5
tp1638
a(S'of'
p1639
S'of'
p1640
S'IN'
p1641
S'B-PP'
p1642
g5
tp1643
a(S'pharmacokinetic'
p1644
S'pharmacokinetic'
p1645
S'JJ'
p1646
S'B-NP'
p1647
g5
tp1648
a(S'advantage.'
p1649
S'advantage.'
p1650
S'NN'
p1651
S'I-NP'
p1652
g5
tp1653
a(S'FPV'
p1654
S'FPV'
p1655
S'NN'
p1656
S'I-NP'
p1657
g5
tp1658
a(g269
g269
S'CD'
p1659
S'I-NP'
p1660
g5
tp1661
a(g261
g261
g261
S'I-NP'
p1662
g5
tp1663
a(S'400'
p1664
S'400'
p1665
S'CD'
p1666
S'I-NP'
p1667
g5
tp1668
a(S'mg'
p1669
S'mg'
p1670
S'NN'
p1671
S'I-NP'
p1672
g5
tp1673
a(S'BID'
p1674
S'BID'
p1675
S'NN'
p1676
S'I-NP'
p1677
g5
tp1678
a(S'plus'
p1679
S'plus'
p1680
S'CC'
p1681
g5
g5
tp1682
a(S'RTV'
p1683
S'RTV'
p1684
S'NN'
p1685
S'B-NP'
p1686
g5
tp1687
a(S'100'
p1688
S'100'
p1689
S'CD'
p1690
S'I-NP'
p1691
g5
tp1692
a(S'mg'
p1693
S'mg'
p1694
S'NN'
p1695
S'I-NP'
p1696
g5
tp1697
a(S'BID'
p1698
S'BID'
p1699
S'NN'
p1700
S'I-NP'
p1701
g5
tp1702
a(S'is'
p1703
S'be'
p1704
S'VBZ'
p1705
S'B-VP'
p1706
g5
tp1707
a(S'currently'
p1708
S'currently'
p1709
S'RB'
p1710
S'B-ADVP'
p1711
g5
tp1712
a(S'under'
p1713
S'under'
p1714
S'IN'
p1715
S'B-PP'
p1716
g5
tp1717
a(S'clinical'
p1718
S'clinical'
p1719
S'JJ'
p1720
S'B-NP'
p1721
g5
tp1722
a(S'evaluation'
p1723
S'evaluation'
p1724
S'NN'
p1725
S'I-NP'
p1726
g5
tp1727
a(S'in'
p1728
S'in'
p1729
S'IN'
p1730
S'B-PP'
p1731
g5
tp1732
a(S'multiple'
p1733
S'multiple'
p1734
S'JJ'
p1735
S'B-NP'
p1736
g5
tp1737
a(S'PI-experienced'
p1738
S'PI-experienced'
p1739
S'JJ'
p1740
S'I-NP'
p1741
g5
tp1742
a(S'patients'
p1743
S'patient'
p1744
S'NNS'
p1745
S'I-NP'
p1746
g5
tp1747
a(g57
g57
g57
g5
g5
tp1748
a.