(lp0
(S'['
p1
g1
S'('
p2
S'O'
p3
g3
tp4
a(S'How'
p5
S'How'
p6
S'WRB'
p7
S'B-ADVP'
p8
g3
tp9
a(S'to'
p10
S'to'
p11
S'TO'
p12
S'B-VP'
p13
g3
tp14
a(S'treat'
p15
S'treat'
p16
S'VB'
p17
S'I-VP'
p18
g3
tp19
a(S'the'
p20
S'the'
p21
S'DT'
p22
S'B-NP'
p23
g3
tp24
a(S'relapse'
p25
S'relapse'
p26
S'NN'
p27
S'I-NP'
p28
g3
tp29
a(S'of'
p30
S'of'
p31
S'IN'
p32
S'B-PP'
p33
g3
tp34
a(S'NSCLC'
p35
S'NSCLC'
p36
S'NN'
p37
S'B-NP'
p38
S'B-protein'
p39
tp40
a(S'after'
p41
S'after'
p42
S'IN'
p43
S'B-PP'
p44
g3
tp45
a(S'surgery'
p46
S'surgery'
p47
S'NN'
p48
S'B-NP'
p49
g3
tp50
a(S'and'
p51
S'and'
p52
S'CC'
p53
S'I-NP'
p54
g3
tp55
a(S'chemotherapy'
p56
S'chemotherapy'
p57
S'NN'
p58
S'I-NP'
p59
g3
tp60
a(S'?'
p61
g61
S'.'
p62
g3
g3
tp63
a(S'IFTC'
p64
S'IFTC'
p65
S'NNP'
p66
S'B-NP'
p67
g3
tp68
a(S'0702'
p69
S'0702'
p70
S'CC'
p71
g3
g3
tp72
a(S'randomized'
p73
S'randomize'
p74
S'VBD'
p75
S'B-VP'
p76
g3
tp77
a(S'phase'
p78
S'phase'
p79
S'NN'
p80
S'B-NP'
p81
g3
tp82
a(S'III'
p83
S'III'
p84
S'CD'
p85
S'I-NP'
p86
g3
tp87
a(S'study'
p88
S'study'
p89
S'NN'
p90
S'I-NP'
p91
g3
tp92
a(S']'
p93
g93
S')'
p94
g3
g3
tp95
a(g62
g62
g62
g3
g3
tp96
a(S'BACKGROUND'
p97
S'BACKGROUND'
p98
S'NN'
p99
S'B-NP'
p100
g3
tp101
a(S'As'
p102
S'As'
p103
S'IN'
p104
S'B-PP'
p105
g3
tp106
a(S'chemotherapy'
p107
S'chemotherapy'
p108
S'NN'
p109
S'B-NP'
p110
g3
tp111
a(S'gains'
p112
S'gain'
p113
S'NNS'
p114
S'I-NP'
p115
g3
tp116
a(S'wider'
p117
S'wide'
p118
S'JJR'
p119
S'B-NP'
p120
g3
tp121
a(S'acceptance'
p122
S'acceptance'
p123
S'NN'
p124
S'I-NP'
p125
g3
tp126
a(S'for'
p127
S'for'
p128
S'IN'
p129
S'B-PP'
p130
g3
tp131
a(S'the'
p132
S'the'
p133
S'DT'
p134
S'B-NP'
p135
g3
tp136
a(S'treatment'
p137
S'treatment'
p138
S'NN'
p139
S'I-NP'
p140
g3
tp141
a(S'of'
p142
S'of'
p143
S'IN'
p144
S'B-PP'
p145
g3
tp146
a(S'earlier'
p147
S'early'
p148
S'JJR'
p149
S'B-NP'
p150
g3
tp151
a(S'stages'
p152
S'stage'
p153
S'NNS'
p154
S'I-NP'
p155
g3
tp156
a(S'of'
p157
S'of'
p158
S'IN'
p159
S'B-PP'
p160
g3
tp161
a(S'NSCLC'
p162
S'NSCLC'
p163
S'NN'
p164
S'B-NP'
p165
S'B-protein'
p166
tp167
a(S','
p168
g168
g168
g3
g3
tp169
a(S'particularly'
p170
S'particularly'
p171
S'RB'
p172
S'B-ADVP'
p173
g3
tp174
a(S'in'
p175
S'in'
p176
S'IN'
p177
S'B-PP'
p178
g3
tp179
a(S'the'
p180
S'the'
p181
S'DT'
p182
S'B-NP'
p183
g3
tp184
a(S'adjuvant'
p185
S'adjuvant'
p186
S'JJ'
p187
S'I-NP'
p188
g3
tp189
a(S'and'
p190
S'and'
p191
S'CC'
p192
S'I-NP'
p193
g3
tp194
a(S'neoadjuvant'
p195
S'neoadjuvant'
p196
S'JJ'
p197
S'I-NP'
p198
g3
tp199
a(S'setting'
p200
S'setting'
p201
S'NN'
p202
S'I-NP'
p203
g3
tp204
a(g168
g168
g168
g3
g3
tp205
a(S'physicians'
p206
S'physician'
p207
S'NNS'
p208
S'B-NP'
p209
g3
tp210
a(S'face'
p211
S'face'
p212
S'VBP'
p213
S'B-VP'
p214
g3
tp215
a(S'a'
p216
g216
S'DT'
p217
S'B-NP'
p218
g3
tp219
a(S'growing'
p220
S'grow'
p221
S'VBG'
p222
S'I-NP'
p223
g3
tp224
a(S'population'
p225
S'population'
p226
S'NN'
p227
S'I-NP'
p228
g3
tp229
a(S'of'
p230
S'of'
p231
S'IN'
p232
S'B-PP'
p233
g3
tp234
a(S'high'
p235
S'high'
p236
S'JJ'
p237
S'B-NP'
p238
g3
tp239
a(S'performance'
p240
S'performance'
p241
S'NN'
p242
S'I-NP'
p243
g3
tp244
a(S'status'
p245
S'status'
p246
S'NN'
p247
S'I-NP'
p248
g3
tp249
a(S'patients'
p250
S'patient'
p251
S'NNS'
p252
S'I-NP'
p253
g3
tp254
a(S'who'
p255
S'who'
p256
S'WP'
p257
S'B-NP'
p258
g3
tp259
a(S'have'
p260
S'have'
p261
S'VBP'
p262
S'B-VP'
p263
g3
tp264
a(S'relapsed'
p265
S'relapse'
p266
S'VBN'
p267
S'I-VP'
p268
g3
tp269
a(S'after'
p270
S'after'
p271
S'IN'
p272
S'B-PP'
p273
g3
tp274
a(S'their'
p275
S'their'
p276
S'PRP$'
p277
S'B-NP'
p278
g3
tp279
a(S'first-line'
p280
S'first-line'
p281
S'JJ'
p282
S'I-NP'
p283
g3
tp284
a(S'chemotherapy.'
p285
S'chemotherapy.'
p286
S'NN'
p287
S'I-NP'
p288
g3
tp289
a(S'The'
p290
S'The'
p291
S'DT'
p292
S'B-NP'
p293
g3
tp294
a(S'type'
p295
S'type'
p296
S'NN'
p297
S'I-NP'
p298
g3
tp299
a(S'of'
p300
S'of'
p301
S'IN'
p302
S'B-PP'
p303
g3
tp304
a(S'second-line'
p305
S'second-line'
p306
S'JJ'
p307
S'B-NP'
p308
g3
tp309
a(S'chemotherapy'
p310
S'chemotherapy'
p311
S'NN'
p312
S'I-NP'
p313
g3
tp314
a(S'after'
p315
S'after'
p316
S'IN'
p317
S'B-PP'
p318
g3
tp319
a(S'initial'
p320
S'initial'
p321
S'JJ'
p322
S'B-NP'
p323
g3
tp324
a(S'adjuvant'
p325
S'adjuvant'
p326
S'JJ'
p327
S'I-NP'
p328
g3
tp329
a(S'or'
p330
S'or'
p331
S'CC'
p332
S'I-NP'
p333
g3
tp334
a(S'neoadjuvant'
p335
S'neoadjuvant'
p336
S'JJ'
p337
S'I-NP'
p338
g3
tp339
a(S'treatment'
p340
S'treatment'
p341
S'NN'
p342
S'I-NP'
p343
g3
tp344
a(S'with'
p345
S'with'
p346
S'IN'
p347
S'B-PP'
p348
g3
tp349
a(g216
g216
S'DT'
p350
S'B-NP'
p351
g3
tp352
a(S'platinum-based'
p353
S'platinum-based'
p354
S'JJ'
p355
S'I-NP'
p356
g3
tp357
a(S'regimen'
p358
S'regimen'
p359
S'NN'
p360
S'I-NP'
p361
g3
tp362
a(S'remains'
p363
S'remain'
p364
S'VBZ'
p365
S'B-VP'
p366
g3
tp367
a(S'largely'
p368
S'largely'
p369
S'RB'
p370
S'B-NP'
p371
g3
tp372
a(S'undefined.'
p373
S'undefined.'
p374
S'JJ'
p375
S'I-NP'
p376
g3
tp377
a(S'The'
p378
S'The'
p379
S'DT'
p380
S'I-NP'
p381
g3
tp382
a(S'current'
p383
S'current'
p384
S'JJ'
p385
S'I-NP'
p386
g3
tp387
a(S'study'
p388
S'study'
p389
S'NN'
p390
S'I-NP'
p391
g3
tp392
a(S'has'
p393
S'have'
p394
S'VBZ'
p395
S'B-VP'
p396
g3
tp397
a(S'been'
p398
S'be'
p399
S'VBN'
p400
S'I-VP'
p401
g3
tp402
a(S'designed'
p403
S'design'
p404
S'VBN'
p405
S'I-VP'
p406
g3
tp407
a(S'to'
p408
S'to'
p409
S'TO'
p410
S'I-VP'
p411
g3
tp412
a(S'compare'
p413
S'compare'
p414
S'VB'
p415
S'I-VP'
p416
g3
tp417
a(S'the'
p418
S'the'
p419
S'DT'
p420
S'B-NP'
p421
g3
tp422
a(S'classical'
p423
S'classical'
p424
S'JJ'
p425
S'I-NP'
p426
g3
tp427
a(S'mono'
p428
S'mono'
p429
S'NN'
p430
S'I-NP'
p431
g3
tp432
a(S'chemotherapy'
p433
S'chemotherapy'
p434
S'NN'
p435
S'I-NP'
p436
g3
tp437
a(S'docetaxel'
p438
S'docetaxel'
p439
S'NN'
p440
S'I-NP'
p441
g3
tp442
a(S'with'
p443
S'with'
p444
S'IN'
p445
S'B-PP'
p446
g3
tp447
a(g216
g216
S'DT'
p448
S'B-NP'
p449
g3
tp450
a(S'docetaxel'
p451
S'docetaxel'
p452
S'NN'
p453
S'I-NP'
p454
g3
tp455
a(S'cisplatin'
p456
S'cisplatin'
p457
S'NN'
p458
S'I-NP'
p459
g3
tp460
a(S'doublet'
p461
S'doublet'
p462
S'NN'
p463
S'I-NP'
p464
g3
tp465
a(g62
g62
g62
g3
g3
tp466
a(S'METHODS'
p467
S'METHODS'
p468
S'NNS'
p469
S'B-NP'
p470
g3
tp471
a(S'Patients'
p472
S'Patient'
p473
S'NNS'
p474
S'I-NP'
p475
g3
tp476
a(S'will'
p477
S'will'
p478
S'MD'
p479
S'B-VP'
p480
g3
tp481
a(S'be'
p482
S'be'
p483
S'VB'
p484
S'I-VP'
p485
g3
tp486
a(S'randomized'
p487
S'randomize'
p488
S'VBN'
p489
S'I-VP'
p490
g3
tp491
a(S'in'
p492
S'in'
p493
S'IN'
p494
S'B-PP'
p495
g3
tp496
a(S'2'
p497
g497
S'CD'
p498
S'B-NP'
p499
g3
tp500
a(S'arms.'
p501
S'arms.'
p502
S'NN'
p503
S'I-NP'
p504
g3
tp505
a(S'Arm'
p506
S'Arm'
p507
S'NNP'
p508
S'I-NP'
p509
g3
tp510
a(S':'
p511
g511
g511
g3
g3
tp512
a(S'docetaxel'
p513
S'docetaxel'
p514
S'NN'
p515
S'B-NP'
p516
g3
tp517
a(S'cisplatin'
p518
S'cisplatin'
p519
S'NN'
p520
S'I-NP'
p521
g3
tp522
a(g2
g2
g2
g3
g3
tp523
a(S'cycles'
p524
S'cycle'
p525
S'NNS'
p526
S'B-NP'
p527
g3
tp528
a(S'repeated'
p529
S'repeat'
p530
S'VBN'
p531
S'B-VP'
p532
g3
tp533
a(S'every'
p534
S'every'
p535
S'DT'
p536
S'B-NP'
p537
g3
tp538
a(S'21'
p539
S'21'
p540
S'CD'
p541
S'I-NP'
p542
g3
tp543
a(S'days'
p544
S'day'
p545
S'NNS'
p546
S'I-NP'
p547
g3
tp548
a(g94
g94
g94
g3
g3
tp549
a(g168
g168
g168
g3
g3
tp550
a(S'4'
p551
g551
S'CD'
p552
S'B-NP'
p553
g3
tp554
a(S'cycles'
p555
S'cycle'
p556
S'NNS'
p557
S'I-NP'
p558
g3
tp559
a(S'followed'
p560
S'follow'
p561
S'VBN'
p562
S'B-VP'
p563
g3
tp564
a(S'by'
p565
S'by'
p566
S'IN'
p567
S'B-PP'
p568
g3
tp569
a(g497
g497
S'CD'
p570
S'B-NP'
p571
g3
tp572
a(S'cycles'
p573
S'cycle'
p574
S'NNS'
p575
S'I-NP'
p576
g3
tp577
a(S'of'
p578
S'of'
p579
S'IN'
p580
S'B-PP'
p581
g3
tp582
a(S'docetaxel'
p583
S'docetaxel'
p584
S'NN'
p585
S'B-NP'
p586
g3
tp587
a(S'alone'
p588
S'alone'
p589
S'RB'
p590
S'B-ADVP'
p591
g3
tp592
a(S'in'
p593
S'in'
p594
S'IN'
p595
S'B-PP'
p596
g3
tp597
a(S'case'
p598
S'case'
p599
S'NN'
p600
S'B-NP'
p601
g3
tp602
a(S'of'
p603
S'of'
p604
S'IN'
p605
S'B-PP'
p606
g3
tp607
a(S'objective'
p608
S'objective'
p609
S'JJ'
p610
S'B-NP'
p611
g3
tp612
a(S'response'
p613
S'response'
p614
S'NN'
p615
S'I-NP'
p616
g3
tp617
a(S'or'
p618
S'or'
p619
S'CC'
p620
S'I-NP'
p621
g3
tp622
a(S'stabilisation.'
p623
S'stabilisation.'
p624
S'NN'
p625
S'I-NP'
p626
g3
tp627
a(S'Arm'
p628
S'Arm'
p629
S'NN'
p630
S'I-NP'
p631
g3
tp632
a(S'B'
p633
g633
S'NN'
p634
S'I-NP'
p635
g3
tp636
a(g511
g511
g511
g3
g3
tp637
a(S'docetaxel'
p638
S'docetaxel'
p639
S'NN'
p640
S'B-NP'
p641
g3
tp642
a(S'alone'
p643
S'alone'
p644
S'RB'
p645
S'B-ADVP'
p646
g3
tp647
a(g2
g2
g2
g3
g3
tp648
a(S'cycles'
p649
S'cycle'
p650
S'NNS'
p651
S'B-NP'
p652
g3
tp653
a(S'repeated'
p654
S'repeat'
p655
S'VBN'
p656
S'B-VP'
p657
g3
tp658
a(S'every'
p659
S'every'
p660
S'DT'
p661
S'B-NP'
p662
g3
tp663
a(S'21'
p664
S'21'
p665
S'CD'
p666
S'I-NP'
p667
g3
tp668
a(S'days'
p669
S'day'
p670
S'NNS'
p671
S'I-NP'
p672
g3
tp673
a(g94
g94
g94
g3
g3
tp674
a(g168
g168
g168
g3
g3
tp675
a(g551
g551
S'CD'
p676
S'B-NP'
p677
g3
tp678
a(S'cycles'
p679
S'cycle'
p680
S'NNS'
p681
S'I-NP'
p682
g3
tp683
a(S'followed'
p684
S'follow'
p685
S'VBN'
p686
S'B-VP'
p687
g3
tp688
a(S'by'
p689
S'by'
p690
S'IN'
p691
S'B-PP'
p692
g3
tp693
a(g497
g497
S'CD'
p694
S'B-NP'
p695
g3
tp696
a(S'cycles'
p697
S'cycle'
p698
S'NNS'
p699
S'I-NP'
p700
g3
tp701
a(S'of'
p702
S'of'
p703
S'IN'
p704
S'B-PP'
p705
g3
tp706
a(S'docetaxel'
p707
S'docetaxel'
p708
S'NN'
p709
S'B-NP'
p710
g3
tp711
a(S'alone'
p712
S'alone'
p713
S'RB'
p714
S'B-ADVP'
p715
g3
tp716
a(S'in'
p717
S'in'
p718
S'IN'
p719
S'B-PP'
p720
g3
tp721
a(S'case'
p722
S'case'
p723
S'NN'
p724
S'B-NP'
p725
g3
tp726
a(S'of'
p727
S'of'
p728
S'IN'
p729
S'B-PP'
p730
g3
tp731
a(S'objective'
p732
S'objective'
p733
S'JJ'
p734
S'B-NP'
p735
g3
tp736
a(S'response'
p737
S'response'
p738
S'NN'
p739
S'I-NP'
p740
g3
tp741
a(S'or'
p742
S'or'
p743
S'CC'
p744
S'I-NP'
p745
g3
tp746
a(S'stabilisation'
p747
S'stabilisation'
p748
S'NN'
p749
S'I-NP'
p750
g3
tp751
a(g62
g62
g62
g3
g3
tp752
a(S'EXPECTED'
p753
S'EXPECTED'
p754
S'VBN'
p755
S'B-NP'
p756
g3
tp757
a(S'RESULTS'
p758
S'RESULTS'
p759
S'NNS'
p760
S'I-NP'
p761
g3
tp762
a(S'300'
p763
S'300'
p764
S'CD'
p765
S'B-NP'
p766
g3
tp767
a(S'patients'
p768
S'patient'
p769
S'NNS'
p770
S'I-NP'
p771
g3
tp772
a(S'will'
p773
S'will'
p774
S'MD'
p775
S'B-VP'
p776
g3
tp777
a(S'be'
p778
S'be'
p779
S'VB'
p780
S'I-VP'
p781
g3
tp782
a(S'randomized'
p783
S'randomize'
p784
S'VBN'
p785
S'I-VP'
p786
g3
tp787
a(S'with'
p788
S'with'
p789
S'IN'
p790
S'B-PP'
p791
g3
tp792
a(g216
g216
S'DT'
p793
S'B-NP'
p794
g3
tp795
a(S'statistical'
p796
S'statistical'
p797
S'JJ'
p798
S'I-NP'
p799
g3
tp800
a(S'hypothesis'
p801
S'hypothesis'
p802
S'NN'
p803
S'I-NP'
p804
g3
tp805
a(S'of'
p806
S'of'
p807
S'IN'
p808
S'B-PP'
p809
g3
tp810
a(g216
g216
S'DT'
p811
S'B-NP'
p812
g3
tp813
a(S'progression'
p814
S'progression'
p815
S'NN'
p816
S'I-NP'
p817
g3
tp818
a(S'free'
p819
S'free'
p820
S'JJ'
p821
S'I-NP'
p822
g3
tp823
a(S'survival'
p824
S'survival'
p825
S'NN'
p826
S'I-NP'
p827
g3
tp828
a(S'of'
p829
S'of'
p830
S'IN'
p831
S'B-PP'
p832
g3
tp833
a(S'3'
p834
g834
S'CD'
p835
S'B-NP'
p836
g3
tp837
a(S'months'
p838
S'month'
p839
S'NNS'
p840
S'I-NP'
p841
g3
tp842
a(S'in'
p843
S'in'
p844
S'IN'
p845
S'B-PP'
p846
g3
tp847
a(S'the'
p848
S'the'
p849
S'DT'
p850
S'B-NP'
p851
g3
tp852
a(S'control'
p853
S'control'
p854
S'NN'
p855
S'I-NP'
p856
g3
tp857
a(S'arm'
p858
S'arm'
p859
S'NN'
p860
S'I-NP'
p861
g3
tp862
a(S'and'
p863
S'and'
p864
S'CC'
p865
S'B-PP'
p866
g3
tp867
a(S'of'
p868
S'of'
p869
S'IN'
p870
S'B-PP'
p871
g3
tp872
a(S'4.5'
p873
S'4.5'
p874
S'CD'
p875
S'B-NP'
p876
g3
tp877
a(S'months'
p878
S'month'
p879
S'NNS'
p880
S'I-NP'
p881
g3
tp882
a(S'in'
p883
S'in'
p884
S'IN'
p885
S'B-PP'
p886
g3
tp887
a(S'the'
p888
S'the'
p889
S'DT'
p890
S'B-NP'
p891
g3
tp892
a(S'experimental'
p893
S'experimental'
p894
S'JJ'
p895
S'I-NP'
p896
g3
tp897
a(S'arm'
p898
S'arm'
p899
S'NN'
p900
S'I-NP'
p901
g3
tp902
a(g62
g62
g62
g3
g3
tp903
a.