(lp0
(S'Haemodynamic'
p1
S'Haemodynamic'
p2
S'JJ'
p3
S'B-NP'
p4
S'O'
p5
tp6
a(S'profile'
p7
S'profile'
p8
S'NN'
p9
S'I-NP'
p10
g5
tp11
a(S'of'
p12
S'of'
p13
S'IN'
p14
S'B-PP'
p15
g5
tp16
a(S'angiotensin'
p17
S'angiotensin'
p18
S'NN'
p19
S'B-NP'
p20
g5
tp21
a(S'II'
p22
S'II'
p23
S'CD'
p24
S'I-NP'
p25
g5
tp26
a(S'antagonism'
p27
S'antagonism'
p28
S'NN'
p29
S'I-NP'
p30
g5
tp31
a(S'in'
p32
S'in'
p33
S'IN'
p34
S'B-PP'
p35
g5
tp36
a(S'essential'
p37
S'essential'
p38
S'JJ'
p39
S'B-NP'
p40
g5
tp41
a(S'hypertensive'
p42
S'hypertensive'
p43
S'JJ'
p44
S'I-NP'
p45
g5
tp46
a(S'patients'
p47
S'patient'
p48
S'NNS'
p49
S'I-NP'
p50
g5
tp51
a(S'.'
p52
g52
g52
g5
g5
tp53
a(S'1.'
p54
S'1.'
p55
S'LS'
p56
S'B-LST'
p57
g5
tp58
a(S'The'
p59
S'The'
p60
S'DT'
p61
S'B-NP'
p62
g5
tp63
a(S'haemodynamic'
p64
S'haemodynamic'
p65
S'JJ'
p66
S'I-NP'
p67
g5
tp68
a(S'response'
p69
S'response'
p70
S'NN'
p71
S'I-NP'
p72
g5
tp73
a(S'to'
p74
S'to'
p75
S'TO'
p76
S'B-PP'
p77
g5
tp78
a(S'antagonistic'
p79
S'antagonistic'
p80
S'JJ'
p81
S'B-NP'
p82
g5
tp83
a(S'('
p84
g84
g84
g5
g5
tp85
a(S'10'
p86
S'10'
p87
S'CD'
p88
S'B-NP'
p89
g5
tp90
a(S'microgram'
p91
S'microgram'
p92
S'NN'
p93
S'I-NP'
p94
g5
tp95
a(S'min-1'
p96
S'min-1'
p97
S'NN'
p98
S'I-NP'
p99
g5
tp100
a(S'kg-1'
p101
S'kg-1'
p102
S'NN'
p103
S'I-NP'
p104
g5
tp105
a(S')'
p106
g106
g106
g5
g5
tp107
a(S'and'
p108
S'and'
p109
S'CC'
p110
g5
g5
tp111
a(S'agonistic'
p112
S'agonistic'
p113
S'JJ'
p114
S'B-ADJP'
p115
g5
tp116
a(g84
g84
g84
g5
g5
tp117
a(S'40'
p118
S'40'
p119
S'CD'
p120
S'B-NP'
p121
g5
tp122
a(S'microgram'
p123
S'microgram'
p124
S'NN'
p125
S'I-NP'
p126
g5
tp127
a(S'min-1'
p128
S'min-1'
p129
S'NN'
p130
S'I-NP'
p131
g5
tp132
a(S'kg-1'
p133
S'kg-1'
p134
S'NN'
p135
S'I-NP'
p136
g5
tp137
a(g106
g106
g106
g5
g5
tp138
a(S'doses'
p139
S'dose'
p140
S'NNS'
p141
S'B-NP'
p142
g5
tp143
a(S'of'
p144
S'of'
p145
S'IN'
p146
S'B-PP'
p147
g5
tp148
a(S'saralasin'
p149
S'saralasin'
p150
S'NN'
p151
S'B-NP'
p152
g5
tp153
a(S'was'
p154
S'be'
p155
S'VBD'
p156
S'B-VP'
p157
g5
tp158
a(S'studied'
p159
S'study'
p160
S'VBN'
p161
S'I-VP'
p162
g5
tp163
a(S'in'
p164
S'in'
p165
S'IN'
p166
S'B-PP'
p167
g5
tp168
a(S'young'
p169
S'young'
p170
S'JJ'
p171
S'B-NP'
p172
g5
tp173
a(S'essential'
p174
S'essential'
p175
S'JJ'
p176
S'I-NP'
p177
g5
tp178
a(S'hypertensive'
p179
S'hypertensive'
p180
S'JJ'
p181
S'I-NP'
p182
g5
tp183
a(S'patients.'
p184
S'patients.'
p185
S'NN'
p186
S'I-NP'
p187
g5
tp188
a(S'Blood'
p189
S'Blood'
p190
S'NN'
p191
S'I-NP'
p192
g5
tp193
a(S'pressure'
p194
S'pressure'
p195
S'NN'
p196
S'I-NP'
p197
g5
tp198
a(S'behaviour'
p199
S'behaviour'
p200
S'NN'
p201
S'I-NP'
p202
g5
tp203
a(S'alone'
p204
S'alone'
p205
S'RB'
p206
S'B-ADVP'
p207
g5
tp208
a(S'was'
p209
S'be'
p210
S'VBD'
p211
S'B-VP'
p212
g5
tp213
a(S'thought'
p214
S'think'
p215
S'VBN'
p216
S'I-VP'
p217
g5
tp218
a(S'to'
p219
S'to'
p220
S'TO'
p221
S'I-VP'
p222
g5
tp223
a(S'be'
p224
S'be'
p225
S'VB'
p226
S'I-VP'
p227
g5
tp228
a(S'inadequate'
p229
S'inadequate'
p230
S'JJ'
p231
S'B-ADJP'
p232
g5
tp233
a(S'to'
p234
S'to'
p235
S'TO'
p236
S'B-VP'
p237
g5
tp238
a(S'describe'
p239
S'describe'
p240
S'VB'
p241
S'I-VP'
p242
g5
tp243
a(S'the'
p244
S'the'
p245
S'DT'
p246
S'B-NP'
p247
g5
tp248
a(S'response'
p249
S'response'
p250
S'NN'
p251
S'I-NP'
p252
g5
tp253
a(S'pattern.'
p254
S'pattern.'
p255
S'NN'
p256
S'I-NP'
p257
g5
tp258
a(S'2.'
p259
S'2.'
p260
S'CD'
p261
S'I-NP'
p262
g5
tp263
a(S'Pre-saralasin'
p264
S'Pre-saralasin'
p265
S'NN'
p266
S'I-NP'
p267
g5
tp268
a(S'setting'
p269
S'setting'
p270
S'NN'
p271
S'I-NP'
p272
g5
tp273
a(S'of'
p274
S'of'
p275
S'IN'
p276
S'B-PP'
p277
g5
tp278
a(S'the'
p279
S'the'
p280
S'DT'
p281
S'B-NP'
p282
g5
tp283
a(S'renin-angiotensin'
p284
S'renin-angiotensin'
p285
S'NN'
p286
S'I-NP'
p287
g5
tp288
a(S'axis'
p289
S'axis'
p290
S'NN'
p291
S'I-NP'
p292
g5
tp293
a(S'was'
p294
S'be'
p295
S'VBD'
p296
S'B-VP'
p297
g5
tp298
a(S'varied'
p299
S'vary'
p300
S'VBN'
p301
S'I-VP'
p302
g5
tp303
a(S'with'
p304
S'with'
p305
S'IN'
p306
S'B-PP'
p307
g5
tp308
a(S'salt'
p309
S'salt'
p310
S'NN'
p311
S'B-NP'
p312
g5
tp313
a(S'intake'
p314
S'intake'
p315
S'NN'
p316
S'I-NP'
p317
g5
tp318
a(g84
g84
g84
g5
g5
tp319
a(S'15'
p320
S'15'
p321
S'CD'
p322
S'B-NP'
p323
g5
tp324
a(S'and'
p325
S'and'
p326
S'CC'
p327
S'I-NP'
p328
g5
tp329
a(S'290'
p330
S'290'
p331
S'CD'
p332
S'I-NP'
p333
g5
tp334
a(S'mmol'
p335
S'mmol'
p336
S'NN'
p337
S'I-NP'
p338
g5
tp339
a(S'of'
p340
S'of'
p341
S'IN'
p342
S'B-PP'
p343
g5
tp344
a(S'Na+/day'
p345
S'Na+/day'
p346
S'NNP'
p347
S'B-NP'
p348
g5
tp349
a(g106
g106
g106
g5
g5
tp350
a(S'each'
p351
S'each'
p352
S'DT'
p353
S'B-NP'
p354
g5
tp355
a(S'for'
p356
S'for'
p357
S'IN'
p358
S'B-PP'
p359
g5
tp360
a(S'10'
p361
S'10'
p362
S'CD'
p363
S'B-NP'
p364
g5
tp365
a(S'days.'
p366
S'days.'
p367
S'NNS'
p368
S'I-NP'
p369
g5
tp370
a(S'This'
p371
S'This'
p372
S'DT'
p373
g5
g5
tp374
a(S'failed'
p375
S'fail'
p376
S'VBD'
p377
S'B-VP'
p378
g5
tp379
a(S'to'
p380
S'to'
p381
S'TO'
p382
S'I-VP'
p383
g5
tp384
a(S'influence'
p385
S'influence'
p386
S'VB'
p387
S'I-VP'
p388
g5
tp389
a(S'blood'
p390
S'blood'
p391
S'NN'
p392
S'B-NP'
p393
g5
tp394
a(S'pressure'
p395
S'pressure'
p396
S'NN'
p397
S'I-NP'
p398
g5
tp399
a(S'or'
p400
S'or'
p401
S'CC'
p402
g5
g5
tp403
a(S'plasma'
p404
S'plasma'
p405
S'NN'
p406
S'B-NP'
p407
g5
tp408
a(S'volume.'
p409
S'volume.'
p410
S'NN'
p411
S'I-NP'
p412
g5
tp413
a(S'3.'
p414
S'3.'
p415
S'CD'
p416
S'I-NP'
p417
g5
tp418
a(S'Antagonist'
p419
S'Antagonist'
p420
S'NN'
p421
S'I-NP'
p422
g5
tp423
a(S'blockade'
p424
S'blockade'
p425
S'NN'
p426
S'I-NP'
p427
g5
tp428
a(S'after'
p429
S'after'
p430
S'IN'
p431
S'B-PP'
p432
g5
tp433
a(S'low'
p434
S'low'
p435
S'JJ'
p436
S'B-NP'
p437
g5
tp438
a(S'salt'
p439
S'salt'
p440
S'NN'
p441
S'I-NP'
p442
g5
tp443
a(S'lowered'
p444
S'lower'
p445
S'VBD'
p446
S'B-VP'
p447
g5
tp448
a(S'blood'
p449
S'blood'
p450
S'NN'
p451
S'B-NP'
p452
g5
tp453
a(S'pressure'
p454
S'pressure'
p455
S'NN'
p456
S'I-NP'
p457
g5
tp458
a(S'in'
p459
S'in'
p460
S'IN'
p461
S'B-PP'
p462
g5
tp463
a(S'three'
p464
S'three'
p465
S'CD'
p466
S'B-NP'
p467
g5
tp468
a(S'patients'
p469
S'patient'
p470
S'NNS'
p471
S'I-NP'
p472
g5
tp473
a(S'with'
p474
S'with'
p475
S'IN'
p476
S'B-PP'
p477
g5
tp478
a(S'the'
p479
S'the'
p480
S'DT'
p481
S'B-NP'
p482
g5
tp483
a(S'highest'
p484
S'high'
p485
S'JJS'
p486
S'I-NP'
p487
g5
tp488
a(S'plasma'
p489
S'plasma'
p490
S'NN'
p491
S'I-NP'
p492
g5
tp493
a(S'renin'
p494
S'renin'
p495
S'NN'
p496
S'I-NP'
p497
g5
tp498
a(S'values.'
p499
S'values.'
p500
S'NN'
p501
S'I-NP'
p502
g5
tp503
a(S'Cardiac'
p504
S'Cardiac'
p505
S'JJ'
p506
S'I-NP'
p507
g5
tp508
a(S'output'
p509
S'output'
p510
S'NN'
p511
S'I-NP'
p512
g5
tp513
a(S'rose'
p514
S'rise'
p515
S'VBD'
p516
S'B-VP'
p517
g5
tp518
a(S'in'
p519
S'in'
p520
S'IN'
p521
S'B-PP'
p522
g5
tp523
a(S'two'
p524
S'two'
p525
S'CD'
p526
S'B-NP'
p527
g5
tp528
a(S'of'
p529
S'of'
p530
S'IN'
p531
S'B-PP'
p532
g5
tp533
a(S'these'
p534
S'these'
p535
S'DT'
p536
S'B-NP'
p537
g5
tp538
a(S','
p539
g539
g539
g5
g5
tp540
a(S'but'
p541
S'but'
p542
S'CC'
p543
g5
g5
tp544
a(S'it'
p545
S'it'
p546
S'PRP'
p547
S'B-NP'
p548
g5
tp549
a(S'dropped'
p550
S'drop'
p551
S'VBD'
p552
S'B-VP'
p553
g5
tp554
a(S'in'
p555
S'in'
p556
S'IN'
p557
S'B-PP'
p558
g5
tp559
a(S'all'
p560
S'all'
p561
S'DT'
p562
S'B-NP'
p563
g5
tp564
a(S'others.'
p565
S'others.'
p566
S'JJ'
p567
S'I-NP'
p568
g5
tp569
a(S'4.'
p570
S'4.'
p571
S'CD'
p572
S'I-NP'
p573
g5
tp574
a(S'Decreases'
p575
S'Decrease'
p576
S'NNS'
p577
S'I-NP'
p578
g5
tp579
a(S'in'
p580
S'in'
p581
S'IN'
p582
S'B-PP'
p583
g5
tp584
a(S'cardiac'
p585
S'cardiac'
p586
S'JJ'
p587
S'B-NP'
p588
g5
tp589
a(S'output'
p590
S'output'
p591
S'NN'
p592
S'I-NP'
p593
g5
tp594
a(S'occurred'
p595
S'occur'
p596
S'VBD'
p597
S'B-VP'
p598
g5
tp599
a(S'with'
p600
S'with'
p601
S'IN'
p602
S'B-PP'
p603
g5
tp604
a(S'both'
p605
S'both'
p606
S'DT'
p607
S'B-NP'
p608
g5
tp609
a(S'doses'
p610
S'dose'
p611
S'NNS'
p612
S'I-NP'
p613
g5
tp614
a(S'of'
p615
S'of'
p616
S'IN'
p617
S'B-PP'
p618
g5
tp619
a(S'saralasin'
p620
S'saralasin'
p621
S'NN'
p622
S'B-NP'
p623
g5
tp624
a(S'and'
p625
S'and'
p626
S'CC'
p627
g5
g5
tp628
a(S'even'
p629
S'even'
p630
S'RB'
p631
S'B-ADVP'
p632
g5
tp633
a(S'with'
p634
S'with'
p635
S'IN'
p636
S'B-PP'
p637
g5
tp638
a(S'suppression'
p639
S'suppression'
p640
S'NN'
p641
S'B-NP'
p642
g5
tp643
a(S'of'
p644
S'of'
p645
S'IN'
p646
S'B-PP'
p647
g5
tp648
a(S'the'
p649
S'the'
p650
S'DT'
p651
S'B-NP'
p652
g5
tp653
a(S'renin-angiotensin'
p654
S'renin-angiotensin'
p655
S'NN'
p656
S'I-NP'
p657
g5
tp658
a(S'axis.'
p659
S'axis.'
p660
S'NN'
p661
S'I-NP'
p662
g5
tp663
a(S'This'
p664
S'This'
p665
S'DT'
p666
S'B-NP'
p667
g5
tp668
a(S'response'
p669
S'response'
p670
S'NN'
p671
S'I-NP'
p672
g5
tp673
a(S'is'
p674
S'be'
p675
S'VBZ'
p676
S'B-VP'
p677
g5
tp678
a(S'therefore'
p679
S'therefore'
p680
S'RB'
p681
S'B-ADVP'
p682
g5
tp683
a(S'unlikely'
p684
S'unlikely'
p685
S'JJ'
p686
S'B-ADJP'
p687
g5
tp688
a(S'to'
p689
S'to'
p690
S'TO'
p691
S'B-VP'
p692
g5
tp693
a(S'be'
p694
S'be'
p695
S'VB'
p696
S'I-VP'
p697
g5
tp698
a(S'due'
p699
S'due'
p700
S'IN'
p701
S'B-PP'
p702
g5
tp703
a(S'to'
p704
S'to'
p705
S'TO'
p706
S'B-PP'
p707
g5
tp708
a(S'removal'
p709
S'removal'
p710
S'NN'
p711
S'B-NP'
p712
g5
tp713
a(S'of'
p714
S'of'
p715
S'IN'
p716
S'B-PP'
p717
g5
tp718
a(S'myocardial'
p719
S'myocardial'
p720
S'JJ'
p721
S'B-NP'
p722
g5
tp723
a(S'or'
p724
S'or'
p725
S'CC'
p726
S'I-NP'
p727
g5
tp728
a(S'venous'
p729
S'venous'
p730
S'JJ'
p731
S'I-NP'
p732
g5
tp733
a(S'angiotensin'
p734
S'angiotensin'
p735
S'NN'
p736
S'I-NP'
p737
g5
tp738
a(S'effects.'
p739
S'effects.'
p740
S'NN'
p741
S'I-NP'
p742
g5
tp743
a(S'5.'
p744
S'5.'
p745
S'CD'
p746
S'I-NP'
p747
g5
tp748
a(S'The'
p749
S'The'
p750
S'DT'
p751
S'B-NP'
p752
g5
tp753
a(S'renin-angiotensin'
p754
S'renin-angiotensin'
p755
S'NN'
p756
S'I-NP'
p757
g5
tp758
a(S'system'
p759
S'system'
p760
S'NN'
p761
S'I-NP'
p762
g5
tp763
a(S'played'
p764
S'play'
p765
S'VBD'
p766
S'B-VP'
p767
g5
tp768
a(S'a'
p769
g769
S'DT'
p770
S'B-NP'
p771
g5
tp772
a(S'part'
p773
S'part'
p774
S'NN'
p775
S'I-NP'
p776
g5
tp777
a(S'in'
p778
S'in'
p779
S'IN'
p780
S'B-PP'
p781
g5
tp782
a(S'maintenance'
p783
S'maintenance'
p784
S'NN'
p785
S'B-NP'
p786
g5
tp787
a(S'of'
p788
S'of'
p789
S'IN'
p790
S'B-PP'
p791
g5
tp792
a(S'blood'
p793
S'blood'
p794
S'NN'
p795
S'B-NP'
p796
g5
tp797
a(S'pressure'
p798
S'pressure'
p799
S'NN'
p800
S'I-NP'
p801
g5
tp802
a(S'only'
p803
S'only'
p804
S'RB'
p805
S'B-ADVP'
p806
g5
tp807
a(S'with'
p808
S'with'
p809
S'IN'
p810
S'B-PP'
p811
g5
tp812
a(S'severe'
p813
S'severe'
p814
S'JJ'
p815
S'B-NP'
p816
g5
tp817
a(S'salt'
p818
S'salt'
p819
S'NN'
p820
S'I-NP'
p821
g5
tp822
a(S'restriction'
p823
S'restriction'
p824
S'NN'
p825
S'I-NP'
p826
g5
tp827
a(S'and'
p828
S'and'
p829
S'CC'
p830
S'B-PP'
p831
g5
tp832
a(S'in'
p833
S'in'
p834
S'IN'
p835
S'B-PP'
p836
g5
tp837
a(g769
g769
S'DT'
p838
S'B-NP'
p839
g5
tp840
a(S'small'
p841
S'small'
p842
S'JJ'
p843
S'I-NP'
p844
g5
tp845
a(S'proportion'
p846
S'proportion'
p847
S'NN'
p848
S'I-NP'
p849
g5
tp850
a(S'of'
p851
S'of'
p852
S'IN'
p853
S'B-PP'
p854
g5
tp855
a(S'cases.'
p856
S'cases.'
p857
S'NN'
p858
S'B-NP'
p859
g5
tp860
a(S'6.'
p861
S'6.'
p862
S'CD'
p863
S'I-NP'
p864
g5
tp865
a(S'No'
p866
S'No'
p867
S'DT'
p868
S'B-NP'
p869
g5
tp870
a(S'heart'
p871
S'heart'
p872
S'NN'
p873
S'I-NP'
p874
g5
tp875
a(S'rate'
p876
S'rate'
p877
S'NN'
p878
S'I-NP'
p879
g5
tp880
a(S'effect'
p881
S'effect'
p882
S'NN'
p883
S'I-NP'
p884
g5
tp885
a(S'was'
p886
S'be'
p887
S'VBD'
p888
S'B-VP'
p889
g5
tp890
a(S'seen'
p891
S'see'
p892
S'VBN'
p893
S'I-VP'
p894
g5
tp895
a(S'with'
p896
S'with'
p897
S'IN'
p898
S'B-PP'
p899
g5
tp900
a(S'sarcalasin.'
p901
S'sarcalasin.'
p902
S'NN'
p903
S'B-NP'
p904
g5
tp905
a(S'7.'
p906
S'7.'
p907
S'CD'
p908
S'I-NP'
p909
g5
tp910
a(S'Blood'
p911
S'Blood'
p912
S'NN'
p913
S'I-NP'
p914
g5
tp915
a(S'pressure'
p916
S'pressure'
p917
S'NN'
p918
S'I-NP'
p919
g5
tp920
a(S'and'
p921
S'and'
p922
S'CC'
p923
g5
g5
tp924
a(S'total'
p925
S'total'
p926
S'JJ'
p927
S'B-NP'
p928
g5
tp929
a(S'peripheral'
p930
S'peripheral'
p931
S'JJ'
p932
S'I-NP'
p933
g5
tp934
a(S'resistance'
p935
S'resistance'
p936
S'NN'
p937
S'I-NP'
p938
g5
tp939
a(S'responses'
p940
S'response'
p941
S'NNS'
p942
S'I-NP'
p943
g5
tp944
a(S'were'
p945
S'be'
p946
S'VBD'
p947
S'B-VP'
p948
g5
tp949
a(S'dependent'
p950
S'dependent'
p951
S'JJ'
p952
S'B-ADJP'
p953
g5
tp954
a(S'on'
p955
S'on'
p956
S'IN'
p957
S'B-PP'
p958
g5
tp959
a(S'pre-'
p960
S'pre-'
p961
S'NN'
p962
S'B-NP'
p963
g5
tp964
a(g84
g84
g84
g5
g5
tp965
a(S'antagonist/agonist'
p966
S'antagonist/agonist'
p967
S'NN'
p968
S'B-NP'
p969
g5
tp970
a(g106
g106
g106
g5
g5
tp971
a(S'setting'
p972
S'setting'
p973
S'NN'
p974
S'B-NP'
p975
g5
tp976
a(g539
g539
g539
g5
g5
tp977
a(S'but'
p978
S'but'
p979
S'CC'
p980
g5
g5
tp981
a(S'heart'
p982
S'heart'
p983
S'NN'
p984
S'B-NP'
p985
g5
tp986
a(S'rate'
p987
S'rate'
p988
S'NN'
p989
S'I-NP'
p990
g5
tp991
a(S'and'
p992
S'and'
p993
S'CC'
p994
g5
g5
tp995
a(S'cardiac'
p996
S'cardiac'
p997
S'JJ'
p998
S'B-NP'
p999
g5
tp1000
a(S'output'
p1001
S'output'
p1002
S'NN'
p1003
S'I-NP'
p1004
g5
tp1005
a(S'were'
p1006
S'be'
p1007
S'VBD'
p1008
S'B-VP'
p1009
g5
tp1010
a(S'not'
p1011
S'not'
p1012
S'RB'
p1013
S'I-VP'
p1014
g5
tp1015
a(S'influenced'
p1016
S'influence'
p1017
S'VBN'
p1018
S'I-VP'
p1019
g5
tp1020
a(S'by'
p1021
S'by'
p1022
S'IN'
p1023
S'B-PP'
p1024
g5
tp1025
a(S'this'
p1026
S'this'
p1027
S'DT'
p1028
S'B-NP'
p1029
g5
tp1030
a(S'factor'
p1031
S'factor'
p1032
S'NN'
p1033
S'I-NP'
p1034
g5
tp1035
a(g52
g52
g52
g5
g5
tp1036
a.