(lp0
(S'Yohimbine'
p1
S'Yohimbine'
p2
S'NN'
p3
S'B-NP'
p4
S'O'
p5
tp6
a(S'in'
p7
S'in'
p8
S'IN'
p9
S'B-PP'
p10
g5
tp11
a(S'neurally'
p12
S'neurally'
p13
S'RB'
p14
S'B-NP'
p15
g5
tp16
a(S'mediated'
p17
S'mediate'
p18
S'VBN'
p19
S'I-NP'
p20
g5
tp21
a(S'syncope.'
p22
S'syncope.'
p23
S'NN'
p24
S'I-NP'
p25
g5
tp26
a(S'Pathophysiological'
p27
S'Pathophysiological'
p28
S'JJ'
p29
S'I-NP'
p30
g5
tp31
a(S'implications'
p32
S'implication'
p33
S'NNS'
p34
S'I-NP'
p35
g5
tp36
a(S'.'
p37
g37
g37
g5
g5
tp38
a(S'In'
p39
S'In'
p40
S'IN'
p41
S'B-PP'
p42
g5
tp43
a(S'this'
p44
S'this'
p45
S'DT'
p46
S'B-NP'
p47
g5
tp48
a(S'study'
p49
S'study'
p50
S'NN'
p51
S'I-NP'
p52
g5
tp53
a(S','
p54
g54
g54
g5
g5
tp55
a(S'we'
p56
S'we'
p57
S'PRP'
p58
S'B-NP'
p59
g5
tp60
a(S'evaluated'
p61
S'evaluate'
p62
S'VBD'
p63
S'B-VP'
p64
g5
tp65
a(S'if'
p66
S'if'
p67
S'IN'
p68
S'B-SBAR'
p69
g5
tp70
a(S'increased'
p71
S'increase'
p72
S'VBN'
p73
S'B-NP'
p74
g5
tp75
a(S'sympathetic'
p76
S'sympathetic'
p77
S'JJ'
p78
S'I-NP'
p79
g5
tp80
a(S'stimulation'
p81
S'stimulation'
p82
S'NN'
p83
S'I-NP'
p84
g5
tp85
a(S'is'
p86
S'be'
p87
S'VBZ'
p88
S'B-VP'
p89
g5
tp90
a(S'an'
p91
S'an'
p92
S'DT'
p93
S'B-NP'
p94
g5
tp95
a(S'essential'
p96
S'essential'
p97
S'JJ'
p98
S'I-NP'
p99
g5
tp100
a(S'requirement'
p101
S'requirement'
p102
S'NN'
p103
S'I-NP'
p104
g5
tp105
a(S'for'
p106
S'for'
p107
S'IN'
p108
S'B-PP'
p109
g5
tp110
a(S'the'
p111
S'the'
p112
S'DT'
p113
S'B-NP'
p114
g5
tp115
a(S'development'
p116
S'development'
p117
S'NN'
p118
S'I-NP'
p119
g5
tp120
a(S'of'
p121
S'of'
p122
S'IN'
p123
S'B-PP'
p124
g5
tp125
a(S'neurally'
p126
S'neurally'
p127
S'RB'
p128
S'B-NP'
p129
g5
tp130
a(S'mediated'
p131
S'mediate'
p132
S'VBN'
p133
S'I-NP'
p134
g5
tp135
a(S'syncope'
p136
S'syncope'
p137
S'NN'
p138
S'I-NP'
p139
g5
tp140
a(S'('
p141
g141
g141
g5
g5
tp142
a(S'NMS'
p143
S'NMS'
p144
S'NN'
p145
S'B-NP'
p146
g5
tp147
a(S')'
p148
g148
g148
g5
g5
tp149
a(S'by'
p150
S'by'
p151
S'IN'
p152
S'B-PP'
p153
g5
tp154
a(S'manipulating'
p155
S'manipulate'
p156
S'VBG'
p157
S'B-VP'
p158
g5
tp159
a(S'overall'
p160
S'overall'
p161
S'JJ'
p162
S'B-NP'
p163
g5
tp164
a(S'sympathetic'
p165
S'sympathetic'
p166
S'JJ'
p167
S'I-NP'
p168
g5
tp169
a(S'outflow'
p170
S'outflow'
p171
S'NN'
p172
S'I-NP'
p173
g5
tp174
a(S'in'
p175
S'in'
p176
S'IN'
p177
S'B-PP'
p178
g5
tp179
a(S'subjects'
p180
S'subject'
p181
S'NNS'
p182
S'B-NP'
p183
g5
tp184
a(S'susceptible'
p185
S'susceptible'
p186
S'JJ'
p187
S'B-ADJP'
p188
g5
tp189
a(S'to'
p190
S'to'
p191
S'TO'
p192
S'B-PP'
p193
g5
tp194
a(S'tilt-induced'
p195
S'tilt-induced'
p196
S'JJ'
p197
S'B-NP'
p198
g5
tp199
a(S'syncope.'
p200
S'syncope.'
p201
S'NN'
p202
S'I-NP'
p203
g5
tp204
a(S'Eight'
p205
S'Eight'
p206
S'CD'
p207
S'I-NP'
p208
g5
tp209
a(S'previously'
p210
S'previously'
p211
S'RB'
p212
S'B-VP'
p213
g5
tp214
a(S'characterized'
p215
S'characterize'
p216
S'VBN'
p217
S'I-VP'
p218
g5
tp219
a(S'patients'
p220
S'patient'
p221
S'NNS'
p222
S'B-NP'
p223
g5
tp224
a(S'with'
p225
S'with'
p226
S'IN'
p227
S'B-PP'
p228
g5
tp229
a(S'recurrent'
p230
S'recurrent'
p231
S'JJ'
p232
S'B-NP'
p233
g5
tp234
a(S'NMS'
p235
S'NMS'
p236
S'NN'
p237
S'I-NP'
p238
g5
tp239
a(g141
g141
g141
g5
g5
tp240
a(S'five'
p241
S'five'
p242
S'CD'
p243
S'B-NP'
p244
g5
tp245
a(S'females'
p246
S'female'
p247
S'NNS'
p248
S'I-NP'
p249
g5
tp250
a(S'and'
p251
S'and'
p252
S'CC'
p253
g5
g5
tp254
a(S'three'
p255
S'three'
p256
S'CD'
p257
S'B-NP'
p258
g5
tp259
a(S'males'
p260
S'male'
p261
S'NNS'
p262
S'I-NP'
p263
g5
tp264
a(S';'
p265
g265
S':'
p266
g5
g5
tp267
a(S'34+/-2'
p268
S'34+/-2'
p269
S'CD'
p270
S'B-NP'
p271
g5
tp272
a(S'yr'
p273
S'yr'
p274
S'NN'
p275
S'I-NP'
p276
g5
tp277
a(g148
g148
g148
g5
g5
tp278
a(S'were'
p279
S'be'
p280
S'VBD'
p281
S'B-VP'
p282
g5
tp283
a(S'recruited'
p284
S'recruit'
p285
S'VBN'
p286
S'I-VP'
p287
g5
tp288
a(S'from'
p289
S'from'
p290
S'IN'
p291
S'B-PP'
p292
g5
tp293
a(S'the'
p294
S'the'
p295
S'DT'
p296
S'B-NP'
p297
g5
tp298
a(S'Vanderbilt'
p299
S'Vanderbilt'
p300
S'NNP'
p301
S'I-NP'
p302
g5
tp303
a(S'Syncope'
p304
S'Syncope'
p305
S'NNP'
p306
S'I-NP'
p307
g5
tp308
a(S'Unit'
p309
S'Unit'
p310
S'NNP'
p311
S'I-NP'
p312
g5
tp313
a(S'and'
p314
S'and'
p315
S'CC'
p316
g5
g5
tp317
a(S'eight'
p318
S'eight'
p319
S'CD'
p320
S'B-NP'
p321
g5
tp322
a(S'age-matched'
p323
S'age-matched'
p324
S'JJ'
p325
S'I-NP'
p326
g5
tp327
a(S'controls'
p328
S'control'
p329
S'NNS'
p330
S'I-NP'
p331
g5
tp332
a(S'underwent'
p333
S'undergo'
p334
S'VBD'
p335
S'B-VP'
p336
g5
tp337
a(S'initial'
p338
S'initial'
p339
S'JJ'
p340
S'B-NP'
p341
g5
tp342
a(S'administration'
p343
S'administration'
p344
S'NN'
p345
S'I-NP'
p346
g5
tp347
a(S'of'
p348
S'of'
p349
S'IN'
p350
S'B-PP'
p351
g5
tp352
a(S'clonidine'
p353
S'clonidine'
p354
S'NN'
p355
S'B-NP'
p356
g5
tp357
a(g141
g141
g141
g5
g5
tp358
a(S'CLO'
p359
S'CLO'
p360
S'NN'
p361
S'B-NP'
p362
S'B-protein'
p363
tp364
a(g148
g148
g148
g5
g5
tp365
a(S'or'
p366
S'or'
p367
S'CC'
p368
g5
g5
tp369
a(S'yohimbine'
p370
S'yohimbine'
p371
S'NN'
p372
S'B-NP'
p373
g5
tp374
a(g141
g141
g141
g5
g5
tp375
a(S'YHO'
p376
S'YHO'
p377
S'NN'
p378
S'B-NP'
p379
S'B-protein'
p380
tp381
a(g148
g148
g148
g5
g5
tp382
a(g37
g37
g37
g5
g5
tp383
a(S'This'
p384
S'This'
p385
S'DT'
p386
g5
g5
tp387
a(S'was'
p388
S'be'
p389
S'VBD'
p390
S'B-VP'
p391
g5
tp392
a(S'done'
p393
S'do'
p394
S'VBN'
p395
S'I-VP'
p396
g5
tp397
a(g54
g54
g54
g5
g5
tp398
a(S'prospectively'
p399
S'prospectively'
p400
S'RB'
p401
S'B-ADVP'
p402
g5
tp403
a(g54
g54
g54
g5
g5
tp404
a(S'to'
p405
S'to'
p406
S'TO'
p407
S'B-VP'
p408
g5
tp409
a(S'determine'
p410
S'determine'
p411
S'VB'
p412
S'I-VP'
p413
g5
tp414
a(S'doses'
p415
S'dose'
p416
S'NNS'
p417
S'B-NP'
p418
g5
tp419
a(S'of'
p420
S'of'
p421
S'IN'
p422
S'B-PP'
p423
g5
tp424
a(S'these'
p425
S'these'
p426
S'DT'
p427
S'B-NP'
p428
g5
tp429
a(S'agents'
p430
S'agent'
p431
S'NNS'
p432
S'I-NP'
p433
g5
tp434
a(S'that'
p435
S'that'
p436
S'WDT'
p437
S'B-NP'
p438
g5
tp439
a(S'would'
p440
S'would'
p441
S'MD'
p442
S'B-VP'
p443
g5
tp444
a(S'increase'
p445
S'increase'
p446
S'VB'
p447
S'I-VP'
p448
g5
tp449
a(S'or'
p450
S'or'
p451
S'CC'
p452
S'I-VP'
p453
g5
tp454
a(S'decrease'
p455
S'decrease'
p456
S'VB'
p457
S'I-VP'
p458
g5
tp459
a(S'plasma'
p460
S'plasma'
p461
S'NN'
p462
S'B-NP'
p463
g5
tp464
a(S'norepinephrine'
p465
S'norepinephrine'
p466
S'NN'
p467
S'I-NP'
p468
g5
tp469
a(S'levels'
p470
S'level'
p471
S'NNS'
p472
S'I-NP'
p473
g5
tp474
a(S'by'
p475
S'by'
p476
S'IN'
p477
S'B-PP'
p478
g5
tp479
a(S'>'
p480
g480
S'SYM'
p481
S'B-NP'
p482
g5
tp483
a(S'/='
p484
S'/='
p485
S'SYM'
p486
g5
g5
tp487
a(S'30'
p488
S'30'
p489
S'CD'
p490
S'B-NP'
p491
g5
tp492
a(S'%'
p493
g493
S'NN'
p494
S'I-NP'
p495
g5
tp496
a(g37
g37
g37
g5
g5
tp497
a(S'On'
p498
S'On'
p499
S'IN'
p500
S'B-PP'
p501
g5
tp502
a(S'a'
p503
g503
S'DT'
p504
S'B-NP'
p505
g5
tp506
a(S'different'
p507
S'different'
p508
S'JJ'
p509
S'I-NP'
p510
g5
tp511
a(S'day'
p512
S'day'
p513
S'NN'
p514
S'I-NP'
p515
g5
tp516
a(g54
g54
g54
g5
g5
tp517
a(S'in'
p518
S'in'
p519
S'IN'
p520
S'B-PP'
p521
g5
tp522
a(S'all'
p523
S'all'
p524
S'DT'
p525
S'B-NP'
p526
g5
tp527
a(S'subjects'
p528
S'subject'
p529
S'NNS'
p530
S'I-NP'
p531
g5
tp532
a(S'we'
p533
S'we'
p534
S'PRP'
p535
S'B-NP'
p536
g5
tp537
a(S'determined'
p538
S'determine'
p539
S'VBD'
p540
S'B-VP'
p541
g5
tp542
a(S'intraarterial'
p543
S'intraarterial'
p544
S'JJ'
p545
S'B-NP'
p546
g5
tp547
a(S'blood'
p548
S'blood'
p549
S'NN'
p550
S'I-NP'
p551
g5
tp552
a(S'pressure'
p553
S'pressure'
p554
S'NN'
p555
S'I-NP'
p556
g5
tp557
a(g54
g54
g54
g5
g5
tp558
a(S'EKG'
p559
S'EKG'
p560
S'NN'
p561
S'B-NP'
p562
S'B-protein'
p563
tp564
a(S'and'
p565
S'and'
p566
S'CC'
p567
g5
g5
tp568
a(S'muscle'
p569
S'muscle'
p570
S'NN'
p571
S'B-NP'
p572
g5
tp573
a(S'sympathetic'
p574
S'sympathetic'
p575
S'JJ'
p576
S'I-NP'
p577
g5
tp578
a(S'nerve'
p579
S'nerve'
p580
S'NN'
p581
S'I-NP'
p582
g5
tp583
a(S'activity'
p584
S'activity'
p585
S'NN'
p586
S'I-NP'
p587
g5
tp588
a(g141
g141
g141
g5
g5
tp589
a(S'MSNA'
p590
S'MSNA'
p591
S'NN'
p592
S'B-NP'
p593
g5
tp594
a(g148
g148
g148
g5
g5
tp595
a(S'both'
p596
S'both'
p597
S'CC'
p598
g5
g5
tp599
a(S'supine'
p600
S'supine'
p601
S'NN'
p602
S'B-NP'
p603
g5
tp604
a(S'and'
p605
S'and'
p606
S'CC'
p607
g5
g5
tp608
a(S'during'
p609
S'during'
p610
S'IN'
p611
S'B-PP'
p612
g5
tp613
a(S'upright'
p614
S'upright'
p615
S'JJ'
p616
S'B-NP'
p617
g5
tp618
a(S'tilt.'
p619
S'tilt.'
p620
S'NN'
p621
S'I-NP'
p622
g5
tp623
a(S'After'
p624
S'After'
p625
S'IN'
p626
S'B-PP'
p627
g5
tp628
a(S'this'
p629
S'this'
p630
S'DT'
p631
S'B-NP'
p632
g5
tp633
a(g54
g54
g54
g5
g5
tp634
a(S'subjects'
p635
S'subject'
p636
S'NNS'
p637
S'B-NP'
p638
g5
tp639
a(S'randomly'
p640
S'randomly'
p641
S'RB'
p642
S'B-ADVP'
p643
g5
tp644
a(S'received'
p645
S'receive'
p646
S'VBD'
p647
S'B-VP'
p648
g5
tp649
a(S'either'
p650
S'either'
p651
S'CC'
p652
g5
g5
tp653
a(S'CLO'
p654
S'CLO'
p655
S'NN'
p656
S'B-NP'
p657
S'B-protein'
p658
tp659
a(S'or'
p660
S'or'
p661
S'CC'
p662
S'I-NP'
p663
g5
tp664
a(S'YHO'
p665
S'YHO'
p666
S'NN'
p667
S'I-NP'
p668
S'B-protein'
p669
tp670
a(g54
g54
g54
g5
g5
tp671
a(S'and'
p672
S'and'
p673
S'CC'
p674
g5
g5
tp675
a(S'3'
p676
g676
S'CD'
p677
S'B-NP'
p678
g5
tp679
a(S'h'
p680
g680
S'NN'
p681
S'I-NP'
p682
g5
tp683
a(S'later'
p684
S'later'
p685
S'RB'
p686
S'B-ADVP'
p687
g5
tp688
a(S'another'
p689
S'another'
p690
S'DT'
p691
S'B-NP'
p692
g5
tp693
a(S'tilt'
p694
S'tilt'
p695
S'NN'
p696
S'I-NP'
p697
g5
tp698
a(S'was'
p699
S'be'
p700
S'VBD'
p701
S'B-VP'
p702
g5
tp703
a(S'performed.'
p704
S'performed.'
p705
S'VBN'
p706
S'I-VP'
p707
g5
tp708
a(S'After'
p709
S'After'
p710
S'IN'
p711
S'B-NP'
p712
g5
tp713
a(S'1'
p714
g714
S'CD'
p715
S'I-NP'
p716
g5
tp717
a(S'wk'
p718
S'wk'
p719
S'NN'
p720
S'I-NP'
p721
g5
tp722
a(g54
g54
g54
g5
g5
tp723
a(g503
g503
S'DT'
p724
S'B-NP'
p725
g5
tp726
a(S'similar'
p727
S'similar'
p728
S'JJ'
p729
S'I-NP'
p730
g5
tp731
a(S'procedure'
p732
S'procedure'
p733
S'NN'
p734
S'I-NP'
p735
g5
tp736
a(S'with'
p737
S'with'
p738
S'IN'
p739
S'B-PP'
p740
g5
tp741
a(S'the'
p742
S'the'
p743
S'DT'
p744
S'B-NP'
p745
g5
tp746
a(S'other'
p747
S'other'
p748
S'JJ'
p749
S'I-NP'
p750
g5
tp751
a(S'drug'
p752
S'drug'
p753
S'NN'
p754
S'I-NP'
p755
g5
tp756
a(S'was'
p757
S'be'
p758
S'VBD'
p759
S'B-VP'
p760
g5
tp761
a(S'performed.'
p762
S'performed.'
p763
S'VBN'
p764
S'I-VP'
p765
g5
tp766
a(S'During'
p767
S'During'
p768
S'IN'
p769
S'B-PP'
p770
g5
tp771
a(S'the'
p772
S'the'
p773
S'DT'
p774
S'B-NP'
p775
g5
tp776
a(S'two'
p777
S'two'
p778
S'CD'
p779
S'I-NP'
p780
g5
tp781
a(S'basal'
p782
S'basal'
p783
S'JJ'
p784
S'I-NP'
p785
g5
tp786
a(S'tilts'
p787
S'tilt'
p788
S'NNS'
p789
S'I-NP'
p790
g5
tp791
a(g54
g54
g54
g5
g5
tp792
a(S'all'
p793
S'all'
p794
S'PDT'
p795
S'B-NP'
p796
g5
tp797
a(S'the'
p798
S'the'
p799
S'DT'
p800
S'I-NP'
p801
g5
tp802
a(S'control'
p803
S'control'
p804
S'NN'
p805
S'I-NP'
p806
g5
tp807
a(S'subjects'
p808
S'subject'
p809
S'NNS'
p810
S'I-NP'
p811
g5
tp812
a(S'completed'
p813
S'complete'
p814
S'VBD'
p815
S'B-VP'
p816
g5
tp817
a(S'the'
p818
S'the'
p819
S'DT'
p820
S'B-NP'
p821
g5
tp822
a(S'study'
p823
S'study'
p824
S'NN'
p825
S'I-NP'
p826
g5
tp827
a(g54
g54
g54
g5
g5
tp828
a(S'whereas'
p829
S'whereas'
p830
S'IN'
p831
g5
g5
tp832
a(S'all'
p833
S'all'
p834
S'PDT'
p835
S'B-NP'
p836
g5
tp837
a(S'the'
p838
S'the'
p839
S'DT'
p840
S'I-NP'
p841
g5
tp842
a(S'NMS'
p843
S'NMS'
p844
S'NN'
p845
S'I-NP'
p846
g5
tp847
a(S'patients'
p848
S'patient'
p849
S'NNS'
p850
S'I-NP'
p851
g5
tp852
a(S'developed'
p853
S'develop'
p854
S'VBD'
p855
S'B-VP'
p856
g5
tp857
a(S'syncope.'
p858
S'syncope.'
p859
S'NN'
p860
S'B-NP'
p861
g5
tp862
a(S'Reduction'
p863
S'Reduction'
p864
S'NN'
p865
S'I-NP'
p866
g5
tp867
a(S'in'
p868
S'in'
p869
S'IN'
p870
S'B-PP'
p871
g5
tp872
a(S'sympathetic'
p873
S'sympathetic'
p874
S'JJ'
p875
S'B-NP'
p876
g5
tp877
a(S'tone'
p878
S'tone'
p879
S'NN'
p880
S'I-NP'
p881
g5
tp882
a(S'by'
p883
S'by'
p884
S'IN'
p885
S'B-PP'
p886
g5
tp887
a(S'CLO'
p888
S'CLO'
p889
S'NN'
p890
S'B-NP'
p891
S'B-protein'
p892
tp893
a(S'resulted'
p894
S'result'
p895
S'VBD'
p896
S'B-VP'
p897
g5
tp898
a(S'in'
p899
S'in'
p900
S'IN'
p901
S'B-PP'
p902
g5
tp903
a(g503
g503
S'DT'
p904
S'B-NP'
p905
g5
tp906
a(S'decreased'
p907
S'decrease'
p908
S'VBN'
p909
S'I-NP'
p910
g5
tp911
a(S'tolerance'
p912
S'tolerance'
p913
S'NN'
p914
S'I-NP'
p915
g5
tp916
a(S'to'
p917
S'to'
p918
S'TO'
p919
S'B-VP'
p920
g5
tp921
a(S'tilt'
p922
S'tilt'
p923
S'VB'
p924
S'I-VP'
p925
g5
tp926
a(S'in'
p927
S'in'
p928
S'IN'
p929
S'B-PP'
p930
g5
tp931
a(S'three'
p932
S'three'
p933
S'CD'
p934
S'B-NP'
p935
g5
tp936
a(S'out'
p937
S'out'
p938
S'IN'
p939
S'I-NP'
p940
g5
tp941
a(S'of'
p942
S'of'
p943
S'IN'
p944
S'I-NP'
p945
g5
tp946
a(S'eight'
p947
S'eight'
p948
S'CD'
p949
S'I-NP'
p950
g5
tp951
a(S'controls'
p952
S'control'
p953
S'NNS'
p954
S'I-NP'
p955
g5
tp956
a(S'and'
p957
S'and'
p958
S'CC'
p959
g5
g5
tp960
a(S'in'
p961
S'in'
p962
S'IN'
p963
S'B-PP'
p964
g5
tp965
a(S'all'
p966
S'all'
p967
S'PDT'
p968
S'B-NP'
p969
g5
tp970
a(S'the'
p971
S'the'
p972
S'DT'
p973
S'I-NP'
p974
g5
tp975
a(S'NMS'
p976
S'NMS'
p977
S'NN'
p978
S'I-NP'
p979
g5
tp980
a(S'patients.'
p981
S'patients.'
p982
S'NN'
p983
S'I-NP'
p984
g5
tp985
a(S'In'
p986
S'In'
p987
S'IN'
p988
S'B-PP'
p989
g5
tp990
a(S'contrast'
p991
S'contrast'
p992
S'NN'
p993
S'B-NP'
p994
g5
tp995
a(g54
g54
g54
g5
g5
tp996
a(S'YHO'
p997
S'YHO'
p998
S'NN'
p999
S'B-NP'
p1000
S'B-protein'
p1001
tp1002
a(S'not'
p1003
S'not'
p1004
S'RB'
p1005
S'B-CONJP'
p1006
g5
tp1007
a(S'only'
p1008
S'only'
p1009
S'RB'
p1010
S'I-CONJP'
p1011
g5
tp1012
a(S'increased'
p1013
S'increase'
p1014
S'VBD'
p1015
S'B-VP'
p1016
g5
tp1017
a(S'basal'
p1018
S'basal'
p1019
S'JJ'
p1020
S'B-NP'
p1021
g5
tp1022
a(S'plasma'
p1023
S'plasma'
p1024
S'NN'
p1025
S'I-NP'
p1026
g5
tp1027
a(S'NorEpi'
p1028
S'NorEpi'
p1029
S'NN'
p1030
S'I-NP'
p1031
g5
tp1032
a(S'levels'
p1033
S'level'
p1034
S'NNS'
p1035
S'I-NP'
p1036
g5
tp1037
a(S'and'
p1038
S'and'
p1039
S'CC'
p1040
g5
g5
tp1041
a(S'MSNA'
p1042
S'MSNA'
p1043
S'NN'
p1044
S'B-NP'
p1045
S'B-protein'
p1046
tp1047
a(g54
g54
g54
g5
g5
tp1048
a(S'but'
p1049
S'but'
p1050
S'CC'
p1051
g5
g5
tp1052
a(S'also'
p1053
S'also'
p1054
S'RB'
p1055
S'B-ADVP'
p1056
g5
tp1057
a(S'prevented'
p1058
S'prevent'
p1059
S'VBD'
p1060
S'B-VP'
p1061
g5
tp1062
a(S'syncope'
p1063
S'syncope'
p1064
S'NN'
p1065
S'B-NP'
p1066
g5
tp1067
a(S'in'
p1068
S'in'
p1069
S'IN'
p1070
S'B-PP'
p1071
g5
tp1072
a(S'seven'
p1073
S'seven'
p1074
S'CD'
p1075
S'B-NP'
p1076
g5
tp1077
a(S'out'
p1078
S'out'
p1079
S'IN'
p1080
S'I-NP'
p1081
g5
tp1082
a(S'of'
p1083
S'of'
p1084
S'IN'
p1085
S'I-NP'
p1086
g5
tp1087
a(S'eight'
p1088
S'eight'
p1089
S'CD'
p1090
S'I-NP'
p1091
g5
tp1092
a(S'patients.'
p1093
S'patients.'
p1094
S'NNS'
p1095
S'I-NP'
p1096
g5
tp1097
a(S'In'
p1098
S'In'
p1099
S'IN'
p1100
S'B-PP'
p1101
g5
tp1102
a(g503
g503
S'DT'
p1103
S'B-NP'
p1104
g5
tp1105
a(S'selected'
p1106
S'select'
p1107
S'VBN'
p1108
S'I-NP'
p1109
g5
tp1110
a(S'population'
p1111
S'population'
p1112
S'NN'
p1113
S'I-NP'
p1114
g5
tp1115
a(S'of'
p1116
S'of'
p1117
S'IN'
p1118
S'B-PP'
p1119
g5
tp1120
a(S'patients'
p1121
S'patient'
p1122
S'NNS'
p1123
S'B-NP'
p1124
g5
tp1125
a(g54
g54
g54
g5
g5
tp1126
a(S'increased'
p1127
S'increase'
p1128
S'VBN'
p1129
S'B-NP'
p1130
g5
tp1131
a(S'sympathetic'
p1132
S'sympathetic'
p1133
S'JJ'
p1134
S'I-NP'
p1135
g5
tp1136
a(S'activity'
p1137
S'activity'
p1138
S'NN'
p1139
S'I-NP'
p1140
g5
tp1141
a(S'is'
p1142
S'be'
p1143
S'VBZ'
p1144
S'B-VP'
p1145
g5
tp1146
a(S'not'
p1147
S'not'
p1148
S'RB'
p1149
g5
g5
tp1150
a(g503
g503
S'DT'
p1151
S'B-NP'
p1152
g5
tp1153
a(S'prerequisite'
p1154
S'prerequisite'
p1155
S'NN'
p1156
S'I-NP'
p1157
g5
tp1158
a(S'for'
p1159
S'for'
p1160
S'IN'
p1161
S'B-PP'
p1162
g5
tp1163
a(S'the'
p1164
S'the'
p1165
S'DT'
p1166
S'B-NP'
p1167
g5
tp1168
a(S'development'
p1169
S'development'
p1170
S'NN'
p1171
S'I-NP'
p1172
g5
tp1173
a(S'of'
p1174
S'of'
p1175
S'IN'
p1176
S'B-PP'
p1177
g5
tp1178
a(S'syncope.'
p1179
S'syncope.'
p1180
S'NN'
p1181
S'B-NP'
p1182
g5
tp1183
a(S'Yohimbine-induced'
p1184
S'Yohimbine-induced'
p1185
S'JJ'
p1186
S'I-NP'
p1187
g5
tp1188
a(S'enhancement'
p1189
S'enhancement'
p1190
S'NN'
p1191
S'I-NP'
p1192
g5
tp1193
a(S'of'
p1194
S'of'
p1195
S'IN'
p1196
S'B-PP'
p1197
g5
tp1198
a(S'sympathetic'
p1199
S'sympathetic'
p1200
S'JJ'
p1201
S'B-NP'
p1202
g5
tp1203
a(S'tone'
p1204
S'tone'
p1205
S'NN'
p1206
S'I-NP'
p1207
g5
tp1208
a(S'in'
p1209
S'in'
p1210
S'IN'
p1211
S'B-PP'
p1212
g5
tp1213
a(S'patients'
p1214
S'patient'
p1215
S'NNS'
p1216
S'B-NP'
p1217
g5
tp1218
a(S'with'
p1219
S'with'
p1220
S'IN'
p1221
S'B-PP'
p1222
g5
tp1223
a(S'NMS'
p1224
S'NMS'
p1225
S'NN'
p1226
S'B-NP'
p1227
g5
tp1228
a(S'improves'
p1229
S'improve'
p1230
S'VBZ'
p1231
S'B-VP'
p1232
g5
tp1233
a(S'orthostatic'
p1234
S'orthostatic'
p1235
S'JJ'
p1236
S'B-NP'
p1237
g5
tp1238
a(S'tolerance'
p1239
S'tolerance'
p1240
S'NN'
p1241
S'I-NP'
p1242
g5
tp1243
a(S'and'
p1244
S'and'
p1245
S'CC'
p1246
g5
g5
tp1247
a(S'raises'
p1248
S'raise'
p1249
S'VBZ'
p1250
S'B-VP'
p1251
g5
tp1252
a(S'the'
p1253
S'the'
p1254
S'DT'
p1255
S'B-NP'
p1256
g5
tp1257
a(S'possibility'
p1258
S'possibility'
p1259
S'NN'
p1260
S'I-NP'
p1261
g5
tp1262
a(S'that'
p1263
S'that'
p1264
S'IN'
p1265
S'B-SBAR'
p1266
g5
tp1267
a(S'this'
p1268
S'this'
p1269
S'DT'
p1270
S'B-NP'
p1271
g5
tp1272
a(S'drug'
p1273
S'drug'
p1274
S'NN'
p1275
S'I-NP'
p1276
g5
tp1277
a(S'may'
p1278
S'may'
p1279
S'MD'
p1280
S'B-VP'
p1281
g5
tp1282
a(S'be'
p1283
S'be'
p1284
S'VB'
p1285
S'I-VP'
p1286
g5
tp1287
a(g503
g503
S'DT'
p1288
S'B-NP'
p1289
g5
tp1290
a(S'useful'
p1291
S'useful'
p1292
S'JJ'
p1293
S'I-NP'
p1294
g5
tp1295
a(S'agent'
p1296
S'agent'
p1297
S'NN'
p1298
S'I-NP'
p1299
g5
tp1300
a(S'in'
p1301
S'in'
p1302
S'IN'
p1303
S'B-PP'
p1304
g5
tp1305
a(S'the'
p1306
S'the'
p1307
S'DT'
p1308
S'B-NP'
p1309
g5
tp1310
a(S'treatment'
p1311
S'treatment'
p1312
S'NN'
p1313
S'I-NP'
p1314
g5
tp1315
a(S'of'
p1316
S'of'
p1317
S'IN'
p1318
S'B-PP'
p1319
g5
tp1320
a(S'NMS'
p1321
S'NMS'
p1322
S'NN'
p1323
S'B-NP'
p1324
g5
tp1325
a(g37
g37
g37
g5
g5
tp1326
a.