(lp0
(S'Recombinant'
p1
S'Recombinant'
p2
S'JJ'
p3
S'B-NP'
p4
S'B-protein'
p5
tp6
a(S'human'
p7
S'human'
p8
S'JJ'
p9
S'I-NP'
p10
S'I-protein'
p11
tp12
a(S'erythropoietin'
p13
S'erythropoietin'
p14
S'NN'
p15
S'I-NP'
p16
S'I-protein'
p17
tp18
a(S'therapy'
p19
S'therapy'
p20
S'NN'
p21
S'I-NP'
p22
S'O'
p23
tp24
a(S'for'
p25
S'for'
p26
S'IN'
p27
S'B-PP'
p28
g23
tp29
a(S'anemic'
p30
S'anemic'
p31
S'JJ'
p32
S'B-NP'
p33
g23
tp34
a(S'cancer'
p35
S'cancer'
p36
S'NN'
p37
S'I-NP'
p38
g23
tp39
a(S'patients'
p40
S'patient'
p41
S'NNS'
p42
S'I-NP'
p43
g23
tp44
a(S'on'
p45
S'on'
p46
S'IN'
p47
S'B-PP'
p48
g23
tp49
a(S'combination'
p50
S'combination'
p51
S'NN'
p52
S'B-NP'
p53
g23
tp54
a(S'chemotherapy'
p55
S'chemotherapy'
p56
S'NN'
p57
S'I-NP'
p58
g23
tp59
a(S'.'
p60
g60
g60
g23
g23
tp61
a(S'BACKGROUND'
p62
S'BACKGROUND'
p63
S'NN'
p64
S'B-NP'
p65
g23
tp66
a(S'Patients'
p67
S'Patient'
p68
S'NNS'
p69
S'I-NP'
p70
g23
tp71
a(S'with'
p72
S'with'
p73
S'IN'
p74
S'B-PP'
p75
g23
tp76
a(S'advanced'
p77
S'advance'
p78
S'VBN'
p79
S'B-NP'
p80
g23
tp81
a(S'cancer'
p82
S'cancer'
p83
S'NN'
p84
S'I-NP'
p85
g23
tp86
a(S'frequently'
p87
S'frequently'
p88
S'RB'
p89
S'B-ADVP'
p90
g23
tp91
a(S'experience'
p92
S'experience'
p93
S'VBP'
p94
S'B-VP'
p95
g23
tp96
a(S'clinically'
p97
S'clinically'
p98
S'RB'
p99
S'B-NP'
p100
g23
tp101
a(S'significant'
p102
S'significant'
p103
S'JJ'
p104
S'I-NP'
p105
g23
tp106
a(S'anemia'
p107
S'anemia'
p108
S'NN'
p109
S'I-NP'
p110
g23
tp111
a(S','
p112
g112
g112
g23
g23
tp113
a(S'which'
p114
S'which'
p115
S'WDT'
p116
S'B-NP'
p117
g23
tp118
a(S'is'
p119
S'be'
p120
S'VBZ'
p121
S'B-VP'
p122
g23
tp123
a(S'often'
p124
S'often'
p125
S'RB'
p126
S'I-VP'
p127
g23
tp128
a(S'exacerbated'
p129
S'exacerbate'
p130
S'VBN'
p131
S'I-VP'
p132
g23
tp133
a(S'by'
p134
S'by'
p135
S'IN'
p136
S'B-PP'
p137
g23
tp138
a(S'myelosuppressive'
p139
S'myelosuppressive'
p140
S'JJ'
p141
S'B-NP'
p142
g23
tp143
a(S'chemotherapy.'
p144
S'chemotherapy.'
p145
S'NN'
p146
S'I-NP'
p147
g23
tp148
a(S'Consistent'
p149
S'Consistent'
p150
S'JJ'
p151
S'B-ADJP'
p152
g23
tp153
a(S'with'
p154
S'with'
p155
S'IN'
p156
S'B-PP'
p157
g23
tp158
a(S'the'
p159
S'the'
p160
S'DT'
p161
S'B-NP'
p162
g23
tp163
a(S'anemia'
p164
S'anemia'
p165
S'NN'
p166
S'I-NP'
p167
g23
tp168
a(S'of'
p169
S'of'
p170
S'IN'
p171
S'B-PP'
p172
g23
tp173
a(S'chronic'
p174
S'chronic'
p175
S'JJ'
p176
S'B-NP'
p177
g23
tp178
a(S'disease'
p179
S'disease'
p180
S'NN'
p181
S'I-NP'
p182
g23
tp183
a(g112
g112
g112
g23
g23
tp184
a(S'studies'
p185
S'study'
p186
S'NNS'
p187
S'B-NP'
p188
g23
tp189
a(S'have'
p190
S'have'
p191
S'VBP'
p192
S'B-VP'
p193
g23
tp194
a(S'documented'
p195
S'document'
p196
S'VBN'
p197
S'I-VP'
p198
g23
tp199
a(S'serum'
p200
S'serum'
p201
S'NN'
p202
S'B-NP'
p203
S'B-protein'
p204
tp205
a(S'erythropoietin'
p206
S'erythropoietin'
p207
S'NN'
p208
S'I-NP'
p209
S'I-protein'
p210
tp211
a(S'levels'
p212
S'level'
p213
S'NNS'
p214
S'I-NP'
p215
g23
tp216
a(S'that'
p217
S'that'
p218
S'WDT'
p219
S'B-NP'
p220
g23
tp221
a(S'are'
p222
S'be'
p223
S'VBP'
p224
S'B-VP'
p225
g23
tp226
a(S'inappropriately'
p227
S'inappropriately'
p228
S'RB'
p229
S'B-ADJP'
p230
g23
tp231
a(S'low'
p232
S'low'
p233
S'JJ'
p234
S'I-ADJP'
p235
g23
tp236
a(S'for'
p237
S'for'
p238
S'IN'
p239
S'B-PP'
p240
g23
tp241
a(S'the'
p242
S'the'
p243
S'DT'
p244
S'B-NP'
p245
g23
tp246
a(S'degree'
p247
S'degree'
p248
S'NN'
p249
S'I-NP'
p250
g23
tp251
a(S'of'
p252
S'of'
p253
S'IN'
p254
S'B-PP'
p255
g23
tp256
a(S'anemia'
p257
S'anemia'
p258
S'NN'
p259
S'B-NP'
p260
g23
tp261
a(S'in'
p262
S'in'
p263
S'IN'
p264
S'B-PP'
p265
g23
tp266
a(S'cancer'
p267
S'cancer'
p268
S'NN'
p269
S'B-NP'
p270
g23
tp271
a(S'patients.'
p272
S'patients.'
p273
S'NN'
p274
S'I-NP'
p275
g23
tp276
a(S'Myelosuppressive'
p277
S'Myelosuppressive'
p278
S'JJ'
p279
S'I-NP'
p280
g23
tp281
a(S'chemotherapy'
p282
S'chemotherapy'
p283
S'NN'
p284
S'I-NP'
p285
g23
tp286
a(S'impairs'
p287
S'impair'
p288
S'VBZ'
p289
S'B-VP'
p290
g23
tp291
a(S'erythropoiesis'
p292
S'erythropoiesis'
p293
S'NN'
p294
S'B-NP'
p295
g23
tp296
a(g112
g112
g112
g23
g23
tp297
a(S'which'
p298
S'which'
p299
S'WDT'
p300
S'B-NP'
p301
g23
tp302
a(S'may'
p303
S'may'
p304
S'MD'
p305
S'B-VP'
p306
g23
tp307
a(S'not'
p308
S'not'
p309
S'RB'
p310
S'I-VP'
p311
g23
tp312
a(S'fully'
p313
S'fully'
p314
S'RB'
p315
S'I-VP'
p316
g23
tp317
a(S'recover'
p318
S'recover'
p319
S'VB'
p320
S'I-VP'
p321
g23
tp322
a(S'between'
p323
S'between'
p324
S'IN'
p325
S'B-PP'
p326
g23
tp327
a(S'treatment'
p328
S'treatment'
p329
S'NN'
p330
S'B-NP'
p331
g23
tp332
a(S'cycles.'
p333
S'cycles.'
p334
S'NN'
p335
S'I-NP'
p336
g23
tp337
a(S'Recombinant'
p338
S'Recombinant'
p339
S'JJ'
p340
S'I-NP'
p341
g23
tp342
a(S'human'
p343
S'human'
p344
S'JJ'
p345
S'I-NP'
p346
g23
tp347
a(S'erythropoietin'
p348
S'erythropoietin'
p349
S'NN'
p350
S'I-NP'
p351
g23
tp352
a(S'('
p353
g353
g353
g23
g23
tp354
a(S'rHuEPO'
p355
S'rHuEPO'
p356
S'NN'
p357
S'B-NP'
p358
S'B-protein'
p359
tp360
a(S')'
p361
g361
g361
g23
g23
tp362
a(S'has'
p363
S'have'
p364
S'VBZ'
p365
S'B-VP'
p366
g23
tp367
a(S'been'
p368
S'be'
p369
S'VBN'
p370
S'I-VP'
p371
g23
tp372
a(S'used'
p373
S'use'
p374
S'VBN'
p375
S'I-VP'
p376
g23
tp377
a(S'safely'
p378
S'safely'
p379
S'RB'
p380
S'B-ADVP'
p381
g23
tp382
a(S'and'
p383
S'and'
p384
S'CC'
p385
S'I-ADVP'
p386
g23
tp387
a(S'effectively'
p388
S'effectively'
p389
S'RB'
p390
S'I-ADVP'
p391
g23
tp392
a(S'to'
p393
S'to'
p394
S'TO'
p395
S'B-VP'
p396
g23
tp397
a(S'treat'
p398
S'treat'
p399
S'VB'
p400
S'I-VP'
p401
g23
tp402
a(S'anemia'
p403
S'anemia'
p404
S'NN'
p405
S'B-NP'
p406
g23
tp407
a(S'in'
p408
S'in'
p409
S'IN'
p410
S'B-PP'
p411
g23
tp412
a(S'AIDS'
p413
S'AIDS'
p414
S'NN'
p415
S'B-NP'
p416
g23
tp417
a(S'patients'
p418
S'patient'
p419
S'NNS'
p420
S'I-NP'
p421
g23
tp422
a(S'receiving'
p423
S'receive'
p424
S'VBG'
p425
S'B-VP'
p426
g23
tp427
a(S'zidovudine'
p428
S'zidovudine'
p429
S'NN'
p430
S'B-NP'
p431
g23
tp432
a(g353
g353
g353
g23
g23
tp433
a(S'AZT'
p434
S'AZT'
p435
S'NN'
p436
S'B-NP'
p437
g23
tp438
a(g361
g361
g361
g23
g23
tp439
a(S'and'
p440
S'and'
p441
S'CC'
p442
g23
g23
tp443
a(S'in'
p444
S'in'
p445
S'IN'
p446
S'B-PP'
p447
g23
tp448
a(S'patients'
p449
S'patient'
p450
S'NNS'
p451
S'B-NP'
p452
g23
tp453
a(S'with'
p454
S'with'
p455
S'IN'
p456
S'B-PP'
p457
g23
tp458
a(S'chronic'
p459
S'chronic'
p460
S'JJ'
p461
S'B-NP'
p462
g23
tp463
a(S'renal'
p464
S'renal'
p465
S'JJ'
p466
S'I-NP'
p467
g23
tp468
a(S'failure'
p469
S'failure'
p470
S'NN'
p471
S'I-NP'
p472
g23
tp473
a(g60
g60
g60
g23
g23
tp474
a(S'PURPOSE'
p475
S'PURPOSE'
p476
S'NN'
p477
S'B-NP'
p478
g23
tp479
a(S'This'
p480
S'This'
p481
S'DT'
p482
S'B-NP'
p483
g23
tp484
a(S'study'
p485
S'study'
p486
S'NN'
p487
S'I-NP'
p488
g23
tp489
a(S'was'
p490
S'be'
p491
S'VBD'
p492
S'B-VP'
p493
g23
tp494
a(S'designed'
p495
S'design'
p496
S'VBN'
p497
S'I-VP'
p498
g23
tp499
a(S'to'
p500
S'to'
p501
S'TO'
p502
S'B-VP'
p503
g23
tp504
a(S'evaluate'
p505
S'evaluate'
p506
S'VB'
p507
S'I-VP'
p508
g23
tp509
a(S'the'
p510
S'the'
p511
S'DT'
p512
S'B-NP'
p513
g23
tp514
a(S'clinical'
p515
S'clinical'
p516
S'JJ'
p517
S'I-NP'
p518
g23
tp519
a(S'role'
p520
S'role'
p521
S'NN'
p522
S'I-NP'
p523
g23
tp524
a(S'of'
p525
S'of'
p526
S'IN'
p527
S'B-PP'
p528
g23
tp529
a(S'rHuEPO'
p530
S'rHuEPO'
p531
S'NN'
p532
S'B-NP'
p533
S'B-protein'
p534
tp535
a(S'in'
p536
S'in'
p537
S'IN'
p538
S'B-PP'
p539
g23
tp540
a(S'reducing'
p541
S'reduce'
p542
S'VBG'
p543
S'B-VP'
p544
g23
tp545
a(S'symptomatic'
p546
S'symptomatic'
p547
S'JJ'
p548
S'B-NP'
p549
g23
tp550
a(S'anemia'
p551
S'anemia'
p552
S'NN'
p553
S'I-NP'
p554
g23
tp555
a(S'in'
p556
S'in'
p557
S'IN'
p558
S'B-PP'
p559
g23
tp560
a(S'patients'
p561
S'patient'
p562
S'NNS'
p563
S'B-NP'
p564
g23
tp565
a(S'with'
p566
S'with'
p567
S'IN'
p568
S'B-PP'
p569
g23
tp570
a(S'advanced'
p571
S'advance'
p572
S'VBN'
p573
S'B-NP'
p574
g23
tp575
a(S'cancer'
p576
S'cancer'
p577
S'NN'
p578
S'I-NP'
p579
g23
tp580
a(S'who'
p581
S'who'
p582
S'WP'
p583
S'B-NP'
p584
g23
tp585
a(S'were'
p586
S'be'
p587
S'VBD'
p588
S'B-VP'
p589
g23
tp590
a(S'receiving'
p591
S'receive'
p592
S'VBG'
p593
S'I-VP'
p594
g23
tp595
a(S'myelosuppressive'
p596
S'myelosuppressive'
p597
S'JJ'
p598
S'B-NP'
p599
g23
tp600
a(S'chemotherapy'
p601
S'chemotherapy'
p602
S'NN'
p603
S'I-NP'
p604
g23
tp605
a(g353
g353
g353
g23
g23
tp606
a(S'excluding'
p607
S'exclude'
p608
S'VBG'
p609
S'B-PP'
p610
g23
tp611
a(S'cisplatin'
p612
S'cisplatin'
p613
S'NN'
p614
S'B-NP'
p615
g23
tp616
a(g361
g361
g361
g23
g23
tp617
a(g60
g60
g60
g23
g23
tp618
a(S'METHODS'
p619
S'METHODS'
p620
S'NNS'
p621
S'B-NP'
p622
g23
tp623
a(S'We'
p624
S'We'
p625
S'PRP'
p626
S'B-NP'
p627
g23
tp628
a(S'studied'
p629
S'study'
p630
S'VBD'
p631
S'B-VP'
p632
g23
tp633
a(S'153'
p634
S'153'
p635
S'CD'
p636
S'B-NP'
p637
g23
tp638
a(S'anemic'
p639
S'anemic'
p640
S'JJ'
p641
S'I-NP'
p642
g23
tp643
a(S'cancer'
p644
S'cancer'
p645
S'NN'
p646
S'I-NP'
p647
g23
tp648
a(S'patients'
p649
S'patient'
p650
S'NNS'
p651
S'I-NP'
p652
g23
tp653
a(S'receiving'
p654
S'receive'
p655
S'VBG'
p656
S'B-VP'
p657
g23
tp658
a(S'cyclic'
p659
S'cyclic'
p660
S'JJ'
p661
S'B-NP'
p662
g23
tp663
a(S'combination'
p664
S'combination'
p665
S'NN'
p666
S'I-NP'
p667
g23
tp668
a(S'chemotherapy'
p669
S'chemotherapy'
p670
S'NN'
p671
S'I-NP'
p672
g23
tp673
a(S'in'
p674
S'in'
p675
S'IN'
p676
S'B-PP'
p677
g23
tp678
a(S'a'
p679
g679
S'DT'
p680
S'B-NP'
p681
g23
tp682
a(S'prospective'
p683
S'prospective'
p684
S'JJ'
p685
S'I-NP'
p686
g23
tp687
a(S'multicenter'
p688
S'multicenter'
p689
S'JJ'
p690
S'I-NP'
p691
g23
tp692
a(g112
g112
g112
S'I-NP'
p693
g23
tp694
a(S'double-blind'
p695
S'double-blind'
p696
S'JJ'
p697
S'I-NP'
p698
g23
tp699
a(g112
g112
g112
S'I-NP'
p700
g23
tp701
a(S'placebo-controlled'
p702
S'placebo-controlled'
p703
S'JJ'
p704
S'I-NP'
p705
g23
tp706
a(S'trial.'
p707
S'trial.'
p708
S'NN'
p709
S'I-NP'
p710
g23
tp711
a(S'The'
p712
S'The'
p713
S'DT'
p714
S'B-NP'
p715
g23
tp716
a(S'patients'
p717
S'patient'
p718
S'NNS'
p719
S'I-NP'
p720
g23
tp721
a(S'were'
p722
S'be'
p723
S'VBD'
p724
S'B-VP'
p725
g23
tp726
a(S'randomly'
p727
S'randomly'
p728
S'RB'
p729
S'I-VP'
p730
g23
tp731
a(S'assigned'
p732
S'assign'
p733
S'VBN'
p734
S'I-VP'
p735
g23
tp736
a(S'to'
p737
S'to'
p738
S'TO'
p739
S'I-VP'
p740
g23
tp741
a(S'receive'
p742
S'receive'
p743
S'VB'
p744
S'I-VP'
p745
g23
tp746
a(S'either'
p747
S'either'
p748
S'CC'
p749
g23
g23
tp750
a(S'rHuEPO'
p751
S'rHuEPO'
p752
S'NN'
p753
S'B-NP'
p754
S'B-protein'
p755
tp756
a(g353
g353
g353
g23
g23
tp757
a(S'150'
p758
S'150'
p759
S'CD'
p760
S'B-NP'
p761
g23
tp762
a(S'U/kg'
p763
S'U/kg'
p764
S'NN'
p765
S'I-NP'
p766
g23
tp767
a(g361
g361
g361
g23
g23
tp768
a(S'or'
p769
S'or'
p770
S'CC'
p771
g23
g23
tp772
a(S'placebo'
p773
S'placebo'
p774
S'NN'
p775
S'B-NP'
p776
g23
tp777
a(S'subcutaneously'
p778
S'subcutaneously'
p779
S'RB'
p780
S'B-ADVP'
p781
g23
tp782
a(S'three'
p783
S'three'
p784
S'CD'
p785
S'B-NP'
p786
g23
tp787
a(S'times'
p788
S'time'
p789
S'NNS'
p790
S'I-NP'
p791
g23
tp792
a(g679
g679
S'DT'
p793
S'B-NP'
p794
g23
tp795
a(S'week'
p796
S'week'
p797
S'NN'
p798
S'I-NP'
p799
g23
tp800
a(S'for'
p801
S'for'
p802
S'IN'
p803
S'B-PP'
p804
g23
tp805
a(g679
g679
S'DT'
p806
S'B-NP'
p807
g23
tp808
a(S'maximum'
p809
S'maximum'
p810
S'NN'
p811
S'I-NP'
p812
g23
tp813
a(S'of'
p814
S'of'
p815
S'IN'
p816
S'B-PP'
p817
g23
tp818
a(S'12'
p819
S'12'
p820
S'CD'
p821
S'B-NP'
p822
g23
tp823
a(S'weeks'
p824
S'week'
p825
S'NNS'
p826
S'I-NP'
p827
g23
tp828
a(S'or'
p829
S'or'
p830
S'CC'
p831
S'B-PP'
p832
g23
tp833
a(S'until'
p834
S'until'
p835
S'IN'
p836
S'B-SBAR'
p837
g23
tp838
a(S'the'
p839
S'the'
p840
S'DT'
p841
S'B-NP'
p842
g23
tp843
a(S'hematocrit'
p844
S'hematocrit'
p845
S'NN'
p846
S'I-NP'
p847
g23
tp848
a(S'level'
p849
S'level'
p850
S'NN'
p851
S'I-NP'
p852
g23
tp853
a(S'increased'
p854
S'increase'
p855
S'VBD'
p856
S'B-VP'
p857
g23
tp858
a(S'to'
p859
S'to'
p860
S'TO'
p861
S'B-PP'
p862
g23
tp863
a(S'38'
p864
S'38'
p865
S'CD'
p866
S'B-NP'
p867
g23
tp868
a(S'%'
p869
g869
S'NN'
p870
S'I-NP'
p871
g23
tp872
a(S'-40'
p873
S'-40'
p874
S'CD'
p875
S'B-NP'
p876
g23
tp877
a(g869
g869
S'NN'
p878
S'I-NP'
p879
g23
tp880
a(g60
g60
g60
g23
g23
tp881
a(S'If'
p882
S'If'
p883
S'IN'
p884
S'B-SBAR'
p885
g23
tp886
a(S'the'
p887
S'the'
p888
S'DT'
p889
S'B-NP'
p890
g23
tp891
a(S'hematocrit'
p892
S'hematocrit'
p893
S'NN'
p894
S'I-NP'
p895
g23
tp896
a(S'reached'
p897
S'reach'
p898
S'VBD'
p899
S'B-VP'
p900
g23
tp901
a(S'this'
p902
S'this'
p903
S'DT'
p904
S'B-NP'
p905
g23
tp906
a(S'target'
p907
S'target'
p908
S'NN'
p909
S'I-NP'
p910
g23
tp911
a(S'level'
p912
S'level'
p913
S'NN'
p914
S'I-NP'
p915
g23
tp916
a(S'before'
p917
S'before'
p918
S'IN'
p919
S'B-PP'
p920
g23
tp921
a(S'12'
p922
S'12'
p923
S'CD'
p924
S'B-NP'
p925
g23
tp926
a(S'weeks'
p927
S'week'
p928
S'NNS'
p929
S'I-NP'
p930
g23
tp931
a(g112
g112
g112
g23
g23
tp932
a(S'the'
p933
S'the'
p934
S'DT'
p935
S'B-NP'
p936
g23
tp937
a(S'rHuEPO'
p938
S'rHuEPO'
p939
S'NN'
p940
S'I-NP'
p941
g23
tp942
a(S'dose'
p943
S'dose'
p944
S'NN'
p945
S'I-NP'
p946
g23
tp947
a(S'could'
p948
S'could'
p949
S'MD'
p950
S'B-VP'
p951
g23
tp952
a(S'be'
p953
S'be'
p954
S'VB'
p955
S'I-VP'
p956
g23
tp957
a(S'reduced'
p958
S'reduce'
p959
S'VBN'
p960
S'I-VP'
p961
g23
tp962
a(S'to'
p963
S'to'
p964
S'TO'
p965
S'I-VP'
p966
g23
tp967
a(S'maintain'
p968
S'maintain'
p969
S'VB'
p970
S'I-VP'
p971
g23
tp972
a(S'the'
p973
S'the'
p974
S'DT'
p975
S'B-NP'
p976
g23
tp977
a(S'hematocrit'
p978
S'hematocrit'
p979
S'NN'
p980
S'I-NP'
p981
g23
tp982
a(S'at'
p983
S'at'
p984
S'IN'
p985
S'B-PP'
p986
g23
tp987
a(S'that'
p988
S'that'
p989
S'DT'
p990
S'B-NP'
p991
g23
tp992
a(S'level'
p993
S'level'
p994
S'NN'
p995
S'I-NP'
p996
g23
tp997
a(S'for'
p998
S'for'
p999
S'IN'
p1000
S'B-PP'
p1001
g23
tp1002
a(S'the'
p1003
S'the'
p1004
S'DT'
p1005
S'B-NP'
p1006
g23
tp1007
a(S'duration'
p1008
S'duration'
p1009
S'NN'
p1010
S'I-NP'
p1011
g23
tp1012
a(S'of'
p1013
S'of'
p1014
S'IN'
p1015
S'B-PP'
p1016
g23
tp1017
a(S'the'
p1018
S'the'
p1019
S'DT'
p1020
S'B-NP'
p1021
g23
tp1022
a(S'study.'
p1023
S'study.'
p1024
S'NN'
p1025
S'I-NP'
p1026
g23
tp1027
a(S'Response'
p1028
S'Response'
p1029
S'NN'
p1030
S'I-NP'
p1031
g23
tp1032
a(S'to'
p1033
S'to'
p1034
S'TO'
p1035
S'B-PP'
p1036
g23
tp1037
a(S'rHuEPO'
p1038
S'rHuEPO'
p1039
S'NN'
p1040
S'B-NP'
p1041
S'B-protein'
p1042
tp1043
a(S'therapy'
p1044
S'therapy'
p1045
S'NN'
p1046
S'I-NP'
p1047
g23
tp1048
a(S'was'
p1049
S'be'
p1050
S'VBD'
p1051
S'B-VP'
p1052
g23
tp1053
a(S'assessed'
p1054
S'assess'
p1055
S'VBN'
p1056
S'I-VP'
p1057
g23
tp1058
a(S'by'
p1059
S'by'
p1060
S'IN'
p1061
S'B-PP'
p1062
g23
tp1063
a(S'measuring'
p1064
S'measure'
p1065
S'VBG'
p1066
S'B-VP'
p1067
g23
tp1068
a(S'changes'
p1069
S'change'
p1070
S'NNS'
p1071
S'B-NP'
p1072
g23
tp1073
a(S'in'
p1074
S'in'
p1075
S'IN'
p1076
S'B-PP'
p1077
g23
tp1078
a(S'hematocrit'
p1079
S'hematocrit'
p1080
S'NN'
p1081
S'B-NP'
p1082
g23
tp1083
a(S'level'
p1084
S'level'
p1085
S'NN'
p1086
S'I-NP'
p1087
g23
tp1088
a(g112
g112
g112
g23
g23
tp1089
a(S'transfusion'
p1090
S'transfusion'
p1091
S'NN'
p1092
S'B-NP'
p1093
g23
tp1094
a(S'requirements'
p1095
S'requirement'
p1096
S'NNS'
p1097
S'I-NP'
p1098
g23
tp1099
a(g112
g112
g112
g23
g23
tp1100
a(S'and'
p1101
S'and'
p1102
S'CC'
p1103
g23
g23
tp1104
a(S'quality'
p1105
S'quality'
p1106
S'NN'
p1107
S'B-NP'
p1108
g23
tp1109
a(S'of'
p1110
S'of'
p1111
S'IN'
p1112
S'B-PP'
p1113
g23
tp1114
a(S'life.'
p1115
S'life.'
p1116
S'NN'
p1117
S'B-NP'
p1118
g23
tp1119
a(S'Quality-of-life'
p1120
S'Quality-of-life'
p1121
S'NN'
p1122
S'I-NP'
p1123
g23
tp1124
a(S'assessment'
p1125
S'assessment'
p1126
S'NN'
p1127
S'I-NP'
p1128
g23
tp1129
a(S'was'
p1130
S'be'
p1131
S'VBD'
p1132
S'B-VP'
p1133
g23
tp1134
a(S'based'
p1135
S'base'
p1136
S'VBN'
p1137
S'I-VP'
p1138
g23
tp1139
a(S'on'
p1140
S'on'
p1141
S'IN'
p1142
S'B-PP'
p1143
g23
tp1144
a(S'patients'
p1145
S'patient'
p1146
S'NNS'
p1147
S'B-NP'
p1148
g23
tp1149
a(S"'"
p1150
g1150
S'POS'
p1151
S'B-NP'
p1152
g23
tp1153
a(S'responses'
p1154
S'response'
p1155
S'NNS'
p1156
S'I-NP'
p1157
g23
tp1158
a(S'to'
p1159
S'to'
p1160
S'TO'
p1161
S'B-PP'
p1162
g23
tp1163
a(S'questionnaires'
p1164
S'questionnaire'
p1165
S'NNS'
p1166
S'B-NP'
p1167
g23
tp1168
a(S'before'
p1169
S'before'
p1170
S'IN'
p1171
S'B-PP'
p1172
g23
tp1173
a(S'and'
p1174
S'and'
p1175
S'CC'
p1176
S'I-PP'
p1177
g23
tp1178
a(S'after'
p1179
S'after'
p1180
S'IN'
p1181
S'I-PP'
p1182
g23
tp1183
a(S'the'
p1184
S'the'
p1185
S'DT'
p1186
S'B-NP'
p1187
g23
tp1188
a(S'courses'
p1189
S'course'
p1190
S'NNS'
p1191
S'I-NP'
p1192
g23
tp1193
a(S'of'
p1194
S'of'
p1195
S'IN'
p1196
S'B-PP'
p1197
g23
tp1198
a(S'therapy'
p1199
S'therapy'
p1200
S'NN'
p1201
S'B-NP'
p1202
g23
tp1203
a(g60
g60
g60
g23
g23
tp1204
a(S'RESULTS'
p1205
S'RESULTS'
p1206
S'NNS'
p1207
S'B-NP'
p1208
g23
tp1209
a(S'The'
p1210
S'The'
p1211
S'DT'
p1212
S'B-NP'
p1213
g23
tp1214
a(S'increase'
p1215
S'increase'
p1216
S'NN'
p1217
S'I-NP'
p1218
g23
tp1219
a(S'in'
p1220
S'in'
p1221
S'IN'
p1222
S'B-PP'
p1223
g23
tp1224
a(S'hematocrit'
p1225
S'hematocrit'
p1226
S'NN'
p1227
S'B-NP'
p1228
g23
tp1229
a(S'in'
p1230
S'in'
p1231
S'IN'
p1232
S'B-PP'
p1233
g23
tp1234
a(S'the'
p1235
S'the'
p1236
S'DT'
p1237
S'B-NP'
p1238
g23
tp1239
a(S'rHuEPO-treated'
p1240
S'rHuEPO-treated'
p1241
S'JJ'
p1242
S'I-NP'
p1243
g23
tp1244
a(S'group'
p1245
S'group'
p1246
S'NN'
p1247
S'I-NP'
p1248
g23
tp1249
a(S'compared'
p1250
S'compare'
p1251
S'VBN'
p1252
S'B-PP'
p1253
g23
tp1254
a(S'with'
p1255
S'with'
p1256
S'IN'
p1257
S'B-PP'
p1258
g23
tp1259
a(S'hematocrit'
p1260
S'hematocrit'
p1261
S'NN'
p1262
S'B-NP'
p1263
g23
tp1264
a(S'in'
p1265
S'in'
p1266
S'IN'
p1267
S'B-PP'
p1268
g23
tp1269
a(S'the'
p1270
S'the'
p1271
S'DT'
p1272
S'B-NP'
p1273
g23
tp1274
a(S'placebo-treated'
p1275
S'placebo-treated'
p1276
S'JJ'
p1277
S'I-NP'
p1278
g23
tp1279
a(S'group'
p1280
S'group'
p1281
S'NN'
p1282
S'I-NP'
p1283
g23
tp1284
a(S'was'
p1285
S'be'
p1286
S'VBD'
p1287
S'B-VP'
p1288
g23
tp1289
a(S'statistically'
p1290
S'statistically'
p1291
S'RB'
p1292
S'B-ADJP'
p1293
g23
tp1294
a(S'significant'
p1295
S'significant'
p1296
S'JJ'
p1297
S'I-ADJP'
p1298
g23
tp1299
a(g353
g353
g353
g23
g23
tp1300
a(S'P'
p1301
g1301
S'NN'
p1302
S'B-NP'
p1303
g23
tp1304
a(S'='
p1305
g1305
S'SYM'
p1306
S'B-VP'
p1307
g23
tp1308
a(S'.0001'
p1309
S'.0001'
p1310
S'CD'
p1311
S'B-NP'
p1312
g23
tp1313
a(g361
g361
g361
g23
g23
tp1314
a(S'as'
p1315
S'as'
p1316
S'IN'
p1317
S'B-SBAR'
p1318
g23
tp1319
a(S'measured'
p1320
S'measure'
p1321
S'VBN'
p1322
S'B-VP'
p1323
g23
tp1324
a(S'by'
p1325
S'by'
p1326
S'IN'
p1327
S'B-PP'
p1328
g23
tp1329
a(S'percentage'
p1330
S'percentage'
p1331
S'NN'
p1332
S'B-NP'
p1333
g23
tp1334
a(S'point'
p1335
S'point'
p1336
S'NN'
p1337
S'I-NP'
p1338
g23
tp1339
a(S'of'
p1340
S'of'
p1341
S'IN'
p1342
S'B-PP'
p1343
g23
tp1344
a(S'change'
p1345
S'change'
p1346
S'NN'
p1347
S'B-NP'
p1348
g23
tp1349
a(S'from'
p1350
S'from'
p1351
S'IN'
p1352
S'B-PP'
p1353
g23
tp1354
a(S'baseline'
p1355
S'baseline'
p1356
S'NN'
p1357
S'B-NP'
p1358
g23
tp1359
a(S'to'
p1360
S'to'
p1361
S'TO'
p1362
S'B-PP'
p1363
g23
tp1364
a(S'final'
p1365
S'final'
p1366
S'JJ'
p1367
S'B-NP'
p1368
g23
tp1369
a(S'evaluation'
p1370
S'evaluation'
p1371
S'NN'
p1372
S'I-NP'
p1373
g23
tp1374
a(g112
g112
g112
g23
g23
tp1375
a(S'by'
p1376
S'by'
p1377
S'IN'
p1378
S'B-PP'
p1379
g23
tp1380
a(S'an'
p1381
S'an'
p1382
S'DT'
p1383
S'B-NP'
p1384
g23
tp1385
a(S'increase'
p1386
S'increase'
p1387
S'NN'
p1388
S'I-NP'
p1389
g23
tp1390
a(S'in'
p1391
S'in'
p1392
S'IN'
p1393
S'B-PP'
p1394
g23
tp1395
a(S'hematocrit'
p1396
S'hematocrit'
p1397
S'NN'
p1398
S'B-NP'
p1399
g23
tp1400
a(S'level'
p1401
S'level'
p1402
S'NN'
p1403
S'I-NP'
p1404
g23
tp1405
a(S'of'
p1406
S'of'
p1407
S'IN'
p1408
S'B-PP'
p1409
g23
tp1410
a(S'six'
p1411
S'six'
p1412
S'CD'
p1413
S'B-NP'
p1414
g23
tp1415
a(S'percentage'
p1416
S'percentage'
p1417
S'NN'
p1418
S'I-NP'
p1419
g23
tp1420
a(S'points'
p1421
S'point'
p1422
S'NNS'
p1423
S'I-NP'
p1424
g23
tp1425
a(S'or'
p1426
S'or'
p1427
S'CC'
p1428
g23
g23
tp1429
a(S'more'
p1430
S'more'
p1431
S'RBR'
p1432
S'B-ADJP'
p1433
g23
tp1434
a(S'unrelated'
p1435
S'unrelated'
p1436
S'JJ'
p1437
S'I-ADJP'
p1438
g23
tp1439
a(S'to'
p1440
S'to'
p1441
S'TO'
p1442
S'B-PP'
p1443
g23
tp1444
a(S'transfusion'
p1445
S'transfusion'
p1446
S'NN'
p1447
S'B-NP'
p1448
g23
tp1449
a(g112
g112
g112
g23
g23
tp1450
a(S'and'
p1451
S'and'
p1452
S'CC'
p1453
g23
g23
tp1454
a(S'by'
p1455
S'by'
p1456
S'IN'
p1457
S'B-PP'
p1458
g23
tp1459
a(g679
g679
S'DT'
p1460
S'B-NP'
p1461
g23
tp1462
a(S'rise'
p1463
S'rise'
p1464
S'NN'
p1465
S'I-NP'
p1466
g23
tp1467
a(S'in'
p1468
S'in'
p1469
S'IN'
p1470
S'B-PP'
p1471
g23
tp1472
a(S'hematocrit'
p1473
S'hematocrit'
p1474
S'NN'
p1475
S'B-NP'
p1476
g23
tp1477
a(S'level'
p1478
S'level'
p1479
S'NN'
p1480
S'I-NP'
p1481
g23
tp1482
a(S'to'
p1483
S'to'
p1484
S'TO'
p1485
S'B-PP'
p1486
g23
tp1487
a(S'38'
p1488
S'38'
p1489
S'CD'
p1490
S'B-NP'
p1491
g23
tp1492
a(g869
g869
S'NN'
p1493
S'I-NP'
p1494
g23
tp1495
a(S'or'
p1496
S'or'
p1497
S'CC'
p1498
g23
g23
tp1499
a(S'more'
p1500
S'more'
p1501
S'RBR'
p1502
S'B-ADJP'
p1503
g23
tp1504
a(S'unrelated'
p1505
S'unrelated'
p1506
S'JJ'
p1507
S'I-ADJP'
p1508
g23
tp1509
a(S'to'
p1510
S'to'
p1511
S'TO'
p1512
S'B-VP'
p1513
g23
tp1514
a(S'transfusion.'
p1515
S'transfusion.'
p1516
S'VB'
p1517
S'I-VP'
p1518
g23
tp1519
a(S'There'
p1520
S'There'
p1521
S'EX'
p1522
S'B-NP'
p1523
g23
tp1524
a(S'was'
p1525
S'be'
p1526
S'VBD'
p1527
S'B-VP'
p1528
g23
tp1529
a(g679
g679
S'DT'
p1530
S'B-NP'
p1531
g23
tp1532
a(S'trend'
p1533
S'trend'
p1534
S'NN'
p1535
S'I-NP'
p1536
g23
tp1537
a(S'toward'
p1538
S'toward'
p1539
S'IN'
p1540
S'B-PP'
p1541
g23
tp1542
a(S'the'
p1543
S'the'
p1544
S'DT'
p1545
S'B-NP'
p1546
g23
tp1547
a(S'reduction'
p1548
S'reduction'
p1549
S'NN'
p1550
S'I-NP'
p1551
g23
tp1552
a(S'in'
p1553
S'in'
p1554
S'IN'
p1555
S'B-PP'
p1556
g23
tp1557
a(S'mean'
p1558
S'mean'
p1559
S'JJ'
p1560
S'B-NP'
p1561
g23
tp1562
a(S'units'
p1563
S'unit'
p1564
S'NNS'
p1565
S'I-NP'
p1566
g23
tp1567
a(S'of'
p1568
S'of'
p1569
S'IN'
p1570
S'B-PP'
p1571
g23
tp1572
a(S'blood'
p1573
S'blood'
p1574
S'NN'
p1575
S'B-NP'
p1576
g23
tp1577
a(S'transfused'
p1578
S'transfuse'
p1579
S'VBN'
p1580
S'B-VP'
p1581
g23
tp1582
a(S'per'
p1583
S'per'
p1584
S'IN'
p1585
S'B-PP'
p1586
g23
tp1587
a(S'patient'
p1588
S'patient'
p1589
S'NN'
p1590
S'B-NP'
p1591
g23
tp1592
a(S'during'
p1593
S'during'
p1594
S'IN'
p1595
S'B-PP'
p1596
g23
tp1597
a(S'months'
p1598
S'month'
p1599
S'NNS'
p1600
S'B-NP'
p1601
g23
tp1602
a(S'2'
p1603
g1603
S'CD'
p1604
S'I-NP'
p1605
g23
tp1606
a(S'and'
p1607
S'and'
p1608
S'CC'
p1609
S'I-NP'
p1610
g23
tp1611
a(S'3'
p1612
g1612
S'CD'
p1613
S'I-NP'
p1614
g23
tp1615
a(S'of'
p1616
S'of'
p1617
S'IN'
p1618
S'B-PP'
p1619
g23
tp1620
a(S'therapy'
p1621
S'therapy'
p1622
S'NN'
p1623
S'B-NP'
p1624
g23
tp1625
a(S'combined'
p1626
S'combine'
p1627
S'VBN'
p1628
S'B-VP'
p1629
g23
tp1630
a(S'in'
p1631
S'in'
p1632
S'IN'
p1633
S'B-PP'
p1634
g23
tp1635
a(S'rHuEPO-treated'
p1636
S'rHuEPO-treated'
p1637
S'JJ'
p1638
S'B-NP'
p1639
g23
tp1640
a(S'patients'
p1641
S'patient'
p1642
S'NNS'
p1643
S'I-NP'
p1644
g23
tp1645
a(S'compared'
p1646
S'compare'
p1647
S'VBN'
p1648
S'B-PP'
p1649
g23
tp1650
a(S'with'
p1651
S'with'
p1652
S'IN'
p1653
S'B-PP'
p1654
g23
tp1655
a(S'placebo-treated'
p1656
S'placebo-treated'
p1657
S'JJ'
p1658
S'B-NP'
p1659
g23
tp1660
a(S'patients'
p1661
S'patient'
p1662
S'NNS'
p1663
S'I-NP'
p1664
g23
tp1665
a(g353
g353
g353
g23
g23
tp1666
a(S'0.91'
p1667
S'0.91'
p1668
S'CD'
p1669
S'B-NP'
p1670
g23
tp1671
a(S'U'
p1672
g1672
S'NN'
p1673
S'I-NP'
p1674
g23
tp1675
a(S'versus'
p1676
S'versus'
p1677
S'IN'
p1678
S'B-PP'
p1679
g23
tp1680
a(S'1.65'
p1681
S'1.65'
p1682
S'CD'
p1683
S'B-NP'
p1684
g23
tp1685
a(g1672
g1672
S'NN'
p1686
S'I-NP'
p1687
g23
tp1688
a(S';'
p1689
g1689
S':'
p1690
g23
g23
tp1691
a(g1301
g1301
S'NN'
p1692
S'B-NP'
p1693
g23
tp1694
a(g1305
g1305
S'SYM'
p1695
S'B-VP'
p1696
g23
tp1697
a(S'.056'
p1698
S'.056'
p1699
S'CD'
p1700
S'B-NP'
p1701
g23
tp1702
a(g361
g361
g361
g23
g23
tp1703
a(g60
g60
g60
g23
g23
tp1704
a(S'In'
p1705
S'In'
p1706
S'IN'
p1707
S'B-PP'
p1708
g23
tp1709
a(S'addition'
p1710
S'addition'
p1711
S'NN'
p1712
S'B-NP'
p1713
g23
tp1714
a(g112
g112
g112
g23
g23
tp1715
a(S'rHuEPO-treated'
p1716
S'rHuEPO-treated'
p1717
S'JJ'
p1718
S'B-NP'
p1719
g23
tp1720
a(S'patients'
p1721
S'patient'
p1722
S'NNS'
p1723
S'I-NP'
p1724
g23
tp1725
a(S'experienced'
p1726
S'experience'
p1727
S'VBD'
p1728
S'B-VP'
p1729
g23
tp1730
a(g679
g679
S'DT'
p1731
S'B-NP'
p1732
g23
tp1733
a(S'statistically'
p1734
S'statistically'
p1735
S'RB'
p1736
S'I-NP'
p1737
g23
tp1738
a(S'significant'
p1739
S'significant'
p1740
S'JJ'
p1741
S'I-NP'
p1742
g23
tp1743
a(S'improvement'
p1744
S'improvement'
p1745
S'NN'
p1746
S'I-NP'
p1747
g23
tp1748
a(S'in'
p1749
S'in'
p1750
S'IN'
p1751
S'B-PP'
p1752
g23
tp1753
a(S'energy'
p1754
S'energy'
p1755
S'NN'
p1756
S'B-NP'
p1757
g23
tp1758
a(S'level'
p1759
S'level'
p1760
S'NN'
p1761
S'I-NP'
p1762
g23
tp1763
a(S'and'
p1764
S'and'
p1765
S'CC'
p1766
S'I-NP'
p1767
g23
tp1768
a(S'ability'
p1769
S'ability'
p1770
S'NN'
p1771
S'I-NP'
p1772
g23
tp1773
a(S'to'
p1774
S'to'
p1775
S'TO'
p1776
S'B-VP'
p1777
g23
tp1778
a(S'perform'
p1779
S'perform'
p1780
S'VB'
p1781
S'I-VP'
p1782
g23
tp1783
a(S'daily'
p1784
S'daily'
p1785
S'JJ'
p1786
S'B-NP'
p1787
g23
tp1788
a(S'activities'
p1789
S'activity'
p1790
S'NNS'
p1791
S'I-NP'
p1792
g23
tp1793
a(g353
g353
g353
g23
g23
tp1794
a(g1301
g1301
S'NN'
p1795
S'B-NP'
p1796
g23
tp1797
a(S'<'
p1798
g1798
S'SYM'
p1799
S'B-VP'
p1800
g23
tp1801
a(S'or'
p1802
S'or'
p1803
S'CC'
p1804
g23
g23
tp1805
a(g1305
g1305
S'SYM'
p1806
S'B-VP'
p1807
g23
tp1808
a(S'.05'
p1809
S'.05'
p1810
S'CD'
p1811
S'B-NP'
p1812
g23
tp1813
a(g361
g361
g361
g23
g23
tp1814
a(g60
g60
g60
g23
g23
tp1815
a(S'The'
p1816
S'The'
p1817
S'DT'
p1818
S'B-NP'
p1819
g23
tp1820
a(S'two'
p1821
S'two'
p1822
S'CD'
p1823
S'I-NP'
p1824
g23
tp1825
a(S'treatment'
p1826
S'treatment'
p1827
S'NN'
p1828
S'I-NP'
p1829
g23
tp1830
a(S'groups'
p1831
S'group'
p1832
S'NNS'
p1833
S'I-NP'
p1834
g23
tp1835
a(S'showed'
p1836
S'show'
p1837
S'VBD'
p1838
S'B-VP'
p1839
g23
tp1840
a(S'no'
p1841
S'no'
p1842
S'DT'
p1843
S'B-NP'
p1844
g23
tp1845
a(S'statistically'
p1846
S'statistically'
p1847
S'RB'
p1848
S'I-NP'
p1849
g23
tp1850
a(S'significant'
p1851
S'significant'
p1852
S'JJ'
p1853
S'I-NP'
p1854
g23
tp1855
a(S'differences'
p1856
S'difference'
p1857
S'NNS'
p1858
S'I-NP'
p1859
g23
tp1860
a(S'in'
p1861
S'in'
p1862
S'IN'
p1863
S'B-PP'
p1864
g23
tp1865
a(S'toxic'
p1866
S'toxic'
p1867
S'JJ'
p1868
S'B-NP'
p1869
g23
tp1870
a(S'effects'
p1871
S'effect'
p1872
S'NNS'
p1873
S'I-NP'
p1874
g23
tp1875
a(S'except'
p1876
S'except'
p1877
S'IN'
p1878
S'B-PP'
p1879
g23
tp1880
a(S'for'
p1881
S'for'
p1882
S'IN'
p1883
S'B-PP'
p1884
g23
tp1885
a(S'increased'
p1886
S'increase'
p1887
S'VBN'
p1888
S'B-NP'
p1889
g23
tp1890
a(S'incidence'
p1891
S'incidence'
p1892
S'NN'
p1893
S'I-NP'
p1894
g23
tp1895
a(S'of'
p1896
S'of'
p1897
S'IN'
p1898
S'B-PP'
p1899
g23
tp1900
a(S'diaphoresis'
p1901
S'diaphoresis'
p1902
S'NN'
p1903
S'B-NP'
p1904
g23
tp1905
a(g353
g353
g353
g23
g23
tp1906
a(g1301
g1301
S'NN'
p1907
S'B-NP'
p1908
g23
tp1909
a(g1798
g1798
S'JJR'
p1910
S'B-NP'
p1911
g23
tp1912
a(S'.05'
p1913
S'.05'
p1914
S'CD'
p1915
S'I-NP'
p1916
g23
tp1917
a(g361
g361
g361
g23
g23
tp1918
a(S'and'
p1919
S'and'
p1920
S'CC'
p1921
g23
g23
tp1922
a(S'diarrhea'
p1923
S'diarrhea'
p1924
S'NN'
p1925
S'B-NP'
p1926
g23
tp1927
a(g353
g353
g353
g23
g23
tp1928
a(g1301
g1301
S'NN'
p1929
S'B-NP'
p1930
g23
tp1931
a(g1305
g1305
S'SYM'
p1932
S'B-VP'
p1933
g23
tp1934
a(S'.05'
p1935
S'.05'
p1936
S'CD'
p1937
S'B-NP'
p1938
g23
tp1939
a(g361
g361
g361
g23
g23
tp1940
a(S'in'
p1941
S'in'
p1942
S'IN'
p1943
S'B-PP'
p1944
g23
tp1945
a(S'the'
p1946
S'the'
p1947
S'DT'
p1948
S'B-NP'
p1949
g23
tp1950
a(S'rHuEPO-treated'
p1951
S'rHuEPO-treated'
p1952
S'JJ'
p1953
S'I-NP'
p1954
g23
tp1955
a(S'group'
p1956
S'group'
p1957
S'NN'
p1958
S'I-NP'
p1959
g23
tp1960
a(g60
g60
g60
g23
g23
tp1961
a(S'CONCLUSIONS'
p1962
S'CONCLUSIONS'
p1963
S'NNS'
p1964
S'B-NP'
p1965
g23
tp1966
a(S'We'
p1967
S'We'
p1968
S'PRP'
p1969
S'B-NP'
p1970
g23
tp1971
a(S'conclude'
p1972
S'conclude'
p1973
S'VBP'
p1974
S'B-VP'
p1975
g23
tp1976
a(S'that'
p1977
S'that'
p1978
S'IN'
p1979
S'B-SBAR'
p1980
g23
tp1981
a(S'rHuEPO'
p1982
S'rHuEPO'
p1983
S'NN'
p1984
S'B-NP'
p1985
S'B-protein'
p1986
tp1987
a(S'is'
p1988
S'be'
p1989
S'VBZ'
p1990
S'B-VP'
p1991
g23
tp1992
a(S'safe'
p1993
S'safe'
p1994
S'JJ'
p1995
S'B-ADJP'
p1996
g23
tp1997
a(S'and'
p1998
S'and'
p1999
S'CC'
p2000
S'I-ADJP'
p2001
g23
tp2002
a(S'effective'
p2003
S'effective'
p2004
S'JJ'
p2005
S'I-ADJP'
p2006
g23
tp2007
a(S'for'
p2008
S'for'
p2009
S'IN'
p2010
S'B-PP'
p2011
g23
tp2012
a(S'reversing'
p2013
S'reverse'
p2014
S'VBG'
p2015
S'B-VP'
p2016
g23
tp2017
a(S'anemia'
p2018
S'anemia'
p2019
S'NN'
p2020
S'B-NP'
p2021
g23
tp2022
a(S'related'
p2023
S'related'
p2024
S'JJ'
p2025
S'B-ADJP'
p2026
g23
tp2027
a(S'to'
p2028
S'to'
p2029
S'TO'
p2030
S'B-PP'
p2031
g23
tp2032
a(S'advanced'
p2033
S'advance'
p2034
S'VBN'
p2035
S'B-NP'
p2036
g23
tp2037
a(S'cancer'
p2038
S'cancer'
p2039
S'NN'
p2040
S'I-NP'
p2041
g23
tp2042
a(S'or'
p2043
S'or'
p2044
S'CC'
p2045
S'B-PP'
p2046
g23
tp2047
a(S'to'
p2048
S'to'
p2049
S'TO'
p2050
S'B-PP'
p2051
g23
tp2052
a(S'chemotherapy'
p2053
S'chemotherapy'
p2054
S'NN'
p2055
S'B-NP'
p2056
g23
tp2057
a(S'for'
p2058
S'for'
p2059
S'IN'
p2060
S'B-PP'
p2061
g23
tp2062
a(S'cancer'
p2063
S'cancer'
p2064
S'NN'
p2065
S'B-NP'
p2066
g23
tp2067
a(g60
g60
g60
g23
g23
tp2068
a.