(lp0
(S'Onset'
p1
S'Onset'
p2
S'NN'
p3
S'B-NP'
p4
S'O'
p5
tp6
a(S'of'
p7
S'of'
p8
S'IN'
p9
S'B-PP'
p10
g5
tp11
a(S'action'
p12
S'action'
p13
S'NN'
p14
S'B-NP'
p15
g5
tp16
a(S'following'
p17
S'follow'
p18
S'VBG'
p19
S'B-PP'
p20
g5
tp21
a(S'formoterol'
p22
S'formoterol'
p23
S'NN'
p24
S'B-NP'
p25
g5
tp26
a(S'Turbuhaler'
p27
S'Turbuhaler'
p28
S'NN'
p29
S'I-NP'
p30
g5
tp31
a(S'and'
p32
S'and'
p33
S'CC'
p34
g5
g5
tp35
a(S'salbutamol'
p36
S'salbutamol'
p37
S'NN'
p38
S'B-NP'
p39
g5
tp40
a(S'pMDI'
p41
S'pMDI'
p42
S'NN'
p43
S'I-NP'
p44
g5
tp45
a(S'in'
p46
S'in'
p47
S'IN'
p48
S'B-PP'
p49
g5
tp50
a(S'reversible'
p51
S'reversible'
p52
S'JJ'
p53
S'B-NP'
p54
g5
tp55
a(S'chronic'
p56
S'chronic'
p57
S'JJ'
p58
S'I-NP'
p59
g5
tp60
a(S'airway'
p61
S'airway'
p62
S'NN'
p63
S'I-NP'
p64
g5
tp65
a(S'obstruction'
p66
S'obstruction'
p67
S'NN'
p68
S'I-NP'
p69
g5
tp70
a(S'.'
p71
g71
g71
g5
g5
tp72
a(S'Short-acting'
p73
S'Short-acting'
p74
S'JJ'
p75
S'B-NP'
p76
g5
tp77
a(S'beta'
p78
S'beta'
p79
S'NN'
p80
S'I-NP'
p81
g5
tp82
a(S'('
p83
g83
g83
g5
g5
tp84
a(S'2'
p85
g85
S'CD'
p86
S'B-NP'
p87
g5
tp88
a(S')'
p89
g89
g89
g5
g5
tp90
a(S'-agonists'
p91
S'-agonist'
p92
S'NNS'
p93
S'B-NP'
p94
g5
tp95
a(S'are'
p96
S'be'
p97
S'VBP'
p98
S'B-VP'
p99
g5
tp100
a(S'currently'
p101
S'currently'
p102
S'RB'
p103
S'I-VP'
p104
g5
tp105
a(S'recommended'
p106
S'recommend'
p107
S'VBN'
p108
S'I-VP'
p109
g5
tp110
a(S'for'
p111
S'for'
p112
S'IN'
p113
S'B-PP'
p114
g5
tp115
a(S'symptom'
p116
S'symptom'
p117
S'NN'
p118
S'B-NP'
p119
g5
tp120
a(S'relief'
p121
S'relief'
p122
S'NN'
p123
S'I-NP'
p124
g5
tp125
a(S'in'
p126
S'in'
p127
S'IN'
p128
S'B-PP'
p129
g5
tp130
a(S'asthma'
p131
S'asthma'
p132
S'NN'
p133
S'B-NP'
p134
g5
tp135
a(S'and'
p136
S'and'
p137
S'CC'
p138
g5
g5
tp139
a(S'the'
p140
S'the'
p141
S'DT'
p142
S'B-NP'
p143
g5
tp144
a(S'treatment'
p145
S'treatment'
p146
S'NN'
p147
S'I-NP'
p148
g5
tp149
a(S'of'
p150
S'of'
p151
S'IN'
p152
S'B-PP'
p153
g5
tp154
a(S'mild'
p155
S'mild'
p156
S'JJ'
p157
S'B-NP'
p158
g5
tp159
a(S','
p160
g160
g160
S'I-NP'
p161
g5
tp162
a(S'acute'
p163
S'acute'
p164
S'JJ'
p165
S'I-NP'
p166
g5
tp167
a(S'exacerbations'
p168
S'exacerbation'
p169
S'NNS'
p170
S'I-NP'
p171
g5
tp172
a(S'in'
p173
S'in'
p174
S'IN'
p175
S'B-PP'
p176
g5
tp177
a(S'COPD.'
p178
S'COPD.'
p179
S'NNP'
p180
S'B-NP'
p181
g5
tp182
a(S'However'
p183
S'However'
p184
S'NNP'
p185
S'I-NP'
p186
g5
tp187
a(g160
g160
g160
g5
g5
tp188
a(S'formoterol'
p189
S'formoterol'
p190
S'NN'
p191
S'B-NP'
p192
g5
tp193
a(S'has'
p194
S'have'
p195
S'VBZ'
p196
S'B-VP'
p197
g5
tp198
a(S'as'
p199
S'as'
p200
S'RB'
p201
S'B-ADVP'
p202
g5
tp203
a(S'fast'
p204
S'fast'
p205
S'RB'
p206
S'I-ADVP'
p207
g5
tp208
a(S'an'
p209
S'an'
p210
S'DT'
p211
S'B-NP'
p212
g5
tp213
a(S'onset'
p214
S'onset'
p215
S'NN'
p216
S'I-NP'
p217
g5
tp218
a(S'of'
p219
S'of'
p220
S'IN'
p221
S'B-PP'
p222
g5
tp223
a(S'action'
p224
S'action'
p225
S'NN'
p226
S'B-NP'
p227
g5
tp228
a(S'as'
p229
S'as'
p230
S'IN'
p231
S'B-PP'
p232
g5
tp233
a(S'salbutamol'
p234
S'salbutamol'
p235
S'NN'
p236
S'B-NP'
p237
g5
tp238
a(S'with'
p239
S'with'
p240
S'IN'
p241
S'B-PP'
p242
g5
tp243
a(S'the'
p244
S'the'
p245
S'DT'
p246
S'B-NP'
p247
g5
tp248
a(S'additional'
p249
S'additional'
p250
S'JJ'
p251
S'I-NP'
p252
g5
tp253
a(S'benefit'
p254
S'benefit'
p255
S'NN'
p256
S'I-NP'
p257
g5
tp258
a(S'of'
p259
S'of'
p260
S'IN'
p261
S'B-PP'
p262
g5
tp263
a(S'longer-lasting'
p264
S'longer-lasting'
p265
S'JJ'
p266
S'B-NP'
p267
g5
tp268
a(S'bronchodilation'
p269
S'bronchodilation'
p270
S'NN'
p271
S'I-NP'
p272
g5
tp273
a(g83
g83
g83
g5
g5
tp274
a(S'approximately'
p275
S'approximately'
p276
S'RB'
p277
S'B-NP'
p278
g5
tp279
a(S'12'
p280
S'12'
p281
S'CD'
p282
S'I-NP'
p283
g5
tp284
a(S'h'
p285
g285
S'NN'
p286
S'I-NP'
p287
g5
tp288
a(g89
g89
g89
g5
g5
tp289
a(g71
g71
g71
g5
g5
tp290
a(S'Furthermore'
p291
S'Furthermore'
p292
S'RB'
p293
S'B-ADVP'
p294
g5
tp295
a(g160
g160
g160
g5
g5
tp296
a(S'systemic'
p297
S'systemic'
p298
S'JJ'
p299
S'B-NP'
p300
g5
tp301
a(S'side'
p302
S'side'
p303
S'NN'
p304
S'I-NP'
p305
g5
tp306
a(S'effects'
p307
S'effect'
p308
S'NNS'
p309
S'I-NP'
p310
g5
tp311
a(S'observed'
p312
S'observe'
p313
S'VBN'
p314
S'B-VP'
p315
g5
tp316
a(S'with'
p317
S'with'
p318
S'IN'
p319
S'B-PP'
p320
g5
tp321
a(S'formoterol'
p322
S'formoterol'
p323
S'NN'
p324
S'B-NP'
p325
g5
tp326
a(S'are'
p327
S'be'
p328
S'VBP'
p329
S'B-VP'
p330
g5
tp331
a(S'of'
p332
S'of'
p333
S'IN'
p334
S'B-PP'
p335
g5
tp336
a(S'a'
p337
g337
S'DT'
p338
S'B-NP'
p339
g5
tp340
a(S'similar'
p341
S'similar'
p342
S'JJ'
p343
S'I-NP'
p344
g5
tp345
a(S'duration'
p346
S'duration'
p347
S'NN'
p348
S'I-NP'
p349
g5
tp350
a(S'but'
p351
S'but'
p352
S'CC'
p353
g5
g5
tp354
a(S'less'
p355
S'less'
p356
S'RBR'
p357
S'B-ADJP'
p358
g5
tp359
a(S'pronounced'
p360
S'pronounced'
p361
S'JJ'
p362
S'I-ADJP'
p363
g5
tp364
a(S'than'
p365
S'than'
p366
S'IN'
p367
S'B-PP'
p368
g5
tp369
a(S'with'
p370
S'with'
p371
S'IN'
p372
S'B-PP'
p373
g5
tp374
a(S'short-acting'
p375
S'short-acting'
p376
S'JJ'
p377
S'B-NP'
p378
g5
tp379
a(S'beta'
p380
S'beta'
p381
S'NN'
p382
S'I-NP'
p383
g5
tp384
a(g83
g83
g83
g5
g5
tp385
a(g85
g85
S'CD'
p386
S'B-NP'
p387
g5
tp388
a(g89
g89
g89
g5
g5
tp389
a(S'-agonists.'
p390
S'-agonists.'
p391
S'CD'
p392
S'B-NP'
p393
g5
tp394
a(S'In'
p395
S'In'
p396
S'IN'
p397
S'B-PP'
p398
g5
tp399
a(S'this'
p400
S'this'
p401
S'DT'
p402
S'B-NP'
p403
g5
tp404
a(S'double-blind'
p405
S'double-blind'
p406
S'JJ'
p407
S'I-NP'
p408
g5
tp409
a(g160
g160
g160
g5
g5
tp410
a(S'randomized'
p411
S'randomize'
p412
S'VBN'
p413
S'B-NP'
p414
g5
tp415
a(g160
g160
g160
S'I-NP'
p416
g5
tp417
a(S'cross-over'
p418
S'cross-over'
p419
S'JJ'
p420
S'I-NP'
p421
g5
tp422
a(S'study'
p423
S'study'
p424
S'NN'
p425
S'I-NP'
p426
g5
tp427
a(g160
g160
g160
g5
g5
tp428
a(S'20'
p429
S'20'
p430
S'CD'
p431
S'B-NP'
p432
g5
tp433
a(S'adult'
p434
S'adult'
p435
S'JJ'
p436
S'I-NP'
p437
g5
tp438
a(S'patients'
p439
S'patient'
p440
S'NNS'
p441
S'I-NP'
p442
g5
tp443
a(S'with'
p444
S'with'
p445
S'IN'
p446
S'B-PP'
p447
g5
tp448
a(S'reversible'
p449
S'reversible'
p450
S'JJ'
p451
S'B-NP'
p452
g5
tp453
a(S'chronic'
p454
S'chronic'
p455
S'JJ'
p456
S'I-NP'
p457
g5
tp458
a(S'airway'
p459
S'airway'
p460
S'NN'
p461
S'I-NP'
p462
g5
tp463
a(S'obstruction'
p464
S'obstruction'
p465
S'NN'
p466
S'I-NP'
p467
g5
tp468
a(g83
g83
g83
g5
g5
tp469
a(S'intrinsic'
p470
S'intrinsic'
p471
S'JJ'
p472
S'B-NP'
p473
g5
tp474
a(S'asthma'
p475
S'asthma'
p476
S'NN'
p477
S'I-NP'
p478
g5
tp479
a(S'or'
p480
S'or'
p481
S'CC'
p482
S'I-NP'
p483
g5
tp484
a(S'COPD'
p485
S'COPD'
p486
S'NN'
p487
S'I-NP'
p488
g5
tp489
a(g89
g89
g89
g5
g5
tp490
a(S'inhaled'
p491
S'inhale'
p492
S'VBD'
p493
S'B-VP'
p494
g5
tp495
a(S'single'
p496
S'single'
p497
S'JJ'
p498
S'B-NP'
p499
g5
tp500
a(S'doses'
p501
S'dose'
p502
S'NNS'
p503
S'I-NP'
p504
g5
tp505
a(S'of'
p506
S'of'
p507
S'IN'
p508
S'B-PP'
p509
g5
tp510
a(S'formoterol'
p511
S'formoterol'
p512
S'NN'
p513
S'B-NP'
p514
g5
tp515
a(S'9'
p516
g516
S'CD'
p517
S'I-NP'
p518
g5
tp519
a(S'microg'
p520
S'microg'
p521
S'NN'
p522
S'I-NP'
p523
g5
tp524
a(S'or'
p525
S'or'
p526
S'CC'
p527
S'I-NP'
p528
g5
tp529
a(S'salbutamol'
p530
S'salbutamol'
p531
S'NN'
p532
S'I-NP'
p533
g5
tp534
a(S'100'
p535
S'100'
p536
S'CD'
p537
S'I-NP'
p538
g5
tp539
a(S'microg'
p540
S'microg'
p541
S'NN'
p542
S'I-NP'
p543
g5
tp544
a(g83
g83
g83
g5
g5
tp545
a(S'group'
p546
S'group'
p547
S'NN'
p548
S'B-NP'
p549
g5
tp550
a(S'A'
p551
g551
S'NN'
p552
S'I-NP'
p553
g5
tp554
a(g89
g89
g89
g5
g5
tp555
a(S'or'
p556
S'or'
p557
S'CC'
p558
g5
g5
tp559
a(S'formoterol'
p560
S'formoterol'
p561
S'NN'
p562
S'B-NP'
p563
g5
tp564
a(S'18'
p565
S'18'
p566
S'CD'
p567
S'I-NP'
p568
g5
tp569
a(S'microg'
p570
S'microg'
p571
S'NN'
p572
S'I-NP'
p573
g5
tp574
a(S'or'
p575
S'or'
p576
S'CC'
p577
g5
g5
tp578
a(S'salbutamol'
p579
S'salbutamol'
p580
S'NN'
p581
S'B-NP'
p582
g5
tp583
a(S'200'
p584
S'200'
p585
S'CD'
p586
S'I-NP'
p587
g5
tp588
a(S'microg'
p589
S'microg'
p590
S'NN'
p591
S'I-NP'
p592
g5
tp593
a(g83
g83
g83
g5
g5
tp594
a(S'group'
p595
S'group'
p596
S'NN'
p597
S'B-NP'
p598
S'B-protein'
p599
tp600
a(S'B'
p601
g601
S'NN'
p602
S'I-NP'
p603
S'I-protein'
p604
tp605
a(g89
g89
g89
g5
g5
tp606
a(g71
g71
g71
g5
g5
tp607
a(S'FEV'
p608
S'FEV'
p609
S'CD'
p610
S'B-NP'
p611
g5
tp612
a(g83
g83
g83
g5
g5
tp613
a(S'1'
p614
g614
S'CD'
p615
S'B-NP'
p616
g5
tp617
a(g89
g89
g89
g5
g5
tp618
a(S'was'
p619
S'be'
p620
S'VBD'
p621
S'B-VP'
p622
g5
tp623
a(S'measured'
p624
S'measure'
p625
S'VBN'
p626
S'I-VP'
p627
g5
tp628
a(S'prior'
p629
S'prior'
p630
S'JJ'
p631
S'B-ADJP'
p632
g5
tp633
a(S'to'
p634
S'to'
p635
S'TO'
p636
S'B-PP'
p637
g5
tp638
a(S'and'
p639
S'and'
p640
S'CC'
p641
g5
g5
tp642
a(S'5'
p643
g643
S'CD'
p644
S'B-NP'
p645
g5
tp646
a(g160
g160
g160
S'I-NP'
p647
g5
tp648
a(S'10'
p649
S'10'
p650
S'CD'
p651
S'I-NP'
p652
g5
tp653
a(g160
g160
g160
S'I-NP'
p654
g5
tp655
a(S'15'
p656
S'15'
p657
S'CD'
p658
S'I-NP'
p659
g5
tp660
a(g160
g160
g160
S'I-NP'
p661
g5
tp662
a(S'20'
p663
S'20'
p664
S'CD'
p665
S'I-NP'
p666
g5
tp667
a(g160
g160
g160
S'I-NP'
p668
g5
tp669
a(S'25'
p670
S'25'
p671
S'CD'
p672
S'I-NP'
p673
g5
tp674
a(S'and'
p675
S'and'
p676
S'CC'
p677
S'I-NP'
p678
g5
tp679
a(S'30'
p680
S'30'
p681
S'CD'
p682
S'I-NP'
p683
g5
tp684
a(S'min'
p685
S'min'
p686
S'NN'
p687
S'I-NP'
p688
g5
tp689
a(S'following'
p690
S'follow'
p691
S'VBG'
p692
S'B-PP'
p693
g5
tp694
a(S'inhalation'
p695
S'inhalation'
p696
S'NN'
p697
S'B-NP'
p698
g5
tp699
a(S'of'
p700
S'of'
p701
S'IN'
p702
S'B-PP'
p703
g5
tp704
a(S'study'
p705
S'study'
p706
S'NN'
p707
S'B-NP'
p708
g5
tp709
a(S'drug.'
p710
S'drug.'
p711
S'VBP'
p712
S'B-VP'
p713
g5
tp714
a(S'No'
p715
S'No'
p716
S'DT'
p717
S'B-NP'
p718
g5
tp719
a(S'significant'
p720
S'significant'
p721
S'JJ'
p722
S'I-NP'
p723
g5
tp724
a(S'differences'
p725
S'difference'
p726
S'NNS'
p727
S'I-NP'
p728
g5
tp729
a(S'in'
p730
S'in'
p731
S'IN'
p732
S'B-PP'
p733
g5
tp734
a(S'FEV'
p735
S'FEV'
p736
S'NN'
p737
S'B-NP'
p738
g5
tp739
a(g83
g83
g83
g5
g5
tp740
a(g614
g614
S'CD'
p741
S'B-NP'
p742
g5
tp743
a(g89
g89
g89
g5
g5
tp744
a(S'values'
p745
S'value'
p746
S'NNS'
p747
S'B-NP'
p748
g5
tp749
a(S'were'
p750
S'be'
p751
S'VBD'
p752
S'B-VP'
p753
g5
tp754
a(S'observed'
p755
S'observe'
p756
S'VBN'
p757
S'I-VP'
p758
g5
tp759
a(S'between'
p760
S'between'
p761
S'IN'
p762
S'B-PP'
p763
g5
tp764
a(S'group'
p765
S'group'
p766
S'NN'
p767
S'B-NP'
p768
g5
tp769
a(g551
g551
S'NN'
p770
S'I-NP'
p771
g5
tp772
a(g83
g83
g83
g5
g5
tp773
a(S'P=0.704'
p774
S'P=0.704'
p775
S'NN'
p776
S'B-NP'
p777
g5
tp778
a(g89
g89
g89
g5
g5
tp779
a(S'or'
p780
S'or'
p781
S'CC'
p782
g5
g5
tp783
a(S'group'
p784
S'group'
p785
S'NN'
p786
S'B-NP'
p787
g5
tp788
a(g601
g601
S'NN'
p789
S'I-NP'
p790
g5
tp791
a(g83
g83
g83
g5
g5
tp792
a(S'P=0.270'
p793
S'P=0.270'
p794
S'NN'
p795
S'B-NP'
p796
g5
tp797
a(g89
g89
g89
g5
g5
tp798
a(S'at'
p799
S'at'
p800
S'IN'
p801
S'B-PP'
p802
g5
tp803
a(S'baseline'
p804
S'baseline'
p805
S'NN'
p806
S'B-NP'
p807
g5
tp808
a(g160
g160
g160
g5
g5
tp809
a(S'or'
p810
S'or'
p811
S'CC'
p812
g5
g5
tp813
a(S'at'
p814
S'at'
p815
S'IN'
p816
S'B-PP'
p817
g5
tp818
a(g643
g643
S'CD'
p819
S'B-NP'
p820
g5
tp821
a(g83
g83
g83
g5
g5
tp822
a(S'Group'
p823
S'Group'
p824
S'NN'
p825
S'B-NP'
p826
g5
tp827
a(g551
g551
S'NN'
p828
S'I-NP'
p829
g5
tp830
a(S':'
p831
g831
g831
g5
g5
tp832
a(S'P=0.340'
p833
S'P=0.340'
p834
S'NN'
p835
S'B-NP'
p836
g5
tp837
a(S';'
p838
g838
g831
g5
g5
tp839
a(S'Group'
p840
S'Group'
p841
S'NN'
p842
S'B-NP'
p843
g5
tp844
a(g601
g601
S'NN'
p845
S'I-NP'
p846
g5
tp847
a(g831
g831
g831
g5
g5
tp848
a(S'P=0.559'
p849
S'P=0.559'
p850
S'NN'
p851
S'B-NP'
p852
g5
tp853
a(g89
g89
g89
g5
g5
tp854
a(S'and'
p855
S'and'
p856
S'CC'
p857
g5
g5
tp858
a(S'15'
p859
S'15'
p860
S'CD'
p861
S'B-NP'
p862
g5
tp863
a(S'min'
p864
S'min'
p865
S'NN'
p866
S'I-NP'
p867
g5
tp868
a(g83
g83
g83
g5
g5
tp869
a(S'Group'
p870
S'Group'
p871
S'NN'
p872
S'B-NP'
p873
g5
tp874
a(g551
g551
S'NN'
p875
S'I-NP'
p876
g5
tp877
a(g831
g831
g831
g5
g5
tp878
a(S'P=0.526'
p879
S'P=0.526'
p880
S'NN'
p881
S'B-NP'
p882
g5
tp883
a(g838
g838
g831
g5
g5
tp884
a(S'Group'
p885
S'Group'
p886
S'NN'
p887
S'B-NP'
p888
g5
tp889
a(g601
g601
S'NN'
p890
S'I-NP'
p891
g5
tp892
a(g831
g831
g831
g5
g5
tp893
a(S'P=0.818'
p894
S'P=0.818'
p895
S'NN'
p896
S'B-NP'
p897
g5
tp898
a(g89
g89
g89
g5
g5
tp899
a(S'post'
p900
S'post'
p901
S'NN'
p902
S'B-NP'
p903
g5
tp904
a(S'dose.'
p905
S'dose.'
p906
S'NN'
p907
S'I-NP'
p908
g5
tp909
a(S'No'
p910
S'No'
p911
S'DT'
p912
S'B-NP'
p913
g5
tp914
a(S'adverse'
p915
S'adverse'
p916
S'JJ'
p917
S'I-NP'
p918
g5
tp919
a(S'events'
p920
S'event'
p921
S'NNS'
p922
S'I-NP'
p923
g5
tp924
a(S'were'
p925
S'be'
p926
S'VBD'
p927
S'B-VP'
p928
g5
tp929
a(S'reported'
p930
S'report'
p931
S'VBN'
p932
S'I-VP'
p933
g5
tp934
a(S'during'
p935
S'during'
p936
S'IN'
p937
S'B-PP'
p938
g5
tp939
a(S'the'
p940
S'the'
p941
S'DT'
p942
S'B-NP'
p943
g5
tp944
a(S'study.'
p945
S'study.'
p946
S'NN'
p947
S'I-NP'
p948
g5
tp949
a(S'Formoterol'
p950
S'Formoterol'
p951
S'NNP'
p952
S'I-NP'
p953
g5
tp954
a(S'Turbuhaler'
p955
S'Turbuhaler'
p956
S'NNP'
p957
S'I-NP'
p958
g5
tp959
a(S'has'
p960
S'have'
p961
S'VBZ'
p962
S'B-VP'
p963
g5
tp964
a(S'as'
p965
S'as'
p966
S'RB'
p967
S'B-NP'
p968
g5
tp969
a(S'rapid'
p970
S'rapid'
p971
S'JJ'
p972
S'I-NP'
p973
g5
tp974
a(S'an'
p975
S'an'
p976
S'DT'
p977
S'I-NP'
p978
g5
tp979
a(S'onset'
p980
S'onset'
p981
S'NN'
p982
S'I-NP'
p983
g5
tp984
a(S'of'
p985
S'of'
p986
S'IN'
p987
S'B-PP'
p988
g5
tp989
a(S'action'
p990
S'action'
p991
S'NN'
p992
S'B-NP'
p993
g5
tp994
a(S'as'
p995
S'as'
p996
S'IN'
p997
S'B-PP'
p998
g5
tp999
a(S'salbutamol'
p1000
S'salbutamol'
p1001
S'NN'
p1002
S'B-NP'
p1003
g5
tp1004
a(S'pMDI'
p1005
S'pMDI'
p1006
S'NN'
p1007
S'I-NP'
p1008
g5
tp1009
a(S'when'
p1010
S'when'
p1011
S'WRB'
p1012
S'B-ADVP'
p1013
g5
tp1014
a(S'given'
p1015
S'give'
p1016
S'VBN'
p1017
S'B-VP'
p1018
g5
tp1019
a(S'at'
p1020
S'at'
p1021
S'IN'
p1022
S'B-PP'
p1023
g5
tp1024
a(S'the'
p1025
S'the'
p1026
S'DT'
p1027
S'B-NP'
p1028
g5
tp1029
a(S'recommended'
p1030
S'recommend'
p1031
S'VBN'
p1032
S'I-NP'
p1033
g5
tp1034
a(S'doses'
p1035
S'dose'
p1036
S'NNS'
p1037
S'I-NP'
p1038
g5
tp1039
a(g71
g71
g71
g5
g5
tp1040
a.