(lp0
(S'Parenting'
p1
S'Parent'
p2
S'VBG'
p3
S'B-VP'
p4
S'O'
p5
tp6
a(S'stress'
p7
S'stress'
p8
S'NN'
p9
S'B-NP'
p10
g5
tp11
a(S'in'
p12
S'in'
p13
S'IN'
p14
S'B-PP'
p15
g5
tp16
a(S'the'
p17
S'the'
p18
S'DT'
p19
S'B-NP'
p20
g5
tp21
a(S'infant'
p22
S'infant'
p23
S'JJ'
p24
S'I-NP'
p25
g5
tp26
a(S'aphakia'
p27
S'aphakia'
p28
S'NN'
p29
S'I-NP'
p30
g5
tp31
a(S'treatment'
p32
S'treatment'
p33
S'NN'
p34
S'I-NP'
p35
g5
tp36
a(S'study'
p37
S'study'
p38
S'NN'
p39
S'I-NP'
p40
g5
tp41
a(S'.'
p42
g42
g42
g5
g5
tp43
a(S'OBJECTIVE'
p44
S'OBJECTIVE'
p45
S'NN'
p46
S'B-NP'
p47
g5
tp48
a(S'To'
p49
S'To'
p50
S'TO'
p51
S'B-VP'
p52
g5
tp53
a(S'evaluate'
p54
S'evaluate'
p55
S'VB'
p56
S'I-VP'
p57
g5
tp58
a(S'parenting'
p59
S'parent'
p60
S'VBG'
p61
S'I-VP'
p62
g5
tp63
a(S'stress'
p64
S'stress'
p65
S'NN'
p66
S'B-NP'
p67
g5
tp68
a(S'following'
p69
S'follow'
p70
S'VBG'
p71
S'B-PP'
p72
g5
tp73
a(S'infants'
p74
S'infant'
p75
S'NNS'
p76
S'B-NP'
p77
g5
tp78
a(S"'"
p79
g79
S'POS'
p80
S'B-NP'
p81
g5
tp82
a(S'cataract'
p83
S'cataract'
p84
S'NN'
p85
S'I-NP'
p86
g5
tp87
a(S'extraction'
p88
S'extraction'
p89
S'NN'
p90
S'I-NP'
p91
g5
tp92
a(S'surgery'
p93
S'surgery'
p94
S'NN'
p95
S'I-NP'
p96
g5
tp97
a(S','
p98
g98
g98
g5
g5
tp99
a(S'and'
p100
S'and'
p101
S'CC'
p102
g5
g5
tp103
a(S'to'
p104
S'to'
p105
S'TO'
p106
S'B-VP'
p107
g5
tp108
a(S'determine'
p109
S'determine'
p110
S'VB'
p111
S'I-VP'
p112
g5
tp113
a(S'if'
p114
S'if'
p115
S'IN'
p116
S'B-SBAR'
p117
g5
tp118
a(S'levels'
p119
S'level'
p120
S'NNS'
p121
S'B-NP'
p122
g5
tp123
a(S'of'
p124
S'of'
p125
S'IN'
p126
S'B-PP'
p127
g5
tp128
a(S'stress'
p129
S'stress'
p130
S'NN'
p131
S'B-NP'
p132
g5
tp133
a(S'differ'
p134
S'differ'
p135
S'VBP'
p136
S'B-VP'
p137
g5
tp138
a(S'between'
p139
S'between'
p140
S'IN'
p141
S'B-PP'
p142
g5
tp143
a(S'2'
p144
g144
S'CD'
p145
S'B-NP'
p146
g5
tp147
a(S'treatments'
p148
S'treatment'
p149
S'NNS'
p150
S'I-NP'
p151
g5
tp152
a(S'for'
p153
S'for'
p154
S'IN'
p155
S'B-PP'
p156
g5
tp157
a(S'unilateral'
p158
S'unilateral'
p159
S'JJ'
p160
S'B-NP'
p161
g5
tp162
a(S'congenital'
p163
S'congenital'
p164
S'JJ'
p165
S'I-NP'
p166
g5
tp167
a(S'cataract'
p168
S'cataract'
p169
S'NN'
p170
S'I-NP'
p171
g5
tp172
a(S'in'
p173
S'in'
p174
S'IN'
p175
S'B-PP'
p176
g5
tp177
a(S'a'
p178
g178
S'DT'
p179
S'B-NP'
p180
g5
tp181
a(S'randomized'
p182
S'randomize'
p183
S'VBN'
p184
S'I-NP'
p185
g5
tp186
a(S'clinical'
p187
S'clinical'
p188
S'JJ'
p189
S'I-NP'
p190
g5
tp191
a(S'trial'
p192
S'trial'
p193
S'NN'
p194
S'I-NP'
p195
g5
tp196
a(g42
g42
g42
g5
g5
tp197
a(S'METHODS'
p198
S'METHODS'
p199
S'NNS'
p200
S'B-NP'
p201
g5
tp202
a(S'At'
p203
S'At'
p204
S'IN'
p205
S'B-PP'
p206
g5
tp207
a(S'surgery'
p208
S'surgery'
p209
S'NN'
p210
S'B-NP'
p211
g5
tp212
a(g98
g98
g98
g5
g5
tp213
a(S'an'
p214
S'an'
p215
S'DT'
p216
S'B-NP'
p217
g5
tp218
a(S'intraocular'
p219
S'intraocular'
p220
S'JJ'
p221
S'I-NP'
p222
g5
tp223
a(S'lens'
p224
S'lens'
p225
S'NN'
p226
S'I-NP'
p227
g5
tp228
a(S'('
p229
g229
g229
g5
g5
tp230
a(S'IOL'
p231
S'IOL'
p232
S'NN'
p233
S'B-NP'
p234
g5
tp235
a(S')'
p236
g236
g236
g5
g5
tp237
a(S'was'
p238
S'be'
p239
S'VBD'
p240
S'B-VP'
p241
g5
tp242
a(S'implanted'
p243
S'implant'
p244
S'VBN'
p245
S'I-VP'
p246
g5
tp247
a(S'or'
p248
S'or'
p249
S'CC'
p250
g5
g5
tp251
a(S'children'
p252
S'child'
p253
S'NNS'
p254
S'B-NP'
p255
g5
tp256
a(S'were'
p257
S'be'
p258
S'VBD'
p259
S'B-VP'
p260
g5
tp261
a(S'left'
p262
S'leave'
p263
S'VBN'
p264
S'I-VP'
p265
g5
tp266
a(S'aphakic'
p267
S'aphakic'
p268
S'JJ'
p269
S'B-ADJP'
p270
g5
tp271
a(g98
g98
g98
g5
g5
tp272
a(S'treated'
p273
S'treat'
p274
S'VBN'
p275
S'B-VP'
p276
g5
tp277
a(S'with'
p278
S'with'
p279
S'IN'
p280
S'B-PP'
p281
g5
tp282
a(S'contact'
p283
S'contact'
p284
S'NN'
p285
S'B-NP'
p286
g5
tp287
a(S'lens'
p288
S'lens'
p289
S'NN'
p290
S'I-NP'
p291
g5
tp292
a(g229
g229
g229
g5
g5
tp293
a(S'CL'
p294
S'CL'
p295
S'NN'
p296
S'B-NP'
p297
g5
tp298
a(g236
g236
g236
g5
g5
tp299
a(g42
g42
g42
g5
g5
tp300
a(S'Stress'
p301
S'Stress'
p302
S'NNP'
p303
S'B-NP'
p304
g5
tp305
a(S'measures'
p306
S'measure'
p307
S'NNS'
p308
S'I-NP'
p309
g5
tp310
a(S'were'
p311
S'be'
p312
S'VBD'
p313
S'B-VP'
p314
g5
tp315
a(S'administered'
p316
S'administer'
p317
S'VBN'
p318
S'I-VP'
p319
g5
tp320
a(S'3'
p321
g321
S'CD'
p322
S'B-NP'
p323
g5
tp324
a(S'months'
p325
S'month'
p326
S'NNS'
p327
S'I-NP'
p328
g5
tp329
a(S'after'
p330
S'after'
p331
S'IN'
p332
S'B-PP'
p333
g5
tp334
a(S'surgery'
p335
S'surgery'
p336
S'NN'
p337
S'B-NP'
p338
g5
tp339
a(S'and'
p340
S'and'
p341
S'CC'
p342
S'B-PP'
p343
g5
tp344
a(S'at'
p345
S'at'
p346
S'IN'
p347
S'B-PP'
p348
g5
tp349
a(S'the'
p350
S'the'
p351
S'DT'
p352
S'B-NP'
p353
g5
tp354
a(S'first'
p355
S'first'
p356
S'JJ'
p357
S'I-NP'
p358
g5
tp359
a(S'visit'
p360
S'visit'
p361
S'NN'
p362
S'I-NP'
p363
g5
tp364
a(S'after'
p365
S'after'
p366
S'IN'
p367
S'B-PP'
p368
g5
tp369
a(S'the'
p370
S'the'
p371
S'DT'
p372
S'B-NP'
p373
g5
tp374
a(S'visual'
p375
S'visual'
p376
S'JJ'
p377
S'I-NP'
p378
g5
tp379
a(S'acuity'
p380
S'acuity'
p381
S'NN'
p382
S'I-NP'
p383
g5
tp384
a(g229
g229
g229
g5
g5
tp385
a(S'VA'
p386
S'VA'
p387
S'NN'
p388
S'B-NP'
p389
g5
tp390
a(g236
g236
g236
g5
g5
tp391
a(S'assessment'
p392
S'assessment'
p393
S'NN'
p394
S'B-NP'
p395
g5
tp396
a(S'done'
p397
S'do'
p398
S'VBN'
p399
S'B-VP'
p400
g5
tp401
a(S'at'
p402
S'at'
p403
S'IN'
p404
S'B-PP'
p405
g5
tp406
a(S'12'
p407
S'12'
p408
S'CD'
p409
S'B-NP'
p410
g5
tp411
a(S'months'
p412
S'month'
p413
S'NNS'
p414
S'I-NP'
p415
g5
tp416
a(S'of'
p417
S'of'
p418
S'IN'
p419
S'B-PP'
p420
g5
tp421
a(S'age'
p422
S'age'
p423
S'NN'
p424
S'B-NP'
p425
g5
tp426
a(g42
g42
g42
g5
g5
tp427
a(S'RESULTS'
p428
S'RESULTS'
p429
S'NNS'
p430
S'B-NP'
p431
g5
tp432
a(S'Caregivers'
p433
S'Caregiver'
p434
S'NNS'
p435
S'I-NP'
p436
g5
tp437
a(S'in'
p438
S'in'
p439
S'IN'
p440
S'B-PP'
p441
g5
tp442
a(S'the'
p443
S'the'
p444
S'DT'
p445
S'B-NP'
p446
g5
tp447
a(S'IOL'
p448
S'IOL'
p449
S'NN'
p450
S'I-NP'
p451
g5
tp452
a(S'group'
p453
S'group'
p454
S'NN'
p455
S'I-NP'
p456
g5
tp457
a(S'reported'
p458
S'report'
p459
S'VBD'
p460
S'B-VP'
p461
g5
tp462
a(S'higher'
p463
S'high'
p464
S'JJR'
p465
S'B-NP'
p466
g5
tp467
a(S'levels'
p468
S'level'
p469
S'NNS'
p470
S'I-NP'
p471
g5
tp472
a(S'of'
p473
S'of'
p474
S'IN'
p475
S'B-PP'
p476
g5
tp477
a(S'stress'
p478
S'stress'
p479
S'NN'
p480
S'B-NP'
p481
g5
tp482
a(S'than'
p483
S'than'
p484
S'IN'
p485
S'B-PP'
p486
g5
tp487
a(S'those'
p488
S'those'
p489
S'DT'
p490
S'B-NP'
p491
g5
tp492
a(S'in'
p493
S'in'
p494
S'IN'
p495
S'B-PP'
p496
g5
tp497
a(S'the'
p498
S'the'
p499
S'DT'
p500
S'B-NP'
p501
g5
tp502
a(S'CL'
p503
S'CL'
p504
S'NN'
p505
S'I-NP'
p506
g5
tp507
a(S'group'
p508
S'group'
p509
S'NN'
p510
S'I-NP'
p511
g5
tp512
a(g321
g321
S'CD'
p513
S'B-NP'
p514
g5
tp515
a(S'months'
p516
S'month'
p517
S'NNS'
p518
S'I-NP'
p519
g5
tp520
a(S'after'
p521
S'after'
p522
S'IN'
p523
S'B-PP'
p524
g5
tp525
a(S'surgery'
p526
S'surgery'
p527
S'NN'
p528
S'B-NP'
p529
g5
tp530
a(g98
g98
g98
g5
g5
tp531
a(S'but'
p532
S'but'
p533
S'CC'
p534
g5
g5
tp535
a(S'there'
p536
S'there'
p537
S'EX'
p538
S'B-NP'
p539
g5
tp540
a(S'were'
p541
S'be'
p542
S'VBD'
p543
S'B-VP'
p544
g5
tp545
a(S'no'
p546
S'no'
p547
S'DT'
p548
S'B-NP'
p549
g5
tp550
a(S'group'
p551
S'group'
p552
S'NN'
p553
S'I-NP'
p554
g5
tp555
a(S'differences'
p556
S'difference'
p557
S'NNS'
p558
S'I-NP'
p559
g5
tp560
a(S'in'
p561
S'in'
p562
S'IN'
p563
S'B-PP'
p564
g5
tp565
a(S'stress'
p566
S'stress'
p567
S'NN'
p568
S'B-NP'
p569
g5
tp570
a(S'scores'
p571
S'score'
p572
S'NNS'
p573
S'I-NP'
p574
g5
tp575
a(S'at'
p576
S'at'
p577
S'IN'
p578
S'B-PP'
p579
g5
tp580
a(S'the'
p581
S'the'
p582
S'DT'
p583
S'B-NP'
p584
g5
tp585
a(S'post-VA'
p586
S'post-VA'
p587
S'JJ'
p588
S'I-NP'
p589
g5
tp590
a(S'assessment.'
p591
S'assessment.'
p592
S'NN'
p593
S'I-NP'
p594
g5
tp595
a(S'Stress'
p596
S'Stress'
p597
S'NN'
p598
S'I-NP'
p599
g5
tp600
a(S'scores'
p601
S'score'
p602
S'NNS'
p603
S'I-NP'
p604
g5
tp605
a(S'did'
p606
S'do'
p607
S'VBD'
p608
S'B-VP'
p609
g5
tp610
a(S'not'
p611
S'not'
p612
S'RB'
p613
S'I-VP'
p614
g5
tp615
a(S'change'
p616
S'change'
p617
S'VB'
p618
S'I-VP'
p619
g5
tp620
a(S'differentially'
p621
S'differentially'
p622
S'RB'
p623
S'B-ADVP'
p624
g5
tp625
a(S'for'
p626
S'for'
p627
S'IN'
p628
S'B-PP'
p629
g5
tp630
a(S'participants'
p631
S'participant'
p632
S'NNS'
p633
S'B-NP'
p634
g5
tp635
a(S'assigned'
p636
S'assign'
p637
S'VBN'
p638
S'B-VP'
p639
g5
tp640
a(S'to'
p641
S'to'
p642
S'TO'
p643
S'B-PP'
p644
g5
tp645
a(S'IOL'
p646
S'IOL'
p647
S'NN'
p648
S'B-NP'
p649
g5
tp650
a(S'versus'
p651
S'versus'
p652
S'IN'
p653
S'B-PP'
p654
g5
tp655
a(S'CL'
p656
S'CL'
p657
S'NN'
p658
S'B-NP'
p659
g5
tp660
a(S'treatments'
p661
S'treatment'
p662
S'NNS'
p663
S'I-NP'
p664
g5
tp665
a(g42
g42
g42
g5
g5
tp666
a(S'CONCLUSIONS'
p667
S'CONCLUSIONS'
p668
S'NNS'
p669
S'B-NP'
p670
g5
tp671
a(S'Treatment'
p672
S'Treatment'
p673
S'NN'
p674
S'I-NP'
p675
g5
tp676
a(S'assignment'
p677
S'assignment'
p678
S'NN'
p679
S'I-NP'
p680
g5
tp681
a(S'did'
p682
S'do'
p683
S'VBD'
p684
S'B-VP'
p685
g5
tp686
a(S'not'
p687
S'not'
p688
S'RB'
p689
S'I-VP'
p690
g5
tp691
a(S'have'
p692
S'have'
p693
S'VB'
p694
S'I-VP'
p695
g5
tp696
a(g178
g178
S'DT'
p697
S'B-NP'
p698
g5
tp699
a(S'significant'
p700
S'significant'
p701
S'JJ'
p702
S'I-NP'
p703
g5
tp704
a(S'impact'
p705
S'impact'
p706
S'NN'
p707
S'I-NP'
p708
g5
tp709
a(S'on'
p710
S'on'
p711
S'IN'
p712
S'B-PP'
p713
g5
tp714
a(S'caregiver'
p715
S'caregiver'
p716
S'NN'
p717
S'B-NP'
p718
g5
tp719
a(S'stress'
p720
S'stress'
p721
S'NN'
p722
S'I-NP'
p723
g5
tp724
a(S'during'
p725
S'during'
p726
S'IN'
p727
S'B-PP'
p728
g5
tp729
a(S'infancy'
p730
S'infancy'
p731
S'NN'
p732
S'B-NP'
p733
g5
tp734
a(S'or'
p735
S'or'
p736
S'CC'
p737
S'B-PP'
p738
g5
tp739
a(S'on'
p740
S'on'
p741
S'IN'
p742
S'B-PP'
p743
g5
tp744
a(S'the'
p745
S'the'
p746
S'DT'
p747
S'B-NP'
p748
g5
tp749
a(S'change'
p750
S'change'
p751
S'NN'
p752
S'I-NP'
p753
g5
tp754
a(S'in'
p755
S'in'
p756
S'IN'
p757
S'B-PP'
p758
g5
tp759
a(S'stress'
p760
S'stress'
p761
S'NN'
p762
S'B-NP'
p763
g5
tp764
a(S'during'
p765
S'during'
p766
S'IN'
p767
S'B-PP'
p768
g5
tp769
a(S'the'
p770
S'the'
p771
S'DT'
p772
S'B-NP'
p773
g5
tp774
a(S'child'
p775
S'child'
p776
S'NN'
p777
S'I-NP'
p778
g5
tp779
a(S"'s"
p780
S"'s"
p781
S'POS'
p782
S'B-NP'
p783
g5
tp784
a(S'first'
p785
S'first'
p786
S'JJ'
p787
S'I-NP'
p788
g5
tp789
a(g144
g144
S'CD'
p790
S'I-NP'
p791
g5
tp792
a(S'years'
p793
S'year'
p794
S'NNS'
p795
S'I-NP'
p796
g5
tp797
a(S'of'
p798
S'of'
p799
S'IN'
p800
S'B-PP'
p801
g5
tp802
a(S'life'
p803
S'life'
p804
S'NN'
p805
S'B-NP'
p806
g5
tp807
a(g42
g42
g42
g5
g5
tp808
a.