(lp0
(S'A'
p1
g1
S'DT'
p2
S'B-NP'
p3
S'O'
p4
tp5
a(S'comparison'
p6
S'comparison'
p7
S'NN'
p8
S'I-NP'
p9
g4
tp10
a(S'of'
p11
S'of'
p12
S'IN'
p13
S'B-PP'
p14
g4
tp15
a(S'sclerotherapy'
p16
S'sclerotherapy'
p17
S'NN'
p18
S'B-NP'
p19
g4
tp20
a(S'with'
p21
S'with'
p22
S'IN'
p23
S'B-PP'
p24
g4
tp25
a(S'staple'
p26
S'staple'
p27
S'NN'
p28
S'B-NP'
p29
g4
tp30
a(S'transection'
p31
S'transection'
p32
S'NN'
p33
S'I-NP'
p34
g4
tp35
a(S'of'
p36
S'of'
p37
S'IN'
p38
S'B-PP'
p39
g4
tp40
a(S'the'
p41
S'the'
p42
S'DT'
p43
S'B-NP'
p44
g4
tp45
a(S'esophagus'
p46
S'esophagus'
p47
S'NN'
p48
S'I-NP'
p49
g4
tp50
a(S'for'
p51
S'for'
p52
S'IN'
p53
S'B-PP'
p54
g4
tp55
a(S'the'
p56
S'the'
p57
S'DT'
p58
S'B-NP'
p59
g4
tp60
a(S'emergency'
p61
S'emergency'
p62
S'NN'
p63
S'I-NP'
p64
g4
tp65
a(S'control'
p66
S'control'
p67
S'NN'
p68
S'I-NP'
p69
g4
tp70
a(S'of'
p71
S'of'
p72
S'IN'
p73
S'B-PP'
p74
g4
tp75
a(S'bleeding'
p76
S'bleed'
p77
S'VBG'
p78
S'B-VP'
p79
g4
tp80
a(S'from'
p81
S'from'
p82
S'IN'
p83
S'B-PP'
p84
g4
tp85
a(S'esophageal'
p86
S'esophageal'
p87
S'JJ'
p88
S'B-NP'
p89
g4
tp90
a(S'varices'
p91
S'varix'
p92
S'NNS'
p93
S'I-NP'
p94
g4
tp95
a(S'.'
p96
g96
g96
g4
g4
tp97
a(S'We'
p98
S'We'
p99
S'PRP'
p100
S'B-NP'
p101
g4
tp102
a(S'compared'
p103
S'compare'
p104
S'VBD'
p105
S'B-VP'
p106
g4
tp107
a(S'two'
p108
S'two'
p109
S'CD'
p110
S'B-NP'
p111
g4
tp112
a(S'procedures'
p113
S'procedure'
p114
S'NNS'
p115
S'I-NP'
p116
g4
tp117
a(S'for'
p118
S'for'
p119
S'IN'
p120
S'B-PP'
p121
g4
tp122
a(S'the'
p123
S'the'
p124
S'DT'
p125
S'B-NP'
p126
g4
tp127
a(S'emergency'
p128
S'emergency'
p129
S'NN'
p130
S'I-NP'
p131
g4
tp132
a(S'treatment'
p133
S'treatment'
p134
S'NN'
p135
S'I-NP'
p136
g4
tp137
a(S'of'
p138
S'of'
p139
S'IN'
p140
S'B-PP'
p141
g4
tp142
a(S'bleeding'
p143
S'bleed'
p144
S'VBG'
p145
S'B-VP'
p146
g4
tp147
a(S'esophageal'
p148
S'esophageal'
p149
S'JJ'
p150
S'B-NP'
p151
g4
tp152
a(S'varices'
p153
S'varix'
p154
S'NNS'
p155
S'I-NP'
p156
g4
tp157
a(S'in'
p158
S'in'
p159
S'IN'
p160
S'B-PP'
p161
g4
tp162
a(S'patients'
p163
S'patient'
p164
S'NNS'
p165
S'B-NP'
p166
g4
tp167
a(S'who'
p168
S'who'
p169
S'WP'
p170
S'B-NP'
p171
g4
tp172
a(S'did'
p173
S'do'
p174
S'VBD'
p175
S'B-VP'
p176
g4
tp177
a(S'not'
p178
S'not'
p179
S'RB'
p180
S'I-VP'
p181
g4
tp182
a(S'respond'
p183
S'respond'
p184
S'VB'
p185
S'I-VP'
p186
g4
tp187
a(S'to'
p188
S'to'
p189
S'TO'
p190
S'B-PP'
p191
g4
tp192
a(S'blood'
p193
S'blood'
p194
S'NN'
p195
S'B-NP'
p196
g4
tp197
a(S'transfusion'
p198
S'transfusion'
p199
S'NN'
p200
S'I-NP'
p201
g4
tp202
a(S'and'
p203
S'and'
p204
S'CC'
p205
g4
g4
tp206
a(S'vasoactive'
p207
S'vasoactive'
p208
S'JJ'
p209
S'B-NP'
p210
g4
tp211
a(S'drugs.'
p212
S'drugs.'
p213
S'NN'
p214
S'I-NP'
p215
g4
tp216
a(S'We'
p217
S'We'
p218
S'PRP'
p219
S'B-NP'
p220
g4
tp221
a(S'randomly'
p222
S'randomly'
p223
S'RB'
p224
S'B-ADVP'
p225
g4
tp226
a(S'assigned'
p227
S'assign'
p228
S'VBD'
p229
S'B-VP'
p230
g4
tp231
a(S'101'
p232
S'101'
p233
S'CD'
p234
S'B-NP'
p235
g4
tp236
a(S'patients'
p237
S'patient'
p238
S'NNS'
p239
S'I-NP'
p240
g4
tp241
a(S'with'
p242
S'with'
p243
S'IN'
p244
S'B-PP'
p245
g4
tp246
a(S'cirrhosis'
p247
S'cirrhosis'
p248
S'NN'
p249
S'B-NP'
p250
g4
tp251
a(S'of'
p252
S'of'
p253
S'IN'
p254
S'B-PP'
p255
g4
tp256
a(S'the'
p257
S'the'
p258
S'DT'
p259
S'B-NP'
p260
g4
tp261
a(S'liver'
p262
S'liver'
p263
S'NN'
p264
S'I-NP'
p265
g4
tp266
a(S'and'
p267
S'and'
p268
S'CC'
p269
g4
g4
tp270
a(S'bleeding'
p271
S'bleed'
p272
S'VBG'
p273
S'B-VP'
p274
g4
tp275
a(S'esophageal'
p276
S'esophageal'
p277
S'JJ'
p278
S'B-NP'
p279
g4
tp280
a(S'varices'
p281
S'varix'
p282
S'NNS'
p283
S'I-NP'
p284
g4
tp285
a(S'to'
p286
S'to'
p287
S'TO'
p288
S'B-VP'
p289
g4
tp290
a(S'undergo'
p291
S'undergo'
p292
S'VB'
p293
S'I-VP'
p294
g4
tp295
a(S'either'
p296
S'either'
p297
S'CC'
p298
g4
g4
tp299
a(S'emergency'
p300
S'emergency'
p301
S'NN'
p302
S'B-NP'
p303
g4
tp304
a(S'sclerotherapy'
p305
S'sclerotherapy'
p306
S'NN'
p307
S'I-NP'
p308
g4
tp309
a(S'('
p310
g310
g310
g4
g4
tp311
a(S'n'
p312
g312
S'NN'
p313
S'B-NP'
p314
g4
tp315
a(S'='
p316
g316
S'SYM'
p317
S'B-VP'
p318
g4
tp319
a(S'50'
p320
S'50'
p321
S'CD'
p322
S'B-NP'
p323
g4
tp324
a(S')'
p325
g325
g325
g4
g4
tp326
a(S'or'
p327
S'or'
p328
S'CC'
p329
g4
g4
tp330
a(S'staple'
p331
S'staple'
p332
S'NN'
p333
S'B-NP'
p334
g4
tp335
a(S'transection'
p336
S'transection'
p337
S'NN'
p338
S'I-NP'
p339
g4
tp340
a(S'of'
p341
S'of'
p342
S'IN'
p343
S'B-PP'
p344
g4
tp345
a(S'the'
p346
S'the'
p347
S'DT'
p348
S'B-NP'
p349
g4
tp350
a(S'esophagus'
p351
S'esophagus'
p352
S'NN'
p353
S'I-NP'
p354
g4
tp355
a(g310
g310
g310
g4
g4
tp356
a(g312
g312
S'NN'
p357
S'B-NP'
p358
g4
tp359
a(g316
g316
S'SYM'
p360
S'B-VP'
p361
g4
tp362
a(S'51'
p363
S'51'
p364
S'CD'
p365
S'B-NP'
p366
g4
tp367
a(g325
g325
g325
g4
g4
tp368
a(g96
g96
g96
g4
g4
tp369
a(S'Four'
p370
S'Four'
p371
S'CD'
p372
S'B-NP'
p373
g4
tp374
a(S'patients'
p375
S'patient'
p376
S'NNS'
p377
S'I-NP'
p378
g4
tp379
a(S'assigned'
p380
S'assign'
p381
S'VBN'
p382
S'B-VP'
p383
g4
tp384
a(S'to'
p385
S'to'
p386
S'TO'
p387
S'B-PP'
p388
g4
tp389
a(S'sclerotherapy'
p390
S'sclerotherapy'
p391
S'NN'
p392
S'B-NP'
p393
g4
tp394
a(S'and'
p395
S'and'
p396
S'CC'
p397
g4
g4
tp398
a(S'12'
p399
S'12'
p400
S'CD'
p401
S'B-NP'
p402
g4
tp403
a(S'assigned'
p404
S'assign'
p405
S'VBN'
p406
S'B-VP'
p407
g4
tp408
a(S'to'
p409
S'to'
p410
S'TO'
p411
S'I-VP'
p412
g4
tp413
a(S'staple'
p414
S'staple'
p415
S'VB'
p416
S'I-VP'
p417
g4
tp418
a(S'transection'
p419
S'transection'
p420
S'NN'
p421
S'B-NP'
p422
g4
tp423
a(S'did'
p424
S'do'
p425
S'VBD'
p426
S'B-VP'
p427
g4
tp428
a(S'not'
p429
S'not'
p430
S'RB'
p431
S'I-VP'
p432
g4
tp433
a(S'actually'
p434
S'actually'
p435
S'RB'
p436
S'I-VP'
p437
g4
tp438
a(S'undergo'
p439
S'undergo'
p440
S'VBP'
p441
S'I-VP'
p442
g4
tp443
a(S'those'
p444
S'those'
p445
S'DT'
p446
S'B-NP'
p447
g4
tp448
a(S'procedures'
p449
S'procedure'
p450
S'NNS'
p451
S'I-NP'
p452
g4
tp453
a(S','
p454
g454
g454
g4
g4
tp455
a(S'but'
p456
S'but'
p457
S'CC'
p458
g4
g4
tp459
a(S'all'
p460
S'all'
p461
S'DT'
p462
S'B-NP'
p463
g4
tp464
a(S'analyses'
p465
S'analysis'
p466
S'NNS'
p467
S'I-NP'
p468
g4
tp469
a(S'were'
p470
S'be'
p471
S'VBD'
p472
S'B-VP'
p473
g4
tp474
a(S'made'
p475
S'make'
p476
S'VBN'
p477
S'I-VP'
p478
g4
tp479
a(S'on'
p480
S'on'
p481
S'IN'
p482
S'B-PP'
p483
g4
tp484
a(S'an'
p485
S'an'
p486
S'DT'
p487
S'B-NP'
p488
g4
tp489
a(S'intention-to-treat'
p490
S'intention-to-treat'
p491
S'JJ'
p492
S'I-NP'
p493
g4
tp494
a(S'basis.'
p495
S'basis.'
p496
S'NN'
p497
S'I-NP'
p498
g4
tp499
a(S'Total'
p500
S'Total'
p501
S'JJ'
p502
S'I-NP'
p503
g4
tp504
a(S'mortality'
p505
S'mortality'
p506
S'NN'
p507
S'I-NP'
p508
g4
tp509
a(S'did'
p510
S'do'
p511
S'VBD'
p512
S'B-VP'
p513
g4
tp514
a(S'not'
p515
S'not'
p516
S'RB'
p517
S'I-VP'
p518
g4
tp519
a(S'differ'
p520
S'differ'
p521
S'VB'
p522
S'I-VP'
p523
g4
tp524
a(S'significantly'
p525
S'significantly'
p526
S'RB'
p527
S'B-ADVP'
p528
g4
tp529
a(S'between'
p530
S'between'
p531
S'IN'
p532
S'B-PP'
p533
g4
tp534
a(S'the'
p535
S'the'
p536
S'DT'
p537
S'B-NP'
p538
g4
tp539
a(S'two'
p540
S'two'
p541
S'CD'
p542
S'I-NP'
p543
g4
tp544
a(S'groups'
p545
S'group'
p546
S'NNS'
p547
S'I-NP'
p548
g4
tp549
a(S';'
p550
g550
S':'
p551
g4
g4
tp552
a(S'the'
p553
S'the'
p554
S'DT'
p555
S'B-NP'
p556
g4
tp557
a(S'relative'
p558
S'relative'
p559
S'JJ'
p560
S'I-NP'
p561
g4
tp562
a(S'risk'
p563
S'risk'
p564
S'NN'
p565
S'I-NP'
p566
g4
tp567
a(S'of'
p568
S'of'
p569
S'IN'
p570
S'B-PP'
p571
g4
tp572
a(S'death'
p573
S'death'
p574
S'NN'
p575
S'B-NP'
p576
g4
tp577
a(S'for'
p578
S'for'
p579
S'IN'
p580
S'B-PP'
p581
g4
tp582
a(S'staple'
p583
S'staple'
p584
S'NN'
p585
S'B-NP'
p586
g4
tp587
a(S'transection'
p588
S'transection'
p589
S'NN'
p590
S'I-NP'
p591
g4
tp592
a(S'as'
p593
S'as'
p594
S'IN'
p595
S'B-PP'
p596
g4
tp597
a(S'compared'
p598
S'compare'
p599
S'VBN'
p600
S'B-PP'
p601
g4
tp602
a(S'with'
p603
S'with'
p604
S'IN'
p605
S'B-PP'
p606
g4
tp607
a(S'sclerotherapy'
p608
S'sclerotherapy'
p609
S'NN'
p610
S'B-NP'
p611
g4
tp612
a(S'was'
p613
S'be'
p614
S'VBD'
p615
S'B-VP'
p616
g4
tp617
a(S'0.88'
p618
S'0.88'
p619
S'CD'
p620
S'B-NP'
p621
g4
tp622
a(g310
g310
g310
g4
g4
tp623
a(S'95'
p624
S'95'
p625
S'CD'
p626
S'B-NP'
p627
g4
tp628
a(S'percent'
p629
S'percent'
p630
S'NN'
p631
S'I-NP'
p632
g4
tp633
a(S'confidence'
p634
S'confidence'
p635
S'NN'
p636
S'I-NP'
p637
g4
tp638
a(S'interval'
p639
S'interval'
p640
S'NN'
p641
S'I-NP'
p642
g4
tp643
a(g454
g454
g454
g4
g4
tp644
a(S'0.51'
p645
S'0.51'
p646
S'CD'
p647
S'B-NP'
p648
g4
tp649
a(S'to'
p650
S'to'
p651
S'TO'
p652
S'B-PP'
p653
g4
tp654
a(S'1.54'
p655
S'1.54'
p656
S'CD'
p657
S'B-NP'
p658
g4
tp659
a(g325
g325
g325
g4
g4
tp660
a(g96
g96
g96
g4
g4
tp661
a(S'Mortality'
p662
S'Mortality'
p663
S'NN'
p664
S'B-NP'
p665
g4
tp666
a(S'at'
p667
S'at'
p668
S'IN'
p669
S'B-PP'
p670
g4
tp671
a(S'six'
p672
S'six'
p673
S'CD'
p674
S'B-NP'
p675
g4
tp676
a(S'weeks'
p677
S'week'
p678
S'NNS'
p679
S'I-NP'
p680
g4
tp681
a(S'was'
p682
S'be'
p683
S'VBD'
p684
S'B-VP'
p685
g4
tp686
a(S'44'
p687
S'44'
p688
S'CD'
p689
S'B-NP'
p690
g4
tp691
a(S'percent'
p692
S'percent'
p693
S'NN'
p694
S'I-NP'
p695
g4
tp696
a(S'among'
p697
S'among'
p698
S'IN'
p699
S'B-PP'
p700
g4
tp701
a(S'those'
p702
S'those'
p703
S'DT'
p704
S'B-NP'
p705
g4
tp706
a(S'assigned'
p707
S'assign'
p708
S'VBN'
p709
S'B-VP'
p710
g4
tp711
a(S'to'
p712
S'to'
p713
S'TO'
p714
S'B-PP'
p715
g4
tp716
a(S'sclerotherapy'
p717
S'sclerotherapy'
p718
S'NN'
p719
S'B-NP'
p720
g4
tp721
a(S'and'
p722
S'and'
p723
S'CC'
p724
g4
g4
tp725
a(S'35'
p726
S'35'
p727
S'CD'
p728
S'B-NP'
p729
g4
tp730
a(S'percent'
p731
S'percent'
p732
S'NN'
p733
S'I-NP'
p734
g4
tp735
a(S'among'
p736
S'among'
p737
S'IN'
p738
S'B-PP'
p739
g4
tp740
a(S'those'
p741
S'those'
p742
S'DT'
p743
S'B-NP'
p744
g4
tp745
a(S'assigned'
p746
S'assign'
p747
S'VBN'
p748
S'B-VP'
p749
g4
tp750
a(S'to'
p751
S'to'
p752
S'TO'
p753
S'I-VP'
p754
g4
tp755
a(S'staple'
p756
S'staple'
p757
S'VB'
p758
S'I-VP'
p759
g4
tp760
a(S'transection.'
p761
S'transection.'
p762
S'NN'
p763
S'B-NP'
p764
g4
tp765
a(S'Complication'
p766
S'Complication'
p767
S'NN'
p768
S'I-NP'
p769
g4
tp770
a(S'rates'
p771
S'rate'
p772
S'NNS'
p773
S'I-NP'
p774
g4
tp775
a(S'were'
p776
S'be'
p777
S'VBD'
p778
S'B-VP'
p779
g4
tp780
a(S'similar'
p781
S'similar'
p782
S'JJ'
p783
S'B-ADJP'
p784
g4
tp785
a(S'for'
p786
S'for'
p787
S'IN'
p788
S'B-PP'
p789
g4
tp790
a(S'the'
p791
S'the'
p792
S'DT'
p793
S'B-NP'
p794
g4
tp795
a(S'two'
p796
S'two'
p797
S'CD'
p798
S'I-NP'
p799
g4
tp800
a(S'groups.'
p801
S'groups.'
p802
S'NNS'
p803
S'I-NP'
p804
g4
tp805
a(S'An'
p806
S'An'
p807
S'DT'
p808
S'B-NP'
p809
g4
tp810
a(S'interval'
p811
S'interval'
p812
S'NN'
p813
S'I-NP'
p814
g4
tp815
a(S'of'
p816
S'of'
p817
S'IN'
p818
S'B-PP'
p819
g4
tp820
a(S'five'
p821
S'five'
p822
S'CD'
p823
S'B-NP'
p824
g4
tp825
a(S'days'
p826
S'day'
p827
S'NNS'
p828
S'I-NP'
p829
g4
tp830
a(S'without'
p831
S'without'
p832
S'IN'
p833
S'B-PP'
p834
g4
tp835
a(S'bleeding'
p836
S'bleeding'
p837
S'NN'
p838
S'B-NP'
p839
g4
tp840
a(S'was'
p841
S'be'
p842
S'VBD'
p843
S'B-VP'
p844
g4
tp845
a(S'achieved'
p846
S'achieve'
p847
S'VBN'
p848
S'I-VP'
p849
g4
tp850
a(S'in'
p851
S'in'
p852
S'IN'
p853
S'B-PP'
p854
g4
tp855
a(S'88'
p856
S'88'
p857
S'CD'
p858
S'B-NP'
p859
g4
tp860
a(S'percent'
p861
S'percent'
p862
S'NN'
p863
S'I-NP'
p864
g4
tp865
a(S'of'
p866
S'of'
p867
S'IN'
p868
S'B-PP'
p869
g4
tp870
a(S'those'
p871
S'those'
p872
S'DT'
p873
S'B-NP'
p874
g4
tp875
a(S'assigned'
p876
S'assign'
p877
S'VBN'
p878
S'B-VP'
p879
g4
tp880
a(S'to'
p881
S'to'
p882
S'TO'
p883
S'I-VP'
p884
g4
tp885
a(S'staple'
p886
S'staple'
p887
S'VB'
p888
S'I-VP'
p889
g4
tp890
a(S'transection'
p891
S'transection'
p892
S'NN'
p893
S'B-NP'
p894
g4
tp895
a(S'and'
p896
S'and'
p897
S'CC'
p898
g4
g4
tp899
a(S'in'
p900
S'in'
p901
S'IN'
p902
S'B-PP'
p903
g4
tp904
a(S'62'
p905
S'62'
p906
S'CD'
p907
S'B-NP'
p908
g4
tp909
a(S'percent'
p910
S'percent'
p911
S'NN'
p912
S'I-NP'
p913
g4
tp914
a(S'of'
p915
S'of'
p916
S'IN'
p917
S'B-PP'
p918
g4
tp919
a(S'those'
p920
S'those'
p921
S'DT'
p922
S'B-NP'
p923
g4
tp924
a(S'assigned'
p925
S'assign'
p926
S'VBN'
p927
S'B-VP'
p928
g4
tp929
a(S'to'
p930
S'to'
p931
S'TO'
p932
S'B-PP'
p933
g4
tp934
a(S'sclerotherapy'
p935
S'sclerotherapy'
p936
S'NN'
p937
S'B-NP'
p938
g4
tp939
a(S'after'
p940
S'after'
p941
S'IN'
p942
S'B-PP'
p943
g4
tp944
a(S'a'
p945
g945
S'DT'
p946
S'B-NP'
p947
g4
tp948
a(S'single'
p949
S'single'
p950
S'JJ'
p951
S'I-NP'
p952
g4
tp953
a(S'injection'
p954
S'injection'
p955
S'NN'
p956
S'I-NP'
p957
g4
tp958
a(g310
g310
g310
g4
g4
tp959
a(S'P'
p960
g960
S'NN'
p961
S'B-NP'
p962
g4
tp963
a(S'less'
p964
S'less'
p965
S'JJR'
p966
S'B-ADJP'
p967
g4
tp968
a(S'than'
p969
S'than'
p970
S'IN'
p971
S'B-PP'
p972
g4
tp973
a(S'0.01'
p974
S'0.01'
p975
S'CD'
p976
S'B-NP'
p977
g4
tp978
a(g325
g325
g325
g4
g4
tp979
a(S'and'
p980
S'and'
p981
S'CC'
p982
g4
g4
tp983
a(S'82'
p984
S'82'
p985
S'CD'
p986
S'B-NP'
p987
g4
tp988
a(S'percent'
p989
S'percent'
p990
S'NN'
p991
S'I-NP'
p992
g4
tp993
a(S'after'
p994
S'after'
p995
S'IN'
p996
S'B-PP'
p997
g4
tp998
a(S'three'
p999
S'three'
p1000
S'CD'
p1001
S'B-NP'
p1002
g4
tp1003
a(S'injections.'
p1004
S'injections.'
p1005
S'NN'
p1006
S'I-NP'
p1007
g4
tp1008
a(S'In'
p1009
S'In'
p1010
S'IN'
p1011
S'B-PP'
p1012
g4
tp1013
a(S'only'
p1014
S'only'
p1015
S'RB'
p1016
S'B-NP'
p1017
g4
tp1018
a(S'2'
p1019
g1019
S'CD'
p1020
S'I-NP'
p1021
g4
tp1022
a(S'of'
p1023
S'of'
p1024
S'IN'
p1025
S'B-PP'
p1026
g4
tp1027
a(S'the'
p1028
S'the'
p1029
S'DT'
p1030
S'B-NP'
p1031
g4
tp1032
a(S'11'
p1033
S'11'
p1034
S'CD'
p1035
S'I-NP'
p1036
g4
tp1037
a(S'patients'
p1038
S'patient'
p1039
S'NNS'
p1040
S'I-NP'
p1041
g4
tp1042
a(S'who'
p1043
S'who'
p1044
S'WP'
p1045
S'B-NP'
p1046
g4
tp1047
a(S'received'
p1048
S'receive'
p1049
S'VBD'
p1050
S'B-VP'
p1051
g4
tp1052
a(g945
g945
S'DT'
p1053
S'B-NP'
p1054
g4
tp1055
a(S'third'
p1056
S'third'
p1057
S'JJ'
p1058
S'I-NP'
p1059
g4
tp1060
a(S'sclerotherapy'
p1061
S'sclerotherapy'
p1062
S'NN'
p1063
S'I-NP'
p1064
g4
tp1065
a(S'injection'
p1066
S'injection'
p1067
S'NN'
p1068
S'I-NP'
p1069
g4
tp1070
a(S'was'
p1071
S'be'
p1072
S'VBD'
p1073
S'B-VP'
p1074
g4
tp1075
a(S'bleeding'
p1076
S'bleed'
p1077
S'VBG'
p1078
S'I-VP'
p1079
g4
tp1080
a(S'controlled'
p1081
S'control'
p1082
S'VBN'
p1083
S'I-VP'
p1084
g4
tp1085
a(S'for'
p1086
S'for'
p1087
S'IN'
p1088
S'B-PP'
p1089
g4
tp1090
a(S'more'
p1091
S'more'
p1092
S'JJR'
p1093
S'B-NP'
p1094
g4
tp1095
a(S'than'
p1096
S'than'
p1097
S'IN'
p1098
S'I-NP'
p1099
g4
tp1100
a(S'five'
p1101
S'five'
p1102
S'CD'
p1103
S'I-NP'
p1104
g4
tp1105
a(S'days'
p1106
S'day'
p1107
S'NNS'
p1108
S'I-NP'
p1109
g4
tp1110
a(g454
g454
g454
g4
g4
tp1111
a(S'and'
p1112
S'and'
p1113
S'CC'
p1114
g4
g4
tp1115
a(S'9'
p1116
g1116
S'CD'
p1117
S'B-NP'
p1118
g4
tp1119
a(S'died.'
p1120
S'died.'
p1121
S'NN'
p1122
S'I-NP'
p1123
g4
tp1124
a(S'We'
p1125
S'We'
p1126
S'PRP'
p1127
S'B-NP'
p1128
g4
tp1129
a(S'conclude'
p1130
S'conclude'
p1131
S'VBP'
p1132
S'B-VP'
p1133
g4
tp1134
a(S'that'
p1135
S'that'
p1136
S'IN'
p1137
S'B-SBAR'
p1138
g4
tp1139
a(S'staple'
p1140
S'staple'
p1141
S'NN'
p1142
S'B-NP'
p1143
g4
tp1144
a(S'transection'
p1145
S'transection'
p1146
S'NN'
p1147
S'I-NP'
p1148
g4
tp1149
a(S'of'
p1150
S'of'
p1151
S'IN'
p1152
S'B-PP'
p1153
g4
tp1154
a(S'the'
p1155
S'the'
p1156
S'DT'
p1157
S'B-NP'
p1158
g4
tp1159
a(S'esophagus'
p1160
S'esophagus'
p1161
S'NN'
p1162
S'I-NP'
p1163
g4
tp1164
a(S'is'
p1165
S'be'
p1166
S'VBZ'
p1167
S'B-VP'
p1168
g4
tp1169
a(S'as'
p1170
S'as'
p1171
S'RB'
p1172
S'B-ADJP'
p1173
g4
tp1174
a(S'safe'
p1175
S'safe'
p1176
S'JJ'
p1177
S'I-ADJP'
p1178
g4
tp1179
a(S'as'
p1180
S'as'
p1181
S'IN'
p1182
S'B-PP'
p1183
g4
tp1184
a(S'sclerotherapy'
p1185
S'sclerotherapy'
p1186
S'NN'
p1187
S'B-NP'
p1188
g4
tp1189
a(S'for'
p1190
S'for'
p1191
S'IN'
p1192
S'B-PP'
p1193
g4
tp1194
a(S'the'
p1195
S'the'
p1196
S'DT'
p1197
S'B-NP'
p1198
g4
tp1199
a(S'emergency'
p1200
S'emergency'
p1201
S'NN'
p1202
S'I-NP'
p1203
g4
tp1204
a(S'treatment'
p1205
S'treatment'
p1206
S'NN'
p1207
S'I-NP'
p1208
g4
tp1209
a(S'of'
p1210
S'of'
p1211
S'IN'
p1212
S'B-PP'
p1213
g4
tp1214
a(S'bleeding'
p1215
S'bleed'
p1216
S'VBG'
p1217
S'B-VP'
p1218
g4
tp1219
a(S'esophageal'
p1220
S'esophageal'
p1221
S'JJ'
p1222
S'B-NP'
p1223
g4
tp1224
a(S'varices'
p1225
S'varix'
p1226
S'NNS'
p1227
S'I-NP'
p1228
g4
tp1229
a(S'and'
p1230
S'and'
p1231
S'CC'
p1232
g4
g4
tp1233
a(S'that'
p1234
S'that'
p1235
S'IN'
p1236
S'B-SBAR'
p1237
g4
tp1238
a(S'it'
p1239
S'it'
p1240
S'PRP'
p1241
S'B-NP'
p1242
g4
tp1243
a(S'is'
p1244
S'be'
p1245
S'VBZ'
p1246
S'B-VP'
p1247
g4
tp1248
a(S'more'
p1249
S'more'
p1250
S'RBR'
p1251
S'B-ADJP'
p1252
g4
tp1253
a(S'effective'
p1254
S'effective'
p1255
S'JJ'
p1256
S'I-ADJP'
p1257
g4
tp1258
a(S'than'
p1259
S'than'
p1260
S'IN'
p1261
S'B-PP'
p1262
g4
tp1263
a(g945
g945
S'DT'
p1264
S'B-NP'
p1265
g4
tp1266
a(S'single'
p1267
S'single'
p1268
S'JJ'
p1269
S'I-NP'
p1270
g4
tp1271
a(S'sclerotherapy'
p1272
S'sclerotherapy'
p1273
S'NN'
p1274
S'I-NP'
p1275
g4
tp1276
a(S'procedure.'
p1277
S'procedure.'
p1278
S'NN'
p1279
S'I-NP'
p1280
g4
tp1281
a(S'We'
p1282
S'We'
p1283
S'PRP'
p1284
S'B-NP'
p1285
g4
tp1286
a(S'currently'
p1287
S'currently'
p1288
S'RB'
p1289
S'B-ADVP'
p1290
g4
tp1291
a(S'recommend'
p1292
S'recommend'
p1293
S'VBP'
p1294
S'B-VP'
p1295
g4
tp1296
a(S'surgery'
p1297
S'surgery'
p1298
S'NN'
p1299
S'B-NP'
p1300
g4
tp1301
a(S'after'
p1302
S'after'
p1303
S'IN'
p1304
S'B-PP'
p1305
g4
tp1306
a(S'two'
p1307
S'two'
p1308
S'CD'
p1309
S'B-NP'
p1310
g4
tp1311
a(S'injection'
p1312
S'injection'
p1313
S'NN'
p1314
S'I-NP'
p1315
g4
tp1316
a(S'treatments'
p1317
S'treatment'
p1318
S'NNS'
p1319
S'I-NP'
p1320
g4
tp1321
a(S'have'
p1322
S'have'
p1323
S'VBP'
p1324
S'B-VP'
p1325
g4
tp1326
a(S'failed'
p1327
S'fail'
p1328
S'VBN'
p1329
S'I-VP'
p1330
g4
tp1331
a(g96
g96
g96
g4
g4
tp1332
a.