(lp0
(S'Selenium'
p1
S'Selenium'
p2
S'NN'
p3
S'B-NP'
p4
S'O'
p5
tp6
a(S'Treatment'
p7
S'Treatment'
p8
S'NN'
p9
S'I-NP'
p10
g5
tp11
a(S'and'
p12
S'and'
p13
S'CC'
p14
g5
g5
tp15
a(S'Chagasic'
p16
S'Chagasic'
p17
S'JJ'
p18
S'B-NP'
p19
g5
tp20
a(S'Cardiopathy'
p21
S'Cardiopathy'
p22
S'NN'
p23
S'I-NP'
p24
g5
tp25
a(S'('
p26
g26
g26
g5
g5
tp27
a(S'STCC'
p28
S'STCC'
p29
S'NN'
p30
S'B-NP'
p31
g5
tp32
a(S')'
p33
g33
g33
g5
g5
tp34
a(S':'
p35
g35
g35
g5
g5
tp36
a(S'study'
p37
S'study'
p38
S'NN'
p39
S'B-NP'
p40
g5
tp41
a(S'protocol'
p42
S'protocol'
p43
S'NN'
p44
S'I-NP'
p45
g5
tp46
a(S'for'
p47
S'for'
p48
S'IN'
p49
S'B-PP'
p50
g5
tp51
a(S'a'
p52
g52
S'DT'
p53
S'B-NP'
p54
g5
tp55
a(S'double-blind'
p56
S'double-blind'
p57
S'JJ'
p58
S'I-NP'
p59
g5
tp60
a(S'randomized'
p61
S'randomize'
p62
S'VBN'
p63
S'I-NP'
p64
g5
tp65
a(S'controlled'
p66
S'controlled'
p67
S'JJ'
p68
S'I-NP'
p69
g5
tp70
a(S'trial'
p71
S'trial'
p72
S'NN'
p73
S'I-NP'
p74
g5
tp75
a(S'.'
p76
g76
g76
g5
g5
tp77
a(S'BACKGROUND'
p78
S'BACKGROUND'
p79
S'NN'
p80
S'B-NP'
p81
g5
tp82
a(S'Heart'
p83
S'Heart'
p84
S'NN'
p85
S'I-NP'
p86
g5
tp87
a(S'disease'
p88
S'disease'
p89
S'NN'
p90
S'I-NP'
p91
g5
tp92
a(S'progression'
p93
S'progression'
p94
S'NN'
p95
S'I-NP'
p96
g5
tp97
a(S'occurs'
p98
S'occur'
p99
S'VBZ'
p100
S'B-VP'
p101
g5
tp102
a(S'in'
p103
S'in'
p104
S'IN'
p105
S'B-PP'
p106
g5
tp107
a(S'30'
p108
S'30'
p109
S'CD'
p110
S'B-NP'
p111
g5
tp112
a(S'%'
p113
g113
S'NN'
p114
S'I-NP'
p115
g5
tp116
a(S'of'
p117
S'of'
p118
S'IN'
p119
S'B-PP'
p120
g5
tp121
a(S'patients'
p122
S'patient'
p123
S'NNS'
p124
S'B-NP'
p125
g5
tp126
a(S'with'
p127
S'with'
p128
S'IN'
p129
S'B-PP'
p130
g5
tp131
a(S'chronic'
p132
S'chronic'
p133
S'JJ'
p134
S'B-NP'
p135
g5
tp136
a(S'Trypanosoma'
p137
S'Trypanosoma'
p138
S'NNP'
p139
S'I-NP'
p140
g5
tp141
a(S'cruzi'
p142
S'cruzi'
p143
S'NN'
p144
S'I-NP'
p145
g5
tp146
a(S'infection.'
p147
S'infection.'
p148
S'NN'
p149
S'I-NP'
p150
g5
tp151
a(S'Supplementation'
p152
S'Supplementation'
p153
S'NN'
p154
S'I-NP'
p155
g5
tp156
a(S'with'
p157
S'with'
p158
S'IN'
p159
S'B-PP'
p160
g5
tp161
a(S'selenium'
p162
S'selenium'
p163
S'NN'
p164
S'B-NP'
p165
g5
tp166
a(g26
g26
g26
g5
g5
tp167
a(S'Se'
p168
S'Se'
p169
S'NN'
p170
S'B-NP'
p171
S'B-protein'
p172
tp173
a(g33
g33
g33
g5
g5
tp174
a(S'in'
p175
S'in'
p176
S'IN'
p177
S'B-PP'
p178
g5
tp179
a(S'animal'
p180
S'animal'
p181
S'NN'
p182
S'B-NP'
p183
g5
tp184
a(S'model'
p185
S'model'
p186
S'NN'
p187
S'I-NP'
p188
g5
tp189
a(S'of'
p190
S'of'
p191
S'IN'
p192
S'B-PP'
p193
g5
tp194
a(S'T.'
p195
S'T.'
p196
S'NN'
p197
S'B-NP'
p198
g5
tp199
a(S'cruzi'
p200
S'cruzi'
p201
S'NN'
p202
S'I-NP'
p203
g5
tp204
a(S'infection'
p205
S'infection'
p206
S'NN'
p207
S'I-NP'
p208
g5
tp209
a(S'produced'
p210
S'produce'
p211
S'VBD'
p212
S'B-VP'
p213
g5
tp214
a(S'promising'
p215
S'promising'
p216
S'JJ'
p217
S'B-NP'
p218
g5
tp219
a(S'results.'
p220
S'results.'
p221
S'NNS'
p222
S'I-NP'
p223
g5
tp224
a(S'There'
p225
S'There'
p226
S'EX'
p227
S'B-NP'
p228
g5
tp229
a(S'is'
p230
S'be'
p231
S'VBZ'
p232
S'B-VP'
p233
g5
tp234
a(S'evidence'
p235
S'evidence'
p236
S'NN'
p237
S'B-NP'
p238
g5
tp239
a(S'that'
p240
S'that'
p241
S'IN'
p242
S'B-SBAR'
p243
g5
tp244
a(S'patients'
p245
S'patient'
p246
S'NNS'
p247
S'B-NP'
p248
g5
tp249
a(S'with'
p250
S'with'
p251
S'IN'
p252
S'B-PP'
p253
g5
tp254
a(S'Chagas'
p255
S'Chagas'
p256
S'NNP'
p257
S'B-NP'
p258
g5
tp259
a(S'heart'
p260
S'heart'
p261
S'NN'
p262
S'I-NP'
p263
g5
tp264
a(S'disease'
p265
S'disease'
p266
S'NN'
p267
S'I-NP'
p268
g5
tp269
a(S'have'
p270
S'have'
p271
S'VBP'
p272
S'B-VP'
p273
g5
tp274
a(S'lower'
p275
S'low'
p276
S'JJR'
p277
S'B-NP'
p278
g5
tp279
a(S'Se'
p280
S'Se'
p281
S'NN'
p282
S'I-NP'
p283
S'B-protein'
p284
tp285
a(S'levels'
p286
S'level'
p287
S'NNS'
p288
S'I-NP'
p289
g5
tp290
a(S'than'
p291
S'than'
p292
S'IN'
p293
S'B-PP'
p294
g5
tp295
a(S'healthy'
p296
S'healthy'
p297
S'JJ'
p298
S'B-NP'
p299
g5
tp300
a(S'individuals'
p301
S'individual'
p302
S'NNS'
p303
S'I-NP'
p304
g5
tp305
a(S'and'
p306
S'and'
p307
S'CC'
p308
g5
g5
tp309
a(S'patients'
p310
S'patient'
p311
S'NNS'
p312
S'B-NP'
p313
g5
tp314
a(S'with'
p315
S'with'
p316
S'IN'
p317
S'B-PP'
p318
g5
tp319
a(S'T.'
p320
S'T.'
p321
S'NN'
p322
S'B-NP'
p323
g5
tp324
a(S'cruzi'
p325
S'cruzi'
p326
S'NN'
p327
S'I-NP'
p328
g5
tp329
a(S'infection'
p330
S'infection'
p331
S'NN'
p332
S'I-NP'
p333
g5
tp334
a(S'without'
p335
S'without'
p336
S'IN'
p337
S'B-PP'
p338
g5
tp339
a(S'of'
p340
S'of'
p341
S'IN'
p342
S'B-PP'
p343
g5
tp344
a(S'cardiac'
p345
S'cardiac'
p346
S'JJ'
p347
S'B-NP'
p348
g5
tp349
a(S'disease.'
p350
S'disease.'
p351
S'NN'
p352
S'I-NP'
p353
g5
tp354
a(S'The'
p355
S'The'
p356
S'DT'
p357
S'B-NP'
p358
g5
tp359
a(S'aim'
p360
S'aim'
p361
S'NN'
p362
S'I-NP'
p363
g5
tp364
a(S'of'
p365
S'of'
p366
S'IN'
p367
S'B-PP'
p368
g5
tp369
a(S'this'
p370
S'this'
p371
S'DT'
p372
S'B-NP'
p373
g5
tp374
a(S'investigation'
p375
S'investigation'
p376
S'NN'
p377
S'I-NP'
p378
g5
tp379
a(S'is'
p380
S'be'
p381
S'VBZ'
p382
S'B-VP'
p383
g5
tp384
a(S'to'
p385
S'to'
p386
S'TO'
p387
S'B-VP'
p388
g5
tp389
a(S'estimate'
p390
S'estimate'
p391
S'VB'
p392
S'I-VP'
p393
g5
tp394
a(S'the'
p395
S'the'
p396
S'DT'
p397
S'B-NP'
p398
g5
tp399
a(S'effect'
p400
S'effect'
p401
S'NN'
p402
S'I-NP'
p403
g5
tp404
a(S'of'
p405
S'of'
p406
S'IN'
p407
S'B-PP'
p408
g5
tp409
a(S'Se'
p410
S'Se'
p411
S'NN'
p412
S'B-NP'
p413
S'B-protein'
p414
tp415
a(S'treatment'
p416
S'treatment'
p417
S'NN'
p418
S'I-NP'
p419
g5
tp420
a(S'on'
p421
S'on'
p422
S'IN'
p423
S'B-PP'
p424
g5
tp425
a(S'prevention'
p426
S'prevention'
p427
S'NN'
p428
S'B-NP'
p429
g5
tp430
a(S'of'
p431
S'of'
p432
S'IN'
p433
S'B-PP'
p434
g5
tp435
a(S'heart'
p436
S'heart'
p437
S'NN'
p438
S'B-NP'
p439
g5
tp440
a(S'disease'
p441
S'disease'
p442
S'NN'
p443
S'I-NP'
p444
g5
tp445
a(S'progression'
p446
S'progression'
p447
S'NN'
p448
S'I-NP'
p449
g5
tp450
a(S'in'
p451
S'in'
p452
S'IN'
p453
S'B-PP'
p454
g5
tp455
a(S'patients'
p456
S'patient'
p457
S'NNS'
p458
S'B-NP'
p459
g5
tp460
a(S'with'
p461
S'with'
p462
S'IN'
p463
S'B-PP'
p464
g5
tp465
a(S'chagasic'
p466
S'chagasic'
p467
S'JJ'
p468
S'B-NP'
p469
g5
tp470
a(S'cardiopathy'
p471
S'cardiopathy'
p472
S'NN'
p473
S'I-NP'
p474
g5
tp475
a(g76
g76
g76
g5
g5
tp476
a(S'METHODS'
p477
S'METHODS'
p478
S'NNS'
p479
S'B-NP'
p480
g5
tp481
a(S'The'
p482
S'The'
p483
S'DT'
p484
S'B-NP'
p485
g5
tp486
a(S'Selenium'
p487
S'Selenium'
p488
S'NN'
p489
S'I-NP'
p490
g5
tp491
a(S'Treatment'
p492
S'Treatment'
p493
S'NN'
p494
S'I-NP'
p495
g5
tp496
a(S'and'
p497
S'and'
p498
S'CC'
p499
g5
g5
tp500
a(S'Chagasic'
p501
S'Chagasic'
p502
S'JJ'
p503
S'B-NP'
p504
g5
tp505
a(S'Cardiopathy'
p506
S'Cardiopathy'
p507
S'NN'
p508
S'I-NP'
p509
g5
tp510
a(S'trial'
p511
S'trial'
p512
S'NN'
p513
S'I-NP'
p514
g5
tp515
a(S'is'
p516
S'be'
p517
S'VBZ'
p518
S'B-VP'
p519
g5
tp520
a(g52
g52
S'DT'
p521
S'B-NP'
p522
g5
tp523
a(S'superiority'
p524
S'superiority'
p525
S'NN'
p526
S'I-NP'
p527
g5
tp528
a(S','
p529
g529
g529
g5
g5
tp530
a(S'double-blind'
p531
S'double-blind'
p532
S'JJ'
p533
S'B-NP'
p534
g5
tp535
a(g529
g529
g529
S'I-NP'
p536
g5
tp537
a(S'placebo-controlled'
p538
S'placebo-controlled'
p539
S'JJ'
p540
S'I-NP'
p541
g5
tp542
a(g529
g529
g529
g5
g5
tp543
a(S'randomized'
p544
S'randomize'
p545
S'VBN'
p546
S'B-VP'
p547
g5
tp548
a(S'clinical'
p549
S'clinical'
p550
S'JJ'
p551
S'B-NP'
p552
g5
tp553
a(S'trial.'
p554
S'trial.'
p555
S'NN'
p556
S'I-NP'
p557
g5
tp558
a(S'The'
p559
S'The'
p560
S'DT'
p561
S'B-NP'
p562
g5
tp563
a(S'eligibility'
p564
S'eligibility'
p565
S'NN'
p566
S'I-NP'
p567
g5
tp568
a(S'criteria'
p569
S'criterion'
p570
S'NNS'
p571
S'I-NP'
p572
g5
tp573
a(S'are'
p574
S'be'
p575
S'VBP'
p576
S'B-VP'
p577
g5
tp578
a(S'as'
p579
S'as'
p580
S'IN'
p581
S'B-PP'
p582
g5
tp583
a(S'follows'
p584
S'follow'
p585
S'NNS'
p586
S'B-NP'
p587
g5
tp588
a(g35
g35
g35
g5
g5
tp589
a(g26
g26
g26
S'B-LST'
p590
g5
tp591
a(S'1'
p592
g592
S'LS'
p593
S'I-LST'
p594
g5
tp595
a(g33
g33
g33
g5
g5
tp596
a(g52
g52
S'DT'
p597
S'B-NP'
p598
g5
tp599
a(S'Chagas'
p600
S'Chagas'
p601
S'NNP'
p602
S'I-NP'
p603
g5
tp604
a(S'disease'
p605
S'disease'
p606
S'NN'
p607
S'I-NP'
p608
g5
tp609
a(S'diagnosis'
p610
S'diagnosis'
p611
S'NN'
p612
S'I-NP'
p613
g5
tp614
a(S'confirmed'
p615
S'confirm'
p616
S'VBN'
p617
S'B-VP'
p618
g5
tp619
a(S'by'
p620
S'by'
p621
S'IN'
p622
S'B-PP'
p623
g5
tp624
a(S'serology'
p625
S'serology'
p626
S'NN'
p627
S'B-NP'
p628
g5
tp629
a(S';'
p630
g630
g35
g5
g5
tp631
a(g26
g26
g26
S'B-LST'
p632
g5
tp633
a(S'2'
p634
g634
S'LS'
p635
S'I-LST'
p636
g5
tp637
a(g33
g33
g33
g5
g5
tp638
a(S'segmental'
p639
S'segmental'
p640
S'JJ'
p641
S'B-NP'
p642
g5
tp643
a(g529
g529
g529
S'I-NP'
p644
g5
tp645
a(S'mild'
p646
S'mild'
p647
S'JJ'
p648
S'I-NP'
p649
g5
tp650
a(S'or'
p651
S'or'
p652
S'CC'
p653
S'I-NP'
p654
g5
tp655
a(S'moderate'
p656
S'moderate'
p657
S'JJ'
p658
S'I-NP'
p659
g5
tp660
a(S'global'
p661
S'global'
p662
S'JJ'
p663
S'I-NP'
p664
g5
tp665
a(S'left'
p666
S'left'
p667
S'JJ'
p668
S'I-NP'
p669
g5
tp670
a(S'ventricular'
p671
S'ventricular'
p672
S'JJ'
p673
S'I-NP'
p674
g5
tp675
a(S'systolic'
p676
S'systolic'
p677
S'JJ'
p678
S'I-NP'
p679
g5
tp680
a(S'dysfunction'
p681
S'dysfunction'
p682
S'NN'
p683
S'I-NP'
p684
g5
tp685
a(g630
g630
g35
g5
g5
tp686
a(S'and'
p687
S'and'
p688
S'CC'
p689
g5
g5
tp690
a(g26
g26
g26
S'B-LST'
p691
g5
tp692
a(S'3'
p693
g693
S'LS'
p694
S'I-LST'
p695
g5
tp696
a(g33
g33
g33
g5
g5
tp697
a(S'age'
p698
S'age'
p699
S'NN'
p700
S'B-NP'
p701
g5
tp702
a(S'between'
p703
S'between'
p704
S'IN'
p705
S'B-PP'
p706
g5
tp707
a(S'18'
p708
S'18'
p709
S'CD'
p710
S'B-NP'
p711
g5
tp712
a(S'and'
p713
S'and'
p714
S'CC'
p715
S'I-NP'
p716
g5
tp717
a(S'65'
p718
S'65'
p719
S'CD'
p720
S'I-NP'
p721
g5
tp722
a(S'years.'
p723
S'years.'
p724
S'NNS'
p725
S'I-NP'
p726
g5
tp727
a(S'The'
p728
S'The'
p729
S'DT'
p730
S'B-NP'
p731
g5
tp732
a(S'exclusion'
p733
S'exclusion'
p734
S'NN'
p735
S'I-NP'
p736
g5
tp737
a(S'criteria'
p738
S'criterion'
p739
S'NNS'
p740
S'I-NP'
p741
g5
tp742
a(S'are'
p743
S'be'
p744
S'VBP'
p745
S'B-VP'
p746
g5
tp747
a(S'as'
p748
S'as'
p749
S'IN'
p750
S'B-PP'
p751
g5
tp752
a(S'follows'
p753
S'follow'
p754
S'NNS'
p755
S'B-NP'
p756
g5
tp757
a(g35
g35
g35
g5
g5
tp758
a(g26
g26
g26
S'B-LST'
p759
g5
tp760
a(g592
g592
S'LS'
p761
S'I-LST'
p762
g5
tp763
a(g33
g33
g33
g5
g5
tp764
a(S'pregnancy'
p765
S'pregnancy'
p766
S'NN'
p767
S'B-NP'
p768
g5
tp769
a(g529
g529
g529
g5
g5
tp770
a(g26
g26
g26
S'B-LST'
p771
g5
tp772
a(g634
g634
S'LS'
p773
S'I-LST'
p774
g5
tp775
a(g33
g33
g33
g5
g5
tp776
a(S'diabetes'
p777
S'diabetes'
p778
S'NN'
p779
S'B-NP'
p780
g5
tp781
a(S'mellitus'
p782
S'mellitus'
p783
S'NN'
p784
S'I-NP'
p785
g5
tp786
a(g529
g529
g529
g5
g5
tp787
a(g26
g26
g26
S'B-LST'
p788
g5
tp789
a(g693
g693
S'LS'
p790
S'I-LST'
p791
g5
tp792
a(g33
g33
g33
g5
g5
tp793
a(S'tobacco'
p794
S'tobacco'
p795
S'NN'
p796
S'B-NP'
p797
g5
tp798
a(S'use'
p799
S'use'
p800
S'NN'
p801
S'I-NP'
p802
g5
tp803
a(g529
g529
g529
g5
g5
tp804
a(g26
g26
g26
S'B-LST'
p805
g5
tp806
a(S'4'
p807
g807
S'LS'
p808
S'I-LST'
p809
g5
tp810
a(g33
g33
g33
g5
g5
tp811
a(S'alcohol'
p812
S'alcohol'
p813
S'NN'
p814
S'B-NP'
p815
g5
tp816
a(S'abuse'
p817
S'abuse'
p818
S'NN'
p819
S'I-NP'
p820
g5
tp821
a(g529
g529
g529
g5
g5
tp822
a(g26
g26
g26
S'B-LST'
p823
g5
tp824
a(S'5'
p825
g825
S'LS'
p826
S'I-LST'
p827
g5
tp828
a(g33
g33
g33
g5
g5
tp829
a(S'evidence'
p830
S'evidence'
p831
S'NN'
p832
S'B-NP'
p833
g5
tp834
a(S'of'
p835
S'of'
p836
S'IN'
p837
S'B-PP'
p838
g5
tp839
a(S'nonchagasic'
p840
S'nonchagasic'
p841
S'JJ'
p842
S'B-NP'
p843
g5
tp844
a(S'heart'
p845
S'heart'
p846
S'NN'
p847
S'I-NP'
p848
g5
tp849
a(S'disease'
p850
S'disease'
p851
S'NN'
p852
S'I-NP'
p853
g5
tp854
a(g529
g529
g529
g5
g5
tp855
a(g26
g26
g26
g5
g5
tp856
a(S'6'
p857
g857
S'CD'
p858
S'B-NP'
p859
g5
tp860
a(g33
g33
g33
g5
g5
tp861
a(S'depression'
p862
S'depression'
p863
S'NN'
p864
S'B-NP'
p865
g5
tp866
a(g529
g529
g529
g5
g5
tp867
a(g26
g26
g26
g5
g5
tp868
a(S'7'
p869
g869
S'CD'
p870
S'B-NP'
p871
g5
tp872
a(g33
g33
g33
g5
g5
tp873
a(S'dysphagia'
p874
S'dysphagia'
p875
S'NN'
p876
S'B-NP'
p877
g5
tp878
a(S'with'
p879
S'with'
p880
S'IN'
p881
S'B-PP'
p882
g5
tp883
a(S'evidence'
p884
S'evidence'
p885
S'NN'
p886
S'B-NP'
p887
g5
tp888
a(S'of'
p889
S'of'
p890
S'IN'
p891
S'B-PP'
p892
g5
tp893
a(S'food'
p894
S'food'
p895
S'NN'
p896
S'B-NP'
p897
g5
tp898
a(S'residues'
p899
S'residue'
p900
S'NNS'
p901
S'I-NP'
p902
g5
tp903
a(S'in'
p904
S'in'
p905
S'IN'
p906
S'B-PP'
p907
g5
tp908
a(S'the'
p909
S'the'
p910
S'DT'
p911
S'B-NP'
p912
g5
tp913
a(S'esophagus'
p914
S'esophagus'
p915
S'NN'
p916
S'I-NP'
p917
g5
tp918
a(g529
g529
g529
g5
g5
tp919
a(g26
g26
g26
g5
g5
tp920
a(S'8'
p921
g921
S'CD'
p922
S'B-NP'
p923
g5
tp924
a(g33
g33
g33
g5
g5
tp925
a(S'dysphagia'
p926
S'dysphagia'
p927
S'NN'
p928
S'B-NP'
p929
g5
tp930
a(S'with'
p931
S'with'
p932
S'IN'
p933
S'B-PP'
p934
g5
tp935
a(S'weight'
p936
S'weight'
p937
S'NN'
p938
S'B-NP'
p939
g5
tp940
a(S'loss'
p941
S'loss'
p942
S'NN'
p943
S'I-NP'
p944
g5
tp945
a(S'higher'
p946
S'high'
p947
S'JJR'
p948
S'B-ADJP'
p949
g5
tp950
a(S'than'
p951
S'than'
p952
S'IN'
p953
S'B-PP'
p954
g5
tp955
a(S'15'
p956
S'15'
p957
S'CD'
p958
S'B-NP'
p959
g5
tp960
a(g113
g113
S'NN'
p961
S'I-NP'
p962
g5
tp963
a(S'of'
p964
S'of'
p965
S'IN'
p966
S'B-PP'
p967
g5
tp968
a(S'usual'
p969
S'usual'
p970
S'JJ'
p971
S'B-NP'
p972
g5
tp973
a(S'weight'
p974
S'weight'
p975
S'NN'
p976
S'I-NP'
p977
g5
tp978
a(S'in'
p979
S'in'
p980
S'IN'
p981
S'B-PP'
p982
g5
tp983
a(S'the'
p984
S'the'
p985
S'DT'
p986
S'B-NP'
p987
g5
tp988
a(S'last'
p989
S'last'
p990
S'JJ'
p991
S'I-NP'
p992
g5
tp993
a(S'four'
p994
S'four'
p995
S'CD'
p996
S'I-NP'
p997
g5
tp998
a(S'months'
p999
S'month'
p1000
S'NNS'
p1001
S'I-NP'
p1002
g5
tp1003
a(S'and/or'
p1004
S'and/or'
p1005
S'CC'
p1006
g5
g5
tp1007
a(g26
g26
g26
g5
g5
tp1008
a(S'9'
p1009
g1009
S'CD'
p1010
S'B-NP'
p1011
g5
tp1012
a(g33
g33
g33
g5
g5
tp1013
a(S'conditions'
p1014
S'condition'
p1015
S'NNS'
p1016
S'B-NP'
p1017
g5
tp1018
a(S'that'
p1019
S'that'
p1020
S'WDT'
p1021
S'B-NP'
p1022
g5
tp1023
a(S'may'
p1024
S'may'
p1025
S'MD'
p1026
S'B-VP'
p1027
g5
tp1028
a(S'result'
p1029
S'result'
p1030
S'VB'
p1031
S'I-VP'
p1032
g5
tp1033
a(S'in'
p1034
S'in'
p1035
S'IN'
p1036
S'B-PP'
p1037
g5
tp1038
a(S'low'
p1039
S'low'
p1040
S'JJ'
p1041
S'B-NP'
p1042
g5
tp1043
a(S'protocol'
p1044
S'protocol'
p1045
S'NN'
p1046
S'I-NP'
p1047
g5
tp1048
a(S'adherence.'
p1049
S'adherence.'
p1050
S'NN'
p1051
S'I-NP'
p1052
g5
tp1053
a(S'The'
p1054
S'The'
p1055
S'DT'
p1056
S'B-NP'
p1057
g5
tp1058
a(S'intervention'
p1059
S'intervention'
p1060
S'NN'
p1061
S'I-NP'
p1062
g5
tp1063
a(S'will'
p1064
S'will'
p1065
S'MD'
p1066
S'B-VP'
p1067
g5
tp1068
a(S'be'
p1069
S'be'
p1070
S'VB'
p1071
S'I-VP'
p1072
g5
tp1073
a(S'100'
p1074
S'100'
p1075
S'CD'
p1076
S'B-NP'
p1077
g5
tp1078
a(S'\xce\xbcg'
p1079
S'\xce\xbcg'
p1080
S'NN'
p1081
S'I-NP'
p1082
g5
tp1083
a(S'of'
p1084
S'of'
p1085
S'IN'
p1086
S'B-PP'
p1087
g5
tp1088
a(S'sodium'
p1089
S'sodium'
p1090
S'NN'
p1091
S'B-NP'
p1092
g5
tp1093
a(S'selenite'
p1094
S'selenite'
p1095
S'NN'
p1096
S'I-NP'
p1097
g5
tp1098
a(S'once'
p1099
S'once'
p1100
S'RB'
p1101
S'B-ADVP'
p1102
g5
tp1103
a(S'daily'
p1104
S'daily'
p1105
S'RB'
p1106
S'I-ADVP'
p1107
g5
tp1108
a(S'for'
p1109
S'for'
p1110
S'IN'
p1111
S'B-PP'
p1112
g5
tp1113
a(S'365'
p1114
S'365'
p1115
S'CD'
p1116
S'B-NP'
p1117
g5
tp1118
a(S'consecutive'
p1119
S'consecutive'
p1120
S'JJ'
p1121
S'I-NP'
p1122
g5
tp1123
a(S'days'
p1124
S'day'
p1125
S'NNS'
p1126
S'I-NP'
p1127
g5
tp1128
a(S'compared'
p1129
S'compare'
p1130
S'VBN'
p1131
S'B-VP'
p1132
g5
tp1133
a(S'to'
p1134
S'to'
p1135
S'TO'
p1136
S'B-VP'
p1137
g5
tp1138
a(S'placebo.'
p1139
S'placebo.'
p1140
S'VB'
p1141
S'I-VP'
p1142
g5
tp1143
a(S'The'
p1144
S'The'
p1145
S'DT'
p1146
S'B-NP'
p1147
g5
tp1148
a(S'following'
p1149
S'following'
p1150
S'NN'
p1151
S'I-NP'
p1152
g5
tp1153
a(S'are'
p1154
S'be'
p1155
S'VBP'
p1156
S'B-VP'
p1157
g5
tp1158
a(S'the'
p1159
S'the'
p1160
S'DT'
p1161
S'B-NP'
p1162
g5
tp1163
a(S'primary'
p1164
S'primary'
p1165
S'JJ'
p1166
S'I-NP'
p1167
g5
tp1168
a(S'outcomes'
p1169
S'outcome'
p1170
S'NNS'
p1171
S'I-NP'
p1172
g5
tp1173
a(S'to'
p1174
S'to'
p1175
S'TO'
p1176
S'B-VP'
p1177
g5
tp1178
a(S'be'
p1179
S'be'
p1180
S'VB'
p1181
S'I-VP'
p1182
g5
tp1183
a(S'measured'
p1184
S'measure'
p1185
S'VBN'
p1186
S'I-VP'
p1187
g5
tp1188
a(g35
g35
g35
g5
g5
tp1189
a(g26
g26
g26
S'B-LST'
p1190
g5
tp1191
a(g592
g592
S'LS'
p1192
S'I-LST'
p1193
g5
tp1194
a(g33
g33
g33
g5
g5
tp1195
a(S'the'
p1196
S'the'
p1197
S'DT'
p1198
S'B-NP'
p1199
g5
tp1200
a(S'trajectories'
p1201
S'trajectory'
p1202
S'NNS'
p1203
S'I-NP'
p1204
g5
tp1205
a(S'of'
p1206
S'of'
p1207
S'IN'
p1208
S'B-PP'
p1209
g5
tp1210
a(S'the'
p1211
S'the'
p1212
S'DT'
p1213
S'B-NP'
p1214
g5
tp1215
a(S'left'
p1216
S'left'
p1217
S'JJ'
p1218
S'I-NP'
p1219
g5
tp1220
a(S'ventricular'
p1221
S'ventricular'
p1222
S'JJ'
p1223
S'I-NP'
p1224
g5
tp1225
a(S'ejection'
p1226
S'ejection'
p1227
S'NN'
p1228
S'I-NP'
p1229
g5
tp1230
a(S'fraction'
p1231
S'fraction'
p1232
S'NN'
p1233
S'I-NP'
p1234
g5
tp1235
a(S'in'
p1236
S'in'
p1237
S'IN'
p1238
S'B-PP'
p1239
g5
tp1240
a(S'the'
p1241
S'the'
p1242
S'DT'
p1243
S'B-NP'
p1244
g5
tp1245
a(S'follow-up'
p1246
S'follow-up'
p1247
S'JJ'
p1248
S'I-NP'
p1249
g5
tp1250
a(S'period'
p1251
S'period'
p1252
S'NN'
p1253
S'I-NP'
p1254
g5
tp1255
a(g630
g630
g35
g5
g5
tp1256
a(g26
g26
g26
S'B-LST'
p1257
g5
tp1258
a(g634
g634
S'LS'
p1259
S'I-LST'
p1260
g5
tp1261
a(g33
g33
g33
g5
g5
tp1262
a(S'reduction'
p1263
S'reduction'
p1264
S'NN'
p1265
S'B-NP'
p1266
g5
tp1267
a(S'of'
p1268
S'of'
p1269
S'IN'
p1270
S'B-PP'
p1271
g5
tp1272
a(S'heart'
p1273
S'heart'
p1274
S'NN'
p1275
S'B-NP'
p1276
g5
tp1277
a(S'disease'
p1278
S'disease'
p1279
S'NN'
p1280
S'I-NP'
p1281
g5
tp1282
a(S'progression'
p1283
S'progression'
p1284
S'NN'
p1285
S'I-NP'
p1286
g5
tp1287
a(S'rates'
p1288
S'rate'
p1289
S'NNS'
p1290
S'I-NP'
p1291
g5
tp1292
a(g529
g529
g529
g5
g5
tp1293
a(S'with'
p1294
S'with'
p1295
S'IN'
p1296
S'B-PP'
p1297
g5
tp1298
a(S'progression'
p1299
S'progression'
p1300
S'NN'
p1301
S'B-NP'
p1302
g5
tp1303
a(S'defined'
p1304
S'define'
p1305
S'VBN'
p1306
S'B-VP'
p1307
g5
tp1308
a(S'as'
p1309
S'as'
p1310
S'IN'
p1311
S'B-PP'
p1312
g5
tp1313
a(g52
g52
S'DT'
p1314
S'B-NP'
p1315
g5
tp1316
a(S'10'
p1317
S'10'
p1318
S'CD'
p1319
S'I-NP'
p1320
g5
tp1321
a(g113
g113
S'NN'
p1322
S'I-NP'
p1323
g5
tp1324
a(S'decrease'
p1325
S'decrease'
p1326
S'NN'
p1327
S'I-NP'
p1328
g5
tp1329
a(S'in'
p1330
S'in'
p1331
S'IN'
p1332
S'B-PP'
p1333
g5
tp1334
a(S'left'
p1335
S'left'
p1336
S'JJ'
p1337
S'B-NP'
p1338
g5
tp1339
a(S'ventricular'
p1340
S'ventricular'
p1341
S'JJ'
p1342
S'I-NP'
p1343
g5
tp1344
a(S'ejection'
p1345
S'ejection'
p1346
S'NN'
p1347
S'I-NP'
p1348
g5
tp1349
a(S'fraction'
p1350
S'fraction'
p1351
S'NN'
p1352
S'I-NP'
p1353
g5
tp1354
a(g630
g630
g35
g5
g5
tp1355
a(S'and'
p1356
S'and'
p1357
S'CC'
p1358
g5
g5
tp1359
a(g26
g26
g26
S'B-LST'
p1360
g5
tp1361
a(g693
g693
S'LS'
p1362
S'I-LST'
p1363
g5
tp1364
a(g33
g33
g33
g5
g5
tp1365
a(S'rate'
p1366
S'rate'
p1367
S'NN'
p1368
S'B-NP'
p1369
g5
tp1370
a(S'of'
p1371
S'of'
p1372
S'IN'
p1373
S'B-PP'
p1374
g5
tp1375
a(S'hospital'
p1376
S'hospital'
p1377
S'NN'
p1378
S'B-NP'
p1379
g5
tp1380
a(S'admissions'
p1381
S'admission'
p1382
S'NNS'
p1383
S'I-NP'
p1384
g5
tp1385
a(S'attributable'
p1386
S'attributable'
p1387
S'JJ'
p1388
S'B-ADJP'
p1389
g5
tp1390
a(S'to'
p1391
S'to'
p1392
S'TO'
p1393
S'B-PP'
p1394
g5
tp1395
a(S'dysrhythmia'
p1396
S'dysrhythmia'
p1397
S'NN'
p1398
S'B-NP'
p1399
g5
tp1400
a(g529
g529
g529
g5
g5
tp1401
a(S'heart'
p1402
S'heart'
p1403
S'NN'
p1404
S'B-NP'
p1405
g5
tp1406
a(S'failure'
p1407
S'failure'
p1408
S'NN'
p1409
S'I-NP'
p1410
g5
tp1411
a(S'or'
p1412
S'or'
p1413
S'CC'
p1414
g5
g5
tp1415
a(S'stroke'
p1416
S'stroke'
p1417
S'NN'
p1418
S'B-NP'
p1419
g5
tp1420
a(S'due'
p1421
S'due'
p1422
S'JJ'
p1423
S'B-ADJP'
p1424
g5
tp1425
a(S'to'
p1426
S'to'
p1427
S'TO'
p1428
S'B-PP'
p1429
g5
tp1430
a(S'Chagas'
p1431
S'Chagas'
p1432
S'NNP'
p1433
S'B-NP'
p1434
g5
tp1435
a(S'disease.'
p1436
S'disease.'
p1437
S'RB'
p1438
S'B-NP'
p1439
g5
tp1440
a(S'One'
p1441
S'One'
p1442
S'CD'
p1443
S'I-NP'
p1444
g5
tp1445
a(S'hundred'
p1446
S'hundred'
p1447
S'CD'
p1448
S'I-NP'
p1449
g5
tp1450
a(S'thirty'
p1451
S'thirty'
p1452
S'CD'
p1453
S'I-NP'
p1454
g5
tp1455
a(S'patients'
p1456
S'patient'
p1457
S'NNS'
p1458
S'I-NP'
p1459
g5
tp1460
a(S'will'
p1461
S'will'
p1462
S'MD'
p1463
S'B-VP'
p1464
g5
tp1465
a(S'be'
p1466
S'be'
p1467
S'VB'
p1468
S'I-VP'
p1469
g5
tp1470
a(S'randomly'
p1471
S'randomly'
p1472
S'RB'
p1473
S'I-VP'
p1474
g5
tp1475
a(S'allocated'
p1476
S'allocate'
p1477
S'VBN'
p1478
S'I-VP'
p1479
g5
tp1480
a(S'into'
p1481
S'into'
p1482
S'IN'
p1483
S'B-PP'
p1484
g5
tp1485
a(S'either'
p1486
S'either'
p1487
S'CC'
p1488
g5
g5
tp1489
a(S'the'
p1490
S'the'
p1491
S'DT'
p1492
S'B-NP'
p1493
g5
tp1494
a(S'intervention'
p1495
S'intervention'
p1496
S'NN'
p1497
S'I-NP'
p1498
g5
tp1499
a(S'or'
p1500
S'or'
p1501
S'CC'
p1502
S'I-NP'
p1503
g5
tp1504
a(S'placebo'
p1505
S'placebo'
p1506
S'NN'
p1507
S'I-NP'
p1508
g5
tp1509
a(S'group'
p1510
S'group'
p1511
S'NN'
p1512
S'I-NP'
p1513
g5
tp1514
a(S'at'
p1515
S'at'
p1516
S'IN'
p1517
S'B-PP'
p1518
g5
tp1519
a(g52
g52
S'DT'
p1520
S'B-NP'
p1521
g5
tp1522
a(S'ratio'
p1523
S'ratio'
p1524
S'NN'
p1525
S'I-NP'
p1526
g5
tp1527
a(S'of'
p1528
S'of'
p1529
S'IN'
p1530
S'B-PP'
p1531
g5
tp1532
a(g592
g592
S'CD'
p1533
S'B-NP'
p1534
g5
tp1535
a(g35
g35
g35
g5
g5
tp1536
a(S'1.'
p1537
S'1.'
p1538
S'CD'
p1539
S'B-NP'
p1540
g5
tp1541
a(S'The'
p1542
S'The'
p1543
S'DT'
p1544
S'B-NP'
p1545
g5
tp1546
a(S'sequence'
p1547
S'sequence'
p1548
S'NN'
p1549
S'I-NP'
p1550
g5
tp1551
a(S'allocation'
p1552
S'allocation'
p1553
S'NN'
p1554
S'I-NP'
p1555
g5
tp1556
a(S'concealment'
p1557
S'concealment'
p1558
S'NN'
p1559
S'I-NP'
p1560
g5
tp1561
a(S'and'
p1562
S'and'
p1563
S'CC'
p1564
S'I-NP'
p1565
g5
tp1566
a(S'blinding'
p1567
S'blinding'
p1568
S'NN'
p1569
S'I-NP'
p1570
g5
tp1571
a(S'were'
p1572
S'be'
p1573
S'VBD'
p1574
S'B-VP'
p1575
g5
tp1576
a(S'planned'
p1577
S'plan'
p1578
S'VBN'
p1579
S'I-VP'
p1580
g5
tp1581
a(S'to'
p1582
S'to'
p1583
S'TO'
p1584
S'I-VP'
p1585
g5
tp1586
a(S'be'
p1587
S'be'
p1588
S'VB'
p1589
S'I-VP'
p1590
g5
tp1591
a(S'conducted'
p1592
S'conduct'
p1593
S'VBN'
p1594
S'I-VP'
p1595
g5
tp1596
a(S'with'
p1597
S'with'
p1598
S'IN'
p1599
S'B-PP'
p1600
g5
tp1601
a(S'the'
p1602
S'the'
p1603
S'DT'
p1604
S'B-NP'
p1605
g5
tp1606
a(S'strategy'
p1607
S'strategy'
p1608
S'NN'
p1609
S'I-NP'
p1610
g5
tp1611
a(S'of'
p1612
S'of'
p1613
S'IN'
p1614
S'B-PP'
p1615
g5
tp1616
a(S'numbered'
p1617
S'numbered'
p1618
S'JJ'
p1619
S'B-NP'
p1620
g5
tp1621
a(S'boxes.'
p1622
S'boxes.'
p1623
S'NNS'
p1624
S'I-NP'
p1625
g5
tp1626
a(S'Both'
p1627
S'Both'
p1628
S'CC'
p1629
g5
g5
tp1630
a(S'patients'
p1631
S'patient'
p1632
S'NNS'
p1633
S'B-NP'
p1634
g5
tp1635
a(S'and'
p1636
S'and'
p1637
S'CC'
p1638
g5
g5
tp1639
a(S'health-care'
p1640
S'health-care'
p1641
S'NN'
p1642
S'B-NP'
p1643
g5
tp1644
a(S'providers'
p1645
S'provider'
p1646
S'NNS'
p1647
S'I-NP'
p1648
g5
tp1649
a(S'will'
p1650
S'will'
p1651
S'MD'
p1652
S'B-VP'
p1653
g5
tp1654
a(S'remain'
p1655
S'remain'
p1656
S'VB'
p1657
S'I-VP'
p1658
g5
tp1659
a(S'blinded'
p1660
S'blinded'
p1661
S'JJ'
p1662
S'B-ADJP'
p1663
g5
tp1664
a(S'to'
p1665
S'to'
p1666
S'TO'
p1667
S'B-PP'
p1668
g5
tp1669
a(S'the'
p1670
S'the'
p1671
S'DT'
p1672
S'B-NP'
p1673
g5
tp1674
a(S'intervention'
p1675
S'intervention'
p1676
S'NN'
p1677
S'I-NP'
p1678
g5
tp1679
a(S'groups'
p1680
S'group'
p1681
S'NNS'
p1682
S'I-NP'
p1683
g5
tp1684
a(S'during'
p1685
S'during'
p1686
S'IN'
p1687
S'B-PP'
p1688
g5
tp1689
a(S'the'
p1690
S'the'
p1691
S'DT'
p1692
S'B-NP'
p1693
g5
tp1694
a(g825
g825
S'CD'
p1695
S'I-NP'
p1696
g5
tp1697
a(S'years'
p1698
S'year'
p1699
S'NNS'
p1700
S'I-NP'
p1701
g5
tp1702
a(S'of'
p1703
S'of'
p1704
S'IN'
p1705
S'B-PP'
p1706
g5
tp1707
a(S'follow-up'
p1708
S'follow-up'
p1709
S'NN'
p1710
S'B-NP'
p1711
g5
tp1712
a(g76
g76
g76
g5
g5
tp1713
a(S'DISCUSSION'
p1714
S'DISCUSSION'
p1715
S'NN'
p1716
S'B-NP'
p1717
g5
tp1718
a(S'If'
p1719
S'If'
p1720
S'IN'
p1721
S'B-SBAR'
p1722
g5
tp1723
a(S'Se'
p1724
S'Se'
p1725
S'NN'
p1726
S'B-NP'
p1727
S'B-protein'
p1728
tp1729
a(S'treatment'
p1730
S'treatment'
p1731
S'NN'
p1732
S'I-NP'
p1733
g5
tp1734
a(S'reduces'
p1735
S'reduce'
p1736
S'VBZ'
p1737
S'B-VP'
p1738
g5
tp1739
a(S'the'
p1740
S'the'
p1741
S'DT'
p1742
S'B-NP'
p1743
g5
tp1744
a(S'progression'
p1745
S'progression'
p1746
S'NN'
p1747
S'I-NP'
p1748
g5
tp1749
a(S'of'
p1750
S'of'
p1751
S'IN'
p1752
S'B-PP'
p1753
g5
tp1754
a(S'Chagas'
p1755
S'Chagas'
p1756
S'NNP'
p1757
S'B-NP'
p1758
g5
tp1759
a(S'cardiopathy'
p1760
S'cardiopathy'
p1761
S'NN'
p1762
S'I-NP'
p1763
g5
tp1764
a(g529
g529
g529
g5
g5
tp1765
a(S'the'
p1766
S'the'
p1767
S'DT'
p1768
S'B-NP'
p1769
g5
tp1770
a(S'inclusion'
p1771
S'inclusion'
p1772
S'NN'
p1773
S'I-NP'
p1774
g5
tp1775
a(S'of'
p1776
S'of'
p1777
S'IN'
p1778
S'B-PP'
p1779
g5
tp1780
a(S'this'
p1781
S'this'
p1782
S'DT'
p1783
S'B-NP'
p1784
g5
tp1785
a(S'micronutrient'
p1786
S'micronutrient'
p1787
S'NN'
p1788
S'I-NP'
p1789
g5
tp1790
a(S'in'
p1791
S'in'
p1792
S'IN'
p1793
S'B-PP'
p1794
g5
tp1795
a(S'the'
p1796
S'the'
p1797
S'DT'
p1798
S'B-NP'
p1799
g5
tp1800
a(S'daily'
p1801
S'daily'
p1802
S'JJ'
p1803
S'I-NP'
p1804
g5
tp1805
a(S'diet'
p1806
S'diet'
p1807
S'NN'
p1808
S'I-NP'
p1809
g5
tp1810
a(S'can'
p1811
S'can'
p1812
S'MD'
p1813
S'B-VP'
p1814
g5
tp1815
a(S'improve'
p1816
S'improve'
p1817
S'VB'
p1818
S'I-VP'
p1819
g5
tp1820
a(S'the'
p1821
S'the'
p1822
S'DT'
p1823
S'B-NP'
p1824
g5
tp1825
a(S'therapeutic'
p1826
S'therapeutic'
p1827
S'JJ'
p1828
S'I-NP'
p1829
g5
tp1830
a(S'regimen'
p1831
S'regimen'
p1832
S'NN'
p1833
S'I-NP'
p1834
g5
tp1835
a(S'for'
p1836
S'for'
p1837
S'IN'
p1838
S'B-PP'
p1839
g5
tp1840
a(S'this'
p1841
S'this'
p1842
S'DT'
p1843
S'B-NP'
p1844
g5
tp1845
a(S'neglected'
p1846
S'neglect'
p1847
S'VBN'
p1848
S'I-NP'
p1849
g5
tp1850
a(S'tropical'
p1851
S'tropical'
p1852
S'JJ'
p1853
S'I-NP'
p1854
g5
tp1855
a(S'disease'
p1856
S'disease'
p1857
S'NN'
p1858
S'I-NP'
p1859
g5
tp1860
a(S'at'
p1861
S'at'
p1862
S'IN'
p1863
S'B-PP'
p1864
g5
tp1865
a(S'low'
p1866
S'low'
p1867
S'JJ'
p1868
S'B-NP'
p1869
g5
tp1870
a(S'cost'
p1871
S'cost'
p1872
S'NN'
p1873
S'I-NP'
p1874
g5
tp1875
a(g76
g76
g76
g5
g5
tp1876
a(S'TRIAL'
p1877
S'TRIAL'
p1878
S'NNP'
p1879
S'B-NP'
p1880
g5
tp1881
a(S'REGISTRATION'
p1882
S'REGISTRATION'
p1883
S'NNP'
p1884
S'I-NP'
p1885
g5
tp1886
a(S'Clinical'
p1887
S'Clinical'
p1888
S'NNP'
p1889
S'I-NP'
p1890
g5
tp1891
a(S'Trials.gov'
p1892
S'Trials.gov'
p1893
S'NNP'
p1894
S'I-NP'
p1895
g5
tp1896
a(S'ID'
p1897
S'ID'
p1898
S'NNP'
p1899
S'I-NP'
p1900
g5
tp1901
a(g35
g35
g35
g5
g5
tp1902
a(S'NCT00875173'
p1903
S'NCT00875173'
p1904
S'NN'
p1905
S'B-NP'
p1906
g5
tp1907
a(g26
g26
g26
g5
g5
tp1908
a(S'registered'
p1909
S'register'
p1910
S'VBN'
p1911
S'B-VP'
p1912
g5
tp1913
a(S'20'
p1914
S'20'
p1915
S'CD'
p1916
S'B-NP'
p1917
g5
tp1918
a(S'October'
p1919
S'October'
p1920
S'NNP'
p1921
S'I-NP'
p1922
g5
tp1923
a(S'20'
p1924
S'20'
p1925
S'CD'
p1926
S'I-NP'
p1927
g5
tp1928
a(S'2008'
p1929
S'2008'
p1930
S'CD'
p1931
S'I-NP'
p1932
g5
tp1933
a(g33
g33
g33
g5
g5
tp1934
a(g76
g76
g76
g5
g5
tp1935
a.