(lp0
(S'Nitrous'
p1
S'Nitrous'
p2
S'JJ'
p3
S'B-NP'
p4
S'O'
p5
tp6
a(S'oxide'
p7
S'oxide'
p8
S'NN'
p9
S'I-NP'
p10
g5
tp11
a(S'diffusion'
p12
S'diffusion'
p13
S'NN'
p14
S'I-NP'
p15
g5
tp16
a(S'into'
p17
S'into'
p18
S'IN'
p19
S'B-PP'
p20
g5
tp21
a(S'tracheal'
p22
S'tracheal'
p23
S'JJ'
p24
S'B-NP'
p25
g5
tp26
a(S'tube'
p27
S'tube'
p28
S'NN'
p29
S'I-NP'
p30
g5
tp31
a(S'cuffs'
p32
S'cuff'
p33
S'NNS'
p34
S'I-NP'
p35
g5
tp36
a(S'--'
p37
S'--'
p38
S':'
p39
g5
g5
tp40
a(S'efficacy'
p41
S'efficacy'
p42
S'NN'
p43
S'B-NP'
p44
g5
tp45
a(S'of'
p46
S'of'
p47
S'IN'
p48
S'B-PP'
p49
g5
tp50
a(S'a'
p51
g51
S'DT'
p52
S'B-NP'
p53
g5
tp54
a(S'new'
p55
S'new'
p56
S'JJ'
p57
S'I-NP'
p58
g5
tp59
a(S'prototype'
p60
S'prototype'
p61
S'NN'
p62
S'I-NP'
p63
g5
tp64
a(S'cuff'
p65
S'cuff'
p66
S'NN'
p67
S'I-NP'
p68
g5
tp69
a(S'pressure'
p70
S'pressure'
p71
S'NN'
p72
S'I-NP'
p73
g5
tp74
a(S'release'
p75
S'release'
p76
S'NN'
p77
S'I-NP'
p78
g5
tp79
a(S'valve'
p80
S'valve'
p81
S'NN'
p82
S'I-NP'
p83
g5
tp84
a(S'.'
p85
g85
g85
g5
g5
tp86
a(S'BACKGROUND'
p87
S'BACKGROUND'
p88
S'NN'
p89
S'B-NP'
p90
g5
tp91
a(S'The'
p92
S'The'
p93
S'DT'
p94
S'B-NP'
p95
g5
tp96
a(S'aim'
p97
S'aim'
p98
S'NN'
p99
S'I-NP'
p100
g5
tp101
a(S'of'
p102
S'of'
p103
S'IN'
p104
S'B-PP'
p105
g5
tp106
a(S'this'
p107
S'this'
p108
S'DT'
p109
S'B-NP'
p110
g5
tp111
a(S'study'
p112
S'study'
p113
S'NN'
p114
S'I-NP'
p115
g5
tp116
a(S'was'
p117
S'be'
p118
S'VBD'
p119
S'B-VP'
p120
g5
tp121
a(S'to'
p122
S'to'
p123
S'TO'
p124
S'B-VP'
p125
g5
tp126
a(S'evaluate'
p127
S'evaluate'
p128
S'VB'
p129
S'I-VP'
p130
g5
tp131
a(S'the'
p132
S'the'
p133
S'DT'
p134
S'B-NP'
p135
g5
tp136
a(S'performance'
p137
S'performance'
p138
S'NN'
p139
S'I-NP'
p140
g5
tp141
a(S'of'
p142
S'of'
p143
S'IN'
p144
S'B-PP'
p145
g5
tp146
a(g51
g51
S'DT'
p147
S'B-NP'
p148
g5
tp149
a(S'new'
p150
S'new'
p151
S'JJ'
p152
S'I-NP'
p153
g5
tp154
a(S'cuff'
p155
S'cuff'
p156
S'NN'
p157
S'I-NP'
p158
g5
tp159
a(S'pressure'
p160
S'pressure'
p161
S'NN'
p162
S'I-NP'
p163
g5
tp164
a(S'release'
p165
S'release'
p166
S'NN'
p167
S'I-NP'
p168
g5
tp169
a(S'valve'
p170
S'valve'
p171
S'NN'
p172
S'I-NP'
p173
g5
tp174
a(S'('
p175
g175
g175
g5
g5
tp176
a(S'CPRV'
p177
S'CPRV'
p178
S'NN'
p179
S'B-NP'
p180
S'B-protein'
p181
tp182
a(S')'
p183
g183
g183
g5
g5
tp184
a(S','
p185
g185
g185
g5
g5
tp186
a(S'in'
p187
S'in'
p188
S'IN'
p189
S'B-PP'
p190
g5
tp191
a(S'which'
p192
S'which'
p193
S'WDT'
p194
S'B-NP'
p195
g5
tp196
a(S'the'
p197
S'the'
p198
S'DT'
p199
S'B-NP'
p200
g5
tp201
a(S'release'
p202
S'release'
p203
S'NN'
p204
S'I-NP'
p205
g5
tp206
a(S'pressure'
p207
S'pressure'
p208
S'NN'
p209
S'I-NP'
p210
g5
tp211
a(S'can'
p212
S'can'
p213
S'MD'
p214
S'B-VP'
p215
g5
tp216
a(S'be'
p217
S'be'
p218
S'VB'
p219
S'I-VP'
p220
g5
tp221
a(S'adjusted'
p222
S'adjust'
p223
S'VBN'
p224
S'I-VP'
p225
g5
tp226
a(S'from'
p227
S'from'
p228
S'IN'
p229
S'B-PP'
p230
g5
tp231
a(S'10'
p232
S'10'
p233
S'CD'
p234
S'B-NP'
p235
g5
tp236
a(S'to'
p237
S'to'
p238
S'TO'
p239
S'I-NP'
p240
g5
tp241
a(S'25'
p242
S'25'
p243
S'CD'
p244
S'I-NP'
p245
g5
tp246
a(S'cmH2O'
p247
S'cmH2O'
p248
S'NN'
p249
S'I-NP'
p250
g5
tp251
a(g185
g185
g185
g5
g5
tp252
a(S'particularly'
p253
S'particularly'
p254
S'RB'
p255
S'B-VP'
p256
g5
tp257
a(S'intended'
p258
S'intend'
p259
S'VBN'
p260
S'I-VP'
p261
g5
tp262
a(S'to'
p263
S'to'
p264
S'TO'
p265
S'I-VP'
p266
g5
tp267
a(S'control'
p268
S'control'
p269
S'VB'
p270
S'I-VP'
p271
g5
tp272
a(S'pressure'
p273
S'pressure'
p274
S'NN'
p275
S'B-NP'
p276
g5
tp277
a(S'in'
p278
S'in'
p279
S'IN'
p280
S'B-PP'
p281
g5
tp282
a(S'paediatric'
p283
S'paediatric'
p284
S'JJ'
p285
S'B-NP'
p286
g5
tp287
a(S'cuffed'
p288
S'cuff'
p289
S'VBN'
p290
S'I-NP'
p291
g5
tp292
a(S'tracheal'
p293
S'tracheal'
p294
S'NN'
p295
S'I-NP'
p296
g5
tp297
a(S'tubes'
p298
S'tube'
p299
S'NNS'
p300
S'I-NP'
p301
g5
tp302
a(S'and'
p303
S'and'
p304
S'CC'
p305
g5
g5
tp306
a(S'to'
p307
S'to'
p308
S'TO'
p309
S'B-VP'
p310
g5
tp311
a(S'avoid'
p312
S'avoid'
p313
S'VB'
p314
S'I-VP'
p315
g5
tp316
a(S'cuff'
p317
S'cuff'
p318
S'NN'
p319
S'B-NP'
p320
g5
tp321
a(S'hyperinflation'
p322
S'hyperinflation'
p323
S'NN'
p324
S'I-NP'
p325
g5
tp326
a(S'caused'
p327
S'cause'
p328
S'VBN'
p329
S'B-VP'
p330
g5
tp331
a(S'by'
p332
S'by'
p333
S'IN'
p334
S'B-PP'
p335
g5
tp336
a(S'N2O'
p337
S'N2O'
p338
S'NN'
p339
S'B-NP'
p340
S'B-protein'
p341
tp342
a(S'diffusion'
p343
S'diffusion'
p344
S'NN'
p345
S'I-NP'
p346
g5
tp347
a(g85
g85
g85
g5
g5
tp348
a(S'METHODS'
p349
S'METHODS'
p350
S'NNS'
p351
S'B-NP'
p352
g5
tp353
a(S'In'
p354
S'In'
p355
S'FW'
p356
S'B-ADVP'
p357
g5
tp358
a(S'vitro'
p359
S'vitro'
p360
S'FW'
p361
S'I-ADVP'
p362
g5
tp363
a(g39
g39
g39
g5
g5
tp364
a(S'the'
p365
S'the'
p366
S'DT'
p367
S'B-NP'
p368
g5
tp369
a(S'PRV'
p370
S'PRV'
p371
S'NN'
p372
S'I-NP'
p373
S'B-protein'
p374
tp375
a(S'was'
p376
S'be'
p377
S'VBD'
p378
S'B-VP'
p379
g5
tp380
a(S'set'
p381
S'set'
p382
S'VBN'
p383
S'I-VP'
p384
g5
tp385
a(S'to'
p386
S'to'
p387
S'TO'
p388
S'B-PP'
p389
g5
tp390
a(S'10'
p391
S'10'
p392
S'CD'
p393
S'B-NP'
p394
g5
tp395
a(g185
g185
g185
S'I-NP'
p396
g5
tp397
a(S'15'
p398
S'15'
p399
S'CD'
p400
S'I-NP'
p401
g5
tp402
a(g185
g185
g185
S'I-NP'
p403
g5
tp404
a(S'20'
p405
S'20'
p406
S'CD'
p407
S'I-NP'
p408
g5
tp409
a(S'or'
p410
S'or'
p411
S'CC'
p412
S'I-NP'
p413
g5
tp414
a(S'25'
p415
S'25'
p416
S'CD'
p417
S'I-NP'
p418
g5
tp419
a(S'cmH2O'
p420
S'cmH2O'
p421
S'NN'
p422
S'I-NP'
p423
g5
tp424
a(S'release'
p425
S'release'
p426
S'NN'
p427
S'I-NP'
p428
g5
tp429
a(S'pressure'
p430
S'pressure'
p431
S'NN'
p432
S'I-NP'
p433
g5
tp434
a(S'and'
p435
S'and'
p436
S'CC'
p437
g5
g5
tp438
a(S'connected'
p439
S'connect'
p440
S'VBN'
p441
S'B-VP'
p442
g5
tp443
a(S'to'
p444
S'to'
p445
S'TO'
p446
S'B-PP'
p447
g5
tp448
a(g51
g51
S'DT'
p449
S'B-NP'
p450
g5
tp451
a(S'cuffed'
p452
S'cuff'
p453
S'VBN'
p454
S'I-NP'
p455
g5
tp456
a(S'tube'
p457
S'tube'
p458
S'NN'
p459
S'I-NP'
p460
g5
tp461
a(S'placed'
p462
S'place'
p463
S'VBN'
p464
S'B-VP'
p465
g5
tp466
a(S'into'
p467
S'into'
p468
S'IN'
p469
S'B-PP'
p470
g5
tp471
a(g51
g51
S'DT'
p472
S'B-NP'
p473
g5
tp474
a(S'box'
p475
S'box'
p476
S'NN'
p477
S'I-NP'
p478
S'B-DNA'
p479
tp480
a(S'flushed'
p481
S'flush'
p482
S'VBD'
p483
S'B-VP'
p484
g5
tp485
a(S'with'
p486
S'with'
p487
S'IN'
p488
S'B-PP'
p489
g5
tp490
a(S'66'
p491
S'66'
p492
S'CD'
p493
S'B-NP'
p494
g5
tp495
a(S'%'
p496
g496
S'NN'
p497
S'I-NP'
p498
g5
tp499
a(S'N2O'
p500
S'N2O'
p501
S'NN'
p502
S'I-NP'
p503
g5
tp504
a(S'in'
p505
S'in'
p506
S'IN'
p507
S'B-PP'
p508
g5
tp509
a(S'O2.'
p510
S'O2.'
p511
S'NN'
p512
S'B-NP'
p513
g5
tp514
a(S'The'
p515
S'The'
p516
S'DT'
p517
S'B-NP'
p518
g5
tp519
a(S'cuff'
p520
S'cuff'
p521
S'NN'
p522
S'I-NP'
p523
g5
tp524
a(S'pressure'
p525
S'pressure'
p526
S'NN'
p527
S'I-NP'
p528
g5
tp529
a(S'was'
p530
S'be'
p531
S'VBD'
p532
S'B-VP'
p533
g5
tp534
a(S'monitored'
p535
S'monitor'
p536
S'VBN'
p537
S'I-VP'
p538
g5
tp539
a(S'with'
p540
S'with'
p541
S'IN'
p542
S'B-PP'
p543
g5
tp544
a(S'and'
p545
S'and'
p546
S'CC'
p547
S'B-PP'
p548
g5
tp549
a(S'without'
p550
S'without'
p551
S'IN'
p552
S'B-PP'
p553
g5
tp554
a(S'CPRV'
p555
S'CPRV'
p556
S'NN'
p557
S'B-NP'
p558
S'B-protein'
p559
tp560
a(S'for'
p561
S'for'
p562
S'IN'
p563
S'B-PP'
p564
g5
tp565
a(S'60'
p566
S'60'
p567
S'CD'
p568
S'B-NP'
p569
g5
tp570
a(S'min.'
p571
S'min.'
p572
S'NN'
p573
S'I-NP'
p574
g5
tp575
a(S'Experiments'
p576
S'Experiment'
p577
S'NNS'
p578
S'I-NP'
p579
g5
tp580
a(S'were'
p581
S'be'
p582
S'VBD'
p583
S'B-VP'
p584
g5
tp585
a(S'performed'
p586
S'perform'
p587
S'VBN'
p588
S'I-VP'
p589
g5
tp590
a(S'four'
p591
S'four'
p592
S'CD'
p593
S'B-NP'
p594
g5
tp595
a(S'times'
p596
S'time'
p597
S'NNS'
p598
S'I-NP'
p599
g5
tp600
a(S'using'
p601
S'use'
p602
S'VBG'
p603
S'B-VP'
p604
g5
tp605
a(S'two'
p606
S'two'
p607
S'CD'
p608
S'B-NP'
p609
g5
tp610
a(S'different'
p611
S'different'
p612
S'JJ'
p613
S'I-NP'
p614
g5
tp615
a(S'CPRVs.'
p616
S'CPRVs.'
p617
S'FW'
p618
S'I-NP'
p619
g5
tp620
a(S'In'
p621
S'In'
p622
S'FW'
p623
S'I-NP'
p624
g5
tp625
a(S'vivo'
p626
S'vivo'
p627
S'FW'
p628
S'I-NP'
p629
g5
tp630
a(g39
g39
g39
g5
g5
tp631
a(S'with'
p632
S'with'
p633
S'IN'
p634
S'B-PP'
p635
g5
tp636
a(S'Institutional'
p637
S'Institutional'
p638
S'NNP'
p639
S'B-NP'
p640
g5
tp641
a(S'Review'
p642
S'Review'
p643
S'NNP'
p644
S'I-NP'
p645
g5
tp646
a(S'Board'
p647
S'Board'
p648
S'NNP'
p649
S'I-NP'
p650
g5
tp651
a(S'approval'
p652
S'approval'
p653
S'NN'
p654
S'I-NP'
p655
g5
tp656
a(g185
g185
g185
g5
g5
tp657
a(S'CPRV'
p658
S'CPRV'
p659
S'NN'
p660
S'B-NP'
p661
S'B-protein'
p662
tp663
a(S'was'
p664
S'be'
p665
S'VBD'
p666
S'B-VP'
p667
g5
tp668
a(S'studied'
p669
S'study'
p670
S'VBN'
p671
S'I-VP'
p672
g5
tp673
a(S'in'
p674
S'in'
p675
S'IN'
p676
S'B-PP'
p677
g5
tp678
a(S'50'
p679
S'50'
p680
S'CD'
p681
S'B-NP'
p682
g5
tp683
a(S'children'
p684
S'child'
p685
S'NNS'
p686
S'I-NP'
p687
g5
tp688
a(S'undergoing'
p689
S'undergo'
p690
S'VBG'
p691
S'B-VP'
p692
g5
tp693
a(S'general'
p694
S'general'
p695
S'JJ'
p696
S'B-NP'
p697
g5
tp698
a(S'anaesthesia'
p699
S'anaesthesia'
p700
S'NN'
p701
S'I-NP'
p702
g5
tp703
a(S'with'
p704
S'with'
p705
S'IN'
p706
S'B-PP'
p707
g5
tp708
a(S'tracheal'
p709
S'tracheal'
p710
S'JJ'
p711
S'B-NP'
p712
g5
tp713
a(S'intubation'
p714
S'intubation'
p715
S'NN'
p716
S'I-NP'
p717
g5
tp718
a(S'and'
p719
S'and'
p720
S'CC'
p721
g5
g5
tp722
a(S'standardized'
p723
S'standardize'
p724
S'VBD'
p725
S'B-VP'
p726
g5
tp727
a(S'anaesthesia'
p728
S'anaesthesia'
p729
S'NN'
p730
S'B-NP'
p731
g5
tp732
a(S'technique'
p733
S'technique'
p734
S'NN'
p735
S'I-NP'
p736
g5
tp737
a(g175
g175
g175
g5
g5
tp738
a(S'including'
p739
S'include'
p740
S'VBG'
p741
S'B-PP'
p742
g5
tp743
a(S'66'
p744
S'66'
p745
S'CD'
p746
S'B-NP'
p747
g5
tp748
a(g496
g496
S'NN'
p749
S'I-NP'
p750
g5
tp751
a(S'N2O'
p752
S'N2O'
p753
S'NN'
p754
S'I-NP'
p755
g5
tp756
a(S'in'
p757
S'in'
p758
S'IN'
p759
S'B-PP'
p760
g5
tp761
a(S'O2'
p762
S'O2'
p763
S'NN'
p764
S'B-NP'
p765
g5
tp766
a(g183
g183
g183
g5
g5
tp767
a(S'and'
p768
S'and'
p769
S'CC'
p770
g5
g5
tp771
a(S'ventilator'
p772
S'ventilator'
p773
S'NN'
p774
S'B-NP'
p775
g5
tp776
a(S'settings.'
p777
S'settings.'
p778
S'NN'
p779
S'I-NP'
p780
g5
tp781
a(S'Patients'
p782
S'Patient'
p783
S'NNS'
p784
S'I-NP'
p785
g5
tp786
a(S'were'
p787
S'be'
p788
S'VBD'
p789
S'B-VP'
p790
g5
tp791
a(S'randomized'
p792
S'randomize'
p793
S'VBN'
p794
S'I-VP'
p795
g5
tp796
a(S'into'
p797
S'into'
p798
S'IN'
p799
S'B-PP'
p800
g5
tp801
a(S'two'
p802
S'two'
p803
S'CD'
p804
S'B-NP'
p805
g5
tp806
a(S'groups'
p807
S'group'
p808
S'NNS'
p809
S'I-NP'
p810
g5
tp811
a(g175
g175
g175
g5
g5
tp812
a(S'with'
p813
S'with'
p814
S'IN'
p815
S'B-PP'
p816
g5
tp817
a(S'and'
p818
S'and'
p819
S'CC'
p820
S'I-PP'
p821
g5
tp822
a(S'without'
p823
S'without'
p824
S'IN'
p825
S'I-PP'
p826
g5
tp827
a(S'CPRV'
p828
S'CPRV'
p829
S'NN'
p830
S'B-NP'
p831
S'B-protein'
p832
tp833
a(g183
g183
g183
g5
g5
tp834
a(g85
g85
g85
g5
g5
tp835
a(S'The'
p836
S'The'
p837
S'DT'
p838
S'B-NP'
p839
g5
tp840
a(S'cuff'
p841
S'cuff'
p842
S'JJ'
p843
S'I-NP'
p844
g5
tp845
a(S'pressure'
p846
S'pressure'
p847
S'NN'
p848
S'I-NP'
p849
g5
tp850
a(S'baseline'
p851
S'baseline'
p852
S'NN'
p853
S'I-NP'
p854
g5
tp855
a(S'was'
p856
S'be'
p857
S'VBD'
p858
S'B-VP'
p859
g5
tp860
a(S'20'
p861
S'20'
p862
S'CD'
p863
S'B-NP'
p864
g5
tp865
a(S'cmH2O'
p866
S'cmH2O'
p867
S'NN'
p868
S'I-NP'
p869
g5
tp870
a(S'and'
p871
S'and'
p872
S'CC'
p873
S'I-NP'
p874
g5
tp875
a(S'CPRV'
p876
S'CPRV'
p877
S'NN'
p878
S'I-NP'
p879
S'B-protein'
p880
tp881
a(S'was'
p882
S'be'
p883
S'VBD'
p884
S'B-VP'
p885
g5
tp886
a(S'set'
p887
S'set'
p888
S'VBN'
p889
S'I-VP'
p890
g5
tp891
a(S'to'
p892
S'to'
p893
S'TO'
p894
S'B-PP'
p895
g5
tp896
a(S'25'
p897
S'25'
p898
S'CD'
p899
S'B-NP'
p900
g5
tp901
a(S'cmH2O.'
p902
S'cmH2O.'
p903
S'NN'
p904
S'I-NP'
p905
g5
tp906
a(S'If'
p907
S'If'
p908
S'IN'
p909
S'B-SBAR'
p910
g5
tp911
a(S'the'
p912
S'the'
p913
S'DT'
p914
S'B-NP'
p915
g5
tp916
a(S'cuff'
p917
S'cuff'
p918
S'NN'
p919
S'I-NP'
p920
g5
tp921
a(S'pressure'
p922
S'pressure'
p923
S'NN'
p924
S'I-NP'
p925
g5
tp926
a(S'exceeded'
p927
S'exceed'
p928
S'VBD'
p929
S'B-VP'
p930
g5
tp931
a(S'25'
p932
S'25'
p933
S'CD'
p934
S'B-NP'
p935
g5
tp936
a(S'cmH2O'
p937
S'cmH2O'
p938
S'NN'
p939
S'I-NP'
p940
g5
tp941
a(g185
g185
g185
g5
g5
tp942
a(S'it'
p943
S'it'
p944
S'PRP'
p945
S'B-NP'
p946
g5
tp947
a(S'was'
p948
S'be'
p949
S'VBD'
p950
S'B-VP'
p951
g5
tp952
a(S'manually'
p953
S'manually'
p954
S'RB'
p955
S'I-VP'
p956
g5
tp957
a(S'released'
p958
S'release'
p959
S'VBN'
p960
S'I-VP'
p961
g5
tp962
a(S'to'
p963
S'to'
p964
S'TO'
p965
S'B-PP'
p966
g5
tp967
a(S'20'
p968
S'20'
p969
S'CD'
p970
S'B-NP'
p971
g5
tp972
a(S'cmH2O.'
p973
S'cmH2O.'
p974
S'NN'
p975
S'I-NP'
p976
g5
tp977
a(S'The'
p978
S'The'
p979
S'DT'
p980
S'B-NP'
p981
g5
tp982
a(S'numbers'
p983
S'number'
p984
S'NNS'
p985
S'I-NP'
p986
g5
tp987
a(S'of'
p988
S'of'
p989
S'IN'
p990
S'B-PP'
p991
g5
tp992
a(S'deflations'
p993
S'deflation'
p994
S'NNS'
p995
S'B-NP'
p996
g5
tp997
a(S'in'
p998
S'in'
p999
S'IN'
p1000
S'B-PP'
p1001
g5
tp1002
a(S'both'
p1003
S'both'
p1004
S'DT'
p1005
S'B-NP'
p1006
g5
tp1007
a(S'groups'
p1008
S'group'
p1009
S'NNS'
p1010
S'I-NP'
p1011
g5
tp1012
a(S'were'
p1013
S'be'
p1014
S'VBD'
p1015
S'B-VP'
p1016
g5
tp1017
a(S'noted'
p1018
S'note'
p1019
S'VBN'
p1020
S'I-VP'
p1021
g5
tp1022
a(S'and'
p1023
S'and'
p1024
S'CC'
p1025
g5
g5
tp1026
a(S'compared'
p1027
S'compare'
p1028
S'VBN'
p1029
S'B-VP'
p1030
g5
tp1031
a(S'by'
p1032
S'by'
p1033
S'IN'
p1034
S'B-PP'
p1035
g5
tp1036
a(S'Mann-Whitney'
p1037
S'Mann-Whitney'
p1038
S'JJ'
p1039
S'B-NP'
p1040
g5
tp1041
a(S'U-test'
p1042
S'U-test'
p1043
S'NN'
p1044
S'I-NP'
p1045
g5
tp1046
a(g175
g175
g175
g5
g5
tp1047
a(S'P'
p1048
g1048
S'NN'
p1049
S'B-NP'
p1050
g5
tp1051
a(S'<'
p1052
g1052
S'SYM'
p1053
g5
g5
tp1054
a(S'0.05'
p1055
S'0.05'
p1056
S'CD'
p1057
S'B-NP'
p1058
g5
tp1059
a(g183
g183
g183
g5
g5
tp1060
a(g85
g85
g85
g5
g5
tp1061
a(S'RESULTS'
p1062
S'RESULTS'
p1063
S'NNS'
p1064
S'B-NP'
p1065
g5
tp1066
a(S'In'
p1067
S'In'
p1068
S'FW'
p1069
S'B-ADVP'
p1070
g5
tp1071
a(S'vitro'
p1072
S'vitro'
p1073
S'FW'
p1074
S'I-ADVP'
p1075
g5
tp1076
a(g39
g39
g39
g5
g5
tp1077
a(S'the'
p1078
S'the'
p1079
S'DT'
p1080
S'B-NP'
p1081
g5
tp1082
a(S'cuff'
p1083
S'cuff'
p1084
S'NN'
p1085
S'I-NP'
p1086
g5
tp1087
a(S'pressure'
p1088
S'pressure'
p1089
S'NN'
p1090
S'I-NP'
p1091
g5
tp1092
a(S'exceeded'
p1093
S'exceed'
p1094
S'VBD'
p1095
S'B-VP'
p1096
g5
tp1097
a(S'50'
p1098
S'50'
p1099
S'CD'
p1100
S'B-NP'
p1101
g5
tp1102
a(S'cmH2O'
p1103
S'cmH2O'
p1104
S'NN'
p1105
S'I-NP'
p1106
g5
tp1107
a(S'after'
p1108
S'after'
p1109
S'IN'
p1110
S'B-PP'
p1111
g5
tp1112
a(S'60'
p1113
S'60'
p1114
S'CD'
p1115
S'B-NP'
p1116
g5
tp1117
a(S'min'
p1118
S'min'
p1119
S'NN'
p1120
S'I-NP'
p1121
g5
tp1122
a(S'without'
p1123
S'without'
p1124
S'IN'
p1125
S'B-PP'
p1126
g5
tp1127
a(S'CPRV'
p1128
S'CPRV'
p1129
S'NN'
p1130
S'B-NP'
p1131
S'B-protein'
p1132
tp1133
a(g185
g185
g185
g5
g5
tp1134
a(S'but'
p1135
S'but'
p1136
S'CC'
p1137
g5
g5
tp1138
a(S'did'
p1139
S'do'
p1140
S'VBD'
p1141
S'B-VP'
p1142
g5
tp1143
a(S'not'
p1144
S'not'
p1145
S'RB'
p1146
S'I-VP'
p1147
g5
tp1148
a(S'exceed'
p1149
S'exceed'
p1150
S'VB'
p1151
S'I-VP'
p1152
g5
tp1153
a(S'the'
p1154
S'the'
p1155
S'DT'
p1156
S'B-NP'
p1157
g5
tp1158
a(S'settings'
p1159
S'setting'
p1160
S'NNS'
p1161
S'I-NP'
p1162
g5
tp1163
a(S'with'
p1164
S'with'
p1165
S'IN'
p1166
S'B-PP'
p1167
g5
tp1168
a(S'CPRV.'
p1169
S'CPRV.'
p1170
S'FW'
p1171
S'B-NP'
p1172
g5
tp1173
a(S'In'
p1174
S'In'
p1175
S'FW'
p1176
S'I-NP'
p1177
g5
tp1178
a(S'vivo'
p1179
S'vivo'
p1180
S'FW'
p1181
S'I-NP'
p1182
g5
tp1183
a(g39
g39
g39
g5
g5
tp1184
a(S'there'
p1185
S'there'
p1186
S'EX'
p1187
S'B-NP'
p1188
g5
tp1189
a(S'was'
p1190
S'be'
p1191
S'VBD'
p1192
S'B-VP'
p1193
g5
tp1194
a(S'no'
p1195
S'no'
p1196
S'DT'
p1197
S'B-NP'
p1198
g5
tp1199
a(S'need'
p1200
S'need'
p1201
S'NN'
p1202
S'I-NP'
p1203
g5
tp1204
a(S'to'
p1205
S'to'
p1206
S'TO'
p1207
S'B-VP'
p1208
g5
tp1209
a(S'manually'
p1210
S'manually'
p1211
S'RB'
p1212
S'I-VP'
p1213
g5
tp1214
a(S'deflate'
p1215
S'deflate'
p1216
S'VB'
p1217
S'I-VP'
p1218
g5
tp1219
a(S'the'
p1220
S'the'
p1221
S'DT'
p1222
S'B-NP'
p1223
g5
tp1224
a(S'cuff'
p1225
S'cuff'
p1226
S'NN'
p1227
S'I-NP'
p1228
g5
tp1229
a(S'in'
p1230
S'in'
p1231
S'IN'
p1232
S'B-PP'
p1233
g5
tp1234
a(S'the'
p1235
S'the'
p1236
S'DT'
p1237
S'B-NP'
p1238
g5
tp1239
a(S'CPRV'
p1240
S'CPRV'
p1241
S'NN'
p1242
S'I-NP'
p1243
S'B-protein'
p1244
tp1245
a(S'group'
p1246
S'group'
p1247
S'NN'
p1248
S'I-NP'
p1249
S'I-protein'
p1250
tp1251
a(S'but'
p1252
S'but'
p1253
S'CC'
p1254
g5
g5
tp1255
a(g185
g185
g185
g5
g5
tp1256
a(S'in'
p1257
S'in'
p1258
S'IN'
p1259
S'B-PP'
p1260
g5
tp1261
a(S'every'
p1262
S'every'
p1263
S'DT'
p1264
S'B-NP'
p1265
g5
tp1266
a(S'patient'
p1267
S'patient'
p1268
S'NN'
p1269
S'I-NP'
p1270
g5
tp1271
a(S'in'
p1272
S'in'
p1273
S'IN'
p1274
S'B-PP'
p1275
g5
tp1276
a(S'the'
p1277
S'the'
p1278
S'DT'
p1279
S'B-NP'
p1280
g5
tp1281
a(S'control'
p1282
S'control'
p1283
S'NN'
p1284
S'I-NP'
p1285
g5
tp1286
a(S'group'
p1287
S'group'
p1288
S'NN'
p1289
S'I-NP'
p1290
g5
tp1291
a(g185
g185
g185
g5
g5
tp1292
a(S'three'
p1293
S'three'
p1294
S'CD'
p1295
S'B-NP'
p1296
g5
tp1297
a(g175
g175
g175
g5
g5
tp1298
a(S'two'
p1299
S'two'
p1300
S'CD'
p1301
S'B-NP'
p1302
g5
tp1303
a(S'to'
p1304
S'to'
p1305
S'TO'
p1306
g5
g5
tp1307
a(S'seven'
p1308
S'seven'
p1309
S'CD'
p1310
S'B-NP'
p1311
g5
tp1312
a(g183
g183
g183
g5
g5
tp1313
a(S'deflating'
p1314
S'deflate'
p1315
S'VBG'
p1316
S'B-NP'
p1317
g5
tp1318
a(S'manoeuvres'
p1319
S'manoeuvre'
p1320
S'NNS'
p1321
S'I-NP'
p1322
g5
tp1323
a(S'were'
p1324
S'be'
p1325
S'VBD'
p1326
S'B-VP'
p1327
g5
tp1328
a(S'required'
p1329
S'require'
p1330
S'VBN'
p1331
S'I-VP'
p1332
g5
tp1333
a(S'within'
p1334
S'within'
p1335
S'IN'
p1336
S'B-PP'
p1337
g5
tp1338
a(S'the'
p1339
S'the'
p1340
S'DT'
p1341
S'B-NP'
p1342
g5
tp1343
a(S'first'
p1344
S'first'
p1345
S'JJ'
p1346
S'I-NP'
p1347
g5
tp1348
a(S'hour'
p1349
S'hour'
p1350
S'NN'
p1351
S'I-NP'
p1352
g5
tp1353
a(S'of'
p1354
S'of'
p1355
S'IN'
p1356
S'B-PP'
p1357
g5
tp1358
a(S'anaesthesia'
p1359
S'anaesthesia'
p1360
S'NN'
p1361
S'B-NP'
p1362
g5
tp1363
a(g175
g175
g175
g5
g5
tp1364
a(g1048
g1048
S'NN'
p1365
S'B-NP'
p1366
g5
tp1367
a(g1052
g1052
S'SYM'
p1368
g5
g5
tp1369
a(S'0.0001'
p1370
S'0.0001'
p1371
S'CD'
p1372
S'B-NP'
p1373
g5
tp1374
a(g183
g183
g183
g5
g5
tp1375
a(g85
g85
g85
g5
g5
tp1376
a(S'CONCLUSION'
p1377
S'CONCLUSION'
p1378
S'NN'
p1379
S'B-NP'
p1380
g5
tp1381
a(S'The'
p1382
S'The'
p1383
S'DT'
p1384
S'B-NP'
p1385
g5
tp1386
a(S'CPRV'
p1387
S'CPRV'
p1388
S'NN'
p1389
S'I-NP'
p1390
S'B-protein'
p1391
tp1392
a(S'allows'
p1393
S'allow'
p1394
S'VBZ'
p1395
S'B-VP'
p1396
g5
tp1397
a(S'reliable'
p1398
S'reliable'
p1399
S'JJ'
p1400
S'B-NP'
p1401
g5
tp1402
a(S'cuff'
p1403
S'cuff'
p1404
S'NN'
p1405
S'I-NP'
p1406
g5
tp1407
a(S'pressure'
p1408
S'pressure'
p1409
S'NN'
p1410
S'I-NP'
p1411
g5
tp1412
a(S'release'
p1413
S'release'
p1414
S'NN'
p1415
S'I-NP'
p1416
g5
tp1417
a(S'at'
p1418
S'at'
p1419
S'IN'
p1420
S'B-PP'
p1421
g5
tp1422
a(S'various'
p1423
S'various'
p1424
S'JJ'
p1425
S'B-NP'
p1426
g5
tp1427
a(S'pressure'
p1428
S'pressure'
p1429
S'NN'
p1430
S'I-NP'
p1431
g5
tp1432
a(S'levels'
p1433
S'level'
p1434
S'NNS'
p1435
S'I-NP'
p1436
g5
tp1437
a(S'and'
p1438
S'and'
p1439
S'CC'
p1440
g5
g5
tp1441
a(S'reliably'
p1442
S'reliably'
p1443
S'RB'
p1444
S'B-VP'
p1445
g5
tp1446
a(S'prevents'
p1447
S'prevent'
p1448
S'VBZ'
p1449
S'I-VP'
p1450
g5
tp1451
a(S'cuff'
p1452
S'cuff'
p1453
S'NN'
p1454
S'B-NP'
p1455
g5
tp1456
a(S'pressure'
p1457
S'pressure'
p1458
S'NN'
p1459
S'I-NP'
p1460
g5
tp1461
a(S'increases'
p1462
S'increase'
p1463
S'NNS'
p1464
S'I-NP'
p1465
g5
tp1466
a(S'caused'
p1467
S'cause'
p1468
S'VBN'
p1469
S'B-VP'
p1470
g5
tp1471
a(S'by'
p1472
S'by'
p1473
S'IN'
p1474
S'B-PP'
p1475
g5
tp1476
a(S'N2O'
p1477
S'N2O'
p1478
S'NN'
p1479
S'B-NP'
p1480
S'B-protein'
p1481
tp1482
a(g85
g85
g85
g5
g5
tp1483
a.