(lp0
(S'Quality'
p1
S'Quality'
p2
S'NN'
p3
S'B-NP'
p4
S'O'
p5
tp6
a(S'assurance'
p7
S'assurance'
p8
S'NN'
p9
S'I-NP'
p10
g5
tp11
a(S'in'
p12
S'in'
p13
S'IN'
p14
S'B-PP'
p15
g5
tp16
a(S'the'
p17
S'the'
p18
S'DT'
p19
S'B-NP'
p20
g5
tp21
a(S'EORTC'
p22
S'EORTC'
p23
S'NN'
p24
S'I-NP'
p25
g5
tp26
a(S'22921'
p27
S'22921'
p28
S'CD'
p29
S'I-NP'
p30
g5
tp31
a(S'trial'
p32
S'trial'
p33
S'NN'
p34
S'I-NP'
p35
g5
tp36
a(S'on'
p37
S'on'
p38
S'IN'
p39
S'B-PP'
p40
g5
tp41
a(S'preoperative'
p42
S'preoperative'
p43
S'JJ'
p44
S'B-NP'
p45
g5
tp46
a(S'radiotherapy'
p47
S'radiotherapy'
p48
S'NN'
p49
S'I-NP'
p50
g5
tp51
a(S'with'
p52
S'with'
p53
S'IN'
p54
S'B-PP'
p55
g5
tp56
a(S'or'
p57
S'or'
p58
S'CC'
p59
S'B-PP'
p60
g5
tp61
a(S'without'
p62
S'without'
p63
S'IN'
p64
S'B-PP'
p65
g5
tp66
a(S'chemotherapy'
p67
S'chemotherapy'
p68
S'NN'
p69
S'B-NP'
p70
g5
tp71
a(S'for'
p72
S'for'
p73
S'IN'
p74
S'B-PP'
p75
g5
tp76
a(S'resectable'
p77
S'resectable'
p78
S'JJ'
p79
S'B-NP'
p80
g5
tp81
a(S'rectal'
p82
S'rectal'
p83
S'JJ'
p84
S'I-NP'
p85
g5
tp86
a(S'cancer'
p87
S'cancer'
p88
S'NN'
p89
S'I-NP'
p90
g5
tp91
a(S':'
p92
g92
g92
g5
g5
tp93
a(S'evaluation'
p94
S'evaluation'
p95
S'NN'
p96
S'B-NP'
p97
g5
tp98
a(S'of'
p99
S'of'
p100
S'IN'
p101
S'B-PP'
p102
g5
tp103
a(S'the'
p104
S'the'
p105
S'DT'
p106
S'B-NP'
p107
g5
tp108
a(S'individual'
p109
S'individual'
p110
S'JJ'
p111
S'I-NP'
p112
g5
tp113
a(S'case'
p114
S'case'
p115
S'NN'
p116
S'I-NP'
p117
g5
tp118
a(S'review'
p119
S'review'
p120
S'NN'
p121
S'I-NP'
p122
g5
tp123
a(S'procedure'
p124
S'procedure'
p125
S'NN'
p126
S'I-NP'
p127
g5
tp128
a(S'.'
p129
g129
g129
g5
g5
tp130
a(S'The'
p131
S'The'
p132
S'DT'
p133
S'B-NP'
p134
g5
tp135
a(S'aim'
p136
S'aim'
p137
S'NN'
p138
S'I-NP'
p139
g5
tp140
a(S'of'
p141
S'of'
p142
S'IN'
p143
S'B-PP'
p144
g5
tp145
a(S'this'
p146
S'this'
p147
S'DT'
p148
S'B-NP'
p149
g5
tp150
a(S'study'
p151
S'study'
p152
S'NN'
p153
S'I-NP'
p154
g5
tp155
a(S'was'
p156
S'be'
p157
S'VBD'
p158
S'B-VP'
p159
g5
tp160
a(S'to'
p161
S'to'
p162
S'TO'
p163
S'I-VP'
p164
g5
tp165
a(S'assess'
p166
S'assess'
p167
S'VB'
p168
S'I-VP'
p169
g5
tp170
a(S'any'
p171
S'any'
p172
S'DT'
p173
S'B-NP'
p174
g5
tp175
a(S'inconsistency'
p176
S'inconsistency'
p177
S'NN'
p178
S'I-NP'
p179
g5
tp180
a(S'with'
p181
S'with'
p182
S'IN'
p183
S'B-PP'
p184
g5
tp185
a(S'the'
p186
S'the'
p187
S'DT'
p188
S'B-NP'
p189
g5
tp190
a(S'protocol'
p191
S'protocol'
p192
S'NN'
p193
S'I-NP'
p194
g5
tp195
a(S'guidelines'
p196
S'guideline'
p197
S'NNS'
p198
S'I-NP'
p199
g5
tp200
a(S'for'
p201
S'for'
p202
S'IN'
p203
S'B-PP'
p204
g5
tp205
a(S'preoperative'
p206
S'preoperative'
p207
S'JJ'
p208
S'B-NP'
p209
g5
tp210
a(S'radiotherapy'
p211
S'radiotherapy'
p212
S'NN'
p213
S'I-NP'
p214
g5
tp215
a(S'for'
p216
S'for'
p217
S'IN'
p218
S'B-PP'
p219
g5
tp220
a(S'rectal'
p221
S'rectal'
p222
S'JJ'
p223
S'B-NP'
p224
g5
tp225
a(S'cancer'
p226
S'cancer'
p227
S'NN'
p228
S'I-NP'
p229
g5
tp230
a(S'among'
p231
S'among'
p232
S'IN'
p233
S'B-PP'
p234
g5
tp235
a(S'radiotherapy'
p236
S'radiotherapy'
p237
S'NN'
p238
S'B-NP'
p239
g5
tp240
a(S'institutions'
p241
S'institution'
p242
S'NNS'
p243
S'I-NP'
p244
g5
tp245
a(S'participating'
p246
S'participate'
p247
S'VBG'
p248
S'B-VP'
p249
g5
tp250
a(S'in'
p251
S'in'
p252
S'IN'
p253
S'B-PP'
p254
g5
tp255
a(S'the'
p256
S'the'
p257
S'DT'
p258
S'B-NP'
p259
g5
tp260
a(S'framework'
p261
S'framework'
p262
S'NN'
p263
S'I-NP'
p264
g5
tp265
a(S'of'
p266
S'of'
p267
S'IN'
p268
S'B-PP'
p269
g5
tp270
a(S'a'
p271
g271
S'DT'
p272
S'B-NP'
p273
g5
tp274
a(S'multicentre'
p275
S'multicentre'
p276
S'JJ'
p277
S'I-NP'
p278
g5
tp279
a(S'phase-III'
p280
S'phase-III'
p281
S'NN'
p282
S'I-NP'
p283
g5
tp284
a(S'European'
p285
S'European'
p286
S'NNP'
p287
S'I-NP'
p288
g5
tp289
a(S'Organization'
p290
S'Organization'
p291
S'NNP'
p292
S'I-NP'
p293
g5
tp294
a(S'for'
p295
S'for'
p296
S'IN'
p297
S'B-PP'
p298
g5
tp299
a(S'Research'
p300
S'Research'
p301
S'NNP'
p302
S'B-NP'
p303
g5
tp304
a(S'and'
p305
S'and'
p306
S'CC'
p307
g5
g5
tp308
a(S'Treatment'
p309
S'Treatment'
p310
S'NN'
p311
S'B-NP'
p312
g5
tp313
a(S'of'
p314
S'of'
p315
S'IN'
p316
S'B-PP'
p317
g5
tp318
a(S'Cancer'
p319
S'Cancer'
p320
S'NN'
p321
S'B-NP'
p322
g5
tp323
a(S'('
p324
g324
g324
g5
g5
tp325
a(S'EORTC'
p326
S'EORTC'
p327
S'NN'
p328
S'B-NP'
p329
g5
tp330
a(S')'
p331
g331
g331
g5
g5
tp332
a(S'clinical'
p333
S'clinical'
p334
S'JJ'
p335
S'B-NP'
p336
g5
tp337
a(S'trial.'
p338
S'trial.'
p339
S'NN'
p340
S'I-NP'
p341
g5
tp342
a(S'Twelve'
p343
S'Twelve'
p344
S'CD'
p345
S'I-NP'
p346
g5
tp347
a(S'radiotherapy'
p348
S'radiotherapy'
p349
S'NN'
p350
S'I-NP'
p351
g5
tp352
a(S'departments'
p353
S'department'
p354
S'NNS'
p355
S'I-NP'
p356
g5
tp357
a(S'with'
p358
S'with'
p359
S'IN'
p360
S'B-PP'
p361
g5
tp362
a(S'more'
p363
S'more'
p364
S'JJR'
p365
S'B-NP'
p366
g5
tp367
a(S'than'
p368
S'than'
p369
S'IN'
p370
S'I-NP'
p371
g5
tp372
a(S'10'
p373
S'10'
p374
S'CD'
p375
S'I-NP'
p376
g5
tp377
a(S'%'
p378
g378
S'NN'
p379
S'I-NP'
p380
g5
tp381
a(S'of'
p382
S'of'
p383
S'IN'
p384
S'B-PP'
p385
g5
tp386
a(S'the'
p387
S'the'
p388
S'DT'
p389
S'B-NP'
p390
g5
tp391
a(S'evaluable'
p392
S'evaluable'
p393
S'JJ'
p394
S'I-NP'
p395
g5
tp396
a(S'patients'
p397
S'patient'
p398
S'NNS'
p399
S'I-NP'
p400
g5
tp401
a(S'recruited'
p402
S'recruit'
p403
S'VBN'
p404
S'B-VP'
p405
g5
tp406
a(S'in'
p407
S'in'
p408
S'IN'
p409
S'B-PP'
p410
g5
tp411
a(S'the'
p412
S'the'
p413
S'DT'
p414
S'B-NP'
p415
g5
tp416
a(S'trial'
p417
S'trial'
p418
S'NN'
p419
S'I-NP'
p420
g5
tp421
a(S','
p422
g422
g422
g5
g5
tp423
a(S'were'
p424
S'be'
p425
S'VBD'
p426
S'B-VP'
p427
g5
tp428
a(S'invited'
p429
S'invite'
p430
S'VBN'
p431
S'I-VP'
p432
g5
tp433
a(S'to'
p434
S'to'
p435
S'TO'
p436
S'B-VP'
p437
g5
tp438
a(S'participate'
p439
S'participate'
p440
S'VB'
p441
S'I-VP'
p442
g5
tp443
a(S'in'
p444
S'in'
p445
S'IN'
p446
S'B-PP'
p447
g5
tp448
a(S'this'
p449
S'this'
p450
S'DT'
p451
S'B-NP'
p452
g5
tp453
a(S'individual'
p454
S'individual'
p455
S'JJ'
p456
S'I-NP'
p457
g5
tp458
a(S'case'
p459
S'case'
p460
S'NN'
p461
S'I-NP'
p462
g5
tp463
a(S'review.'
p464
S'review.'
p465
S'NN'
p466
S'I-NP'
p467
g5
tp468
a(S'Participating'
p469
S'Participate'
p470
S'VBG'
p471
S'B-VP'
p472
g5
tp473
a(S'institutions'
p474
S'institution'
p475
S'NNS'
p476
S'B-NP'
p477
g5
tp478
a(S'were'
p479
S'be'
p480
S'VBD'
p481
S'B-VP'
p482
g5
tp483
a(S'asked'
p484
S'ask'
p485
S'VBN'
p486
S'I-VP'
p487
g5
tp488
a(S'to'
p489
S'to'
p490
S'TO'
p491
S'B-VP'
p492
g5
tp493
a(S'send'
p494
S'send'
p495
S'VB'
p496
S'I-VP'
p497
g5
tp498
a(S'five'
p499
S'five'
p500
S'CD'
p501
S'B-NP'
p502
g5
tp503
a(S'full'
p504
S'full'
p505
S'JJ'
p506
S'I-NP'
p507
g5
tp508
a(S'patient'
p509
S'patient'
p510
S'NN'
p511
S'I-NP'
p512
g5
tp513
a(S'records'
p514
S'record'
p515
S'NNS'
p516
S'I-NP'
p517
g5
tp518
a(S'with'
p519
S'with'
p520
S'IN'
p521
S'B-PP'
p522
g5
tp523
a(S'the'
p524
S'the'
p525
S'DT'
p526
S'B-NP'
p527
g5
tp528
a(S'chemotherapy'
p529
S'chemotherapy'
p530
S'NN'
p531
S'I-NP'
p532
g5
tp533
a(S'charts'
p534
S'chart'
p535
S'NNS'
p536
S'I-NP'
p537
g5
tp538
a(g422
g422
g422
g5
g5
tp539
a(S'surgical'
p540
S'surgical'
p541
S'JJ'
p542
S'B-NP'
p543
g5
tp544
a(S'and'
p545
S'and'
p546
S'CC'
p547
S'I-NP'
p548
g5
tp549
a(S'pathology'
p550
S'pathology'
p551
S'NN'
p552
S'I-NP'
p553
g5
tp554
a(S'reports'
p555
S'report'
p556
S'NNS'
p557
S'I-NP'
p558
g5
tp559
a(g422
g422
g422
g5
g5
tp560
a(S'radiation'
p561
S'radiation'
p562
S'NN'
p563
S'B-NP'
p564
g5
tp565
a(S'treatment'
p566
S'treatment'
p567
S'NN'
p568
S'I-NP'
p569
g5
tp570
a(S'charts'
p571
S'chart'
p572
S'NNS'
p573
S'I-NP'
p574
g5
tp575
a(g422
g422
g422
g5
g5
tp576
a(S'treatment'
p577
S'treatment'
p578
S'NN'
p579
S'B-NP'
p580
g5
tp581
a(S'planning'
p582
S'planning'
p583
S'NN'
p584
S'I-NP'
p585
g5
tp586
a(S'calculations'
p587
S'calculation'
p588
S'NNS'
p589
S'I-NP'
p590
g5
tp591
a(g422
g422
g422
g5
g5
tp592
a(S'computed'
p593
S'compute'
p594
S'VBN'
p595
S'B-NP'
p596
g5
tp597
a(S'tomography'
p598
S'tomography'
p599
S'NN'
p600
S'I-NP'
p601
g5
tp602
a(g324
g324
g324
g5
g5
tp603
a(S'CT'
p604
S'CT'
p605
S'NN'
p606
S'B-NP'
p607
g5
tp608
a(g331
g331
g331
g5
g5
tp609
a(S'scans'
p610
S'scan'
p611
S'NNS'
p612
S'B-NP'
p613
g5
tp614
a(g422
g422
g422
g5
g5
tp615
a(S'portal'
p616
S'portal'
p617
S'JJ'
p618
S'B-NP'
p619
g5
tp620
a(S'images'
p621
S'image'
p622
S'NNS'
p623
S'I-NP'
p624
g5
tp625
a(S'and'
p626
S'and'
p627
S'CC'
p628
g5
g5
tp629
a(S'follow-up'
p630
S'follow-up'
p631
S'JJ'
p632
S'B-NP'
p633
g5
tp634
a(S'charts.'
p635
S'charts.'
p636
S'NN'
p637
S'I-NP'
p638
g5
tp639
a(S'The'
p640
S'The'
p641
S'DT'
p642
S'B-NP'
p643
g5
tp644
a(S'sample'
p645
S'sample'
p646
S'NN'
p647
S'I-NP'
p648
g5
tp649
a(S'of'
p650
S'of'
p651
S'IN'
p652
S'B-PP'
p653
g5
tp654
a(S'the'
p655
S'the'
p656
S'DT'
p657
S'B-NP'
p658
g5
tp659
a(S'5'
p660
g660
S'CD'
p661
S'I-NP'
p662
g5
tp663
a(S'patients'
p664
S'patient'
p665
S'NNS'
p666
S'I-NP'
p667
g5
tp668
a(S'per'
p669
S'per'
p670
S'IN'
p671
S'B-PP'
p672
g5
tp673
a(S'institution'
p674
S'institution'
p675
S'NN'
p676
S'B-NP'
p677
g5
tp678
a(S'was'
p679
S'be'
p680
S'VBD'
p681
S'B-VP'
p682
g5
tp683
a(S'randomly'
p684
S'randomly'
p685
S'RB'
p686
S'I-VP'
p687
g5
tp688
a(S'selected'
p689
S'select'
p690
S'VBN'
p691
S'I-VP'
p692
g5
tp693
a(S'at'
p694
S'at'
p695
S'IN'
p696
S'B-PP'
p697
g5
tp698
a(S'the'
p699
S'the'
p700
S'DT'
p701
S'B-NP'
p702
g5
tp703
a(S'EORTC'
p704
S'EORTC'
p705
S'NNP'
p706
S'I-NP'
p707
g5
tp708
a(S'Data'
p709
S'Data'
p710
S'NNP'
p711
S'I-NP'
p712
g5
tp713
a(S'Center.'
p714
S'Center.'
p715
S'NNP'
p716
S'I-NP'
p717
g5
tp718
a(S'All'
p719
S'All'
p720
S'NNP'
p721
S'I-NP'
p722
g5
tp723
a(S'12'
p724
S'12'
p725
S'CD'
p726
S'I-NP'
p727
g5
tp728
a(S'departments'
p729
S'department'
p730
S'NNS'
p731
S'I-NP'
p732
g5
tp733
a(S'participated.'
p734
S'participated.'
p735
S'RB'
p736
S'B-ADVP'
p737
g5
tp738
a(S'In'
p739
S'In'
p740
S'IN'
p741
S'B-PP'
p742
g5
tp743
a(S'21'
p744
S'21'
p745
S'CD'
p746
S'B-NP'
p747
g5
tp748
a(g324
g324
g324
g5
g5
tp749
a(S'35'
p750
S'35'
p751
S'CD'
p752
S'B-NP'
p753
g5
tp754
a(g378
g378
S'NN'
p755
S'I-NP'
p756
g5
tp757
a(g331
g331
g331
g5
g5
tp758
a(S'of'
p759
S'of'
p760
S'IN'
p761
S'B-PP'
p762
g5
tp763
a(S'the'
p764
S'the'
p765
S'DT'
p766
S'B-NP'
p767
g5
tp768
a(S'cases'
p769
S'case'
p770
S'NNS'
p771
S'I-NP'
p772
g5
tp773
a(g422
g422
g422
g5
g5
tp774
a(g271
g271
S'DT'
p775
S'B-NP'
p776
g5
tp777
a(S'three-field'
p778
S'three-field'
p779
S'JJ'
p780
S'I-NP'
p781
g5
tp782
a(S'technique'
p783
S'technique'
p784
S'NN'
p785
S'I-NP'
p786
g5
tp787
a(S'with'
p788
S'with'
p789
S'IN'
p790
S'B-PP'
p791
g5
tp792
a(S'two'
p793
S'two'
p794
S'CD'
p795
S'B-NP'
p796
g5
tp797
a(S'lateral'
p798
S'lateral'
p799
S'JJ'
p800
S'I-NP'
p801
g5
tp802
a(S'opposed'
p803
S'oppose'
p804
S'VBN'
p805
S'I-NP'
p806
g5
tp807
a(S'wedge'
p808
S'wedge'
p809
S'NN'
p810
S'I-NP'
p811
g5
tp812
a(S'fields'
p813
S'field'
p814
S'NNS'
p815
S'I-NP'
p816
g5
tp817
a(S'and'
p818
S'and'
p819
S'CC'
p820
g5
g5
tp821
a(g271
g271
S'DT'
p822
S'B-NP'
p823
g5
tp824
a(S'posterior'
p825
S'posterior'
p826
S'JJ'
p827
S'I-NP'
p828
g5
tp829
a(S'field'
p830
S'field'
p831
S'NN'
p832
S'I-NP'
p833
g5
tp834
a(S'was'
p835
S'be'
p836
S'VBD'
p837
S'B-VP'
p838
g5
tp839
a(S'used'
p840
S'use'
p841
S'VBN'
p842
S'I-VP'
p843
g5
tp844
a(g422
g422
g422
g5
g5
tp845
a(S'while'
p846
S'while'
p847
S'IN'
p848
S'B-SBAR'
p849
g5
tp850
a(S'in'
p851
S'in'
p852
S'IN'
p853
S'B-PP'
p854
g5
tp855
a(S'39'
p856
S'39'
p857
S'CD'
p858
S'B-NP'
p859
g5
tp860
a(g324
g324
g324
g5
g5
tp861
a(S'65'
p862
S'65'
p863
S'CD'
p864
S'B-NP'
p865
g5
tp866
a(g378
g378
S'NN'
p867
S'I-NP'
p868
g5
tp869
a(g331
g331
g331
g5
g5
tp870
a(S'of'
p871
S'of'
p872
S'IN'
p873
S'B-PP'
p874
g5
tp875
a(S'the'
p876
S'the'
p877
S'DT'
p878
S'B-NP'
p879
g5
tp880
a(S'cases'
p881
S'case'
p882
S'NNS'
p883
S'I-NP'
p884
g5
tp885
a(g271
g271
S'DT'
p886
S'B-NP'
p887
g5
tp888
a(S'four-field'
p889
S'four-field'
p890
S'JJ'
p891
S'I-NP'
p892
g5
tp893
a(S'pelvic'
p894
S'pelvic'
p895
S'JJ'
p896
S'I-NP'
p897
g5
tp898
a(S'box'
p899
S'box'
p900
S'NN'
p901
S'I-NP'
p902
g5
tp903
a(S'technique'
p904
S'technique'
p905
S'NN'
p906
S'I-NP'
p907
g5
tp908
a(S'was'
p909
S'be'
p910
S'VBD'
p911
S'B-VP'
p912
g5
tp913
a(S'used.'
p914
S'used.'
p915
S'VBN'
p916
S'I-VP'
p917
g5
tp918
a(S'All'
p919
S'All'
p920
S'DT'
p921
S'B-NP'
p922
g5
tp923
a(S'participants'
p924
S'participant'
p925
S'NNS'
p926
S'I-NP'
p927
g5
tp928
a(S'used'
p929
S'use'
p930
S'VBD'
p931
S'B-VP'
p932
g5
tp933
a(S'linear'
p934
S'linear'
p935
S'JJ'
p936
S'B-NP'
p937
g5
tp938
a(S'accelerators'
p939
S'accelerator'
p940
S'NNS'
p941
S'I-NP'
p942
g5
tp943
a(S'with'
p944
S'with'
p945
S'IN'
p946
S'B-PP'
p947
g5
tp948
a(g271
g271
S'DT'
p949
S'B-NP'
p950
g5
tp951
a(S'minimum'
p952
S'minimum'
p953
S'NN'
p954
S'I-NP'
p955
g5
tp956
a(S'of'
p957
S'of'
p958
S'IN'
p959
S'B-PP'
p960
g5
tp961
a(S'6'
p962
g962
S'CD'
p963
S'B-NP'
p964
g5
tp965
a(S'MeV'
p966
S'MeV'
p967
S'NN'
p968
S'I-NP'
p969
g5
tp970
a(S'photon-beam'
p971
S'photon-beam'
p972
S'NN'
p973
S'I-NP'
p974
g5
tp975
a(S'energy.'
p976
S'energy.'
p977
S'NN'
p978
S'I-NP'
p979
g5
tp980
a(S'In'
p981
S'In'
p982
S'IN'
p983
S'B-PP'
p984
g5
tp985
a(S'general'
p986
S'general'
p987
S'JJ'
p988
S'B-ADJP'
p989
g5
tp990
a(g422
g422
g422
g5
g5
tp991
a(S'the'
p992
S'the'
p993
S'DT'
p994
S'B-NP'
p995
g5
tp996
a(S'patients'
p997
S'patient'
p998
S'NNS'
p999
S'I-NP'
p1000
g5
tp1001
a(S'were'
p1002
S'be'
p1003
S'VBD'
p1004
S'B-VP'
p1005
g5
tp1006
a(S'eligible'
p1007
S'eligible'
p1008
S'JJ'
p1009
S'B-ADJP'
p1010
g5
tp1011
a(g422
g422
g422
g5
g5
tp1012
a(S'documentation'
p1013
S'documentation'
p1014
S'NN'
p1015
S'B-NP'
p1016
g5
tp1017
a(S'of'
p1018
S'of'
p1019
S'IN'
p1020
S'B-PP'
p1021
g5
tp1022
a(S'clinical'
p1023
S'clinical'
p1024
S'JJ'
p1025
S'B-NP'
p1026
g5
tp1027
a(S'data'
p1028
S'datum'
p1029
S'NNS'
p1030
S'I-NP'
p1031
g5
tp1032
a(S'was'
p1033
S'be'
p1034
S'VBD'
p1035
S'B-VP'
p1036
g5
tp1037
a(S'fair'
p1038
S'fair'
p1039
S'JJ'
p1040
S'B-ADJP'
p1041
g5
tp1042
a(S'to'
p1043
S'to'
p1044
S'TO'
p1045
S'B-PP'
p1046
g5
tp1047
a(S'good'
p1048
S'good'
p1049
S'JJ'
p1050
S'B-ADJP'
p1051
g5
tp1052
a(S'and'
p1053
S'and'
p1054
S'CC'
p1055
g5
g5
tp1056
a(S'there'
p1057
S'there'
p1058
S'EX'
p1059
S'B-NP'
p1060
g5
tp1061
a(S'were'
p1062
S'be'
p1063
S'VBD'
p1064
S'B-VP'
p1065
g5
tp1066
a(S'no'
p1067
S'no'
p1068
S'DT'
p1069
S'B-NP'
p1070
g5
tp1071
a(S'systematic'
p1072
S'systematic'
p1073
S'JJ'
p1074
S'I-NP'
p1075
g5
tp1076
a(S'major'
p1077
S'major'
p1078
S'JJ'
p1079
S'I-NP'
p1080
g5
tp1081
a(S'protocol'
p1082
S'protocol'
p1083
S'NN'
p1084
S'I-NP'
p1085
g5
tp1086
a(S'deviations.'
p1087
S'deviations.'
p1088
S'NN'
p1089
S'I-NP'
p1090
g5
tp1091
a(S'The'
p1092
S'The'
p1093
S'DT'
p1094
S'B-NP'
p1095
g5
tp1096
a(S'actual'
p1097
S'actual'
p1098
S'JJ'
p1099
S'I-NP'
p1100
g5
tp1101
a(S'total'
p1102
S'total'
p1103
S'JJ'
p1104
S'I-NP'
p1105
g5
tp1106
a(S'dose'
p1107
S'dose'
p1108
S'NN'
p1109
S'I-NP'
p1110
g5
tp1111
a(S'was'
p1112
S'be'
p1113
S'VBD'
p1114
S'B-VP'
p1115
g5
tp1116
a(S'44.7+/-a'
p1117
S'44.7+/-a'
p1118
S'JJ'
p1119
S'B-NP'
p1120
g5
tp1121
a(S'standard'
p1122
S'standard'
p1123
S'JJ'
p1124
S'I-NP'
p1125
g5
tp1126
a(S'deviation'
p1127
S'deviation'
p1128
S'NN'
p1129
S'I-NP'
p1130
g5
tp1131
a(g324
g324
g324
g5
g5
tp1132
a(S'S.D.'
p1133
S'S.D.'
p1134
S'NN'
p1135
S'B-NP'
p1136
g5
tp1137
a(g331
g331
g331
g5
g5
tp1138
a(S'of'
p1139
S'of'
p1140
S'IN'
p1141
S'B-PP'
p1142
g5
tp1143
a(S'4.6'
p1144
S'4.6'
p1145
S'CD'
p1146
S'B-NP'
p1147
g5
tp1148
a(S'Gy.'
p1149
S'Gy.'
p1150
S'NN'
p1151
S'I-NP'
p1152
g5
tp1153
a(S'Some'
p1154
S'Some'
p1155
S'DT'
p1156
S'B-NP'
p1157
g5
tp1158
a(S'variation'
p1159
S'variation'
p1160
S'NN'
p1161
S'I-NP'
p1162
g5
tp1163
a(S'was'
p1164
S'be'
p1165
S'VBD'
p1166
S'B-VP'
p1167
g5
tp1168
a(S'found'
p1169
S'find'
p1170
S'VBN'
p1171
S'I-VP'
p1172
g5
tp1173
a(S'in'
p1174
S'in'
p1175
S'IN'
p1176
S'B-PP'
p1177
g5
tp1178
a(S'the'
p1179
S'the'
p1180
S'DT'
p1181
S'B-NP'
p1182
g5
tp1183
a(S'fraction'
p1184
S'fraction'
p1185
S'NN'
p1186
S'I-NP'
p1187
g5
tp1188
a(S'size.'
p1189
S'size.'
p1190
S'NN'
p1191
S'I-NP'
p1192
g5
tp1193
a(S'All'
p1194
S'All'
p1195
S'DT'
p1196
S'B-NP'
p1197
g5
tp1198
a(S'institutions'
p1199
S'institution'
p1200
S'NNS'
p1201
S'I-NP'
p1202
g5
tp1203
a(S'complied'
p1204
S'comply'
p1205
S'VBN'
p1206
S'B-VP'
p1207
g5
tp1208
a(S'with'
p1209
S'with'
p1210
S'IN'
p1211
S'B-PP'
p1212
g5
tp1213
a(S'the'
p1214
S'the'
p1215
S'DT'
p1216
S'B-NP'
p1217
g5
tp1218
a(S'protocol'
p1219
S'protocol'
p1220
S'NN'
p1221
S'I-NP'
p1222
g5
tp1223
a(S'in'
p1224
S'in'
p1225
S'IN'
p1226
S'B-PP'
p1227
g5
tp1228
a(S'specifying'
p1229
S'specify'
p1230
S'VBG'
p1231
S'B-VP'
p1232
g5
tp1233
a(S'the'
p1234
S'the'
p1235
S'DT'
p1236
S'B-NP'
p1237
g5
tp1238
a(S'reference'
p1239
S'reference'
p1240
S'NN'
p1241
S'I-NP'
p1242
g5
tp1243
a(S'dose'
p1244
S'dose'
p1245
S'NN'
p1246
S'I-NP'
p1247
g5
tp1248
a(S'at'
p1249
S'at'
p1250
S'IN'
p1251
S'B-PP'
p1252
g5
tp1253
a(S'the'
p1254
S'the'
p1255
S'DT'
p1256
S'B-NP'
p1257
g5
tp1258
a(S'ICRU'
p1259
S'ICRU'
p1260
S'NN'
p1261
S'I-NP'
p1262
g5
tp1263
a(S'point.'
p1264
S'point.'
p1265
S'NN'
p1266
S'I-NP'
p1267
g5
tp1268
a(S'The'
p1269
S'The'
p1270
S'DT'
p1271
S'B-NP'
p1272
g5
tp1273
a(S'clinical'
p1274
S'clinical'
p1275
S'JJ'
p1276
S'I-NP'
p1277
g5
tp1278
a(S'target'
p1279
S'target'
p1280
S'NN'
p1281
S'I-NP'
p1282
g5
tp1283
a(S'volume'
p1284
S'volume'
p1285
S'NN'
p1286
S'I-NP'
p1287
g5
tp1288
a(g324
g324
g324
g5
g5
tp1289
a(S'CTV'
p1290
S'CTV'
p1291
S'NN'
p1292
S'B-NP'
p1293
g5
tp1294
a(g331
g331
g331
g5
g5
tp1295
a(S'drawn'
p1296
S'draw'
p1297
S'VBN'
p1298
S'B-VP'
p1299
g5
tp1300
a(S'on'
p1301
S'on'
p1302
S'IN'
p1303
S'B-PP'
p1304
g5
tp1305
a(S'the'
p1306
S'the'
p1307
S'DT'
p1308
S'B-NP'
p1309
g5
tp1310
a(S'CT'
p1311
S'CT'
p1312
S'NN'
p1313
S'I-NP'
p1314
g5
tp1315
a(S'scan'
p1316
S'scan'
p1317
S'NN'
p1318
S'I-NP'
p1319
g5
tp1320
a(S'was'
p1321
S'be'
p1322
S'VBD'
p1323
S'B-VP'
p1324
g5
tp1325
a(S'narrow'
p1326
S'narrow'
p1327
S'JJ'
p1328
S'B-ADJP'
p1329
g5
tp1330
a(S'in'
p1331
S'in'
p1332
S'IN'
p1333
S'B-PP'
p1334
g5
tp1335
a(S'7'
p1336
g1336
S'CD'
p1337
S'B-NP'
p1338
g5
tp1339
a(g324
g324
g324
g5
g5
tp1340
a(S'12'
p1341
S'12'
p1342
S'CD'
p1343
S'B-NP'
p1344
g5
tp1345
a(g378
g378
S'NN'
p1346
S'I-NP'
p1347
g5
tp1348
a(g331
g331
g331
g5
g5
tp1349
a(S'cases'
p1350
S'case'
p1351
S'NNS'
p1352
S'B-NP'
p1353
g5
tp1354
a(g422
g422
g422
g5
g5
tp1355
a(S'but'
p1356
S'but'
p1357
S'CC'
p1358
g5
g5
tp1359
a(S'eventually'
p1360
S'eventually'
p1361
S'RB'
p1362
S'B-ADVP'
p1363
g5
tp1364
a(S'the'
p1365
S'the'
p1366
S'DT'
p1367
S'B-NP'
p1368
g5
tp1369
a(S'actually'
p1370
S'actually'
p1371
S'RB'
p1372
S'I-NP'
p1373
g5
tp1374
a(S'treated'
p1375
S'treat'
p1376
S'VBN'
p1377
S'I-NP'
p1378
g5
tp1379
a(S'volumes'
p1380
S'volume'
p1381
S'NNS'
p1382
S'I-NP'
p1383
g5
tp1384
a(S'in'
p1385
S'in'
p1386
S'IN'
p1387
S'B-PP'
p1388
g5
tp1389
a(S'terms'
p1390
S'term'
p1391
S'NNS'
p1392
S'B-NP'
p1393
g5
tp1394
a(S'of'
p1395
S'of'
p1396
S'IN'
p1397
S'B-PP'
p1398
g5
tp1399
a(S'planned'
p1400
S'plan'
p1401
S'VBN'
p1402
S'B-NP'
p1403
g5
tp1404
a(S'treatment'
p1405
S'treatment'
p1406
S'NN'
p1407
S'I-NP'
p1408
g5
tp1409
a(S'volume'
p1410
S'volume'
p1411
S'NN'
p1412
S'I-NP'
p1413
g5
tp1414
a(g324
g324
g324
g5
g5
tp1415
a(S'PTV'
p1416
S'PTV'
p1417
S'NN'
p1418
S'B-NP'
p1419
g5
tp1420
a(g331
g331
g331
g5
g5
tp1421
a(S'were'
p1422
S'be'
p1423
S'VBD'
p1424
S'B-VP'
p1425
g5
tp1426
a(S'correct.'
p1427
S'correct.'
p1428
S'JJ'
p1429
S'B-ADJP'
p1430
g5
tp1431
a(S'In'
p1432
S'In'
p1433
S'IN'
p1434
S'B-PP'
p1435
g5
tp1436
a(S'two'
p1437
S'two'
p1438
S'CD'
p1439
S'B-NP'
p1440
g5
tp1441
a(S'institutions'
p1442
S'institution'
p1443
S'NNS'
p1444
S'I-NP'
p1445
g5
tp1446
a(g422
g422
g422
g5
g5
tp1447
a(S'although'
p1448
S'although'
p1449
S'IN'
p1450
S'B-SBAR'
p1451
g5
tp1452
a(S'the'
p1453
S'the'
p1454
S'DT'
p1455
S'B-NP'
p1456
g5
tp1457
a(S'CTV'
p1458
S'CTV'
p1459
S'NN'
p1460
S'I-NP'
p1461
S'B-protein'
p1462
tp1463
a(S'was'
p1464
S'be'
p1465
S'VBD'
p1466
S'B-VP'
p1467
g5
tp1468
a(S'drawn'
p1469
S'draw'
p1470
S'VBN'
p1471
S'I-VP'
p1472
g5
tp1473
a(S'correctly'
p1474
S'correctly'
p1475
S'RB'
p1476
S'B-ADVP'
p1477
g5
tp1478
a(g422
g422
g422
g5
g5
tp1479
a(S'the'
p1480
S'the'
p1481
S'DT'
p1482
S'B-NP'
p1483
g5
tp1484
a(S'fields'
p1485
S'field'
p1486
S'NNS'
p1487
S'I-NP'
p1488
g5
tp1489
a(S'appeared'
p1490
S'appear'
p1491
S'VBD'
p1492
S'B-VP'
p1493
g5
tp1494
a(S'to'
p1495
S'to'
p1496
S'TO'
p1497
S'I-VP'
p1498
g5
tp1499
a(S'be'
p1500
S'be'
p1501
S'VB'
p1502
S'I-VP'
p1503
g5
tp1504
a(S'narrow'
p1505
S'narrow'
p1506
S'JJ'
p1507
S'B-ADJP'
p1508
g5
tp1509
a(S'especially'
p1510
S'especially'
p1511
S'RB'
p1512
S'B-ADVP'
p1513
g5
tp1514
a(S'in'
p1515
S'in'
p1516
S'IN'
p1517
S'B-PP'
p1518
g5
tp1519
a(S'cranio-caudal'
p1520
S'cranio-caudal'
p1521
S'JJ'
p1522
S'B-NP'
p1523
g5
tp1524
a(S'direction.'
p1525
S'direction.'
p1526
S'NN'
p1527
S'I-NP'
p1528
g5
tp1529
a(S'Variations'
p1530
S'Variation'
p1531
S'NNS'
p1532
S'I-NP'
p1533
g5
tp1534
a(S'in'
p1535
S'in'
p1536
S'IN'
p1537
S'B-PP'
p1538
g5
tp1539
a(S'treated'
p1540
S'treat'
p1541
S'VBN'
p1542
S'B-NP'
p1543
g5
tp1544
a(S'volumes'
p1545
S'volume'
p1546
S'NNS'
p1547
S'I-NP'
p1548
g5
tp1549
a(S'and'
p1550
S'and'
p1551
S'CC'
p1552
g5
g5
tp1553
a(S'total'
p1554
S'total'
p1555
S'JJ'
p1556
S'B-NP'
p1557
g5
tp1558
a(S'radiation'
p1559
S'radiation'
p1560
S'NN'
p1561
S'I-NP'
p1562
g5
tp1563
a(S'dose'
p1564
S'dose'
p1565
S'NN'
p1566
S'I-NP'
p1567
g5
tp1568
a(S'were'
p1569
S'be'
p1570
S'VBD'
p1571
S'B-VP'
p1572
g5
tp1573
a(S'encountered'
p1574
S'encounter'
p1575
S'VBN'
p1576
S'I-VP'
p1577
g5
tp1578
a(S'in'
p1579
S'in'
p1580
S'IN'
p1581
S'B-PP'
p1582
g5
tp1583
a(S'the'
p1584
S'the'
p1585
S'DT'
p1586
S'B-NP'
p1587
g5
tp1588
a(S'individual'
p1589
S'individual'
p1590
S'JJ'
p1591
S'I-NP'
p1592
g5
tp1593
a(S'case'
p1594
S'case'
p1595
S'NN'
p1596
S'I-NP'
p1597
g5
tp1598
a(S'review.'
p1599
S'review.'
p1600
S'NN'
p1601
S'I-NP'
p1602
g5
tp1603
a(S'By'
p1604
S'By'
p1605
S'IN'
p1606
S'B-PP'
p1607
g5
tp1608
a(S'providing'
p1609
S'provide'
p1610
S'VBG'
p1611
S'B-VP'
p1612
g5
tp1613
a(S'recommendations'
p1614
S'recommendation'
p1615
S'NNS'
p1616
S'B-NP'
p1617
g5
tp1618
a(S'early'
p1619
S'early'
p1620
S'RB'
p1621
S'B-ADVP'
p1622
g5
tp1623
a(S'during'
p1624
S'during'
p1625
S'IN'
p1626
S'B-PP'
p1627
g5
tp1628
a(S'the'
p1629
S'the'
p1630
S'DT'
p1631
S'B-NP'
p1632
g5
tp1633
a(S'course'
p1634
S'course'
p1635
S'NN'
p1636
S'I-NP'
p1637
g5
tp1638
a(S'of'
p1639
S'of'
p1640
S'IN'
p1641
S'B-PP'
p1642
g5
tp1643
a(S'the'
p1644
S'the'
p1645
S'DT'
p1646
S'B-NP'
p1647
g5
tp1648
a(S'trial'
p1649
S'trial'
p1650
S'NN'
p1651
S'I-NP'
p1652
g5
tp1653
a(g422
g422
g422
g5
g5
tp1654
a(S'we'
p1655
S'we'
p1656
S'PRP'
p1657
S'B-NP'
p1658
g5
tp1659
a(S'expect'
p1660
S'expect'
p1661
S'VBP'
p1662
S'B-VP'
p1663
g5
tp1664
a(S'to'
p1665
S'to'
p1666
S'TO'
p1667
S'I-VP'
p1668
g5
tp1669
a(S'improve'
p1670
S'improve'
p1671
S'VB'
p1672
S'I-VP'
p1673
g5
tp1674
a(S'the'
p1675
S'the'
p1676
S'DT'
p1677
S'B-NP'
p1678
g5
tp1679
a(S'inter-institutional'
p1680
S'inter-institutional'
p1681
S'JJ'
p1682
S'I-NP'
p1683
g5
tp1684
a(S'consistency'
p1685
S'consistency'
p1686
S'NN'
p1687
S'I-NP'
p1688
g5
tp1689
a(S'and'
p1690
S'and'
p1691
S'CC'
p1692
g5
g5
tp1693
a(S'to'
p1694
S'to'
p1695
S'TO'
p1696
S'B-VP'
p1697
g5
tp1698
a(S'promote'
p1699
S'promote'
p1700
S'VB'
p1701
S'I-VP'
p1702
g5
tp1703
a(g271
g271
S'DT'
p1704
S'B-NP'
p1705
g5
tp1706
a(S'high'
p1707
S'high'
p1708
S'JJ'
p1709
S'I-NP'
p1710
g5
tp1711
a(S'quality'
p1712
S'quality'
p1713
S'NN'
p1714
S'I-NP'
p1715
g5
tp1716
a(S'treatment'
p1717
S'treatment'
p1718
S'NN'
p1719
S'I-NP'
p1720
g5
tp1721
a(S'in'
p1722
S'in'
p1723
S'IN'
p1724
S'B-PP'
p1725
g5
tp1726
a(S'all'
p1727
S'all'
p1728
S'DT'
p1729
S'B-NP'
p1730
g5
tp1731
a(S'of'
p1732
S'of'
p1733
S'IN'
p1734
S'B-PP'
p1735
g5
tp1736
a(S'the'
p1737
S'the'
p1738
S'DT'
p1739
S'B-NP'
p1740
g5
tp1741
a(S'participating'
p1742
S'participate'
p1743
S'VBG'
p1744
S'I-NP'
p1745
g5
tp1746
a(S'institutions'
p1747
S'institution'
p1748
S'NNS'
p1749
S'I-NP'
p1750
g5
tp1751
a(g129
g129
g129
g5
g5
tp1752
a.