(lp0
(S'Perceptual'
p1
S'Perceptual'
p2
S'JJ'
p3
S'B-NP'
p4
S'O'
p5
tp6
a(S'wind-up'
p7
S'wind-up'
p8
S'NN'
p9
S'I-NP'
p10
g5
tp11
a(S'in'
p12
S'in'
p13
S'IN'
p14
S'B-PP'
p15
g5
tp16
a(S'the'
p17
S'the'
p18
S'DT'
p19
S'B-NP'
p20
g5
tp21
a(S'human'
p22
S'human'
p23
S'JJ'
p24
S'I-NP'
p25
g5
tp26
a(S'oesophagus'
p27
S'oesophagus'
p28
S'NN'
p29
S'I-NP'
p30
g5
tp31
a(S'is'
p32
S'be'
p33
S'VBZ'
p34
S'B-VP'
p35
g5
tp36
a(S'enhanced'
p37
S'enhance'
p38
S'VBN'
p39
S'I-VP'
p40
g5
tp41
a(S'by'
p42
S'by'
p43
S'IN'
p44
S'B-PP'
p45
g5
tp46
a(S'central'
p47
S'central'
p48
S'JJ'
p49
S'B-NP'
p50
g5
tp51
a(S'sensitisation'
p52
S'sensitisation'
p53
S'NN'
p54
S'I-NP'
p55
g5
tp56
a(S'.'
p57
g57
g57
g5
g5
tp58
a(S'BACKGROUND'
p59
S'BACKGROUND'
p60
S'NN'
p61
S'B-NP'
p62
g5
tp63
a(S'Oesophageal'
p64
S'Oesophageal'
p65
S'JJ'
p66
S'I-NP'
p67
g5
tp68
a(S'acid'
p69
S'acid'
p70
S'NN'
p71
S'I-NP'
p72
g5
tp73
a(S'infusion'
p74
S'infusion'
p75
S'NN'
p76
S'I-NP'
p77
g5
tp78
a(S'induces'
p79
S'induce'
p80
S'VBZ'
p81
S'B-VP'
p82
g5
tp83
a(S'enhanced'
p84
S'enhance'
p85
S'VBN'
p86
S'I-VP'
p87
g5
tp88
a(S'pain'
p89
S'pain'
p90
S'NN'
p91
S'B-NP'
p92
g5
tp93
a(S'hypersensitivity'
p94
S'hypersensitivity'
p95
S'NN'
p96
S'I-NP'
p97
g5
tp98
a(S'in'
p99
S'in'
p100
S'IN'
p101
S'B-PP'
p102
g5
tp103
a(S'non-acid'
p104
S'non-acid'
p105
S'JJ'
p106
S'B-NP'
p107
g5
tp108
a(S'exposed'
p109
S'expose'
p110
S'VBN'
p111
S'I-NP'
p112
g5
tp113
a(S'upper'
p114
S'upper'
p115
S'JJ'
p116
S'I-NP'
p117
g5
tp118
a(S'oesophagus'
p119
S'oesophagus'
p120
S'NN'
p121
S'I-NP'
p122
g5
tp123
a(S'('
p124
g124
g124
g5
g5
tp125
a(S'secondary'
p126
S'secondary'
p127
S'JJ'
p128
S'B-NP'
p129
g5
tp130
a(S'hyperalgesia'
p131
S'hyperalgesia'
p132
S'NN'
p133
S'I-NP'
p134
g5
tp135
a(S')'
p136
g136
g136
g5
g5
tp137
a(S'in'
p138
S'in'
p139
S'IN'
p140
S'B-PP'
p141
g5
tp142
a(S'patients'
p143
S'patient'
p144
S'NNS'
p145
S'B-NP'
p146
g5
tp147
a(S'with'
p148
S'with'
p149
S'IN'
p150
S'B-PP'
p151
g5
tp152
a(S'non-cardiac'
p153
S'non-cardiac'
p154
S'JJ'
p155
S'B-NP'
p156
g5
tp157
a(S'chest'
p158
S'chest'
p159
S'NN'
p160
S'I-NP'
p161
g5
tp162
a(S'pain'
p163
S'pain'
p164
S'NN'
p165
S'I-NP'
p166
g5
tp167
a(S','
p168
g168
g168
g5
g5
tp169
a(S'thus'
p170
S'thus'
p171
S'RB'
p172
S'B-ADVP'
p173
g5
tp174
a(S'suggesting'
p175
S'suggest'
p176
S'VBG'
p177
S'B-VP'
p178
g5
tp179
a(S'central'
p180
S'central'
p181
S'JJ'
p182
S'B-NP'
p183
g5
tp184
a(S'sensitisation'
p185
S'sensitisation'
p186
S'NN'
p187
S'I-NP'
p188
g5
tp189
a(S'contributes'
p190
S'contribute'
p191
S'VBZ'
p192
S'B-VP'
p193
g5
tp194
a(S'to'
p195
S'to'
p196
S'TO'
p197
S'B-PP'
p198
g5
tp199
a(S'visceral'
p200
S'visceral'
p201
S'JJ'
p202
S'B-NP'
p203
g5
tp204
a(S'pain'
p205
S'pain'
p206
S'NN'
p207
S'I-NP'
p208
g5
tp209
a(S'hypersensitivity'
p210
S'hypersensitivity'
p211
S'NN'
p212
S'I-NP'
p213
g5
tp214
a(S'in'
p215
S'in'
p216
S'IN'
p217
S'B-PP'
p218
g5
tp219
a(S'functional'
p220
S'functional'
p221
S'JJ'
p222
S'B-NP'
p223
g5
tp224
a(S'gut'
p225
S'gut'
p226
S'NN'
p227
S'I-NP'
p228
g5
tp229
a(S'disorders'
p230
S'disorder'
p231
S'NNS'
p232
S'I-NP'
p233
g5
tp234
a(g124
g124
g124
g5
g5
tp235
a(S'FGD'
p236
S'FGD'
p237
S'NN'
p238
S'B-NP'
p239
S'B-protein'
p240
tp241
a(g136
g136
g136
g5
g5
tp242
a(g57
g57
g57
g5
g5
tp243
a(S'Perceptual'
p244
S'Perceptual'
p245
S'JJ'
p246
S'B-NP'
p247
g5
tp248
a(S'wind-up'
p249
S'wind-up'
p250
S'JJ'
p251
S'I-NP'
p252
g5
tp253
a(g124
g124
g124
g5
g5
tp254
a(S'increased'
p255
S'increase'
p256
S'VBN'
p257
S'B-NP'
p258
g5
tp259
a(S'pain'
p260
S'pain'
p261
S'NN'
p262
S'I-NP'
p263
g5
tp264
a(S'perception'
p265
S'perception'
p266
S'NN'
p267
S'I-NP'
p268
g5
tp269
a(S'to'
p270
S'to'
p271
S'TO'
p272
S'B-PP'
p273
g5
tp274
a(S'constant'
p275
S'constant'
p276
S'JJ'
p277
S'B-NP'
p278
g5
tp279
a(S'intensity'
p280
S'intensity'
p281
S'NN'
p282
S'I-NP'
p283
g5
tp284
a(S'sensory'
p285
S'sensory'
p286
S'JJ'
p287
S'I-NP'
p288
g5
tp289
a(S'stimuli'
p290
S'stimulus'
p291
S'NNS'
p292
S'I-NP'
p293
g5
tp294
a(S'at'
p295
S'at'
p296
S'IN'
p297
S'B-PP'
p298
g5
tp299
a(S'frequencies'
p300
S'frequency'
p301
S'NNS'
p302
S'B-NP'
p303
g5
tp304
a(S'>'
p305
g305
S'SYM'
p306
S'B-VP'
p307
g5
tp308
a(S'or=0.3'
p309
S'or=0.3'
p310
S'NN'
p311
S'B-NP'
p312
g5
tp313
a(S'Hz'
p314
S'Hz'
p315
S'NN'
p316
S'I-NP'
p317
g5
tp318
a(g136
g136
g136
g5
g5
tp319
a(S'is'
p320
S'be'
p321
S'VBZ'
p322
S'B-VP'
p323
g5
tp324
a(S'used'
p325
S'use'
p326
S'VBN'
p327
S'I-VP'
p328
g5
tp329
a(S'as'
p330
S'as'
p331
S'IN'
p332
S'B-PP'
p333
g5
tp334
a(S'a'
p335
g335
S'DT'
p336
S'B-NP'
p337
g5
tp338
a(S'proxy'
p339
S'proxy'
p340
S'NN'
p341
S'I-NP'
p342
g5
tp343
a(S'for'
p344
S'for'
p345
S'IN'
p346
S'B-PP'
p347
g5
tp348
a(S'central'
p349
S'central'
p350
S'JJ'
p351
S'B-NP'
p352
g5
tp353
a(S'sensitisation'
p354
S'sensitisation'
p355
S'NN'
p356
S'I-NP'
p357
g5
tp358
a(S'to'
p359
S'to'
p360
S'TO'
p361
S'B-VP'
p362
g5
tp363
a(S'investigate'
p364
S'investigate'
p365
S'VB'
p366
S'I-VP'
p367
g5
tp368
a(S'pain'
p369
S'pain'
p370
S'NN'
p371
S'B-NP'
p372
g5
tp373
a(S'syndromes'
p374
S'syndrome'
p375
S'NNS'
p376
S'I-NP'
p377
g5
tp378
a(S'where'
p379
S'where'
p380
S'WRB'
p381
S'B-ADVP'
p382
g5
tp383
a(S'pain'
p384
S'pain'
p385
S'NN'
p386
S'B-NP'
p387
g5
tp388
a(S'hypersensitivity'
p389
S'hypersensitivity'
p390
S'NN'
p391
S'I-NP'
p392
g5
tp393
a(S'is'
p394
S'be'
p395
S'VBZ'
p396
S'B-VP'
p397
g5
tp398
a(S'important'
p399
S'important'
p400
S'JJ'
p401
S'B-ADJP'
p402
g5
tp403
a(g124
g124
g124
g5
g5
tp404
a(S'for'
p405
S'for'
p406
S'IN'
p407
S'B-PP'
p408
g5
tp409
a(S'example'
p410
S'example'
p411
S'NN'
p412
S'B-NP'
p413
g5
tp414
a(g168
g168
g168
g5
g5
tp415
a(S'fibromyalgia'
p416
S'fibromyalgia'
p417
S'NN'
p418
S'B-NP'
p419
g5
tp420
a(g136
g136
g136
g5
g5
tp421
a(g57
g57
g57
g5
g5
tp422
a(S'AIMS'
p423
S'AIMS'
p424
S'NNS'
p425
S'B-NP'
p426
g5
tp427
a(S'Wind-up'
p428
S'Wind-up'
p429
S'JJ'
p430
S'B-ADJP'
p431
g5
tp432
a(S'in'
p433
S'in'
p434
S'IN'
p435
S'B-PP'
p436
g5
tp437
a(S'central'
p438
S'central'
p439
S'JJ'
p440
S'B-NP'
p441
g5
tp442
a(S'sensitisation'
p443
S'sensitisation'
p444
S'NN'
p445
S'I-NP'
p446
g5
tp447
a(S'induced'
p448
S'induce'
p449
S'VBD'
p450
S'B-VP'
p451
g5
tp452
a(S'human'
p453
S'human'
p454
S'JJ'
p455
S'B-NP'
p456
g5
tp457
a(S'visceral'
p458
S'visceral'
p459
S'JJ'
p460
S'I-NP'
p461
g5
tp462
a(S'pain'
p463
S'pain'
p464
S'NN'
p465
S'I-NP'
p466
g5
tp467
a(S'hypersensitivity'
p468
S'hypersensitivity'
p469
S'NN'
p470
S'I-NP'
p471
g5
tp472
a(S'has'
p473
S'have'
p474
S'VBZ'
p475
S'B-VP'
p476
g5
tp477
a(S'not'
p478
S'not'
p479
S'RB'
p480
S'I-VP'
p481
g5
tp482
a(S'been'
p483
S'be'
p484
S'VBN'
p485
S'I-VP'
p486
g5
tp487
a(S'explored.'
p488
S'explored.'
p489
S'VBN'
p490
S'I-VP'
p491
g5
tp492
a(S'We'
p493
S'We'
p494
S'PRP'
p495
S'B-NP'
p496
g5
tp497
a(S'hypothesised'
p498
S'hypothesise'
p499
S'VBD'
p500
S'B-VP'
p501
g5
tp502
a(S'that'
p503
S'that'
p504
S'IN'
p505
S'B-SBAR'
p506
g5
tp507
a(S'if'
p508
S'if'
p509
S'IN'
p510
S'B-SBAR'
p511
g5
tp512
a(S'wind-up'
p513
S'wind-up'
p514
S'NN'
p515
S'B-NP'
p516
g5
tp517
a(S'is'
p518
S'be'
p519
S'VBZ'
p520
S'B-VP'
p521
g5
tp522
a(g335
g335
S'DT'
p523
S'B-NP'
p524
g5
tp525
a(S'proxy'
p526
S'proxy'
p527
S'NN'
p528
S'I-NP'
p529
g5
tp530
a(S'for'
p531
S'for'
p532
S'IN'
p533
S'B-PP'
p534
g5
tp535
a(S'central'
p536
S'central'
p537
S'JJ'
p538
S'B-NP'
p539
g5
tp540
a(S'sensitisation'
p541
S'sensitisation'
p542
S'NN'
p543
S'I-NP'
p544
g5
tp545
a(S'induced'
p546
S'induce'
p547
S'VBD'
p548
S'B-VP'
p549
g5
tp550
a(S'human'
p551
S'human'
p552
S'JJ'
p553
S'B-NP'
p554
g5
tp555
a(S'visceral'
p556
S'visceral'
p557
S'JJ'
p558
S'I-NP'
p559
g5
tp560
a(S'pain'
p561
S'pain'
p562
S'NN'
p563
S'I-NP'
p564
g5
tp565
a(S'hypersensitivity'
p566
S'hypersensitivity'
p567
S'NN'
p568
S'I-NP'
p569
g5
tp570
a(g168
g168
g168
g5
g5
tp571
a(S'then'
p572
S'then'
p573
S'RB'
p574
S'B-ADVP'
p575
g5
tp576
a(S'oesophageal'
p577
S'oesophageal'
p578
S'JJ'
p579
S'B-NP'
p580
g5
tp581
a(S'wind-up'
p582
S'wind-up'
p583
S'NN'
p584
S'I-NP'
p585
g5
tp586
a(S'should'
p587
S'should'
p588
S'MD'
p589
S'B-VP'
p590
g5
tp591
a(S'be'
p592
S'be'
p593
S'VB'
p594
S'I-VP'
p595
g5
tp596
a(S'enhanced'
p597
S'enhance'
p598
S'VBN'
p599
S'I-VP'
p600
g5
tp601
a(S'by'
p602
S'by'
p603
S'IN'
p604
S'B-PP'
p605
g5
tp606
a(S'secondary'
p607
S'secondary'
p608
S'JJ'
p609
S'B-NP'
p610
g5
tp611
a(S'hyperalgesia'
p612
S'hyperalgesia'
p613
S'NN'
p614
S'I-NP'
p615
g5
tp616
a(g57
g57
g57
g5
g5
tp617
a(S'METHODS'
p618
S'METHODS'
p619
S'NNS'
p620
S'B-NP'
p621
g5
tp622
a(S'In'
p623
S'In'
p624
S'IN'
p625
S'B-PP'
p626
g5
tp627
a(S'eight'
p628
S'eight'
p629
S'CD'
p630
S'B-NP'
p631
g5
tp632
a(S'healthy'
p633
S'healthy'
p634
S'JJ'
p635
S'I-NP'
p636
g5
tp637
a(S'volunteers'
p638
S'volunteer'
p639
S'NNS'
p640
S'I-NP'
p641
g5
tp642
a(g124
g124
g124
g5
g5
tp643
a(S'seven'
p644
S'seven'
p645
S'CD'
p646
S'B-NP'
p647
g5
tp648
a(S'males'
p649
S'male'
p650
S'NNS'
p651
S'I-NP'
p652
g5
tp653
a(S';'
p654
g654
S':'
p655
g5
g5
tp656
a(S'mean'
p657
S'mean'
p658
S'JJ'
p659
S'B-NP'
p660
g5
tp661
a(S'age'
p662
S'age'
p663
S'NN'
p664
S'I-NP'
p665
g5
tp666
a(S'32'
p667
S'32'
p668
S'CD'
p669
S'B-NP'
p670
g5
tp671
a(S'years'
p672
S'year'
p673
S'NNS'
p674
S'I-NP'
p675
g5
tp676
a(g136
g136
g136
g5
g5
tp677
a(g168
g168
g168
g5
g5
tp678
a(S'perception'
p679
S'perception'
p680
S'NN'
p681
S'B-NP'
p682
g5
tp683
a(S'at'
p684
S'at'
p685
S'IN'
p686
S'B-PP'
p687
g5
tp688
a(S'pain'
p689
S'pain'
p690
S'NN'
p691
S'B-NP'
p692
g5
tp693
a(S'threshold'
p694
S'threshold'
p695
S'NN'
p696
S'I-NP'
p697
g5
tp698
a(S'to'
p699
S'to'
p700
S'TO'
p701
S'B-PP'
p702
g5
tp703
a(g335
g335
S'DT'
p704
S'B-NP'
p705
g5
tp706
a(S'train'
p707
S'train'
p708
S'NN'
p709
S'I-NP'
p710
g5
tp711
a(S'of'
p712
S'of'
p713
S'IN'
p714
S'B-PP'
p715
g5
tp716
a(S'20'
p717
S'20'
p718
S'CD'
p719
S'B-NP'
p720
g5
tp721
a(S'electrical'
p722
S'electrical'
p723
S'JJ'
p724
S'I-NP'
p725
g5
tp726
a(S'stimuli'
p727
S'stimulus'
p728
S'NNS'
p729
S'I-NP'
p730
g5
tp731
a(S'applied'
p732
S'apply'
p733
S'VBN'
p734
S'B-VP'
p735
g5
tp736
a(S'to'
p737
S'to'
p738
S'TO'
p739
S'B-PP'
p740
g5
tp741
a(S'the'
p742
S'the'
p743
S'DT'
p744
S'B-NP'
p745
g5
tp746
a(S'hand'
p747
S'hand'
p748
S'NN'
p749
S'I-NP'
p750
g5
tp751
a(S'and'
p752
S'and'
p753
S'CC'
p754
g5
g5
tp755
a(S'upper'
p756
S'upper'
p757
S'JJ'
p758
S'B-NP'
p759
g5
tp760
a(S'oesophagus'
p761
S'oesophagus'
p762
S'NN'
p763
S'I-NP'
p764
g5
tp765
a(g124
g124
g124
g5
g5
tp766
a(S'UO'
p767
S'UO'
p768
S'NN'
p769
S'B-NP'
p770
g5
tp771
a(g136
g136
g136
g5
g5
tp772
a(S'at'
p773
S'at'
p774
S'IN'
p775
S'B-PP'
p776
g5
tp777
a(S'either'
p778
S'either'
p779
S'CC'
p780
g5
g5
tp781
a(S'0.1'
p782
S'0.1'
p783
S'CD'
p784
S'B-NP'
p785
g5
tp786
a(S'Hz'
p787
S'Hz'
p788
S'NN'
p789
S'I-NP'
p790
g5
tp791
a(g124
g124
g124
g5
g5
tp792
a(S'control'
p793
S'control'
p794
S'NN'
p795
S'B-NP'
p796
g5
tp797
a(g136
g136
g136
g5
g5
tp798
a(S'or'
p799
S'or'
p800
S'CC'
p801
g5
g5
tp802
a(S'2'
p803
g803
S'CD'
p804
S'B-NP'
p805
g5
tp806
a(S'Hz'
p807
S'Hz'
p808
S'NN'
p809
S'I-NP'
p810
g5
tp811
a(S'was'
p812
S'be'
p813
S'VBD'
p814
S'B-VP'
p815
g5
tp816
a(S'determined'
p817
S'determine'
p818
S'VBN'
p819
S'I-VP'
p820
g5
tp821
a(S'before'
p822
S'before'
p823
S'IN'
p824
S'B-PP'
p825
g5
tp826
a(S'and'
p827
S'and'
p828
S'CC'
p829
g5
g5
tp830
a(S'one'
p831
S'one'
p832
S'CD'
p833
S'B-NP'
p834
g5
tp835
a(S'hour'
p836
S'hour'
p837
S'NN'
p838
S'I-NP'
p839
g5
tp840
a(S'after'
p841
S'after'
p842
S'IN'
p843
S'B-PP'
p844
g5
tp845
a(g335
g335
S'DT'
p846
S'B-NP'
p847
g5
tp848
a(S'30'
p849
S'30'
p850
S'CD'
p851
S'I-NP'
p852
g5
tp853
a(S'minute'
p854
S'minute'
p855
S'NN'
p856
S'I-NP'
p857
g5
tp858
a(S'lower'
p859
S'low'
p860
S'JJR'
p861
S'B-NP'
p862
g5
tp863
a(S'oesophageal'
p864
S'oesophageal'
p865
S'JJ'
p866
S'I-NP'
p867
g5
tp868
a(S'acid'
p869
S'acid'
p870
S'NN'
p871
S'I-NP'
p872
g5
tp873
a(S'infusion'
p874
S'infusion'
p875
S'NN'
p876
S'I-NP'
p877
g5
tp878
a(g57
g57
g57
g5
g5
tp879
a(S'RESULTS'
p880
S'RESULTS'
p881
S'NNS'
p882
S'B-NP'
p883
g5
tp884
a(S'Wind-up'
p885
S'Wind-up'
p886
S'NNP'
p887
S'I-NP'
p888
g5
tp889
a(S'occurred'
p890
S'occur'
p891
S'VBD'
p892
S'B-VP'
p893
g5
tp894
a(S'only'
p895
S'only'
p896
S'RB'
p897
S'B-ADVP'
p898
g5
tp899
a(S'with'
p900
S'with'
p901
S'IN'
p902
S'B-PP'
p903
g5
tp904
a(S'the'
p905
S'the'
p906
S'DT'
p907
S'B-NP'
p908
g5
tp909
a(g803
g803
S'CD'
p910
S'I-NP'
p911
g5
tp912
a(S'Hz'
p913
S'Hz'
p914
S'NN'
p915
S'I-NP'
p916
g5
tp917
a(S'train'
p918
S'train'
p919
S'NN'
p920
S'I-NP'
p921
g5
tp922
a(S'in'
p923
S'in'
p924
S'IN'
p925
S'B-PP'
p926
g5
tp927
a(S'the'
p928
S'the'
p929
S'DT'
p930
S'B-NP'
p931
g5
tp932
a(S'UO'
p933
S'UO'
p934
S'NN'
p935
S'I-NP'
p936
g5
tp937
a(S'and'
p938
S'and'
p939
S'CC'
p940
S'I-NP'
p941
g5
tp942
a(S'hand'
p943
S'hand'
p944
S'NN'
p945
S'I-NP'
p946
g5
tp947
a(g124
g124
g124
g5
g5
tp948
a(S'both'
p949
S'both'
p950
S'CC'
p951
g5
g5
tp952
a(S'p=0.01'
p953
S'p=0.01'
p954
S'NN'
p955
S'B-NP'
p956
g5
tp957
a(g136
g136
g136
g5
g5
tp958
a(g57
g57
g57
g5
g5
tp959
a(S'Following'
p960
S'Follow'
p961
S'VBG'
p962
S'B-VP'
p963
g5
tp964
a(S'acid'
p965
S'acid'
p966
S'NN'
p967
S'B-NP'
p968
g5
tp969
a(S'infusion'
p970
S'infusion'
p971
S'NN'
p972
S'I-NP'
p973
g5
tp974
a(g168
g168
g168
g5
g5
tp975
a(S'pain'
p976
S'pain'
p977
S'NN'
p978
S'B-NP'
p979
g5
tp980
a(S'threshold'
p981
S'threshold'
p982
S'NN'
p983
S'I-NP'
p984
g5
tp985
a(S'decreased'
p986
S'decrease'
p987
S'VBD'
p988
S'B-VP'
p989
g5
tp990
a(g124
g124
g124
g5
g5
tp991
a(S'17'
p992
S'17'
p993
S'CD'
p994
S'B-NP'
p995
g5
tp996
a(g124
g124
g124
g5
g5
tp997
a(S'4'
p998
g998
S'CD'
p999
S'B-NP'
p1000
g5
tp1001
a(g136
g136
g136
g5
g5
tp1002
a(S'%'
p1003
g1003
S'NN'
p1004
S'B-NP'
p1005
g5
tp1006
a(g654
g654
g655
g5
g5
tp1007
a(S'p=0.01'
p1008
S'p=0.01'
p1009
S'NN'
p1010
S'B-NP'
p1011
g5
tp1012
a(g136
g136
g136
g5
g5
tp1013
a(S'in'
p1014
S'in'
p1015
S'IN'
p1016
S'B-PP'
p1017
g5
tp1018
a(S'the'
p1019
S'the'
p1020
S'DT'
p1021
S'B-NP'
p1022
g5
tp1023
a(S'UO'
p1024
S'UO'
p1025
S'NN'
p1026
S'I-NP'
p1027
g5
tp1028
a(g168
g168
g168
g5
g5
tp1029
a(S'suggesting'
p1030
S'suggest'
p1031
S'VBG'
p1032
S'B-VP'
p1033
g5
tp1034
a(S'the'
p1035
S'the'
p1036
S'DT'
p1037
S'B-NP'
p1038
g5
tp1039
a(S'presence'
p1040
S'presence'
p1041
S'NN'
p1042
S'I-NP'
p1043
g5
tp1044
a(S'of'
p1045
S'of'
p1046
S'IN'
p1047
S'B-PP'
p1048
g5
tp1049
a(S'secondary'
p1050
S'secondary'
p1051
S'JJ'
p1052
S'B-NP'
p1053
g5
tp1054
a(S'hyperalgesia.'
p1055
S'hyperalgesia.'
p1056
S'NN'
p1057
S'I-NP'
p1058
g5
tp1059
a(S'Wind-up'
p1060
S'Wind-up'
p1061
S'JJ'
p1062
S'B-ADJP'
p1063
g5
tp1064
a(S'to'
p1065
S'to'
p1066
S'TO'
p1067
S'B-PP'
p1068
g5
tp1069
a(S'the'
p1070
S'the'
p1071
S'DT'
p1072
S'B-NP'
p1073
g5
tp1074
a(g803
g803
S'CD'
p1075
S'I-NP'
p1076
g5
tp1077
a(S'Hz'
p1078
S'Hz'
p1079
S'NN'
p1080
S'I-NP'
p1081
g5
tp1082
a(S'train'
p1083
S'train'
p1084
S'NN'
p1085
S'I-NP'
p1086
g5
tp1087
a(S'increased'
p1088
S'increase'
p1089
S'VBD'
p1090
S'B-VP'
p1091
g5
tp1092
a(S'in'
p1093
S'in'
p1094
S'IN'
p1095
S'B-PP'
p1096
g5
tp1097
a(S'the'
p1098
S'the'
p1099
S'DT'
p1100
S'B-NP'
p1101
g5
tp1102
a(S'UO'
p1103
S'UO'
p1104
S'NN'
p1105
S'I-NP'
p1106
g5
tp1107
a(g124
g124
g124
g5
g5
tp1108
a(S'wind-up'
p1109
S'wind-up'
p1110
S'JJ'
p1111
S'B-NP'
p1112
g5
tp1113
a(S'ratio'
p1114
S'ratio'
p1115
S'NN'
p1116
S'I-NP'
p1117
g5
tp1118
a(S'1.4'
p1119
S'1.4'
p1120
S'CD'
p1121
S'I-NP'
p1122
g5
tp1123
a(g124
g124
g124
g5
g5
tp1124
a(S'0.1'
p1125
S'0.1'
p1126
S'CD'
p1127
S'B-NP'
p1128
g5
tp1129
a(g136
g136
g136
g5
g5
tp1130
a(S'to'
p1131
S'to'
p1132
S'TO'
p1133
S'B-PP'
p1134
g5
tp1135
a(S'1.6'
p1136
S'1.6'
p1137
S'CD'
p1138
S'B-NP'
p1139
g5
tp1140
a(g124
g124
g124
g5
g5
tp1141
a(S'0.1'
p1142
S'0.1'
p1143
S'CD'
p1144
S'B-NP'
p1145
g5
tp1146
a(g136
g136
g136
g5
g5
tp1147
a(g654
g654
g655
g5
g5
tp1148
a(S'p=0.03'
p1149
S'p=0.03'
p1150
S'NN'
p1151
S'B-NP'
p1152
g5
tp1153
a(g136
g136
g136
g5
g5
tp1154
a(S'but'
p1155
S'but'
p1156
S'CC'
p1157
S'B-PP'
p1158
g5
tp1159
a(S'not'
p1160
S'not'
p1161
S'RB'
p1162
S'B-PP'
p1163
g5
tp1164
a(S'in'
p1165
S'in'
p1166
S'IN'
p1167
S'I-PP'
p1168
g5
tp1169
a(S'the'
p1170
S'the'
p1171
S'DT'
p1172
S'B-NP'
p1173
g5
tp1174
a(S'hand'
p1175
S'hand'
p1176
S'NN'
p1177
S'I-NP'
p1178
g5
tp1179
a(g124
g124
g124
g5
g5
tp1180
a(S'wind-up'
p1181
S'wind-up'
p1182
S'JJ'
p1183
S'B-NP'
p1184
g5
tp1185
a(S'ratio'
p1186
S'ratio'
p1187
S'NN'
p1188
S'I-NP'
p1189
g5
tp1190
a(S'1.3'
p1191
S'1.3'
p1192
S'CD'
p1193
S'I-NP'
p1194
g5
tp1195
a(g124
g124
g124
g5
g5
tp1196
a(S'0.1'
p1197
S'0.1'
p1198
S'CD'
p1199
S'B-NP'
p1200
g5
tp1201
a(g136
g136
g136
g5
g5
tp1202
a(S'and'
p1203
S'and'
p1204
S'CC'
p1205
g5
g5
tp1206
a(S'1.3'
p1207
S'1.3'
p1208
S'CD'
p1209
S'B-NP'
p1210
g5
tp1211
a(g124
g124
g124
g5
g5
tp1212
a(S'0.1'
p1213
S'0.1'
p1214
S'CD'
p1215
S'B-NP'
p1216
g5
tp1217
a(g136
g136
g136
g5
g5
tp1218
a(g654
g654
g655
g5
g5
tp1219
a(S'p=0.3'
p1220
S'p=0.3'
p1221
S'NN'
p1222
S'B-NP'
p1223
g5
tp1224
a(g136
g136
g136
g5
g5
tp1225
a(S'CONCLUSION'
p1226
S'CONCLUSION'
p1227
S'NN'
p1228
S'B-NP'
p1229
g5
tp1230
a(S'Enhanced'
p1231
S'Enhance'
p1232
S'VBD'
p1233
S'B-VP'
p1234
g5
tp1235
a(S'wind-up'
p1236
S'wind-up'
p1237
S'NN'
p1238
S'B-NP'
p1239
g5
tp1240
a(S'after'
p1241
S'after'
p1242
S'IN'
p1243
S'B-PP'
p1244
g5
tp1245
a(S'secondary'
p1246
S'secondary'
p1247
S'JJ'
p1248
S'B-NP'
p1249
g5
tp1250
a(S'oesophageal'
p1251
S'oesophageal'
p1252
S'JJ'
p1253
S'I-NP'
p1254
g5
tp1255
a(S'hyperalgesia'
p1256
S'hyperalgesia'
p1257
S'NN'
p1258
S'I-NP'
p1259
g5
tp1260
a(S'suggests'
p1261
S'suggest'
p1262
S'VBZ'
p1263
S'B-VP'
p1264
g5
tp1265
a(S'that'
p1266
S'that'
p1267
S'IN'
p1268
S'B-SBAR'
p1269
g5
tp1270
a(S'visceral'
p1271
S'visceral'
p1272
S'JJ'
p1273
S'B-NP'
p1274
g5
tp1275
a(S'pain'
p1276
S'pain'
p1277
S'NN'
p1278
S'I-NP'
p1279
g5
tp1280
a(S'hypersensitivity'
p1281
S'hypersensitivity'
p1282
S'NN'
p1283
S'I-NP'
p1284
g5
tp1285
a(S'induced'
p1286
S'induce'
p1287
S'VBN'
p1288
S'B-VP'
p1289
g5
tp1290
a(S'by'
p1291
S'by'
p1292
S'IN'
p1293
S'B-PP'
p1294
g5
tp1295
a(S'central'
p1296
S'central'
p1297
S'JJ'
p1298
S'B-NP'
p1299
g5
tp1300
a(S'sensitisation'
p1301
S'sensitisation'
p1302
S'NN'
p1303
S'I-NP'
p1304
g5
tp1305
a(S'results'
p1306
S'result'
p1307
S'VBZ'
p1308
S'B-VP'
p1309
g5
tp1310
a(S'from'
p1311
S'from'
p1312
S'IN'
p1313
S'B-PP'
p1314
g5
tp1315
a(S'increased'
p1316
S'increase'
p1317
S'VBN'
p1318
S'B-NP'
p1319
g5
tp1320
a(S'central'
p1321
S'central'
p1322
S'JJ'
p1323
S'I-NP'
p1324
g5
tp1325
a(S'neuronal'
p1326
S'neuronal'
p1327
S'JJ'
p1328
S'I-NP'
p1329
g5
tp1330
a(S'excitability.'
p1331
S'excitability.'
p1332
S'NN'
p1333
S'I-NP'
p1334
g5
tp1335
a(S'Wind-up'
p1336
S'Wind-up'
p1337
S'NNP'
p1338
S'B-NP'
p1339
g5
tp1340
a(S'may'
p1341
S'may'
p1342
S'MD'
p1343
S'B-VP'
p1344
g5
tp1345
a(S'offer'
p1346
S'offer'
p1347
S'VB'
p1348
S'I-VP'
p1349
g5
tp1350
a(S'new'
p1351
S'new'
p1352
S'JJ'
p1353
S'B-NP'
p1354
g5
tp1355
a(S'opportunities'
p1356
S'opportunity'
p1357
S'NNS'
p1358
S'I-NP'
p1359
g5
tp1360
a(S'to'
p1361
S'to'
p1362
S'TO'
p1363
S'B-VP'
p1364
g5
tp1365
a(S'investigate'
p1366
S'investigate'
p1367
S'VB'
p1368
S'I-VP'
p1369
g5
tp1370
a(S'the'
p1371
S'the'
p1372
S'DT'
p1373
S'B-NP'
p1374
g5
tp1375
a(S'contribution'
p1376
S'contribution'
p1377
S'NN'
p1378
S'I-NP'
p1379
g5
tp1380
a(S'of'
p1381
S'of'
p1382
S'IN'
p1383
S'B-PP'
p1384
g5
tp1385
a(S'central'
p1386
S'central'
p1387
S'JJ'
p1388
S'B-NP'
p1389
g5
tp1390
a(S'neuronal'
p1391
S'neuronal'
p1392
S'JJ'
p1393
S'I-NP'
p1394
g5
tp1395
a(S'changes'
p1396
S'change'
p1397
S'NNS'
p1398
S'I-NP'
p1399
g5
tp1400
a(S'to'
p1401
S'to'
p1402
S'TO'
p1403
S'B-PP'
p1404
g5
tp1405
a(S'symptoms'
p1406
S'symptom'
p1407
S'NNS'
p1408
S'B-NP'
p1409
g5
tp1410
a(S'in'
p1411
S'in'
p1412
S'IN'
p1413
S'B-PP'
p1414
g5
tp1415
a(S'FGD'
p1416
S'FGD'
p1417
S'NN'
p1418
S'B-NP'
p1419
S'B-protein'
p1420
tp1421
a(g57
g57
g57
g5
g5
tp1422
a.