(lp0
(S'Approval'
p1
S'Approval'
p2
S'NN'
p3
S'B-NP'
p4
S'O'
p5
tp6
a(S'summary'
p7
S'summary'
p8
S'NN'
p9
S'I-NP'
p10
g5
tp11
a(S':'
p12
g12
g12
g5
g5
tp13
a(S'imatinib'
p14
S'imatinib'
p15
S'NN'
p16
S'B-NP'
p17
g5
tp18
a(S'mesylate'
p19
S'mesylate'
p20
S'NN'
p21
S'I-NP'
p22
g5
tp23
a(S'in'
p24
S'in'
p25
S'IN'
p26
S'B-PP'
p27
g5
tp28
a(S'the'
p29
S'the'
p30
S'DT'
p31
S'B-NP'
p32
g5
tp33
a(S'treatment'
p34
S'treatment'
p35
S'NN'
p36
S'I-NP'
p37
g5
tp38
a(S'of'
p39
S'of'
p40
S'IN'
p41
S'B-PP'
p42
g5
tp43
a(S'metastatic'
p44
S'metastatic'
p45
S'JJ'
p46
S'B-NP'
p47
g5
tp48
a(S'and/or'
p49
S'and/or'
p50
S'CC'
p51
S'I-NP'
p52
g5
tp53
a(S'unresectable'
p54
S'unresectable'
p55
S'JJ'
p56
S'I-NP'
p57
g5
tp58
a(S'malignant'
p59
S'malignant'
p60
S'JJ'
p61
S'I-NP'
p62
g5
tp63
a(S'gastrointestinal'
p64
S'gastrointestinal'
p65
S'JJ'
p66
S'I-NP'
p67
g5
tp68
a(S'stromal'
p69
S'stromal'
p70
S'JJ'
p71
S'I-NP'
p72
g5
tp73
a(S'tumors'
p74
S'tumor'
p75
S'NNS'
p76
S'I-NP'
p77
g5
tp78
a(S'.'
p79
g79
g79
g5
g5
tp80
a(S'The'
p81
S'The'
p82
S'DT'
p83
S'B-NP'
p84
g5
tp85
a(S'purpose'
p86
S'purpose'
p87
S'NN'
p88
S'I-NP'
p89
g5
tp90
a(S'of'
p91
S'of'
p92
S'IN'
p93
S'B-PP'
p94
g5
tp95
a(S'the'
p96
S'the'
p97
S'DT'
p98
S'B-NP'
p99
g5
tp100
a(S'present'
p101
S'present'
p102
S'JJ'
p103
S'I-NP'
p104
g5
tp105
a(S'application'
p106
S'application'
p107
S'NN'
p108
S'I-NP'
p109
g5
tp110
a(S'was'
p111
S'be'
p112
S'VBD'
p113
S'B-VP'
p114
g5
tp115
a(S'to'
p116
S'to'
p117
S'TO'
p118
S'B-VP'
p119
g5
tp120
a(S'fulfill'
p121
S'fulfill'
p122
S'VB'
p123
S'I-VP'
p124
g5
tp125
a(S'a'
p126
g126
S'DT'
p127
S'B-NP'
p128
g5
tp129
a(S'postmarketing'
p130
S'postmarketing'
p131
S'JJ'
p132
S'I-NP'
p133
g5
tp134
a(S'commitment'
p135
S'commitment'
p136
S'NN'
p137
S'I-NP'
p138
g5
tp139
a(S'to'
p140
S'to'
p141
S'TO'
p142
S'B-VP'
p143
g5
tp144
a(S'provide'
p145
S'provide'
p146
S'VB'
p147
S'I-VP'
p148
g5
tp149
a(S'long-term'
p150
S'long-term'
p151
S'JJ'
p152
S'B-NP'
p153
g5
tp154
a(S'efficacy'
p155
S'efficacy'
p156
S'NN'
p157
S'I-NP'
p158
g5
tp159
a(S'and'
p160
S'and'
p161
S'CC'
p162
S'I-NP'
p163
g5
tp164
a(S'safety'
p165
S'safety'
p166
S'NN'
p167
S'I-NP'
p168
g5
tp169
a(S'data'
p170
S'datum'
p171
S'NNS'
p172
S'I-NP'
p173
g5
tp174
a(S'on'
p175
S'on'
p176
S'IN'
p177
S'B-PP'
p178
g5
tp179
a(S'treatment'
p180
S'treatment'
p181
S'NN'
p182
S'B-NP'
p183
g5
tp184
a(S'with'
p185
S'with'
p186
S'IN'
p187
S'B-PP'
p188
g5
tp189
a(S'imatinib'
p190
S'imatinib'
p191
S'NN'
p192
S'B-NP'
p193
g5
tp194
a(S'mesylate'
p195
S'mesylate'
p196
S'NN'
p197
S'I-NP'
p198
g5
tp199
a(S'('
p200
g200
g200
g5
g5
tp201
a(S'Gleevec'
p202
S'Gleevec'
p203
S'NNP'
p204
S'B-NP'
p205
g5
tp206
a(S';'
p207
g207
g12
g5
g5
tp208
a(S'Novartis'
p209
S'Novartis'
p210
S'NNP'
p211
S'B-NP'
p212
g5
tp213
a(S'Pharmaceuticals'
p214
S'Pharmaceutical'
p215
S'NNPS'
p216
S'I-NP'
p217
g5
tp218
a(S','
p219
g219
g219
g5
g5
tp220
a(S'East'
p221
S'East'
p222
S'NNP'
p223
S'B-NP'
p224
g5
tp225
a(S'Hanover'
p226
S'Hanover'
p227
S'NNP'
p228
S'I-NP'
p229
g5
tp230
a(g219
g219
g219
g5
g5
tp231
a(S'NJ'
p232
S'NJ'
p233
S'NNP'
p234
S'B-NP'
p235
g5
tp236
a(S')'
p237
g237
g237
g5
g5
tp238
a(S'in'
p239
S'in'
p240
S'IN'
p241
S'B-PP'
p242
g5
tp243
a(S'patients'
p244
S'patient'
p245
S'NNS'
p246
S'B-NP'
p247
g5
tp248
a(S'with'
p249
S'with'
p250
S'IN'
p251
S'B-PP'
p252
g5
tp253
a(S'CD117'
p254
S'CD117'
p255
S'NN'
p256
S'B-NP'
p257
g5
tp258
a(g200
g200
g200
g5
g5
tp259
a(S'+'
p260
g260
S'SYM'
p261
g5
g5
tp262
a(g237
g237
g237
g5
g5
tp263
a(S'unresectable'
p264
S'unresectable'
p265
S'JJ'
p266
S'B-NP'
p267
g5
tp268
a(S'and/or'
p269
S'and/or'
p270
S'CC'
p271
S'I-NP'
p272
g5
tp273
a(S'metastatic'
p274
S'metastatic'
p275
S'JJ'
p276
S'I-NP'
p277
g5
tp278
a(S'malignant'
p279
S'malignant'
p280
S'JJ'
p281
S'I-NP'
p282
g5
tp283
a(S'gastrointestinal'
p284
S'gastrointestinal'
p285
S'JJ'
p286
S'I-NP'
p287
g5
tp288
a(S'stromal'
p289
S'stromal'
p290
S'JJ'
p291
S'I-NP'
p292
g5
tp293
a(S'tumors'
p294
S'tumor'
p295
S'NNS'
p296
S'I-NP'
p297
g5
tp298
a(g200
g200
g200
g5
g5
tp299
a(S'GISTs'
p300
S'GIST'
p301
S'NNS'
p302
S'B-NP'
p303
S'B-protein'
p304
tp305
a(g237
g237
g237
g5
g5
tp306
a(g79
g79
g79
g5
g5
tp307
a(S'In'
p308
S'In'
p309
S'IN'
p310
S'B-PP'
p311
g5
tp312
a(S'addition'
p313
S'addition'
p314
S'NN'
p315
S'B-NP'
p316
g5
tp317
a(g219
g219
g219
g5
g5
tp318
a(S'this'
p319
S'this'
p320
S'DT'
p321
S'B-NP'
p322
g5
tp323
a(S'application'
p324
S'application'
p325
S'NN'
p326
S'I-NP'
p327
g5
tp328
a(S'also'
p329
S'also'
p330
S'RB'
p331
S'B-ADVP'
p332
g5
tp333
a(S'provides'
p334
S'provide'
p335
S'VBZ'
p336
S'B-VP'
p337
g5
tp338
a(S'evidence'
p339
S'evidence'
p340
S'NN'
p341
S'B-NP'
p342
g5
tp343
a(S'to'
p344
S'to'
p345
S'TO'
p346
S'B-VP'
p347
g5
tp348
a(S'support'
p349
S'support'
p350
S'VB'
p351
S'I-VP'
p352
g5
tp353
a(g126
g126
S'DT'
p354
S'B-NP'
p355
g5
tp356
a(S'change'
p357
S'change'
p358
S'NN'
p359
S'I-NP'
p360
g5
tp361
a(S'in'
p362
S'in'
p363
S'IN'
p364
S'B-PP'
p365
g5
tp366
a(S'the'
p367
S'the'
p368
S'DT'
p369
S'B-NP'
p370
g5
tp371
a(S'label'
p372
S'label'
p373
S'NN'
p374
S'I-NP'
p375
g5
tp376
a(S'to'
p377
S'to'
p378
S'TO'
p379
S'B-VP'
p380
g5
tp381
a(S'allow'
p382
S'allow'
p383
S'VB'
p384
S'I-VP'
p385
g5
tp386
a(S'for'
p387
S'for'
p388
S'IN'
p389
S'B-PP'
p390
g5
tp391
a(S'an'
p392
S'an'
p393
S'DT'
p394
S'B-NP'
p395
g5
tp396
a(S'escalation'
p397
S'escalation'
p398
S'NN'
p399
S'I-NP'
p400
g5
tp401
a(S'of'
p402
S'of'
p403
S'IN'
p404
S'B-PP'
p405
g5
tp406
a(S'imatinib'
p407
S'imatinib'
p408
S'NN'
p409
S'B-NP'
p410
g5
tp411
a(S'dosing'
p412
S'dosing'
p413
S'NN'
p414
S'I-NP'
p415
g5
tp416
a(S'to'
p417
S'to'
p418
S'TO'
p419
S'B-PP'
p420
g5
tp421
a(S'800'
p422
S'800'
p423
S'CD'
p424
S'B-NP'
p425
g5
tp426
a(S'mg/day'
p427
S'mg/day'
p428
S'NN'
p429
S'I-NP'
p430
g5
tp431
a(S'for'
p432
S'for'
p433
S'IN'
p434
S'B-PP'
p435
g5
tp436
a(S'patients'
p437
S'patient'
p438
S'NNS'
p439
S'B-NP'
p440
g5
tp441
a(S'with'
p442
S'with'
p443
S'IN'
p444
S'B-PP'
p445
g5
tp446
a(S'progressive'
p447
S'progressive'
p448
S'JJ'
p449
S'B-NP'
p450
g5
tp451
a(S'disease'
p452
S'disease'
p453
S'NN'
p454
S'I-NP'
p455
g5
tp456
a(S'on'
p457
S'on'
p458
S'IN'
p459
S'B-PP'
p460
g5
tp461
a(g126
g126
S'DT'
p462
S'B-NP'
p463
g5
tp464
a(S'lower'
p465
S'low'
p466
S'JJR'
p467
S'I-NP'
p468
g5
tp469
a(S'dose.'
p470
S'dose.'
p471
S'NN'
p472
S'I-NP'
p473
g5
tp474
a(S'Two'
p475
S'Two'
p476
S'CD'
p477
S'I-NP'
p478
g5
tp479
a(S'open-label'
p480
S'open-label'
p481
S'NN'
p482
S'I-NP'
p483
g5
tp484
a(g219
g219
g219
g5
g5
tp485
a(S'controlled'
p486
S'control'
p487
S'VBN'
p488
S'B-VP'
p489
g5
tp490
a(g219
g219
g219
g5
g5
tp491
a(S'multicenter'
p492
S'multicenter'
p493
S'NN'
p494
S'B-NP'
p495
g5
tp496
a(g219
g219
g219
g5
g5
tp497
a(S'intergroup'
p498
S'intergroup'
p499
S'NN'
p500
S'B-NP'
p501
g5
tp502
a(g219
g219
g219
g5
g5
tp503
a(S'international'
p504
S'international'
p505
S'JJ'
p506
S'B-ADJP'
p507
g5
tp508
a(g219
g219
g219
g5
g5
tp509
a(S'randomized'
p510
S'randomize'
p511
S'VBD'
p512
S'B-VP'
p513
g5
tp514
a(S'phase'
p515
S'phase'
p516
S'NN'
p517
S'B-NP'
p518
g5
tp519
a(S'III'
p520
S'III'
p521
S'CD'
p522
S'B-NP'
p523
g5
tp524
a(S'studies'
p525
S'study'
p526
S'NNS'
p527
S'I-NP'
p528
g5
tp529
a(S'were'
p530
S'be'
p531
S'VBD'
p532
S'B-VP'
p533
g5
tp534
a(S'submitted'
p535
S'submit'
p536
S'VBN'
p537
S'I-VP'
p538
g5
tp539
a(S'--'
p540
S'--'
p541
g12
g5
g5
tp542
a(S'one'
p543
S'one'
p544
S'CD'
p545
S'B-NP'
p546
g5
tp547
a(S'conducted'
p548
S'conduct'
p549
S'VBN'
p550
S'B-VP'
p551
g5
tp552
a(S'by'
p553
S'by'
p554
S'IN'
p555
S'B-PP'
p556
g5
tp557
a(S'the'
p558
S'the'
p559
S'DT'
p560
S'B-NP'
p561
g5
tp562
a(S'European'
p563
S'European'
p564
S'NNP'
p565
S'I-NP'
p566
g5
tp567
a(S'Organization'
p568
S'Organization'
p569
S'NNP'
p570
S'I-NP'
p571
g5
tp572
a(S'for'
p573
S'for'
p574
S'IN'
p575
S'B-PP'
p576
g5
tp577
a(S'Research'
p578
S'Research'
p579
S'NNP'
p580
S'B-NP'
p581
g5
tp582
a(S'and'
p583
S'and'
p584
S'CC'
p585
g5
g5
tp586
a(S'Treatment'
p587
S'Treatment'
p588
S'NN'
p589
S'B-NP'
p590
g5
tp591
a(S'of'
p592
S'of'
p593
S'IN'
p594
S'B-PP'
p595
g5
tp596
a(S'Cancer'
p597
S'Cancer'
p598
S'NN'
p599
S'B-NP'
p600
g5
tp601
a(g200
g200
g200
g5
g5
tp602
a(S'n'
p603
g603
S'NN'
p604
S'B-NP'
p605
g5
tp606
a(S'='
p607
g607
S'SYM'
p608
S'B-VP'
p609
g5
tp610
a(S'946'
p611
S'946'
p612
S'CD'
p613
S'B-NP'
p614
g5
tp615
a(g237
g237
g237
g5
g5
tp616
a(S'and'
p617
S'and'
p618
S'CC'
p619
g5
g5
tp620
a(S'the'
p621
S'the'
p622
S'DT'
p623
S'B-NP'
p624
g5
tp625
a(S'other'
p626
S'other'
p627
S'JJ'
p628
S'I-NP'
p629
g5
tp630
a(S'by'
p631
S'by'
p632
S'IN'
p633
S'B-PP'
p634
g5
tp635
a(S'the'
p636
S'the'
p637
S'DT'
p638
S'B-NP'
p639
g5
tp640
a(S'Southwest'
p641
S'Southwest'
p642
S'NNP'
p643
S'I-NP'
p644
g5
tp645
a(S'Oncology'
p646
S'Oncology'
p647
S'NNP'
p648
S'I-NP'
p649
g5
tp650
a(S'Group'
p651
S'Group'
p652
S'NNP'
p653
S'I-NP'
p654
g5
tp655
a(g200
g200
g200
g5
g5
tp656
a(g603
g603
S'NN'
p657
S'B-NP'
p658
g5
tp659
a(g607
g607
S'SYM'
p660
S'B-VP'
p661
g5
tp662
a(S'746'
p663
S'746'
p664
S'CD'
p665
S'B-NP'
p666
g5
tp667
a(g237
g237
g237
g5
g5
tp668
a(g79
g79
g79
g5
g5
tp669
a(S'These'
p670
S'These'
p671
S'DT'
p672
S'B-NP'
p673
g5
tp674
a(S'studies'
p675
S'study'
p676
S'NNS'
p677
S'I-NP'
p678
g5
tp679
a(S'compared'
p680
S'compare'
p681
S'VBD'
p682
S'B-VP'
p683
g5
tp684
a(S'400'
p685
S'400'
p686
S'CD'
p687
S'B-NP'
p688
g5
tp689
a(S'mg/day'
p690
S'mg/day'
p691
S'NN'
p692
S'I-NP'
p693
g5
tp694
a(S'of'
p695
S'of'
p696
S'IN'
p697
S'B-PP'
p698
g5
tp699
a(S'imatinib'
p700
S'imatinib'
p701
S'NN'
p702
S'B-NP'
p703
g5
tp704
a(S'with'
p705
S'with'
p706
S'IN'
p707
S'B-PP'
p708
g5
tp709
a(S'800'
p710
S'800'
p711
S'CD'
p712
S'B-NP'
p713
g5
tp714
a(S'mg/day'
p715
S'mg/day'
p716
S'NN'
p717
S'I-NP'
p718
g5
tp719
a(S'of'
p720
S'of'
p721
S'IN'
p722
S'B-PP'
p723
g5
tp724
a(S'imatinib.'
p725
S'imatinib.'
p726
S'NN'
p727
S'B-NP'
p728
g5
tp729
a(S'A'
p730
g730
S'NN'
p731
S'I-NP'
p732
g5
tp733
a(S'combined'
p734
S'combined'
p735
S'JJ'
p736
S'I-NP'
p737
g5
tp738
a(S'analysis'
p739
S'analysis'
p740
S'NN'
p741
S'I-NP'
p742
g5
tp743
a(S'of'
p744
S'of'
p745
S'IN'
p746
S'B-PP'
p747
g5
tp748
a(S'the'
p749
S'the'
p750
S'DT'
p751
S'B-NP'
p752
g5
tp753
a(S'two'
p754
S'two'
p755
S'CD'
p756
S'I-NP'
p757
g5
tp758
a(S'studies'
p759
S'study'
p760
S'NNS'
p761
S'I-NP'
p762
g5
tp763
a(S'was'
p764
S'be'
p765
S'VBD'
p766
S'B-VP'
p767
g5
tp768
a(S'prospectively'
p769
S'prospectively'
p770
S'RB'
p771
S'I-VP'
p772
g5
tp773
a(S'defined'
p774
S'define'
p775
S'VBN'
p776
S'I-VP'
p777
g5
tp778
a(S'and'
p779
S'and'
p780
S'CC'
p781
g5
g5
tp782
a(S'agreed'
p783
S'agree'
p784
S'VBN'
p785
S'B-VP'
p786
g5
tp787
a(S'to'
p788
S'to'
p789
S'TO'
p790
S'B-PP'
p791
g5
tp792
a(S'by'
p793
S'by'
p794
S'IN'
p795
S'B-PP'
p796
g5
tp797
a(S'both'
p798
S'both'
p799
S'DT'
p800
S'B-NP'
p801
g5
tp802
a(S'groups.'
p803
S'groups.'
p804
S'NNS'
p805
S'I-NP'
p806
g5
tp807
a(S'Both'
p808
S'Both'
p809
S'DT'
p810
S'B-NP'
p811
g5
tp812
a(S'protocols'
p813
S'protocol'
p814
S'NNS'
p815
S'I-NP'
p816
g5
tp817
a(S'allowed'
p818
S'allow'
p819
S'VBD'
p820
S'B-VP'
p821
g5
tp822
a(S'patients'
p823
S'patient'
p824
S'NNS'
p825
S'B-NP'
p826
g5
tp827
a(S'randomized'
p828
S'randomize'
p829
S'VBN'
p830
S'B-VP'
p831
g5
tp832
a(S'to'
p833
S'to'
p834
S'TO'
p835
S'B-PP'
p836
g5
tp837
a(S'the'
p838
S'the'
p839
S'DT'
p840
S'B-NP'
p841
g5
tp842
a(S'400-mg/day'
p843
S'400-mg/day'
p844
S'JJ'
p845
S'I-NP'
p846
g5
tp847
a(S'imatinib'
p848
S'imatinib'
p849
S'NN'
p850
S'I-NP'
p851
g5
tp852
a(S'arm'
p853
S'arm'
p854
S'NN'
p855
S'I-NP'
p856
g5
tp857
a(S'to'
p858
S'to'
p859
S'TO'
p860
S'B-VP'
p861
g5
tp862
a(S'cross'
p863
S'cross'
p864
S'VB'
p865
S'I-VP'
p866
g5
tp867
a(S'over'
p868
S'over'
p869
S'IN'
p870
S'B-NP'
p871
g5
tp872
a(S'to'
p873
S'to'
p874
S'TO'
p875
S'I-NP'
p876
g5
tp877
a(S'800'
p878
S'800'
p879
S'CD'
p880
S'I-NP'
p881
g5
tp882
a(S'mg/day'
p883
S'mg/day'
p884
S'NN'
p885
S'I-NP'
p886
g5
tp887
a(S'imatinib'
p888
S'imatinib'
p889
S'NN'
p890
S'I-NP'
p891
g5
tp892
a(S'at'
p893
S'at'
p894
S'IN'
p895
S'B-PP'
p896
g5
tp897
a(S'progression.'
p898
S'progression.'
p899
S'NN'
p900
S'B-NP'
p901
g5
tp902
a(S'Objective'
p903
S'Objective'
p904
S'JJ'
p905
S'I-NP'
p906
g5
tp907
a(S'responses'
p908
S'response'
p909
S'NNS'
p910
S'I-NP'
p911
g5
tp912
a(S'were'
p913
S'be'
p914
S'VBD'
p915
S'B-VP'
p916
g5
tp917
a(S'achieved'
p918
S'achieve'
p919
S'VBN'
p920
S'I-VP'
p921
g5
tp922
a(S'in'
p923
S'in'
p924
S'IN'
p925
S'B-PP'
p926
g5
tp927
a(S'>'
p928
g928
S'SYM'
p929
S'B-NP'
p930
g5
tp931
a(S'50'
p932
S'50'
p933
S'CD'
p934
S'B-NP'
p935
g5
tp936
a(S'%'
p937
g937
S'NN'
p938
S'I-NP'
p939
g5
tp940
a(S'of'
p941
S'of'
p942
S'IN'
p943
S'B-PP'
p944
g5
tp945
a(S'patients'
p946
S'patient'
p947
S'NNS'
p948
S'B-NP'
p949
g5
tp950
a(S'receiving'
p951
S'receive'
p952
S'VBG'
p953
S'B-VP'
p954
g5
tp955
a(S'either'
p956
S'either'
p957
S'CC'
p958
g5
g5
tp959
a(S'imatinib'
p960
S'imatinib'
p961
S'NN'
p962
S'B-NP'
p963
g5
tp964
a(S'dose.'
p965
S'dose.'
p966
S'NN'
p967
S'I-NP'
p968
g5
tp969
a(S'The'
p970
S'The'
p971
S'DT'
p972
S'B-NP'
p973
g5
tp974
a(S'median'
p975
S'median'
p976
S'JJ'
p977
S'I-NP'
p978
g5
tp979
a(S'progression-free'
p980
S'progression-free'
p981
S'JJ'
p982
S'I-NP'
p983
g5
tp984
a(S'survival'
p985
S'survival'
p986
S'NN'
p987
S'I-NP'
p988
g5
tp989
a(S'time'
p990
S'time'
p991
S'NN'
p992
S'I-NP'
p993
g5
tp994
a(S'was'
p995
S'be'
p996
S'VBD'
p997
S'B-VP'
p998
g5
tp999
a(S'approximately'
p1000
S'approximately'
p1001
S'RB'
p1002
S'B-NP'
p1003
g5
tp1004
a(S'20'
p1005
S'20'
p1006
S'CD'
p1007
S'I-NP'
p1008
g5
tp1009
a(S'months'
p1010
S'month'
p1011
S'NNS'
p1012
S'I-NP'
p1013
g5
tp1014
a(S'and'
p1015
S'and'
p1016
S'CC'
p1017
g5
g5
tp1018
a(S'the'
p1019
S'the'
p1020
S'DT'
p1021
S'B-NP'
p1022
g5
tp1023
a(S'median'
p1024
S'median'
p1025
S'JJ'
p1026
S'I-NP'
p1027
g5
tp1028
a(S'overall'
p1029
S'overall'
p1030
S'JJ'
p1031
S'I-NP'
p1032
g5
tp1033
a(S'survival'
p1034
S'survival'
p1035
S'NN'
p1036
S'I-NP'
p1037
g5
tp1038
a(g200
g200
g200
g5
g5
tp1039
a(S'OS'
p1040
S'OS'
p1041
S'NN'
p1042
S'B-NP'
p1043
g5
tp1044
a(g237
g237
g237
g5
g5
tp1045
a(S'time'
p1046
S'time'
p1047
S'NN'
p1048
S'B-NP'
p1049
g5
tp1050
a(S'was'
p1051
S'be'
p1052
S'VBD'
p1053
S'B-VP'
p1054
g5
tp1055
a(S'approximately'
p1056
S'approximately'
p1057
S'RB'
p1058
S'B-NP'
p1059
g5
tp1060
a(S'49'
p1061
S'49'
p1062
S'CD'
p1063
S'I-NP'
p1064
g5
tp1065
a(S'months.'
p1066
S'months.'
p1067
S'NNS'
p1068
S'I-NP'
p1069
g5
tp1070
a(S'In'
p1071
S'In'
p1072
S'IN'
p1073
S'B-PP'
p1074
g5
tp1075
a(S'the'
p1076
S'the'
p1077
S'DT'
p1078
S'B-NP'
p1079
g5
tp1080
a(S'combined'
p1081
S'combined'
p1082
S'JJ'
p1083
S'I-NP'
p1084
g5
tp1085
a(S'analysis'
p1086
S'analysis'
p1087
S'NN'
p1088
S'I-NP'
p1089
g5
tp1090
a(g219
g219
g219
g5
g5
tp1091
a(S'347'
p1092
S'347'
p1093
S'CD'
p1094
S'B-NP'
p1095
g5
tp1096
a(S'patients'
p1097
S'patient'
p1098
S'NNS'
p1099
S'I-NP'
p1100
g5
tp1101
a(S'crossed'
p1102
S'cross'
p1103
S'VBD'
p1104
S'B-VP'
p1105
g5
tp1106
a(S'over'
p1107
S'over'
p1108
S'RP'
p1109
S'B-PRT'
p1110
g5
tp1111
a(S'to'
p1112
S'to'
p1113
S'TO'
p1114
S'B-PP'
p1115
g5
tp1116
a(S'800'
p1117
S'800'
p1118
S'CD'
p1119
S'B-NP'
p1120
g5
tp1121
a(S'mg/day'
p1122
S'mg/day'
p1123
S'NN'
p1124
S'I-NP'
p1125
g5
tp1126
a(S'imatinib'
p1127
S'imatinib'
p1128
S'NN'
p1129
S'I-NP'
p1130
g5
tp1131
a(S'at'
p1132
S'at'
p1133
S'IN'
p1134
S'B-PP'
p1135
g5
tp1136
a(S'the'
p1137
S'the'
p1138
S'DT'
p1139
S'B-NP'
p1140
g5
tp1141
a(S'time'
p1142
S'time'
p1143
S'NN'
p1144
S'I-NP'
p1145
g5
tp1146
a(S'of'
p1147
S'of'
p1148
S'IN'
p1149
S'B-PP'
p1150
g5
tp1151
a(S'progression.'
p1152
S'progression.'
p1153
S'NN'
p1154
S'B-NP'
p1155
g5
tp1156
a(S'The'
p1157
S'The'
p1158
S'DT'
p1159
S'B-NP'
p1160
g5
tp1161
a(S'median'
p1162
S'median'
p1163
S'JJ'
p1164
S'I-NP'
p1165
g5
tp1166
a(S'OS'
p1167
S'OS'
p1168
S'NN'
p1169
S'I-NP'
p1170
g5
tp1171
a(S'time'
p1172
S'time'
p1173
S'NN'
p1174
S'I-NP'
p1175
g5
tp1176
a(S'after'
p1177
S'after'
p1178
S'IN'
p1179
S'B-SBAR'
p1180
g5
tp1181
a(S'crossover'
p1182
S'crossover'
p1183
S'NN'
p1184
S'B-NP'
p1185
g5
tp1186
a(S'was'
p1187
S'be'
p1188
S'VBD'
p1189
S'B-VP'
p1190
g5
tp1191
a(S'14.3'
p1192
S'14.3'
p1193
S'CD'
p1194
S'B-NP'
p1195
g5
tp1196
a(S'months.'
p1197
S'months.'
p1198
S'NNS'
p1199
S'I-NP'
p1200
g5
tp1201
a(S'The'
p1202
S'The'
p1203
S'DT'
p1204
S'B-NP'
p1205
g5
tp1206
a(S'most'
p1207
S'most'
p1208
S'RBS'
p1209
S'I-NP'
p1210
g5
tp1211
a(S'common'
p1212
S'common'
p1213
S'JJ'
p1214
S'I-NP'
p1215
g5
tp1216
a(S'adverse'
p1217
S'adverse'
p1218
S'JJ'
p1219
S'I-NP'
p1220
g5
tp1221
a(S'events'
p1222
S'event'
p1223
S'NNS'
p1224
S'I-NP'
p1225
g5
tp1226
a(g200
g200
g200
g5
g5
tp1227
a(S'AEs'
p1228
S'AE'
p1229
S'NNS'
p1230
S'B-NP'
p1231
g5
tp1232
a(g237
g237
g237
g5
g5
tp1233
a(S'were'
p1234
S'be'
p1235
S'VBD'
p1236
S'B-VP'
p1237
g5
tp1238
a(S'fluid'
p1239
S'fluid'
p1240
S'JJ'
p1241
S'B-NP'
p1242
g5
tp1243
a(S'retention'
p1244
S'retention'
p1245
S'NN'
p1246
S'I-NP'
p1247
g5
tp1248
a(g219
g219
g219
g5
g5
tp1249
a(S'nausea'
p1250
S'nausea'
p1251
S'NN'
p1252
S'B-NP'
p1253
g5
tp1254
a(g219
g219
g219
g5
g5
tp1255
a(S'fatigue'
p1256
S'fatigue'
p1257
S'NN'
p1258
S'B-NP'
p1259
g5
tp1260
a(g219
g219
g219
g5
g5
tp1261
a(S'skin'
p1262
S'skin'
p1263
S'NN'
p1264
S'B-NP'
p1265
g5
tp1266
a(S'rash'
p1267
S'rash'
p1268
S'NN'
p1269
S'I-NP'
p1270
g5
tp1271
a(g219
g219
g219
g5
g5
tp1272
a(S'gastrointestinal'
p1273
S'gastrointestinal'
p1274
S'JJ'
p1275
S'B-NP'
p1276
g5
tp1277
a(S'complaints'
p1278
S'complaint'
p1279
S'NNS'
p1280
S'I-NP'
p1281
g5
tp1282
a(g219
g219
g219
g5
g5
tp1283
a(S'and'
p1284
S'and'
p1285
S'CC'
p1286
g5
g5
tp1287
a(S'myalgia.'
p1288
S'myalgia.'
p1289
S'RB'
p1290
S'B-NP'
p1291
g5
tp1292
a(S'The'
p1293
S'The'
p1294
S'DT'
p1295
S'I-NP'
p1296
g5
tp1297
a(S'most'
p1298
S'most'
p1299
S'RBS'
p1300
S'I-NP'
p1301
g5
tp1302
a(S'common'
p1303
S'common'
p1304
S'JJ'
p1305
S'I-NP'
p1306
g5
tp1307
a(S'laboratory'
p1308
S'laboratory'
p1309
S'NN'
p1310
S'I-NP'
p1311
g5
tp1312
a(S'abnormality'
p1313
S'abnormality'
p1314
S'NN'
p1315
S'I-NP'
p1316
g5
tp1317
a(S'was'
p1318
S'be'
p1319
S'VBD'
p1320
S'B-VP'
p1321
g5
tp1322
a(S'anemia.'
p1323
S'anemia.'
p1324
S'RB'
p1325
S'B-ADVP'
p1326
g5
tp1327
a(S'Most'
p1328
S'Most'
p1329
S'JJS'
p1330
S'I-ADVP'
p1331
g5
tp1332
a(S'often'
p1333
S'often'
p1334
S'RB'
p1335
S'I-ADVP'
p1336
g5
tp1337
a(S'the'
p1338
S'the'
p1339
S'DT'
p1340
S'B-NP'
p1341
g5
tp1342
a(S'AEs'
p1343
S'AE'
p1344
S'NNS'
p1345
S'I-NP'
p1346
g5
tp1347
a(S'were'
p1348
S'be'
p1349
S'VBD'
p1350
S'B-VP'
p1351
g5
tp1352
a(S'of'
p1353
S'of'
p1354
S'IN'
p1355
S'B-PP'
p1356
g5
tp1357
a(S'mild-to-moderate'
p1358
S'mild-to-moderate'
p1359
S'JJ'
p1360
S'B-NP'
p1361
g5
tp1362
a(S'severity.'
p1363
S'severity.'
p1364
S'JJ'
p1365
S'I-NP'
p1366
g5
tp1367
a(S'Fluid'
p1368
S'Fluid'
p1369
S'NN'
p1370
S'I-NP'
p1371
g5
tp1372
a(S'retention'
p1373
S'retention'
p1374
S'NN'
p1375
S'I-NP'
p1376
g5
tp1377
a(S'events'
p1378
S'event'
p1379
S'NNS'
p1380
S'I-NP'
p1381
g5
tp1382
a(S'and'
p1383
S'and'
p1384
S'CC'
p1385
g5
g5
tp1386
a(S'skin'
p1387
S'skin'
p1388
S'NN'
p1389
S'B-NP'
p1390
g5
tp1391
a(S'rash'
p1392
S'rash'
p1393
S'NN'
p1394
S'I-NP'
p1395
g5
tp1396
a(S'were'
p1397
S'be'
p1398
S'VBD'
p1399
S'B-VP'
p1400
g5
tp1401
a(S'numerically'
p1402
S'numerically'
p1403
S'RB'
p1404
S'I-VP'
p1405
g5
tp1406
a(S'reported'
p1407
S'report'
p1408
S'VBN'
p1409
S'I-VP'
p1410
g5
tp1411
a(S'more'
p1412
S'more'
p1413
S'RBR'
p1414
S'B-ADVP'
p1415
g5
tp1416
a(S'often'
p1417
S'often'
p1418
S'RB'
p1419
S'I-ADVP'
p1420
g5
tp1421
a(S'in'
p1422
S'in'
p1423
S'IN'
p1424
S'B-PP'
p1425
g5
tp1426
a(S'the'
p1427
S'the'
p1428
S'DT'
p1429
S'B-NP'
p1430
g5
tp1431
a(S'800-mg/day'
p1432
S'800-mg/day'
p1433
S'JJ'
p1434
S'I-NP'
p1435
g5
tp1436
a(S'treatment'
p1437
S'treatment'
p1438
S'NN'
p1439
S'I-NP'
p1440
g5
tp1441
a(S'cohort'
p1442
S'cohort'
p1443
S'NN'
p1444
S'I-NP'
p1445
g5
tp1446
a(S'of'
p1447
S'of'
p1448
S'IN'
p1449
S'B-PP'
p1450
g5
tp1451
a(S'patients'
p1452
S'patient'
p1453
S'NNS'
p1454
S'B-NP'
p1455
g5
tp1456
a(g79
g79
g79
g5
g5
tp1457
a.