(lp0
(S'The'
p1
S'The'
p2
S'DT'
p3
S'B-NP'
p4
S'O'
p5
tp6
a(S'costs'
p7
S'cost'
p8
S'NNS'
p9
S'I-NP'
p10
g5
tp11
a(S'and'
p12
S'and'
p13
S'CC'
p14
S'I-NP'
p15
g5
tp16
a(S'effects'
p17
S'effect'
p18
S'NNS'
p19
S'I-NP'
p20
g5
tp21
a(S'of'
p22
S'of'
p23
S'IN'
p24
S'B-PP'
p25
g5
tp26
a(S'a'
p27
g27
S'DT'
p28
S'B-NP'
p29
g5
tp30
a(S'nutritional'
p31
S'nutritional'
p32
S'JJ'
p33
S'I-NP'
p34
g5
tp35
a(S'education'
p36
S'education'
p37
S'NN'
p38
S'I-NP'
p39
g5
tp40
a(S'program'
p41
S'program'
p42
S'NN'
p43
S'I-NP'
p44
g5
tp45
a(S'following'
p46
S'follow'
p47
S'VBG'
p48
S'B-PP'
p49
g5
tp50
a(S'work-site'
p51
S'work-site'
p52
S'JJ'
p53
S'B-NP'
p54
g5
tp55
a(S'cholesterol'
p56
S'cholesterol'
p57
S'NN'
p58
S'I-NP'
p59
g5
tp60
a(S'screening'
p61
S'screening'
p62
S'NN'
p63
S'I-NP'
p64
g5
tp65
a(S'.'
p66
g66
g66
g5
g5
tp67
a(S'OBJECTIVES'
p68
S'OBJECTIVES'
p69
S'NNS'
p70
S'B-NP'
p71
g5
tp72
a(S'The'
p73
S'The'
p74
S'DT'
p75
S'B-NP'
p76
g5
tp77
a(S'purpose'
p78
S'purpose'
p79
S'NN'
p80
S'I-NP'
p81
g5
tp82
a(S'of'
p83
S'of'
p84
S'IN'
p85
S'B-PP'
p86
g5
tp87
a(S'this'
p88
S'this'
p89
S'DT'
p90
S'B-NP'
p91
g5
tp92
a(S'study'
p93
S'study'
p94
S'NN'
p95
S'I-NP'
p96
g5
tp97
a(S'was'
p98
S'be'
p99
S'VBD'
p100
S'B-VP'
p101
g5
tp102
a(S'to'
p103
S'to'
p104
S'TO'
p105
S'B-VP'
p106
g5
tp107
a(S'assess'
p108
S'assess'
p109
S'VB'
p110
S'I-VP'
p111
g5
tp112
a(S'the'
p113
S'the'
p114
S'DT'
p115
S'B-NP'
p116
g5
tp117
a(S'costs'
p118
S'cost'
p119
S'NNS'
p120
S'I-NP'
p121
g5
tp122
a(S'and'
p123
S'and'
p124
S'CC'
p125
S'I-NP'
p126
g5
tp127
a(S'impact'
p128
S'impact'
p129
S'NN'
p130
S'I-NP'
p131
g5
tp132
a(S'of'
p133
S'of'
p134
S'IN'
p135
S'B-PP'
p136
g5
tp137
a(g27
g27
S'DT'
p138
S'B-NP'
p139
g5
tp140
a(S'nutrition'
p141
S'nutrition'
p142
S'NN'
p143
S'I-NP'
p144
g5
tp145
a(S'education'
p146
S'education'
p147
S'NN'
p148
S'I-NP'
p149
g5
tp150
a(S'program'
p151
S'program'
p152
S'NN'
p153
S'I-NP'
p154
g5
tp155
a(S'following'
p156
S'follow'
p157
S'VBG'
p158
S'B-PP'
p159
g5
tp160
a(g27
g27
S'DT'
p161
S'B-NP'
p162
g5
tp163
a(S'cholesterol'
p164
S'cholesterol'
p165
S'NN'
p166
S'I-NP'
p167
g5
tp168
a(S'screening'
p169
S'screening'
p170
S'NN'
p171
S'I-NP'
p172
g5
tp173
a(g66
g66
g66
g5
g5
tp174
a(S'METHODS'
p175
S'METHODS'
p176
S'NNS'
p177
S'B-NP'
p178
g5
tp179
a(S'Forty'
p180
S'Forty'
p181
S'CD'
p182
S'B-NP'
p183
g5
tp184
a(S'work-sites'
p185
S'work-site'
p186
S'NNS'
p187
S'I-NP'
p188
g5
tp189
a(S'were'
p190
S'be'
p191
S'VBD'
p192
S'B-VP'
p193
g5
tp194
a(S'randomly'
p195
S'randomly'
p196
S'RB'
p197
S'I-VP'
p198
g5
tp199
a(S'assigned'
p200
S'assign'
p201
S'VBN'
p202
S'I-VP'
p203
g5
tp204
a(S'to'
p205
S'to'
p206
S'TO'
p207
S'B-PP'
p208
g5
tp209
a(S'one'
p210
S'one'
p211
S'CD'
p212
S'B-NP'
p213
g5
tp214
a(S'of'
p215
S'of'
p216
S'IN'
p217
S'B-PP'
p218
g5
tp219
a(S'two'
p220
S'two'
p221
S'CD'
p222
S'B-NP'
p223
g5
tp224
a(S'educational'
p225
S'educational'
p226
S'JJ'
p227
S'I-NP'
p228
g5
tp229
a(S'interventions'
p230
S'intervention'
p231
S'NNS'
p232
S'I-NP'
p233
g5
tp234
a(S':'
p235
g235
g235
g5
g5
tp236
a(g27
g27
S'DT'
p237
S'B-NP'
p238
g5
tp239
a(S'``'
p240
S'``'
p241
S'``'
p242
S'I-NP'
p243
g5
tp244
a(S'usual'
p245
S'usual'
p246
S'JJ'
p247
S'I-NP'
p248
g5
tp249
a(S"''"
p250
S"''"
p251
S"''"
p252
S'I-NP'
p253
g5
tp254
a(S'intervention'
p255
S'intervention'
p256
S'NN'
p257
S'I-NP'
p258
g5
tp259
a(S'of'
p260
S'of'
p261
S'IN'
p262
S'B-PP'
p263
g5
tp264
a(S'5'
p265
g265
S'CD'
p266
S'B-NP'
p267
g5
tp268
a(S'minutes'
p269
S'minute'
p270
S'NNS'
p271
S'I-NP'
p272
g5
tp273
a(S'of'
p274
S'of'
p275
S'IN'
p276
S'B-PP'
p277
g5
tp278
a(S'counseling'
p279
S'counseling'
p280
S'NN'
p281
S'B-NP'
p282
g5
tp283
a(S','
p284
g284
g284
g5
g5
tp285
a(S'or'
p286
S'or'
p287
S'CC'
p288
g5
g5
tp289
a(g27
g27
S'DT'
p290
S'B-NP'
p291
g5
tp292
a(S'``'
p293
S'``'
p294
S'``'
p295
S'I-NP'
p296
g5
tp297
a(S'special'
p298
S'special'
p299
S'JJ'
p300
S'I-NP'
p301
g5
tp302
a(S"''"
p303
S"''"
p304
S"''"
p305
S'I-NP'
p306
g5
tp307
a(S'intervention'
p308
S'intervention'
p309
S'NN'
p310
S'I-NP'
p311
g5
tp312
a(S'of'
p313
S'of'
p314
S'IN'
p315
S'B-PP'
p316
g5
tp317
a(S'2'
p318
g318
S'CD'
p319
S'B-NP'
p320
g5
tp321
a(S'hours'
p322
S'hour'
p323
S'NNS'
p324
S'I-NP'
p325
g5
tp326
a(S'of'
p327
S'of'
p328
S'IN'
p329
S'B-PP'
p330
g5
tp331
a(S'behaviorally'
p332
S'behaviorally'
p333
S'RB'
p334
S'B-NP'
p335
g5
tp336
a(S'based'
p337
S'base'
p338
S'VBN'
p339
S'I-NP'
p340
g5
tp341
a(S'education'
p342
S'education'
p343
S'NN'
p344
S'I-NP'
p345
g5
tp346
a(S'on'
p347
S'on'
p348
S'IN'
p349
S'B-PP'
p350
g5
tp351
a(S'dietary'
p352
S'dietary'
p353
S'JJ'
p354
S'B-NP'
p355
g5
tp356
a(S'changes'
p357
S'change'
p358
S'NNS'
p359
S'I-NP'
p360
g5
tp361
a(S'to'
p362
S'to'
p363
S'TO'
p364
S'B-VP'
p365
g5
tp366
a(S'lower'
p367
S'lower'
p368
S'VB'
p369
S'I-VP'
p370
g5
tp371
a(S'serum'
p372
S'serum'
p373
S'NN'
p374
S'B-NP'
p375
g5
tp376
a(S'cholesterol.'
p377
S'cholesterol.'
p378
S'NN'
p379
S'I-NP'
p380
g5
tp381
a(S'Costs'
p382
S'Cost'
p383
S'NNS'
p384
S'I-NP'
p385
g5
tp386
a(S'were'
p387
S'be'
p388
S'VBD'
p389
S'B-VP'
p390
g5
tp391
a(S'monitored'
p392
S'monitor'
p393
S'VBN'
p394
S'I-VP'
p395
g5
tp396
a(g284
g284
g284
g5
g5
tp397
a(S'and'
p398
S'and'
p399
S'CC'
p400
g5
g5
tp401
a(S'cholesterol'
p402
S'cholesterol'
p403
S'NN'
p404
S'B-NP'
p405
g5
tp406
a(S'levels'
p407
S'level'
p408
S'NNS'
p409
S'I-NP'
p410
g5
tp411
a(S'were'
p412
S'be'
p413
S'VBD'
p414
S'B-VP'
p415
g5
tp416
a(S'retested'
p417
S'reteste'
p418
S'VBN'
p419
S'I-VP'
p420
g5
tp421
a(S'6'
p422
g422
S'CD'
p423
S'B-NP'
p424
g5
tp425
a(S'and'
p426
S'and'
p427
S'CC'
p428
S'I-NP'
p429
g5
tp430
a(S'12'
p431
S'12'
p432
S'CD'
p433
S'I-NP'
p434
g5
tp435
a(S'months'
p436
S'month'
p437
S'NNS'
p438
S'I-NP'
p439
g5
tp440
a(S'later'
p441
S'later'
p442
S'RB'
p443
S'B-ADVP'
p444
g5
tp445
a(g66
g66
g66
g5
g5
tp446
a(S'RESULTS'
p447
S'RESULTS'
p448
S'NNS'
p449
S'B-NP'
p450
g5
tp451
a(S'The'
p452
S'The'
p453
S'DT'
p454
S'B-NP'
p455
g5
tp456
a(S'total'
p457
S'total'
p458
S'JJ'
p459
S'I-NP'
p460
g5
tp461
a(S'per-person'
p462
S'per-person'
p463
S'NN'
p464
S'I-NP'
p465
g5
tp466
a(S'cost'
p467
S'cost'
p468
S'NN'
p469
S'I-NP'
p470
g5
tp471
a(S'for'
p472
S'for'
p473
S'IN'
p474
S'B-PP'
p475
g5
tp476
a(S'screening'
p477
S'screening'
p478
S'NN'
p479
S'B-NP'
p480
g5
tp481
a(S'and'
p482
S'and'
p483
S'CC'
p484
g5
g5
tp485
a(S'the'
p486
S'the'
p487
S'DT'
p488
S'B-NP'
p489
g5
tp490
a(S'educational'
p491
S'educational'
p492
S'JJ'
p493
S'I-NP'
p494
g5
tp495
a(S'intervention'
p496
S'intervention'
p497
S'NN'
p498
S'I-NP'
p499
g5
tp500
a(S'was'
p501
S'be'
p502
S'VBD'
p503
S'B-VP'
p504
g5
tp505
a(S'about'
p506
S'about'
p507
S'IN'
p508
S'B-NP'
p509
g5
tp510
a(S'$'
p511
g511
g511
S'I-NP'
p512
g5
tp513
a(S'50.'
p514
S'50.'
p515
S'CD'
p516
S'I-NP'
p517
g5
tp518
a(S'Cholesterol'
p519
S'Cholesterol'
p520
S'NN'
p521
S'I-NP'
p522
g5
tp523
a(S'levels'
p524
S'level'
p525
S'NNS'
p526
S'I-NP'
p527
g5
tp528
a(S'differed'
p529
S'differ'
p530
S'VBD'
p531
S'B-VP'
p532
g5
tp533
a(S'little'
p534
S'little'
p535
S'RB'
p536
S'B-ADVP'
p537
g5
tp538
a(S'between'
p539
S'between'
p540
S'IN'
p541
S'B-PP'
p542
g5
tp543
a(S'the'
p544
S'the'
p545
S'DT'
p546
S'B-NP'
p547
g5
tp548
a(S'two'
p549
S'two'
p550
S'CD'
p551
S'I-NP'
p552
g5
tp553
a(S'intervention'
p554
S'intervention'
p555
S'NN'
p556
S'I-NP'
p557
g5
tp558
a(S'groups'
p559
S'group'
p560
S'NNS'
p561
S'I-NP'
p562
g5
tp563
a(g422
g422
S'CD'
p564
S'B-NP'
p565
g5
tp566
a(S'months'
p567
S'month'
p568
S'NNS'
p569
S'I-NP'
p570
g5
tp571
a(S'after'
p572
S'after'
p573
S'IN'
p574
S'B-PP'
p575
g5
tp576
a(S'screening'
p577
S'screening'
p578
S'NN'
p579
S'B-NP'
p580
g5
tp581
a(g284
g284
g284
g5
g5
tp582
a(S'but'
p583
S'but'
p584
S'CC'
p585
g5
g5
tp586
a(S'after'
p587
S'after'
p588
S'IN'
p589
S'B-PP'
p590
g5
tp591
a(S'12'
p592
S'12'
p593
S'CD'
p594
S'B-NP'
p595
g5
tp596
a(S'months'
p597
S'month'
p598
S'NNS'
p599
S'I-NP'
p600
g5
tp601
a(S'those'
p602
S'those'
p603
S'DT'
p604
S'B-NP'
p605
g5
tp606
a(S'in'
p607
S'in'
p608
S'IN'
p609
S'B-PP'
p610
g5
tp611
a(S'the'
p612
S'the'
p613
S'DT'
p614
S'B-NP'
p615
g5
tp616
a(S'special'
p617
S'special'
p618
S'JJ'
p619
S'I-NP'
p620
g5
tp621
a(S'intervention'
p622
S'intervention'
p623
S'NN'
p624
S'I-NP'
p625
g5
tp626
a(S'worksites'
p627
S'worksite'
p628
S'NNS'
p629
S'I-NP'
p630
g5
tp631
a(S'showed'
p632
S'show'
p633
S'VBD'
p634
S'B-VP'
p635
g5
tp636
a(g27
g27
S'DT'
p637
S'B-NP'
p638
g5
tp639
a(S'6.5'
p640
S'6.5'
p641
S'CD'
p642
S'I-NP'
p643
g5
tp644
a(S'%'
p645
g645
S'NN'
p646
S'I-NP'
p647
g5
tp648
a(S'drop'
p649
S'drop'
p650
S'NN'
p651
S'I-NP'
p652
g5
tp653
a(S'in'
p654
S'in'
p655
S'IN'
p656
S'B-PP'
p657
g5
tp658
a(S'cholesterol'
p659
S'cholesterol'
p660
S'NN'
p661
S'B-NP'
p662
g5
tp663
a(g284
g284
g284
g5
g5
tp664
a(S'whereas'
p665
S'whereas'
p666
S'IN'
p667
g5
g5
tp668
a(S'those'
p669
S'those'
p670
S'DT'
p671
S'B-NP'
p672
g5
tp673
a(S'at'
p674
S'at'
p675
S'IN'
p676
S'B-PP'
p677
g5
tp678
a(S'the'
p679
S'the'
p680
S'DT'
p681
S'B-NP'
p682
g5
tp683
a(S'usual'
p684
S'usual'
p685
S'JJ'
p686
S'I-NP'
p687
g5
tp688
a(S'intervention'
p689
S'intervention'
p690
S'NN'
p691
S'I-NP'
p692
g5
tp693
a(S'worksites'
p694
S'worksite'
p695
S'NNS'
p696
S'I-NP'
p697
g5
tp698
a(S'showed'
p699
S'show'
p700
S'VBD'
p701
S'B-VP'
p702
g5
tp703
a(g27
g27
S'DT'
p704
S'B-NP'
p705
g5
tp706
a(S'drop'
p707
S'drop'
p708
S'NN'
p709
S'I-NP'
p710
g5
tp711
a(S'of'
p712
S'of'
p713
S'IN'
p714
S'B-PP'
p715
g5
tp716
a(S'only'
p717
S'only'
p718
S'RB'
p719
S'B-NP'
p720
g5
tp721
a(S'3.0'
p722
S'3.0'
p723
S'CD'
p724
S'I-NP'
p725
g5
tp726
a(g645
g645
S'NN'
p727
S'I-NP'
p728
g5
tp729
a(g66
g66
g66
g5
g5
tp730
a(S'Hence'
p731
S'Hence'
p732
S'RB'
p733
S'B-ADVP'
p734
g5
tp735
a(g27
g27
S'DT'
p736
S'B-NP'
p737
g5
tp738
a(S'3.5'
p739
S'3.5'
p740
S'CD'
p741
S'I-NP'
p742
g5
tp743
a(g645
g645
S'NN'
p744
S'I-NP'
p745
g5
tp746
a(S'cholesterol'
p747
S'cholesterol'
p748
S'NN'
p749
S'I-NP'
p750
g5
tp751
a(S'reduction'
p752
S'reduction'
p753
S'NN'
p754
S'I-NP'
p755
g5
tp756
a(S'was'
p757
S'be'
p758
S'VBD'
p759
S'B-VP'
p760
g5
tp761
a(S'attributable'
p762
S'attributable'
p763
S'JJ'
p764
S'B-ADJP'
p765
g5
tp766
a(S'to'
p767
S'to'
p768
S'TO'
p769
S'B-PP'
p770
g5
tp771
a(S'the'
p772
S'the'
p773
S'DT'
p774
S'B-NP'
p775
g5
tp776
a(S'special'
p777
S'special'
p778
S'JJ'
p779
S'I-NP'
p780
g5
tp781
a(S'intervention'
p782
S'intervention'
p783
S'NN'
p784
S'I-NP'
p785
g5
tp786
a(g66
g66
g66
g5
g5
tp787
a(S'CONCLUSIONS'
p788
S'CONCLUSIONS'
p789
S'NNS'
p790
S'B-NP'
p791
g5
tp792
a(S'A'
p793
g793
S'DT'
p794
S'B-NP'
p795
g5
tp796
a(S'behaviorally'
p797
S'behaviorally'
p798
S'RB'
p799
S'I-NP'
p800
g5
tp801
a(S'based'
p802
S'base'
p803
S'VBN'
p804
S'I-NP'
p805
g5
tp806
a(S'nutrition'
p807
S'nutrition'
p808
S'NN'
p809
S'I-NP'
p810
g5
tp811
a(S'education'
p812
S'education'
p813
S'NN'
p814
S'I-NP'
p815
g5
tp816
a(S'program'
p817
S'program'
p818
S'NN'
p819
S'I-NP'
p820
g5
tp821
a(S'following'
p822
S'follow'
p823
S'VBG'
p824
S'B-PP'
p825
g5
tp826
a(S'cholesterol'
p827
S'cholesterol'
p828
S'NN'
p829
S'B-NP'
p830
g5
tp831
a(S'screening'
p832
S'screening'
p833
S'NN'
p834
S'I-NP'
p835
g5
tp836
a(S'can'
p837
S'can'
p838
S'MD'
p839
S'B-VP'
p840
g5
tp841
a(S'have'
p842
S'have'
p843
S'VB'
p844
S'I-VP'
p845
g5
tp846
a(g27
g27
S'DT'
p847
S'B-NP'
p848
g5
tp849
a(S'meaningful'
p850
S'meaningful'
p851
S'JJ'
p852
S'I-NP'
p853
g5
tp854
a(S'impact'
p855
S'impact'
p856
S'NN'
p857
S'I-NP'
p858
g5
tp859
a(S'on'
p860
S'on'
p861
S'IN'
p862
S'B-PP'
p863
g5
tp864
a(S'long-term'
p865
S'long-term'
p866
S'JJ'
p867
S'B-NP'
p868
g5
tp869
a(S'cholesterol'
p870
S'cholesterol'
p871
S'NN'
p872
S'I-NP'
p873
g5
tp874
a(S'levels'
p875
S'level'
p876
S'NNS'
p877
S'I-NP'
p878
g5
tp879
a(S'at'
p880
S'at'
p881
S'IN'
p882
S'B-PP'
p883
g5
tp884
a(g27
g27
S'DT'
p885
S'B-NP'
p886
g5
tp887
a(S'low'
p888
S'low'
p889
S'JJ'
p890
S'I-NP'
p891
g5
tp892
a(S'cost.'
p893
S'cost.'
p894
S'NN'
p895
S'I-NP'
p896
g5
tp897
a(S'Nutrition'
p898
S'Nutrition'
p899
S'NN'
p900
S'I-NP'
p901
g5
tp902
a(S'education'
p903
S'education'
p904
S'NN'
p905
S'I-NP'
p906
g5
tp907
a(S'in'
p908
S'in'
p909
S'IN'
p910
S'B-PP'
p911
g5
tp912
a(S'work-sites'
p913
S'work-site'
p914
S'NNS'
p915
S'B-NP'
p916
g5
tp917
a(S'may'
p918
S'may'
p919
S'MD'
p920
S'B-VP'
p921
g5
tp922
a(S'therefore'
p923
S'therefore'
p924
S'RB'
p925
S'I-VP'
p926
g5
tp927
a(S'be'
p928
S'be'
p929
S'VB'
p930
S'I-VP'
p931
g5
tp932
a(g27
g27
S'DT'
p933
S'B-NP'
p934
g5
tp935
a(S'useful'
p936
S'useful'
p937
S'JJ'
p938
S'I-NP'
p939
g5
tp940
a(S'way'
p941
S'way'
p942
S'NN'
p943
S'I-NP'
p944
g5
tp945
a(S'to'
p946
S'to'
p947
S'TO'
p948
S'B-VP'
p949
g5
tp950
a(S'lower'
p951
S'lower'
p952
S'VB'
p953
S'I-VP'
p954
g5
tp955
a(S'the'
p956
S'the'
p957
S'DT'
p958
S'B-NP'
p959
g5
tp960
a(S'risk'
p961
S'risk'
p962
S'NN'
p963
S'I-NP'
p964
g5
tp965
a(S'of'
p966
S'of'
p967
S'IN'
p968
S'B-PP'
p969
g5
tp970
a(S'heart'
p971
S'heart'
p972
S'NN'
p973
S'B-NP'
p974
g5
tp975
a(S'disease'
p976
S'disease'
p977
S'NN'
p978
S'I-NP'
p979
g5
tp980
a(S'in'
p981
S'in'
p982
S'IN'
p983
S'B-PP'
p984
g5
tp985
a(S'communities'
p986
S'community'
p987
S'NNS'
p988
S'B-NP'
p989
g5
tp990
a(g66
g66
g66
g5
g5
tp991
a.