(lp0
(S'Chemoradiotherapy'
p1
S'Chemoradiotherapy'
p2
S'NN'
p3
S'B-NP'
p4
S'O'
p5
tp6
a(S'with'
p7
S'with'
p8
S'IN'
p9
S'B-PP'
p10
g5
tp11
a(S'concurrent'
p12
S'concurrent'
p13
S'JJ'
p14
S'B-NP'
p15
g5
tp16
a(S'gemcitabine'
p17
S'gemcitabine'
p18
S'NN'
p19
S'I-NP'
p20
g5
tp21
a(S'and'
p22
S'and'
p23
S'CC'
p24
S'I-NP'
p25
g5
tp26
a(S'cisplatin'
p27
S'cisplatin'
p28
S'NN'
p29
S'I-NP'
p30
g5
tp31
a(S'with'
p32
S'with'
p33
S'IN'
p34
S'B-PP'
p35
g5
tp36
a(S'or'
p37
S'or'
p38
S'CC'
p39
S'B-PP'
p40
g5
tp41
a(S'without'
p42
S'without'
p43
S'IN'
p44
S'B-PP'
p45
g5
tp46
a(S'sequential'
p47
S'sequential'
p48
S'JJ'
p49
S'B-NP'
p50
g5
tp51
a(S'chemotherapy'
p52
S'chemotherapy'
p53
S'NN'
p54
S'I-NP'
p55
g5
tp56
a(S'with'
p57
S'with'
p58
S'IN'
p59
S'B-PP'
p60
g5
tp61
a(S'gemcitabine/cisplatin'
p62
S'gemcitabine/cisplatin'
p63
S'NN'
p64
S'B-NP'
p65
g5
tp66
a(S'vs'
p67
S'vs'
p68
S'CC'
p69
S'I-NP'
p70
g5
tp71
a(S'chemoradiotherapy'
p72
S'chemoradiotherapy'
p73
S'NN'
p74
S'I-NP'
p75
g5
tp76
a(S'with'
p77
S'with'
p78
S'IN'
p79
S'B-PP'
p80
g5
tp81
a(S'concurrent'
p82
S'concurrent'
p83
S'JJ'
p84
S'B-NP'
p85
g5
tp86
a(S'5-fluorouracil'
p87
S'5-fluorouracil'
p88
S'NN'
p89
S'I-NP'
p90
g5
tp91
a(S'in'
p92
S'in'
p93
S'IN'
p94
S'B-PP'
p95
g5
tp96
a(S'patients'
p97
S'patient'
p98
S'NNS'
p99
S'B-NP'
p100
g5
tp101
a(S'with'
p102
S'with'
p103
S'IN'
p104
S'B-PP'
p105
g5
tp106
a(S'locally'
p107
S'locally'
p108
S'RB'
p109
S'B-NP'
p110
g5
tp111
a(S'advanced'
p112
S'advance'
p113
S'VBN'
p114
S'I-NP'
p115
g5
tp116
a(S'pancreatic'
p117
S'pancreatic'
p118
S'JJ'
p119
S'I-NP'
p120
g5
tp121
a(S'cancer'
p122
S'cancer'
p123
S'NN'
p124
S'I-NP'
p125
g5
tp126
a(S'--'
p127
S'--'
p128
S':'
p129
g5
g5
tp130
a(S'a'
p131
g131
S'DT'
p132
S'B-NP'
p133
g5
tp134
a(S'multi-centre'
p135
S'multi-centre'
p136
S'JJ'
p137
S'I-NP'
p138
g5
tp139
a(S'randomised'
p140
S'randomise'
p141
S'VBN'
p142
S'I-NP'
p143
g5
tp144
a(S'phase'
p145
S'phase'
p146
S'NN'
p147
S'I-NP'
p148
g5
tp149
a(S'II'
p150
S'II'
p151
S'CD'
p152
S'I-NP'
p153
g5
tp154
a(S'study'
p155
S'study'
p156
S'NN'
p157
S'I-NP'
p158
g5
tp159
a(S'.'
p160
g160
g160
g5
g5
tp161
a(S'BACKGROUND'
p162
S'BACKGROUND'
p163
S'NN'
p164
S'B-NP'
p165
g5
tp166
a(S'No'
p167
S'No'
p168
S'DT'
p169
S'B-NP'
p170
g5
tp171
a(S'standard'
p172
S'standard'
p173
S'JJ'
p174
S'I-NP'
p175
g5
tp176
a(S'treatment'
p177
S'treatment'
p178
S'NN'
p179
S'I-NP'
p180
g5
tp181
a(S'for'
p182
S'for'
p183
S'IN'
p184
S'B-PP'
p185
g5
tp186
a(S'locally'
p187
S'locally'
p188
S'RB'
p189
S'B-NP'
p190
g5
tp191
a(S'advanced'
p192
S'advance'
p193
S'VBN'
p194
S'I-NP'
p195
g5
tp196
a(S'pancreatic'
p197
S'pancreatic'
p198
S'JJ'
p199
S'I-NP'
p200
g5
tp201
a(S'cancer'
p202
S'cancer'
p203
S'NN'
p204
S'I-NP'
p205
g5
tp206
a(S'('
p207
g207
g207
g5
g5
tp208
a(S'LAPC'
p209
S'LAPC'
p210
S'NN'
p211
S'B-NP'
p212
S'B-protein'
p213
tp214
a(S')'
p215
g215
g215
g5
g5
tp216
a(S'is'
p217
S'be'
p218
S'VBZ'
p219
S'B-VP'
p220
g5
tp221
a(S'defined'
p222
S'define'
p223
S'VBN'
p224
S'I-VP'
p225
g5
tp226
a(g160
g160
g160
g5
g5
tp227
a(S'PATIENTS'
p228
S'PATIENTS'
p229
S'NNS'
p230
S'B-NP'
p231
g5
tp232
a(S'AND'
p233
S'AND'
p234
S'CC'
p235
S'I-NP'
p236
g5
tp237
a(S'METHODS'
p238
S'METHODS'
p239
S'NNS'
p240
S'I-NP'
p241
g5
tp242
a(S'Within'
p243
S'Within'
p244
S'IN'
p245
S'B-PP'
p246
g5
tp247
a(g131
g131
S'DT'
p248
S'B-NP'
p249
g5
tp250
a(S'multi-centre'
p251
S'multi-centre'
p252
S'JJ'
p253
S'I-NP'
p254
g5
tp255
a(S','
p256
g256
g256
g5
g5
tp257
a(S'randomised'
p258
S'randomise'
p259
S'VBD'
p260
S'B-VP'
p261
g5
tp262
a(S'phase'
p263
S'phase'
p264
S'NN'
p265
S'B-NP'
p266
g5
tp267
a(S'II'
p268
S'II'
p269
S'CD'
p270
S'I-NP'
p271
g5
tp272
a(S'trial'
p273
S'trial'
p274
S'NN'
p275
S'I-NP'
p276
g5
tp277
a(g256
g256
g256
g5
g5
tp278
a(S'95'
p279
S'95'
p280
S'CD'
p281
S'B-NP'
p282
g5
tp283
a(S'patients'
p284
S'patient'
p285
S'NNS'
p286
S'I-NP'
p287
g5
tp288
a(S'with'
p289
S'with'
p290
S'IN'
p291
S'B-PP'
p292
g5
tp293
a(S'LAPC'
p294
S'LAPC'
p295
S'NN'
p296
S'B-NP'
p297
S'B-cell_type'
p298
tp299
a(S'were'
p300
S'be'
p301
S'VBD'
p302
S'B-VP'
p303
g5
tp304
a(S'assigned'
p305
S'assign'
p306
S'VBN'
p307
S'I-VP'
p308
g5
tp309
a(S'to'
p310
S'to'
p311
S'TO'
p312
S'B-PP'
p313
g5
tp314
a(S'three'
p315
S'three'
p316
S'CD'
p317
S'B-NP'
p318
g5
tp319
a(S'different'
p320
S'different'
p321
S'JJ'
p322
S'I-NP'
p323
g5
tp324
a(S'chemoradiotherapy'
p325
S'chemoradiotherapy'
p326
S'NN'
p327
S'I-NP'
p328
g5
tp329
a(g207
g207
g207
g5
g5
tp330
a(S'CRT'
p331
S'CRT'
p332
S'NN'
p333
S'B-NP'
p334
g5
tp335
a(g215
g215
g215
g5
g5
tp336
a(S'regimens'
p337
S'regimen'
p338
S'NNS'
p339
S'B-NP'
p340
g5
tp341
a(g129
g129
g129
g5
g5
tp342
a(S'patients'
p343
S'patient'
p344
S'NNS'
p345
S'B-NP'
p346
g5
tp347
a(S'received'
p348
S'receive'
p349
S'VBD'
p350
S'B-VP'
p351
g5
tp352
a(S'conventionally'
p353
S'conventionally'
p354
S'RB'
p355
S'B-NP'
p356
g5
tp357
a(S'fractionated'
p358
S'fractionate'
p359
S'VBN'
p360
S'I-NP'
p361
g5
tp362
a(S'radiotherapy'
p363
S'radiotherapy'
p364
S'NN'
p365
S'I-NP'
p366
g5
tp367
a(S'of'
p368
S'of'
p369
S'IN'
p370
S'B-PP'
p371
g5
tp372
a(S'50'
p373
S'50'
p374
S'CD'
p375
S'B-NP'
p376
g5
tp377
a(S'Gy'
p378
S'Gy'
p379
S'NN'
p380
S'I-NP'
p381
g5
tp382
a(S'and'
p383
S'and'
p384
S'CC'
p385
g5
g5
tp386
a(S'were'
p387
S'be'
p388
S'VBD'
p389
S'B-VP'
p390
g5
tp391
a(S'randomised'
p392
S'randomise'
p393
S'VBN'
p394
S'I-VP'
p395
g5
tp396
a(S'to'
p397
S'to'
p398
S'TO'
p399
S'B-PP'
p400
g5
tp401
a(S'concurrent'
p402
S'concurrent'
p403
S'JJ'
p404
S'B-NP'
p405
g5
tp406
a(S'5-fluorouracil'
p407
S'5-fluorouracil'
p408
S'NN'
p409
S'I-NP'
p410
g5
tp411
a(g207
g207
g207
g5
g5
tp412
a(S'350'
p413
S'350'
p414
S'CD'
p415
S'B-NP'
p416
g5
tp417
a(S'mg'
p418
S'mg'
p419
S'NN'
p420
S'I-NP'
p421
g5
tp422
a(S'm'
p423
g423
S'NN'
p424
S'I-NP'
p425
g5
tp426
a(g207
g207
g207
g5
g5
tp427
a(S'-2'
p428
S'-2'
p429
S'CD'
p430
S'B-NP'
p431
g5
tp432
a(g215
g215
g215
g5
g5
tp433
a(S'per'
p434
S'per'
p435
S'IN'
p436
S'B-PP'
p437
g5
tp438
a(S'day'
p439
S'day'
p440
S'NN'
p441
S'B-NP'
p442
g5
tp443
a(S'on'
p444
S'on'
p445
S'IN'
p446
S'B-PP'
p447
g5
tp448
a(S'each'
p449
S'each'
p450
S'DT'
p451
S'B-NP'
p452
g5
tp453
a(S'day'
p454
S'day'
p455
S'NN'
p456
S'I-NP'
p457
g5
tp458
a(S'of'
p459
S'of'
p460
S'IN'
p461
S'B-PP'
p462
g5
tp463
a(S'radiotherapy'
p464
S'radiotherapy'
p465
S'NN'
p466
S'B-NP'
p467
g5
tp468
a(g256
g256
g256
g5
g5
tp469
a(S'RT-5-FU'
p470
S'RT-5-FU'
p471
S'NN'
p472
S'B-NP'
p473
g5
tp474
a(S'arm'
p475
S'arm'
p476
S'NN'
p477
S'I-NP'
p478
g5
tp479
a(g215
g215
g215
g5
g5
tp480
a(g256
g256
g256
g5
g5
tp481
a(S'concurrent'
p482
S'concurrent'
p483
S'JJ'
p484
S'B-NP'
p485
g5
tp486
a(S'gemcitabine'
p487
S'gemcitabine'
p488
S'NN'
p489
S'I-NP'
p490
g5
tp491
a(g207
g207
g207
g5
g5
tp492
a(S'300'
p493
S'300'
p494
S'CD'
p495
S'B-NP'
p496
g5
tp497
a(S'mg'
p498
S'mg'
p499
S'NN'
p500
S'I-NP'
p501
g5
tp502
a(g423
g423
S'NN'
p503
S'I-NP'
p504
g5
tp505
a(g207
g207
g207
g5
g5
tp506
a(S'-2'
p507
S'-2'
p508
S'CD'
p509
S'B-NP'
p510
g5
tp511
a(g215
g215
g215
g5
g5
tp512
a(g215
g215
g215
g5
g5
tp513
a(g256
g256
g256
g5
g5
tp514
a(S'and'
p515
S'and'
p516
S'CC'
p517
g5
g5
tp518
a(S'cisplatin'
p519
S'cisplatin'
p520
S'NN'
p521
S'B-NP'
p522
g5
tp523
a(g207
g207
g207
g5
g5
tp524
a(S'30'
p525
S'30'
p526
S'CD'
p527
S'B-NP'
p528
g5
tp529
a(S'mg'
p530
S'mg'
p531
S'NN'
p532
S'I-NP'
p533
g5
tp534
a(g423
g423
S'NN'
p535
S'I-NP'
p536
g5
tp537
a(g207
g207
g207
g5
g5
tp538
a(S'-2'
p539
S'-2'
p540
S'CD'
p541
S'B-NP'
p542
g5
tp543
a(g215
g215
g215
g5
g5
tp544
a(g215
g215
g215
g5
g5
tp545
a(S'on'
p546
S'on'
p547
S'IN'
p548
S'B-PP'
p549
g5
tp550
a(S'days'
p551
S'day'
p552
S'NNS'
p553
S'B-NP'
p554
g5
tp555
a(S'1'
p556
g556
S'CD'
p557
S'I-NP'
p558
g5
tp559
a(g256
g256
g256
S'I-NP'
p560
g5
tp561
a(S'8'
p562
g562
S'CD'
p563
S'I-NP'
p564
g5
tp565
a(g256
g256
g256
S'I-NP'
p566
g5
tp567
a(S'22'
p568
S'22'
p569
S'CD'
p570
S'I-NP'
p571
g5
tp572
a(g256
g256
g256
g5
g5
tp573
a(S'and'
p574
S'and'
p575
S'CC'
p576
g5
g5
tp577
a(S'29'
p578
S'29'
p579
S'CD'
p580
S'B-NP'
p581
g5
tp582
a(g207
g207
g207
g5
g5
tp583
a(S'RT-GC'
p584
S'RT-GC'
p585
S'NN'
p586
S'B-NP'
p587
S'B-protein'
p588
tp589
a(S'arm'
p590
S'arm'
p591
S'NN'
p592
S'I-NP'
p593
S'I-protein'
p594
tp595
a(g215
g215
g215
g5
g5
tp596
a(g256
g256
g256
g5
g5
tp597
a(S'or'
p598
S'or'
p599
S'CC'
p600
g5
g5
tp601
a(S'the'
p602
S'the'
p603
S'DT'
p604
S'B-NP'
p605
g5
tp606
a(S'same'
p607
S'same'
p608
S'JJ'
p609
S'I-NP'
p610
g5
tp611
a(S'concurrent'
p612
S'concurrent'
p613
S'JJ'
p614
S'I-NP'
p615
g5
tp616
a(S'treatment'
p617
S'treatment'
p618
S'NN'
p619
S'I-NP'
p620
g5
tp621
a(S'followed'
p622
S'follow'
p623
S'VBN'
p624
S'B-VP'
p625
g5
tp626
a(S'by'
p627
S'by'
p628
S'IN'
p629
S'B-PP'
p630
g5
tp631
a(S'sequential'
p632
S'sequential'
p633
S'JJ'
p634
S'B-NP'
p635
g5
tp636
a(S'full-dose'
p637
S'full-dose'
p638
S'JJ'
p639
S'I-NP'
p640
g5
tp641
a(S'gemcitabine'
p642
S'gemcitabine'
p643
S'NN'
p644
S'I-NP'
p645
g5
tp646
a(g207
g207
g207
g5
g5
tp647
a(S'1000'
p648
S'1000'
p649
S'CD'
p650
S'B-NP'
p651
g5
tp652
a(S'mg'
p653
S'mg'
p654
S'NN'
p655
S'I-NP'
p656
g5
tp657
a(g423
g423
S'NN'
p658
S'I-NP'
p659
g5
tp660
a(g207
g207
g207
g5
g5
tp661
a(S'-2'
p662
S'-2'
p663
S'CD'
p664
S'B-NP'
p665
g5
tp666
a(g215
g215
g215
g5
g5
tp667
a(g215
g215
g215
g5
g5
tp668
a(S'and'
p669
S'and'
p670
S'CC'
p671
g5
g5
tp672
a(S'cisplatin'
p673
S'cisplatin'
p674
S'NN'
p675
S'B-NP'
p676
g5
tp677
a(g207
g207
g207
g5
g5
tp678
a(S'50'
p679
S'50'
p680
S'CD'
p681
S'B-NP'
p682
g5
tp683
a(S'mg'
p684
S'mg'
p685
S'NN'
p686
S'I-NP'
p687
g5
tp688
a(g423
g423
S'NN'
p689
S'I-NP'
p690
g5
tp691
a(g207
g207
g207
g5
g5
tp692
a(S'-2'
p693
S'-2'
p694
S'CD'
p695
S'B-NP'
p696
g5
tp697
a(g215
g215
g215
g5
g5
tp698
a(g215
g215
g215
g5
g5
tp699
a(S'every'
p700
S'every'
p701
S'DT'
p702
S'B-NP'
p703
g5
tp704
a(S'2'
p705
g705
S'CD'
p706
S'I-NP'
p707
g5
tp708
a(S'weeks'
p709
S'week'
p710
S'NNS'
p711
S'I-NP'
p712
g5
tp713
a(g207
g207
g207
g5
g5
tp714
a(S'RT-GC+GC'
p715
S'RT-GC+GC'
p716
S'NN'
p717
S'B-NP'
p718
g5
tp719
a(S'arm'
p720
S'arm'
p721
S'NN'
p722
S'I-NP'
p723
g5
tp724
a(g215
g215
g215
g5
g5
tp725
a(g160
g160
g160
g5
g5
tp726
a(S'Primary'
p727
S'Primary'
p728
S'JJ'
p729
S'B-NP'
p730
g5
tp731
a(S'end'
p732
S'end'
p733
S'NN'
p734
S'I-NP'
p735
g5
tp736
a(S'point'
p737
S'point'
p738
S'NN'
p739
S'I-NP'
p740
g5
tp741
a(S'was'
p742
S'be'
p743
S'VBD'
p744
S'B-VP'
p745
g5
tp746
a(S'the'
p747
S'the'
p748
S'DT'
p749
S'B-NP'
p750
g5
tp751
a(S'overall'
p752
S'overall'
p753
S'JJ'
p754
S'I-NP'
p755
g5
tp756
a(S'survival'
p757
S'survival'
p758
S'NN'
p759
S'I-NP'
p760
g5
tp761
a(g207
g207
g207
g5
g5
tp762
a(S'OS'
p763
S'OS'
p764
S'NN'
p765
S'B-NP'
p766
g5
tp767
a(g215
g215
g215
g5
g5
tp768
a(S'rate'
p769
S'rate'
p770
S'NN'
p771
S'B-NP'
p772
g5
tp773
a(S'after'
p774
S'after'
p775
S'IN'
p776
S'B-PP'
p777
g5
tp778
a(S'9'
p779
g779
S'CD'
p780
S'B-NP'
p781
g5
tp782
a(S'months'
p783
S'month'
p784
S'NNS'
p785
S'I-NP'
p786
g5
tp787
a(g160
g160
g160
g5
g5
tp788
a(S'RESULTS'
p789
S'RESULTS'
p790
S'NNS'
p791
S'B-NP'
p792
g5
tp793
a(S'The'
p794
S'The'
p795
S'DT'
p796
S'B-NP'
p797
g5
tp798
a(S'9-month'
p799
S'9-month'
p800
S'JJ'
p801
S'I-NP'
p802
g5
tp803
a(S'OS'
p804
S'OS'
p805
S'NN'
p806
S'I-NP'
p807
g5
tp808
a(S'rate'
p809
S'rate'
p810
S'NN'
p811
S'I-NP'
p812
g5
tp813
a(S'was'
p814
S'be'
p815
S'VBD'
p816
S'B-VP'
p817
g5
tp818
a(S'58'
p819
S'58'
p820
S'CD'
p821
S'B-NP'
p822
g5
tp823
a(S'%'
p824
g824
S'NN'
p825
S'I-NP'
p826
g5
tp827
a(S'in'
p828
S'in'
p829
S'IN'
p830
S'B-PP'
p831
g5
tp832
a(S'the'
p833
S'the'
p834
S'DT'
p835
S'B-NP'
p836
g5
tp837
a(S'RT-5-FU'
p838
S'RT-5-FU'
p839
S'NN'
p840
S'I-NP'
p841
g5
tp842
a(S'arm'
p843
S'arm'
p844
S'NN'
p845
S'I-NP'
p846
g5
tp847
a(g256
g256
g256
g5
g5
tp848
a(S'52'
p849
S'52'
p850
S'CD'
p851
S'B-NP'
p852
g5
tp853
a(g824
g824
S'NN'
p854
S'I-NP'
p855
g5
tp856
a(S'in'
p857
S'in'
p858
S'IN'
p859
S'B-PP'
p860
g5
tp861
a(S'the'
p862
S'the'
p863
S'DT'
p864
S'B-NP'
p865
g5
tp866
a(S'RT-GC'
p867
S'RT-GC'
p868
S'NN'
p869
S'I-NP'
p870
g5
tp871
a(S'arm'
p872
S'arm'
p873
S'NN'
p874
S'I-NP'
p875
g5
tp876
a(g256
g256
g256
g5
g5
tp877
a(S'and'
p878
S'and'
p879
S'CC'
p880
g5
g5
tp881
a(S'45'
p882
S'45'
p883
S'CD'
p884
S'B-NP'
p885
g5
tp886
a(g824
g824
S'NN'
p887
S'I-NP'
p888
g5
tp889
a(S'in'
p890
S'in'
p891
S'IN'
p892
S'B-PP'
p893
g5
tp894
a(S'the'
p895
S'the'
p896
S'DT'
p897
S'B-NP'
p898
g5
tp899
a(S'RT-GC+GC'
p900
S'RT-GC+GC'
p901
S'NN'
p902
S'I-NP'
p903
g5
tp904
a(S'arm.'
p905
S'arm.'
p906
S'NN'
p907
S'I-NP'
p908
g5
tp909
a(S'Corresponding'
p910
S'Correspond'
p911
S'VBG'
p912
S'B-VP'
p913
g5
tp914
a(S'median'
p915
S'median'
p916
S'JJ'
p917
S'B-NP'
p918
g5
tp919
a(S'survival'
p920
S'survival'
p921
S'NN'
p922
S'I-NP'
p923
g5
tp924
a(S'times'
p925
S'time'
p926
S'NNS'
p927
S'I-NP'
p928
g5
tp929
a(S'were'
p930
S'be'
p931
S'VBD'
p932
S'B-VP'
p933
g5
tp934
a(S'9.6'
p935
S'9.6'
p936
S'CD'
p937
S'B-NP'
p938
g5
tp939
a(g256
g256
g256
S'I-NP'
p940
g5
tp941
a(S'9.3'
p942
S'9.3'
p943
S'CD'
p944
S'I-NP'
p945
g5
tp946
a(g256
g256
g256
g5
g5
tp947
a(S'and'
p948
S'and'
p949
S'CC'
p950
g5
g5
tp951
a(S'7.3'
p952
S'7.3'
p953
S'CD'
p954
S'B-NP'
p955
g5
tp956
a(S'months'
p957
S'month'
p958
S'NNS'
p959
S'I-NP'
p960
g5
tp961
a(g207
g207
g207
g5
g5
tp962
a(S'P=0.61'
p963
S'P=0.61'
p964
S'NN'
p965
S'B-NP'
p966
g5
tp967
a(g215
g215
g215
g5
g5
tp968
a(S'respectively.'
p969
S'respectively.'
p970
S'VBP'
p971
S'B-VP'
p972
g5
tp973
a(S'The'
p974
S'The'
p975
S'DT'
p976
S'B-NP'
p977
g5
tp978
a(S'intent-to-treat'
p979
S'intent-to-treat'
p980
S'JJ'
p981
S'I-NP'
p982
g5
tp983
a(S'response'
p984
S'response'
p985
S'NN'
p986
S'I-NP'
p987
g5
tp988
a(S'rate'
p989
S'rate'
p990
S'NN'
p991
S'I-NP'
p992
g5
tp993
a(S'was'
p994
S'be'
p995
S'VBD'
p996
S'B-VP'
p997
g5
tp998
a(S'19'
p999
S'19'
p1000
S'CD'
p1001
S'B-NP'
p1002
g5
tp1003
a(g256
g256
g256
S'I-NP'
p1004
g5
tp1005
a(S'22'
p1006
S'22'
p1007
S'CD'
p1008
S'I-NP'
p1009
g5
tp1010
a(g256
g256
g256
g5
g5
tp1011
a(S'and'
p1012
S'and'
p1013
S'CC'
p1014
g5
g5
tp1015
a(S'13'
p1016
S'13'
p1017
S'CD'
p1018
S'B-NP'
p1019
g5
tp1020
a(g824
g824
S'NN'
p1021
S'I-NP'
p1022
g5
tp1023
a(S'respectively.'
p1024
S'respectively.'
p1025
S'NN'
p1026
S'I-NP'
p1027
g5
tp1028
a(S'Median'
p1029
S'Median'
p1030
S'JJ'
p1031
S'I-NP'
p1032
g5
tp1033
a(S'progression-free'
p1034
S'progression-free'
p1035
S'JJ'
p1036
S'I-NP'
p1037
g5
tp1038
a(S'survival'
p1039
S'survival'
p1040
S'NN'
p1041
S'I-NP'
p1042
g5
tp1043
a(S'was'
p1044
S'be'
p1045
S'VBD'
p1046
S'B-VP'
p1047
g5
tp1048
a(S'estimated'
p1049
S'estimate'
p1050
S'VBN'
p1051
S'I-VP'
p1052
g5
tp1053
a(S'with'
p1054
S'with'
p1055
S'IN'
p1056
S'B-PP'
p1057
g5
tp1058
a(S'4.0'
p1059
S'4.0'
p1060
S'CD'
p1061
S'B-NP'
p1062
g5
tp1063
a(g256
g256
g256
S'I-NP'
p1064
g5
tp1065
a(S'5.6'
p1066
S'5.6'
p1067
S'CD'
p1068
S'I-NP'
p1069
g5
tp1070
a(g256
g256
g256
g5
g5
tp1071
a(S'and'
p1072
S'and'
p1073
S'CC'
p1074
g5
g5
tp1075
a(S'6.0'
p1076
S'6.0'
p1077
S'CD'
p1078
S'B-NP'
p1079
g5
tp1080
a(S'months'
p1081
S'month'
p1082
S'NNS'
p1083
S'I-NP'
p1084
g5
tp1085
a(g207
g207
g207
g5
g5
tp1086
a(S'P=0.21'
p1087
S'P=0.21'
p1088
S'NN'
p1089
S'B-NP'
p1090
g5
tp1091
a(g215
g215
g215
g5
g5
tp1092
a(g160
g160
g160
g5
g5
tp1093
a(S'Grade'
p1094
S'Grade'
p1095
S'NNP'
p1096
S'B-NP'
p1097
g5
tp1098
a(S'3/4'
p1099
S'3/4'
p1100
S'CD'
p1101
S'I-NP'
p1102
g5
tp1103
a(S'haematological'
p1104
S'haematological'
p1105
S'JJ'
p1106
S'I-NP'
p1107
g5
tp1108
a(S'toxicities'
p1109
S'toxicity'
p1110
S'NNS'
p1111
S'I-NP'
p1112
g5
tp1113
a(S'were'
p1114
S'be'
p1115
S'VBD'
p1116
S'B-VP'
p1117
g5
tp1118
a(S'more'
p1119
S'more'
p1120
S'RBR'
p1121
S'B-ADJP'
p1122
g5
tp1123
a(S'frequent'
p1124
S'frequent'
p1125
S'JJ'
p1126
S'I-ADJP'
p1127
g5
tp1128
a(S'in'
p1129
S'in'
p1130
S'IN'
p1131
S'B-PP'
p1132
g5
tp1133
a(S'the'
p1134
S'the'
p1135
S'DT'
p1136
S'B-NP'
p1137
g5
tp1138
a(S'two'
p1139
S'two'
p1140
S'CD'
p1141
S'I-NP'
p1142
g5
tp1143
a(S'GC-containing'
p1144
S'GC-containing'
p1145
S'JJ'
p1146
S'I-NP'
p1147
g5
tp1148
a(S'arms'
p1149
S'arm'
p1150
S'NNS'
p1151
S'I-NP'
p1152
g5
tp1153
a(g256
g256
g256
g5
g5
tp1154
a(S'no'
p1155
S'no'
p1156
S'DT'
p1157
S'B-NP'
p1158
g5
tp1159
a(S'grade'
p1160
S'grade'
p1161
S'NN'
p1162
S'I-NP'
p1163
g5
tp1164
a(S'3/4'
p1165
S'3/4'
p1166
S'CD'
p1167
S'I-NP'
p1168
g5
tp1169
a(S'febrile'
p1170
S'febrile'
p1171
S'JJ'
p1172
S'I-NP'
p1173
g5
tp1174
a(S'neutropaenia'
p1175
S'neutropaenia'
p1176
S'NN'
p1177
S'I-NP'
p1178
g5
tp1179
a(S'was'
p1180
S'be'
p1181
S'VBD'
p1182
S'B-VP'
p1183
g5
tp1184
a(S'observed'
p1185
S'observe'
p1186
S'VBN'
p1187
S'I-VP'
p1188
g5
tp1189
a(g160
g160
g160
g5
g5
tp1190
a(S'CONCLUSION'
p1191
S'CONCLUSION'
p1192
S'NN'
p1193
S'B-NP'
p1194
g5
tp1195
a(S'None'
p1196
S'None'
p1197
S'NN'
p1198
S'I-NP'
p1199
g5
tp1200
a(S'of'
p1201
S'of'
p1202
S'IN'
p1203
S'B-PP'
p1204
g5
tp1205
a(S'the'
p1206
S'the'
p1207
S'DT'
p1208
S'B-NP'
p1209
g5
tp1210
a(S'three'
p1211
S'three'
p1212
S'CD'
p1213
S'I-NP'
p1214
g5
tp1215
a(S'CRT'
p1216
S'CRT'
p1217
S'NN'
p1218
S'I-NP'
p1219
g5
tp1220
a(S'regimens'
p1221
S'regimen'
p1222
S'NNS'
p1223
S'I-NP'
p1224
g5
tp1225
a(S'tested'
p1226
S'test'
p1227
S'VBN'
p1228
S'B-VP'
p1229
g5
tp1230
a(S'met'
p1231
S'meet'
p1232
S'VBD'
p1233
S'B-VP'
p1234
g5
tp1235
a(S'the'
p1236
S'the'
p1237
S'DT'
p1238
S'B-NP'
p1239
g5
tp1240
a(S'investigators'
p1241
S'investigator'
p1242
S'NNS'
p1243
S'I-NP'
p1244
g5
tp1245
a(S"'"
p1246
g1246
S'POS'
p1247
S'B-NP'
p1248
g5
tp1249
a(S'definition'
p1250
S'definition'
p1251
S'NN'
p1252
S'I-NP'
p1253
g5
tp1254
a(S'for'
p1255
S'for'
p1256
S'IN'
p1257
S'B-PP'
p1258
g5
tp1259
a(S'efficacy'
p1260
S'efficacy'
p1261
S'NN'
p1262
S'B-NP'
p1263
g5
tp1264
a(S';'
p1265
g1265
g129
g5
g5
tp1266
a(S'the'
p1267
S'the'
p1268
S'DT'
p1269
S'B-NP'
p1270
g5
tp1271
a(S'median'
p1272
S'median'
p1273
S'JJ'
p1274
S'I-NP'
p1275
g5
tp1276
a(S'OS'
p1277
S'OS'
p1278
S'NN'
p1279
S'I-NP'
p1280
g5
tp1281
a(S'was'
p1282
S'be'
p1283
S'VBD'
p1284
S'B-VP'
p1285
g5
tp1286
a(S'similar'
p1287
S'similar'
p1288
S'JJ'
p1289
S'B-ADJP'
p1290
g5
tp1291
a(S'to'
p1292
S'to'
p1293
S'TO'
p1294
S'B-PP'
p1295
g5
tp1296
a(S'those'
p1297
S'those'
p1298
S'DT'
p1299
S'B-NP'
p1300
g5
tp1301
a(S'previously'
p1302
S'previously'
p1303
S'RB'
p1304
S'B-VP'
p1305
g5
tp1306
a(S'reported'
p1307
S'report'
p1308
S'VBN'
p1309
S'I-VP'
p1310
g5
tp1311
a(S'with'
p1312
S'with'
p1313
S'IN'
p1314
S'B-PP'
p1315
g5
tp1316
a(S'gemcitabine'
p1317
S'gemcitabine'
p1318
S'NN'
p1319
S'B-NP'
p1320
g5
tp1321
a(S'alone'
p1322
S'alone'
p1323
S'RB'
p1324
S'B-ADVP'
p1325
g5
tp1326
a(S'in'
p1327
S'in'
p1328
S'IN'
p1329
S'B-PP'
p1330
g5
tp1331
a(S'LAPC'
p1332
S'LAPC'
p1333
S'NN'
p1334
S'B-NP'
p1335
S'B-cell_type'
p1336
tp1337
a(g160
g160
g160
g5
g5
tp1338
a.