(lp0
(S'Double-blind'
p1
S'Double-blind'
p2
S'JJ'
p3
S'B-NP'
p4
S'O'
p5
tp6
a(S'placebo-controlled'
p7
S'placebo-controlled'
p8
S'JJ'
p9
S'I-NP'
p10
g5
tp11
a(S'trial'
p12
S'trial'
p13
S'NN'
p14
S'I-NP'
p15
g5
tp16
a(S'of'
p17
S'of'
p18
S'IN'
p19
S'B-PP'
p20
g5
tp21
a(S'secretin'
p22
S'secretin'
p23
S'NN'
p24
S'B-NP'
p25
g5
tp26
a(S':'
p27
g27
g27
g5
g5
tp28
a(S'effects'
p29
S'effect'
p30
S'NNS'
p31
S'B-NP'
p32
g5
tp33
a(S'on'
p34
S'on'
p35
S'IN'
p36
S'B-PP'
p37
g5
tp38
a(S'aberrant'
p39
S'aberrant'
p40
S'JJ'
p41
S'B-NP'
p42
g5
tp43
a(S'behavior'
p44
S'behavior'
p45
S'NN'
p46
S'I-NP'
p47
g5
tp48
a(S'in'
p49
S'in'
p50
S'IN'
p51
S'B-PP'
p52
g5
tp53
a(S'children'
p54
S'child'
p55
S'NNS'
p56
S'B-NP'
p57
g5
tp58
a(S'with'
p59
S'with'
p60
S'IN'
p61
S'B-PP'
p62
g5
tp63
a(S'autism'
p64
S'autism'
p65
S'NN'
p66
S'B-NP'
p67
g5
tp68
a(S'.'
p69
g69
g69
g5
g5
tp70
a(S'Secretin'
p71
S'Secretin'
p72
S'NN'
p73
S'B-NP'
p74
g5
tp75
a(S'has'
p76
S'have'
p77
S'VBZ'
p78
S'B-VP'
p79
g5
tp80
a(S'been'
p81
S'be'
p82
S'VBN'
p83
S'I-VP'
p84
g5
tp85
a(S'proposed'
p86
S'propose'
p87
S'VBN'
p88
S'I-VP'
p89
g5
tp90
a(S'as'
p91
S'as'
p92
S'IN'
p93
S'B-PP'
p94
g5
tp95
a(S'a'
p96
g96
S'DT'
p97
S'B-NP'
p98
g5
tp99
a(S'treatment'
p100
S'treatment'
p101
S'NN'
p102
S'I-NP'
p103
g5
tp104
a(S'alternative'
p105
S'alternative'
p106
S'NN'
p107
S'I-NP'
p108
g5
tp109
a(S'for'
p110
S'for'
p111
S'IN'
p112
S'B-PP'
p113
g5
tp114
a(S'autistic'
p115
S'autistic'
p116
S'JJ'
p117
S'B-NP'
p118
g5
tp119
a(S'spectrum'
p120
S'spectrum'
p121
S'NN'
p122
S'I-NP'
p123
g5
tp124
a(S'disorders'
p125
S'disorder'
p126
S'NNS'
p127
S'I-NP'
p128
g5
tp129
a(S','
p130
g130
g130
g5
g5
tp131
a(S'but'
p132
S'but'
p133
S'CC'
p134
g5
g5
tp135
a(S'empirical'
p136
S'empirical'
p137
S'JJ'
p138
S'B-NP'
p139
g5
tp140
a(S'support'
p141
S'support'
p142
S'NN'
p143
S'I-NP'
p144
g5
tp145
a(S'is'
p146
S'be'
p147
S'VBZ'
p148
S'B-VP'
p149
g5
tp150
a(S'lacking.'
p151
S'lacking.'
p152
S'RB'
p153
S'B-ADVP'
p154
g5
tp155
a(S'A'
p156
g156
S'DT'
p157
S'B-NP'
p158
g5
tp159
a(S'double-blind'
p160
S'double-blind'
p161
S'JJ'
p162
S'I-NP'
p163
g5
tp164
a(S'placebo-controlled'
p165
S'placebo-controlled'
p166
S'JJ'
p167
S'I-NP'
p168
g5
tp169
a(S'study'
p170
S'study'
p171
S'NN'
p172
S'I-NP'
p173
g5
tp174
a(S'examined'
p175
S'examine'
p176
S'VBD'
p177
S'B-VP'
p178
g5
tp179
a(S'the'
p180
S'the'
p181
S'DT'
p182
S'B-NP'
p183
g5
tp184
a(S'effect'
p185
S'effect'
p186
S'NN'
p187
S'I-NP'
p188
g5
tp189
a(S'of'
p190
S'of'
p191
S'IN'
p192
S'B-PP'
p193
g5
tp194
a(g96
g96
S'DT'
p195
S'B-NP'
p196
g5
tp197
a(S'single'
p198
S'single'
p199
S'JJ'
p200
S'I-NP'
p201
g5
tp202
a(S'dose'
p203
S'dose'
p204
S'NN'
p205
S'I-NP'
p206
g5
tp207
a(S'of'
p208
S'of'
p209
S'IN'
p210
S'B-PP'
p211
g5
tp212
a(S'synthetic'
p213
S'synthetic'
p214
S'JJ'
p215
S'B-NP'
p216
g5
tp217
a(S'human'
p218
S'human'
p219
S'JJ'
p220
S'I-NP'
p221
g5
tp222
a(S'secretin'
p223
S'secretin'
p224
S'NN'
p225
S'I-NP'
p226
g5
tp227
a(S'on'
p228
S'on'
p229
S'IN'
p230
S'B-PP'
p231
g5
tp232
a(S'aberrant'
p233
S'aberrant'
p234
S'JJ'
p235
S'B-NP'
p236
g5
tp237
a(S'behavior.'
p238
S'behavior.'
p239
S'NN'
p240
S'I-NP'
p241
g5
tp242
a(S'Parent'
p243
S'Parent'
p244
S'NN'
p245
S'I-NP'
p246
g5
tp247
a(S'and'
p248
S'and'
p249
S'CC'
p250
S'I-NP'
p251
g5
tp252
a(S'teacher'
p253
S'teacher'
p254
S'NN'
p255
S'I-NP'
p256
g5
tp257
a(S'data'
p258
S'datum'
p259
S'NNS'
p260
S'I-NP'
p261
g5
tp262
a(S'from'
p263
S'from'
p264
S'IN'
p265
S'B-PP'
p266
g5
tp267
a(S'the'
p268
S'the'
p269
S'DT'
p270
S'B-NP'
p271
g5
tp272
a(S'Aberrant'
p273
S'Aberrant'
p274
S'NNP'
p275
S'I-NP'
p276
g5
tp277
a(S'Behavior'
p278
S'Behavior'
p279
S'NNP'
p280
S'I-NP'
p281
g5
tp282
a(S'Checklist'
p283
S'Checklist'
p284
S'NNP'
p285
S'I-NP'
p286
g5
tp287
a(S'for'
p288
S'for'
p289
S'IN'
p290
S'B-PP'
p291
g5
tp292
a(S'eight'
p293
S'eight'
p294
S'CD'
p295
S'B-NP'
p296
g5
tp297
a(S'male'
p298
S'male'
p299
S'JJ'
p300
S'I-NP'
p301
g5
tp302
a(S'children'
p303
S'child'
p304
S'NNS'
p305
S'I-NP'
p306
g5
tp307
a(S'were'
p308
S'be'
p309
S'VBD'
p310
S'B-VP'
p311
g5
tp312
a(S'analyzed'
p313
S'analyze'
p314
S'VBN'
p315
S'I-VP'
p316
g5
tp317
a(S'for'
p318
S'for'
p319
S'IN'
p320
S'B-PP'
p321
g5
tp322
a(S'reliable'
p323
S'reliable'
p324
S'JJ'
p325
S'B-NP'
p326
g5
tp327
a(S'change'
p328
S'change'
p329
S'NN'
p330
S'I-NP'
p331
g5
tp332
a(S'in'
p333
S'in'
p334
S'IN'
p335
S'B-PP'
p336
g5
tp337
a(g96
g96
S'DT'
p338
S'B-NP'
p339
g5
tp340
a(S'clinical'
p341
S'clinical'
p342
S'JJ'
p343
S'I-NP'
p344
g5
tp345
a(S'replication'
p346
S'replication'
p347
S'NN'
p348
S'I-NP'
p349
g5
tp350
a(S'series.'
p351
S'series.'
p352
S'NN'
p353
S'I-NP'
p354
g5
tp355
a(S'By'
p356
S'By'
p357
S'IN'
p358
S'B-PP'
p359
g5
tp360
a(S'parent'
p361
S'parent'
p362
S'NN'
p363
S'B-NP'
p364
g5
tp365
a(S'and'
p366
S'and'
p367
S'CC'
p368
S'I-NP'
p369
g5
tp370
a(S'teacher'
p371
S'teacher'
p372
S'NN'
p373
S'I-NP'
p374
g5
tp375
a(S'report'
p376
S'report'
p377
S'NN'
p378
S'I-NP'
p379
g5
tp380
a(g130
g130
g130
g5
g5
tp381
a(S'the'
p382
S'the'
p383
S'DT'
p384
S'B-NP'
p385
g5
tp386
a(S'majority'
p387
S'majority'
p388
S'NN'
p389
S'I-NP'
p390
g5
tp391
a(S'of'
p392
S'of'
p393
S'IN'
p394
S'B-PP'
p395
g5
tp396
a(S'change'
p397
S'change'
p398
S'NN'
p399
S'B-NP'
p400
g5
tp401
a(S'occurred'
p402
S'occur'
p403
S'VBD'
p404
S'B-VP'
p405
g5
tp406
a(S'either'
p407
S'either'
p408
S'CC'
p409
g5
g5
tp410
a(S'on'
p411
S'on'
p412
S'IN'
p413
S'B-PP'
p414
g5
tp415
a(S'the'
p416
S'the'
p417
S'DT'
p418
S'B-NP'
p419
g5
tp420
a(S'placebo'
p421
S'placebo'
p422
S'NN'
p423
S'I-NP'
p424
g5
tp425
a(S'trial'
p426
S'trial'
p427
S'NN'
p428
S'I-NP'
p429
g5
tp430
a(S'or'
p431
S'or'
p432
S'CC'
p433
g5
g5
tp434
a(S'reflected'
p435
S'reflect'
p436
S'VBN'
p437
S'B-NP'
p438
g5
tp439
a(S'deterioration'
p440
S'deterioration'
p441
S'NN'
p442
S'I-NP'
p443
g5
tp444
a(S'subsequent'
p445
S'subsequent'
p446
S'JJ'
p447
S'B-ADJP'
p448
g5
tp449
a(S'to'
p450
S'to'
p451
S'TO'
p452
S'B-PP'
p453
g5
tp454
a(S'secretin'
p455
S'secretin'
p456
S'NN'
p457
S'B-NP'
p458
g5
tp459
a(S'infusion.'
p460
S'infusion.'
p461
S'NN'
p462
S'I-NP'
p463
g5
tp464
a(S'Repeated-measures'
p465
S'Repeated-measure'
p466
S'NNS'
p467
S'I-NP'
p468
g5
tp469
a(S'multivariate'
p470
S'multivariate'
p471
S'JJ'
p472
S'B-NP'
p473
g5
tp474
a(S'analysis'
p475
S'analysis'
p476
S'NN'
p477
S'I-NP'
p478
g5
tp479
a(S'of'
p480
S'of'
p481
S'IN'
p482
S'B-PP'
p483
g5
tp484
a(S'variance'
p485
S'variance'
p486
S'NN'
p487
S'B-NP'
p488
g5
tp489
a(S'results'
p490
S'result'
p491
S'NNS'
p492
S'I-NP'
p493
g5
tp494
a(S'were'
p495
S'be'
p496
S'VBD'
p497
S'B-VP'
p498
g5
tp499
a(S'similar.'
p500
S'similar.'
p501
S'JJ'
p502
S'B-NP'
p503
g5
tp504
a(S'Results'
p505
S'Result'
p506
S'NNS'
p507
S'I-NP'
p508
g5
tp509
a(S'are'
p510
S'be'
p511
S'VBP'
p512
S'B-VP'
p513
g5
tp514
a(S'consistent'
p515
S'consistent'
p516
S'JJ'
p517
S'B-ADJP'
p518
g5
tp519
a(S'with'
p520
S'with'
p521
S'IN'
p522
S'B-PP'
p523
g5
tp524
a(S'other'
p525
S'other'
p526
S'JJ'
p527
S'B-NP'
p528
g5
tp529
a(S'studies'
p530
S'study'
p531
S'NNS'
p532
S'I-NP'
p533
g5
tp534
a(g130
g130
g130
g5
g5
tp535
a(S'suggesting'
p536
S'suggest'
p537
S'VBG'
p538
S'B-VP'
p539
g5
tp540
a(S'that'
p541
S'that'
p542
S'IN'
p543
S'B-SBAR'
p544
g5
tp545
a(S'secretin'
p546
S'secretin'
p547
S'NN'
p548
S'B-NP'
p549
g5
tp550
a(S'may'
p551
S'may'
p552
S'MD'
p553
S'B-VP'
p554
g5
tp555
a(S'not'
p556
S'not'
p557
S'RB'
p558
S'I-VP'
p559
g5
tp560
a(S'be'
p561
S'be'
p562
S'VB'
p563
S'I-VP'
p564
g5
tp565
a(S'an'
p566
S'an'
p567
S'DT'
p568
S'B-NP'
p569
g5
tp570
a(S'effective'
p571
S'effective'
p572
S'JJ'
p573
S'I-NP'
p574
g5
tp575
a(S'treatment'
p576
S'treatment'
p577
S'NN'
p578
S'I-NP'
p579
g5
tp580
a(S'option'
p581
S'option'
p582
S'NN'
p583
S'I-NP'
p584
g5
tp585
a(g69
g69
g69
g5
g5
tp586
a.