(lp0
(S'Randomised'
p1
S'Randomise'
p2
S'VBN'
p3
S'B-NP'
p4
S'O'
p5
tp6
a(S'controlled'
p7
S'control'
p8
S'VBN'
p9
S'I-NP'
p10
g5
tp11
a(S'trial'
p12
S'trial'
p13
S'NN'
p14
S'I-NP'
p15
g5
tp16
a(S'of'
p17
S'of'
p18
S'IN'
p19
S'B-PP'
p20
g5
tp21
a(S'the'
p22
S'the'
p23
S'DT'
p24
S'B-NP'
p25
g5
tp26
a(S'Lidcombe'
p27
S'Lidcombe'
p28
S'NNP'
p29
S'I-NP'
p30
g5
tp31
a(S'programme'
p32
S'programme'
p33
S'NN'
p34
S'I-NP'
p35
g5
tp36
a(S'of'
p37
S'of'
p38
S'IN'
p39
S'B-PP'
p40
g5
tp41
a(S'early'
p42
S'early'
p43
S'JJ'
p44
S'B-NP'
p45
g5
tp46
a(S'stuttering'
p47
S'stuttering'
p48
S'NN'
p49
S'I-NP'
p50
g5
tp51
a(S'intervention'
p52
S'intervention'
p53
S'NN'
p54
S'I-NP'
p55
g5
tp56
a(S'.'
p57
g57
g57
g5
g5
tp58
a(S'To'
p59
S'To'
p60
S'TO'
p61
S'B-VP'
p62
g5
tp63
a(S'evaluate'
p64
S'evaluate'
p65
S'VB'
p66
S'I-VP'
p67
g5
tp68
a(S'the'
p69
S'the'
p70
S'DT'
p71
S'B-NP'
p72
g5
tp73
a(S'efficacy'
p74
S'efficacy'
p75
S'NN'
p76
S'I-NP'
p77
g5
tp78
a(S'of'
p79
S'of'
p80
S'IN'
p81
S'B-PP'
p82
g5
tp83
a(S'the'
p84
S'the'
p85
S'DT'
p86
S'B-NP'
p87
g5
tp88
a(S'Lidcombe'
p89
S'Lidcombe'
p90
S'NNP'
p91
S'I-NP'
p92
g5
tp93
a(S'programme'
p94
S'programme'
p95
S'NN'
p96
S'I-NP'
p97
g5
tp98
a(S'of'
p99
S'of'
p100
S'IN'
p101
S'B-PP'
p102
g5
tp103
a(S'early'
p104
S'early'
p105
S'JJ'
p106
S'B-NP'
p107
g5
tp108
a(S'stuttering'
p109
S'stuttering'
p110
S'NN'
p111
S'I-NP'
p112
g5
tp113
a(S'intervention'
p114
S'intervention'
p115
S'NN'
p116
S'I-NP'
p117
g5
tp118
a(S'by'
p119
S'by'
p120
S'IN'
p121
S'B-PP'
p122
g5
tp123
a(S'comparison'
p124
S'comparison'
p125
S'NN'
p126
S'B-NP'
p127
g5
tp128
a(S'to'
p129
S'to'
p130
S'TO'
p131
S'B-PP'
p132
g5
tp133
a(S'a'
p134
g134
S'DT'
p135
S'B-NP'
p136
g5
tp137
a(S'control'
p138
S'control'
p139
S'NN'
p140
S'I-NP'
p141
g5
tp142
a(S'group'
p143
S'group'
p144
S'NN'
p145
S'I-NP'
p146
g5
tp147
a(g57
g57
g57
g5
g5
tp148
a(S'A'
p149
g149
S'DT'
p150
S'B-NP'
p151
g5
tp152
a(S'pragmatic'
p153
S'pragmatic'
p154
S'JJ'
p155
S'I-NP'
p156
g5
tp157
a(S','
p158
g158
g158
S'I-NP'
p159
g5
tp160
a(S'open'
p161
S'open'
p162
S'JJ'
p163
S'I-NP'
p164
g5
tp165
a(S'plan'
p166
S'plan'
p167
S'NN'
p168
S'I-NP'
p169
g5
tp170
a(g158
g158
g158
g5
g5
tp171
a(S'parallel'
p172
S'parallel'
p173
S'JJ'
p174
S'B-NP'
p175
g5
tp176
a(S'group'
p177
S'group'
p178
S'NN'
p179
S'I-NP'
p180
g5
tp181
a(g158
g158
g158
g5
g5
tp182
a(S'randomised'
p183
S'randomise'
p184
S'VBD'
p185
S'B-VP'
p186
g5
tp187
a(S'controlled'
p188
S'control'
p189
S'VBN'
p190
S'I-VP'
p191
g5
tp192
a(S'trial'
p193
S'trial'
p194
S'NN'
p195
S'B-NP'
p196
g5
tp197
a(S'with'
p198
S'with'
p199
S'IN'
p200
S'B-PP'
p201
g5
tp202
a(S'blinded'
p203
S'blind'
p204
S'VBN'
p205
S'B-NP'
p206
g5
tp207
a(S'outcome'
p208
S'outcome'
p209
S'NN'
p210
S'I-NP'
p211
g5
tp212
a(S'assessment'
p213
S'assessment'
p214
S'NN'
p215
S'I-NP'
p216
g5
tp217
a(g57
g57
g57
g5
g5
tp218
a(S'2'
p219
g219
S'CD'
p220
S'B-NP'
p221
g5
tp222
a(S'public'
p223
S'public'
p224
S'JJ'
p225
S'I-NP'
p226
g5
tp227
a(S'speech'
p228
S'speech'
p229
S'NN'
p230
S'I-NP'
p231
g5
tp232
a(S'clinics'
p233
S'clinic'
p234
S'NNS'
p235
S'I-NP'
p236
g5
tp237
a(S'in'
p238
S'in'
p239
S'IN'
p240
S'B-PP'
p241
g5
tp242
a(S'New'
p243
S'New'
p244
S'NNP'
p245
S'B-NP'
p246
g5
tp247
a(S'Zealand'
p248
S'Zealand'
p249
S'NNP'
p250
S'I-NP'
p251
g5
tp252
a(g57
g57
g57
S'I-NP'
p253
g5
tp254
a(S'Stuttering'
p255
S'Stuttering'
p256
S'NNP'
p257
S'I-NP'
p258
g5
tp259
a(S'preschool'
p260
S'preschool'
p261
S'NN'
p262
S'I-NP'
p263
g5
tp264
a(S'children'
p265
S'child'
p266
S'NNS'
p267
S'I-NP'
p268
g5
tp269
a(S'who'
p270
S'who'
p271
S'WP'
p272
S'B-NP'
p273
g5
tp274
a(S'presented'
p275
S'present'
p276
S'VBD'
p277
S'B-VP'
p278
g5
tp279
a(S'to'
p280
S'to'
p281
S'TO'
p282
S'B-PP'
p283
g5
tp284
a(S'the'
p285
S'the'
p286
S'DT'
p287
S'B-NP'
p288
g5
tp289
a(S'speech'
p290
S'speech'
p291
S'NN'
p292
S'I-NP'
p293
g5
tp294
a(S'clinics'
p295
S'clinic'
p296
S'NNS'
p297
S'I-NP'
p298
g5
tp299
a(S'for'
p300
S'for'
p301
S'IN'
p302
S'B-PP'
p303
g5
tp304
a(S'treatment'
p305
S'treatment'
p306
S'NN'
p307
S'B-NP'
p308
g5
tp309
a(g57
g57
g57
g5
g5
tp310
a(S'Inclusion'
p311
S'Inclusion'
p312
S'NN'
p313
S'B-NP'
p314
g5
tp315
a(S'criteria'
p316
S'criterion'
p317
S'NNS'
p318
S'I-NP'
p319
g5
tp320
a(S'were'
p321
S'be'
p322
S'VBD'
p323
S'B-VP'
p324
g5
tp325
a(S'age'
p326
S'age'
p327
S'NN'
p328
S'B-NP'
p329
g5
tp330
a(S'3-6'
p331
S'3-6'
p332
S'CD'
p333
S'B-NP'
p334
g5
tp335
a(S'years'
p336
S'year'
p337
S'NNS'
p338
S'I-NP'
p339
g5
tp340
a(S'and'
p341
S'and'
p342
S'CC'
p343
g5
g5
tp344
a(S'frequency'
p345
S'frequency'
p346
S'NN'
p347
S'B-NP'
p348
g5
tp349
a(S'of'
p350
S'of'
p351
S'IN'
p352
S'B-PP'
p353
g5
tp354
a(S'stuttering'
p355
S'stuttering'
p356
S'NN'
p357
S'B-NP'
p358
g5
tp359
a(S'of'
p360
S'of'
p361
S'IN'
p362
S'B-PP'
p363
g5
tp364
a(S'at'
p365
S'at'
p366
S'IN'
p367
S'B-NP'
p368
g5
tp369
a(S'least'
p370
S'least'
p371
S'JJS'
p372
S'I-NP'
p373
g5
tp374
a(g219
g219
S'CD'
p375
S'I-NP'
p376
g5
tp377
a(S'%'
p378
g378
S'NN'
p379
S'I-NP'
p380
g5
tp381
a(S'syllables'
p382
S'syllable'
p383
S'NNS'
p384
S'I-NP'
p385
g5
tp386
a(S'stuttered'
p387
S'stutter'
p388
S'VBD'
p389
S'B-VP'
p390
g5
tp391
a(g57
g57
g57
g5
g5
tp392
a(S'Exclusion'
p393
S'Exclusion'
p394
S'NNP'
p395
S'B-NP'
p396
g5
tp397
a(S'criteria'
p398
S'criterion'
p399
S'NNS'
p400
S'I-NP'
p401
g5
tp402
a(S'were'
p403
S'be'
p404
S'VBD'
p405
S'B-VP'
p406
g5
tp407
a(S'onset'
p408
S'onset'
p409
S'NN'
p410
S'B-NP'
p411
g5
tp412
a(S'of'
p413
S'of'
p414
S'IN'
p415
S'B-PP'
p416
g5
tp417
a(S'stuttering'
p418
S'stutter'
p419
S'VBG'
p420
S'B-VP'
p421
g5
tp422
a(S'during'
p423
S'during'
p424
S'IN'
p425
S'B-PP'
p426
g5
tp427
a(S'the'
p428
S'the'
p429
S'DT'
p430
S'B-NP'
p431
g5
tp432
a(S'6'
p433
g433
S'CD'
p434
S'I-NP'
p435
g5
tp436
a(S'months'
p437
S'month'
p438
S'NNS'
p439
S'I-NP'
p440
g5
tp441
a(S'before'
p442
S'before'
p443
S'IN'
p444
S'B-PP'
p445
g5
tp446
a(S'recruitment'
p447
S'recruitment'
p448
S'NN'
p449
S'B-NP'
p450
g5
tp451
a(S'and'
p452
S'and'
p453
S'CC'
p454
S'I-NP'
p455
g5
tp456
a(S'treatment'
p457
S'treatment'
p458
S'NN'
p459
S'I-NP'
p460
g5
tp461
a(S'for'
p462
S'for'
p463
S'IN'
p464
S'B-PP'
p465
g5
tp466
a(S'stuttering'
p467
S'stutter'
p468
S'VBG'
p469
S'B-VP'
p470
g5
tp471
a(S'during'
p472
S'during'
p473
S'IN'
p474
S'B-PP'
p475
g5
tp476
a(S'the'
p477
S'the'
p478
S'DT'
p479
S'B-NP'
p480
g5
tp481
a(S'previous'
p482
S'previous'
p483
S'JJ'
p484
S'I-NP'
p485
g5
tp486
a(S'12'
p487
S'12'
p488
S'CD'
p489
S'I-NP'
p490
g5
tp491
a(S'months'
p492
S'month'
p493
S'NNS'
p494
S'I-NP'
p495
g5
tp496
a(g57
g57
g57
g5
g5
tp497
a(S'54'
p498
S'54'
p499
S'CD'
p500
S'B-NP'
p501
g5
tp502
a(S'participants'
p503
S'participant'
p504
S'NNS'
p505
S'I-NP'
p506
g5
tp507
a(S'were'
p508
S'be'
p509
S'VBD'
p510
S'B-VP'
p511
g5
tp512
a(S'randomised'
p513
S'randomise'
p514
S'VBN'
p515
S'I-VP'
p516
g5
tp517
a(S':'
p518
g518
g518
g5
g5
tp519
a(S'29'
p520
S'29'
p521
S'CD'
p522
S'B-NP'
p523
g5
tp524
a(S'to'
p525
S'to'
p526
S'TO'
p527
S'B-PP'
p528
g5
tp529
a(S'the'
p530
S'the'
p531
S'DT'
p532
S'B-NP'
p533
g5
tp534
a(S'Lidcombe'
p535
S'Lidcombe'
p536
S'NNP'
p537
S'I-NP'
p538
g5
tp539
a(S'programme'
p540
S'programme'
p541
S'NN'
p542
S'I-NP'
p543
g5
tp544
a(S'arm'
p545
S'arm'
p546
S'NN'
p547
S'I-NP'
p548
g5
tp549
a(S'and'
p550
S'and'
p551
S'CC'
p552
g5
g5
tp553
a(S'25'
p554
S'25'
p555
S'CD'
p556
S'B-NP'
p557
g5
tp558
a(S'to'
p559
S'to'
p560
S'TO'
p561
S'B-PP'
p562
g5
tp563
a(S'the'
p564
S'the'
p565
S'DT'
p566
S'B-NP'
p567
g5
tp568
a(S'control'
p569
S'control'
p570
S'NN'
p571
S'I-NP'
p572
g5
tp573
a(S'arm'
p574
S'arm'
p575
S'NN'
p576
S'I-NP'
p577
g5
tp578
a(g57
g57
g57
g5
g5
tp579
a(S'12'
p580
S'12'
p581
S'CD'
p582
S'B-NP'
p583
g5
tp584
a(S'of'
p585
S'of'
p586
S'IN'
p587
S'B-PP'
p588
g5
tp589
a(S'the'
p590
S'the'
p591
S'DT'
p592
S'B-NP'
p593
g5
tp594
a(S'participants'
p595
S'participant'
p596
S'NNS'
p597
S'I-NP'
p598
g5
tp599
a(S'were'
p600
S'be'
p601
S'VBD'
p602
S'B-VP'
p603
g5
tp604
a(S'girls'
p605
S'girl'
p606
S'NNS'
p607
S'B-NP'
p608
g5
tp609
a(g57
g57
g57
g5
g5
tp610
a(S'Lidcombe'
p611
S'Lidcombe'
p612
S'NNP'
p613
S'B-NP'
p614
g5
tp615
a(S'programme'
p616
S'programme'
p617
S'NN'
p618
S'I-NP'
p619
g5
tp620
a(S'of'
p621
S'of'
p622
S'IN'
p623
S'B-PP'
p624
g5
tp625
a(S'early'
p626
S'early'
p627
S'JJ'
p628
S'B-NP'
p629
g5
tp630
a(S'stuttering'
p631
S'stuttering'
p632
S'NN'
p633
S'I-NP'
p634
g5
tp635
a(S'intervention'
p636
S'intervention'
p637
S'NN'
p638
S'I-NP'
p639
g5
tp640
a(g57
g57
g57
S'I-NP'
p641
g5
tp642
a(S'Frequency'
p643
S'Frequency'
p644
S'NN'
p645
S'I-NP'
p646
g5
tp647
a(S'of'
p648
S'of'
p649
S'IN'
p650
S'B-PP'
p651
g5
tp652
a(S'stuttering'
p653
S'stuttering'
p654
S'NN'
p655
S'B-NP'
p656
g5
tp657
a(S'was'
p658
S'be'
p659
S'VBD'
p660
S'B-VP'
p661
g5
tp662
a(S'measured'
p663
S'measure'
p664
S'VBN'
p665
S'I-VP'
p666
g5
tp667
a(S'as'
p668
S'as'
p669
S'IN'
p670
S'B-PP'
p671
g5
tp672
a(S'the'
p673
S'the'
p674
S'DT'
p675
S'B-NP'
p676
g5
tp677
a(S'proportion'
p678
S'proportion'
p679
S'NN'
p680
S'I-NP'
p681
g5
tp682
a(S'of'
p683
S'of'
p684
S'IN'
p685
S'B-PP'
p686
g5
tp687
a(S'syllables'
p688
S'syllable'
p689
S'NNS'
p690
S'B-NP'
p691
g5
tp692
a(S'stuttered'
p693
S'stutter'
p694
S'VBN'
p695
S'B-VP'
p696
g5
tp697
a(g158
g158
g158
g5
g5
tp698
a(S'from'
p699
S'from'
p700
S'IN'
p701
S'B-PP'
p702
g5
tp703
a(S'audiotaped'
p704
S'audiotaped'
p705
S'JJ'
p706
S'B-NP'
p707
g5
tp708
a(S'recordings'
p709
S'recording'
p710
S'NNS'
p711
S'I-NP'
p712
g5
tp713
a(S'of'
p714
S'of'
p715
S'IN'
p716
S'B-PP'
p717
g5
tp718
a(S'participants'
p719
S'participant'
p720
S'NNS'
p721
S'B-NP'
p722
g5
tp723
a(S"'"
p724
g724
S'POS'
p725
S'B-NP'
p726
g5
tp727
a(S'conversational'
p728
S'conversational'
p729
S'JJ'
p730
S'I-NP'
p731
g5
tp732
a(S'speech'
p733
S'speech'
p734
S'NN'
p735
S'I-NP'
p736
g5
tp737
a(S'outside'
p738
S'outside'
p739
S'IN'
p740
S'B-PP'
p741
g5
tp742
a(S'the'
p743
S'the'
p744
S'DT'
p745
S'B-NP'
p746
g5
tp747
a(S'clinic'
p748
S'clinic'
p749
S'NN'
p750
S'I-NP'
p751
g5
tp752
a(g57
g57
g57
g5
g5
tp753
a(S'Parents'
p754
S'Parent'
p755
S'NNS'
p756
S'B-NP'
p757
g5
tp758
a(S'in'
p759
S'in'
p760
S'IN'
p761
S'B-PP'
p762
g5
tp763
a(S'both'
p764
S'both'
p765
S'DT'
p766
S'B-NP'
p767
g5
tp768
a(S'arms'
p769
S'arm'
p770
S'NNS'
p771
S'I-NP'
p772
g5
tp773
a(S'of'
p774
S'of'
p775
S'IN'
p776
S'B-PP'
p777
g5
tp778
a(S'the'
p779
S'the'
p780
S'DT'
p781
S'B-NP'
p782
g5
tp783
a(S'trial'
p784
S'trial'
p785
S'NN'
p786
S'I-NP'
p787
g5
tp788
a(S'collected'
p789
S'collect'
p790
S'VBD'
p791
S'B-VP'
p792
g5
tp793
a(S'speech'
p794
S'speech'
p795
S'NN'
p796
S'B-NP'
p797
g5
tp798
a(S'samples'
p799
S'sample'
p800
S'NNS'
p801
S'I-NP'
p802
g5
tp803
a(S'in'
p804
S'in'
p805
S'IN'
p806
S'B-PP'
p807
g5
tp808
a(S'3'
p809
g809
S'CD'
p810
S'B-NP'
p811
g5
tp812
a(S'different'
p813
S'different'
p814
S'JJ'
p815
S'I-NP'
p816
g5
tp817
a(S'speaking'
p818
S'speaking'
p819
S'NN'
p820
S'I-NP'
p821
g5
tp822
a(S'situations'
p823
S'situation'
p824
S'NNS'
p825
S'I-NP'
p826
g5
tp827
a(S'before'
p828
S'before'
p829
S'IN'
p830
S'B-PP'
p831
g5
tp832
a(S'randomisation'
p833
S'randomisation'
p834
S'NN'
p835
S'B-NP'
p836
g5
tp837
a(S'and'
p838
S'and'
p839
S'CC'
p840
S'B-PP'
p841
g5
tp842
a(S'at'
p843
S'at'
p844
S'IN'
p845
S'B-PP'
p846
g5
tp847
a(g809
g809
S'CD'
p848
S'B-NP'
p849
g5
tp850
a(g158
g158
g158
S'I-NP'
p851
g5
tp852
a(g433
g433
S'CD'
p853
S'I-NP'
p854
g5
tp855
a(g158
g158
g158
g5
g5
tp856
a(S'and'
p857
S'and'
p858
S'CC'
p859
g5
g5
tp860
a(S'9'
p861
g861
S'CD'
p862
S'B-NP'
p863
g5
tp864
a(S'months'
p865
S'month'
p866
S'NNS'
p867
S'I-NP'
p868
g5
tp869
a(S'after'
p870
S'after'
p871
S'IN'
p872
S'B-PP'
p873
g5
tp874
a(S'randomisation'
p875
S'randomisation'
p876
S'NN'
p877
S'B-NP'
p878
g5
tp879
a(g57
g57
g57
g5
g5
tp880
a(S'Analysis'
p881
S'Analysis'
p882
S'NN'
p883
S'B-NP'
p884
g5
tp885
a(S'showed'
p886
S'show'
p887
S'VBD'
p888
S'B-VP'
p889
g5
tp890
a(g134
g134
S'DT'
p891
S'B-NP'
p892
g5
tp893
a(S'highly'
p894
S'highly'
p895
S'RB'
p896
S'I-NP'
p897
g5
tp898
a(S'significant'
p899
S'significant'
p900
S'JJ'
p901
S'I-NP'
p902
g5
tp903
a(S'difference'
p904
S'difference'
p905
S'NN'
p906
S'I-NP'
p907
g5
tp908
a(S'('
p909
g909
g909
g5
g5
tp910
a(S'P'
p911
g911
S'NN'
p912
S'B-NP'
p913
g5
tp914
a(S'='
p915
g915
S'SYM'
p916
S'B-VP'
p917
g5
tp918
a(S'0.003'
p919
S'0.003'
p920
S'CD'
p921
S'B-NP'
p922
g5
tp923
a(S')'
p924
g924
g924
g5
g5
tp925
a(S'at'
p926
S'at'
p927
S'IN'
p928
S'B-PP'
p929
g5
tp930
a(g861
g861
S'CD'
p931
S'B-NP'
p932
g5
tp933
a(S'months'
p934
S'month'
p935
S'NNS'
p936
S'I-NP'
p937
g5
tp938
a(S'after'
p939
S'after'
p940
S'IN'
p941
S'B-PP'
p942
g5
tp943
a(S'randomisation'
p944
S'randomisation'
p945
S'NN'
p946
S'B-NP'
p947
g5
tp948
a(g57
g57
g57
g5
g5
tp949
a(S'The'
p950
S'The'
p951
S'DT'
p952
S'B-NP'
p953
g5
tp954
a(S'mean'
p955
S'mean'
p956
S'JJ'
p957
S'I-NP'
p958
g5
tp959
a(S'proportion'
p960
S'proportion'
p961
S'NN'
p962
S'I-NP'
p963
g5
tp964
a(S'of'
p965
S'of'
p966
S'IN'
p967
S'B-PP'
p968
g5
tp969
a(S'syllables'
p970
S'syllable'
p971
S'NNS'
p972
S'B-NP'
p973
g5
tp974
a(S'stuttered'
p975
S'stutter'
p976
S'VBN'
p977
S'B-VP'
p978
g5
tp979
a(S'at'
p980
S'at'
p981
S'IN'
p982
S'B-PP'
p983
g5
tp984
a(g861
g861
S'CD'
p985
S'B-NP'
p986
g5
tp987
a(S'months'
p988
S'month'
p989
S'NNS'
p990
S'I-NP'
p991
g5
tp992
a(S'after'
p993
S'after'
p994
S'IN'
p995
S'B-SBAR'
p996
g5
tp997
a(S'randomisation'
p998
S'randomisation'
p999
S'NN'
p1000
S'B-NP'
p1001
g5
tp1002
a(S'was'
p1003
S'be'
p1004
S'VBD'
p1005
S'B-VP'
p1006
g5
tp1007
a(S'1.5'
p1008
S'1.5'
p1009
S'CD'
p1010
S'B-NP'
p1011
g5
tp1012
a(g378
g378
S'NN'
p1013
S'I-NP'
p1014
g5
tp1015
a(g909
g909
g909
g5
g5
tp1016
a(S'SD'
p1017
S'SD'
p1018
S'NN'
p1019
S'B-NP'
p1020
g5
tp1021
a(S'1.4'
p1022
S'1.4'
p1023
S'CD'
p1024
S'I-NP'
p1025
g5
tp1026
a(g924
g924
g924
g5
g5
tp1027
a(S'for'
p1028
S'for'
p1029
S'IN'
p1030
S'B-PP'
p1031
g5
tp1032
a(S'the'
p1033
S'the'
p1034
S'DT'
p1035
S'B-NP'
p1036
g5
tp1037
a(S'treatment'
p1038
S'treatment'
p1039
S'NN'
p1040
S'I-NP'
p1041
g5
tp1042
a(S'arm'
p1043
S'arm'
p1044
S'NN'
p1045
S'I-NP'
p1046
g5
tp1047
a(S'and'
p1048
S'and'
p1049
S'CC'
p1050
g5
g5
tp1051
a(S'3.9'
p1052
S'3.9'
p1053
S'CD'
p1054
S'B-NP'
p1055
g5
tp1056
a(g378
g378
S'NN'
p1057
S'I-NP'
p1058
g5
tp1059
a(g909
g909
g909
g5
g5
tp1060
a(S'SD'
p1061
S'SD'
p1062
S'NN'
p1063
S'B-NP'
p1064
g5
tp1065
a(S'3.5'
p1066
S'3.5'
p1067
S'CD'
p1068
S'I-NP'
p1069
g5
tp1070
a(g924
g924
g924
g5
g5
tp1071
a(S'for'
p1072
S'for'
p1073
S'IN'
p1074
S'B-PP'
p1075
g5
tp1076
a(S'the'
p1077
S'the'
p1078
S'DT'
p1079
S'B-NP'
p1080
g5
tp1081
a(S'control'
p1082
S'control'
p1083
S'NN'
p1084
S'I-NP'
p1085
g5
tp1086
a(S'arm'
p1087
S'arm'
p1088
S'NN'
p1089
S'I-NP'
p1090
g5
tp1091
a(g158
g158
g158
g5
g5
tp1092
a(S'giving'
p1093
S'give'
p1094
S'VBG'
p1095
S'B-VP'
p1096
g5
tp1097
a(S'an'
p1098
S'an'
p1099
S'DT'
p1100
S'B-NP'
p1101
g5
tp1102
a(S'effect'
p1103
S'effect'
p1104
S'NN'
p1105
S'I-NP'
p1106
g5
tp1107
a(S'size'
p1108
S'size'
p1109
S'NN'
p1110
S'I-NP'
p1111
g5
tp1112
a(S'of'
p1113
S'of'
p1114
S'IN'
p1115
S'B-PP'
p1116
g5
tp1117
a(S'2.3'
p1118
S'2.3'
p1119
S'CD'
p1120
S'B-NP'
p1121
g5
tp1122
a(g378
g378
S'NN'
p1123
S'I-NP'
p1124
g5
tp1125
a(S'of'
p1126
S'of'
p1127
S'IN'
p1128
S'B-PP'
p1129
g5
tp1130
a(S'syllables'
p1131
S'syllable'
p1132
S'NNS'
p1133
S'B-NP'
p1134
g5
tp1135
a(S'stuttered'
p1136
S'stutter'
p1137
S'VBN'
p1138
S'B-VP'
p1139
g5
tp1140
a(g909
g909
g909
g5
g5
tp1141
a(S'95'
p1142
S'95'
p1143
S'CD'
p1144
S'B-NP'
p1145
g5
tp1146
a(g378
g378
S'NN'
p1147
S'I-NP'
p1148
g5
tp1149
a(S'confidence'
p1150
S'confidence'
p1151
S'NN'
p1152
S'I-NP'
p1153
g5
tp1154
a(S'interval'
p1155
S'interval'
p1156
S'NN'
p1157
S'I-NP'
p1158
g5
tp1159
a(S'0.8'
p1160
S'0.8'
p1161
S'CD'
p1162
S'B-NP'
p1163
g5
tp1164
a(S'to'
p1165
S'to'
p1166
S'TO'
p1167
S'I-NP'
p1168
g5
tp1169
a(S'3.9'
p1170
S'3.9'
p1171
S'CD'
p1172
S'I-NP'
p1173
g5
tp1174
a(g924
g924
g924
g5
g5
tp1175
a(g57
g57
g57
g5
g5
tp1176
a(S'This'
p1177
S'This'
p1178
S'DT'
p1179
S'B-NP'
p1180
g5
tp1181
a(S'effect'
p1182
S'effect'
p1183
S'NN'
p1184
S'I-NP'
p1185
g5
tp1186
a(S'size'
p1187
S'size'
p1188
S'NN'
p1189
S'I-NP'
p1190
g5
tp1191
a(S'was'
p1192
S'be'
p1193
S'VBD'
p1194
S'B-VP'
p1195
g5
tp1196
a(S'more'
p1197
S'more'
p1198
S'JJR'
p1199
S'B-NP'
p1200
g5
tp1201
a(S'than'
p1202
S'than'
p1203
S'IN'
p1204
S'I-NP'
p1205
g5
tp1206
a(S'double'
p1207
S'double'
p1208
S'RB'
p1209
S'I-NP'
p1210
g5
tp1211
a(S'the'
p1212
S'the'
p1213
S'DT'
p1214
S'I-NP'
p1215
g5
tp1216
a(S'minimum'
p1217
S'minimum'
p1218
S'NN'
p1219
S'I-NP'
p1220
g5
tp1221
a(S'clinically'
p1222
S'clinically'
p1223
S'RB'
p1224
S'B-NP'
p1225
g5
tp1226
a(S'worthwhile'
p1227
S'worthwhile'
p1228
S'JJ'
p1229
S'I-NP'
p1230
g5
tp1231
a(S'difference'
p1232
S'difference'
p1233
S'NN'
p1234
S'I-NP'
p1235
g5
tp1236
a(S'specified'
p1237
S'specify'
p1238
S'VBN'
p1239
S'B-VP'
p1240
g5
tp1241
a(S'in'
p1242
S'in'
p1243
S'IN'
p1244
S'B-PP'
p1245
g5
tp1246
a(S'the'
p1247
S'the'
p1248
S'DT'
p1249
S'B-NP'
p1250
g5
tp1251
a(S'trial'
p1252
S'trial'
p1253
S'NN'
p1254
S'I-NP'
p1255
g5
tp1256
a(S'protocol'
p1257
S'protocol'
p1258
S'NN'
p1259
S'I-NP'
p1260
g5
tp1261
a(g57
g57
g57
g5
g5
tp1262
a(S'The'
p1263
S'The'
p1264
S'DT'
p1265
S'B-NP'
p1266
g5
tp1267
a(S'results'
p1268
S'result'
p1269
S'NNS'
p1270
S'I-NP'
p1271
g5
tp1272
a(S'provide'
p1273
S'provide'
p1274
S'VBP'
p1275
S'B-VP'
p1276
g5
tp1277
a(S'evidence'
p1278
S'evidence'
p1279
S'NN'
p1280
S'B-NP'
p1281
g5
tp1282
a(S'from'
p1283
S'from'
p1284
S'IN'
p1285
S'B-PP'
p1286
g5
tp1287
a(g134
g134
S'DT'
p1288
S'B-NP'
p1289
g5
tp1290
a(S'randomised'
p1291
S'randomise'
p1292
S'VBN'
p1293
S'I-NP'
p1294
g5
tp1295
a(S'controlled'
p1296
S'control'
p1297
S'VBN'
p1298
S'I-NP'
p1299
g5
tp1300
a(S'trial'
p1301
S'trial'
p1302
S'NN'
p1303
S'I-NP'
p1304
g5
tp1305
a(S'to'
p1306
S'to'
p1307
S'TO'
p1308
S'B-VP'
p1309
g5
tp1310
a(S'support'
p1311
S'support'
p1312
S'VB'
p1313
S'I-VP'
p1314
g5
tp1315
a(S'early'
p1316
S'early'
p1317
S'JJ'
p1318
S'B-NP'
p1319
g5
tp1320
a(S'intervention'
p1321
S'intervention'
p1322
S'NN'
p1323
S'I-NP'
p1324
g5
tp1325
a(S'for'
p1326
S'for'
p1327
S'IN'
p1328
S'B-PP'
p1329
g5
tp1330
a(S'stuttering'
p1331
S'stutter'
p1332
S'VBG'
p1333
S'B-VP'
p1334
g5
tp1335
a(g57
g57
g57
g5
g5
tp1336
a(S'The'
p1337
S'The'
p1338
S'DT'
p1339
S'B-NP'
p1340
g5
tp1341
a(S'Lidcombe'
p1342
S'Lidcombe'
p1343
S'NNP'
p1344
S'I-NP'
p1345
g5
tp1346
a(S'programme'
p1347
S'programme'
p1348
S'NN'
p1349
S'I-NP'
p1350
g5
tp1351
a(S'is'
p1352
S'be'
p1353
S'VBZ'
p1354
S'B-VP'
p1355
g5
tp1356
a(S'an'
p1357
S'an'
p1358
S'DT'
p1359
S'B-NP'
p1360
g5
tp1361
a(S'efficacious'
p1362
S'efficacious'
p1363
S'JJ'
p1364
S'I-NP'
p1365
g5
tp1366
a(S'treatment'
p1367
S'treatment'
p1368
S'NN'
p1369
S'I-NP'
p1370
g5
tp1371
a(S'for'
p1372
S'for'
p1373
S'IN'
p1374
S'B-PP'
p1375
g5
tp1376
a(S'stuttering'
p1377
S'stutter'
p1378
S'VBG'
p1379
S'B-VP'
p1380
g5
tp1381
a(S'in'
p1382
S'in'
p1383
S'IN'
p1384
S'B-PP'
p1385
g5
tp1386
a(S'children'
p1387
S'child'
p1388
S'NNS'
p1389
S'B-NP'
p1390
g5
tp1391
a(S'of'
p1392
S'of'
p1393
S'IN'
p1394
S'B-PP'
p1395
g5
tp1396
a(S'preschool'
p1397
S'preschool'
p1398
S'NN'
p1399
S'B-NP'
p1400
g5
tp1401
a(S'age'
p1402
S'age'
p1403
S'NN'
p1404
S'I-NP'
p1405
g5
tp1406
a(g57
g57
g57
g5
g5
tp1407
a.