(lp0
(S'Antenatal'
p1
S'Antenatal'
p2
S'JJ'
p3
S'B-NP'
p4
S'O'
p5
tp6
a(S'betamethasone'
p7
S'betamethasone'
p8
S'NN'
p9
S'I-NP'
p10
g5
tp11
a(S'and'
p12
S'and'
p13
S'CC'
p14
S'I-NP'
p15
g5
tp16
a(S'incidence'
p17
S'incidence'
p18
S'NN'
p19
S'I-NP'
p20
g5
tp21
a(S'of'
p22
S'of'
p23
S'IN'
p24
S'B-PP'
p25
g5
tp26
a(S'neonatal'
p27
S'neonatal'
p28
S'JJ'
p29
S'B-NP'
p30
g5
tp31
a(S'respiratory'
p32
S'respiratory'
p33
S'JJ'
p34
S'I-NP'
p35
g5
tp36
a(S'distress'
p37
S'distress'
p38
S'NN'
p39
S'I-NP'
p40
g5
tp41
a(S'after'
p42
S'after'
p43
S'IN'
p44
S'B-PP'
p45
g5
tp46
a(S'elective'
p47
S'elective'
p48
S'JJ'
p49
S'B-NP'
p50
g5
tp51
a(S'caesarean'
p52
S'caesarean'
p53
S'JJ'
p54
S'I-NP'
p55
g5
tp56
a(S'section'
p57
S'section'
p58
S'NN'
p59
S'I-NP'
p60
g5
tp61
a(S':'
p62
g62
g62
g5
g5
tp63
a(S'pragmatic'
p64
S'pragmatic'
p65
S'JJ'
p66
S'B-NP'
p67
g5
tp68
a(S'randomised'
p69
S'randomise'
p70
S'VBN'
p71
S'I-NP'
p72
g5
tp73
a(S'trial'
p74
S'trial'
p75
S'NN'
p76
S'I-NP'
p77
g5
tp78
a(S'.'
p79
g79
g79
g5
g5
tp80
a(S'To'
p81
S'To'
p82
S'TO'
p83
S'B-VP'
p84
g5
tp85
a(S'test'
p86
S'test'
p87
S'VB'
p88
S'I-VP'
p89
g5
tp90
a(S'whether'
p91
S'whether'
p92
S'IN'
p93
S'B-SBAR'
p94
g5
tp95
a(S'steroids'
p96
S'steroid'
p97
S'NNS'
p98
S'B-NP'
p99
g5
tp100
a(S'reduce'
p101
S'reduce'
p102
S'VBP'
p103
S'B-VP'
p104
g5
tp105
a(S'respiratory'
p106
S'respiratory'
p107
S'JJ'
p108
S'B-NP'
p109
g5
tp110
a(S'distress'
p111
S'distress'
p112
S'NN'
p113
S'I-NP'
p114
g5
tp115
a(S'in'
p116
S'in'
p117
S'IN'
p118
S'B-PP'
p119
g5
tp120
a(S'babies'
p121
S'baby'
p122
S'NNS'
p123
S'B-NP'
p124
g5
tp125
a(S'born'
p126
S'bear'
p127
S'VBN'
p128
S'B-VP'
p129
g5
tp130
a(S'by'
p131
S'by'
p132
S'IN'
p133
S'B-PP'
p134
g5
tp135
a(S'elective'
p136
S'elective'
p137
S'JJ'
p138
S'B-NP'
p139
g5
tp140
a(S'caesarean'
p141
S'caesarean'
p142
S'JJ'
p143
S'I-NP'
p144
g5
tp145
a(S'section'
p146
S'section'
p147
S'NN'
p148
S'I-NP'
p149
g5
tp150
a(S'at'
p151
S'at'
p152
S'IN'
p153
S'B-PP'
p154
g5
tp155
a(S'term'
p156
S'term'
p157
S'NN'
p158
S'B-NP'
p159
g5
tp160
a(g79
g79
g79
g5
g5
tp161
a(S'Multicentre'
p162
S'Multicentre'
p163
S'JJ'
p164
S'B-NP'
p165
S'B-DNA'
p166
tp167
a(S'pragmatic'
p168
S'pragmatic'
p169
S'JJ'
p170
S'I-NP'
p171
S'I-DNA'
p172
tp173
a(S'randomised'
p174
S'randomise'
p175
S'VBN'
p176
S'I-NP'
p177
S'I-DNA'
p178
tp179
a(S'trial'
p180
S'trial'
p181
S'NN'
p182
S'I-NP'
p183
S'I-DNA'
p184
tp185
a(g79
g79
g79
S'I-NP'
p186
S'I-DNA'
p187
tp188
a(S'10'
p189
S'10'
p190
S'CD'
p191
S'I-NP'
p192
S'I-DNA'
p193
tp194
a(S'maternity'
p195
S'maternity'
p196
S'NN'
p197
S'I-NP'
p198
S'I-DNA'
p199
tp200
a(S'units'
p201
S'unit'
p202
S'NNS'
p203
S'I-NP'
p204
S'I-DNA'
p205
tp206
a(g79
g79
g79
g5
g5
tp207
a(S'998'
p208
S'998'
p209
S'CD'
p210
S'B-NP'
p211
g5
tp212
a(S'consenting'
p213
S'consent'
p214
S'VBG'
p215
S'I-NP'
p216
g5
tp217
a(S'women'
p218
S'woman'
p219
S'NNS'
p220
S'I-NP'
p221
g5
tp222
a(S'randomised'
p223
S'randomise'
p224
S'VBN'
p225
S'B-VP'
p226
g5
tp227
a(S'at'
p228
S'at'
p229
S'IN'
p230
S'B-PP'
p231
g5
tp232
a(S'decision'
p233
S'decision'
p234
S'NN'
p235
S'B-NP'
p236
g5
tp237
a(S'to'
p238
S'to'
p239
S'TO'
p240
S'B-VP'
p241
g5
tp242
a(S'deliver'
p243
S'deliver'
p244
S'VB'
p245
S'I-VP'
p246
g5
tp247
a(S'by'
p248
S'by'
p249
S'IN'
p250
S'B-PP'
p251
g5
tp252
a(S'elective'
p253
S'elective'
p254
S'JJ'
p255
S'B-NP'
p256
g5
tp257
a(S'caesarean'
p258
S'caesarean'
p259
S'JJ'
p260
S'I-NP'
p261
g5
tp262
a(S'section'
p263
S'section'
p264
S'NN'
p265
S'I-NP'
p266
g5
tp267
a(S';'
p268
g268
g62
g5
g5
tp269
a(S'503'
p270
S'503'
p271
S'CD'
p272
S'B-NP'
p273
g5
tp274
a(S'randomised'
p275
S'randomise'
p276
S'VBN'
p277
S'B-VP'
p278
g5
tp279
a(S'to'
p280
S'to'
p281
S'TO'
p282
S'B-PP'
p283
g5
tp284
a(S'treatment'
p285
S'treatment'
p286
S'NN'
p287
S'B-NP'
p288
g5
tp289
a(S'group'
p290
S'group'
p291
S'NN'
p292
S'I-NP'
p293
g5
tp294
a(g79
g79
g79
g5
g5
tp295
a(S'The'
p296
S'The'
p297
S'DT'
p298
S'B-NP'
p299
g5
tp300
a(S'treatment'
p301
S'treatment'
p302
S'NN'
p303
S'I-NP'
p304
g5
tp305
a(S'group'
p306
S'group'
p307
S'NN'
p308
S'I-NP'
p309
g5
tp310
a(S'received'
p311
S'receive'
p312
S'VBD'
p313
S'B-VP'
p314
g5
tp315
a(S'2'
p316
g316
S'CD'
p317
S'B-NP'
p318
g5
tp319
a(S'intramuscular'
p320
S'intramuscular'
p321
S'JJ'
p322
S'I-NP'
p323
g5
tp324
a(S'doses'
p325
S'dose'
p326
S'NNS'
p327
S'I-NP'
p328
g5
tp329
a(S'of'
p330
S'of'
p331
S'IN'
p332
S'B-PP'
p333
g5
tp334
a(S'12'
p335
S'12'
p336
S'CD'
p337
S'B-NP'
p338
g5
tp339
a(S'mg'
p340
S'mg'
p341
S'NN'
p342
S'I-NP'
p343
g5
tp344
a(S'betamethasone'
p345
S'betamethasone'
p346
S'NN'
p347
S'I-NP'
p348
g5
tp349
a(S'in'
p350
S'in'
p351
S'IN'
p352
S'B-PP'
p353
g5
tp354
a(S'the'
p355
S'the'
p356
S'DT'
p357
S'B-NP'
p358
g5
tp359
a(S'48'
p360
S'48'
p361
S'CD'
p362
S'I-NP'
p363
g5
tp364
a(S'hours'
p365
S'hour'
p366
S'NNS'
p367
S'I-NP'
p368
g5
tp369
a(S'before'
p370
S'before'
p371
S'IN'
p372
S'B-PP'
p373
g5
tp374
a(S'delivery'
p375
S'delivery'
p376
S'NN'
p377
S'B-NP'
p378
g5
tp379
a(g79
g79
g79
g5
g5
tp380
a(S'The'
p381
S'The'
p382
S'DT'
p383
S'B-NP'
p384
g5
tp385
a(S'control'
p386
S'control'
p387
S'NN'
p388
S'I-NP'
p389
g5
tp390
a(S'group'
p391
S'group'
p392
S'NN'
p393
S'I-NP'
p394
g5
tp395
a(S'received'
p396
S'receive'
p397
S'VBD'
p398
S'B-VP'
p399
g5
tp400
a(S'treatment'
p401
S'treatment'
p402
S'NN'
p403
S'B-NP'
p404
g5
tp405
a(S'as'
p406
S'as'
p407
S'IN'
p408
S'B-PP'
p409
g5
tp410
a(S'usual'
p411
S'usual'
p412
S'JJ'
p413
S'B-ADJP'
p414
g5
tp415
a(g79
g79
g79
g5
g5
tp416
a(S'The'
p417
S'The'
p418
S'DT'
p419
S'B-NP'
p420
g5
tp421
a(S'primary'
p422
S'primary'
p423
S'JJ'
p424
S'I-NP'
p425
g5
tp426
a(S'outcome'
p427
S'outcome'
p428
S'NN'
p429
S'I-NP'
p430
g5
tp431
a(S'was'
p432
S'be'
p433
S'VBD'
p434
S'B-VP'
p435
g5
tp436
a(S'admission'
p437
S'admission'
p438
S'NN'
p439
S'B-NP'
p440
g5
tp441
a(S'to'
p442
S'to'
p443
S'TO'
p444
S'B-PP'
p445
g5
tp446
a(S'special'
p447
S'special'
p448
S'JJ'
p449
S'B-NP'
p450
g5
tp451
a(S'care'
p452
S'care'
p453
S'NN'
p454
S'I-NP'
p455
g5
tp456
a(S'baby'
p457
S'baby'
p458
S'NN'
p459
S'I-NP'
p460
g5
tp461
a(S'unit'
p462
S'unit'
p463
S'NN'
p464
S'I-NP'
p465
g5
tp466
a(S'with'
p467
S'with'
p468
S'IN'
p469
S'B-PP'
p470
g5
tp471
a(S'respiratory'
p472
S'respiratory'
p473
S'JJ'
p474
S'B-NP'
p475
g5
tp476
a(S'distress'
p477
S'distress'
p478
S'NN'
p479
S'I-NP'
p480
g5
tp481
a(g79
g79
g79
g5
g5
tp482
a(S'Secondary'
p483
S'Secondary'
p484
S'JJ'
p485
S'B-NP'
p486
g5
tp487
a(S'outcomes'
p488
S'outcome'
p489
S'NNS'
p490
S'I-NP'
p491
g5
tp492
a(S'were'
p493
S'be'
p494
S'VBD'
p495
S'B-VP'
p496
g5
tp497
a(S'severity'
p498
S'severity'
p499
S'NN'
p500
S'B-NP'
p501
g5
tp502
a(S'of'
p503
S'of'
p504
S'IN'
p505
S'B-PP'
p506
g5
tp507
a(S'respiratory'
p508
S'respiratory'
p509
S'JJ'
p510
S'B-NP'
p511
g5
tp512
a(S'distress'
p513
S'distress'
p514
S'NN'
p515
S'I-NP'
p516
g5
tp517
a(S'and'
p518
S'and'
p519
S'CC'
p520
S'I-NP'
p521
g5
tp522
a(S'level'
p523
S'level'
p524
S'NN'
p525
S'I-NP'
p526
g5
tp527
a(S'of'
p528
S'of'
p529
S'IN'
p530
S'B-PP'
p531
g5
tp532
a(S'care'
p533
S'care'
p534
S'NN'
p535
S'B-NP'
p536
g5
tp537
a(S'in'
p538
S'in'
p539
S'IN'
p540
S'B-PP'
p541
g5
tp542
a(S'response'
p543
S'response'
p544
S'NN'
p545
S'B-NP'
p546
g5
tp547
a(g79
g79
g79
g5
g5
tp548
a(S'Sex'
p549
S'Sex'
p550
S'NN'
p551
S'B-NP'
p552
S'B-protein'
p553
tp554
a(S','
p555
g555
g555
g5
g5
tp556
a(S'birth'
p557
S'birth'
p558
S'NN'
p559
S'B-NP'
p560
g5
tp561
a(S'weight'
p562
S'weight'
p563
S'NN'
p564
S'I-NP'
p565
g5
tp566
a(g555
g555
g555
g5
g5
tp567
a(S'and'
p568
S'and'
p569
S'CC'
p570
g5
g5
tp571
a(S'gestation'
p572
S'gestation'
p573
S'NN'
p574
S'B-NP'
p575
g5
tp576
a(S'were'
p577
S'be'
p578
S'VBD'
p579
S'B-VP'
p580
g5
tp581
a(S'not'
p582
S'not'
p583
S'RB'
p584
S'B-ADJP'
p585
g5
tp586
a(S'different'
p587
S'different'
p588
S'JJ'
p589
S'I-ADJP'
p590
g5
tp591
a(S'between'
p592
S'between'
p593
S'IN'
p594
S'B-PP'
p595
g5
tp596
a(S'the'
p597
S'the'
p598
S'DT'
p599
S'B-NP'
p600
g5
tp601
a(g316
g316
S'CD'
p602
S'I-NP'
p603
g5
tp604
a(S'groups'
p605
S'group'
p606
S'NNS'
p607
S'I-NP'
p608
g5
tp609
a(g79
g79
g79
g5
g5
tp610
a(S'Of'
p611
S'Of'
p612
S'IN'
p613
S'B-PP'
p614
g5
tp615
a(S'the'
p616
S'the'
p617
S'DT'
p618
S'B-NP'
p619
g5
tp620
a(S'35'
p621
S'35'
p622
S'CD'
p623
S'I-NP'
p624
g5
tp625
a(S'babies'
p626
S'baby'
p627
S'NNS'
p628
S'I-NP'
p629
g5
tp630
a(S'admitted'
p631
S'admit'
p632
S'VBN'
p633
S'B-VP'
p634
g5
tp635
a(S'to'
p636
S'to'
p637
S'TO'
p638
S'B-PP'
p639
g5
tp640
a(S'special'
p641
S'special'
p642
S'JJ'
p643
S'B-NP'
p644
g5
tp645
a(S'baby'
p646
S'baby'
p647
S'NN'
p648
S'I-NP'
p649
g5
tp650
a(S'units'
p651
S'unit'
p652
S'NNS'
p653
S'I-NP'
p654
g5
tp655
a(S'with'
p656
S'with'
p657
S'IN'
p658
S'B-PP'
p659
g5
tp660
a(S'respiratory'
p661
S'respiratory'
p662
S'JJ'
p663
S'B-NP'
p664
g5
tp665
a(S'distress'
p666
S'distress'
p667
S'NN'
p668
S'I-NP'
p669
g5
tp670
a(g555
g555
g555
g5
g5
tp671
a(S'24'
p672
S'24'
p673
S'CD'
p674
S'B-NP'
p675
g5
tp676
a(S'were'
p677
S'be'
p678
S'VBD'
p679
S'B-VP'
p680
g5
tp681
a(S'in'
p682
S'in'
p683
S'IN'
p684
S'B-PP'
p685
g5
tp686
a(S'the'
p687
S'the'
p688
S'DT'
p689
S'B-NP'
p690
g5
tp691
a(S'control'
p692
S'control'
p693
S'NN'
p694
S'I-NP'
p695
g5
tp696
a(S'group'
p697
S'group'
p698
S'NN'
p699
S'I-NP'
p700
g5
tp701
a(S'and'
p702
S'and'
p703
S'CC'
p704
g5
g5
tp705
a(S'11'
p706
S'11'
p707
S'CD'
p708
S'B-NP'
p709
g5
tp710
a(S'in'
p711
S'in'
p712
S'IN'
p713
S'B-PP'
p714
g5
tp715
a(S'the'
p716
S'the'
p717
S'DT'
p718
S'B-NP'
p719
g5
tp720
a(S'intervention'
p721
S'intervention'
p722
S'NN'
p723
S'I-NP'
p724
g5
tp725
a(S'group'
p726
S'group'
p727
S'NN'
p728
S'I-NP'
p729
g5
tp730
a(S'('
p731
g731
g731
g5
g5
tp732
a(S'P'
p733
g733
S'NN'
p734
S'B-NP'
p735
g5
tp736
a(S'='
p737
g737
S'SYM'
p738
S'B-VP'
p739
g5
tp740
a(S'0.02'
p741
S'0.02'
p742
S'CD'
p743
S'B-NP'
p744
g5
tp745
a(S')'
p746
g746
g746
g5
g5
tp747
a(g79
g79
g79
g5
g5
tp748
a(S'The'
p749
S'The'
p750
S'DT'
p751
S'B-NP'
p752
g5
tp753
a(S'incidence'
p754
S'incidence'
p755
S'NN'
p756
S'I-NP'
p757
g5
tp758
a(S'of'
p759
S'of'
p760
S'IN'
p761
S'B-PP'
p762
g5
tp763
a(S'admission'
p764
S'admission'
p765
S'NN'
p766
S'B-NP'
p767
g5
tp768
a(S'with'
p769
S'with'
p770
S'IN'
p771
S'B-PP'
p772
g5
tp773
a(S'respiratory'
p774
S'respiratory'
p775
S'JJ'
p776
S'B-NP'
p777
g5
tp778
a(S'distress'
p779
S'distress'
p780
S'NN'
p781
S'I-NP'
p782
g5
tp783
a(S'was'
p784
S'be'
p785
S'VBD'
p786
S'B-VP'
p787
g5
tp788
a(S'0.051'
p789
S'0.051'
p790
S'CD'
p791
S'B-NP'
p792
g5
tp793
a(S'in'
p794
S'in'
p795
S'IN'
p796
S'B-PP'
p797
g5
tp798
a(S'the'
p799
S'the'
p800
S'DT'
p801
S'B-NP'
p802
g5
tp803
a(S'control'
p804
S'control'
p805
S'NN'
p806
S'I-NP'
p807
g5
tp808
a(S'group'
p809
S'group'
p810
S'NN'
p811
S'I-NP'
p812
g5
tp813
a(S'and'
p814
S'and'
p815
S'CC'
p816
g5
g5
tp817
a(S'0.024'
p818
S'0.024'
p819
S'CD'
p820
S'B-NP'
p821
g5
tp822
a(S'in'
p823
S'in'
p824
S'IN'
p825
S'B-PP'
p826
g5
tp827
a(S'the'
p828
S'the'
p829
S'DT'
p830
S'B-NP'
p831
g5
tp832
a(S'treatment'
p833
S'treatment'
p834
S'NN'
p835
S'I-NP'
p836
g5
tp837
a(S'group'
p838
S'group'
p839
S'NN'
p840
S'I-NP'
p841
g5
tp842
a(g731
g731
g731
g5
g5
tp843
a(S'relative'
p844
S'relative'
p845
S'JJ'
p846
S'B-NP'
p847
g5
tp848
a(S'risk'
p849
S'risk'
p850
S'NN'
p851
S'I-NP'
p852
g5
tp853
a(S'0.46'
p854
S'0.46'
p855
S'CD'
p856
S'I-NP'
p857
g5
tp858
a(g555
g555
g555
S'I-NP'
p859
g5
tp860
a(S'95'
p861
S'95'
p862
S'CD'
p863
S'I-NP'
p864
g5
tp865
a(S'%'
p866
g866
S'NN'
p867
S'I-NP'
p868
g5
tp869
a(S'confidence'
p870
S'confidence'
p871
S'NN'
p872
S'I-NP'
p873
g5
tp874
a(S'interval'
p875
S'interval'
p876
S'NN'
p877
S'I-NP'
p878
g5
tp879
a(S'0.23'
p880
S'0.23'
p881
S'CD'
p882
S'B-NP'
p883
g5
tp884
a(S'to'
p885
S'to'
p886
S'TO'
p887
S'I-NP'
p888
g5
tp889
a(S'0.93'
p890
S'0.93'
p891
S'CD'
p892
S'I-NP'
p893
g5
tp894
a(g746
g746
g746
g5
g5
tp895
a(g79
g79
g79
g5
g5
tp896
a(S'The'
p897
S'The'
p898
S'DT'
p899
S'B-NP'
p900
g5
tp901
a(S'incidence'
p902
S'incidence'
p903
S'NN'
p904
S'I-NP'
p905
g5
tp906
a(S'of'
p907
S'of'
p908
S'IN'
p909
S'B-PP'
p910
g5
tp911
a(S'transient'
p912
S'transient'
p913
S'JJ'
p914
S'B-NP'
p915
g5
tp916
a(S'tachypnoea'
p917
S'tachypnoea'
p918
S'NN'
p919
S'I-NP'
p920
g5
tp921
a(S'of'
p922
S'of'
p923
S'IN'
p924
S'B-PP'
p925
g5
tp926
a(S'the'
p927
S'the'
p928
S'DT'
p929
S'B-NP'
p930
g5
tp931
a(S'newborn'
p932
S'newborn'
p933
S'NN'
p934
S'I-NP'
p935
g5
tp936
a(S'was'
p937
S'be'
p938
S'VBD'
p939
S'B-VP'
p940
g5
tp941
a(S'0.040'
p942
S'0.040'
p943
S'CD'
p944
S'B-NP'
p945
g5
tp946
a(S'in'
p947
S'in'
p948
S'IN'
p949
S'B-PP'
p950
g5
tp951
a(S'the'
p952
S'the'
p953
S'DT'
p954
S'B-NP'
p955
g5
tp956
a(S'control'
p957
S'control'
p958
S'NN'
p959
S'I-NP'
p960
g5
tp961
a(S'group'
p962
S'group'
p963
S'NN'
p964
S'I-NP'
p965
g5
tp966
a(S'and'
p967
S'and'
p968
S'CC'
p969
g5
g5
tp970
a(S'0.021'
p971
S'0.021'
p972
S'CD'
p973
S'B-NP'
p974
g5
tp975
a(S'in'
p976
S'in'
p977
S'IN'
p978
S'B-PP'
p979
g5
tp980
a(S'the'
p981
S'the'
p982
S'DT'
p983
S'B-NP'
p984
g5
tp985
a(S'treatment'
p986
S'treatment'
p987
S'NN'
p988
S'I-NP'
p989
g5
tp990
a(S'group'
p991
S'group'
p992
S'NN'
p993
S'I-NP'
p994
g5
tp995
a(g731
g731
g731
g5
g5
tp996
a(S'0.54'
p997
S'0.54'
p998
S'CD'
p999
S'B-NP'
p1000
g5
tp1001
a(g555
g555
g555
g5
g5
tp1002
a(S'0.26'
p1003
S'0.26'
p1004
S'CD'
p1005
S'B-NP'
p1006
g5
tp1007
a(S'to'
p1008
S'to'
p1009
S'TO'
p1010
S'B-PP'
p1011
g5
tp1012
a(S'1.12'
p1013
S'1.12'
p1014
S'CD'
p1015
S'B-NP'
p1016
g5
tp1017
a(g746
g746
g746
g5
g5
tp1018
a(g79
g79
g79
g5
g5
tp1019
a(S'The'
p1020
S'The'
p1021
S'DT'
p1022
S'B-NP'
p1023
g5
tp1024
a(S'incidence'
p1025
S'incidence'
p1026
S'NN'
p1027
S'I-NP'
p1028
g5
tp1029
a(S'of'
p1030
S'of'
p1031
S'IN'
p1032
S'B-PP'
p1033
g5
tp1034
a(S'respiratory'
p1035
S'respiratory'
p1036
S'JJ'
p1037
S'B-NP'
p1038
g5
tp1039
a(S'distress'
p1040
S'distress'
p1041
S'NN'
p1042
S'I-NP'
p1043
g5
tp1044
a(S'syndrome'
p1045
S'syndrome'
p1046
S'NN'
p1047
S'I-NP'
p1048
g5
tp1049
a(S'was'
p1050
S'be'
p1051
S'VBD'
p1052
S'B-VP'
p1053
g5
tp1054
a(S'0.011'
p1055
S'0.011'
p1056
S'CD'
p1057
S'B-NP'
p1058
g5
tp1059
a(S'in'
p1060
S'in'
p1061
S'IN'
p1062
S'B-PP'
p1063
g5
tp1064
a(S'the'
p1065
S'the'
p1066
S'DT'
p1067
S'B-NP'
p1068
g5
tp1069
a(S'control'
p1070
S'control'
p1071
S'NN'
p1072
S'I-NP'
p1073
g5
tp1074
a(S'group'
p1075
S'group'
p1076
S'NN'
p1077
S'I-NP'
p1078
g5
tp1079
a(S'and'
p1080
S'and'
p1081
S'CC'
p1082
g5
g5
tp1083
a(S'0.002'
p1084
S'0.002'
p1085
S'CD'
p1086
S'B-NP'
p1087
g5
tp1088
a(S'in'
p1089
S'in'
p1090
S'IN'
p1091
S'B-PP'
p1092
g5
tp1093
a(S'the'
p1094
S'the'
p1095
S'DT'
p1096
S'B-NP'
p1097
g5
tp1098
a(S'treatment'
p1099
S'treatment'
p1100
S'NN'
p1101
S'I-NP'
p1102
g5
tp1103
a(S'group'
p1104
S'group'
p1105
S'NN'
p1106
S'I-NP'
p1107
g5
tp1108
a(g731
g731
g731
g5
g5
tp1109
a(S'0.21'
p1110
S'0.21'
p1111
S'CD'
p1112
S'B-NP'
p1113
g5
tp1114
a(g555
g555
g555
g5
g5
tp1115
a(S'0.03'
p1116
S'0.03'
p1117
S'CD'
p1118
S'B-NP'
p1119
g5
tp1120
a(S'to'
p1121
S'to'
p1122
S'TO'
p1123
S'B-PP'
p1124
g5
tp1125
a(S'1.32'
p1126
S'1.32'
p1127
S'CD'
p1128
S'B-NP'
p1129
g5
tp1130
a(g746
g746
g746
g5
g5
tp1131
a(g79
g79
g79
g5
g5
tp1132
a(S'Antenatal'
p1133
S'Antenatal'
p1134
S'JJ'
p1135
S'B-NP'
p1136
g5
tp1137
a(S'betamethasone'
p1138
S'betamethasone'
p1139
S'NN'
p1140
S'I-NP'
p1141
g5
tp1142
a(S'and'
p1143
S'and'
p1144
S'CC'
p1145
g5
g5
tp1146
a(S'delaying'
p1147
S'delay'
p1148
S'VBG'
p1149
S'B-VP'
p1150
g5
tp1151
a(S'delivery'
p1152
S'delivery'
p1153
S'NN'
p1154
S'B-NP'
p1155
g5
tp1156
a(S'until'
p1157
S'until'
p1158
S'IN'
p1159
S'B-PP'
p1160
g5
tp1161
a(S'39'
p1162
S'39'
p1163
S'CD'
p1164
S'B-NP'
p1165
g5
tp1166
a(S'weeks'
p1167
S'week'
p1168
S'NNS'
p1169
S'I-NP'
p1170
g5
tp1171
a(S'both'
p1172
S'both'
p1173
S'DT'
p1174
S'B-NP'
p1175
g5
tp1176
a(S'reduce'
p1177
S'reduce'
p1178
S'VBP'
p1179
S'B-VP'
p1180
g5
tp1181
a(S'admissions'
p1182
S'admission'
p1183
S'NNS'
p1184
S'B-NP'
p1185
g5
tp1186
a(S'to'
p1187
S'to'
p1188
S'TO'
p1189
S'B-PP'
p1190
g5
tp1191
a(S'special'
p1192
S'special'
p1193
S'JJ'
p1194
S'B-NP'
p1195
g5
tp1196
a(S'care'
p1197
S'care'
p1198
S'NN'
p1199
S'I-NP'
p1200
g5
tp1201
a(S'baby'
p1202
S'baby'
p1203
S'NN'
p1204
S'I-NP'
p1205
g5
tp1206
a(S'units'
p1207
S'unit'
p1208
S'NNS'
p1209
S'I-NP'
p1210
g5
tp1211
a(S'with'
p1212
S'with'
p1213
S'IN'
p1214
S'B-PP'
p1215
g5
tp1216
a(S'respiratory'
p1217
S'respiratory'
p1218
S'JJ'
p1219
S'B-NP'
p1220
g5
tp1221
a(S'distress'
p1222
S'distress'
p1223
S'NN'
p1224
S'I-NP'
p1225
g5
tp1226
a(S'after'
p1227
S'after'
p1228
S'IN'
p1229
S'B-PP'
p1230
g5
tp1231
a(S'elective'
p1232
S'elective'
p1233
S'JJ'
p1234
S'B-NP'
p1235
g5
tp1236
a(S'caesarean'
p1237
S'caesarean'
p1238
S'JJ'
p1239
S'I-NP'
p1240
g5
tp1241
a(S'section'
p1242
S'section'
p1243
S'NN'
p1244
S'I-NP'
p1245
g5
tp1246
a(S'at'
p1247
S'at'
p1248
S'IN'
p1249
S'B-PP'
p1250
g5
tp1251
a(S'term'
p1252
S'term'
p1253
S'NN'
p1254
S'B-NP'
p1255
g5
tp1256
a(g79
g79
g79
g5
g5
tp1257
a.