(lp0
(S'Impact'
p1
S'Impact'
p2
S'NN'
p3
S'B-NP'
p4
S'O'
p5
tp6
a(S'of'
p7
S'of'
p8
S'IN'
p9
S'B-PP'
p10
g5
tp11
a(S'Helicobacter'
p12
S'Helicobacter'
p13
S'NN'
p14
S'B-NP'
p15
g5
tp16
a(S'pylori'
p17
S'pylori'
p18
S'NN'
p19
S'I-NP'
p20
g5
tp21
a(S'eradication'
p22
S'eradication'
p23
S'NN'
p24
S'I-NP'
p25
g5
tp26
a(S'on'
p27
S'on'
p28
S'IN'
p29
S'B-PP'
p30
g5
tp31
a(S'dyspepsia'
p32
S'dyspepsia'
p33
S'NN'
p34
S'B-NP'
p35
g5
tp36
a(S','
p37
g37
g37
g5
g5
tp38
a(S'health'
p39
S'health'
p40
S'NN'
p41
S'B-NP'
p42
g5
tp43
a(S'resource'
p44
S'resource'
p45
S'NN'
p46
S'I-NP'
p47
g5
tp48
a(S'use'
p49
S'use'
p50
S'NN'
p51
S'I-NP'
p52
g5
tp53
a(g37
g37
g37
g5
g5
tp54
a(S'and'
p55
S'and'
p56
S'CC'
p57
g5
g5
tp58
a(S'quality'
p59
S'quality'
p60
S'NN'
p61
S'B-NP'
p62
g5
tp63
a(S'of'
p64
S'of'
p65
S'IN'
p66
S'B-PP'
p67
g5
tp68
a(S'life'
p69
S'life'
p70
S'NN'
p71
S'B-NP'
p72
g5
tp73
a(S'in'
p74
S'in'
p75
S'IN'
p76
S'B-PP'
p77
g5
tp78
a(S'the'
p79
S'the'
p80
S'DT'
p81
S'B-NP'
p82
g5
tp83
a(S'Bristol'
p84
S'Bristol'
p85
S'NNP'
p86
S'I-NP'
p87
g5
tp88
a(S'helicobacter'
p89
S'helicobacter'
p90
S'NN'
p91
S'I-NP'
p92
g5
tp93
a(S'project'
p94
S'project'
p95
S'NN'
p96
S'I-NP'
p97
g5
tp98
a(S':'
p99
g99
g99
g5
g5
tp100
a(S'randomised'
p101
S'randomise'
p102
S'VBN'
p103
S'B-VP'
p104
g5
tp105
a(S'controlled'
p106
S'control'
p107
S'VBN'
p108
S'B-NP'
p109
g5
tp110
a(S'trial'
p111
S'trial'
p112
S'NN'
p113
S'I-NP'
p114
g5
tp115
a(S'.'
p116
g116
g116
g5
g5
tp117
a(S'To'
p118
S'To'
p119
S'TO'
p120
S'B-VP'
p121
g5
tp122
a(S'determine'
p123
S'determine'
p124
S'VB'
p125
S'I-VP'
p126
g5
tp127
a(S'the'
p128
S'the'
p129
S'DT'
p130
S'B-NP'
p131
g5
tp132
a(S'impact'
p133
S'impact'
p134
S'NN'
p135
S'I-NP'
p136
g5
tp137
a(S'of'
p138
S'of'
p139
S'IN'
p140
S'B-PP'
p141
g5
tp142
a(S'a'
p143
g143
S'DT'
p144
S'B-NP'
p145
g5
tp146
a(S'community'
p147
S'community'
p148
S'NN'
p149
S'I-NP'
p150
g5
tp151
a(S'based'
p152
S'based'
p153
S'JJ'
p154
S'I-NP'
p155
g5
tp156
a(S'Helicobacter'
p157
S'Helicobacter'
p158
S'NN'
p159
S'I-NP'
p160
g5
tp161
a(S'pylori'
p162
S'pylori'
p163
S'NN'
p164
S'I-NP'
p165
g5
tp166
a(S'screening'
p167
S'screening'
p168
S'NN'
p169
S'I-NP'
p170
g5
tp171
a(S'and'
p172
S'and'
p173
S'CC'
p174
g5
g5
tp175
a(S'eradication'
p176
S'eradication'
p177
S'NN'
p178
S'B-NP'
p179
g5
tp180
a(S'programme'
p181
S'programme'
p182
S'NN'
p183
S'I-NP'
p184
g5
tp185
a(S'on'
p186
S'on'
p187
S'IN'
p188
S'B-PP'
p189
g5
tp190
a(S'the'
p191
S'the'
p192
S'DT'
p193
S'B-NP'
p194
g5
tp195
a(S'incidence'
p196
S'incidence'
p197
S'NN'
p198
S'I-NP'
p199
g5
tp200
a(S'of'
p201
S'of'
p202
S'IN'
p203
S'B-PP'
p204
g5
tp205
a(S'dyspepsia'
p206
S'dyspepsia'
p207
S'NN'
p208
S'B-NP'
p209
g5
tp210
a(g37
g37
g37
g5
g5
tp211
a(S'resource'
p212
S'resource'
p213
S'NN'
p214
S'B-NP'
p215
g5
tp216
a(S'use'
p217
S'use'
p218
S'NN'
p219
S'I-NP'
p220
g5
tp221
a(g37
g37
g37
g5
g5
tp222
a(S'and'
p223
S'and'
p224
S'CC'
p225
g5
g5
tp226
a(S'quality'
p227
S'quality'
p228
S'NN'
p229
S'B-NP'
p230
g5
tp231
a(S'of'
p232
S'of'
p233
S'IN'
p234
S'B-PP'
p235
g5
tp236
a(S'life'
p237
S'life'
p238
S'NN'
p239
S'B-NP'
p240
g5
tp241
a(g37
g37
g37
g5
g5
tp242
a(S'including'
p243
S'include'
p244
S'VBG'
p245
S'B-PP'
p246
g5
tp247
a(g143
g143
S'DT'
p248
S'B-NP'
p249
g5
tp250
a(S'cost'
p251
S'cost'
p252
S'NN'
p253
S'I-NP'
p254
g5
tp255
a(S'consequences'
p256
S'consequence'
p257
S'NNS'
p258
S'I-NP'
p259
g5
tp260
a(S'analysis'
p261
S'analysis'
p262
S'NN'
p263
S'I-NP'
p264
g5
tp265
a(g116
g116
g116
g5
g5
tp266
a(S'H'
p267
g267
S'NN'
p268
S'B-NP'
p269
g5
tp270
a(S'pylori'
p271
S'pylori'
p272
S'NN'
p273
S'I-NP'
p274
g5
tp275
a(S'screening'
p276
S'screening'
p277
S'NN'
p278
S'I-NP'
p279
g5
tp280
a(S'programme'
p281
S'programme'
p282
S'NN'
p283
S'I-NP'
p284
g5
tp285
a(S'followed'
p286
S'follow'
p287
S'VBN'
p288
S'B-VP'
p289
g5
tp290
a(S'by'
p291
S'by'
p292
S'IN'
p293
S'B-PP'
p294
g5
tp295
a(S'randomised'
p296
S'randomise'
p297
S'VBN'
p298
S'B-NP'
p299
g5
tp300
a(S'placebo'
p301
S'placebo'
p302
S'NN'
p303
S'I-NP'
p304
g5
tp305
a(S'controlled'
p306
S'control'
p307
S'VBN'
p308
S'I-NP'
p309
g5
tp310
a(S'trial'
p311
S'trial'
p312
S'NN'
p313
S'I-NP'
p314
g5
tp315
a(S'of'
p316
S'of'
p317
S'IN'
p318
S'B-PP'
p319
g5
tp320
a(S'eradication'
p321
S'eradication'
p322
S'NN'
p323
S'B-NP'
p324
g5
tp325
a(g116
g116
g116
g5
g5
tp326
a(S'7'
p327
g327
S'CD'
p328
S'B-NP'
p329
g5
tp330
a(S'general'
p331
S'general'
p332
S'JJ'
p333
S'I-NP'
p334
g5
tp335
a(S'practices'
p336
S'practice'
p337
S'NNS'
p338
S'I-NP'
p339
g5
tp340
a(S'in'
p341
S'in'
p342
S'IN'
p343
S'B-PP'
p344
g5
tp345
a(S'southwest'
p346
S'southwest'
p347
S'JJ'
p348
S'B-NP'
p349
g5
tp350
a(S'England'
p351
S'England'
p352
S'NNP'
p353
S'I-NP'
p354
g5
tp355
a(g116
g116
g116
S'I-NP'
p356
g5
tp357
a(S'10'
p358
S'10'
p359
S'CD'
p360
S'I-NP'
p361
g5
tp362
a(g37
g37
g37
S'I-NP'
p363
g5
tp364
a(S'537'
p365
S'537'
p366
S'CD'
p367
S'I-NP'
p368
g5
tp369
a(S'unselected'
p370
S'unselected'
p371
S'JJ'
p372
S'I-NP'
p373
g5
tp374
a(S'people'
p375
S'people'
p376
S'NNS'
p377
S'I-NP'
p378
g5
tp379
a(S'aged'
p380
S'age'
p381
S'VBN'
p382
S'B-VP'
p383
g5
tp384
a(S'20-59'
p385
S'20-59'
p386
S'CD'
p387
S'B-NP'
p388
g5
tp389
a(S'years'
p390
S'year'
p391
S'NNS'
p392
S'I-NP'
p393
g5
tp394
a(S'were'
p395
S'be'
p396
S'VBD'
p397
S'B-VP'
p398
g5
tp399
a(S'screened'
p400
S'screen'
p401
S'VBN'
p402
S'I-VP'
p403
g5
tp404
a(S'for'
p405
S'for'
p406
S'IN'
p407
S'B-PP'
p408
g5
tp409
a(g267
g267
S'NN'
p410
S'B-NP'
p411
g5
tp412
a(S'pylori'
p413
S'pylori'
p414
S'NN'
p415
S'I-NP'
p416
g5
tp417
a(S'infection'
p418
S'infection'
p419
S'NN'
p420
S'I-NP'
p421
g5
tp422
a(S'('
p423
g423
g423
g5
g5
tp424
a(S'13C'
p425
S'13C'
p426
S'NN'
p427
S'B-NP'
p428
g5
tp429
a(S'urea'
p430
S'urea'
p431
S'NN'
p432
S'I-NP'
p433
g5
tp434
a(S'breath'
p435
S'breath'
p436
S'NN'
p437
S'I-NP'
p438
g5
tp439
a(S'test'
p440
S'test'
p441
S'NN'
p442
S'I-NP'
p443
g5
tp444
a(S')'
p445
g445
g445
g5
g5
tp446
a(S';'
p447
g447
g99
g5
g5
tp448
a(S'1558'
p449
S'1558'
p450
S'CD'
p451
S'B-NP'
p452
g5
tp453
a(S'of'
p454
S'of'
p455
S'IN'
p456
S'B-PP'
p457
g5
tp458
a(S'the'
p459
S'the'
p460
S'DT'
p461
S'B-NP'
p462
g5
tp463
a(S'1636'
p464
S'1636'
p465
S'CD'
p466
S'I-NP'
p467
g5
tp468
a(S'participants'
p469
S'participant'
p470
S'NNS'
p471
S'I-NP'
p472
g5
tp473
a(S'who'
p474
S'who'
p475
S'WP'
p476
S'B-NP'
p477
g5
tp478
a(S'tested'
p479
S'test'
p480
S'VBD'
p481
S'B-VP'
p482
g5
tp483
a(S'positive'
p484
S'positive'
p485
S'JJ'
p486
S'B-ADJP'
p487
g5
tp488
a(S'were'
p489
S'be'
p490
S'VBD'
p491
S'B-VP'
p492
g5
tp493
a(S'randomised'
p494
S'randomise'
p495
S'VBN'
p496
S'I-VP'
p497
g5
tp498
a(S'to'
p499
S'to'
p500
S'TO'
p501
S'B-PP'
p502
g5
tp503
a(g267
g267
S'NN'
p504
S'B-NP'
p505
g5
tp506
a(S'pylori'
p507
S'pylori'
p508
S'NN'
p509
S'I-NP'
p510
g5
tp511
a(S'eradication'
p512
S'eradication'
p513
S'NN'
p514
S'I-NP'
p515
g5
tp516
a(S'treatment'
p517
S'treatment'
p518
S'NN'
p519
S'I-NP'
p520
g5
tp521
a(S'or'
p522
S'or'
p523
S'CC'
p524
S'I-NP'
p525
g5
tp526
a(S'placebo'
p527
S'placebo'
p528
S'NN'
p529
S'I-NP'
p530
g5
tp531
a(g37
g37
g37
g5
g5
tp532
a(S'and'
p533
S'and'
p534
S'CC'
p535
g5
g5
tp536
a(S'1539'
p537
S'1539'
p538
S'CD'
p539
S'B-NP'
p540
g5
tp541
a(g423
g423
g423
g5
g5
tp542
a(S'99'
p543
S'99'
p544
S'CD'
p545
S'B-NP'
p546
g5
tp547
a(S'%'
p548
g548
S'NN'
p549
S'I-NP'
p550
g5
tp551
a(g445
g445
g445
g5
g5
tp552
a(S'were'
p553
S'be'
p554
S'VBD'
p555
S'B-VP'
p556
g5
tp557
a(S'followed'
p558
S'follow'
p559
S'VBN'
p560
S'I-VP'
p561
g5
tp562
a(S'up'
p563
S'up'
p564
S'RP'
p565
S'B-PRT'
p566
g5
tp567
a(S'for'
p568
S'for'
p569
S'IN'
p570
S'B-PP'
p571
g5
tp572
a(S'2'
p573
g573
S'CD'
p574
S'B-NP'
p575
g5
tp576
a(S'years'
p577
S'year'
p578
S'NNS'
p579
S'I-NP'
p580
g5
tp581
a(g116
g116
g116
g5
g5
tp582
a(S'Ranitidine'
p583
S'Ranitidine'
p584
S'NN'
p585
S'B-NP'
p586
S'B-protein'
p587
tp588
a(S'bismuth'
p589
S'bismuth'
p590
S'NN'
p591
S'I-NP'
p592
S'I-protein'
p593
tp594
a(S'citrate'
p595
S'citrate'
p596
S'VBP'
p597
S'B-VP'
p598
g5
tp599
a(S'400'
p600
S'400'
p601
S'CD'
p602
S'B-NP'
p603
g5
tp604
a(S'mg'
p605
S'mg'
p606
S'NN'
p607
S'I-NP'
p608
g5
tp609
a(S'and'
p610
S'and'
p611
S'CC'
p612
S'I-NP'
p613
g5
tp614
a(S'clarithromycin'
p615
S'clarithromycin'
p616
S'NN'
p617
S'I-NP'
p618
g5
tp619
a(S'500'
p620
S'500'
p621
S'CD'
p622
S'I-NP'
p623
g5
tp624
a(S'mg'
p625
S'mg'
p626
S'NN'
p627
S'I-NP'
p628
g5
tp629
a(S'twice'
p630
S'twice'
p631
S'RB'
p632
S'B-ADVP'
p633
g5
tp634
a(S'daily'
p635
S'daily'
p636
S'RB'
p637
S'I-ADVP'
p638
g5
tp639
a(S'for'
p640
S'for'
p641
S'IN'
p642
S'B-PP'
p643
g5
tp644
a(g573
g573
S'CD'
p645
S'B-NP'
p646
g5
tp647
a(S'weeks'
p648
S'week'
p649
S'NNS'
p650
S'I-NP'
p651
g5
tp652
a(S'or'
p653
S'or'
p654
S'CC'
p655
S'I-NP'
p656
g5
tp657
a(S'placebo'
p658
S'placebo'
p659
S'NN'
p660
S'I-NP'
p661
g5
tp662
a(g116
g116
g116
g5
g5
tp663
a(S'Primary'
p664
S'Primary'
p665
S'JJ'
p666
S'B-NP'
p667
g5
tp668
a(S'care'
p669
S'care'
p670
S'NN'
p671
S'I-NP'
p672
g5
tp673
a(S'consultation'
p674
S'consultation'
p675
S'NN'
p676
S'I-NP'
p677
g5
tp678
a(S'rates'
p679
S'rate'
p680
S'NNS'
p681
S'I-NP'
p682
g5
tp683
a(S'for'
p684
S'for'
p685
S'IN'
p686
S'B-PP'
p687
g5
tp688
a(S'dyspepsia'
p689
S'dyspepsia'
p690
S'NN'
p691
S'B-NP'
p692
g5
tp693
a(g423
g423
g423
g5
g5
tp694
a(S'defined'
p695
S'define'
p696
S'VBN'
p697
S'B-VP'
p698
g5
tp699
a(S'as'
p700
S'as'
p701
S'IN'
p702
S'B-PP'
p703
g5
tp704
a(S'epigastric'
p705
S'epigastric'
p706
S'JJ'
p707
S'B-NP'
p708
g5
tp709
a(S'pain'
p710
S'pain'
p711
S'NN'
p712
S'I-NP'
p713
g5
tp714
a(g445
g445
g445
g5
g5
tp715
a(g573
g573
S'CD'
p716
S'B-NP'
p717
g5
tp718
a(S'years'
p719
S'year'
p720
S'NNS'
p721
S'I-NP'
p722
g5
tp723
a(S'after'
p724
S'after'
p725
S'IN'
p726
S'B-PP'
p727
g5
tp728
a(S'randomisation'
p729
S'randomisation'
p730
S'NN'
p731
S'B-NP'
p732
g5
tp733
a(g37
g37
g37
g5
g5
tp734
a(S'with'
p735
S'with'
p736
S'IN'
p737
S'B-PP'
p738
g5
tp739
a(S'secondary'
p740
S'secondary'
p741
S'JJ'
p742
S'B-NP'
p743
g5
tp744
a(S'outcomes'
p745
S'outcome'
p746
S'NNS'
p747
S'I-NP'
p748
g5
tp749
a(S'of'
p750
S'of'
p751
S'IN'
p752
S'B-PP'
p753
g5
tp754
a(S'dyspepsia'
p755
S'dyspepsia'
p756
S'NN'
p757
S'B-NP'
p758
g5
tp759
a(S'symptoms'
p760
S'symptom'
p761
S'NNS'
p762
S'I-NP'
p763
g5
tp764
a(g37
g37
g37
g5
g5
tp765
a(S'resource'
p766
S'resource'
p767
S'NN'
p768
S'B-NP'
p769
g5
tp770
a(S'use'
p771
S'use'
p772
S'NN'
p773
S'I-NP'
p774
g5
tp775
a(g37
g37
g37
g5
g5
tp776
a(S'NHS'
p777
S'NHS'
p778
S'NN'
p779
S'B-NP'
p780
S'B-protein'
p781
tp782
a(S'costs'
p783
S'cost'
p784
S'NNS'
p785
S'I-NP'
p786
S'I-protein'
p787
tp788
a(g37
g37
g37
g5
g5
tp789
a(S'and'
p790
S'and'
p791
S'CC'
p792
g5
g5
tp793
a(S'quality'
p794
S'quality'
p795
S'NN'
p796
S'B-NP'
p797
g5
tp798
a(S'of'
p799
S'of'
p800
S'IN'
p801
S'B-PP'
p802
g5
tp803
a(S'life'
p804
S'life'
p805
S'NN'
p806
S'B-NP'
p807
g5
tp808
a(g116
g116
g116
g5
g5
tp809
a(S'In'
p810
S'In'
p811
S'IN'
p812
S'B-PP'
p813
g5
tp814
a(S'the'
p815
S'the'
p816
S'DT'
p817
S'B-NP'
p818
g5
tp819
a(S'eradication'
p820
S'eradication'
p821
S'NN'
p822
S'I-NP'
p823
g5
tp824
a(S'group'
p825
S'group'
p826
S'NN'
p827
S'I-NP'
p828
g5
tp829
a(g37
g37
g37
g5
g5
tp830
a(S'35'
p831
S'35'
p832
S'CD'
p833
S'B-NP'
p834
g5
tp835
a(g548
g548
S'NN'
p836
S'I-NP'
p837
g5
tp838
a(S'fewer'
p839
S'few'
p840
S'JJR'
p841
S'B-NP'
p842
g5
tp843
a(S'participants'
p844
S'participant'
p845
S'NNS'
p846
S'I-NP'
p847
g5
tp848
a(S'consulted'
p849
S'consult'
p850
S'VBD'
p851
S'B-VP'
p852
g5
tp853
a(S'for'
p854
S'for'
p855
S'IN'
p856
S'B-PP'
p857
g5
tp858
a(S'dyspepsia'
p859
S'dyspepsia'
p860
S'NN'
p861
S'B-NP'
p862
g5
tp863
a(S'over'
p864
S'over'
p865
S'IN'
p866
S'B-PP'
p867
g5
tp868
a(g573
g573
S'CD'
p869
S'B-NP'
p870
g5
tp871
a(S'years'
p872
S'year'
p873
S'NNS'
p874
S'I-NP'
p875
g5
tp876
a(S'compared'
p877
S'compare'
p878
S'VBN'
p879
S'B-PP'
p880
g5
tp881
a(S'with'
p882
S'with'
p883
S'IN'
p884
S'B-PP'
p885
g5
tp886
a(S'the'
p887
S'the'
p888
S'DT'
p889
S'B-NP'
p890
g5
tp891
a(S'placebo'
p892
S'placebo'
p893
S'NN'
p894
S'I-NP'
p895
g5
tp896
a(S'group'
p897
S'group'
p898
S'NN'
p899
S'I-NP'
p900
g5
tp901
a(g423
g423
g423
g5
g5
tp902
a(S'55'
p903
S'55'
p904
S'CD'
p905
S'B-NP'
p906
g5
tp907
a(S'/'
p908
g908
S'SYM'
p909
g5
g5
tp910
a(S'787'
p911
S'787'
p912
S'CD'
p913
S'B-NP'
p914
g5
tp915
a(S'v'
p916
g916
S'IN'
p917
S'B-NP'
p918
g5
tp919
a(S'78'
p920
S'78'
p921
S'CD'
p922
S'I-NP'
p923
g5
tp924
a(g908
g908
S'SYM'
p925
S'I-NP'
p926
g5
tp927
a(S'771'
p928
S'771'
p929
S'CD'
p930
S'I-NP'
p931
g5
tp932
a(g447
g447
g99
g5
g5
tp933
a(S'odds'
p934
S'odd'
p935
S'NNS'
p936
S'B-NP'
p937
g5
tp938
a(S'ratio'
p939
S'ratio'
p940
S'NN'
p941
S'B-NP'
p942
g5
tp943
a(S'0.65'
p944
S'0.65'
p945
S'CD'
p946
S'I-NP'
p947
g5
tp948
a(g37
g37
g37
g5
g5
tp949
a(S'95'
p950
S'95'
p951
S'CD'
p952
S'B-NP'
p953
g5
tp954
a(g548
g548
S'NN'
p955
S'I-NP'
p956
g5
tp957
a(S'confidence'
p958
S'confidence'
p959
S'NN'
p960
S'I-NP'
p961
g5
tp962
a(S'interval'
p963
S'interval'
p964
S'NN'
p965
S'I-NP'
p966
g5
tp967
a(S'0.46'
p968
S'0.46'
p969
S'CD'
p970
S'I-NP'
p971
g5
tp972
a(S'to'
p973
S'to'
p974
S'TO'
p975
S'B-PP'
p976
g5
tp977
a(S'0.94'
p978
S'0.94'
p979
S'CD'
p980
S'B-NP'
p981
g5
tp982
a(g447
g447
g99
g5
g5
tp983
a(S'P'
p984
g984
S'NN'
p985
S'B-NP'
p986
g5
tp987
a(S'='
p988
g988
S'SYM'
p989
S'B-VP'
p990
g5
tp991
a(S'0.021'
p992
S'0.021'
p993
S'CD'
p994
S'B-NP'
p995
g5
tp996
a(g447
g447
g99
g5
g5
tp997
a(S'number'
p998
S'number'
p999
S'NN'
p1000
S'B-NP'
p1001
g5
tp1002
a(S'needed'
p1003
S'need'
p1004
S'VBN'
p1005
S'B-VP'
p1006
g5
tp1007
a(S'to'
p1008
S'to'
p1009
S'TO'
p1010
S'B-VP'
p1011
g5
tp1012
a(S'treat'
p1013
S'treat'
p1014
S'VB'
p1015
S'I-VP'
p1016
g5
tp1017
a(S'30'
p1018
S'30'
p1019
S'CD'
p1020
S'B-NP'
p1021
g5
tp1022
a(g445
g445
g445
g5
g5
tp1023
a(S'and'
p1024
S'and'
p1025
S'CC'
p1026
g5
g5
tp1027
a(S'29'
p1028
S'29'
p1029
S'CD'
p1030
S'B-NP'
p1031
g5
tp1032
a(g548
g548
S'NN'
p1033
S'I-NP'
p1034
g5
tp1035
a(S'fewer'
p1036
S'few'
p1037
S'JJR'
p1038
S'B-NP'
p1039
g5
tp1040
a(S'participants'
p1041
S'participant'
p1042
S'NNS'
p1043
S'I-NP'
p1044
g5
tp1045
a(S'had'
p1046
S'have'
p1047
S'VBD'
p1048
S'B-VP'
p1049
g5
tp1050
a(S'regular'
p1051
S'regular'
p1052
S'JJ'
p1053
S'B-NP'
p1054
g5
tp1055
a(S'symptoms'
p1056
S'symptom'
p1057
S'NNS'
p1058
S'I-NP'
p1059
g5
tp1060
a(g423
g423
g423
g5
g5
tp1061
a(S'odds'
p1062
S'odd'
p1063
S'NNS'
p1064
S'B-NP'
p1065
g5
tp1066
a(S'ratio'
p1067
S'ratio'
p1068
S'NN'
p1069
S'B-NP'
p1070
g5
tp1071
a(S'0.71'
p1072
S'0.71'
p1073
S'CD'
p1074
S'I-NP'
p1075
g5
tp1076
a(g37
g37
g37
g5
g5
tp1077
a(S'0.56'
p1078
S'0.56'
p1079
S'CD'
p1080
S'B-NP'
p1081
g5
tp1082
a(S'to'
p1083
S'to'
p1084
S'TO'
p1085
S'B-PP'
p1086
g5
tp1087
a(S'0.90'
p1088
S'0.90'
p1089
S'CD'
p1090
S'B-NP'
p1091
g5
tp1092
a(g447
g447
g99
g5
g5
tp1093
a(g984
g984
S'NN'
p1094
S'B-NP'
p1095
g5
tp1096
a(g988
g988
S'SYM'
p1097
S'B-VP'
p1098
g5
tp1099
a(S'0.05'
p1100
S'0.05'
p1101
S'CD'
p1102
S'B-NP'
p1103
g5
tp1104
a(g445
g445
g445
g5
g5
tp1105
a(g116
g116
g116
g5
g5
tp1106
a(S'NHS'
p1107
S'NHS'
p1108
S'NN'
p1109
S'B-NP'
p1110
S'B-protein'
p1111
tp1112
a(S'costs'
p1113
S'cost'
p1114
S'NNS'
p1115
S'I-NP'
p1116
S'I-protein'
p1117
tp1118
a(S'were'
p1119
S'be'
p1120
S'VBD'
p1121
S'B-VP'
p1122
g5
tp1123
a(S'84.70'
p1124
S'84.70'
p1125
S'CD'
p1126
S'B-NP'
p1127
g5
tp1128
a(S'pounds'
p1129
S'pound'
p1130
S'NNS'
p1131
S'I-NP'
p1132
g5
tp1133
a(S'sterling'
p1134
S'sterling'
p1135
S'NN'
p1136
S'B-NP'
p1137
g5
tp1138
a(g423
g423
g423
g5
g5
tp1139
a(S'74.90'
p1140
S'74.90'
p1141
S'CD'
p1142
S'B-NP'
p1143
g5
tp1144
a(S'pounds'
p1145
S'pound'
p1146
S'NNS'
p1147
S'I-NP'
p1148
g5
tp1149
a(S'sterling'
p1150
S'sterle'
p1151
S'VBG'
p1152
S'B-VP'
p1153
g5
tp1154
a(S'to'
p1155
S'to'
p1156
S'TO'
p1157
S'B-PP'
p1158
g5
tp1159
a(S'93.91'
p1160
S'93.91'
p1161
S'CD'
p1162
S'B-NP'
p1163
g5
tp1164
a(S'pounds'
p1165
S'pound'
p1166
S'NNS'
p1167
S'I-NP'
p1168
g5
tp1169
a(S'sterling'
p1170
S'sterling'
p1171
S'JJ'
p1172
S'B-ADJP'
p1173
g5
tp1174
a(g445
g445
g445
g5
g5
tp1175
a(S'greater'
p1176
S'great'
p1177
S'JJR'
p1178
S'B-ADJP'
p1179
g5
tp1180
a(S'per'
p1181
S'per'
p1182
S'IN'
p1183
S'B-PP'
p1184
g5
tp1185
a(S'participant'
p1186
S'participant'
p1187
S'NN'
p1188
S'B-NP'
p1189
g5
tp1190
a(S'in'
p1191
S'in'
p1192
S'IN'
p1193
S'B-PP'
p1194
g5
tp1195
a(S'the'
p1196
S'the'
p1197
S'DT'
p1198
S'B-NP'
p1199
g5
tp1200
a(S'eradication'
p1201
S'eradication'
p1202
S'NN'
p1203
S'I-NP'
p1204
g5
tp1205
a(S'group'
p1206
S'group'
p1207
S'NN'
p1208
S'I-NP'
p1209
g5
tp1210
a(S'over'
p1211
S'over'
p1212
S'IN'
p1213
S'B-PP'
p1214
g5
tp1215
a(g573
g573
S'CD'
p1216
S'B-NP'
p1217
g5
tp1218
a(S'years'
p1219
S'year'
p1220
S'NNS'
p1221
S'I-NP'
p1222
g5
tp1223
a(g37
g37
g37
g5
g5
tp1224
a(S'of'
p1225
S'of'
p1226
S'IN'
p1227
S'B-PP'
p1228
g5
tp1229
a(S'which'
p1230
S'which'
p1231
S'WDT'
p1232
S'B-NP'
p1233
g5
tp1234
a(S'83.40'
p1235
S'83.40'
p1236
S'CD'
p1237
S'B-NP'
p1238
g5
tp1239
a(S'pounds'
p1240
S'pound'
p1241
S'NNS'
p1242
S'I-NP'
p1243
g5
tp1244
a(S'sterling'
p1245
S'sterling'
p1246
S'NN'
p1247
S'B-NP'
p1248
g5
tp1249
a(g423
g423
g423
g5
g5
tp1250
a(S'146'
p1251
S'146'
p1252
S'CD'
p1253
S'B-NP'
p1254
g5
tp1255
a(S'dollars'
p1256
S'dollar'
p1257
S'NNS'
p1258
S'I-NP'
p1259
g5
tp1260
a(g447
g447
g99
g5
g5
tp1261
a(S'121'
p1262
S'121'
p1263
S'CD'
p1264
S'B-NP'
p1265
g5
tp1266
a(S'euro'
p1267
S'euro'
p1268
S'NN'
p1269
S'I-NP'
p1270
g5
tp1271
a(g445
g445
g445
g5
g5
tp1272
a(S'was'
p1273
S'be'
p1274
S'VBD'
p1275
S'B-VP'
p1276
g5
tp1277
a(S'the'
p1278
S'the'
p1279
S'DT'
p1280
S'B-NP'
p1281
g5
tp1282
a(S'cost'
p1283
S'cost'
p1284
S'NN'
p1285
S'I-NP'
p1286
g5
tp1287
a(S'of'
p1288
S'of'
p1289
S'IN'
p1290
S'B-PP'
p1291
g5
tp1292
a(S'eradication'
p1293
S'eradication'
p1294
S'NN'
p1295
S'B-NP'
p1296
g5
tp1297
a(S'treatment'
p1298
S'treatment'
p1299
S'NN'
p1300
S'I-NP'
p1301
g5
tp1302
a(g116
g116
g116
g5
g5
tp1303
a(S'No'
p1304
S'No'
p1305
S'DT'
p1306
S'B-NP'
p1307
g5
tp1308
a(S'difference'
p1309
S'difference'
p1310
S'NN'
p1311
S'I-NP'
p1312
g5
tp1313
a(S'in'
p1314
S'in'
p1315
S'IN'
p1316
S'B-PP'
p1317
g5
tp1318
a(S'quality'
p1319
S'quality'
p1320
S'NN'
p1321
S'B-NP'
p1322
g5
tp1323
a(S'of'
p1324
S'of'
p1325
S'IN'
p1326
S'B-PP'
p1327
g5
tp1328
a(S'life'
p1329
S'life'
p1330
S'NN'
p1331
S'B-NP'
p1332
g5
tp1333
a(S'existed'
p1334
S'exist'
p1335
S'VBD'
p1336
S'B-VP'
p1337
g5
tp1338
a(S'between'
p1339
S'between'
p1340
S'IN'
p1341
S'B-PP'
p1342
g5
tp1343
a(S'the'
p1344
S'the'
p1345
S'DT'
p1346
S'B-NP'
p1347
g5
tp1348
a(g573
g573
S'CD'
p1349
S'I-NP'
p1350
g5
tp1351
a(S'groups'
p1352
S'group'
p1353
S'NNS'
p1354
S'I-NP'
p1355
g5
tp1356
a(g116
g116
g116
g5
g5
tp1357
a(S'Community'
p1358
S'Community'
p1359
S'NNP'
p1360
S'B-NP'
p1361
g5
tp1362
a(S'screening'
p1363
S'screening'
p1364
S'NN'
p1365
S'I-NP'
p1366
g5
tp1367
a(S'and'
p1368
S'and'
p1369
S'CC'
p1370
S'I-NP'
p1371
g5
tp1372
a(S'eradication'
p1373
S'eradication'
p1374
S'NN'
p1375
S'I-NP'
p1376
g5
tp1377
a(S'of'
p1378
S'of'
p1379
S'IN'
p1380
S'B-PP'
p1381
g5
tp1382
a(g267
g267
S'NN'
p1383
S'B-NP'
p1384
g5
tp1385
a(S'pylori'
p1386
S'pylori'
p1387
S'NN'
p1388
S'I-NP'
p1389
g5
tp1390
a(S'is'
p1391
S'be'
p1392
S'VBZ'
p1393
S'B-VP'
p1394
g5
tp1395
a(S'feasible'
p1396
S'feasible'
p1397
S'JJ'
p1398
S'B-ADJP'
p1399
g5
tp1400
a(S'in'
p1401
S'in'
p1402
S'IN'
p1403
S'B-PP'
p1404
g5
tp1405
a(S'the'
p1406
S'the'
p1407
S'DT'
p1408
S'B-NP'
p1409
g5
tp1410
a(S'general'
p1411
S'general'
p1412
S'JJ'
p1413
S'I-NP'
p1414
g5
tp1415
a(S'population'
p1416
S'population'
p1417
S'NN'
p1418
S'I-NP'
p1419
g5
tp1420
a(S'and'
p1421
S'and'
p1422
S'CC'
p1423
g5
g5
tp1424
a(S'led'
p1425
S'lead'
p1426
S'VBD'
p1427
S'B-VP'
p1428
g5
tp1429
a(S'to'
p1430
S'to'
p1431
S'TO'
p1432
S'B-PP'
p1433
g5
tp1434
a(S'significant'
p1435
S'significant'
p1436
S'JJ'
p1437
S'B-NP'
p1438
g5
tp1439
a(S'reductions'
p1440
S'reduction'
p1441
S'NNS'
p1442
S'I-NP'
p1443
g5
tp1444
a(S'in'
p1445
S'in'
p1446
S'IN'
p1447
S'B-PP'
p1448
g5
tp1449
a(S'the'
p1450
S'the'
p1451
S'DT'
p1452
S'B-NP'
p1453
g5
tp1454
a(S'number'
p1455
S'number'
p1456
S'NN'
p1457
S'I-NP'
p1458
g5
tp1459
a(S'of'
p1460
S'of'
p1461
S'IN'
p1462
S'B-PP'
p1463
g5
tp1464
a(S'people'
p1465
S'people'
p1466
S'NNS'
p1467
S'B-NP'
p1468
g5
tp1469
a(S'who'
p1470
S'who'
p1471
S'WP'
p1472
S'B-NP'
p1473
g5
tp1474
a(S'consulted'
p1475
S'consult'
p1476
S'VBD'
p1477
S'B-VP'
p1478
g5
tp1479
a(S'for'
p1480
S'for'
p1481
S'IN'
p1482
S'B-PP'
p1483
g5
tp1484
a(S'dyspepsia'
p1485
S'dyspepsia'
p1486
S'NN'
p1487
S'B-NP'
p1488
g5
tp1489
a(S'and'
p1490
S'and'
p1491
S'CC'
p1492
g5
g5
tp1493
a(S'had'
p1494
S'have'
p1495
S'VBD'
p1496
S'B-VP'
p1497
g5
tp1498
a(S'symptoms'
p1499
S'symptom'
p1500
S'NNS'
p1501
S'B-NP'
p1502
g5
tp1503
a(g573
g573
S'CD'
p1504
S'B-NP'
p1505
g5
tp1506
a(S'years'
p1507
S'year'
p1508
S'NNS'
p1509
S'I-NP'
p1510
g5
tp1511
a(S'after'
p1512
S'after'
p1513
S'IN'
p1514
S'B-PP'
p1515
g5
tp1516
a(S'treatment'
p1517
S'treatment'
p1518
S'NN'
p1519
S'B-NP'
p1520
g5
tp1521
a(g116
g116
g116
g5
g5
tp1522
a(S'These'
p1523
S'These'
p1524
S'DT'
p1525
S'B-NP'
p1526
g5
tp1527
a(S'benefits'
p1528
S'benefit'
p1529
S'NNS'
p1530
S'I-NP'
p1531
g5
tp1532
a(S'have'
p1533
S'have'
p1534
S'VBP'
p1535
S'B-VP'
p1536
g5
tp1537
a(S'to'
p1538
S'to'
p1539
S'TO'
p1540
S'I-VP'
p1541
g5
tp1542
a(S'be'
p1543
S'be'
p1544
S'VB'
p1545
S'I-VP'
p1546
g5
tp1547
a(S'balanced'
p1548
S'balance'
p1549
S'VBN'
p1550
S'I-VP'
p1551
g5
tp1552
a(S'against'
p1553
S'against'
p1554
S'IN'
p1555
S'B-PP'
p1556
g5
tp1557
a(S'the'
p1558
S'the'
p1559
S'DT'
p1560
S'B-NP'
p1561
g5
tp1562
a(S'costs'
p1563
S'cost'
p1564
S'NNS'
p1565
S'I-NP'
p1566
g5
tp1567
a(S'of'
p1568
S'of'
p1569
S'IN'
p1570
S'B-PP'
p1571
g5
tp1572
a(S'eradication'
p1573
S'eradication'
p1574
S'NN'
p1575
S'B-NP'
p1576
g5
tp1577
a(S'treatment'
p1578
S'treatment'
p1579
S'NN'
p1580
S'I-NP'
p1581
g5
tp1582
a(g37
g37
g37
g5
g5
tp1583
a(S'so'
p1584
S'so'
p1585
S'IN'
p1586
g5
g5
tp1587
a(g143
g143
S'DT'
p1588
S'B-NP'
p1589
g5
tp1590
a(S'targeted'
p1591
S'target'
p1592
S'VBN'
p1593
S'I-NP'
p1594
g5
tp1595
a(S'eradication'
p1596
S'eradication'
p1597
S'NN'
p1598
S'I-NP'
p1599
g5
tp1600
a(S'strategy'
p1601
S'strategy'
p1602
S'NN'
p1603
S'I-NP'
p1604
g5
tp1605
a(S'in'
p1606
S'in'
p1607
S'IN'
p1608
S'B-PP'
p1609
g5
tp1610
a(S'dyspeptic'
p1611
S'dyspeptic'
p1612
S'JJ'
p1613
S'B-NP'
p1614
g5
tp1615
a(S'patients'
p1616
S'patient'
p1617
S'NNS'
p1618
S'I-NP'
p1619
g5
tp1620
a(S'may'
p1621
S'may'
p1622
S'MD'
p1623
S'B-VP'
p1624
g5
tp1625
a(S'be'
p1626
S'be'
p1627
S'VB'
p1628
S'I-VP'
p1629
g5
tp1630
a(S'preferable'
p1631
S'preferable'
p1632
S'JJ'
p1633
S'B-ADJP'
p1634
g5
tp1635
a(g116
g116
g116
g5
g5
tp1636
a.