(lp0
(S'Sham'
p1
S'Sham'
p2
S'NNP'
p3
S'B-NP'
p4
S'O'
p5
tp6
a(S'device'
p7
S'device'
p8
S'NN'
p9
S'I-NP'
p10
g5
tp11
a(S'v'
p12
g12
S'NN'
p13
S'I-NP'
p14
g5
tp15
a(S'inert'
p16
S'inert'
p17
S'JJ'
p18
S'I-NP'
p19
g5
tp20
a(S'pill'
p21
S'pill'
p22
S'NN'
p23
S'I-NP'
p24
g5
tp25
a(S':'
p26
g26
g26
g5
g5
tp27
a(S'randomised'
p28
S'randomise'
p29
S'VBN'
p30
S'B-VP'
p31
g5
tp32
a(S'controlled'
p33
S'control'
p34
S'VBN'
p35
S'B-NP'
p36
g5
tp37
a(S'trial'
p38
S'trial'
p39
S'NN'
p40
S'I-NP'
p41
g5
tp42
a(S'of'
p43
S'of'
p44
S'IN'
p45
S'B-PP'
p46
g5
tp47
a(S'2'
p48
g48
S'CD'
p49
S'B-NP'
p50
g5
tp51
a(S'placebo'
p52
S'placebo'
p53
S'NN'
p54
S'I-NP'
p55
g5
tp56
a(S'treatments'
p57
S'treatment'
p58
S'NNS'
p59
S'I-NP'
p60
g5
tp61
a(S'.'
p62
g62
g62
g5
g5
tp63
a(S'To'
p64
S'To'
p65
S'TO'
p66
S'B-VP'
p67
g5
tp68
a(S'investigate'
p69
S'investigate'
p70
S'VB'
p71
S'I-VP'
p72
g5
tp73
a(S'whether'
p74
S'whether'
p75
S'IN'
p76
S'B-SBAR'
p77
g5
tp78
a(S'a'
p79
g79
S'DT'
p80
S'B-NP'
p81
g5
tp82
a(S'sham'
p83
S'sham'
p84
S'NN'
p85
S'I-NP'
p86
g5
tp87
a(S'device'
p88
S'device'
p89
S'NN'
p90
S'I-NP'
p91
g5
tp92
a(S'('
p93
g93
g93
g5
g5
tp94
a(g79
g79
S'DT'
p95
S'B-NP'
p96
g5
tp97
a(S'validated'
p98
S'validate'
p99
S'VBN'
p100
S'I-NP'
p101
g5
tp102
a(S'sham'
p103
S'sham'
p104
S'NN'
p105
S'I-NP'
p106
g5
tp107
a(S'acupuncture'
p108
S'acupuncture'
p109
S'NN'
p110
S'I-NP'
p111
g5
tp112
a(S'needle'
p113
S'needle'
p114
S'NN'
p115
S'I-NP'
p116
g5
tp117
a(S')'
p118
g118
g118
g5
g5
tp119
a(S'has'
p120
S'have'
p121
S'VBZ'
p122
S'B-VP'
p123
g5
tp124
a(g79
g79
S'DT'
p125
S'B-NP'
p126
g5
tp127
a(S'greater'
p128
S'great'
p129
S'JJR'
p130
S'I-NP'
p131
g5
tp132
a(S'placebo'
p133
S'placebo'
p134
S'NN'
p135
S'I-NP'
p136
g5
tp137
a(S'effect'
p138
S'effect'
p139
S'NN'
p140
S'I-NP'
p141
g5
tp142
a(S'than'
p143
S'than'
p144
S'IN'
p145
S'B-PP'
p146
g5
tp147
a(S'an'
p148
S'an'
p149
S'DT'
p150
S'B-NP'
p151
g5
tp152
a(S'inert'
p153
S'inert'
p154
S'JJ'
p155
S'I-NP'
p156
g5
tp157
a(S'pill'
p158
S'pill'
p159
S'NN'
p160
S'I-NP'
p161
g5
tp162
a(S'in'
p163
S'in'
p164
S'IN'
p165
S'B-PP'
p166
g5
tp167
a(S'patients'
p168
S'patient'
p169
S'NNS'
p170
S'B-NP'
p171
g5
tp172
a(S'with'
p173
S'with'
p174
S'IN'
p175
S'B-PP'
p176
g5
tp177
a(S'persistent'
p178
S'persistent'
p179
S'JJ'
p180
S'B-NP'
p181
g5
tp182
a(S'arm'
p183
S'arm'
p184
S'NN'
p185
S'I-NP'
p186
g5
tp187
a(S'pain'
p188
S'pain'
p189
S'NN'
p190
S'I-NP'
p191
g5
tp192
a(g62
g62
g62
g5
g5
tp193
a(S'A'
p194
g194
S'DT'
p195
S'B-NP'
p196
g5
tp197
a(S'single'
p198
S'single'
p199
S'JJ'
p200
S'I-NP'
p201
g5
tp202
a(S'blind'
p203
S'blind'
p204
S'JJ'
p205
S'I-NP'
p206
g5
tp207
a(S'randomised'
p208
S'randomise'
p209
S'VBN'
p210
S'I-NP'
p211
g5
tp212
a(S'controlled'
p213
S'control'
p214
S'VBN'
p215
S'I-NP'
p216
g5
tp217
a(S'trial'
p218
S'trial'
p219
S'NN'
p220
S'I-NP'
p221
g5
tp222
a(S'created'
p223
S'create'
p224
S'VBN'
p225
S'B-VP'
p226
g5
tp227
a(S'from'
p228
S'from'
p229
S'IN'
p230
S'B-PP'
p231
g5
tp232
a(S'the'
p233
S'the'
p234
S'DT'
p235
S'B-NP'
p236
g5
tp237
a(g48
g48
S'CD'
p238
S'I-NP'
p239
g5
tp240
a(S'week'
p241
S'week'
p242
S'NN'
p243
S'I-NP'
p244
g5
tp245
a(S'placebo'
p246
S'placebo'
p247
S'NN'
p248
S'I-NP'
p249
g5
tp250
a(S'run'
p251
S'run'
p252
S'NN'
p253
S'I-NP'
p254
g5
tp255
a(S'-'
p256
g256
S'HYPH'
p257
S'B-ADVP'
p258
g5
tp259
a(S'in'
p260
S'in'
p261
S'IN'
p262
S'B-PP'
p263
g5
tp264
a(S'periods'
p265
S'period'
p266
S'NNS'
p267
S'B-NP'
p268
g5
tp269
a(S'for'
p270
S'for'
p271
S'IN'
p272
S'B-PP'
p273
g5
tp274
a(g48
g48
S'CD'
p275
S'B-NP'
p276
g5
tp277
a(S'nested'
p278
S'nest'
p279
S'VBN'
p280
S'I-NP'
p281
g5
tp282
a(S'trials'
p283
S'trial'
p284
S'NNS'
p285
S'I-NP'
p286
g5
tp287
a(S'that'
p288
S'that'
p289
S'WDT'
p290
S'B-NP'
p291
g5
tp292
a(S'compared'
p293
S'compare'
p294
S'VBD'
p295
S'B-VP'
p296
g5
tp297
a(S'acupuncture'
p298
S'acupuncture'
p299
S'NN'
p300
S'B-NP'
p301
g5
tp302
a(S'and'
p303
S'and'
p304
S'CC'
p305
S'I-NP'
p306
g5
tp307
a(S'amitriptyline'
p308
S'amitriptyline'
p309
S'NN'
p310
S'I-NP'
p311
g5
tp312
a(S'with'
p313
S'with'
p314
S'IN'
p315
S'B-PP'
p316
g5
tp317
a(S'their'
p318
S'their'
p319
S'PRP$'
p320
S'B-NP'
p321
g5
tp322
a(S'respective'
p323
S'respective'
p324
S'JJ'
p325
S'I-NP'
p326
g5
tp327
a(S'placebo'
p328
S'placebo'
p329
S'NN'
p330
S'I-NP'
p331
g5
tp332
a(S'controls'
p333
S'control'
p334
S'NNS'
p335
S'I-NP'
p336
g5
tp337
a(g62
g62
g62
g5
g5
tp338
a(S'Comparison'
p339
S'Comparison'
p340
S'NN'
p341
S'B-NP'
p342
g5
tp343
a(S'of'
p344
S'of'
p345
S'IN'
p346
S'B-PP'
p347
g5
tp348
a(S'participants'
p349
S'participant'
p350
S'NNS'
p351
S'B-NP'
p352
g5
tp353
a(S'who'
p354
S'who'
p355
S'WP'
p356
S'B-NP'
p357
g5
tp358
a(S'remained'
p359
S'remain'
p360
S'VBD'
p361
S'B-VP'
p362
g5
tp363
a(S'on'
p364
S'on'
p365
S'IN'
p366
S'B-PP'
p367
g5
tp368
a(S'placebo'
p369
S'placebo'
p370
S'NN'
p371
S'B-NP'
p372
g5
tp373
a(S'continued'
p374
S'continue'
p375
S'VBN'
p376
S'B-VP'
p377
g5
tp378
a(S'beyond'
p379
S'beyond'
p380
S'IN'
p381
S'B-PP'
p382
g5
tp383
a(S'the'
p384
S'the'
p385
S'DT'
p386
S'B-NP'
p387
g5
tp388
a(S'run'
p389
S'run'
p390
S'NN'
p391
S'I-NP'
p392
g5
tp393
a(g256
g256
S'HYPH'
p394
S'B-ADVP'
p395
g5
tp396
a(S'in'
p397
S'in'
p398
S'IN'
p399
S'B-PP'
p400
g5
tp401
a(S'period'
p402
S'period'
p403
S'NN'
p404
S'B-NP'
p405
g5
tp406
a(S'to'
p407
S'to'
p408
S'TO'
p409
S'B-PP'
p410
g5
tp411
a(S'the'
p412
S'the'
p413
S'DT'
p414
S'B-NP'
p415
g5
tp416
a(S'end'
p417
S'end'
p418
S'NN'
p419
S'I-NP'
p420
g5
tp421
a(S'of'
p422
S'of'
p423
S'IN'
p424
S'B-PP'
p425
g5
tp426
a(S'the'
p427
S'the'
p428
S'DT'
p429
S'B-NP'
p430
g5
tp431
a(S'study'
p432
S'study'
p433
S'NN'
p434
S'I-NP'
p435
g5
tp436
a(g62
g62
g62
g5
g5
tp437
a(S'Academic'
p438
S'Academic'
p439
S'JJ'
p440
S'B-NP'
p441
g5
tp442
a(S'medical'
p443
S'medical'
p444
S'JJ'
p445
S'I-NP'
p446
g5
tp447
a(S'centre'
p448
S'centre'
p449
S'NN'
p450
S'I-NP'
p451
g5
tp452
a(g62
g62
g62
g5
g5
tp453
a(S'270'
p454
S'270'
p455
S'CD'
p456
S'B-NP'
p457
g5
tp458
a(S'adults'
p459
S'adult'
p460
S'NNS'
p461
S'I-NP'
p462
g5
tp463
a(S'with'
p464
S'with'
p465
S'IN'
p466
S'B-PP'
p467
g5
tp468
a(S'arm'
p469
S'arm'
p470
S'NN'
p471
S'B-NP'
p472
g5
tp473
a(S'pain'
p474
S'pain'
p475
S'NN'
p476
S'I-NP'
p477
g5
tp478
a(S'due'
p479
S'due'
p480
S'JJ'
p481
S'B-ADJP'
p482
g5
tp483
a(S'to'
p484
S'to'
p485
S'TO'
p486
S'B-PP'
p487
g5
tp488
a(S'repetitive'
p489
S'repetitive'
p490
S'JJ'
p491
S'B-NP'
p492
g5
tp493
a(S'use'
p494
S'use'
p495
S'NN'
p496
S'I-NP'
p497
g5
tp498
a(S'that'
p499
S'that'
p500
S'WDT'
p501
S'B-NP'
p502
g5
tp503
a(S'had'
p504
S'have'
p505
S'VBD'
p506
S'B-VP'
p507
g5
tp508
a(S'lasted'
p509
S'last'
p510
S'VBN'
p511
S'I-VP'
p512
g5
tp513
a(S'at'
p514
S'at'
p515
S'IN'
p516
S'B-NP'
p517
g5
tp518
a(S'least'
p519
S'least'
p520
S'JJS'
p521
S'I-NP'
p522
g5
tp523
a(S'3'
p524
g524
S'CD'
p525
S'I-NP'
p526
g5
tp527
a(S'months'
p528
S'month'
p529
S'NNS'
p530
S'I-NP'
p531
g5
tp532
a(S'despite'
p533
S'despite'
p534
S'IN'
p535
S'B-PP'
p536
g5
tp537
a(S'treatment'
p538
S'treatment'
p539
S'NN'
p540
S'B-NP'
p541
g5
tp542
a(S'and'
p543
S'and'
p544
S'CC'
p545
g5
g5
tp546
a(S'who'
p547
S'who'
p548
S'WP'
p549
S'B-NP'
p550
g5
tp551
a(S'scored'
p552
S'score'
p553
S'VBD'
p554
S'B-VP'
p555
g5
tp556
a(S'>'
p557
g557
S'SYM'
p558
S'B-NP'
p559
g5
tp560
a(S'or'
p561
S'or'
p562
S'CC'
p563
g5
g5
tp564
a(S'='
p565
g565
S'SYM'
p566
S'B-VP'
p567
g5
tp568
a(g524
g524
S'CD'
p569
S'B-NP'
p570
g5
tp571
a(S'on'
p572
S'on'
p573
S'IN'
p574
S'B-PP'
p575
g5
tp576
a(g79
g79
S'DT'
p577
S'B-NP'
p578
g5
tp579
a(S'10'
p580
S'10'
p581
S'CD'
p582
S'I-NP'
p583
g5
tp584
a(S'point'
p585
S'point'
p586
S'NN'
p587
S'I-NP'
p588
g5
tp589
a(S'pain'
p590
S'pain'
p591
S'NN'
p592
S'I-NP'
p593
g5
tp594
a(S'scale'
p595
S'scale'
p596
S'NN'
p597
S'I-NP'
p598
g5
tp599
a(g62
g62
g62
g5
g5
tp600
a(S'Acupuncture'
p601
S'Acupuncture'
p602
S'NN'
p603
S'B-NP'
p604
g5
tp605
a(S'with'
p606
S'with'
p607
S'IN'
p608
S'B-PP'
p609
g5
tp610
a(S'sham'
p611
S'sham'
p612
S'NN'
p613
S'B-NP'
p614
g5
tp615
a(S'device'
p616
S'device'
p617
S'NN'
p618
S'I-NP'
p619
g5
tp620
a(S'twice'
p621
S'twice'
p622
S'RB'
p623
S'B-NP'
p624
g5
tp625
a(g79
g79
S'DT'
p626
S'I-NP'
p627
g5
tp628
a(S'week'
p629
S'week'
p630
S'NN'
p631
S'I-NP'
p632
g5
tp633
a(S'for'
p634
S'for'
p635
S'IN'
p636
S'B-PP'
p637
g5
tp638
a(S'6'
p639
g639
S'CD'
p640
S'B-NP'
p641
g5
tp642
a(S'weeks'
p643
S'week'
p644
S'NNS'
p645
S'I-NP'
p646
g5
tp647
a(S'or'
p648
S'or'
p649
S'CC'
p650
S'I-NP'
p651
g5
tp652
a(S'placebo'
p653
S'placebo'
p654
S'NN'
p655
S'I-NP'
p656
g5
tp657
a(S'pill'
p658
S'pill'
p659
S'NN'
p660
S'I-NP'
p661
g5
tp662
a(S'once'
p663
S'once'
p664
S'RB'
p665
g5
g5
tp666
a(g79
g79
S'DT'
p667
S'B-NP'
p668
g5
tp669
a(S'day'
p670
S'day'
p671
S'NN'
p672
S'I-NP'
p673
g5
tp674
a(S'for'
p675
S'for'
p676
S'IN'
p677
S'B-PP'
p678
g5
tp679
a(S'8'
p680
g680
S'CD'
p681
S'B-NP'
p682
g5
tp683
a(S'weeks'
p684
S'week'
p685
S'NNS'
p686
S'I-NP'
p687
g5
tp688
a(g62
g62
g62
g5
g5
tp689
a(S'Arm'
p690
S'Arm'
p691
S'NN'
p692
S'B-NP'
p693
S'B-protein'
p694
tp695
a(S'pain'
p696
S'pain'
p697
S'NN'
p698
S'I-NP'
p699
g5
tp700
a(S'measured'
p701
S'measure'
p702
S'VBN'
p703
S'B-VP'
p704
g5
tp705
a(S'on'
p706
S'on'
p707
S'IN'
p708
S'B-PP'
p709
g5
tp710
a(g79
g79
S'DT'
p711
S'B-NP'
p712
g5
tp713
a(S'10'
p714
S'10'
p715
S'CD'
p716
S'I-NP'
p717
g5
tp718
a(S'point'
p719
S'point'
p720
S'NN'
p721
S'I-NP'
p722
g5
tp723
a(S'pain'
p724
S'pain'
p725
S'NN'
p726
S'I-NP'
p727
g5
tp728
a(S'scale'
p729
S'scale'
p730
S'NN'
p731
S'I-NP'
p732
g5
tp733
a(g62
g62
g62
g5
g5
tp734
a(S'Secondary'
p735
S'Secondary'
p736
S'JJ'
p737
S'B-NP'
p738
g5
tp739
a(S'outcomes'
p740
S'outcome'
p741
S'NNS'
p742
S'I-NP'
p743
g5
tp744
a(S'were'
p745
S'be'
p746
S'VBD'
p747
S'B-VP'
p748
g5
tp749
a(S'symptoms'
p750
S'symptom'
p751
S'NNS'
p752
S'B-NP'
p753
g5
tp754
a(S'measured'
p755
S'measure'
p756
S'VBN'
p757
S'B-VP'
p758
g5
tp759
a(S'by'
p760
S'by'
p761
S'IN'
p762
S'B-PP'
p763
g5
tp764
a(S'the'
p765
S'the'
p766
S'DT'
p767
S'B-NP'
p768
g5
tp769
a(S'Levine'
p770
S'Levine'
p771
S'NN'
p772
S'I-NP'
p773
g5
tp774
a(S'symptom'
p775
S'symptom'
p776
S'NN'
p777
S'I-NP'
p778
g5
tp779
a(S'severity'
p780
S'severity'
p781
S'NN'
p782
S'I-NP'
p783
g5
tp784
a(S'scale'
p785
S'scale'
p786
S'NN'
p787
S'I-NP'
p788
g5
tp789
a(S','
p790
g790
g790
g5
g5
tp791
a(S'function'
p792
S'function'
p793
S'NN'
p794
S'B-NP'
p795
g5
tp796
a(S'measured'
p797
S'measure'
p798
S'VBN'
p799
S'B-VP'
p800
g5
tp801
a(S'by'
p802
S'by'
p803
S'IN'
p804
S'B-PP'
p805
g5
tp806
a(S'Pransky'
p807
S'Pransky'
p808
S'NNP'
p809
S'B-NP'
p810
g5
tp811
a(S"'s"
p812
S"'s"
p813
S'POS'
p814
S'B-NP'
p815
g5
tp816
a(S'upper'
p817
S'upper'
p818
S'JJ'
p819
S'I-NP'
p820
g5
tp821
a(S'extremity'
p822
S'extremity'
p823
S'NN'
p824
S'I-NP'
p825
g5
tp826
a(S'function'
p827
S'function'
p828
S'NN'
p829
S'I-NP'
p830
g5
tp831
a(S'scale'
p832
S'scale'
p833
S'NN'
p834
S'I-NP'
p835
g5
tp836
a(g790
g790
g790
g5
g5
tp837
a(S'and'
p838
S'and'
p839
S'CC'
p840
g5
g5
tp841
a(S'grip'
p842
S'grip'
p843
S'NN'
p844
S'B-NP'
p845
S'B-protein'
p846
tp847
a(S'strength'
p848
S'strength'
p849
S'NN'
p850
S'I-NP'
p851
S'I-protein'
p852
tp853
a(g62
g62
g62
g5
S'I-protein'
p854
tp855
a(S'Pain'
p856
S'Pain'
p857
S'NNP'
p858
S'B-NP'
p859
S'I-protein'
p860
tp861
a(S'decreased'
p862
S'decrease'
p863
S'VBD'
p864
S'B-VP'
p865
g5
tp866
a(S'during'
p867
S'during'
p868
S'IN'
p869
S'B-PP'
p870
g5
tp871
a(S'the'
p872
S'the'
p873
S'DT'
p874
S'B-NP'
p875
g5
tp876
a(g48
g48
S'CD'
p877
S'I-NP'
p878
g5
tp879
a(S'week'
p880
S'week'
p881
S'NN'
p882
S'I-NP'
p883
g5
tp884
a(S'placebo'
p885
S'placebo'
p886
S'NN'
p887
S'I-NP'
p888
g5
tp889
a(S'run'
p890
S'run'
p891
S'VBN'
p892
S'B-VP'
p893
g5
tp894
a(g256
g256
g26
g5
g5
tp895
a(S'in'
p896
S'in'
p897
S'IN'
p898
S'B-PP'
p899
g5
tp900
a(S'period'
p901
S'period'
p902
S'NN'
p903
S'B-NP'
p904
g5
tp905
a(S'in'
p906
S'in'
p907
S'IN'
p908
S'B-PP'
p909
g5
tp910
a(S'both'
p911
S'both'
p912
S'CC'
p913
g5
g5
tp914
a(S'the'
p915
S'the'
p916
S'DT'
p917
S'B-NP'
p918
g5
tp919
a(S'sham'
p920
S'sham'
p921
S'NN'
p922
S'I-NP'
p923
g5
tp924
a(S'device'
p925
S'device'
p926
S'NN'
p927
S'I-NP'
p928
g5
tp929
a(S'and'
p930
S'and'
p931
S'CC'
p932
g5
g5
tp933
a(S'placebo'
p934
S'placebo'
p935
S'NN'
p936
S'B-NP'
p937
g5
tp938
a(S'pill'
p939
S'pill'
p940
S'NN'
p941
S'I-NP'
p942
g5
tp943
a(S'groups'
p944
S'group'
p945
S'NNS'
p946
S'I-NP'
p947
g5
tp948
a(g790
g790
g790
g5
g5
tp949
a(S'but'
p950
S'but'
p951
S'CC'
p952
g5
g5
tp953
a(S'changes'
p954
S'change'
p955
S'NNS'
p956
S'B-NP'
p957
g5
tp958
a(S'were'
p959
S'be'
p960
S'VBD'
p961
S'B-VP'
p962
g5
tp963
a(S'not'
p964
S'not'
p965
S'RB'
p966
S'B-ADJP'
p967
g5
tp968
a(S'different'
p969
S'different'
p970
S'JJ'
p971
S'I-ADJP'
p972
g5
tp973
a(S'between'
p974
S'between'
p975
S'IN'
p976
S'B-PP'
p977
g5
tp978
a(S'the'
p979
S'the'
p980
S'DT'
p981
S'B-NP'
p982
g5
tp983
a(S'groups'
p984
S'group'
p985
S'NNS'
p986
S'I-NP'
p987
g5
tp988
a(g93
g93
g93
g5
g5
tp989
a(g256
g256
S'SYM'
p990
S'B-NP'
p991
g5
tp992
a(S'0.14'
p993
S'0.14'
p994
S'CD'
p995
S'I-NP'
p996
g5
tp997
a(g790
g790
g790
S'I-NP'
p998
g5
tp999
a(S'95'
p1000
S'95'
p1001
S'CD'
p1002
S'I-NP'
p1003
g5
tp1004
a(S'%'
p1005
g1005
S'NN'
p1006
S'I-NP'
p1007
g5
tp1008
a(S'confidence'
p1009
S'confidence'
p1010
S'NN'
p1011
S'I-NP'
p1012
g5
tp1013
a(S'interval'
p1014
S'interval'
p1015
S'NN'
p1016
S'I-NP'
p1017
g5
tp1018
a(g256
g256
S'SYM'
p1019
g5
g5
tp1020
a(S'0.52'
p1021
S'0.52'
p1022
S'CD'
p1023
S'B-NP'
p1024
g5
tp1025
a(S'to'
p1026
S'to'
p1027
S'TO'
p1028
S'B-PP'
p1029
g5
tp1030
a(S'0.25'
p1031
S'0.25'
p1032
S'CD'
p1033
S'B-NP'
p1034
g5
tp1035
a(g790
g790
g790
g5
g5
tp1036
a(S'P'
p1037
g1037
S'NN'
p1038
S'B-NP'
p1039
g5
tp1040
a(g565
g565
S'SYM'
p1041
S'B-VP'
p1042
g5
tp1043
a(S'0.49'
p1044
S'0.49'
p1045
S'CD'
p1046
S'B-NP'
p1047
g5
tp1048
a(g118
g118
g118
g5
g5
tp1049
a(g62
g62
g62
g5
g5
tp1050
a(S'Changes'
p1051
S'Change'
p1052
S'NNS'
p1053
S'B-NP'
p1054
g5
tp1055
a(S'in'
p1056
S'in'
p1057
S'IN'
p1058
S'B-PP'
p1059
g5
tp1060
a(S'severity'
p1061
S'severity'
p1062
S'NN'
p1063
S'B-NP'
p1064
g5
tp1065
a(S'scores'
p1066
S'score'
p1067
S'NNS'
p1068
S'I-NP'
p1069
g5
tp1070
a(S'for'
p1071
S'for'
p1072
S'IN'
p1073
S'B-PP'
p1074
g5
tp1075
a(S'arm'
p1076
S'arm'
p1077
S'NN'
p1078
S'B-NP'
p1079
g5
tp1080
a(S'symptoms'
p1081
S'symptom'
p1082
S'NNS'
p1083
S'I-NP'
p1084
g5
tp1085
a(S'and'
p1086
S'and'
p1087
S'CC'
p1088
g5
g5
tp1089
a(S'grip'
p1090
S'grip'
p1091
S'NN'
p1092
S'B-NP'
p1093
g5
tp1094
a(S'strength'
p1095
S'strength'
p1096
S'NN'
p1097
S'I-NP'
p1098
g5
tp1099
a(S'were'
p1100
S'be'
p1101
S'VBD'
p1102
S'B-VP'
p1103
g5
tp1104
a(S'similar'
p1105
S'similar'
p1106
S'JJ'
p1107
S'B-ADJP'
p1108
g5
tp1109
a(S'between'
p1110
S'between'
p1111
S'IN'
p1112
S'B-PP'
p1113
g5
tp1114
a(S'groups'
p1115
S'group'
p1116
S'NNS'
p1117
S'B-NP'
p1118
g5
tp1119
a(g790
g790
g790
g5
g5
tp1120
a(S'but'
p1121
S'but'
p1122
S'CC'
p1123
g5
g5
tp1124
a(S'arm'
p1125
S'arm'
p1126
S'NN'
p1127
S'B-NP'
p1128
g5
tp1129
a(S'function'
p1130
S'function'
p1131
S'NN'
p1132
S'I-NP'
p1133
g5
tp1134
a(S'improved'
p1135
S'improve'
p1136
S'VBD'
p1137
S'B-VP'
p1138
g5
tp1139
a(S'more'
p1140
S'more'
p1141
S'JJR'
p1142
S'B-NP'
p1143
g5
tp1144
a(S'in'
p1145
S'in'
p1146
S'IN'
p1147
S'B-PP'
p1148
g5
tp1149
a(S'the'
p1150
S'the'
p1151
S'DT'
p1152
S'B-NP'
p1153
g5
tp1154
a(S'placebo'
p1155
S'placebo'
p1156
S'NN'
p1157
S'I-NP'
p1158
g5
tp1159
a(S'pill'
p1160
S'pill'
p1161
S'NN'
p1162
S'I-NP'
p1163
g5
tp1164
a(S'group'
p1165
S'group'
p1166
S'NN'
p1167
S'I-NP'
p1168
g5
tp1169
a(g93
g93
g93
g5
g5
tp1170
a(S'2.0'
p1171
S'2.0'
p1172
S'CD'
p1173
S'B-NP'
p1174
g5
tp1175
a(g790
g790
g790
g5
g5
tp1176
a(S'0.06'
p1177
S'0.06'
p1178
S'CD'
p1179
S'B-NP'
p1180
g5
tp1181
a(S'to'
p1182
S'to'
p1183
S'TO'
p1184
S'B-PP'
p1185
g5
tp1186
a(S'3.92'
p1187
S'3.92'
p1188
S'CD'
p1189
S'B-NP'
p1190
g5
tp1191
a(g790
g790
g790
g5
g5
tp1192
a(g1037
g1037
S'NN'
p1193
S'B-NP'
p1194
g5
tp1195
a(g565
g565
S'SYM'
p1196
S'B-VP'
p1197
g5
tp1198
a(S'0.04'
p1199
S'0.04'
p1200
S'CD'
p1201
S'B-NP'
p1202
g5
tp1203
a(g118
g118
g118
g5
g5
tp1204
a(g62
g62
g62
g5
g5
tp1205
a(S'Longitudinal'
p1206
S'Longitudinal'
p1207
S'JJ'
p1208
S'B-NP'
p1209
g5
tp1210
a(S'regression'
p1211
S'regression'
p1212
S'NN'
p1213
S'I-NP'
p1214
g5
tp1215
a(S'analyses'
p1216
S'analysis'
p1217
S'NNS'
p1218
S'I-NP'
p1219
g5
tp1220
a(S'that'
p1221
S'that'
p1222
S'WDT'
p1223
S'B-NP'
p1224
g5
tp1225
a(S'followed'
p1226
S'follow'
p1227
S'VBD'
p1228
S'B-VP'
p1229
g5
tp1230
a(S'participants'
p1231
S'participant'
p1232
S'NNS'
p1233
S'B-NP'
p1234
g5
tp1235
a(S'throughout'
p1236
S'throughout'
p1237
S'IN'
p1238
S'B-PP'
p1239
g5
tp1240
a(S'the'
p1241
S'the'
p1242
S'DT'
p1243
S'B-NP'
p1244
g5
tp1245
a(S'treatment'
p1246
S'treatment'
p1247
S'NN'
p1248
S'I-NP'
p1249
g5
tp1250
a(S'period'
p1251
S'period'
p1252
S'NN'
p1253
S'I-NP'
p1254
g5
tp1255
a(S'showed'
p1256
S'show'
p1257
S'VBD'
p1258
S'B-VP'
p1259
g5
tp1260
a(S'significantly'
p1261
S'significantly'
p1262
S'RB'
p1263
S'B-NP'
p1264
g5
tp1265
a(S'greater'
p1266
S'great'
p1267
S'JJR'
p1268
S'I-NP'
p1269
g5
tp1270
a(S'downward'
p1271
S'downward'
p1272
S'JJ'
p1273
S'I-NP'
p1274
g5
tp1275
a(S'slopes'
p1276
S'slope'
p1277
S'NNS'
p1278
S'I-NP'
p1279
g5
tp1280
a(S'per'
p1281
S'per'
p1282
S'IN'
p1283
S'B-PP'
p1284
g5
tp1285
a(S'week'
p1286
S'week'
p1287
S'NN'
p1288
S'B-NP'
p1289
g5
tp1290
a(S'on'
p1291
S'on'
p1292
S'IN'
p1293
S'B-PP'
p1294
g5
tp1295
a(S'the'
p1296
S'the'
p1297
S'DT'
p1298
S'B-NP'
p1299
g5
tp1300
a(S'10'
p1301
S'10'
p1302
S'CD'
p1303
S'I-NP'
p1304
g5
tp1305
a(S'point'
p1306
S'point'
p1307
S'NN'
p1308
S'I-NP'
p1309
g5
tp1310
a(S'arm'
p1311
S'arm'
p1312
S'NN'
p1313
S'I-NP'
p1314
g5
tp1315
a(S'pain'
p1316
S'pain'
p1317
S'NN'
p1318
S'I-NP'
p1319
g5
tp1320
a(S'scale'
p1321
S'scale'
p1322
S'NN'
p1323
S'I-NP'
p1324
g5
tp1325
a(S'in'
p1326
S'in'
p1327
S'IN'
p1328
S'B-PP'
p1329
g5
tp1330
a(S'the'
p1331
S'the'
p1332
S'DT'
p1333
S'B-NP'
p1334
g5
tp1335
a(S'sham'
p1336
S'sham'
p1337
S'NN'
p1338
S'I-NP'
p1339
g5
tp1340
a(S'device'
p1341
S'device'
p1342
S'NN'
p1343
S'I-NP'
p1344
g5
tp1345
a(S'group'
p1346
S'group'
p1347
S'NN'
p1348
S'I-NP'
p1349
g5
tp1350
a(S'than'
p1351
S'than'
p1352
S'IN'
p1353
S'B-PP'
p1354
g5
tp1355
a(S'in'
p1356
S'in'
p1357
S'IN'
p1358
S'B-PP'
p1359
g5
tp1360
a(S'the'
p1361
S'the'
p1362
S'DT'
p1363
S'B-NP'
p1364
g5
tp1365
a(S'placebo'
p1366
S'placebo'
p1367
S'NN'
p1368
S'I-NP'
p1369
g5
tp1370
a(S'pill'
p1371
S'pill'
p1372
S'NN'
p1373
S'I-NP'
p1374
g5
tp1375
a(S'group'
p1376
S'group'
p1377
S'NN'
p1378
S'I-NP'
p1379
g5
tp1380
a(g93
g93
g93
g5
g5
tp1381
a(g256
g256
S'SYM'
p1382
g5
g5
tp1383
a(S'0.33'
p1384
S'0.33'
p1385
S'CD'
p1386
S'B-NP'
p1387
g5
tp1388
a(g93
g93
g93
g5
g5
tp1389
a(g256
g256
S'SYM'
p1390
g5
g5
tp1391
a(S'0.40'
p1392
S'0.40'
p1393
S'CD'
p1394
S'B-NP'
p1395
g5
tp1396
a(S'to'
p1397
S'to'
p1398
S'TO'
p1399
S'B-PP'
p1400
g5
tp1401
a(g256
g256
S'SYM'
p1402
S'B-NP'
p1403
g5
tp1404
a(S'0.26'
p1405
S'0.26'
p1406
S'CD'
p1407
S'I-NP'
p1408
g5
tp1409
a(g118
g118
g118
g5
g5
tp1410
a(g12
g12
S'NN'
p1411
S'B-NP'
p1412
g5
tp1413
a(g256
g256
S'HYPH'
p1414
S'B-NP'
p1415
g5
tp1416
a(S'0.15'
p1417
S'0.15'
p1418
S'CD'
p1419
S'I-NP'
p1420
g5
tp1421
a(g93
g93
g93
g5
g5
tp1422
a(g256
g256
S'SYM'
p1423
g5
g5
tp1424
a(S'0.21'
p1425
S'0.21'
p1426
S'CD'
p1427
S'B-NP'
p1428
g5
tp1429
a(S'to'
p1430
S'to'
p1431
S'TO'
p1432
S'B-PP'
p1433
g5
tp1434
a(g256
g256
S'SYM'
p1435
S'B-NP'
p1436
g5
tp1437
a(S'0.09'
p1438
S'0.09'
p1439
S'CD'
p1440
S'I-NP'
p1441
g5
tp1442
a(g118
g118
g118
g5
g5
tp1443
a(g790
g790
g790
g5
g5
tp1444
a(g1037
g1037
S'NN'
p1445
S'B-NP'
p1446
g5
tp1447
a(g565
g565
S'SYM'
p1448
S'B-VP'
p1449
g5
tp1450
a(S'0.0001'
p1451
S'0.0001'
p1452
S'CD'
p1453
S'B-NP'
p1454
g5
tp1455
a(g118
g118
g118
g5
g5
tp1456
a(S'and'
p1457
S'and'
p1458
S'CC'
p1459
g5
g5
tp1460
a(S'on'
p1461
S'on'
p1462
S'IN'
p1463
S'B-PP'
p1464
g5
tp1465
a(S'the'
p1466
S'the'
p1467
S'DT'
p1468
S'B-NP'
p1469
g5
tp1470
a(S'symptom'
p1471
S'symptom'
p1472
S'NN'
p1473
S'I-NP'
p1474
g5
tp1475
a(S'severity'
p1476
S'severity'
p1477
S'NN'
p1478
S'I-NP'
p1479
g5
tp1480
a(S'scale'
p1481
S'scale'
p1482
S'NN'
p1483
S'I-NP'
p1484
g5
tp1485
a(g93
g93
g93
g5
g5
tp1486
a(g256
g256
S'SYM'
p1487
g5
g5
tp1488
a(S'0.07'
p1489
S'0.07'
p1490
S'CD'
p1491
g5
g5
tp1492
a(g93
g93
g93
g5
g5
tp1493
a(g256
g256
S'SYM'
p1494
g5
g5
tp1495
a(S'0.09'
p1496
S'0.09'
p1497
S'CD'
p1498
S'B-NP'
p1499
g5
tp1500
a(S'to'
p1501
S'to'
p1502
S'TO'
p1503
S'B-PP'
p1504
g5
tp1505
a(g256
g256
S'SYM'
p1506
S'B-NP'
p1507
g5
tp1508
a(S'0.05'
p1509
S'0.05'
p1510
S'CD'
p1511
S'I-NP'
p1512
g5
tp1513
a(g118
g118
g118
g5
g5
tp1514
a(g12
g12
S'NN'
p1515
S'B-NP'
p1516
g5
tp1517
a(g256
g256
S'HYPH'
p1518
S'B-NP'
p1519
g5
tp1520
a(S'0.05'
p1521
S'0.05'
p1522
S'CD'
p1523
S'I-NP'
p1524
g5
tp1525
a(g93
g93
g93
g5
g5
tp1526
a(g256
g256
S'SYM'
p1527
g5
g5
tp1528
a(S'0.06'
p1529
S'0.06'
p1530
S'CD'
p1531
S'B-NP'
p1532
g5
tp1533
a(S'to'
p1534
S'to'
p1535
S'TO'
p1536
S'B-PP'
p1537
g5
tp1538
a(g256
g256
S'SYM'
p1539
S'B-NP'
p1540
g5
tp1541
a(S'0.03'
p1542
S'0.03'
p1543
S'CD'
p1544
S'I-NP'
p1545
g5
tp1546
a(g118
g118
g118
g5
g5
tp1547
a(g790
g790
g790
g5
g5
tp1548
a(g1037
g1037
S'NN'
p1549
S'B-NP'
p1550
g5
tp1551
a(g565
g565
S'SYM'
p1552
S'B-VP'
p1553
g5
tp1554
a(S'0.02'
p1555
S'0.02'
p1556
S'CD'
p1557
S'B-NP'
p1558
g5
tp1559
a(g118
g118
g118
g5
g5
tp1560
a(g62
g62
g62
g5
g5
tp1561
a(S'Differences'
p1562
S'Difference'
p1563
S'NNS'
p1564
S'B-NP'
p1565
g5
tp1566
a(S'were'
p1567
S'be'
p1568
S'VBD'
p1569
S'B-VP'
p1570
g5
tp1571
a(S'not'
p1572
S'not'
p1573
S'RB'
p1574
g5
g5
tp1575
a(S'significant'
p1576
S'significant'
p1577
S'JJ'
p1578
S'B-ADJP'
p1579
g5
tp1580
a(g790
g790
g790
g5
g5
tp1581
a(S'however'
p1582
S'however'
p1583
S'RB'
p1584
S'B-ADVP'
p1585
g5
tp1586
a(g790
g790
g790
g5
g5
tp1587
a(S'on'
p1588
S'on'
p1589
S'IN'
p1590
S'B-PP'
p1591
g5
tp1592
a(S'the'
p1593
S'the'
p1594
S'DT'
p1595
S'B-NP'
p1596
g5
tp1597
a(S'function'
p1598
S'function'
p1599
S'NN'
p1600
S'I-NP'
p1601
g5
tp1602
a(S'scale'
p1603
S'scale'
p1604
S'NN'
p1605
S'I-NP'
p1606
g5
tp1607
a(S'or'
p1608
S'or'
p1609
S'CC'
p1610
S'B-PP'
p1611
g5
tp1612
a(S'for'
p1613
S'for'
p1614
S'IN'
p1615
S'B-PP'
p1616
g5
tp1617
a(S'grip'
p1618
S'grip'
p1619
S'NN'
p1620
S'B-NP'
p1621
g5
tp1622
a(S'strength'
p1623
S'strength'
p1624
S'NN'
p1625
S'I-NP'
p1626
g5
tp1627
a(g62
g62
g62
g5
g5
tp1628
a(S'Reported'
p1629
S'Report'
p1630
S'VBN'
p1631
S'B-VP'
p1632
g5
tp1633
a(S'adverse'
p1634
S'adverse'
p1635
S'JJ'
p1636
S'B-NP'
p1637
g5
tp1638
a(S'effects'
p1639
S'effect'
p1640
S'NNS'
p1641
S'I-NP'
p1642
g5
tp1643
a(S'were'
p1644
S'be'
p1645
S'VBD'
p1646
S'B-VP'
p1647
g5
tp1648
a(S'different'
p1649
S'different'
p1650
S'JJ'
p1651
S'B-ADJP'
p1652
g5
tp1653
a(S'in'
p1654
S'in'
p1655
S'IN'
p1656
S'B-PP'
p1657
g5
tp1658
a(S'the'
p1659
S'the'
p1660
S'DT'
p1661
S'B-NP'
p1662
g5
tp1663
a(g48
g48
S'CD'
p1664
S'I-NP'
p1665
g5
tp1666
a(S'groups'
p1667
S'group'
p1668
S'NNS'
p1669
S'I-NP'
p1670
g5
tp1671
a(g62
g62
g62
g5
g5
tp1672
a(S'The'
p1673
S'The'
p1674
S'DT'
p1675
S'B-NP'
p1676
g5
tp1677
a(S'sham'
p1678
S'sham'
p1679
S'NN'
p1680
S'I-NP'
p1681
g5
tp1682
a(S'device'
p1683
S'device'
p1684
S'NN'
p1685
S'I-NP'
p1686
g5
tp1687
a(S'had'
p1688
S'have'
p1689
S'VBD'
p1690
S'B-VP'
p1691
g5
tp1692
a(S'greater'
p1693
S'great'
p1694
S'JJR'
p1695
S'B-NP'
p1696
g5
tp1697
a(S'effects'
p1698
S'effect'
p1699
S'NNS'
p1700
S'I-NP'
p1701
g5
tp1702
a(S'than'
p1703
S'than'
p1704
S'IN'
p1705
S'B-PP'
p1706
g5
tp1707
a(S'the'
p1708
S'the'
p1709
S'DT'
p1710
S'B-NP'
p1711
g5
tp1712
a(S'placebo'
p1713
S'placebo'
p1714
S'NN'
p1715
S'I-NP'
p1716
g5
tp1717
a(S'pill'
p1718
S'pill'
p1719
S'NN'
p1720
S'I-NP'
p1721
g5
tp1722
a(S'on'
p1723
S'on'
p1724
S'IN'
p1725
S'B-PP'
p1726
g5
tp1727
a(S'self'
p1728
S'self'
p1729
S'NN'
p1730
S'B-NP'
p1731
g5
tp1732
a(S'reported'
p1733
S'report'
p1734
S'VBD'
p1735
S'B-VP'
p1736
g5
tp1737
a(S'pain'
p1738
S'pain'
p1739
S'NN'
p1740
S'B-NP'
p1741
g5
tp1742
a(S'and'
p1743
S'and'
p1744
S'CC'
p1745
S'I-NP'
p1746
g5
tp1747
a(S'severity'
p1748
S'severity'
p1749
S'NN'
p1750
S'I-NP'
p1751
g5
tp1752
a(S'of'
p1753
S'of'
p1754
S'IN'
p1755
S'B-PP'
p1756
g5
tp1757
a(S'symptoms'
p1758
S'symptom'
p1759
S'NNS'
p1760
S'B-NP'
p1761
g5
tp1762
a(S'over'
p1763
S'over'
p1764
S'IN'
p1765
S'B-PP'
p1766
g5
tp1767
a(S'the'
p1768
S'the'
p1769
S'DT'
p1770
S'B-NP'
p1771
g5
tp1772
a(S'entire'
p1773
S'entire'
p1774
S'JJ'
p1775
S'I-NP'
p1776
g5
tp1777
a(S'course'
p1778
S'course'
p1779
S'NN'
p1780
S'I-NP'
p1781
g5
tp1782
a(S'of'
p1783
S'of'
p1784
S'IN'
p1785
S'B-PP'
p1786
g5
tp1787
a(S'treatment'
p1788
S'treatment'
p1789
S'NN'
p1790
S'B-NP'
p1791
g5
tp1792
a(S'but'
p1793
S'but'
p1794
S'CC'
p1795
S'B-PP'
p1796
g5
tp1797
a(S'not'
p1798
S'not'
p1799
S'RB'
p1800
S'B-PP'
p1801
g5
tp1802
a(S'during'
p1803
S'during'
p1804
S'IN'
p1805
S'I-PP'
p1806
g5
tp1807
a(S'the'
p1808
S'the'
p1809
S'DT'
p1810
S'B-NP'
p1811
g5
tp1812
a(g48
g48
S'CD'
p1813
S'I-NP'
p1814
g5
tp1815
a(S'week'
p1816
S'week'
p1817
S'NN'
p1818
S'I-NP'
p1819
g5
tp1820
a(S'placebo'
p1821
S'placebo'
p1822
S'NN'
p1823
S'I-NP'
p1824
g5
tp1825
a(S'run'
p1826
S'run'
p1827
S'VB'
p1828
S'B-VP'
p1829
g5
tp1830
a(S'in'
p1831
S'in'
p1832
S'IN'
p1833
S'B-PP'
p1834
g5
tp1835
a(g62
g62
g62
g5
g5
tp1836
a(S'Placebo'
p1837
S'Placebo'
p1838
S'NNP'
p1839
S'B-NP'
p1840
g5
tp1841
a(S'effects'
p1842
S'effect'
p1843
S'NNS'
p1844
S'I-NP'
p1845
g5
tp1846
a(S'seem'
p1847
S'seem'
p1848
S'VBP'
p1849
S'B-VP'
p1850
g5
tp1851
a(S'to'
p1852
S'to'
p1853
S'TO'
p1854
S'I-VP'
p1855
g5
tp1856
a(S'be'
p1857
S'be'
p1858
S'VB'
p1859
S'I-VP'
p1860
g5
tp1861
a(S'malleable'
p1862
S'malleable'
p1863
S'JJ'
p1864
S'B-ADJP'
p1865
g5
tp1866
a(S'and'
p1867
S'and'
p1868
S'CC'
p1869
g5
g5
tp1870
a(S'depend'
p1871
S'depend'
p1872
S'VB'
p1873
S'B-VP'
p1874
g5
tp1875
a(S'on'
p1876
S'on'
p1877
S'IN'
p1878
S'B-PP'
p1879
g5
tp1880
a(S'the'
p1881
S'the'
p1882
S'DT'
p1883
S'B-NP'
p1884
g5
tp1885
a(S'behaviours'
p1886
S'behaviour'
p1887
S'NNS'
p1888
S'I-NP'
p1889
g5
tp1890
a(S'embedded'
p1891
S'embed'
p1892
S'VBN'
p1893
S'B-VP'
p1894
g5
tp1895
a(S'in'
p1896
S'in'
p1897
S'IN'
p1898
S'B-PP'
p1899
g5
tp1900
a(S'medical'
p1901
S'medical'
p1902
S'JJ'
p1903
S'B-NP'
p1904
g5
tp1905
a(S'rituals'
p1906
S'ritual'
p1907
S'NNS'
p1908
S'I-NP'
p1909
g5
tp1910
a(g62
g62
g62
g5
g5
tp1911
a.