(lp0
(S'HIV'
p1
S'HIV'
p2
S'NN'
p3
S'B-NP'
p4
S'O'
p5
tp6
a(S'prevention'
p7
S'prevention'
p8
S'NN'
p9
S'I-NP'
p10
g5
tp11
a(S'in'
p12
S'in'
p13
S'IN'
p14
S'B-PP'
p15
g5
tp16
a(S'Mexican'
p17
S'Mexican'
p18
S'JJ'
p19
S'B-NP'
p20
g5
tp21
a(S'schools'
p22
S'school'
p23
S'NNS'
p24
S'I-NP'
p25
g5
tp26
a(S':'
p27
g27
g27
g5
g5
tp28
a(S'prospective'
p29
S'prospective'
p30
S'JJ'
p31
S'B-NP'
p32
g5
tp33
a(S'randomised'
p34
S'randomise'
p35
S'VBN'
p36
S'I-NP'
p37
g5
tp38
a(S'evaluation'
p39
S'evaluation'
p40
S'NN'
p41
S'I-NP'
p42
g5
tp43
a(S'of'
p44
S'of'
p45
S'IN'
p46
S'B-PP'
p47
g5
tp48
a(S'intervention'
p49
S'intervention'
p50
S'NN'
p51
S'B-NP'
p52
g5
tp53
a(S'.'
p54
g54
g54
g5
g5
tp55
a(S'To'
p56
S'To'
p57
S'TO'
p58
S'B-VP'
p59
g5
tp60
a(S'assess'
p61
S'assess'
p62
S'VB'
p63
S'I-VP'
p64
g5
tp65
a(S'effects'
p66
S'effect'
p67
S'NNS'
p68
S'B-NP'
p69
g5
tp70
a(S'on'
p71
S'on'
p72
S'IN'
p73
S'B-PP'
p74
g5
tp75
a(S'condom'
p76
S'condom'
p77
S'NN'
p78
S'B-NP'
p79
g5
tp80
a(S'use'
p81
S'use'
p82
S'NN'
p83
S'I-NP'
p84
g5
tp85
a(S'and'
p86
S'and'
p87
S'CC'
p88
g5
g5
tp89
a(S'other'
p90
S'other'
p91
S'JJ'
p92
S'B-NP'
p93
g5
tp94
a(S'sexual'
p95
S'sexual'
p96
S'JJ'
p97
S'I-NP'
p98
g5
tp99
a(S'behaviour'
p100
S'behaviour'
p101
S'NN'
p102
S'I-NP'
p103
g5
tp104
a(S'of'
p105
S'of'
p106
S'IN'
p107
S'B-PP'
p108
g5
tp109
a(S'an'
p110
S'an'
p111
S'DT'
p112
S'B-NP'
p113
g5
tp114
a(S'HIV'
p115
S'HIV'
p116
S'NN'
p117
S'I-NP'
p118
g5
tp119
a(S'prevention'
p120
S'prevention'
p121
S'NN'
p122
S'I-NP'
p123
g5
tp124
a(S'programme'
p125
S'programme'
p126
S'NN'
p127
S'I-NP'
p128
g5
tp129
a(S'at'
p130
S'at'
p131
S'IN'
p132
S'B-PP'
p133
g5
tp134
a(S'school'
p135
S'school'
p136
S'NN'
p137
S'B-NP'
p138
g5
tp139
a(S'that'
p140
S'that'
p141
S'WDT'
p142
S'B-NP'
p143
g5
tp144
a(S'promotes'
p145
S'promote'
p146
S'VBZ'
p147
S'B-VP'
p148
g5
tp149
a(S'the'
p150
S'the'
p151
S'DT'
p152
S'B-NP'
p153
g5
tp154
a(S'use'
p155
S'use'
p156
S'NN'
p157
S'I-NP'
p158
g5
tp159
a(S'of'
p160
S'of'
p161
S'IN'
p162
S'B-PP'
p163
g5
tp164
a(S'condoms'
p165
S'condom'
p166
S'NNS'
p167
S'B-NP'
p168
g5
tp169
a(S'with'
p170
S'with'
p171
S'IN'
p172
S'B-PP'
p173
g5
tp174
a(S'and'
p175
S'and'
p176
S'CC'
p177
S'I-PP'
p178
g5
tp179
a(S'without'
p180
S'without'
p181
S'IN'
p182
S'I-PP'
p183
g5
tp184
a(S'emergency'
p185
S'emergency'
p186
S'NN'
p187
S'B-NP'
p188
g5
tp189
a(S'contraception'
p190
S'contraception'
p191
S'NN'
p192
S'I-NP'
p193
g5
tp194
a(g54
g54
g54
g5
g5
tp195
a(S'Cluster'
p196
S'Cluster'
p197
S'NNP'
p198
S'B-NP'
p199
g5
tp200
a(S'randomised'
p201
S'randomise'
p202
S'VBD'
p203
S'B-VP'
p204
g5
tp205
a(S'controlled'
p206
S'control'
p207
S'VBN'
p208
S'B-NP'
p209
g5
tp210
a(S'trial'
p211
S'trial'
p212
S'NN'
p213
S'I-NP'
p214
g5
tp215
a(g54
g54
g54
S'I-NP'
p216
g5
tp217
a(S'40'
p218
S'40'
p219
S'CD'
p220
S'I-NP'
p221
g5
tp222
a(S'public'
p223
S'public'
p224
S'JJ'
p225
S'I-NP'
p226
g5
tp227
a(S'high'
p228
S'high'
p229
S'JJ'
p230
S'I-NP'
p231
g5
tp232
a(S'schools'
p233
S'school'
p234
S'NNS'
p235
S'I-NP'
p236
g5
tp237
a(S'in'
p238
S'in'
p239
S'IN'
p240
S'B-PP'
p241
g5
tp242
a(S'the'
p243
S'the'
p244
S'DT'
p245
S'B-NP'
p246
g5
tp247
a(S'state'
p248
S'state'
p249
S'NN'
p250
S'I-NP'
p251
g5
tp252
a(S'of'
p253
S'of'
p254
S'IN'
p255
S'B-PP'
p256
g5
tp257
a(S'Morelos'
p258
S'Morelos'
p259
S'NNP'
p260
S'B-NP'
p261
g5
tp262
a(S','
p263
g263
g263
g5
g5
tp264
a(S'Mexico'
p265
S'Mexico'
p266
S'NNP'
p267
S'B-NP'
p268
g5
tp269
a(g54
g54
g54
g5
g5
tp270
a(S'10'
p271
S'10'
p272
S'CD'
p273
S'B-NP'
p274
g5
tp275
a(S'954'
p276
S'954'
p277
S'CD'
p278
S'I-NP'
p279
g5
tp280
a(S'first'
p281
S'first'
p282
S'JJ'
p283
S'I-NP'
p284
g5
tp285
a(S'year'
p286
S'year'
p287
S'NN'
p288
S'I-NP'
p289
g5
tp290
a(S'high'
p291
S'high'
p292
S'JJ'
p293
S'I-NP'
p294
g5
tp295
a(S'school'
p296
S'school'
p297
S'NN'
p298
S'I-NP'
p299
g5
tp300
a(S'students'
p301
S'student'
p302
S'NNS'
p303
S'I-NP'
p304
g5
tp305
a(g54
g54
g54
g5
g5
tp306
a(S'Schools'
p307
S'School'
p308
S'NNS'
p309
S'B-NP'
p310
g5
tp311
a(S'were'
p312
S'be'
p313
S'VBD'
p314
S'B-VP'
p315
g5
tp316
a(S'randomised'
p317
S'randomise'
p318
S'VBN'
p319
S'I-VP'
p320
g5
tp321
a(S'to'
p322
S'to'
p323
S'TO'
p324
S'B-PP'
p325
g5
tp326
a(S'1'
p327
g327
S'CD'
p328
S'B-NP'
p329
g5
tp330
a(S'of'
p331
S'of'
p332
S'IN'
p333
S'B-PP'
p334
g5
tp335
a(S'3'
p336
g336
S'CD'
p337
S'B-NP'
p338
g5
tp339
a(S'arms'
p340
S'arm'
p341
S'NNS'
p342
S'I-NP'
p343
g5
tp344
a(g27
g27
g27
g5
g5
tp345
a(S'an'
p346
S'an'
p347
S'DT'
p348
S'B-NP'
p349
g5
tp350
a(S'HIV'
p351
S'HIV'
p352
S'NN'
p353
S'I-NP'
p354
g5
tp355
a(S'prevention'
p356
S'prevention'
p357
S'NN'
p358
S'I-NP'
p359
g5
tp360
a(S'course'
p361
S'course'
p362
S'NN'
p363
S'I-NP'
p364
g5
tp365
a(S'that'
p366
S'that'
p367
S'WDT'
p368
S'B-NP'
p369
g5
tp370
a(S'promoted'
p371
S'promote'
p372
S'VBD'
p373
S'B-VP'
p374
g5
tp375
a(S'condom'
p376
S'condom'
p377
S'NN'
p378
S'B-NP'
p379
g5
tp380
a(S'use'
p381
S'use'
p382
S'NN'
p383
S'I-NP'
p384
g5
tp385
a(g263
g263
g263
g5
g5
tp386
a(S'the'
p387
S'the'
p388
S'DT'
p389
S'B-NP'
p390
g5
tp391
a(S'same'
p392
S'same'
p393
S'JJ'
p394
S'I-NP'
p395
g5
tp396
a(S'course'
p397
S'course'
p398
S'NN'
p399
S'I-NP'
p400
g5
tp401
a(S'with'
p402
S'with'
p403
S'IN'
p404
S'B-PP'
p405
g5
tp406
a(S'emergency'
p407
S'emergency'
p408
S'NN'
p409
S'B-NP'
p410
g5
tp411
a(S'contraception'
p412
S'contraception'
p413
S'NN'
p414
S'I-NP'
p415
g5
tp416
a(S'as'
p417
S'as'
p418
S'IN'
p419
S'B-SBAR'
p420
g5
tp421
a(S'back'
p422
S'back'
p423
S'VB'
p424
S'B-VP'
p425
g5
tp426
a(S'-'
p427
g427
S'HYPH'
p428
S'B-PRT'
p429
g5
tp430
a(S'up'
p431
S'up'
p432
S'RP'
p433
S'B-PRT'
p434
g5
tp435
a(g263
g263
g263
g5
g5
tp436
a(S'or'
p437
S'or'
p438
S'CC'
p439
g5
g5
tp440
a(S'the'
p441
S'the'
p442
S'DT'
p443
S'B-NP'
p444
g5
tp445
a(S'existing'
p446
S'exist'
p447
S'VBG'
p448
S'I-NP'
p449
g5
tp450
a(S'sex'
p451
S'sex'
p452
S'NN'
p453
S'I-NP'
p454
g5
tp455
a(S'education'
p456
S'education'
p457
S'NN'
p458
S'I-NP'
p459
g5
tp460
a(S'course'
p461
S'course'
p462
S'NN'
p463
S'I-NP'
p464
g5
tp465
a(g54
g54
g54
S'I-NP'
p466
g5
tp467
a(S'Self'
p468
S'Self'
p469
S'NN'
p470
S'I-NP'
p471
S'B-DNA'
p472
tp473
a(S'administered'
p474
S'administer'
p475
S'VBD'
p476
S'B-VP'
p477
S'I-DNA'
p478
tp479
a(S'anonymous'
p480
S'anonymous'
p481
S'JJ'
p482
S'B-NP'
p483
S'I-DNA'
p484
tp485
a(S'questionnaires'
p486
S'questionnaire'
p487
S'NNS'
p488
S'I-NP'
p489
S'I-DNA'
p490
tp491
a(S'were'
p492
S'be'
p493
S'VBD'
p494
S'B-VP'
p495
g5
tp496
a(S'completed'
p497
S'complete'
p498
S'VBN'
p499
S'I-VP'
p500
g5
tp501
a(S'at'
p502
S'at'
p503
S'IN'
p504
S'B-PP'
p505
g5
tp506
a(S'baseline'
p507
S'baseline'
p508
S'NN'
p509
S'B-NP'
p510
g5
tp511
a(g263
g263
g263
g5
g5
tp512
a(S'4'
p513
g513
S'CD'
p514
S'B-NP'
p515
g5
tp516
a(S'months'
p517
S'month'
p518
S'NNS'
p519
S'I-NP'
p520
g5
tp521
a(g263
g263
g263
g5
g5
tp522
a(S'and'
p523
S'and'
p524
S'CC'
p525
g5
g5
tp526
a(S'16'
p527
S'16'
p528
S'CD'
p529
S'B-NP'
p530
g5
tp531
a(S'months'
p532
S'month'
p533
S'NNS'
p534
S'I-NP'
p535
g5
tp536
a(g54
g54
g54
g5
g5
tp537
a(S'Students'
p538
S'Student'
p539
S'NNS'
p540
S'B-NP'
p541
g5
tp542
a(S'at'
p543
S'at'
p544
S'IN'
p545
S'B-PP'
p546
g5
tp547
a(S'intervention'
p548
S'intervention'
p549
S'NN'
p550
S'B-NP'
p551
g5
tp552
a(S'schools'
p553
S'school'
p554
S'NNS'
p555
S'I-NP'
p556
g5
tp557
a(S'received'
p558
S'receive'
p559
S'VBD'
p560
S'B-VP'
p561
g5
tp562
a(S'a'
p563
g563
S'DT'
p564
S'B-NP'
p565
g5
tp566
a(S'30'
p567
S'30'
p568
S'CD'
p569
S'I-NP'
p570
g5
tp571
a(S'hour'
p572
S'hour'
p573
S'NN'
p574
S'I-NP'
p575
g5
tp576
a(S'course'
p577
S'course'
p578
S'NN'
p579
S'I-NP'
p580
g5
tp581
a(S'('
p582
g582
g582
g5
g5
tp583
a(S'over'
p584
S'over'
p585
S'IN'
p586
S'B-NP'
p587
g5
tp588
a(S'15'
p589
S'15'
p590
S'CD'
p591
S'I-NP'
p592
g5
tp593
a(S'weeks'
p594
S'week'
p595
S'NNS'
p596
S'I-NP'
p597
g5
tp598
a(S')'
p599
g599
g599
g5
g5
tp600
a(S'on'
p601
S'on'
p602
S'IN'
p603
S'B-PP'
p604
g5
tp605
a(S'HIV'
p606
S'HIV'
p607
S'NN'
p608
S'B-NP'
p609
g5
tp610
a(S'prevention'
p611
S'prevention'
p612
S'NN'
p613
S'I-NP'
p614
g5
tp615
a(S'and'
p616
S'and'
p617
S'CC'
p618
S'I-NP'
p619
g5
tp620
a(S'life'
p621
S'life'
p622
S'NN'
p623
S'I-NP'
p624
g5
tp625
a(S'skills'
p626
S'skill'
p627
S'NNS'
p628
S'I-NP'
p629
g5
tp630
a(g263
g263
g263
g5
g5
tp631
a(S'designed'
p632
S'design'
p633
S'VBN'
p634
S'B-VP'
p635
g5
tp636
a(S'in'
p637
S'in'
p638
S'IN'
p639
S'B-PP'
p640
g5
tp641
a(S'accordance'
p642
S'accordance'
p643
S'NN'
p644
S'B-NP'
p645
g5
tp646
a(S'with'
p647
S'with'
p648
S'IN'
p649
S'B-PP'
p650
g5
tp651
a(S'guidelines'
p652
S'guideline'
p653
S'NNS'
p654
S'B-NP'
p655
g5
tp656
a(S'of'
p657
S'of'
p658
S'IN'
p659
S'B-PP'
p660
g5
tp661
a(S'the'
p662
S'the'
p663
S'DT'
p664
S'B-NP'
p665
g5
tp666
a(S'joint'
p667
S'joint'
p668
S'JJ'
p669
S'I-NP'
p670
g5
tp671
a(S'United'
p672
S'United'
p673
S'NNP'
p674
S'I-NP'
p675
g5
tp676
a(S'Nations'
p677
S'Nation'
p678
S'NNPS'
p679
S'I-NP'
p680
g5
tp681
a(S'programme'
p682
S'programme'
p683
S'NN'
p684
S'I-NP'
p685
g5
tp686
a(S'on'
p687
S'on'
p688
S'IN'
p689
S'B-PP'
p690
g5
tp691
a(S'HIV'
p692
S'HIV'
p693
S'NN'
p694
S'B-NP'
p695
g5
tp696
a(S'/'
p697
g697
S'SYM'
p698
S'I-NP'
p699
g5
tp700
a(S'AIDS'
p701
S'AIDS'
p702
S'NN'
p703
S'I-NP'
p704
g5
tp705
a(g54
g54
g54
g5
g5
tp706
a(S'2'
p707
g707
S'CD'
p708
S'B-NP'
p709
g5
tp710
a(S'extra'
p711
S'extra'
p712
S'JJ'
p713
S'I-NP'
p714
g5
tp715
a(S'hours'
p716
S'hour'
p717
S'NNS'
p718
S'I-NP'
p719
g5
tp720
a(S'of'
p721
S'of'
p722
S'IN'
p723
S'B-PP'
p724
g5
tp725
a(S'education'
p726
S'education'
p727
S'NN'
p728
S'B-NP'
p729
g5
tp730
a(S'on'
p731
S'on'
p732
S'IN'
p733
S'B-PP'
p734
g5
tp735
a(S'emergency'
p736
S'emergency'
p737
S'NN'
p738
S'B-NP'
p739
g5
tp740
a(S'contraception'
p741
S'contraception'
p742
S'NN'
p743
S'I-NP'
p744
g5
tp745
a(S'were'
p746
S'be'
p747
S'VBD'
p748
S'B-VP'
p749
g5
tp750
a(S'given'
p751
S'give'
p752
S'VBN'
p753
S'I-VP'
p754
g5
tp755
a(S'to'
p756
S'to'
p757
S'TO'
p758
S'B-PP'
p759
g5
tp760
a(S'students'
p761
S'student'
p762
S'NNS'
p763
S'B-NP'
p764
g5
tp765
a(S'in'
p766
S'in'
p767
S'IN'
p768
S'B-PP'
p769
g5
tp770
a(S'the'
p771
S'the'
p772
S'DT'
p773
S'B-NP'
p774
g5
tp775
a(S'condom'
p776
S'condom'
p777
S'NN'
p778
S'I-NP'
p779
g5
tp780
a(S'promotion'
p781
S'promotion'
p782
S'NN'
p783
S'I-NP'
p784
g5
tp785
a(S'with'
p786
S'with'
p787
S'IN'
p788
S'B-PP'
p789
g5
tp790
a(S'contraception'
p791
S'contraception'
p792
S'NN'
p793
S'B-NP'
p794
g5
tp795
a(S'arm'
p796
S'arm'
p797
S'NN'
p798
S'I-NP'
p799
g5
tp800
a(g54
g54
g54
g5
g5
tp801
a(S'Primary'
p802
S'Primary'
p803
S'JJ'
p804
S'B-NP'
p805
g5
tp806
a(S'outcome'
p807
S'outcome'
p808
S'NN'
p809
S'I-NP'
p810
g5
tp811
a(S'measure'
p812
S'measure'
p813
S'NN'
p814
S'I-NP'
p815
g5
tp816
a(S'was'
p817
S'be'
p818
S'VBD'
p819
S'B-VP'
p820
g5
tp821
a(S'reported'
p822
S'report'
p823
S'VBN'
p824
S'I-VP'
p825
g5
tp826
a(S'condom'
p827
S'condom'
p828
S'JJ'
p829
S'B-NP'
p830
g5
tp831
a(S'use'
p832
S'use'
p833
S'NN'
p834
S'I-NP'
p835
g5
tp836
a(g54
g54
g54
g5
g5
tp837
a(S'Other'
p838
S'Other'
p839
S'JJ'
p840
S'B-NP'
p841
g5
tp842
a(S'outcomes'
p843
S'outcome'
p844
S'NNS'
p845
S'I-NP'
p846
g5
tp847
a(S'were'
p848
S'be'
p849
S'VBD'
p850
S'B-VP'
p851
g5
tp852
a(S'reported'
p853
S'report'
p854
S'VBN'
p855
S'I-VP'
p856
g5
tp857
a(S'sexual'
p858
S'sexual'
p859
S'JJ'
p860
S'B-NP'
p861
g5
tp862
a(S'activity'
p863
S'activity'
p864
S'NN'
p865
S'I-NP'
p866
g5
tp867
a(S';'
p868
g868
g27
g5
g5
tp869
a(S'knowledge'
p870
S'knowledge'
p871
S'NN'
p872
S'B-NP'
p873
g5
tp874
a(S'and'
p875
S'and'
p876
S'CC'
p877
S'I-NP'
p878
g5
tp879
a(S'attitudes'
p880
S'attitude'
p881
S'NNS'
p882
S'I-NP'
p883
g5
tp884
a(S'about'
p885
S'about'
p886
S'IN'
p887
S'B-PP'
p888
g5
tp889
a(S'HIV'
p890
S'HIV'
p891
S'NN'
p892
S'B-NP'
p893
g5
tp894
a(S'and'
p895
S'and'
p896
S'CC'
p897
g5
g5
tp898
a(S'emergency'
p899
S'emergency'
p900
S'NN'
p901
S'B-NP'
p902
g5
tp903
a(S'contraception'
p904
S'contraception'
p905
S'NN'
p906
S'I-NP'
p907
g5
tp908
a(g868
g868
g27
g5
g5
tp909
a(S'and'
p910
S'and'
p911
S'CC'
p912
g5
g5
tp913
a(S'attitudes'
p914
S'attitude'
p915
S'NNS'
p916
S'B-NP'
p917
g5
tp918
a(S'and'
p919
S'and'
p920
S'CC'
p921
g5
g5
tp922
a(S'confidence'
p923
S'confidence'
p924
S'NN'
p925
S'B-NP'
p926
g5
tp927
a(S'about'
p928
S'about'
p929
S'IN'
p930
S'B-PP'
p931
g5
tp932
a(S'condom'
p933
S'condom'
p934
S'NN'
p935
S'B-NP'
p936
g5
tp937
a(S'use'
p938
S'use'
p939
S'NN'
p940
S'I-NP'
p941
g5
tp942
a(g54
g54
g54
g5
g5
tp943
a(S'Intervention'
p944
S'Intervention'
p945
S'NN'
p946
S'B-NP'
p947
g5
tp948
a(S'did'
p949
S'do'
p950
S'VBD'
p951
S'B-VP'
p952
g5
tp953
a(S'not'
p954
S'not'
p955
S'RB'
p956
S'I-VP'
p957
g5
tp958
a(S'affect'
p959
S'affect'
p960
S'VB'
p961
S'I-VP'
p962
g5
tp963
a(S'reported'
p964
S'report'
p965
S'VBN'
p966
S'I-VP'
p967
g5
tp968
a(S'condom'
p969
S'condom'
p970
S'JJ'
p971
S'B-NP'
p972
g5
tp973
a(S'use'
p974
S'use'
p975
S'NN'
p976
S'I-NP'
p977
g5
tp978
a(g54
g54
g54
S'I-NP'
p979
g5
tp980
a(S'Knowledge'
p981
S'Knowledge'
p982
S'NN'
p983
S'I-NP'
p984
g5
tp985
a(S'of'
p986
S'of'
p987
S'IN'
p988
S'B-PP'
p989
g5
tp990
a(S'HIV'
p991
S'HIV'
p992
S'NN'
p993
S'B-NP'
p994
g5
tp995
a(S'improved'
p996
S'improve'
p997
S'VBN'
p998
S'B-VP'
p999
g5
tp1000
a(S'in'
p1001
S'in'
p1002
S'IN'
p1003
S'B-PP'
p1004
g5
tp1005
a(S'both'
p1006
S'both'
p1007
S'CC'
p1008
g5
g5
tp1009
a(S'intervention'
p1010
S'intervention'
p1011
S'NN'
p1012
S'B-NP'
p1013
g5
tp1014
a(S'arms'
p1015
S'arm'
p1016
S'NNS'
p1017
S'I-NP'
p1018
g5
tp1019
a(S'and'
p1020
S'and'
p1021
S'CC'
p1022
g5
g5
tp1023
a(S'knowledge'
p1024
S'knowledge'
p1025
S'NN'
p1026
S'B-NP'
p1027
g5
tp1028
a(S'of'
p1029
S'of'
p1030
S'IN'
p1031
S'B-PP'
p1032
g5
tp1033
a(S'emergency'
p1034
S'emergency'
p1035
S'NN'
p1036
S'B-NP'
p1037
g5
tp1038
a(S'contraception'
p1039
S'contraception'
p1040
S'NN'
p1041
S'I-NP'
p1042
g5
tp1043
a(S'improved'
p1044
S'improve'
p1045
S'VBN'
p1046
S'B-VP'
p1047
g5
tp1048
a(S'in'
p1049
S'in'
p1050
S'IN'
p1051
S'B-PP'
p1052
g5
tp1053
a(S'the'
p1054
S'the'
p1055
S'DT'
p1056
S'B-NP'
p1057
g5
tp1058
a(S'condom'
p1059
S'condom'
p1060
S'NN'
p1061
S'I-NP'
p1062
g5
tp1063
a(S'promotion'
p1064
S'promotion'
p1065
S'NN'
p1066
S'I-NP'
p1067
g5
tp1068
a(S'with'
p1069
S'with'
p1070
S'IN'
p1071
S'B-PP'
p1072
g5
tp1073
a(S'contraception'
p1074
S'contraception'
p1075
S'NN'
p1076
S'B-NP'
p1077
g5
tp1078
a(S'arm'
p1079
S'arm'
p1080
S'NN'
p1081
S'I-NP'
p1082
g5
tp1083
a(g54
g54
g54
g5
g5
tp1084
a(S'Reported'
p1085
S'Report'
p1086
S'VBN'
p1087
S'B-VP'
p1088
g5
tp1089
a(S'sexual'
p1090
S'sexual'
p1091
S'JJ'
p1092
S'B-NP'
p1093
g5
tp1094
a(S'behaviour'
p1095
S'behaviour'
p1096
S'NN'
p1097
S'I-NP'
p1098
g5
tp1099
a(S'was'
p1100
S'be'
p1101
S'VBD'
p1102
S'B-VP'
p1103
g5
tp1104
a(S'similar'
p1105
S'similar'
p1106
S'JJ'
p1107
S'B-ADJP'
p1108
g5
tp1109
a(S'in'
p1110
S'in'
p1111
S'IN'
p1112
S'B-PP'
p1113
g5
tp1114
a(S'the'
p1115
S'the'
p1116
S'DT'
p1117
S'B-NP'
p1118
g5
tp1119
a(S'intervention'
p1120
S'intervention'
p1121
S'NN'
p1122
S'I-NP'
p1123
g5
tp1124
a(S'arms'
p1125
S'arm'
p1126
S'NNS'
p1127
S'I-NP'
p1128
g5
tp1129
a(S'and'
p1130
S'and'
p1131
S'CC'
p1132
g5
g5
tp1133
a(S'the'
p1134
S'the'
p1135
S'DT'
p1136
S'B-NP'
p1137
g5
tp1138
a(S'control'
p1139
S'control'
p1140
S'NN'
p1141
S'I-NP'
p1142
g5
tp1143
a(S'group'
p1144
S'group'
p1145
S'NN'
p1146
S'I-NP'
p1147
g5
tp1148
a(g54
g54
g54
S'I-NP'
p1149
g5
tp1150
a(S'A'
p1151
g1151
S'NN'
p1152
S'I-NP'
p1153
g5
tp1154
a(S'rigorously'
p1155
S'rigorously'
p1156
S'RB'
p1157
S'B-VP'
p1158
g5
tp1159
a(S'designed'
p1160
S'design'
p1161
S'VBN'
p1162
S'I-VP'
p1163
g5
tp1164
a(g263
g263
g263
g5
g5
tp1165
a(S'implemented'
p1166
S'implement'
p1167
S'VBN'
p1168
S'B-VP'
p1169
g5
tp1170
a(g263
g263
g263
g5
g5
tp1171
a(S'and'
p1172
S'and'
p1173
S'CC'
p1174
g5
g5
tp1175
a(S'evaluated'
p1176
S'evaluate'
p1177
S'VBD'
p1178
S'B-VP'
p1179
g5
tp1180
a(S'HIV'
p1181
S'HIV'
p1182
S'NN'
p1183
S'B-NP'
p1184
g5
tp1185
a(S'education'
p1186
S'education'
p1187
S'NN'
p1188
S'I-NP'
p1189
g5
tp1190
a(S'course'
p1191
S'course'
p1192
S'NN'
p1193
S'I-NP'
p1194
g5
tp1195
a(S'based'
p1196
S'base'
p1197
S'VBN'
p1198
S'B-VP'
p1199
g5
tp1200
a(S'in'
p1201
S'in'
p1202
S'IN'
p1203
S'B-PP'
p1204
g5
tp1205
a(S'public'
p1206
S'public'
p1207
S'JJ'
p1208
S'B-NP'
p1209
g5
tp1210
a(S'high'
p1211
S'high'
p1212
S'JJ'
p1213
S'I-NP'
p1214
g5
tp1215
a(S'schools'
p1216
S'school'
p1217
S'NNS'
p1218
S'I-NP'
p1219
g5
tp1220
a(S'did'
p1221
S'do'
p1222
S'VBD'
p1223
S'B-VP'
p1224
g5
tp1225
a(S'not'
p1226
S'not'
p1227
S'RB'
p1228
S'I-VP'
p1229
g5
tp1230
a(S'reduce'
p1231
S'reduce'
p1232
S'VB'
p1233
S'I-VP'
p1234
g5
tp1235
a(S'risk'
p1236
S'risk'
p1237
S'NN'
p1238
S'B-NP'
p1239
g5
tp1240
a(S'behaviour'
p1241
S'behaviour'
p1242
S'NN'
p1243
S'I-NP'
p1244
g5
tp1245
a(g263
g263
g263
g5
g5
tp1246
a(S'so'
p1247
S'so'
p1248
S'RB'
p1249
g5
g5
tp1250
a(S'such'
p1251
S'such'
p1252
S'JJ'
p1253
S'B-NP'
p1254
g5
tp1255
a(S'courses'
p1256
S'course'
p1257
S'NNS'
p1258
S'I-NP'
p1259
g5
tp1260
a(S'need'
p1261
S'need'
p1262
S'VBP'
p1263
S'B-VP'
p1264
g5
tp1265
a(S'to'
p1266
S'to'
p1267
S'TO'
p1268
S'I-VP'
p1269
g5
tp1270
a(S'be'
p1271
S'be'
p1272
S'VB'
p1273
S'I-VP'
p1274
g5
tp1275
a(S'redesigned'
p1276
S'redesign'
p1277
S'VBN'
p1278
S'B-NP'
p1279
g5
tp1280
a(S'and'
p1281
S'and'
p1282
S'CC'
p1283
S'I-NP'
p1284
g5
tp1285
a(S'evaluated'
p1286
S'evaluate'
p1287
S'VBN'
p1288
S'I-NP'
p1289
g5
tp1290
a(g54
g54
g54
S'I-NP'
p1291
g5
tp1292
a(S'Addition'
p1293
S'Addition'
p1294
S'NN'
p1295
S'I-NP'
p1296
g5
tp1297
a(S'of'
p1298
S'of'
p1299
S'IN'
p1300
S'B-PP'
p1301
g5
tp1302
a(S'emergency'
p1303
S'emergency'
p1304
S'NN'
p1305
S'B-NP'
p1306
g5
tp1307
a(S'contraception'
p1308
S'contraception'
p1309
S'NN'
p1310
S'I-NP'
p1311
g5
tp1312
a(S'did'
p1313
S'do'
p1314
S'VBD'
p1315
S'B-VP'
p1316
g5
tp1317
a(S'not'
p1318
S'not'
p1319
S'RB'
p1320
S'I-VP'
p1321
g5
tp1322
a(S'decrease'
p1323
S'decrease'
p1324
S'VB'
p1325
S'I-VP'
p1326
g5
tp1327
a(S'reported'
p1328
S'report'
p1329
S'VBN'
p1330
S'I-VP'
p1331
g5
tp1332
a(S'condom'
p1333
S'condom'
p1334
S'JJ'
p1335
S'B-NP'
p1336
g5
tp1337
a(S'use'
p1338
S'use'
p1339
S'NN'
p1340
S'I-NP'
p1341
g5
tp1342
a(S'or'
p1343
S'or'
p1344
S'CC'
p1345
g5
g5
tp1346
a(S'increase'
p1347
S'increase'
p1348
S'VB'
p1349
S'B-VP'
p1350
g5
tp1351
a(S'risky'
p1352
S'risky'
p1353
S'JJ'
p1354
S'B-NP'
p1355
g5
tp1356
a(S'sexual'
p1357
S'sexual'
p1358
S'JJ'
p1359
S'I-NP'
p1360
g5
tp1361
a(S'behaviour'
p1362
S'behaviour'
p1363
S'NN'
p1364
S'I-NP'
p1365
g5
tp1366
a(S'but'
p1367
S'but'
p1368
S'CC'
p1369
g5
g5
tp1370
a(S'did'
p1371
S'do'
p1372
S'VBD'
p1373
S'B-VP'
p1374
g5
tp1375
a(S'increase'
p1376
S'increase'
p1377
S'VB'
p1378
S'I-VP'
p1379
g5
tp1380
a(S'reported'
p1381
S'report'
p1382
S'VBN'
p1383
S'I-VP'
p1384
g5
tp1385
a(S'use'
p1386
S'use'
p1387
S'NN'
p1388
S'B-NP'
p1389
g5
tp1390
a(S'of'
p1391
S'of'
p1392
S'IN'
p1393
S'B-PP'
p1394
g5
tp1395
a(S'emergency'
p1396
S'emergency'
p1397
S'NN'
p1398
S'B-NP'
p1399
g5
tp1400
a(S'contraception'
p1401
S'contraception'
p1402
S'NN'
p1403
S'I-NP'
p1404
g5
tp1405
a(g54
g54
g54
g5
g5
tp1406
a.