(lp0
(S'A'
p1
g1
S'DT'
p2
S'B-NP'
p3
S'O'
p4
tp5
a(S'randomised'
p6
S'randomise'
p7
S'VBN'
p8
S'I-NP'
p9
g4
tp10
a(S'controlled'
p11
S'control'
p12
S'VBN'
p13
S'I-NP'
p14
g4
tp15
a(S'trial'
p16
S'trial'
p17
S'NN'
p18
S'I-NP'
p19
g4
tp20
a(S'of'
p21
S'of'
p22
S'IN'
p23
S'B-PP'
p24
g4
tp25
a(S'management'
p26
S'management'
p27
S'NN'
p28
S'B-NP'
p29
g4
tp30
a(S'strategies'
p31
S'strategy'
p32
S'NNS'
p33
S'I-NP'
p34
g4
tp35
a(S'for'
p36
S'for'
p37
S'IN'
p38
S'B-PP'
p39
g4
tp40
a(S'acute'
p41
S'acute'
p42
S'JJ'
p43
S'B-NP'
p44
g4
tp45
a(S'infective'
p46
S'infective'
p47
S'JJ'
p48
S'I-NP'
p49
g4
tp50
a(S'conjunctivitis'
p51
S'conjunctivitis'
p52
S'NN'
p53
S'I-NP'
p54
g4
tp55
a(S'in'
p56
S'in'
p57
S'IN'
p58
S'B-PP'
p59
g4
tp60
a(S'general'
p61
S'general'
p62
S'JJ'
p63
S'B-NP'
p64
g4
tp65
a(S'practice'
p66
S'practice'
p67
S'NN'
p68
S'I-NP'
p69
g4
tp70
a(S'.'
p71
g71
g71
g4
g4
tp72
a(S'To'
p73
S'To'
p74
S'TO'
p75
S'B-VP'
p76
g4
tp77
a(S'assess'
p78
S'assess'
p79
S'VB'
p80
S'I-VP'
p81
g4
tp82
a(S'different'
p83
S'different'
p84
S'JJ'
p85
S'B-NP'
p86
g4
tp87
a(S'management'
p88
S'management'
p89
S'NN'
p90
S'I-NP'
p91
g4
tp92
a(S'strategies'
p93
S'strategy'
p94
S'NNS'
p95
S'I-NP'
p96
g4
tp97
a(S'for'
p98
S'for'
p99
S'IN'
p100
S'B-PP'
p101
g4
tp102
a(S'acute'
p103
S'acute'
p104
S'JJ'
p105
S'B-NP'
p106
g4
tp107
a(S'infective'
p108
S'infective'
p109
S'JJ'
p110
S'I-NP'
p111
g4
tp112
a(S'conjunctivitis'
p113
S'conjunctivitis'
p114
S'NN'
p115
S'I-NP'
p116
g4
tp117
a(g71
g71
g71
g4
g4
tp118
a(S'Open'
p119
S'Open'
p120
S'NNP'
p121
S'B-NP'
p122
g4
tp123
a(S','
p124
g124
g124
g4
g4
tp125
a(S'factorial'
p126
S'factorial'
p127
S'JJ'
p128
S'B-ADJP'
p129
g4
tp130
a(g124
g124
g124
g4
g4
tp131
a(S'randomised'
p132
S'randomise'
p133
S'VBD'
p134
S'B-VP'
p135
g4
tp136
a(S'controlled'
p137
S'control'
p138
S'VBN'
p139
S'B-NP'
p140
g4
tp141
a(S'trial'
p142
S'trial'
p143
S'NN'
p144
S'I-NP'
p145
g4
tp146
a(g71
g71
g71
g4
g4
tp147
a(S'30'
p148
S'30'
p149
S'CD'
p150
S'B-NP'
p151
g4
tp152
a(S'general'
p153
S'general'
p154
S'JJ'
p155
S'I-NP'
p156
g4
tp157
a(S'practices'
p158
S'practice'
p159
S'NNS'
p160
S'I-NP'
p161
g4
tp162
a(S'in'
p163
S'in'
p164
S'IN'
p165
S'B-PP'
p166
g4
tp167
a(S'southern'
p168
S'southern'
p169
S'JJ'
p170
S'B-NP'
p171
g4
tp172
a(S'England'
p173
S'England'
p174
S'NNP'
p175
S'I-NP'
p176
g4
tp177
a(g71
g71
g71
S'I-NP'
p178
g4
tp179
a(S'307'
p180
S'307'
p181
S'CD'
p182
S'I-NP'
p183
g4
tp184
a(S'adults'
p185
S'adult'
p186
S'NNS'
p187
S'I-NP'
p188
g4
tp189
a(S'and'
p190
S'and'
p191
S'CC'
p192
S'I-NP'
p193
g4
tp194
a(S'children'
p195
S'child'
p196
S'NNS'
p197
S'I-NP'
p198
g4
tp199
a(S'with'
p200
S'with'
p201
S'IN'
p202
S'B-PP'
p203
g4
tp204
a(S'acute'
p205
S'acute'
p206
S'JJ'
p207
S'B-NP'
p208
g4
tp209
a(S'infective'
p210
S'infective'
p211
S'JJ'
p212
S'I-NP'
p213
g4
tp214
a(S'conjunctivitis'
p215
S'conjunctivitis'
p216
S'NN'
p217
S'I-NP'
p218
g4
tp219
a(g71
g71
g71
g4
g4
tp220
a(S'1'
p221
g221
S'CD'
p222
S'B-NP'
p223
g4
tp224
a(S'of'
p225
S'of'
p226
S'IN'
p227
S'B-PP'
p228
g4
tp229
a(S'3'
p230
g230
S'CD'
p231
S'B-NP'
p232
g4
tp233
a(S'antibiotic'
p234
S'antibiotic'
p235
S'JJ'
p236
S'I-NP'
p237
g4
tp238
a(S'prescribing'
p239
S'prescribe'
p240
S'VBG'
p241
S'I-NP'
p242
g4
tp243
a(S'strategies'
p244
S'strategy'
p245
S'NNS'
p246
S'I-NP'
p247
g4
tp248
a(S'-'
p249
g249
S'HYPH'
p250
S'B-NP'
p251
g4
tp252
a(S'immediate'
p253
S'immediate'
p254
S'JJ'
p255
S'I-NP'
p256
g4
tp257
a(S'antibiotics'
p258
S'antibiotic'
p259
S'NNS'
p260
S'I-NP'
p261
g4
tp262
a(S'('
p263
g263
g263
g4
g4
tp264
a(S'chloramphenicol'
p265
S'chloramphenicol'
p266
S'NN'
p267
S'B-NP'
p268
g4
tp269
a(S'eye'
p270
S'eye'
p271
S'NN'
p272
S'I-NP'
p273
g4
tp274
a(S'drops'
p275
S'drop'
p276
S'VBZ'
p277
S'B-VP'
p278
g4
tp279
a(S';'
p280
g280
S':'
p281
g4
g4
tp282
a(S'n'
p283
g283
S'NN'
p284
S'B-NP'
p285
g4
tp286
a(S'='
p287
g287
S'SYM'
p288
S'B-VP'
p289
g4
tp290
a(S'104'
p291
S'104'
p292
S'CD'
p293
S'B-NP'
p294
g4
tp295
a(S')'
p296
g296
g296
g4
g4
tp297
a(g124
g124
g124
g4
g4
tp298
a(S'no'
p299
S'no'
p300
S'DT'
p301
S'B-NP'
p302
g4
tp303
a(S'antibiotics'
p304
S'antibiotic'
p305
S'NNS'
p306
S'I-NP'
p307
g4
tp308
a(g263
g263
g263
g4
g4
tp309
a(S'controls'
p310
S'control'
p311
S'NNS'
p312
S'B-NP'
p313
g4
tp314
a(g280
g280
g281
g4
g4
tp315
a(g283
g283
S'NN'
p316
S'B-NP'
p317
g4
tp318
a(g287
g287
S'SYM'
p319
S'B-VP'
p320
g4
tp321
a(S'94'
p322
S'94'
p323
S'CD'
p324
S'B-NP'
p325
g4
tp326
a(g296
g296
g296
g4
g4
tp327
a(g124
g124
g124
g4
g4
tp328
a(S'or'
p329
S'or'
p330
S'CC'
p331
g4
g4
tp332
a(S'delayed'
p333
S'delay'
p334
S'VBN'
p335
S'B-NP'
p336
g4
tp337
a(S'antibiotics'
p338
S'antibiotic'
p339
S'NNS'
p340
S'I-NP'
p341
g4
tp342
a(g263
g263
g263
g4
g4
tp343
a(g283
g283
S'NN'
p344
S'B-NP'
p345
g4
tp346
a(g287
g287
S'SYM'
p347
S'B-VP'
p348
g4
tp349
a(S'109'
p350
S'109'
p351
S'CD'
p352
S'B-NP'
p353
g4
tp354
a(g296
g296
g296
g4
g4
tp355
a(g280
g280
g281
g4
g4
tp356
a(S'a'
p357
g357
S'DT'
p358
S'B-NP'
p359
g4
tp360
a(S'patient'
p361
S'patient'
p362
S'NN'
p363
S'I-NP'
p364
g4
tp365
a(S'information'
p366
S'information'
p367
S'NN'
p368
S'I-NP'
p369
g4
tp370
a(S'leaflet'
p371
S'leaflet'
p372
S'NN'
p373
S'I-NP'
p374
g4
tp375
a(S'or'
p376
S'or'
p377
S'CC'
p378
g4
g4
tp379
a(S'not'
p380
S'not'
p381
S'RB'
p382
g4
g4
tp383
a(g280
g280
g281
g4
g4
tp384
a(S'and'
p385
S'and'
p386
S'CC'
p387
g4
g4
tp388
a(S'an'
p389
S'an'
p390
S'DT'
p391
S'B-NP'
p392
g4
tp393
a(S'eye'
p394
S'eye'
p395
S'NN'
p396
S'I-NP'
p397
g4
tp398
a(S'swab'
p399
S'swab'
p400
S'NN'
p401
S'I-NP'
p402
g4
tp403
a(S'or'
p404
S'or'
p405
S'CC'
p406
g4
g4
tp407
a(S'not'
p408
S'not'
p409
S'RB'
p410
g4
g4
tp411
a(g71
g71
g71
g4
g4
tp412
a(S'Severity'
p413
S'Severity'
p414
S'NN'
p415
S'B-NP'
p416
g4
tp417
a(S'of'
p418
S'of'
p419
S'IN'
p420
S'B-PP'
p421
g4
tp422
a(S'symptoms'
p423
S'symptom'
p424
S'NNS'
p425
S'B-NP'
p426
g4
tp427
a(S'on'
p428
S'on'
p429
S'IN'
p430
S'B-PP'
p431
g4
tp432
a(S'days'
p433
S'day'
p434
S'NNS'
p435
S'B-NP'
p436
g4
tp437
a(S'1-3'
p438
S'1-3'
p439
S'CD'
p440
S'B-NP'
p441
g4
tp442
a(S'after'
p443
S'after'
p444
S'IN'
p445
S'B-PP'
p446
g4
tp447
a(S'consultation'
p448
S'consultation'
p449
S'NN'
p450
S'B-NP'
p451
g4
tp452
a(g124
g124
g124
g4
g4
tp453
a(S'duration'
p454
S'duration'
p455
S'NN'
p456
S'B-NP'
p457
g4
tp458
a(S'of'
p459
S'of'
p460
S'IN'
p461
S'B-PP'
p462
g4
tp463
a(S'symptoms'
p464
S'symptom'
p465
S'NNS'
p466
S'B-NP'
p467
g4
tp468
a(g124
g124
g124
g4
g4
tp469
a(S'and'
p470
S'and'
p471
S'CC'
p472
g4
g4
tp473
a(S'belief'
p474
S'belief'
p475
S'NN'
p476
S'B-NP'
p477
g4
tp478
a(S'in'
p479
S'in'
p480
S'IN'
p481
S'B-PP'
p482
g4
tp483
a(S'the'
p484
S'the'
p485
S'DT'
p486
S'B-NP'
p487
g4
tp488
a(S'effectiveness'
p489
S'effectiveness'
p490
S'NN'
p491
S'I-NP'
p492
g4
tp493
a(S'of'
p494
S'of'
p495
S'IN'
p496
S'B-PP'
p497
g4
tp498
a(S'antibiotics'
p499
S'antibiotic'
p500
S'NNS'
p501
S'B-NP'
p502
g4
tp503
a(S'for'
p504
S'for'
p505
S'IN'
p506
S'B-PP'
p507
g4
tp508
a(S'eye'
p509
S'eye'
p510
S'NN'
p511
S'B-NP'
p512
g4
tp513
a(S'infections'
p514
S'infection'
p515
S'NNS'
p516
S'I-NP'
p517
g4
tp518
a(g71
g71
g71
g4
g4
tp519
a(S'Prescribing'
p520
S'Prescribe'
p521
S'VBG'
p522
S'B-NP'
p523
g4
tp524
a(S'strategies'
p525
S'strategy'
p526
S'NNS'
p527
S'I-NP'
p528
g4
tp529
a(S'did'
p530
S'do'
p531
S'VBD'
p532
S'B-VP'
p533
g4
tp534
a(S'not'
p535
S'not'
p536
S'RB'
p537
S'I-VP'
p538
g4
tp539
a(S'affect'
p540
S'affect'
p541
S'VB'
p542
S'I-VP'
p543
g4
tp544
a(S'the'
p545
S'the'
p546
S'DT'
p547
S'B-NP'
p548
g4
tp549
a(S'severity'
p550
S'severity'
p551
S'NN'
p552
S'I-NP'
p553
g4
tp554
a(S'of'
p555
S'of'
p556
S'IN'
p557
S'B-PP'
p558
g4
tp559
a(S'symptoms'
p560
S'symptom'
p561
S'NNS'
p562
S'B-NP'
p563
g4
tp564
a(S'but'
p565
S'but'
p566
S'CC'
p567
g4
g4
tp568
a(S'duration'
p569
S'duration'
p570
S'NN'
p571
S'B-NP'
p572
g4
tp573
a(S'of'
p574
S'of'
p575
S'IN'
p576
S'B-PP'
p577
g4
tp578
a(S'moderate'
p579
S'moderate'
p580
S'JJ'
p581
S'B-NP'
p582
g4
tp583
a(S'symptoms'
p584
S'symptom'
p585
S'NNS'
p586
S'I-NP'
p587
g4
tp588
a(S'was'
p589
S'be'
p590
S'VBD'
p591
S'B-VP'
p592
g4
tp593
a(S'less'
p594
S'less'
p595
S'JJR'
p596
S'B-ADJP'
p597
g4
tp598
a(S'with'
p599
S'with'
p600
S'IN'
p601
S'B-PP'
p602
g4
tp603
a(S'antibiotics'
p604
S'antibiotic'
p605
S'NNS'
p606
S'B-NP'
p607
g4
tp608
a(g281
g281
g281
g4
g4
tp609
a(S'no'
p610
S'no'
p611
S'DT'
p612
S'B-NP'
p613
g4
tp614
a(S'antibiotics'
p615
S'antibiotic'
p616
S'NNS'
p617
S'I-NP'
p618
g4
tp619
a(g263
g263
g263
g4
g4
tp620
a(S'controls'
p621
S'control'
p622
S'NNS'
p623
S'B-NP'
p624
g4
tp625
a(g296
g296
g296
g4
g4
tp626
a(S'4.8'
p627
S'4.8'
p628
S'CD'
p629
S'B-NP'
p630
g4
tp631
a(S'days'
p632
S'day'
p633
S'NNS'
p634
S'I-NP'
p635
g4
tp636
a(g124
g124
g124
g4
g4
tp637
a(S'immediate'
p638
S'immediate'
p639
S'JJ'
p640
S'B-NP'
p641
g4
tp642
a(S'antibiotics'
p643
S'antibiotic'
p644
S'NNS'
p645
S'I-NP'
p646
g4
tp647
a(S'3.3'
p648
S'3.3'
p649
S'CD'
p650
S'B-NP'
p651
g4
tp652
a(S'days'
p653
S'day'
p654
S'NNS'
p655
S'I-NP'
p656
g4
tp657
a(g263
g263
g263
g4
g4
tp658
a(S'risk'
p659
S'risk'
p660
S'NN'
p661
S'B-NP'
p662
g4
tp663
a(S'ratio'
p664
S'ratio'
p665
S'NN'
p666
S'I-NP'
p667
g4
tp668
a(S'0.7'
p669
S'0.7'
p670
S'CD'
p671
S'I-NP'
p672
g4
tp673
a(g124
g124
g124
g4
g4
tp674
a(S'95'
p675
S'95'
p676
S'CD'
p677
S'B-NP'
p678
g4
tp679
a(S'%'
p680
g680
S'NN'
p681
S'I-NP'
p682
g4
tp683
a(S'confidence'
p684
S'confidence'
p685
S'NN'
p686
S'I-NP'
p687
g4
tp688
a(S'interval'
p689
S'interval'
p690
S'NN'
p691
S'I-NP'
p692
g4
tp693
a(S'0.6'
p694
S'0.6'
p695
S'CD'
p696
S'B-NP'
p697
g4
tp698
a(S'to'
p699
S'to'
p700
S'TO'
p701
S'I-NP'
p702
g4
tp703
a(S'0.8'
p704
S'0.8'
p705
S'CD'
p706
S'I-NP'
p707
g4
tp708
a(g296
g296
g296
g4
g4
tp709
a(g124
g124
g124
g4
g4
tp710
a(S'delayed'
p711
S'delay'
p712
S'VBN'
p713
S'B-NP'
p714
g4
tp715
a(S'antibiotics'
p716
S'antibiotic'
p717
S'NNS'
p718
S'I-NP'
p719
g4
tp720
a(S'3.9'
p721
S'3.9'
p722
S'CD'
p723
S'B-NP'
p724
g4
tp725
a(S'days'
p726
S'day'
p727
S'NNS'
p728
S'I-NP'
p729
g4
tp730
a(g263
g263
g263
g4
g4
tp731
a(S'0.8'
p732
S'0.8'
p733
S'CD'
p734
S'B-NP'
p735
g4
tp736
a(g124
g124
g124
g4
g4
tp737
a(S'0.7'
p738
S'0.7'
p739
S'CD'
p740
S'B-NP'
p741
g4
tp742
a(S'to'
p743
S'to'
p744
S'TO'
p745
S'B-PP'
p746
g4
tp747
a(S'0.9'
p748
S'0.9'
p749
S'CD'
p750
S'B-NP'
p751
g4
tp752
a(g296
g296
g296
g4
g4
tp753
a(g71
g71
g71
g4
g4
tp754
a(S'Compared'
p755
S'Compare'
p756
S'VBN'
p757
S'B-VP'
p758
g4
tp759
a(S'with'
p760
S'with'
p761
S'IN'
p762
S'B-PP'
p763
g4
tp764
a(S'no'
p765
S'no'
p766
S'DT'
p767
S'B-NP'
p768
g4
tp769
a(S'initial'
p770
S'initial'
p771
S'JJ'
p772
S'I-NP'
p773
g4
tp774
a(S'offer'
p775
S'offer'
p776
S'NN'
p777
S'I-NP'
p778
g4
tp779
a(S'of'
p780
S'of'
p781
S'IN'
p782
S'B-PP'
p783
g4
tp784
a(S'antibiotics'
p785
S'antibiotic'
p786
S'NNS'
p787
S'B-NP'
p788
g4
tp789
a(g124
g124
g124
g4
g4
tp790
a(S'antibiotic'
p791
S'antibiotic'
p792
S'JJ'
p793
S'B-NP'
p794
g4
tp795
a(S'use'
p796
S'use'
p797
S'NN'
p798
S'I-NP'
p799
g4
tp800
a(S'was'
p801
S'be'
p802
S'VBD'
p803
S'B-VP'
p804
g4
tp805
a(S'higher'
p806
S'high'
p807
S'JJR'
p808
S'B-ADJP'
p809
g4
tp810
a(S'in'
p811
S'in'
p812
S'IN'
p813
S'B-PP'
p814
g4
tp815
a(S'the'
p816
S'the'
p817
S'DT'
p818
S'B-NP'
p819
g4
tp820
a(S'immediate'
p821
S'immediate'
p822
S'JJ'
p823
S'I-NP'
p824
g4
tp825
a(S'antibiotic'
p826
S'antibiotic'
p827
S'JJ'
p828
S'I-NP'
p829
g4
tp830
a(S'group'
p831
S'group'
p832
S'NN'
p833
S'I-NP'
p834
g4
tp835
a(g281
g281
g281
g4
g4
tp836
a(S'controls'
p837
S'control'
p838
S'VBZ'
p839
S'B-VP'
p840
g4
tp841
a(S'30'
p842
S'30'
p843
S'CD'
p844
S'B-NP'
p845
g4
tp846
a(g680
g680
S'NN'
p847
S'I-NP'
p848
g4
tp849
a(g124
g124
g124
g4
g4
tp850
a(S'immediate'
p851
S'immediate'
p852
S'JJ'
p853
S'B-NP'
p854
g4
tp855
a(S'antibiotics'
p856
S'antibiotic'
p857
S'NNS'
p858
S'I-NP'
p859
g4
tp860
a(S'99'
p861
S'99'
p862
S'CD'
p863
S'B-NP'
p864
g4
tp865
a(g680
g680
S'NN'
p866
S'I-NP'
p867
g4
tp868
a(g263
g263
g263
g4
g4
tp869
a(S'odds'
p870
S'odd'
p871
S'NNS'
p872
S'B-NP'
p873
g4
tp874
a(S'ratio'
p875
S'ratio'
p876
S'NN'
p877
S'B-NP'
p878
g4
tp879
a(S'185.4'
p880
S'185.4'
p881
S'CD'
p882
S'I-NP'
p883
g4
tp884
a(g124
g124
g124
g4
g4
tp885
a(S'23.9'
p886
S'23.9'
p887
S'CD'
p888
S'B-NP'
p889
g4
tp890
a(S'to'
p891
S'to'
p892
S'TO'
p893
S'B-PP'
p894
g4
tp895
a(S'1439.2'
p896
S'1439.2'
p897
S'CD'
p898
S'B-NP'
p899
g4
tp900
a(g296
g296
g296
g4
g4
tp901
a(g124
g124
g124
g4
g4
tp902
a(S'delayed'
p903
S'delay'
p904
S'VBN'
p905
S'B-NP'
p906
g4
tp907
a(S'antibiotics'
p908
S'antibiotic'
p909
S'NNS'
p910
S'I-NP'
p911
g4
tp912
a(S'53'
p913
S'53'
p914
S'CD'
p915
S'B-NP'
p916
g4
tp917
a(g680
g680
S'NN'
p918
S'I-NP'
p919
g4
tp920
a(g263
g263
g263
g4
g4
tp921
a(S'2.9'
p922
S'2.9'
p923
S'CD'
p924
S'B-NP'
p925
g4
tp926
a(g124
g124
g124
g4
g4
tp927
a(S'1.4'
p928
S'1.4'
p929
S'CD'
p930
S'B-NP'
p931
g4
tp932
a(S'to'
p933
S'to'
p934
S'TO'
p935
S'B-PP'
p936
g4
tp937
a(S'5.7'
p938
S'5.7'
p939
S'CD'
p940
S'B-NP'
p941
g4
tp942
a(g296
g296
g296
g4
g4
tp943
a(g124
g124
g124
g4
g4
tp944
a(S'as'
p945
S'as'
p946
S'IN'
p947
S'B-SBAR'
p948
g4
tp949
a(S'was'
p950
S'be'
p951
S'VBD'
p952
S'B-VP'
p953
g4
tp954
a(S'belief'
p955
S'belief'
p956
S'NN'
p957
S'B-NP'
p958
g4
tp959
a(S'in'
p960
S'in'
p961
S'IN'
p962
S'B-PP'
p963
g4
tp964
a(S'the'
p965
S'the'
p966
S'DT'
p967
S'B-NP'
p968
g4
tp969
a(S'effectiveness'
p970
S'effectiveness'
p971
S'NN'
p972
S'I-NP'
p973
g4
tp974
a(S'of'
p975
S'of'
p976
S'IN'
p977
S'B-PP'
p978
g4
tp979
a(S'antibiotics'
p980
S'antibiotic'
p981
S'NNS'
p982
S'B-NP'
p983
g4
tp984
a(g281
g281
g281
g4
g4
tp985
a(S'controls'
p986
S'control'
p987
S'NNS'
p988
S'B-NP'
p989
g4
tp990
a(S'47'
p991
S'47'
p992
S'CD'
p993
S'B-NP'
p994
g4
tp995
a(g680
g680
S'NN'
p996
S'I-NP'
p997
g4
tp998
a(g124
g124
g124
g4
g4
tp999
a(S'immediate'
p1000
S'immediate'
p1001
S'JJ'
p1002
S'B-NP'
p1003
g4
tp1004
a(S'antibiotics'
p1005
S'antibiotic'
p1006
S'NNS'
p1007
S'I-NP'
p1008
g4
tp1009
a(S'67'
p1010
S'67'
p1011
S'CD'
p1012
S'B-NP'
p1013
g4
tp1014
a(g680
g680
S'NN'
p1015
S'I-NP'
p1016
g4
tp1017
a(g263
g263
g263
g4
g4
tp1018
a(S'odds'
p1019
S'odd'
p1020
S'NNS'
p1021
S'B-NP'
p1022
g4
tp1023
a(S'ratio'
p1024
S'ratio'
p1025
S'NN'
p1026
S'B-NP'
p1027
g4
tp1028
a(S'2.4'
p1029
S'2.4'
p1030
S'CD'
p1031
S'I-NP'
p1032
g4
tp1033
a(g124
g124
g124
g4
g4
tp1034
a(S'1.1'
p1035
S'1.1'
p1036
S'CD'
p1037
S'B-NP'
p1038
g4
tp1039
a(S'to'
p1040
S'to'
p1041
S'TO'
p1042
S'B-PP'
p1043
g4
tp1044
a(S'5.0'
p1045
S'5.0'
p1046
S'CD'
p1047
S'B-NP'
p1048
g4
tp1049
a(g296
g296
g296
g4
g4
tp1050
a(g124
g124
g124
g4
g4
tp1051
a(S'delayed'
p1052
S'delay'
p1053
S'VBN'
p1054
S'B-NP'
p1055
g4
tp1056
a(S'antibiotics'
p1057
S'antibiotic'
p1058
S'NNS'
p1059
S'I-NP'
p1060
g4
tp1061
a(S'55'
p1062
S'55'
p1063
S'CD'
p1064
S'B-NP'
p1065
g4
tp1066
a(g680
g680
S'NN'
p1067
S'I-NP'
p1068
g4
tp1069
a(g263
g263
g263
g4
g4
tp1070
a(S'1.4'
p1071
S'1.4'
p1072
S'CD'
p1073
S'B-NP'
p1074
g4
tp1075
a(g124
g124
g124
g4
g4
tp1076
a(S'0.7'
p1077
S'0.7'
p1078
S'CD'
p1079
S'B-NP'
p1080
g4
tp1081
a(S'to'
p1082
S'to'
p1083
S'TO'
p1084
S'B-PP'
p1085
g4
tp1086
a(S'3.0'
p1087
S'3.0'
p1088
S'CD'
p1089
S'B-NP'
p1090
g4
tp1091
a(g296
g296
g296
g4
g4
tp1092
a(g124
g124
g124
g4
g4
tp1093
a(S'and'
p1094
S'and'
p1095
S'CC'
p1096
g4
g4
tp1097
a(S'intention'
p1098
S'intention'
p1099
S'NN'
p1100
S'B-NP'
p1101
g4
tp1102
a(S'to'
p1103
S'to'
p1104
S'TO'
p1105
S'B-VP'
p1106
g4
tp1107
a(S'reattend'
p1108
S'reattend'
p1109
S'VB'
p1110
S'I-VP'
p1111
g4
tp1112
a(S'for'
p1113
S'for'
p1114
S'IN'
p1115
S'B-PP'
p1116
g4
tp1117
a(S'eye'
p1118
S'eye'
p1119
S'NN'
p1120
S'B-NP'
p1121
g4
tp1122
a(S'infections'
p1123
S'infection'
p1124
S'NNS'
p1125
S'I-NP'
p1126
g4
tp1127
a(g281
g281
g281
g4
g4
tp1128
a(S'controls'
p1129
S'control'
p1130
S'NNS'
p1131
S'B-NP'
p1132
g4
tp1133
a(S'40'
p1134
S'40'
p1135
S'CD'
p1136
S'B-NP'
p1137
g4
tp1138
a(g680
g680
S'NN'
p1139
S'I-NP'
p1140
g4
tp1141
a(g124
g124
g124
g4
g4
tp1142
a(S'immediate'
p1143
S'immediate'
p1144
S'JJ'
p1145
S'B-NP'
p1146
g4
tp1147
a(S'antibiotics'
p1148
S'antibiotic'
p1149
S'NNS'
p1150
S'I-NP'
p1151
g4
tp1152
a(S'68'
p1153
S'68'
p1154
S'CD'
p1155
S'B-NP'
p1156
g4
tp1157
a(g680
g680
S'NN'
p1158
S'I-NP'
p1159
g4
tp1160
a(g263
g263
g263
g4
g4
tp1161
a(S'3.2'
p1162
S'3.2'
p1163
S'CD'
p1164
S'B-NP'
p1165
g4
tp1166
a(g124
g124
g124
g4
g4
tp1167
a(S'1.6'
p1168
S'1.6'
p1169
S'CD'
p1170
S'B-NP'
p1171
g4
tp1172
a(S'to'
p1173
S'to'
p1174
S'TO'
p1175
S'B-PP'
p1176
g4
tp1177
a(S'6.4'
p1178
S'6.4'
p1179
S'CD'
p1180
S'B-NP'
p1181
g4
tp1182
a(g296
g296
g296
g4
g4
tp1183
a(g124
g124
g124
g4
g4
tp1184
a(S'delayed'
p1185
S'delay'
p1186
S'VBN'
p1187
S'B-NP'
p1188
g4
tp1189
a(S'antibiotics'
p1190
S'antibiotic'
p1191
S'NNS'
p1192
S'I-NP'
p1193
g4
tp1194
a(S'41'
p1195
S'41'
p1196
S'CD'
p1197
S'B-NP'
p1198
g4
tp1199
a(g680
g680
S'NN'
p1200
S'I-NP'
p1201
g4
tp1202
a(g263
g263
g263
g4
g4
tp1203
a(S'1.0'
p1204
S'1.0'
p1205
S'CD'
p1206
S'B-NP'
p1207
g4
tp1208
a(g124
g124
g124
g4
g4
tp1209
a(S'0.5'
p1210
S'0.5'
p1211
S'CD'
p1212
S'B-NP'
p1213
g4
tp1214
a(S'to'
p1215
S'to'
p1216
S'TO'
p1217
S'B-PP'
p1218
g4
tp1219
a(S'2.0'
p1220
S'2.0'
p1221
S'CD'
p1222
S'B-NP'
p1223
g4
tp1224
a(g296
g296
g296
g4
g4
tp1225
a(g71
g71
g71
g4
g4
tp1226
a(g1
g1
S'DT'
p1227
S'B-NP'
p1228
g4
tp1229
a(S'patient'
p1230
S'patient'
p1231
S'JJ'
p1232
S'I-NP'
p1233
g4
tp1234
a(S'information'
p1235
S'information'
p1236
S'NN'
p1237
S'I-NP'
p1238
g4
tp1239
a(S'leaflet'
p1240
S'leaflet'
p1241
S'NN'
p1242
S'I-NP'
p1243
g4
tp1244
a(S'or'
p1245
S'or'
p1246
S'CC'
p1247
g4
g4
tp1248
a(S'eye'
p1249
S'eye'
p1250
S'NN'
p1251
S'B-NP'
p1252
g4
tp1253
a(S'swab'
p1254
S'swab'
p1255
S'NN'
p1256
S'I-NP'
p1257
g4
tp1258
a(S'had'
p1259
S'have'
p1260
S'VBD'
p1261
S'B-VP'
p1262
g4
tp1263
a(S'no'
p1264
S'no'
p1265
S'DT'
p1266
S'B-NP'
p1267
g4
tp1268
a(S'effect'
p1269
S'effect'
p1270
S'NN'
p1271
S'I-NP'
p1272
g4
tp1273
a(S'on'
p1274
S'on'
p1275
S'IN'
p1276
S'B-PP'
p1277
g4
tp1278
a(S'the'
p1279
S'the'
p1280
S'DT'
p1281
S'B-NP'
p1282
g4
tp1283
a(S'main'
p1284
S'main'
p1285
S'JJ'
p1286
S'I-NP'
p1287
g4
tp1288
a(S'outcomes'
p1289
S'outcome'
p1290
S'NNS'
p1291
S'I-NP'
p1292
g4
tp1293
a(g71
g71
g71
g4
g4
tp1294
a(S'Reattendance'
p1295
S'Reattendance'
p1296
S'NNP'
p1297
g4
g4
tp1298
a(S'within'
p1299
S'within'
p1300
S'IN'
p1301
S'B-PP'
p1302
g4
tp1303
a(S'2'
p1304
g1304
S'CD'
p1305
S'B-NP'
p1306
g4
tp1307
a(S'weeks'
p1308
S'week'
p1309
S'NNS'
p1310
S'I-NP'
p1311
g4
tp1312
a(S'was'
p1313
S'be'
p1314
S'VBD'
p1315
S'B-VP'
p1316
g4
tp1317
a(S'less'
p1318
S'less'
p1319
S'RBR'
p1320
S'B-ADVP'
p1321
g4
tp1322
a(S'in'
p1323
S'in'
p1324
S'IN'
p1325
S'B-PP'
p1326
g4
tp1327
a(S'the'
p1328
S'the'
p1329
S'DT'
p1330
S'B-NP'
p1331
g4
tp1332
a(S'delayed'
p1333
S'delay'
p1334
S'VBN'
p1335
S'I-NP'
p1336
g4
tp1337
a(S'compared'
p1338
S'compare'
p1339
S'VBN'
p1340
S'B-PP'
p1341
g4
tp1342
a(S'with'
p1343
S'with'
p1344
S'IN'
p1345
S'B-PP'
p1346
g4
tp1347
a(S'immediate'
p1348
S'immediate'
p1349
S'JJ'
p1350
S'B-NP'
p1351
g4
tp1352
a(S'antibiotic'
p1353
S'antibiotic'
p1354
S'JJ'
p1355
S'I-NP'
p1356
g4
tp1357
a(S'group'
p1358
S'group'
p1359
S'NN'
p1360
S'I-NP'
p1361
g4
tp1362
a(g281
g281
g281
g4
g4
tp1363
a(S'0.3'
p1364
S'0.3'
p1365
S'CD'
p1366
S'B-NP'
p1367
g4
tp1368
a(g263
g263
g263
g4
g4
tp1369
a(S'0.1'
p1370
S'0.1'
p1371
S'CD'
p1372
S'B-NP'
p1373
g4
tp1374
a(S'to'
p1375
S'to'
p1376
S'TO'
p1377
g4
g4
tp1378
a(S'1.0'
p1379
S'1.0'
p1380
S'CD'
p1381
g4
g4
tp1382
a(g296
g296
g296
g4
g4
tp1383
a(S'v'
p1384
g1384
S'NN'
p1385
S'B-NP'
p1386
g4
tp1387
a(S'0.7'
p1388
S'0.7'
p1389
S'CD'
p1390
S'I-NP'
p1391
g4
tp1392
a(g263
g263
g263
g4
g4
tp1393
a(S'0.3'
p1394
S'0.3'
p1395
S'CD'
p1396
S'B-NP'
p1397
g4
tp1398
a(S'to'
p1399
S'to'
p1400
S'TO'
p1401
g4
g4
tp1402
a(S'1.6'
p1403
S'1.6'
p1404
S'CD'
p1405
S'B-NP'
p1406
g4
tp1407
a(g296
g296
g296
g4
g4
tp1408
a(g71
g71
g71
g4
g4
tp1409
a(S'Delayed'
p1410
S'Delay'
p1411
S'VBN'
p1412
S'B-VP'
p1413
g4
tp1414
a(S'prescribing'
p1415
S'prescribe'
p1416
S'VBG'
p1417
S'B-NP'
p1418
g4
tp1419
a(S'of'
p1420
S'of'
p1421
S'IN'
p1422
S'B-PP'
p1423
g4
tp1424
a(S'antibiotics'
p1425
S'antibiotic'
p1426
S'NNS'
p1427
S'B-NP'
p1428
g4
tp1429
a(S'is'
p1430
S'be'
p1431
S'VBZ'
p1432
S'B-VP'
p1433
g4
tp1434
a(S'probably'
p1435
S'probably'
p1436
S'RB'
p1437
S'B-ADVP'
p1438
g4
tp1439
a(S'the'
p1440
S'the'
p1441
S'DT'
p1442
S'B-NP'
p1443
g4
tp1444
a(S'most'
p1445
S'most'
p1446
S'RBS'
p1447
S'I-NP'
p1448
g4
tp1449
a(S'appropriate'
p1450
S'appropriate'
p1451
S'JJ'
p1452
S'I-NP'
p1453
g4
tp1454
a(S'strategy'
p1455
S'strategy'
p1456
S'NN'
p1457
S'I-NP'
p1458
g4
tp1459
a(S'for'
p1460
S'for'
p1461
S'IN'
p1462
S'B-PP'
p1463
g4
tp1464
a(S'managing'
p1465
S'manage'
p1466
S'VBG'
p1467
S'B-VP'
p1468
g4
tp1469
a(S'acute'
p1470
S'acute'
p1471
S'JJ'
p1472
S'B-NP'
p1473
g4
tp1474
a(S'conjunctivitis'
p1475
S'conjunctivitis'
p1476
S'NN'
p1477
S'I-NP'
p1478
g4
tp1479
a(S'in'
p1480
S'in'
p1481
S'IN'
p1482
S'B-PP'
p1483
g4
tp1484
a(S'primary'
p1485
S'primary'
p1486
S'JJ'
p1487
S'B-NP'
p1488
g4
tp1489
a(S'care'
p1490
S'care'
p1491
S'NN'
p1492
S'I-NP'
p1493
g4
tp1494
a(g71
g71
g71
g4
g4
tp1495
a(S'It'
p1496
S'It'
p1497
S'PRP'
p1498
S'B-NP'
p1499
g4
tp1500
a(S'reduces'
p1501
S'reduce'
p1502
S'VBZ'
p1503
S'B-VP'
p1504
g4
tp1505
a(S'antibiotic'
p1506
S'antibiotic'
p1507
S'JJ'
p1508
S'B-NP'
p1509
g4
tp1510
a(S'use'
p1511
S'use'
p1512
S'NN'
p1513
S'I-NP'
p1514
g4
tp1515
a(g124
g124
g124
g4
g4
tp1516
a(S'shows'
p1517
S'show'
p1518
S'VBZ'
p1519
S'B-VP'
p1520
g4
tp1521
a(S'no'
p1522
S'no'
p1523
S'DT'
p1524
S'B-NP'
p1525
g4
tp1526
a(S'evidence'
p1527
S'evidence'
p1528
S'NN'
p1529
S'I-NP'
p1530
g4
tp1531
a(S'of'
p1532
S'of'
p1533
S'IN'
p1534
S'B-PP'
p1535
g4
tp1536
a(S'medicalisation'
p1537
S'medicalisation'
p1538
S'NN'
p1539
S'B-NP'
p1540
g4
tp1541
a(g124
g124
g124
g4
g4
tp1542
a(S'provides'
p1543
S'provide'
p1544
S'VBZ'
p1545
S'B-VP'
p1546
g4
tp1547
a(S'similar'
p1548
S'similar'
p1549
S'JJ'
p1550
S'B-NP'
p1551
g4
tp1552
a(S'duration'
p1553
S'duration'
p1554
S'NN'
p1555
S'I-NP'
p1556
g4
tp1557
a(S'and'
p1558
S'and'
p1559
S'CC'
p1560
S'I-NP'
p1561
g4
tp1562
a(S'severity'
p1563
S'severity'
p1564
S'NN'
p1565
S'I-NP'
p1566
g4
tp1567
a(S'of'
p1568
S'of'
p1569
S'IN'
p1570
S'B-PP'
p1571
g4
tp1572
a(S'symptoms'
p1573
S'symptom'
p1574
S'NNS'
p1575
S'B-NP'
p1576
g4
tp1577
a(S'to'
p1578
S'to'
p1579
S'TO'
p1580
S'B-PP'
p1581
g4
tp1582
a(S'immediate'
p1583
S'immediate'
p1584
S'JJ'
p1585
S'B-NP'
p1586
g4
tp1587
a(S'prescribing'
p1588
S'prescribing'
p1589
S'NN'
p1590
S'I-NP'
p1591
g4
tp1592
a(g124
g124
g124
g4
g4
tp1593
a(S'and'
p1594
S'and'
p1595
S'CC'
p1596
g4
g4
tp1597
a(S'reduces'
p1598
S'reduce'
p1599
S'VBZ'
p1600
S'B-VP'
p1601
g4
tp1602
a(S'reattendance'
p1603
S'reattendance'
p1604
S'NN'
p1605
S'B-NP'
p1606
g4
tp1607
a(S'for'
p1608
S'for'
p1609
S'IN'
p1610
S'B-PP'
p1611
g4
tp1612
a(S'eye'
p1613
S'eye'
p1614
S'NN'
p1615
S'B-NP'
p1616
g4
tp1617
a(S'infections'
p1618
S'infection'
p1619
S'NNS'
p1620
S'I-NP'
p1621
g4
tp1622
a(g71
g71
g71
g4
g4
tp1623
a(S'Current'
p1624
S'Current'
p1625
S'NNP'
p1626
S'B-NP'
p1627
g4
tp1628
a(S'Controlled'
p1629
S'Controlled'
p1630
S'NNP'
p1631
S'I-NP'
p1632
g4
tp1633
a(S'Trials'
p1634
S'Trial'
p1635
S'NNPS'
p1636
S'I-NP'
p1637
g4
tp1638
a(S'ISRCTN32956955'
p1639
S'ISRCTN32956955'
p1640
S'NNP'
p1641
S'I-NP'
p1642
g4
tp1643
a(S'['
p1644
g1644
g263
g4
g4
tp1645
a(S'controlled'
p1646
S'control'
p1647
S'VBN'
p1648
S'B-VP'
p1649
g4
tp1650
a(g249
g249
S'HYPH'
p1651
S'B-NP'
p1652
g4
tp1653
a(S'trials'
p1654
S'trial'
p1655
S'NNS'
p1656
S'I-NP'
p1657
g4
tp1658
a(S'.com'
p1659
S'.com'
p1660
S'VBP'
p1661
S'B-VP'
p1662
g4
tp1663
a(S']'
p1664
g1664
g296
g4
g4
tp1665
a(g71
g71
g71
g4
g4
tp1666
a.