(lp0
(S'Effectiveness'
p1
S'Effectiveness'
p2
S'NN'
p3
S'B-NP'
p4
S'O'
p5
tp6
a(S'of'
p7
S'of'
p8
S'IN'
p9
S'B-PP'
p10
g5
tp11
a(S'telephone'
p12
S'telephone'
p13
S'NN'
p14
S'B-NP'
p15
g5
tp16
a(S'counselling'
p17
S'counselling'
p18
S'NN'
p19
S'I-NP'
p20
g5
tp21
a(S'by'
p22
S'by'
p23
S'IN'
p24
S'B-PP'
p25
g5
tp26
a(S'a'
p27
g27
S'DT'
p28
S'B-NP'
p29
g5
tp30
a(S'pharmacist'
p31
S'pharmacist'
p32
S'NN'
p33
S'I-NP'
p34
g5
tp35
a(S'in'
p36
S'in'
p37
S'IN'
p38
S'B-PP'
p39
g5
tp40
a(S'reducing'
p41
S'reduce'
p42
S'VBG'
p43
S'B-VP'
p44
g5
tp45
a(S'mortality'
p46
S'mortality'
p47
S'NN'
p48
S'B-NP'
p49
g5
tp50
a(S'in'
p51
S'in'
p52
S'IN'
p53
S'B-PP'
p54
g5
tp55
a(S'patients'
p56
S'patient'
p57
S'NNS'
p58
S'B-NP'
p59
g5
tp60
a(S'receiving'
p61
S'receive'
p62
S'VBG'
p63
S'B-VP'
p64
g5
tp65
a(S'polypharmacy'
p66
S'polypharmacy'
p67
S'NN'
p68
S'B-NP'
p69
g5
tp70
a(S':'
p71
g71
g71
g5
g5
tp72
a(S'randomised'
p73
S'randomise'
p74
S'VBN'
p75
S'B-VP'
p76
g5
tp77
a(S'controlled'
p78
S'control'
p79
S'VBN'
p80
S'B-NP'
p81
g5
tp82
a(S'trial'
p83
S'trial'
p84
S'NN'
p85
S'I-NP'
p86
g5
tp87
a(S'.'
p88
g88
g88
g5
g5
tp89
a(S'To'
p90
S'To'
p91
S'TO'
p92
S'B-VP'
p93
g5
tp94
a(S'investigate'
p95
S'investigate'
p96
S'VB'
p97
S'I-VP'
p98
g5
tp99
a(S'the'
p100
S'the'
p101
S'DT'
p102
S'B-NP'
p103
g5
tp104
a(S'effects'
p105
S'effect'
p106
S'NNS'
p107
S'I-NP'
p108
g5
tp109
a(S'of'
p110
S'of'
p111
S'IN'
p112
S'B-PP'
p113
g5
tp114
a(S'compliance'
p115
S'compliance'
p116
S'NN'
p117
S'B-NP'
p118
g5
tp119
a(S'and'
p120
S'and'
p121
S'CC'
p122
g5
g5
tp123
a(S'periodic'
p124
S'periodic'
p125
S'JJ'
p126
S'B-NP'
p127
g5
tp128
a(S'telephone'
p129
S'telephone'
p130
S'NN'
p131
S'I-NP'
p132
g5
tp133
a(S'counselling'
p134
S'counselling'
p135
S'NN'
p136
S'I-NP'
p137
g5
tp138
a(S'by'
p139
S'by'
p140
S'IN'
p141
S'B-PP'
p142
g5
tp143
a(g27
g27
S'DT'
p144
S'B-NP'
p145
g5
tp146
a(S'pharmacist'
p147
S'pharmacist'
p148
S'NN'
p149
S'I-NP'
p150
g5
tp151
a(S'on'
p152
S'on'
p153
S'IN'
p154
S'B-PP'
p155
g5
tp156
a(S'mortality'
p157
S'mortality'
p158
S'NN'
p159
S'B-NP'
p160
g5
tp161
a(S'in'
p162
S'in'
p163
S'IN'
p164
S'B-PP'
p165
g5
tp166
a(S'patients'
p167
S'patient'
p168
S'NNS'
p169
S'B-NP'
p170
g5
tp171
a(S'receiving'
p172
S'receive'
p173
S'VBG'
p174
S'B-VP'
p175
g5
tp176
a(S'polypharmacy'
p177
S'polypharmacy'
p178
S'NN'
p179
S'B-NP'
p180
g5
tp181
a(g88
g88
g88
g5
g5
tp182
a(S'2'
p183
g183
S'CD'
p184
S'B-NP'
p185
g5
tp186
a(S'year'
p187
S'year'
p188
S'NN'
p189
S'I-NP'
p190
g5
tp191
a(S'randomised'
p192
S'randomise'
p193
S'VBD'
p194
S'B-VP'
p195
g5
tp196
a(S'controlled'
p197
S'control'
p198
S'VBN'
p199
S'B-NP'
p200
g5
tp201
a(S'trial'
p202
S'trial'
p203
S'NN'
p204
S'I-NP'
p205
g5
tp206
a(g88
g88
g88
S'I-NP'
p207
g5
tp208
a(S'Hospital'
p209
S'Hospital'
p210
S'NN'
p211
S'I-NP'
p212
g5
tp213
a(S'medical'
p214
S'medical'
p215
S'JJ'
p216
S'I-NP'
p217
g5
tp218
a(S'clinic'
p219
S'clinic'
p220
S'NN'
p221
S'I-NP'
p222
g5
tp223
a(g88
g88
g88
g5
g5
tp224
a(S'502'
p225
S'502'
p226
S'CD'
p227
S'B-NP'
p228
g5
tp229
a(S'of'
p230
S'of'
p231
S'IN'
p232
S'B-PP'
p233
g5
tp234
a(S'1011'
p235
S'1011'
p236
S'CD'
p237
S'B-NP'
p238
g5
tp239
a(S'patients'
p240
S'patient'
p241
S'NNS'
p242
S'I-NP'
p243
g5
tp244
a(S'receiving'
p245
S'receive'
p246
S'VBG'
p247
S'B-VP'
p248
g5
tp249
a(S'5'
p250
g250
S'CD'
p251
S'B-NP'
p252
g5
tp253
a(S'or'
p254
S'or'
p255
S'CC'
p256
S'I-NP'
p257
g5
tp258
a(S'more'
p259
S'more'
p260
S'JJR'
p261
S'I-NP'
p262
g5
tp263
a(S'drugs'
p264
S'drug'
p265
S'NNS'
p266
S'I-NP'
p267
g5
tp268
a(S'for'
p269
S'for'
p270
S'IN'
p271
S'B-PP'
p272
g5
tp273
a(S'chronic'
p274
S'chronic'
p275
S'JJ'
p276
S'B-NP'
p277
g5
tp278
a(S'disease'
p279
S'disease'
p280
S'NN'
p281
S'I-NP'
p282
g5
tp283
a(S'found'
p284
S'find'
p285
S'VBN'
p286
S'B-VP'
p287
g5
tp288
a(S'to'
p289
S'to'
p290
S'TO'
p291
S'I-VP'
p292
g5
tp293
a(S'be'
p294
S'be'
p295
S'VB'
p296
S'I-VP'
p297
g5
tp298
a(S'non'
p299
S'non'
p300
S'AFX'
p301
S'B-ADJP'
p302
g5
tp303
a(S'-'
p304
g304
S'HYPH'
p305
S'I-ADJP'
p306
g5
tp307
a(S'compliant'
p308
S'compliant'
p309
S'JJ'
p310
S'B-ADJP'
p311
g5
tp312
a(S'at'
p313
S'at'
p314
S'IN'
p315
S'B-PP'
p316
g5
tp317
a(S'the'
p318
S'the'
p319
S'DT'
p320
S'B-NP'
p321
g5
tp322
a(S'screening'
p323
S'screening'
p324
S'NN'
p325
S'I-NP'
p326
g5
tp327
a(S'visit'
p328
S'visit'
p329
S'NN'
p330
S'I-NP'
p331
g5
tp332
a(S'were'
p333
S'be'
p334
S'VBD'
p335
S'B-VP'
p336
g5
tp337
a(S'invited'
p338
S'invite'
p339
S'VBN'
p340
S'I-VP'
p341
g5
tp342
a(S'for'
p343
S'for'
p344
S'IN'
p345
S'B-PP'
p346
g5
tp347
a(S'randomisation'
p348
S'randomisation'
p349
S'NN'
p350
S'B-NP'
p351
g5
tp352
a(S'to'
p353
S'to'
p354
S'TO'
p355
S'B-PP'
p356
g5
tp357
a(S'either'
p358
S'either'
p359
S'CC'
p360
g5
g5
tp361
a(S'the'
p362
S'the'
p363
S'DT'
p364
S'B-NP'
p365
g5
tp366
a(S'telephone'
p367
S'telephone'
p368
S'NN'
p369
S'I-NP'
p370
g5
tp371
a(S'counselling'
p372
S'counselling'
p373
S'NN'
p374
S'I-NP'
p375
g5
tp376
a(S'group'
p377
S'group'
p378
S'NN'
p379
S'I-NP'
p380
g5
tp381
a(S'('
p382
g382
g382
g5
g5
tp383
a(S'n'
p384
g384
S'NN'
p385
S'B-NP'
p386
g5
tp387
a(S'='
p388
g388
S'SYM'
p389
S'B-VP'
p390
g5
tp391
a(S'219'
p392
S'219'
p393
S'CD'
p394
S'B-NP'
p395
g5
tp396
a(S')'
p397
g397
g397
g5
g5
tp398
a(S'or'
p399
S'or'
p400
S'CC'
p401
g5
g5
tp402
a(S'control'
p403
S'control'
p404
S'NN'
p405
S'B-NP'
p406
g5
tp407
a(S'group'
p408
S'group'
p409
S'NN'
p410
S'I-NP'
p411
g5
tp412
a(g382
g382
g382
g5
g5
tp413
a(g384
g384
S'NN'
p414
S'B-NP'
p415
g5
tp416
a(g388
g388
S'SYM'
p417
S'B-VP'
p418
g5
tp419
a(S'223'
p420
S'223'
p421
S'CD'
p422
S'B-NP'
p423
g5
tp424
a(g397
g397
g397
g5
g5
tp425
a(S'at'
p426
S'at'
p427
S'IN'
p428
S'B-PP'
p429
g5
tp430
a(S'enrollment'
p431
S'enrollment'
p432
S'NN'
p433
S'B-NP'
p434
g5
tp435
a(S'12-16'
p436
S'12-16'
p437
S'CD'
p438
S'B-NP'
p439
g5
tp440
a(S'weeks'
p441
S'week'
p442
S'NNS'
p443
S'I-NP'
p444
g5
tp445
a(S'later'
p446
S'later'
p447
S'RB'
p448
S'B-ADVP'
p449
g5
tp450
a(g88
g88
g88
g5
g5
tp451
a(S'Primary'
p452
S'Primary'
p453
S'JJ'
p454
S'B-NP'
p455
g5
tp456
a(S'outcome'
p457
S'outcome'
p458
S'NN'
p459
S'I-NP'
p460
g5
tp461
a(S'was'
p462
S'be'
p463
S'VBD'
p464
S'B-VP'
p465
g5
tp466
a(S'all'
p467
S'all'
p468
S'DT'
p469
g5
g5
tp470
a(S'cause'
p471
S'cause'
p472
S'VBP'
p473
S'B-VP'
p474
g5
tp475
a(S'mortality'
p476
S'mortality'
p477
S'NN'
p478
S'B-NP'
p479
g5
tp480
a(S'in'
p481
S'in'
p482
S'IN'
p483
S'B-PP'
p484
g5
tp485
a(S'randomised'
p486
S'randomise'
p487
S'VBN'
p488
S'B-NP'
p489
g5
tp490
a(S'patients'
p491
S'patient'
p492
S'NNS'
p493
S'I-NP'
p494
g5
tp495
a(g88
g88
g88
g5
g5
tp496
a(S'Associations'
p497
S'Association'
p498
S'NNS'
p499
S'B-NP'
p500
g5
tp501
a(S'between'
p502
S'between'
p503
S'IN'
p504
S'B-PP'
p505
g5
tp506
a(S'compliance'
p507
S'compliance'
p508
S'NN'
p509
S'B-NP'
p510
g5
tp511
a(S'and'
p512
S'and'
p513
S'CC'
p514
S'I-NP'
p515
g5
tp516
a(S'mortality'
p517
S'mortality'
p518
S'NN'
p519
S'I-NP'
p520
g5
tp521
a(S'in'
p522
S'in'
p523
S'IN'
p524
S'B-PP'
p525
g5
tp526
a(S'the'
p527
S'the'
p528
S'DT'
p529
S'B-NP'
p530
g5
tp531
a(S'entire'
p532
S'entire'
p533
S'JJ'
p534
S'I-NP'
p535
g5
tp536
a(S'cohort'
p537
S'cohort'
p538
S'NN'
p539
S'I-NP'
p540
g5
tp541
a(S'of'
p542
S'of'
p543
S'IN'
p544
S'B-PP'
p545
g5
tp546
a(S'1011'
p547
S'1011'
p548
S'CD'
p549
S'B-NP'
p550
g5
tp551
a(S'patients'
p552
S'patient'
p553
S'NNS'
p554
S'I-NP'
p555
g5
tp556
a(S'were'
p557
S'be'
p558
S'VBD'
p559
S'B-VP'
p560
g5
tp561
a(S'also'
p562
S'also'
p563
S'RB'
p564
S'I-VP'
p565
g5
tp566
a(S'examined'
p567
S'examine'
p568
S'VBN'
p569
S'I-VP'
p570
g5
tp571
a(g88
g88
g88
g5
g5
tp572
a(S'Patients'
p573
S'Patient'
p574
S'NNS'
p575
S'B-NP'
p576
g5
tp577
a(S'were'
p578
S'be'
p579
S'VBD'
p580
S'B-VP'
p581
g5
tp582
a(S'defined'
p583
S'define'
p584
S'VBN'
p585
S'I-VP'
p586
g5
tp587
a(S'as'
p588
S'as'
p589
S'IN'
p590
S'B-PP'
p591
g5
tp592
a(S'compliant'
p593
S'compliant'
p594
S'NN'
p595
S'B-NP'
p596
g5
tp597
a(S'with'
p598
S'with'
p599
S'IN'
p600
S'B-PP'
p601
g5
tp602
a(g27
g27
S'DT'
p603
S'B-NP'
p604
g5
tp605
a(S'drug'
p606
S'drug'
p607
S'NN'
p608
S'I-NP'
p609
g5
tp610
a(S'if'
p611
S'if'
p612
S'IN'
p613
S'B-SBAR'
p614
g5
tp615
a(S'they'
p616
S'they'
p617
S'PRP'
p618
S'B-NP'
p619
g5
tp620
a(S'took'
p621
S'take'
p622
S'VBD'
p623
S'B-VP'
p624
g5
tp625
a(S'80'
p626
S'80'
p627
S'CD'
p628
S'B-NP'
p629
g5
tp630
a(S'-120'
p631
S'-120'
p632
S'CD'
p633
S'I-NP'
p634
g5
tp635
a(S'%'
p636
g636
S'NN'
p637
S'I-NP'
p638
g5
tp639
a(S'of'
p640
S'of'
p641
S'IN'
p642
S'B-PP'
p643
g5
tp644
a(S'the'
p645
S'the'
p646
S'DT'
p647
S'B-NP'
p648
g5
tp649
a(S'prescribed'
p650
S'prescribe'
p651
S'VBN'
p652
S'I-NP'
p653
g5
tp654
a(S'daily'
p655
S'daily'
p656
S'JJ'
p657
S'I-NP'
p658
g5
tp659
a(S'dose'
p660
S'dose'
p661
S'NN'
p662
S'I-NP'
p663
g5
tp664
a(g88
g88
g88
g5
g5
tp665
a(S'To'
p666
S'To'
p667
S'TO'
p668
S'B-VP'
p669
g5
tp670
a(S'calculate'
p671
S'calculate'
p672
S'VB'
p673
S'I-VP'
p674
g5
tp675
a(g27
g27
S'DT'
p676
S'B-NP'
p677
g5
tp678
a(S'compliance'
p679
S'compliance'
p680
S'NN'
p681
S'I-NP'
p682
g5
tp683
a(S'score'
p684
S'score'
p685
S'NN'
p686
S'I-NP'
p687
g5
tp688
a(S'for'
p689
S'for'
p690
S'IN'
p691
S'B-PP'
p692
g5
tp693
a(S'the'
p694
S'the'
p695
S'DT'
p696
S'B-NP'
p697
g5
tp698
a(S'whole'
p699
S'whole'
p700
S'JJ'
p701
S'I-NP'
p702
g5
tp703
a(S'treatment'
p704
S'treatment'
p705
S'NN'
p706
S'I-NP'
p707
g5
tp708
a(S'regimen'
p709
S'regimen'
p710
S'NN'
p711
S'I-NP'
p712
g5
tp713
a(S','
p714
g714
g714
g5
g5
tp715
a(S'the'
p716
S'the'
p717
S'DT'
p718
S'B-NP'
p719
g5
tp720
a(S'number'
p721
S'number'
p722
S'NN'
p723
S'I-NP'
p724
g5
tp725
a(S'of'
p726
S'of'
p727
S'IN'
p728
S'B-PP'
p729
g5
tp730
a(S'drugs'
p731
S'drug'
p732
S'NNS'
p733
S'B-NP'
p734
g5
tp735
a(S'that'
p736
S'that'
p737
S'IN'
p738
S'B-SBAR'
p739
g5
tp740
a(S'the'
p741
S'the'
p742
S'DT'
p743
S'B-NP'
p744
g5
tp745
a(S'patient'
p746
S'patient'
p747
S'NN'
p748
S'I-NP'
p749
g5
tp750
a(S'was'
p751
S'be'
p752
S'VBD'
p753
S'B-VP'
p754
g5
tp755
a(S'fully'
p756
S'fully'
p757
S'RB'
p758
S'B-ADJP'
p759
g5
tp760
a(S'compliant'
p761
S'compliant'
p762
S'JJ'
p763
S'I-ADJP'
p764
g5
tp765
a(S'with'
p766
S'with'
p767
S'IN'
p768
S'B-PP'
p769
g5
tp770
a(S'was'
p771
S'be'
p772
S'VBD'
p773
S'B-VP'
p774
g5
tp775
a(S'divided'
p776
S'divide'
p777
S'VBN'
p778
S'I-VP'
p779
g5
tp780
a(S'by'
p781
S'by'
p782
S'IN'
p783
S'B-PP'
p784
g5
tp785
a(S'the'
p786
S'the'
p787
S'DT'
p788
S'B-NP'
p789
g5
tp790
a(S'total'
p791
S'total'
p792
S'JJ'
p793
S'I-NP'
p794
g5
tp795
a(S'number'
p796
S'number'
p797
S'NN'
p798
S'I-NP'
p799
g5
tp800
a(S'of'
p801
S'of'
p802
S'IN'
p803
S'B-PP'
p804
g5
tp805
a(S'prescribed'
p806
S'prescribe'
p807
S'VBN'
p808
S'B-NP'
p809
g5
tp810
a(S'drugs'
p811
S'drug'
p812
S'NNS'
p813
S'I-NP'
p814
g5
tp815
a(S'and'
p816
S'and'
p817
S'CC'
p818
g5
g5
tp819
a(S'expressed'
p820
S'express'
p821
S'VBN'
p822
S'B-VP'
p823
g5
tp824
a(S'as'
p825
S'as'
p826
S'IN'
p827
S'B-PP'
p828
g5
tp829
a(g27
g27
S'DT'
p830
S'B-NP'
p831
g5
tp832
a(S'percentage'
p833
S'percentage'
p834
S'NN'
p835
S'I-NP'
p836
g5
tp837
a(g88
g88
g88
g5
g5
tp838
a(S'Only'
p839
S'Only'
p840
S'JJ'
p841
S'B-NP'
p842
g5
tp843
a(S'patients'
p844
S'patient'
p845
S'NNS'
p846
S'I-NP'
p847
g5
tp848
a(S'who'
p849
S'who'
p850
S'WP'
p851
S'B-NP'
p852
g5
tp853
a(S'complied'
p854
S'comply'
p855
S'VBD'
p856
S'B-VP'
p857
g5
tp858
a(S'with'
p859
S'with'
p860
S'IN'
p861
S'B-PP'
p862
g5
tp863
a(S'all'
p864
S'all'
p865
S'DT'
p866
S'B-NP'
p867
g5
tp868
a(S'recommended'
p869
S'recommend'
p870
S'VBN'
p871
S'I-NP'
p872
g5
tp873
a(S'drugs'
p874
S'drug'
p875
S'NNS'
p876
S'I-NP'
p877
g5
tp878
a(S'were'
p879
S'be'
p880
S'VBD'
p881
S'B-VP'
p882
g5
tp883
a(S'considered'
p884
S'consider'
p885
S'VBN'
p886
S'I-VP'
p887
g5
tp888
a(S'compliant'
p889
S'compliant'
p890
S'JJ'
p891
S'B-ADJP'
p892
g5
tp893
a(g382
g382
g382
g5
g5
tp894
a(S'100'
p895
S'100'
p896
S'CD'
p897
S'B-NP'
p898
g5
tp899
a(g636
g636
S'NN'
p900
S'I-NP'
p901
g5
tp902
a(S'score'
p903
S'score'
p904
S'NN'
p905
S'I-NP'
p906
g5
tp907
a(g397
g397
g397
g5
g5
tp908
a(g88
g88
g88
g5
g5
tp909
a(S'60'
p910
S'60'
p911
S'CD'
p912
S'B-NP'
p913
g5
tp914
a(S'of'
p915
S'of'
p916
S'IN'
p917
S'B-PP'
p918
g5
tp919
a(S'the'
p920
S'the'
p921
S'DT'
p922
S'B-NP'
p923
g5
tp924
a(S'502'
p925
S'502'
p926
S'CD'
p927
S'I-NP'
p928
g5
tp929
a(S'eligible'
p930
S'eligible'
p931
S'JJ'
p932
S'I-NP'
p933
g5
tp934
a(S'patients'
p935
S'patient'
p936
S'NNS'
p937
S'I-NP'
p938
g5
tp939
a(S'defaulted'
p940
S'default'
p941
S'VBD'
p942
S'B-VP'
p943
g5
tp944
a(S'and'
p945
S'and'
p946
S'CC'
p947
g5
g5
tp948
a(S'only'
p949
S'only'
p950
S'RB'
p951
S'B-NP'
p952
g5
tp953
a(S'442'
p954
S'442'
p955
S'CD'
p956
S'I-NP'
p957
g5
tp958
a(S'patients'
p959
S'patient'
p960
S'NNS'
p961
S'I-NP'
p962
g5
tp963
a(S'were'
p964
S'be'
p965
S'VBD'
p966
S'B-VP'
p967
g5
tp968
a(S'randomised'
p969
S'randomise'
p970
S'VBN'
p971
S'I-VP'
p972
g5
tp973
a(g88
g88
g88
g5
g5
tp974
a(S'After'
p975
S'After'
p976
S'IN'
p977
S'B-PP'
p978
g5
tp979
a(g183
g183
S'CD'
p980
S'B-NP'
p981
g5
tp982
a(S'years'
p983
S'year'
p984
S'NNS'
p985
S'I-NP'
p986
g5
tp987
a(g714
g714
g714
g5
g5
tp988
a(S'31'
p989
S'31'
p990
S'CD'
p991
S'B-NP'
p992
g5
tp993
a(g382
g382
g382
g5
g5
tp994
a(S'52'
p995
S'52'
p996
S'CD'
p997
S'B-NP'
p998
g5
tp999
a(g636
g636
S'NN'
p1000
S'I-NP'
p1001
g5
tp1002
a(g397
g397
g397
g5
g5
tp1003
a(S'of'
p1004
S'of'
p1005
S'IN'
p1006
S'B-PP'
p1007
g5
tp1008
a(S'the'
p1009
S'the'
p1010
S'DT'
p1011
S'B-NP'
p1012
g5
tp1013
a(S'defaulters'
p1014
S'defaulter'
p1015
S'NNS'
p1016
S'I-NP'
p1017
g5
tp1018
a(S'had'
p1019
S'have'
p1020
S'VBD'
p1021
S'B-VP'
p1022
g5
tp1023
a(S'died'
p1024
S'die'
p1025
S'VBN'
p1026
S'I-VP'
p1027
g5
tp1028
a(g714
g714
g714
g5
g5
tp1029
a(S'38'
p1030
S'38'
p1031
S'CD'
p1032
S'B-NP'
p1033
g5
tp1034
a(g382
g382
g382
g5
g5
tp1035
a(S'17'
p1036
S'17'
p1037
S'CD'
p1038
S'B-NP'
p1039
g5
tp1040
a(g636
g636
S'NN'
p1041
S'I-NP'
p1042
g5
tp1043
a(g397
g397
g397
g5
g5
tp1044
a(S'of'
p1045
S'of'
p1046
S'IN'
p1047
S'B-PP'
p1048
g5
tp1049
a(S'the'
p1050
S'the'
p1051
S'DT'
p1052
S'B-NP'
p1053
g5
tp1054
a(S'control'
p1055
S'control'
p1056
S'NN'
p1057
S'I-NP'
p1058
g5
tp1059
a(S'group'
p1060
S'group'
p1061
S'NN'
p1062
S'I-NP'
p1063
g5
tp1064
a(S'had'
p1065
S'have'
p1066
S'VBD'
p1067
S'B-VP'
p1068
g5
tp1069
a(S'died'
p1070
S'die'
p1071
S'VBN'
p1072
S'I-VP'
p1073
g5
tp1074
a(g714
g714
g714
g5
g5
tp1075
a(S'and'
p1076
S'and'
p1077
S'CC'
p1078
g5
g5
tp1079
a(S'25'
p1080
S'25'
p1081
S'CD'
p1082
S'B-NP'
p1083
g5
tp1084
a(g382
g382
g382
g5
g5
tp1085
a(S'11'
p1086
S'11'
p1087
S'CD'
p1088
S'B-NP'
p1089
g5
tp1090
a(g636
g636
S'NN'
p1091
S'I-NP'
p1092
g5
tp1093
a(g397
g397
g397
g5
g5
tp1094
a(S'of'
p1095
S'of'
p1096
S'IN'
p1097
S'B-PP'
p1098
g5
tp1099
a(S'the'
p1100
S'the'
p1101
S'DT'
p1102
S'B-NP'
p1103
g5
tp1104
a(S'intervention'
p1105
S'intervention'
p1106
S'NN'
p1107
S'I-NP'
p1108
g5
tp1109
a(S'group'
p1110
S'group'
p1111
S'NN'
p1112
S'I-NP'
p1113
g5
tp1114
a(S'had'
p1115
S'have'
p1116
S'VBD'
p1117
S'B-VP'
p1118
g5
tp1119
a(S'died'
p1120
S'die'
p1121
S'VBN'
p1122
S'I-VP'
p1123
g5
tp1124
a(g88
g88
g88
g5
g5
tp1125
a(S'After'
p1126
S'After'
p1127
S'IN'
p1128
S'B-PP'
p1129
g5
tp1130
a(S'adjustment'
p1131
S'adjustment'
p1132
S'NN'
p1133
S'B-NP'
p1134
g5
tp1135
a(S'for'
p1136
S'for'
p1137
S'IN'
p1138
S'B-PP'
p1139
g5
tp1140
a(S'confounders'
p1141
S'confounder'
p1142
S'NNS'
p1143
S'B-NP'
p1144
g5
tp1145
a(g714
g714
g714
g5
g5
tp1146
a(S'telephone'
p1147
S'telephone'
p1148
S'NN'
p1149
S'B-NP'
p1150
g5
tp1151
a(S'counselling'
p1152
S'counselling'
p1153
S'NN'
p1154
S'I-NP'
p1155
g5
tp1156
a(S'was'
p1157
S'be'
p1158
S'VBD'
p1159
S'B-VP'
p1160
g5
tp1161
a(S'associated'
p1162
S'associate'
p1163
S'VBN'
p1164
S'I-VP'
p1165
g5
tp1166
a(S'with'
p1167
S'with'
p1168
S'IN'
p1169
S'B-PP'
p1170
g5
tp1171
a(g27
g27
S'DT'
p1172
S'B-NP'
p1173
g5
tp1174
a(S'41'
p1175
S'41'
p1176
S'CD'
p1177
S'I-NP'
p1178
g5
tp1179
a(g636
g636
S'NN'
p1180
S'I-NP'
p1181
g5
tp1182
a(S'reduction'
p1183
S'reduction'
p1184
S'NN'
p1185
S'I-NP'
p1186
g5
tp1187
a(S'in'
p1188
S'in'
p1189
S'IN'
p1190
S'B-PP'
p1191
g5
tp1192
a(S'the'
p1193
S'the'
p1194
S'DT'
p1195
S'B-NP'
p1196
g5
tp1197
a(S'risk'
p1198
S'risk'
p1199
S'NN'
p1200
S'I-NP'
p1201
g5
tp1202
a(S'of'
p1203
S'of'
p1204
S'IN'
p1205
S'B-PP'
p1206
g5
tp1207
a(S'death'
p1208
S'death'
p1209
S'NN'
p1210
S'B-NP'
p1211
g5
tp1212
a(g382
g382
g382
g5
g5
tp1213
a(S'relative'
p1214
S'relative'
p1215
S'JJ'
p1216
S'B-NP'
p1217
g5
tp1218
a(S'risk'
p1219
S'risk'
p1220
S'NN'
p1221
S'I-NP'
p1222
g5
tp1223
a(S'0.59'
p1224
S'0.59'
p1225
S'CD'
p1226
S'I-NP'
p1227
g5
tp1228
a(g714
g714
g714
S'I-NP'
p1229
g5
tp1230
a(S'95'
p1231
S'95'
p1232
S'CD'
p1233
S'I-NP'
p1234
g5
tp1235
a(g636
g636
S'NN'
p1236
S'I-NP'
p1237
g5
tp1238
a(S'confidence'
p1239
S'confidence'
p1240
S'NN'
p1241
S'I-NP'
p1242
g5
tp1243
a(S'interval'
p1244
S'interval'
p1245
S'NN'
p1246
S'I-NP'
p1247
g5
tp1248
a(S'0.35'
p1249
S'0.35'
p1250
S'CD'
p1251
S'I-NP'
p1252
g5
tp1253
a(S'to'
p1254
S'to'
p1255
S'TO'
p1256
S'B-PP'
p1257
g5
tp1258
a(S'0.97'
p1259
S'0.97'
p1260
S'CD'
p1261
S'B-NP'
p1262
g5
tp1263
a(S';'
p1264
g1264
g71
g5
g5
tp1265
a(S'P'
p1266
g1266
S'NN'
p1267
S'B-NP'
p1268
g5
tp1269
a(g388
g388
S'SYM'
p1270
S'B-VP'
p1271
g5
tp1272
a(S'0.039'
p1273
S'0.039'
p1274
S'CD'
p1275
S'B-NP'
p1276
g5
tp1277
a(g397
g397
g397
g5
g5
tp1278
a(g88
g88
g88
g5
g5
tp1279
a(S'The'
p1280
S'The'
p1281
S'DT'
p1282
S'B-NP'
p1283
g5
tp1284
a(S'number'
p1285
S'number'
p1286
S'NN'
p1287
S'I-NP'
p1288
g5
tp1289
a(S'needed'
p1290
S'need'
p1291
S'VBN'
p1292
S'B-VP'
p1293
g5
tp1294
a(S'to'
p1295
S'to'
p1296
S'TO'
p1297
S'B-VP'
p1298
g5
tp1299
a(S'treat'
p1300
S'treat'
p1301
S'VB'
p1302
S'I-VP'
p1303
g5
tp1304
a(S'to'
p1305
S'to'
p1306
S'TO'
p1307
S'B-VP'
p1308
g5
tp1309
a(S'prevent'
p1310
S'prevent'
p1311
S'VB'
p1312
S'I-VP'
p1313
g5
tp1314
a(S'1'
p1315
g1315
S'CD'
p1316
S'B-NP'
p1317
g5
tp1318
a(S'death'
p1319
S'death'
p1320
S'NN'
p1321
S'I-NP'
p1322
g5
tp1323
a(S'at'
p1324
S'at'
p1325
S'IN'
p1326
S'B-PP'
p1327
g5
tp1328
a(g183
g183
S'CD'
p1329
S'B-NP'
p1330
g5
tp1331
a(S'years'
p1332
S'year'
p1333
S'NNS'
p1334
S'I-NP'
p1335
g5
tp1336
a(S'was'
p1337
S'be'
p1338
S'VBD'
p1339
S'B-VP'
p1340
g5
tp1341
a(S'16'
p1342
S'16'
p1343
S'CD'
p1344
S'B-NP'
p1345
g5
tp1346
a(g88
g88
g88
g5
g5
tp1347
a(S'Other'
p1348
S'Other'
p1349
S'JJ'
p1350
S'B-NP'
p1351
g5
tp1352
a(S'predictors'
p1353
S'predictor'
p1354
S'NNS'
p1355
S'I-NP'
p1356
g5
tp1357
a(S'included'
p1358
S'include'
p1359
S'VBD'
p1360
S'B-VP'
p1361
g5
tp1362
a(S'old'
p1363
S'old'
p1364
S'JJ'
p1365
S'B-NP'
p1366
g5
tp1367
a(S'age'
p1368
S'age'
p1369
S'NN'
p1370
S'I-NP'
p1371
g5
tp1372
a(g714
g714
g714
g5
g5
tp1373
a(S'living'
p1374
S'live'
p1375
S'VBG'
p1376
S'B-VP'
p1377
g5
tp1378
a(S'alone'
p1379
S'alone'
p1380
S'RB'
p1381
S'B-ADVP'
p1382
g5
tp1383
a(g714
g714
g714
g5
g5
tp1384
a(S'rate'
p1385
S'rate'
p1386
S'NN'
p1387
S'B-NP'
p1388
g5
tp1389
a(S'of'
p1390
S'of'
p1391
S'IN'
p1392
S'B-PP'
p1393
g5
tp1394
a(S'admission'
p1395
S'admission'
p1396
S'NN'
p1397
S'B-NP'
p1398
g5
tp1399
a(S'to'
p1400
S'to'
p1401
S'TO'
p1402
S'B-PP'
p1403
g5
tp1404
a(S'hospital'
p1405
S'hospital'
p1406
S'NN'
p1407
S'B-NP'
p1408
g5
tp1409
a(g714
g714
g714
g5
g5
tp1410
a(S'compliance'
p1411
S'compliance'
p1412
S'NN'
p1413
S'B-NP'
p1414
g5
tp1415
a(S'score'
p1416
S'score'
p1417
S'NN'
p1418
S'I-NP'
p1419
g5
tp1420
a(g714
g714
g714
g5
g5
tp1421
a(S'number'
p1422
S'number'
p1423
S'NN'
p1424
S'B-NP'
p1425
g5
tp1426
a(S'of'
p1427
S'of'
p1428
S'IN'
p1429
S'B-PP'
p1430
g5
tp1431
a(S'drugs'
p1432
S'drug'
p1433
S'NNS'
p1434
S'B-NP'
p1435
g5
tp1436
a(S'for'
p1437
S'for'
p1438
S'IN'
p1439
S'B-PP'
p1440
g5
tp1441
a(S'chronic'
p1442
S'chronic'
p1443
S'JJ'
p1444
S'B-NP'
p1445
g5
tp1446
a(S'disease'
p1447
S'disease'
p1448
S'NN'
p1449
S'I-NP'
p1450
g5
tp1451
a(g714
g714
g714
g5
g5
tp1452
a(S'and'
p1453
S'and'
p1454
S'CC'
p1455
g5
g5
tp1456
a(S'non'
p1457
S'non'
p1458
S'AFX'
p1459
g5
g5
tp1460
a(g304
g304
S'HYPH'
p1461
g5
g5
tp1462
a(S'treatment'
p1463
S'treatment'
p1464
S'NN'
p1465
S'B-NP'
p1466
g5
tp1467
a(S'with'
p1468
S'with'
p1469
S'IN'
p1470
S'B-PP'
p1471
g5
tp1472
a(S'lipid'
p1473
S'lipid'
p1474
S'NN'
p1475
S'B-NP'
p1476
g5
tp1477
a(S'lowering'
p1478
S'lower'
p1479
S'VBG'
p1480
S'B-VP'
p1481
g5
tp1482
a(S'drugs'
p1483
S'drug'
p1484
S'NNS'
p1485
S'B-NP'
p1486
g5
tp1487
a(S'at'
p1488
S'at'
p1489
S'IN'
p1490
S'B-PP'
p1491
g5
tp1492
a(S'screening'
p1493
S'screening'
p1494
S'NN'
p1495
S'B-NP'
p1496
g5
tp1497
a(S'visit'
p1498
S'visit'
p1499
S'NN'
p1500
S'I-NP'
p1501
g5
tp1502
a(g88
g88
g88
g5
g5
tp1503
a(S'In'
p1504
S'In'
p1505
S'IN'
p1506
S'B-PP'
p1507
g5
tp1508
a(S'the'
p1509
S'the'
p1510
S'DT'
p1511
S'B-NP'
p1512
g5
tp1513
a(S'cohort'
p1514
S'cohort'
p1515
S'NN'
p1516
S'I-NP'
p1517
g5
tp1518
a(S'of'
p1519
S'of'
p1520
S'IN'
p1521
S'B-PP'
p1522
g5
tp1523
a(S'1011'
p1524
S'1011'
p1525
S'CD'
p1526
S'B-NP'
p1527
g5
tp1528
a(S'patients'
p1529
S'patient'
p1530
S'NNS'
p1531
S'I-NP'
p1532
g5
tp1533
a(g714
g714
g714
g5
g5
tp1534
a(S'the'
p1535
S'the'
p1536
S'DT'
p1537
S'B-NP'
p1538
g5
tp1539
a(S'adjusted'
p1540
S'adjusted'
p1541
S'JJ'
p1542
S'I-NP'
p1543
g5
tp1544
a(S'relative'
p1545
S'relative'
p1546
S'JJ'
p1547
S'I-NP'
p1548
g5
tp1549
a(S'risk'
p1550
S'risk'
p1551
S'NN'
p1552
S'I-NP'
p1553
g5
tp1554
a(S'for'
p1555
S'for'
p1556
S'IN'
p1557
S'B-PP'
p1558
g5
tp1559
a(S'death'
p1560
S'death'
p1561
S'NN'
p1562
S'B-NP'
p1563
g5
tp1564
a(S'was'
p1565
S'be'
p1566
S'VBD'
p1567
S'B-VP'
p1568
g5
tp1569
a(S'1.61'
p1570
S'1.61'
p1571
S'CD'
p1572
S'B-NP'
p1573
g5
tp1574
a(g382
g382
g382
g5
g5
tp1575
a(S'1.05'
p1576
S'1.05'
p1577
S'CD'
p1578
S'B-NP'
p1579
g5
tp1580
a(S'to'
p1581
S'to'
p1582
S'TO'
p1583
g5
g5
tp1584
a(S'2.48'
p1585
S'2.48'
p1586
S'CD'
p1587
S'B-NP'
p1588
g5
tp1589
a(g1264
g1264
g71
g5
g5
tp1590
a(g1266
g1266
S'NN'
p1591
S'B-NP'
p1592
g5
tp1593
a(g388
g388
S'JJ'
p1594
S'B-VP'
p1595
g5
tp1596
a(S'0.029'
p1597
S'0.029'
p1598
S'CD'
p1599
S'B-NP'
p1600
g5
tp1601
a(g397
g397
g397
g5
g5
tp1602
a(S'and'
p1603
S'and'
p1604
S'CC'
p1605
g5
g5
tp1606
a(S'2.87'
p1607
S'2.87'
p1608
S'CD'
p1609
S'B-NP'
p1610
g5
tp1611
a(g382
g382
g382
g5
g5
tp1612
a(S'1.80'
p1613
S'1.80'
p1614
S'CD'
p1615
S'B-NP'
p1616
g5
tp1617
a(S'to'
p1618
S'to'
p1619
S'TO'
p1620
g5
g5
tp1621
a(S'2.57'
p1622
S'2.57'
p1623
S'CD'
p1624
S'B-NP'
p1625
g5
tp1626
a(g1264
g1264
g71
g5
g5
tp1627
a(g1266
g1266
S'NN'
p1628
S'B-NP'
p1629
g5
tp1630
a(S'<'
p1631
g1631
S'SYM'
p1632
S'B-NP'
p1633
g5
tp1634
a(S'0.001'
p1635
S'0.001'
p1636
S'CD'
p1637
S'I-NP'
p1638
g5
tp1639
a(g397
g397
g397
g5
g5
tp1640
a(S'in'
p1641
S'in'
p1642
S'IN'
p1643
S'B-PP'
p1644
g5
tp1645
a(S'patients'
p1646
S'patient'
p1647
S'NNS'
p1648
S'B-NP'
p1649
g5
tp1650
a(S'with'
p1651
S'with'
p1652
S'IN'
p1653
S'B-PP'
p1654
g5
tp1655
a(S'compliance'
p1656
S'compliance'
p1657
S'NN'
p1658
S'B-NP'
p1659
g5
tp1660
a(S'scores'
p1661
S'score'
p1662
S'NNS'
p1663
S'I-NP'
p1664
g5
tp1665
a(S'of'
p1666
S'of'
p1667
S'IN'
p1668
S'B-PP'
p1669
g5
tp1670
a(S'34'
p1671
S'34'
p1672
S'CD'
p1673
S'B-NP'
p1674
g5
tp1675
a(S'-66'
p1676
S'-66'
p1677
S'CD'
p1678
S'I-NP'
p1679
g5
tp1680
a(g636
g636
S'NN'
p1681
S'I-NP'
p1682
g5
tp1683
a(S'and'
p1684
S'and'
p1685
S'CC'
p1686
g5
g5
tp1687
a(S'0-'
p1688
S'0-'
p1689
S'CD'
p1690
S'B-NP'
p1691
g5
tp1692
a(S'33'
p1693
S'33'
p1694
S'CD'
p1695
S'I-NP'
p1696
g5
tp1697
a(g636
g636
S'NN'
p1698
S'I-NP'
p1699
g5
tp1700
a(g714
g714
g714
g5
g5
tp1701
a(S'respectively'
p1702
S'respectively'
p1703
S'RB'
p1704
S'B-ADVP'
p1705
g5
tp1706
a(g714
g714
g714
g5
g5
tp1707
a(S'compared'
p1708
S'compare'
p1709
S'VBN'
p1710
S'B-PP'
p1711
g5
tp1712
a(S'with'
p1713
S'with'
p1714
S'IN'
p1715
S'B-PP'
p1716
g5
tp1717
a(S'those'
p1718
S'those'
p1719
S'DT'
p1720
S'B-NP'
p1721
g5
tp1722
a(S'who'
p1723
S'who'
p1724
S'WP'
p1725
S'B-NP'
p1726
g5
tp1727
a(S'had'
p1728
S'have'
p1729
S'VBD'
p1730
S'B-VP'
p1731
g5
tp1732
a(g27
g27
S'DT'
p1733
S'B-NP'
p1734
g5
tp1735
a(S'compliance'
p1736
S'compliance'
p1737
S'NN'
p1738
S'I-NP'
p1739
g5
tp1740
a(S'score'
p1741
S'score'
p1742
S'NN'
p1743
S'I-NP'
p1744
g5
tp1745
a(S'of'
p1746
S'of'
p1747
S'IN'
p1748
S'B-PP'
p1749
g5
tp1750
a(S'67'
p1751
S'67'
p1752
S'CD'
p1753
S'B-NP'
p1754
g5
tp1755
a(g636
g636
S'NN'
p1756
S'I-NP'
p1757
g5
tp1758
a(S'or'
p1759
S'or'
p1760
S'CC'
p1761
S'I-NP'
p1762
g5
tp1763
a(S'more'
p1764
S'more'
p1765
S'JJR'
p1766
S'I-NP'
p1767
g5
tp1768
a(g88
g88
g88
g5
g5
tp1769
a(S'In'
p1770
S'In'
p1771
S'IN'
p1772
S'B-PP'
p1773
g5
tp1774
a(S'patients'
p1775
S'patient'
p1776
S'NNS'
p1777
S'B-NP'
p1778
g5
tp1779
a(S'receiving'
p1780
S'receive'
p1781
S'VBG'
p1782
S'B-VP'
p1783
g5
tp1784
a(S'polypharmacy'
p1785
S'polypharmacy'
p1786
S'NN'
p1787
S'B-NP'
p1788
g5
tp1789
a(g714
g714
g714
g5
g5
tp1790
a(S'poor'
p1791
S'poor'
p1792
S'JJ'
p1793
S'B-NP'
p1794
g5
tp1795
a(S'compliance'
p1796
S'compliance'
p1797
S'NN'
p1798
S'I-NP'
p1799
g5
tp1800
a(S'was'
p1801
S'be'
p1802
S'VBD'
p1803
S'B-VP'
p1804
g5
tp1805
a(S'associated'
p1806
S'associate'
p1807
S'VBN'
p1808
S'I-VP'
p1809
g5
tp1810
a(S'with'
p1811
S'with'
p1812
S'IN'
p1813
S'B-PP'
p1814
g5
tp1815
a(S'increased'
p1816
S'increase'
p1817
S'VBN'
p1818
S'B-NP'
p1819
g5
tp1820
a(S'mortality'
p1821
S'mortality'
p1822
S'NN'
p1823
S'I-NP'
p1824
g5
tp1825
a(g88
g88
g88
S'I-NP'
p1826
g5
tp1827
a(S'Periodic'
p1828
S'Periodic'
p1829
S'JJ'
p1830
S'I-NP'
p1831
g5
tp1832
a(S'telephone'
p1833
S'telephone'
p1834
S'NN'
p1835
S'I-NP'
p1836
g5
tp1837
a(S'counselling'
p1838
S'counselling'
p1839
S'NN'
p1840
S'I-NP'
p1841
g5
tp1842
a(S'by'
p1843
S'by'
p1844
S'IN'
p1845
S'B-PP'
p1846
g5
tp1847
a(g27
g27
S'DT'
p1848
S'B-NP'
p1849
g5
tp1850
a(S'pharmacist'
p1851
S'pharmacist'
p1852
S'NN'
p1853
S'I-NP'
p1854
g5
tp1855
a(S'improved'
p1856
S'improve'
p1857
S'VBD'
p1858
S'B-VP'
p1859
g5
tp1860
a(S'compliance'
p1861
S'compliance'
p1862
S'NN'
p1863
S'B-NP'
p1864
g5
tp1865
a(S'and'
p1866
S'and'
p1867
S'CC'
p1868
g5
g5
tp1869
a(S'reduced'
p1870
S'reduce'
p1871
S'VBN'
p1872
S'B-NP'
p1873
g5
tp1874
a(S'mortality'
p1875
S'mortality'
p1876
S'NN'
p1877
S'I-NP'
p1878
g5
tp1879
a(g88
g88
g88
g5
g5
tp1880
a(S'International'
p1881
S'International'
p1882
S'NNP'
p1883
S'B-NP'
p1884
g5
tp1885
a(S'Standard'
p1886
S'Standard'
p1887
S'NNP'
p1888
S'I-NP'
p1889
g5
tp1890
a(S'Randomised'
p1891
S'Randomised'
p1892
S'NNP'
p1893
S'I-NP'
p1894
g5
tp1895
a(S'Controlled'
p1896
S'Controlled'
p1897
S'NNP'
p1898
S'I-NP'
p1899
g5
tp1900
a(S'Trial'
p1901
S'Trial'
p1902
S'NNP'
p1903
S'I-NP'
p1904
g5
tp1905
a(S'Number'
p1906
S'Number'
p1907
S'NNP'
p1908
S'I-NP'
p1909
g5
tp1910
a(S'Register'
p1911
S'Register'
p1912
S'NNP'
p1913
S'I-NP'
p1914
g5
tp1915
a(g71
g71
g71
g5
g5
tp1916
a(S'SRCTN48076318'
p1917
S'SRCTN48076318'
p1918
S'NN'
p1919
S'B-NP'
p1920
g5
tp1921
a(g88
g88
g88
g5
g5
tp1922
a.