(lp0
(S'Enteral'
p1
S'Enteral'
p2
S'JJ'
p3
S'B-NP'
p4
S'O'
p5
tp6
a(S'nutrition'
p7
S'nutrition'
p8
S'NN'
p9
S'I-NP'
p10
g5
tp11
a(S'with'
p12
S'with'
p13
S'IN'
p14
S'B-PP'
p15
g5
tp16
a(S'eicosapentaenoic'
p17
S'eicosapentaenoic'
p18
S'JJ'
p19
S'B-NP'
p20
g5
tp21
a(S'acid'
p22
S'acid'
p23
S'NN'
p24
S'I-NP'
p25
g5
tp26
a(S','
p27
g27
g27
g5
g5
tp28
a(S'gamma-linolenic'
p29
S'gamma-linolenic'
p30
S'JJ'
p31
S'B-NP'
p32
g5
tp33
a(S'acid'
p34
S'acid'
p35
S'NN'
p36
S'I-NP'
p37
g5
tp38
a(g27
g27
g27
g5
g5
tp39
a(S'and'
p40
S'and'
p41
S'CC'
p42
g5
g5
tp43
a(S'antioxidants'
p44
S'antioxidant'
p45
S'NNS'
p46
S'B-NP'
p47
g5
tp48
a(S'reduces'
p49
S'reduce'
p50
S'VBZ'
p51
S'B-VP'
p52
g5
tp53
a(S'alveolar'
p54
S'alveolar'
p55
S'JJ'
p56
S'B-NP'
p57
S'B-protein'
p58
tp59
a(S'inflammatory'
p60
S'inflammatory'
p61
S'JJ'
p62
S'I-NP'
p63
S'I-protein'
p64
tp65
a(S'mediators'
p66
S'mediator'
p67
S'NNS'
p68
S'I-NP'
p69
S'I-protein'
p70
tp71
a(S'and'
p72
S'and'
p73
S'CC'
p74
g5
g5
tp75
a(S'protein'
p76
S'protein'
p77
S'NN'
p78
S'B-NP'
p79
g5
tp80
a(S'influx'
p81
S'influx'
p82
S'NN'
p83
S'I-NP'
p84
g5
tp85
a(S'in'
p86
S'in'
p87
S'IN'
p88
S'B-PP'
p89
g5
tp90
a(S'patients'
p91
S'patient'
p92
S'NNS'
p93
S'B-NP'
p94
g5
tp95
a(S'with'
p96
S'with'
p97
S'IN'
p98
S'B-PP'
p99
g5
tp100
a(S'acute'
p101
S'acute'
p102
S'JJ'
p103
S'B-NP'
p104
g5
tp105
a(S'respiratory'
p106
S'respiratory'
p107
S'JJ'
p108
S'I-NP'
p109
g5
tp110
a(S'distress'
p111
S'distress'
p112
S'NN'
p113
S'I-NP'
p114
g5
tp115
a(S'syndrome'
p116
S'syndrome'
p117
S'NN'
p118
S'I-NP'
p119
g5
tp120
a(S'.'
p121
g121
g121
g5
g5
tp122
a(S'OBJECTIVE'
p123
S'OBJECTIVE'
p124
S'NN'
p125
S'B-NP'
p126
g5
tp127
a(S'Previously'
p128
S'Previously'
p129
S'RB'
p130
S'B-ADVP'
p131
g5
tp132
a(g27
g27
g27
g5
g5
tp133
a(S'we'
p134
S'we'
p135
S'PRP'
p136
S'B-NP'
p137
g5
tp138
a(S'showed'
p139
S'show'
p140
S'VBD'
p141
S'B-VP'
p142
g5
tp143
a(S'that'
p144
S'that'
p145
S'IN'
p146
S'B-SBAR'
p147
g5
tp148
a(S'acute'
p149
S'acute'
p150
S'JJ'
p151
S'B-NP'
p152
g5
tp153
a(S'respiratory'
p154
S'respiratory'
p155
S'JJ'
p156
S'I-NP'
p157
g5
tp158
a(S'distress'
p159
S'distress'
p160
S'NN'
p161
S'I-NP'
p162
g5
tp163
a(S'syndrome'
p164
S'syndrome'
p165
S'NN'
p166
S'I-NP'
p167
g5
tp168
a(S'patients'
p169
S'patient'
p170
S'NNS'
p171
S'I-NP'
p172
g5
tp173
a(S'fed'
p174
S'feed'
p175
S'VBD'
p176
S'B-VP'
p177
g5
tp178
a(S'an'
p179
S'an'
p180
S'DT'
p181
S'B-NP'
p182
g5
tp183
a(S'enteral'
p184
S'enteral'
p185
S'JJ'
p186
S'I-NP'
p187
g5
tp188
a(S'diet'
p189
S'diet'
p190
S'NN'
p191
S'I-NP'
p192
g5
tp193
a(S'containing'
p194
S'contain'
p195
S'VBG'
p196
S'B-VP'
p197
g5
tp198
a(S'eicosapentaenoic'
p199
S'eicosapentaenoic'
p200
S'JJ'
p201
S'B-NP'
p202
g5
tp203
a(S'acid'
p204
S'acid'
p205
S'NN'
p206
S'I-NP'
p207
g5
tp208
a(S'and'
p209
S'and'
p210
S'CC'
p211
g5
g5
tp212
a(S'gamma-linolenic'
p213
S'gamma-linolenic'
p214
S'JJ'
p215
S'B-NP'
p216
g5
tp217
a(S'acid'
p218
S'acid'
p219
S'NN'
p220
S'I-NP'
p221
g5
tp222
a(S'and'
p223
S'and'
p224
S'CC'
p225
g5
g5
tp226
a(S'elevated'
p227
S'elevate'
p228
S'VBN'
p229
S'B-NP'
p230
g5
tp231
a(S'antioxidants'
p232
S'antioxidant'
p233
S'NNS'
p234
S'I-NP'
p235
g5
tp236
a(S'('
p237
g237
g237
g5
g5
tp238
a(S'EPA+GLA'
p239
S'EPA+GLA'
p240
S'NN'
p241
S'B-NP'
p242
g5
tp243
a(S';'
p244
g244
S':'
p245
g5
g5
tp246
a(S'Oxepa'
p247
S'Oxepa'
p248
S'NN'
p249
S'B-NP'
p250
g5
tp251
a(S')'
p252
g252
g252
g5
g5
tp253
a(S'had'
p254
S'have'
p255
S'VBD'
p256
S'B-VP'
p257
g5
tp258
a(S'significantly'
p259
S'significantly'
p260
S'RB'
p261
S'I-VP'
p262
g5
tp263
a(S'reduced'
p264
S'reduce'
p265
S'VBN'
p266
S'I-VP'
p267
g5
tp268
a(S'pulmonary'
p269
S'pulmonary'
p270
S'JJ'
p271
S'B-NP'
p272
g5
tp273
a(S'inflammation'
p274
S'inflammation'
p275
S'NN'
p276
S'I-NP'
p277
g5
tp278
a(g27
g27
g27
g5
g5
tp279
a(S'increased'
p280
S'increase'
p281
S'VBN'
p282
S'B-NP'
p283
g5
tp284
a(S'oxygenation'
p285
S'oxygenation'
p286
S'NN'
p287
S'I-NP'
p288
g5
tp289
a(g27
g27
g27
g5
g5
tp290
a(S'and'
p291
S'and'
p292
S'CC'
p293
g5
g5
tp294
a(S'improved'
p295
S'improve'
p296
S'VBN'
p297
S'B-NP'
p298
g5
tp299
a(S'clinical'
p300
S'clinical'
p301
S'JJ'
p302
S'I-NP'
p303
g5
tp304
a(S'outcomes.'
p305
S'outcomes.'
p306
S'NN'
p307
S'I-NP'
p308
g5
tp309
a(S'In'
p310
S'In'
p311
S'IN'
p312
S'B-PP'
p313
g5
tp314
a(S'a'
p315
g315
S'DT'
p316
S'B-NP'
p317
g5
tp318
a(S'subset'
p319
S'subset'
p320
S'NN'
p321
S'I-NP'
p322
g5
tp323
a(S'of'
p324
S'of'
p325
S'IN'
p326
S'B-PP'
p327
g5
tp328
a(S'acute'
p329
S'acute'
p330
S'JJ'
p331
S'B-NP'
p332
g5
tp333
a(S'respiratory'
p334
S'respiratory'
p335
S'JJ'
p336
S'I-NP'
p337
g5
tp338
a(S'distress'
p339
S'distress'
p340
S'NN'
p341
S'I-NP'
p342
g5
tp343
a(S'syndrome'
p344
S'syndrome'
p345
S'NN'
p346
S'I-NP'
p347
g5
tp348
a(S'patients'
p349
S'patient'
p350
S'NNS'
p351
S'I-NP'
p352
g5
tp353
a(S'from'
p354
S'from'
p355
S'IN'
p356
S'B-PP'
p357
g5
tp358
a(S'this'
p359
S'this'
p360
S'DT'
p361
S'B-NP'
p362
g5
tp363
a(S'trial'
p364
S'trial'
p365
S'NN'
p366
S'I-NP'
p367
g5
tp368
a(g27
g27
g27
g5
g5
tp369
a(S'we'
p370
S'we'
p371
S'PRP'
p372
S'B-NP'
p373
g5
tp374
a(S'performed'
p375
S'perform'
p376
S'VBD'
p377
S'B-VP'
p378
g5
tp379
a(g315
g315
S'DT'
p380
S'B-NP'
p381
g5
tp382
a(S'preliminary'
p383
S'preliminary'
p384
S'JJ'
p385
S'I-NP'
p386
g5
tp387
a(S'examination'
p388
S'examination'
p389
S'NN'
p390
S'I-NP'
p391
g5
tp392
a(S'of'
p393
S'of'
p394
S'IN'
p395
S'B-PP'
p396
g5
tp397
a(S'the'
p398
S'the'
p399
S'DT'
p400
S'B-NP'
p401
g5
tp402
a(S'potential'
p403
S'potential'
p404
S'JJ'
p405
S'I-NP'
p406
g5
tp407
a(S'mechanisms'
p408
S'mechanism'
p409
S'NNS'
p410
S'I-NP'
p411
g5
tp412
a(S'underlying'
p413
S'underlie'
p414
S'VBG'
p415
S'B-VP'
p416
g5
tp417
a(S'these'
p418
S'these'
p419
S'DT'
p420
S'B-NP'
p421
g5
tp422
a(S'clinical'
p423
S'clinical'
p424
S'JJ'
p425
S'I-NP'
p426
g5
tp427
a(S'improvements'
p428
S'improvement'
p429
S'NNS'
p430
S'I-NP'
p431
g5
tp432
a(S'by'
p433
S'by'
p434
S'IN'
p435
S'B-PP'
p436
g5
tp437
a(S'retrospectively'
p438
S'retrospectively'
p439
S'RB'
p440
S'B-VP'
p441
g5
tp442
a(S'testing'
p443
S'test'
p444
S'VBG'
p445
S'I-VP'
p446
g5
tp447
a(S'the'
p448
S'the'
p449
S'DT'
p450
S'B-NP'
p451
g5
tp452
a(S'hypothesis'
p453
S'hypothesis'
p454
S'NN'
p455
S'I-NP'
p456
g5
tp457
a(S'that'
p458
S'that'
p459
S'IN'
p460
S'B-SBAR'
p461
g5
tp462
a(S'enteral'
p463
S'enteral'
p464
S'JJ'
p465
S'B-NP'
p466
g5
tp467
a(S'feeding'
p468
S'feeding'
p469
S'NN'
p470
S'I-NP'
p471
g5
tp472
a(S'with'
p473
S'with'
p474
S'IN'
p475
S'B-PP'
p476
g5
tp477
a(S'EPA+GLA'
p478
S'EPA+GLA'
p479
S'NN'
p480
S'B-NP'
p481
S'B-protein'
p482
tp483
a(S'could'
p484
S'could'
p485
S'MD'
p486
S'B-VP'
p487
g5
tp488
a(S'reduce'
p489
S'reduce'
p490
S'VB'
p491
S'I-VP'
p492
g5
tp493
a(S'alveolar-capillary'
p494
S'alveolar-capillary'
p495
S'JJ'
p496
S'B-NP'
p497
g5
tp498
a(S'membrane'
p499
S'membrane'
p500
S'NN'
p501
S'I-NP'
p502
g5
tp503
a(S'protein'
p504
S'protein'
p505
S'NN'
p506
S'I-NP'
p507
g5
tp508
a(S'permeability'
p509
S'permeability'
p510
S'NN'
p511
S'I-NP'
p512
g5
tp513
a(S'and'
p514
S'and'
p515
S'CC'
p516
g5
g5
tp517
a(S'the'
p518
S'the'
p519
S'DT'
p520
S'B-NP'
p521
g5
tp522
a(S'production'
p523
S'production'
p524
S'NN'
p525
S'I-NP'
p526
g5
tp527
a(S'of'
p528
S'of'
p529
S'IN'
p530
S'B-PP'
p531
g5
tp532
a(S'interleukin'
p533
S'interleukin'
p534
S'NN'
p535
S'B-NP'
p536
S'B-protein'
p537
tp538
a(g237
g237
g237
g5
S'I-protein'
p539
tp540
a(S'IL'
p541
S'IL'
p542
S'NN'
p543
S'B-NP'
p544
S'I-protein'
p545
tp546
a(g252
g252
g252
g5
S'I-protein'
p547
tp548
a(S'-8'
p549
S'-8'
p550
S'CD'
p551
S'B-NP'
p552
S'I-protein'
p553
tp554
a(g27
g27
g27
g5
g5
tp555
a(S'IL-6'
p556
S'IL-6'
p557
S'NN'
p558
S'B-NP'
p559
S'B-protein'
p560
tp561
a(g27
g27
g27
g5
g5
tp562
a(S'tumor'
p563
S'tumor'
p564
S'NN'
p565
S'B-NP'
p566
S'B-protein'
p567
tp568
a(S'necrosis'
p569
S'necrosis'
p570
S'NN'
p571
S'I-NP'
p572
S'I-protein'
p573
tp574
a(S'factor-alpha'
p575
S'factor-alpha'
p576
S'NN'
p577
S'I-NP'
p578
S'I-protein'
p579
tp580
a(g27
g27
g27
g5
g5
tp581
a(S'and'
p582
S'and'
p583
S'CC'
p584
g5
g5
tp585
a(S'leukotriene'
p586
S'leukotriene'
p587
S'NN'
p588
S'B-NP'
p589
g5
tp590
a(S'B4'
p591
S'B4'
p592
S'NN'
p593
S'I-NP'
p594
g5
tp595
a(S'that'
p596
S'that'
p597
S'WDT'
p598
S'B-NP'
p599
g5
tp600
a(S'are'
p601
S'be'
p602
S'VBP'
p603
S'B-VP'
p604
g5
tp605
a(S'responsible'
p606
S'responsible'
p607
S'JJ'
p608
S'B-ADJP'
p609
g5
tp610
a(g27
g27
g27
g5
g5
tp611
a(S'in'
p612
S'in'
p613
S'IN'
p614
S'B-PP'
p615
g5
tp616
a(S'part'
p617
S'part'
p618
S'NN'
p619
S'B-NP'
p620
g5
tp621
a(g27
g27
g27
g5
g5
tp622
a(S'for'
p623
S'for'
p624
S'IN'
p625
S'B-PP'
p626
g5
tp627
a(S'pulmonary'
p628
S'pulmonary'
p629
S'JJ'
p630
S'B-NP'
p631
g5
tp632
a(S'inflammation'
p633
S'inflammation'
p634
S'NN'
p635
S'I-NP'
p636
g5
tp637
a(g121
g121
g121
g5
g5
tp638
a(S'DESIGN'
p639
S'DESIGN'
p640
S'NNP'
p641
S'B-NP'
p642
g5
tp643
a(S'Prospective'
p644
S'Prospective'
p645
S'NNP'
p646
S'I-NP'
p647
g5
tp648
a(g27
g27
g27
g5
g5
tp649
a(S'randomized'
p650
S'randomize'
p651
S'VBN'
p652
S'B-NP'
p653
g5
tp654
a(g27
g27
g27
S'I-NP'
p655
g5
tp656
a(S'double-blind'
p657
S'double-blind'
p658
S'JJ'
p659
S'I-NP'
p660
g5
tp661
a(g27
g27
g27
S'I-NP'
p662
g5
tp663
a(S'controlled'
p664
S'controlled'
p665
S'JJ'
p666
S'I-NP'
p667
g5
tp668
a(S'clinical'
p669
S'clinical'
p670
S'JJ'
p671
S'I-NP'
p672
g5
tp673
a(S'trial'
p674
S'trial'
p675
S'NN'
p676
S'I-NP'
p677
g5
tp678
a(g121
g121
g121
g5
g5
tp679
a(S'SETTING'
p680
S'SETTING'
p681
S'VBG'
p682
S'B-VP'
p683
g5
tp684
a(S'Intensive'
p685
S'Intensive'
p686
S'JJ'
p687
S'B-NP'
p688
g5
tp689
a(S'Care'
p690
S'Care'
p691
S'NNP'
p692
S'I-NP'
p693
g5
tp694
a(S'Unit'
p695
S'Unit'
p696
S'NNP'
p697
S'I-NP'
p698
g5
tp699
a(S'of'
p700
S'of'
p701
S'IN'
p702
S'B-PP'
p703
g5
tp704
a(S'the'
p705
S'the'
p706
S'DT'
p707
S'B-NP'
p708
g5
tp709
a(S'Ohio'
p710
S'Ohio'
p711
S'NNP'
p712
S'I-NP'
p713
g5
tp714
a(S'State'
p715
S'State'
p716
S'NNP'
p717
S'I-NP'
p718
g5
tp719
a(S'University'
p720
S'University'
p721
S'NNP'
p722
S'I-NP'
p723
g5
tp724
a(S'Medical'
p725
S'Medical'
p726
S'NNP'
p727
S'I-NP'
p728
g5
tp729
a(S'Center'
p730
S'Center'
p731
S'NNP'
p732
S'I-NP'
p733
g5
tp734
a(g121
g121
g121
g5
g5
tp735
a(S'PATIENTS'
p736
S'PATIENTS'
p737
S'NNS'
p738
S'B-NP'
p739
g5
tp740
a(S'A'
p741
g741
S'DT'
p742
S'B-NP'
p743
g5
tp744
a(S'total'
p745
S'total'
p746
S'NN'
p747
S'I-NP'
p748
g5
tp749
a(S'of'
p750
S'of'
p751
S'IN'
p752
S'B-PP'
p753
g5
tp754
a(S'67'
p755
S'67'
p756
S'CD'
p757
S'B-NP'
p758
g5
tp759
a(S'patients'
p760
S'patient'
p761
S'NNS'
p762
S'I-NP'
p763
g5
tp764
a(S'were'
p765
S'be'
p766
S'VBD'
p767
S'B-VP'
p768
g5
tp769
a(S'enrolled'
p770
S'enrol'
p771
S'VBN'
p772
S'I-VP'
p773
g5
tp774
a(S'who'
p775
S'who'
p776
S'WP'
p777
S'B-NP'
p778
g5
tp779
a(S'met'
p780
S'meet'
p781
S'VBD'
p782
S'B-VP'
p783
g5
tp784
a(S'defined'
p785
S'define'
p786
S'VBN'
p787
S'I-VP'
p788
g5
tp789
a(S'criteria'
p790
S'criterion'
p791
S'NNS'
p792
S'B-NP'
p793
g5
tp794
a(S'for'
p795
S'for'
p796
S'IN'
p797
S'B-PP'
p798
g5
tp799
a(S'acute'
p800
S'acute'
p801
S'JJ'
p802
S'B-NP'
p803
g5
tp804
a(S'lung'
p805
S'lung'
p806
S'NN'
p807
S'I-NP'
p808
g5
tp809
a(S'injury/acute'
p810
S'injury/acute'
p811
S'JJ'
p812
S'I-NP'
p813
g5
tp814
a(S'respiratory'
p815
S'respiratory'
p816
S'JJ'
p817
S'I-NP'
p818
g5
tp819
a(S'distress'
p820
S'distress'
p821
S'NN'
p822
S'I-NP'
p823
g5
tp824
a(S'syndrome'
p825
S'syndrome'
p826
S'NN'
p827
S'I-NP'
p828
g5
tp829
a(g121
g121
g121
g5
g5
tp830
a(S'INTERVENTIONS'
p831
S'INTERVENTIONS'
p832
S'NNS'
p833
S'B-NP'
p834
g5
tp835
a(g741
g741
S'DT'
p836
S'B-NP'
p837
g5
tp838
a(S'total'
p839
S'total'
p840
S'NN'
p841
S'I-NP'
p842
g5
tp843
a(S'of'
p844
S'of'
p845
S'IN'
p846
S'B-PP'
p847
g5
tp848
a(S'43'
p849
S'43'
p850
S'CD'
p851
S'B-NP'
p852
g5
tp853
a(S'of'
p854
S'of'
p855
S'IN'
p856
S'B-PP'
p857
g5
tp858
a(S'67'
p859
S'67'
p860
S'CD'
p861
S'B-NP'
p862
g5
tp863
a(S'evaluable'
p864
S'evaluable'
p865
S'JJ'
p866
S'I-NP'
p867
g5
tp868
a(S'patients'
p869
S'patient'
p870
S'NNS'
p871
S'I-NP'
p872
g5
tp873
a(S'randomly'
p874
S'randomly'
p875
S'RB'
p876
S'B-ADVP'
p877
g5
tp878
a(S'received'
p879
S'receive'
p880
S'VBD'
p881
S'B-VP'
p882
g5
tp883
a(S'either'
p884
S'either'
p885
S'CC'
p886
g5
g5
tp887
a(S'EPA+GLA'
p888
S'EPA+GLA'
p889
S'NN'
p890
S'B-NP'
p891
g5
tp892
a(S'or'
p893
S'or'
p894
S'CC'
p895
g5
g5
tp896
a(S'an'
p897
S'an'
p898
S'DT'
p899
S'B-NP'
p900
g5
tp901
a(S'isonitrogenous'
p902
S'isonitrogenous'
p903
S'JJ'
p904
S'I-NP'
p905
g5
tp906
a(g27
g27
g27
S'I-NP'
p907
g5
tp908
a(S'isocaloric'
p909
S'isocaloric'
p910
S'JJ'
p911
S'I-NP'
p912
g5
tp913
a(S'standard'
p914
S'standard'
p915
S'JJ'
p916
S'I-NP'
p917
g5
tp918
a(S'diet'
p919
S'diet'
p920
S'NN'
p921
S'I-NP'
p922
g5
tp923
a(S'that'
p924
S'that'
p925
S'WDT'
p926
S'B-NP'
p927
g5
tp928
a(S'was'
p929
S'be'
p930
S'VBD'
p931
S'B-VP'
p932
g5
tp933
a(S'tube'
p934
S'tube'
p935
S'NN'
p936
S'B-NP'
p937
g5
tp938
a(S'fed'
p939
S'feed'
p940
S'VBN'
p941
S'B-VP'
p942
g5
tp943
a(S'at'
p944
S'at'
p945
S'IN'
p946
S'B-PP'
p947
g5
tp948
a(g315
g315
S'DT'
p949
S'B-NP'
p950
g5
tp951
a(S'minimum'
p952
S'minimum'
p953
S'JJ'
p954
S'I-NP'
p955
g5
tp956
a(S'caloric'
p957
S'caloric'
p958
S'JJ'
p959
S'I-NP'
p960
g5
tp961
a(S'delivery'
p962
S'delivery'
p963
S'NN'
p964
S'I-NP'
p965
g5
tp966
a(S'of'
p967
S'of'
p968
S'IN'
p969
S'B-PP'
p970
g5
tp971
a(S'75'
p972
S'75'
p973
S'CD'
p974
S'B-NP'
p975
g5
tp976
a(S'%'
p977
g977
S'NN'
p978
S'I-NP'
p979
g5
tp980
a(S'of'
p981
S'of'
p982
S'IN'
p983
S'B-PP'
p984
g5
tp985
a(S'basal'
p986
S'basal'
p987
S'JJ'
p988
S'B-NP'
p989
g5
tp990
a(S'energy'
p991
S'energy'
p992
S'NN'
p993
S'I-NP'
p994
g5
tp995
a(S'expenditure'
p996
S'expenditure'
p997
S'NN'
p998
S'I-NP'
p999
g5
tp1000
a(S'times'
p1001
S'time'
p1002
S'NNS'
p1003
S'I-NP'
p1004
g5
tp1005
a(S'1.33'
p1006
S'1.33'
p1007
S'CD'
p1008
S'I-NP'
p1009
g5
tp1010
a(S'for'
p1011
S'for'
p1012
S'IN'
p1013
S'B-PP'
p1014
g5
tp1015
a(S'at'
p1016
S'at'
p1017
S'IN'
p1018
S'B-NP'
p1019
g5
tp1020
a(S'least'
p1021
S'least'
p1022
S'JJS'
p1023
S'I-NP'
p1024
g5
tp1025
a(S'4'
p1026
g1026
S'CD'
p1027
S'I-NP'
p1028
g5
tp1029
a(S'to'
p1030
S'to'
p1031
S'TO'
p1032
S'I-NP'
p1033
g5
tp1034
a(S'7'
p1035
g1035
S'CD'
p1036
S'I-NP'
p1037
g5
tp1038
a(S'days'
p1039
S'day'
p1040
S'NNS'
p1041
S'I-NP'
p1042
g5
tp1043
a(g121
g121
g121
g5
g5
tp1044
a(S'MEASUREMENTS'
p1045
S'MEASUREMENTS'
p1046
S'NNS'
p1047
S'B-NP'
p1048
g5
tp1049
a(S'AND'
p1050
S'AND'
p1051
S'CC'
p1052
S'I-NP'
p1053
g5
tp1054
a(S'MAIN'
p1055
S'MAIN'
p1056
S'NN'
p1057
S'I-NP'
p1058
g5
tp1059
a(S'RESULTS'
p1060
S'RESULTS'
p1061
S'NNS'
p1062
S'I-NP'
p1063
g5
tp1064
a(S'Bronchoalveolar'
p1065
S'Bronchoalveolar'
p1066
S'JJ'
p1067
S'B-NP'
p1068
g5
tp1069
a(S'lavage'
p1070
S'lavage'
p1071
S'NN'
p1072
S'I-NP'
p1073
g5
tp1074
a(g237
g237
g237
g5
g5
tp1075
a(S'BAL'
p1076
S'BAL'
p1077
S'NN'
p1078
S'B-NP'
p1079
g5
tp1080
a(g252
g252
g252
g5
g5
tp1081
a(S'was'
p1082
S'be'
p1083
S'VBD'
p1084
S'B-VP'
p1085
g5
tp1086
a(S'performed'
p1087
S'perform'
p1088
S'VBN'
p1089
S'I-VP'
p1090
g5
tp1091
a(S'at'
p1092
S'at'
p1093
S'IN'
p1094
S'B-PP'
p1095
g5
tp1096
a(S'baseline'
p1097
S'baseline'
p1098
S'NN'
p1099
S'B-NP'
p1100
g5
tp1101
a(S'and'
p1102
S'and'
p1103
S'CC'
p1104
S'I-NP'
p1105
g5
tp1106
a(S'study'
p1107
S'study'
p1108
S'NN'
p1109
S'I-NP'
p1110
g5
tp1111
a(S'days'
p1112
S'day'
p1113
S'NNS'
p1114
S'I-NP'
p1115
g5
tp1116
a(g1026
g1026
S'CD'
p1117
S'B-NP'
p1118
g5
tp1119
a(S'and'
p1120
S'and'
p1121
S'CC'
p1122
S'I-NP'
p1123
g5
tp1124
a(g1035
g1035
S'CD'
p1125
S'I-NP'
p1126
g5
tp1127
a(S'to'
p1128
S'to'
p1129
S'TO'
p1130
S'B-VP'
p1131
g5
tp1132
a(S'obtain'
p1133
S'obtain'
p1134
S'VB'
p1135
S'I-VP'
p1136
g5
tp1137
a(S'BAL'
p1138
S'BAL'
p1139
S'NN'
p1140
S'B-NP'
p1141
g5
tp1142
a(S'fluid'
p1143
S'fluid'
p1144
S'NN'
p1145
S'I-NP'
p1146
g5
tp1147
a(g237
g237
g237
g5
g5
tp1148
a(S'BALF'
p1149
S'BALF'
p1150
S'NN'
p1151
S'B-NP'
p1152
g5
tp1153
a(g252
g252
g252
g5
g5
tp1154
a(S'for'
p1155
S'for'
p1156
S'IN'
p1157
S'B-PP'
p1158
g5
tp1159
a(S'measurement'
p1160
S'measurement'
p1161
S'NN'
p1162
S'B-NP'
p1163
g5
tp1164
a(S'of'
p1165
S'of'
p1166
S'IN'
p1167
S'B-PP'
p1168
g5
tp1169
a(S'total'
p1170
S'total'
p1171
S'JJ'
p1172
S'B-NP'
p1173
g5
tp1174
a(S'protein'
p1175
S'protein'
p1176
S'NN'
p1177
S'I-NP'
p1178
g5
tp1179
a(g27
g27
g27
g5
g5
tp1180
a(S'ceruloplasmin'
p1181
S'ceruloplasmin'
p1182
S'NN'
p1183
S'B-NP'
p1184
g5
tp1185
a(g27
g27
g27
g5
g5
tp1186
a(S'and'
p1187
S'and'
p1188
S'CC'
p1189
g5
g5
tp1190
a(S'transferrin'
p1191
S'transferrin'
p1192
S'NN'
p1193
S'B-NP'
p1194
S'B-protein'
p1195
tp1196
a(g27
g27
g27
g5
g5
tp1197
a(S'total'
p1198
S'total'
p1199
S'JJ'
p1200
S'B-NP'
p1201
g5
tp1202
a(S'neutrophil'
p1203
S'neutrophil'
p1204
S'NN'
p1205
S'I-NP'
p1206
g5
tp1207
a(S'count'
p1208
S'count'
p1209
S'NN'
p1210
S'I-NP'
p1211
g5
tp1212
a(g27
g27
g27
g5
g5
tp1213
a(S'IL-8'
p1214
S'IL-8'
p1215
S'NN'
p1216
S'B-NP'
p1217
S'B-protein'
p1218
tp1219
a(g27
g27
g27
g5
g5
tp1220
a(S'IL-6'
p1221
S'IL-6'
p1222
S'NN'
p1223
S'B-NP'
p1224
S'B-protein'
p1225
tp1226
a(g27
g27
g27
g5
g5
tp1227
a(S'tumor'
p1228
S'tumor'
p1229
S'NN'
p1230
S'B-NP'
p1231
S'B-protein'
p1232
tp1233
a(S'necrosis'
p1234
S'necrosis'
p1235
S'NN'
p1236
S'I-NP'
p1237
S'I-protein'
p1238
tp1239
a(S'factor-alpha'
p1240
S'factor-alpha'
p1241
S'NN'
p1242
S'I-NP'
p1243
S'I-protein'
p1244
tp1245
a(g27
g27
g27
g5
g5
tp1246
a(S'and'
p1247
S'and'
p1248
S'CC'
p1249
g5
g5
tp1250
a(S'leukotriene'
p1251
S'leukotriene'
p1252
S'NN'
p1253
S'B-NP'
p1254
g5
tp1255
a(S'B4.'
p1256
S'B4.'
p1257
S'NN'
p1258
S'I-NP'
p1259
g5
tp1260
a(S'Oxygenation'
p1261
S'Oxygenation'
p1262
S'NN'
p1263
S'I-NP'
p1264
g5
tp1265
a(g27
g27
g27
g5
g5
tp1266
a(S'measured'
p1267
S'measure'
p1268
S'VBN'
p1269
S'B-VP'
p1270
g5
tp1271
a(S'as'
p1272
S'as'
p1273
S'IN'
p1274
S'B-PP'
p1275
g5
tp1276
a(S'Pao2/Fio2'
p1277
S'Pao2/Fio2'
p1278
S'NN'
p1279
S'B-NP'
p1280
g5
tp1281
a(g27
g27
g27
g5
g5
tp1282
a(S'was'
p1283
S'be'
p1284
S'VBD'
p1285
S'B-VP'
p1286
g5
tp1287
a(S'assessed'
p1288
S'assess'
p1289
S'VBN'
p1290
S'I-VP'
p1291
g5
tp1292
a(S'before'
p1293
S'before'
p1294
S'IN'
p1295
S'B-PP'
p1296
g5
tp1297
a(S'BAL.'
p1298
S'BAL.'
p1299
S'NN'
p1300
S'B-NP'
p1301
g5
tp1302
a(S'Patients'
p1303
S'Patient'
p1304
S'NNS'
p1305
S'I-NP'
p1306
g5
tp1307
a(S'fed'
p1308
S'feed'
p1309
S'VBN'
p1310
S'B-VP'
p1311
g5
tp1312
a(S'EPA+GLA'
p1313
S'EPA+GLA'
p1314
S'NNP'
p1315
S'B-NP'
p1316
g5
tp1317
a(S'had'
p1318
S'have'
p1319
S'VBD'
p1320
S'B-VP'
p1321
g5
tp1322
a(g315
g315
S'DT'
p1323
S'B-NP'
p1324
g5
tp1325
a(S'significant'
p1326
S'significant'
p1327
S'JJ'
p1328
S'I-NP'
p1329
g5
tp1330
a(S'reduction'
p1331
S'reduction'
p1332
S'NN'
p1333
S'I-NP'
p1334
g5
tp1335
a(S'in'
p1336
S'in'
p1337
S'IN'
p1338
S'B-PP'
p1339
g5
tp1340
a(S'BALF'
p1341
S'BALF'
p1342
S'NN'
p1343
S'B-NP'
p1344
g5
tp1345
a(S'ceruloplasmin'
p1346
S'ceruloplasmin'
p1347
S'NN'
p1348
S'I-NP'
p1349
g5
tp1350
a(S'and'
p1351
S'and'
p1352
S'CC'
p1353
S'I-NP'
p1354
g5
tp1355
a(S'IL-8'
p1356
S'IL-8'
p1357
S'NN'
p1358
S'I-NP'
p1359
S'B-protein'
p1360
tp1361
a(S'during'
p1362
S'during'
p1363
S'IN'
p1364
S'B-PP'
p1365
g5
tp1366
a(S'the'
p1367
S'the'
p1368
S'DT'
p1369
S'B-NP'
p1370
g5
tp1371
a(S'study'
p1372
S'study'
p1373
S'NN'
p1374
S'I-NP'
p1375
g5
tp1376
a(S'as'
p1377
S'as'
p1378
S'IN'
p1379
S'B-PP'
p1380
g5
tp1381
a(S'compared'
p1382
S'compare'
p1383
S'VBN'
p1384
S'B-PP'
p1385
g5
tp1386
a(S'with'
p1387
S'with'
p1388
S'IN'
p1389
S'B-PP'
p1390
g5
tp1391
a(S'patients'
p1392
S'patient'
p1393
S'NNS'
p1394
S'B-NP'
p1395
g5
tp1396
a(S'fed'
p1397
S'feed'
p1398
S'VBN'
p1399
S'B-VP'
p1400
g5
tp1401
a(S'the'
p1402
S'the'
p1403
S'DT'
p1404
S'B-NP'
p1405
g5
tp1406
a(S'control'
p1407
S'control'
p1408
S'NN'
p1409
S'I-NP'
p1410
g5
tp1411
a(S'diet.'
p1412
S'diet.'
p1413
S'NN'
p1414
S'I-NP'
p1415
g5
tp1416
a(S'BALF'
p1417
S'BALF'
p1418
S'NN'
p1419
S'I-NP'
p1420
g5
tp1421
a(S'levels'
p1422
S'level'
p1423
S'NNS'
p1424
S'I-NP'
p1425
g5
tp1426
a(S'of'
p1427
S'of'
p1428
S'IN'
p1429
S'B-PP'
p1430
g5
tp1431
a(S'total'
p1432
S'total'
p1433
S'JJ'
p1434
S'B-NP'
p1435
g5
tp1436
a(S'protein'
p1437
S'protein'
p1438
S'NN'
p1439
S'I-NP'
p1440
g5
tp1441
a(g27
g27
g27
g5
g5
tp1442
a(S'neutrophils'
p1443
S'neutrophil'
p1444
S'NNS'
p1445
S'B-NP'
p1446
S'B-cell_type'
p1447
tp1448
a(g27
g27
g27
g5
g5
tp1449
a(S'and'
p1450
S'and'
p1451
S'CC'
p1452
g5
g5
tp1453
a(S'leukotriene'
p1454
S'leukotriene'
p1455
S'NN'
p1456
S'B-NP'
p1457
g5
tp1458
a(S'B4'
p1459
S'B4'
p1460
S'NN'
p1461
S'I-NP'
p1462
g5
tp1463
a(S'tended'
p1464
S'tend'
p1465
S'VBD'
p1466
S'B-VP'
p1467
g5
tp1468
a(S'to'
p1469
S'to'
p1470
S'TO'
p1471
S'I-VP'
p1472
g5
tp1473
a(S'decrease'
p1474
S'decrease'
p1475
S'VB'
p1476
S'I-VP'
p1477
g5
tp1478
a(S'in'
p1479
S'in'
p1480
S'IN'
p1481
S'B-PP'
p1482
g5
tp1483
a(S'EPA+GLA'
p1484
S'EPA+GLA'
p1485
S'NNP'
p1486
S'B-NP'
p1487
g5
tp1488
a(S'patients'
p1489
S'patient'
p1490
S'NNS'
p1491
S'I-NP'
p1492
g5
tp1493
a(S'over'
p1494
S'over'
p1495
S'IN'
p1496
S'B-PP'
p1497
g5
tp1498
a(S'the'
p1499
S'the'
p1500
S'DT'
p1501
S'B-NP'
p1502
g5
tp1503
a(S'course'
p1504
S'course'
p1505
S'NN'
p1506
S'I-NP'
p1507
g5
tp1508
a(S'of'
p1509
S'of'
p1510
S'IN'
p1511
S'B-PP'
p1512
g5
tp1513
a(S'the'
p1514
S'the'
p1515
S'DT'
p1516
S'B-NP'
p1517
g5
tp1518
a(S'study'
p1519
S'study'
p1520
S'NN'
p1521
S'I-NP'
p1522
g5
tp1523
a(S'as'
p1524
S'as'
p1525
S'IN'
p1526
S'B-PP'
p1527
g5
tp1528
a(S'compared'
p1529
S'compare'
p1530
S'VBN'
p1531
S'B-PP'
p1532
g5
tp1533
a(S'with'
p1534
S'with'
p1535
S'IN'
p1536
S'B-PP'
p1537
g5
tp1538
a(S'control'
p1539
S'control'
p1540
S'NN'
p1541
S'B-NP'
p1542
g5
tp1543
a(S'patients.'
p1544
S'patients.'
p1545
S'NN'
p1546
S'I-NP'
p1547
g5
tp1548
a(S'BALF'
p1549
S'BALF'
p1550
S'NN'
p1551
S'I-NP'
p1552
g5
tp1553
a(S'levels'
p1554
S'level'
p1555
S'NNS'
p1556
S'I-NP'
p1557
g5
tp1558
a(S'of'
p1559
S'of'
p1560
S'IN'
p1561
S'B-PP'
p1562
g5
tp1563
a(S'IL-6'
p1564
S'IL-6'
p1565
S'NN'
p1566
S'B-NP'
p1567
S'B-protein'
p1568
tp1569
a(S'declined'
p1570
S'decline'
p1571
S'VBD'
p1572
S'B-VP'
p1573
g5
tp1574
a(S'similarly'
p1575
S'similarly'
p1576
S'RB'
p1577
S'B-ADVP'
p1578
g5
tp1579
a(S'during'
p1580
S'during'
p1581
S'IN'
p1582
S'B-PP'
p1583
g5
tp1584
a(S'the'
p1585
S'the'
p1586
S'DT'
p1587
S'B-NP'
p1588
g5
tp1589
a(S'study'
p1590
S'study'
p1591
S'NN'
p1592
S'I-NP'
p1593
g5
tp1594
a(S'in'
p1595
S'in'
p1596
S'IN'
p1597
S'B-PP'
p1598
g5
tp1599
a(S'both'
p1600
S'both'
p1601
S'CC'
p1602
g5
g5
tp1603
a(S'groups.'
p1604
S'groups.'
p1605
S'NN'
p1606
S'B-NP'
p1607
g5
tp1608
a(g741
g741
S'NN'
p1609
S'I-NP'
p1610
g5
tp1611
a(S'trend'
p1612
S'trend'
p1613
S'NN'
p1614
S'I-NP'
p1615
g5
tp1616
a(S'toward'
p1617
S'toward'
p1618
S'IN'
p1619
S'B-PP'
p1620
g5
tp1621
a(g315
g315
S'DT'
p1622
S'B-NP'
p1623
g5
tp1624
a(S'reduction'
p1625
S'reduction'
p1626
S'NN'
p1627
S'I-NP'
p1628
g5
tp1629
a(S'in'
p1630
S'in'
p1631
S'IN'
p1632
S'B-PP'
p1633
g5
tp1634
a(S'BALF'
p1635
S'BALF'
p1636
S'NN'
p1637
S'B-NP'
p1638
g5
tp1639
a(S'tumor'
p1640
S'tumor'
p1641
S'NN'
p1642
S'I-NP'
p1643
S'B-protein'
p1644
tp1645
a(S'necrosis'
p1646
S'necrosis'
p1647
S'NN'
p1648
S'I-NP'
p1649
S'I-protein'
p1650
tp1651
a(S'factor-alpha'
p1652
S'factor-alpha'
p1653
S'NN'
p1654
S'I-NP'
p1655
S'I-protein'
p1656
tp1657
a(S'was'
p1658
S'be'
p1659
S'VBD'
p1660
S'B-VP'
p1661
g5
tp1662
a(S'observed'
p1663
S'observe'
p1664
S'VBN'
p1665
S'I-VP'
p1666
g5
tp1667
a(S'on'
p1668
S'on'
p1669
S'IN'
p1670
S'B-PP'
p1671
g5
tp1672
a(S'study'
p1673
S'study'
p1674
S'NN'
p1675
S'B-NP'
p1676
g5
tp1677
a(S'day'
p1678
S'day'
p1679
S'NN'
p1680
S'I-NP'
p1681
g5
tp1682
a(g1035
g1035
S'CD'
p1683
S'I-NP'
p1684
g5
tp1685
a(S'in'
p1686
S'in'
p1687
S'IN'
p1688
S'B-PP'
p1689
g5
tp1690
a(S'the'
p1691
S'the'
p1692
S'DT'
p1693
S'B-NP'
p1694
g5
tp1695
a(S'EPA+GLA'
p1696
S'EPA+GLA'
p1697
S'NNP'
p1698
S'I-NP'
p1699
g5
tp1700
a(S'group'
p1701
S'group'
p1702
S'NN'
p1703
S'I-NP'
p1704
g5
tp1705
a(S'as'
p1706
S'as'
p1707
S'IN'
p1708
S'B-PP'
p1709
g5
tp1710
a(S'compared'
p1711
S'compare'
p1712
S'VBN'
p1713
S'B-PP'
p1714
g5
tp1715
a(S'with'
p1716
S'with'
p1717
S'IN'
p1718
S'B-PP'
p1719
g5
tp1720
a(S'control'
p1721
S'control'
p1722
S'NN'
p1723
S'B-NP'
p1724
g5
tp1725
a(S'patients.'
p1726
S'patients.'
p1727
S'NN'
p1728
S'I-NP'
p1729
g5
tp1730
a(S'Significant'
p1731
S'Significant'
p1732
S'JJ'
p1733
S'I-NP'
p1734
g5
tp1735
a(S'improvements'
p1736
S'improvement'
p1737
S'NNS'
p1738
S'I-NP'
p1739
g5
tp1740
a(S'in'
p1741
S'in'
p1742
S'IN'
p1743
S'B-PP'
p1744
g5
tp1745
a(S'oxygenation'
p1746
S'oxygenation'
p1747
S'NN'
p1748
S'B-NP'
p1749
g5
tp1750
a(g237
g237
g237
g5
g5
tp1751
a(S'Pao2/Fio2'
p1752
S'Pao2/Fio2'
p1753
S'NN'
p1754
S'B-NP'
p1755
g5
tp1756
a(g252
g252
g252
g5
g5
tp1757
a(S'occurred'
p1758
S'occur'
p1759
S'VBD'
p1760
S'B-VP'
p1761
g5
tp1762
a(S'in'
p1763
S'in'
p1764
S'IN'
p1765
S'B-PP'
p1766
g5
tp1767
a(S'EPA+GLA'
p1768
S'EPA+GLA'
p1769
S'NN'
p1770
S'B-NP'
p1771
g5
tp1772
a(S'patients'
p1773
S'patient'
p1774
S'NNS'
p1775
S'I-NP'
p1776
g5
tp1777
a(S'on'
p1778
S'on'
p1779
S'IN'
p1780
S'B-PP'
p1781
g5
tp1782
a(S'study'
p1783
S'study'
p1784
S'NN'
p1785
S'B-NP'
p1786
g5
tp1787
a(S'day'
p1788
S'day'
p1789
S'NN'
p1790
S'I-NP'
p1791
g5
tp1792
a(g1026
g1026
S'CD'
p1793
S'I-NP'
p1794
g5
tp1795
a(S'as'
p1796
S'as'
p1797
S'IN'
p1798
S'B-SBAR'
p1799
g5
tp1800
a(S'compared'
p1801
S'compare'
p1802
S'VBN'
p1803
S'B-PP'
p1804
g5
tp1805
a(S'with'
p1806
S'with'
p1807
S'IN'
p1808
S'B-PP'
p1809
g5
tp1810
a(S'controls.'
p1811
S'controls.'
p1812
S'NN'
p1813
S'B-NP'
p1814
g5
tp1815
a(S'Correlation'
p1816
S'Correlation'
p1817
S'NN'
p1818
S'I-NP'
p1819
g5
tp1820
a(S'analysis'
p1821
S'analysis'
p1822
S'NN'
p1823
S'I-NP'
p1824
g5
tp1825
a(S'revealed'
p1826
S'reveal'
p1827
S'VBD'
p1828
S'B-VP'
p1829
g5
tp1830
a(S'significant'
p1831
S'significant'
p1832
S'JJ'
p1833
S'B-NP'
p1834
g5
tp1835
a(S'relationships'
p1836
S'relationship'
p1837
S'NNS'
p1838
S'I-NP'
p1839
g5
tp1840
a(S'between'
p1841
S'between'
p1842
S'IN'
p1843
S'B-PP'
p1844
g5
tp1845
a(S'BALF'
p1846
S'BALF'
p1847
S'NN'
p1848
S'B-NP'
p1849
g5
tp1850
a(S'neutrophil'
p1851
S'neutrophil'
p1852
S'NN'
p1853
S'I-NP'
p1854
g5
tp1855
a(S'counts'
p1856
S'count'
p1857
S'NNS'
p1858
S'I-NP'
p1859
g5
tp1860
a(S'and'
p1861
S'and'
p1862
S'CC'
p1863
S'I-NP'
p1864
g5
tp1865
a(S'indices'
p1866
S'index'
p1867
S'NNS'
p1868
S'I-NP'
p1869
g5
tp1870
a(S'of'
p1871
S'of'
p1872
S'IN'
p1873
S'B-PP'
p1874
g5
tp1875
a(S'alveolar-capillary'
p1876
S'alveolar-capillary'
p1877
S'JJ'
p1878
S'B-NP'
p1879
g5
tp1880
a(S'membrane'
p1881
S'membrane'
p1882
S'NN'
p1883
S'I-NP'
p1884
g5
tp1885
a(S'protein'
p1886
S'protein'
p1887
S'NN'
p1888
S'I-NP'
p1889
g5
tp1890
a(S'permeability'
p1891
S'permeability'
p1892
S'NN'
p1893
S'I-NP'
p1894
g5
tp1895
a(g27
g27
g27
g5
g5
tp1896
a(S'IL-8'
p1897
S'IL-8'
p1898
S'NN'
p1899
S'B-NP'
p1900
S'B-protein'
p1901
tp1902
a(g27
g27
g27
g5
g5
tp1903
a(S'and'
p1904
S'and'
p1905
S'CC'
p1906
g5
g5
tp1907
a(S'leukotriene'
p1908
S'leukotriene'
p1909
S'NN'
p1910
S'B-NP'
p1911
g5
tp1912
a(S'B4'
p1913
S'B4'
p1914
S'NN'
p1915
S'I-NP'
p1916
g5
tp1917
a(g121
g121
g121
g5
g5
tp1918
a(S'CONCLUSIONS'
p1919
S'CONCLUSIONS'
p1920
S'NNS'
p1921
S'B-NP'
p1922
g5
tp1923
a(S'This'
p1924
S'This'
p1925
S'DT'
p1926
S'B-NP'
p1927
g5
tp1928
a(S'preliminary'
p1929
S'preliminary'
p1930
S'JJ'
p1931
S'I-NP'
p1932
g5
tp1933
a(S'investigation'
p1934
S'investigation'
p1935
S'NN'
p1936
S'I-NP'
p1937
g5
tp1938
a(S'showing'
p1939
S'show'
p1940
S'VBG'
p1941
S'B-VP'
p1942
g5
tp1943
a(g315
g315
S'DT'
p1944
S'B-NP'
p1945
g5
tp1946
a(S'decrease'
p1947
S'decrease'
p1948
S'NN'
p1949
S'I-NP'
p1950
g5
tp1951
a(S'in'
p1952
S'in'
p1953
S'IN'
p1954
S'B-PP'
p1955
g5
tp1956
a(S'BALF'
p1957
S'BALF'
p1958
S'NN'
p1959
S'B-NP'
p1960
g5
tp1961
a(S'levels'
p1962
S'level'
p1963
S'NNS'
p1964
S'I-NP'
p1965
g5
tp1966
a(S'of'
p1967
S'of'
p1968
S'IN'
p1969
S'B-PP'
p1970
g5
tp1971
a(S'IL-8'
p1972
S'IL-8'
p1973
S'NN'
p1974
S'B-NP'
p1975
S'B-protein'
p1976
tp1977
a(S'and'
p1978
S'and'
p1979
S'CC'
p1980
S'I-NP'
p1981
g5
tp1982
a(S'leukotriene'
p1983
S'leukotriene'
p1984
S'NN'
p1985
S'I-NP'
p1986
g5
tp1987
a(S'B4'
p1988
S'B4'
p1989
S'NN'
p1990
S'I-NP'
p1991
g5
tp1992
a(S'and'
p1993
S'and'
p1994
S'CC'
p1995
g5
g5
tp1996
a(S'the'
p1997
S'the'
p1998
S'DT'
p1999
S'B-NP'
p2000
g5
tp2001
a(S'associated'
p2002
S'associate'
p2003
S'VBN'
p2004
S'I-NP'
p2005
g5
tp2006
a(S'reduction'
p2007
S'reduction'
p2008
S'NN'
p2009
S'I-NP'
p2010
g5
tp2011
a(S'of'
p2012
S'of'
p2013
S'IN'
p2014
S'B-PP'
p2015
g5
tp2016
a(S'BALF'
p2017
S'BALF'
p2018
S'NN'
p2019
S'B-NP'
p2020
S'B-cell_type'
p2021
tp2022
a(S'neutrophils'
p2023
S'neutrophil'
p2024
S'NNS'
p2025
S'I-NP'
p2026
S'I-cell_type'
p2027
tp2028
a(S'and'
p2029
S'and'
p2030
S'CC'
p2031
g5
g5
tp2032
a(S'alveolar'
p2033
S'alveolar'
p2034
S'JJ'
p2035
S'B-NP'
p2036
g5
tp2037
a(S'membrane'
p2038
S'membrane'
p2039
S'NN'
p2040
S'I-NP'
p2041
g5
tp2042
a(S'protein'
p2043
S'protein'
p2044
S'NN'
p2045
S'I-NP'
p2046
g5
tp2047
a(S'permeability'
p2048
S'permeability'
p2049
S'NN'
p2050
S'I-NP'
p2051
g5
tp2052
a(S'in'
p2053
S'in'
p2054
S'IN'
p2055
S'B-PP'
p2056
g5
tp2057
a(S'acute'
p2058
S'acute'
p2059
S'JJ'
p2060
S'B-NP'
p2061
g5
tp2062
a(S'respiratory'
p2063
S'respiratory'
p2064
S'JJ'
p2065
S'I-NP'
p2066
g5
tp2067
a(S'distress'
p2068
S'distress'
p2069
S'NN'
p2070
S'I-NP'
p2071
g5
tp2072
a(S'syndrome'
p2073
S'syndrome'
p2074
S'NN'
p2075
S'I-NP'
p2076
g5
tp2077
a(S'patients'
p2078
S'patient'
p2079
S'NNS'
p2080
S'I-NP'
p2081
g5
tp2082
a(S'fed'
p2083
S'feed'
p2084
S'VBN'
p2085
S'B-VP'
p2086
g5
tp2087
a(S'EPA+GLA'
p2088
S'EPA+GLA'
p2089
S'NNP'
p2090
S'B-NP'
p2091
g5
tp2092
a(S'support'
p2093
S'support'
p2094
S'NN'
p2095
S'I-NP'
p2096
g5
tp2097
a(g27
g27
g27
g5
g5
tp2098
a(S'in'
p2099
S'in'
p2100
S'IN'
p2101
S'B-PP'
p2102
g5
tp2103
a(S'part'
p2104
S'part'
p2105
S'NN'
p2106
S'B-NP'
p2107
g5
tp2108
a(g27
g27
g27
g5
g5
tp2109
a(S'the'
p2110
S'the'
p2111
S'DT'
p2112
S'B-NP'
p2113
g5
tp2114
a(S'potential'
p2115
S'potential'
p2116
S'JJ'
p2117
S'I-NP'
p2118
g5
tp2119
a(S'mechanisms'
p2120
S'mechanism'
p2121
S'NNS'
p2122
S'I-NP'
p2123
g5
tp2124
a(S'underlying'
p2125
S'underlie'
p2126
S'VBG'
p2127
S'B-VP'
p2128
g5
tp2129
a(S'the'
p2130
S'the'
p2131
S'DT'
p2132
S'B-NP'
p2133
g5
tp2134
a(S'previously'
p2135
S'previously'
p2136
S'RB'
p2137
S'I-NP'
p2138
g5
tp2139
a(S'described'
p2140
S'describe'
p2141
S'VBN'
p2142
S'I-NP'
p2143
g5
tp2144
a(S'clinical'
p2145
S'clinical'
p2146
S'JJ'
p2147
S'I-NP'
p2148
g5
tp2149
a(S'improvements'
p2150
S'improvement'
p2151
S'NNS'
p2152
S'I-NP'
p2153
g5
tp2154
a(S'with'
p2155
S'with'
p2156
S'IN'
p2157
S'B-PP'
p2158
g5
tp2159
a(S'this'
p2160
S'this'
p2161
S'DT'
p2162
S'B-NP'
p2163
g5
tp2164
a(S'diet.'
p2165
S'diet.'
p2166
S'NN'
p2167
S'I-NP'
p2168
g5
tp2169
a(S'Additional'
p2170
S'Additional'
p2171
S'JJ'
p2172
S'I-NP'
p2173
g5
tp2174
a(S'controlled'
p2175
S'controlled'
p2176
S'JJ'
p2177
S'I-NP'
p2178
g5
tp2179
a(S'studies'
p2180
S'study'
p2181
S'NNS'
p2182
S'I-NP'
p2183
g5
tp2184
a(S'are'
p2185
S'be'
p2186
S'VBP'
p2187
S'B-VP'
p2188
g5
tp2189
a(S'needed'
p2190
S'need'
p2191
S'VBN'
p2192
S'I-VP'
p2193
g5
tp2194
a(S'to'
p2195
S'to'
p2196
S'TO'
p2197
S'B-VP'
p2198
g5
tp2199
a(S'confirm'
p2200
S'confirm'
p2201
S'VB'
p2202
S'I-VP'
p2203
g5
tp2204
a(S'these'
p2205
S'these'
p2206
S'DT'
p2207
S'B-NP'
p2208
g5
tp2209
a(S'findings'
p2210
S'finding'
p2211
S'NNS'
p2212
S'I-NP'
p2213
g5
tp2214
a(g121
g121
g121
g5
g5
tp2215
a.