(lp0
(S'Evidence-based'
p1
S'Evidence-based'
p2
S'JJ'
p3
S'B-NP'
p4
S'O'
p5
tp6
a(S'narratives'
p7
S'narrative'
p8
S'NNS'
p9
S'I-NP'
p10
g5
tp11
a(S'to'
p12
S'to'
p13
S'TO'
p14
S'B-VP'
p15
g5
tp16
a(S'improve'
p17
S'improve'
p18
S'VB'
p19
S'I-VP'
p20
g5
tp21
a(S'recall'
p22
S'recall'
p23
S'NN'
p24
S'B-NP'
p25
g5
tp26
a(S'of'
p27
S'of'
p28
S'IN'
p29
S'B-PP'
p30
g5
tp31
a(S'opioid'
p32
S'opioid'
p33
S'JJ'
p34
S'B-NP'
p35
g5
tp36
a(S'prescribing'
p37
S'prescribe'
p38
S'VBG'
p39
S'I-NP'
p40
g5
tp41
a(S'guidelines'
p42
S'guideline'
p43
S'NNS'
p44
S'I-NP'
p45
g5
tp46
a(S':'
p47
g47
g47
g5
g5
tp48
a(S'a'
p49
g49
S'DT'
p50
S'B-NP'
p51
g5
tp52
a(S'randomized'
p53
S'randomize'
p54
S'VBN'
p55
S'I-NP'
p56
g5
tp57
a(S'experiment'
p58
S'experiment'
p59
S'NN'
p60
S'I-NP'
p61
g5
tp62
a(S'.'
p63
g63
g63
g5
g5
tp64
a(S'OBJECTIVES'
p65
S'OBJECTIVES'
p66
S'NNS'
p67
S'B-NP'
p68
g5
tp69
a(S'Physicians'
p70
S'Physician'
p71
S'NNS'
p72
S'I-NP'
p73
g5
tp74
a(S'adopt'
p75
S'adopt'
p76
S'VBP'
p77
S'B-VP'
p78
g5
tp79
a(S'evidence-based'
p80
S'evidence-based'
p81
S'JJ'
p82
S'B-NP'
p83
g5
tp84
a(S'guidelines'
p85
S'guideline'
p86
S'NNS'
p87
S'I-NP'
p88
g5
tp89
a(S'with'
p90
S'with'
p91
S'IN'
p92
S'B-PP'
p93
g5
tp94
a(S'variable'
p95
S'variable'
p96
S'JJ'
p97
S'B-NP'
p98
g5
tp99
a(S'consistency.'
p100
S'consistency.'
p101
S'JJ'
p102
S'I-NP'
p103
g5
tp104
a(S'Narratives'
p105
S'Narrative'
p106
S'NNS'
p107
S'I-NP'
p108
g5
tp109
a(S','
p110
g110
g110
g5
g5
tp111
a(S'or'
p112
S'or'
p113
S'CC'
p114
g5
g5
tp115
a(S'stories'
p116
S'story'
p117
S'NNS'
p118
S'B-NP'
p119
g5
tp120
a(g110
g110
g110
g5
g5
tp121
a(S'offer'
p122
S'offer'
p123
S'VBP'
p124
S'B-VP'
p125
g5
tp126
a(g49
g49
S'DT'
p127
S'B-NP'
p128
g5
tp129
a(S'novel'
p130
S'novel'
p131
S'JJ'
p132
S'I-NP'
p133
g5
tp134
a(S'dissemination'
p135
S'dissemination'
p136
S'NN'
p137
S'I-NP'
p138
g5
tp139
a(S'strategy'
p140
S'strategy'
p141
S'NN'
p142
S'I-NP'
p143
g5
tp144
a(S'for'
p145
S'for'
p146
S'IN'
p147
S'B-PP'
p148
g5
tp149
a(S'clinical'
p150
S'clinical'
p151
S'JJ'
p152
S'B-NP'
p153
g5
tp154
a(S'recommendations.'
p155
S'recommendations.'
p156
S'NN'
p157
S'I-NP'
p158
g5
tp159
a(S'The'
p160
S'The'
p161
S'DT'
p162
S'B-NP'
p163
g5
tp164
a(S'study'
p165
S'study'
p166
S'NN'
p167
S'I-NP'
p168
g5
tp169
a(S'objective'
p170
S'objective'
p171
S'NN'
p172
S'I-NP'
p173
g5
tp174
a(S'was'
p175
S'be'
p176
S'VBD'
p177
S'B-VP'
p178
g5
tp179
a(S'to'
p180
S'to'
p181
S'TO'
p182
S'B-VP'
p183
g5
tp184
a(S'compare'
p185
S'compare'
p186
S'VB'
p187
S'I-VP'
p188
g5
tp189
a(S'whether'
p190
S'whether'
p191
S'IN'
p192
S'B-SBAR'
p193
g5
tp194
a(S'evidence-based'
p195
S'evidence-based'
p196
S'JJ'
p197
S'B-NP'
p198
g5
tp199
a(S'narrative'
p200
S'narrative'
p201
S'JJ'
p202
S'I-NP'
p203
g5
tp204
a(S'versus'
p205
S'versus'
p206
S'IN'
p207
S'B-PP'
p208
g5
tp209
a(S'traditional'
p210
S'traditional'
p211
S'JJ'
p212
S'B-NP'
p213
g5
tp214
a(S'summary'
p215
S'summary'
p216
S'NN'
p217
S'I-NP'
p218
g5
tp219
a(S'improved'
p220
S'improve'
p221
S'VBD'
p222
S'B-VP'
p223
g5
tp224
a(S'recall'
p225
S'recall'
p226
S'NN'
p227
S'B-NP'
p228
g5
tp229
a(S'of'
p230
S'of'
p231
S'IN'
p232
S'B-PP'
p233
g5
tp234
a(S'opioid'
p235
S'opioid'
p236
S'JJ'
p237
S'B-NP'
p238
g5
tp239
a(S'prescribing'
p240
S'prescribe'
p241
S'VBG'
p242
S'I-NP'
p243
g5
tp244
a(S'guidelines'
p245
S'guideline'
p246
S'NNS'
p247
S'I-NP'
p248
g5
tp249
a(S'from'
p250
S'from'
p251
S'IN'
p252
S'B-PP'
p253
g5
tp254
a(S'the'
p255
S'the'
p256
S'DT'
p257
S'B-NP'
p258
g5
tp259
a(S'American'
p260
S'American'
p261
S'NNP'
p262
S'I-NP'
p263
g5
tp264
a(S'College'
p265
S'College'
p266
S'NNP'
p267
S'I-NP'
p268
g5
tp269
a(S'of'
p270
S'of'
p271
S'IN'
p272
S'B-PP'
p273
g5
tp274
a(S'Emergency'
p275
S'Emergency'
p276
S'NNP'
p277
S'B-NP'
p278
g5
tp279
a(S'Physicians'
p280
S'Physicians'
p281
S'NNP'
p282
S'I-NP'
p283
g5
tp284
a(S'('
p285
g285
g285
g5
g5
tp286
a(S'ACEP'
p287
S'ACEP'
p288
S'NN'
p289
S'B-NP'
p290
S'B-protein'
p291
tp292
a(S')'
p293
g293
g293
g5
g5
tp294
a(g63
g63
g63
g5
g5
tp295
a(S'METHODS'
p296
S'METHODS'
p297
S'NNS'
p298
S'B-NP'
p299
g5
tp300
a(S'This'
p301
S'This'
p302
S'DT'
p303
g5
g5
tp304
a(S'was'
p305
S'be'
p306
S'VBD'
p307
S'B-VP'
p308
g5
tp309
a(g49
g49
S'DT'
p310
S'B-NP'
p311
g5
tp312
a(S'prospective'
p313
S'prospective'
p314
S'JJ'
p315
S'I-NP'
p316
g5
tp317
a(g110
g110
g110
g5
g5
tp318
a(S'randomized'
p319
S'randomize'
p320
S'VBN'
p321
S'B-VP'
p322
g5
tp323
a(S'controlled'
p324
S'control'
p325
S'VBN'
p326
S'B-NP'
p327
g5
tp328
a(S'experiment'
p329
S'experiment'
p330
S'NN'
p331
S'I-NP'
p332
g5
tp333
a(S'to'
p334
S'to'
p335
S'TO'
p336
S'B-VP'
p337
g5
tp338
a(S'compare'
p339
S'compare'
p340
S'VB'
p341
S'I-VP'
p342
g5
tp343
a(S'whether'
p344
S'whether'
p345
S'IN'
p346
S'B-SBAR'
p347
g5
tp348
a(S'narrative'
p349
S'narrative'
p350
S'JJ'
p351
S'B-NP'
p352
g5
tp353
a(S'versus'
p354
S'versus'
p355
S'CC'
p356
S'I-NP'
p357
g5
tp358
a(S'summary'
p359
S'summary'
p360
S'NN'
p361
S'I-NP'
p362
g5
tp363
a(S'promoted'
p364
S'promote'
p365
S'VBD'
p366
S'B-VP'
p367
g5
tp368
a(S'short-term'
p369
S'short-term'
p370
S'JJ'
p371
S'B-NP'
p372
g5
tp373
a(S'recall'
p374
S'recall'
p375
S'NN'
p376
S'I-NP'
p377
g5
tp378
a(S'of'
p379
S'of'
p380
S'IN'
p381
S'B-PP'
p382
g5
tp383
a(S'six'
p384
S'six'
p385
S'CD'
p386
S'B-NP'
p387
g5
tp388
a(S'themes'
p389
S'theme'
p390
S'NNS'
p391
S'I-NP'
p392
g5
tp393
a(S'contained'
p394
S'contain'
p395
S'VBN'
p396
S'B-VP'
p397
g5
tp398
a(S'in'
p399
S'in'
p400
S'IN'
p401
S'B-PP'
p402
g5
tp403
a(S'the'
p404
S'the'
p405
S'DT'
p406
S'B-NP'
p407
g5
tp408
a(S'ACEP'
p409
S'ACEP'
p410
S'NN'
p411
S'I-NP'
p412
g5
tp413
a(S'opioid'
p414
S'opioid'
p415
S'JJ'
p416
S'I-NP'
p417
g5
tp418
a(S'guideline.'
p419
S'guideline.'
p420
S'NN'
p421
S'I-NP'
p422
g5
tp423
a(S'The'
p424
S'The'
p425
S'DT'
p426
S'B-NP'
p427
g5
tp428
a(S'experiment'
p429
S'experiment'
p430
S'NN'
p431
S'I-NP'
p432
g5
tp433
a(S'was'
p434
S'be'
p435
S'VBD'
p436
S'B-VP'
p437
g5
tp438
a(S'modeled'
p439
S'model'
p440
S'VBN'
p441
S'I-VP'
p442
g5
tp443
a(S'after'
p444
S'after'
p445
S'IN'
p446
S'B-PP'
p447
g5
tp448
a(S'the'
p449
S'the'
p450
S'DT'
p451
S'B-NP'
p452
g5
tp453
a(S'free-recall'
p454
S'free-recall'
p455
S'JJ'
p456
S'I-NP'
p457
g5
tp458
a(S'test'
p459
S'test'
p460
S'NN'
p461
S'I-NP'
p462
g5
tp463
a(g110
g110
g110
g5
g5
tp464
a(S'an'
p465
S'an'
p466
S'DT'
p467
S'B-NP'
p468
g5
tp469
a(S'established'
p470
S'established'
p471
S'JJ'
p472
S'I-NP'
p473
g5
tp474
a(S'technique'
p475
S'technique'
p476
S'NN'
p477
S'I-NP'
p478
g5
tp479
a(S'in'
p480
S'in'
p481
S'IN'
p482
S'B-PP'
p483
g5
tp484
a(S'studies'
p485
S'study'
p486
S'NNS'
p487
S'B-NP'
p488
g5
tp489
a(S'of'
p490
S'of'
p491
S'IN'
p492
S'B-PP'
p493
g5
tp494
a(S'memory.'
p495
S'memory.'
p496
S'NN'
p497
S'B-NP'
p498
g5
tp499
a(S'At'
p500
S'At'
p501
S'IN'
p502
S'B-PP'
p503
g5
tp504
a(g49
g49
S'DT'
p505
S'B-NP'
p506
g5
tp507
a(S'regional'
p508
S'regional'
p509
S'JJ'
p510
S'I-NP'
p511
g5
tp512
a(S'conference'
p513
S'conference'
p514
S'NN'
p515
S'I-NP'
p516
g5
tp517
a(g110
g110
g110
g5
g5
tp518
a(S'emergency'
p519
S'emergency'
p520
S'NN'
p521
S'B-NP'
p522
g5
tp523
a(S'physicians'
p524
S'physician'
p525
S'NNS'
p526
S'I-NP'
p527
g5
tp528
a(g285
g285
g285
g5
g5
tp529
a(S'EPs'
p530
S'EP'
p531
S'NNS'
p532
S'B-NP'
p533
S'B-protein'
p534
tp535
a(g293
g293
g293
g5
g5
tp536
a(S'were'
p537
S'be'
p538
S'VBD'
p539
S'B-VP'
p540
g5
tp541
a(S'randomized'
p542
S'randomize'
p543
S'VBN'
p544
S'I-VP'
p545
g5
tp546
a(S'to'
p547
S'to'
p548
S'TO'
p549
S'B-VP'
p550
g5
tp551
a(S'read'
p552
S'read'
p553
S'VB'
p554
S'I-VP'
p555
g5
tp556
a(S'either'
p557
S'either'
p558
S'CC'
p559
g5
g5
tp560
a(g49
g49
S'DT'
p561
S'B-NP'
p562
g5
tp563
a(S'summary'
p564
S'summary'
p565
S'NN'
p566
S'I-NP'
p567
g5
tp568
a(S'of'
p569
S'of'
p570
S'IN'
p571
S'B-PP'
p572
g5
tp573
a(S'the'
p574
S'the'
p575
S'DT'
p576
S'B-NP'
p577
g5
tp578
a(S'guideline'
p579
S'guideline'
p580
S'NN'
p581
S'I-NP'
p582
g5
tp583
a(g285
g285
g285
g5
g5
tp584
a(S'control'
p585
S'control'
p586
S'NN'
p587
S'B-NP'
p588
g5
tp589
a(g293
g293
g293
g5
g5
tp590
a(S'or'
p591
S'or'
p592
S'CC'
p593
g5
g5
tp594
a(g49
g49
S'DT'
p595
S'B-NP'
p596
g5
tp597
a(S'narrative'
p598
S'narrative'
p599
S'JJ'
p600
S'I-NP'
p601
g5
tp602
a(g285
g285
g285
g5
g5
tp603
a(S'intervention'
p604
S'intervention'
p605
S'NN'
p606
S'B-NP'
p607
g5
tp608
a(g293
g293
g293
g5
g5
tp609
a(g63
g63
g63
g5
g5
tp610
a(S'The'
p611
S'The'
p612
S'DT'
p613
S'B-NP'
p614
g5
tp615
a(S'fictional'
p616
S'fictional'
p617
S'JJ'
p618
S'I-NP'
p619
g5
tp620
a(S'narrative'
p621
S'narrative'
p622
S'NN'
p623
S'I-NP'
p624
g5
tp625
a(S'was'
p626
S'be'
p627
S'VBD'
p628
S'B-VP'
p629
g5
tp630
a(S'constructed'
p631
S'construct'
p632
S'VBN'
p633
S'I-VP'
p634
g5
tp635
a(S'to'
p636
S'to'
p637
S'TO'
p638
S'B-VP'
p639
g5
tp640
a(S'match'
p641
S'match'
p642
S'VB'
p643
S'I-VP'
p644
g5
tp645
a(S'the'
p646
S'the'
p647
S'DT'
p648
S'B-NP'
p649
g5
tp650
a(S'summary'
p651
S'summary'
p652
S'NN'
p653
S'I-NP'
p654
g5
tp655
a(S'in'
p656
S'in'
p657
S'IN'
p658
S'B-PP'
p659
g5
tp660
a(S'content'
p661
S'content'
p662
S'NN'
p663
S'B-NP'
p664
g5
tp665
a(S'and'
p666
S'and'
p667
S'CC'
p668
g5
g5
tp669
a(S'length.'
p670
S'length.'
p671
S'NN'
p672
S'B-NP'
p673
g5
tp674
a(S'One'
p675
S'One'
p676
S'CD'
p677
S'I-NP'
p678
g5
tp679
a(S'hour'
p680
S'hour'
p681
S'NN'
p682
S'I-NP'
p683
g5
tp684
a(S'after'
p685
S'after'
p686
S'IN'
p687
S'B-PP'
p688
g5
tp689
a(S'reading'
p690
S'read'
p691
S'VBG'
p692
S'B-VP'
p693
g5
tp694
a(S'the'
p695
S'the'
p696
S'DT'
p697
S'B-NP'
p698
g5
tp699
a(S'text'
p700
S'text'
p701
S'NN'
p702
S'I-NP'
p703
g5
tp704
a(g110
g110
g110
g5
g5
tp705
a(S'participants'
p706
S'participant'
p707
S'NNS'
p708
S'B-NP'
p709
g5
tp710
a(S'listed'
p711
S'list'
p712
S'VBD'
p713
S'B-VP'
p714
g5
tp715
a(S'all'
p716
S'all'
p717
S'DT'
p718
S'B-NP'
p719
g5
tp720
a(S'content'
p721
S'content'
p722
S'NN'
p723
S'I-NP'
p724
g5
tp725
a(S'that'
p726
S'that'
p727
S'IN'
p728
S'B-SBAR'
p729
g5
tp730
a(S'they'
p731
S'they'
p732
S'PRP'
p733
S'B-NP'
p734
g5
tp735
a(S'could'
p736
S'could'
p737
S'MD'
p738
S'B-VP'
p739
g5
tp740
a(S'recall.'
p741
S'recall.'
p742
S'VB'
p743
S'I-VP'
p744
g5
tp745
a(S'Two'
p746
S'Two'
p747
S'CD'
p748
S'B-NP'
p749
g5
tp750
a(S'reviewers'
p751
S'reviewer'
p752
S'NNS'
p753
S'I-NP'
p754
g5
tp755
a(S'independently'
p756
S'independently'
p757
S'RB'
p758
S'B-ADVP'
p759
g5
tp760
a(S'scored'
p761
S'score'
p762
S'VBD'
p763
S'B-VP'
p764
g5
tp765
a(S'the'
p766
S'the'
p767
S'DT'
p768
S'B-NP'
p769
g5
tp770
a(S'responses'
p771
S'response'
p772
S'NNS'
p773
S'I-NP'
p774
g5
tp775
a(S'to'
p776
S'to'
p777
S'TO'
p778
S'B-VP'
p779
g5
tp780
a(S'assess'
p781
S'assess'
p782
S'VB'
p783
S'I-VP'
p784
g5
tp785
a(S'recall'
p786
S'recall'
p787
S'NN'
p788
S'B-NP'
p789
g5
tp790
a(S'of'
p791
S'of'
p792
S'IN'
p793
S'B-PP'
p794
g5
tp795
a(S'the'
p796
S'the'
p797
S'DT'
p798
S'B-NP'
p799
g5
tp800
a(S'six'
p801
S'six'
p802
S'CD'
p803
S'I-NP'
p804
g5
tp805
a(S'themes.'
p806
S'themes.'
p807
S'NN'
p808
S'I-NP'
p809
g5
tp810
a(S'The'
p811
S'The'
p812
S'DT'
p813
S'B-NP'
p814
g5
tp815
a(S'primary'
p816
S'primary'
p817
S'JJ'
p818
S'I-NP'
p819
g5
tp820
a(S'outcome'
p821
S'outcome'
p822
S'NN'
p823
S'I-NP'
p824
g5
tp825
a(S'was'
p826
S'be'
p827
S'VBD'
p828
S'B-VP'
p829
g5
tp830
a(S'the'
p831
S'the'
p832
S'DT'
p833
S'B-NP'
p834
g5
tp835
a(S'total'
p836
S'total'
p837
S'JJ'
p838
S'I-NP'
p839
g5
tp840
a(S'number'
p841
S'number'
p842
S'NN'
p843
S'I-NP'
p844
g5
tp845
a(S'of'
p846
S'of'
p847
S'IN'
p848
S'B-PP'
p849
g5
tp850
a(S'themes'
p851
S'theme'
p852
S'NNS'
p853
S'B-NP'
p854
g5
tp855
a(S'recalled'
p856
S'recall'
p857
S'VBN'
p858
S'B-VP'
p859
g5
tp860
a(S'per'
p861
S'per'
p862
S'IN'
p863
S'B-PP'
p864
g5
tp865
a(S'participant.'
p866
S'participant.'
p867
S'FW'
p868
S'B-NP'
p869
g5
tp870
a(S'Secondary'
p871
S'Secondary'
p872
S'JJ'
p873
S'B-NP'
p874
g5
tp875
a(S'outcomes'
p876
S'outcome'
p877
S'NNS'
p878
S'I-NP'
p879
g5
tp880
a(S'included'
p881
S'include'
p882
S'VBD'
p883
S'B-VP'
p884
g5
tp885
a(S'the'
p886
S'the'
p887
S'DT'
p888
S'B-NP'
p889
g5
tp890
a(S'proportion'
p891
S'proportion'
p892
S'NN'
p893
S'I-NP'
p894
g5
tp895
a(S'of'
p896
S'of'
p897
S'IN'
p898
S'B-PP'
p899
g5
tp900
a(S'responses'
p901
S'response'
p902
S'NNS'
p903
S'B-NP'
p904
g5
tp905
a(S'in'
p906
S'in'
p907
S'IN'
p908
S'B-PP'
p909
g5
tp910
a(S'each'
p911
S'each'
p912
S'DT'
p913
S'B-NP'
p914
g5
tp915
a(S'study'
p916
S'study'
p917
S'NN'
p918
S'I-NP'
p919
g5
tp920
a(S'arm'
p921
S'arm'
p922
S'NN'
p923
S'I-NP'
p924
g5
tp925
a(S'that'
p926
S'that'
p927
S'WDT'
p928
S'B-NP'
p929
g5
tp930
a(S'recalled'
p931
S'recall'
p932
S'VBD'
p933
S'B-VP'
p934
g5
tp935
a(S'individual'
p936
S'individual'
p937
S'JJ'
p938
S'B-NP'
p939
g5
tp940
a(S'themes'
p941
S'theme'
p942
S'NNS'
p943
S'I-NP'
p944
g5
tp945
a(S'and'
p946
S'and'
p947
S'CC'
p948
g5
g5
tp949
a(S'the'
p950
S'the'
p951
S'DT'
p952
S'B-NP'
p953
g5
tp954
a(S'proportion'
p955
S'proportion'
p956
S'NN'
p957
S'I-NP'
p958
g5
tp959
a(S'of'
p960
S'of'
p961
S'IN'
p962
S'B-PP'
p963
g5
tp964
a(S'responses'
p965
S'response'
p966
S'NNS'
p967
S'B-NP'
p968
g5
tp969
a(S'in'
p970
S'in'
p971
S'IN'
p972
S'B-PP'
p973
g5
tp974
a(S'each'
p975
S'each'
p976
S'DT'
p977
S'B-NP'
p978
g5
tp979
a(S'arm'
p980
S'arm'
p981
S'NN'
p982
S'I-NP'
p983
g5
tp984
a(S'that'
p985
S'that'
p986
S'WDT'
p987
S'B-NP'
p988
g5
tp989
a(S'contained'
p990
S'contain'
p991
S'VBD'
p992
S'B-VP'
p993
g5
tp994
a(S'falsely'
p995
S'falsely'
p996
S'RB'
p997
S'I-VP'
p998
g5
tp999
a(S'recalled'
p1000
S'recall'
p1001
S'VBN'
p1002
S'I-VP'
p1003
g5
tp1004
a(S'or'
p1005
S'or'
p1006
S'CC'
p1007
g5
g5
tp1008
a(S'extraneous'
p1009
S'extraneous'
p1010
S'JJ'
p1011
S'B-NP'
p1012
g5
tp1013
a(S'information'
p1014
S'information'
p1015
S'NN'
p1016
S'I-NP'
p1017
g5
tp1018
a(g63
g63
g63
g5
g5
tp1019
a(S'RESULTS'
p1020
S'RESULTS'
p1021
S'NNS'
p1022
S'B-NP'
p1023
g5
tp1024
a(S'Ninety-five'
p1025
S'Ninety-five'
p1026
S'CD'
p1027
S'B-NP'
p1028
g5
tp1029
a(S'physicians'
p1030
S'physician'
p1031
S'NNS'
p1032
S'I-NP'
p1033
g5
tp1034
a(S'were'
p1035
S'be'
p1036
S'VBD'
p1037
S'B-VP'
p1038
g5
tp1039
a(S'randomized.'
p1040
S'randomized.'
p1041
S'VBN'
p1042
S'I-VP'
p1043
g5
tp1044
a(S'Eighty-two'
p1045
S'Eighty-two'
p1046
S'CD'
p1047
S'B-NP'
p1048
g5
tp1049
a(S'physicians'
p1050
S'physician'
p1051
S'NNS'
p1052
S'I-NP'
p1053
g5
tp1054
a(S'completed'
p1055
S'complete'
p1056
S'VBD'
p1057
S'B-VP'
p1058
g5
tp1059
a(S'the'
p1060
S'the'
p1061
S'DT'
p1062
S'B-NP'
p1063
g5
tp1064
a(S'experiment'
p1065
S'experiment'
p1066
S'NN'
p1067
S'I-NP'
p1068
g5
tp1069
a(g110
g110
g110
g5
g5
tp1070
a(S'for'
p1071
S'for'
p1072
S'IN'
p1073
S'B-PP'
p1074
g5
tp1075
a(g49
g49
S'DT'
p1076
S'B-NP'
p1077
g5
tp1078
a(S'response'
p1079
S'response'
p1080
S'NN'
p1081
S'I-NP'
p1082
g5
tp1083
a(S'rate'
p1084
S'rate'
p1085
S'NN'
p1086
S'I-NP'
p1087
g5
tp1088
a(S'of'
p1089
S'of'
p1090
S'IN'
p1091
S'B-PP'
p1092
g5
tp1093
a(S'86'
p1094
S'86'
p1095
S'CD'
p1096
S'B-NP'
p1097
g5
tp1098
a(S'%'
p1099
g1099
S'NN'
p1100
S'I-NP'
p1101
g5
tp1102
a(g63
g63
g63
g5
g5
tp1103
a(S'The'
p1104
S'The'
p1105
S'DT'
p1106
S'B-NP'
p1107
g5
tp1108
a(S'mean'
p1109
S'mean'
p1110
S'NN'
p1111
S'I-NP'
p1112
g5
tp1113
a(S'of'
p1114
S'of'
p1115
S'IN'
p1116
S'B-PP'
p1117
g5
tp1118
a(S'the'
p1119
S'the'
p1120
S'DT'
p1121
S'B-NP'
p1122
g5
tp1123
a(S'total'
p1124
S'total'
p1125
S'JJ'
p1126
S'I-NP'
p1127
g5
tp1128
a(S'number'
p1129
S'number'
p1130
S'NN'
p1131
S'I-NP'
p1132
g5
tp1133
a(S'of'
p1134
S'of'
p1135
S'IN'
p1136
S'B-PP'
p1137
g5
tp1138
a(S'themes'
p1139
S'theme'
p1140
S'NNS'
p1141
S'B-NP'
p1142
g5
tp1143
a(S'recalled'
p1144
S'recall'
p1145
S'VBN'
p1146
S'B-VP'
p1147
g5
tp1148
a(S'per'
p1149
S'per'
p1150
S'IN'
p1151
S'B-PP'
p1152
g5
tp1153
a(S'participant'
p1154
S'participant'
p1155
S'NN'
p1156
S'B-NP'
p1157
g5
tp1158
a(S'was'
p1159
S'be'
p1160
S'VBD'
p1161
S'B-VP'
p1162
g5
tp1163
a(S'3.1'
p1164
S'3.1'
p1165
S'CD'
p1166
S'B-NP'
p1167
g5
tp1168
a(S'in'
p1169
S'in'
p1170
S'IN'
p1171
S'B-PP'
p1172
g5
tp1173
a(S'the'
p1174
S'the'
p1175
S'DT'
p1176
S'B-NP'
p1177
g5
tp1178
a(S'narrative'
p1179
S'narrative'
p1180
S'JJ'
p1181
S'I-NP'
p1182
g5
tp1183
a(S'arm'
p1184
S'arm'
p1185
S'NN'
p1186
S'I-NP'
p1187
g5
tp1188
a(S'versus'
p1189
S'versus'
p1190
S'IN'
p1191
S'B-PP'
p1192
g5
tp1193
a(S'2.0'
p1194
S'2.0'
p1195
S'CD'
p1196
S'B-NP'
p1197
g5
tp1198
a(S'in'
p1199
S'in'
p1200
S'IN'
p1201
S'B-PP'
p1202
g5
tp1203
a(S'the'
p1204
S'the'
p1205
S'DT'
p1206
S'B-NP'
p1207
g5
tp1208
a(S'summary'
p1209
S'summary'
p1210
S'NN'
p1211
S'I-NP'
p1212
g5
tp1213
a(S'arm'
p1214
S'arm'
p1215
S'NN'
p1216
S'I-NP'
p1217
g5
tp1218
a(g285
g285
g285
g5
g5
tp1219
a(S'difference'
p1220
S'difference'
p1221
S'NN'
p1222
S'B-NP'
p1223
g5
tp1224
a(S'='
p1225
g1225
S'SYM'
p1226
S'B-VP'
p1227
g5
tp1228
a(S'1.1'
p1229
S'1.1'
p1230
S'CD'
p1231
S'B-NP'
p1232
g5
tp1233
a(g110
g110
g110
g5
g5
tp1234
a(S'95'
p1235
S'95'
p1236
S'CD'
p1237
S'B-NP'
p1238
g5
tp1239
a(g1099
g1099
S'NN'
p1240
S'I-NP'
p1241
g5
tp1242
a(S'confidence'
p1243
S'confidence'
p1244
S'NN'
p1245
S'I-NP'
p1246
g5
tp1247
a(S'interval'
p1248
S'interval'
p1249
S'NN'
p1250
S'I-NP'
p1251
g5
tp1252
a(S'['
p1253
g1253
g285
g5
g5
tp1254
a(S'CI'
p1255
S'CI'
p1256
S'NN'
p1257
S'B-NP'
p1258
g5
tp1259
a(S']'
p1260
g1260
g293
g5
g5
tp1261
a(g1225
g1225
S'SYM'
p1262
S'B-VP'
p1263
g5
tp1264
a(S'0.6'
p1265
S'0.6'
p1266
S'CD'
p1267
S'B-NP'
p1268
g5
tp1269
a(S'to'
p1270
S'to'
p1271
S'TO'
p1272
S'B-PP'
p1273
g5
tp1274
a(S'1.7'
p1275
S'1.7'
p1276
S'CD'
p1277
S'B-NP'
p1278
g5
tp1279
a(g293
g293
g293
g5
g5
tp1280
a(g63
g63
g63
g5
g5
tp1281
a(S'For'
p1282
S'For'
p1283
S'IN'
p1284
S'B-PP'
p1285
g5
tp1286
a(S'three'
p1287
S'three'
p1288
S'CD'
p1289
S'B-NP'
p1290
g5
tp1291
a(S'themes'
p1292
S'theme'
p1293
S'NNS'
p1294
S'I-NP'
p1295
g5
tp1296
a(g110
g110
g110
g5
g5
tp1297
a(S'the'
p1298
S'the'
p1299
S'DT'
p1300
S'B-NP'
p1301
g5
tp1302
a(S'proportion'
p1303
S'proportion'
p1304
S'NN'
p1305
S'I-NP'
p1306
g5
tp1307
a(S'of'
p1308
S'of'
p1309
S'IN'
p1310
S'B-PP'
p1311
g5
tp1312
a(S'responses'
p1313
S'response'
p1314
S'NNS'
p1315
S'B-NP'
p1316
g5
tp1317
a(S'that'
p1318
S'that'
p1319
S'WDT'
p1320
S'B-NP'
p1321
g5
tp1322
a(S'recalled'
p1323
S'recall'
p1324
S'VBD'
p1325
S'B-VP'
p1326
g5
tp1327
a(S'the'
p1328
S'the'
p1329
S'DT'
p1330
S'B-NP'
p1331
g5
tp1332
a(S'theme'
p1333
S'theme'
p1334
S'NN'
p1335
S'I-NP'
p1336
g5
tp1337
a(S'was'
p1338
S'be'
p1339
S'VBD'
p1340
S'B-VP'
p1341
g5
tp1342
a(S'significantly'
p1343
S'significantly'
p1344
S'RB'
p1345
S'B-ADJP'
p1346
g5
tp1347
a(S'greater'
p1348
S'great'
p1349
S'JJR'
p1350
S'I-ADJP'
p1351
g5
tp1352
a(S'in'
p1353
S'in'
p1354
S'IN'
p1355
S'B-PP'
p1356
g5
tp1357
a(S'the'
p1358
S'the'
p1359
S'DT'
p1360
S'B-NP'
p1361
g5
tp1362
a(S'narrative'
p1363
S'narrative'
p1364
S'JJ'
p1365
S'I-NP'
p1366
g5
tp1367
a(S'arm'
p1368
S'arm'
p1369
S'NN'
p1370
S'I-NP'
p1371
g5
tp1372
a(S'compared'
p1373
S'compare'
p1374
S'VBN'
p1375
S'B-VP'
p1376
g5
tp1377
a(S'to'
p1378
S'to'
p1379
S'TO'
p1380
S'B-PP'
p1381
g5
tp1382
a(S'the'
p1383
S'the'
p1384
S'DT'
p1385
S'B-NP'
p1386
g5
tp1387
a(S'summary'
p1388
S'summary'
p1389
S'NN'
p1390
S'I-NP'
p1391
g5
tp1392
a(S'arm'
p1393
S'arm'
p1394
S'NN'
p1395
S'I-NP'
p1396
g5
tp1397
a(g110
g110
g110
g5
g5
tp1398
a(S'with'
p1399
S'with'
p1400
S'IN'
p1401
S'B-PP'
p1402
g5
tp1403
a(S'the'
p1404
S'the'
p1405
S'DT'
p1406
S'B-NP'
p1407
g5
tp1408
a(S'differences'
p1409
S'difference'
p1410
S'NNS'
p1411
S'I-NP'
p1412
g5
tp1413
a(S'ranging'
p1414
S'range'
p1415
S'VBG'
p1416
S'B-VP'
p1417
g5
tp1418
a(S'from'
p1419
S'from'
p1420
S'IN'
p1421
S'B-PP'
p1422
g5
tp1423
a(S'20'
p1424
S'20'
p1425
S'CD'
p1426
S'B-NP'
p1427
g5
tp1428
a(g1099
g1099
S'NN'
p1429
S'I-NP'
p1430
g5
tp1431
a(S'to'
p1432
S'to'
p1433
S'TO'
p1434
S'B-PP'
p1435
g5
tp1436
a(S'51'
p1437
S'51'
p1438
S'CD'
p1439
S'B-NP'
p1440
g5
tp1441
a(g1099
g1099
S'NN'
p1442
S'I-NP'
p1443
g5
tp1444
a(g63
g63
g63
g5
g5
tp1445
a(S'For'
p1446
S'For'
p1447
S'IN'
p1448
S'B-PP'
p1449
g5
tp1450
a(S'one'
p1451
S'one'
p1452
S'CD'
p1453
S'B-NP'
p1454
g5
tp1455
a(S'theme'
p1456
S'theme'
p1457
S'NN'
p1458
S'I-NP'
p1459
g5
tp1460
a(g110
g110
g110
g5
g5
tp1461
a(S'recall'
p1462
S'recall'
p1463
S'NN'
p1464
S'B-NP'
p1465
g5
tp1466
a(S'was'
p1467
S'be'
p1468
S'VBD'
p1469
S'B-VP'
p1470
g5
tp1471
a(S'significantly'
p1472
S'significantly'
p1473
S'RB'
p1474
S'B-ADJP'
p1475
g5
tp1476
a(S'greater'
p1477
S'great'
p1478
S'JJR'
p1479
S'I-ADJP'
p1480
g5
tp1481
a(S'in'
p1482
S'in'
p1483
S'IN'
p1484
S'B-PP'
p1485
g5
tp1486
a(S'the'
p1487
S'the'
p1488
S'DT'
p1489
S'B-NP'
p1490
g5
tp1491
a(S'summary'
p1492
S'summary'
p1493
S'JJ'
p1494
S'I-NP'
p1495
g5
tp1496
a(S'arm.'
p1497
S'arm.'
p1498
S'NN'
p1499
S'I-NP'
p1500
g5
tp1501
a(S'For'
p1502
S'For'
p1503
S'IN'
p1504
S'B-PP'
p1505
g5
tp1506
a(S'two'
p1507
S'two'
p1508
S'CD'
p1509
S'B-NP'
p1510
g5
tp1511
a(S'themes'
p1512
S'theme'
p1513
S'NNS'
p1514
S'I-NP'
p1515
g5
tp1516
a(g110
g110
g110
g5
g5
tp1517
a(S'there'
p1518
S'there'
p1519
S'EX'
p1520
S'B-NP'
p1521
g5
tp1522
a(S'was'
p1523
S'be'
p1524
S'VBD'
p1525
S'B-VP'
p1526
g5
tp1527
a(S'no'
p1528
S'no'
p1529
S'DT'
p1530
S'B-NP'
p1531
g5
tp1532
a(S'statistically'
p1533
S'statistically'
p1534
S'RB'
p1535
S'I-NP'
p1536
g5
tp1537
a(S'significant'
p1538
S'significant'
p1539
S'JJ'
p1540
S'I-NP'
p1541
g5
tp1542
a(S'difference'
p1543
S'difference'
p1544
S'NN'
p1545
S'I-NP'
p1546
g5
tp1547
a(S'in'
p1548
S'in'
p1549
S'IN'
p1550
S'B-PP'
p1551
g5
tp1552
a(S'recall'
p1553
S'recall'
p1554
S'NN'
p1555
S'B-NP'
p1556
g5
tp1557
a(S'between'
p1558
S'between'
p1559
S'IN'
p1560
S'B-PP'
p1561
g5
tp1562
a(S'the'
p1563
S'the'
p1564
S'DT'
p1565
S'B-NP'
p1566
g5
tp1567
a(S'arms.'
p1568
S'arms.'
p1569
S'NN'
p1570
S'I-NP'
p1571
g5
tp1572
a(S'In'
p1573
S'In'
p1574
S'IN'
p1575
S'B-PP'
p1576
g5
tp1577
a(S'the'
p1578
S'the'
p1579
S'DT'
p1580
S'B-NP'
p1581
g5
tp1582
a(S'summary'
p1583
S'summary'
p1584
S'JJ'
p1585
S'I-NP'
p1586
g5
tp1587
a(S'arm'
p1588
S'arm'
p1589
S'NN'
p1590
S'I-NP'
p1591
g5
tp1592
a(g110
g110
g110
g5
g5
tp1593
a(S'54'
p1594
S'54'
p1595
S'CD'
p1596
S'B-NP'
p1597
g5
tp1598
a(g1099
g1099
S'NN'
p1599
S'I-NP'
p1600
g5
tp1601
a(S'of'
p1602
S'of'
p1603
S'IN'
p1604
S'B-PP'
p1605
g5
tp1606
a(S'responses'
p1607
S'response'
p1608
S'NNS'
p1609
S'B-NP'
p1610
g5
tp1611
a(S'were'
p1612
S'be'
p1613
S'VBD'
p1614
S'B-VP'
p1615
g5
tp1616
a(S'found'
p1617
S'find'
p1618
S'VBN'
p1619
S'I-VP'
p1620
g5
tp1621
a(S'to'
p1622
S'to'
p1623
S'TO'
p1624
S'I-VP'
p1625
g5
tp1626
a(S'contain'
p1627
S'contain'
p1628
S'VB'
p1629
S'I-VP'
p1630
g5
tp1631
a(S'falsely'
p1632
S'falsely'
p1633
S'RB'
p1634
S'B-NP'
p1635
g5
tp1636
a(S'recalled'
p1637
S'recall'
p1638
S'VBN'
p1639
S'I-NP'
p1640
g5
tp1641
a(S'or'
p1642
S'or'
p1643
S'CC'
p1644
S'I-NP'
p1645
g5
tp1646
a(S'extraneous'
p1647
S'extraneous'
p1648
S'JJ'
p1649
S'I-NP'
p1650
g5
tp1651
a(S'information'
p1652
S'information'
p1653
S'NN'
p1654
S'I-NP'
p1655
g5
tp1656
a(S'versus'
p1657
S'versus'
p1658
S'IN'
p1659
S'B-PP'
p1660
g5
tp1661
a(S'21'
p1662
S'21'
p1663
S'CD'
p1664
S'B-NP'
p1665
g5
tp1666
a(g1099
g1099
S'NN'
p1667
S'I-NP'
p1668
g5
tp1669
a(S'of'
p1670
S'of'
p1671
S'IN'
p1672
S'B-PP'
p1673
g5
tp1674
a(S'responses'
p1675
S'response'
p1676
S'NNS'
p1677
S'B-NP'
p1678
g5
tp1679
a(S'in'
p1680
S'in'
p1681
S'IN'
p1682
S'B-PP'
p1683
g5
tp1684
a(S'the'
p1685
S'the'
p1686
S'DT'
p1687
S'B-NP'
p1688
g5
tp1689
a(S'narrative'
p1690
S'narrative'
p1691
S'JJ'
p1692
S'I-NP'
p1693
g5
tp1694
a(S'arm'
p1695
S'arm'
p1696
S'NN'
p1697
S'I-NP'
p1698
g5
tp1699
a(g285
g285
g285
g5
g5
tp1700
a(S'difference'
p1701
S'difference'
p1702
S'NN'
p1703
S'B-NP'
p1704
g5
tp1705
a(g1225
g1225
S'SYM'
p1706
S'B-VP'
p1707
g5
tp1708
a(S'33'
p1709
S'33'
p1710
S'CD'
p1711
S'B-NP'
p1712
g5
tp1713
a(g1099
g1099
S'NN'
p1714
S'I-NP'
p1715
g5
tp1716
a(g110
g110
g110
g5
g5
tp1717
a(S'95'
p1718
S'95'
p1719
S'CD'
p1720
S'B-NP'
p1721
g5
tp1722
a(g1099
g1099
S'NN'
p1723
S'I-NP'
p1724
g5
tp1725
a(S'CI'
p1726
S'CI'
p1727
S'NN'
p1728
S'I-NP'
p1729
g5
tp1730
a(g1225
g1225
S'SYM'
p1731
S'B-VP'
p1732
g5
tp1733
a(S'14'
p1734
S'14'
p1735
S'CD'
p1736
S'B-NP'
p1737
g5
tp1738
a(g1099
g1099
S'NN'
p1739
S'I-NP'
p1740
g5
tp1741
a(S'to'
p1742
S'to'
p1743
S'TO'
p1744
S'B-PP'
p1745
g5
tp1746
a(S'53'
p1747
S'53'
p1748
S'CD'
p1749
S'B-NP'
p1750
g5
tp1751
a(g1099
g1099
S'NN'
p1752
S'I-NP'
p1753
g5
tp1754
a(g293
g293
g293
g5
g5
tp1755
a(g63
g63
g63
g5
g5
tp1756
a(S'CONCLUSIONS'
p1757
S'CONCLUSIONS'
p1758
S'NNS'
p1759
S'B-NP'
p1760
g5
tp1761
a(S'Physicians'
p1762
S'Physician'
p1763
S'NNPS'
p1764
S'I-NP'
p1765
g5
tp1766
a(S'exposed'
p1767
S'expose'
p1768
S'VBN'
p1769
S'B-VP'
p1770
g5
tp1771
a(S'to'
p1772
S'to'
p1773
S'TO'
p1774
S'B-PP'
p1775
g5
tp1776
a(g49
g49
S'DT'
p1777
S'B-NP'
p1778
g5
tp1779
a(S'narrative'
p1780
S'narrative'
p1781
S'JJ'
p1782
S'I-NP'
p1783
g5
tp1784
a(S'about'
p1785
S'about'
p1786
S'IN'
p1787
S'B-PP'
p1788
g5
tp1789
a(S'opioid'
p1790
S'opioid'
p1791
S'JJ'
p1792
S'B-NP'
p1793
g5
tp1794
a(S'guidelines'
p1795
S'guideline'
p1796
S'NNS'
p1797
S'I-NP'
p1798
g5
tp1799
a(S'were'
p1800
S'be'
p1801
S'VBD'
p1802
S'B-VP'
p1803
g5
tp1804
a(S'more'
p1805
S'more'
p1806
S'RBR'
p1807
S'B-ADJP'
p1808
g5
tp1809
a(S'likely'
p1810
S'likely'
p1811
S'JJ'
p1812
S'I-ADJP'
p1813
g5
tp1814
a(S'to'
p1815
S'to'
p1816
S'TO'
p1817
S'B-VP'
p1818
g5
tp1819
a(S'recall'
p1820
S'recall'
p1821
S'VB'
p1822
S'I-VP'
p1823
g5
tp1824
a(S'guideline'
p1825
S'guideline'
p1826
S'NN'
p1827
S'B-NP'
p1828
g5
tp1829
a(S'content'
p1830
S'content'
p1831
S'NN'
p1832
S'I-NP'
p1833
g5
tp1834
a(S'at'
p1835
S'at'
p1836
S'IN'
p1837
S'B-PP'
p1838
g5
tp1839
a(S'1'
p1840
g1840
S'CD'
p1841
S'B-NP'
p1842
g5
tp1843
a(S'hour'
p1844
S'hour'
p1845
S'NN'
p1846
S'I-NP'
p1847
g5
tp1848
a(S'than'
p1849
S'than'
p1850
S'IN'
p1851
S'B-PP'
p1852
g5
tp1853
a(S'those'
p1854
S'those'
p1855
S'DT'
p1856
S'B-NP'
p1857
g5
tp1858
a(S'exposed'
p1859
S'expose'
p1860
S'VBN'
p1861
S'B-VP'
p1862
g5
tp1863
a(S'to'
p1864
S'to'
p1865
S'TO'
p1866
S'B-PP'
p1867
g5
tp1868
a(g49
g49
S'DT'
p1869
S'B-NP'
p1870
g5
tp1871
a(S'summary'
p1872
S'summary'
p1873
S'NN'
p1874
S'I-NP'
p1875
g5
tp1876
a(S'of'
p1877
S'of'
p1878
S'IN'
p1879
S'B-PP'
p1880
g5
tp1881
a(S'the'
p1882
S'the'
p1883
S'DT'
p1884
S'B-NP'
p1885
g5
tp1886
a(S'guidelines.'
p1887
S'guidelines.'
p1888
S'NN'
p1889
S'I-NP'
p1890
g5
tp1891
a(S'Future'
p1892
S'Future'
p1893
S'JJ'
p1894
S'I-NP'
p1895
g5
tp1896
a(S'studies'
p1897
S'study'
p1898
S'NNS'
p1899
S'I-NP'
p1900
g5
tp1901
a(S'should'
p1902
S'should'
p1903
S'MD'
p1904
S'B-VP'
p1905
g5
tp1906
a(S'examine'
p1907
S'examine'
p1908
S'VB'
p1909
S'I-VP'
p1910
g5
tp1911
a(S'whether'
p1912
S'whether'
p1913
S'IN'
p1914
S'B-SBAR'
p1915
g5
tp1916
a(S'the'
p1917
S'the'
p1918
S'DT'
p1919
S'B-NP'
p1920
g5
tp1921
a(S'incorporation'
p1922
S'incorporation'
p1923
S'NN'
p1924
S'I-NP'
p1925
g5
tp1926
a(S'of'
p1927
S'of'
p1928
S'IN'
p1929
S'B-PP'
p1930
g5
tp1931
a(S'narratives'
p1932
S'narrative'
p1933
S'NNS'
p1934
S'B-NP'
p1935
g5
tp1936
a(S'in'
p1937
S'in'
p1938
S'IN'
p1939
S'B-PP'
p1940
g5
tp1941
a(S'dissemination'
p1942
S'dissemination'
p1943
S'NN'
p1944
S'B-NP'
p1945
g5
tp1946
a(S'campaigns'
p1947
S'campaign'
p1948
S'NNS'
p1949
S'I-NP'
p1950
g5
tp1951
a(S'improves'
p1952
S'improve'
p1953
S'VBZ'
p1954
S'B-VP'
p1955
g5
tp1956
a(S'guideline'
p1957
S'guideline'
p1958
S'NN'
p1959
S'B-NP'
p1960
g5
tp1961
a(S'adoption'
p1962
S'adoption'
p1963
S'NN'
p1964
S'I-NP'
p1965
g5
tp1966
a(S'and'
p1967
S'and'
p1968
S'CC'
p1969
g5
g5
tp1970
a(S'changes'
p1971
S'change'
p1972
S'VBZ'
p1973
S'B-VP'
p1974
g5
tp1975
a(S'clinical'
p1976
S'clinical'
p1977
S'JJ'
p1978
S'B-NP'
p1979
g5
tp1980
a(S'practice'
p1981
S'practice'
p1982
S'NN'
p1983
S'I-NP'
p1984
g5
tp1985
a.