(lp0
(S'Expectancies'
p1
S'Expectancy'
p2
S'NNS'
p3
S'B-NP'
p4
S'O'
p5
tp6
a(S','
p7
g7
g7
S'B-NP'
p8
g5
tp9
a(S'not'
p10
S'not'
p11
S'RB'
p12
S'I-NP'
p13
g5
tp14
a(S'aroma'
p15
S'aroma'
p16
S'NN'
p17
S'I-NP'
p18
g5
tp19
a(g7
g7
g7
g5
g5
tp20
a(S'explain'
p21
S'explain'
p22
S'VBP'
p23
S'B-VP'
p24
g5
tp25
a(S'impact'
p26
S'impact'
p27
S'NN'
p28
S'B-NP'
p29
g5
tp30
a(S'of'
p31
S'of'
p32
S'IN'
p33
S'B-PP'
p34
g5
tp35
a(S'lavender'
p36
S'lavender'
p37
S'NN'
p38
S'B-NP'
p39
g5
tp40
a(S'aromatherapy'
p41
S'aromatherapy'
p42
S'NN'
p43
S'I-NP'
p44
g5
tp45
a(S'on'
p46
S'on'
p47
S'IN'
p48
S'B-PP'
p49
g5
tp50
a(S'psychophysiological'
p51
S'psychophysiological'
p52
S'JJ'
p53
S'B-NP'
p54
g5
tp55
a(S'indices'
p56
S'index'
p57
S'NNS'
p58
S'I-NP'
p59
g5
tp60
a(S'of'
p61
S'of'
p62
S'IN'
p63
S'B-PP'
p64
g5
tp65
a(S'relaxation'
p66
S'relaxation'
p67
S'NN'
p68
S'B-NP'
p69
g5
tp70
a(S'in'
p71
S'in'
p72
S'IN'
p73
S'B-PP'
p74
g5
tp75
a(S'young'
p76
S'young'
p77
S'JJ'
p78
S'B-NP'
p79
g5
tp80
a(S'healthy'
p81
S'healthy'
p82
S'JJ'
p83
S'I-NP'
p84
g5
tp85
a(S'women'
p86
S'woman'
p87
S'NNS'
p88
S'I-NP'
p89
g5
tp90
a(S'.'
p91
g91
g91
g5
g5
tp92
a(S'OBJECTIVES'
p93
S'OBJECTIVES'
p94
S'NNS'
p95
S'B-NP'
p96
g5
tp97
a(S'In'
p98
S'In'
p99
S'IN'
p100
S'B-PP'
p101
g5
tp102
a(S'aromatherapy'
p103
S'aromatherapy'
p104
S'NN'
p105
S'B-NP'
p106
g5
tp107
a(g7
g7
g7
g5
g5
tp108
a(S'lavender'
p109
S'lavender'
p110
S'NN'
p111
S'B-NP'
p112
g5
tp113
a(S'aroma'
p114
S'aroma'
p115
S'NN'
p116
S'I-NP'
p117
g5
tp118
a(S'is'
p119
S'be'
p120
S'VBZ'
p121
S'B-VP'
p122
g5
tp123
a(S'reputed'
p124
S'repute'
p125
S'VBN'
p126
S'I-VP'
p127
g5
tp128
a(S'to'
p129
S'to'
p130
S'TO'
p131
S'I-VP'
p132
g5
tp133
a(S'assist'
p134
S'assist'
p135
S'VB'
p136
S'I-VP'
p137
g5
tp138
a(S'with'
p139
S'with'
p140
S'IN'
p141
S'B-PP'
p142
g5
tp143
a(S'relaxation.'
p144
S'relaxation.'
p145
S'NN'
p146
S'B-NP'
p147
g5
tp148
a(S'However'
p149
S'However'
p150
S'RB'
p151
S'B-ADVP'
p152
g5
tp153
a(g7
g7
g7
g5
g5
tp154
a(S'while'
p155
S'while'
p156
S'IN'
p157
S'B-SBAR'
p158
g5
tp159
a(S'there'
p160
S'there'
p161
S'EX'
p162
S'B-NP'
p163
g5
tp164
a(S'is'
p165
S'be'
p166
S'VBZ'
p167
S'B-VP'
p168
g5
tp169
a(S'much'
p170
S'much'
p171
S'JJ'
p172
S'B-NP'
p173
g5
tp174
a(S'anecdotal'
p175
S'anecdotal'
p176
S'JJ'
p177
S'I-NP'
p178
g5
tp179
a(S'evidence'
p180
S'evidence'
p181
S'NN'
p182
S'I-NP'
p183
g5
tp184
a(S'to'
p185
S'to'
p186
S'TO'
p187
S'B-PP'
p188
g5
tp189
a(S'that'
p190
S'that'
p191
S'DT'
p192
S'B-NP'
p193
g5
tp194
a(S'effect'
p195
S'effect'
p196
S'NN'
p197
S'I-NP'
p198
g5
tp199
a(g7
g7
g7
g5
g5
tp200
a(S'the'
p201
S'the'
p202
S'DT'
p203
S'B-NP'
p204
g5
tp205
a(S'empirical'
p206
S'empirical'
p207
S'JJ'
p208
S'I-NP'
p209
g5
tp210
a(S'literature'
p211
S'literature'
p212
S'NN'
p213
S'I-NP'
p214
g5
tp215
a(S'is'
p216
S'be'
p217
S'VBZ'
p218
S'B-VP'
p219
g5
tp220
a(S'very'
p221
S'very'
p222
S'RB'
p223
S'B-NP'
p224
g5
tp225
a(S'inconsistent.'
p226
S'inconsistent.'
p227
S'JJ'
p228
S'I-NP'
p229
g5
tp230
a(S'Failure'
p231
S'Failure'
p232
S'NN'
p233
S'I-NP'
p234
g5
tp235
a(S'to'
p236
S'to'
p237
S'TO'
p238
S'B-VP'
p239
g5
tp240
a(S'employ'
p241
S'employ'
p242
S'VB'
p243
S'I-VP'
p244
g5
tp245
a(S'adequate'
p246
S'adequate'
p247
S'JJ'
p248
S'B-NP'
p249
g5
tp250
a(S'placebos'
p251
S'placebo'
p252
S'NNS'
p253
S'I-NP'
p254
g5
tp255
a(g7
g7
g7
g5
g5
tp256
a(S'proper'
p257
S'proper'
p258
S'JJ'
p259
S'B-NP'
p260
g5
tp261
a(S'blinding'
p262
S'blinding'
p263
S'NN'
p264
S'I-NP'
p265
g5
tp266
a(g7
g7
g7
g5
g5
tp267
a(S'objective'
p268
S'objective'
p269
S'JJ'
p270
S'B-NP'
p271
g5
tp272
a(S'measures'
p273
S'measure'
p274
S'NNS'
p275
S'I-NP'
p276
g5
tp277
a(g7
g7
g7
g5
g5
tp278
a(S'or'
p279
S'or'
p280
S'CC'
p281
g5
g5
tp282
a(S'screening'
p283
S'screening'
p284
S'NN'
p285
S'B-NP'
p286
g5
tp287
a(S'of'
p288
S'of'
p289
S'IN'
p290
S'B-PP'
p291
g5
tp292
a(S'prior'
p293
S'prior'
p294
S'JJ'
p295
S'B-NP'
p296
g5
tp297
a(S'beliefs'
p298
S'belief'
p299
S'NNS'
p300
S'I-NP'
p301
g5
tp302
a(S'about'
p303
S'about'
p304
S'IN'
p305
S'B-PP'
p306
g5
tp307
a(S'aromatherapy'
p308
S'aromatherapy'
p309
S'NN'
p310
S'B-NP'
p311
g5
tp312
a(S'means'
p313
S'mean'
p314
S'VBZ'
p315
S'B-VP'
p316
g5
tp317
a(S'that'
p318
S'that'
p319
S'IN'
p320
S'B-SBAR'
p321
g5
tp322
a(S'many'
p323
S'many'
p324
S'JJ'
p325
S'B-NP'
p326
g5
tp327
a(S'previous'
p328
S'previous'
p329
S'JJ'
p330
S'I-NP'
p331
g5
tp332
a(S'findings'
p333
S'finding'
p334
S'NNS'
p335
S'I-NP'
p336
g5
tp337
a(S'could'
p338
S'could'
p339
S'MD'
p340
S'B-VP'
p341
g5
tp342
a(S'have'
p343
S'have'
p344
S'VB'
p345
S'I-VP'
p346
g5
tp347
a(S'been'
p348
S'be'
p349
S'VBN'
p350
S'I-VP'
p351
g5
tp352
a(S'influenced'
p353
S'influence'
p354
S'VBN'
p355
S'I-VP'
p356
g5
tp357
a(S'by'
p358
S'by'
p359
S'IN'
p360
S'B-PP'
p361
g5
tp362
a(S'expectancy'
p363
S'expectancy'
p364
S'NN'
p365
S'B-NP'
p366
g5
tp367
a(S'biases.'
p368
S'biases.'
p369
S'NN'
p370
S'I-NP'
p371
g5
tp372
a(S'The'
p373
S'The'
p374
S'DT'
p375
S'B-NP'
p376
g5
tp377
a(S'present'
p378
S'present'
p379
S'JJ'
p380
S'I-NP'
p381
g5
tp382
a(S'study'
p383
S'study'
p384
S'NN'
p385
S'I-NP'
p386
g5
tp387
a(S'sought'
p388
S'seek'
p389
S'VBD'
p390
S'B-VP'
p391
g5
tp392
a(S'to'
p393
S'to'
p394
S'TO'
p395
S'I-VP'
p396
g5
tp397
a(S'establish'
p398
S'establish'
p399
S'VB'
p400
S'I-VP'
p401
g5
tp402
a(S'whether'
p403
S'whether'
p404
S'IN'
p405
S'B-SBAR'
p406
g5
tp407
a(S'lavender'
p408
S'lavender'
p409
S'NN'
p410
S'B-NP'
p411
g5
tp412
a(S'aroma'
p413
S'aroma'
p414
S'NN'
p415
S'I-NP'
p416
g5
tp417
a(S'and/or'
p418
S'and/or'
p419
S'CC'
p420
g5
g5
tp421
a(S'expectancies'
p422
S'expectancy'
p423
S'NNS'
p424
S'B-NP'
p425
g5
tp426
a(S'affect'
p427
S'affect'
p428
S'VBP'
p429
S'B-VP'
p430
g5
tp431
a(S'post-stress'
p432
S'post-stress'
p433
S'JJ'
p434
S'B-NP'
p435
g5
tp436
a(S'relaxation'
p437
S'relaxation'
p438
S'NN'
p439
S'I-NP'
p440
g5
tp441
a(g91
g91
g91
g5
g5
tp442
a(S'DESIGN'
p443
S'DESIGN'
p444
S'NN'
p445
S'B-NP'
p446
g5
tp447
a(S'A'
p448
g448
S'DT'
p449
S'B-ADJP'
p450
g5
tp451
a(S'double-blind'
p452
S'double-blind'
p453
S'JJ'
p454
S'I-ADJP'
p455
g5
tp456
a(g7
g7
g7
g5
g5
tp457
a(S'3'
p458
g458
S'CD'
p459
S'B-NP'
p460
g5
tp461
a(S'('
p462
g462
g462
g5
g5
tp463
a(S'aroma'
p464
S'aroma'
p465
S'NN'
p466
S'B-NP'
p467
g5
tp468
a(S')'
p469
g469
g469
g5
g5
tp470
a(S'x'
p471
g471
S'NN'
p472
S'B-NP'
p473
g5
tp474
a(g458
g458
S'CD'
p475
S'I-NP'
p476
g5
tp477
a(g462
g462
g462
g5
g5
tp478
a(S'instruction'
p479
S'instruction'
p480
S'NN'
p481
S'B-NP'
p482
g5
tp483
a(g469
g469
g469
g5
g5
tp484
a(g471
g471
S'NN'
p485
S'B-NP'
p486
g5
tp487
a(S'10'
p488
S'10'
p489
S'CD'
p490
S'I-NP'
p491
g5
tp492
a(g462
g462
g462
g5
g5
tp493
a(S'time'
p494
S'time'
p495
S'NN'
p496
S'B-NP'
p497
g5
tp498
a(S'in'
p499
S'in'
p500
S'IN'
p501
S'B-PP'
p502
g5
tp503
a(S'minutes'
p504
S'minute'
p505
S'NNS'
p506
S'B-NP'
p507
g5
tp508
a(g469
g469
g469
g5
g5
tp509
a(S'mixed-factorial'
p510
S'mixed-factorial'
p511
S'JJ'
p512
S'B-NP'
p513
g5
tp514
a(S'placebo-controlled'
p515
S'placebo-controlled'
p516
S'JJ'
p517
S'I-NP'
p518
g5
tp519
a(S'trial'
p520
S'trial'
p521
S'NN'
p522
S'I-NP'
p523
g5
tp524
a(g91
g91
g91
g5
g5
tp525
a(S'METHOD'
p526
S'METHOD'
p527
S'NN'
p528
S'B-NP'
p529
g5
tp530
a(S'In'
p531
S'In'
p532
S'IN'
p533
S'B-PP'
p534
g5
tp535
a(S'a'
p536
g536
S'DT'
p537
S'B-NP'
p538
g5
tp539
a(S'laboratory'
p540
S'laboratory'
p541
S'NN'
p542
S'I-NP'
p543
g5
tp544
a(g7
g7
g7
g5
g5
tp545
a(S'96'
p546
S'96'
p547
S'CD'
p548
S'B-NP'
p549
g5
tp550
a(S'healthy'
p551
S'healthy'
p552
S'JJ'
p553
S'I-NP'
p554
g5
tp555
a(S'undergraduate'
p556
S'undergraduate'
p557
S'JJ'
p558
S'I-NP'
p559
g5
tp560
a(S'women'
p561
S'woman'
p562
S'NNS'
p563
S'I-NP'
p564
g5
tp565
a(S'were'
p566
S'be'
p567
S'VBD'
p568
S'B-VP'
p569
g5
tp570
a(S'exposed'
p571
S'expose'
p572
S'VBN'
p573
S'I-VP'
p574
g5
tp575
a(S'to'
p576
S'to'
p577
S'TO'
p578
S'B-PP'
p579
g5
tp580
a(S'lavender'
p581
S'lavender'
p582
S'NN'
p583
S'B-NP'
p584
g5
tp585
a(g7
g7
g7
g5
g5
tp586
a(S'placebo'
p587
S'placebo'
p588
S'NN'
p589
S'B-NP'
p590
g5
tp591
a(g7
g7
g7
g5
g5
tp592
a(S'or'
p593
S'or'
p594
S'CC'
p595
g5
g5
tp596
a(S'no'
p597
S'no'
p598
S'DT'
p599
S'B-NP'
p600
g5
tp601
a(S'aroma'
p602
S'aroma'
p603
S'NN'
p604
S'I-NP'
p605
g5
tp606
a(S'during'
p607
S'during'
p608
S'IN'
p609
S'B-PP'
p610
g5
tp611
a(S'physiologically'
p612
S'physiologically'
p613
S'RB'
p614
S'B-NP'
p615
g5
tp616
a(S'assessed'
p617
S'assess'
p618
S'VBN'
p619
S'I-NP'
p620
g5
tp621
a(S'relaxation'
p622
S'relaxation'
p623
S'NN'
p624
S'I-NP'
p625
g5
tp626
a(S'after'
p627
S'after'
p628
S'IN'
p629
S'B-PP'
p630
g5
tp631
a(S'an'
p632
S'an'
p633
S'DT'
p634
S'B-NP'
p635
g5
tp636
a(S'arousing'
p637
S'arousing'
p638
S'NN'
p639
S'I-NP'
p640
g5
tp641
a(S'cognitive'
p642
S'cognitive'
p643
S'JJ'
p644
S'I-NP'
p645
g5
tp646
a(S'task.'
p647
S'task.'
p648
S'NN'
p649
S'I-NP'
p650
g5
tp651
a(S'Where'
p652
S'Where'
p653
S'WRB'
p654
S'B-ADVP'
p655
g5
tp656
a(S'an'
p657
S'an'
p658
S'DT'
p659
S'B-NP'
p660
g5
tp661
a(S'aroma'
p662
S'aroma'
p663
S'NN'
p664
S'I-NP'
p665
g5
tp666
a(S'was'
p667
S'be'
p668
S'VBD'
p669
S'B-VP'
p670
g5
tp671
a(S'presented'
p672
S'present'
p673
S'VBN'
p674
S'I-VP'
p675
g5
tp676
a(g7
g7
g7
g5
g5
tp677
a(S'an'
p678
S'an'
p679
S'DT'
p680
S'B-NP'
p681
g5
tp682
a(S'instructional'
p683
S'instructional'
p684
S'JJ'
p685
S'I-NP'
p686
g5
tp687
a(S'priming'
p688
S'priming'
p689
S'NN'
p690
S'I-NP'
p691
g5
tp692
a(S'procedure'
p693
S'procedure'
p694
S'NN'
p695
S'I-NP'
p696
g5
tp697
a(S'was'
p698
S'be'
p699
S'VBD'
p700
S'B-VP'
p701
g5
tp702
a(S'used'
p703
S'use'
p704
S'VBN'
p705
S'I-VP'
p706
g5
tp707
a(S'to'
p708
S'to'
p709
S'TO'
p710
S'B-VP'
p711
g5
tp712
a(S'manipulate'
p713
S'manipulate'
p714
S'VB'
p715
S'I-VP'
p716
g5
tp717
a(S'participants'
p718
S'participant'
p719
S'NNS'
p720
S'B-NP'
p721
g5
tp722
a(S"'"
p723
g723
S'POS'
p724
S'B-NP'
p725
g5
tp726
a(S'expectancies'
p727
S'expectancy'
p728
S'NNS'
p729
S'I-NP'
p730
g5
tp731
a(S'about'
p732
S'about'
p733
S'IN'
p734
S'B-PP'
p735
g5
tp736
a(S'the'
p737
S'the'
p738
S'DT'
p739
S'B-NP'
p740
g5
tp741
a(S'aroma'
p742
S'aroma'
p743
S'NN'
p744
S'I-NP'
p745
g5
tp746
a(S"'s"
p747
S"'s"
p748
S'POS'
p749
S'B-NP'
p750
g5
tp751
a(S'likely'
p752
S'likely'
p753
S'JJ'
p754
S'I-NP'
p755
g5
tp756
a(S'impact'
p757
S'impact'
p758
S'NN'
p759
S'I-NP'
p760
g5
tp761
a(S'on'
p762
S'on'
p763
S'IN'
p764
S'B-PP'
p765
g5
tp766
a(S'their'
p767
S'their'
p768
S'PRP$'
p769
S'B-NP'
p770
g5
tp771
a(S'ability'
p772
S'ability'
p773
S'NN'
p774
S'I-NP'
p775
g5
tp776
a(S'to'
p777
S'to'
p778
S'TO'
p779
S'B-PP'
p780
g5
tp781
a(S'relax'
p782
S'relax'
p783
S'NN'
p784
S'B-NP'
p785
g5
tp786
a(g91
g91
g91
g5
g5
tp787
a(S'RESULTS'
p788
S'RESULTS'
p789
S'NNS'
p790
S'B-NP'
p791
g5
tp792
a(S'Results'
p793
S'Result'
p794
S'NNS'
p795
S'I-NP'
p796
g5
tp797
a(S'showed'
p798
S'show'
p799
S'VBD'
p800
S'B-VP'
p801
g5
tp802
a(S'no'
p803
S'no'
p804
S'DT'
p805
S'B-NP'
p806
g5
tp807
a(S'effect'
p808
S'effect'
p809
S'NN'
p810
S'I-NP'
p811
g5
tp812
a(S'of'
p813
S'of'
p814
S'IN'
p815
S'B-PP'
p816
g5
tp817
a(S'aroma'
p818
S'aroma'
p819
S'NN'
p820
S'B-NP'
p821
g5
tp822
a(S'on'
p823
S'on'
p824
S'IN'
p825
S'B-PP'
p826
g5
tp827
a(S'galvanic'
p828
S'galvanic'
p829
S'JJ'
p830
S'B-NP'
p831
g5
tp832
a(S'skin'
p833
S'skin'
p834
S'NN'
p835
S'I-NP'
p836
g5
tp837
a(S'response'
p838
S'response'
p839
S'NN'
p840
S'I-NP'
p841
g5
tp842
a(S'during'
p843
S'during'
p844
S'IN'
p845
S'B-PP'
p846
g5
tp847
a(S'relaxation.'
p848
S'relaxation.'
p849
S'NN'
p850
S'B-NP'
p851
g5
tp852
a(S'However'
p853
S'However'
p854
S'RB'
p855
S'B-ADVP'
p856
g5
tp857
a(g7
g7
g7
g5
g5
tp858
a(S'the'
p859
S'the'
p860
S'DT'
p861
S'B-NP'
p862
g5
tp863
a(S'nature'
p864
S'nature'
p865
S'NN'
p866
S'I-NP'
p867
g5
tp868
a(S'of'
p869
S'of'
p870
S'IN'
p871
S'B-PP'
p872
g5
tp873
a(S'instructional'
p874
S'instructional'
p875
S'JJ'
p876
S'B-NP'
p877
g5
tp878
a(S'prime'
p879
S'prime'
p880
S'NN'
p881
S'I-NP'
p882
g5
tp883
a(S'was'
p884
S'be'
p885
S'VBD'
p886
S'B-VP'
p887
g5
tp888
a(S'associated'
p889
S'associate'
p890
S'VBN'
p891
S'I-VP'
p892
g5
tp893
a(S'with'
p894
S'with'
p895
S'IN'
p896
S'B-PP'
p897
g5
tp898
a(S'relaxation'
p899
S'relaxation'
p900
S'NN'
p901
S'B-NP'
p902
g5
tp903
a(S'patterns'
p904
S'pattern'
p905
S'NNS'
p906
S'I-NP'
p907
g5
tp908
a(S':'
p909
g909
g909
g5
g5
tp910
a(S'when'
p911
S'when'
p912
S'WRB'
p913
S'B-ADVP'
p914
g5
tp915
a(S'expecting'
p916
S'expect'
p917
S'VBG'
p918
S'B-VP'
p919
g5
tp920
a(S'the'
p921
S'the'
p922
S'DT'
p923
S'B-NP'
p924
g5
tp925
a(S'aroma'
p926
S'aroma'
p927
S'NN'
p928
S'I-NP'
p929
g5
tp930
a(S'to'
p931
S'to'
p932
S'TO'
p933
S'B-VP'
p934
g5
tp935
a(S'inhibit'
p936
S'inhibit'
p937
S'VB'
p938
S'I-VP'
p939
g5
tp940
a(S'them'
p941
S'them'
p942
S'PRP'
p943
S'B-NP'
p944
g5
tp945
a(g7
g7
g7
g5
g5
tp946
a(S'participants'
p947
S'participant'
p948
S'NNS'
p949
S'B-NP'
p950
g5
tp951
a(S'relaxed'
p952
S'relax'
p953
S'VBD'
p954
S'B-VP'
p955
g5
tp956
a(S'more'
p957
S'more'
p958
S'RBR'
p959
S'B-NP'
p960
g5
tp961
a(S';'
p962
g962
g909
g5
g5
tp963
a(S'when'
p964
S'when'
p965
S'WRB'
p966
S'B-ADVP'
p967
g5
tp968
a(S'expecting'
p969
S'expect'
p970
S'VBG'
p971
S'B-NP'
p972
g5
tp973
a(S'facilitation'
p974
S'facilitation'
p975
S'NN'
p976
S'I-NP'
p977
g5
tp978
a(g7
g7
g7
g5
g5
tp979
a(S'participants'
p980
S'participant'
p981
S'NNS'
p982
S'B-NP'
p983
g5
tp984
a(S'relaxed'
p985
S'relax'
p986
S'VBD'
p987
S'B-VP'
p988
g5
tp989
a(S'less.'
p990
S'less.'
p991
S'JJR'
p992
S'B-ADJP'
p993
g5
tp994
a(S'The'
p995
S'The'
p996
S'DT'
p997
S'B-NP'
p998
g5
tp999
a(S'effect'
p1000
S'effect'
p1001
S'NN'
p1002
S'I-NP'
p1003
g5
tp1004
a(S'was'
p1005
S'be'
p1006
S'VBD'
p1007
S'B-VP'
p1008
g5
tp1009
a(S'not'
p1010
S'not'
p1011
S'RB'
p1012
S'I-VP'
p1013
g5
tp1014
a(S'seen'
p1015
S'see'
p1016
S'VBN'
p1017
S'I-VP'
p1018
g5
tp1019
a(S'with'
p1020
S'with'
p1021
S'IN'
p1022
S'B-PP'
p1023
g5
tp1024
a(S'regard'
p1025
S'regard'
p1026
S'NN'
p1027
S'B-NP'
p1028
g5
tp1029
a(S'to'
p1030
S'to'
p1031
S'TO'
p1032
S'B-PP'
p1033
g5
tp1034
a(S'self-reported'
p1035
S'self-reported'
p1036
S'JJ'
p1037
S'B-NP'
p1038
g5
tp1039
a(S'relaxation'
p1040
S'relaxation'
p1041
S'NN'
p1042
S'I-NP'
p1043
g5
tp1044
a(g462
g462
g462
g5
g5
tp1045
a(S'as'
p1046
S'as'
p1047
S'IN'
p1048
S'B-SBAR'
p1049
g5
tp1050
a(S'represented'
p1051
S'represent'
p1052
S'VBN'
p1053
S'B-VP'
p1054
g5
tp1055
a(S'by'
p1056
S'by'
p1057
S'IN'
p1058
S'B-PP'
p1059
g5
tp1060
a(S'changes'
p1061
S'change'
p1062
S'NNS'
p1063
S'B-NP'
p1064
g5
tp1065
a(S'in'
p1066
S'in'
p1067
S'IN'
p1068
S'B-PP'
p1069
g5
tp1070
a(S'state'
p1071
S'state'
p1072
S'NN'
p1073
S'B-NP'
p1074
g5
tp1075
a(S'anxiety'
p1076
S'anxiety'
p1077
S'NN'
p1078
S'I-NP'
p1079
g5
tp1080
a(g469
g469
g469
g5
g5
tp1081
a(S'and'
p1082
S'and'
p1083
S'CC'
p1084
g5
g5
tp1085
a(S'was'
p1086
S'be'
p1087
S'VBD'
p1088
S'B-VP'
p1089
g5
tp1090
a(S'independent'
p1091
S'independent'
p1092
S'JJ'
p1093
S'B-ADJP'
p1094
g5
tp1095
a(S'of'
p1096
S'of'
p1097
S'IN'
p1098
S'B-PP'
p1099
g5
tp1100
a(S'ratings'
p1101
S'rating'
p1102
S'NNS'
p1103
S'B-NP'
p1104
g5
tp1105
a(S'of'
p1106
S'of'
p1107
S'IN'
p1108
S'B-PP'
p1109
g5
tp1110
a(S'attitudes'
p1111
S'attitude'
p1112
S'NNS'
p1113
S'B-NP'
p1114
g5
tp1115
a(S'towards'
p1116
S'towards'
p1117
S'IN'
p1118
S'B-PP'
p1119
g5
tp1120
a(S'aromatherapy'
p1121
S'aromatherapy'
p1122
S'NN'
p1123
S'B-NP'
p1124
g5
tp1125
a(g91
g91
g91
g5
g5
tp1126
a(S'CONCLUSIONS'
p1127
S'CONCLUSIONS'
p1128
S'NNS'
p1129
S'B-NP'
p1130
g5
tp1131
a(S'The'
p1132
S'The'
p1133
S'DT'
p1134
S'B-NP'
p1135
g5
tp1136
a(S'findings'
p1137
S'finding'
p1138
S'NNS'
p1139
S'I-NP'
p1140
g5
tp1141
a(S'imply'
p1142
S'imply'
p1143
S'VBP'
p1144
S'B-VP'
p1145
g5
tp1146
a(S'that'
p1147
S'that'
p1148
S'IN'
p1149
S'B-SBAR'
p1150
g5
tp1151
a(S'the'
p1152
S'the'
p1153
S'DT'
p1154
S'B-NP'
p1155
g5
tp1156
a(S'previous'
p1157
S'previous'
p1158
S'JJ'
p1159
S'I-NP'
p1160
g5
tp1161
a(S'associations'
p1162
S'association'
p1163
S'NNS'
p1164
S'I-NP'
p1165
g5
tp1166
a(S'of'
p1167
S'of'
p1168
S'IN'
p1169
S'B-PP'
p1170
g5
tp1171
a(S'lavender'
p1172
S'lavender'
p1173
S'NN'
p1174
S'B-NP'
p1175
g5
tp1176
a(S'aroma'
p1177
S'aroma'
p1178
S'NN'
p1179
S'I-NP'
p1180
g5
tp1181
a(S'with'
p1182
S'with'
p1183
S'IN'
p1184
S'B-PP'
p1185
g5
tp1186
a(S'assisted'
p1187
S'assist'
p1188
S'VBN'
p1189
S'B-NP'
p1190
g5
tp1191
a(S'relaxation'
p1192
S'relaxation'
p1193
S'NN'
p1194
S'I-NP'
p1195
g5
tp1196
a(S'may'
p1197
S'may'
p1198
S'MD'
p1199
S'B-VP'
p1200
g5
tp1201
a(S'have'
p1202
S'have'
p1203
S'VB'
p1204
S'I-VP'
p1205
g5
tp1206
a(S'been'
p1207
S'be'
p1208
S'VBN'
p1209
S'I-VP'
p1210
g5
tp1211
a(S'influenced'
p1212
S'influence'
p1213
S'VBN'
p1214
S'I-VP'
p1215
g5
tp1216
a(S'by'
p1217
S'by'
p1218
S'IN'
p1219
S'B-PP'
p1220
g5
tp1221
a(S'expectancy'
p1222
S'expectancy'
p1223
S'NN'
p1224
S'B-NP'
p1225
g5
tp1226
a(S'biases'
p1227
S'bias'
p1228
S'NNS'
p1229
S'I-NP'
p1230
g5
tp1231
a(g7
g7
g7
g5
g5
tp1232
a(S'and'
p1233
S'and'
p1234
S'CC'
p1235
g5
g5
tp1236
a(S'that'
p1237
S'that'
p1238
S'IN'
p1239
S'B-SBAR'
p1240
g5
tp1241
a(S'the'
p1242
S'the'
p1243
S'DT'
p1244
S'B-NP'
p1245
g5
tp1246
a(S'relevant'
p1247
S'relevant'
p1248
S'JJ'
p1249
S'I-NP'
p1250
g5
tp1251
a(S'expectancies'
p1252
S'expectancy'
p1253
S'NNS'
p1254
S'I-NP'
p1255
g5
tp1256
a(S'are'
p1257
S'be'
p1258
S'VBP'
p1259
S'B-VP'
p1260
g5
tp1261
a(S'easily'
p1262
S'easily'
p1263
S'RB'
p1264
S'B-ADJP'
p1265
g5
tp1266
a(S'manipulable'
p1267
S'manipulable'
p1268
S'JJ'
p1269
S'I-ADJP'
p1270
g5
tp1271
a(g91
g91
g91
g5
g5
tp1272
a.