(lp0
(S'A'
p1
g1
S'DT'
p2
S'B-NP'
p3
S'O'
p4
tp5
a(S'comparative'
p6
S'comparative'
p7
S'JJ'
p8
S'I-NP'
p9
g4
tp10
a(S'study'
p11
S'study'
p12
S'NN'
p13
S'I-NP'
p14
g4
tp15
a(S'of'
p16
S'of'
p17
S'IN'
p18
S'B-PP'
p19
g4
tp20
a(S'netilmicin-cefoxitin'
p21
S'netilmicin-cefoxitin'
p22
S'NN'
p23
S'B-NP'
p24
S'B-protein'
p25
tp26
a(S'and'
p27
S'and'
p28
S'CC'
p29
S'I-NP'
p30
g4
tp31
a(S'gentamicin-cefoxitin'
p32
S'gentamicin-cefoxitin'
p33
S'NN'
p34
S'I-NP'
p35
g4
tp36
a(S'in'
p37
S'in'
p38
S'IN'
p39
S'B-PP'
p40
g4
tp41
a(S'surgical'
p42
S'surgical'
p43
S'JJ'
p44
S'B-NP'
p45
g4
tp46
a(S'patients'
p47
S'patient'
p48
S'NNS'
p49
S'I-NP'
p50
g4
tp51
a(S'with'
p52
S'with'
p53
S'IN'
p54
S'B-PP'
p55
g4
tp56
a(S'serious'
p57
S'serious'
p58
S'JJ'
p59
S'B-NP'
p60
g4
tp61
a(S'systemic'
p62
S'systemic'
p63
S'JJ'
p64
S'I-NP'
p65
g4
tp66
a(S'infection'
p67
S'infection'
p68
S'NN'
p69
S'I-NP'
p70
g4
tp71
a(S'.'
p72
g72
g72
g4
g4
tp73
a(g1
g1
S'DT'
p74
S'B-NP'
p75
g4
tp76
a(S'double-blind'
p77
S'double-blind'
p78
S'JJ'
p79
S'I-NP'
p80
g4
tp81
a(S','
p82
g82
g82
S'I-NP'
p83
g4
tp84
a(S'randomized'
p85
S'randomize'
p86
S'VBN'
p87
S'I-NP'
p88
g4
tp89
a(S'study'
p90
S'study'
p91
S'NN'
p92
S'I-NP'
p93
g4
tp94
a(S'of'
p95
S'of'
p96
S'IN'
p97
S'B-PP'
p98
g4
tp99
a(S'gentamicin'
p100
S'gentamicin'
p101
S'NN'
p102
S'B-NP'
p103
g4
tp104
a(S'and'
p105
S'and'
p106
S'CC'
p107
S'I-NP'
p108
g4
tp109
a(S'netilmicin'
p110
S'netilmicin'
p111
S'NN'
p112
S'I-NP'
p113
g4
tp114
a(g82
g82
g82
g4
g4
tp115
a(S'each'
p116
S'each'
p117
S'DT'
p118
S'B-NP'
p119
g4
tp120
a(S'in'
p121
S'in'
p122
S'IN'
p123
S'B-PP'
p124
g4
tp125
a(S'combination'
p126
S'combination'
p127
S'NN'
p128
S'B-NP'
p129
g4
tp130
a(S'with'
p131
S'with'
p132
S'IN'
p133
S'B-PP'
p134
g4
tp135
a(S'cefoxitin'
p136
S'cefoxitin'
p137
S'NN'
p138
S'B-NP'
p139
g4
tp140
a(g82
g82
g82
g4
g4
tp141
a(S'was'
p142
S'be'
p143
S'VBD'
p144
S'B-VP'
p145
g4
tp146
a(S'done'
p147
S'do'
p148
S'VBN'
p149
S'I-VP'
p150
g4
tp151
a(S'to'
p152
S'to'
p153
S'TO'
p154
S'I-VP'
p155
g4
tp156
a(S'compare'
p157
S'compare'
p158
S'VB'
p159
S'I-VP'
p160
g4
tp161
a(S'their'
p162
S'their'
p163
S'PRP$'
p164
S'B-NP'
p165
g4
tp166
a(S'respective'
p167
S'respective'
p168
S'JJ'
p169
S'I-NP'
p170
g4
tp171
a(S'efficacy'
p172
S'efficacy'
p173
S'NN'
p174
S'I-NP'
p175
g4
tp176
a(S'and'
p177
S'and'
p178
S'CC'
p179
g4
g4
tp180
a(S'toxicity'
p181
S'toxicity'
p182
S'NN'
p183
S'B-NP'
p184
g4
tp185
a(S'in'
p186
S'in'
p187
S'IN'
p188
S'B-PP'
p189
g4
tp190
a(S'patients'
p191
S'patient'
p192
S'NNS'
p193
S'B-NP'
p194
g4
tp195
a(S'with'
p196
S'with'
p197
S'IN'
p198
S'B-PP'
p199
g4
tp200
a(S'serious'
p201
S'serious'
p202
S'JJ'
p203
S'B-NP'
p204
g4
tp205
a(S'systemic'
p206
S'systemic'
p207
S'JJ'
p208
S'I-NP'
p209
g4
tp210
a(S'infection.'
p211
S'infection.'
p212
S'NN'
p213
S'I-NP'
p214
g4
tp215
a(S'Thirty-seven'
p216
S'Thirty-seven'
p217
S'CD'
p218
S'I-NP'
p219
g4
tp220
a(S'surgical'
p221
S'surgical'
p222
S'JJ'
p223
S'I-NP'
p224
g4
tp225
a(S'patients'
p226
S'patient'
p227
S'NNS'
p228
S'I-NP'
p229
g4
tp230
a(S'were'
p231
S'be'
p232
S'VBD'
p233
S'B-VP'
p234
g4
tp235
a(S'evaluated'
p236
S'evaluate'
p237
S'VBN'
p238
S'I-VP'
p239
g4
tp240
a(S'for'
p241
S'for'
p242
S'IN'
p243
S'B-PP'
p244
g4
tp245
a(S'efficacy'
p246
S'efficacy'
p247
S'NN'
p248
S'B-NP'
p249
g4
tp250
a(S'and'
p251
S'and'
p252
S'CC'
p253
g4
g4
tp254
a(S'46'
p255
S'46'
p256
S'CD'
p257
S'B-NP'
p258
g4
tp259
a(S'patients'
p260
S'patient'
p261
S'NNS'
p262
S'I-NP'
p263
g4
tp264
a(S'were'
p265
S'be'
p266
S'VBD'
p267
S'B-VP'
p268
g4
tp269
a(S'evaluated'
p270
S'evaluate'
p271
S'VBN'
p272
S'I-VP'
p273
g4
tp274
a(S'for'
p275
S'for'
p276
S'IN'
p277
S'B-PP'
p278
g4
tp279
a(S'toxicity.'
p280
S'toxicity.'
p281
S'NN'
p282
S'B-NP'
p283
g4
tp284
a(S'The'
p285
S'The'
p286
S'DT'
p287
S'B-NP'
p288
g4
tp289
a(S'most'
p290
S'most'
p291
S'RBS'
p292
S'I-NP'
p293
g4
tp294
a(S'frequently'
p295
S'frequently'
p296
S'RB'
p297
S'I-NP'
p298
g4
tp299
a(S'cultured'
p300
S'culture'
p301
S'VBN'
p302
S'I-NP'
p303
g4
tp304
a(S'organisms'
p305
S'organism'
p306
S'NNS'
p307
S'I-NP'
p308
g4
tp309
a(S'were'
p310
S'be'
p311
S'VBD'
p312
S'B-VP'
p313
g4
tp314
a(S'Escherichia'
p315
S'Escherichia'
p316
S'FW'
p317
S'B-NP'
p318
g4
tp319
a(S'coli'
p320
S'coli'
p321
S'FW'
p322
S'I-NP'
p323
g4
tp324
a(S'('
p325
g325
g325
g4
g4
tp326
a(S'15'
p327
S'15'
p328
S'CD'
p329
S'B-NP'
p330
g4
tp331
a(S')'
p332
g332
g332
g4
g4
tp333
a(g82
g82
g82
g4
g4
tp334
a(S'Klebsiella'
p335
S'Klebsiella'
p336
S'NN'
p337
S'B-NP'
p338
g4
tp339
a(S'sp'
p340
S'sp'
p341
S'NN'
p342
S'I-NP'
p343
g4
tp344
a(g325
g325
g325
g4
g4
tp345
a(S'9'
p346
g346
S'CD'
p347
S'B-NP'
p348
g4
tp349
a(g332
g332
g332
g4
g4
tp350
a(g82
g82
g82
g4
g4
tp351
a(S'Proteus'
p352
S'Proteus'
p353
S'NN'
p354
S'B-NP'
p355
g4
tp356
a(S'sp'
p357
S'sp'
p358
S'NN'
p359
S'I-NP'
p360
g4
tp361
a(g325
g325
g325
g4
g4
tp362
a(S'6'
p363
g363
S'CD'
p364
S'B-NP'
p365
g4
tp366
a(g332
g332
g332
g4
g4
tp367
a(g82
g82
g82
g4
g4
tp368
a(S'and'
p369
S'and'
p370
S'CC'
p371
g4
g4
tp372
a(S'Bacteroides'
p373
S'Bacteroide'
p374
S'NNS'
p375
S'B-NP'
p376
g4
tp377
a(S'sp'
p378
S'sp'
p379
S'NN'
p380
S'I-NP'
p381
g4
tp382
a(g325
g325
g325
g4
g4
tp383
a(S'4'
p384
g384
S'CD'
p385
S'B-NP'
p386
g4
tp387
a(g332
g332
g332
g4
g4
tp388
a(g72
g72
g72
g4
g4
tp389
a(S'For'
p390
S'For'
p391
S'IN'
p392
S'B-PP'
p393
g4
tp394
a(S'23'
p395
S'23'
p396
S'CD'
p397
S'B-NP'
p398
g4
tp399
a(S'patients'
p400
S'patient'
p401
S'NNS'
p402
S'I-NP'
p403
g4
tp404
a(S'treated'
p405
S'treat'
p406
S'VBN'
p407
S'B-VP'
p408
g4
tp409
a(S'with'
p410
S'with'
p411
S'IN'
p412
S'B-PP'
p413
g4
tp414
a(S'gentamicin-cefoxitin'
p415
S'gentamicin-cefoxitin'
p416
S'NN'
p417
S'B-NP'
p418
g4
tp419
a(g325
g325
g325
g4
g4
tp420
a(S'G-C'
p421
S'G-C'
p422
S'NN'
p423
S'B-NP'
p424
g4
tp425
a(g332
g332
g332
g4
g4
tp426
a(g82
g82
g82
g4
g4
tp427
a(S'the'
p428
S'the'
p429
S'DT'
p430
S'B-NP'
p431
g4
tp432
a(S'clinical'
p433
S'clinical'
p434
S'JJ'
p435
S'I-NP'
p436
g4
tp437
a(S'response'
p438
S'response'
p439
S'NN'
p440
S'I-NP'
p441
g4
tp442
a(S'was'
p443
S'be'
p444
S'VBD'
p445
S'B-VP'
p446
g4
tp447
a(S'favorable'
p448
S'favorable'
p449
S'JJ'
p450
S'B-ADJP'
p451
g4
tp452
a(S'in'
p453
S'in'
p454
S'IN'
p455
S'B-PP'
p456
g4
tp457
a(S'20/21'
p458
S'20/21'
p459
S'CD'
p460
S'B-NP'
p461
g4
tp462
a(g325
g325
g325
g4
g4
tp463
a(S'95.2'
p464
S'95.2'
p465
S'CD'
p466
S'B-NP'
p467
g4
tp468
a(S'%'
p469
g469
S'NN'
p470
S'I-NP'
p471
g4
tp472
a(g332
g332
g332
g4
g4
tp473
a(S'evaluable'
p474
S'evaluable'
p475
S'JJ'
p476
S'B-NP'
p477
g4
tp478
a(S'cases'
p479
S'case'
p480
S'NNS'
p481
S'I-NP'
p482
g4
tp483
a(g82
g82
g82
g4
g4
tp484
a(S'and'
p485
S'and'
p486
S'CC'
p487
g4
g4
tp488
a(S'elimination'
p489
S'elimination'
p490
S'NN'
p491
S'B-NP'
p492
g4
tp493
a(S'or'
p494
S'or'
p495
S'CC'
p496
g4
g4
tp497
a(S'marked'
p498
S'marked'
p499
S'JJ'
p500
S'B-NP'
p501
g4
tp502
a(S'reduction'
p503
S'reduction'
p504
S'NN'
p505
S'I-NP'
p506
g4
tp507
a(S'of'
p508
S'of'
p509
S'IN'
p510
S'B-PP'
p511
g4
tp512
a(S'33/34'
p513
S'33/34'
p514
S'CD'
p515
S'B-NP'
p516
g4
tp517
a(g325
g325
g325
g4
g4
tp518
a(S'97.1'
p519
S'97.1'
p520
S'CD'
p521
S'B-NP'
p522
g4
tp523
a(g469
g469
S'NN'
p524
S'I-NP'
p525
g4
tp526
a(g332
g332
g332
g4
g4
tp527
a(S'organisms'
p528
S'organism'
p529
S'NNS'
p530
S'B-NP'
p531
g4
tp532
a(S'was'
p533
S'be'
p534
S'VBD'
p535
S'B-VP'
p536
g4
tp537
a(S'achieved.'
p538
S'achieved.'
p539
S'VBN'
p540
S'I-VP'
p541
g4
tp542
a(S'For'
p543
S'For'
p544
S'IN'
p545
S'B-PP'
p546
g4
tp547
a(S'14'
p548
S'14'
p549
S'CD'
p550
S'B-NP'
p551
g4
tp552
a(S'patients'
p553
S'patient'
p554
S'NNS'
p555
S'I-NP'
p556
g4
tp557
a(S'treated'
p558
S'treat'
p559
S'VBN'
p560
S'B-VP'
p561
g4
tp562
a(S'with'
p563
S'with'
p564
S'IN'
p565
S'B-PP'
p566
g4
tp567
a(S'netilmicin-cefoxitin'
p568
S'netilmicin-cefoxitin'
p569
S'NN'
p570
S'B-NP'
p571
S'B-protein'
p572
tp573
a(g325
g325
g325
g4
g4
tp574
a(S'N-C'
p575
S'N-C'
p576
S'NN'
p577
S'B-NP'
p578
S'B-protein'
p579
tp580
a(g332
g332
g332
g4
g4
tp581
a(g82
g82
g82
g4
g4
tp582
a(S'the'
p583
S'the'
p584
S'DT'
p585
S'B-NP'
p586
g4
tp587
a(S'clinical'
p588
S'clinical'
p589
S'JJ'
p590
S'I-NP'
p591
g4
tp592
a(S'response'
p593
S'response'
p594
S'NN'
p595
S'I-NP'
p596
g4
tp597
a(S'was'
p598
S'be'
p599
S'VBD'
p600
S'B-VP'
p601
g4
tp602
a(S'favorable'
p603
S'favorable'
p604
S'JJ'
p605
S'B-ADJP'
p606
g4
tp607
a(S'in'
p608
S'in'
p609
S'IN'
p610
S'B-PP'
p611
g4
tp612
a(S'13/13'
p613
S'13/13'
p614
S'CD'
p615
S'B-NP'
p616
g4
tp617
a(g325
g325
g325
g4
g4
tp618
a(S'100'
p619
S'100'
p620
S'CD'
p621
S'B-NP'
p622
g4
tp623
a(g469
g469
S'NN'
p624
S'I-NP'
p625
g4
tp626
a(g332
g332
g332
g4
g4
tp627
a(S'evaluable'
p628
S'evaluable'
p629
S'JJ'
p630
S'B-NP'
p631
g4
tp632
a(S'cases'
p633
S'case'
p634
S'NNS'
p635
S'I-NP'
p636
g4
tp637
a(g82
g82
g82
g4
g4
tp638
a(S'and'
p639
S'and'
p640
S'CC'
p641
g4
g4
tp642
a(S'19/20'
p643
S'19/20'
p644
S'CD'
p645
S'B-NP'
p646
g4
tp647
a(g325
g325
g325
g4
g4
tp648
a(S'95'
p649
S'95'
p650
S'CD'
p651
S'B-NP'
p652
g4
tp653
a(g469
g469
S'NN'
p654
S'I-NP'
p655
g4
tp656
a(g332
g332
g332
g4
g4
tp657
a(S'organisms'
p658
S'organism'
p659
S'NNS'
p660
S'B-NP'
p661
g4
tp662
a(S'were'
p663
S'be'
p664
S'VBD'
p665
S'B-VP'
p666
g4
tp667
a(S'eliminated'
p668
S'eliminate'
p669
S'VBN'
p670
S'I-VP'
p671
g4
tp672
a(S'or'
p673
S'or'
p674
S'CC'
p675
g4
g4
tp676
a(S'markedly'
p677
S'markedly'
p678
S'RB'
p679
S'B-ADVP'
p680
g4
tp681
a(S'reduced.'
p682
S'reduced.'
p683
S'NN'
p684
S'B-NP'
p685
g4
tp686
a(S'Nephrotoxicity'
p687
S'Nephrotoxicity'
p688
S'NN'
p689
S'I-NP'
p690
g4
tp691
a(S'was'
p692
S'be'
p693
S'VBD'
p694
S'B-VP'
p695
g4
tp696
a(S'defined'
p697
S'define'
p698
S'VBN'
p699
S'I-VP'
p700
g4
tp701
a(S'as'
p702
S'as'
p703
S'IN'
p704
S'B-PP'
p705
g4
tp706
a(S'an'
p707
S'an'
p708
S'DT'
p709
S'B-NP'
p710
g4
tp711
a(S'increase'
p712
S'increase'
p713
S'NN'
p714
S'I-NP'
p715
g4
tp716
a(S'in'
p717
S'in'
p718
S'IN'
p719
S'B-PP'
p720
g4
tp721
a(S'serum'
p722
S'serum'
p723
S'NN'
p724
S'B-NP'
p725
g4
tp726
a(S'creatinine'
p727
S'creatinine'
p728
S'NN'
p729
S'I-NP'
p730
g4
tp731
a(S'to'
p732
S'to'
p733
S'TO'
p734
S'B-PP'
p735
g4
tp736
a(S'greater'
p737
S'great'
p738
S'JJR'
p739
S'B-NP'
p740
g4
tp741
a(S'than'
p742
S'than'
p743
S'IN'
p744
S'I-NP'
p745
g4
tp746
a(S'25'
p747
S'25'
p748
S'CD'
p749
S'I-NP'
p750
g4
tp751
a(g469
g469
S'NN'
p752
S'I-NP'
p753
g4
tp754
a(S'over'
p755
S'over'
p756
S'IN'
p757
S'B-PP'
p758
g4
tp759
a(S'baseline'
p760
S'baseline'
p761
S'NN'
p762
S'B-NP'
p763
g4
tp764
a(S'with'
p765
S'with'
p766
S'IN'
p767
S'B-PP'
p768
g4
tp769
a(S'an'
p770
S'an'
p771
S'DT'
p772
S'B-NP'
p773
g4
tp774
a(S'absolute'
p775
S'absolute'
p776
S'JJ'
p777
S'I-NP'
p778
g4
tp779
a(S'rise'
p780
S'rise'
p781
S'NN'
p782
S'I-NP'
p783
g4
tp784
a(S'of'
p785
S'of'
p786
S'IN'
p787
S'B-PP'
p788
g4
tp789
a(S'at'
p790
S'at'
p791
S'IN'
p792
S'B-NP'
p793
g4
tp794
a(S'least'
p795
S'least'
p796
S'JJS'
p797
S'I-NP'
p798
g4
tp799
a(S'0.5'
p800
S'0.5'
p801
S'CD'
p802
S'I-NP'
p803
g4
tp804
a(S'mg/100'
p805
S'mg/100'
p806
S'NN'
p807
S'I-NP'
p808
g4
tp809
a(S'ml'
p810
S'ml'
p811
S'NN'
p812
S'I-NP'
p813
g4
tp814
a(S'to'
p815
S'to'
p816
S'TO'
p817
S'B-PP'
p818
g4
tp819
a(S'a'
p820
g820
S'DT'
p821
S'B-NP'
p822
g4
tp823
a(S'value'
p824
S'value'
p825
S'NN'
p826
S'I-NP'
p827
g4
tp828
a(S'greater'
p829
S'great'
p830
S'JJR'
p831
S'B-ADJP'
p832
g4
tp833
a(S'than'
p834
S'than'
p835
S'IN'
p836
S'B-PP'
p837
g4
tp838
a(S'or'
p839
S'or'
p840
S'CC'
p841
g4
g4
tp842
a(S'equal'
p843
S'equal'
p844
S'JJ'
p845
S'B-ADJP'
p846
g4
tp847
a(S'to'
p848
S'to'
p849
S'TO'
p850
S'B-PP'
p851
g4
tp852
a(S'1.3'
p853
S'1.3'
p854
S'CD'
p855
S'B-NP'
p856
g4
tp857
a(S'mg/100'
p858
S'mg/100'
p859
S'NN'
p860
S'I-NP'
p861
g4
tp862
a(S'ml.'
p863
S'ml.'
p864
S'NN'
p865
S'I-NP'
p866
g4
tp867
a(S'Based'
p868
S'Base'
p869
S'VBN'
p870
S'B-VP'
p871
g4
tp872
a(S'on'
p873
S'on'
p874
S'IN'
p875
S'B-PP'
p876
g4
tp877
a(S'these'
p878
S'these'
p879
S'DT'
p880
S'B-NP'
p881
g4
tp882
a(S'criteria'
p883
S'criterion'
p884
S'NNS'
p885
S'I-NP'
p886
g4
tp887
a(g82
g82
g82
g4
g4
tp888
a(S'nephrotoxicity'
p889
S'nephrotoxicity'
p890
S'NN'
p891
S'B-NP'
p892
g4
tp893
a(S'was'
p894
S'be'
p895
S'VBD'
p896
S'B-VP'
p897
g4
tp898
a(S'seen'
p899
S'see'
p900
S'VBN'
p901
S'I-VP'
p902
g4
tp903
a(S'in'
p904
S'in'
p905
S'IN'
p906
S'B-PP'
p907
g4
tp908
a(S'2/27'
p909
S'2/27'
p910
S'CD'
p911
S'B-NP'
p912
g4
tp913
a(g325
g325
g325
g4
g4
tp914
a(S'7.4'
p915
S'7.4'
p916
S'CD'
p917
S'B-NP'
p918
g4
tp919
a(g469
g469
S'NN'
p920
S'I-NP'
p921
g4
tp922
a(g332
g332
g332
g4
g4
tp923
a(S'patients'
p924
S'patient'
p925
S'NNS'
p926
S'B-NP'
p927
g4
tp928
a(S'treated'
p929
S'treat'
p930
S'VBN'
p931
S'B-VP'
p932
g4
tp933
a(S'with'
p934
S'with'
p935
S'IN'
p936
S'B-PP'
p937
g4
tp938
a(S'G-C'
p939
S'G-C'
p940
S'NN'
p941
S'B-NP'
p942
S'B-protein'
p943
tp944
a(S'and'
p945
S'and'
p946
S'CC'
p947
g4
g4
tp948
a(S'in'
p949
S'in'
p950
S'IN'
p951
S'B-PP'
p952
g4
tp953
a(S'3/19'
p954
S'3/19'
p955
S'CD'
p956
S'B-NP'
p957
g4
tp958
a(g325
g325
g325
g4
g4
tp959
a(S'15.8'
p960
S'15.8'
p961
S'CD'
p962
S'B-NP'
p963
g4
tp964
a(g469
g469
S'NN'
p965
S'I-NP'
p966
g4
tp967
a(g332
g332
g332
g4
g4
tp968
a(S'patients'
p969
S'patient'
p970
S'NNS'
p971
S'B-NP'
p972
g4
tp973
a(S'treated'
p974
S'treat'
p975
S'VBN'
p976
S'B-VP'
p977
g4
tp978
a(S'with'
p979
S'with'
p980
S'IN'
p981
S'B-PP'
p982
g4
tp983
a(S'N-C.'
p984
S'N-C.'
p985
S'NN'
p986
S'B-NP'
p987
g4
tp988
a(S'Ototoxicity'
p989
S'Ototoxicity'
p990
S'NN'
p991
S'I-NP'
p992
g4
tp993
a(S'was'
p994
S'be'
p995
S'VBD'
p996
S'B-VP'
p997
g4
tp998
a(S'defined'
p999
S'define'
p1000
S'VBN'
p1001
S'I-VP'
p1002
g4
tp1003
a(S'as'
p1004
S'as'
p1005
S'IN'
p1006
S'B-PP'
p1007
g4
tp1008
a(g820
g820
S'DT'
p1009
S'B-NP'
p1010
g4
tp1011
a(S'greater'
p1012
S'great'
p1013
S'JJR'
p1014
S'I-NP'
p1015
g4
tp1016
a(S'than'
p1017
S'than'
p1018
S'IN'
p1019
S'I-NP'
p1020
g4
tp1021
a(S'20'
p1022
S'20'
p1023
S'CD'
p1024
S'I-NP'
p1025
g4
tp1026
a(S'dB'
p1027
S'dB'
p1028
S'NN'
p1029
S'I-NP'
p1030
g4
tp1031
a(S'loss'
p1032
S'loss'
p1033
S'NN'
p1034
S'I-NP'
p1035
g4
tp1036
a(S'at'
p1037
S'at'
p1038
S'IN'
p1039
S'B-PP'
p1040
g4
tp1041
a(S'any'
p1042
S'any'
p1043
S'DT'
p1044
S'B-NP'
p1045
g4
tp1046
a(S'frequency.'
p1047
S'frequency.'
p1048
S'NN'
p1049
S'I-NP'
p1050
g4
tp1051
a(S'Based'
p1052
S'Base'
p1053
S'VBN'
p1054
S'B-VP'
p1055
g4
tp1056
a(S'on'
p1057
S'on'
p1058
S'IN'
p1059
S'B-PP'
p1060
g4
tp1061
a(S'these'
p1062
S'these'
p1063
S'DT'
p1064
S'B-NP'
p1065
g4
tp1066
a(S'criteria'
p1067
S'criterion'
p1068
S'NNS'
p1069
S'I-NP'
p1070
g4
tp1071
a(g82
g82
g82
g4
g4
tp1072
a(S'ototoxicity'
p1073
S'ototoxicity'
p1074
S'NN'
p1075
S'B-NP'
p1076
g4
tp1077
a(S'was'
p1078
S'be'
p1079
S'VBD'
p1080
S'B-VP'
p1081
g4
tp1082
a(S'seen'
p1083
S'see'
p1084
S'VBN'
p1085
S'I-VP'
p1086
g4
tp1087
a(S'in'
p1088
S'in'
p1089
S'IN'
p1090
S'B-PP'
p1091
g4
tp1092
a(S'5/27'
p1093
S'5/27'
p1094
S'CD'
p1095
S'B-NP'
p1096
g4
tp1097
a(g325
g325
g325
g4
g4
tp1098
a(S'18.5'
p1099
S'18.5'
p1100
S'CD'
p1101
S'B-NP'
p1102
g4
tp1103
a(g469
g469
S'NN'
p1104
S'I-NP'
p1105
g4
tp1106
a(g332
g332
g332
g4
g4
tp1107
a(S'patients'
p1108
S'patient'
p1109
S'NNS'
p1110
S'B-NP'
p1111
g4
tp1112
a(S'treated'
p1113
S'treat'
p1114
S'VBN'
p1115
S'B-VP'
p1116
g4
tp1117
a(S'with'
p1118
S'with'
p1119
S'IN'
p1120
S'B-PP'
p1121
g4
tp1122
a(S'G-C'
p1123
S'G-C'
p1124
S'NN'
p1125
S'B-NP'
p1126
S'B-protein'
p1127
tp1128
a(S'and'
p1129
S'and'
p1130
S'CC'
p1131
g4
g4
tp1132
a(S'2/19'
p1133
S'2/19'
p1134
S'CD'
p1135
S'B-NP'
p1136
g4
tp1137
a(g325
g325
g325
g4
g4
tp1138
a(S'10.5'
p1139
S'10.5'
p1140
S'CD'
p1141
S'B-NP'
p1142
g4
tp1143
a(g469
g469
S'NN'
p1144
S'I-NP'
p1145
g4
tp1146
a(g332
g332
g332
g4
g4
tp1147
a(S'patients'
p1148
S'patient'
p1149
S'NNS'
p1150
S'B-NP'
p1151
g4
tp1152
a(S'treated'
p1153
S'treat'
p1154
S'VBN'
p1155
S'B-VP'
p1156
g4
tp1157
a(S'with'
p1158
S'with'
p1159
S'IN'
p1160
S'B-PP'
p1161
g4
tp1162
a(S'N-C.'
p1163
S'N-C.'
p1164
S'NN'
p1165
S'B-NP'
p1166
g4
tp1167
a(S'The'
p1168
S'The'
p1169
S'DT'
p1170
S'B-NP'
p1171
g4
tp1172
a(S'data'
p1173
S'datum'
p1174
S'NNS'
p1175
S'I-NP'
p1176
g4
tp1177
a(S'show'
p1178
S'show'
p1179
S'VBP'
p1180
S'B-VP'
p1181
g4
tp1182
a(S'no'
p1183
S'no'
p1184
S'DT'
p1185
S'B-NP'
p1186
g4
tp1187
a(S'significant'
p1188
S'significant'
p1189
S'JJ'
p1190
S'I-NP'
p1191
g4
tp1192
a(S'difference'
p1193
S'difference'
p1194
S'NN'
p1195
S'I-NP'
p1196
g4
tp1197
a(S'in'
p1198
S'in'
p1199
S'IN'
p1200
S'B-PP'
p1201
g4
tp1202
a(S'toxicity'
p1203
S'toxicity'
p1204
S'NN'
p1205
S'B-NP'
p1206
g4
tp1207
a(S'and'
p1208
S'and'
p1209
S'CC'
p1210
g4
g4
tp1211
a(S'suggest'
p1212
S'suggest'
p1213
S'VBP'
p1214
S'B-VP'
p1215
g4
tp1216
a(S'that'
p1217
S'that'
p1218
S'IN'
p1219
S'B-SBAR'
p1220
g4
tp1221
a(S'netilmicin'
p1222
S'netilmicin'
p1223
S'NN'
p1224
S'B-NP'
p1225
g4
tp1226
a(S'and'
p1227
S'and'
p1228
S'CC'
p1229
S'I-NP'
p1230
g4
tp1231
a(S'gentamicin'
p1232
S'gentamicin'
p1233
S'NN'
p1234
S'I-NP'
p1235
g4
tp1236
a(S'are'
p1237
S'be'
p1238
S'VBP'
p1239
S'B-VP'
p1240
g4
tp1241
a(S'both'
p1242
S'both'
p1243
S'DT'
p1244
g4
g4
tp1245
a(S'highly'
p1246
S'highly'
p1247
S'RB'
p1248
S'B-ADJP'
p1249
g4
tp1250
a(S'effective'
p1251
S'effective'
p1252
S'JJ'
p1253
S'I-ADJP'
p1254
g4
tp1255
a(S'in'
p1256
S'in'
p1257
S'IN'
p1258
S'B-PP'
p1259
g4
tp1260
a(S'combination'
p1261
S'combination'
p1262
S'NN'
p1263
S'B-NP'
p1264
g4
tp1265
a(S'with'
p1266
S'with'
p1267
S'IN'
p1268
S'B-PP'
p1269
g4
tp1270
a(S'cefoxitin'
p1271
S'cefoxitin'
p1272
S'NN'
p1273
S'B-NP'
p1274
g4
tp1275
a(S'in'
p1276
S'in'
p1277
S'IN'
p1278
S'B-PP'
p1279
g4
tp1280
a(S'patients'
p1281
S'patient'
p1282
S'NNS'
p1283
S'B-NP'
p1284
g4
tp1285
a(S'who'
p1286
S'who'
p1287
S'WP'
p1288
S'B-NP'
p1289
g4
tp1290
a(S'have'
p1291
S'have'
p1292
S'VBP'
p1293
S'B-VP'
p1294
g4
tp1295
a(S'serious'
p1296
S'serious'
p1297
S'JJ'
p1298
S'B-NP'
p1299
g4
tp1300
a(S'infections'
p1301
S'infection'
p1302
S'NNS'
p1303
S'I-NP'
p1304
g4
tp1305
a(S'after'
p1306
S'after'
p1307
S'IN'
p1308
S'B-PP'
p1309
g4
tp1310
a(S'surgery'
p1311
S'surgery'
p1312
S'NN'
p1313
S'B-NP'
p1314
g4
tp1315
a(g72
g72
g72
g4
g4
tp1316
a.