(lp0
(S'Changes'
p1
S'Change'
p2
S'NNS'
p3
S'B-NP'
p4
S'O'
p5
tp6
a(S'in'
p7
S'in'
p8
S'IN'
p9
S'B-PP'
p10
g5
tp11
a(S'the'
p12
S'the'
p13
S'DT'
p14
S'B-NP'
p15
g5
tp16
a(S'fatty'
p17
S'fatty'
p18
S'JJ'
p19
S'I-NP'
p20
g5
tp21
a(S'acid'
p22
S'acid'
p23
S'NN'
p24
S'I-NP'
p25
g5
tp26
a(S'composition'
p27
S'composition'
p28
S'NN'
p29
S'I-NP'
p30
g5
tp31
a(S'of'
p32
S'of'
p33
S'IN'
p34
S'B-PP'
p35
g5
tp36
a(S'the'
p37
S'the'
p38
S'DT'
p39
S'B-NP'
p40
g5
tp41
a(S'plasma'
p42
S'plasma'
p43
S'NN'
p44
S'I-NP'
p45
g5
tp46
a(S'lipid'
p47
S'lipid'
p48
S'NN'
p49
S'I-NP'
p50
g5
tp51
a(S'esters'
p52
S'ester'
p53
S'NNS'
p54
S'I-NP'
p55
g5
tp56
a(S'during'
p57
S'during'
p58
S'IN'
p59
S'B-PP'
p60
g5
tp61
a(S'lipid-lowering'
p62
S'lipid-lowering'
p63
S'NN'
p64
S'B-NP'
p65
g5
tp66
a(S'treatment'
p67
S'treatment'
p68
S'NN'
p69
S'I-NP'
p70
g5
tp71
a(S'with'
p72
S'with'
p73
S'IN'
p74
S'B-PP'
p75
g5
tp76
a(S'diet'
p77
S'diet'
p78
S'NN'
p79
S'B-NP'
p80
g5
tp81
a(S','
p82
g82
g82
g5
g5
tp83
a(S'clofibrate'
p84
S'clofibrate'
p85
S'NN'
p86
S'B-NP'
p87
g5
tp88
a(S'and'
p89
S'and'
p90
S'CC'
p91
g5
g5
tp92
a(S'niceritrol.'
p93
S'niceritrol.'
p94
S'JJ'
p95
S'B-NP'
p96
g5
tp97
a(S'Reduction'
p98
S'Reduction'
p99
S'NN'
p100
S'I-NP'
p101
g5
tp102
a(S'of'
p103
S'of'
p104
S'IN'
p105
S'B-PP'
p106
g5
tp107
a(S'the'
p108
S'the'
p109
S'DT'
p110
S'B-NP'
p111
g5
tp112
a(S'proportion'
p113
S'proportion'
p114
S'NN'
p115
S'I-NP'
p116
g5
tp117
a(S'of'
p118
S'of'
p119
S'IN'
p120
S'B-PP'
p121
g5
tp122
a(S'linoleate'
p123
S'linoleate'
p124
S'NN'
p125
S'B-NP'
p126
g5
tp127
a(S'by'
p128
S'by'
p129
S'IN'
p130
S'B-PP'
p131
g5
tp132
a(S'clofibrate'
p133
S'clofibrate'
p134
S'NN'
p135
S'B-NP'
p136
g5
tp137
a(S'but'
p138
S'but'
p139
S'CC'
p140
S'B-PP'
p141
g5
tp142
a(S'not'
p143
S'not'
p144
S'RB'
p145
S'B-PP'
p146
g5
tp147
a(S'by'
p148
S'by'
p149
S'IN'
p150
S'I-PP'
p151
g5
tp152
a(S'niceritrol'
p153
S'niceritrol'
p154
S'NN'
p155
S'B-NP'
p156
g5
tp157
a(S'.'
p158
g158
g158
g5
g5
tp159
a(S'The'
p160
S'The'
p161
S'DT'
p162
S'B-NP'
p163
g5
tp164
a(S'fatty'
p165
S'fatty'
p166
S'JJ'
p167
S'I-NP'
p168
g5
tp169
a(S'acid'
p170
S'acid'
p171
S'NN'
p172
S'I-NP'
p173
g5
tp174
a(S'composition'
p175
S'composition'
p176
S'NN'
p177
S'I-NP'
p178
g5
tp179
a(S'of'
p180
S'of'
p181
S'IN'
p182
S'B-PP'
p183
g5
tp184
a(S'the'
p185
S'the'
p186
S'DT'
p187
S'B-NP'
p188
g5
tp189
a(S'plasma'
p190
S'plasma'
p191
S'NN'
p192
S'I-NP'
p193
g5
tp194
a(S'lipid'
p195
S'lipid'
p196
S'NN'
p197
S'I-NP'
p198
g5
tp199
a(S'esters'
p200
S'ester'
p201
S'NNS'
p202
S'I-NP'
p203
g5
tp204
a(S'has'
p205
S'have'
p206
S'VBZ'
p207
S'B-VP'
p208
g5
tp209
a(S'been'
p210
S'be'
p211
S'VBN'
p212
S'I-VP'
p213
g5
tp214
a(S'studied'
p215
S'study'
p216
S'VBN'
p217
S'I-VP'
p218
g5
tp219
a(S'during'
p220
S'during'
p221
S'IN'
p222
S'B-PP'
p223
g5
tp224
a(S'lipid-lowering'
p225
S'lipid-lowering'
p226
S'NN'
p227
S'B-NP'
p228
g5
tp229
a(S'treatment'
p230
S'treatment'
p231
S'NN'
p232
S'I-NP'
p233
g5
tp234
a(S'of'
p235
S'of'
p236
S'IN'
p237
S'B-PP'
p238
g5
tp239
a(S'95'
p240
S'95'
p241
S'CD'
p242
S'B-NP'
p243
g5
tp244
a(S'patients'
p245
S'patient'
p246
S'NNS'
p247
S'I-NP'
p248
g5
tp249
a(S'with'
p250
S'with'
p251
S'IN'
p252
S'B-PP'
p253
g5
tp254
a(S'atherosclerotic'
p255
S'atherosclerotic'
p256
S'JJ'
p257
S'B-NP'
p258
g5
tp259
a(S'disease.'
p260
S'disease.'
p261
S'NN'
p262
S'I-NP'
p263
g5
tp264
a(S'During'
p265
S'During'
p266
S'IN'
p267
S'B-PP'
p268
g5
tp269
a(S'the'
p270
S'the'
p271
S'DT'
p272
S'B-NP'
p273
g5
tp274
a(S'first'
p275
S'first'
p276
S'JJ'
p277
S'I-NP'
p278
g5
tp279
a(S'two'
p280
S'two'
p281
S'CD'
p282
S'I-NP'
p283
g5
tp284
a(S'months'
p285
S'month'
p286
S'NNS'
p287
S'I-NP'
p288
g5
tp289
a(S'of'
p290
S'of'
p291
S'IN'
p292
S'B-PP'
p293
g5
tp294
a(S'the'
p295
S'the'
p296
S'DT'
p297
S'B-NP'
p298
g5
tp299
a(S'trial'
p300
S'trial'
p301
S'NN'
p302
S'I-NP'
p303
g5
tp304
a(S'only'
p305
S'only'
p306
S'RB'
p307
S'B-NP'
p308
g5
tp309
a(S'a'
p310
g310
S'DT'
p311
S'I-NP'
p312
g5
tp313
a(S'diet'
p314
S'diet'
p315
S'NN'
p316
S'I-NP'
p317
g5
tp318
a(S'was'
p319
S'be'
p320
S'VBD'
p321
S'B-VP'
p322
g5
tp323
a(S'prescribed.'
p324
S'prescribed.'
p325
S'VBN'
p326
S'I-VP'
p327
g5
tp328
a(S'During'
p329
S'During'
p330
S'IN'
p331
S'B-PP'
p332
g5
tp333
a(S'the'
p334
S'the'
p335
S'DT'
p336
S'B-NP'
p337
g5
tp338
a(S'ensuing'
p339
S'ensue'
p340
S'VBG'
p341
S'I-NP'
p342
g5
tp343
a(S'two'
p344
S'two'
p345
S'CD'
p346
S'I-NP'
p347
g5
tp348
a(S'months'
p349
S'month'
p350
S'NNS'
p351
S'I-NP'
p352
g5
tp353
a(S'either'
p354
S'either'
p355
S'CC'
p356
g5
g5
tp357
a(S'clofibrate'
p358
S'clofibrate'
p359
S'NN'
p360
S'B-NP'
p361
g5
tp362
a(S'or'
p363
S'or'
p364
S'CC'
p365
S'I-NP'
p366
g5
tp367
a(S'niceritrol'
p368
S'niceritrol'
p369
S'NN'
p370
S'I-NP'
p371
g5
tp372
a(g82
g82
g82
g5
g5
tp373
a(g310
g310
S'DT'
p374
S'B-NP'
p375
g5
tp376
a(S'nicotinic'
p377
S'nicotinic'
p378
S'JJ'
p379
S'I-NP'
p380
g5
tp381
a(S'acid'
p382
S'acid'
p383
S'NN'
p384
S'I-NP'
p385
g5
tp386
a(S'ester'
p387
S'ester'
p388
S'NN'
p389
S'I-NP'
p390
g5
tp391
a(g82
g82
g82
g5
g5
tp392
a(S'was'
p393
S'be'
p394
S'VBD'
p395
S'B-VP'
p396
g5
tp397
a(S'added'
p398
S'add'
p399
S'VBN'
p400
S'I-VP'
p401
g5
tp402
a(S'in'
p403
S'in'
p404
S'IN'
p405
S'B-PP'
p406
g5
tp407
a(g310
g310
S'DT'
p408
S'B-NP'
p409
g5
tp410
a(S'randomized'
p411
S'randomize'
p412
S'VBN'
p413
S'I-NP'
p414
g5
tp415
a(S'order.'
p416
S'order.'
p417
S'NN'
p418
S'I-NP'
p419
g5
tp420
a(S'During'
p421
S'During'
p422
S'IN'
p423
S'B-PP'
p424
g5
tp425
a(S'the'
p426
S'the'
p427
S'DT'
p428
S'B-NP'
p429
g5
tp430
a(S'last'
p431
S'last'
p432
S'JJ'
p433
S'I-NP'
p434
g5
tp435
a(S'two'
p436
S'two'
p437
S'CD'
p438
S'I-NP'
p439
g5
tp440
a(S'months'
p441
S'month'
p442
S'NNS'
p443
S'I-NP'
p444
g5
tp445
a(S'the'
p446
S'the'
p447
S'DT'
p448
S'B-NP'
p449
g5
tp450
a(S'second'
p451
S'second'
p452
S'JJ'
p453
S'I-NP'
p454
g5
tp455
a(S'drug'
p456
S'drug'
p457
S'NN'
p458
S'I-NP'
p459
g5
tp460
a(S'was'
p461
S'be'
p462
S'VBD'
p463
S'B-VP'
p464
g5
tp465
a(S'added.'
p466
S'added.'
p467
S'VBN'
p468
S'I-VP'
p469
g5
tp470
a(S'The'
p471
S'The'
p472
S'DT'
p473
S'B-NP'
p474
g5
tp475
a(S'combined'
p476
S'combined'
p477
S'JJ'
p478
S'I-NP'
p479
g5
tp480
a(S'treatment'
p481
S'treatment'
p482
S'NN'
p483
S'I-NP'
p484
g5
tp485
a(S'with'
p486
S'with'
p487
S'IN'
p488
S'B-PP'
p489
g5
tp490
a(S'diet'
p491
S'diet'
p492
S'NN'
p493
S'B-NP'
p494
g5
tp495
a(g82
g82
g82
S'I-NP'
p496
g5
tp497
a(S'clofibrate'
p498
S'clofibrate'
p499
S'NN'
p500
S'I-NP'
p501
g5
tp502
a(S'and'
p503
S'and'
p504
S'CC'
p505
S'I-NP'
p506
g5
tp507
a(S'niceritrol'
p508
S'niceritrol'
p509
S'NN'
p510
S'I-NP'
p511
g5
tp512
a(S'caused'
p513
S'cause'
p514
S'VBD'
p515
S'B-VP'
p516
g5
tp517
a(S'highly'
p518
S'highly'
p519
S'RB'
p520
S'B-NP'
p521
g5
tp522
a(S'significant'
p523
S'significant'
p524
S'JJ'
p525
S'I-NP'
p526
g5
tp527
a(S'serum'
p528
S'serum'
p529
S'NN'
p530
S'I-NP'
p531
g5
tp532
a(S'lipid'
p533
S'lipid'
p534
S'NN'
p535
S'I-NP'
p536
g5
tp537
a(S'reductions.'
p538
S'reductions.'
p539
S'NN'
p540
S'I-NP'
p541
g5
tp542
a(S'The'
p543
S'The'
p544
S'DT'
p545
S'B-NP'
p546
g5
tp547
a(S'fatty'
p548
S'fatty'
p549
S'JJ'
p550
S'I-NP'
p551
g5
tp552
a(S'acid'
p553
S'acid'
p554
S'NN'
p555
S'I-NP'
p556
g5
tp557
a(S'composition'
p558
S'composition'
p559
S'NN'
p560
S'I-NP'
p561
g5
tp562
a(S'in'
p563
S'in'
p564
S'IN'
p565
S'B-PP'
p566
g5
tp567
a(S'the'
p568
S'the'
p569
S'DT'
p570
S'B-NP'
p571
g5
tp572
a(S'plasma'
p573
S'plasma'
p574
S'NN'
p575
S'I-NP'
p576
g5
tp577
a(S'lipid'
p578
S'lipid'
p579
S'NN'
p580
S'I-NP'
p581
g5
tp582
a(S'esters'
p583
S'ester'
p584
S'NNS'
p585
S'I-NP'
p586
g5
tp587
a(S'was'
p588
S'be'
p589
S'VBD'
p590
S'B-VP'
p591
g5
tp592
a(S'determined'
p593
S'determine'
p594
S'VBN'
p595
S'I-VP'
p596
g5
tp597
a(S'in'
p598
S'in'
p599
S'IN'
p600
S'B-PP'
p601
g5
tp602
a(S'samples'
p603
S'sample'
p604
S'NNS'
p605
S'B-NP'
p606
g5
tp607
a(S'from'
p608
S'from'
p609
S'IN'
p610
S'B-PP'
p611
g5
tp612
a(S'each'
p613
S'each'
p614
S'DT'
p615
S'B-NP'
p616
g5
tp617
a(S'trial'
p618
S'trial'
p619
S'NN'
p620
S'I-NP'
p621
g5
tp622
a(S'period'
p623
S'period'
p624
S'NN'
p625
S'I-NP'
p626
g5
tp627
a(S'to'
p628
S'to'
p629
S'TO'
p630
S'B-VP'
p631
g5
tp632
a(S'measure'
p633
S'measure'
p634
S'VB'
p635
S'I-VP'
p636
g5
tp637
a(S'the'
p638
S'the'
p639
S'DT'
p640
S'B-NP'
p641
g5
tp642
a(S'degree'
p643
S'degree'
p644
S'NN'
p645
S'I-NP'
p646
g5
tp647
a(S'of'
p648
S'of'
p649
S'IN'
p650
S'B-PP'
p651
g5
tp652
a(S'dietary'
p653
S'dietary'
p654
S'JJ'
p655
S'B-NP'
p656
g5
tp657
a(S'adherence.'
p658
S'adherence.'
p659
S'NN'
p660
S'I-NP'
p661
g5
tp662
a(S'During'
p663
S'During'
p664
S'IN'
p665
S'B-PP'
p666
g5
tp667
a(S'dietary'
p668
S'dietary'
p669
S'JJ'
p670
S'B-NP'
p671
g5
tp672
a(S'treatment'
p673
S'treatment'
p674
S'NN'
p675
S'I-NP'
p676
g5
tp677
a(S'the'
p678
S'the'
p679
S'DT'
p680
S'B-NP'
p681
g5
tp682
a(S'relative'
p683
S'relative'
p684
S'JJ'
p685
S'I-NP'
p686
g5
tp687
a(S'content'
p688
S'content'
p689
S'NN'
p690
S'I-NP'
p691
g5
tp692
a(S'of'
p693
S'of'
p694
S'IN'
p695
S'B-PP'
p696
g5
tp697
a(S'saturated'
p698
S'saturate'
p699
S'VBN'
p700
S'B-NP'
p701
g5
tp702
a(S'and'
p703
S'and'
p704
S'CC'
p705
S'I-NP'
p706
g5
tp707
a(S'monounsaturated'
p708
S'monounsaturate'
p709
S'VBN'
p710
S'I-NP'
p711
g5
tp712
a(S'fatty'
p713
S'fatty'
p714
S'JJ'
p715
S'I-NP'
p716
g5
tp717
a(S'acids'
p718
S'acid'
p719
S'NNS'
p720
S'I-NP'
p721
g5
tp722
a(S'secreased'
p723
S'secrease'
p724
S'VBN'
p725
S'B-VP'
p726
g5
tp727
a(S'and'
p728
S'and'
p729
S'CC'
p730
g5
g5
tp731
a(S'the'
p732
S'the'
p733
S'DT'
p734
S'B-NP'
p735
g5
tp736
a(S'polyunsaturated'
p737
S'polyunsaturate'
p738
S'VBN'
p739
S'I-NP'
p740
g5
tp741
a(S'fatty'
p742
S'fatty'
p743
S'JJ'
p744
S'I-NP'
p745
g5
tp746
a(S'acids'
p747
S'acid'
p748
S'NNS'
p749
S'I-NP'
p750
g5
tp751
a(S'increased'
p752
S'increase'
p753
S'VBD'
p754
S'B-VP'
p755
g5
tp756
a(S'with'
p757
S'with'
p758
S'IN'
p759
S'B-PP'
p760
g5
tp761
a(S'an'
p762
S'an'
p763
S'DT'
p764
S'B-NP'
p765
g5
tp766
a(S'increasing'
p767
S'increase'
p768
S'VBG'
p769
S'I-NP'
p770
g5
tp771
a(S'ratio'
p772
S'ratio'
p773
S'NN'
p774
S'I-NP'
p775
g5
tp776
a(S'between'
p777
S'between'
p778
S'IN'
p779
S'B-PP'
p780
g5
tp781
a(S'pulyunsaturated'
p782
S'pulyunsaturated'
p783
S'JJ'
p784
S'B-NP'
p785
g5
tp786
a(S'and'
p787
S'and'
p788
S'CC'
p789
S'I-NP'
p790
g5
tp791
a(S'saturated'
p792
S'saturated'
p793
S'JJ'
p794
S'I-NP'
p795
g5
tp796
a(S'fatty'
p797
S'fatty'
p798
S'JJ'
p799
S'I-NP'
p800
g5
tp801
a(S'acids'
p802
S'acid'
p803
S'NNS'
p804
S'I-NP'
p805
g5
tp806
a(S'('
p807
g807
g807
g5
g5
tp808
a(S'P/S'
p809
S'P/S'
p810
S'NN'
p811
S'B-NP'
p812
g5
tp813
a(S'ratio'
p814
S'ratio'
p815
S'NN'
p816
S'I-NP'
p817
g5
tp818
a(S')'
p819
g819
g819
g5
g5
tp820
a(S'in'
p821
S'in'
p822
S'IN'
p823
S'B-PP'
p824
g5
tp825
a(S'the'
p826
S'the'
p827
S'DT'
p828
S'B-NP'
p829
g5
tp830
a(S'cholesterol'
p831
S'cholesterol'
p832
S'NN'
p833
S'I-NP'
p834
g5
tp835
a(S'esters'
p836
S'ester'
p837
S'NNS'
p838
S'I-NP'
p839
g5
tp840
a(S'and'
p841
S'and'
p842
S'CC'
p843
g5
g5
tp844
a(S'triglycerides.'
p845
S'triglycerides.'
p846
S'VB'
p847
S'B-VP'
p848
g5
tp849
a(S'Only'
p850
S'Only'
p851
S'RB'
p852
S'B-NP'
p853
g5
tp854
a(S'minor'
p855
S'minor'
p856
S'JJ'
p857
S'I-NP'
p858
g5
tp859
a(S'changes'
p860
S'change'
p861
S'NNS'
p862
S'I-NP'
p863
g5
tp864
a(S'were'
p865
S'be'
p866
S'VBD'
p867
S'B-VP'
p868
g5
tp869
a(S'seen'
p870
S'see'
p871
S'VBN'
p872
S'I-VP'
p873
g5
tp874
a(S'in'
p875
S'in'
p876
S'IN'
p877
S'B-PP'
p878
g5
tp879
a(S'the'
p880
S'the'
p881
S'DT'
p882
S'B-NP'
p883
g5
tp884
a(S'phospholipids.'
p885
S'phospholipids.'
p886
S'NN'
p887
S'I-NP'
p888
g5
tp889
a(S'The'
p890
S'The'
p891
S'DT'
p892
S'B-NP'
p893
g5
tp894
a(S'changes'
p895
S'change'
p896
S'NNS'
p897
S'I-NP'
p898
g5
tp899
a(S'caused'
p900
S'cause'
p901
S'VBN'
p902
S'B-VP'
p903
g5
tp904
a(S'by'
p905
S'by'
p906
S'IN'
p907
S'B-PP'
p908
g5
tp909
a(S'the'
p910
S'the'
p911
S'DT'
p912
S'B-NP'
p913
g5
tp914
a(S'diet'
p915
S'diet'
p916
S'NN'
p917
S'I-NP'
p918
g5
tp919
a(S'were'
p920
S'be'
p921
S'VBD'
p922
S'B-VP'
p923
g5
tp924
a(S'partly'
p925
S'partly'
p926
S'RB'
p927
S'I-VP'
p928
g5
tp929
a(S'reversed'
p930
S'reverse'
p931
S'VBN'
p932
S'I-VP'
p933
g5
tp934
a(S'by'
p935
S'by'
p936
S'IN'
p937
S'B-PP'
p938
g5
tp939
a(S'clofibrate'
p940
S'clofibrate'
p941
S'NN'
p942
S'B-NP'
p943
g5
tp944
a(S'while'
p945
S'while'
p946
S'IN'
p947
S'B-SBAR'
p948
g5
tp949
a(S'niceritrol'
p950
S'niceritrol'
p951
S'NN'
p952
S'B-NP'
p953
g5
tp954
a(S'did'
p955
S'do'
p956
S'VBD'
p957
S'B-VP'
p958
g5
tp959
a(S'not'
p960
S'not'
p961
S'RB'
p962
S'I-VP'
p963
g5
tp964
a(S'cause'
p965
S'cause'
p966
S'VB'
p967
S'I-VP'
p968
g5
tp969
a(S'any'
p970
S'any'
p971
S'DT'
p972
S'B-NP'
p973
g5
tp974
a(S'major'
p975
S'major'
p976
S'JJ'
p977
S'I-NP'
p978
g5
tp979
a(S'changes'
p980
S'change'
p981
S'NNS'
p982
S'I-NP'
p983
g5
tp984
a(S'of'
p985
S'of'
p986
S'IN'
p987
S'B-PP'
p988
g5
tp989
a(S'the'
p990
S'the'
p991
S'DT'
p992
S'B-NP'
p993
g5
tp994
a(S'fatty'
p995
S'fatty'
p996
S'JJ'
p997
S'I-NP'
p998
g5
tp999
a(S'acid'
p1000
S'acid'
p1001
S'NN'
p1002
S'I-NP'
p1003
g5
tp1004
a(S'composition.'
p1005
S'composition.'
p1006
S'NN'
p1007
S'I-NP'
p1008
g5
tp1009
a(S'Clofibrate'
p1010
S'Clofibrate'
p1011
S'NN'
p1012
S'I-NP'
p1013
g5
tp1014
a(S'treatment'
p1015
S'treatment'
p1016
S'NN'
p1017
S'I-NP'
p1018
g5
tp1019
a(S'coincided'
p1020
S'coincide'
p1021
S'VBD'
p1022
S'B-VP'
p1023
g5
tp1024
a(S'with'
p1025
S'with'
p1026
S'IN'
p1027
S'B-PP'
p1028
g5
tp1029
a(S'increasing'
p1030
S'increase'
p1031
S'VBG'
p1032
S'B-NP'
p1033
g5
tp1034
a(S'amounts'
p1035
S'amount'
p1036
S'NNS'
p1037
S'I-NP'
p1038
g5
tp1039
a(S'of'
p1040
S'of'
p1041
S'IN'
p1042
S'B-PP'
p1043
g5
tp1044
a(S'monounsaturated'
p1045
S'monounsaturated'
p1046
S'JJ'
p1047
S'B-NP'
p1048
g5
tp1049
a(S'fatty'
p1050
S'fatty'
p1051
S'JJ'
p1052
S'I-NP'
p1053
g5
tp1054
a(S'acids'
p1055
S'acid'
p1056
S'NNS'
p1057
S'I-NP'
p1058
g5
tp1059
a(g82
g82
g82
g5
g5
tp1060
a(S'especially'
p1061
S'especially'
p1062
S'RB'
p1063
S'B-NP'
p1064
g5
tp1065
a(S'oleate'
p1066
S'oleate'
p1067
S'NN'
p1068
S'I-NP'
p1069
g5
tp1070
a(g807
g807
g807
g5
g5
tp1071
a(S'18'
p1072
S'18'
p1073
S'CD'
p1074
S'B-NP'
p1075
g5
tp1076
a(S':'
p1077
g1077
g1077
g5
g5
tp1078
a(S'1'
p1079
g1079
S'CD'
p1080
S'B-NP'
p1081
g5
tp1082
a(g819
g819
g819
g5
g5
tp1083
a(g82
g82
g82
g5
g5
tp1084
a(S'in'
p1085
S'in'
p1086
S'IN'
p1087
S'B-PP'
p1088
g5
tp1089
a(S'the'
p1090
S'the'
p1091
S'DT'
p1092
S'B-NP'
p1093
g5
tp1094
a(S'cholesterol'
p1095
S'cholesterol'
p1096
S'NN'
p1097
S'I-NP'
p1098
g5
tp1099
a(S'esters'
p1100
S'ester'
p1101
S'NNS'
p1102
S'I-NP'
p1103
g5
tp1104
a(g82
g82
g82
g5
g5
tp1105
a(S'triglycerides'
p1106
S'triglyceride'
p1107
S'NNS'
p1108
S'B-NP'
p1109
g5
tp1110
a(S'and'
p1111
S'and'
p1112
S'CC'
p1113
g5
g5
tp1114
a(S'phospholipids'
p1115
S'phospholipid'
p1116
S'NNS'
p1117
S'B-NP'
p1118
g5
tp1119
a(S'while'
p1120
S'while'
p1121
S'IN'
p1122
S'B-SBAR'
p1123
g5
tp1124
a(S'there'
p1125
S'there'
p1126
S'EX'
p1127
S'B-NP'
p1128
g5
tp1129
a(S'were'
p1130
S'be'
p1131
S'VBD'
p1132
S'B-VP'
p1133
g5
tp1134
a(S'significant'
p1135
S'significant'
p1136
S'JJ'
p1137
S'B-NP'
p1138
g5
tp1139
a(S'reductions'
p1140
S'reduction'
p1141
S'NNS'
p1142
S'I-NP'
p1143
g5
tp1144
a(S'of'
p1145
S'of'
p1146
S'IN'
p1147
S'B-PP'
p1148
g5
tp1149
a(S'the'
p1150
S'the'
p1151
S'DT'
p1152
S'B-NP'
p1153
g5
tp1154
a(S'content'
p1155
S'content'
p1156
S'NN'
p1157
S'I-NP'
p1158
g5
tp1159
a(S'of'
p1160
S'of'
p1161
S'IN'
p1162
S'B-PP'
p1163
g5
tp1164
a(S'linoleic'
p1165
S'linoleic'
p1166
S'JJ'
p1167
S'B-NP'
p1168
g5
tp1169
a(g807
g807
g807
g5
g5
tp1170
a(S'18'
p1171
S'18'
p1172
S'CD'
p1173
S'B-NP'
p1174
g5
tp1175
a(g1077
g1077
g1077
g5
g5
tp1176
a(S'2'
p1177
g1177
S'CD'
p1178
S'B-NP'
p1179
g5
tp1180
a(g819
g819
g819
g5
g5
tp1181
a(S'acid'
p1182
S'acid'
p1183
S'NN'
p1184
S'B-NP'
p1185
g5
tp1186
a(S'in'
p1187
S'in'
p1188
S'IN'
p1189
S'B-PP'
p1190
g5
tp1191
a(S'both'
p1192
S'both'
p1193
S'CC'
p1194
g5
g5
tp1195
a(S'the'
p1196
S'the'
p1197
S'DT'
p1198
S'B-NP'
p1199
g5
tp1200
a(S'cholesterol'
p1201
S'cholesterol'
p1202
S'NN'
p1203
S'I-NP'
p1204
g5
tp1205
a(S'esters'
p1206
S'ester'
p1207
S'NNS'
p1208
S'I-NP'
p1209
g5
tp1210
a(S'and'
p1211
S'and'
p1212
S'CC'
p1213
g5
g5
tp1214
a(S'triglycerides.'
p1215
S'triglycerides.'
p1216
S'VB'
p1217
S'B-VP'
p1218
g5
tp1219
a(S'The'
p1220
S'The'
p1221
S'DT'
p1222
S'B-NP'
p1223
g5
tp1224
a(S'18'
p1225
S'18'
p1226
S'CD'
p1227
S'I-NP'
p1228
g5
tp1229
a(g1077
g1077
g1077
g5
g5
tp1230
a(S'2/18'
p1231
S'2/18'
p1232
S'CD'
p1233
S'B-NP'
p1234
g5
tp1235
a(g1077
g1077
g1077
g5
g5
tp1236
a(g1079
g1079
S'CD'
p1237
S'B-NP'
p1238
g5
tp1239
a(S'ratio'
p1240
S'ratio'
p1241
S'NN'
p1242
S'I-NP'
p1243
g5
tp1244
a(S'decreased'
p1245
S'decrease'
p1246
S'VBD'
p1247
S'B-VP'
p1248
g5
tp1249
a(S'significantly'
p1250
S'significantly'
p1251
S'RB'
p1252
S'B-ADVP'
p1253
g5
tp1254
a(S'in'
p1255
S'in'
p1256
S'IN'
p1257
S'B-PP'
p1258
g5
tp1259
a(S'all'
p1260
S'all'
p1261
S'PDT'
p1262
S'B-NP'
p1263
g5
tp1264
a(S'the'
p1265
S'the'
p1266
S'DT'
p1267
S'I-NP'
p1268
g5
tp1269
a(S'lipid'
p1270
S'lipid'
p1271
S'NN'
p1272
S'I-NP'
p1273
g5
tp1274
a(S'esters'
p1275
S'ester'
p1276
S'NNS'
p1277
S'I-NP'
p1278
g5
tp1279
a(S'analyzed.'
p1280
S'analyzed.'
p1281
S'RB'
p1282
S'B-ADVP'
p1283
g5
tp1284
a(S'However'
p1285
S'However'
p1286
S'RB'
p1287
S'B-ADVP'
p1288
g5
tp1289
a(g82
g82
g82
g5
g5
tp1290
a(S'the'
p1291
S'the'
p1292
S'DT'
p1293
S'B-NP'
p1294
g5
tp1295
a(S'P/S'
p1296
S'P/S'
p1297
S'NN'
p1298
S'I-NP'
p1299
g5
tp1300
a(S'ratio'
p1301
S'ratio'
p1302
S'NN'
p1303
S'I-NP'
p1304
g5
tp1305
a(S'was'
p1306
S'be'
p1307
S'VBD'
p1308
S'B-VP'
p1309
g5
tp1310
a(S'not'
p1311
S'not'
p1312
S'RB'
p1313
S'I-VP'
p1314
g5
tp1315
a(S'significantly'
p1316
S'significantly'
p1317
S'RB'
p1318
S'I-VP'
p1319
g5
tp1320
a(S'affected'
p1321
S'affect'
p1322
S'VBN'
p1323
S'I-VP'
p1324
g5
tp1325
a(g82
g82
g82
g5
g5
tp1326
a(S'partly'
p1327
S'partly'
p1328
S'RB'
p1329
S'B-ADVP'
p1330
g5
tp1331
a(S'because'
p1332
S'because'
p1333
S'IN'
p1334
S'B-SBAR'
p1335
g5
tp1336
a(S'the'
p1337
S'the'
p1338
S'DT'
p1339
S'B-NP'
p1340
g5
tp1341
a(S'relative'
p1342
S'relative'
p1343
S'JJ'
p1344
S'I-NP'
p1345
g5
tp1346
a(S'content'
p1347
S'content'
p1348
S'NN'
p1349
S'I-NP'
p1350
g5
tp1351
a(S'of'
p1352
S'of'
p1353
S'IN'
p1354
S'B-PP'
p1355
g5
tp1356
a(S'saturated'
p1357
S'saturated'
p1358
S'JJ'
p1359
S'B-NP'
p1360
g5
tp1361
a(S'fatty'
p1362
S'fatty'
p1363
S'JJ'
p1364
S'I-NP'
p1365
g5
tp1366
a(S'acids'
p1367
S'acid'
p1368
S'NNS'
p1369
S'I-NP'
p1370
g5
tp1371
a(S'also'
p1372
S'also'
p1373
S'RB'
p1374
S'B-ADVP'
p1375
g5
tp1376
a(S'tended'
p1377
S'tend'
p1378
S'VBD'
p1379
S'B-VP'
p1380
g5
tp1381
a(S'to'
p1382
S'to'
p1383
S'TO'
p1384
S'I-VP'
p1385
g5
tp1386
a(S'decrease'
p1387
S'decrease'
p1388
S'VB'
p1389
S'I-VP'
p1390
g5
tp1391
a(S'during'
p1392
S'during'
p1393
S'IN'
p1394
S'B-PP'
p1395
g5
tp1396
a(S'clofibrate'
p1397
S'clofibrate'
p1398
S'NN'
p1399
S'B-NP'
p1400
g5
tp1401
a(S'treatment.'
p1402
S'treatment.'
p1403
S'NN'
p1404
S'I-NP'
p1405
g5
tp1406
a(S'It'
p1407
S'It'
p1408
S'PRP'
p1409
S'B-NP'
p1410
g5
tp1411
a(S'is'
p1412
S'be'
p1413
S'VBZ'
p1414
S'B-VP'
p1415
g5
tp1416
a(S'concluded'
p1417
S'conclude'
p1418
S'VBN'
p1419
S'I-VP'
p1420
g5
tp1421
a(S'that'
p1422
S'that'
p1423
S'IN'
p1424
S'B-SBAR'
p1425
g5
tp1426
a(S'addition'
p1427
S'addition'
p1428
S'NN'
p1429
S'B-NP'
p1430
g5
tp1431
a(S'of'
p1432
S'of'
p1433
S'IN'
p1434
S'B-PP'
p1435
g5
tp1436
a(S'clofibrate'
p1437
S'clofibrate'
p1438
S'NN'
p1439
S'B-NP'
p1440
g5
tp1441
a(S'treatment'
p1442
S'treatment'
p1443
S'NN'
p1444
S'I-NP'
p1445
g5
tp1446
a(S'to'
p1447
S'to'
p1448
S'TO'
p1449
S'B-PP'
p1450
g5
tp1451
a(S'patients'
p1452
S'patient'
p1453
S'NNS'
p1454
S'B-NP'
p1455
g5
tp1456
a(S'who'
p1457
S'who'
p1458
S'WP'
p1459
S'B-NP'
p1460
g5
tp1461
a(S'are'
p1462
S'be'
p1463
S'VBP'
p1464
S'B-VP'
p1465
g5
tp1466
a(S'on'
p1467
S'on'
p1468
S'IN'
p1469
S'B-PP'
p1470
g5
tp1471
a(g310
g310
S'DT'
p1472
S'B-NP'
p1473
g5
tp1474
a(S'diet'
p1475
S'diet'
p1476
S'NN'
p1477
S'I-NP'
p1478
g5
tp1479
a(S'enriched'
p1480
S'enrich'
p1481
S'VBN'
p1482
S'B-VP'
p1483
g5
tp1484
a(S'with'
p1485
S'with'
p1486
S'IN'
p1487
S'B-PP'
p1488
g5
tp1489
a(S'polyunsaturated'
p1490
S'polyunsaturate'
p1491
S'VBN'
p1492
S'B-NP'
p1493
g5
tp1494
a(S'fats'
p1495
S'fat'
p1496
S'NNS'
p1497
S'I-NP'
p1498
g5
tp1499
a(S'is'
p1500
S'be'
p1501
S'VBZ'
p1502
S'B-VP'
p1503
g5
tp1504
a(S'associated'
p1505
S'associate'
p1506
S'VBN'
p1507
S'I-VP'
p1508
g5
tp1509
a(S'with'
p1510
S'with'
p1511
S'IN'
p1512
S'B-PP'
p1513
g5
tp1514
a(g310
g310
S'DT'
p1515
S'B-NP'
p1516
g5
tp1517
a(S'change'
p1518
S'change'
p1519
S'NN'
p1520
S'I-NP'
p1521
g5
tp1522
a(S'from'
p1523
S'from'
p1524
S'IN'
p1525
S'B-PP'
p1526
g5
tp1527
a(S'polyunsaturated'
p1528
S'polyunsaturate'
p1529
S'VBN'
p1530
S'B-VP'
p1531
g5
tp1532
a(S'to'
p1533
S'to'
p1534
S'TO'
p1535
S'B-PP'
p1536
g5
tp1537
a(S'monounsaturated'
p1538
S'monounsaturated'
p1539
S'JJ'
p1540
S'B-NP'
p1541
g5
tp1542
a(S'fatty'
p1543
S'fatty'
p1544
S'JJ'
p1545
S'I-NP'
p1546
g5
tp1547
a(S'acids'
p1548
S'acid'
p1549
S'NNS'
p1550
S'I-NP'
p1551
g5
tp1552
a(S'in'
p1553
S'in'
p1554
S'IN'
p1555
S'B-PP'
p1556
g5
tp1557
a(S'the'
p1558
S'the'
p1559
S'DT'
p1560
S'B-NP'
p1561
g5
tp1562
a(S'plasma'
p1563
S'plasma'
p1564
S'NN'
p1565
S'I-NP'
p1566
g5
tp1567
a(S'lipid'
p1568
S'lipid'
p1569
S'NN'
p1570
S'I-NP'
p1571
g5
tp1572
a(S'esters'
p1573
S'ester'
p1574
S'NNS'
p1575
S'I-NP'
p1576
g5
tp1577
a(S'but'
p1578
S'but'
p1579
S'CC'
p1580
g5
g5
tp1581
a(S'does'
p1582
S'do'
p1583
S'VBZ'
p1584
S'B-VP'
p1585
g5
tp1586
a(S'not'
p1587
S'not'
p1588
S'RB'
p1589
S'I-VP'
p1590
g5
tp1591
a(S'significantly'
p1592
S'significantly'
p1593
S'RB'
p1594
S'I-VP'
p1595
g5
tp1596
a(S'effect'
p1597
S'effect'
p1598
S'VB'
p1599
S'I-VP'
p1600
g5
tp1601
a(S'the'
p1602
S'the'
p1603
S'DT'
p1604
S'B-NP'
p1605
g5
tp1606
a(S'ratio'
p1607
S'ratio'
p1608
S'NN'
p1609
S'I-NP'
p1610
g5
tp1611
a(S'between'
p1612
S'between'
p1613
S'IN'
p1614
S'B-PP'
p1615
g5
tp1616
a(S'polyunsaturated'
p1617
S'polyunsaturated'
p1618
S'JJ'
p1619
S'B-NP'
p1620
g5
tp1621
a(S'and'
p1622
S'and'
p1623
S'CC'
p1624
S'I-NP'
p1625
g5
tp1626
a(S'saturated'
p1627
S'saturated'
p1628
S'JJ'
p1629
S'I-NP'
p1630
g5
tp1631
a(S'fatty'
p1632
S'fatty'
p1633
S'JJ'
p1634
S'I-NP'
p1635
g5
tp1636
a(S'acids.'
p1637
S'acids.'
p1638
S'NN'
p1639
S'I-NP'
p1640
g5
tp1641
a(S'The'
p1642
S'The'
p1643
S'DT'
p1644
S'B-NP'
p1645
g5
tp1646
a(S'fatty'
p1647
S'fatty'
p1648
S'JJ'
p1649
S'I-NP'
p1650
g5
tp1651
a(S'acid'
p1652
S'acid'
p1653
S'NN'
p1654
S'I-NP'
p1655
g5
tp1656
a(S'changes'
p1657
S'change'
p1658
S'NNS'
p1659
S'I-NP'
p1660
g5
tp1661
a(S'caused'
p1662
S'cause'
p1663
S'VBN'
p1664
S'B-VP'
p1665
g5
tp1666
a(S'by'
p1667
S'by'
p1668
S'IN'
p1669
S'B-PP'
p1670
g5
tp1671
a(S'clofibrate'
p1672
S'clofibrate'
p1673
S'NN'
p1674
S'B-NP'
p1675
g5
tp1676
a(S'treatment'
p1677
S'treatment'
p1678
S'NN'
p1679
S'I-NP'
p1680
g5
tp1681
a(S'and'
p1682
S'and'
p1683
S'CC'
p1684
g5
g5
tp1685
a(S'counteracted'
p1686
S'counteract'
p1687
S'VBN'
p1688
S'B-VP'
p1689
g5
tp1690
a(S'by'
p1691
S'by'
p1692
S'IN'
p1693
S'B-PP'
p1694
g5
tp1695
a(S'an'
p1696
S'an'
p1697
S'DT'
p1698
S'B-NP'
p1699
g5
tp1700
a(S'increased'
p1701
S'increase'
p1702
S'VBN'
p1703
S'I-NP'
p1704
g5
tp1705
a(S'amount'
p1706
S'amount'
p1707
S'NN'
p1708
S'I-NP'
p1709
g5
tp1710
a(S'of'
p1711
S'of'
p1712
S'IN'
p1713
S'B-PP'
p1714
g5
tp1715
a(S'polyunsaturated'
p1716
S'polyunsaturate'
p1717
S'VBN'
p1718
S'B-NP'
p1719
g5
tp1720
a(S'fat'
p1721
S'fat'
p1722
S'NN'
p1723
S'I-NP'
p1724
g5
tp1725
a(S'in'
p1726
S'in'
p1727
S'IN'
p1728
S'B-PP'
p1729
g5
tp1730
a(S'the'
p1731
S'the'
p1732
S'DT'
p1733
S'B-NP'
p1734
g5
tp1735
a(S'diet'
p1736
S'diet'
p1737
S'NN'
p1738
S'I-NP'
p1739
g5
tp1740
a(g158
g158
g158
g5
g5
tp1741
a.