(lp0
(S'The'
p1
S'The'
p2
S'DT'
p3
S'B-NP'
p4
S'O'
p5
tp6
a(S'effect'
p7
S'effect'
p8
S'NN'
p9
S'I-NP'
p10
g5
tp11
a(S'of'
p12
S'of'
p13
S'IN'
p14
S'B-PP'
p15
g5
tp16
a(S'levetiracetam'
p17
S'levetiracetam'
p18
S'NN'
p19
S'B-NP'
p20
g5
tp21
a(S'on'
p22
S'on'
p23
S'IN'
p24
S'B-PP'
p25
g5
tp26
a(S'essential'
p27
S'essential'
p28
S'JJ'
p29
S'B-NP'
p30
g5
tp31
a(S'tremor'
p32
S'tremor'
p33
S'NN'
p34
S'I-NP'
p35
g5
tp36
a(S'.'
p37
g37
g37
g5
g5
tp38
a(S'The'
p39
S'The'
p40
S'DT'
p41
S'B-NP'
p42
g5
tp43
a(S'effect'
p44
S'effect'
p45
S'NN'
p46
S'I-NP'
p47
g5
tp48
a(S'of'
p49
S'of'
p50
S'IN'
p51
S'B-PP'
p52
g5
tp53
a(S'a'
p54
g54
S'DT'
p55
S'B-NP'
p56
g5
tp57
a(S'single'
p58
S'single'
p59
S'JJ'
p60
S'I-NP'
p61
g5
tp62
a(S'dose'
p63
S'dose'
p64
S'NN'
p65
S'I-NP'
p66
g5
tp67
a(S'of'
p68
S'of'
p69
S'IN'
p70
S'B-PP'
p71
g5
tp72
a(S'1'
p73
g73
S'CD'
p74
S'B-NP'
p75
g5
tp76
a(S','
p77
g77
g77
g5
g5
tp78
a(S'000'
p79
S'000'
p80
S'CD'
p81
S'B-NP'
p82
g5
tp83
a(S'mg'
p84
S'mg'
p85
S'NN'
p86
S'I-NP'
p87
g5
tp88
a(S'of'
p89
S'of'
p90
S'IN'
p91
S'B-PP'
p92
g5
tp93
a(S'levetiracetam'
p94
S'levetiracetam'
p95
S'NN'
p96
S'B-NP'
p97
g5
tp98
a(S'on'
p99
S'on'
p100
S'IN'
p101
S'B-PP'
p102
g5
tp103
a(S'essential'
p104
S'essential'
p105
S'JJ'
p106
S'B-NP'
p107
g5
tp108
a(S'tremor'
p109
S'tremor'
p110
S'NN'
p111
S'I-NP'
p112
g5
tp113
a(S'was'
p114
S'be'
p115
S'VBD'
p116
S'B-VP'
p117
g5
tp118
a(S'investigated'
p119
S'investigate'
p120
S'VBN'
p121
S'I-VP'
p122
g5
tp123
a(S'in'
p124
S'in'
p125
S'IN'
p126
S'B-PP'
p127
g5
tp128
a(S'24'
p129
S'24'
p130
S'CD'
p131
S'B-NP'
p132
g5
tp133
a(S'patients'
p134
S'patient'
p135
S'NNS'
p136
S'I-NP'
p137
g5
tp138
a(S'in'
p139
S'in'
p140
S'IN'
p141
S'B-PP'
p142
g5
tp143
a(g54
g54
S'DT'
p144
S'B-NP'
p145
g5
tp146
a(S'double-blind'
p147
S'double-blind'
p148
S'JJ'
p149
S'I-NP'
p150
g5
tp151
a(g77
g77
g77
S'I-NP'
p152
g5
tp153
a(S'placebo-controlled'
p154
S'placebo-controlled'
p155
S'JJ'
p156
S'I-NP'
p157
g5
tp158
a(S'trial.'
p159
S'trial.'
p160
S'NN'
p161
S'I-NP'
p162
g5
tp163
a(S'There'
p164
S'There'
p165
S'EX'
p166
S'B-NP'
p167
g5
tp168
a(S'was'
p169
S'be'
p170
S'VBD'
p171
S'B-VP'
p172
g5
tp173
a(g54
g54
S'DT'
p174
S'B-NP'
p175
g5
tp176
a(S'significant'
p177
S'significant'
p178
S'JJ'
p179
S'I-NP'
p180
g5
tp181
a(S'reduction'
p182
S'reduction'
p183
S'NN'
p184
S'I-NP'
p185
g5
tp186
a(S'of'
p187
S'of'
p188
S'IN'
p189
S'B-PP'
p190
g5
tp191
a(S'hand'
p192
S'hand'
p193
S'NN'
p194
S'B-NP'
p195
g5
tp196
a(S'tremor'
p197
S'tremor'
p198
S'NN'
p199
S'I-NP'
p200
g5
tp201
a(S'for'
p202
S'for'
p203
S'IN'
p204
S'B-PP'
p205
g5
tp206
a(S'at'
p207
S'at'
p208
S'IN'
p209
S'B-NP'
p210
g5
tp211
a(S'least'
p212
S'least'
p213
S'JJS'
p214
S'I-NP'
p215
g5
tp216
a(S'2'
p217
g217
S'CD'
p218
S'I-NP'
p219
g5
tp220
a(S'hours'
p221
S'hour'
p222
S'NNS'
p223
S'I-NP'
p224
g5
tp225
a(S'as'
p226
S'as'
p227
S'IN'
p228
S'B-SBAR'
p229
g5
tp230
a(S'measured'
p231
S'measure'
p232
S'VBN'
p233
S'B-VP'
p234
g5
tp235
a(S'by'
p236
S'by'
p237
S'IN'
p238
S'B-PP'
p239
g5
tp240
a(S'accelerometry'
p241
S'accelerometry'
p242
S'NN'
p243
S'B-NP'
p244
g5
tp245
a(S'and'
p246
S'and'
p247
S'CC'
p248
g5
g5
tp249
a(S'functional'
p250
S'functional'
p251
S'JJ'
p252
S'B-NP'
p253
g5
tp254
a(S'tests'
p255
S'test'
p256
S'NNS'
p257
S'I-NP'
p258
g5
tp259
a(g37
g37
g37
g5
g5
tp260
a.