(lp0
(S'The'
p1
S'The'
p2
S'DT'
p3
S'B-NP'
p4
S'O'
p5
tp6
a(S'role'
p7
S'role'
p8
S'NN'
p9
S'I-NP'
p10
g5
tp11
a(S'of'
p12
S'of'
p13
S'IN'
p14
S'B-PP'
p15
g5
tp16
a(S'routinely'
p17
S'routinely'
p18
S'RB'
p19
S'B-NP'
p20
g5
tp21
a(S'given'
p22
S'give'
p23
S'VBN'
p24
S'I-NP'
p25
g5
tp26
a(S'hyoscine-N-butylbromide'
p27
S'hyoscine-N-butylbromide'
p28
S'NN'
p29
S'I-NP'
p30
g5
tp31
a(S'in'
p32
S'in'
p33
S'IN'
p34
S'B-PP'
p35
g5
tp36
a(S'colonoscopy'
p37
S'colonoscopy'
p38
S'NN'
p39
S'B-NP'
p40
g5
tp41
a(S':'
p42
g42
g42
g5
g5
tp43
a(S'a'
p44
g44
S'DT'
p45
S'B-NP'
p46
g5
tp47
a(S'double-blind'
p48
S'double-blind'
p49
S'JJ'
p50
S'I-NP'
p51
g5
tp52
a(S','
p53
g53
g53
S'I-NP'
p54
g5
tp55
a(S'randomized'
p56
S'randomize'
p57
S'VBN'
p58
S'I-NP'
p59
g5
tp60
a(g53
g53
g53
S'I-NP'
p61
g5
tp62
a(S'placebo-controlled'
p63
S'placebo-controlled'
p64
S'JJ'
p65
S'I-NP'
p66
g5
tp67
a(g53
g53
g53
S'I-NP'
p68
g5
tp69
a(S'clinical'
p70
S'clinical'
p71
S'JJ'
p72
S'I-NP'
p73
g5
tp74
a(S'trial'
p75
S'trial'
p76
S'NN'
p77
S'I-NP'
p78
g5
tp79
a(S'.'
p80
g80
g80
g5
g5
tp81
a(S'OBJECTIVE'
p82
S'OBJECTIVE'
p83
S'NN'
p84
S'B-NP'
p85
g5
tp86
a(S'Hyoscine-N-butylbromide'
p87
S'Hyoscine-N-butylbromide'
p88
S'NN'
p89
S'I-NP'
p90
g5
tp91
a(S'('
p92
g92
g92
g5
g5
tp93
a(S'HBB'
p94
S'HBB'
p95
S'NN'
p96
S'B-NP'
p97
S'B-protein'
p98
tp99
a(S')'
p100
g100
g100
g5
g5
tp101
a(S'has'
p102
S'have'
p103
S'VBZ'
p104
S'B-VP'
p105
g5
tp106
a(S'been'
p107
S'be'
p108
S'VBN'
p109
S'I-VP'
p110
g5
tp111
a(S'proposed'
p112
S'propose'
p113
S'VBN'
p114
S'I-VP'
p115
g5
tp116
a(S'to'
p117
S'to'
p118
S'TO'
p119
S'I-VP'
p120
g5
tp121
a(S'ease'
p122
S'ease'
p123
S'VB'
p124
S'I-VP'
p125
g5
tp126
a(S'colonoscopy'
p127
S'colonoscopy'
p128
S'NN'
p129
S'B-NP'
p130
g5
tp131
a(S'and'
p132
S'and'
p133
S'CC'
p134
g5
g5
tp135
a(S'improve'
p136
S'improve'
p137
S'VB'
p138
S'B-VP'
p139
g5
tp140
a(S'mucosal'
p141
S'mucosal'
p142
S'JJ'
p143
S'B-NP'
p144
g5
tp145
a(S'visualization'
p146
S'visualization'
p147
S'NN'
p148
S'I-NP'
p149
g5
tp150
a(g53
g53
g53
g5
g5
tp151
a(S'yet'
p152
S'yet'
p153
S'RB'
p154
g5
g5
tp155
a(S'the'
p156
S'the'
p157
S'DT'
p158
S'B-NP'
p159
g5
tp160
a(S'results'
p161
S'result'
p162
S'NNS'
p163
S'I-NP'
p164
g5
tp165
a(S'from'
p166
S'from'
p167
S'IN'
p168
S'B-PP'
p169
g5
tp170
a(S'previous'
p171
S'previous'
p172
S'JJ'
p173
S'B-NP'
p174
g5
tp175
a(S'studies'
p176
S'study'
p177
S'NNS'
p178
S'I-NP'
p179
g5
tp180
a(S'are'
p181
S'be'
p182
S'VBP'
p183
S'B-VP'
p184
g5
tp185
a(S'conflicting.'
p186
S'conflicting.'
p187
S'NN'
p188
S'B-NP'
p189
g5
tp190
a(S'In'
p191
S'In'
p192
S'IN'
p193
S'B-PP'
p194
g5
tp195
a(S'our'
p196
S'our'
p197
S'PRP$'
p198
S'B-NP'
p199
g5
tp200
a(S'prospective'
p201
S'prospective'
p202
S'JJ'
p203
S'I-NP'
p204
g5
tp205
a(g53
g53
g53
S'I-NP'
p206
g5
tp207
a(S'double-blind'
p208
S'double-blind'
p209
S'JJ'
p210
S'I-NP'
p211
g5
tp212
a(g53
g53
g53
S'I-NP'
p213
g5
tp214
a(S'placebo-controlled'
p215
S'placebo-controlled'
p216
S'JJ'
p217
S'I-NP'
p218
g5
tp219
a(g53
g53
g53
S'I-NP'
p220
g5
tp221
a(S'randomized'
p222
S'randomize'
p223
S'VBN'
p224
S'I-NP'
p225
g5
tp226
a(S'study'
p227
S'study'
p228
S'NN'
p229
S'I-NP'
p230
g5
tp231
a(S'we'
p232
S'we'
p233
S'PRP'
p234
S'B-NP'
p235
g5
tp236
a(S'aimed'
p237
S'aim'
p238
S'VBD'
p239
S'B-VP'
p240
g5
tp241
a(S'at'
p242
S'at'
p243
S'IN'
p244
S'B-PP'
p245
g5
tp246
a(S'evaluating'
p247
S'evaluate'
p248
S'VBG'
p249
S'B-VP'
p250
g5
tp251
a(S'whether'
p252
S'whether'
p253
S'IN'
p254
S'B-SBAR'
p255
g5
tp256
a(S'routine'
p257
S'routine'
p258
S'JJ'
p259
S'B-NP'
p260
g5
tp261
a(S'administration'
p262
S'administration'
p263
S'NN'
p264
S'I-NP'
p265
g5
tp266
a(S'of'
p267
S'of'
p268
S'IN'
p269
S'B-PP'
p270
g5
tp271
a(S'HBB'
p272
S'HBB'
p273
S'NN'
p274
S'B-NP'
p275
S'B-protein'
p276
tp277
a(g53
g53
g53
g5
g5
tp278
a(S'before'
p279
S'before'
p280
S'IN'
p281
S'B-PP'
p282
g5
tp283
a(S'and'
p284
S'and'
p285
S'CC'
p286
S'I-PP'
p287
g5
tp288
a(S'during'
p289
S'during'
p290
S'IN'
p291
S'I-PP'
p292
g5
tp293
a(S'colonoscopy'
p294
S'colonoscopy'
p295
S'NN'
p296
S'B-NP'
p297
g5
tp298
a(g53
g53
g53
g5
g5
tp299
a(S'ease'
p300
S'ease'
p301
S'VB'
p302
S'B-VP'
p303
g5
tp304
a(S'the'
p305
S'the'
p306
S'DT'
p307
S'B-NP'
p308
g5
tp309
a(S'procedure'
p310
S'procedure'
p311
S'NN'
p312
S'I-NP'
p313
g5
tp314
a(S'or'
p315
S'or'
p316
S'CC'
p317
g5
g5
tp318
a(S'increase'
p319
S'increase'
p320
S'VB'
p321
S'B-VP'
p322
g5
tp323
a(S'the'
p324
S'the'
p325
S'DT'
p326
S'B-NP'
p327
g5
tp328
a(S'detection'
p329
S'detection'
p330
S'NN'
p331
S'I-NP'
p332
g5
tp333
a(S'rate'
p334
S'rate'
p335
S'NN'
p336
S'I-NP'
p337
g5
tp338
a(S'for'
p339
S'for'
p340
S'IN'
p341
S'B-PP'
p342
g5
tp343
a(S'polyps'
p344
S'polyp'
p345
S'NNS'
p346
S'B-NP'
p347
g5
tp348
a(g80
g80
g80
g5
g5
tp349
a(S'MATERIAL'
p350
S'MATERIAL'
p351
S'NN'
p352
S'B-NP'
p353
g5
tp354
a(S'AND'
p355
S'AND'
p356
S'CC'
p357
S'I-NP'
p358
g5
tp359
a(S'METHODS'
p360
S'METHODS'
p361
S'NNS'
p362
S'I-NP'
p363
g5
tp364
a(S'One'
p365
S'One'
p366
S'CD'
p367
S'B-NP'
p368
g5
tp369
a(S'hundred'
p370
S'hundred'
p371
S'CD'
p372
S'I-NP'
p373
g5
tp374
a(S'fifty'
p375
S'fifty'
p376
S'CD'
p377
S'I-NP'
p378
g5
tp379
a(S'outpatients'
p380
S'outpatient'
p381
S'NNS'
p382
S'I-NP'
p383
g5
tp384
a(S'scheduled'
p385
S'schedule'
p386
S'VBN'
p387
S'B-VP'
p388
g5
tp389
a(S'for'
p390
S'for'
p391
S'IN'
p392
S'B-PP'
p393
g5
tp394
a(S'an'
p395
S'an'
p396
S'DT'
p397
S'B-NP'
p398
g5
tp399
a(S'elective'
p400
S'elective'
p401
S'JJ'
p402
S'I-NP'
p403
g5
tp404
a(S'colonoscopy'
p405
S'colonoscopy'
p406
S'NN'
p407
S'I-NP'
p408
g5
tp409
a(S'were'
p410
S'be'
p411
S'VBD'
p412
S'B-VP'
p413
g5
tp414
a(S'randomized'
p415
S'randomize'
p416
S'VBN'
p417
S'I-VP'
p418
g5
tp419
a(S'to'
p420
S'to'
p421
S'TO'
p422
S'I-VP'
p423
g5
tp424
a(S'receive'
p425
S'receive'
p426
S'VB'
p427
S'I-VP'
p428
g5
tp429
a(S'intravenous'
p430
S'intravenous'
p431
S'JJ'
p432
S'B-NP'
p433
g5
tp434
a(S'injections'
p435
S'injection'
p436
S'NNS'
p437
S'I-NP'
p438
g5
tp439
a(S'of'
p440
S'of'
p441
S'IN'
p442
S'B-PP'
p443
g5
tp444
a(S'either'
p445
S'either'
p446
S'CC'
p447
S'B-NP'
p448
g5
tp449
a(S'10'
p450
S'10'
p451
S'CD'
p452
S'I-NP'
p453
g5
tp454
a(S'mg'
p455
S'mg'
p456
S'NN'
p457
S'I-NP'
p458
g5
tp459
a(S'hyoscine-N-butylbromide'
p460
S'hyoscine-N-butylbromide'
p461
S'NN'
p462
S'I-NP'
p463
g5
tp464
a(S'or'
p465
S'or'
p466
S'CC'
p467
S'I-NP'
p468
g5
tp469
a(S'saline'
p470
S'saline'
p471
S'NN'
p472
S'I-NP'
p473
g5
tp474
a(S'before'
p475
S'before'
p476
S'IN'
p477
S'B-PP'
p478
g5
tp479
a(S'insertion'
p480
S'insertion'
p481
S'NN'
p482
S'B-NP'
p483
g5
tp484
a(S'and'
p485
S'and'
p486
S'CC'
p487
S'B-PP'
p488
g5
tp489
a(S'at'
p490
S'at'
p491
S'IN'
p492
S'B-PP'
p493
g5
tp494
a(S'cecum.'
p495
S'cecum.'
p496
S'NN'
p497
S'B-NP'
p498
g5
tp499
a(S'Patient'
p500
S'Patient'
p501
S'NN'
p502
S'I-NP'
p503
g5
tp504
a(S'tolerance'
p505
S'tolerance'
p506
S'NN'
p507
S'I-NP'
p508
g5
tp509
a(S'and'
p510
S'and'
p511
S'CC'
p512
g5
g5
tp513
a(S'technical'
p514
S'technical'
p515
S'JJ'
p516
S'B-NP'
p517
g5
tp518
a(S'ease'
p519
S'ease'
p520
S'NN'
p521
S'I-NP'
p522
g5
tp523
a(S'of'
p524
S'of'
p525
S'IN'
p526
S'B-PP'
p527
g5
tp528
a(S'colonoscopy'
p529
S'colonoscopy'
p530
S'NN'
p531
S'B-NP'
p532
g5
tp533
a(S'were'
p534
S'be'
p535
S'VBD'
p536
S'B-VP'
p537
g5
tp538
a(S'evaluated'
p539
S'evaluate'
p540
S'VBN'
p541
S'I-VP'
p542
g5
tp543
a(S'by'
p544
S'by'
p545
S'IN'
p546
S'B-PP'
p547
g5
tp548
a(S'visual'
p549
S'visual'
p550
S'JJ'
p551
S'B-NP'
p552
g5
tp553
a(S'analogue'
p554
S'analogue'
p555
S'NN'
p556
S'I-NP'
p557
g5
tp558
a(S'scale'
p559
S'scale'
p560
S'NN'
p561
S'I-NP'
p562
g5
tp563
a(g92
g92
g92
g5
g5
tp564
a(S'VAS'
p565
S'VAS'
p566
S'NN'
p567
S'B-NP'
p568
S'B-protein'
p569
tp570
a(g100
g100
g100
g5
g5
tp571
a(g80
g80
g80
g5
g5
tp572
a(S'Procedure'
p573
S'Procedure'
p574
S'NNP'
p575
S'B-NP'
p576
g5
tp577
a(S'times'
p578
S'time'
p579
S'NNS'
p580
S'I-NP'
p581
g5
tp582
a(S'were'
p583
S'be'
p584
S'VBD'
p585
S'B-VP'
p586
g5
tp587
a(S'recorded.'
p588
S'recorded.'
p589
S'VBN'
p590
S'I-VP'
p591
g5
tp592
a(S'Number'
p593
S'Number'
p594
S'NNP'
p595
S'B-NP'
p596
g5
tp597
a(S'of'
p598
S'of'
p599
S'IN'
p600
S'B-PP'
p601
g5
tp602
a(S'detected'
p603
S'detect'
p604
S'VBN'
p605
S'B-NP'
p606
g5
tp607
a(S'polyps'
p608
S'polyp'
p609
S'NNS'
p610
S'I-NP'
p611
g5
tp612
a(S'per'
p613
S'per'
p614
S'IN'
p615
S'B-PP'
p616
g5
tp617
a(S'patient'
p618
S'patient'
p619
S'NN'
p620
S'B-NP'
p621
g5
tp622
a(S'was'
p623
S'be'
p624
S'VBD'
p625
S'B-VP'
p626
g5
tp627
a(S'evaluated'
p628
S'evaluate'
p629
S'VBN'
p630
S'I-VP'
p631
g5
tp632
a(S'as'
p633
S'as'
p634
S'IN'
p635
S'B-PP'
p636
g5
tp637
a(S'well.'
p638
S'well.'
p639
S'JJ'
p640
S'B-NP'
p641
g5
tp642
a(S'Heart'
p643
S'Heart'
p644
S'NNP'
p645
S'I-NP'
p646
g5
tp647
a(S'rate'
p648
S'rate'
p649
S'NN'
p650
S'I-NP'
p651
g5
tp652
a(S'was'
p653
S'be'
p654
S'VBD'
p655
S'B-VP'
p656
g5
tp657
a(S'monitored'
p658
S'monitor'
p659
S'VBN'
p660
S'I-VP'
p661
g5
tp662
a(S'with'
p663
S'with'
p664
S'IN'
p665
S'B-PP'
p666
g5
tp667
a(g44
g44
S'DT'
p668
S'B-NP'
p669
g5
tp670
a(S'pulse'
p671
S'pulse'
p672
S'NN'
p673
S'I-NP'
p674
g5
tp675
a(S'oximetry'
p676
S'oximetry'
p677
S'NN'
p678
S'I-NP'
p679
g5
tp680
a(g80
g80
g80
g5
g5
tp681
a(S'RESULTS'
p682
S'RESULTS'
p683
S'NNS'
p684
S'B-NP'
p685
g5
tp686
a(S'HBB'
p687
S'HBB'
p688
S'NN'
p689
S'I-NP'
p690
S'B-protein'
p691
tp692
a(S'did'
p693
S'do'
p694
S'VBD'
p695
S'B-VP'
p696
g5
tp697
a(S'not'
p698
S'not'
p699
S'RB'
p700
S'I-VP'
p701
g5
tp702
a(S'improve'
p703
S'improve'
p704
S'VB'
p705
S'I-VP'
p706
g5
tp707
a(S'patient'
p708
S'patient'
p709
S'NN'
p710
S'B-NP'
p711
g5
tp712
a(S'tolerance'
p713
S'tolerance'
p714
S'NN'
p715
S'I-NP'
p716
g5
tp717
a(S'or'
p718
S'or'
p719
S'CC'
p720
g5
g5
tp721
a(S'technically'
p722
S'technically'
p723
S'RB'
p724
S'B-VP'
p725
g5
tp726
a(S'ease'
p727
S'ease'
p728
S'VB'
p729
S'I-VP'
p730
g5
tp731
a(S'the'
p732
S'the'
p733
S'DT'
p734
S'B-NP'
p735
g5
tp736
a(S'procedure'
p737
S'procedure'
p738
S'NN'
p739
S'I-NP'
p740
g5
tp741
a(S'as'
p742
S'as'
p743
S'IN'
p744
S'B-SBAR'
p745
g5
tp746
a(S'evaluated'
p747
S'evaluate'
p748
S'VBN'
p749
S'B-VP'
p750
g5
tp751
a(S'by'
p752
S'by'
p753
S'IN'
p754
S'B-PP'
p755
g5
tp756
a(S'VAS.'
p757
S'VAS.'
p758
S'NNP'
p759
S'B-NP'
p760
g5
tp761
a(S'However'
p762
S'However'
p763
S'NNP'
p764
S'I-NP'
p765
g5
tp766
a(g53
g53
g53
g5
g5
tp767
a(S'HBB'
p768
S'HBB'
p769
S'NNP'
p770
S'B-NP'
p771
S'B-protein'
p772
tp773
a(S'led'
p774
S'lead'
p775
S'VBD'
p776
S'B-VP'
p777
g5
tp778
a(S'to'
p779
S'to'
p780
S'TO'
p781
S'I-VP'
p782
g5
tp783
a(S'faster'
p784
S'faster'
p785
S'VB'
p786
S'I-VP'
p787
g5
tp788
a(S'ileal'
p789
S'ileal'
p790
S'JJ'
p791
S'B-NP'
p792
g5
tp793
a(S'intubation'
p794
S'intubation'
p795
S'NN'
p796
S'I-NP'
p797
g5
tp798
a(g92
g92
g92
g5
g5
tp799
a(S'1.5'
p800
S'1.5'
p801
S'CD'
p802
S'B-NP'
p803
g5
tp804
a(S'vs'
p805
S'vs'
p806
S'IN'
p807
S'I-NP'
p808
g5
tp809
a(S'2.0'
p810
S'2.0'
p811
S'CD'
p812
S'I-NP'
p813
g5
tp814
a(S'min'
p815
S'min'
p816
S'NN'
p817
S'I-NP'
p818
g5
tp819
a(g53
g53
g53
g5
g5
tp820
a(S'p'
p821
g821
S'NN'
p822
S'B-NP'
p823
g5
tp824
a(S'<'
p825
g825
S'SYM'
p826
S'B-NP'
p827
g5
tp828
a(S'0.001'
p829
S'0.001'
p830
S'CD'
p831
S'I-NP'
p832
g5
tp833
a(g100
g100
g100
g5
g5
tp834
a(S'and'
p835
S'and'
p836
S'CC'
p837
g5
g5
tp838
a(S'shorter'
p839
S'short'
p840
S'JJR'
p841
S'B-NP'
p842
g5
tp843
a(S'total'
p844
S'total'
p845
S'JJ'
p846
S'I-NP'
p847
g5
tp848
a(S'procedure'
p849
S'procedure'
p850
S'NN'
p851
S'I-NP'
p852
g5
tp853
a(S'time'
p854
S'time'
p855
S'NN'
p856
S'I-NP'
p857
g5
tp858
a(g92
g92
g92
g5
g5
tp859
a(S'22.0'
p860
S'22.0'
p861
S'CD'
p862
S'B-NP'
p863
g5
tp864
a(S'vs'
p865
S'vs'
p866
S'IN'
p867
S'I-NP'
p868
g5
tp869
a(S'24.0'
p870
S'24.0'
p871
S'CD'
p872
S'I-NP'
p873
g5
tp874
a(S'min'
p875
S'min'
p876
S'NN'
p877
S'I-NP'
p878
g5
tp879
a(g53
g53
g53
g5
g5
tp880
a(g821
g821
S'NN'
p881
S'B-NP'
p882
g5
tp883
a(S'='
p884
g884
S'SYM'
p885
S'B-VP'
p886
g5
tp887
a(S'0.03'
p888
S'0.03'
p889
S'CD'
p890
S'B-NP'
p891
g5
tp892
a(g100
g100
g100
g5
g5
tp893
a(g80
g80
g80
g5
g5
tp894
a(S'Patients'
p895
S'Patient'
p896
S'NNPS'
p897
S'B-NP'
p898
g5
tp899
a(S'who'
p900
S'who'
p901
S'WP'
p902
S'B-NP'
p903
g5
tp904
a(S'received'
p905
S'receive'
p906
S'VBD'
p907
S'B-VP'
p908
g5
tp909
a(S'HBB'
p910
S'HBB'
p911
S'NN'
p912
S'B-NP'
p913
S'B-protein'
p914
tp915
a(S'also'
p916
S'also'
p917
S'RB'
p918
S'B-ADVP'
p919
g5
tp920
a(S'needed'
p921
S'need'
p922
S'VBD'
p923
S'B-VP'
p924
g5
tp925
a(S'less'
p926
S'less'
p927
S'RBR'
p928
S'B-ADVP'
p929
g5
tp930
a(S'often'
p931
S'often'
p932
S'RB'
p933
S'I-ADVP'
p934
g5
tp935
a(S'external'
p936
S'external'
p937
S'JJ'
p938
S'B-NP'
p939
g5
tp940
a(S'abdominal'
p941
S'abdominal'
p942
S'JJ'
p943
S'I-NP'
p944
g5
tp945
a(S'pressure'
p946
S'pressure'
p947
S'NN'
p948
S'I-NP'
p949
g5
tp950
a(g92
g92
g92
g5
g5
tp951
a(S'48.6'
p952
S'48.6'
p953
S'CD'
p954
S'B-NP'
p955
g5
tp956
a(S'vs'
p957
S'vs'
p958
S'IN'
p959
g5
g5
tp960
a(S'66.7'
p961
S'66.7'
p962
S'CD'
p963
S'B-NP'
p964
g5
tp965
a(S'%'
p966
g966
S'NN'
p967
S'I-NP'
p968
g5
tp969
a(g53
g53
g53
g5
g5
tp970
a(g821
g821
S'NN'
p971
S'B-NP'
p972
g5
tp973
a(g884
g884
S'SYM'
p974
S'B-VP'
p975
g5
tp976
a(S'0.03'
p977
S'0.03'
p978
S'CD'
p979
S'B-NP'
p980
g5
tp981
a(g100
g100
g100
g5
g5
tp982
a(g80
g80
g80
g5
g5
tp983
a(S'HBB'
p984
S'HBB'
p985
S'NN'
p986
S'B-NP'
p987
S'B-protein'
p988
tp989
a(S'did'
p990
S'do'
p991
S'VBD'
p992
S'B-VP'
p993
g5
tp994
a(S'not'
p995
S'not'
p996
S'RB'
p997
S'I-VP'
p998
g5
tp999
a(S'improve'
p1000
S'improve'
p1001
S'VB'
p1002
S'I-VP'
p1003
g5
tp1004
a(S'polyp'
p1005
S'polyp'
p1006
S'NN'
p1007
S'B-NP'
p1008
g5
tp1009
a(S'detection'
p1010
S'detection'
p1011
S'NN'
p1012
S'I-NP'
p1013
g5
tp1014
a(S'rate'
p1015
S'rate'
p1016
S'NN'
p1017
S'I-NP'
p1018
g5
tp1019
a(g92
g92
g92
g5
g5
tp1020
a(S'0.89'
p1021
S'0.89'
p1022
S'CD'
p1023
S'B-NP'
p1024
g5
tp1025
a(S'vs'
p1026
S'vs'
p1027
S'IN'
p1028
S'B-PP'
p1029
g5
tp1030
a(S'0.91'
p1031
S'0.91'
p1032
S'CD'
p1033
S'B-NP'
p1034
g5
tp1035
a(g53
g53
g53
g5
g5
tp1036
a(g821
g821
S'NN'
p1037
S'B-NP'
p1038
g5
tp1039
a(g884
g884
S'SYM'
p1040
S'B-VP'
p1041
g5
tp1042
a(S'0.90'
p1043
S'0.90'
p1044
S'CD'
p1045
S'B-NP'
p1046
g5
tp1047
a(g100
g100
g100
g5
g5
tp1048
a(g80
g80
g80
g5
g5
tp1049
a(S'HBB'
p1050
S'HBB'
p1051
S'NN'
p1052
S'B-NP'
p1053
S'B-protein'
p1054
tp1055
a(S'induced'
p1056
S'induce'
p1057
S'VBD'
p1058
S'B-VP'
p1059
g5
tp1060
a(g44
g44
S'DT'
p1061
S'B-NP'
p1062
g5
tp1063
a(S'significant'
p1064
S'significant'
p1065
S'JJ'
p1066
S'I-NP'
p1067
g5
tp1068
a(S'rise'
p1069
S'rise'
p1070
S'NN'
p1071
S'I-NP'
p1072
g5
tp1073
a(S'in'
p1074
S'in'
p1075
S'IN'
p1076
S'B-PP'
p1077
g5
tp1078
a(S'heart'
p1079
S'heart'
p1080
S'NN'
p1081
S'B-NP'
p1082
g5
tp1083
a(S'rate'
p1084
S'rate'
p1085
S'NN'
p1086
S'I-NP'
p1087
g5
tp1088
a(g92
g92
g92
g5
g5
tp1089
a(g821
g821
S'NN'
p1090
S'B-NP'
p1091
g5
tp1092
a(g825
g825
S'SYM'
p1093
g5
g5
tp1094
a(S'0.001'
p1095
S'0.001'
p1096
S'CD'
p1097
S'B-NP'
p1098
g5
tp1099
a(g100
g100
g100
g5
g5
tp1100
a(S'and'
p1101
S'and'
p1102
S'CC'
p1103
g5
g5
tp1104
a(S'more'
p1105
S'more'
p1106
S'RBR'
p1107
S'B-ADVP'
p1108
g5
tp1109
a(S'often'
p1110
S'often'
p1111
S'RB'
p1112
S'I-ADVP'
p1113
g5
tp1114
a(S'tachycardia'
p1115
S'tachycardia'
p1116
S'NN'
p1117
S'B-NP'
p1118
g5
tp1119
a(g92
g92
g92
g5
g5
tp1120
a(S'17.6'
p1121
S'17.6'
p1122
S'CD'
p1123
S'B-NP'
p1124
g5
tp1125
a(S'vs'
p1126
S'vs'
p1127
S'IN'
p1128
g5
g5
tp1129
a(S'0'
p1130
g1130
S'CD'
p1131
S'B-NP'
p1132
g5
tp1133
a(g966
g966
S'NN'
p1134
S'I-NP'
p1135
g5
tp1136
a(g53
g53
g53
g5
g5
tp1137
a(g821
g821
S'NN'
p1138
S'B-NP'
p1139
g5
tp1140
a(g825
g825
S'SYM'
p1141
S'B-NP'
p1142
g5
tp1143
a(S'0.001'
p1144
S'0.001'
p1145
S'CD'
p1146
S'I-NP'
p1147
g5
tp1148
a(g100
g100
g100
g5
g5
tp1149
a(g80
g80
g80
g5
g5
tp1150
a(S'CONCLUSIONS'
p1151
S'CONCLUSIONS'
p1152
S'NNS'
p1153
S'B-NP'
p1154
g5
tp1155
a(S'Routine'
p1156
S'Routine'
p1157
S'NN'
p1158
S'I-NP'
p1159
g5
tp1160
a(S'administration'
p1161
S'administration'
p1162
S'NN'
p1163
S'I-NP'
p1164
g5
tp1165
a(S'of'
p1166
S'of'
p1167
S'IN'
p1168
S'B-PP'
p1169
g5
tp1170
a(S'HBB'
p1171
S'HBB'
p1172
S'NN'
p1173
S'B-NP'
p1174
S'B-protein'
p1175
tp1176
a(S'before'
p1177
S'before'
p1178
S'IN'
p1179
S'B-PP'
p1180
g5
tp1181
a(S'and'
p1182
S'and'
p1183
S'CC'
p1184
S'I-PP'
p1185
g5
tp1186
a(S'during'
p1187
S'during'
p1188
S'IN'
p1189
S'I-PP'
p1190
g5
tp1191
a(S'colonoscopy'
p1192
S'colonoscopy'
p1193
S'NN'
p1194
S'B-NP'
p1195
g5
tp1196
a(S'yields'
p1197
S'yield'
p1198
S'NNS'
p1199
S'I-NP'
p1200
g5
tp1201
a(S'only'
p1202
S'only'
p1203
S'RB'
p1204
S'B-ADVP'
p1205
g5
tp1206
a(S'limited'
p1207
S'limit'
p1208
S'VBD'
p1209
S'B-VP'
p1210
g5
tp1211
a(S'improvement'
p1212
S'improvement'
p1213
S'NN'
p1214
S'B-NP'
p1215
g5
tp1216
a(S'in'
p1217
S'in'
p1218
S'IN'
p1219
S'B-PP'
p1220
g5
tp1221
a(S'the'
p1222
S'the'
p1223
S'DT'
p1224
S'B-NP'
p1225
g5
tp1226
a(S'technical'
p1227
S'technical'
p1228
S'JJ'
p1229
S'I-NP'
p1230
g5
tp1231
a(S'performance'
p1232
S'performance'
p1233
S'NN'
p1234
S'I-NP'
p1235
g5
tp1236
a(S'of'
p1237
S'of'
p1238
S'IN'
p1239
S'B-PP'
p1240
g5
tp1241
a(S'the'
p1242
S'the'
p1243
S'DT'
p1244
S'B-NP'
p1245
g5
tp1246
a(S'examination'
p1247
S'examination'
p1248
S'NN'
p1249
S'I-NP'
p1250
g5
tp1251
a(S'compromised'
p1252
S'compromise'
p1253
S'VBN'
p1254
S'B-VP'
p1255
g5
tp1256
a(S'by'
p1257
S'by'
p1258
S'IN'
p1259
S'B-PP'
p1260
g5
tp1261
a(S'high'
p1262
S'high'
p1263
S'JJ'
p1264
S'B-NP'
p1265
g5
tp1266
a(S'incidence'
p1267
S'incidence'
p1268
S'NN'
p1269
S'I-NP'
p1270
g5
tp1271
a(S'of'
p1272
S'of'
p1273
S'IN'
p1274
S'B-PP'
p1275
g5
tp1276
a(S'tachycardia'
p1277
S'tachycardia'
p1278
S'NN'
p1279
S'B-NP'
p1280
g5
tp1281
a(g80
g80
g80
g5
g5
tp1282
a.