(lp0
(S'Improved'
p1
S'Improve'
p2
S'VBN'
p3
S'B-NP'
p4
S'O'
p5
tp6
a(S'frontoparietal'
p7
S'frontoparietal'
p8
S'JJ'
p9
S'I-NP'
p10
g5
tp11
a(S'white'
p12
S'white'
p13
S'JJ'
p14
S'I-NP'
p15
g5
tp16
a(S'matter'
p17
S'matter'
p18
S'NN'
p19
S'I-NP'
p20
g5
tp21
a(S'integrity'
p22
S'integrity'
p23
S'NN'
p24
S'I-NP'
p25
g5
tp26
a(S'in'
p27
S'in'
p28
S'IN'
p29
S'B-PP'
p30
g5
tp31
a(S'overweight'
p32
S'overweight'
p33
S'JJ'
p34
S'B-NP'
p35
g5
tp36
a(S'children'
p37
S'child'
p38
S'NNS'
p39
S'I-NP'
p40
g5
tp41
a(S'is'
p42
S'be'
p43
S'VBZ'
p44
S'B-VP'
p45
g5
tp46
a(S'associated'
p47
S'associate'
p48
S'VBN'
p49
S'I-VP'
p50
g5
tp51
a(S'with'
p52
S'with'
p53
S'IN'
p54
S'B-PP'
p55
g5
tp56
a(S'attendance'
p57
S'attendance'
p58
S'NN'
p59
S'B-NP'
p60
g5
tp61
a(S'at'
p62
S'at'
p63
S'IN'
p64
S'B-PP'
p65
g5
tp66
a(S'an'
p67
S'an'
p68
S'DT'
p69
S'B-NP'
p70
g5
tp71
a(S'after-school'
p72
S'after-school'
p73
S'JJ'
p74
S'I-NP'
p75
g5
tp76
a(S'exercise'
p77
S'exercise'
p78
S'NN'
p79
S'I-NP'
p80
g5
tp81
a(S'program'
p82
S'program'
p83
S'NN'
p84
S'I-NP'
p85
g5
tp86
a(S'.'
p87
g87
g87
g5
g5
tp88
a(S'Aerobic'
p89
S'Aerobic'
p90
S'JJ'
p91
S'B-NP'
p92
g5
tp93
a(S'fitness'
p94
S'fitness'
p95
S'NN'
p96
S'I-NP'
p97
g5
tp98
a(S'is'
p99
S'be'
p100
S'VBZ'
p101
S'B-VP'
p102
g5
tp103
a(S'associated'
p104
S'associate'
p105
S'VBN'
p106
S'I-VP'
p107
g5
tp108
a(S'with'
p109
S'with'
p110
S'IN'
p111
S'B-PP'
p112
g5
tp113
a(S'white'
p114
S'white'
p115
S'JJ'
p116
S'B-NP'
p117
g5
tp118
a(S'matter'
p119
S'matter'
p120
S'NN'
p121
S'I-NP'
p122
g5
tp123
a(S'integrity'
p124
S'integrity'
p125
S'NN'
p126
S'I-NP'
p127
g5
tp128
a(S'('
p129
g129
g129
g5
g5
tp130
a(S'WMI'
p131
S'WMI'
p132
S'NN'
p133
S'B-NP'
p134
S'B-DNA'
p135
tp136
a(S')'
p137
g137
g137
g5
g5
tp138
a(S'in'
p139
S'in'
p140
S'IN'
p141
S'B-PP'
p142
g5
tp143
a(S'adults'
p144
S'adult'
p145
S'NNS'
p146
S'B-NP'
p147
g5
tp148
a(S'as'
p149
S'as'
p150
S'IN'
p151
S'B-SBAR'
p152
g5
tp153
a(S'measured'
p154
S'measure'
p155
S'VBN'
p156
S'B-VP'
p157
g5
tp158
a(S'by'
p159
S'by'
p160
S'IN'
p161
S'B-PP'
p162
g5
tp163
a(S'diffusion'
p164
S'diffusion'
p165
S'NN'
p166
S'B-NP'
p167
g5
tp168
a(S'tensor'
p169
S'tensor'
p170
S'NN'
p171
S'I-NP'
p172
g5
tp173
a(S'imaging'
p174
S'imaging'
p175
S'NN'
p176
S'I-NP'
p177
g5
tp178
a(g129
g129
g129
g5
g5
tp179
a(S'DTI'
p180
S'DTI'
p181
S'NN'
p182
S'B-NP'
p183
g5
tp184
a(g137
g137
g137
g5
g5
tp185
a(g87
g87
g87
g5
g5
tp186
a(S'This'
p187
S'This'
p188
S'DT'
p189
S'B-NP'
p190
g5
tp191
a(S'study'
p192
S'study'
p193
S'NN'
p194
S'I-NP'
p195
g5
tp196
a(S'examined'
p197
S'examine'
p198
S'VBD'
p199
S'B-VP'
p200
g5
tp201
a(S'the'
p202
S'the'
p203
S'DT'
p204
S'B-NP'
p205
g5
tp206
a(S'effect'
p207
S'effect'
p208
S'NN'
p209
S'I-NP'
p210
g5
tp211
a(S'of'
p212
S'of'
p213
S'IN'
p214
S'B-PP'
p215
g5
tp216
a(S'an'
p217
S'an'
p218
S'DT'
p219
S'B-NP'
p220
g5
tp221
a(S'8-month'
p222
S'8-month'
p223
S'JJ'
p224
S'I-NP'
p225
g5
tp226
a(S'exercise'
p227
S'exercise'
p228
S'NN'
p229
S'I-NP'
p230
g5
tp231
a(S'intervention'
p232
S'intervention'
p233
S'NN'
p234
S'I-NP'
p235
g5
tp236
a(S'on'
p237
S'on'
p238
S'IN'
p239
S'B-PP'
p240
g5
tp241
a(S'WMI'
p242
S'WMI'
p243
S'NN'
p244
S'B-NP'
p245
S'B-DNA'
p246
tp247
a(S'in'
p248
S'in'
p249
S'IN'
p250
S'B-PP'
p251
g5
tp252
a(S'children.'
p253
S'children.'
p254
S'NN'
p255
S'B-NP'
p256
g5
tp257
a(S'Participants'
p258
S'Participant'
p259
S'NNPS'
p260
S'I-NP'
p261
g5
tp262
a(S'were'
p263
S'be'
p264
S'VBD'
p265
S'B-VP'
p266
g5
tp267
a(S'18'
p268
S'18'
p269
S'CD'
p270
S'B-NP'
p271
g5
tp272
a(S'sedentary'
p273
S'sedentary'
p274
S'JJ'
p275
S'I-NP'
p276
g5
tp277
a(S','
p278
g278
g278
S'I-NP'
p279
g5
tp280
a(S'overweight'
p281
S'overweight'
p282
S'JJ'
p283
S'I-NP'
p284
g5
tp285
a(g129
g129
g129
g5
g5
tp286
a(S'BMI\xe2\x89\xa585th'
p287
S'BMI\xe2\x89\xa585th'
p288
S'NN'
p289
S'B-NP'
p290
g5
tp291
a(S'percentile'
p292
S'percentile'
p293
S'NN'
p294
S'I-NP'
p295
g5
tp296
a(g137
g137
g137
g5
g5
tp297
a(S'8-'
p298
S'8-'
p299
S'CD'
p300
S'B-NP'
p301
g5
tp302
a(S'to'
p303
S'to'
p304
S'TO'
p305
S'B-PP'
p306
g5
tp307
a(S'11-year-old'
p308
S'11-year-old'
p309
S'JJ'
p310
S'B-NP'
p311
g5
tp312
a(S'children'
p313
S'child'
p314
S'NNS'
p315
S'I-NP'
p316
g5
tp317
a(g129
g129
g129
g5
g5
tp318
a(S'94'
p319
S'94'
p320
S'CD'
p321
S'B-NP'
p322
g5
tp323
a(S'%'
p324
g324
S'NN'
p325
S'I-NP'
p326
g5
tp327
a(S'Black'
p328
S'Black'
p329
S'NN'
p330
S'I-NP'
p331
g5
tp332
a(g137
g137
g137
g5
g5
tp333
a(g278
g278
g278
g5
g5
tp334
a(S'randomly'
p335
S'randomly'
p336
S'RB'
p337
S'B-VP'
p338
g5
tp339
a(S'assigned'
p340
S'assign'
p341
S'VBN'
p342
S'I-VP'
p343
g5
tp344
a(S'to'
p345
S'to'
p346
S'TO'
p347
S'B-PP'
p348
g5
tp349
a(S'either'
p350
S'either'
p351
S'CC'
p352
g5
g5
tp353
a(S'an'
p354
S'an'
p355
S'DT'
p356
S'B-NP'
p357
g5
tp358
a(S'aerobic'
p359
S'aerobic'
p360
S'JJ'
p361
S'I-NP'
p362
g5
tp363
a(S'exercise'
p364
S'exercise'
p365
S'NN'
p366
S'I-NP'
p367
g5
tp368
a(g129
g129
g129
g5
g5
tp369
a(S'n=10'
p370
S'n=10'
p371
S'NN'
p372
S'B-NP'
p373
g5
tp374
a(g137
g137
g137
g5
g5
tp375
a(S'or'
p376
S'or'
p377
S'CC'
p378
g5
g5
tp379
a(S'sedentary'
p380
S'sedentary'
p381
S'JJ'
p382
S'B-NP'
p383
g5
tp384
a(S'attention'
p385
S'attention'
p386
S'NN'
p387
S'I-NP'
p388
g5
tp389
a(S'control'
p390
S'control'
p391
S'NN'
p392
S'I-NP'
p393
g5
tp394
a(S'group'
p395
S'group'
p396
S'NN'
p397
S'I-NP'
p398
g5
tp399
a(g129
g129
g129
g5
g5
tp400
a(S'n=8'
p401
S'n=8'
p402
S'NN'
p403
S'B-NP'
p404
g5
tp405
a(g137
g137
g137
g5
g5
tp406
a(g87
g87
g87
g5
g5
tp407
a(S'Each'
p408
S'Each'
p409
S'DT'
p410
S'B-NP'
p411
g5
tp412
a(S'group'
p413
S'group'
p414
S'NN'
p415
S'I-NP'
p416
g5
tp417
a(S'was'
p418
S'be'
p419
S'VBD'
p420
S'B-VP'
p421
g5
tp422
a(S'offered'
p423
S'offer'
p424
S'VBN'
p425
S'I-VP'
p426
g5
tp427
a(S'an'
p428
S'an'
p429
S'DT'
p430
S'B-NP'
p431
g5
tp432
a(S'instructor-led'
p433
S'instructor-led'
p434
S'JJ'
p435
S'I-NP'
p436
g5
tp437
a(S'after-school'
p438
S'after-school'
p439
S'JJ'
p440
S'I-NP'
p441
g5
tp442
a(S'program'
p443
S'program'
p444
S'NN'
p445
S'I-NP'
p446
g5
tp447
a(S'every'
p448
S'every'
p449
S'DT'
p450
S'B-NP'
p451
g5
tp452
a(S'school'
p453
S'school'
p454
S'NN'
p455
S'I-NP'
p456
g5
tp457
a(S'day'
p458
S'day'
p459
S'NN'
p460
S'I-NP'
p461
g5
tp462
a(S'for'
p463
S'for'
p464
S'IN'
p465
S'B-PP'
p466
g5
tp467
a(S'approximately'
p468
S'approximately'
p469
S'RB'
p470
S'B-NP'
p471
g5
tp472
a(S'8'
p473
g473
S'CD'
p474
S'I-NP'
p475
g5
tp476
a(S'months.'
p477
S'months.'
p478
S'NN'
p479
S'I-NP'
p480
g5
tp481
a(S'Before'
p482
S'Before'
p483
S'IN'
p484
S'B-PP'
p485
g5
tp486
a(S'and'
p487
S'and'
p488
S'CC'
p489
S'I-PP'
p490
g5
tp491
a(S'after'
p492
S'after'
p493
S'IN'
p494
S'I-PP'
p495
g5
tp496
a(S'the'
p497
S'the'
p498
S'DT'
p499
S'B-NP'
p500
g5
tp501
a(S'program'
p502
S'program'
p503
S'NN'
p504
S'I-NP'
p505
g5
tp506
a(g278
g278
g278
g5
g5
tp507
a(S'all'
p508
S'all'
p509
S'DT'
p510
S'B-NP'
p511
g5
tp512
a(S'subjects'
p513
S'subject'
p514
S'NNS'
p515
S'I-NP'
p516
g5
tp517
a(S'participated'
p518
S'participate'
p519
S'VBD'
p520
S'B-VP'
p521
g5
tp522
a(S'in'
p523
S'in'
p524
S'IN'
p525
S'B-PP'
p526
g5
tp527
a(S'DTI'
p528
S'DTI'
p529
S'NN'
p530
S'B-NP'
p531
g5
tp532
a(S'scans.'
p533
S'scans.'
p534
S'NN'
p535
S'I-NP'
p536
g5
tp537
a(S'Tractography'
p538
S'Tractography'
p539
S'NN'
p540
S'I-NP'
p541
g5
tp542
a(S'was'
p543
S'be'
p544
S'VBD'
p545
S'B-VP'
p546
g5
tp547
a(S'conducted'
p548
S'conduct'
p549
S'VBN'
p550
S'I-VP'
p551
g5
tp552
a(S'to'
p553
S'to'
p554
S'TO'
p555
S'I-VP'
p556
g5
tp557
a(S'isolate'
p558
S'isolate'
p559
S'VB'
p560
S'I-VP'
p561
g5
tp562
a(S'the'
p563
S'the'
p564
S'DT'
p565
S'B-NP'
p566
g5
tp567
a(S'superior'
p568
S'superior'
p569
S'JJ'
p570
S'I-NP'
p571
g5
tp572
a(S'longitudinal'
p573
S'longitudinal'
p574
S'JJ'
p575
S'I-NP'
p576
g5
tp577
a(S'fasciculus'
p578
S'fasciculus'
p579
S'NN'
p580
S'I-NP'
p581
g5
tp582
a(S'and'
p583
S'and'
p584
S'CC'
p585
g5
g5
tp586
a(S'investigate'
p587
S'investigate'
p588
S'VB'
p589
S'B-VP'
p590
g5
tp591
a(S'whether'
p592
S'whether'
p593
S'IN'
p594
S'B-SBAR'
p595
g5
tp596
a(S'the'
p597
S'the'
p598
S'DT'
p599
S'B-NP'
p600
g5
tp601
a(S'exercise'
p602
S'exercise'
p603
S'NN'
p604
S'I-NP'
p605
g5
tp606
a(S'intervention'
p607
S'intervention'
p608
S'NN'
p609
S'I-NP'
p610
g5
tp611
a(S'affected'
p612
S'affect'
p613
S'VBD'
p614
S'B-VP'
p615
g5
tp616
a(S'WMI'
p617
S'WMI'
p618
S'NN'
p619
S'B-NP'
p620
g5
tp621
a(S'in'
p622
S'in'
p623
S'IN'
p624
S'B-PP'
p625
g5
tp626
a(S'this'
p627
S'this'
p628
S'DT'
p629
S'B-NP'
p630
g5
tp631
a(S'region.'
p632
S'region.'
p633
S'NN'
p634
S'I-NP'
p635
g5
tp636
a(S'There'
p637
S'There'
p638
S'EX'
p639
S'B-NP'
p640
g5
tp641
a(S'was'
p642
S'be'
p643
S'VBD'
p644
S'B-VP'
p645
g5
tp646
a(S'no'
p647
S'no'
p648
S'DT'
p649
S'B-NP'
p650
g5
tp651
a(S'group'
p652
S'group'
p653
S'NN'
p654
S'I-NP'
p655
g5
tp656
a(S'by'
p657
S'by'
p658
S'IN'
p659
S'B-PP'
p660
g5
tp661
a(S'time'
p662
S'time'
p663
S'NN'
p664
S'B-NP'
p665
g5
tp666
a(S'interaction'
p667
S'interaction'
p668
S'NN'
p669
S'I-NP'
p670
g5
tp671
a(S'for'
p672
S'for'
p673
S'IN'
p674
S'B-PP'
p675
g5
tp676
a(S'WMI'
p677
S'WMI'
p678
S'NN'
p679
S'B-NP'
p680
S'B-protein'
p681
tp682
a(S'in'
p683
S'in'
p684
S'IN'
p685
S'B-PP'
p686
g5
tp687
a(S'the'
p688
S'the'
p689
S'DT'
p690
S'B-NP'
p691
g5
tp692
a(S'superior'
p693
S'superior'
p694
S'JJ'
p695
S'I-NP'
p696
g5
tp697
a(S'longitudinal'
p698
S'longitudinal'
p699
S'JJ'
p700
S'I-NP'
p701
g5
tp702
a(S'fasciculus.'
p703
S'fasciculus.'
p704
S'NN'
p705
S'I-NP'
p706
g5
tp707
a(S'There'
p708
S'There'
p709
S'EX'
p710
S'B-NP'
p711
g5
tp712
a(S'was'
p713
S'be'
p714
S'VBD'
p715
S'B-VP'
p716
g5
tp717
a(S'a'
p718
g718
S'DT'
p719
S'B-NP'
p720
g5
tp721
a(S'group'
p722
S'group'
p723
S'NN'
p724
S'I-NP'
p725
g5
tp726
a(S'by'
p727
S'by'
p728
S'IN'
p729
S'B-PP'
p730
g5
tp731
a(S'time'
p732
S'time'
p733
S'NN'
p734
S'B-NP'
p735
g5
tp736
a(S'by'
p737
S'by'
p738
S'IN'
p739
S'B-PP'
p740
g5
tp741
a(S'attendance'
p742
S'attendance'
p743
S'NN'
p744
S'B-NP'
p745
g5
tp746
a(S'interaction'
p747
S'interaction'
p748
S'NN'
p749
S'I-NP'
p750
g5
tp751
a(g278
g278
g278
g5
g5
tp752
a(S'however'
p753
S'however'
p754
S'RB'
p755
S'B-ADVP'
p756
g5
tp757
a(g278
g278
g278
g5
g5
tp758
a(S'such'
p759
S'such'
p760
S'JJ'
p761
S'B-ADJP'
p762
g5
tp763
a(S'that'
p764
S'that'
p765
S'IN'
p766
S'B-SBAR'
p767
g5
tp768
a(S'higher'
p769
S'high'
p770
S'JJR'
p771
S'B-NP'
p772
g5
tp773
a(S'attendance'
p774
S'attendance'
p775
S'NN'
p776
S'I-NP'
p777
g5
tp778
a(S'at'
p779
S'at'
p780
S'IN'
p781
S'B-PP'
p782
g5
tp783
a(S'the'
p784
S'the'
p785
S'DT'
p786
S'B-NP'
p787
g5
tp788
a(S'exercise'
p789
S'exercise'
p790
S'NN'
p791
S'I-NP'
p792
g5
tp793
a(S'intervention'
p794
S'intervention'
p795
S'NN'
p796
S'I-NP'
p797
g5
tp798
a(g278
g278
g278
g5
g5
tp799
a(S'but'
p800
S'but'
p801
S'CC'
p802
S'B-CONJP'
p803
g5
tp804
a(S'not'
p805
S'not'
p806
S'RB'
p807
S'I-CONJP'
p808
g5
tp809
a(S'the'
p810
S'the'
p811
S'DT'
p812
S'B-NP'
p813
g5
tp814
a(S'control'
p815
S'control'
p816
S'NN'
p817
S'I-NP'
p818
g5
tp819
a(S'intervention'
p820
S'intervention'
p821
S'NN'
p822
S'I-NP'
p823
g5
tp824
a(g278
g278
g278
g5
g5
tp825
a(S'was'
p826
S'be'
p827
S'VBD'
p828
S'B-VP'
p829
g5
tp830
a(S'associated'
p831
S'associate'
p832
S'VBN'
p833
S'I-VP'
p834
g5
tp835
a(S'with'
p836
S'with'
p837
S'IN'
p838
S'B-PP'
p839
g5
tp840
a(S'increased'
p841
S'increase'
p842
S'VBN'
p843
S'B-NP'
p844
g5
tp845
a(S'WMI.'
p846
S'WMI.'
p847
S'NNP'
p848
S'I-NP'
p849
g5
tp850
a(S'Heart'
p851
S'Heart'
p852
S'NNP'
p853
S'I-NP'
p854
g5
tp855
a(S'rate'
p856
S'rate'
p857
S'NN'
p858
S'I-NP'
p859
g5
tp860
a(S'and'
p861
S'and'
p862
S'CC'
p863
g5
g5
tp864
a(S'the'
p865
S'the'
p866
S'DT'
p867
S'B-NP'
p868
g5
tp869
a(S'total'
p870
S'total'
p871
S'JJ'
p872
S'I-NP'
p873
g5
tp874
a(S'dose'
p875
S'dose'
p876
S'NN'
p877
S'I-NP'
p878
g5
tp879
a(S'of'
p880
S'of'
p881
S'IN'
p882
S'B-PP'
p883
g5
tp884
a(S'exercise'
p885
S'exercise'
p886
S'NN'
p887
S'B-NP'
p888
g5
tp889
a(S'correlated'
p890
S'correlate'
p891
S'VBD'
p892
S'B-VP'
p893
g5
tp894
a(S'with'
p895
S'with'
p896
S'IN'
p897
S'B-PP'
p898
g5
tp899
a(S'WMI'
p900
S'WMI'
p901
S'NN'
p902
S'B-NP'
p903
g5
tp904
a(S'changes'
p905
S'change'
p906
S'NNS'
p907
S'I-NP'
p908
g5
tp909
a(S'in'
p910
S'in'
p911
S'IN'
p912
S'B-PP'
p913
g5
tp914
a(S'the'
p915
S'the'
p916
S'DT'
p917
S'B-NP'
p918
g5
tp919
a(S'exercise'
p920
S'exercise'
p921
S'NN'
p922
S'I-NP'
p923
g5
tp924
a(S'group.'
p925
S'group.'
p926
S'NN'
p927
S'I-NP'
p928
g5
tp929
a(S'In'
p930
S'In'
p931
S'IN'
p932
S'B-PP'
p933
g5
tp934
a(S'the'
p935
S'the'
p936
S'DT'
p937
S'B-NP'
p938
g5
tp939
a(S'overall'
p940
S'overall'
p941
S'JJ'
p942
S'I-NP'
p943
g5
tp944
a(S'sample'
p945
S'sample'
p946
S'NN'
p947
S'I-NP'
p948
g5
tp949
a(g278
g278
g278
g5
g5
tp950
a(S'increased'
p951
S'increase'
p952
S'VBN'
p953
S'B-NP'
p954
g5
tp955
a(S'WMI'
p956
S'WMI'
p957
S'NN'
p958
S'I-NP'
p959
S'B-protein'
p960
tp961
a(S'was'
p962
S'be'
p963
S'VBD'
p964
S'B-VP'
p965
g5
tp966
a(S'associated'
p967
S'associate'
p968
S'VBN'
p969
S'I-VP'
p970
g5
tp971
a(S'with'
p972
S'with'
p973
S'IN'
p974
S'B-PP'
p975
g5
tp976
a(S'improved'
p977
S'improved'
p978
S'JJ'
p979
S'B-NP'
p980
g5
tp981
a(S'scores'
p982
S'score'
p983
S'NNS'
p984
S'I-NP'
p985
g5
tp986
a(S'on'
p987
S'on'
p988
S'IN'
p989
S'B-PP'
p990
g5
tp991
a(g718
g718
S'DT'
p992
S'B-NP'
p993
g5
tp994
a(S'measure'
p995
S'measure'
p996
S'NN'
p997
S'I-NP'
p998
g5
tp999
a(S'of'
p1000
S'of'
p1001
S'IN'
p1002
S'B-PP'
p1003
g5
tp1004
a(S'attention'
p1005
S'attention'
p1006
S'NN'
p1007
S'B-NP'
p1008
g5
tp1009
a(S'and'
p1010
S'and'
p1011
S'CC'
p1012
g5
g5
tp1013
a(S'improved'
p1014
S'improve'
p1015
S'VBN'
p1016
S'B-NP'
p1017
g5
tp1018
a(S'teacher'
p1019
S'teacher'
p1020
S'NN'
p1021
S'I-NP'
p1022
g5
tp1023
a(S'ratings'
p1024
S'rating'
p1025
S'NNS'
p1026
S'I-NP'
p1027
g5
tp1028
a(S'of'
p1029
S'of'
p1030
S'IN'
p1031
S'B-PP'
p1032
g5
tp1033
a(S'executive'
p1034
S'executive'
p1035
S'NN'
p1036
S'B-NP'
p1037
g5
tp1038
a(S'function.'
p1039
S'function.'
p1040
S'NN'
p1041
S'I-NP'
p1042
g5
tp1043
a(S'This'
p1044
S'This'
p1045
S'DT'
p1046
S'B-NP'
p1047
g5
tp1048
a(S'study'
p1049
S'study'
p1050
S'NN'
p1051
S'I-NP'
p1052
g5
tp1053
a(S'indicates'
p1054
S'indicate'
p1055
S'VBZ'
p1056
S'B-VP'
p1057
g5
tp1058
a(S'that'
p1059
S'that'
p1060
S'IN'
p1061
S'B-SBAR'
p1062
g5
tp1063
a(S'participating'
p1064
S'participate'
p1065
S'VBG'
p1066
S'B-VP'
p1067
g5
tp1068
a(S'in'
p1069
S'in'
p1070
S'IN'
p1071
S'B-PP'
p1072
g5
tp1073
a(S'an'
p1074
S'an'
p1075
S'DT'
p1076
S'B-NP'
p1077
g5
tp1078
a(S'exercise'
p1079
S'exercise'
p1080
S'NN'
p1081
S'I-NP'
p1082
g5
tp1083
a(S'intervention'
p1084
S'intervention'
p1085
S'NN'
p1086
S'I-NP'
p1087
g5
tp1088
a(S'improves'
p1089
S'improve'
p1090
S'VBZ'
p1091
S'B-VP'
p1092
g5
tp1093
a(S'WMI'
p1094
S'WMI'
p1095
S'NN'
p1096
S'B-NP'
p1097
S'B-protein'
p1098
tp1099
a(S'in'
p1100
S'in'
p1101
S'IN'
p1102
S'B-PP'
p1103
g5
tp1104
a(S'children'
p1105
S'child'
p1106
S'NNS'
p1107
S'B-NP'
p1108
g5
tp1109
a(S'as'
p1110
S'as'
p1111
S'IN'
p1112
S'B-SBAR'
p1113
g5
tp1114
a(S'compared'
p1115
S'compare'
p1116
S'VBN'
p1117
S'B-VP'
p1118
g5
tp1119
a(S'to'
p1120
S'to'
p1121
S'TO'
p1122
S'B-PP'
p1123
g5
tp1124
a(g718
g718
S'DT'
p1125
S'B-NP'
p1126
g5
tp1127
a(S'sedentary'
p1128
S'sedentary'
p1129
S'JJ'
p1130
S'I-NP'
p1131
g5
tp1132
a(S'after-school'
p1133
S'after-school'
p1134
S'JJ'
p1135
S'I-NP'
p1136
g5
tp1137
a(S'program'
p1138
S'program'
p1139
S'NN'
p1140
S'I-NP'
p1141
g5
tp1142
a(g87
g87
g87
g5
g5
tp1143
a.