(lp0
(S'Effects'
p1
S'Effect'
p2
S'NNS'
p3
S'B-NP'
p4
S'O'
p5
tp6
a(S'of'
p7
S'of'
p8
S'IN'
p9
S'B-PP'
p10
g5
tp11
a(S'preoperative'
p12
S'preoperative'
p13
S'JJ'
p14
S'B-NP'
p15
g5
tp16
a(S'intentional'
p17
S'intentional'
p18
S'JJ'
p19
S'I-NP'
p20
g5
tp21
a(S'hemodilution'
p22
S'hemodilution'
p23
S'NN'
p24
S'I-NP'
p25
g5
tp26
a(S'on'
p27
S'on'
p28
S'IN'
p29
S'B-PP'
p30
g5
tp31
a(S'the'
p32
S'the'
p33
S'DT'
p34
S'B-NP'
p35
g5
tp36
a(S'extravasation'
p37
S'extravasation'
p38
S'NN'
p39
S'I-NP'
p40
g5
tp41
a(S'rate'
p42
S'rate'
p43
S'NN'
p44
S'I-NP'
p45
g5
tp46
a(S'of'
p47
S'of'
p48
S'IN'
p49
S'B-PP'
p50
g5
tp51
a(S'albumin'
p52
S'albumin'
p53
S'NN'
p54
S'B-NP'
p55
S'B-protein'
p56
tp57
a(S'and'
p58
S'and'
p59
S'CC'
p60
S'I-NP'
p61
g5
tp62
a(S'fluid'
p63
S'fluid'
p64
S'NN'
p65
S'I-NP'
p66
g5
tp67
a(S'.'
p68
g68
g68
g5
g5
tp69
a(S'OBJECTIVE'
p70
S'OBJECTIVE'
p71
S'NN'
p72
S'B-NP'
p73
g5
tp74
a(S'To'
p75
S'To'
p76
S'TO'
p77
S'B-VP'
p78
g5
tp79
a(S'evaluate'
p80
S'evaluate'
p81
S'VB'
p82
S'I-VP'
p83
g5
tp84
a(S'the'
p85
S'the'
p86
S'DT'
p87
S'B-NP'
p88
g5
tp89
a(S'effects'
p90
S'effect'
p91
S'NNS'
p92
S'I-NP'
p93
g5
tp94
a(S'of'
p95
S'of'
p96
S'IN'
p97
S'B-PP'
p98
g5
tp99
a(S'preoperative'
p100
S'preoperative'
p101
S'JJ'
p102
S'B-NP'
p103
g5
tp104
a(S'intentional'
p105
S'intentional'
p106
S'JJ'
p107
S'I-NP'
p108
g5
tp109
a(S'hemodilution'
p110
S'hemodilution'
p111
S'NN'
p112
S'I-NP'
p113
g5
tp114
a(S'with'
p115
S'with'
p116
S'IN'
p117
S'B-PP'
p118
g5
tp119
a(S'4'
p120
g120
S'CD'
p121
S'B-NP'
p122
g5
tp123
a(S'%'
p124
g124
S'NN'
p125
S'I-NP'
p126
g5
tp127
a(S'albumin'
p128
S'albumin'
p129
S'NN'
p130
S'I-NP'
p131
g5
tp132
a(S'solution'
p133
S'solution'
p134
S'NN'
p135
S'I-NP'
p136
g5
tp137
a(S'on'
p138
S'on'
p139
S'IN'
p140
S'B-PP'
p141
g5
tp142
a(S'the'
p143
S'the'
p144
S'DT'
p145
S'B-NP'
p146
g5
tp147
a(S'extravasation'
p148
S'extravasation'
p149
S'NN'
p150
S'I-NP'
p151
g5
tp152
a(S'rate'
p153
S'rate'
p154
S'NN'
p155
S'I-NP'
p156
g5
tp157
a(S'of'
p158
S'of'
p159
S'IN'
p160
S'B-PP'
p161
g5
tp162
a(S'intravascular'
p163
S'intravascular'
p164
S'JJ'
p165
S'B-NP'
p166
S'B-protein'
p167
tp168
a(S'albumin'
p169
S'albumin'
p170
S'NN'
p171
S'I-NP'
p172
S'I-protein'
p173
tp174
a(S'and'
p175
S'and'
p176
S'CC'
p177
S'I-NP'
p178
g5
tp179
a(S'fluid'
p180
S'fluid'
p181
S'NN'
p182
S'I-NP'
p183
g5
tp184
a(S'in'
p185
S'in'
p186
S'IN'
p187
S'B-PP'
p188
g5
tp189
a(S'surgical'
p190
S'surgical'
p191
S'JJ'
p192
S'B-NP'
p193
g5
tp194
a(S'patients'
p195
S'patient'
p196
S'NNS'
p197
S'I-NP'
p198
g5
tp199
a(g68
g68
g68
g5
g5
tp200
a(S'DESIGN'
p201
S'DESIGN'
p202
S'NN'
p203
S'B-NP'
p204
g5
tp205
a(S'A'
p206
g206
S'DT'
p207
S'B-NP'
p208
g5
tp209
a(S'prospective'
p210
S'prospective'
p211
S'JJ'
p212
S'I-NP'
p213
g5
tp214
a(S','
p215
g215
g215
S'I-NP'
p216
g5
tp217
a(S'randomized'
p218
S'randomize'
p219
S'VBN'
p220
S'I-NP'
p221
g5
tp222
a(g215
g215
g215
S'I-NP'
p223
g5
tp224
a(S'clinical'
p225
S'clinical'
p226
S'JJ'
p227
S'I-NP'
p228
g5
tp229
a(S'study'
p230
S'study'
p231
S'NN'
p232
S'I-NP'
p233
g5
tp234
a(g68
g68
g68
g5
g5
tp235
a(S'SETTING'
p236
S'SETTING'
p237
S'VBG'
p238
S'B-VP'
p239
g5
tp240
a(S'University'
p241
S'University'
p242
S'NNP'
p243
S'B-NP'
p244
g5
tp245
a(S'teaching'
p246
S'teaching'
p247
S'NN'
p248
S'I-NP'
p249
g5
tp250
a(S'hospital'
p251
S'hospital'
p252
S'NN'
p253
S'I-NP'
p254
g5
tp255
a(g68
g68
g68
g5
g5
tp256
a(S'PATIENTS'
p257
S'PATIENTS'
p258
S'NNS'
p259
S'B-NP'
p260
g5
tp261
a(S'Two'
p262
S'Two'
p263
S'CD'
p264
S'B-NP'
p265
g5
tp266
a(S'groups'
p267
S'group'
p268
S'NNS'
p269
S'I-NP'
p270
g5
tp271
a(S'('
p272
g272
g272
g5
g5
tp273
a(S'control'
p274
S'control'
p275
S'NN'
p276
S'B-NP'
p277
g5
tp278
a(S'group'
p279
S'group'
p280
S'NN'
p281
S'I-NP'
p282
g5
tp283
a(S'['
p284
g284
g272
g5
g5
tp285
a(S'group'
p286
S'group'
p287
S'NN'
p288
S'B-NP'
p289
g5
tp290
a(S'1'
p291
g291
S'CD'
p292
S'I-NP'
p293
g5
tp294
a(S']'
p295
g295
S')'
p296
g5
g5
tp297
a(S'and'
p298
S'and'
p299
S'CC'
p300
g5
g5
tp301
a(S'hemodiluted'
p302
S'hemodilute'
p303
S'VBD'
p304
S'B-VP'
p305
g5
tp306
a(S'group'
p307
S'group'
p308
S'NN'
p309
S'B-NP'
p310
g5
tp311
a(g284
g284
g272
g5
g5
tp312
a(S'group'
p313
S'group'
p314
S'NN'
p315
S'B-NP'
p316
g5
tp317
a(S'2'
p318
g318
S'CD'
p319
S'I-NP'
p320
g5
tp321
a(g295
g295
g296
g5
g5
tp322
a(g296
g296
g296
g5
g5
tp323
a(S'of'
p324
S'of'
p325
S'IN'
p326
S'B-PP'
p327
g5
tp328
a(S'13'
p329
S'13'
p330
S'CD'
p331
S'B-NP'
p332
g5
tp333
a(S'healthy'
p334
S'healthy'
p335
S'JJ'
p336
S'I-NP'
p337
g5
tp338
a(S'patients'
p339
S'patient'
p340
S'NNS'
p341
S'I-NP'
p342
g5
tp343
a(S'were'
p344
S'be'
p345
S'VBD'
p346
S'B-VP'
p347
g5
tp348
a(S'studied'
p349
S'study'
p350
S'VBN'
p351
S'I-VP'
p352
g5
tp353
a(S'during'
p354
S'during'
p355
S'IN'
p356
S'B-PP'
p357
g5
tp358
a(S'a'
p359
g359
S'DT'
p360
S'B-NP'
p361
g5
tp362
a(S'long-term'
p363
S'long-term'
p364
S'JJ'
p365
S'I-NP'
p366
g5
tp367
a(g272
g272
g272
g5
g5
tp368
a(S'>'
p369
g369
S'SYM'
p370
g5
g5
tp371
a(g120
g120
S'CD'
p372
S'B-NP'
p373
g5
tp374
a(S'hrs'
p375
S'hr'
p376
S'NNS'
p377
S'I-NP'
p378
g5
tp379
a(g296
g296
g296
g5
g5
tp380
a(S'surgical'
p381
S'surgical'
p382
S'JJ'
p383
S'B-NP'
p384
g5
tp385
a(S'procedure'
p386
S'procedure'
p387
S'NN'
p388
S'I-NP'
p389
g5
tp390
a(g68
g68
g68
g5
g5
tp391
a(S'INTERVENTIONS'
p392
S'INTERVENTIONS'
p393
S'NNS'
p394
S'B-NP'
p395
g5
tp396
a(S'Autologous'
p397
S'Autologous'
p398
S'JJ'
p399
S'I-NP'
p400
S'B-cell_type'
p401
tp402
a(S'technetium-99m'
p403
S'technetium-99m'
p404
S'NN'
p405
S'I-NP'
p406
S'I-cell_type'
p407
tp408
a(g272
g272
g272
g5
S'I-cell_type'
p409
tp410
a(S'99mTc'
p411
S'99mTc'
p412
S'NN'
p413
S'B-NP'
p414
S'I-cell_type'
p415
tp416
a(g296
g296
g296
g5
S'I-cell_type'
p417
tp418
a(S'-labeled'
p419
S'-labeled'
p420
S'JJ'
p421
S'B-NP'
p422
S'I-cell_type'
p423
tp424
a(S'red'
p425
S'red'
p426
S'JJ'
p427
S'I-NP'
p428
S'I-cell_type'
p429
tp430
a(S'blood'
p431
S'blood'
p432
S'NN'
p433
S'I-NP'
p434
S'I-cell_type'
p435
tp436
a(S'cells'
p437
S'cell'
p438
S'NNS'
p439
S'I-NP'
p440
S'I-cell_type'
p441
tp442
a(S'and'
p443
S'and'
p444
S'CC'
p445
g5
g5
tp446
a(S'indium-oxine'
p447
S'indium-oxine'
p448
S'NN'
p449
S'B-NP'
p450
g5
tp451
a(g272
g272
g272
g5
g5
tp452
a(g272
g272
g272
g5
g5
tp453
a(S'111'
p454
S'111'
p455
S'CD'
p456
S'B-NP'
p457
g5
tp458
a(g296
g296
g296
g5
g5
tp459
a(S'In'
p460
S'In'
p461
S'IN'
p462
S'B-PP'
p463
g5
tp464
a(g296
g296
g296
g5
g5
tp465
a(S'-labeled'
p466
S'-labeled'
p467
S'JJ'
p468
S'B-NP'
p469
g5
tp470
a(S'human'
p471
S'human'
p472
S'JJ'
p473
S'I-NP'
p474
g5
tp475
a(S'serum'
p476
S'serum'
p477
S'NN'
p478
S'I-NP'
p479
g5
tp480
a(S'albumin'
p481
S'albumin'
p482
S'NN'
p483
S'I-NP'
p484
g5
tp485
a(S'were'
p486
S'be'
p487
S'VBD'
p488
S'B-VP'
p489
g5
tp490
a(S'injected'
p491
S'inject'
p492
S'VBN'
p493
S'I-VP'
p494
g5
tp495
a(S'intravenously'
p496
S'intravenously'
p497
S'RB'
p498
S'B-ADVP'
p499
g5
tp500
a(S'during'
p501
S'during'
p502
S'IN'
p503
S'B-PP'
p504
g5
tp505
a(S'anesthesia'
p506
S'anesthesia'
p507
S'NN'
p508
S'B-NP'
p509
g5
tp510
a(S'at'
p511
S'at'
p512
S'IN'
p513
S'B-PP'
p514
g5
tp515
a(S'T'
p516
g516
S'NN'
p517
S'B-NP'
p518
g5
tp519
a(S'='
p520
g520
S'SYM'
p521
S'B-VP'
p522
g5
tp523
a(S'0'
p524
g524
S'CD'
p525
S'B-NP'
p526
g5
tp527
a(S'min'
p528
S'min'
p529
S'NN'
p530
S'I-NP'
p531
g5
tp532
a(S'in'
p533
S'in'
p534
S'IN'
p535
S'B-PP'
p536
g5
tp537
a(S'the'
p538
S'the'
p539
S'DT'
p540
S'B-NP'
p541
g5
tp542
a(S'two'
p543
S'two'
p544
S'CD'
p545
S'I-NP'
p546
g5
tp547
a(S'groups'
p548
S'group'
p549
S'NNS'
p550
S'I-NP'
p551
g5
tp552
a(S'for'
p553
S'for'
p554
S'IN'
p555
S'B-PP'
p556
g5
tp557
a(S'the'
p558
S'the'
p559
S'DT'
p560
S'B-NP'
p561
g5
tp562
a(S'determination'
p563
S'determination'
p564
S'NN'
p565
S'I-NP'
p566
g5
tp567
a(S'of'
p568
S'of'
p569
S'IN'
p570
S'B-PP'
p571
g5
tp572
a(S'total'
p573
S'total'
p574
S'JJ'
p575
S'B-NP'
p576
g5
tp577
a(S'blood'
p578
S'blood'
p579
S'NN'
p580
S'I-NP'
p581
g5
tp582
a(S'volume'
p583
S'volume'
p584
S'NN'
p585
S'I-NP'
p586
g5
tp587
a(S'and'
p588
S'and'
p589
S'CC'
p590
g5
g5
tp591
a(S'albumin'
p592
S'albumin'
p593
S'NN'
p594
S'B-NP'
p595
g5
tp596
a(S'diffusion'
p597
S'diffusion'
p598
S'NN'
p599
S'I-NP'
p600
g5
tp601
a(S'space'
p602
S'space'
p603
S'NN'
p604
S'I-NP'
p605
g5
tp606
a(g215
g215
g215
g5
g5
tp607
a(S'respectively.'
p608
S'respectively.'
p609
S'NN'
p610
S'B-NP'
p611
g5
tp612
a(S'In'
p613
S'In'
p614
S'IN'
p615
S'B-PP'
p616
g5
tp617
a(S'addition'
p618
S'addition'
p619
S'NN'
p620
S'B-NP'
p621
g5
tp622
a(g215
g215
g215
g5
g5
tp623
a(S'body'
p624
S'body'
p625
S'NN'
p626
S'B-NP'
p627
g5
tp628
a(S'tetrapolar'
p629
S'tetrapolar'
p630
S'JJ'
p631
S'I-NP'
p632
g5
tp633
a(S'electrical'
p634
S'electrical'
p635
S'JJ'
p636
S'I-NP'
p637
g5
tp638
a(S'impedance'
p639
S'impedance'
p640
S'NN'
p641
S'I-NP'
p642
g5
tp643
a(S'was'
p644
S'be'
p645
S'VBD'
p646
S'B-VP'
p647
g5
tp648
a(S'used'
p649
S'use'
p650
S'VBN'
p651
S'I-VP'
p652
g5
tp653
a(S'to'
p654
S'to'
p655
S'TO'
p656
S'B-VP'
p657
g5
tp658
a(S'assess'
p659
S'assess'
p660
S'VB'
p661
S'I-VP'
p662
g5
tp663
a(S'extracellular'
p664
S'extracellular'
p665
S'JJ'
p666
S'B-NP'
p667
g5
tp668
a(S'fluid'
p669
S'fluid'
p670
S'NN'
p671
S'I-NP'
p672
g5
tp673
a(S'volume.'
p674
S'volume.'
p675
S'NN'
p676
S'I-NP'
p677
g5
tp678
a(S'In'
p679
S'In'
p680
S'IN'
p681
S'B-PP'
p682
g5
tp683
a(S'the'
p684
S'the'
p685
S'DT'
p686
S'B-NP'
p687
g5
tp688
a(S'hemodiluted'
p689
S'hemodilute'
p690
S'VBN'
p691
S'I-NP'
p692
g5
tp693
a(S'group'
p694
S'group'
p695
S'NN'
p696
S'I-NP'
p697
g5
tp698
a(g272
g272
g272
g5
g5
tp699
a(S'group'
p700
S'group'
p701
S'NN'
p702
S'B-NP'
p703
g5
tp704
a(g318
g318
S'CD'
p705
S'I-NP'
p706
g5
tp707
a(g296
g296
g296
g5
g5
tp708
a(g215
g215
g215
g5
g5
tp709
a(S'15'
p710
S'15'
p711
S'CD'
p712
S'B-NP'
p713
g5
tp714
a(S'mL/kg'
p715
S'mL/kg'
p716
S'NN'
p717
S'I-NP'
p718
g5
tp719
a(S'of'
p720
S'of'
p721
S'IN'
p722
S'B-PP'
p723
g5
tp724
a(S'blood'
p725
S'blood'
p726
S'NN'
p727
S'B-NP'
p728
g5
tp729
a(S'was'
p730
S'be'
p731
S'VBD'
p732
S'B-VP'
p733
g5
tp734
a(S'withdrawn'
p735
S'withdraw'
p736
S'VBN'
p737
S'I-VP'
p738
g5
tp739
a(S'over'
p740
S'over'
p741
S'IN'
p742
S'B-NP'
p743
g5
tp744
a(S'30'
p745
S'30'
p746
S'CD'
p747
S'I-NP'
p748
g5
tp749
a(S'mins'
p750
S'min'
p751
S'NNS'
p752
S'I-NP'
p753
g5
tp754
a(g272
g272
g272
g5
g5
tp755
a(g516
g516
S'NN'
p756
S'B-NP'
p757
g5
tp758
a(g520
g520
S'SYM'
p759
S'B-VP'
p760
g5
tp761
a(S'20'
p762
S'20'
p763
S'CD'
p764
S'B-NP'
p765
g5
tp766
a(S'mins'
p767
S'min'
p768
S'NNS'
p769
S'I-NP'
p770
g5
tp771
a(S'to'
p772
S'to'
p773
S'TO'
p774
S'B-PP'
p775
g5
tp776
a(g516
g516
S'NN'
p777
S'B-NP'
p778
g5
tp779
a(g520
g520
S'SYM'
p780
S'B-VP'
p781
g5
tp782
a(S'50'
p783
S'50'
p784
S'CD'
p785
S'B-NP'
p786
g5
tp787
a(S'mins'
p788
S'min'
p789
S'NNS'
p790
S'I-NP'
p791
g5
tp792
a(g296
g296
g296
g5
g5
tp793
a(S'and'
p794
S'and'
p795
S'CC'
p796
g5
g5
tp797
a(S'simultaneously'
p798
S'simultaneously'
p799
S'RB'
p800
S'B-VP'
p801
g5
tp802
a(S'replaced'
p803
S'replace'
p804
S'VBN'
p805
S'I-VP'
p806
g5
tp807
a(S'by'
p808
S'by'
p809
S'IN'
p810
S'B-PP'
p811
g5
tp812
a(S'an'
p813
S'an'
p814
S'DT'
p815
S'B-NP'
p816
g5
tp817
a(S'equal'
p818
S'equal'
p819
S'JJ'
p820
S'I-NP'
p821
g5
tp822
a(S'volume'
p823
S'volume'
p824
S'NN'
p825
S'I-NP'
p826
g5
tp827
a(S'of'
p828
S'of'
p829
S'IN'
p830
S'B-PP'
p831
g5
tp832
a(g120
g120
S'CD'
p833
S'B-NP'
p834
g5
tp835
a(g124
g124
S'NN'
p836
S'I-NP'
p837
g5
tp838
a(S'albumin'
p839
S'albumin'
p840
S'NN'
p841
S'I-NP'
p842
g5
tp843
a(S'solution'
p844
S'solution'
p845
S'NN'
p846
S'I-NP'
p847
g5
tp848
a(g272
g272
g272
g5
g5
tp849
a(S'0.6'
p850
S'0.6'
p851
S'CD'
p852
S'B-NP'
p853
g5
tp854
a(S'g/kg'
p855
S'g/kg'
p856
S'NN'
p857
S'I-NP'
p858
g5
tp859
a(g296
g296
g296
g5
g5
tp860
a(g68
g68
g68
g5
g5
tp861
a(S'MEASUREMENTS'
p862
S'MEASUREMENTS'
p863
S'NNS'
p864
S'B-NP'
p865
g5
tp866
a(S'AND'
p867
S'AND'
p868
S'CC'
p869
S'I-NP'
p870
g5
tp871
a(S'MAIN'
p872
S'MAIN'
p873
S'NN'
p874
S'I-NP'
p875
g5
tp876
a(S'RESULTS'
p877
S'RESULTS'
p878
S'NNS'
p879
S'I-NP'
p880
g5
tp881
a(S'The'
p882
S'The'
p883
S'DT'
p884
S'B-NP'
p885
g5
tp886
a(S'albumin'
p887
S'albumin'
p888
S'NN'
p889
S'I-NP'
p890
g5
tp891
a(S'diffusion'
p892
S'diffusion'
p893
S'NN'
p894
S'I-NP'
p895
g5
tp896
a(S'space'
p897
S'space'
p898
S'NN'
p899
S'I-NP'
p900
g5
tp901
a(g215
g215
g215
g5
g5
tp902
a(S'the'
p903
S'the'
p904
S'DT'
p905
S'B-NP'
p906
g5
tp907
a(S'colloid'
p908
S'colloid'
p909
S'JJ'
p910
S'I-NP'
p911
g5
tp912
a(S'oncotic'
p913
S'oncotic'
p914
S'JJ'
p915
S'I-NP'
p916
g5
tp917
a(S'pressure'
p918
S'pressure'
p919
S'NN'
p920
S'I-NP'
p921
g5
tp922
a(g215
g215
g215
g5
g5
tp923
a(S'the'
p924
S'the'
p925
S'DT'
p926
S'B-NP'
p927
g5
tp928
a(S'plasma'
p929
S'plasma'
p930
S'NN'
p931
S'I-NP'
p932
g5
tp933
a(S'albumin'
p934
S'albumin'
p935
S'NN'
p936
S'I-NP'
p937
g5
tp938
a(S'concentration'
p939
S'concentration'
p940
S'NN'
p941
S'I-NP'
p942
g5
tp943
a(S'and'
p944
S'and'
p945
S'CC'
p946
g5
g5
tp947
a(S'the'
p948
S'the'
p949
S'DT'
p950
S'B-NP'
p951
g5
tp952
a(S'electrical'
p953
S'electrical'
p954
S'JJ'
p955
S'I-NP'
p956
g5
tp957
a(S'impedance'
p958
S'impedance'
p959
S'NN'
p960
S'I-NP'
p961
g5
tp962
a(S'were'
p963
S'be'
p964
S'VBD'
p965
S'B-VP'
p966
g5
tp967
a(S'measured'
p968
S'measure'
p969
S'VBN'
p970
S'I-VP'
p971
g5
tp972
a(S'before'
p973
S'before'
p974
S'IN'
p975
S'B-PP'
p976
g5
tp977
a(g272
g272
g272
g5
g5
tp978
a(g516
g516
S'NN'
p979
S'B-NP'
p980
g5
tp981
a(g520
g520
S'SYM'
p982
S'B-VP'
p983
g5
tp984
a(S'10'
p985
S'10'
p986
S'CD'
p987
S'B-NP'
p988
g5
tp989
a(S'mins'
p990
S'min'
p991
S'NNS'
p992
S'I-NP'
p993
g5
tp994
a(g296
g296
g296
g5
g5
tp995
a(S'and'
p996
S'and'
p997
S'CC'
p998
g5
g5
tp999
a(S'after'
p1000
S'after'
p1001
S'IN'
p1002
S'B-SBAR'
p1003
g5
tp1004
a(g272
g272
g272
g5
g5
tp1005
a(g516
g516
S'NN'
p1006
S'B-NP'
p1007
g5
tp1008
a(g520
g520
S'SYM'
p1009
S'B-VP'
p1010
g5
tp1011
a(S'60'
p1012
S'60'
p1013
S'CD'
p1014
S'B-NP'
p1015
g5
tp1016
a(g215
g215
g215
g5
g5
tp1017
a(S'120'
p1018
S'120'
p1019
S'CD'
p1020
S'B-NP'
p1021
g5
tp1022
a(g215
g215
g215
g5
g5
tp1023
a(S'and'
p1024
S'and'
p1025
S'CC'
p1026
g5
g5
tp1027
a(S'240'
p1028
S'240'
p1029
S'CD'
p1030
S'B-NP'
p1031
g5
tp1032
a(S'mins'
p1033
S'min'
p1034
S'NNS'
p1035
S'I-NP'
p1036
g5
tp1037
a(g296
g296
g296
g5
g5
tp1038
a(S'hemodilution.'
p1039
S'hemodilution.'
p1040
S'NN'
p1041
S'B-NP'
p1042
g5
tp1043
a(S'Urine'
p1044
S'Urine'
p1045
S'NN'
p1046
S'I-NP'
p1047
g5
tp1048
a(S'was'
p1049
S'be'
p1050
S'VBD'
p1051
S'B-VP'
p1052
g5
tp1053
a(S'collected'
p1054
S'collect'
p1055
S'VBN'
p1056
S'I-VP'
p1057
g5
tp1058
a(S'from'
p1059
S'from'
p1060
S'IN'
p1061
S'B-PP'
p1062
g5
tp1063
a(g516
g516
S'NN'
p1064
S'B-NP'
p1065
g5
tp1066
a(g520
g520
S'SYM'
p1067
S'B-VP'
p1068
g5
tp1069
a(S'10'
p1070
S'10'
p1071
S'CD'
p1072
S'B-NP'
p1073
g5
tp1074
a(S'mins'
p1075
S'min'
p1076
S'NNS'
p1077
S'I-NP'
p1078
g5
tp1079
a(S'to'
p1080
S'to'
p1081
S'TO'
p1082
S'B-PP'
p1083
g5
tp1084
a(g516
g516
S'NN'
p1085
S'B-NP'
p1086
g5
tp1087
a(g520
g520
S'SYM'
p1088
S'B-VP'
p1089
g5
tp1090
a(S'240'
p1091
S'240'
p1092
S'CD'
p1093
S'B-NP'
p1094
g5
tp1095
a(S'mins.'
p1096
S'mins.'
p1097
S'NNS'
p1098
S'I-NP'
p1099
g5
tp1100
a(S'The'
p1101
S'The'
p1102
S'DT'
p1103
S'B-NP'
p1104
g5
tp1105
a(S'total'
p1106
S'total'
p1107
S'JJ'
p1108
S'I-NP'
p1109
g5
tp1110
a(S'blood'
p1111
S'blood'
p1112
S'NN'
p1113
S'I-NP'
p1114
g5
tp1115
a(S'volume'
p1116
S'volume'
p1117
S'NN'
p1118
S'I-NP'
p1119
g5
tp1120
a(S'was'
p1121
S'be'
p1122
S'VBD'
p1123
S'B-VP'
p1124
g5
tp1125
a(S'calculated'
p1126
S'calculate'
p1127
S'VBN'
p1128
S'I-VP'
p1129
g5
tp1130
a(S'at'
p1131
S'at'
p1132
S'IN'
p1133
S'B-PP'
p1134
g5
tp1135
a(g516
g516
S'NN'
p1136
S'B-NP'
p1137
g5
tp1138
a(g520
g520
S'SYM'
p1139
S'B-NP'
p1140
g5
tp1141
a(S'10'
p1142
S'10'
p1143
S'CD'
p1144
S'I-NP'
p1145
g5
tp1146
a(S'mins.'
p1147
S'mins.'
p1148
S'NN'
p1149
S'I-NP'
p1150
g5
tp1151
a(S'No'
p1152
S'No'
p1153
S'NN'
p1154
S'I-NP'
p1155
g5
tp1156
a(S'differences'
p1157
S'difference'
p1158
S'NNS'
p1159
S'I-NP'
p1160
g5
tp1161
a(S'in'
p1162
S'in'
p1163
S'IN'
p1164
S'B-PP'
p1165
g5
tp1166
a(S'the'
p1167
S'the'
p1168
S'DT'
p1169
S'B-NP'
p1170
g5
tp1171
a(S'initial'
p1172
S'initial'
p1173
S'JJ'
p1174
S'I-NP'
p1175
g5
tp1176
a(S'values'
p1177
S'value'
p1178
S'NNS'
p1179
S'I-NP'
p1180
g5
tp1181
a(S'were'
p1182
S'be'
p1183
S'VBD'
p1184
S'B-VP'
p1185
g5
tp1186
a(S'found'
p1187
S'find'
p1188
S'VBN'
p1189
S'I-VP'
p1190
g5
tp1191
a(S'between'
p1192
S'between'
p1193
S'IN'
p1194
S'B-PP'
p1195
g5
tp1196
a(S'the'
p1197
S'the'
p1198
S'DT'
p1199
S'B-NP'
p1200
g5
tp1201
a(S'two'
p1202
S'two'
p1203
S'CD'
p1204
S'I-NP'
p1205
g5
tp1206
a(S'groups.'
p1207
S'groups.'
p1208
S'NNS'
p1209
S'I-NP'
p1210
g5
tp1211
a(S'In'
p1212
S'In'
p1213
S'IN'
p1214
S'B-PP'
p1215
g5
tp1216
a(S'group'
p1217
S'group'
p1218
S'NN'
p1219
S'B-NP'
p1220
g5
tp1221
a(g318
g318
S'CD'
p1222
S'I-NP'
p1223
g5
tp1224
a(g215
g215
g215
g5
g5
tp1225
a(S'hemodilution'
p1226
S'hemodilution'
p1227
S'NN'
p1228
S'B-NP'
p1229
g5
tp1230
a(g272
g272
g272
g5
g5
tp1231
a(S'hematocrit'
p1232
S'hematocrit'
p1233
S'NN'
p1234
S'B-NP'
p1235
g5
tp1236
a(S'30'
p1237
S'30'
p1238
S'CD'
p1239
S'I-NP'
p1240
g5
tp1241
a(S'+/-'
p1242
S'+/-'
p1243
S'SYM'
p1244
g5
g5
tp1245
a(S'3'
p1246
g1246
S'CD'
p1247
S'B-NP'
p1248
g5
tp1249
a(g124
g124
S'NN'
p1250
S'I-NP'
p1251
g5
tp1252
a(g296
g296
g296
g5
g5
tp1253
a(S'resulted'
p1254
S'result'
p1255
S'VBD'
p1256
S'B-VP'
p1257
g5
tp1258
a(S'in'
p1259
S'in'
p1260
S'IN'
p1261
S'B-PP'
p1262
g5
tp1263
a(g359
g359
S'DT'
p1264
S'B-NP'
p1265
g5
tp1266
a(S'steeper'
p1267
S'steep'
p1268
S'JJR'
p1269
S'I-NP'
p1270
g5
tp1271
a(S'increase'
p1272
S'increase'
p1273
S'NN'
p1274
S'I-NP'
p1275
g5
tp1276
a(S'in'
p1277
S'in'
p1278
S'IN'
p1279
S'B-PP'
p1280
g5
tp1281
a(S'the'
p1282
S'the'
p1283
S'DT'
p1284
S'B-NP'
p1285
g5
tp1286
a(S'albumin'
p1287
S'albumin'
p1288
S'NN'
p1289
S'I-NP'
p1290
g5
tp1291
a(S'diffusion'
p1292
S'diffusion'
p1293
S'NN'
p1294
S'I-NP'
p1295
g5
tp1296
a(S'space'
p1297
S'space'
p1298
S'NN'
p1299
S'I-NP'
p1300
g5
tp1301
a(g272
g272
g272
g5
g5
tp1302
a(S'p'
p1303
g1303
S'NN'
p1304
S'B-NP'
p1305
g5
tp1306
a(S'<'
p1307
g1307
S'JJR'
p1308
S'B-NP'
p1309
g5
tp1310
a(S'.05'
p1311
S'.05'
p1312
S'CD'
p1313
S'I-NP'
p1314
g5
tp1315
a(g296
g296
g296
g5
g5
tp1316
a(S'and'
p1317
S'and'
p1318
S'CC'
p1319
g5
g5
tp1320
a(g359
g359
S'DT'
p1321
S'B-NP'
p1322
g5
tp1323
a(S'progressive'
p1324
S'progressive'
p1325
S'JJ'
p1326
S'I-NP'
p1327
g5
tp1328
a(S'decrease'
p1329
S'decrease'
p1330
S'NN'
p1331
S'I-NP'
p1332
g5
tp1333
a(S'in'
p1334
S'in'
p1335
S'IN'
p1336
S'B-PP'
p1337
g5
tp1338
a(S'the'
p1339
S'the'
p1340
S'DT'
p1341
S'B-NP'
p1342
g5
tp1343
a(S'body'
p1344
S'body'
p1345
S'NN'
p1346
S'I-NP'
p1347
g5
tp1348
a(S'electrical'
p1349
S'electrical'
p1350
S'JJ'
p1351
S'I-NP'
p1352
g5
tp1353
a(S'impedance'
p1354
S'impedance'
p1355
S'NN'
p1356
S'I-NP'
p1357
g5
tp1358
a(g272
g272
g272
g5
g5
tp1359
a(g1303
g1303
S'NN'
p1360
S'B-NP'
p1361
g5
tp1362
a(g1307
g1307
S'JJR'
p1363
S'B-NP'
p1364
g5
tp1365
a(S'.05'
p1366
S'.05'
p1367
S'CD'
p1368
S'I-NP'
p1369
g5
tp1370
a(g296
g296
g296
g5
g5
tp1371
a(g68
g68
g68
g5
g5
tp1372
a(S'The'
p1373
S'The'
p1374
S'DT'
p1375
S'B-NP'
p1376
g5
tp1377
a(S'extravasation'
p1378
S'extravasation'
p1379
S'NN'
p1380
S'I-NP'
p1381
g5
tp1382
a(S'rate'
p1383
S'rate'
p1384
S'NN'
p1385
S'I-NP'
p1386
g5
tp1387
a(S'of'
p1388
S'of'
p1389
S'IN'
p1390
S'B-PP'
p1391
g5
tp1392
a(S'albumin'
p1393
S'albumin'
p1394
S'NN'
p1395
S'B-NP'
p1396
S'B-protein'
p1397
tp1398
a(S'was'
p1399
S'be'
p1400
S'VBD'
p1401
S'B-VP'
p1402
g5
tp1403
a(S'0.052'
p1404
S'0.052'
p1405
S'CD'
p1406
S'B-NP'
p1407
g5
tp1408
a(S'+/-'
p1409
S'+/-'
p1410
S'SYM'
p1411
S'I-NP'
p1412
g5
tp1413
a(S'0.007'
p1414
S'0.007'
p1415
S'CD'
p1416
S'I-NP'
p1417
g5
tp1418
a(S'mL/kg/min'
p1419
S'mL/kg/min'
p1420
S'NN'
p1421
S'I-NP'
p1422
g5
tp1423
a(S'in'
p1424
S'in'
p1425
S'IN'
p1426
S'B-PP'
p1427
g5
tp1428
a(S'group'
p1429
S'group'
p1430
S'NN'
p1431
S'B-NP'
p1432
g5
tp1433
a(g318
g318
S'CD'
p1434
S'I-NP'
p1435
g5
tp1436
a(S'vs.'
p1437
S'vs.'
p1438
S'IN'
p1439
S'B-PP'
p1440
g5
tp1441
a(S'0.038'
p1442
S'0.038'
p1443
S'CD'
p1444
S'B-NP'
p1445
g5
tp1446
a(S'+/-'
p1447
S'+/-'
p1448
S'SYM'
p1449
S'I-NP'
p1450
g5
tp1451
a(S'0.020'
p1452
S'0.020'
p1453
S'CD'
p1454
S'I-NP'
p1455
g5
tp1456
a(S'mL/kg/min'
p1457
S'mL/kg/min'
p1458
S'NN'
p1459
S'I-NP'
p1460
g5
tp1461
a(S'in'
p1462
S'in'
p1463
S'IN'
p1464
S'B-PP'
p1465
g5
tp1466
a(S'group'
p1467
S'group'
p1468
S'NN'
p1469
S'B-NP'
p1470
g5
tp1471
a(g291
g291
S'CD'
p1472
S'I-NP'
p1473
g5
tp1474
a(g272
g272
g272
g5
g5
tp1475
a(g1303
g1303
S'NN'
p1476
S'B-NP'
p1477
g5
tp1478
a(g1307
g1307
S'JJR'
p1479
S'B-NP'
p1480
g5
tp1481
a(S'.05'
p1482
S'.05'
p1483
S'CD'
p1484
S'I-NP'
p1485
g5
tp1486
a(g296
g296
g296
g5
g5
tp1487
a(g68
g68
g68
g5
g5
tp1488
a(S'The'
p1489
S'The'
p1490
S'DT'
p1491
S'B-NP'
p1492
g5
tp1493
a(S'value'
p1494
S'value'
p1495
S'NN'
p1496
S'I-NP'
p1497
g5
tp1498
a(S'of'
p1499
S'of'
p1500
S'IN'
p1501
S'B-PP'
p1502
g5
tp1503
a(S'calculated'
p1504
S'calculate'
p1505
S'VBN'
p1506
S'B-NP'
p1507
g5
tp1508
a(S'plasma'
p1509
S'plasma'
p1510
S'NN'
p1511
S'I-NP'
p1512
g5
tp1513
a(S'volume'
p1514
S'volume'
p1515
S'NN'
p1516
S'I-NP'
p1517
g5
tp1518
a(S'at'
p1519
S'at'
p1520
S'IN'
p1521
S'B-PP'
p1522
g5
tp1523
a(g516
g516
S'NN'
p1524
S'B-NP'
p1525
g5
tp1526
a(g520
g520
S'SYM'
p1527
S'B-VP'
p1528
g5
tp1529
a(g524
g524
S'CD'
p1530
S'B-NP'
p1531
g5
tp1532
a(S'min'
p1533
S'min'
p1534
S'NN'
p1535
S'I-NP'
p1536
g5
tp1537
a(S'did'
p1538
S'do'
p1539
S'VBD'
p1540
S'B-VP'
p1541
g5
tp1542
a(S'not'
p1543
S'not'
p1544
S'RB'
p1545
S'I-VP'
p1546
g5
tp1547
a(S'shown'
p1548
S'show'
p1549
S'VBN'
p1550
S'I-VP'
p1551
g5
tp1552
a(S'any'
p1553
S'any'
p1554
S'DT'
p1555
S'B-NP'
p1556
g5
tp1557
a(S'difference'
p1558
S'difference'
p1559
S'NN'
p1560
S'I-NP'
p1561
g5
tp1562
a(S'between'
p1563
S'between'
p1564
S'IN'
p1565
S'B-PP'
p1566
g5
tp1567
a(S'the'
p1568
S'the'
p1569
S'DT'
p1570
S'B-NP'
p1571
g5
tp1572
a(S'two'
p1573
S'two'
p1574
S'CD'
p1575
S'I-NP'
p1576
g5
tp1577
a(S'groups.'
p1578
S'groups.'
p1579
S'NNS'
p1580
S'I-NP'
p1581
g5
tp1582
a(S'This'
p1583
S'This'
p1584
S'DT'
p1585
S'B-NP'
p1586
g5
tp1587
a(S'value'
p1588
S'value'
p1589
S'NN'
p1590
S'I-NP'
p1591
g5
tp1592
a(S'was'
p1593
S'be'
p1594
S'VBD'
p1595
S'B-VP'
p1596
g5
tp1597
a(S'then'
p1598
S'then'
p1599
S'RB'
p1600
S'B-ADJP'
p1601
g5
tp1602
a(S'lower'
p1603
S'low'
p1604
S'JJR'
p1605
S'I-ADJP'
p1606
g5
tp1607
a(S'than'
p1608
S'than'
p1609
S'IN'
p1610
S'B-SBAR'
p1611
g5
tp1612
a(S'expected'
p1613
S'expect'
p1614
S'VBN'
p1615
S'B-VP'
p1616
g5
tp1617
a(S'in'
p1618
S'in'
p1619
S'IN'
p1620
S'B-PP'
p1621
g5
tp1622
a(S'group'
p1623
S'group'
p1624
S'NN'
p1625
S'B-NP'
p1626
g5
tp1627
a(g318
g318
S'CD'
p1628
S'I-NP'
p1629
g5
tp1630
a(g215
g215
g215
g5
g5
tp1631
a(S'corresponding'
p1632
S'correspond'
p1633
S'VBG'
p1634
S'B-VP'
p1635
g5
tp1636
a(S'to'
p1637
S'to'
p1638
S'TO'
p1639
S'B-PP'
p1640
g5
tp1641
a(g359
g359
S'DT'
p1642
S'B-NP'
p1643
g5
tp1644
a(S'loss'
p1645
S'loss'
p1646
S'NN'
p1647
S'I-NP'
p1648
g5
tp1649
a(S'of'
p1650
S'of'
p1651
S'IN'
p1652
S'B-PP'
p1653
g5
tp1654
a(S'plasma'
p1655
S'plasma'
p1656
S'NN'
p1657
S'B-NP'
p1658
g5
tp1659
a(S'volume'
p1660
S'volume'
p1661
S'NN'
p1662
S'I-NP'
p1663
g5
tp1664
a(S'of'
p1665
S'of'
p1666
S'IN'
p1667
S'B-PP'
p1668
g5
tp1669
a(g369
g369
S'JJR'
p1670
S'B-NP'
p1671
g5
tp1672
a(g1246
g1246
S'CD'
p1673
S'I-NP'
p1674
g5
tp1675
a(S'mL/kg.'
p1676
S'mL/kg.'
p1677
S'NN'
p1678
S'I-NP'
p1679
g5
tp1680
a(S'Urine'
p1681
S'Urine'
p1682
S'NN'
p1683
S'I-NP'
p1684
g5
tp1685
a(S'output'
p1686
S'output'
p1687
S'NN'
p1688
S'I-NP'
p1689
g5
tp1690
a(S'was'
p1691
S'be'
p1692
S'VBD'
p1693
S'B-VP'
p1694
g5
tp1695
a(S'significantly'
p1696
S'significantly'
p1697
S'RB'
p1698
S'B-ADJP'
p1699
g5
tp1700
a(S'lower'
p1701
S'low'
p1702
S'JJR'
p1703
S'I-ADJP'
p1704
g5
tp1705
a(S'in'
p1706
S'in'
p1707
S'IN'
p1708
S'B-PP'
p1709
g5
tp1710
a(S'group'
p1711
S'group'
p1712
S'NN'
p1713
S'B-NP'
p1714
g5
tp1715
a(g318
g318
S'CD'
p1716
S'I-NP'
p1717
g5
tp1718
a(S'than'
p1719
S'than'
p1720
S'IN'
p1721
S'B-PP'
p1722
g5
tp1723
a(S'in'
p1724
S'in'
p1725
S'IN'
p1726
S'B-PP'
p1727
g5
tp1728
a(S'group'
p1729
S'group'
p1730
S'NN'
p1731
S'B-NP'
p1732
g5
tp1733
a(g291
g291
S'CD'
p1734
S'I-NP'
p1735
g5
tp1736
a(g272
g272
g272
g5
g5
tp1737
a(S'0.7'
p1738
S'0.7'
p1739
S'CD'
p1740
S'B-NP'
p1741
g5
tp1742
a(S'+/-'
p1743
S'+/-'
p1744
S'SYM'
p1745
S'I-NP'
p1746
g5
tp1747
a(S'0.4'
p1748
S'0.4'
p1749
S'CD'
p1750
S'I-NP'
p1751
g5
tp1752
a(S'vs.'
p1753
S'vs.'
p1754
S'IN'
p1755
S'B-PP'
p1756
g5
tp1757
a(S'1.4'
p1758
S'1.4'
p1759
S'CD'
p1760
S'B-NP'
p1761
g5
tp1762
a(S'+/-'
p1763
S'+/-'
p1764
S'SYM'
p1765
S'I-NP'
p1766
g5
tp1767
a(S'1.0'
p1768
S'1.0'
p1769
S'CD'
p1770
S'I-NP'
p1771
g5
tp1772
a(S'mL/min'
p1773
S'mL/min'
p1774
S'NN'
p1775
S'I-NP'
p1776
g5
tp1777
a(g215
g215
g215
g5
g5
tp1778
a(S'respectively'
p1779
S'respectively'
p1780
S'RB'
p1781
S'B-ADVP'
p1782
g5
tp1783
a(S';'
p1784
g1784
S':'
p1785
g5
g5
tp1786
a(g1303
g1303
S'NN'
p1787
S'B-NP'
p1788
g5
tp1789
a(g1307
g1307
S'JJR'
p1790
S'B-NP'
p1791
g5
tp1792
a(S'.05'
p1793
S'.05'
p1794
S'CD'
p1795
S'I-NP'
p1796
g5
tp1797
a(g296
g296
g296
g5
g5
tp1798
a(g68
g68
g68
g5
g5
tp1799
a(g206
g206
S'DT'
p1800
S'B-NP'
p1801
g5
tp1802
a(S'comparable'
p1803
S'comparable'
p1804
S'JJ'
p1805
S'I-NP'
p1806
g5
tp1807
a(S'decrease'
p1808
S'decrease'
p1809
S'NN'
p1810
S'I-NP'
p1811
g5
tp1812
a(S'in'
p1813
S'in'
p1814
S'IN'
p1815
S'B-PP'
p1816
g5
tp1817
a(S'colloid'
p1818
S'colloid'
p1819
S'JJ'
p1820
S'B-NP'
p1821
g5
tp1822
a(S'oncotic'
p1823
S'oncotic'
p1824
S'JJ'
p1825
S'I-NP'
p1826
g5
tp1827
a(S'pressure'
p1828
S'pressure'
p1829
S'NN'
p1830
S'I-NP'
p1831
g5
tp1832
a(S'and'
p1833
S'and'
p1834
S'CC'
p1835
S'B-PP'
p1836
g5
tp1837
a(S'in'
p1838
S'in'
p1839
S'IN'
p1840
S'B-PP'
p1841
g5
tp1842
a(S'plasma'
p1843
S'plasma'
p1844
S'NN'
p1845
S'B-NP'
p1846
g5
tp1847
a(S'albumin'
p1848
S'albumin'
p1849
S'NN'
p1850
S'I-NP'
p1851
g5
tp1852
a(S'concentration'
p1853
S'concentration'
p1854
S'NN'
p1855
S'I-NP'
p1856
g5
tp1857
a(S'was'
p1858
S'be'
p1859
S'VBD'
p1860
S'B-VP'
p1861
g5
tp1862
a(S'observed'
p1863
S'observe'
p1864
S'VBN'
p1865
S'I-VP'
p1866
g5
tp1867
a(S'in'
p1868
S'in'
p1869
S'IN'
p1870
S'B-PP'
p1871
g5
tp1872
a(S'both'
p1873
S'both'
p1874
S'DT'
p1875
S'B-NP'
p1876
g5
tp1877
a(S'groups'
p1878
S'group'
p1879
S'NNS'
p1880
S'I-NP'
p1881
g5
tp1882
a(g68
g68
g68
g5
g5
tp1883
a(S'CONCLUSIONS'
p1884
S'CONCLUSIONS'
p1885
S'NNS'
p1886
S'B-NP'
p1887
g5
tp1888
a(S'These'
p1889
S'These'
p1890
S'DT'
p1891
S'B-NP'
p1892
g5
tp1893
a(S'results'
p1894
S'result'
p1895
S'NNS'
p1896
S'I-NP'
p1897
g5
tp1898
a(S'suggest'
p1899
S'suggest'
p1900
S'VBP'
p1901
S'B-VP'
p1902
g5
tp1903
a(S'that'
p1904
S'that'
p1905
S'IN'
p1906
S'B-SBAR'
p1907
g5
tp1908
a(S'preoperative'
p1909
S'preoperative'
p1910
S'JJ'
p1911
S'B-NP'
p1912
g5
tp1913
a(S'hemodilution'
p1914
S'hemodilution'
p1915
S'NN'
p1916
S'I-NP'
p1917
g5
tp1918
a(S'using'
p1919
S'use'
p1920
S'VBG'
p1921
S'B-VP'
p1922
g5
tp1923
a(g120
g120
S'CD'
p1924
S'B-NP'
p1925
g5
tp1926
a(g124
g124
S'NN'
p1927
S'I-NP'
p1928
g5
tp1929
a(S'albumin'
p1930
S'albumin'
p1931
S'NN'
p1932
S'I-NP'
p1933
g5
tp1934
a(S'on'
p1935
S'on'
p1936
S'IN'
p1937
S'B-PP'
p1938
g5
tp1939
a(g359
g359
S'DT'
p1940
S'B-NP'
p1941
g5
tp1942
a(g291
g291
S'CD'
p1943
S'I-NP'
p1944
g5
tp1945
a(g1785
g1785
S'SYM'
p1946
S'I-NP'
p1947
g5
tp1948
a(g291
g291
S'CD'
p1949
S'I-NP'
p1950
g5
tp1951
a(S'volume'
p1952
S'volume'
p1953
S'NN'
p1954
S'I-NP'
p1955
g5
tp1956
a(S'basis'
p1957
S'basis'
p1958
S'NN'
p1959
S'I-NP'
p1960
g5
tp1961
a(S'for'
p1962
S'for'
p1963
S'IN'
p1964
S'B-PP'
p1965
g5
tp1966
a(S'blood'
p1967
S'blood'
p1968
S'NN'
p1969
S'B-NP'
p1970
g5
tp1971
a(S'substitution'
p1972
S'substitution'
p1973
S'NN'
p1974
S'I-NP'
p1975
g5
tp1976
a(S'during'
p1977
S'during'
p1978
S'IN'
p1979
S'B-PP'
p1980
g5
tp1981
a(g359
g359
S'DT'
p1982
S'B-NP'
p1983
g5
tp1984
a(S'prolonged'
p1985
S'prolonged'
p1986
S'JJ'
p1987
S'I-NP'
p1988
g5
tp1989
a(S'surgical'
p1990
S'surgical'
p1991
S'JJ'
p1992
S'I-NP'
p1993
g5
tp1994
a(S'procedure'
p1995
S'procedure'
p1996
S'NN'
p1997
S'I-NP'
p1998
g5
tp1999
a(S'with'
p2000
S'with'
p2001
S'IN'
p2002
S'B-PP'
p2003
g5
tp2004
a(S'reduced'
p2005
S'reduce'
p2006
S'VBN'
p2007
S'B-NP'
p2008
g5
tp2009
a(S'blood'
p2010
S'blood'
p2011
S'NN'
p2012
S'I-NP'
p2013
g5
tp2014
a(S'losses'
p2015
S'loss'
p2016
S'NNS'
p2017
S'I-NP'
p2018
g5
tp2019
a(S'enhances'
p2020
S'enhance'
p2021
S'VBZ'
p2022
S'B-VP'
p2023
g5
tp2024
a(S'the'
p2025
S'the'
p2026
S'DT'
p2027
S'B-NP'
p2028
g5
tp2029
a(S'extravasation'
p2030
S'extravasation'
p2031
S'NN'
p2032
S'I-NP'
p2033
g5
tp2034
a(S'rate'
p2035
S'rate'
p2036
S'NN'
p2037
S'I-NP'
p2038
g5
tp2039
a(S'of'
p2040
S'of'
p2041
S'IN'
p2042
S'B-PP'
p2043
g5
tp2044
a(S'albumin'
p2045
S'albumin'
p2046
S'NN'
p2047
S'B-NP'
p2048
S'B-protein'
p2049
tp2050
a(S'and'
p2051
S'and'
p2052
S'CC'
p2053
g5
g5
tp2054
a(S'fluid'
p2055
S'fluid'
p2056
S'NN'
p2057
S'B-NP'
p2058
g5
tp2059
a(S'to'
p2060
S'to'
p2061
S'TO'
p2062
S'B-PP'
p2063
g5
tp2064
a(S'the'
p2065
S'the'
p2066
S'DT'
p2067
S'B-NP'
p2068
g5
tp2069
a(S'interstitial'
p2070
S'interstitial'
p2071
S'JJ'
p2072
S'I-NP'
p2073
g5
tp2074
a(S'tissues'
p2075
S'tissue'
p2076
S'NNS'
p2077
S'I-NP'
p2078
g5
tp2079
a(g215
g215
g215
g5
g5
tp2080
a(S'impeding'
p2081
S'impede'
p2082
S'VBG'
p2083
S'B-VP'
p2084
g5
tp2085
a(S'the'
p2086
S'the'
p2087
S'DT'
p2088
S'B-NP'
p2089
g5
tp2090
a(S'maintenance'
p2091
S'maintenance'
p2092
S'NN'
p2093
S'I-NP'
p2094
g5
tp2095
a(S'of'
p2096
S'of'
p2097
S'IN'
p2098
S'B-PP'
p2099
g5
tp2100
a(S'isovolemia.'
p2101
S'isovolemia.'
p2102
S'FW'
p2103
S'B-NP'
p2104
g5
tp2105
a(S'These'
p2106
S'These'
p2107
S'DT'
p2108
S'B-NP'
p2109
g5
tp2110
a(S'findings'
p2111
S'finding'
p2112
S'NNS'
p2113
S'I-NP'
p2114
g5
tp2115
a(S'support'
p2116
S'support'
p2117
S'VBP'
p2118
S'B-VP'
p2119
g5
tp2120
a(S'the'
p2121
S'the'
p2122
S'DT'
p2123
S'B-NP'
p2124
g5
tp2125
a(S'use'
p2126
S'use'
p2127
S'NN'
p2128
S'I-NP'
p2129
g5
tp2130
a(S'of'
p2131
S'of'
p2132
S'IN'
p2133
S'B-PP'
p2134
g5
tp2135
a(g359
g359
S'DT'
p2136
S'B-NP'
p2137
g5
tp2138
a(S'volume'
p2139
S'volume'
p2140
S'NN'
p2141
S'I-NP'
p2142
g5
tp2143
a(S'of'
p2144
S'of'
p2145
S'IN'
p2146
S'B-PP'
p2147
g5
tp2148
a(S'infused'
p2149
S'infuse'
p2150
S'VBN'
p2151
S'B-NP'
p2152
g5
tp2153
a(S'colloid'
p2154
S'colloid'
p2155
S'JJ'
p2156
S'I-NP'
p2157
g5
tp2158
a(S'solution'
p2159
S'solution'
p2160
S'NN'
p2161
S'I-NP'
p2162
g5
tp2163
a(S'higher'
p2164
S'high'
p2165
S'JJR'
p2166
S'B-ADJP'
p2167
g5
tp2168
a(S'than'
p2169
S'than'
p2170
S'IN'
p2171
S'B-PP'
p2172
g5
tp2173
a(S'that'
p2174
S'that'
p2175
S'DT'
p2176
S'B-NP'
p2177
g5
tp2178
a(S'of'
p2179
S'of'
p2180
S'IN'
p2181
S'B-PP'
p2182
g5
tp2183
a(S'withdrawn'
p2184
S'withdraw'
p2185
S'VBN'
p2186
S'B-NP'
p2187
g5
tp2188
a(S'blood'
p2189
S'blood'
p2190
S'NN'
p2191
S'I-NP'
p2192
g5
tp2193
a(S'during'
p2194
S'during'
p2195
S'IN'
p2196
S'B-PP'
p2197
g5
tp2198
a(S'preoperative'
p2199
S'preoperative'
p2200
S'JJ'
p2201
S'B-NP'
p2202
g5
tp2203
a(S'hemodilution'
p2204
S'hemodilution'
p2205
S'NN'
p2206
S'I-NP'
p2207
g5
tp2208
a(g68
g68
g68
g5
g5
tp2209
a.