(lp0
(S'Multicenter'
p1
S'Multicenter'
p2
S'NNP'
p3
S'B-NP'
p4
S'O'
p5
tp6
a(S'randomized'
p7
S'randomize'
p8
S'VBD'
p9
S'B-VP'
p10
g5
tp11
a(S'controlled'
p12
S'control'
p13
S'VBN'
p14
S'B-NP'
p15
g5
tp16
a(S'trial'
p17
S'trial'
p18
S'NN'
p19
S'I-NP'
p20
g5
tp21
a(S'of'
p22
S'of'
p23
S'IN'
p24
S'B-PP'
p25
g5
tp26
a(S'the'
p27
S'the'
p28
S'DT'
p29
S'B-NP'
p30
g5
tp31
a(S'management'
p32
S'management'
p33
S'NN'
p34
S'I-NP'
p35
g5
tp36
a(S'of'
p37
S'of'
p38
S'IN'
p39
S'B-PP'
p40
g5
tp41
a(S'unresectable'
p42
S'unresectable'
p43
S'JJ'
p44
S'B-NP'
p45
g5
tp46
a(S'malignant'
p47
S'malignant'
p48
S'JJ'
p49
S'I-NP'
p50
g5
tp51
a(S'mesothelioma'
p52
S'mesothelioma'
p53
S'NN'
p54
S'I-NP'
p55
g5
tp56
a(S'proposed'
p57
S'propose'
p58
S'VBN'
p59
S'B-VP'
p60
g5
tp61
a(S'by'
p62
S'by'
p63
S'IN'
p64
S'B-PP'
p65
g5
tp66
a(S'the'
p67
S'the'
p68
S'DT'
p69
S'B-NP'
p70
g5
tp71
a(S'British'
p72
S'British'
p73
S'NNP'
p74
S'I-NP'
p75
g5
tp76
a(S'Thoracic'
p77
S'Thoracic'
p78
S'NNP'
p79
S'I-NP'
p80
g5
tp81
a(S'Society'
p82
S'Society'
p83
S'NNP'
p84
S'I-NP'
p85
g5
tp86
a(S'and'
p87
S'and'
p88
S'CC'
p89
g5
g5
tp90
a(S'the'
p91
S'the'
p92
S'DT'
p93
S'B-NP'
p94
g5
tp95
a(S'British'
p96
S'British'
p97
S'NNP'
p98
S'I-NP'
p99
g5
tp100
a(S'Medical'
p101
S'Medical'
p102
S'NNP'
p103
S'I-NP'
p104
g5
tp105
a(S'Research'
p106
S'Research'
p107
S'NNP'
p108
S'I-NP'
p109
g5
tp110
a(S'Council'
p111
S'Council'
p112
S'NNP'
p113
S'I-NP'
p114
g5
tp115
a(S'.'
p116
g116
g116
g5
g5
tp117
a(S'Malignant'
p118
S'Malignant'
p119
S'JJ'
p120
S'B-NP'
p121
g5
tp122
a(S'mesothelioma'
p123
S'mesothelioma'
p124
S'NN'
p125
S'I-NP'
p126
g5
tp127
a(S'is'
p128
S'be'
p129
S'VBZ'
p130
S'B-VP'
p131
g5
tp132
a(S'almost'
p133
S'almost'
p134
S'RB'
p135
S'I-VP'
p136
g5
tp137
a(S'invariably'
p138
S'invariably'
p139
S'RB'
p140
S'I-VP'
p141
g5
tp142
a(S'fatal.'
p143
S'fatal.'
p144
S'VB'
p145
S'I-VP'
p146
g5
tp147
a(S'The'
p148
S'The'
p149
S'DT'
p150
S'B-NP'
p151
g5
tp152
a(S'incidence'
p153
S'incidence'
p154
S'NN'
p155
S'I-NP'
p156
g5
tp157
a(S'of'
p158
S'of'
p159
S'IN'
p160
S'B-PP'
p161
g5
tp162
a(S'the'
p163
S'the'
p164
S'DT'
p165
S'B-NP'
p166
g5
tp167
a(S'disease'
p168
S'disease'
p169
S'NN'
p170
S'I-NP'
p171
g5
tp172
a(S'is'
p173
S'be'
p174
S'VBZ'
p175
S'B-VP'
p176
g5
tp177
a(S'rising'
p178
S'rise'
p179
S'VBG'
p180
S'I-VP'
p181
g5
tp182
a(S'rapidly'
p183
S'rapidly'
p184
S'RB'
p185
S'B-ADVP'
p186
g5
tp187
a(S'in'
p188
S'in'
p189
S'IN'
p190
S'B-PP'
p191
g5
tp192
a(S'many'
p193
S'many'
p194
S'JJ'
p195
S'B-NP'
p196
g5
tp197
a(S'countries'
p198
S'country'
p199
S'NNS'
p200
S'I-NP'
p201
g5
tp202
a(S','
p203
g203
g203
g5
g5
tp204
a(S'and'
p205
S'and'
p206
S'CC'
p207
g5
g5
tp208
a(S'there'
p209
S'there'
p210
S'EX'
p211
S'B-NP'
p212
g5
tp213
a(S'is'
p214
S'be'
p215
S'VBZ'
p216
S'B-VP'
p217
g5
tp218
a(S'no'
p219
S'no'
p220
S'DT'
p221
S'B-NP'
p222
g5
tp223
a(S'generally'
p224
S'generally'
p225
S'RB'
p226
S'I-NP'
p227
g5
tp228
a(S'accepted'
p229
S'accept'
p230
S'VBN'
p231
S'I-NP'
p232
g5
tp233
a(S'standard'
p234
S'standard'
p235
S'JJ'
p236
S'I-NP'
p237
g5
tp238
a(S'treatment'
p239
S'treatment'
p240
S'NN'
p241
S'I-NP'
p242
g5
tp243
a(S'for'
p244
S'for'
p245
S'IN'
p246
S'B-PP'
p247
g5
tp248
a(S'patients'
p249
S'patient'
p250
S'NNS'
p251
S'B-NP'
p252
g5
tp253
a(S'with'
p254
S'with'
p255
S'IN'
p256
S'B-PP'
p257
g5
tp258
a(S'unresectable'
p259
S'unresectable'
p260
S'JJ'
p261
S'B-NP'
p262
g5
tp263
a(S'disease.'
p264
S'disease.'
p265
S'NN'
p266
S'I-NP'
p267
g5
tp268
a(S'According'
p269
S'Accord'
p270
S'VBG'
p271
S'B-VP'
p272
g5
tp273
a(S'to'
p274
S'to'
p275
S'TO'
p276
S'B-PP'
p277
g5
tp278
a(S'current'
p279
S'current'
p280
S'JJ'
p281
S'B-NP'
p282
g5
tp283
a(S'British'
p284
S'British'
p285
S'JJ'
p286
S'I-NP'
p287
g5
tp288
a(S'Thoracic'
p289
S'Thoracic'
p290
S'NNP'
p291
S'I-NP'
p292
g5
tp293
a(S'Society'
p294
S'Society'
p295
S'NNP'
p296
S'I-NP'
p297
g5
tp298
a(S'('
p299
g299
g299
g5
g5
tp300
a(S'BTS'
p301
S'BTS'
p302
S'NNS'
p303
S'B-NP'
p304
g5
tp305
a(S')'
p306
g306
g306
g5
g5
tp307
a(S'guidelines'
p308
S'guideline'
p309
S'NNS'
p310
S'B-NP'
p311
g5
tp312
a(g203
g203
g203
g5
g5
tp313
a(S'patients'
p314
S'patient'
p315
S'NNS'
p316
S'B-NP'
p317
g5
tp318
a(S'should'
p319
S'should'
p320
S'MD'
p321
S'B-VP'
p322
g5
tp323
a(S'be'
p324
S'be'
p325
S'VB'
p326
S'I-VP'
p327
g5
tp328
a(S'treated'
p329
S'treat'
p330
S'VBN'
p331
S'I-VP'
p332
g5
tp333
a(S'with'
p334
S'with'
p335
S'IN'
p336
S'B-PP'
p337
g5
tp338
a(S'active'
p339
S'active'
p340
S'JJ'
p341
S'B-NP'
p342
g5
tp343
a(S'symptom'
p344
S'symptom'
p345
S'NN'
p346
S'I-NP'
p347
g5
tp348
a(S'control'
p349
S'control'
p350
S'NN'
p351
S'I-NP'
p352
g5
tp353
a(g299
g299
g299
g5
g5
tp354
a(S'ASC'
p355
S'ASC'
p356
S'NN'
p357
S'B-NP'
p358
g5
tp359
a(g306
g306
g306
g5
g5
tp360
a(g203
g203
g203
g5
g5
tp361
a(S'involving'
p362
S'involve'
p363
S'VBG'
p364
S'B-VP'
p365
g5
tp366
a(g299
g299
g299
S'B-LST'
p367
g5
tp368
a(S'1'
p369
g369
S'LS'
p370
S'I-LST'
p371
g5
tp372
a(g306
g306
g306
g5
g5
tp373
a(S'regular'
p374
S'regular'
p375
S'JJ'
p376
S'B-NP'
p377
g5
tp378
a(S'follow-up'
p379
S'follow-up'
p380
S'NN'
p381
S'I-NP'
p382
g5
tp383
a(S'in'
p384
S'in'
p385
S'IN'
p386
S'B-PP'
p387
g5
tp388
a(S'a'
p389
g389
S'DT'
p390
S'B-NP'
p391
g5
tp392
a(S'specialist'
p393
S'specialist'
p394
S'JJ'
p395
S'I-NP'
p396
g5
tp397
a(S'clinic'
p398
S'clinic'
p399
S'NN'
p400
S'I-NP'
p401
g5
tp402
a(S';'
p403
g403
S':'
p404
g5
g5
tp405
a(g299
g299
g299
S'B-LST'
p406
g5
tp407
a(S'2'
p408
g408
S'LS'
p409
S'I-LST'
p410
g5
tp411
a(g306
g306
g306
g5
g5
tp412
a(S'structured'
p413
S'structure'
p414
S'VBN'
p415
S'B-NP'
p416
g5
tp417
a(S'assessments'
p418
S'assessment'
p419
S'NNS'
p420
S'I-NP'
p421
g5
tp422
a(S'of'
p423
S'of'
p424
S'IN'
p425
S'B-PP'
p426
g5
tp427
a(S'physical'
p428
S'physical'
p429
S'JJ'
p430
S'B-NP'
p431
g5
tp432
a(g203
g203
g203
S'I-NP'
p433
g5
tp434
a(S'psychological'
p435
S'psychological'
p436
S'JJ'
p437
S'I-NP'
p438
g5
tp439
a(S'and'
p440
S'and'
p441
S'CC'
p442
S'I-NP'
p443
g5
tp444
a(S'social'
p445
S'social'
p446
S'JJ'
p447
S'I-NP'
p448
g5
tp449
a(S'problems'
p450
S'problem'
p451
S'NNS'
p452
S'I-NP'
p453
g5
tp454
a(S'with'
p455
S'with'
p456
S'IN'
p457
S'B-PP'
p458
g5
tp459
a(S'appropriate'
p460
S'appropriate'
p461
S'JJ'
p462
S'B-NP'
p463
g5
tp464
a(S'action'
p465
S'action'
p466
S'NN'
p467
S'I-NP'
p468
g5
tp469
a(g403
g403
g404
g5
g5
tp470
a(g299
g299
g299
S'B-LST'
p471
g5
tp472
a(S'3'
p473
g473
S'LS'
p474
S'I-LST'
p475
g5
tp476
a(g306
g306
g306
g5
g5
tp477
a(S'rapid'
p478
S'rapid'
p479
S'JJ'
p480
S'B-NP'
p481
g5
tp482
a(S'involvement'
p483
S'involvement'
p484
S'NN'
p485
S'I-NP'
p486
g5
tp487
a(S'of'
p488
S'of'
p489
S'IN'
p490
S'B-PP'
p491
g5
tp492
a(S'additional'
p493
S'additional'
p494
S'JJ'
p495
S'B-NP'
p496
g5
tp497
a(S'specialists'
p498
S'specialist'
p499
S'NNS'
p500
S'I-NP'
p501
g5
tp502
a(g403
g403
g404
g5
g5
tp503
a(S'and'
p504
S'and'
p505
S'CC'
p506
g5
g5
tp507
a(g299
g299
g299
g5
g5
tp508
a(S'4'
p509
g509
S'CD'
p510
S'B-NP'
p511
g5
tp512
a(g306
g306
g306
g5
g5
tp513
a(S'parallel'
p514
S'parallel'
p515
S'JJ'
p516
S'B-NP'
p517
g5
tp518
a(S'nursing'
p519
S'nursing'
p520
S'NN'
p521
S'I-NP'
p522
g5
tp523
a(S'support.'
p524
S'support.'
p525
S'NN'
p526
S'I-NP'
p527
g5
tp528
a(S'Although'
p529
S'Although'
p530
S'IN'
p531
S'B-SBAR'
p532
g5
tp533
a(S'many'
p534
S'many'
p535
S'JJ'
p536
S'B-NP'
p537
g5
tp538
a(S'nonrandomized'
p539
S'nonrandomized'
p540
S'JJ'
p541
S'I-NP'
p542
g5
tp543
a(S'studies'
p544
S'study'
p545
S'NNS'
p546
S'I-NP'
p547
g5
tp548
a(S'have'
p549
S'have'
p550
S'VBP'
p551
S'B-VP'
p552
g5
tp553
a(S'reported'
p554
S'report'
p555
S'VBN'
p556
S'I-VP'
p557
g5
tp558
a(S'tumor'
p559
S'tumor'
p560
S'NN'
p561
S'B-NP'
p562
g5
tp563
a(S'responses'
p564
S'response'
p565
S'NNS'
p566
S'I-NP'
p567
g5
tp568
a(S'to'
p569
S'to'
p570
S'TO'
p571
S'B-PP'
p572
g5
tp573
a(S'anticancer'
p574
S'anticancer'
p575
S'JJ'
p576
S'B-NP'
p577
g5
tp578
a(S'chemotherapy'
p579
S'chemotherapy'
p580
S'NN'
p581
S'I-NP'
p582
g5
tp583
a(g203
g203
g203
g5
g5
tp584
a(S'few'
p585
S'few'
p586
S'JJ'
p587
S'B-NP'
p588
g5
tp589
a(S'have'
p590
S'have'
p591
S'VBP'
p592
S'B-VP'
p593
g5
tp594
a(S'studied'
p595
S'study'
p596
S'VBN'
p597
S'I-VP'
p598
g5
tp599
a(S'palliation'
p600
S'palliation'
p601
S'NN'
p602
S'B-NP'
p603
g5
tp604
a(S'and'
p605
S'and'
p606
S'CC'
p607
g5
g5
tp608
a(S'it'
p609
S'it'
p610
S'PRP'
p611
S'B-NP'
p612
g5
tp613
a(S'is'
p614
S'be'
p615
S'VBZ'
p616
S'B-VP'
p617
g5
tp618
a(S'not'
p619
S'not'
p620
S'RB'
p621
S'I-VP'
p622
g5
tp623
a(S'known'
p624
S'know'
p625
S'VBN'
p626
S'I-VP'
p627
g5
tp628
a(S'whether'
p629
S'whether'
p630
S'IN'
p631
S'B-SBAR'
p632
g5
tp633
a(S'chemotherapy'
p634
S'chemotherapy'
p635
S'NN'
p636
S'B-NP'
p637
g5
tp638
a(S'prolongs'
p639
S'prolong'
p640
S'NNS'
p641
S'I-NP'
p642
g5
tp643
a(S'survival'
p644
S'survival'
p645
S'NN'
p646
S'I-NP'
p647
g5
tp648
a(S'or'
p649
S'or'
p650
S'CC'
p651
g5
g5
tp652
a(S'provides'
p653
S'provide'
p654
S'VBZ'
p655
S'B-VP'
p656
g5
tp657
a(S'clinically'
p658
S'clinically'
p659
S'RB'
p660
S'B-NP'
p661
g5
tp662
a(S'worthwhile'
p663
S'worthwhile'
p664
S'JJ'
p665
S'I-NP'
p666
g5
tp667
a(S'palliation'
p668
S'palliation'
p669
S'NN'
p670
S'I-NP'
p671
g5
tp672
a(S'with'
p673
S'with'
p674
S'IN'
p675
S'B-PP'
p676
g5
tp677
a(S'acceptable'
p678
S'acceptable'
p679
S'JJ'
p680
S'B-NP'
p681
g5
tp682
a(S'toxicity'
p683
S'toxicity'
p684
S'NN'
p685
S'I-NP'
p686
g5
tp687
a(S'when'
p688
S'when'
p689
S'WRB'
p690
S'B-ADVP'
p691
g5
tp692
a(S'given'
p693
S'give'
p694
S'VBN'
p695
S'B-VP'
p696
g5
tp697
a(S'in'
p698
S'in'
p699
S'IN'
p700
S'B-PP'
p701
g5
tp702
a(S'addition'
p703
S'addition'
p704
S'NN'
p705
S'B-NP'
p706
g5
tp707
a(S'to'
p708
S'to'
p709
S'TO'
p710
S'B-VP'
p711
g5
tp712
a(S'ASC.'
p713
S'ASC.'
p714
S'VB'
p715
S'I-VP'
p716
g5
tp717
a(S'We'
p718
S'We'
p719
S'PRP'
p720
S'B-NP'
p721
g5
tp722
a(S'therefore'
p723
S'therefore'
p724
S'RB'
p725
S'B-ADVP'
p726
g5
tp727
a(S'plan'
p728
S'plan'
p729
S'VBP'
p730
S'B-VP'
p731
g5
tp732
a(S'to'
p733
S'to'
p734
S'TO'
p735
S'I-VP'
p736
g5
tp737
a(S'conduct'
p738
S'conduct'
p739
S'VB'
p740
S'I-VP'
p741
g5
tp742
a(g389
g389
S'DT'
p743
S'B-NP'
p744
g5
tp745
a(S'multicenter'
p746
S'multicenter'
p747
S'JJ'
p748
S'I-NP'
p749
g5
tp750
a(S'randomized'
p751
S'randomize'
p752
S'VBN'
p753
S'I-NP'
p754
g5
tp755
a(S'controlled'
p756
S'control'
p757
S'VBN'
p758
S'I-NP'
p759
g5
tp760
a(S'trial'
p761
S'trial'
p762
S'NN'
p763
S'I-NP'
p764
g5
tp765
a(S'comparing'
p766
S'compare'
p767
S'VBG'
p768
S'B-VP'
p769
g5
tp770
a(g299
g299
g299
g5
g5
tp771
a(g369
g369
S'CD'
p772
S'B-NP'
p773
g5
tp774
a(g306
g306
g306
g5
g5
tp775
a(S'ASC'
p776
S'ASC'
p777
S'NNP'
p778
S'B-NP'
p779
g5
tp780
a(S'alone'
p781
S'alone'
p782
S'RB'
p783
S'B-ADVP'
p784
g5
tp785
a(g203
g203
g203
g5
g5
tp786
a(g299
g299
g299
S'B-LST'
p787
g5
tp788
a(g408
g408
S'LS'
p789
S'I-LST'
p790
g5
tp791
a(g306
g306
g306
g5
g5
tp792
a(S'ASC'
p793
S'ASC'
p794
S'NN'
p795
S'B-NP'
p796
g5
tp797
a(S'plus'
p798
S'plus'
p799
S'CC'
p800
g5
g5
tp801
a(S'mitomycin'
p802
S'mitomycin'
p803
S'NN'
p804
S'B-NP'
p805
g5
tp806
a(S'vinblastine'
p807
S'vinblastine'
p808
S'NN'
p809
S'I-NP'
p810
g5
tp811
a(S'and'
p812
S'and'
p813
S'CC'
p814
g5
g5
tp815
a(S'cisplatin'
p816
S'cisplatin'
p817
S'NN'
p818
S'B-NP'
p819
g5
tp820
a(g299
g299
g299
g5
g5
tp821
a(S'MVP'
p822
S'MVP'
p823
S'NN'
p824
S'B-NP'
p825
S'B-protein'
p826
tp827
a(g306
g306
g306
g5
g5
tp828
a(g203
g203
g203
g5
g5
tp829
a(S'and'
p830
S'and'
p831
S'CC'
p832
g5
g5
tp833
a(g299
g299
g299
g5
g5
tp834
a(g473
g473
S'CD'
p835
g5
g5
tp836
a(g306
g306
g306
g5
g5
tp837
a(S'ASC'
p838
S'ASC'
p839
S'NN'
p840
S'B-NP'
p841
g5
tp842
a(S'plus'
p843
S'plus'
p844
S'CC'
p845
g5
g5
tp846
a(S'vinorelbine'
p847
S'vinorelbine'
p848
S'NN'
p849
S'B-NP'
p850
g5
tp851
a(g299
g299
g299
g5
g5
tp852
a(S'N'
p853
g853
S'NN'
p854
S'B-NP'
p855
g5
tp856
a(g403
g403
g404
g5
g5
tp857
a(S'Navelbine'
p858
S'Navelbine'
p859
S'NNP'
p860
S'B-NP'
p861
g5
tp862
a(g203
g203
g203
g5
g5
tp863
a(S'Pierre'
p864
S'Pierre'
p865
S'NNP'
p866
S'B-NP'
p867
g5
tp868
a(S'Fabre'
p869
S'Fabre'
p870
S'NNP'
p871
S'I-NP'
p872
g5
tp873
a(S'Oncology'
p874
S'Oncology'
p875
S'NNP'
p876
S'I-NP'
p877
g5
tp878
a(g203
g203
g203
g5
g5
tp879
a(S'Winchester'
p880
S'Winchester'
p881
S'NNP'
p882
S'B-NP'
p883
g5
tp884
a(g203
g203
g203
g5
g5
tp885
a(S'UK'
p886
S'UK'
p887
S'NNP'
p888
S'B-NP'
p889
g5
tp890
a(g306
g306
g306
g5
g5
tp891
a(g116
g116
g116
g5
g5
tp892
a(S'We'
p893
S'We'
p894
S'PRP'
p895
S'B-NP'
p896
g5
tp897
a(S'chose'
p898
S'choose'
p899
S'VBD'
p900
S'B-VP'
p901
g5
tp902
a(S'these'
p903
S'these'
p904
S'DT'
p905
S'B-NP'
p906
g5
tp907
a(S'chemotherapy'
p908
S'chemotherapy'
p909
S'NN'
p910
S'I-NP'
p911
g5
tp912
a(S'regimens'
p913
S'regimen'
p914
S'NNS'
p915
S'I-NP'
p916
g5
tp917
a(S'because'
p918
S'because'
p919
S'IN'
p920
S'B-SBAR'
p921
g5
tp922
a(S'they'
p923
S'they'
p924
S'PRP'
p925
S'B-NP'
p926
g5
tp927
a(S'have'
p928
S'have'
p929
S'VBP'
p930
S'B-VP'
p931
g5
tp932
a(S'been'
p933
S'be'
p934
S'VBN'
p935
S'I-VP'
p936
g5
tp937
a(S'shown'
p938
S'show'
p939
S'VBN'
p940
S'I-VP'
p941
g5
tp942
a(S'in'
p943
S'in'
p944
S'IN'
p945
S'B-PP'
p946
g5
tp947
a(S'nonrandomized'
p948
S'nonrandomized'
p949
S'JJ'
p950
S'B-NP'
p951
g5
tp952
a(S'studies'
p953
S'study'
p954
S'NNS'
p955
S'I-NP'
p956
g5
tp957
a(S'to'
p958
S'to'
p959
S'TO'
p960
S'B-VP'
p961
g5
tp962
a(S'provide'
p963
S'provide'
p964
S'VB'
p965
S'I-VP'
p966
g5
tp967
a(S'good'
p968
S'good'
p969
S'JJ'
p970
S'B-NP'
p971
g5
tp972
a(S'symptom'
p973
S'symptom'
p974
S'NN'
p975
S'I-NP'
p976
g5
tp977
a(S'control'
p978
S'control'
p979
S'NN'
p980
S'I-NP'
p981
g5
tp982
a(S'as'
p983
S'as'
p984
S'IN'
p985
S'B-SBAR'
p986
g5
tp987
a(S'recorded'
p988
S'record'
p989
S'VBN'
p990
S'B-VP'
p991
g5
tp992
a(S'by'
p993
S'by'
p994
S'IN'
p995
S'B-PP'
p996
g5
tp997
a(S'patients.'
p998
S'patients.'
p999
S'NNS'
p1000
S'B-NP'
p1001
g5
tp1002
a(S'The'
p1003
S'The'
p1004
S'DT'
p1005
S'B-NP'
p1006
g5
tp1007
a(S'outcome'
p1008
S'outcome'
p1009
S'NN'
p1010
S'I-NP'
p1011
g5
tp1012
a(S'measures'
p1013
S'measure'
p1014
S'NNS'
p1015
S'I-NP'
p1016
g5
tp1017
a(S'are'
p1018
S'be'
p1019
S'VBP'
p1020
S'B-VP'
p1021
g5
tp1022
a(S'overall'
p1023
S'overall'
p1024
S'JJ'
p1025
S'B-NP'
p1026
g5
tp1027
a(S'survival'
p1028
S'survival'
p1029
S'NN'
p1030
S'I-NP'
p1031
g5
tp1032
a(g203
g203
g203
g5
g5
tp1033
a(S'palliation'
p1034
S'palliation'
p1035
S'NN'
p1036
S'B-NP'
p1037
g5
tp1038
a(S'of'
p1039
S'of'
p1040
S'IN'
p1041
S'B-PP'
p1042
g5
tp1043
a(S'symptoms'
p1044
S'symptom'
p1045
S'NNS'
p1046
S'B-NP'
p1047
g5
tp1048
a(g203
g203
g203
g5
g5
tp1049
a(S'performance'
p1050
S'performance'
p1051
S'NN'
p1052
S'B-NP'
p1053
g5
tp1054
a(S'status'
p1055
S'status'
p1056
S'NN'
p1057
S'I-NP'
p1058
g5
tp1059
a(g203
g203
g203
g5
g5
tp1060
a(S'analgesic'
p1061
S'analgesic'
p1062
S'JJ'
p1063
S'B-NP'
p1064
g5
tp1065
a(S'usage'
p1066
S'usage'
p1067
S'NN'
p1068
S'I-NP'
p1069
g5
tp1070
a(g203
g203
g203
g5
g5
tp1071
a(S'toxicity'
p1072
S'toxicity'
p1073
S'NN'
p1074
S'B-NP'
p1075
g5
tp1076
a(g203
g203
g203
g5
g5
tp1077
a(S'quality'
p1078
S'quality'
p1079
S'NN'
p1080
S'B-NP'
p1081
g5
tp1082
a(S'of'
p1083
S'of'
p1084
S'IN'
p1085
S'B-PP'
p1086
g5
tp1087
a(S'life'
p1088
S'life'
p1089
S'NN'
p1090
S'B-NP'
p1091
g5
tp1092
a(g203
g203
g203
g5
g5
tp1093
a(S'tumor'
p1094
S'tumor'
p1095
S'NN'
p1096
S'B-NP'
p1097
g5
tp1098
a(S'response'
p1099
S'response'
p1100
S'NN'
p1101
S'I-NP'
p1102
g5
tp1103
a(g203
g203
g203
g5
g5
tp1104
a(S'and'
p1105
S'and'
p1106
S'CC'
p1107
g5
g5
tp1108
a(S'recurrence/progression-free'
p1109
S'recurrence/progression-free'
p1110
S'JJ'
p1111
S'B-NP'
p1112
g5
tp1113
a(S'survival.'
p1114
S'survival.'
p1115
S'NN'
p1116
S'I-NP'
p1117
g5
tp1118
a(S'In'
p1119
S'In'
p1120
S'IN'
p1121
S'B-PP'
p1122
g5
tp1123
a(g389
g389
S'DT'
p1124
S'B-NP'
p1125
g5
tp1126
a(S'preliminary'
p1127
S'preliminary'
p1128
S'JJ'
p1129
S'I-NP'
p1130
g5
tp1131
a(S'feasibility'
p1132
S'feasibility'
p1133
S'NN'
p1134
S'I-NP'
p1135
g5
tp1136
a(S'study'
p1137
S'study'
p1138
S'NN'
p1139
S'I-NP'
p1140
g5
tp1141
a(g203
g203
g203
g5
g5
tp1142
a(S'we'
p1143
S'we'
p1144
S'PRP'
p1145
S'B-NP'
p1146
g5
tp1147
a(S'are'
p1148
S'be'
p1149
S'VBP'
p1150
S'B-VP'
p1151
g5
tp1152
a(S'assessing'
p1153
S'assess'
p1154
S'VBG'
p1155
S'I-VP'
p1156
g5
tp1157
a(S'the'
p1158
S'the'
p1159
S'DT'
p1160
S'B-NP'
p1161
g5
tp1162
a(S'acceptability'
p1163
S'acceptability'
p1164
S'NN'
p1165
S'I-NP'
p1166
g5
tp1167
a(S'of'
p1168
S'of'
p1169
S'IN'
p1170
S'B-PP'
p1171
g5
tp1172
a(S'the'
p1173
S'the'
p1174
S'DT'
p1175
S'B-NP'
p1176
g5
tp1177
a(S'trial'
p1178
S'trial'
p1179
S'NN'
p1180
S'I-NP'
p1181
g5
tp1182
a(S'design'
p1183
S'design'
p1184
S'NN'
p1185
S'I-NP'
p1186
g5
tp1187
a(S'to'
p1188
S'to'
p1189
S'TO'
p1190
S'B-PP'
p1191
g5
tp1192
a(S'patients'
p1193
S'patient'
p1194
S'NNS'
p1195
S'B-NP'
p1196
g5
tp1197
a(S'and'
p1198
S'and'
p1199
S'CC'
p1200
g5
g5
tp1201
a(S'the'
p1202
S'the'
p1203
S'DT'
p1204
S'B-NP'
p1205
g5
tp1206
a(S'suitability'
p1207
S'suitability'
p1208
S'NN'
p1209
S'I-NP'
p1210
g5
tp1211
a(S'of'
p1212
S'of'
p1213
S'IN'
p1214
S'B-PP'
p1215
g5
tp1216
a(S'two'
p1217
S'two'
p1218
S'CD'
p1219
S'B-NP'
p1220
g5
tp1221
a(S'standard'
p1222
S'standard'
p1223
S'JJ'
p1224
S'I-NP'
p1225
g5
tp1226
a(S'quality-of-life'
p1227
S'quality-of-life'
p1228
S'NN'
p1229
S'I-NP'
p1230
g5
tp1231
a(S'instruments'
p1232
S'instrument'
p1233
S'NNS'
p1234
S'I-NP'
p1235
g5
tp1236
a(S'in'
p1237
S'in'
p1238
S'IN'
p1239
S'B-PP'
p1240
g5
tp1241
a(S'mesothelioma.'
p1242
S'mesothelioma.'
p1243
S'NN'
p1244
S'B-NP'
p1245
g5
tp1246
a(S'Data'
p1247
S'Data'
p1248
S'NNP'
p1249
S'I-NP'
p1250
g5
tp1251
a(S'will'
p1252
S'will'
p1253
S'MD'
p1254
S'B-VP'
p1255
g5
tp1256
a(S'help'
p1257
S'help'
p1258
S'VB'
p1259
S'I-VP'
p1260
g5
tp1261
a(S'us'
p1262
S'us'
p1263
S'PRP'
p1264
S'B-NP'
p1265
g5
tp1266
a(S'to'
p1267
S'to'
p1268
S'TO'
p1269
S'B-VP'
p1270
g5
tp1271
a(S'decide'
p1272
S'decide'
p1273
S'VB'
p1274
S'I-VP'
p1275
g5
tp1276
a(S'the'
p1277
S'the'
p1278
S'DT'
p1279
S'B-NP'
p1280
g5
tp1281
a(S'final'
p1282
S'final'
p1283
S'JJ'
p1284
S'I-NP'
p1285
g5
tp1286
a(S'details'
p1287
S'detail'
p1288
S'NNS'
p1289
S'I-NP'
p1290
g5
tp1291
a(S'of'
p1292
S'of'
p1293
S'IN'
p1294
S'B-PP'
p1295
g5
tp1296
a(S'the'
p1297
S'the'
p1298
S'DT'
p1299
S'B-NP'
p1300
g5
tp1301
a(S'large'
p1302
S'large'
p1303
S'JJ'
p1304
S'I-NP'
p1305
g5
tp1306
a(S'multicenter'
p1307
S'multicenter'
p1308
S'JJ'
p1309
S'I-NP'
p1310
g5
tp1311
a(S'trial'
p1312
S'trial'
p1313
S'NN'
p1314
S'I-NP'
p1315
g5
tp1316
a(g116
g116
g116
g5
g5
tp1317
a.