(lp0
(S'Veterans'
p1
S'Veterans'
p2
S'NNP'
p3
S'B-NP'
p4
S'O'
p5
tp6
a(S'Affairs'
p7
S'Affairs'
p8
S'NNP'
p9
S'I-NP'
p10
g5
tp11
a(S'congestive'
p12
S'congestive'
p13
S'JJ'
p14
S'I-NP'
p15
g5
tp16
a(S'heart'
p17
S'heart'
p18
S'NN'
p19
S'I-NP'
p20
g5
tp21
a(S'failure'
p22
S'failure'
p23
S'NN'
p24
S'I-NP'
p25
g5
tp26
a(S'antiarrhythmic'
p27
S'antiarrhythmic'
p28
S'JJ'
p29
S'I-NP'
p30
g5
tp31
a(S'trial.'
p32
S'trial.'
p33
S'NN'
p34
S'I-NP'
p35
g5
tp36
a(S'CHF'
p37
S'CHF'
p38
S'NN'
p39
S'I-NP'
p40
g5
tp41
a(S'STAT'
p42
S'STAT'
p43
S'NN'
p44
S'I-NP'
p45
g5
tp46
a(S'Investigators'
p47
S'Investigator'
p48
S'NNS'
p49
S'I-NP'
p50
g5
tp51
a(S'.'
p52
g52
g52
g5
g5
tp53
a(S'This'
p54
S'This'
p55
S'DT'
p56
S'B-NP'
p57
g5
tp58
a(S'is'
p59
S'be'
p60
S'VBZ'
p61
S'B-VP'
p62
g5
tp63
a(S'a'
p64
g64
S'DT'
p65
S'B-NP'
p66
g5
tp67
a(S'prospective'
p68
S'prospective'
p69
S'JJ'
p70
S'I-NP'
p71
g5
tp72
a(S','
p73
g73
g73
S'I-NP'
p74
g5
tp75
a(S'double-blind'
p76
S'double-blind'
p77
S'JJ'
p78
S'I-NP'
p79
g5
tp80
a(g73
g73
g73
S'I-NP'
p81
g5
tp82
a(S'placebo-controlled'
p83
S'placebo-controlled'
p84
S'JJ'
p85
S'I-NP'
p86
g5
tp87
a(S'trial'
p88
S'trial'
p89
S'NN'
p90
S'I-NP'
p91
g5
tp92
a(S'to'
p93
S'to'
p94
S'TO'
p95
S'B-VP'
p96
g5
tp97
a(S'determine'
p98
S'determine'
p99
S'VB'
p100
S'I-VP'
p101
g5
tp102
a(S'the'
p103
S'the'
p104
S'DT'
p105
S'B-NP'
p106
g5
tp107
a(S'effect'
p108
S'effect'
p109
S'NN'
p110
S'I-NP'
p111
g5
tp112
a(S'of'
p113
S'of'
p114
S'IN'
p115
S'B-PP'
p116
g5
tp117
a(S'antiarrhythmic'
p118
S'antiarrhythmic'
p119
S'JJ'
p120
S'B-NP'
p121
g5
tp122
a(S'drug'
p123
S'drug'
p124
S'NN'
p125
S'I-NP'
p126
g5
tp127
a(S'therapy'
p128
S'therapy'
p129
S'NN'
p130
S'I-NP'
p131
g5
tp132
a(S'on'
p133
S'on'
p134
S'IN'
p135
S'B-PP'
p136
g5
tp137
a(S'mortality'
p138
S'mortality'
p139
S'NN'
p140
S'B-NP'
p141
g5
tp142
a(S'in'
p143
S'in'
p144
S'IN'
p145
S'B-PP'
p146
g5
tp147
a(S'patients'
p148
S'patient'
p149
S'NNS'
p150
S'B-NP'
p151
g5
tp152
a(S'with'
p153
S'with'
p154
S'IN'
p155
S'B-PP'
p156
g5
tp157
a(S'congestive'
p158
S'congestive'
p159
S'JJ'
p160
S'B-NP'
p161
g5
tp162
a(S'heart'
p163
S'heart'
p164
S'NN'
p165
S'I-NP'
p166
g5
tp167
a(S'failure'
p168
S'failure'
p169
S'NN'
p170
S'I-NP'
p171
g5
tp172
a(S'and'
p173
S'and'
p174
S'CC'
p175
g5
g5
tp176
a(S'ventricular'
p177
S'ventricular'
p178
S'JJ'
p179
S'B-NP'
p180
g5
tp181
a(S'arrhythmia.'
p182
S'arrhythmia.'
p183
S'NN'
p184
S'I-NP'
p185
g5
tp186
a(S'Patients'
p187
S'Patient'
p188
S'NNS'
p189
S'I-NP'
p190
g5
tp191
a(S'will'
p192
S'will'
p193
S'MD'
p194
S'B-VP'
p195
g5
tp196
a(S'be'
p197
S'be'
p198
S'VB'
p199
S'I-VP'
p200
g5
tp201
a(S'assigned'
p202
S'assign'
p203
S'VBN'
p204
S'I-VP'
p205
g5
tp206
a(S'to'
p207
S'to'
p208
S'TO'
p209
S'I-VP'
p210
g5
tp211
a(S'receive'
p212
S'receive'
p213
S'VB'
p214
S'I-VP'
p215
g5
tp216
a(S'either'
p217
S'either'
p218
S'CC'
p219
g5
g5
tp220
a(S'amiodarone'
p221
S'amiodarone'
p222
S'NN'
p223
S'B-NP'
p224
g5
tp225
a(S'or'
p226
S'or'
p227
S'CC'
p228
g5
g5
tp229
a(S'placebo.'
p230
S'placebo.'
p231
S'NN'
p232
S'B-VP'
p233
g5
tp234
a(S'Eligible'
p235
S'Eligible'
p236
S'JJ'
p237
S'B-NP'
p238
g5
tp239
a(S'patients'
p240
S'patient'
p241
S'NNS'
p242
S'I-NP'
p243
g5
tp244
a(S'include'
p245
S'include'
p246
S'VBP'
p247
S'B-VP'
p248
g5
tp249
a(S'those'
p250
S'those'
p251
S'DT'
p252
S'B-NP'
p253
g5
tp254
a(S'with'
p255
S'with'
p256
S'IN'
p257
S'B-PP'
p258
g5
tp259
a(S'ischemic'
p260
S'ischemic'
p261
S'JJ'
p262
S'B-NP'
p263
g5
tp264
a(S'and'
p265
S'and'
p266
S'CC'
p267
S'I-NP'
p268
g5
tp269
a(S'nonischemic'
p270
S'nonischemic'
p271
S'JJ'
p272
S'I-NP'
p273
g5
tp274
a(S'congestive'
p275
S'congestive'
p276
S'JJ'
p277
S'I-NP'
p278
g5
tp279
a(S'heart'
p280
S'heart'
p281
S'NN'
p282
S'I-NP'
p283
g5
tp284
a(S'failure'
p285
S'failure'
p286
S'NN'
p287
S'I-NP'
p288
g5
tp289
a(S'and'
p290
S'and'
p291
S'CC'
p292
S'B-PP'
p293
g5
tp294
a(S'with'
p295
S'with'
p296
S'IN'
p297
S'B-PP'
p298
g5
tp299
a(S'>'
p300
g300
S'SYM'
p301
S'B-NP'
p302
g5
tp303
a(S'or'
p304
S'or'
p305
S'CC'
p306
g5
g5
tp307
a(S'='
p308
g308
S'SYM'
p309
S'B-NP'
p310
g5
tp311
a(S'10'
p312
S'10'
p313
S'CD'
p314
S'B-NP'
p315
g5
tp316
a(S'ventricular'
p317
S'ventricular'
p318
S'JJ'
p319
S'I-NP'
p320
g5
tp321
a(S'premature'
p322
S'premature'
p323
S'JJ'
p324
S'I-NP'
p325
g5
tp326
a(S'beats'
p327
S'beat'
p328
S'NNS'
p329
S'I-NP'
p330
g5
tp331
a(S'per'
p332
S'per'
p333
S'IN'
p334
S'B-PP'
p335
g5
tp336
a(S'hour.'
p337
S'hour.'
p338
S'NN'
p339
S'B-NP'
p340
g5
tp341
a(S'All'
p342
S'All'
p343
S'DT'
p344
S'B-NP'
p345
g5
tp346
a(S'patients'
p347
S'patient'
p348
S'NNS'
p349
S'I-NP'
p350
g5
tp351
a(S'must'
p352
S'must'
p353
S'MD'
p354
S'B-VP'
p355
g5
tp356
a(S'have'
p357
S'have'
p358
S'VB'
p359
S'I-VP'
p360
g5
tp361
a(S'shortness'
p362
S'shortness'
p363
S'NN'
p364
S'B-NP'
p365
g5
tp366
a(S'of'
p367
S'of'
p368
S'IN'
p369
S'B-PP'
p370
g5
tp371
a(S'breath'
p372
S'breath'
p373
S'NN'
p374
S'B-NP'
p375
g5
tp376
a(S'with'
p377
S'with'
p378
S'IN'
p379
S'B-PP'
p380
g5
tp381
a(S'minimal'
p382
S'minimal'
p383
S'JJ'
p384
S'B-NP'
p385
g5
tp386
a(S'exertion'
p387
S'exertion'
p388
S'NN'
p389
S'I-NP'
p390
g5
tp391
a(S'or'
p392
S'or'
p393
S'CC'
p394
g5
g5
tp395
a(S'paroxysmal'
p396
S'paroxysmal'
p397
S'JJ'
p398
S'B-NP'
p399
g5
tp400
a(S'nocturnal'
p401
S'nocturnal'
p402
S'JJ'
p403
S'I-NP'
p404
g5
tp405
a(S'dyspnea'
p406
S'dyspnea'
p407
S'NN'
p408
S'I-NP'
p409
g5
tp410
a(g73
g73
g73
g5
g5
tp411
a(g64
g64
S'DT'
p412
S'B-NP'
p413
g5
tp414
a(S'left'
p415
S'left'
p416
S'JJ'
p417
S'I-NP'
p418
g5
tp419
a(S'ventricular'
p420
S'ventricular'
p421
S'JJ'
p422
S'I-NP'
p423
g5
tp424
a(S'internal'
p425
S'internal'
p426
S'JJ'
p427
S'I-NP'
p428
g5
tp429
a(S'dimension'
p430
S'dimension'
p431
S'NN'
p432
S'I-NP'
p433
g5
tp434
a(S'('
p435
g435
g435
g5
g5
tp436
a(S'LVIDd'
p437
S'LVIDd'
p438
S'NN'
p439
S'B-NP'
p440
S'B-protein'
p441
tp442
a(S')'
p443
g443
g443
g5
g5
tp444
a(S'by'
p445
S'by'
p446
S'IN'
p447
S'B-PP'
p448
g5
tp449
a(S'echocardiogram'
p450
S'echocardiogram'
p451
S'NN'
p452
S'B-NP'
p453
g5
tp454
a(S'of'
p455
S'of'
p456
S'IN'
p457
S'B-PP'
p458
g5
tp459
a(g300
g300
S'SYM'
p460
S'B-NP'
p461
g5
tp462
a(S'or'
p463
S'or'
p464
S'CC'
p465
g5
g5
tp466
a(g308
g308
S'SYM'
p467
S'B-VP'
p468
g5
tp469
a(S'55'
p470
S'55'
p471
S'CD'
p472
S'B-NP'
p473
g5
tp474
a(S'mm'
p475
S'mm'
p476
S'NN'
p477
S'I-NP'
p478
g5
tp479
a(S'or'
p480
S'or'
p481
S'CC'
p482
g5
g5
tp483
a(g64
g64
S'DT'
p484
S'B-NP'
p485
g5
tp486
a(S'cardiothoracic'
p487
S'cardiothoracic'
p488
S'JJ'
p489
S'I-NP'
p490
g5
tp491
a(S'ratio'
p492
S'ratio'
p493
S'NN'
p494
S'I-NP'
p495
g5
tp496
a(S'of'
p497
S'of'
p498
S'IN'
p499
S'B-PP'
p500
g5
tp501
a(g300
g300
S'SYM'
p502
S'B-NP'
p503
g5
tp504
a(S'0.5'
p505
S'0.5'
p506
S'CD'
p507
S'I-NP'
p508
g5
tp509
a(S'and'
p510
S'and'
p511
S'CC'
p512
g5
g5
tp513
a(S'an'
p514
S'an'
p515
S'DT'
p516
S'B-NP'
p517
g5
tp518
a(S'ejection'
p519
S'ejection'
p520
S'NN'
p521
S'I-NP'
p522
g5
tp523
a(S'fraction'
p524
S'fraction'
p525
S'NN'
p526
S'I-NP'
p527
g5
tp528
a(S'of'
p529
S'of'
p530
S'IN'
p531
S'B-PP'
p532
g5
tp533
a(S'<'
p534
g534
S'SYM'
p535
S'B-NP'
p536
g5
tp537
a(S'or'
p538
S'or'
p539
S'CC'
p540
g5
g5
tp541
a(g308
g308
S'SYM'
p542
S'B-VP'
p543
g5
tp544
a(S'40'
p545
S'40'
p546
S'CD'
p547
S'B-NP'
p548
g5
tp549
a(S'%'
p550
g550
S'NN'
p551
S'I-NP'
p552
g5
tp553
a(g52
g52
g52
g5
g5
tp554
a(S'All'
p555
S'All'
p556
S'DT'
p557
S'B-NP'
p558
g5
tp559
a(S'patients'
p560
S'patient'
p561
S'NNS'
p562
S'I-NP'
p563
g5
tp564
a(S'will'
p565
S'will'
p566
S'MD'
p567
S'B-VP'
p568
g5
tp569
a(S'receive'
p570
S'receive'
p571
S'VB'
p572
S'I-VP'
p573
g5
tp574
a(S'vasodilator'
p575
S'vasodilator'
p576
S'NN'
p577
S'B-NP'
p578
g5
tp579
a(S'therapy'
p580
S'therapy'
p581
S'NN'
p582
S'I-NP'
p583
g5
tp584
a(g73
g73
g73
g5
g5
tp585
a(S'unless'
p586
S'unless'
p587
S'IN'
p588
S'B-SBAR'
p589
g5
tp590
a(S'they'
p591
S'they'
p592
S'PRP'
p593
S'B-NP'
p594
g5
tp595
a(S'find'
p596
S'find'
p597
S'VBP'
p598
S'B-VP'
p599
g5
tp600
a(S'it'
p601
S'it'
p602
S'PRP'
p603
S'B-NP'
p604
g5
tp605
a(S'intolerable.'
p606
S'intolerable.'
p607
S'IN'
p608
S'B-PP'
p609
g5
tp610
a(S'Patients'
p611
S'Patient'
p612
S'NNPS'
p613
S'B-NP'
p614
g5
tp615
a(S'will'
p616
S'will'
p617
S'MD'
p618
S'B-VP'
p619
g5
tp620
a(S'be'
p621
S'be'
p622
S'VB'
p623
S'I-VP'
p624
g5
tp625
a(S'entered'
p626
S'enter'
p627
S'VBN'
p628
S'I-VP'
p629
g5
tp630
a(S'into'
p631
S'into'
p632
S'IN'
p633
S'B-PP'
p634
g5
tp635
a(S'the'
p636
S'the'
p637
S'DT'
p638
S'B-NP'
p639
g5
tp640
a(S'study'
p641
S'study'
p642
S'NN'
p643
S'I-NP'
p644
g5
tp645
a(S'for'
p646
S'for'
p647
S'IN'
p648
S'B-PP'
p649
g5
tp650
a(S'2.5'
p651
S'2.5'
p652
S'CD'
p653
S'B-NP'
p654
g5
tp655
a(S'years'
p656
S'year'
p657
S'NNS'
p658
S'I-NP'
p659
g5
tp660
a(S'and'
p661
S'and'
p662
S'CC'
p663
g5
g5
tp664
a(S'followed'
p665
S'follow'
p666
S'VBN'
p667
S'B-VP'
p668
g5
tp669
a(S'for'
p670
S'for'
p671
S'IN'
p672
S'B-PP'
p673
g5
tp674
a(S'an'
p675
S'an'
p676
S'DT'
p677
S'B-NP'
p678
g5
tp679
a(S'additional'
p680
S'additional'
p681
S'JJ'
p682
S'I-NP'
p683
g5
tp684
a(S'2'
p685
g685
S'CD'
p686
S'I-NP'
p687
g5
tp688
a(S'years.'
p689
S'years.'
p690
S'NN'
p691
S'I-NP'
p692
g5
tp693
a(S'Drug'
p694
S'Drug'
p695
S'NN'
p696
S'I-NP'
p697
g5
tp698
a(S'therapy'
p699
S'therapy'
p700
S'NN'
p701
S'I-NP'
p702
g5
tp703
a(S'will'
p704
S'will'
p705
S'MD'
p706
S'B-VP'
p707
g5
tp708
a(S'be'
p709
S'be'
p710
S'VB'
p711
S'I-VP'
p712
g5
tp713
a(S'continued'
p714
S'continue'
p715
S'VBN'
p716
S'I-VP'
p717
g5
tp718
a(S'for'
p719
S'for'
p720
S'IN'
p721
S'B-PP'
p722
g5
tp723
a(S'all'
p724
S'all'
p725
S'DT'
p726
S'B-NP'
p727
g5
tp728
a(S'patients'
p729
S'patient'
p730
S'NNS'
p731
S'I-NP'
p732
g5
tp733
a(S'throughout'
p734
S'throughout'
p735
S'IN'
p736
S'B-PP'
p737
g5
tp738
a(S'the'
p739
S'the'
p740
S'DT'
p741
S'B-NP'
p742
g5
tp743
a(S'entire'
p744
S'entire'
p745
S'JJ'
p746
S'I-NP'
p747
g5
tp748
a(S'study'
p749
S'study'
p750
S'NN'
p751
S'I-NP'
p752
g5
tp753
a(S'unless'
p754
S'unless'
p755
S'IN'
p756
S'B-SBAR'
p757
g5
tp758
a(S'adverse'
p759
S'adverse'
p760
S'JJ'
p761
S'B-NP'
p762
g5
tp763
a(S'reactions'
p764
S'reaction'
p765
S'NNS'
p766
S'I-NP'
p767
g5
tp768
a(S'occur'
p769
S'occur'
p770
S'VBP'
p771
S'B-VP'
p772
g5
tp773
a(S'that'
p774
S'that'
p775
S'IN'
p776
S'B-SBAR'
p777
g5
tp778
a(S'necessitate'
p779
S'necessitate'
p780
S'NN'
p781
S'B-NP'
p782
g5
tp783
a(S'individualized'
p784
S'individualize'
p785
S'VBD'
p786
S'B-VP'
p787
g5
tp788
a(S'treatment.'
p789
S'treatment.'
p790
S'NN'
p791
S'B-NP'
p792
g5
tp793
a(S'The'
p794
S'The'
p795
S'DT'
p796
S'B-NP'
p797
g5
tp798
a(S'expectation'
p799
S'expectation'
p800
S'NN'
p801
S'I-NP'
p802
g5
tp803
a(S'is'
p804
S'be'
p805
S'VBZ'
p806
S'B-VP'
p807
g5
tp808
a(S'that'
p809
S'that'
p810
S'IN'
p811
S'B-SBAR'
p812
g5
tp813
a(S'674'
p814
S'674'
p815
S'CD'
p816
S'B-NP'
p817
g5
tp818
a(S'patients'
p819
S'patient'
p820
S'NNS'
p821
S'I-NP'
p822
g5
tp823
a(S'will'
p824
S'will'
p825
S'MD'
p826
S'B-VP'
p827
g5
tp828
a(S'be'
p829
S'be'
p830
S'VB'
p831
S'I-VP'
p832
g5
tp833
a(S'entered'
p834
S'enter'
p835
S'VBN'
p836
S'I-VP'
p837
g5
tp838
a(S'into'
p839
S'into'
p840
S'IN'
p841
S'B-PP'
p842
g5
tp843
a(S'the'
p844
S'the'
p845
S'DT'
p846
S'B-NP'
p847
g5
tp848
a(S'study'
p849
S'study'
p850
S'NN'
p851
S'I-NP'
p852
g5
tp853
a(S'from'
p854
S'from'
p855
S'IN'
p856
S'B-PP'
p857
g5
tp858
a(S'25'
p859
S'25'
p860
S'CD'
p861
S'B-NP'
p862
g5
tp863
a(S'participating'
p864
S'participate'
p865
S'VBG'
p866
S'I-NP'
p867
g5
tp868
a(S'centers.'
p869
S'centers.'
p870
S'NN'
p871
S'I-NP'
p872
g5
tp873
a(S'This'
p874
S'This'
p875
S'DT'
p876
S'B-NP'
p877
g5
tp878
a(S'sample'
p879
S'sample'
p880
S'NN'
p881
S'I-NP'
p882
g5
tp883
a(S'size'
p884
S'size'
p885
S'NN'
p886
S'I-NP'
p887
g5
tp888
a(S'will'
p889
S'will'
p890
S'MD'
p891
S'B-VP'
p892
g5
tp893
a(S'allow'
p894
S'allow'
p895
S'VB'
p896
S'I-VP'
p897
g5
tp898
a(S'for'
p899
S'for'
p900
S'IN'
p901
S'B-PP'
p902
g5
tp903
a(S'the'
p904
S'the'
p905
S'DT'
p906
S'B-NP'
p907
g5
tp908
a(S'detection'
p909
S'detection'
p910
S'NN'
p911
S'I-NP'
p912
g5
tp913
a(S'of'
p914
S'of'
p915
S'IN'
p916
S'B-PP'
p917
g5
tp918
a(g64
g64
S'DT'
p919
S'B-NP'
p920
g5
tp921
a(S'33'
p922
S'33'
p923
S'CD'
p924
S'I-NP'
p925
g5
tp926
a(g550
g550
S'NN'
p927
S'I-NP'
p928
g5
tp929
a(S'decrease'
p930
S'decrease'
p931
S'NN'
p932
S'I-NP'
p933
g5
tp934
a(S'in'
p935
S'in'
p936
S'IN'
p937
S'B-PP'
p938
g5
tp939
a(S'2-year'
p940
S'2-year'
p941
S'JJ'
p942
S'B-NP'
p943
g5
tp944
a(S'mortality'
p945
S'mortality'
p946
S'NN'
p947
S'I-NP'
p948
g5
tp949
a(g435
g435
g435
g5
g5
tp950
a(S'20'
p951
S'20'
p952
S'CD'
p953
S'B-NP'
p954
g5
tp955
a(g550
g550
S'NN'
p956
S'I-NP'
p957
g5
tp958
a(S'vs'
p959
S'vs'
p960
S'IN'
p961
S'B-ADVP'
p962
g5
tp963
a(S'30'
p964
S'30'
p965
S'CD'
p966
S'B-NP'
p967
g5
tp968
a(g550
g550
S'NN'
p969
S'I-NP'
p970
g5
tp971
a(g443
g443
g443
g5
g5
tp972
a(S'in'
p973
S'in'
p974
S'IN'
p975
S'B-PP'
p976
g5
tp977
a(S'the'
p978
S'the'
p979
S'DT'
p980
S'B-NP'
p981
g5
tp982
a(S'treated'
p983
S'treat'
p984
S'VBN'
p985
S'I-NP'
p986
g5
tp987
a(S'patients'
p988
S'patient'
p989
S'NNS'
p990
S'I-NP'
p991
g5
tp992
a(S'compared'
p993
S'compare'
p994
S'VBN'
p995
S'B-PP'
p996
g5
tp997
a(S'with'
p998
S'with'
p999
S'IN'
p1000
S'B-PP'
p1001
g5
tp1002
a(S'those'
p1003
S'those'
p1004
S'DT'
p1005
S'B-NP'
p1006
g5
tp1007
a(S'in'
p1008
S'in'
p1009
S'IN'
p1010
S'B-PP'
p1011
g5
tp1012
a(S'the'
p1013
S'the'
p1014
S'DT'
p1015
S'B-NP'
p1016
g5
tp1017
a(S'placebo'
p1018
S'placebo'
p1019
S'NN'
p1020
S'I-NP'
p1021
g5
tp1022
a(S'group'
p1023
S'group'
p1024
S'NN'
p1025
S'I-NP'
p1026
g5
tp1027
a(g73
g73
g73
g5
g5
tp1028
a(S'with'
p1029
S'with'
p1030
S'IN'
p1031
S'B-PP'
p1032
g5
tp1033
a(g64
g64
S'DT'
p1034
S'B-NP'
p1035
g5
tp1036
a(S'power'
p1037
S'power'
p1038
S'NN'
p1039
S'I-NP'
p1040
g5
tp1041
a(S'of'
p1042
S'of'
p1043
S'IN'
p1044
S'B-PP'
p1045
g5
tp1046
a(S'0.90'
p1047
S'0.90'
p1048
S'CD'
p1049
S'B-NP'
p1050
g5
tp1051
a(S'and'
p1052
S'and'
p1053
S'CC'
p1054
g5
g5
tp1055
a(g64
g64
S'DT'
p1056
S'B-NP'
p1057
g5
tp1058
a(S'2-sided'
p1059
S'2-sided'
p1060
S'JJ'
p1061
S'I-NP'
p1062
g5
tp1063
a(S'alpha'
p1064
S'alpha'
p1065
S'NN'
p1066
S'I-NP'
p1067
g5
tp1068
a(S'level'
p1069
S'level'
p1070
S'NN'
p1071
S'I-NP'
p1072
g5
tp1073
a(S'of'
p1074
S'of'
p1075
S'IN'
p1076
S'B-PP'
p1077
g5
tp1078
a(S'0.05.'
p1079
S'0.05.'
p1080
S'CD'
p1081
S'B-NP'
p1082
g5
tp1083
a(S'Intermittent'
p1084
S'Intermittent'
p1085
S'NNP'
p1086
S'I-NP'
p1087
g5
tp1088
a(S'Holter'
p1089
S'Holter'
p1090
S'NNP'
p1091
S'I-NP'
p1092
g5
tp1093
a(S'monitoring'
p1094
S'monitoring'
p1095
S'NN'
p1096
S'I-NP'
p1097
g5
tp1098
a(g73
g73
g73
g5
g5
tp1099
a(S'radionuclide'
p1100
S'radionuclide'
p1101
S'NN'
p1102
S'B-NP'
p1103
g5
tp1104
a(S'ventriculograms'
p1105
S'ventriculogram'
p1106
S'NNS'
p1107
S'I-NP'
p1108
g5
tp1109
a(g73
g73
g73
g5
g5
tp1110
a(S'pulmonary'
p1111
S'pulmonary'
p1112
S'JJ'
p1113
S'B-NP'
p1114
g5
tp1115
a(S'function'
p1116
S'function'
p1117
S'NN'
p1118
S'I-NP'
p1119
g5
tp1120
a(S'tests'
p1121
S'test'
p1122
S'NNS'
p1123
S'I-NP'
p1124
g5
tp1125
a(g73
g73
g73
g5
g5
tp1126
a(S'echocardiograms'
p1127
S'echocardiogram'
p1128
S'NNS'
p1129
S'B-NP'
p1130
g5
tp1131
a(g73
g73
g73
g5
g5
tp1132
a(S'and'
p1133
S'and'
p1134
S'CC'
p1135
g5
g5
tp1136
a(S'blood'
p1137
S'blood'
p1138
S'NN'
p1139
S'B-NP'
p1140
g5
tp1141
a(S'tests'
p1142
S'test'
p1143
S'NNS'
p1144
S'I-NP'
p1145
g5
tp1146
a(g73
g73
g73
g5
g5
tp1147
a(S'including'
p1148
S'include'
p1149
S'VBG'
p1150
S'B-PP'
p1151
g5
tp1152
a(S'arterial'
p1153
S'arterial'
p1154
S'JJ'
p1155
S'B-NP'
p1156
S'B-protein'
p1157
tp1158
a(S'blood'
p1159
S'blood'
p1160
S'NN'
p1161
S'I-NP'
p1162
S'I-protein'
p1163
tp1164
a(S'gases'
p1165
S'gas'
p1166
S'NNS'
p1167
S'I-NP'
p1168
S'I-protein'
p1169
tp1170
a(g73
g73
g73
g5
g5
tp1171
a(S'will'
p1172
S'will'
p1173
S'MD'
p1174
S'B-VP'
p1175
g5
tp1176
a(S'be'
p1177
S'be'
p1178
S'VB'
p1179
S'I-VP'
p1180
g5
tp1181
a(S'required'
p1182
S'require'
p1183
S'VBN'
p1184
S'I-VP'
p1185
g5
tp1186
a(S'for'
p1187
S'for'
p1188
S'IN'
p1189
S'B-PP'
p1190
g5
tp1191
a(S'each'
p1192
S'each'
p1193
S'DT'
p1194
S'B-NP'
p1195
g5
tp1196
a(S'patient.'
p1197
S'patient.'
p1198
S'NN'
p1199
S'B-NP'
p1200
g5
tp1201
a(g435
g435
g435
g5
g5
tp1202
a(S'ABSTRACT'
p1203
S'ABSTRACT'
p1204
S'NN'
p1205
S'B-NP'
p1206
g5
tp1207
a(S'TRUNCATED'
p1208
S'TRUNCATED'
p1209
S'VBN'
p1210
S'B-VP'
p1211
g5
tp1212
a(S'AT'
p1213
S'AT'
p1214
S'IN'
p1215
S'B-PP'
p1216
g5
tp1217
a(S'250'
p1218
S'250'
p1219
S'CD'
p1220
S'B-NP'
p1221
g5
tp1222
a(S'WORDS'
p1223
S'WORDS'
p1224
S'NNS'
p1225
S'I-NP'
p1226
g5
tp1227
a(g443
g443
g443
g5
g5
tp1228
a.