(lp0
(S'Low-dose'
p1
S'Low-dose'
p2
S'JJ'
p3
S'B-NP'
p4
S'O'
p5
tp6
a(S'mifepristone'
p7
S'mifepristone'
p8
S'NN'
p9
S'I-NP'
p10
g5
tp11
a(S'for'
p12
S'for'
p13
S'IN'
p14
S'B-PP'
p15
g5
tp16
a(S'uterine'
p17
S'uterine'
p18
S'JJ'
p19
S'B-NP'
p20
g5
tp21
a(S'leiomyomata'
p22
S'leiomyomata'
p23
S'NN'
p24
S'I-NP'
p25
g5
tp26
a(S'.'
p27
g27
g27
g5
g5
tp28
a(S'OBJECTIVE'
p29
S'OBJECTIVE'
p30
S'NN'
p31
S'B-NP'
p32
g5
tp33
a(S'To'
p34
S'To'
p35
S'TO'
p36
S'B-VP'
p37
g5
tp38
a(S'compare'
p39
S'compare'
p40
S'VB'
p41
S'I-VP'
p42
g5
tp43
a(S'the'
p44
S'the'
p45
S'DT'
p46
S'B-NP'
p47
g5
tp48
a(S'effect'
p49
S'effect'
p50
S'NN'
p51
S'I-NP'
p52
g5
tp53
a(S'of'
p54
S'of'
p55
S'IN'
p56
S'B-PP'
p57
g5
tp58
a(S'5'
p59
g59
S'CD'
p60
S'B-NP'
p61
g5
tp62
a(S'and'
p63
S'and'
p64
S'CC'
p65
S'I-NP'
p66
g5
tp67
a(S'10'
p68
S'10'
p69
S'CD'
p70
S'I-NP'
p71
g5
tp72
a(S'mg'
p73
S'mg'
p74
S'NN'
p75
S'I-NP'
p76
g5
tp77
a(S'of'
p78
S'of'
p79
S'IN'
p80
S'B-PP'
p81
g5
tp82
a(S'mifepristone'
p83
S'mifepristone'
p84
S'NN'
p85
S'B-NP'
p86
g5
tp87
a(S'on'
p88
S'on'
p89
S'IN'
p90
S'B-PP'
p91
g5
tp92
a(S'uterine'
p93
S'uterine'
p94
S'JJ'
p95
S'B-NP'
p96
g5
tp97
a(S'leiomyoma'
p98
S'leiomyoma'
p99
S'NN'
p100
S'I-NP'
p101
g5
tp102
a(S'size'
p103
S'size'
p104
S'NN'
p105
S'I-NP'
p106
g5
tp107
a(S'and'
p108
S'and'
p109
S'CC'
p110
S'I-NP'
p111
g5
tp112
a(S'symptoms'
p113
S'symptom'
p114
S'NNS'
p115
S'I-NP'
p116
g5
tp117
a(S','
p118
g118
g118
g5
g5
tp119
a(S'and'
p120
S'and'
p121
S'CC'
p122
g5
g5
tp123
a(S'to'
p124
S'to'
p125
S'TO'
p126
S'B-VP'
p127
g5
tp128
a(S'measure'
p129
S'measure'
p130
S'VB'
p131
S'I-VP'
p132
g5
tp133
a(S'side'
p134
S'side'
p135
S'JJ'
p136
S'B-NP'
p137
g5
tp138
a(S'effects'
p139
S'effect'
p140
S'NNS'
p141
S'I-NP'
p142
g5
tp143
a(g27
g27
g27
g5
g5
tp144
a(S'METHODS'
p145
S'METHODS'
p146
S'NNS'
p147
S'B-NP'
p148
g5
tp149
a(S'Forty'
p150
S'Forty'
p151
S'CD'
p152
S'B-NP'
p153
g5
tp154
a(S'premenopausal'
p155
S'premenopausal'
p156
S'JJ'
p157
S'I-NP'
p158
g5
tp159
a(S'women'
p160
S'woman'
p161
S'NNS'
p162
S'I-NP'
p163
g5
tp164
a(S'with'
p165
S'with'
p166
S'IN'
p167
S'B-PP'
p168
g5
tp169
a(S'large'
p170
S'large'
p171
S'JJ'
p172
S'B-NP'
p173
g5
tp174
a(g118
g118
g118
S'I-NP'
p175
g5
tp176
a(S'symptomatic'
p177
S'symptomatic'
p178
S'JJ'
p179
S'I-NP'
p180
g5
tp181
a(S'leiomyomata'
p182
S'leiomyomata'
p183
S'NNS'
p184
S'I-NP'
p185
g5
tp186
a(S'were'
p187
S'be'
p188
S'VBD'
p189
S'B-VP'
p190
g5
tp191
a(S'randomized'
p192
S'randomize'
p193
S'VBN'
p194
S'I-VP'
p195
g5
tp196
a(S'to'
p197
S'to'
p198
S'TO'
p199
S'B-VP'
p200
g5
tp201
a(S'receive'
p202
S'receive'
p203
S'VB'
p204
S'I-VP'
p205
g5
tp206
a(S'either'
p207
S'either'
p208
S'CC'
p209
g5
g5
tp210
a(g59
g59
S'CD'
p211
S'B-NP'
p212
g5
tp213
a(S'or'
p214
S'or'
p215
S'CC'
p216
S'I-NP'
p217
g5
tp218
a(S'10'
p219
S'10'
p220
S'CD'
p221
S'I-NP'
p222
g5
tp223
a(S'mg'
p224
S'mg'
p225
S'NN'
p226
S'I-NP'
p227
g5
tp228
a(S'of'
p229
S'of'
p230
S'IN'
p231
S'B-PP'
p232
g5
tp233
a(S'mifepristone'
p234
S'mifepristone'
p235
S'NN'
p236
S'B-NP'
p237
g5
tp238
a(S'daily'
p239
S'daily'
p240
S'RB'
p241
S'B-ADVP'
p242
g5
tp243
a(S'for'
p244
S'for'
p245
S'IN'
p246
S'B-PP'
p247
g5
tp248
a(S'6'
p249
g249
S'CD'
p250
S'B-NP'
p251
g5
tp252
a(S'months'
p253
S'month'
p254
S'NNS'
p255
S'I-NP'
p256
g5
tp257
a(S'in'
p258
S'in'
p259
S'IN'
p260
S'B-PP'
p261
g5
tp262
a(S'an'
p263
S'an'
p264
S'DT'
p265
S'B-NP'
p266
g5
tp267
a(S'open-label'
p268
S'open-label'
p269
S'JJ'
p270
S'I-NP'
p271
g5
tp272
a(S'study.'
p273
S'study.'
p274
S'NN'
p275
S'I-NP'
p276
g5
tp277
a(S'Uterine'
p278
S'Uterine'
p279
S'NN'
p280
S'I-NP'
p281
g5
tp282
a(S'volume'
p283
S'volume'
p284
S'NN'
p285
S'I-NP'
p286
g5
tp287
a(S'was'
p288
S'be'
p289
S'VBD'
p290
S'B-VP'
p291
g5
tp292
a(S'measured'
p293
S'measure'
p294
S'VBN'
p295
S'I-VP'
p296
g5
tp297
a(S'at'
p298
S'at'
p299
S'IN'
p300
S'B-PP'
p301
g5
tp302
a(S'bimonthly'
p303
S'bimonthly'
p304
S'JJ'
p305
S'B-NP'
p306
g5
tp307
a(S'intervals'
p308
S'interval'
p309
S'NNS'
p310
S'I-NP'
p311
g5
tp312
a(S'by'
p313
S'by'
p314
S'IN'
p315
S'B-PP'
p316
g5
tp317
a(S'sonography.'
p318
S'sonography.'
p319
S'NN'
p320
S'B-NP'
p321
g5
tp322
a(S'Serum'
p323
S'Serum'
p324
S'NN'
p325
S'I-NP'
p326
g5
tp327
a(S'concentrations'
p328
S'concentration'
p329
S'NNS'
p330
S'I-NP'
p331
g5
tp332
a(S'of'
p333
S'of'
p334
S'IN'
p335
S'B-PP'
p336
g5
tp337
a(S'hemoglobin'
p338
S'hemoglobin'
p339
S'NN'
p340
S'B-NP'
p341
S'B-protein'
p342
tp343
a(S'levels'
p344
S'level'
p345
S'NNS'
p346
S'I-NP'
p347
g5
tp348
a(g118
g118
g118
g5
g5
tp349
a(S'follicle-stimulating'
p350
S'follicle-stimulating'
p351
S'JJ'
p352
S'B-NP'
p353
g5
tp354
a(S'hormone'
p355
S'hormone'
p356
S'NN'
p357
S'I-NP'
p358
g5
tp359
a(g118
g118
g118
g5
g5
tp360
a(S'and'
p361
S'and'
p362
S'CC'
p363
g5
g5
tp364
a(S'liver'
p365
S'liver'
p366
S'NN'
p367
S'B-NP'
p368
S'B-protein'
p369
tp370
a(S'enzymes'
p371
S'enzyme'
p372
S'NNS'
p373
S'I-NP'
p374
S'I-protein'
p375
tp376
a(S'were'
p377
S'be'
p378
S'VBD'
p379
S'B-VP'
p380
g5
tp381
a(S'obtained'
p382
S'obtain'
p383
S'VBN'
p384
S'I-VP'
p385
g5
tp386
a(g118
g118
g118
g5
g5
tp387
a(S'and'
p388
S'and'
p389
S'CC'
p390
g5
g5
tp391
a(S'endometrial'
p392
S'endometrial'
p393
S'JJ'
p394
S'B-NP'
p395
g5
tp396
a(S'samples'
p397
S'sample'
p398
S'NNS'
p399
S'I-NP'
p400
g5
tp401
a(g118
g118
g118
g5
g5
tp402
a(S'symptoms'
p403
S'symptom'
p404
S'NNS'
p405
S'B-NP'
p406
g5
tp407
a(g118
g118
g118
g5
g5
tp408
a(S'and'
p409
S'and'
p410
S'CC'
p411
g5
g5
tp412
a(S'menstrual'
p413
S'menstrual'
p414
S'JJ'
p415
S'B-NP'
p416
g5
tp417
a(S'bleeding'
p418
S'bleeding'
p419
S'NN'
p420
S'I-NP'
p421
g5
tp422
a(S'were'
p423
S'be'
p424
S'VBD'
p425
S'B-VP'
p426
g5
tp427
a(S'also'
p428
S'also'
p429
S'RB'
p430
S'I-VP'
p431
g5
tp432
a(S'assessed'
p433
S'assess'
p434
S'VBN'
p435
S'I-VP'
p436
g5
tp437
a(g27
g27
g27
g5
g5
tp438
a(S'RESULTS'
p439
S'RESULTS'
p440
S'NNS'
p441
S'B-NP'
p442
g5
tp443
a(S'Nineteen'
p444
S'Nineteen'
p445
S'CD'
p446
S'B-NP'
p447
g5
tp448
a(S'of'
p449
S'of'
p450
S'IN'
p451
S'B-PP'
p452
g5
tp453
a(S'20'
p454
S'20'
p455
S'CD'
p456
S'B-NP'
p457
g5
tp458
a(S'subjects'
p459
S'subject'
p460
S'NNS'
p461
S'I-NP'
p462
g5
tp463
a(S'taking'
p464
S'take'
p465
S'VBG'
p466
S'B-VP'
p467
g5
tp468
a(g59
g59
S'CD'
p469
S'B-NP'
p470
g5
tp471
a(S'mg'
p472
S'mg'
p473
S'NN'
p474
S'I-NP'
p475
g5
tp476
a(S'and'
p477
S'and'
p478
S'CC'
p479
g5
g5
tp480
a(S'all'
p481
S'all'
p482
S'DT'
p483
S'B-NP'
p484
g5
tp485
a(S'20'
p486
S'20'
p487
S'CD'
p488
S'I-NP'
p489
g5
tp490
a(S'subjects'
p491
S'subject'
p492
S'NNS'
p493
S'I-NP'
p494
g5
tp495
a(S'taking'
p496
S'take'
p497
S'VBG'
p498
S'B-VP'
p499
g5
tp500
a(S'10'
p501
S'10'
p502
S'CD'
p503
S'B-NP'
p504
g5
tp505
a(S'mg'
p506
S'mg'
p507
S'NN'
p508
S'I-NP'
p509
g5
tp510
a(S'completed'
p511
S'complete'
p512
S'VBD'
p513
S'B-VP'
p514
g5
tp515
a(S'all'
p516
S'all'
p517
S'DT'
p518
S'B-NP'
p519
g5
tp520
a(g249
g249
S'CD'
p521
S'I-NP'
p522
g5
tp523
a(S'months'
p524
S'month'
p525
S'NNS'
p526
S'I-NP'
p527
g5
tp528
a(S'of'
p529
S'of'
p530
S'IN'
p531
S'B-PP'
p532
g5
tp533
a(S'the'
p534
S'the'
p535
S'DT'
p536
S'B-NP'
p537
g5
tp538
a(S'study.'
p539
S'study.'
p540
S'NN'
p541
S'I-NP'
p542
g5
tp543
a(S'Mean'
p544
S'Mean'
p545
S'NN'
p546
S'I-NP'
p547
g5
tp548
a(S'uterine'
p549
S'uterine'
p550
S'JJ'
p551
S'I-NP'
p552
g5
tp553
a(S'volume'
p554
S'volume'
p555
S'NN'
p556
S'I-NP'
p557
g5
tp558
a(S'shrank'
p559
S'shrank'
p560
S'NN'
p561
S'I-NP'
p562
g5
tp563
a(S'by'
p564
S'by'
p565
S'IN'
p566
S'B-PP'
p567
g5
tp568
a(S'48'
p569
S'48'
p570
S'CD'
p571
S'B-NP'
p572
g5
tp573
a(S'%'
p574
g574
S'NN'
p575
S'I-NP'
p576
g5
tp577
a(S'('
p578
g578
g578
g5
g5
tp579
a(S'P'
p580
g580
S'NN'
p581
S'B-NP'
p582
g5
tp583
a(S'<'
p584
g584
S'JJR'
p585
S'B-NP'
p586
g5
tp587
a(S'.001'
p588
S'.001'
p589
S'CD'
p590
S'I-NP'
p591
g5
tp592
a(S')'
p593
g593
g593
g5
g5
tp594
a(S'in'
p595
S'in'
p596
S'IN'
p597
S'B-PP'
p598
g5
tp599
a(S'the'
p600
S'the'
p601
S'DT'
p602
S'B-NP'
p603
g5
tp604
a(S'5-mg'
p605
S'5-mg'
p606
S'JJ'
p607
S'I-NP'
p608
g5
tp609
a(S'group'
p610
S'group'
p611
S'NN'
p612
S'I-NP'
p613
g5
tp614
a(S'and'
p615
S'and'
p616
S'CC'
p617
g5
g5
tp618
a(S'49'
p619
S'49'
p620
S'CD'
p621
S'B-NP'
p622
g5
tp623
a(g574
g574
S'NN'
p624
S'I-NP'
p625
g5
tp626
a(g578
g578
g578
g5
g5
tp627
a(g580
g580
S'NN'
p628
S'B-NP'
p629
g5
tp630
a(g584
g584
S'JJR'
p631
S'B-NP'
p632
g5
tp633
a(S'.001'
p634
S'.001'
p635
S'CD'
p636
S'I-NP'
p637
g5
tp638
a(g593
g593
g593
g5
g5
tp639
a(S'in'
p640
S'in'
p641
S'IN'
p642
S'B-PP'
p643
g5
tp644
a(S'the'
p645
S'the'
p646
S'DT'
p647
S'B-NP'
p648
g5
tp649
a(S'10-mg'
p650
S'10-mg'
p651
S'JJ'
p652
S'I-NP'
p653
g5
tp654
a(S'group'
p655
S'group'
p656
S'NN'
p657
S'I-NP'
p658
g5
tp659
a(g118
g118
g118
g5
g5
tp660
a(S'a'
p661
g661
S'DT'
p662
S'B-NP'
p663
g5
tp664
a(S'nonsignificant'
p665
S'nonsignificant'
p666
S'JJ'
p667
S'I-NP'
p668
g5
tp669
a(S'difference.'
p670
S'difference.'
p671
S'JJ'
p672
S'I-NP'
p673
g5
tp674
a(S'Leiomyoma-related'
p675
S'Leiomyoma-related'
p676
S'JJ'
p677
S'I-NP'
p678
g5
tp679
a(S'symptoms'
p680
S'symptom'
p681
S'NNS'
p682
S'I-NP'
p683
g5
tp684
a(S'were'
p685
S'be'
p686
S'VBD'
p687
S'B-VP'
p688
g5
tp689
a(S'comparably'
p690
S'comparably'
p691
S'RB'
p692
S'I-VP'
p693
g5
tp694
a(S'reduced'
p695
S'reduce'
p696
S'VBN'
p697
S'I-VP'
p698
g5
tp699
a(S'in'
p700
S'in'
p701
S'IN'
p702
S'B-PP'
p703
g5
tp704
a(S'both'
p705
S'both'
p706
S'DT'
p707
S'B-NP'
p708
g5
tp709
a(S'groups.'
p710
S'groups.'
p711
S'NNS'
p712
S'I-NP'
p713
g5
tp714
a(S'Amenorrhea'
p715
S'Amenorrhea'
p716
S'NNP'
p717
S'B-NP'
p718
g5
tp719
a(S'occurred'
p720
S'occur'
p721
S'VBD'
p722
S'B-VP'
p723
g5
tp724
a(S'in'
p725
S'in'
p726
S'IN'
p727
S'B-PP'
p728
g5
tp729
a(S'60-65'
p730
S'60-65'
p731
S'CD'
p732
S'B-NP'
p733
g5
tp734
a(g574
g574
S'NN'
p735
S'I-NP'
p736
g5
tp737
a(S'of'
p738
S'of'
p739
S'IN'
p740
S'B-PP'
p741
g5
tp742
a(S'both'
p743
S'both'
p744
S'DT'
p745
S'B-NP'
p746
g5
tp747
a(S'groups.'
p748
S'groups.'
p749
S'NNS'
p750
S'I-NP'
p751
g5
tp752
a(S'Hemoglobin'
p753
S'Hemoglobin'
p754
S'NN'
p755
S'I-NP'
p756
S'B-protein'
p757
tp758
a(S'levels'
p759
S'level'
p760
S'NNS'
p761
S'I-NP'
p762
g5
tp763
a(S'increased'
p764
S'increase'
p765
S'VBD'
p766
S'B-VP'
p767
g5
tp768
a(S'by'
p769
S'by'
p770
S'IN'
p771
S'B-PP'
p772
g5
tp773
a(S'2.5'
p774
S'2.5'
p775
S'CD'
p776
S'B-NP'
p777
g5
tp778
a(S'g/dL'
p779
S'g/dL'
p780
S'NN'
p781
S'I-NP'
p782
g5
tp783
a(S'in'
p784
S'in'
p785
S'IN'
p786
S'B-PP'
p787
g5
tp788
a(S'anemic'
p789
S'anemic'
p790
S'JJ'
p791
S'B-NP'
p792
g5
tp793
a(S'subjects.'
p794
S'subjects.'
p795
S'NNS'
p796
S'I-NP'
p797
g5
tp798
a(S'The'
p799
S'The'
p800
S'DT'
p801
S'B-NP'
p802
g5
tp803
a(S'incidence'
p804
S'incidence'
p805
S'NN'
p806
S'I-NP'
p807
g5
tp808
a(S'of'
p809
S'of'
p810
S'IN'
p811
S'B-PP'
p812
g5
tp813
a(S'hot'
p814
S'hot'
p815
S'JJ'
p816
S'B-NP'
p817
g5
tp818
a(S'flashes'
p819
S'flash'
p820
S'NNS'
p821
S'I-NP'
p822
g5
tp823
a(S'increased'
p824
S'increase'
p825
S'VBD'
p826
S'B-VP'
p827
g5
tp828
a(S'significantly'
p829
S'significantly'
p830
S'RB'
p831
S'B-ADVP'
p832
g5
tp833
a(S'over'
p834
S'over'
p835
S'IN'
p836
S'B-PP'
p837
g5
tp838
a(S'baseline'
p839
S'baseline'
p840
S'NN'
p841
S'B-NP'
p842
g5
tp843
a(S'in'
p844
S'in'
p845
S'IN'
p846
S'B-PP'
p847
g5
tp848
a(S'the'
p849
S'the'
p850
S'DT'
p851
S'B-NP'
p852
g5
tp853
a(S'10-mg'
p854
S'10-mg'
p855
S'JJ'
p856
S'I-NP'
p857
g5
tp858
a(S'group'
p859
S'group'
p860
S'NN'
p861
S'I-NP'
p862
g5
tp863
a(S'but'
p864
S'but'
p865
S'CC'
p866
S'B-PP'
p867
g5
tp868
a(S'not'
p869
S'not'
p870
S'RB'
p871
S'B-PP'
p872
g5
tp873
a(S'in'
p874
S'in'
p875
S'IN'
p876
S'I-PP'
p877
g5
tp878
a(S'the'
p879
S'the'
p880
S'DT'
p881
S'B-NP'
p882
g5
tp883
a(S'5-mg'
p884
S'5-mg'
p885
S'NN'
p886
S'I-NP'
p887
g5
tp888
a(S'group.'
p889
S'group.'
p890
S'NN'
p891
S'I-NP'
p892
g5
tp893
a(S'Simple'
p894
S'Simple'
p895
S'NN'
p896
S'I-NP'
p897
g5
tp898
a(S'endometrial'
p899
S'endometrial'
p900
S'JJ'
p901
S'I-NP'
p902
g5
tp903
a(S'hyperplasia'
p904
S'hyperplasia'
p905
S'NN'
p906
S'I-NP'
p907
g5
tp908
a(S'occurred'
p909
S'occur'
p910
S'VBD'
p911
S'B-VP'
p912
g5
tp913
a(S'in'
p914
S'in'
p915
S'IN'
p916
S'B-PP'
p917
g5
tp918
a(S'28'
p919
S'28'
p920
S'CD'
p921
S'B-NP'
p922
g5
tp923
a(g574
g574
S'NN'
p924
S'I-NP'
p925
g5
tp926
a(S'of'
p927
S'of'
p928
S'IN'
p929
S'B-PP'
p930
g5
tp931
a(S'all'
p932
S'all'
p933
S'DT'
p934
S'B-NP'
p935
g5
tp936
a(S'subjects'
p937
S'subject'
p938
S'NNS'
p939
S'I-NP'
p940
g5
tp941
a(g118
g118
g118
g5
g5
tp942
a(S'with'
p943
S'with'
p944
S'IN'
p945
S'B-PP'
p946
g5
tp947
a(S'no'
p948
S'no'
p949
S'DT'
p950
S'B-NP'
p951
g5
tp952
a(S'difference'
p953
S'difference'
p954
S'NN'
p955
S'I-NP'
p956
g5
tp957
a(S'between'
p958
S'between'
p959
S'IN'
p960
S'B-PP'
p961
g5
tp962
a(S'groups.'
p963
S'groups.'
p964
S'NNS'
p965
S'B-NP'
p966
g5
tp967
a(S'No'
p968
S'No'
p969
S'DT'
p970
S'B-NP'
p971
g5
tp972
a(S'atypical'
p973
S'atypical'
p974
S'JJ'
p975
S'I-NP'
p976
g5
tp977
a(S'hyperplasia'
p978
S'hyperplasia'
p979
S'NN'
p980
S'I-NP'
p981
g5
tp982
a(S'was'
p983
S'be'
p984
S'VBD'
p985
S'B-VP'
p986
g5
tp987
a(S'noted'
p988
S'note'
p989
S'VBN'
p990
S'I-VP'
p991
g5
tp992
a(g27
g27
g27
g5
g5
tp993
a(S'CONCLUSION'
p994
S'CONCLUSION'
p995
S'NN'
p996
S'B-NP'
p997
g5
tp998
a(S'Mifepristone'
p999
S'Mifepristone'
p1000
S'NN'
p1001
S'I-NP'
p1002
g5
tp1003
a(S'in'
p1004
S'in'
p1005
S'IN'
p1006
S'B-PP'
p1007
g5
tp1008
a(S'doses'
p1009
S'dose'
p1010
S'NNS'
p1011
S'B-NP'
p1012
g5
tp1013
a(S'of'
p1014
S'of'
p1015
S'IN'
p1016
S'B-PP'
p1017
g5
tp1018
a(g59
g59
S'CD'
p1019
S'B-NP'
p1020
g5
tp1021
a(S'mg'
p1022
S'mg'
p1023
S'NN'
p1024
S'I-NP'
p1025
g5
tp1026
a(S'or'
p1027
S'or'
p1028
S'CC'
p1029
g5
g5
tp1030
a(S'10'
p1031
S'10'
p1032
S'CD'
p1033
S'B-NP'
p1034
g5
tp1035
a(S'mg'
p1036
S'mg'
p1037
S'NN'
p1038
S'I-NP'
p1039
g5
tp1040
a(S'results'
p1041
S'result'
p1042
S'VBZ'
p1043
S'B-VP'
p1044
g5
tp1045
a(S'in'
p1046
S'in'
p1047
S'IN'
p1048
S'B-PP'
p1049
g5
tp1050
a(S'comparable'
p1051
S'comparable'
p1052
S'JJ'
p1053
S'B-NP'
p1054
g5
tp1055
a(S'leiomyoma'
p1056
S'leiomyoma'
p1057
S'NN'
p1058
S'I-NP'
p1059
g5
tp1060
a(S'regression'
p1061
S'regression'
p1062
S'NN'
p1063
S'I-NP'
p1064
g5
tp1065
a(g118
g118
g118
g5
g5
tp1066
a(S'improvement'
p1067
S'improvement'
p1068
S'NN'
p1069
S'B-NP'
p1070
g5
tp1071
a(S'in'
p1072
S'in'
p1073
S'IN'
p1074
S'B-PP'
p1075
g5
tp1076
a(S'symptoms'
p1077
S'symptom'
p1078
S'NNS'
p1079
S'B-NP'
p1080
g5
tp1081
a(g118
g118
g118
g5
g5
tp1082
a(S'and'
p1083
S'and'
p1084
S'CC'
p1085
g5
g5
tp1086
a(S'few'
p1087
S'few'
p1088
S'JJ'
p1089
S'B-NP'
p1090
g5
tp1091
a(S'side'
p1092
S'side'
p1093
S'NN'
p1094
S'I-NP'
p1095
g5
tp1096
a(S'effects.'
p1097
S'effects.'
p1098
S'NN'
p1099
S'I-NP'
p1100
g5
tp1101
a(S'Further'
p1102
S'Further'
p1103
S'JJ'
p1104
S'I-NP'
p1105
g5
tp1106
a(S'study'
p1107
S'study'
p1108
S'NN'
p1109
S'I-NP'
p1110
g5
tp1111
a(S'is'
p1112
S'be'
p1113
S'VBZ'
p1114
S'B-VP'
p1115
g5
tp1116
a(S'needed'
p1117
S'need'
p1118
S'VBN'
p1119
S'I-VP'
p1120
g5
tp1121
a(S'to'
p1122
S'to'
p1123
S'TO'
p1124
S'B-VP'
p1125
g5
tp1126
a(S'assess'
p1127
S'assess'
p1128
S'VB'
p1129
S'I-VP'
p1130
g5
tp1131
a(S'the'
p1132
S'the'
p1133
S'DT'
p1134
S'B-NP'
p1135
g5
tp1136
a(S'long-term'
p1137
S'long-term'
p1138
S'JJ'
p1139
S'I-NP'
p1140
g5
tp1141
a(S'safety'
p1142
S'safety'
p1143
S'NN'
p1144
S'I-NP'
p1145
g5
tp1146
a(S'and'
p1147
S'and'
p1148
S'CC'
p1149
S'I-NP'
p1150
g5
tp1151
a(S'efficacy'
p1152
S'efficacy'
p1153
S'NN'
p1154
S'I-NP'
p1155
g5
tp1156
a(S'of'
p1157
S'of'
p1158
S'IN'
p1159
S'B-PP'
p1160
g5
tp1161
a(S'low-dose'
p1162
S'low-dose'
p1163
S'JJ'
p1164
S'B-NP'
p1165
g5
tp1166
a(S'mifepristone'
p1167
S'mifepristone'
p1168
S'NN'
p1169
S'I-NP'
p1170
g5
tp1171
a(g27
g27
g27
g5
g5
tp1172
a.