(lp0
(S'Boosting'
p1
S'Boost'
p2
S'VBG'
p3
S'B-VP'
p4
S'O'
p5
tp6
a(S'uptake'
p7
S'uptake'
p8
S'NN'
p9
S'B-NP'
p10
g5
tp11
a(S'of'
p12
S'of'
p13
S'IN'
p14
S'B-PP'
p15
g5
tp16
a(S'influenza'
p17
S'influenza'
p18
S'NN'
p19
S'B-NP'
p20
g5
tp21
a(S'immunisation'
p22
S'immunisation'
p23
S'NN'
p24
S'I-NP'
p25
g5
tp26
a(S':'
p27
g27
g27
g5
g5
tp28
a(S'a'
p29
g29
S'DT'
p30
S'B-NP'
p31
g5
tp32
a(S'randomised'
p33
S'randomise'
p34
S'VBN'
p35
S'I-NP'
p36
g5
tp37
a(S'controlled'
p38
S'control'
p39
S'VBN'
p40
S'I-NP'
p41
g5
tp42
a(S'trial'
p43
S'trial'
p44
S'NN'
p45
S'I-NP'
p46
g5
tp47
a(S'of'
p48
S'of'
p49
S'IN'
p50
S'B-PP'
p51
g5
tp52
a(S'telephone'
p53
S'telephone'
p54
S'NN'
p55
S'B-NP'
p56
g5
tp57
a(S'appointing'
p58
S'appointing'
p59
S'NN'
p60
S'I-NP'
p61
g5
tp62
a(S'in'
p63
S'in'
p64
S'IN'
p65
S'B-PP'
p66
g5
tp67
a(S'general'
p68
S'general'
p69
S'JJ'
p70
S'B-NP'
p71
g5
tp72
a(S'practice'
p73
S'practice'
p74
S'NN'
p75
S'I-NP'
p76
g5
tp77
a(S'.'
p78
g78
g78
g5
g5
tp79
a(S'BACKGROUND'
p80
S'BACKGROUND'
p81
S'NN'
p82
S'B-NP'
p83
g5
tp84
a(S'Immunisation'
p85
S'Immunisation'
p86
S'NN'
p87
S'I-NP'
p88
g5
tp89
a(S'against'
p90
S'against'
p91
S'IN'
p92
S'B-PP'
p93
g5
tp94
a(S'influenza'
p95
S'influenza'
p96
S'NN'
p97
S'B-NP'
p98
g5
tp99
a(S'is'
p100
S'be'
p101
S'VBZ'
p102
S'B-VP'
p103
g5
tp104
a(S'an'
p105
S'an'
p106
S'DT'
p107
S'B-NP'
p108
g5
tp109
a(S'effective'
p110
S'effective'
p111
S'JJ'
p112
S'I-NP'
p113
g5
tp114
a(S'intervention'
p115
S'intervention'
p116
S'NN'
p117
S'I-NP'
p118
g5
tp119
a(S'that'
p120
S'that'
p121
S'WDT'
p122
S'B-NP'
p123
g5
tp124
a(S'reduces'
p125
S'reduce'
p126
S'VBZ'
p127
S'B-VP'
p128
g5
tp129
a(S'serologically'
p130
S'serologically'
p131
S'RB'
p132
S'B-NP'
p133
g5
tp134
a(S'confirmed'
p135
S'confirm'
p136
S'VBN'
p137
S'I-NP'
p138
g5
tp139
a(S'cases'
p140
S'case'
p141
S'NNS'
p142
S'I-NP'
p143
g5
tp144
a(S'by'
p145
S'by'
p146
S'IN'
p147
S'B-PP'
p148
g5
tp149
a(S'between'
p150
S'between'
p151
S'IN'
p152
S'B-NP'
p153
g5
tp154
a(S'60'
p155
S'60'
p156
S'CD'
p157
S'I-NP'
p158
g5
tp159
a(S'%'
p160
g160
S'NN'
p161
S'I-NP'
p162
g5
tp163
a(S'and'
p164
S'and'
p165
S'CC'
p166
S'I-NP'
p167
g5
tp168
a(S'70'
p169
S'70'
p170
S'CD'
p171
S'I-NP'
p172
g5
tp173
a(g160
g160
S'NN'
p174
S'I-NP'
p175
g5
tp176
a(g78
g78
g78
g5
g5
tp177
a(S'Almost'
p178
S'Almost'
p179
S'RB'
p180
S'B-ADVP'
p181
g5
tp182
a(S'all'
p183
S'all'
p184
S'DT'
p185
S'B-NP'
p186
g5
tp187
a(S'influenza'
p188
S'influenza'
p189
S'NN'
p190
S'I-NP'
p191
g5
tp192
a(S'immunisation'
p193
S'immunisation'
p194
S'NN'
p195
S'I-NP'
p196
g5
tp197
a(S'in'
p198
S'in'
p199
S'IN'
p200
S'B-PP'
p201
g5
tp202
a(S'the'
p203
S'the'
p204
S'DT'
p205
S'B-NP'
p206
g5
tp207
a(S'UK'
p208
S'UK'
p209
S'NNP'
p210
S'I-NP'
p211
g5
tp212
a(S'is'
p213
S'be'
p214
S'VBZ'
p215
S'B-VP'
p216
g5
tp217
a(S'done'
p218
S'do'
p219
S'VBN'
p220
S'I-VP'
p221
g5
tp222
a(S'within'
p223
S'within'
p224
S'IN'
p225
S'B-PP'
p226
g5
tp227
a(S'general'
p228
S'general'
p229
S'JJ'
p230
S'B-NP'
p231
g5
tp232
a(S'practice.'
p233
S'practice.'
p234
S'NN'
p235
S'I-NP'
p236
g5
tp237
a(S'Current'
p238
S'Current'
p239
S'JJ'
p240
S'I-NP'
p241
g5
tp242
a(S'evidence'
p243
S'evidence'
p244
S'NN'
p245
S'I-NP'
p246
g5
tp247
a(S'on'
p248
S'on'
p249
S'IN'
p250
S'B-PP'
p251
g5
tp252
a(S'the'
p253
S'the'
p254
S'DT'
p255
S'B-NP'
p256
g5
tp257
a(S'effectiveness'
p258
S'effectiveness'
p259
S'NN'
p260
S'I-NP'
p261
g5
tp262
a(S'of'
p263
S'of'
p264
S'IN'
p265
S'B-PP'
p266
g5
tp267
a(S'patient'
p268
S'patient'
p269
S'NN'
p270
S'B-NP'
p271
g5
tp272
a(S'reminders'
p273
S'reminder'
p274
S'NNS'
p275
S'I-NP'
p276
g5
tp277
a(S'for'
p278
S'for'
p279
S'IN'
p280
S'B-PP'
p281
g5
tp282
a(S'all'
p283
S'all'
p284
S'DT'
p285
S'B-NP'
p286
g5
tp287
a(S'types'
p288
S'type'
p289
S'NNS'
p290
S'I-NP'
p291
g5
tp292
a(S'of'
p293
S'of'
p294
S'IN'
p295
S'B-PP'
p296
g5
tp297
a(S'immunisation'
p298
S'immunisation'
p299
S'NN'
p300
S'B-NP'
p301
g5
tp302
a(S'programmes'
p303
S'programme'
p304
S'NNS'
p305
S'I-NP'
p306
g5
tp307
a(S'is'
p308
S'be'
p309
S'VBZ'
p310
S'B-VP'
p311
g5
tp312
a(S'largely'
p313
S'largely'
p314
S'RB'
p315
S'I-VP'
p316
g5
tp317
a(S'based'
p318
S'base'
p319
S'VBN'
p320
S'I-VP'
p321
g5
tp322
a(S'on'
p323
S'on'
p324
S'IN'
p325
S'B-PP'
p326
g5
tp327
a(S'North'
p328
S'North'
p329
S'JJ'
p330
S'B-NP'
p331
g5
tp332
a(S'American'
p333
S'American'
p334
S'JJ'
p335
S'I-NP'
p336
g5
tp337
a(S'studies'
p338
S'study'
p339
S'NNS'
p340
S'I-NP'
p341
g5
tp342
a(g78
g78
g78
g5
g5
tp343
a(S'AIM'
p344
S'AIM'
p345
S'NN'
p346
S'B-NP'
p347
g5
tp348
a(S'To'
p349
S'To'
p350
S'TO'
p351
S'B-VP'
p352
g5
tp353
a(S'determine'
p354
S'determine'
p355
S'VB'
p356
S'I-VP'
p357
g5
tp358
a(S'whether'
p359
S'whether'
p360
S'IN'
p361
S'B-SBAR'
p362
g5
tp363
a(S'telephone'
p364
S'telephone'
p365
S'NN'
p366
S'B-NP'
p367
g5
tp368
a(S'appointments'
p369
S'appointment'
p370
S'NNS'
p371
S'I-NP'
p372
g5
tp373
a(S'offered'
p374
S'offer'
p375
S'VBD'
p376
S'B-VP'
p377
g5
tp378
a(S'bygeneral'
p379
S'bygeneral'
p380
S'JJ'
p381
S'B-NP'
p382
g5
tp383
a(S'practice'
p384
S'practice'
p385
S'NN'
p386
S'I-NP'
p387
g5
tp388
a(S'receptionists'
p389
S'receptionist'
p390
S'NNS'
p391
S'I-NP'
p392
g5
tp393
a(S'increase'
p394
S'increase'
p395
S'VBP'
p396
S'B-VP'
p397
g5
tp398
a(S'the'
p399
S'the'
p400
S'DT'
p401
S'B-NP'
p402
g5
tp403
a(S'uptake'
p404
S'uptake'
p405
S'NN'
p406
S'I-NP'
p407
g5
tp408
a(S'of'
p409
S'of'
p410
S'IN'
p411
S'B-PP'
p412
g5
tp413
a(S'irfluenza'
p414
S'irfluenza'
p415
S'NN'
p416
S'B-NP'
p417
g5
tp418
a(S'immunisation'
p419
S'immunisation'
p420
S'NN'
p421
S'I-NP'
p422
g5
tp423
a(S'among'
p424
S'among'
p425
S'IN'
p426
S'B-PP'
p427
g5
tp428
a(S'the'
p429
S'the'
p430
S'DT'
p431
S'B-NP'
p432
g5
tp433
a(S'registered'
p434
S'register'
p435
S'VBN'
p436
S'I-NP'
p437
g5
tp438
a(S'population'
p439
S'population'
p440
S'NN'
p441
S'I-NP'
p442
g5
tp443
a(S'aged'
p444
S'age'
p445
S'VBN'
p446
S'B-VP'
p447
g5
tp448
a(S'over'
p449
S'over'
p450
S'IN'
p451
S'B-PP'
p452
g5
tp453
a(S'65'
p454
S'65'
p455
S'CD'
p456
S'B-NP'
p457
g5
tp458
a(S'years'
p459
S'year'
p460
S'NNS'
p461
S'I-NP'
p462
g5
tp463
a(S'in'
p464
S'in'
p465
S'IN'
p466
S'B-PP'
p467
g5
tp468
a(S'east'
p469
S'east'
p470
S'JJ'
p471
S'B-NP'
p472
g5
tp473
a(S'London'
p474
S'London'
p475
S'NNP'
p476
S'I-NP'
p477
g5
tp478
a(S'practices'
p479
S'practice'
p480
S'NNS'
p481
S'I-NP'
p482
g5
tp483
a(g78
g78
g78
g5
g5
tp484
a(S'DESIGN'
p485
S'DESIGN'
p486
S'NN'
p487
S'B-NP'
p488
g5
tp489
a(S'OF'
p490
S'OF'
p491
S'IN'
p492
S'B-PP'
p493
g5
tp494
a(S'STUDY'
p495
S'STUDY'
p496
S'NNP'
p497
S'B-NP'
p498
g5
tp499
a(S'Randomised'
p500
S'Randomised'
p501
S'NNP'
p502
S'I-NP'
p503
g5
tp504
a(S'controlled'
p505
S'controlled'
p506
S'JJ'
p507
S'I-NP'
p508
g5
tp509
a(S'trial'
p510
S'trial'
p511
S'NN'
p512
S'I-NP'
p513
g5
tp514
a(g78
g78
g78
g5
g5
tp515
a(S'SETTING'
p516
S'SETTING'
p517
S'VBG'
p518
S'B-VP'
p519
g5
tp520
a(S'Three'
p521
S'Three'
p522
S'CD'
p523
S'B-NP'
p524
g5
tp525
a(S'research'
p526
S'research'
p527
S'NN'
p528
S'I-NP'
p529
g5
tp530
a(S'general'
p531
S'general'
p532
S'JJ'
p533
S'I-NP'
p534
g5
tp535
a(S'practices'
p536
S'practice'
p537
S'NNS'
p538
S'I-NP'
p539
g5
tp540
a(S'within'
p541
S'within'
p542
S'IN'
p543
S'B-PP'
p544
g5
tp545
a(S'the'
p546
S'the'
p547
S'DT'
p548
S'B-NP'
p549
g5
tp550
a(S'East'
p551
S'East'
p552
S'NNP'
p553
S'I-NP'
p554
g5
tp555
a(S'London'
p556
S'London'
p557
S'NNP'
p558
S'I-NP'
p559
g5
tp560
a(S'and'
p561
S'and'
p562
S'CC'
p563
S'I-NP'
p564
g5
tp565
a(S'Essex'
p566
S'Essex'
p567
S'NNP'
p568
S'I-NP'
p569
g5
tp570
a(S'network'
p571
S'network'
p572
S'NN'
p573
S'I-NP'
p574
g5
tp575
a(S'of'
p576
S'of'
p577
S'IN'
p578
S'B-PP'
p579
g5
tp580
a(S'researchers'
p581
S'researcher'
p582
S'NNS'
p583
S'B-NP'
p584
g5
tp585
a(S'('
p586
g586
g586
g5
g5
tp587
a(S'ELENoR'
p588
S'ELENoR'
p589
S'NN'
p590
S'B-NP'
p591
g5
tp592
a(S')'
p593
g593
g593
g5
g5
tp594
a(g78
g78
g78
g5
g5
tp595
a(S'METHOD'
p596
S'METHOD'
p597
S'NN'
p598
S'B-NP'
p599
g5
tp600
a(S'Participants'
p601
S'Participant'
p602
S'NNS'
p603
S'I-NP'
p604
g5
tp605
a(S'were'
p606
S'be'
p607
S'VBD'
p608
S'B-VP'
p609
g5
tp610
a(S'1'
p611
g611
S'CD'
p612
S'B-NP'
p613
g5
tp614
a(S','
p615
g615
g615
g5
g5
tp616
a(S'820'
p617
S'820'
p618
S'CD'
p619
S'B-NP'
p620
g5
tp621
a(S'low-risk'
p622
S'low-risk'
p623
S'JJ'
p624
S'I-NP'
p625
g5
tp626
a(S'patients'
p627
S'patient'
p628
S'NNS'
p629
S'I-NP'
p630
g5
tp631
a(S'aged'
p632
S'age'
p633
S'VBN'
p634
S'B-ADJP'
p635
g5
tp636
a(S'65'
p637
S'65'
p638
S'CD'
p639
S'B-NP'
p640
g5
tp641
a(S'to'
p642
S'to'
p643
S'TO'
p644
S'B-PP'
p645
g5
tp646
a(S'74'
p647
S'74'
p648
S'CD'
p649
S'B-NP'
p650
g5
tp651
a(S'years'
p652
S'year'
p653
S'NNS'
p654
S'I-NP'
p655
g5
tp656
a(S'who'
p657
S'who'
p658
S'WP'
p659
S'B-NP'
p660
g5
tp661
a(S'had'
p662
S'have'
p663
S'VBD'
p664
S'B-VP'
p665
g5
tp666
a(S'not'
p667
S'not'
p668
S'RB'
p669
S'I-VP'
p670
g5
tp671
a(S'previously'
p672
S'previously'
p673
S'RB'
p674
S'I-VP'
p675
g5
tp676
a(S'been'
p677
S'be'
p678
S'VBN'
p679
S'I-VP'
p680
g5
tp681
a(S'in'
p682
S'in'
p683
S'IN'
p684
S'B-PP'
p685
g5
tp686
a(g29
g29
S'DT'
p687
S'B-NP'
p688
g5
tp689
a(S'recall'
p690
S'recall'
p691
S'NN'
p692
S'I-NP'
p693
g5
tp694
a(S'system'
p695
S'system'
p696
S'NN'
p697
S'I-NP'
p698
g5
tp699
a(S'for'
p700
S'for'
p701
S'IN'
p702
S'B-PP'
p703
g5
tp704
a(S'influenza'
p705
S'influenza'
p706
S'NN'
p707
S'B-NP'
p708
g5
tp709
a(S'immunisation'
p710
S'immunisation'
p711
S'NN'
p712
S'I-NP'
p713
g5
tp714
a(S'at'
p715
S'at'
p716
S'IN'
p717
S'B-PP'
p718
g5
tp719
a(S'their'
p720
S'their'
p721
S'PRP$'
p722
S'B-NP'
p723
g5
tp724
a(S'general'
p725
S'general'
p726
S'JJ'
p727
S'I-NP'
p728
g5
tp729
a(S'practice.'
p730
S'practice.'
p731
S'NN'
p732
S'I-NP'
p733
g5
tp734
a(S'The'
p735
S'The'
p736
S'DT'
p737
S'B-NP'
p738
g5
tp739
a(S'intervention'
p740
S'intervention'
p741
S'NN'
p742
S'I-NP'
p743
g5
tp744
a(g615
g615
g615
g5
g5
tp745
a(S'during'
p746
S'during'
p747
S'IN'
p748
S'B-PP'
p749
g5
tp750
a(S'October'
p751
S'October'
p752
S'NNP'
p753
S'B-NP'
p754
g5
tp755
a(S'2000'
p756
S'2000'
p757
S'CD'
p758
S'I-NP'
p759
g5
tp760
a(g615
g615
g615
g5
g5
tp761
a(S'was'
p762
S'be'
p763
S'VBD'
p764
S'B-VP'
p765
g5
tp766
a(g29
g29
S'DT'
p767
S'B-NP'
p768
g5
tp769
a(S'telephone'
p770
S'telephone'
p771
S'NN'
p772
S'I-NP'
p773
g5
tp774
a(S'call'
p775
S'call'
p776
S'NN'
p777
S'I-NP'
p778
g5
tp779
a(S'from'
p780
S'from'
p781
S'IN'
p782
S'B-PP'
p783
g5
tp784
a(S'the'
p785
S'the'
p786
S'DT'
p787
S'B-NP'
p788
g5
tp789
a(S'practice'
p790
S'practice'
p791
S'NN'
p792
S'I-NP'
p793
g5
tp794
a(S'receptionist'
p795
S'receptionist'
p796
S'NN'
p797
S'I-NP'
p798
g5
tp799
a(S'to'
p800
S'to'
p801
S'TO'
p802
S'B-VP'
p803
g5
tp804
a(S'intervention'
p805
S'intervention'
p806
S'VB'
p807
S'I-VP'
p808
g5
tp809
a(S'group'
p810
S'group'
p811
S'NN'
p812
S'B-NP'
p813
g5
tp814
a(S'households'
p815
S'household'
p816
S'NNS'
p817
S'I-NP'
p818
g5
tp819
a(g615
g615
g615
g5
g5
tp820
a(S'offering'
p821
S'offer'
p822
S'VBG'
p823
S'B-VP'
p824
g5
tp825
a(S'an'
p826
S'an'
p827
S'DT'
p828
S'B-NP'
p829
g5
tp830
a(S'appointment'
p831
S'appointment'
p832
S'NN'
p833
S'I-NP'
p834
g5
tp835
a(S'for'
p836
S'for'
p837
S'IN'
p838
S'B-PP'
p839
g5
tp840
a(S'influenza'
p841
S'influenza'
p842
S'NN'
p843
S'B-NP'
p844
g5
tp845
a(S'immunisation'
p846
S'immunisation'
p847
S'NN'
p848
S'I-NP'
p849
g5
tp850
a(S'at'
p851
S'at'
p852
S'IN'
p853
S'B-PP'
p854
g5
tp855
a(g29
g29
S'DT'
p856
S'B-NP'
p857
g5
tp858
a(S'nurse-run.'
p859
S'nurse-run.'
p860
S'JJ'
p861
S'I-NP'
p862
g5
tp863
a(S'clinic'
p864
S'clinic'
p865
S'NN'
p866
S'I-NP'
p867
g5
tp868
a(S'Main'
p869
S'Main'
p870
S'NNP'
p871
S'I-NP'
p872
g5
tp873
a(S'outcome'
p874
S'outcome'
p875
S'NN'
p876
S'I-NP'
p877
g5
tp878
a(S'measures'
p879
S'measure'
p880
S'NNS'
p881
S'I-NP'
p882
g5
tp883
a(S'were'
p884
S'be'
p885
S'VBD'
p886
S'B-VP'
p887
g5
tp888
a(S'the'
p889
S'the'
p890
S'DT'
p891
S'B-NP'
p892
g5
tp893
a(S'numbers'
p894
S'number'
p895
S'NNS'
p896
S'I-NP'
p897
g5
tp898
a(S'of'
p899
S'of'
p900
S'IN'
p901
S'B-PP'
p902
g5
tp903
a(S'individuals'
p904
S'individual'
p905
S'NNS'
p906
S'B-NP'
p907
g5
tp908
a(S'in'
p909
S'in'
p910
S'IN'
p911
S'B-PP'
p912
g5
tp913
a(S'each'
p914
S'each'
p915
S'DT'
p916
S'B-NP'
p917
g5
tp918
a(S'group'
p919
S'group'
p920
S'NN'
p921
S'I-NP'
p922
g5
tp923
a(S'receiving'
p924
S'receive'
p925
S'VBG'
p926
S'B-VP'
p927
g5
tp928
a(S'immunisation'
p929
S'immunisation'
p930
S'NN'
p931
S'B-NP'
p932
g5
tp933
a(g615
g615
g615
g5
g5
tp934
a(S'and'
p935
S'and'
p936
S'CC'
p937
g5
g5
tp938
a(S'practice'
p939
S'practice'
p940
S'NN'
p941
S'B-NP'
p942
g5
tp943
a(S'costs'
p944
S'cost'
p945
S'NNS'
p946
S'I-NP'
p947
g5
tp948
a(S'of'
p949
S'of'
p950
S'IN'
p951
S'B-PP'
p952
g5
tp953
a(g29
g29
S'DT'
p954
S'B-NP'
p955
g5
tp956
a(S'telephone-appointing'
p957
S'telephone-appointing'
p958
S'JJ'
p959
S'I-NP'
p960
g5
tp961
a(S'programme'
p962
S'programme'
p963
S'NN'
p964
S'I-NP'
p965
g5
tp966
a(g78
g78
g78
g5
g5
tp967
a(S'RESULTS'
p968
S'RESULTS'
p969
S'NNS'
p970
S'B-NP'
p971
g5
tp972
a(S'intention'
p973
S'intention'
p974
S'NN'
p975
S'I-NP'
p976
g5
tp977
a(S'to'
p978
S'to'
p979
S'TO'
p980
S'B-VP'
p981
g5
tp982
a(S'treat'
p983
S'treat'
p984
S'VB'
p985
S'I-VP'
p986
g5
tp987
a(S'analysis'
p988
S'analysis'
p989
S'NN'
p990
S'B-NP'
p991
g5
tp992
a(S'showed'
p993
S'show'
p994
S'VBD'
p995
S'B-VP'
p996
g5
tp997
a(S'an'
p998
S'an'
p999
S'DT'
p1000
S'B-NP'
p1001
g5
tp1002
a(S'immunisation'
p1003
S'immunisation'
p1004
S'NN'
p1005
S'I-NP'
p1006
g5
tp1007
a(S'rate'
p1008
S'rate'
p1009
S'NN'
p1010
S'I-NP'
p1011
g5
tp1012
a(S'in'
p1013
S'in'
p1014
S'IN'
p1015
S'B-PP'
p1016
g5
tp1017
a(S'the'
p1018
S'the'
p1019
S'DT'
p1020
S'B-NP'
p1021
g5
tp1022
a(S'control'
p1023
S'control'
p1024
S'NN'
p1025
S'I-NP'
p1026
g5
tp1027
a(S'group'
p1028
S'group'
p1029
S'NN'
p1030
S'I-NP'
p1031
g5
tp1032
a(S'of'
p1033
S'of'
p1034
S'IN'
p1035
S'B-PP'
p1036
g5
tp1037
a(S'44'
p1038
S'44'
p1039
S'CD'
p1040
S'B-NP'
p1041
g5
tp1042
a(g160
g160
S'NN'
p1043
S'I-NP'
p1044
g5
tp1045
a(g615
g615
g615
g5
g5
tp1046
a(S'compared'
p1047
S'compare'
p1048
S'VBN'
p1049
S'B-PP'
p1050
g5
tp1051
a(S'with'
p1052
S'with'
p1053
S'IN'
p1054
S'B-PP'
p1055
g5
tp1056
a(S'50'
p1057
S'50'
p1058
S'CD'
p1059
S'B-NP'
p1060
g5
tp1061
a(g160
g160
S'NN'
p1062
S'I-NP'
p1063
g5
tp1064
a(S'in'
p1065
S'in'
p1066
S'IN'
p1067
S'B-PP'
p1068
g5
tp1069
a(S'the'
p1070
S'the'
p1071
S'DT'
p1072
S'B-NP'
p1073
g5
tp1074
a(S'intervention'
p1075
S'intervention'
p1076
S'NN'
p1077
S'I-NP'
p1078
g5
tp1079
a(S'group'
p1080
S'group'
p1081
S'NN'
p1082
S'I-NP'
p1083
g5
tp1084
a(g586
g586
g586
g5
g5
tp1085
a(S'odds'
p1086
S'odd'
p1087
S'NNS'
p1088
S'B-NP'
p1089
g5
tp1090
a(S'ratio'
p1091
S'ratio'
p1092
S'NN'
p1093
S'I-NP'
p1094
g5
tp1095
a(S'='
p1096
g1096
S'SYM'
p1097
S'B-VP'
p1098
g5
tp1099
a(S'1.29'
p1100
S'1.29'
p1101
S'CD'
p1102
S'B-NP'
p1103
g5
tp1104
a(g615
g615
g615
g5
g5
tp1105
a(S'95'
p1106
S'95'
p1107
S'CD'
p1108
S'B-NP'
p1109
g5
tp1110
a(g160
g160
S'NN'
p1111
S'I-NP'
p1112
g5
tp1113
a(S'confidence'
p1114
S'confidence'
p1115
S'NN'
p1116
S'I-NP'
p1117
g5
tp1118
a(S'interval'
p1119
S'interval'
p1120
S'NN'
p1121
S'I-NP'
p1122
g5
tp1123
a(g1096
g1096
S'SYM'
p1124
S'B-VP'
p1125
g5
tp1126
a(S'1.03'
p1127
S'1.03'
p1128
S'CD'
p1129
S'B-NP'
p1130
g5
tp1131
a(S'to'
p1132
S'to'
p1133
S'TO'
p1134
S'B-PP'
p1135
g5
tp1136
a(S'1.63'
p1137
S'1.63'
p1138
S'CD'
p1139
S'B-NP'
p1140
g5
tp1141
a(g593
g593
g593
g5
g5
tp1142
a(g78
g78
g78
g5
g5
tp1143
a(S'Of'
p1144
S'Of'
p1145
S'IN'
p1146
S'B-PP'
p1147
g5
tp1148
a(S'the'
p1149
S'the'
p1150
S'DT'
p1151
S'B-NP'
p1152
g5
tp1153
a(S'patients'
p1154
S'patient'
p1155
S'NNS'
p1156
S'I-NP'
p1157
g5
tp1158
a(S'making'
p1159
S'make'
p1160
S'VBG'
p1161
S'B-VP'
p1162
g5
tp1163
a(g29
g29
S'DT'
p1164
S'B-NP'
p1165
g5
tp1166
a(S'telephone'
p1167
S'telephone'
p1168
S'NN'
p1169
S'I-NP'
p1170
g5
tp1171
a(S'appointment'
p1172
S'appointment'
p1173
S'NN'
p1174
S'I-NP'
p1175
g5
tp1176
a(g615
g615
g615
g5
g5
tp1177
a(S'88'
p1178
S'88'
p1179
S'CD'
p1180
S'B-NP'
p1181
g5
tp1182
a(g160
g160
S'NN'
p1183
S'I-NP'
p1184
g5
tp1185
a(S'recieved'
p1186
S'recieve'
p1187
S'VBD'
p1188
S'B-VP'
p1189
g5
tp1190
a(S'immunisation'
p1191
S'immunisation'
p1192
S'NN'
p1193
S'B-NP'
p1194
g5
tp1195
a(g615
g615
g615
g5
g5
tp1196
a(S'while'
p1197
S'while'
p1198
S'IN'
p1199
S'B-SBAR'
p1200
g5
tp1201
a(S'22'
p1202
S'22'
p1203
S'CD'
p1204
S'B-NP'
p1205
g5
tp1206
a(g160
g160
S'NN'
p1207
S'I-NP'
p1208
g5
tp1209
a(S'of'
p1210
S'of'
p1211
S'IN'
p1212
S'B-PP'
p1213
g5
tp1214
a(S'those'
p1215
S'those'
p1216
S'DT'
p1217
S'B-NP'
p1218
g5
tp1219
a(S'not'
p1220
S'not'
p1221
S'RB'
p1222
S'B-VP'
p1223
g5
tp1224
a(S'wanting'
p1225
S'want'
p1226
S'VBG'
p1227
S'I-VP'
p1228
g5
tp1229
a(S'an'
p1230
S'an'
p1231
S'DT'
p1232
S'B-NP'
p1233
g5
tp1234
a(S'appointment'
p1235
S'appointment'
p1236
S'NN'
p1237
S'I-NP'
p1238
g5
tp1239
a(S'went'
p1240
S'go'
p1241
S'VBD'
p1242
S'B-VP'
p1243
g5
tp1244
a(S'on'
p1245
S'on'
p1246
S'RP'
p1247
S'B-PRT'
p1248
g5
tp1249
a(S'to'
p1250
S'to'
p1251
S'TO'
p1252
S'B-VP'
p1253
g5
tp1254
a(S'be'
p1255
S'be'
p1256
S'VB'
p1257
S'I-VP'
p1258
g5
tp1259
a(S'immunised.'
p1260
S'immunised.'
p1261
S'VBN'
p1262
S'I-VP'
p1263
g5
tp1264
a(S'In'
p1265
S'In'
p1266
S'IN'
p1267
S'B-PP'
p1268
g5
tp1269
a(S'the'
p1270
S'the'
p1271
S'DT'
p1272
S'B-NP'
p1273
g5
tp1274
a(S'controlgroup'
p1275
S'controlgroup'
p1276
S'NN'
p1277
S'I-NP'
p1278
g5
tp1279
a(g615
g615
g615
g5
g5
tp1280
a(S'income'
p1281
S'income'
p1282
S'NN'
p1283
S'B-NP'
p1284
g5
tp1285
a(S'generated'
p1286
S'generate'
p1287
S'VBN'
p1288
S'B-VP'
p1289
g5
tp1290
a(S'was'
p1291
S'be'
p1292
S'VBD'
p1293
S'B-VP'
p1294
g5
tp1295
a(S'11.35'
p1296
S'11.35'
p1297
S'CD'
p1298
S'B-NP'
p1299
g5
tp1300
a(S'pounds'
p1301
S'pound'
p1302
S'NNS'
p1303
S'I-NP'
p1304
g5
tp1305
a(S'per'
p1306
S'per'
p1307
S'IN'
p1308
S'B-PP'
p1309
g5
tp1310
a(S'immunisation'
p1311
S'immunisation'
p1312
S'NN'
p1313
S'B-NP'
p1314
g5
tp1315
a(g615
g615
g615
g5
g5
tp1316
a(S'for'
p1317
S'for'
p1318
S'IN'
p1319
S'B-PP'
p1320
g5
tp1321
a(S'each'
p1322
S'each'
p1323
S'DT'
p1324
S'B-NP'
p1325
g5
tp1326
a(S'additional'
p1327
S'additional'
p1328
S'JJ'
p1329
S'I-NP'
p1330
g5
tp1331
a(S'immunisation'
p1332
S'immunisation'
p1333
S'NN'
p1334
S'I-NP'
p1335
g5
tp1336
a(S'in'
p1337
S'in'
p1338
S'IN'
p1339
S'B-PP'
p1340
g5
tp1341
a(S'the'
p1342
S'the'
p1343
S'DT'
p1344
S'B-NP'
p1345
g5
tp1346
a(S'intervention'
p1347
S'intervention'
p1348
S'NN'
p1349
S'I-NP'
p1350
g5
tp1351
a(S'group'
p1352
S'group'
p1353
S'NN'
p1354
S'I-NP'
p1355
g5
tp1356
a(S'the'
p1357
S'the'
p1358
S'DT'
p1359
S'B-NP'
p1360
g5
tp1361
a(S'income'
p1362
S'income'
p1363
S'NN'
p1364
S'I-NP'
p1365
g5
tp1366
a(S'was'
p1367
S'be'
p1368
S'VBD'
p1369
S'B-VP'
p1370
g5
tp1371
a(S'5.20'
p1372
S'5.20'
p1373
S'CD'
p1374
S'B-NP'
p1375
g5
tp1376
a(S'pounds.'
p1377
S'pounds.'
p1378
S'NNS'
p1379
S'I-NP'
p1380
g5
tp1381
a(S'The'
p1382
S'The'
p1383
S'DT'
p1384
S'B-NP'
p1385
g5
tp1386
a(S"'number"
p1387
S"'number"
p1388
S'NN'
p1389
S'I-NP'
p1390
g5
tp1391
a(S'needed'
p1392
S'need'
p1393
S'VBN'
p1394
S'B-VP'
p1395
g5
tp1396
a(S'to'
p1397
S'to'
p1398
S'TO'
p1399
S'B-PP'
p1400
g5
tp1401
a(S'telephone'
p1402
S'telephone'
p1403
S'NN'
p1404
S'B-NP'
p1405
g5
tp1406
a(S"'"
p1407
g1407
S"''"
p1408
g5
g5
tp1409
a(S'was'
p1410
S'be'
p1411
S'VBD'
p1412
S'B-VP'
p1413
g5
tp1414
a(S'17'
p1415
S'17'
p1416
S'CD'
p1417
S'B-NP'
p1418
g5
tp1419
a(g78
g78
g78
g5
g5
tp1420
a(S'CONCLUSION'
p1421
S'CONCLUSION'
p1422
S'NN'
p1423
S'B-NP'
p1424
g5
tp1425
a(S'Uptake'
p1426
S'Uptake'
p1427
S'NN'
p1428
S'I-NP'
p1429
g5
tp1430
a(S'of'
p1431
S'of'
p1432
S'IN'
p1433
S'B-PP'
p1434
g5
tp1435
a(S'influenza'
p1436
S'influenza'
p1437
S'NN'
p1438
S'B-NP'
p1439
g5
tp1440
a(S'immunisation'
p1441
S'immunisation'
p1442
S'NN'
p1443
S'I-NP'
p1444
g5
tp1445
a(S'among'
p1446
S'among'
p1447
S'IN'
p1448
S'B-PP'
p1449
g5
tp1450
a(S'the'
p1451
S'the'
p1452
S'DT'
p1453
S'B-NP'
p1454
g5
tp1455
a(S'low-risk'
p1456
S'low-risk'
p1457
S'JJ'
p1458
S'I-NP'
p1459
g5
tp1460
a(S'older'
p1461
S'old'
p1462
S'JJR'
p1463
S'I-NP'
p1464
g5
tp1465
a(S'population'
p1466
S'population'
p1467
S'NN'
p1468
S'I-NP'
p1469
g5
tp1470
a(S'in'
p1471
S'in'
p1472
S'IN'
p1473
S'B-PP'
p1474
g5
tp1475
a(S'inner-city'
p1476
S'inner-city'
p1477
S'JJ'
p1478
S'B-NP'
p1479
g5
tp1480
a(S'areas'
p1481
S'area'
p1482
S'NNS'
p1483
S'I-NP'
p1484
g5
tp1485
a(S'can'
p1486
S'can'
p1487
S'MD'
p1488
S'B-VP'
p1489
g5
tp1490
a(S'be'
p1491
S'be'
p1492
S'VB'
p1493
S'I-VP'
p1494
g5
tp1495
a(S'boosted'
p1496
S'boost'
p1497
S'VBN'
p1498
S'I-VP'
p1499
g5
tp1500
a(S'by'
p1501
S'by'
p1502
S'IN'
p1503
S'B-PP'
p1504
g5
tp1505
a(S'around'
p1506
S'around'
p1507
S'IN'
p1508
S'B-NP'
p1509
g5
tp1510
a(S'6'
p1511
g1511
S'CD'
p1512
S'I-NP'
p1513
g5
tp1514
a(g160
g160
S'NN'
p1515
S'I-NP'
p1516
g5
tp1517
a(S'using'
p1518
S'use'
p1519
S'VBG'
p1520
S'B-VP'
p1521
g5
tp1522
a(g29
g29
S'DT'
p1523
S'B-NP'
p1524
g5
tp1525
a(S'simple'
p1526
S'simple'
p1527
S'JJ'
p1528
S'I-NP'
p1529
g5
tp1530
a(S'intervention'
p1531
S'intervention'
p1532
S'NN'
p1533
S'I-NP'
p1534
g5
tp1535
a(S'by'
p1536
S'by'
p1537
S'IN'
p1538
S'B-PP'
p1539
g5
tp1540
a(S'receptionists.'
p1541
S'receptionists.'
p1542
S'NN'
p1543
S'B-NP'
p1544
g5
tp1545
a(S'Immunisation'
p1546
S'Immunisation'
p1547
S'NN'
p1548
S'I-NP'
p1549
g5
tp1550
a(S'rates'
p1551
S'rate'
p1552
S'NNS'
p1553
S'I-NP'
p1554
g5
tp1555
a(S'in'
p1556
S'in'
p1557
S'IN'
p1558
S'B-PP'
p1559
g5
tp1560
a(S'this'
p1561
S'this'
p1562
S'DT'
p1563
S'B-NP'
p1564
g5
tp1565
a(S'low-risk'
p1566
S'low-risk'
p1567
S'JJ'
p1568
S'I-NP'
p1569
g5
tp1570
a(S'group'
p1571
S'group'
p1572
S'NN'
p1573
S'I-NP'
p1574
g5
tp1575
a(S'fell'
p1576
S'fall'
p1577
S'VBD'
p1578
S'B-VP'
p1579
g5
tp1580
a(S'well'
p1581
S'well'
p1582
S'RB'
p1583
S'B-ADJP'
p1584
g5
tp1585
a(S'short'
p1586
S'short'
p1587
S'JJ'
p1588
S'I-ADJP'
p1589
g5
tp1590
a(S'of'
p1591
S'of'
p1592
S'IN'
p1593
S'B-PP'
p1594
g5
tp1595
a(S'the'
p1596
S'the'
p1597
S'DT'
p1598
S'B-NP'
p1599
g5
tp1600
a(S'60'
p1601
S'60'
p1602
S'CD'
p1603
S'I-NP'
p1604
g5
tp1605
a(g160
g160
S'NN'
p1606
S'I-NP'
p1607
g5
tp1608
a(S'government'
p1609
S'government'
p1610
S'NN'
p1611
S'I-NP'
p1612
g5
tp1613
a(S'target.'
p1614
S'target.'
p1615
S'NN'
p1616
S'I-NP'
p1617
g5
tp1618
a(S'Improving'
p1619
S'Improving'
p1620
S'NN'
p1621
S'I-NP'
p1622
g5
tp1623
a(S'immunisation'
p1624
S'immunisation'
p1625
S'NN'
p1626
S'I-NP'
p1627
g5
tp1628
a(S'rates'
p1629
S'rate'
p1630
S'NNS'
p1631
S'I-NP'
p1632
g5
tp1633
a(S'will'
p1634
S'will'
p1635
S'MD'
p1636
S'B-VP'
p1637
g5
tp1638
a(S'require'
p1639
S'require'
p1640
S'VB'
p1641
S'I-VP'
p1642
g5
tp1643
a(g29
g29
S'DT'
p1644
S'B-NP'
p1645
g5
tp1646
a(S'sustained'
p1647
S'sustained'
p1648
S'JJ'
p1649
S'I-NP'
p1650
g5
tp1651
a(S'public'
p1652
S'public'
p1653
S'JJ'
p1654
S'I-NP'
p1655
g5
tp1656
a(S'health'
p1657
S'health'
p1658
S'NN'
p1659
S'I-NP'
p1660
g5
tp1661
a(S'campaign.'
p1662
S'campaign.'
p1663
S'NN'
p1664
S'I-NP'
p1665
g5
tp1666
a(S'Retaining'
p1667
S'Retain'
p1668
S'VBG'
p1669
S'B-VP'
p1670
g5
tp1671
a(S'the'
p1672
S'the'
p1673
S'DT'
p1674
S'B-NP'
p1675
g5
tp1676
a(S'item-of-service'
p1677
S'item-of-service'
p1678
S'JJ'
p1679
S'I-NP'
p1680
g5
tp1681
a(S'payments'
p1682
S'payment'
p1683
S'NNS'
p1684
S'I-NP'
p1685
g5
tp1686
a(S'to'
p1687
S'to'
p1688
S'TO'
p1689
S'B-PP'
p1690
g5
tp1691
a(S'practices'
p1692
S'practice'
p1693
S'NNS'
p1694
S'B-NP'
p1695
g5
tp1696
a(S'should'
p1697
S'should'
p1698
S'MD'
p1699
S'B-VP'
p1700
g5
tp1701
a(S'support'
p1702
S'support'
p1703
S'VB'
p1704
S'I-VP'
p1705
g5
tp1706
a(S'costs'
p1707
S'cost'
p1708
S'NNS'
p1709
S'B-NP'
p1710
g5
tp1711
a(S'of'
p1712
S'of'
p1713
S'IN'
p1714
S'B-PP'
p1715
g5
tp1716
a(S'practice-based'
p1717
S'practice-based'
p1718
S'JJ'
p1719
S'B-NP'
p1720
g5
tp1721
a(S'interventions'
p1722
S'intervention'
p1723
S'NNS'
p1724
S'I-NP'
p1725
g5
tp1726
a(g78
g78
g78
g5
g5
tp1727
a.