(lp0
(S'Treatment'
p1
S'Treatment'
p2
S'NN'
p3
S'B-NP'
p4
S'O'
p5
tp6
a(S'of'
p7
S'of'
p8
S'IN'
p9
S'B-PP'
p10
g5
tp11
a(S'multiple'
p12
S'multiple'
p13
S'JJ'
p14
S'B-NP'
p15
g5
tp16
a(S'myeloma'
p17
S'myeloma'
p18
S'NN'
p19
S'I-NP'
p20
g5
tp21
a(S'according'
p22
S'accord'
p23
S'VBG'
p24
S'B-PP'
p25
g5
tp26
a(S'to'
p27
S'to'
p28
S'TO'
p29
S'B-PP'
p30
g5
tp31
a(S'the'
p32
S'the'
p33
S'DT'
p34
S'B-NP'
p35
g5
tp36
a(S'extension'
p37
S'extension'
p38
S'NN'
p39
S'I-NP'
p40
g5
tp41
a(S'of'
p42
S'of'
p43
S'IN'
p44
S'B-PP'
p45
g5
tp46
a(S'the'
p47
S'the'
p48
S'DT'
p49
S'B-NP'
p50
g5
tp51
a(S'disease'
p52
S'disease'
p53
S'NN'
p54
S'I-NP'
p55
g5
tp56
a(S':'
p57
g57
g57
g5
g5
tp58
a(S'a'
p59
g59
S'DT'
p60
S'B-NP'
p61
g5
tp62
a(S'prospective'
p63
S'prospective'
p64
S'JJ'
p65
S'I-NP'
p66
g5
tp67
a(S','
p68
g68
g68
S'I-NP'
p69
g5
tp70
a(S'randomised'
p71
S'randomise'
p72
S'VBN'
p73
S'I-NP'
p74
g5
tp75
a(S'study'
p76
S'study'
p77
S'NN'
p78
S'I-NP'
p79
g5
tp80
a(S'comparing'
p81
S'compare'
p82
S'VBG'
p83
S'B-VP'
p84
g5
tp85
a(g59
g59
S'DT'
p86
S'B-NP'
p87
g5
tp88
a(S'less'
p89
S'less'
p90
S'JJR'
p91
S'I-NP'
p92
g5
tp93
a(S'with'
p94
S'with'
p95
S'IN'
p96
S'B-PP'
p97
g5
tp98
a(g59
g59
S'DT'
p99
S'B-NP'
p100
g5
tp101
a(S'more'
p102
S'more'
p103
S'RBR'
p104
S'I-NP'
p105
g5
tp106
a(S'aggressive'
p107
S'aggressive'
p108
S'JJ'
p109
S'I-NP'
p110
g5
tp111
a(S'cystostatic'
p112
S'cystostatic'
p113
S'JJ'
p114
S'I-NP'
p115
g5
tp116
a(S'policy.'
p117
S'policy.'
p118
S'NN'
p119
S'I-NP'
p120
g5
tp121
a(S'Cooperative'
p122
S'Cooperative'
p123
S'NNP'
p124
S'I-NP'
p125
g5
tp126
a(S'Group'
p127
S'Group'
p128
S'NNP'
p129
S'I-NP'
p130
g5
tp131
a(S'of'
p132
S'of'
p133
S'IN'
p134
S'B-PP'
p135
g5
tp136
a(S'Study'
p137
S'Study'
p138
S'NNP'
p139
S'B-NP'
p140
g5
tp141
a(S'and'
p142
S'and'
p143
S'CC'
p144
S'I-NP'
p145
g5
tp146
a(S'Treatment'
p147
S'Treatment'
p148
S'NNP'
p149
S'I-NP'
p150
g5
tp151
a(S'of'
p152
S'of'
p153
S'IN'
p154
S'B-PP'
p155
g5
tp156
a(S'Multiple'
p157
S'Multiple'
p158
S'JJ'
p159
S'B-NP'
p160
g5
tp161
a(S'Myeloma'
p162
S'Myeloma'
p163
S'NN'
p164
S'I-NP'
p165
g5
tp166
a(S'.'
p167
g167
g167
g5
g5
tp168
a(S'The'
p169
S'The'
p170
S'DT'
p171
S'B-NP'
p172
g5
tp173
a(S'purpose'
p174
S'purpose'
p175
S'NN'
p176
S'I-NP'
p177
g5
tp178
a(S'of'
p179
S'of'
p180
S'IN'
p181
S'B-PP'
p182
g5
tp183
a(S'the'
p184
S'the'
p185
S'DT'
p186
S'B-NP'
p187
g5
tp188
a(S'study'
p189
S'study'
p190
S'NN'
p191
S'I-NP'
p192
g5
tp193
a(S'was'
p194
S'be'
p195
S'VBD'
p196
S'B-VP'
p197
g5
tp198
a(S'to'
p199
S'to'
p200
S'TO'
p201
S'B-VP'
p202
g5
tp203
a(S'ascertain'
p204
S'ascertain'
p205
S'VB'
p206
S'I-VP'
p207
g5
tp208
a(S'whether'
p209
S'whether'
p210
S'IN'
p211
S'B-SBAR'
p212
g5
tp213
a(S'the'
p214
S'the'
p215
S'DT'
p216
S'B-NP'
p217
g5
tp218
a(S'prognostic'
p219
S'prognostic'
p220
S'JJ'
p221
S'I-NP'
p222
g5
tp223
a(S'significance'
p224
S'significance'
p225
S'NN'
p226
S'I-NP'
p227
g5
tp228
a(S'of'
p229
S'of'
p230
S'IN'
p231
S'B-PP'
p232
g5
tp233
a(S'staging'
p234
S'staging'
p235
S'NN'
p236
S'B-NP'
p237
g5
tp238
a(S'in'
p239
S'in'
p240
S'IN'
p241
S'B-PP'
p242
g5
tp243
a(S'multiple'
p244
S'multiple'
p245
S'JJ'
p246
S'B-NP'
p247
g5
tp248
a(S'myeloma'
p249
S'myeloma'
p250
S'NN'
p251
S'I-NP'
p252
g5
tp253
a(S'('
p254
g254
g254
g5
g5
tp255
a(S'MM'
p256
S'MM'
p257
S'NN'
p258
S'B-NP'
p259
g5
tp260
a(S')'
p261
g261
g261
g5
g5
tp262
a(S'is'
p263
S'be'
p264
S'VBZ'
p265
S'B-VP'
p266
g5
tp267
a(S'influenced'
p268
S'influence'
p269
S'VBN'
p270
S'I-VP'
p271
g5
tp272
a(S'by'
p273
S'by'
p274
S'IN'
p275
S'B-PP'
p276
g5
tp277
a(S'the'
p278
S'the'
p279
S'DT'
p280
S'B-NP'
p281
g5
tp282
a(S'aggressiveness'
p283
S'aggressiveness'
p284
S'NN'
p285
S'I-NP'
p286
g5
tp287
a(S'of'
p288
S'of'
p289
S'IN'
p290
S'B-PP'
p291
g5
tp292
a(S'effective'
p293
S'effective'
p294
S'JJ'
p295
S'B-NP'
p296
g5
tp297
a(S'induction'
p298
S'induction'
p299
S'NN'
p300
S'I-NP'
p301
g5
tp302
a(S'treatment'
p303
S'treatment'
p304
S'NN'
p305
S'I-NP'
p306
g5
tp307
a(S'and/or'
p308
S'and/or'
p309
S'CC'
p310
S'B-PP'
p311
g5
tp312
a(S'by'
p313
S'by'
p314
S'IN'
p315
S'B-PP'
p316
g5
tp317
a(S'continuing'
p318
S'continue'
p319
S'VBG'
p320
S'B-VP'
p321
g5
tp322
a(S'or'
p323
S'or'
p324
S'CC'
p325
S'I-VP'
p326
g5
tp327
a(S'discontinuing'
p328
S'discontinue'
p329
S'VBG'
p330
S'I-VP'
p331
g5
tp332
a(S'maintenance'
p333
S'maintenance'
p334
S'NN'
p335
S'B-NP'
p336
g5
tp337
a(S'chemotherapy.'
p338
S'chemotherapy.'
p339
S'NN'
p340
S'I-NP'
p341
g5
tp342
a(S'Patients'
p343
S'Patient'
p344
S'NNS'
p345
S'I-NP'
p346
g5
tp347
a(S'with'
p348
S'with'
p349
S'IN'
p350
S'B-PP'
p351
g5
tp352
a(S'untreated'
p353
S'untreated'
p354
S'JJ'
p355
S'B-NP'
p356
g5
tp357
a(S'stage'
p358
S'stage'
p359
S'NN'
p360
S'I-NP'
p361
g5
tp362
a(S'I'
p363
g363
S'CD'
p364
S'I-NP'
p365
g5
tp366
a(S'MM'
p367
S'MM'
p368
S'NN'
p369
S'I-NP'
p370
g5
tp371
a(g254
g254
g254
g5
g5
tp372
a(S'defined'
p373
S'define'
p374
S'VBN'
p375
S'B-VP'
p376
g5
tp377
a(S'according'
p378
S'accord'
p379
S'VBG'
p380
S'B-PP'
p381
g5
tp382
a(S'to'
p383
S'to'
p384
S'TO'
p385
S'B-PP'
p386
g5
tp387
a(S'Durie'
p388
S'Durie'
p389
S'NNP'
p390
S'B-NP'
p391
g5
tp392
a(S'and'
p393
S'and'
p394
S'CC'
p395
S'I-NP'
p396
g5
tp397
a(S'Salmon'
p398
S'Salmon'
p399
S'NNP'
p400
S'I-NP'
p401
g5
tp402
a(g261
g261
g261
g5
g5
tp403
a(S'were'
p404
S'be'
p405
S'VBD'
p406
S'B-VP'
p407
g5
tp408
a(S'randomised'
p409
S'randomise'
p410
S'VBN'
p411
S'I-VP'
p412
g5
tp413
a(S'between'
p414
S'between'
p415
S'IN'
p416
S'B-PP'
p417
g5
tp418
a(S'being'
p419
S'be'
p420
S'VBG'
p421
S'B-VP'
p422
g5
tp423
a(S'followed'
p424
S'follow'
p425
S'VBN'
p426
S'I-VP'
p427
g5
tp428
a(S'without'
p429
S'without'
p430
S'IN'
p431
S'B-PP'
p432
g5
tp433
a(S'cytostatics'
p434
S'cytostatic'
p435
S'NNS'
p436
S'B-NP'
p437
g5
tp438
a(S'until'
p439
S'until'
p440
S'IN'
p441
S'B-SBAR'
p442
g5
tp443
a(S'the'
p444
S'the'
p445
S'DT'
p446
S'B-NP'
p447
g5
tp448
a(S'disease'
p449
S'disease'
p450
S'NN'
p451
S'I-NP'
p452
g5
tp453
a(S'progressed'
p454
S'progress'
p455
S'VBD'
p456
S'B-VP'
p457
g5
tp458
a(S'and'
p459
S'and'
p460
S'CC'
p461
g5
g5
tp462
a(S'receiving'
p463
S'receive'
p464
S'VBG'
p465
S'B-VP'
p466
g5
tp467
a(S'six'
p468
S'six'
p469
S'CD'
p470
S'B-NP'
p471
g5
tp472
a(S'courses'
p473
S'course'
p474
S'NNS'
p475
S'I-NP'
p476
g5
tp477
a(S'of'
p478
S'of'
p479
S'IN'
p480
S'B-PP'
p481
g5
tp482
a(S'melphalan'
p483
S'melphalan'
p484
S'NN'
p485
S'B-NP'
p486
g5
tp487
a(S'and'
p488
S'and'
p489
S'CC'
p490
g5
g5
tp491
a(S'prednisone'
p492
S'prednisone'
p493
S'NN'
p494
S'B-NP'
p495
g5
tp496
a(g254
g254
g254
g5
g5
tp497
a(S'MP-P'
p498
S'MP-P'
p499
S'NN'
p500
S'B-NP'
p501
S'B-protein'
p502
tp503
a(g261
g261
g261
g5
g5
tp504
a(S'just'
p505
S'just'
p506
S'RB'
p507
S'B-ADVP'
p508
g5
tp509
a(S'after'
p510
S'after'
p511
S'IN'
p512
S'B-PP'
p513
g5
tp514
a(S'diagnosis'
p515
S'diagnosis'
p516
S'NN'
p517
S'B-NP'
p518
g5
tp519
a(S';'
p520
g520
g57
g5
g5
tp521
a(S'stage'
p522
S'stage'
p523
S'NN'
p524
S'B-NP'
p525
g5
tp526
a(S'II'
p527
S'II'
p528
S'CD'
p529
S'B-NP'
p530
g5
tp531
a(S'patients'
p532
S'patient'
p533
S'NNS'
p534
S'I-NP'
p535
g5
tp536
a(S'were'
p537
S'be'
p538
S'VBD'
p539
S'B-VP'
p540
g5
tp541
a(S'uniformly'
p542
S'uniformly'
p543
S'RB'
p544
S'I-VP'
p545
g5
tp546
a(S'treated'
p547
S'treat'
p548
S'VBN'
p549
S'I-VP'
p550
g5
tp551
a(S'with'
p552
S'with'
p553
S'IN'
p554
S'B-PP'
p555
g5
tp556
a(S'MPH-P'
p557
S'MPH-P'
p558
S'NN'
p559
S'B-NP'
p560
S'B-protein'
p561
tp562
a(S'and'
p563
S'and'
p564
S'CC'
p565
S'I-NP'
p566
g5
tp567
a(S'stage'
p568
S'stage'
p569
S'NN'
p570
S'I-NP'
p571
g5
tp572
a(S'III'
p573
S'III'
p574
S'CD'
p575
S'B-NP'
p576
g5
tp577
a(S'patients'
p578
S'patient'
p579
S'NNS'
p580
S'I-NP'
p581
g5
tp582
a(S'were'
p583
S'be'
p584
S'VBD'
p585
S'B-VP'
p586
g5
tp587
a(S'randomised'
p588
S'randomise'
p589
S'VBN'
p590
S'I-VP'
p591
g5
tp592
a(S'between'
p593
S'between'
p594
S'IN'
p595
S'B-PP'
p596
g5
tp597
a(S'MPH-P'
p598
S'MPH-P'
p599
S'NN'
p600
S'B-NP'
p601
S'B-protein'
p602
tp603
a(S'and'
p604
S'and'
p605
S'CC'
p606
g5
g5
tp607
a(S'four'
p608
S'four'
p609
S'CD'
p610
S'B-NP'
p611
g5
tp612
a(S'courses'
p613
S'course'
p614
S'NNS'
p615
S'I-NP'
p616
g5
tp617
a(S'of'
p618
S'of'
p619
S'IN'
p620
S'B-PP'
p621
g5
tp622
a(S'combination'
p623
S'combination'
p624
S'NN'
p625
S'B-NP'
p626
g5
tp627
a(S'chemotherapy'
p628
S'chemotherapy'
p629
S'NN'
p630
S'I-NP'
p631
g5
tp632
a(S'with'
p633
S'with'
p634
S'IN'
p635
S'B-PP'
p636
g5
tp637
a(S'Peptichemio'
p638
S'Peptichemio'
p639
S'NNP'
p640
S'B-NP'
p641
g5
tp642
a(g68
g68
g68
g5
g5
tp643
a(S'vincristine'
p644
S'vincristine'
p645
S'NN'
p646
S'B-NP'
p647
g5
tp648
a(S'and'
p649
S'and'
p650
S'CC'
p651
g5
g5
tp652
a(S'prednisone'
p653
S'prednisone'
p654
S'NN'
p655
S'B-NP'
p656
g5
tp657
a(g254
g254
g254
g5
g5
tp658
a(S'PTC-VCR-P'
p659
S'PTC-VCR-P'
p660
S'NN'
p661
S'B-NP'
p662
g5
tp663
a(g261
g261
g261
g5
g5
tp664
a(g167
g167
g167
g5
g5
tp665
a(S'Within'
p666
S'Within'
p667
S'IN'
p668
S'B-PP'
p669
g5
tp670
a(S'each'
p671
S'each'
p672
S'DT'
p673
S'B-NP'
p674
g5
tp675
a(S'stage'
p676
S'stage'
p677
S'NN'
p678
S'I-NP'
p679
g5
tp680
a(g68
g68
g68
g5
g5
tp681
a(S'responsive'
p682
S'responsive'
p683
S'JJ'
p684
S'B-NP'
p685
g5
tp686
a(S'patients'
p687
S'patient'
p688
S'NNS'
p689
S'I-NP'
p690
g5
tp691
a(S'were'
p692
S'be'
p693
S'VBD'
p694
S'B-VP'
p695
g5
tp696
a(S'randomised'
p697
S'randomise'
p698
S'VBN'
p699
S'I-VP'
p700
g5
tp701
a(S'between'
p702
S'between'
p703
S'IN'
p704
S'B-PP'
p705
g5
tp706
a(S'receiving'
p707
S'receive'
p708
S'VBG'
p709
S'B-VP'
p710
g5
tp711
a(S'additional'
p712
S'additional'
p713
S'JJ'
p714
S'B-NP'
p715
g5
tp716
a(S'therapy'
p717
S'therapy'
p718
S'NN'
p719
S'I-NP'
p720
g5
tp721
a(S'only'
p722
S'only'
p723
S'RB'
p724
S'B-SBAR'
p725
g5
tp726
a(S'until'
p727
S'until'
p728
S'IN'
p729
S'I-SBAR'
p730
g5
tp731
a(S'maximal'
p732
S'maximal'
p733
S'JJ'
p734
S'B-NP'
p735
g5
tp736
a(S'tumour'
p737
S'tumour'
p738
S'NN'
p739
S'I-NP'
p740
g5
tp741
a(S'reduction'
p742
S'reduction'
p743
S'NN'
p744
S'I-NP'
p745
g5
tp746
a(S'was'
p747
S'be'
p748
S'VBD'
p749
S'B-VP'
p750
g5
tp751
a(S'reached'
p752
S'reach'
p753
S'VBN'
p754
S'I-VP'
p755
g5
tp756
a(g254
g254
g254
g5
g5
tp757
a(S'plateau'
p758
S'plateau'
p759
S'NN'
p760
S'B-NP'
p761
g5
tp762
a(S'phase'
p763
S'phase'
p764
S'NN'
p765
S'I-NP'
p766
g5
tp767
a(g261
g261
g261
g5
g5
tp768
a(S'and'
p769
S'and'
p770
S'CC'
p771
g5
g5
tp772
a(S'continuing'
p773
S'continue'
p774
S'VBG'
p775
S'B-NP'
p776
g5
tp777
a(S'induction'
p778
S'induction'
p779
S'NN'
p780
S'I-NP'
p781
g5
tp782
a(S'therapy'
p783
S'therapy'
p784
S'NN'
p785
S'I-NP'
p786
g5
tp787
a(S'indefinitely'
p788
S'indefinitely'
p789
S'RB'
p790
S'B-ADVP'
p791
g5
tp792
a(S'until'
p793
S'until'
p794
S'IN'
p795
S'B-PP'
p796
g5
tp797
a(S'relapse.'
p798
S'relapse.'
p799
S'NN'
p800
S'B-NP'
p801
g5
tp802
a(S'With'
p803
S'With'
p804
S'IN'
p805
S'B-PP'
p806
g5
tp807
a(S'resistant'
p808
S'resistant'
p809
S'JJ'
p810
S'B-NP'
p811
g5
tp812
a(g68
g68
g68
S'I-NP'
p813
g5
tp814
a(S'progressive'
p815
S'progressive'
p816
S'JJ'
p817
S'I-NP'
p818
g5
tp819
a(S'or'
p820
S'or'
p821
S'CC'
p822
S'I-NP'
p823
g5
tp824
a(S'relapsing'
p825
S'relapse'
p826
S'VBG'
p827
S'I-NP'
p828
g5
tp829
a(S'disease'
p830
S'disease'
p831
S'NN'
p832
S'B-NP'
p833
g5
tp834
a(g68
g68
g68
g5
g5
tp835
a(S'patients'
p836
S'patient'
p837
S'NNS'
p838
S'B-NP'
p839
g5
tp840
a(S'originally'
p841
S'originally'
p842
S'RB'
p843
S'B-VP'
p844
g5
tp845
a(S'treated'
p846
S'treat'
p847
S'VBN'
p848
S'I-VP'
p849
g5
tp850
a(S'with'
p851
S'with'
p852
S'IN'
p853
S'B-PP'
p854
g5
tp855
a(S'MPH-P'
p856
S'MPH-P'
p857
S'NN'
p858
S'B-NP'
p859
S'B-protein'
p860
tp861
a(S'for'
p862
S'for'
p863
S'IN'
p864
S'B-PP'
p865
g5
tp866
a(S'induction'
p867
S'induction'
p868
S'NN'
p869
S'B-NP'
p870
g5
tp871
a(S'received'
p872
S'receive'
p873
S'VBD'
p874
S'B-VP'
p875
g5
tp876
a(S'combination'
p877
S'combination'
p878
S'NN'
p879
S'B-NP'
p880
g5
tp881
a(S'chemotherapy'
p882
S'chemotherapy'
p883
S'NN'
p884
S'I-NP'
p885
g5
tp886
a(S'and'
p887
S'and'
p888
S'CC'
p889
g5
g5
tp890
a(S'vice'
p891
S'vice'
p892
S'NN'
p893
S'B-NP'
p894
g5
tp895
a(S'versa.'
p896
S'versa.'
p897
S'RB'
p898
S'B-ADVP'
p899
g5
tp900
a(S'The'
p901
S'The'
p902
S'DT'
p903
S'B-NP'
p904
g5
tp905
a(S'overall'
p906
S'overall'
p907
S'JJ'
p908
S'I-NP'
p909
g5
tp910
a(S'first'
p911
S'first'
p912
S'JJ'
p913
S'I-NP'
p914
g5
tp915
a(S'response'
p916
S'response'
p917
S'NN'
p918
S'I-NP'
p919
g5
tp920
a(S'rate'
p921
S'rate'
p922
S'NN'
p923
S'I-NP'
p924
g5
tp925
a(S'was'
p926
S'be'
p927
S'VBD'
p928
S'B-VP'
p929
g5
tp930
a(S'43.8'
p931
S'43.8'
p932
S'CD'
p933
S'B-NP'
p934
g5
tp935
a(S'%'
p936
g936
S'NN'
p937
S'I-NP'
p938
g5
tp939
a(g254
g254
g254
g5
g5
tp940
a(S'42.2'
p941
S'42.2'
p942
S'CD'
p943
S'B-NP'
p944
g5
tp945
a(g936
g936
S'NN'
p946
S'I-NP'
p947
g5
tp948
a(S'in'
p949
S'in'
p950
S'IN'
p951
S'B-PP'
p952
g5
tp953
a(S'206'
p954
S'206'
p955
S'CD'
p956
S'B-NP'
p957
g5
tp958
a(S'stage'
p959
S'stage'
p960
S'NN'
p961
S'I-NP'
p962
g5
tp963
a(g363
g363
S'CD'
p964
S'I-NP'
p965
g5
tp966
a(g68
g68
g68
S'I-NP'
p967
g5
tp968
a(S'II'
p969
S'II'
p970
S'CD'
p971
S'I-NP'
p972
g5
tp973
a(S'and'
p974
S'and'
p975
S'CC'
p976
S'I-NP'
p977
g5
tp978
a(S'III'
p979
S'III'
p980
S'CD'
p981
S'I-NP'
p982
g5
tp983
a(S'patients'
p984
S'patient'
p985
S'NNS'
p986
S'I-NP'
p987
g5
tp988
a(S'treated'
p989
S'treat'
p990
S'VBN'
p991
S'B-VP'
p992
g5
tp993
a(S'with'
p994
S'with'
p995
S'IN'
p996
S'B-PP'
p997
g5
tp998
a(S'MPH-P'
p999
S'MPH-P'
p1000
S'NN'
p1001
S'B-NP'
p1002
S'B-protein'
p1003
tp1004
a(S'and'
p1005
S'and'
p1006
S'CC'
p1007
g5
g5
tp1008
a(S'48.0'
p1009
S'48.0'
p1010
S'CD'
p1011
S'B-NP'
p1012
g5
tp1013
a(g936
g936
S'NN'
p1014
S'I-NP'
p1015
g5
tp1016
a(S'in'
p1017
S'in'
p1018
S'IN'
p1019
S'B-PP'
p1020
g5
tp1021
a(S'75'
p1022
S'75'
p1023
S'CD'
p1024
S'B-NP'
p1025
g5
tp1026
a(S'stage'
p1027
S'stage'
p1028
S'NN'
p1029
S'I-NP'
p1030
g5
tp1031
a(S'III'
p1032
S'III'
p1033
S'CD'
p1034
S'B-NP'
p1035
g5
tp1036
a(S'patients'
p1037
S'patient'
p1038
S'NNS'
p1039
S'I-NP'
p1040
g5
tp1041
a(S'treated'
p1042
S'treat'
p1043
S'VBN'
p1044
S'B-VP'
p1045
g5
tp1046
a(S'with'
p1047
S'with'
p1048
S'IN'
p1049
S'B-PP'
p1050
g5
tp1051
a(S'combination'
p1052
S'combination'
p1053
S'NN'
p1054
S'B-NP'
p1055
g5
tp1056
a(S'chemotherapy'
p1057
S'chemotherapy'
p1058
S'NN'
p1059
S'I-NP'
p1060
g5
tp1061
a(g68
g68
g68
g5
g5
tp1062
a(S'P'
p1063
g1063
S'NN'
p1064
S'B-NP'
p1065
g5
tp1066
a(S'='
p1067
g1067
S'SYM'
p1068
S'B-VP'
p1069
g5
tp1070
a(S'NS'
p1071
S'NS'
p1072
S'NN'
p1073
S'B-NP'
p1074
g5
tp1075
a(g261
g261
g261
g5
g5
tp1076
a(g167
g167
g167
g5
g5
tp1077
a(S'Combination'
p1078
S'Combination'
p1079
S'NN'
p1080
S'B-NP'
p1081
g5
tp1082
a(S'chemotherapy'
p1083
S'chemotherapy'
p1084
S'NN'
p1085
S'I-NP'
p1086
g5
tp1087
a(S'was'
p1088
S'be'
p1089
S'VBD'
p1090
S'B-VP'
p1091
g5
tp1092
a(S'more'
p1093
S'more'
p1094
S'RBR'
p1095
S'B-ADJP'
p1096
g5
tp1097
a(S'myelotoxic'
p1098
S'myelotoxic'
p1099
S'JJ'
p1100
S'I-ADJP'
p1101
g5
tp1102
a(S'than'
p1103
S'than'
p1104
S'IN'
p1105
S'B-PP'
p1106
g5
tp1107
a(S'MPH-P'
p1108
S'MPH-P'
p1109
S'NN'
p1110
S'B-NP'
p1111
S'B-protein'
p1112
tp1113
a(S'and'
p1114
S'and'
p1115
S'CC'
p1116
g5
g5
tp1117
a(g68
g68
g68
g5
g5
tp1118
a(S'in'
p1119
S'in'
p1120
S'IN'
p1121
S'B-PP'
p1122
g5
tp1123
a(S'particular'
p1124
S'particular'
p1125
S'JJ'
p1126
S'B-ADJP'
p1127
g5
tp1128
a(g68
g68
g68
g5
g5
tp1129
a(S'caused'
p1130
S'cause'
p1131
S'VBD'
p1132
S'B-VP'
p1133
g5
tp1134
a(S'more'
p1135
S'more'
p1136
S'RBR'
p1137
S'B-NP'
p1138
g5
tp1139
a(S'non-haematological'
p1140
S'non-haematological'
p1141
S'JJ'
p1142
S'I-NP'
p1143
g5
tp1144
a(S'side-effects.'
p1145
S'side-effects.'
p1146
S'NN'
p1147
S'I-NP'
p1148
g5
tp1149
a(S'Both'
p1150
S'Both'
p1151
S'CC'
p1152
g5
g5
tp1153
a(S'the'
p1154
S'the'
p1155
S'DT'
p1156
S'B-NP'
p1157
g5
tp1158
a(S'less'
p1159
S'less'
p1160
S'JJR'
p1161
S'I-NP'
p1162
g5
tp1163
a(S'and'
p1164
S'and'
p1165
S'CC'
p1166
g5
g5
tp1167
a(S'the'
p1168
S'the'
p1169
S'DT'
p1170
S'B-NP'
p1171
g5
tp1172
a(S'more'
p1173
S'more'
p1174
S'RBR'
p1175
S'I-NP'
p1176
g5
tp1177
a(S'aggressive'
p1178
S'aggressive'
p1179
S'JJ'
p1180
S'I-NP'
p1181
g5
tp1182
a(S'induction'
p1183
S'induction'
p1184
S'NN'
p1185
S'I-NP'
p1186
g5
tp1187
a(S'policies'
p1188
S'policy'
p1189
S'NNS'
p1190
S'I-NP'
p1191
g5
tp1192
a(S'gave'
p1193
S'give'
p1194
S'VBD'
p1195
S'B-VP'
p1196
g5
tp1197
a(S'the'
p1198
S'the'
p1199
S'DT'
p1200
S'B-NP'
p1201
g5
tp1202
a(S'same'
p1203
S'same'
p1204
S'JJ'
p1205
S'I-NP'
p1206
g5
tp1207
a(S'disease'
p1208
S'disease'
p1209
S'NN'
p1210
S'I-NP'
p1211
g5
tp1212
a(S'control.'
p1213
S'control.'
p1214
S'NN'
p1215
S'I-NP'
p1216
g5
tp1217
a(S'Progression'
p1218
S'Progression'
p1219
S'NN'
p1220
S'I-NP'
p1221
g5
tp1222
a(S'of'
p1223
S'of'
p1224
S'IN'
p1225
S'B-PP'
p1226
g5
tp1227
a(S'disease'
p1228
S'disease'
p1229
S'NN'
p1230
S'B-NP'
p1231
g5
tp1232
a(S'was'
p1233
S'be'
p1234
S'VBD'
p1235
S'B-VP'
p1236
g5
tp1237
a(S'statistically'
p1238
S'statistically'
p1239
S'RB'
p1240
S'B-ADJP'
p1241
g5
tp1242
a(S'similar'
p1243
S'similar'
p1244
S'JJ'
p1245
S'I-ADJP'
p1246
g5
tp1247
a(S'in'
p1248
S'in'
p1249
S'IN'
p1250
S'B-PP'
p1251
g5
tp1252
a(S'stage'
p1253
S'stage'
p1254
S'NN'
p1255
S'B-NP'
p1256
g5
tp1257
a(g363
g363
S'CD'
p1258
S'B-NP'
p1259
g5
tp1260
a(S'patients'
p1261
S'patient'
p1262
S'NNS'
p1263
S'I-NP'
p1264
g5
tp1265
a(S'who'
p1266
S'who'
p1267
S'WP'
p1268
S'B-NP'
p1269
g5
tp1270
a(S'were'
p1271
S'be'
p1272
S'VBD'
p1273
S'B-VP'
p1274
g5
tp1275
a(S'initially'
p1276
S'initially'
p1277
S'RB'
p1278
S'I-VP'
p1279
g5
tp1280
a(S'left'
p1281
S'leave'
p1282
S'VBN'
p1283
S'I-VP'
p1284
g5
tp1285
a(S'untreated'
p1286
S'untreated'
p1287
S'JJ'
p1288
S'B-ADJP'
p1289
g5
tp1290
a(S'and'
p1291
S'and'
p1292
S'CC'
p1293
g5
g5
tp1294
a(S'in'
p1295
S'in'
p1296
S'IN'
p1297
S'B-PP'
p1298
g5
tp1299
a(S't'
p1300
g1300
S'NN'
p1301
S'B-NP'
p1302
g5
tp1303
a(S'hose'
p1304
S'hose'
p1305
S'NN'
p1306
S'I-NP'
p1307
g5
tp1308
a(S'who'
p1309
S'who'
p1310
S'WP'
p1311
S'B-NP'
p1312
g5
tp1313
a(S'received'
p1314
S'receive'
p1315
S'VBD'
p1316
S'B-VP'
p1317
g5
tp1318
a(S'MPH-P'
p1319
S'MPH-P'
p1320
S'NN'
p1321
S'B-NP'
p1322
S'B-protein'
p1323
tp1324
a(S'just'
p1325
S'just'
p1326
S'RB'
p1327
S'B-ADVP'
p1328
g5
tp1329
a(S'after'
p1330
S'after'
p1331
S'IN'
p1332
S'B-PP'
p1333
g5
tp1334
a(S'diagnosis'
p1335
S'diagnosis'
p1336
S'NN'
p1337
S'B-NP'
p1338
g5
tp1339
a(g520
g520
g57
g5
g5
tp1340
a(S'median'
p1341
S'median'
p1342
S'JJ'
p1343
S'B-NP'
p1344
g5
tp1345
a(S'duration'
p1346
S'duration'
p1347
S'NN'
p1348
S'I-NP'
p1349
g5
tp1350
a(S'of'
p1351
S'of'
p1352
S'IN'
p1353
S'B-PP'
p1354
g5
tp1355
a(S'first'
p1356
S'first'
p1357
S'JJ'
p1358
S'B-NP'
p1359
g5
tp1360
a(S'response'
p1361
S'response'
p1362
S'NN'
p1363
S'I-NP'
p1364
g5
tp1365
a(S'was'
p1366
S'be'
p1367
S'VBD'
p1368
S'B-VP'
p1369
g5
tp1370
a(S'similar'
p1371
S'similar'
p1372
S'JJ'
p1373
S'B-ADJP'
p1374
g5
tp1375
a(S'in'
p1376
S'in'
p1377
S'IN'
p1378
S'B-PP'
p1379
g5
tp1380
a(S'stage'
p1381
S'stage'
p1382
S'NN'
p1383
S'B-NP'
p1384
g5
tp1385
a(S'III'
p1386
S'III'
p1387
S'CD'
p1388
S'B-NP'
p1389
g5
tp1390
a(S'patients'
p1391
S'patient'
p1392
S'NNS'
p1393
S'I-NP'
p1394
g5
tp1395
a(S'receiving'
p1396
S'receive'
p1397
S'VBG'
p1398
S'B-VP'
p1399
g5
tp1400
a(S'MPH-P'
p1401
S'MPH-P'
p1402
S'NN'
p1403
S'B-NP'
p1404
S'B-protein'
p1405
tp1406
a(S'and'
p1407
S'and'
p1408
S'CC'
p1409
S'B-PP'
p1410
g5
tp1411
a(S'in'
p1412
S'in'
p1413
S'IN'
p1414
S'B-PP'
p1415
g5
tp1416
a(S'those'
p1417
S'those'
p1418
S'DT'
p1419
S'B-NP'
p1420
g5
tp1421
a(S'on'
p1422
S'on'
p1423
S'IN'
p1424
S'B-PP'
p1425
g5
tp1426
a(S'combination'
p1427
S'combination'
p1428
S'NN'
p1429
S'B-NP'
p1430
g5
tp1431
a(S'chemotherapy.'
p1432
S'chemotherapy.'
p1433
S'NN'
p1434
S'I-NP'
p1435
g5
tp1436
a(S'In'
p1437
S'In'
p1438
S'IN'
p1439
S'B-PP'
p1440
g5
tp1441
a(S'all'
p1442
S'all'
p1443
S'DT'
p1444
S'B-NP'
p1445
g5
tp1446
a(S'stages'
p1447
S'stage'
p1448
S'NNS'
p1449
S'I-NP'
p1450
g5
tp1451
a(g68
g68
g68
g5
g5
tp1452
a(S'discontinuing'
p1453
S'discontinue'
p1454
S'VBG'
p1455
S'B-VP'
p1456
g5
tp1457
a(S'or'
p1458
S'or'
p1459
S'CC'
p1460
S'I-VP'
p1461
g5
tp1462
a(S'continuing'
p1463
S'continue'
p1464
S'VBG'
p1465
S'I-VP'
p1466
g5
tp1467
a(S'maintenance'
p1468
S'maintenance'
p1469
S'NN'
p1470
S'B-NP'
p1471
g5
tp1472
a(S'did'
p1473
S'do'
p1474
S'VBD'
p1475
S'B-VP'
p1476
g5
tp1477
a(S'not'
p1478
S'not'
p1479
S'RB'
p1480
S'I-VP'
p1481
g5
tp1482
a(S'alter'
p1483
S'alter'
p1484
S'VB'
p1485
S'I-VP'
p1486
g5
tp1487
a(S'the'
p1488
S'the'
p1489
S'DT'
p1490
S'B-NP'
p1491
g5
tp1492
a(S'median'
p1493
S'median'
p1494
S'JJ'
p1495
S'I-NP'
p1496
g5
tp1497
a(S'duration'
p1498
S'duration'
p1499
S'NN'
p1500
S'I-NP'
p1501
g5
tp1502
a(S'of'
p1503
S'of'
p1504
S'IN'
p1505
S'B-PP'
p1506
g5
tp1507
a(S'first'
p1508
S'first'
p1509
S'JJ'
p1510
S'B-NP'
p1511
g5
tp1512
a(S'response.'
p1513
S'response.'
p1514
S'NN'
p1515
S'I-NP'
p1516
g5
tp1517
a(S'The'
p1518
S'The'
p1519
S'DT'
p1520
S'B-NP'
p1521
g5
tp1522
a(S'overall'
p1523
S'overall'
p1524
S'JJ'
p1525
S'I-NP'
p1526
g5
tp1527
a(S'second'
p1528
S'second'
p1529
S'JJ'
p1530
S'I-NP'
p1531
g5
tp1532
a(S'response'
p1533
S'response'
p1534
S'NN'
p1535
S'I-NP'
p1536
g5
tp1537
a(S'rate'
p1538
S'rate'
p1539
S'NN'
p1540
S'I-NP'
p1541
g5
tp1542
a(S'was'
p1543
S'be'
p1544
S'VBD'
p1545
S'B-VP'
p1546
g5
tp1547
a(S'28.5'
p1548
S'28.5'
p1549
S'CD'
p1550
S'B-NP'
p1551
g5
tp1552
a(g936
g936
S'NN'
p1553
S'I-NP'
p1554
g5
tp1555
a(g254
g254
g254
g5
g5
tp1556
a(S'34.0'
p1557
S'34.0'
p1558
S'CD'
p1559
S'B-NP'
p1560
g5
tp1561
a(g936
g936
S'NN'
p1562
S'I-NP'
p1563
g5
tp1564
a(S'to'
p1565
S'to'
p1566
S'TO'
p1567
S'B-PP'
p1568
g5
tp1569
a(S'MPH-P'
p1570
S'MPH-P'
p1571
S'NN'
p1572
S'B-NP'
p1573
S'B-protein'
p1574
tp1575
a(S'and'
p1576
S'and'
p1577
S'CC'
p1578
g5
g5
tp1579
a(S'25.3'
p1580
S'25.3'
p1581
S'CD'
p1582
S'B-NP'
p1583
g5
tp1584
a(g936
g936
S'NN'
p1585
S'I-NP'
p1586
g5
tp1587
a(S'to'
p1588
S'to'
p1589
S'TO'
p1590
S'B-PP'
p1591
g5
tp1592
a(S'combination'
p1593
S'combination'
p1594
S'NN'
p1595
S'B-NP'
p1596
g5
tp1597
a(S'chemotherapy'
p1598
S'chemotherapy'
p1599
S'NN'
p1600
S'I-NP'
p1601
g5
tp1602
a(g68
g68
g68
g5
g5
tp1603
a(g1063
g1063
S'NN'
p1604
S'B-NP'
p1605
g5
tp1606
a(g1067
g1067
S'SYM'
p1607
S'B-VP'
p1608
g5
tp1609
a(S'NS'
p1610
S'NS'
p1611
S'NN'
p1612
S'B-NP'
p1613
g5
tp1614
a(g261
g261
g261
g5
g5
tp1615
a(g167
g167
g167
g5
g5
tp1616
a(S'Median'
p1617
S'Median'
p1618
S'JJ'
p1619
S'B-NP'
p1620
g5
tp1621
a(S'survival'
p1622
S'survival'
p1623
S'NN'
p1624
S'I-NP'
p1625
g5
tp1626
a(S'was'
p1627
S'be'
p1628
S'VBD'
p1629
S'B-VP'
p1630
g5
tp1631
a(S'greater'
p1632
S'great'
p1633
S'JJR'
p1634
S'B-ADJP'
p1635
g5
tp1636
a(S'than'
p1637
S'than'
p1638
S'IN'
p1639
S'B-PP'
p1640
g5
tp1641
a(S'78'
p1642
S'78'
p1643
S'CD'
p1644
S'B-NP'
p1645
g5
tp1646
a(S'months'
p1647
S'month'
p1648
S'NNS'
p1649
S'I-NP'
p1650
g5
tp1651
a(S'in'
p1652
S'in'
p1653
S'IN'
p1654
S'B-PP'
p1655
g5
tp1656
a(S'stage'
p1657
S'stage'
p1658
S'NN'
p1659
S'B-NP'
p1660
g5
tp1661
a(g363
g363
S'CD'
p1662
S'I-NP'
p1663
g5
tp1664
a(g68
g68
g68
g5
g5
tp1665
a(S'was'
p1666
S'be'
p1667
S'VBD'
p1668
S'B-VP'
p1669
g5
tp1670
a(S'46.3'
p1671
S'46.3'
p1672
S'CD'
p1673
S'B-NP'
p1674
g5
tp1675
a(S'months'
p1676
S'month'
p1677
S'NNS'
p1678
S'I-NP'
p1679
g5
tp1680
a(S'in'
p1681
S'in'
p1682
S'IN'
p1683
S'B-PP'
p1684
g5
tp1685
a(S'stage'
p1686
S'stage'
p1687
S'NN'
p1688
S'B-NP'
p1689
g5
tp1690
a(S'II'
p1691
S'II'
p1692
S'CD'
p1693
S'I-NP'
p1694
g5
tp1695
a(S'and'
p1696
S'and'
p1697
S'CC'
p1698
g5
g5
tp1699
a(S'was'
p1700
S'be'
p1701
S'VBD'
p1702
S'B-VP'
p1703
g5
tp1704
a(S'24.3'
p1705
S'24.3'
p1706
S'CD'
p1707
S'B-NP'
p1708
g5
tp1709
a(S'months'
p1710
S'month'
p1711
S'NNS'
p1712
S'I-NP'
p1713
g5
tp1714
a(S'in'
p1715
S'in'
p1716
S'IN'
p1717
S'B-PP'
p1718
g5
tp1719
a(S'stage'
p1720
S'stage'
p1721
S'NN'
p1722
S'B-NP'
p1723
g5
tp1724
a(S'III'
p1725
S'III'
p1726
S'CD'
p1727
S'B-NP'
p1728
g5
tp1729
a(S'patients'
p1730
S'patient'
p1731
S'NNS'
p1732
S'I-NP'
p1733
g5
tp1734
a(g68
g68
g68
g5
g5
tp1735
a(S'still'
p1736
S'still'
p1737
S'RB'
p1738
S'B-ADVP'
p1739
g5
tp1740
a(S'independent'
p1741
S'independent'
p1742
S'JJ'
p1743
S'B-ADJP'
p1744
g5
tp1745
a(S'of'
p1746
S'of'
p1747
S'IN'
p1748
S'B-PP'
p1749
g5
tp1750
a(S'both'
p1751
S'both'
p1752
S'CC'
p1753
g5
g5
tp1754
a(S'induction'
p1755
S'induction'
p1756
S'NN'
p1757
S'B-NP'
p1758
g5
tp1759
a(S'and'
p1760
S'and'
p1761
S'CC'
p1762
g5
g5
tp1763
a(S'post-induction'
p1764
S'post-induction'
p1765
S'JJ'
p1766
S'B-NP'
p1767
g5
tp1768
a(S'policies.'
p1769
S'policies.'
p1770
S'NN'
p1771
S'I-NP'
p1772
g5
tp1773
a(S'In'
p1774
S'In'
p1775
S'IN'
p1776
S'B-PP'
p1777
g5
tp1778
a(S'MM'
p1779
S'MM'
p1780
S'NN'
p1781
S'B-NP'
p1782
g5
tp1783
a(g68
g68
g68
g5
g5
tp1784
a(S'the'
p1785
S'the'
p1786
S'DT'
p1787
S'B-NP'
p1788
g5
tp1789
a(S'significance'
p1790
S'significance'
p1791
S'NN'
p1792
S'I-NP'
p1793
g5
tp1794
a(S'of'
p1795
S'of'
p1796
S'IN'
p1797
S'B-PP'
p1798
g5
tp1799
a(S'staging'
p1800
S'stag'
p1801
S'VBG'
p1802
S'B-VP'
p1803
g5
tp1804
a(S'for'
p1805
S'for'
p1806
S'IN'
p1807
S'B-PP'
p1808
g5
tp1809
a(S'survival'
p1810
S'survival'
p1811
S'NN'
p1812
S'B-NP'
p1813
g5
tp1814
a(S'is'
p1815
S'be'
p1816
S'VBZ'
p1817
S'B-VP'
p1818
g5
tp1819
a(S'independent'
p1820
S'independent'
p1821
S'JJ'
p1822
S'B-ADJP'
p1823
g5
tp1824
a(S'of'
p1825
S'of'
p1826
S'IN'
p1827
S'B-PP'
p1828
g5
tp1829
a(S'both'
p1830
S'both'
p1831
S'CC'
p1832
g5
g5
tp1833
a(S'the'
p1834
S'the'
p1835
S'DT'
p1836
S'B-NP'
p1837
g5
tp1838
a(S'aggressiveness'
p1839
S'aggressiveness'
p1840
S'NN'
p1841
S'I-NP'
p1842
g5
tp1843
a(S'of'
p1844
S'of'
p1845
S'IN'
p1846
S'B-PP'
p1847
g5
tp1848
a(S'induction'
p1849
S'induction'
p1850
S'NN'
p1851
S'B-NP'
p1852
g5
tp1853
a(S'and'
p1854
S'and'
p1855
S'CC'
p1856
S'B-PP'
p1857
g5
tp1858
a(S'of'
p1859
S'of'
p1860
S'IN'
p1861
S'B-PP'
p1862
g5
tp1863
a(S'continuing'
p1864
S'continue'
p1865
S'VBG'
p1866
S'B-VP'
p1867
g5
tp1868
a(S'or'
p1869
S'or'
p1870
S'CC'
p1871
S'I-VP'
p1872
g5
tp1873
a(S'discontinuing'
p1874
S'discontinue'
p1875
S'VBG'
p1876
S'I-VP'
p1877
g5
tp1878
a(S'maintenance'
p1879
S'maintenance'
p1880
S'NN'
p1881
S'B-NP'
p1882
g5
tp1883
a(S'chemotherapy'
p1884
S'chemotherapy'
p1885
S'NN'
p1886
S'I-NP'
p1887
g5
tp1888
a(S'after'
p1889
S'after'
p1890
S'IN'
p1891
S'B-PP'
p1892
g5
tp1893
a(S'the'
p1894
S'the'
p1895
S'DT'
p1896
S'B-NP'
p1897
g5
tp1898
a(S'maximal'
p1899
S'maximal'
p1900
S'JJ'
p1901
S'I-NP'
p1902
g5
tp1903
a(S'tumor'
p1904
S'tumor'
p1905
S'NN'
p1906
S'I-NP'
p1907
g5
tp1908
a(S'reduction'
p1909
S'reduction'
p1910
S'NN'
p1911
S'I-NP'
p1912
g5
tp1913
a(S'has'
p1914
S'have'
p1915
S'VBZ'
p1916
S'B-VP'
p1917
g5
tp1918
a(S'been'
p1919
S'be'
p1920
S'VBN'
p1921
S'I-VP'
p1922
g5
tp1923
a(S'achieved.'
p1924
S'achieved.'
p1925
S'VBN'
p1926
S'I-VP'
p1927
g5
tp1928
a(S'Both'
p1929
S'Both'
p1930
S'CC'
p1931
g5
g5
tp1932
a(S'MPH-P'
p1933
S'MPH-P'
p1934
S'NN'
p1935
S'B-NP'
p1936
S'B-protein'
p1937
tp1938
a(S'and'
p1939
S'and'
p1940
S'CC'
p1941
g5
g5
tp1942
a(S'and'
p1943
S'and'
p1944
S'CC'
p1945
g5
g5
tp1946
a(S'the'
p1947
S'the'
p1948
S'DT'
p1949
S'B-NP'
p1950
g5
tp1951
a(S'association'
p1952
S'association'
p1953
S'NN'
p1954
S'I-NP'
p1955
g5
tp1956
a(S'of'
p1957
S'of'
p1958
S'IN'
p1959
S'B-PP'
p1960
g5
tp1961
a(S'PTC'
p1962
S'PTC'
p1963
S'NN'
p1964
S'B-NP'
p1965
S'B-protein'
p1966
tp1967
a(g68
g68
g68
S'I-NP'
p1968
g5
tp1969
a(S'VCR'
p1970
S'VCR'
p1971
S'NN'
p1972
S'I-NP'
p1973
S'B-protein'
p1974
tp1975
a(S'and'
p1976
S'and'
p1977
S'CC'
p1978
S'I-NP'
p1979
g5
tp1980
a(g1063
g1063
S'NN'
p1981
S'I-NP'
p1982
g5
tp1983
a(S'are'
p1984
S'be'
p1985
S'VBP'
p1986
S'B-VP'
p1987
g5
tp1988
a(S'effective'
p1989
S'effective'
p1990
S'JJ'
p1991
S'B-ADJP'
p1992
g5
tp1993
a(S'in'
p1994
S'in'
p1995
S'IN'
p1996
S'B-PP'
p1997
g5
tp1998
a(S'inducing'
p1999
S'induce'
p2000
S'VBG'
p2001
S'B-VP'
p2002
g5
tp2003
a(S'first'
p2004
S'first'
p2005
S'JJ'
p2006
S'B-NP'
p2007
g5
tp2008
a(S'response'
p2009
S'response'
p2010
S'NN'
p2011
S'I-NP'
p2012
g5
tp2013
a(S'and'
p2014
S'and'
p2015
S'CC'
p2016
g5
g5
tp2017
a(S'also'
p2018
S'also'
p2019
S'RB'
p2020
S'B-ADVP'
p2021
g5
tp2022
a(S'second'
p2023
S'second'
p2024
S'JJ'
p2025
S'B-NP'
p2026
g5
tp2027
a(S'response'
p2028
S'response'
p2029
S'NN'
p2030
S'I-NP'
p2031
g5
tp2032
a(S'in'
p2033
S'in'
p2034
S'IN'
p2035
S'B-PP'
p2036
g5
tp2037
a(S'patients'
p2038
S'patient'
p2039
S'NNS'
p2040
S'B-NP'
p2041
g5
tp2042
a(S'failing'
p2043
S'fail'
p2044
S'VBG'
p2045
S'B-VP'
p2046
g5
tp2047
a(S'on'
p2048
S'on'
p2049
S'IN'
p2050
S'B-PP'
p2051
g5
tp2052
a(S'the'
p2053
S'the'
p2054
S'DT'
p2055
S'B-NP'
p2056
g5
tp2057
a(S'alternative'
p2058
S'alternative'
p2059
S'JJ'
p2060
S'I-NP'
p2061
g5
tp2062
a(S'regimen'
p2063
S'regimen'
p2064
S'NN'
p2065
S'I-NP'
p2066
g5
tp2067
a(g68
g68
g68
g5
g5
tp2068
a(S'but'
p2069
S'but'
p2070
S'CC'
p2071
g5
g5
tp2072
a(S'PTC-VCR-P'
p2073
S'PTC-VCR-P'
p2074
S'NN'
p2075
S'B-NP'
p2076
S'B-protein'
p2077
tp2078
a(S'causes'
p2079
S'cause'
p2080
S'VBZ'
p2081
S'B-VP'
p2082
g5
tp2083
a(S'more'
p2084
S'more'
p2085
S'JJR'
p2086
S'B-NP'
p2087
g5
tp2088
a(S'side'
p2089
S'side'
p2090
S'NN'
p2091
S'I-NP'
p2092
g5
tp2093
a(S'effects.'
p2094
S'effects.'
p2095
S'NNS'
p2096
S'I-NP'
p2097
g5
tp2098
a(S'Thus'
p2099
S'Thus'
p2100
S'RB'
p2101
S'B-ADVP'
p2102
g5
tp2103
a(g68
g68
g68
g5
g5
tp2104
a(S'the'
p2105
S'the'
p2106
S'DT'
p2107
S'B-NP'
p2108
g5
tp2109
a(S'overwhelming'
p2110
S'overwhelming'
p2111
S'JJ'
p2112
S'I-NP'
p2113
g5
tp2114
a(S'majority'
p2115
S'majority'
p2116
S'NN'
p2117
S'I-NP'
p2118
g5
tp2119
a(S'of'
p2120
S'of'
p2121
S'IN'
p2122
S'B-PP'
p2123
g5
tp2124
a(S'patients'
p2125
S'patient'
p2126
S'NNS'
p2127
S'B-NP'
p2128
g5
tp2129
a(S'with'
p2130
S'with'
p2131
S'IN'
p2132
S'B-PP'
p2133
g5
tp2134
a(S'MM'
p2135
S'MM'
p2136
S'NN'
p2137
S'B-NP'
p2138
g5
tp2139
a(S'can'
p2140
S'can'
p2141
S'MD'
p2142
S'B-VP'
p2143
g5
tp2144
a(S'safely'
p2145
S'safely'
p2146
S'RB'
p2147
S'I-VP'
p2148
g5
tp2149
a(S'be'
p2150
S'be'
p2151
S'VB'
p2152
S'I-VP'
p2153
g5
tp2154
a(S'given'
p2155
S'give'
p2156
S'VBN'
p2157
S'I-VP'
p2158
g5
tp2159
a(S'MPH-P'
p2160
S'MPH-P'
p2161
S'NN'
p2162
S'B-NP'
p2163
S'B-protein'
p2164
tp2165
a(S'as'
p2166
S'as'
p2167
S'IN'
p2168
S'B-PP'
p2169
g5
tp2170
a(S'first'
p2171
S'first'
p2172
S'JJ'
p2173
S'B-NP'
p2174
g5
tp2175
a(S'therapy'
p2176
S'therapy'
p2177
S'NN'
p2178
S'I-NP'
p2179
g5
tp2180
a(g68
g68
g68
g5
g5
tp2181
a(S'and'
p2182
S'and'
p2183
S'CC'
p2184
g5
g5
tp2185
a(S'this'
p2186
S'this'
p2187
S'DT'
p2188
S'B-NP'
p2189
g5
tp2190
a(S'treatment'
p2191
S'treatment'
p2192
S'NN'
p2193
S'I-NP'
p2194
g5
tp2195
a(S'may'
p2196
S'may'
p2197
S'MD'
p2198
S'B-VP'
p2199
g5
tp2200
a(S'be'
p2201
S'be'
p2202
S'VB'
p2203
S'I-VP'
p2204
g5
tp2205
a(S'delayed'
p2206
S'delay'
p2207
S'VBN'
p2208
S'I-VP'
p2209
g5
tp2210
a(S'in'
p2211
S'in'
p2212
S'IN'
p2213
S'B-PP'
p2214
g5
tp2215
a(S'early'
p2216
S'early'
p2217
S'JJ'
p2218
S'B-NP'
p2219
g5
tp2220
a(S'diseases'
p2221
S'disease'
p2222
S'NNS'
p2223
S'I-NP'
p2224
g5
tp2225
a(g167
g167
g167
g5
g5
tp2226
a.