(lp0
(S'Addressing'
p1
S'Address'
p2
S'VBG'
p3
S'B-VP'
p4
S'O'
p5
tp6
a(S'dental'
p7
S'dental'
p8
S'JJ'
p9
S'B-NP'
p10
g5
tp11
a(S'fear'
p12
S'fear'
p13
S'NN'
p14
S'I-NP'
p15
g5
tp16
a(S'in'
p17
S'in'
p18
S'IN'
p19
S'B-PP'
p20
g5
tp21
a(S'children'
p22
S'child'
p23
S'NNS'
p24
S'B-NP'
p25
g5
tp26
a(S'with'
p27
S'with'
p28
S'IN'
p29
S'B-PP'
p30
g5
tp31
a(S'autism'
p32
S'autism'
p33
S'NN'
p34
S'B-NP'
p35
g5
tp36
a(S'spectrum'
p37
S'spectrum'
p38
S'NN'
p39
S'I-NP'
p40
g5
tp41
a(S'disorders'
p42
S'disorder'
p43
S'NNS'
p44
S'I-NP'
p45
g5
tp46
a(S':'
p47
g47
g47
g5
g5
tp48
a(S'a'
p49
g49
S'DT'
p50
S'B-NP'
p51
g5
tp52
a(S'randomized'
p53
S'randomize'
p54
S'VBN'
p55
S'I-NP'
p56
g5
tp57
a(S'controlled'
p58
S'control'
p59
S'VBN'
p60
S'I-NP'
p61
g5
tp62
a(S'pilot'
p63
S'pilot'
p64
S'NN'
p65
S'I-NP'
p66
g5
tp67
a(S'study'
p68
S'study'
p69
S'NN'
p70
S'I-NP'
p71
g5
tp72
a(S'using'
p73
S'use'
p74
S'VBG'
p75
S'B-VP'
p76
g5
tp77
a(S'electronic'
p78
S'electronic'
p79
S'JJ'
p80
S'B-NP'
p81
g5
tp82
a(S'screen'
p83
S'screen'
p84
S'NN'
p85
S'I-NP'
p86
g5
tp87
a(S'media'
p88
S'medium'
p89
S'NNS'
p90
S'I-NP'
p91
g5
tp92
a(S'.'
p93
g93
g93
g5
g5
tp94
a(S'BACKGROUND'
p95
S'BACKGROUND'
p96
S'NN'
p97
S'B-NP'
p98
g5
tp99
a(S'Dental'
p100
S'Dental'
p101
S'JJ'
p102
S'I-NP'
p103
g5
tp104
a(S'care'
p105
S'care'
p106
S'NN'
p107
S'I-NP'
p108
g5
tp109
a(S'is'
p110
S'be'
p111
S'VBZ'
p112
S'B-VP'
p113
g5
tp114
a(g49
g49
S'DT'
p115
S'B-NP'
p116
g5
tp117
a(S'significant'
p118
S'significant'
p119
S'JJ'
p120
S'I-NP'
p121
g5
tp122
a(S'unmet'
p123
S'unmet'
p124
S'JJ'
p125
S'I-NP'
p126
g5
tp127
a(S'health'
p128
S'health'
p129
S'NN'
p130
S'I-NP'
p131
g5
tp132
a(S'care'
p133
S'care'
p134
S'NN'
p135
S'I-NP'
p136
g5
tp137
a(S'need'
p138
S'need'
p139
S'NN'
p140
S'I-NP'
p141
g5
tp142
a(S'for'
p143
S'for'
p144
S'IN'
p145
S'B-PP'
p146
g5
tp147
a(S'children'
p148
S'child'
p149
S'NNS'
p150
S'B-NP'
p151
g5
tp152
a(S'with'
p153
S'with'
p154
S'IN'
p155
S'B-PP'
p156
g5
tp157
a(S'autism'
p158
S'autism'
p159
S'NN'
p160
S'B-NP'
p161
g5
tp162
a(S'spectrum'
p163
S'spectrum'
p164
S'NN'
p165
S'I-NP'
p166
g5
tp167
a(S'disorders'
p168
S'disorder'
p169
S'NNS'
p170
S'I-NP'
p171
g5
tp172
a(S'('
p173
g173
g173
g5
g5
tp174
a(S'ASD'
p175
S'ASD'
p176
S'NN'
p177
S'B-NP'
p178
g5
tp179
a(S')'
p180
g180
g180
g5
g5
tp181
a(g93
g93
g93
g5
g5
tp182
a(S'Many'
p183
S'Many'
p184
S'JJ'
p185
S'B-NP'
p186
g5
tp187
a(S'children'
p188
S'child'
p189
S'NNS'
p190
S'I-NP'
p191
g5
tp192
a(S'with'
p193
S'with'
p194
S'IN'
p195
S'B-PP'
p196
g5
tp197
a(S'ASD'
p198
S'ASD'
p199
S'NN'
p200
S'B-NP'
p201
g5
tp202
a(S'do'
p203
S'do'
p204
S'VBP'
p205
S'B-VP'
p206
g5
tp207
a(S'not'
p208
S'not'
p209
S'RB'
p210
S'I-VP'
p211
g5
tp212
a(S'receive'
p213
S'receive'
p214
S'VB'
p215
S'I-VP'
p216
g5
tp217
a(S'dental'
p218
S'dental'
p219
S'JJ'
p220
S'B-NP'
p221
g5
tp222
a(S'care'
p223
S'care'
p224
S'NN'
p225
S'I-NP'
p226
g5
tp227
a(S'because'
p228
S'because'
p229
S'IN'
p230
S'B-PP'
p231
g5
tp232
a(S'of'
p233
S'of'
p234
S'IN'
p235
S'I-PP'
p236
g5
tp237
a(S'fear'
p238
S'fear'
p239
S'NN'
p240
S'B-NP'
p241
g5
tp242
a(S'associated'
p243
S'associate'
p244
S'VBN'
p245
S'B-VP'
p246
g5
tp247
a(S'with'
p248
S'with'
p249
S'IN'
p250
S'B-PP'
p251
g5
tp252
a(S'dental'
p253
S'dental'
p254
S'JJ'
p255
S'B-NP'
p256
g5
tp257
a(S'procedures'
p258
S'procedure'
p259
S'NNS'
p260
S'I-NP'
p261
g5
tp262
a(S';'
p263
g263
g47
g5
g5
tp264
a(S'oftentimes'
p265
S'oftentime'
p266
S'NNS'
p267
S'B-NP'
p268
g5
tp269
a(S'they'
p270
S'they'
p271
S'PRP'
p272
S'B-NP'
p273
g5
tp274
a(S'require'
p275
S'require'
p276
S'VBP'
p277
S'B-VP'
p278
g5
tp279
a(S'general'
p280
S'general'
p281
S'JJ'
p282
S'B-NP'
p283
g5
tp284
a(S'anesthesia'
p285
S'anesthesia'
p286
S'NN'
p287
S'I-NP'
p288
g5
tp289
a(S'for'
p290
S'for'
p291
S'IN'
p292
S'B-PP'
p293
g5
tp294
a(S'regular'
p295
S'regular'
p296
S'JJ'
p297
S'B-NP'
p298
g5
tp299
a(S'dental'
p300
S'dental'
p301
S'JJ'
p302
S'I-NP'
p303
g5
tp304
a(S'procedures'
p305
S'procedure'
p306
S'NNS'
p307
S'I-NP'
p308
g5
tp309
a(S','
p310
g310
g310
g5
g5
tp311
a(S'placing'
p312
S'place'
p313
S'VBG'
p314
S'B-VP'
p315
g5
tp316
a(S'them'
p317
S'them'
p318
S'PRP'
p319
S'B-NP'
p320
g5
tp321
a(S'at'
p322
S'at'
p323
S'IN'
p324
S'B-PP'
p325
g5
tp326
a(S'risk'
p327
S'risk'
p328
S'NN'
p329
S'B-NP'
p330
g5
tp331
a(S'of'
p332
S'of'
p333
S'IN'
p334
S'B-PP'
p335
g5
tp336
a(S'associated'
p337
S'associate'
p338
S'VBN'
p339
S'B-NP'
p340
g5
tp341
a(S'complications.'
p342
S'complications.'
p343
S'NN'
p344
S'I-NP'
p345
g5
tp346
a(S'Many'
p347
S'Many'
p348
S'JJ'
p349
S'I-NP'
p350
g5
tp351
a(S'children'
p352
S'child'
p353
S'NNS'
p354
S'I-NP'
p355
g5
tp356
a(S'with'
p357
S'with'
p358
S'IN'
p359
S'B-PP'
p360
g5
tp361
a(S'ASD'
p362
S'ASD'
p363
S'NN'
p364
S'B-NP'
p365
g5
tp366
a(S'have'
p367
S'have'
p368
S'VBP'
p369
S'B-VP'
p370
g5
tp371
a(g49
g49
S'DT'
p372
S'B-NP'
p373
g5
tp374
a(S'strong'
p375
S'strong'
p376
S'JJ'
p377
S'I-NP'
p378
g5
tp379
a(S'preference'
p380
S'preference'
p381
S'NN'
p382
S'I-NP'
p383
g5
tp384
a(S'for'
p385
S'for'
p386
S'IN'
p387
S'B-PP'
p388
g5
tp389
a(S'visual'
p390
S'visual'
p391
S'JJ'
p392
S'B-NP'
p393
g5
tp394
a(S'stimuli'
p395
S'stimulus'
p396
S'NNS'
p397
S'I-NP'
p398
g5
tp399
a(g310
g310
g310
g5
g5
tp400
a(S'particularly'
p401
S'particularly'
p402
S'RB'
p403
S'B-NP'
p404
g5
tp405
a(S'electronic'
p406
S'electronic'
p407
S'JJ'
p408
S'I-NP'
p409
g5
tp410
a(S'screen'
p411
S'screen'
p412
S'NN'
p413
S'I-NP'
p414
g5
tp415
a(S'media.'
p416
S'media.'
p417
S'FW'
p418
S'B-PP'
p419
g5
tp420
a(S'The'
p421
S'The'
p422
S'DT'
p423
S'B-NP'
p424
g5
tp425
a(S'use'
p426
S'use'
p427
S'NN'
p428
S'I-NP'
p429
g5
tp430
a(S'of'
p431
S'of'
p432
S'IN'
p433
S'B-PP'
p434
g5
tp435
a(S'visual'
p436
S'visual'
p437
S'JJ'
p438
S'B-NP'
p439
g5
tp440
a(S'teaching'
p441
S'teaching'
p442
S'NN'
p443
S'I-NP'
p444
g5
tp445
a(S'materials'
p446
S'material'
p447
S'NNS'
p448
S'I-NP'
p449
g5
tp450
a(S'is'
p451
S'be'
p452
S'VBZ'
p453
S'B-VP'
p454
g5
tp455
a(g49
g49
S'DT'
p456
S'B-NP'
p457
g5
tp458
a(S'fundamental'
p459
S'fundamental'
p460
S'JJ'
p461
S'I-NP'
p462
g5
tp463
a(S'principle'
p464
S'principle'
p465
S'NN'
p466
S'I-NP'
p467
g5
tp468
a(S'in'
p469
S'in'
p470
S'IN'
p471
S'B-PP'
p472
g5
tp473
a(S'designing'
p474
S'design'
p475
S'VBG'
p476
S'B-VP'
p477
g5
tp478
a(S'educational'
p479
S'educational'
p480
S'JJ'
p481
S'B-NP'
p482
g5
tp483
a(S'programs'
p484
S'program'
p485
S'NNS'
p486
S'I-NP'
p487
g5
tp488
a(S'for'
p489
S'for'
p490
S'IN'
p491
S'B-PP'
p492
g5
tp493
a(S'children'
p494
S'child'
p495
S'NNS'
p496
S'B-NP'
p497
g5
tp498
a(S'with'
p499
S'with'
p500
S'IN'
p501
S'B-PP'
p502
g5
tp503
a(S'ASD'
p504
S'ASD'
p505
S'NN'
p506
S'B-NP'
p507
g5
tp508
a(g93
g93
g93
g5
g5
tp509
a(S'PURPOSE'
p510
S'PURPOSE'
p511
S'NN'
p512
S'B-NP'
p513
g5
tp514
a(S'To'
p515
S'To'
p516
S'TO'
p517
S'B-VP'
p518
g5
tp519
a(S'determine'
p520
S'determine'
p521
S'VB'
p522
S'I-VP'
p523
g5
tp524
a(S'if'
p525
S'if'
p526
S'IN'
p527
S'B-SBAR'
p528
g5
tp529
a(S'an'
p530
S'an'
p531
S'DT'
p532
S'B-NP'
p533
g5
tp534
a(S'innovative'
p535
S'innovative'
p536
S'JJ'
p537
S'I-NP'
p538
g5
tp539
a(S'strategy'
p540
S'strategy'
p541
S'NN'
p542
S'I-NP'
p543
g5
tp544
a(S'using'
p545
S'use'
p546
S'VBG'
p547
S'B-VP'
p548
g5
tp549
a(S'2'
p550
g550
S'CD'
p551
S'B-NP'
p552
g5
tp553
a(S'types'
p554
S'type'
p555
S'NNS'
p556
S'I-NP'
p557
g5
tp558
a(S'of'
p559
S'of'
p560
S'IN'
p561
S'B-PP'
p562
g5
tp563
a(S'electronic'
p564
S'electronic'
p565
S'JJ'
p566
S'B-NP'
p567
g5
tp568
a(S'screen'
p569
S'screen'
p570
S'NN'
p571
S'I-NP'
p572
g5
tp573
a(S'media'
p574
S'medium'
p575
S'NNS'
p576
S'I-NP'
p577
g5
tp578
a(S'was'
p579
S'be'
p580
S'VBD'
p581
S'B-VP'
p582
g5
tp583
a(S'feasible'
p584
S'feasible'
p585
S'JJ'
p586
S'B-ADJP'
p587
g5
tp588
a(S'and'
p589
S'and'
p590
S'CC'
p591
S'I-ADJP'
p592
g5
tp593
a(S'beneficial'
p594
S'beneficial'
p595
S'JJ'
p596
S'I-ADJP'
p597
g5
tp598
a(S'in'
p599
S'in'
p600
S'IN'
p601
S'B-PP'
p602
g5
tp603
a(S'reducing'
p604
S'reduce'
p605
S'VBG'
p606
S'B-VP'
p607
g5
tp608
a(S'fear'
p609
S'fear'
p610
S'NN'
p611
S'B-NP'
p612
g5
tp613
a(S'and'
p614
S'and'
p615
S'CC'
p616
g5
g5
tp617
a(S'uncooperative'
p618
S'uncooperative'
p619
S'JJ'
p620
S'B-NP'
p621
g5
tp622
a(S'behaviors'
p623
S'behavior'
p624
S'NNS'
p625
S'I-NP'
p626
g5
tp627
a(S'in'
p628
S'in'
p629
S'IN'
p630
S'B-PP'
p631
g5
tp632
a(S'children'
p633
S'child'
p634
S'NNS'
p635
S'B-NP'
p636
g5
tp637
a(S'with'
p638
S'with'
p639
S'IN'
p640
S'B-PP'
p641
g5
tp642
a(S'ASD'
p643
S'ASD'
p644
S'NN'
p645
S'B-NP'
p646
g5
tp647
a(S'undergoing'
p648
S'undergo'
p649
S'VBG'
p650
S'B-VP'
p651
g5
tp652
a(S'dental'
p653
S'dental'
p654
S'JJ'
p655
S'B-NP'
p656
g5
tp657
a(S'visits'
p658
S'visit'
p659
S'NNS'
p660
S'I-NP'
p661
g5
tp662
a(g93
g93
g93
g5
g5
tp663
a(S'METHODS'
p664
S'METHODS'
p665
S'NNS'
p666
S'B-NP'
p667
g5
tp668
a(S'We'
p669
S'We'
p670
S'PRP'
p671
S'B-NP'
p672
g5
tp673
a(S'conducted'
p674
S'conduct'
p675
S'VBD'
p676
S'B-VP'
p677
g5
tp678
a(g49
g49
S'DT'
p679
S'B-NP'
p680
g5
tp681
a(S'randomized'
p682
S'randomize'
p683
S'VBN'
p684
S'I-NP'
p685
g5
tp686
a(S'controlled'
p687
S'control'
p688
S'VBN'
p689
S'I-NP'
p690
g5
tp691
a(S'trial'
p692
S'trial'
p693
S'NN'
p694
S'I-NP'
p695
g5
tp696
a(S'at'
p697
S'at'
p698
S'IN'
p699
S'B-PP'
p700
g5
tp701
a(S'Boston'
p702
S'Boston'
p703
S'NNP'
p704
S'B-NP'
p705
g5
tp706
a(S'Children'
p707
S'Children'
p708
S'NNP'
p709
S'I-NP'
p710
g5
tp711
a(S"'s"
p712
S"'s"
p713
S'POS'
p714
S'B-NP'
p715
g5
tp716
a(S'Hospital'
p717
S'Hospital'
p718
S'NNP'
p719
S'I-NP'
p720
g5
tp721
a(S'dental'
p722
S'dental'
p723
S'JJ'
p724
S'I-NP'
p725
g5
tp726
a(S'clinic.'
p727
S'clinic.'
p728
S'NN'
p729
S'I-NP'
p730
g5
tp731
a(S'Eighty'
p732
S'Eighty'
p733
S'CD'
p734
S'I-NP'
p735
g5
tp736
a(g173
g173
g173
g5
g5
tp737
a(S'80'
p738
S'80'
p739
S'CD'
p740
S'B-NP'
p741
g5
tp742
a(g180
g180
g180
g5
g5
tp743
a(S'children'
p744
S'child'
p745
S'NNS'
p746
S'B-NP'
p747
g5
tp748
a(S'aged'
p749
S'age'
p750
S'VBN'
p751
S'B-ADJP'
p752
g5
tp753
a(S'7'
p754
g754
S'CD'
p755
S'B-NP'
p756
g5
tp757
a(S'to'
p758
S'to'
p759
S'TO'
p760
S'I-NP'
p761
g5
tp762
a(S'17'
p763
S'17'
p764
S'CD'
p765
S'I-NP'
p766
g5
tp767
a(S'years'
p768
S'year'
p769
S'NNS'
p770
S'I-NP'
p771
g5
tp772
a(S'with'
p773
S'with'
p774
S'IN'
p775
S'B-PP'
p776
g5
tp777
a(g49
g49
S'DT'
p778
S'B-NP'
p779
g5
tp780
a(S'known'
p781
S'known'
p782
S'JJ'
p783
S'I-NP'
p784
g5
tp785
a(S'diagnosis'
p786
S'diagnosis'
p787
S'NN'
p788
S'I-NP'
p789
g5
tp790
a(S'of'
p791
S'of'
p792
S'IN'
p793
S'B-PP'
p794
g5
tp795
a(S'ASD'
p796
S'ASD'
p797
S'NN'
p798
S'B-NP'
p799
g5
tp800
a(S'and'
p801
S'and'
p802
S'CC'
p803
S'I-NP'
p804
g5
tp805
a(S'history'
p806
S'history'
p807
S'NN'
p808
S'I-NP'
p809
g5
tp810
a(S'of'
p811
S'of'
p812
S'IN'
p813
S'B-PP'
p814
g5
tp815
a(S'dental'
p816
S'dental'
p817
S'JJ'
p818
S'B-NP'
p819
g5
tp820
a(S'fear'
p821
S'fear'
p822
S'NN'
p823
S'I-NP'
p824
g5
tp825
a(S'were'
p826
S'be'
p827
S'VBD'
p828
S'B-VP'
p829
g5
tp830
a(S'enrolled'
p831
S'enrol'
p832
S'VBN'
p833
S'I-VP'
p834
g5
tp835
a(S'in'
p836
S'in'
p837
S'IN'
p838
S'B-PP'
p839
g5
tp840
a(S'the'
p841
S'the'
p842
S'DT'
p843
S'B-NP'
p844
g5
tp845
a(S'study.'
p846
S'study.'
p847
S'NN'
p848
S'I-NP'
p849
g5
tp850
a(S'Each'
p851
S'Each'
p852
S'DT'
p853
S'B-NP'
p854
g5
tp855
a(S'child'
p856
S'child'
p857
S'NN'
p858
S'I-NP'
p859
g5
tp860
a(S'completed'
p861
S'complete'
p862
S'VBD'
p863
S'B-VP'
p864
g5
tp865
a(g550
g550
S'CD'
p866
S'B-NP'
p867
g5
tp868
a(S'preventive'
p869
S'preventive'
p870
S'JJ'
p871
S'I-NP'
p872
g5
tp873
a(S'dental'
p874
S'dental'
p875
S'JJ'
p876
S'I-NP'
p877
g5
tp878
a(S'visits'
p879
S'visit'
p880
S'NNS'
p881
S'I-NP'
p882
g5
tp883
a(S'that'
p884
S'that'
p885
S'WDT'
p886
S'B-NP'
p887
g5
tp888
a(S'were'
p889
S'be'
p890
S'VBD'
p891
S'B-VP'
p892
g5
tp893
a(S'scheduled'
p894
S'schedule'
p895
S'VBN'
p896
S'I-VP'
p897
g5
tp898
a(S'6'
p899
g899
S'CD'
p900
S'B-NP'
p901
g5
tp902
a(S'months'
p903
S'month'
p904
S'NNS'
p905
S'I-NP'
p906
g5
tp907
a(S'apart'
p908
S'apart'
p909
S'RB'
p910
S'B-ADVP'
p911
g5
tp912
a(g173
g173
g173
g5
g5
tp913
a(S'visit'
p914
S'visit'
p915
S'NN'
p916
S'B-NP'
p917
g5
tp918
a(S'1'
p919
g919
S'CD'
p920
S'I-NP'
p921
g5
tp922
a(S'and'
p923
S'and'
p924
S'CC'
p925
g5
g5
tp926
a(S'visit'
p927
S'visit'
p928
S'NN'
p929
S'B-NP'
p930
S'B-protein'
p931
tp932
a(g550
g550
S'CD'
p933
S'I-NP'
p934
S'I-protein'
p935
tp936
a(g180
g180
g180
g5
g5
tp937
a(g93
g93
g93
g5
g5
tp938
a(S'After'
p939
S'After'
p940
S'IN'
p941
S'B-PP'
p942
g5
tp943
a(S'visit'
p944
S'visit'
p945
S'NN'
p946
S'B-NP'
p947
g5
tp948
a(g919
g919
S'CD'
p949
S'I-NP'
p950
g5
tp951
a(g310
g310
g310
g5
g5
tp952
a(S'subjects'
p953
S'subject'
p954
S'NNS'
p955
S'B-NP'
p956
g5
tp957
a(S'were'
p958
S'be'
p959
S'VBD'
p960
S'B-VP'
p961
g5
tp962
a(S'randomly'
p963
S'randomly'
p964
S'RB'
p965
S'I-VP'
p966
g5
tp967
a(S'assigned'
p968
S'assign'
p969
S'VBN'
p970
S'I-VP'
p971
g5
tp972
a(S'to'
p973
S'to'
p974
S'TO'
p975
S'B-PP'
p976
g5
tp977
a(g919
g919
S'CD'
p978
S'B-NP'
p979
g5
tp980
a(S'of'
p981
S'of'
p982
S'IN'
p983
S'B-PP'
p984
g5
tp985
a(S'4'
p986
g986
S'CD'
p987
S'B-NP'
p988
g5
tp989
a(S'groups'
p990
S'group'
p991
S'NNS'
p992
S'I-NP'
p993
g5
tp994
a(g47
g47
g47
g5
g5
tp995
a(g173
g173
g173
S'B-LST'
p996
g5
tp997
a(g919
g919
S'LS'
p998
S'I-LST'
p999
g5
tp1000
a(g180
g180
g180
g5
g5
tp1001
a(S'group'
p1002
S'group'
p1003
S'NN'
p1004
S'B-NP'
p1005
g5
tp1006
a(S'A'
p1007
g1007
S'NN'
p1008
S'I-NP'
p1009
g5
tp1010
a(g310
g310
g310
g5
g5
tp1011
a(S'control'
p1012
S'control'
p1013
S'NN'
p1014
S'B-NP'
p1015
g5
tp1016
a(g173
g173
g173
g5
g5
tp1017
a(S'usual'
p1018
S'usual'
p1019
S'JJ'
p1020
S'B-NP'
p1021
g5
tp1022
a(S'care'
p1023
S'care'
p1024
S'NN'
p1025
S'I-NP'
p1026
g5
tp1027
a(g180
g180
g180
g5
g5
tp1028
a(g263
g263
g47
g5
g5
tp1029
a(g173
g173
g173
S'B-LST'
p1030
g5
tp1031
a(g550
g550
S'LS'
p1032
S'I-LST'
p1033
g5
tp1034
a(g180
g180
g180
g5
g5
tp1035
a(S'group'
p1036
S'group'
p1037
S'NN'
p1038
S'B-NP'
p1039
g5
tp1040
a(S'B'
p1041
g1041
S'NN'
p1042
S'I-NP'
p1043
g5
tp1044
a(g310
g310
g310
g5
g5
tp1045
a(S'treatment'
p1046
S'treatment'
p1047
S'NN'
p1048
S'B-NP'
p1049
g5
tp1050
a(g173
g173
g173
g5
g5
tp1051
a(S'video'
p1052
S'video'
p1053
S'NN'
p1054
S'B-NP'
p1055
g5
tp1056
a(S'peer'
p1057
S'peer'
p1058
S'NN'
p1059
S'I-NP'
p1060
g5
tp1061
a(S'modeling'
p1062
S'modeling'
p1063
S'NN'
p1064
S'I-NP'
p1065
g5
tp1066
a(S'that'
p1067
S'that'
p1068
S'WDT'
p1069
S'B-NP'
p1070
g5
tp1071
a(S'involved'
p1072
S'involve'
p1073
S'VBD'
p1074
S'B-VP'
p1075
g5
tp1076
a(S'watching'
p1077
S'watch'
p1078
S'VBG'
p1079
S'I-VP'
p1080
g5
tp1081
a(g49
g49
S'DT'
p1082
S'B-NP'
p1083
g5
tp1084
a(S'DVD'
p1085
S'DVD'
p1086
S'NN'
p1087
S'I-NP'
p1088
g5
tp1089
a(S'recording'
p1090
S'recording'
p1091
S'NN'
p1092
S'I-NP'
p1093
g5
tp1094
a(S'of'
p1095
S'of'
p1096
S'IN'
p1097
S'B-PP'
p1098
g5
tp1099
a(g49
g49
S'DT'
p1100
S'B-NP'
p1101
g5
tp1102
a(S'typically'
p1103
S'typically'
p1104
S'RB'
p1105
S'I-NP'
p1106
g5
tp1107
a(S'developing'
p1108
S'develop'
p1109
S'VBG'
p1110
S'I-NP'
p1111
g5
tp1112
a(S'child'
p1113
S'child'
p1114
S'NN'
p1115
S'I-NP'
p1116
g5
tp1117
a(S'undergoing'
p1118
S'undergo'
p1119
S'VBG'
p1120
S'B-VP'
p1121
g5
tp1122
a(g49
g49
S'DT'
p1123
S'B-NP'
p1124
g5
tp1125
a(S'dental'
p1126
S'dental'
p1127
S'JJ'
p1128
S'I-NP'
p1129
g5
tp1130
a(S'visit'
p1131
S'visit'
p1132
S'NN'
p1133
S'I-NP'
p1134
g5
tp1135
a(g180
g180
g180
g5
g5
tp1136
a(g263
g263
g47
g5
g5
tp1137
a(g173
g173
g173
S'B-LST'
p1138
g5
tp1139
a(S'3'
p1140
g1140
S'LS'
p1141
S'I-LST'
p1142
g5
tp1143
a(g180
g180
g180
g5
g5
tp1144
a(S'group'
p1145
S'group'
p1146
S'NN'
p1147
S'B-NP'
p1148
g5
tp1149
a(S'C'
p1150
g1150
S'NN'
p1151
S'I-NP'
p1152
g5
tp1153
a(g310
g310
g310
g5
g5
tp1154
a(S'treatment'
p1155
S'treatment'
p1156
S'NN'
p1157
S'B-NP'
p1158
g5
tp1159
a(g173
g173
g173
g5
g5
tp1160
a(S'video'
p1161
S'video'
p1162
S'NN'
p1163
S'B-NP'
p1164
g5
tp1165
a(S'goggles'
p1166
S'goggle'
p1167
S'NNS'
p1168
S'I-NP'
p1169
g5
tp1170
a(S'that'
p1171
S'that'
p1172
S'WDT'
p1173
S'B-NP'
p1174
g5
tp1175
a(S'involved'
p1176
S'involve'
p1177
S'VBD'
p1178
S'B-VP'
p1179
g5
tp1180
a(S'watching'
p1181
S'watch'
p1182
S'VBG'
p1183
S'I-VP'
p1184
g5
tp1185
a(g49
g49
S'DT'
p1186
S'B-NP'
p1187
g5
tp1188
a(S'favorite'
p1189
S'favorite'
p1190
S'JJ'
p1191
S'I-NP'
p1192
g5
tp1193
a(S'movie'
p1194
S'movie'
p1195
S'NN'
p1196
S'I-NP'
p1197
g5
tp1198
a(S'during'
p1199
S'during'
p1200
S'IN'
p1201
S'B-PP'
p1202
g5
tp1203
a(S'the'
p1204
S'the'
p1205
S'DT'
p1206
S'B-NP'
p1207
g5
tp1208
a(S'dental'
p1209
S'dental'
p1210
S'JJ'
p1211
S'I-NP'
p1212
g5
tp1213
a(S'visit'
p1214
S'visit'
p1215
S'NN'
p1216
S'I-NP'
p1217
g5
tp1218
a(S'using'
p1219
S'use'
p1220
S'VBG'
p1221
S'B-VP'
p1222
g5
tp1223
a(S'sunglass-style'
p1224
S'sunglass-style'
p1225
S'JJ'
p1226
S'B-NP'
p1227
g5
tp1228
a(S'video'
p1229
S'video'
p1230
S'NN'
p1231
S'I-NP'
p1232
g5
tp1233
a(S'eyewear'
p1234
S'eyewear'
p1235
S'NN'
p1236
S'I-NP'
p1237
g5
tp1238
a(g180
g180
g180
g5
g5
tp1239
a(g263
g263
g47
g5
g5
tp1240
a(S'and'
p1241
S'and'
p1242
S'CC'
p1243
g5
g5
tp1244
a(g173
g173
g173
S'B-LST'
p1245
g5
tp1246
a(g986
g986
S'LS'
p1247
S'I-LST'
p1248
g5
tp1249
a(g180
g180
g180
g5
g5
tp1250
a(S'group'
p1251
S'group'
p1252
S'NN'
p1253
S'B-NP'
p1254
g5
tp1255
a(S'D'
p1256
g1256
S'NN'
p1257
S'I-NP'
p1258
g5
tp1259
a(g310
g310
g310
g5
g5
tp1260
a(S'treatment'
p1261
S'treatment'
p1262
S'NN'
p1263
S'B-NP'
p1264
g5
tp1265
a(g173
g173
g173
g5
g5
tp1266
a(S'video'
p1267
S'video'
p1268
S'NN'
p1269
S'B-NP'
p1270
g5
tp1271
a(S'peer'
p1272
S'peer'
p1273
S'NN'
p1274
S'I-NP'
p1275
g5
tp1276
a(S'modeling'
p1277
S'modeling'
p1278
S'NN'
p1279
S'I-NP'
p1280
g5
tp1281
a(S'plus'
p1282
S'plus'
p1283
S'CC'
p1284
g5
g5
tp1285
a(S'video'
p1286
S'video'
p1287
S'NN'
p1288
S'B-NP'
p1289
g5
tp1290
a(S'goggles'
p1291
S'goggle'
p1292
S'NNS'
p1293
S'I-NP'
p1294
g5
tp1295
a(g180
g180
g180
g5
g5
tp1296
a(g93
g93
g93
g5
g5
tp1297
a(S'Subjects'
p1298
S'Subject'
p1299
S'NNPS'
p1300
S'B-NP'
p1301
g5
tp1302
a(S'who'
p1303
S'who'
p1304
S'WP'
p1305
S'B-NP'
p1306
g5
tp1307
a(S'refused'
p1308
S'refuse'
p1309
S'VBD'
p1310
S'B-VP'
p1311
g5
tp1312
a(S'or'
p1313
S'or'
p1314
S'CC'
p1315
S'I-VP'
p1316
g5
tp1317
a(S'were'
p1318
S'be'
p1319
S'VBD'
p1320
S'I-VP'
p1321
g5
tp1322
a(S'unable'
p1323
S'unable'
p1324
S'JJ'
p1325
S'B-ADJP'
p1326
g5
tp1327
a(S'to'
p1328
S'to'
p1329
S'TO'
p1330
S'B-VP'
p1331
g5
tp1332
a(S'wear'
p1333
S'wear'
p1334
S'VB'
p1335
S'I-VP'
p1336
g5
tp1337
a(S'the'
p1338
S'the'
p1339
S'DT'
p1340
S'B-NP'
p1341
g5
tp1342
a(S'goggles'
p1343
S'goggle'
p1344
S'NNS'
p1345
S'I-NP'
p1346
g5
tp1347
a(S'watched'
p1348
S'watch'
p1349
S'VBD'
p1350
S'B-VP'
p1351
g5
tp1352
a(S'the'
p1353
S'the'
p1354
S'DT'
p1355
S'B-NP'
p1356
g5
tp1357
a(S'movie'
p1358
S'movie'
p1359
S'NN'
p1360
S'I-NP'
p1361
g5
tp1362
a(S'using'
p1363
S'use'
p1364
S'VBG'
p1365
S'B-VP'
p1366
g5
tp1367
a(g49
g49
S'DT'
p1368
S'B-NP'
p1369
g5
tp1370
a(S'handheld'
p1371
S'handheld'
p1372
S'JJ'
p1373
S'I-NP'
p1374
g5
tp1375
a(S'portable'
p1376
S'portable'
p1377
S'JJ'
p1378
S'I-NP'
p1379
g5
tp1380
a(S'DVD'
p1381
S'DVD'
p1382
S'NN'
p1383
S'I-NP'
p1384
g5
tp1385
a(S'player.'
p1386
S'player.'
p1387
S'NN'
p1388
S'I-NP'
p1389
g5
tp1390
a(S'During'
p1391
S'During'
p1392
S'IN'
p1393
S'B-PP'
p1394
g5
tp1395
a(S'both'
p1396
S'both'
p1397
S'DT'
p1398
S'B-NP'
p1399
g5
tp1400
a(S'visits'
p1401
S'visit'
p1402
S'NNS'
p1403
S'I-NP'
p1404
g5
tp1405
a(g310
g310
g310
g5
g5
tp1406
a(S'the'
p1407
S'the'
p1408
S'DT'
p1409
S'B-NP'
p1410
g5
tp1411
a(S'subject'
p1412
S'subject'
p1413
S'NN'
p1414
S'I-NP'
p1415
g5
tp1416
a(S"'s"
p1417
S"'s"
p1418
S'POS'
p1419
S'B-NP'
p1420
g5
tp1421
a(S'level'
p1422
S'level'
p1423
S'NN'
p1424
S'I-NP'
p1425
g5
tp1426
a(S'of'
p1427
S'of'
p1428
S'IN'
p1429
S'B-PP'
p1430
g5
tp1431
a(S'anxiety'
p1432
S'anxiety'
p1433
S'NN'
p1434
S'B-NP'
p1435
g5
tp1436
a(S'and'
p1437
S'and'
p1438
S'CC'
p1439
S'I-NP'
p1440
g5
tp1441
a(S'behavior'
p1442
S'behavior'
p1443
S'NN'
p1444
S'I-NP'
p1445
g5
tp1446
a(S'were'
p1447
S'be'
p1448
S'VBD'
p1449
S'B-VP'
p1450
g5
tp1451
a(S'measured'
p1452
S'measure'
p1453
S'VBN'
p1454
S'I-VP'
p1455
g5
tp1456
a(S'using'
p1457
S'use'
p1458
S'VBG'
p1459
S'B-VP'
p1460
g5
tp1461
a(S'the'
p1462
S'the'
p1463
S'DT'
p1464
S'B-NP'
p1465
g5
tp1466
a(S'Venham'
p1467
S'Venham'
p1468
S'NNP'
p1469
S'I-NP'
p1470
g5
tp1471
a(S'Anxiety'
p1472
S'Anxiety'
p1473
S'NNP'
p1474
S'I-NP'
p1475
g5
tp1476
a(S'and'
p1477
S'and'
p1478
S'CC'
p1479
g5
g5
tp1480
a(S'Behavior'
p1481
S'Behavior'
p1482
S'NNP'
p1483
S'B-NP'
p1484
g5
tp1485
a(S'Scales.'
p1486
S'Scales.'
p1487
S'NNP'
p1488
S'I-NP'
p1489
g5
tp1490
a(S'Analyses'
p1491
S'Analyses'
p1492
S'NNP'
p1493
S'I-NP'
p1494
g5
tp1495
a(S'of'
p1496
S'of'
p1497
S'IN'
p1498
S'B-PP'
p1499
g5
tp1500
a(S'variance'
p1501
S'variance'
p1502
S'NN'
p1503
S'B-NP'
p1504
g5
tp1505
a(S'and'
p1506
S'and'
p1507
S'CC'
p1508
g5
g5
tp1509
a(S'Fisher'
p1510
S'Fisher'
p1511
S'NNP'
p1512
S'B-NP'
p1513
g5
tp1514
a(S"'s"
p1515
S"'s"
p1516
S'POS'
p1517
S'B-NP'
p1518
g5
tp1519
a(S'exact'
p1520
S'exact'
p1521
S'JJ'
p1522
S'I-NP'
p1523
g5
tp1524
a(S'tests'
p1525
S'test'
p1526
S'NNS'
p1527
S'I-NP'
p1528
g5
tp1529
a(S'compared'
p1530
S'compare'
p1531
S'VBD'
p1532
S'B-VP'
p1533
g5
tp1534
a(S'baseline'
p1535
S'baseline'
p1536
S'NN'
p1537
S'B-NP'
p1538
g5
tp1539
a(S'characteristics'
p1540
S'characteristic'
p1541
S'NNS'
p1542
S'I-NP'
p1543
g5
tp1544
a(S'across'
p1545
S'across'
p1546
S'IN'
p1547
S'B-PP'
p1548
g5
tp1549
a(S'groups.'
p1550
S'groups.'
p1551
S'NNS'
p1552
S'B-NP'
p1553
g5
tp1554
a(S'Using'
p1555
S'Use'
p1556
S'VBG'
p1557
S'B-VP'
p1558
g5
tp1559
a(S'intention'
p1560
S'intention'
p1561
S'NN'
p1562
S'B-NP'
p1563
g5
tp1564
a(S'to'
p1565
S'to'
p1566
S'TO'
p1567
S'B-VP'
p1568
g5
tp1569
a(S'treat'
p1570
S'treat'
p1571
S'VB'
p1572
S'I-VP'
p1573
g5
tp1574
a(S'approach'
p1575
S'approach'
p1576
S'NN'
p1577
S'B-NP'
p1578
g5
tp1579
a(g310
g310
g310
g5
g5
tp1580
a(S'repeated'
p1581
S'repeat'
p1582
S'VBN'
p1583
S'B-NP'
p1584
g5
tp1585
a(S'measures'
p1586
S'measure'
p1587
S'NNS'
p1588
S'I-NP'
p1589
g5
tp1590
a(S'analyses'
p1591
S'analysis'
p1592
S'NNS'
p1593
S'I-NP'
p1594
g5
tp1595
a(S'were'
p1596
S'be'
p1597
S'VBD'
p1598
S'B-VP'
p1599
g5
tp1600
a(S'employed'
p1601
S'employ'
p1602
S'VBN'
p1603
S'I-VP'
p1604
g5
tp1605
a(S'to'
p1606
S'to'
p1607
S'TO'
p1608
S'I-VP'
p1609
g5
tp1610
a(S'test'
p1611
S'test'
p1612
S'VB'
p1613
S'I-VP'
p1614
g5
tp1615
a(S'whether'
p1616
S'whether'
p1617
S'IN'
p1618
S'B-SBAR'
p1619
g5
tp1620
a(S'the'
p1621
S'the'
p1622
S'DT'
p1623
S'B-NP'
p1624
g5
tp1625
a(S'outcomes'
p1626
S'outcome'
p1627
S'NNS'
p1628
S'I-NP'
p1629
g5
tp1630
a(S'differed'
p1631
S'differ'
p1632
S'VBD'
p1633
S'B-VP'
p1634
g5
tp1635
a(S'significantly'
p1636
S'significantly'
p1637
S'RB'
p1638
S'B-ADVP'
p1639
g5
tp1640
a(g47
g47
g47
g5
g5
tp1641
a(g173
g173
g173
S'B-LST'
p1642
g5
tp1643
a(g919
g919
S'LS'
p1644
S'I-LST'
p1645
g5
tp1646
a(g180
g180
g180
g5
g5
tp1647
a(S'between'
p1648
S'between'
p1649
S'IN'
p1650
S'B-PP'
p1651
g5
tp1652
a(S'visits'
p1653
S'visit'
p1654
S'NNS'
p1655
S'B-NP'
p1656
S'B-protein'
p1657
tp1658
a(g919
g919
S'CD'
p1659
S'I-NP'
p1660
S'I-protein'
p1661
tp1662
a(S'and'
p1663
S'and'
p1664
S'CC'
p1665
S'I-NP'
p1666
S'I-protein'
p1667
tp1668
a(g550
g550
S'CD'
p1669
S'I-NP'
p1670
S'I-protein'
p1671
tp1672
a(S'within'
p1673
S'within'
p1674
S'IN'
p1675
S'B-PP'
p1676
g5
tp1677
a(S'each'
p1678
S'each'
p1679
S'DT'
p1680
S'B-NP'
p1681
g5
tp1682
a(S'group'
p1683
S'group'
p1684
S'NN'
p1685
S'I-NP'
p1686
g5
tp1687
a(S'and'
p1688
S'and'
p1689
S'CC'
p1690
g5
g5
tp1691
a(g173
g173
g173
S'B-LST'
p1692
g5
tp1693
a(g550
g550
S'LS'
p1694
S'I-LST'
p1695
g5
tp1696
a(g180
g180
g180
g5
g5
tp1697
a(S'between'
p1698
S'between'
p1699
S'IN'
p1700
S'B-PP'
p1701
g5
tp1702
a(S'each'
p1703
S'each'
p1704
S'DT'
p1705
S'B-NP'
p1706
g5
tp1707
a(S'intervention'
p1708
S'intervention'
p1709
S'NN'
p1710
S'I-NP'
p1711
g5
tp1712
a(S'group'
p1713
S'group'
p1714
S'NN'
p1715
S'I-NP'
p1716
g5
tp1717
a(S'and'
p1718
S'and'
p1719
S'CC'
p1720
g5
g5
tp1721
a(S'the'
p1722
S'the'
p1723
S'DT'
p1724
S'B-NP'
p1725
g5
tp1726
a(S'control'
p1727
S'control'
p1728
S'NN'
p1729
S'I-NP'
p1730
g5
tp1731
a(S'group'
p1732
S'group'
p1733
S'NN'
p1734
S'I-NP'
p1735
g5
tp1736
a(S'over'
p1737
S'over'
p1738
S'IN'
p1739
S'B-PP'
p1740
g5
tp1741
a(S'time'
p1742
S'time'
p1743
S'NN'
p1744
S'B-NP'
p1745
g5
tp1746
a(g173
g173
g173
g5
g5
tp1747
a(S'an'
p1748
S'an'
p1749
S'DT'
p1750
S'B-NP'
p1751
g5
tp1752
a(S'interaction'
p1753
S'interaction'
p1754
S'NN'
p1755
S'I-NP'
p1756
g5
tp1757
a(g180
g180
g180
g5
g5
tp1758
a(g93
g93
g93
g5
g5
tp1759
a(S'RESULTS'
p1760
S'RESULTS'
p1761
S'NNS'
p1762
S'B-NP'
p1763
g5
tp1764
a(S'Between'
p1765
S'Between'
p1766
S'IN'
p1767
S'B-PP'
p1768
g5
tp1769
a(S'visits'
p1770
S'visit'
p1771
S'NNS'
p1772
S'B-NP'
p1773
g5
tp1774
a(g919
g919
S'CD'
p1775
S'I-NP'
p1776
g5
tp1777
a(S'and'
p1778
S'and'
p1779
S'CC'
p1780
S'I-NP'
p1781
g5
tp1782
a(g550
g550
S'CD'
p1783
S'I-NP'
p1784
g5
tp1785
a(g310
g310
g310
g5
g5
tp1786
a(S'mean'
p1787
S'mean'
p1788
S'JJ'
p1789
S'B-NP'
p1790
g5
tp1791
a(S'anxiety'
p1792
S'anxiety'
p1793
S'NN'
p1794
S'I-NP'
p1795
g5
tp1796
a(S'and'
p1797
S'and'
p1798
S'CC'
p1799
S'I-NP'
p1800
g5
tp1801
a(S'behavior'
p1802
S'behavior'
p1803
S'NN'
p1804
S'I-NP'
p1805
g5
tp1806
a(S'scores'
p1807
S'score'
p1808
S'NNS'
p1809
S'I-NP'
p1810
g5
tp1811
a(S'decreased'
p1812
S'decrease'
p1813
S'VBD'
p1814
S'B-VP'
p1815
g5
tp1816
a(S'significantly'
p1817
S'significantly'
p1818
S'RB'
p1819
S'B-ADVP'
p1820
g5
tp1821
a(S'by'
p1822
S'by'
p1823
S'IN'
p1824
S'B-PP'
p1825
g5
tp1826
a(S'0.8'
p1827
S'0.8'
p1828
S'CD'
p1829
S'B-NP'
p1830
g5
tp1831
a(S'points'
p1832
S'point'
p1833
S'NNS'
p1834
S'I-NP'
p1835
g5
tp1836
a(g173
g173
g173
g5
g5
tp1837
a(S'P'
p1838
g1838
S'NN'
p1839
S'B-NP'
p1840
g5
tp1841
a(S'='
p1842
g1842
S'SYM'
p1843
S'B-VP'
p1844
g5
tp1845
a(S'.03'
p1846
S'.03'
p1847
S'CD'
p1848
S'B-NP'
p1849
g5
tp1850
a(g180
g180
g180
g5
g5
tp1851
a(S'for'
p1852
S'for'
p1853
S'IN'
p1854
S'B-PP'
p1855
g5
tp1856
a(S'subjects'
p1857
S'subject'
p1858
S'NNS'
p1859
S'B-NP'
p1860
g5
tp1861
a(S'within'
p1862
S'within'
p1863
S'IN'
p1864
S'B-PP'
p1865
g5
tp1866
a(S'groups'
p1867
S'group'
p1868
S'NNS'
p1869
S'B-NP'
p1870
g5
tp1871
a(g1150
g1150
S'NNP'
p1872
S'I-NP'
p1873
g5
tp1874
a(S'and'
p1875
S'and'
p1876
S'CC'
p1877
S'I-NP'
p1878
g5
tp1879
a(S'D.'
p1880
S'D.'
p1881
S'NNP'
p1882
S'I-NP'
p1883
g5
tp1884
a(S'Significant'
p1885
S'Significant'
p1886
S'NNP'
p1887
S'I-NP'
p1888
g5
tp1889
a(S'changes'
p1890
S'change'
p1891
S'NNS'
p1892
S'I-NP'
p1893
g5
tp1894
a(S'were'
p1895
S'be'
p1896
S'VBD'
p1897
S'B-VP'
p1898
g5
tp1899
a(S'not'
p1900
S'not'
p1901
S'RB'
p1902
S'I-VP'
p1903
g5
tp1904
a(S'observed'
p1905
S'observe'
p1906
S'VBN'
p1907
S'I-VP'
p1908
g5
tp1909
a(S'within'
p1910
S'within'
p1911
S'IN'
p1912
S'B-PP'
p1913
g5
tp1914
a(S'groups'
p1915
S'group'
p1916
S'NNS'
p1917
S'B-NP'
p1918
g5
tp1919
a(g1007
g1007
S'NNP'
p1920
S'I-NP'
p1921
g5
tp1922
a(S'and'
p1923
S'and'
p1924
S'CC'
p1925
S'I-NP'
p1926
g5
tp1927
a(S'B.'
p1928
S'B.'
p1929
S'NNP'
p1930
S'I-NP'
p1931
g5
tp1932
a(S'Mean'
p1933
S'Mean'
p1934
S'NNP'
p1935
S'I-NP'
p1936
g5
tp1937
a(S'anxiety'
p1938
S'anxiety'
p1939
S'NN'
p1940
S'I-NP'
p1941
g5
tp1942
a(S'and'
p1943
S'and'
p1944
S'CC'
p1945
S'I-NP'
p1946
g5
tp1947
a(S'behavior'
p1948
S'behavior'
p1949
S'NN'
p1950
S'I-NP'
p1951
g5
tp1952
a(S'scores'
p1953
S'score'
p1954
S'NNS'
p1955
S'I-NP'
p1956
g5
tp1957
a(S'did'
p1958
S'do'
p1959
S'VBD'
p1960
S'B-VP'
p1961
g5
tp1962
a(S'not'
p1963
S'not'
p1964
S'RB'
p1965
S'I-VP'
p1966
g5
tp1967
a(S'differ'
p1968
S'differ'
p1969
S'VB'
p1970
S'I-VP'
p1971
g5
tp1972
a(S'significantly'
p1973
S'significantly'
p1974
S'RB'
p1975
S'B-ADVP'
p1976
g5
tp1977
a(S'between'
p1978
S'between'
p1979
S'IN'
p1980
S'B-PP'
p1981
g5
tp1982
a(S'groups'
p1983
S'group'
p1984
S'NNS'
p1985
S'B-NP'
p1986
g5
tp1987
a(S'over'
p1988
S'over'
p1989
S'IN'
p1990
S'B-PP'
p1991
g5
tp1992
a(S'time'
p1993
S'time'
p1994
S'NN'
p1995
S'B-NP'
p1996
g5
tp1997
a(g310
g310
g310
g5
g5
tp1998
a(S'although'
p1999
S'although'
p2000
S'IN'
p2001
S'B-SBAR'
p2002
g5
tp2003
a(S'group'
p2004
S'group'
p2005
S'NN'
p2006
S'B-NP'
p2007
g5
tp2008
a(g1007
g1007
S'NN'
p2009
S'I-NP'
p2010
g5
tp2011
a(S'versus'
p2012
S'versus'
p2013
S'IN'
p2014
S'B-PP'
p2015
g5
tp2016
a(g1150
g1150
S'NN'
p2017
S'B-NP'
p2018
g5
tp2019
a(S'pairwise'
p2020
S'pairwise'
p2021
S'NN'
p2022
S'I-NP'
p2023
g5
tp2024
a(S'comparisons'
p2025
S'comparison'
p2026
S'NNS'
p2027
S'I-NP'
p2028
g5
tp2029
a(S'showed'
p2030
S'show'
p2031
S'VBD'
p2032
S'B-VP'
p2033
g5
tp2034
a(g49
g49
S'DT'
p2035
S'B-NP'
p2036
g5
tp2037
a(S'trend'
p2038
S'trend'
p2039
S'NN'
p2040
S'I-NP'
p2041
g5
tp2042
a(S'toward'
p2043
S'toward'
p2044
S'IN'
p2045
S'B-PP'
p2046
g5
tp2047
a(S'significance'
p2048
S'significance'
p2049
S'NN'
p2050
S'B-NP'
p2051
g5
tp2052
a(g173
g173
g173
g5
g5
tp2053
a(g1838
g1838
S'NN'
p2054
S'B-NP'
p2055
g5
tp2056
a(g1842
g1842
S'SYM'
p2057
S'B-VP'
p2058
g5
tp2059
a(S'.06'
p2060
S'.06'
p2061
S'CD'
p2062
S'B-NP'
p2063
g5
tp2064
a(g180
g180
g180
g5
g5
tp2065
a(g93
g93
g93
g5
g5
tp2066
a(S'CONCLUSION'
p2067
S'CONCLUSION'
p2068
S'NN'
p2069
S'B-NP'
p2070
g5
tp2071
a(S'These'
p2072
S'These'
p2073
S'DT'
p2074
S'B-NP'
p2075
g5
tp2076
a(S'findings'
p2077
S'finding'
p2078
S'NNS'
p2079
S'I-NP'
p2080
g5
tp2081
a(S'suggest'
p2082
S'suggest'
p2083
S'VBP'
p2084
S'B-VP'
p2085
g5
tp2086
a(S'that'
p2087
S'that'
p2088
S'IN'
p2089
S'B-SBAR'
p2090
g5
tp2091
a(S'certain'
p2092
S'certain'
p2093
S'JJ'
p2094
S'B-NP'
p2095
g5
tp2096
a(S'electronic'
p2097
S'electronic'
p2098
S'JJ'
p2099
S'I-NP'
p2100
g5
tp2101
a(S'screen'
p2102
S'screen'
p2103
S'NN'
p2104
S'I-NP'
p2105
g5
tp2106
a(S'media'
p2107
S'medium'
p2108
S'NNS'
p2109
S'I-NP'
p2110
g5
tp2111
a(S'technologies'
p2112
S'technology'
p2113
S'NNS'
p2114
S'I-NP'
p2115
g5
tp2116
a(S'may'
p2117
S'may'
p2118
S'MD'
p2119
S'B-VP'
p2120
g5
tp2121
a(S'be'
p2122
S'be'
p2123
S'VB'
p2124
S'I-VP'
p2125
g5
tp2126
a(S'useful'
p2127
S'useful'
p2128
S'JJ'
p2129
S'B-NP'
p2130
g5
tp2131
a(S'tools'
p2132
S'tool'
p2133
S'NNS'
p2134
S'I-NP'
p2135
g5
tp2136
a(S'for'
p2137
S'for'
p2138
S'IN'
p2139
S'B-PP'
p2140
g5
tp2141
a(S'reducing'
p2142
S'reduce'
p2143
S'VBG'
p2144
S'B-VP'
p2145
g5
tp2146
a(S'fear'
p2147
S'fear'
p2148
S'NN'
p2149
S'B-NP'
p2150
g5
tp2151
a(S'and'
p2152
S'and'
p2153
S'CC'
p2154
g5
g5
tp2155
a(S'uncooperative'
p2156
S'uncooperative'
p2157
S'JJ'
p2158
S'B-NP'
p2159
g5
tp2160
a(S'behaviors'
p2161
S'behavior'
p2162
S'NNS'
p2163
S'I-NP'
p2164
g5
tp2165
a(S'among'
p2166
S'among'
p2167
S'IN'
p2168
S'B-PP'
p2169
g5
tp2170
a(S'children'
p2171
S'child'
p2172
S'NNS'
p2173
S'B-NP'
p2174
g5
tp2175
a(S'with'
p2176
S'with'
p2177
S'IN'
p2178
S'B-PP'
p2179
g5
tp2180
a(S'ASD'
p2181
S'ASD'
p2182
S'NN'
p2183
S'B-NP'
p2184
g5
tp2185
a(S'undergoing'
p2186
S'undergo'
p2187
S'VBG'
p2188
S'B-VP'
p2189
g5
tp2190
a(S'dental'
p2191
S'dental'
p2192
S'JJ'
p2193
S'B-NP'
p2194
g5
tp2195
a(S'visits.'
p2196
S'visits.'
p2197
S'FW'
p2198
S'I-NP'
p2199
g5
tp2200
a(S'Further'
p2201
S'Further'
p2202
S'JJ'
p2203
S'I-NP'
p2204
g5
tp2205
a(S'studies'
p2206
S'study'
p2207
S'NNS'
p2208
S'I-NP'
p2209
g5
tp2210
a(S'are'
p2211
S'be'
p2212
S'VBP'
p2213
S'B-VP'
p2214
g5
tp2215
a(S'needed'
p2216
S'need'
p2217
S'VBN'
p2218
S'I-VP'
p2219
g5
tp2220
a(S'to'
p2221
S'to'
p2222
S'TO'
p2223
S'B-VP'
p2224
g5
tp2225
a(S'assess'
p2226
S'assess'
p2227
S'VB'
p2228
S'I-VP'
p2229
g5
tp2230
a(S'the'
p2231
S'the'
p2232
S'DT'
p2233
S'B-NP'
p2234
g5
tp2235
a(S'efficacy'
p2236
S'efficacy'
p2237
S'NN'
p2238
S'I-NP'
p2239
g5
tp2240
a(S'of'
p2241
S'of'
p2242
S'IN'
p2243
S'B-PP'
p2244
g5
tp2245
a(S'these'
p2246
S'these'
p2247
S'DT'
p2248
S'B-NP'
p2249
g5
tp2250
a(S'strategies'
p2251
S'strategy'
p2252
S'NNS'
p2253
S'I-NP'
p2254
g5
tp2255
a(S'using'
p2256
S'use'
p2257
S'VBG'
p2258
S'B-VP'
p2259
g5
tp2260
a(S'larger'
p2261
S'large'
p2262
S'JJR'
p2263
S'B-NP'
p2264
g5
tp2265
a(S'sample'
p2266
S'sample'
p2267
S'NN'
p2268
S'I-NP'
p2269
g5
tp2270
a(S'sizes.'
p2271
S'sizes.'
p2272
S'NN'
p2273
S'I-NP'
p2274
g5
tp2275
a(S'Findings'
p2276
S'Finding'
p2277
S'NNS'
p2278
S'I-NP'
p2279
g5
tp2280
a(S'from'
p2281
S'from'
p2282
S'IN'
p2283
S'B-PP'
p2284
g5
tp2285
a(S'future'
p2286
S'future'
p2287
S'JJ'
p2288
S'B-NP'
p2289
g5
tp2290
a(S'studies'
p2291
S'study'
p2292
S'NNS'
p2293
S'I-NP'
p2294
g5
tp2295
a(S'could'
p2296
S'could'
p2297
S'MD'
p2298
S'B-VP'
p2299
g5
tp2300
a(S'be'
p2301
S'be'
p2302
S'VB'
p2303
S'I-VP'
p2304
g5
tp2305
a(S'relevant'
p2306
S'relevant'
p2307
S'JJ'
p2308
S'B-ADJP'
p2309
g5
tp2310
a(S'for'
p2311
S'for'
p2312
S'IN'
p2313
S'B-PP'
p2314
g5
tp2315
a(S'nondental'
p2316
S'nondental'
p2317
S'JJ'
p2318
S'B-NP'
p2319
g5
tp2320
a(S'providers'
p2321
S'provider'
p2322
S'NNS'
p2323
S'I-NP'
p2324
g5
tp2325
a(S'who'
p2326
S'who'
p2327
S'WP'
p2328
S'B-NP'
p2329
g5
tp2330
a(S'care'
p2331
S'care'
p2332
S'VBP'
p2333
S'B-VP'
p2334
g5
tp2335
a(S'for'
p2336
S'for'
p2337
S'IN'
p2338
S'B-PP'
p2339
g5
tp2340
a(S'children'
p2341
S'child'
p2342
S'NNS'
p2343
S'B-NP'
p2344
g5
tp2345
a(S'with'
p2346
S'with'
p2347
S'IN'
p2348
S'B-PP'
p2349
g5
tp2350
a(S'ASD'
p2351
S'ASD'
p2352
S'NN'
p2353
S'B-NP'
p2354
g5
tp2355
a(S'in'
p2356
S'in'
p2357
S'IN'
p2358
S'B-PP'
p2359
g5
tp2360
a(S'other'
p2361
S'other'
p2362
S'JJ'
p2363
S'B-NP'
p2364
g5
tp2365
a(S'medical'
p2366
S'medical'
p2367
S'JJ'
p2368
S'I-NP'
p2369
g5
tp2370
a(S'settings'
p2371
S'setting'
p2372
S'NNS'
p2373
S'I-NP'
p2374
g5
tp2375
a(g93
g93
g93
g5
g5
tp2376
a.