(lp0
(S'Assessing'
p1
S'Assess'
p2
S'VBG'
p3
S'B-VP'
p4
S'O'
p5
tp6
a(S'the'
p7
S'the'
p8
S'DT'
p9
S'B-NP'
p10
g5
tp11
a(S'benefit'
p12
S'benefit'
p13
S'NN'
p14
S'I-NP'
p15
g5
tp16
a(S'of'
p17
S'of'
p18
S'IN'
p19
S'B-PP'
p20
g5
tp21
a(S'a'
p22
g22
S'DT'
p23
S'B-NP'
p24
g5
tp25
a(S'personalized'
p26
S'personalize'
p27
S'VBN'
p28
S'I-NP'
p29
g5
tp30
a(S'EHR-generated'
p31
S'EHR-generated'
p32
S'JJ'
p33
S'I-NP'
p34
g5
tp35
a(S'informed'
p36
S'inform'
p37
S'VBN'
p38
S'I-NP'
p39
g5
tp40
a(S'consent'
p41
S'consent'
p42
S'NN'
p43
S'I-NP'
p44
g5
tp45
a(S'in'
p46
S'in'
p47
S'IN'
p48
S'B-PP'
p49
g5
tp50
a(g22
g22
S'DT'
p51
S'B-NP'
p52
g5
tp53
a(S'dental'
p54
S'dental'
p55
S'JJ'
p56
S'I-NP'
p57
g5
tp58
a(S'school'
p59
S'school'
p60
S'NN'
p61
S'I-NP'
p62
g5
tp63
a(S'setting'
p64
S'setting'
p65
S'NN'
p66
S'I-NP'
p67
g5
tp68
a(S'.'
p69
g69
g69
g5
g5
tp70
a(S'Informed'
p71
S'Informed'
p72
S'JJ'
p73
S'B-NP'
p74
g5
tp75
a(S'consents'
p76
S'consent'
p77
S'NNS'
p78
S'I-NP'
p79
g5
tp80
a(S'are'
p81
S'be'
p82
S'VBP'
p83
S'B-VP'
p84
g5
tp85
a(S'routinely'
p86
S'routinely'
p87
S'RB'
p88
S'I-VP'
p89
g5
tp90
a(S'used'
p91
S'use'
p92
S'VBN'
p93
S'I-VP'
p94
g5
tp95
a(S'as'
p96
S'as'
p97
S'IN'
p98
S'B-PP'
p99
g5
tp100
a(S'an'
p101
S'an'
p102
S'DT'
p103
S'B-NP'
p104
g5
tp105
a(S'important'
p106
S'important'
p107
S'JJ'
p108
S'I-NP'
p109
g5
tp110
a(S'source'
p111
S'source'
p112
S'NN'
p113
S'I-NP'
p114
g5
tp115
a(S'of'
p116
S'of'
p117
S'IN'
p118
S'B-PP'
p119
g5
tp120
a(S'information'
p121
S'information'
p122
S'NN'
p123
S'B-NP'
p124
g5
tp125
a(S'to'
p126
S'to'
p127
S'TO'
p128
S'B-VP'
p129
g5
tp130
a(S'help'
p131
S'help'
p132
S'VB'
p133
S'I-VP'
p134
g5
tp135
a(S'patients'
p136
S'patient'
p137
S'NNS'
p138
S'B-NP'
p139
g5
tp140
a(S'make'
p141
S'make'
p142
S'VBP'
p143
S'B-VP'
p144
g5
tp145
a(S'appropriate'
p146
S'appropriate'
p147
S'JJ'
p148
S'B-NP'
p149
g5
tp150
a(S'clinical'
p151
S'clinical'
p152
S'JJ'
p153
S'I-NP'
p154
g5
tp155
a(S'decisions.'
p156
S'decisions.'
p157
S'NN'
p158
S'I-NP'
p159
g5
tp160
a(S'However'
p161
S'However'
p162
S'RB'
p163
S'B-ADVP'
p164
g5
tp165
a(S','
p166
g166
g166
g5
g5
tp167
a(S'current'
p168
S'current'
p169
S'JJ'
p170
S'B-NP'
p171
g5
tp172
a(S'standard'
p173
S'standard'
p174
S'JJ'
p175
S'I-NP'
p176
g5
tp177
a(S'consent'
p178
S'consent'
p179
S'NN'
p180
S'I-NP'
p181
g5
tp182
a(S'forms'
p183
S'form'
p184
S'NNS'
p185
S'I-NP'
p186
g5
tp187
a(S'may'
p188
S'may'
p189
S'MD'
p190
S'B-VP'
p191
g5
tp192
a(S'not'
p193
S'not'
p194
S'RB'
p195
S'I-VP'
p196
g5
tp197
a(S'accomplish'
p198
S'accomplish'
p199
S'VB'
p200
S'I-VP'
p201
g5
tp202
a(S'their'
p203
S'their'
p204
S'PRP$'
p205
S'B-NP'
p206
g5
tp207
a(S'intended'
p208
S'intended'
p209
S'JJ'
p210
S'I-NP'
p211
g5
tp212
a(S'purpose'
p213
S'purpose'
p214
S'NN'
p215
S'I-NP'
p216
g5
tp217
a(S'due'
p218
S'due'
p219
S'JJ'
p220
S'B-PP'
p221
g5
tp222
a(S'to'
p223
S'to'
p224
S'TO'
p225
S'B-PP'
p226
g5
tp227
a(S'the'
p228
S'the'
p229
S'DT'
p230
S'B-NP'
p231
g5
tp232
a(S'variety'
p233
S'variety'
p234
S'NN'
p235
S'I-NP'
p236
g5
tp237
a(S'of'
p238
S'of'
p239
S'IN'
p240
S'B-PP'
p241
g5
tp242
a(S'patient'
p243
S'patient'
p244
S'NN'
p245
S'B-NP'
p246
g5
tp247
a(S'literacy'
p248
S'literacy'
p249
S'NN'
p250
S'I-NP'
p251
g5
tp252
a(S'and'
p253
S'and'
p254
S'CC'
p255
S'I-NP'
p256
g5
tp257
a(S'experiences'
p258
S'experience'
p259
S'NNS'
p260
S'I-NP'
p261
g5
tp262
a(S'and'
p263
S'and'
p264
S'CC'
p265
g5
g5
tp266
a(g166
g166
g166
g5
g5
tp267
a(S'in'
p268
S'in'
p269
S'IN'
p270
S'B-PP'
p271
g5
tp272
a(S'the'
p273
S'the'
p274
S'DT'
p275
S'B-NP'
p276
g5
tp277
a(S'dental'
p278
S'dental'
p279
S'JJ'
p280
S'I-NP'
p281
g5
tp282
a(S'school'
p283
S'school'
p284
S'NN'
p285
S'I-NP'
p286
g5
tp287
a(S'setting'
p288
S'setting'
p289
S'NN'
p290
S'I-NP'
p291
g5
tp292
a(g166
g166
g166
g5
g5
tp293
a(S'the'
p294
S'the'
p295
S'DT'
p296
S'B-NP'
p297
g5
tp298
a(S'developing'
p299
S'develop'
p300
S'VBG'
p301
S'I-NP'
p302
g5
tp303
a(S'competence'
p304
S'competence'
p305
S'NN'
p306
S'I-NP'
p307
g5
tp308
a(S'of'
p309
S'of'
p310
S'IN'
p311
S'B-PP'
p312
g5
tp313
a(S'students.'
p314
S'students.'
p315
S'NN'
p316
S'B-NP'
p317
g5
tp318
a(S'The'
p319
S'The'
p320
S'DT'
p321
S'B-NP'
p322
g5
tp323
a(S'purpose'
p324
S'purpose'
p325
S'NN'
p326
S'I-NP'
p327
g5
tp328
a(S'of'
p329
S'of'
p330
S'IN'
p331
S'B-PP'
p332
g5
tp333
a(S'this'
p334
S'this'
p335
S'DT'
p336
S'B-NP'
p337
g5
tp338
a(S'pilot'
p339
S'pilot'
p340
S'NN'
p341
S'I-NP'
p342
g5
tp343
a(S'study'
p344
S'study'
p345
S'NN'
p346
S'I-NP'
p347
g5
tp348
a(S'was'
p349
S'be'
p350
S'VBD'
p351
S'B-VP'
p352
g5
tp353
a(S'to'
p354
S'to'
p355
S'TO'
p356
S'B-VP'
p357
g5
tp358
a(S'test'
p359
S'test'
p360
S'VB'
p361
S'I-VP'
p362
g5
tp363
a(S'the'
p364
S'the'
p365
S'DT'
p366
S'B-NP'
p367
g5
tp368
a(S'efficacy'
p369
S'efficacy'
p370
S'NN'
p371
S'I-NP'
p372
g5
tp373
a(S'of'
p374
S'of'
p375
S'IN'
p376
S'B-PP'
p377
g5
tp378
a(g22
g22
S'DT'
p379
S'B-NP'
p380
g5
tp381
a(S'personalized'
p382
S'personalize'
p383
S'VBN'
p384
S'I-NP'
p385
g5
tp386
a(S'informed'
p387
S'inform'
p388
S'VBN'
p389
S'I-NP'
p390
g5
tp391
a(S'consent'
p392
S'consent'
p393
S'NN'
p394
S'I-NP'
p395
g5
tp396
a(S'generated'
p397
S'generate'
p398
S'VBN'
p399
S'B-VP'
p400
g5
tp401
a(S'through'
p402
S'through'
p403
S'IN'
p404
S'B-PP'
p405
g5
tp406
a(S'an'
p407
S'an'
p408
S'DT'
p409
S'B-NP'
p410
g5
tp411
a(S'electronic'
p412
S'electronic'
p413
S'JJ'
p414
S'I-NP'
p415
g5
tp416
a(S'health'
p417
S'health'
p418
S'NN'
p419
S'I-NP'
p420
g5
tp421
a(S'record'
p422
S'record'
p423
S'NN'
p424
S'I-NP'
p425
g5
tp426
a(S'('
p427
g427
g427
g5
g5
tp428
a(S'EHR'
p429
S'EHR'
p430
S'NN'
p431
S'B-NP'
p432
S'B-protein'
p433
tp434
a(S')'
p435
g435
g435
g5
g5
tp436
a(S'at'
p437
S'at'
p438
S'IN'
p439
S'B-PP'
p440
g5
tp441
a(S'one'
p442
S'one'
p443
S'CD'
p444
S'B-NP'
p445
g5
tp446
a(S'dental'
p447
S'dental'
p448
S'JJ'
p449
S'I-NP'
p450
g5
tp451
a(S'school'
p452
S'school'
p453
S'NN'
p454
S'I-NP'
p455
g5
tp456
a(S'and'
p457
S'and'
p458
S'CC'
p459
g5
g5
tp460
a(S'its'
p461
S'its'
p462
S'PRP$'
p463
S'B-NP'
p464
g5
tp465
a(S'role'
p466
S'role'
p467
S'NN'
p468
S'I-NP'
p469
g5
tp470
a(S'in'
p471
S'in'
p472
S'IN'
p473
S'B-PP'
p474
g5
tp475
a(S'patient'
p476
S'patient'
p477
S'NN'
p478
S'B-NP'
p479
g5
tp480
a(S'decision'
p481
S'decision'
p482
S'NN'
p483
S'I-NP'
p484
g5
tp485
a(S'making.'
p486
S'making.'
p487
S'NN'
p488
S'I-NP'
p489
g5
tp490
a(S'In'
p491
S'In'
p492
S'IN'
p493
S'B-PP'
p494
g5
tp495
a(S'the'
p496
S'the'
p497
S'DT'
p498
S'B-NP'
p499
g5
tp500
a(S'study'
p501
S'study'
p502
S'NN'
p503
S'I-NP'
p504
g5
tp505
a(g166
g166
g166
g5
g5
tp506
a(g22
g22
S'DT'
p507
S'B-NP'
p508
g5
tp509
a(S'set'
p510
S'set'
p511
S'NN'
p512
S'I-NP'
p513
g5
tp514
a(S'of'
p515
S'of'
p516
S'IN'
p517
S'B-PP'
p518
g5
tp519
a(S'informed'
p520
S'informed'
p521
S'JJ'
p522
S'B-NP'
p523
g5
tp524
a(S'consents'
p525
S'consent'
p526
S'NNS'
p527
S'I-NP'
p528
g5
tp529
a(g166
g166
g166
g5
g5
tp530
a(S'or'
p531
S'or'
p532
S'CC'
p533
g5
g5
tp534
a(S'SmartConsents'
p535
S'SmartConsent'
p536
S'NNS'
p537
S'B-NP'
p538
g5
tp539
a(g166
g166
g166
g5
g5
tp540
a(S'were'
p541
S'be'
p542
S'VBD'
p543
S'B-VP'
p544
g5
tp545
a(S'developed'
p546
S'develop'
p547
S'VBN'
p548
S'I-VP'
p549
g5
tp550
a(S'for'
p551
S'for'
p552
S'IN'
p553
S'B-PP'
p554
g5
tp555
a(S'specific'
p556
S'specific'
p557
S'JJ'
p558
S'B-NP'
p559
g5
tp560
a(S'diagnoses'
p561
S'diagnosis'
p562
S'NNS'
p563
S'I-NP'
p564
g5
tp565
a(S'and'
p566
S'and'
p567
S'CC'
p568
S'I-NP'
p569
g5
tp570
a(S'procedures'
p571
S'procedure'
p572
S'NNS'
p573
S'I-NP'
p574
g5
tp575
a(g166
g166
g166
g5
g5
tp576
a(S'enhanced'
p577
S'enhance'
p578
S'VBN'
p579
S'B-VP'
p580
g5
tp581
a(S'with'
p582
S'with'
p583
S'IN'
p584
S'B-PP'
p585
g5
tp586
a(S'graphics'
p587
S'graphic'
p588
S'NNS'
p589
S'B-NP'
p590
g5
tp591
a(g166
g166
g166
g5
g5
tp592
a(S'and'
p593
S'and'
p594
S'CC'
p595
g5
g5
tp596
a(S'delivered'
p597
S'deliver'
p598
S'VBN'
p599
S'B-VP'
p600
g5
tp601
a(S'through'
p602
S'through'
p603
S'IN'
p604
S'B-PP'
p605
g5
tp606
a(S'the'
p607
S'the'
p608
S'DT'
p609
S'B-NP'
p610
g5
tp611
a(S'school'
p612
S'school'
p613
S'NN'
p614
S'I-NP'
p615
g5
tp616
a(S"'s"
p617
S"'s"
p618
S'POS'
p619
S'B-NP'
p620
g5
tp621
a(S'EHR.'
p622
S'EHR.'
p623
S'NNP'
p624
S'I-NP'
p625
g5
tp626
a(S'Fifty'
p627
S'Fifty'
p628
S'NNP'
p629
S'I-NP'
p630
g5
tp631
a(S'patients'
p632
S'patient'
p633
S'NNS'
p634
S'I-NP'
p635
g5
tp636
a(S'were'
p637
S'be'
p638
S'VBD'
p639
S'B-VP'
p640
g5
tp641
a(S'recruited'
p642
S'recruit'
p643
S'VBN'
p644
S'I-VP'
p645
g5
tp646
a(S'in'
p647
S'in'
p648
S'IN'
p649
S'B-PP'
p650
g5
tp651
a(S'the'
p652
S'the'
p653
S'DT'
p654
S'B-NP'
p655
g5
tp656
a(S'school'
p657
S'school'
p658
S'NN'
p659
S'I-NP'
p660
g5
tp661
a(S"'s"
p662
S"'s"
p663
S'POS'
p664
S'B-NP'
p665
g5
tp666
a(S'Urgent'
p667
S'Urgent'
p668
S'NNP'
p669
S'I-NP'
p670
g5
tp671
a(S'Care'
p672
S'Care'
p673
S'NNP'
p674
S'I-NP'
p675
g5
tp676
a(S'Clinic'
p677
S'Clinic'
p678
S'NNP'
p679
S'I-NP'
p680
g5
tp681
a(S'and'
p682
S'and'
p683
S'CC'
p684
g5
g5
tp685
a(S'divided'
p686
S'divide'
p687
S'VBN'
p688
S'B-VP'
p689
g5
tp690
a(S'evenly'
p691
S'evenly'
p692
S'RB'
p693
S'B-ADVP'
p694
g5
tp695
a(S'into'
p696
S'into'
p697
S'IN'
p698
S'B-PP'
p699
g5
tp700
a(S'two'
p701
S'two'
p702
S'CD'
p703
S'B-NP'
p704
g5
tp705
a(S'groups'
p706
S'group'
p707
S'NNS'
p708
S'I-NP'
p709
g5
tp710
a(S':'
p711
g711
g711
g5
g5
tp712
a(S'one'
p713
S'one'
p714
S'CD'
p715
S'B-NP'
p716
g5
tp717
a(g427
g427
g427
g5
g5
tp718
a(S'control'
p719
S'control'
p720
S'NN'
p721
S'B-NP'
p722
g5
tp723
a(g435
g435
g435
g5
g5
tp724
a(S'receiving'
p725
S'receive'
p726
S'VBG'
p727
S'B-VP'
p728
g5
tp729
a(S'the'
p730
S'the'
p731
S'DT'
p732
S'B-NP'
p733
g5
tp734
a(S'standard'
p735
S'standard'
p736
S'JJ'
p737
S'I-NP'
p738
g5
tp739
a(S'consent'
p740
S'consent'
p741
S'NN'
p742
S'I-NP'
p743
g5
tp744
a(g166
g166
g166
g5
g5
tp745
a(S'with'
p746
S'with'
p747
S'IN'
p748
S'B-PP'
p749
g5
tp750
a(S'the'
p751
S'the'
p752
S'DT'
p753
S'B-NP'
p754
g5
tp755
a(S'second'
p756
S'second'
p757
S'NN'
p758
S'I-NP'
p759
g5
tp760
a(S'receiving'
p761
S'receive'
p762
S'VBG'
p763
S'B-VP'
p764
g5
tp765
a(g22
g22
S'DT'
p766
S'B-NP'
p767
g5
tp768
a(S'SmartConsent.'
p769
S'SmartConsent.'
p770
S'NNP'
p771
S'I-NP'
p772
g5
tp773
a(S'Following'
p774
S'Following'
p775
S'NNP'
p776
S'I-NP'
p777
g5
tp778
a(S'treatment'
p779
S'treatment'
p780
S'NN'
p781
S'I-NP'
p782
g5
tp783
a(g166
g166
g166
g5
g5
tp784
a(S'patients'
p785
S'patient'
p786
S'NNS'
p787
S'B-NP'
p788
g5
tp789
a(S'were'
p790
S'be'
p791
S'VBD'
p792
S'B-VP'
p793
g5
tp794
a(S'assessed'
p795
S'assess'
p796
S'VBN'
p797
S'I-VP'
p798
g5
tp799
a(S'based'
p800
S'base'
p801
S'VBN'
p802
S'B-PP'
p803
g5
tp804
a(S'on'
p805
S'on'
p806
S'IN'
p807
S'B-PP'
p808
g5
tp809
a(S'demographics'
p810
S'demographic'
p811
S'NNS'
p812
S'B-NP'
p813
g5
tp814
a(g166
g166
g166
g5
g5
tp815
a(S'decisional'
p816
S'decisional'
p817
S'JJ'
p818
S'B-NP'
p819
g5
tp820
a(S'conflict'
p821
S'conflict'
p822
S'NN'
p823
S'I-NP'
p824
g5
tp825
a(g166
g166
g166
g5
g5
tp826
a(S'satisfaction'
p827
S'satisfaction'
p828
S'NN'
p829
S'B-NP'
p830
g5
tp831
a(g166
g166
g166
g5
g5
tp832
a(S'health'
p833
S'health'
p834
S'NN'
p835
S'B-NP'
p836
g5
tp837
a(S'literacy'
p838
S'literacy'
p839
S'NN'
p840
S'I-NP'
p841
g5
tp842
a(g166
g166
g166
g5
g5
tp843
a(S'and'
p844
S'and'
p845
S'CC'
p846
g5
g5
tp847
a(S'knowledge.'
p848
S'knowledge.'
p849
S'NN'
p850
S'B-NP'
p851
g5
tp852
a(S'Overall'
p853
S'Overall'
p854
S'RB'
p855
S'B-ADVP'
p856
g5
tp857
a(g166
g166
g166
g5
g5
tp858
a(S'there'
p859
S'there'
p860
S'EX'
p861
S'B-NP'
p862
g5
tp863
a(S'were'
p864
S'be'
p865
S'VBD'
p866
S'B-VP'
p867
g5
tp868
a(S'no'
p869
S'no'
p870
S'DT'
p871
S'B-NP'
p872
g5
tp873
a(S'significant'
p874
S'significant'
p875
S'JJ'
p876
S'I-NP'
p877
g5
tp878
a(S'differences'
p879
S'difference'
p880
S'NNS'
p881
S'I-NP'
p882
g5
tp883
a(S'in'
p884
S'in'
p885
S'IN'
p886
S'B-PP'
p887
g5
tp888
a(S'main'
p889
S'main'
p890
S'JJ'
p891
S'B-NP'
p892
g5
tp893
a(S'effects'
p894
S'effect'
p895
S'NNS'
p896
S'I-NP'
p897
g5
tp898
a(S'between'
p899
S'between'
p900
S'IN'
p901
S'B-PP'
p902
g5
tp903
a(S'SmartConsent'
p904
S'SmartConsent'
p905
S'JJ'
p906
S'B-NP'
p907
g5
tp908
a(S'and'
p909
S'and'
p910
S'CC'
p911
S'I-NP'
p912
g5
tp913
a(S'standard'
p914
S'standard'
p915
S'JJ'
p916
S'I-NP'
p917
g5
tp918
a(S'informed'
p919
S'informed'
p920
S'JJ'
p921
S'I-NP'
p922
g5
tp923
a(S'consents'
p924
S'consent'
p925
S'NNS'
p926
S'I-NP'
p927
g5
tp928
a(S'for'
p929
S'for'
p930
S'IN'
p931
S'B-PP'
p932
g5
tp933
a(S'decisional'
p934
S'decisional'
p935
S'JJ'
p936
S'B-NP'
p937
g5
tp938
a(S'conflict'
p939
S'conflict'
p940
S'NN'
p941
S'I-NP'
p942
g5
tp943
a(S'and'
p944
S'and'
p945
S'CC'
p946
S'I-NP'
p947
g5
tp948
a(S'satisfaction'
p949
S'satisfaction'
p950
S'NN'
p951
S'I-NP'
p952
g5
tp953
a(g166
g166
g166
g5
g5
tp954
a(S'although'
p955
S'although'
p956
S'IN'
p957
S'B-SBAR'
p958
g5
tp959
a(S'significant'
p960
S'significant'
p961
S'JJ'
p962
S'B-NP'
p963
g5
tp964
a(S'differences'
p965
S'difference'
p966
S'NNS'
p967
S'I-NP'
p968
g5
tp969
a(S'were'
p970
S'be'
p971
S'VBD'
p972
S'B-VP'
p973
g5
tp974
a(S'identified'
p975
S'identify'
p976
S'VBN'
p977
S'I-VP'
p978
g5
tp979
a(S'during'
p980
S'during'
p981
S'IN'
p982
S'B-PP'
p983
g5
tp984
a(S'secondary'
p985
S'secondary'
p986
S'JJ'
p987
S'B-NP'
p988
g5
tp989
a(S'analysis'
p990
S'analysis'
p991
S'NN'
p992
S'I-NP'
p993
g5
tp994
a(S'of'
p995
S'of'
p996
S'IN'
p997
S'B-PP'
p998
g5
tp999
a(S'satisfaction'
p1000
S'satisfaction'
p1001
S'NN'
p1002
S'B-NP'
p1003
g5
tp1004
a(g166
g166
g166
g5
g5
tp1005
a(S'gender'
p1006
S'gender'
p1007
S'NN'
p1008
S'B-NP'
p1009
g5
tp1010
a(g166
g166
g166
g5
g5
tp1011
a(S'and'
p1012
S'and'
p1013
S'CC'
p1014
g5
g5
tp1015
a(S'ethnicity.'
p1016
S'ethnicity.'
p1017
S'FW'
p1018
S'B-NP'
p1019
g5
tp1020
a(S'The'
p1021
S'The'
p1022
S'DT'
p1023
S'B-NP'
p1024
g5
tp1025
a(S'study'
p1026
S'study'
p1027
S'NN'
p1028
S'I-NP'
p1029
g5
tp1030
a(S'also'
p1031
S'also'
p1032
S'RB'
p1033
S'B-ADVP'
p1034
g5
tp1035
a(S'demonstrated'
p1036
S'demonstrate'
p1037
S'VBD'
p1038
S'B-VP'
p1039
g5
tp1040
a(S'the'
p1041
S'the'
p1042
S'DT'
p1043
S'B-NP'
p1044
g5
tp1045
a(S'potential'
p1046
S'potential'
p1047
S'NN'
p1048
S'I-NP'
p1049
g5
tp1050
a(S'for'
p1051
S'for'
p1052
S'IN'
p1053
S'B-PP'
p1054
g5
tp1055
a(S'consents'
p1056
S'consent'
p1057
S'NNS'
p1058
S'B-NP'
p1059
g5
tp1060
a(S'to'
p1061
S'to'
p1062
S'TO'
p1063
S'B-VP'
p1064
g5
tp1065
a(S'aid'
p1066
S'aid'
p1067
S'VB'
p1068
S'I-VP'
p1069
g5
tp1070
a(S'the'
p1071
S'the'
p1072
S'DT'
p1073
S'B-NP'
p1074
g5
tp1075
a(S'student'
p1076
S'student'
p1077
S'NN'
p1078
S'I-NP'
p1079
g5
tp1080
a(S'provider'
p1081
S'provider'
p1082
S'NN'
p1083
S'I-NP'
p1084
g5
tp1085
a(S'in'
p1086
S'in'
p1087
S'IN'
p1088
S'B-PP'
p1089
g5
tp1090
a(S'better'
p1091
S'well'
p1092
S'RBR'
p1093
S'B-NP'
p1094
g5
tp1095
a(S'communicating'
p1096
S'communicate'
p1097
S'VBG'
p1098
S'I-NP'
p1099
g5
tp1100
a(S'with'
p1101
S'with'
p1102
S'IN'
p1103
S'B-PP'
p1104
g5
tp1105
a(S'patients'
p1106
S'patient'
p1107
S'NNS'
p1108
S'B-NP'
p1109
g5
tp1110
a(g69
g69
g69
g5
g5
tp1111
a.