(lp0
(S'Prophylactic'
p1
S'Prophylactic'
p2
S'JJ'
p3
S'B-NP'
p4
S'O'
p5
tp6
a(S'amnioinfusion'
p7
S'amnioinfusion'
p8
S'NN'
p9
S'I-NP'
p10
g5
tp11
a(S'in'
p12
S'in'
p13
S'IN'
p14
S'B-PP'
p15
g5
tp16
a(S'pregnancies'
p17
S'pregnancy'
p18
S'NNS'
p19
S'B-NP'
p20
g5
tp21
a(S'complicated'
p22
S'complicate'
p23
S'VBN'
p24
S'B-VP'
p25
g5
tp26
a(S'by'
p27
S'by'
p28
S'IN'
p29
S'B-PP'
p30
g5
tp31
a(S'oligohydramnios'
p32
S'oligohydramnio'
p33
S'NNS'
p34
S'B-NP'
p35
g5
tp36
a(S':'
p37
g37
g37
g5
g5
tp38
a(S'a'
p39
g39
S'DT'
p40
S'B-NP'
p41
g5
tp42
a(S'prospective'
p43
S'prospective'
p44
S'JJ'
p45
S'I-NP'
p46
g5
tp47
a(S'study'
p48
S'study'
p49
S'NN'
p50
S'I-NP'
p51
g5
tp52
a(S'.'
p53
g53
g53
g5
g5
tp54
a(S'Prophylactic'
p55
S'Prophylactic'
p56
S'JJ'
p57
S'B-NP'
p58
g5
tp59
a(S'amnioinfusion'
p60
S'amnioinfusion'
p61
S'NN'
p62
S'I-NP'
p63
g5
tp64
a(S'was'
p65
S'be'
p66
S'VBD'
p67
S'B-VP'
p68
g5
tp69
a(S'assessed'
p70
S'assess'
p71
S'VBN'
p72
S'I-VP'
p73
g5
tp74
a(S'in'
p75
S'in'
p76
S'IN'
p77
S'B-PP'
p78
g5
tp79
a(S'term'
p80
S'term'
p81
S'NN'
p82
S'B-NP'
p83
g5
tp84
a(S'and'
p85
S'and'
p86
S'CC'
p87
g5
g5
tp88
a(S'post-dates'
p89
S'post-dates'
p90
S'JJ'
p91
S'B-NP'
p92
g5
tp93
a(S'pregnancies'
p94
S'pregnancy'
p95
S'NNS'
p96
S'I-NP'
p97
g5
tp98
a(S'with'
p99
S'with'
p100
S'IN'
p101
S'B-PP'
p102
g5
tp103
a(S'decreased'
p104
S'decrease'
p105
S'VBN'
p106
S'B-NP'
p107
g5
tp108
a(S'amniotic'
p109
S'amniotic'
p110
S'JJ'
p111
S'I-NP'
p112
g5
tp113
a(S'fluid'
p114
S'fluid'
p115
S'NN'
p116
S'I-NP'
p117
g5
tp118
a(S'volume.'
p119
S'volume.'
p120
S'NN'
p121
S'I-NP'
p122
g5
tp123
a(S'Subjects'
p124
S'Subject'
p125
S'NNS'
p126
S'I-NP'
p127
g5
tp128
a(S'were'
p129
S'be'
p130
S'VBD'
p131
S'B-VP'
p132
g5
tp133
a(S'randomly'
p134
S'randomly'
p135
S'RB'
p136
S'I-VP'
p137
g5
tp138
a(S'assigned'
p139
S'assign'
p140
S'VBN'
p141
S'I-VP'
p142
g5
tp143
a(S'to'
p144
S'to'
p145
S'TO'
p146
S'B-PP'
p147
g5
tp148
a(S'one'
p149
S'one'
p150
S'CD'
p151
S'B-NP'
p152
g5
tp153
a(S'of'
p154
S'of'
p155
S'IN'
p156
S'B-PP'
p157
g5
tp158
a(S'three'
p159
S'three'
p160
S'CD'
p161
S'B-NP'
p162
g5
tp163
a(S'groups'
p164
S'group'
p165
S'NNS'
p166
S'I-NP'
p167
g5
tp168
a(g37
g37
g37
g5
g5
tp169
a(S'amnioinfusion'
p170
S'amnioinfusion'
p171
S'NN'
p172
S'B-NP'
p173
g5
tp174
a(S'with'
p175
S'with'
p176
S'IN'
p177
S'B-PP'
p178
g5
tp179
a(S'warmed'
p180
S'warm'
p181
S'VBN'
p182
S'B-NP'
p183
g5
tp184
a(S'saline'
p185
S'saline'
p186
S'NN'
p187
S'I-NP'
p188
g5
tp189
a(S'solution'
p190
S'solution'
p191
S'NN'
p192
S'I-NP'
p193
g5
tp194
a(S','
p195
g195
g195
g5
g5
tp196
a(S'room-temperature'
p197
S'room-temperature'
p198
S'NN'
p199
S'B-NP'
p200
g5
tp201
a(S'saline'
p202
S'saline'
p203
S'NN'
p204
S'I-NP'
p205
g5
tp206
a(g195
g195
g195
g5
g5
tp207
a(S'or'
p208
S'or'
p209
S'CC'
p210
g5
g5
tp211
a(S'control.'
p212
S'control.'
p213
S'NN'
p214
S'B-NP'
p215
g5
tp216
a(S'Patients'
p217
S'Patient'
p218
S'NNS'
p219
S'I-NP'
p220
g5
tp221
a(S'receiving'
p222
S'receive'
p223
S'VBG'
p224
S'B-VP'
p225
g5
tp226
a(S'prophylactic'
p227
S'prophylactic'
p228
S'JJ'
p229
S'B-NP'
p230
g5
tp231
a(S'amnioinfusion'
p232
S'amnioinfusion'
p233
S'NN'
p234
S'I-NP'
p235
g5
tp236
a(S'had'
p237
S'have'
p238
S'VBD'
p239
S'B-VP'
p240
g5
tp241
a(g39
g39
S'DT'
p242
S'B-NP'
p243
g5
tp244
a(S'significant'
p245
S'significant'
p246
S'JJ'
p247
S'I-NP'
p248
g5
tp249
a(S'decrease'
p250
S'decrease'
p251
S'NN'
p252
S'I-NP'
p253
g5
tp254
a(S'in'
p255
S'in'
p256
S'IN'
p257
S'B-PP'
p258
g5
tp259
a(S'both'
p260
S'both'
p261
S'CC'
p262
S'B-NP'
p263
g5
tp264
a(S'the'
p265
S'the'
p266
S'DT'
p267
S'I-NP'
p268
g5
tp269
a(S'frequency'
p270
S'frequency'
p271
S'NN'
p272
S'I-NP'
p273
g5
tp274
a(S'and'
p275
S'and'
p276
S'CC'
p277
S'I-NP'
p278
g5
tp279
a(S'severity'
p280
S'severity'
p281
S'NN'
p282
S'I-NP'
p283
g5
tp284
a(S'of'
p285
S'of'
p286
S'IN'
p287
S'B-PP'
p288
g5
tp289
a(S'variable'
p290
S'variable'
p291
S'JJ'
p292
S'B-NP'
p293
g5
tp294
a(S'decelerations'
p295
S'deceleration'
p296
S'NNS'
p297
S'I-NP'
p298
g5
tp299
a(S'in'
p300
S'in'
p301
S'IN'
p302
S'B-PP'
p303
g5
tp304
a(S'the'
p305
S'the'
p306
S'DT'
p307
S'B-NP'
p308
g5
tp309
a(S'first'
p310
S'first'
p311
S'JJ'
p312
S'I-NP'
p313
g5
tp314
a(S'stage'
p315
S'stage'
p316
S'NN'
p317
S'I-NP'
p318
g5
tp319
a(S'of'
p320
S'of'
p321
S'IN'
p322
S'B-PP'
p323
g5
tp324
a(S'labor'
p325
S'labor'
p326
S'NN'
p327
S'B-NP'
p328
g5
tp329
a(S'('
p330
g330
g330
g5
g5
tp331
a(S'P'
p332
g332
S'NN'
p333
S'B-NP'
p334
g5
tp335
a(S'='
p336
g336
S'SYM'
p337
S'B-VP'
p338
g5
tp339
a(S'.006'
p340
S'.006'
p341
S'CD'
p342
S'B-NP'
p343
g5
tp344
a(S')'
p345
g345
g345
g5
g5
tp346
a(S'and'
p347
S'and'
p348
S'CC'
p349
g5
g5
tp350
a(S'in'
p351
S'in'
p352
S'IN'
p353
S'B-PP'
p354
g5
tp355
a(S'the'
p356
S'the'
p357
S'DT'
p358
S'B-NP'
p359
g5
tp360
a(S'average'
p361
S'average'
p362
S'JJ'
p363
S'I-NP'
p364
g5
tp365
a(S'total'
p366
S'total'
p367
S'JJ'
p368
S'I-NP'
p369
g5
tp370
a(S'number'
p371
S'number'
p372
S'NN'
p373
S'I-NP'
p374
g5
tp375
a(S'of'
p376
S'of'
p377
S'IN'
p378
S'B-PP'
p379
g5
tp380
a(S'variable'
p381
S'variable'
p382
S'JJ'
p383
S'B-NP'
p384
g5
tp385
a(S'decelerations'
p386
S'deceleration'
p387
S'NNS'
p388
S'I-NP'
p389
g5
tp390
a(S'in'
p391
S'in'
p392
S'IN'
p393
S'B-PP'
p394
g5
tp395
a(S'the'
p396
S'the'
p397
S'DT'
p398
S'B-NP'
p399
g5
tp400
a(S'first'
p401
S'first'
p402
S'JJ'
p403
S'I-NP'
p404
g5
tp405
a(S'and'
p406
S'and'
p407
S'CC'
p408
S'I-NP'
p409
g5
tp410
a(S'second'
p411
S'second'
p412
S'JJ'
p413
S'I-NP'
p414
g5
tp415
a(S'stages'
p416
S'stage'
p417
S'NNS'
p418
S'I-NP'
p419
g5
tp420
a(S'of'
p421
S'of'
p422
S'IN'
p423
S'B-PP'
p424
g5
tp425
a(S'labor'
p426
S'labor'
p427
S'NN'
p428
S'B-NP'
p429
g5
tp430
a(g330
g330
g330
g5
g5
tp431
a(g332
g332
S'NN'
p432
S'B-NP'
p433
g5
tp434
a(g336
g336
S'SYM'
p435
S'B-VP'
p436
g5
tp437
a(S'.01'
p438
S'.01'
p439
S'CD'
p440
S'B-NP'
p441
g5
tp442
a(g345
g345
g345
g5
g5
tp443
a(S'compared'
p444
S'compare'
p445
S'VBN'
p446
S'B-PP'
p447
g5
tp448
a(S'with'
p449
S'with'
p450
S'IN'
p451
S'B-PP'
p452
g5
tp453
a(S'controls.'
p454
S'controls.'
p455
S'NN'
p456
S'B-NP'
p457
g5
tp458
a(S'There'
p459
S'There'
p460
S'EX'
p461
S'B-NP'
p462
g5
tp463
a(S'was'
p464
S'be'
p465
S'VBD'
p466
S'B-VP'
p467
g5
tp468
a(S'no'
p469
S'no'
p470
S'DT'
p471
S'B-NP'
p472
g5
tp473
a(S'observed'
p474
S'observe'
p475
S'VBN'
p476
S'I-NP'
p477
g5
tp478
a(S'effect'
p479
S'effect'
p480
S'NN'
p481
S'I-NP'
p482
g5
tp483
a(S'on'
p484
S'on'
p485
S'IN'
p486
S'B-PP'
p487
g5
tp488
a(S'newborn'
p489
S'newborn'
p490
S'JJ'
p491
S'B-NP'
p492
g5
tp493
a(S'serum'
p494
S'serum'
p495
S'NN'
p496
S'I-NP'
p497
g5
tp498
a(S'electrolyte'
p499
S'electrolyte'
p500
S'NN'
p501
S'I-NP'
p502
g5
tp503
a(S'levels'
p504
S'level'
p505
S'NNS'
p506
S'I-NP'
p507
g5
tp508
a(S'with'
p509
S'with'
p510
S'IN'
p511
S'B-PP'
p512
g5
tp513
a(S'amnioinfusion'
p514
S'amnioinfusion'
p515
S'NN'
p516
S'B-NP'
p517
g5
tp518
a(g195
g195
g195
g5
g5
tp519
a(S'nor'
p520
S'nor'
p521
S'CC'
p522
g5
g5
tp523
a(S'was'
p524
S'be'
p525
S'VBD'
p526
S'B-VP'
p527
g5
tp528
a(S'there'
p529
S'there'
p530
S'RB'
p531
S'B-ADVP'
p532
g5
tp533
a(S'any'
p534
S'any'
p535
S'DT'
p536
S'B-NP'
p537
g5
tp538
a(S'apparent'
p539
S'apparent'
p540
S'JJ'
p541
S'I-NP'
p542
g5
tp543
a(S'benefit'
p544
S'benefit'
p545
S'NN'
p546
S'I-NP'
p547
g5
tp548
a(S'of'
p549
S'of'
p550
S'IN'
p551
S'B-PP'
p552
g5
tp553
a(S'infusion'
p554
S'infusion'
p555
S'NN'
p556
S'B-NP'
p557
g5
tp558
a(S'of'
p559
S'of'
p560
S'IN'
p561
S'B-PP'
p562
g5
tp563
a(S'warmed'
p564
S'warmed'
p565
S'JJ'
p566
S'B-NP'
p567
g5
tp568
a(S'saline'
p569
S'saline'
p570
S'NN'
p571
S'I-NP'
p572
g5
tp573
a(S'compared'
p574
S'compare'
p575
S'VBN'
p576
S'B-PP'
p577
g5
tp578
a(S'with'
p579
S'with'
p580
S'IN'
p581
S'B-PP'
p582
g5
tp583
a(S'room-temperature'
p584
S'room-temperature'
p585
S'NN'
p586
S'B-NP'
p587
g5
tp588
a(S'saline.'
p589
S'saline.'
p590
S'NN'
p591
S'I-NP'
p592
g5
tp593
a(S'In'
p594
S'In'
p595
S'IN'
p596
S'B-PP'
p597
g5
tp598
a(S'contrast'
p599
S'contrast'
p600
S'NN'
p601
S'B-NP'
p602
g5
tp603
a(S'to'
p604
S'to'
p605
S'TO'
p606
S'B-PP'
p607
g5
tp608
a(S'premature'
p609
S'premature'
p610
S'JJ'
p611
S'B-NP'
p612
g5
tp613
a(S'gestations'
p614
S'gestation'
p615
S'NNS'
p616
S'I-NP'
p617
g5
tp618
a(S'with'
p619
S'with'
p620
S'IN'
p621
S'B-PP'
p622
g5
tp623
a(S'oligohydramnios'
p624
S'oligohydramnio'
p625
S'NNS'
p626
S'B-NP'
p627
g5
tp628
a(g195
g195
g195
g5
g5
tp629
a(S'prophylactic'
p630
S'prophylactic'
p631
S'JJ'
p632
S'B-NP'
p633
g5
tp634
a(S'amnioinfusion'
p635
S'amnioinfusion'
p636
S'NN'
p637
S'I-NP'
p638
g5
tp639
a(S'was'
p640
S'be'
p641
S'VBD'
p642
S'B-VP'
p643
g5
tp644
a(S'not'
p645
S'not'
p646
S'RB'
p647
S'I-VP'
p648
g5
tp649
a(S'associated'
p650
S'associate'
p651
S'VBN'
p652
S'I-VP'
p653
g5
tp654
a(S'with'
p655
S'with'
p656
S'IN'
p657
S'B-PP'
p658
g5
tp659
a(g39
g39
S'DT'
p660
S'B-NP'
p661
g5
tp662
a(S'significant'
p663
S'significant'
p664
S'JJ'
p665
S'I-NP'
p666
g5
tp667
a(S'improvement'
p668
S'improvement'
p669
S'NN'
p670
S'I-NP'
p671
g5
tp672
a(S'in'
p673
S'in'
p674
S'IN'
p675
S'B-PP'
p676
g5
tp677
a(S'mean'
p678
S'mean'
p679
S'JJ'
p680
S'B-NP'
p681
g5
tp682
a(S'umbilical'
p683
S'umbilical'
p684
S'JJ'
p685
S'I-NP'
p686
g5
tp687
a(S'arterial'
p688
S'arterial'
p689
S'JJ'
p690
S'I-NP'
p691
g5
tp692
a(S'and'
p693
S'and'
p694
S'CC'
p695
S'I-NP'
p696
g5
tp697
a(S'venous'
p698
S'venous'
p699
S'JJ'
p700
S'I-NP'
p701
g5
tp702
a(S'pH'
p703
S'pH'
p704
S'NN'
p705
S'I-NP'
p706
g5
tp707
a(S'or'
p708
S'or'
p709
S'CC'
p710
g5
g5
tp711
a(g39
g39
S'DT'
p712
S'B-NP'
p713
g5
tp714
a(S'significant'
p715
S'significant'
p716
S'JJ'
p717
S'I-NP'
p718
g5
tp719
a(S'decrease'
p720
S'decrease'
p721
S'NN'
p722
S'I-NP'
p723
g5
tp724
a(S'in'
p725
S'in'
p726
S'IN'
p727
S'B-PP'
p728
g5
tp729
a(S'cesarean'
p730
S'cesarean'
p731
S'JJ'
p732
S'B-NP'
p733
g5
tp734
a(S'delivery'
p735
S'delivery'
p736
S'NN'
p737
S'I-NP'
p738
g5
tp739
a(S'for'
p740
S'for'
p741
S'IN'
p742
S'B-PP'
p743
g5
tp744
a(S'fetal'
p745
S'fetal'
p746
S'JJ'
p747
S'B-NP'
p748
g5
tp749
a(S'distress'
p750
S'distress'
p751
S'NN'
p752
S'I-NP'
p753
g5
tp754
a(g330
g330
g330
g5
g5
tp755
a(g332
g332
S'NN'
p756
S'B-NP'
p757
g5
tp758
a(g336
g336
S'SYM'
p759
S'B-VP'
p760
g5
tp761
a(S'.09'
p762
S'.09'
p763
S'CD'
p764
S'B-NP'
p765
g5
tp766
a(g345
g345
g345
g5
g5
tp767
a(g53
g53
g53
g5
g5
tp768
a(S'This'
p769
S'This'
p770
S'DT'
p771
S'B-NP'
p772
g5
tp773
a(S'is'
p774
S'be'
p775
S'VBZ'
p776
S'B-VP'
p777
g5
tp778
a(S'perhaps'
p779
S'perhaps'
p780
S'RB'
p781
S'B-ADVP'
p782
g5
tp783
a(S'because'
p784
S'because'
p785
S'IN'
p786
S'B-SBAR'
p787
g5
tp788
a(S'the'
p789
S'the'
p790
S'DT'
p791
S'B-NP'
p792
g5
tp793
a(S'term'
p794
S'term'
p795
S'NN'
p796
S'I-NP'
p797
g5
tp798
a(S'fetus'
p799
S'fetus'
p800
S'NN'
p801
S'I-NP'
p802
g5
tp803
a(S'has'
p804
S'have'
p805
S'VBZ'
p806
S'B-VP'
p807
g5
tp808
a(S'an'
p809
S'an'
p810
S'DT'
p811
S'B-NP'
p812
g5
tp813
a(S'enhanced'
p814
S'enhance'
p815
S'VBN'
p816
S'I-NP'
p817
g5
tp818
a(S'ability'
p819
S'ability'
p820
S'NN'
p821
S'I-NP'
p822
g5
tp823
a(S'to'
p824
S'to'
p825
S'TO'
p826
S'B-VP'
p827
g5
tp828
a(S'tolerate'
p829
S'tolerate'
p830
S'VB'
p831
S'I-VP'
p832
g5
tp833
a(S'recurrent'
p834
S'recurrent'
p835
S'JJ'
p836
S'B-NP'
p837
g5
tp838
a(S'episodes'
p839
S'episode'
p840
S'NNS'
p841
S'I-NP'
p842
g5
tp843
a(S'of'
p844
S'of'
p845
S'IN'
p846
S'B-PP'
p847
g5
tp848
a(S'heart'
p849
S'heart'
p850
S'NN'
p851
S'B-NP'
p852
g5
tp853
a(S'rate'
p854
S'rate'
p855
S'NN'
p856
S'I-NP'
p857
g5
tp858
a(S'decelerations'
p859
S'deceleration'
p860
S'NNS'
p861
S'I-NP'
p862
g5
tp863
a(S'without'
p864
S'without'
p865
S'IN'
p866
S'B-PP'
p867
g5
tp868
a(S'demonstrating'
p869
S'demonstrate'
p870
S'VBG'
p871
S'B-VP'
p872
g5
tp873
a(S'the'
p874
S'the'
p875
S'DT'
p876
S'B-NP'
p877
g5
tp878
a(S'rapid'
p879
S'rapid'
p880
S'JJ'
p881
S'I-NP'
p882
g5
tp883
a(S'metabolic'
p884
S'metabolic'
p885
S'JJ'
p886
S'I-NP'
p887
g5
tp888
a(S'changes'
p889
S'change'
p890
S'NNS'
p891
S'I-NP'
p892
g5
tp893
a(S'seen'
p894
S'see'
p895
S'VBN'
p896
S'B-VP'
p897
g5
tp898
a(S'in'
p899
S'in'
p900
S'IN'
p901
S'B-PP'
p902
g5
tp903
a(S'the'
p904
S'the'
p905
S'DT'
p906
S'B-NP'
p907
g5
tp908
a(S'premature'
p909
S'premature'
p910
S'JJ'
p911
S'I-NP'
p912
g5
tp913
a(S'fetus'
p914
S'fetus'
p915
S'NN'
p916
S'I-NP'
p917
g5
tp918
a(g53
g53
g53
g5
g5
tp919
a.