(lp0
(S'Everolimus'
p1
S'Everolimus'
p2
S'NN'
p3
S'B-NP'
p4
S'O'
p5
tp6
a(S'for'
p7
S'for'
p8
S'IN'
p9
S'B-PP'
p10
g5
tp11
a(S'subependymal'
p12
S'subependymal'
p13
S'JJ'
p14
S'B-NP'
p15
g5
tp16
a(S'giant'
p17
S'giant'
p18
S'JJ'
p19
S'I-NP'
p20
g5
tp21
a(S'cell'
p22
S'cell'
p23
S'NN'
p24
S'I-NP'
p25
g5
tp26
a(S'astrocytoma'
p27
S'astrocytoma'
p28
S'NN'
p29
S'I-NP'
p30
g5
tp31
a(S'in'
p32
S'in'
p33
S'IN'
p34
S'B-PP'
p35
g5
tp36
a(S'patients'
p37
S'patient'
p38
S'NNS'
p39
S'B-NP'
p40
g5
tp41
a(S'with'
p42
S'with'
p43
S'IN'
p44
S'B-PP'
p45
g5
tp46
a(S'tuberous'
p47
S'tuberous'
p48
S'JJ'
p49
S'B-NP'
p50
g5
tp51
a(S'sclerosis'
p52
S'sclerosis'
p53
S'NN'
p54
S'I-NP'
p55
g5
tp56
a(S'complex'
p57
S'complex'
p58
S'NN'
p59
S'I-NP'
p60
g5
tp61
a(S':'
p62
g62
g62
g5
g5
tp63
a(S'2-year'
p64
S'2-year'
p65
S'JJ'
p66
S'B-NP'
p67
g5
tp68
a(S'open-label'
p69
S'open-label'
p70
S'JJ'
p71
S'I-NP'
p72
g5
tp73
a(S'extension'
p74
S'extension'
p75
S'NN'
p76
S'I-NP'
p77
g5
tp78
a(S'of'
p79
S'of'
p80
S'IN'
p81
S'B-PP'
p82
g5
tp83
a(S'the'
p84
S'the'
p85
S'DT'
p86
S'B-NP'
p87
g5
tp88
a(S'randomised'
p89
S'randomise'
p90
S'VBN'
p91
S'I-NP'
p92
g5
tp93
a(S'EXIST-1'
p94
S'EXIST-1'
p95
S'NN'
p96
S'I-NP'
p97
g5
tp98
a(S'study'
p99
S'study'
p100
S'NN'
p101
S'I-NP'
p102
g5
tp103
a(S'.'
p104
g104
g104
g5
g5
tp105
a(S'BACKGROUND'
p106
S'BACKGROUND'
p107
S'NN'
p108
S'B-NP'
p109
g5
tp110
a(S'In'
p111
S'In'
p112
S'IN'
p113
S'B-PP'
p114
g5
tp115
a(S'the'
p116
S'the'
p117
S'DT'
p118
S'B-NP'
p119
g5
tp120
a(S'EXIST-1'
p121
S'EXIST-1'
p122
S'NN'
p123
S'I-NP'
p124
g5
tp125
a(S'trial'
p126
S'trial'
p127
S'NN'
p128
S'I-NP'
p129
g5
tp130
a(S','
p131
g131
g131
g5
g5
tp132
a(S'initiated'
p133
S'initiate'
p134
S'VBN'
p135
S'B-VP'
p136
g5
tp137
a(S'on'
p138
S'on'
p139
S'IN'
p140
S'B-PP'
p141
g5
tp142
a(S'Aug'
p143
S'Aug'
p144
S'NNP'
p145
S'B-NP'
p146
g5
tp147
a(S'10'
p148
S'10'
p149
S'CD'
p150
S'I-NP'
p151
g5
tp152
a(g131
g131
g131
S'I-NP'
p153
g5
tp154
a(S'2009'
p155
S'2009'
p156
S'CD'
p157
S'I-NP'
p158
g5
tp159
a(g131
g131
g131
g5
g5
tp160
a(S'more'
p161
S'more'
p162
S'JJR'
p163
S'B-NP'
p164
g5
tp165
a(S'than'
p166
S'than'
p167
S'IN'
p168
S'I-NP'
p169
g5
tp170
a(S'35'
p171
S'35'
p172
S'CD'
p173
S'I-NP'
p174
g5
tp175
a(S'%'
p176
g176
S'NN'
p177
S'I-NP'
p178
g5
tp179
a(S'of'
p180
S'of'
p181
S'IN'
p182
S'B-PP'
p183
g5
tp184
a(S'patients'
p185
S'patient'
p186
S'NNS'
p187
S'B-NP'
p188
g5
tp189
a(S'with'
p190
S'with'
p191
S'IN'
p192
S'B-PP'
p193
g5
tp194
a(S'subependymal'
p195
S'subependymal'
p196
S'JJ'
p197
S'B-NP'
p198
g5
tp199
a(S'giant'
p200
S'giant'
p201
S'JJ'
p202
S'I-NP'
p203
g5
tp204
a(S'cell'
p205
S'cell'
p206
S'NN'
p207
S'I-NP'
p208
g5
tp209
a(S'astrocytoma'
p210
S'astrocytoma'
p211
S'NN'
p212
S'I-NP'
p213
g5
tp214
a(S'('
p215
g215
g215
g5
g5
tp216
a(S'SEGA'
p217
S'SEGA'
p218
S'NN'
p219
S'B-NP'
p220
g5
tp221
a(S')'
p222
g222
g222
g5
g5
tp223
a(S'associated'
p224
S'associate'
p225
S'VBN'
p226
S'B-VP'
p227
g5
tp228
a(S'with'
p229
S'with'
p230
S'IN'
p231
S'B-PP'
p232
g5
tp233
a(S'tuberous'
p234
S'tuberous'
p235
S'JJ'
p236
S'B-NP'
p237
S'B-protein'
p238
tp239
a(S'sclerosis'
p240
S'sclerosis'
p241
S'NN'
p242
S'I-NP'
p243
S'I-protein'
p244
tp245
a(S'complex'
p246
S'complex'
p247
S'NN'
p248
S'I-NP'
p249
S'I-protein'
p250
tp251
a(S'had'
p252
S'have'
p253
S'VBD'
p254
S'B-VP'
p255
g5
tp256
a(S'at'
p257
S'at'
p258
S'IN'
p259
S'B-NP'
p260
g5
tp261
a(S'least'
p262
S'least'
p263
S'JJS'
p264
S'I-NP'
p265
g5
tp266
a(S'50'
p267
S'50'
p268
S'CD'
p269
S'I-NP'
p270
g5
tp271
a(g176
g176
S'NN'
p272
S'I-NP'
p273
g5
tp274
a(S'reduction'
p275
S'reduction'
p276
S'NN'
p277
S'I-NP'
p278
g5
tp279
a(S'in'
p280
S'in'
p281
S'IN'
p282
S'B-PP'
p283
g5
tp284
a(S'SEGA'
p285
S'SEGA'
p286
S'NN'
p287
S'B-NP'
p288
g5
tp289
a(S'volume'
p290
S'volume'
p291
S'NN'
p292
S'I-NP'
p293
g5
tp294
a(S'after'
p295
S'after'
p296
S'IN'
p297
S'B-PP'
p298
g5
tp299
a(S'9\xc2\xb76'
p300
S'9\xc2\xb76'
p301
S'CD'
p302
S'B-NP'
p303
g5
tp304
a(S'months'
p305
S'month'
p306
S'NNS'
p307
S'I-NP'
p308
g5
tp309
a(S'of'
p310
S'of'
p311
S'IN'
p312
S'B-PP'
p313
g5
tp314
a(S'treatment'
p315
S'treatment'
p316
S'NN'
p317
S'B-NP'
p318
g5
tp319
a(S'with'
p320
S'with'
p321
S'IN'
p322
S'B-PP'
p323
g5
tp324
a(S'everolimus.'
p325
S'everolimus.'
p326
S'RB'
p327
S'B-NP'
p328
g5
tp329
a(S'In'
p330
S'In'
p331
S'IN'
p332
S'B-PP'
p333
g5
tp334
a(S'this'
p335
S'this'
p336
S'DT'
p337
S'B-NP'
p338
g5
tp339
a(S'Article'
p340
S'Article'
p341
S'NN'
p342
S'I-NP'
p343
g5
tp344
a(g131
g131
g131
g5
g5
tp345
a(S'we'
p346
S'we'
p347
S'PRP'
p348
S'B-NP'
p349
g5
tp350
a(S'report'
p351
S'report'
p352
S'VBP'
p353
S'B-VP'
p354
g5
tp355
a(S'interim'
p356
S'interim'
p357
S'JJ'
p358
S'B-NP'
p359
g5
tp360
a(S'data'
p361
S'datum'
p362
S'NNS'
p363
S'I-NP'
p364
g5
tp365
a(g215
g215
g215
g5
g5
tp366
a(S'up'
p367
S'up'
p368
S'RB'
p369
S'B-ADVP'
p370
g5
tp371
a(S'to'
p372
S'to'
p373
S'TO'
p374
S'B-PP'
p375
g5
tp376
a(S'Jan'
p377
S'Jan'
p378
S'NNP'
p379
S'B-NP'
p380
g5
tp381
a(S'11'
p382
S'11'
p383
S'CD'
p384
S'I-NP'
p385
g5
tp386
a(g131
g131
g131
S'I-NP'
p387
g5
tp388
a(S'2013'
p389
S'2013'
p390
S'CD'
p391
S'I-NP'
p392
g5
tp393
a(g222
g222
g222
g5
g5
tp394
a(S'to'
p395
S'to'
p396
S'TO'
p397
S'B-VP'
p398
g5
tp399
a(S'support'
p400
S'support'
p401
S'VB'
p402
S'I-VP'
p403
g5
tp404
a(S'longer-term'
p405
S'longer-term'
p406
S'JJ'
p407
S'B-NP'
p408
g5
tp409
a(S'tolerability'
p410
S'tolerability'
p411
S'NN'
p412
S'I-NP'
p413
g5
tp414
a(S'and'
p415
S'and'
p416
S'CC'
p417
S'I-NP'
p418
g5
tp419
a(S'efficacy'
p420
S'efficacy'
p421
S'NN'
p422
S'I-NP'
p423
g5
tp424
a(S'of'
p425
S'of'
p426
S'IN'
p427
S'B-PP'
p428
g5
tp429
a(S'everolimus'
p430
S'everolimus'
p431
S'NN'
p432
S'B-NP'
p433
g5
tp434
a(S'from'
p435
S'from'
p436
S'IN'
p437
S'B-PP'
p438
g5
tp439
a(S'the'
p440
S'the'
p441
S'DT'
p442
S'B-NP'
p443
g5
tp444
a(S'continuing'
p445
S'continue'
p446
S'VBG'
p447
S'I-NP'
p448
g5
tp449
a(S'4-year'
p450
S'4-year'
p451
S'JJ'
p452
S'I-NP'
p453
g5
tp454
a(S'extension'
p455
S'extension'
p456
S'NN'
p457
S'I-NP'
p458
g5
tp459
a(S'phase'
p460
S'phase'
p461
S'NN'
p462
S'I-NP'
p463
g5
tp464
a(S'of'
p465
S'of'
p466
S'IN'
p467
S'B-PP'
p468
g5
tp469
a(S'EXIST-1'
p470
S'EXIST-1'
p471
S'NN'
p472
S'B-NP'
p473
S'B-protein'
p474
tp475
a(g104
g104
g104
g5
g5
tp476
a(S'METHODS'
p477
S'METHODS'
p478
S'NNS'
p479
S'B-NP'
p480
g5
tp481
a(S'We'
p482
S'We'
p483
S'PRP'
p484
S'B-NP'
p485
g5
tp486
a(S'assessed'
p487
S'assess'
p488
S'VBD'
p489
S'B-VP'
p490
g5
tp491
a(S'data'
p492
S'datum'
p493
S'NNS'
p494
S'B-NP'
p495
g5
tp496
a(S'from'
p497
S'from'
p498
S'IN'
p499
S'B-PP'
p500
g5
tp501
a(S'a'
p502
g502
S'DT'
p503
S'B-NP'
p504
g5
tp505
a(S'prospective'
p506
S'prospective'
p507
S'JJ'
p508
S'I-NP'
p509
g5
tp510
a(g131
g131
g131
S'I-NP'
p511
g5
tp512
a(S'open-label'
p513
S'open-label'
p514
S'JJ'
p515
S'I-NP'
p516
g5
tp517
a(S'extension'
p518
S'extension'
p519
S'NN'
p520
S'I-NP'
p521
g5
tp522
a(S'of'
p523
S'of'
p524
S'IN'
p525
S'B-PP'
p526
g5
tp527
a(g502
g502
S'DT'
p528
S'B-NP'
p529
g5
tp530
a(S'multicentre'
p531
S'multicentre'
p532
S'JJ'
p533
S'I-NP'
p534
g5
tp535
a(g131
g131
g131
S'I-NP'
p536
g5
tp537
a(S'phase'
p538
S'phase'
p539
S'NN'
p540
S'I-NP'
p541
g5
tp542
a(S'3'
p543
g543
S'CD'
p544
S'I-NP'
p545
g5
tp546
a(g131
g131
g131
g5
g5
tp547
a(S'randomised'
p548
S'randomise'
p549
S'VBN'
p550
S'B-NP'
p551
g5
tp552
a(g131
g131
g131
S'I-NP'
p553
g5
tp554
a(S'double-blind'
p555
S'double-blind'
p556
S'JJ'
p557
S'I-NP'
p558
g5
tp559
a(g131
g131
g131
S'I-NP'
p560
g5
tp561
a(S'placebo-controlled'
p562
S'placebo-controlled'
p563
S'JJ'
p564
S'I-NP'
p565
g5
tp566
a(S'study'
p567
S'study'
p568
S'NN'
p569
S'I-NP'
p570
g5
tp571
a(S'in'
p572
S'in'
p573
S'IN'
p574
S'B-PP'
p575
g5
tp576
a(S'patients'
p577
S'patient'
p578
S'NNS'
p579
S'B-NP'
p580
g5
tp581
a(S'with'
p582
S'with'
p583
S'IN'
p584
S'B-PP'
p585
g5
tp586
a(S'tuberous'
p587
S'tuberous'
p588
S'JJ'
p589
S'B-NP'
p590
g5
tp591
a(S'sclerosis'
p592
S'sclerosis'
p593
S'NN'
p594
S'I-NP'
p595
g5
tp596
a(S'complex'
p597
S'complex'
p598
S'NN'
p599
S'I-NP'
p600
g5
tp601
a(S'who'
p602
S'who'
p603
S'WP'
p604
S'B-NP'
p605
g5
tp606
a(S'had'
p607
S'have'
p608
S'VBD'
p609
S'B-VP'
p610
g5
tp611
a(S'SEGA'
p612
S'SEGA'
p613
S'NNP'
p614
S'B-NP'
p615
g5
tp616
a(S'that'
p617
S'that'
p618
S'WDT'
p619
S'B-NP'
p620
g5
tp621
a(S'was'
p622
S'be'
p623
S'VBD'
p624
S'B-VP'
p625
g5
tp626
a(S'growing'
p627
S'grow'
p628
S'VBG'
p629
S'I-VP'
p630
g5
tp631
a(S'and'
p632
S'and'
p633
S'CC'
p634
g5
g5
tp635
a(S'needed'
p636
S'need'
p637
S'VBN'
p638
S'B-NP'
p639
g5
tp640
a(S'treatment.'
p641
S'treatment.'
p642
S'NN'
p643
S'I-NP'
p644
g5
tp645
a(S'In'
p646
S'In'
p647
S'IN'
p648
S'B-PP'
p649
g5
tp650
a(S'this'
p651
S'this'
p652
S'DT'
p653
S'B-NP'
p654
g5
tp655
a(S'extension'
p656
S'extension'
p657
S'NN'
p658
S'I-NP'
p659
g5
tp660
a(S'study'
p661
S'study'
p662
S'NN'
p663
S'I-NP'
p664
g5
tp665
a(g131
g131
g131
g5
g5
tp666
a(S'we'
p667
S'we'
p668
S'PRP'
p669
S'B-NP'
p670
g5
tp671
a(S'included'
p672
S'include'
p673
S'VBD'
p674
S'B-VP'
p675
g5
tp676
a(S'all'
p677
S'all'
p678
S'DT'
p679
S'B-NP'
p680
g5
tp681
a(S'patients'
p682
S'patient'
p683
S'NNS'
p684
S'I-NP'
p685
g5
tp686
a(S'who'
p687
S'who'
p688
S'WP'
p689
S'B-NP'
p690
g5
tp691
a(S'had'
p692
S'have'
p693
S'VBD'
p694
S'B-VP'
p695
g5
tp696
a(S'been'
p697
S'be'
p698
S'VBN'
p699
S'I-VP'
p700
g5
tp701
a(S'assigned'
p702
S'assign'
p703
S'VBN'
p704
S'I-VP'
p705
g5
tp706
a(S'everolimus'
p707
S'everolimus'
p708
S'RB'
p709
S'B-ADVP'
p710
g5
tp711
a(S'during'
p712
S'during'
p713
S'IN'
p714
S'B-PP'
p715
g5
tp716
a(S'the'
p717
S'the'
p718
S'DT'
p719
S'B-NP'
p720
g5
tp721
a(S'double-blind'
p722
S'double-blind'
p723
S'JJ'
p724
S'I-NP'
p725
g5
tp726
a(g131
g131
g131
S'I-NP'
p727
g5
tp728
a(S'randomised'
p729
S'randomise'
p730
S'VBN'
p731
S'I-NP'
p732
g5
tp733
a(S'phase'
p734
S'phase'
p735
S'NN'
p736
S'I-NP'
p737
g5
tp738
a(S'of'
p739
S'of'
p740
S'IN'
p741
S'B-PP'
p742
g5
tp743
a(S'the'
p744
S'the'
p745
S'DT'
p746
S'B-NP'
p747
g5
tp748
a(S'trial'
p749
S'trial'
p750
S'NN'
p751
S'I-NP'
p752
g5
tp753
a(S'and'
p754
S'and'
p755
S'CC'
p756
g5
g5
tp757
a(S'those'
p758
S'those'
p759
S'DT'
p760
S'B-NP'
p761
g5
tp762
a(S'patients'
p763
S'patient'
p764
S'NNS'
p765
S'I-NP'
p766
g5
tp767
a(S'who'
p768
S'who'
p769
S'WP'
p770
S'B-NP'
p771
g5
tp772
a(S'crossed'
p773
S'cross'
p774
S'VBD'
p775
S'B-VP'
p776
g5
tp777
a(S'over'
p778
S'over'
p779
S'RP'
p780
S'B-PRT'
p781
g5
tp782
a(S'from'
p783
S'from'
p784
S'IN'
p785
S'B-PP'
p786
g5
tp787
a(S'the'
p788
S'the'
p789
S'DT'
p790
S'B-NP'
p791
g5
tp792
a(S'placebo'
p793
S'placebo'
p794
S'NN'
p795
S'I-NP'
p796
g5
tp797
a(S'group'
p798
S'group'
p799
S'NN'
p800
S'I-NP'
p801
g5
tp802
a(S'to'
p803
S'to'
p804
S'TO'
p805
S'B-VP'
p806
g5
tp807
a(S'receive'
p808
S'receive'
p809
S'VB'
p810
S'I-VP'
p811
g5
tp812
a(S'everolimus'
p813
S'everolimus'
p814
S'NN'
p815
S'B-NP'
p816
g5
tp817
a(S'during'
p818
S'during'
p819
S'IN'
p820
S'B-PP'
p821
g5
tp822
a(S'the'
p823
S'the'
p824
S'DT'
p825
S'B-NP'
p826
g5
tp827
a(S'randomised'
p828
S'randomise'
p829
S'VBN'
p830
S'I-NP'
p831
g5
tp832
a(S'phase'
p833
S'phase'
p834
S'NN'
p835
S'I-NP'
p836
g5
tp837
a(S'or'
p838
S'or'
p839
S'CC'
p840
g5
g5
tp841
a(S'at'
p842
S'at'
p843
S'IN'
p844
S'B-PP'
p845
g5
tp846
a(S'the'
p847
S'the'
p848
S'DT'
p849
S'B-NP'
p850
g5
tp851
a(S'start'
p852
S'start'
p853
S'NN'
p854
S'I-NP'
p855
g5
tp856
a(S'of'
p857
S'of'
p858
S'IN'
p859
S'B-PP'
p860
g5
tp861
a(S'the'
p862
S'the'
p863
S'DT'
p864
S'B-NP'
p865
g5
tp866
a(S'extension'
p867
S'extension'
p868
S'NN'
p869
S'I-NP'
p870
g5
tp871
a(S'phase.'
p872
S'phase.'
p873
S'NN'
p874
S'I-NP'
p875
g5
tp876
a(S'All'
p877
S'All'
p878
S'DT'
p879
S'B-NP'
p880
g5
tp881
a(S'patients'
p882
S'patient'
p883
S'NNS'
p884
S'I-NP'
p885
g5
tp886
a(S'received'
p887
S'receive'
p888
S'VBD'
p889
S'B-VP'
p890
g5
tp891
a(S'oral'
p892
S'oral'
p893
S'JJ'
p894
S'B-NP'
p895
g5
tp896
a(S'everolimus'
p897
S'everolimus'
p898
S'NN'
p899
S'I-NP'
p900
g5
tp901
a(S'at'
p902
S'at'
p903
S'IN'
p904
S'B-PP'
p905
g5
tp906
a(g502
g502
S'DT'
p907
S'B-NP'
p908
g5
tp909
a(S'starting'
p910
S'starting'
p911
S'JJ'
p912
S'I-NP'
p913
g5
tp914
a(S'dose'
p915
S'dose'
p916
S'NN'
p917
S'I-NP'
p918
g5
tp919
a(S'of'
p920
S'of'
p921
S'IN'
p922
S'B-PP'
p923
g5
tp924
a(S'4\xc2\xb75'
p925
S'4\xc2\xb75'
p926
S'CD'
p927
S'B-NP'
p928
g5
tp929
a(S'mg/m'
p930
S'mg/m'
p931
S'NN'
p932
S'I-NP'
p933
g5
tp934
a(g215
g215
g215
g5
g5
tp935
a(S'2'
p936
g936
S'CD'
p937
S'B-NP'
p938
g5
tp939
a(g222
g222
g222
g5
g5
tp940
a(S'per'
p941
S'per'
p942
S'IN'
p943
S'B-PP'
p944
g5
tp945
a(S'day.'
p946
S'day.'
p947
S'NN'
p948
S'B-NP'
p949
g5
tp950
a(S'Everolimus'
p951
S'Everolimus'
p952
S'NNP'
p953
S'I-NP'
p954
g5
tp955
a(S'dose'
p956
S'dose'
p957
S'NN'
p958
S'I-NP'
p959
g5
tp960
a(S'was'
p961
S'be'
p962
S'VBD'
p963
S'B-VP'
p964
g5
tp965
a(S'subsequently'
p966
S'subsequently'
p967
S'RB'
p968
S'I-VP'
p969
g5
tp970
a(S'adjusted'
p971
S'adjust'
p972
S'VBN'
p973
S'I-VP'
p974
g5
tp975
a(S'subject'
p976
S'subject'
p977
S'JJ'
p978
S'B-ADJP'
p979
g5
tp980
a(S'to'
p981
S'to'
p982
S'TO'
p983
S'B-PP'
p984
g5
tp985
a(S'tolerability'
p986
S'tolerability'
p987
S'NN'
p988
S'B-NP'
p989
g5
tp990
a(S'to'
p991
S'to'
p992
S'TO'
p993
S'B-VP'
p994
g5
tp995
a(S'attain'
p996
S'attain'
p997
S'VB'
p998
S'I-VP'
p999
g5
tp1000
a(S'blood'
p1001
S'blood'
p1002
S'NN'
p1003
S'B-NP'
p1004
g5
tp1005
a(S'trough'
p1006
S'trough'
p1007
S'NN'
p1008
S'I-NP'
p1009
g5
tp1010
a(S'concentrations'
p1011
S'concentration'
p1012
S'NNS'
p1013
S'I-NP'
p1014
g5
tp1015
a(S'of'
p1016
S'of'
p1017
S'IN'
p1018
S'B-PP'
p1019
g5
tp1020
a(S'5-15'
p1021
S'5-15'
p1022
S'CD'
p1023
S'B-NP'
p1024
g5
tp1025
a(S'ng/mL.'
p1026
S'ng/mL.'
p1027
S'NN'
p1028
S'I-NP'
p1029
g5
tp1030
a(S'An'
p1031
S'An'
p1032
S'DT'
p1033
S'B-NP'
p1034
g5
tp1035
a(S'independent'
p1036
S'independent'
p1037
S'JJ'
p1038
S'I-NP'
p1039
g5
tp1040
a(S'central'
p1041
S'central'
p1042
S'JJ'
p1043
S'I-NP'
p1044
g5
tp1045
a(S'radiology'
p1046
S'radiology'
p1047
S'NN'
p1048
S'I-NP'
p1049
g5
tp1050
a(S'review'
p1051
S'review'
p1052
S'NN'
p1053
S'I-NP'
p1054
g5
tp1055
a(S'team'
p1056
S'team'
p1057
S'NN'
p1058
S'I-NP'
p1059
g5
tp1060
a(S'assessed'
p1061
S'assess'
p1062
S'VBD'
p1063
S'B-VP'
p1064
g5
tp1065
a(S'SEGA'
p1066
S'SEGA'
p1067
S'NN'
p1068
S'B-NP'
p1069
g5
tp1070
a(S'response'
p1071
S'response'
p1072
S'NN'
p1073
S'I-NP'
p1074
g5
tp1075
a(g215
g215
g215
g5
g5
tp1076
a(S'at'
p1077
S'at'
p1078
S'IN'
p1079
S'B-ADVP'
p1080
g5
tp1081
a(S'least'
p1082
S'least'
p1083
S'JJS'
p1084
S'I-ADVP'
p1085
g5
tp1086
a(g502
g502
S'DT'
p1087
S'B-NP'
p1088
g5
tp1089
a(S'50'
p1090
S'50'
p1091
S'CD'
p1092
S'I-NP'
p1093
g5
tp1094
a(g176
g176
S'NN'
p1095
S'I-NP'
p1096
g5
tp1097
a(S'reduction'
p1098
S'reduction'
p1099
S'NN'
p1100
S'I-NP'
p1101
g5
tp1102
a(S'from'
p1103
S'from'
p1104
S'IN'
p1105
S'B-PP'
p1106
g5
tp1107
a(S'baseline'
p1108
S'baseline'
p1109
S'NN'
p1110
S'B-NP'
p1111
g5
tp1112
a(S'in'
p1113
S'in'
p1114
S'IN'
p1115
S'B-PP'
p1116
g5
tp1117
a(S'total'
p1118
S'total'
p1119
S'JJ'
p1120
S'B-NP'
p1121
g5
tp1122
a(S'volume'
p1123
S'volume'
p1124
S'NN'
p1125
S'I-NP'
p1126
g5
tp1127
a(S'of'
p1128
S'of'
p1129
S'IN'
p1130
S'B-PP'
p1131
g5
tp1132
a(S'all'
p1133
S'all'
p1134
S'DT'
p1135
S'B-NP'
p1136
g5
tp1137
a(S'target'
p1138
S'target'
p1139
S'NN'
p1140
S'I-NP'
p1141
g5
tp1142
a(S'SEGAs'
p1143
S'SEGA'
p1144
S'NNS'
p1145
S'I-NP'
p1146
g5
tp1147
a(S';'
p1148
g1148
g62
g5
g5
tp1149
a(S'the'
p1150
S'the'
p1151
S'DT'
p1152
S'B-NP'
p1153
g5
tp1154
a(S'primary'
p1155
S'primary'
p1156
S'JJ'
p1157
S'I-NP'
p1158
g5
tp1159
a(S'endpoint'
p1160
S'endpoint'
p1161
S'NN'
p1162
S'I-NP'
p1163
g5
tp1164
a(g222
g222
g222
g5
g5
tp1165
a(S'by'
p1166
S'by'
p1167
S'IN'
p1168
S'B-PP'
p1169
g5
tp1170
a(S'MRI'
p1171
S'MRI'
p1172
S'NN'
p1173
S'B-NP'
p1174
S'B-protein'
p1175
tp1176
a(S'at'
p1177
S'at'
p1178
S'IN'
p1179
S'B-PP'
p1180
g5
tp1181
a(S'12'
p1182
S'12'
p1183
S'CD'
p1184
S'B-NP'
p1185
g5
tp1186
a(g131
g131
g131
S'I-NP'
p1187
g5
tp1188
a(S'24'
p1189
S'24'
p1190
S'CD'
p1191
S'I-NP'
p1192
g5
tp1193
a(g131
g131
g131
g5
g5
tp1194
a(S'and'
p1195
S'and'
p1196
S'CC'
p1197
g5
g5
tp1198
a(S'48'
p1199
S'48'
p1200
S'CD'
p1201
S'B-NP'
p1202
g5
tp1203
a(S'weeks'
p1204
S'week'
p1205
S'NNS'
p1206
S'I-NP'
p1207
g5
tp1208
a(g131
g131
g131
g5
g5
tp1209
a(S'then'
p1210
S'then'
p1211
S'RB'
p1212
S'B-ADVP'
p1213
g5
tp1214
a(S'every'
p1215
S'every'
p1216
S'DT'
p1217
S'B-NP'
p1218
g5
tp1219
a(S'year'
p1220
S'year'
p1221
S'NN'
p1222
S'I-NP'
p1223
g5
tp1224
a(S'thereafter'
p1225
S'thereafter'
p1226
S'RB'
p1227
S'B-ADVP'
p1228
g5
tp1229
a(S'in'
p1230
S'in'
p1231
S'IN'
p1232
S'B-PP'
p1233
g5
tp1234
a(S'all'
p1235
S'all'
p1236
S'DT'
p1237
S'B-NP'
p1238
g5
tp1239
a(S'patients'
p1240
S'patient'
p1241
S'NNS'
p1242
S'I-NP'
p1243
g5
tp1244
a(S'who'
p1245
S'who'
p1246
S'WP'
p1247
S'B-NP'
p1248
g5
tp1249
a(S'received'
p1250
S'receive'
p1251
S'VBD'
p1252
S'B-VP'
p1253
g5
tp1254
a(S'at'
p1255
S'at'
p1256
S'IN'
p1257
S'B-NP'
p1258
g5
tp1259
a(S'least'
p1260
S'least'
p1261
S'JJS'
p1262
S'I-NP'
p1263
g5
tp1264
a(S'one'
p1265
S'one'
p1266
S'CD'
p1267
S'I-NP'
p1268
g5
tp1269
a(S'dose'
p1270
S'dose'
p1271
S'NN'
p1272
S'I-NP'
p1273
g5
tp1274
a(S'of'
p1275
S'of'
p1276
S'IN'
p1277
S'B-PP'
p1278
g5
tp1279
a(S'everolimus.'
p1280
S'everolimus.'
p1281
S'RB'
p1282
S'B-NP'
p1283
g5
tp1284
a(S'This'
p1285
S'This'
p1286
S'DT'
p1287
S'I-NP'
p1288
g5
tp1289
a(S'study'
p1290
S'study'
p1291
S'NN'
p1292
S'I-NP'
p1293
g5
tp1294
a(S'was'
p1295
S'be'
p1296
S'VBD'
p1297
S'B-VP'
p1298
g5
tp1299
a(S'registered'
p1300
S'register'
p1301
S'VBN'
p1302
S'I-VP'
p1303
g5
tp1304
a(S'with'
p1305
S'with'
p1306
S'IN'
p1307
S'B-PP'
p1308
g5
tp1309
a(S'ClinicalTrials.gov'
p1310
S'ClinicalTrials.gov'
p1311
S'NN'
p1312
S'B-NP'
p1313
g5
tp1314
a(g131
g131
g131
g5
g5
tp1315
a(S'number'
p1316
S'number'
p1317
S'NN'
p1318
S'B-NP'
p1319
g5
tp1320
a(S'NCT00789828'
p1321
S'NCT00789828'
p1322
S'NN'
p1323
S'I-NP'
p1324
g5
tp1325
a(g104
g104
g104
g5
g5
tp1326
a(S'FINDINGS'
p1327
S'FINDINGS'
p1328
S'NNS'
p1329
S'B-NP'
p1330
g5
tp1331
a(S'Of'
p1332
S'Of'
p1333
S'IN'
p1334
S'B-PP'
p1335
g5
tp1336
a(S'the'
p1337
S'the'
p1338
S'DT'
p1339
S'B-NP'
p1340
g5
tp1341
a(S'original'
p1342
S'original'
p1343
S'JJ'
p1344
S'I-NP'
p1345
g5
tp1346
a(S'117'
p1347
S'117'
p1348
S'CD'
p1349
S'I-NP'
p1350
g5
tp1351
a(S'randomly'
p1352
S'randomly'
p1353
S'RB'
p1354
S'I-NP'
p1355
g5
tp1356
a(S'assigned'
p1357
S'assign'
p1358
S'VBN'
p1359
S'I-NP'
p1360
g5
tp1361
a(S'patients'
p1362
S'patient'
p1363
S'NNS'
p1364
S'I-NP'
p1365
g5
tp1366
a(g131
g131
g131
g5
g5
tp1367
a(S'111'
p1368
S'111'
p1369
S'CD'
p1370
S'B-NP'
p1371
g5
tp1372
a(S'were'
p1373
S'be'
p1374
S'VBD'
p1375
S'B-VP'
p1376
g5
tp1377
a(S'given'
p1378
S'give'
p1379
S'VBN'
p1380
S'I-VP'
p1381
g5
tp1382
a(S'everolimus'
p1383
S'everolimus'
p1384
S'RB'
p1385
S'B-ADVP'
p1386
g5
tp1387
a(S'between'
p1388
S'between'
p1389
S'IN'
p1390
S'B-PP'
p1391
g5
tp1392
a(S'Aug'
p1393
S'Aug'
p1394
S'NNP'
p1395
S'B-NP'
p1396
g5
tp1397
a(S'20'
p1398
S'20'
p1399
S'CD'
p1400
S'I-NP'
p1401
g5
tp1402
a(g131
g131
g131
S'I-NP'
p1403
g5
tp1404
a(S'2009'
p1405
S'2009'
p1406
S'CD'
p1407
S'I-NP'
p1408
g5
tp1409
a(g131
g131
g131
g5
g5
tp1410
a(S'and'
p1411
S'and'
p1412
S'CC'
p1413
g5
g5
tp1414
a(S'Jan'
p1415
S'Jan'
p1416
S'NNP'
p1417
S'B-NP'
p1418
S'B-protein'
p1419
tp1420
a(S'11'
p1421
S'11'
p1422
S'CD'
p1423
S'I-NP'
p1424
S'I-protein'
p1425
tp1426
a(g131
g131
g131
S'I-NP'
p1427
g5
tp1428
a(S'2013'
p1429
S'2013'
p1430
S'CD'
p1431
S'I-NP'
p1432
g5
tp1433
a(g215
g215
g215
g5
g5
tp1434
a(S'date'
p1435
S'date'
p1436
S'NN'
p1437
S'B-NP'
p1438
g5
tp1439
a(S'of'
p1440
S'of'
p1441
S'IN'
p1442
S'B-PP'
p1443
g5
tp1444
a(S'data'
p1445
S'datum'
p1446
S'NNS'
p1447
S'B-NP'
p1448
g5
tp1449
a(S'cutoff'
p1450
S'cutoff'
p1451
S'NN'
p1452
S'I-NP'
p1453
g5
tp1454
a(g222
g222
g222
g5
g5
tp1455
a(g1148
g1148
g62
g5
g5
tp1456
a(S'we'
p1457
S'we'
p1458
S'PRP'
p1459
S'B-NP'
p1460
g5
tp1461
a(S'included'
p1462
S'include'
p1463
S'VBD'
p1464
S'B-VP'
p1465
g5
tp1466
a(S'these'
p1467
S'these'
p1468
S'DT'
p1469
S'B-NP'
p1470
g5
tp1471
a(S'patients'
p1472
S'patient'
p1473
S'NNS'
p1474
S'I-NP'
p1475
g5
tp1476
a(S'in'
p1477
S'in'
p1478
S'IN'
p1479
S'B-PP'
p1480
g5
tp1481
a(S'our'
p1482
S'our'
p1483
S'PRP$'
p1484
S'B-NP'
p1485
g5
tp1486
a(S'longer-term'
p1487
S'longer-term'
p1488
S'JJ'
p1489
S'I-NP'
p1490
g5
tp1491
a(S'analysis.'
p1492
S'analysis.'
p1493
S'NN'
p1494
S'I-NP'
p1495
g5
tp1496
a(S'Median'
p1497
S'Median'
p1498
S'NN'
p1499
S'I-NP'
p1500
g5
tp1501
a(S'duration'
p1502
S'duration'
p1503
S'NN'
p1504
S'I-NP'
p1505
g5
tp1506
a(S'of'
p1507
S'of'
p1508
S'IN'
p1509
S'B-PP'
p1510
g5
tp1511
a(S'everolimus'
p1512
S'everolimus'
p1513
S'NN'
p1514
S'B-NP'
p1515
g5
tp1516
a(S'exposure'
p1517
S'exposure'
p1518
S'NN'
p1519
S'I-NP'
p1520
g5
tp1521
a(S'was'
p1522
S'be'
p1523
S'VBD'
p1524
S'B-VP'
p1525
g5
tp1526
a(S'29\xc2\xb73'
p1527
S'29\xc2\xb73'
p1528
S'CD'
p1529
S'B-NP'
p1530
g5
tp1531
a(S'months'
p1532
S'month'
p1533
S'NNS'
p1534
S'I-NP'
p1535
g5
tp1536
a(g215
g215
g215
g5
g5
tp1537
a(S'IQR'
p1538
S'IQR'
p1539
S'NN'
p1540
S'B-NP'
p1541
S'B-protein'
p1542
tp1543
a(S'19\xc2\xb74-33\xc2\xb78'
p1544
S'19\xc2\xb74-33\xc2\xb78'
p1545
S'CD'
p1546
S'I-NP'
p1547
S'I-protein'
p1548
tp1549
a(g222
g222
g222
g5
g5
tp1550
a(g104
g104
g104
g5
g5
tp1551
a(S'Median'
p1552
S'Median'
p1553
S'JJ'
p1554
S'B-NP'
p1555
g5
tp1556
a(S'follow-up'
p1557
S'follow-up'
p1558
S'NN'
p1559
S'I-NP'
p1560
g5
tp1561
a(S'was'
p1562
S'be'
p1563
S'VBD'
p1564
S'B-VP'
p1565
g5
tp1566
a(S'28\xc2\xb73'
p1567
S'28\xc2\xb73'
p1568
S'CD'
p1569
S'B-NP'
p1570
g5
tp1571
a(S'months'
p1572
S'month'
p1573
S'NNS'
p1574
S'I-NP'
p1575
g5
tp1576
a(g215
g215
g215
g5
g5
tp1577
a(S'IQR'
p1578
S'IQR'
p1579
S'NN'
p1580
S'B-NP'
p1581
S'B-protein'
p1582
tp1583
a(S'19\xc2\xb73-33\xc2\xb70'
p1584
S'19\xc2\xb73-33\xc2\xb70'
p1585
S'CD'
p1586
S'I-NP'
p1587
S'I-protein'
p1588
tp1589
a(g222
g222
g222
g5
g5
tp1590
a(g104
g104
g104
g5
g5
tp1591
a(S'54'
p1592
S'54'
p1593
S'CD'
p1594
S'B-NP'
p1595
g5
tp1596
a(g215
g215
g215
g5
g5
tp1597
a(S'49'
p1598
S'49'
p1599
S'CD'
p1600
S'B-NP'
p1601
g5
tp1602
a(g176
g176
S'NN'
p1603
S'I-NP'
p1604
g5
tp1605
a(g222
g222
g222
g5
g5
tp1606
a(S'patients'
p1607
S'patient'
p1608
S'NNS'
p1609
S'B-NP'
p1610
g5
tp1611
a(S'had'
p1612
S'have'
p1613
S'VBD'
p1614
S'B-VP'
p1615
g5
tp1616
a(g502
g502
S'DT'
p1617
S'B-NP'
p1618
g5
tp1619
a(S'response'
p1620
S'response'
p1621
S'NN'
p1622
S'I-NP'
p1623
g5
tp1624
a(S'of'
p1625
S'of'
p1626
S'IN'
p1627
S'B-PP'
p1628
g5
tp1629
a(S'50'
p1630
S'50'
p1631
S'CD'
p1632
S'B-NP'
p1633
g5
tp1634
a(g176
g176
S'NN'
p1635
S'I-NP'
p1636
g5
tp1637
a(S'or'
p1638
S'or'
p1639
S'CC'
p1640
g5
g5
tp1641
a(S'greater'
p1642
S'great'
p1643
S'JJR'
p1644
S'B-NP'
p1645
g5
tp1646
a(S'reduction'
p1647
S'reduction'
p1648
S'NN'
p1649
S'I-NP'
p1650
g5
tp1651
a(S'in'
p1652
S'in'
p1653
S'IN'
p1654
S'B-PP'
p1655
g5
tp1656
a(S'SEGA'
p1657
S'SEGA'
p1658
S'NN'
p1659
S'B-NP'
p1660
g5
tp1661
a(S'volume'
p1662
S'volume'
p1663
S'NN'
p1664
S'I-NP'
p1665
g5
tp1666
a(g215
g215
g215
g5
g5
tp1667
a(S'95'
p1668
S'95'
p1669
S'CD'
p1670
S'B-NP'
p1671
g5
tp1672
a(g176
g176
S'NN'
p1673
S'I-NP'
p1674
g5
tp1675
a(S'CI'
p1676
S'CI'
p1677
S'NN'
p1678
S'I-NP'
p1679
g5
tp1680
a(S'39\xc2\xb70-58\xc2\xb73'
p1681
S'39\xc2\xb70-58\xc2\xb73'
p1682
S'CD'
p1683
S'I-NP'
p1684
g5
tp1685
a(g222
g222
g222
g5
g5
tp1686
a(g131
g131
g131
g5
g5
tp1687
a(S'and'
p1688
S'and'
p1689
S'CC'
p1690
g5
g5
tp1691
a(S'duration'
p1692
S'duration'
p1693
S'NN'
p1694
S'B-NP'
p1695
g5
tp1696
a(S'of'
p1697
S'of'
p1698
S'IN'
p1699
S'B-PP'
p1700
g5
tp1701
a(S'response'
p1702
S'response'
p1703
S'NN'
p1704
S'B-NP'
p1705
g5
tp1706
a(S'was'
p1707
S'be'
p1708
S'VBD'
p1709
S'B-VP'
p1710
g5
tp1711
a(S'between'
p1712
S'between'
p1713
S'IN'
p1714
S'B-PP'
p1715
g5
tp1716
a(S'2\xc2\xb71'
p1717
S'2\xc2\xb71'
p1718
S'CD'
p1719
S'B-NP'
p1720
g5
tp1721
a(S'and'
p1722
S'and'
p1723
S'CC'
p1724
S'I-NP'
p1725
g5
tp1726
a(S'31\xc2\xb71'
p1727
S'31\xc2\xb71'
p1728
S'CD'
p1729
S'I-NP'
p1730
g5
tp1731
a(S'months'
p1732
S'month'
p1733
S'NNS'
p1734
S'I-NP'
p1735
g5
tp1736
a(g215
g215
g215
g5
g5
tp1737
a(S'median'
p1738
S'median'
p1739
S'NN'
p1740
S'B-NP'
p1741
g5
tp1742
a(S'not'
p1743
S'not'
p1744
S'RB'
p1745
S'B-VP'
p1746
g5
tp1747
a(S'reached'
p1748
S'reach'
p1749
S'VBN'
p1750
S'I-VP'
p1751
g5
tp1752
a(g222
g222
g222
g5
g5
tp1753
a(g104
g104
g104
g5
g5
tp1754
a(S'SEGA'
p1755
S'SEGA'
p1756
S'NN'
p1757
S'B-NP'
p1758
g5
tp1759
a(S'volume'
p1760
S'volume'
p1761
S'NN'
p1762
S'I-NP'
p1763
g5
tp1764
a(S'was'
p1765
S'be'
p1766
S'VBD'
p1767
S'B-VP'
p1768
g5
tp1769
a(S'reduced'
p1770
S'reduce'
p1771
S'VBN'
p1772
S'I-VP'
p1773
g5
tp1774
a(S'by'
p1775
S'by'
p1776
S'IN'
p1777
S'B-PP'
p1778
g5
tp1779
a(S'50'
p1780
S'50'
p1781
S'CD'
p1782
S'B-NP'
p1783
g5
tp1784
a(g176
g176
S'NN'
p1785
S'I-NP'
p1786
g5
tp1787
a(S'or'
p1788
S'or'
p1789
S'CC'
p1790
S'I-NP'
p1791
g5
tp1792
a(S'more'
p1793
S'more'
p1794
S'JJR'
p1795
S'I-NP'
p1796
g5
tp1797
a(S'in'
p1798
S'in'
p1799
S'IN'
p1800
S'B-PP'
p1801
g5
tp1802
a(S'39'
p1803
S'39'
p1804
S'CD'
p1805
S'B-NP'
p1806
g5
tp1807
a(g215
g215
g215
g5
g5
tp1808
a(S'37'
p1809
S'37'
p1810
S'CD'
p1811
S'B-NP'
p1812
g5
tp1813
a(g176
g176
S'NN'
p1814
S'I-NP'
p1815
g5
tp1816
a(g222
g222
g222
g5
g5
tp1817
a(S'of'
p1818
S'of'
p1819
S'IN'
p1820
S'B-PP'
p1821
g5
tp1822
a(S'105'
p1823
S'105'
p1824
S'CD'
p1825
S'B-NP'
p1826
g5
tp1827
a(S'patients'
p1828
S'patient'
p1829
S'NNS'
p1830
S'I-NP'
p1831
g5
tp1832
a(S'at'
p1833
S'at'
p1834
S'IN'
p1835
S'B-PP'
p1836
g5
tp1837
a(S'24'
p1838
S'24'
p1839
S'CD'
p1840
S'B-NP'
p1841
g5
tp1842
a(S'weeks'
p1843
S'week'
p1844
S'NNS'
p1845
S'I-NP'
p1846
g5
tp1847
a(g131
g131
g131
g5
g5
tp1848
a(S'48'
p1849
S'48'
p1850
S'CD'
p1851
S'B-NP'
p1852
g5
tp1853
a(g215
g215
g215
g5
g5
tp1854
a(S'46'
p1855
S'46'
p1856
S'CD'
p1857
S'B-NP'
p1858
g5
tp1859
a(g176
g176
S'NN'
p1860
S'I-NP'
p1861
g5
tp1862
a(g222
g222
g222
g5
g5
tp1863
a(S'of'
p1864
S'of'
p1865
S'IN'
p1866
S'B-PP'
p1867
g5
tp1868
a(S'104'
p1869
S'104'
p1870
S'CD'
p1871
S'B-NP'
p1872
g5
tp1873
a(S'patients'
p1874
S'patient'
p1875
S'NNS'
p1876
S'I-NP'
p1877
g5
tp1878
a(S'at'
p1879
S'at'
p1880
S'IN'
p1881
S'B-PP'
p1882
g5
tp1883
a(S'48'
p1884
S'48'
p1885
S'CD'
p1886
S'B-NP'
p1887
g5
tp1888
a(S'weeks'
p1889
S'week'
p1890
S'NNS'
p1891
S'I-NP'
p1892
g5
tp1893
a(g131
g131
g131
g5
g5
tp1894
a(S'36'
p1895
S'36'
p1896
S'CD'
p1897
S'B-NP'
p1898
g5
tp1899
a(g215
g215
g215
g5
g5
tp1900
a(S'47'
p1901
S'47'
p1902
S'CD'
p1903
S'B-NP'
p1904
g5
tp1905
a(g176
g176
S'NN'
p1906
S'I-NP'
p1907
g5
tp1908
a(g222
g222
g222
g5
g5
tp1909
a(S'of'
p1910
S'of'
p1911
S'IN'
p1912
S'B-PP'
p1913
g5
tp1914
a(S'76'
p1915
S'76'
p1916
S'CD'
p1917
S'B-NP'
p1918
g5
tp1919
a(S'patients'
p1920
S'patient'
p1921
S'NNS'
p1922
S'I-NP'
p1923
g5
tp1924
a(S'at'
p1925
S'at'
p1926
S'IN'
p1927
S'B-PP'
p1928
g5
tp1929
a(S'96'
p1930
S'96'
p1931
S'CD'
p1932
S'B-NP'
p1933
g5
tp1934
a(S'weeks'
p1935
S'week'
p1936
S'NNS'
p1937
S'I-NP'
p1938
g5
tp1939
a(g131
g131
g131
g5
g5
tp1940
a(S'and'
p1941
S'and'
p1942
S'CC'
p1943
g5
g5
tp1944
a(S'11'
p1945
S'11'
p1946
S'CD'
p1947
S'B-NP'
p1948
g5
tp1949
a(g215
g215
g215
g5
g5
tp1950
a(S'38'
p1951
S'38'
p1952
S'CD'
p1953
S'B-NP'
p1954
g5
tp1955
a(g176
g176
S'NN'
p1956
S'I-NP'
p1957
g5
tp1958
a(g222
g222
g222
g5
g5
tp1959
a(S'of'
p1960
S'of'
p1961
S'IN'
p1962
S'B-PP'
p1963
g5
tp1964
a(S'29'
p1965
S'29'
p1966
S'CD'
p1967
S'B-NP'
p1968
g5
tp1969
a(S'patients'
p1970
S'patient'
p1971
S'NNS'
p1972
S'I-NP'
p1973
g5
tp1974
a(S'at'
p1975
S'at'
p1976
S'IN'
p1977
S'B-PP'
p1978
g5
tp1979
a(S'144'
p1980
S'144'
p1981
S'CD'
p1982
S'B-NP'
p1983
g5
tp1984
a(S'weeks.'
p1985
S'weeks.'
p1986
S'NN'
p1987
S'I-NP'
p1988
g5
tp1989
a(S'Stomatitis'
p1990
S'Stomatitis'
p1991
S'NN'
p1992
S'I-NP'
p1993
g5
tp1994
a(g215
g215
g215
g5
g5
tp1995
a(S'48'
p1996
S'48'
p1997
S'CD'
p1998
S'B-NP'
p1999
g5
tp2000
a(S'['
p2001
g2001
g215
g5
g5
tp2002
a(S'43'
p2003
S'43'
p2004
S'CD'
p2005
S'B-NP'
p2006
g5
tp2007
a(g176
g176
S'NN'
p2008
S'I-NP'
p2009
g5
tp2010
a(S']'
p2011
g2011
g222
g5
g5
tp2012
a(S'patients'
p2013
S'patient'
p2014
S'NNS'
p2015
S'B-NP'
p2016
g5
tp2017
a(g222
g222
g222
g5
g5
tp2018
a(S'and'
p2019
S'and'
p2020
S'CC'
p2021
g5
g5
tp2022
a(S'mouth'
p2023
S'mouth'
p2024
S'NN'
p2025
S'B-NP'
p2026
g5
tp2027
a(S'ulceration'
p2028
S'ulceration'
p2029
S'NN'
p2030
S'I-NP'
p2031
g5
tp2032
a(g215
g215
g215
g5
g5
tp2033
a(S'33'
p2034
S'33'
p2035
S'CD'
p2036
S'B-NP'
p2037
g5
tp2038
a(g2001
g2001
g215
g5
g5
tp2039
a(S'30'
p2040
S'30'
p2041
S'CD'
p2042
S'B-NP'
p2043
g5
tp2044
a(g176
g176
S'NN'
p2045
S'I-NP'
p2046
g5
tp2047
a(g2011
g2011
g222
g5
g5
tp2048
a(S'patients'
p2049
S'patient'
p2050
S'NNS'
p2051
S'B-NP'
p2052
g5
tp2053
a(g222
g222
g222
g5
g5
tp2054
a(S'were'
p2055
S'be'
p2056
S'VBD'
p2057
S'B-VP'
p2058
g5
tp2059
a(S'the'
p2060
S'the'
p2061
S'DT'
p2062
S'B-NP'
p2063
g5
tp2064
a(S'most'
p2065
S'most'
p2066
S'RBS'
p2067
S'I-NP'
p2068
g5
tp2069
a(S'frequent'
p2070
S'frequent'
p2071
S'JJ'
p2072
S'I-NP'
p2073
g5
tp2074
a(S'treatment-related'
p2075
S'treatment-related'
p2076
S'JJ'
p2077
S'I-NP'
p2078
g5
tp2079
a(S'adverse'
p2080
S'adverse'
p2081
S'JJ'
p2082
S'I-NP'
p2083
g5
tp2084
a(S'events'
p2085
S'event'
p2086
S'NNS'
p2087
S'I-NP'
p2088
g5
tp2089
a(g1148
g1148
g62
g5
g5
tp2090
a(S'infections'
p2091
S'infection'
p2092
S'NNS'
p2093
S'B-NP'
p2094
g5
tp2095
a(S'were'
p2096
S'be'
p2097
S'VBD'
p2098
S'B-VP'
p2099
g5
tp2100
a(S'the'
p2101
S'the'
p2102
S'DT'
p2103
S'B-NP'
p2104
g5
tp2105
a(S'most'
p2106
S'most'
p2107
S'RBS'
p2108
S'I-NP'
p2109
g5
tp2110
a(S'commonly'
p2111
S'commonly'
p2112
S'RB'
p2113
S'I-NP'
p2114
g5
tp2115
a(S'reported'
p2116
S'report'
p2117
S'VBN'
p2118
S'I-NP'
p2119
g5
tp2120
a(S'treatment-related'
p2121
S'treatment-related'
p2122
S'JJ'
p2123
S'I-NP'
p2124
g5
tp2125
a(S'serious'
p2126
S'serious'
p2127
S'JJ'
p2128
S'I-NP'
p2129
g5
tp2130
a(S'adverse'
p2131
S'adverse'
p2132
S'JJ'
p2133
S'I-NP'
p2134
g5
tp2135
a(S'event'
p2136
S'event'
p2137
S'NN'
p2138
S'I-NP'
p2139
g5
tp2140
a(g131
g131
g131
g5
g5
tp2141
a(S'occurring'
p2142
S'occur'
p2143
S'VBG'
p2144
S'B-VP'
p2145
g5
tp2146
a(S'in'
p2147
S'in'
p2148
S'IN'
p2149
S'B-PP'
p2150
g5
tp2151
a(S'15'
p2152
S'15'
p2153
S'CD'
p2154
S'B-NP'
p2155
g5
tp2156
a(g215
g215
g215
g5
g5
tp2157
a(S'14'
p2158
S'14'
p2159
S'CD'
p2160
S'B-NP'
p2161
g5
tp2162
a(g176
g176
S'NN'
p2163
S'I-NP'
p2164
g5
tp2165
a(g222
g222
g222
g5
g5
tp2166
a(S'patients.'
p2167
S'patients.'
p2168
S'NN'
p2169
S'B-NP'
p2170
g5
tp2171
a(S'35'
p2172
S'35'
p2173
S'CD'
p2174
S'I-NP'
p2175
g5
tp2176
a(g215
g215
g215
g5
g5
tp2177
a(S'32'
p2178
S'32'
p2179
S'CD'
p2180
S'B-NP'
p2181
g5
tp2182
a(g176
g176
S'NN'
p2183
S'I-NP'
p2184
g5
tp2185
a(g222
g222
g222
g5
g5
tp2186
a(S'patients'
p2187
S'patient'
p2188
S'NNS'
p2189
S'B-NP'
p2190
g5
tp2191
a(S'reported'
p2192
S'report'
p2193
S'VBD'
p2194
S'B-VP'
p2195
g5
tp2196
a(S'treatment-related'
p2197
S'treatment-related'
p2198
S'JJ'
p2199
S'B-NP'
p2200
g5
tp2201
a(S'grade'
p2202
S'grade'
p2203
S'NN'
p2204
S'I-NP'
p2205
g5
tp2206
a(g543
g543
S'CD'
p2207
S'B-NP'
p2208
g5
tp2209
a(S'or'
p2210
S'or'
p2211
S'CC'
p2212
S'I-NP'
p2213
g5
tp2214
a(S'4'
p2215
g2215
S'CD'
p2216
S'I-NP'
p2217
g5
tp2218
a(S'adverse'
p2219
S'adverse'
p2220
S'JJ'
p2221
S'I-NP'
p2222
g5
tp2223
a(S'events'
p2224
S'event'
p2225
S'NNS'
p2226
S'I-NP'
p2227
g5
tp2228
a(g131
g131
g131
g5
g5
tp2229
a(S'the'
p2230
S'the'
p2231
S'DT'
p2232
S'B-NP'
p2233
g5
tp2234
a(S'most'
p2235
S'most'
p2236
S'RBS'
p2237
S'I-NP'
p2238
g5
tp2239
a(S'common'
p2240
S'common'
p2241
S'JJ'
p2242
S'I-NP'
p2243
g5
tp2244
a(S'of'
p2245
S'of'
p2246
S'IN'
p2247
S'B-PP'
p2248
g5
tp2249
a(S'which'
p2250
S'which'
p2251
S'WDT'
p2252
S'B-NP'
p2253
g5
tp2254
a(S'were'
p2255
S'be'
p2256
S'VBD'
p2257
S'B-VP'
p2258
g5
tp2259
a(S'stomatitis'
p2260
S'stomatitis'
p2261
S'NN'
p2262
S'B-NP'
p2263
g5
tp2264
a(g215
g215
g215
g5
g5
tp2265
a(S'nine'
p2266
S'nine'
p2267
S'CD'
p2268
S'B-NP'
p2269
g5
tp2270
a(g2001
g2001
g215
g5
g5
tp2271
a(S'8'
p2272
g2272
S'CD'
p2273
S'B-NP'
p2274
g5
tp2275
a(g176
g176
S'NN'
p2276
S'I-NP'
p2277
g5
tp2278
a(g2011
g2011
g222
g5
g5
tp2279
a(g222
g222
g222
g5
g5
tp2280
a(S'and'
p2281
S'and'
p2282
S'CC'
p2283
g5
g5
tp2284
a(S'pneumonia'
p2285
S'pneumonia'
p2286
S'NN'
p2287
S'B-NP'
p2288
g5
tp2289
a(g215
g215
g215
g5
g5
tp2290
a(S'nine'
p2291
S'nine'
p2292
S'CD'
p2293
S'B-NP'
p2294
g5
tp2295
a(g2001
g2001
g215
g5
g5
tp2296
a(g2272
g2272
S'CD'
p2297
S'B-NP'
p2298
g5
tp2299
a(g176
g176
S'NN'
p2300
S'I-NP'
p2301
g5
tp2302
a(g2011
g2011
g222
g5
g5
tp2303
a(g222
g222
g222
g5
g5
tp2304
a(g104
g104
g104
g5
g5
tp2305
a(S'18'
p2306
S'18'
p2307
S'CD'
p2308
S'B-NP'
p2309
g5
tp2310
a(g215
g215
g215
g5
g5
tp2311
a(S'16'
p2312
S'16'
p2313
S'CD'
p2314
S'B-NP'
p2315
g5
tp2316
a(g176
g176
S'NN'
p2317
S'I-NP'
p2318
g5
tp2319
a(g222
g222
g222
g5
g5
tp2320
a(S'patients'
p2321
S'patient'
p2322
S'NNS'
p2323
S'B-NP'
p2324
g5
tp2325
a(S'had'
p2326
S'have'
p2327
S'VBD'
p2328
S'B-VP'
p2329
g5
tp2330
a(S'treatment-related'
p2331
S'treatment-related'
p2332
S'JJ'
p2333
S'B-NP'
p2334
g5
tp2335
a(S'serious'
p2336
S'serious'
p2337
S'JJ'
p2338
S'I-NP'
p2339
g5
tp2340
a(S'adverse'
p2341
S'adverse'
p2342
S'JJ'
p2343
S'I-NP'
p2344
g5
tp2345
a(S'events.'
p2346
S'events.'
p2347
S'NN'
p2348
S'I-NP'
p2349
g5
tp2350
a(S'Six'
p2351
S'Six'
p2352
S'CD'
p2353
S'I-NP'
p2354
g5
tp2355
a(g215
g215
g215
g5
g5
tp2356
a(S'5'
p2357
g2357
S'CD'
p2358
S'B-NP'
p2359
g5
tp2360
a(g176
g176
S'NN'
p2361
S'I-NP'
p2362
g5
tp2363
a(g222
g222
g222
g5
g5
tp2364
a(S'patients'
p2365
S'patient'
p2366
S'NNS'
p2367
S'B-NP'
p2368
g5
tp2369
a(S'withdrew'
p2370
S'withdraw'
p2371
S'VBD'
p2372
S'B-VP'
p2373
g5
tp2374
a(S'because'
p2375
S'because'
p2376
S'IN'
p2377
S'B-PP'
p2378
g5
tp2379
a(S'of'
p2380
S'of'
p2381
S'IN'
p2382
S'I-PP'
p2383
g5
tp2384
a(S'adverse'
p2385
S'adverse'
p2386
S'JJ'
p2387
S'B-NP'
p2388
g5
tp2389
a(S'events'
p2390
S'event'
p2391
S'NNS'
p2392
S'I-NP'
p2393
g5
tp2394
a(g104
g104
g104
g5
g5
tp2395
a(S'INTERPRETATION'
p2396
S'INTERPRETATION'
p2397
S'NN'
p2398
S'B-NP'
p2399
g5
tp2400
a(S'These'
p2401
S'These'
p2402
S'DT'
p2403
S'B-NP'
p2404
g5
tp2405
a(S'results'
p2406
S'result'
p2407
S'NNS'
p2408
S'I-NP'
p2409
g5
tp2410
a(S'support'
p2411
S'support'
p2412
S'VBP'
p2413
S'B-VP'
p2414
g5
tp2415
a(S'the'
p2416
S'the'
p2417
S'DT'
p2418
S'B-NP'
p2419
g5
tp2420
a(S'longer-term'
p2421
S'longer-term'
p2422
S'JJ'
p2423
S'I-NP'
p2424
g5
tp2425
a(S'use'
p2426
S'use'
p2427
S'NN'
p2428
S'I-NP'
p2429
g5
tp2430
a(S'of'
p2431
S'of'
p2432
S'IN'
p2433
S'B-PP'
p2434
g5
tp2435
a(S'everolimus'
p2436
S'everolimus'
p2437
S'NN'
p2438
S'B-NP'
p2439
g5
tp2440
a(S'in'
p2441
S'in'
p2442
S'IN'
p2443
S'B-PP'
p2444
g5
tp2445
a(S'patients'
p2446
S'patient'
p2447
S'NNS'
p2448
S'B-NP'
p2449
g5
tp2450
a(S'who'
p2451
S'who'
p2452
S'WP'
p2453
S'B-NP'
p2454
g5
tp2455
a(S'have'
p2456
S'have'
p2457
S'VBP'
p2458
S'B-VP'
p2459
g5
tp2460
a(S'few'
p2461
S'few'
p2462
S'JJ'
p2463
S'B-NP'
p2464
g5
tp2465
a(S'treatment'
p2466
S'treatment'
p2467
S'NN'
p2468
S'I-NP'
p2469
g5
tp2470
a(S'options'
p2471
S'option'
p2472
S'NNS'
p2473
S'I-NP'
p2474
g5
tp2475
a(S'and'
p2476
S'and'
p2477
S'CC'
p2478
g5
g5
tp2479
a(S'who'
p2480
S'who'
p2481
S'WP'
p2482
S'B-NP'
p2483
g5
tp2484
a(S'need'
p2485
S'need'
p2486
S'VBP'
p2487
S'B-VP'
p2488
g5
tp2489
a(S'continued'
p2490
S'continue'
p2491
S'VBN'
p2492
S'B-NP'
p2493
g5
tp2494
a(S'treatment'
p2495
S'treatment'
p2496
S'NN'
p2497
S'I-NP'
p2498
g5
tp2499
a(S'for'
p2500
S'for'
p2501
S'IN'
p2502
S'B-PP'
p2503
g5
tp2504
a(S'tuberous'
p2505
S'tuberous'
p2506
S'JJ'
p2507
S'B-NP'
p2508
S'B-protein'
p2509
tp2510
a(S'sclerosis'
p2511
S'sclerosis'
p2512
S'NN'
p2513
S'I-NP'
p2514
S'I-protein'
p2515
tp2516
a(S'complex'
p2517
S'complex'
p2518
S'NN'
p2519
S'I-NP'
p2520
S'I-protein'
p2521
tp2522
a(S'and'
p2523
S'and'
p2524
S'CC'
p2525
g5
g5
tp2526
a(S'its'
p2527
S'its'
p2528
S'PRP$'
p2529
S'B-NP'
p2530
g5
tp2531
a(S'varied'
p2532
S'varied'
p2533
S'JJ'
p2534
S'I-NP'
p2535
g5
tp2536
a(S'manifestations.'
p2537
S'manifestations.'
p2538
S'NN'
p2539
S'I-NP'
p2540
g5
tp2541
a(S'Reduction'
p2542
S'Reduction'
p2543
S'NN'
p2544
S'I-NP'
p2545
g5
tp2546
a(S'or'
p2547
S'or'
p2548
S'CC'
p2549
S'I-NP'
p2550
g5
tp2551
a(S'stabilisation'
p2552
S'stabilisation'
p2553
S'NN'
p2554
S'I-NP'
p2555
g5
tp2556
a(S'of'
p2557
S'of'
p2558
S'IN'
p2559
S'B-PP'
p2560
g5
tp2561
a(S'tumour'
p2562
S'tumour'
p2563
S'NN'
p2564
S'B-NP'
p2565
g5
tp2566
a(S'volume'
p2567
S'volume'
p2568
S'NN'
p2569
S'I-NP'
p2570
g5
tp2571
a(S'with'
p2572
S'with'
p2573
S'IN'
p2574
S'B-PP'
p2575
g5
tp2576
a(S'everolimus'
p2577
S'everolimus'
p2578
S'NN'
p2579
S'B-NP'
p2580
g5
tp2581
a(S'will'
p2582
S'will'
p2583
S'MD'
p2584
S'B-VP'
p2585
g5
tp2586
a(S'hopefully'
p2587
S'hopefully'
p2588
S'RB'
p2589
S'I-VP'
p2590
g5
tp2591
a(S'provide'
p2592
S'provide'
p2593
S'VB'
p2594
S'I-VP'
p2595
g5
tp2596
a(S'long-term'
p2597
S'long-term'
p2598
S'JJ'
p2599
S'B-NP'
p2600
g5
tp2601
a(S'clinical'
p2602
S'clinical'
p2603
S'JJ'
p2604
S'I-NP'
p2605
g5
tp2606
a(S'benefit'
p2607
S'benefit'
p2608
S'NN'
p2609
S'I-NP'
p2610
g5
tp2611
a(S'in'
p2612
S'in'
p2613
S'IN'
p2614
S'B-PP'
p2615
g5
tp2616
a(S'patients'
p2617
S'patient'
p2618
S'NNS'
p2619
S'B-NP'
p2620
g5
tp2621
a(S'with'
p2622
S'with'
p2623
S'IN'
p2624
S'B-PP'
p2625
g5
tp2626
a(S'SEGA'
p2627
S'SEGA'
p2628
S'NN'
p2629
S'B-NP'
p2630
g5
tp2631
a(g104
g104
g104
g5
g5
tp2632
a(S'FUNDING'
p2633
S'FUNDING'
p2634
S'VBG'
p2635
S'B-VP'
p2636
g5
tp2637
a(S'Novartis'
p2638
S'Novartis'
p2639
S'NNP'
p2640
S'B-NP'
p2641
g5
tp2642
a(S'Pharmaceuticals'
p2643
S'Pharmaceuticals'
p2644
S'NNP'
p2645
S'I-NP'
p2646
g5
tp2647
a(g104
g104
g104
g5
g5
tp2648
a.