(lp0
(S'Ketorolac'
p1
S'Ketorolac'
p2
S'NN'
p3
S'B-NP'
p4
S'O'
p5
tp6
a(S'versus'
p7
S'versus'
p8
S'CC'
p9
S'I-NP'
p10
g5
tp11
a(S'fentanyl'
p12
S'fentanyl'
p13
S'NN'
p14
S'I-NP'
p15
g5
tp16
a(S'for'
p17
S'for'
p18
S'IN'
p19
S'B-PP'
p20
g5
tp21
a(S'gynaecological'
p22
S'gynaecological'
p23
S'JJ'
p24
S'B-NP'
p25
g5
tp26
a(S'day-case'
p27
S'day-case'
p28
S'NN'
p29
S'I-NP'
p30
g5
tp31
a(S'surgery'
p32
S'surgery'
p33
S'NN'
p34
S'I-NP'
p35
g5
tp36
a(S'.'
p37
g37
g37
g5
g5
tp38
a(S'The'
p39
S'The'
p40
S'DT'
p41
S'B-NP'
p42
g5
tp43
a(S'effectiveness'
p44
S'effectiveness'
p45
S'NN'
p46
S'I-NP'
p47
g5
tp48
a(S'of'
p49
S'of'
p50
S'IN'
p51
S'B-PP'
p52
g5
tp53
a(S'fentanyl'
p54
S'fentanyl'
p55
S'NN'
p56
S'B-NP'
p57
g5
tp58
a(S'and'
p59
S'and'
p60
S'CC'
p61
S'I-NP'
p62
g5
tp63
a(S'ketorolac'
p64
S'ketorolac'
p65
S'NN'
p66
S'I-NP'
p67
g5
tp68
a(S'in'
p69
S'in'
p70
S'IN'
p71
S'B-PP'
p72
g5
tp73
a(S'providing'
p74
S'provide'
p75
S'VBG'
p76
S'B-VP'
p77
g5
tp78
a(S'analgesia'
p79
S'analgesia'
p80
S'NN'
p81
S'B-NP'
p82
g5
tp83
a(S'for'
p84
S'for'
p85
S'IN'
p86
S'B-PP'
p87
g5
tp88
a(S'day-case'
p89
S'day-case'
p90
S'JJ'
p91
S'B-NP'
p92
g5
tp93
a(S'gynaecological'
p94
S'gynaecological'
p95
S'JJ'
p96
S'I-NP'
p97
g5
tp98
a(S'procedures'
p99
S'procedure'
p100
S'NNS'
p101
S'I-NP'
p102
g5
tp103
a(S'was'
p104
S'be'
p105
S'VBD'
p106
S'B-VP'
p107
g5
tp108
a(S'evaluated'
p109
S'evaluate'
p110
S'VBN'
p111
S'I-VP'
p112
g5
tp113
a(S'in'
p114
S'in'
p115
S'IN'
p116
S'B-PP'
p117
g5
tp118
a(S'55'
p119
S'55'
p120
S'CD'
p121
S'B-NP'
p122
g5
tp123
a(S'healthy'
p124
S'healthy'
p125
S'JJ'
p126
S'I-NP'
p127
g5
tp128
a(S'volunteers'
p129
S'volunteer'
p130
S'NNS'
p131
S'I-NP'
p132
g5
tp133
a(S'in'
p134
S'in'
p135
S'IN'
p136
S'B-PP'
p137
g5
tp138
a(S'a'
p139
g139
S'DT'
p140
S'B-NP'
p141
g5
tp142
a(S'single'
p143
S'single'
p144
S'JJ'
p145
S'I-NP'
p146
g5
tp147
a(S'blinded'
p148
S'blind'
p149
S'VBN'
p150
S'I-NP'
p151
g5
tp152
a(S'fashion.'
p153
S'fashion.'
p154
S'NN'
p155
S'I-NP'
p156
g5
tp157
a(S'Fentanyl'
p158
S'Fentanyl'
p159
S'NN'
p160
S'I-NP'
p161
g5
tp162
a(S'('
p163
g163
g163
g5
g5
tp164
a(S'1'
p165
g165
S'CD'
p166
S'B-NP'
p167
g5
tp168
a(S'mcg/kg'
p169
S'mcg/kg'
p170
S'NN'
p171
S'I-NP'
p172
g5
tp173
a(S'iv'
p174
S'iv'
p175
S'NN'
p176
S'I-NP'
p177
g5
tp178
a(S')'
p179
g179
g179
g5
g5
tp180
a(S'and'
p181
S'and'
p182
S'CC'
p183
g5
g5
tp184
a(S'ketorolac'
p185
S'ketorolac'
p186
S'NN'
p187
S'B-NP'
p188
g5
tp189
a(g163
g163
g163
g5
g5
tp190
a(S'30'
p191
S'30'
p192
S'CD'
p193
S'B-NP'
p194
g5
tp195
a(S'mg'
p196
S'mg'
p197
S'NN'
p198
S'I-NP'
p199
g5
tp200
a(S'im'
p201
S'im'
p202
S'NN'
p203
S'I-NP'
p204
g5
tp205
a(g179
g179
g179
g5
g5
tp206
a(S'were'
p207
S'be'
p208
S'VBD'
p209
S'B-VP'
p210
g5
tp211
a(S'administered'
p212
S'administer'
p213
S'VBN'
p214
S'I-VP'
p215
g5
tp216
a(S'immediately'
p217
S'immediately'
p218
S'RB'
p219
S'B-ADVP'
p220
g5
tp221
a(S'following'
p222
S'follow'
p223
S'VBG'
p224
S'B-PP'
p225
g5
tp226
a(S'induction'
p227
S'induction'
p228
S'NN'
p229
S'B-NP'
p230
g5
tp231
a(S'of'
p232
S'of'
p233
S'IN'
p234
S'B-PP'
p235
g5
tp236
a(S'anaesthesia.'
p237
S'anaesthesia.'
p238
S'NN'
p239
S'B-NP'
p240
g5
tp241
a(S'Anaesthesia'
p242
S'Anaesthesia'
p243
S'NNP'
p244
S'I-NP'
p245
g5
tp246
a(S'was'
p247
S'be'
p248
S'VBD'
p249
S'B-VP'
p250
g5
tp251
a(S'standardized'
p252
S'standardize'
p253
S'VBN'
p254
S'I-VP'
p255
g5
tp256
a(S'with'
p257
S'with'
p258
S'IN'
p259
S'B-PP'
p260
g5
tp261
a(S'propofol'
p262
S'propofol'
p263
S'NN'
p264
S'B-NP'
p265
g5
tp266
a(S','
p267
g267
g267
g5
g5
tp268
a(S'nitrous'
p269
S'nitrous'
p270
S'JJ'
p271
S'B-NP'
p272
g5
tp273
a(S'oxide'
p274
S'oxide'
p275
S'NN'
p276
S'I-NP'
p277
g5
tp278
a(S'and'
p279
S'and'
p280
S'CC'
p281
g5
g5
tp282
a(S'enflurane.'
p283
S'enflurane.'
p284
S'VB'
p285
S'B-VP'
p286
g5
tp287
a(S'Outcome'
p288
S'Outcome'
p289
S'NNP'
p290
S'B-NP'
p291
g5
tp292
a(S'variables'
p293
S'variable'
p294
S'NNS'
p295
S'I-NP'
p296
g5
tp297
a(S'assessed'
p298
S'assess'
p299
S'VBN'
p300
S'B-VP'
p301
g5
tp302
a(S'were'
p303
S'be'
p304
S'VBD'
p305
S'B-VP'
p306
g5
tp307
a(S'pain'
p308
S'pain'
p309
S'JJ'
p310
S'B-NP'
p311
g5
tp312
a(g267
g267
g267
S'I-NP'
p313
g5
tp314
a(S'additional'
p315
S'additional'
p316
S'JJ'
p317
S'I-NP'
p318
g5
tp319
a(S'analgesic'
p320
S'analgesic'
p321
S'JJ'
p322
S'I-NP'
p323
g5
tp324
a(S'requirements'
p325
S'requirement'
p326
S'NNS'
p327
S'I-NP'
p328
g5
tp329
a(g267
g267
g267
g5
g5
tp330
a(S'and'
p331
S'and'
p332
S'CC'
p333
g5
g5
tp334
a(S'incidence'
p335
S'incidence'
p336
S'NN'
p337
S'B-NP'
p338
g5
tp339
a(S'of'
p340
S'of'
p341
S'IN'
p342
S'B-PP'
p343
g5
tp344
a(S'postoperative'
p345
S'postoperative'
p346
S'JJ'
p347
S'B-NP'
p348
g5
tp349
a(S'nausea'
p350
S'nausea'
p351
S'NN'
p352
S'I-NP'
p353
g5
tp354
a(S'and'
p355
S'and'
p356
S'CC'
p357
g5
g5
tp358
a(S'vomiting.'
p359
S'vomiting.'
p360
S'VB'
p361
S'B-VP'
p362
g5
tp363
a(S'All'
p364
S'All'
p365
S'DT'
p366
S'B-NP'
p367
g5
tp368
a(S'variables'
p369
S'variable'
p370
S'NNS'
p371
S'I-NP'
p372
g5
tp373
a(S'were'
p374
S'be'
p375
S'VBD'
p376
S'B-VP'
p377
g5
tp378
a(S'recorded'
p379
S'record'
p380
S'VBN'
p381
S'I-VP'
p382
g5
tp383
a(S'at'
p384
S'at'
p385
S'IN'
p386
S'B-PP'
p387
g5
tp388
a(S'15'
p389
S'15'
p390
S'CD'
p391
S'B-NP'
p392
g5
tp393
a(S'minutes'
p394
S'minute'
p395
S'NNS'
p396
S'I-NP'
p397
g5
tp398
a(g267
g267
g267
g5
g5
tp399
a(S'2'
p400
g400
S'CD'
p401
S'B-NP'
p402
g5
tp403
a(S'hours'
p404
S'hour'
p405
S'NNS'
p406
S'I-NP'
p407
g5
tp408
a(S'and'
p409
S'and'
p410
S'CC'
p411
g5
g5
tp412
a(S'24'
p413
S'24'
p414
S'CD'
p415
S'B-NP'
p416
g5
tp417
a(S'hours'
p418
S'hour'
p419
S'NNS'
p420
S'I-NP'
p421
g5
tp422
a(S'postoperatively.'
p423
S'postoperatively.'
p424
S'RB'
p425
S'B-ADVP'
p426
g5
tp427
a(S'There'
p428
S'There'
p429
S'EX'
p430
S'B-NP'
p431
g5
tp432
a(S'was'
p433
S'be'
p434
S'VBD'
p435
S'B-VP'
p436
g5
tp437
a(S'no'
p438
S'no'
p439
S'DT'
p440
S'B-NP'
p441
g5
tp442
a(S'significant'
p443
S'significant'
p444
S'JJ'
p445
S'I-NP'
p446
g5
tp447
a(S'difference'
p448
S'difference'
p449
S'NN'
p450
S'I-NP'
p451
g5
tp452
a(S'between'
p453
S'between'
p454
S'IN'
p455
S'B-PP'
p456
g5
tp457
a(S'the'
p458
S'the'
p459
S'DT'
p460
S'B-NP'
p461
g5
tp462
a(g400
g400
S'CD'
p463
S'I-NP'
p464
g5
tp465
a(S'groups'
p466
S'group'
p467
S'NNS'
p468
S'I-NP'
p469
g5
tp470
a(S'with'
p471
S'with'
p472
S'IN'
p473
S'B-PP'
p474
g5
tp475
a(S'respect'
p476
S'respect'
p477
S'NN'
p478
S'B-NP'
p479
g5
tp480
a(S'to'
p481
S'to'
p482
S'TO'
p483
S'B-PP'
p484
g5
tp485
a(S'any'
p486
S'any'
p487
S'DT'
p488
S'B-NP'
p489
g5
tp490
a(S'of'
p491
S'of'
p492
S'IN'
p493
S'B-PP'
p494
g5
tp495
a(S'the'
p496
S'the'
p497
S'DT'
p498
S'B-NP'
p499
g5
tp500
a(S'measured'
p501
S'measure'
p502
S'VBN'
p503
S'I-NP'
p504
g5
tp505
a(S'variables.'
p506
S'variables.'
p507
S'NN'
p508
S'I-NP'
p509
g5
tp510
a(S'Both'
p511
S'Both'
p512
S'DT'
p513
S'B-NP'
p514
g5
tp515
a(S'drugs'
p516
S'drug'
p517
S'NNS'
p518
S'I-NP'
p519
g5
tp520
a(S'were'
p521
S'be'
p522
S'VBD'
p523
S'B-VP'
p524
g5
tp525
a(S'ineffective'
p526
S'ineffective'
p527
S'JJ'
p528
S'B-ADJP'
p529
g5
tp530
a(S'as'
p531
S'as'
p532
S'IN'
p533
S'B-PP'
p534
g5
tp535
a(S'sole'
p536
S'sole'
p537
S'JJ'
p538
S'B-NP'
p539
g5
tp540
a(S'analgesic'
p541
S'analgesic'
p542
S'JJ'
p543
S'I-NP'
p544
g5
tp545
a(S'agents'
p546
S'agent'
p547
S'NNS'
p548
S'I-NP'
p549
g5
tp550
a(S'in'
p551
S'in'
p552
S'IN'
p553
S'B-PP'
p554
g5
tp555
a(S'half'
p556
S'half'
p557
S'NN'
p558
S'B-NP'
p559
g5
tp560
a(S'of'
p561
S'of'
p562
S'IN'
p563
S'B-PP'
p564
g5
tp565
a(S'their'
p566
S'their'
p567
S'PRP$'
p568
S'B-NP'
p569
g5
tp570
a(S'respective'
p571
S'respective'
p572
S'JJ'
p573
S'I-NP'
p574
g5
tp575
a(S'groups.'
p576
S'groups.'
p577
S'NN'
p578
S'I-NP'
p579
g5
tp580
a(S'It'
p581
S'It'
p582
S'PRP'
p583
S'B-NP'
p584
g5
tp585
a(S'may'
p586
S'may'
p587
S'MD'
p588
S'B-VP'
p589
g5
tp590
a(S'be'
p591
S'be'
p592
S'VB'
p593
S'I-VP'
p594
g5
tp595
a(S'that'
p596
S'that'
p597
S'IN'
p598
S'B-SBAR'
p599
g5
tp600
a(g139
g139
S'DT'
p601
S'B-NP'
p602
g5
tp603
a(S'combination'
p604
S'combination'
p605
S'NN'
p606
S'I-NP'
p607
g5
tp608
a(S'of'
p609
S'of'
p610
S'IN'
p611
S'B-PP'
p612
g5
tp613
a(S'these'
p614
S'these'
p615
S'DT'
p616
S'B-NP'
p617
g5
tp618
a(S'drugs'
p619
S'drug'
p620
S'NNS'
p621
S'I-NP'
p622
g5
tp623
a(g267
g267
g267
g5
g5
tp624
a(S'providing'
p625
S'provide'
p626
S'VBG'
p627
S'B-VP'
p628
g5
tp629
a(g139
g139
S'DT'
p630
S'B-NP'
p631
g5
tp632
a(S'multireceptor'
p633
S'multireceptor'
p634
S'JJ'
p635
S'I-NP'
p636
g5
tp637
a(S'approach'
p638
S'approach'
p639
S'NN'
p640
S'I-NP'
p641
g5
tp642
a(S'to'
p643
S'to'
p644
S'TO'
p645
S'B-PP'
p646
g5
tp647
a(S'analgesia'
p648
S'analgesia'
p649
S'NN'
p650
S'B-NP'
p651
g5
tp652
a(g267
g267
g267
g5
g5
tp653
a(S'will'
p654
S'will'
p655
S'MD'
p656
S'B-VP'
p657
g5
tp658
a(S'prove'
p659
S'prove'
p660
S'VB'
p661
S'I-VP'
p662
g5
tp663
a(S'to'
p664
S'to'
p665
S'TO'
p666
S'I-VP'
p667
g5
tp668
a(S'be'
p669
S'be'
p670
S'VB'
p671
S'I-VP'
p672
g5
tp673
a(S'more'
p674
S'more'
p675
S'RBR'
p676
S'B-ADJP'
p677
g5
tp678
a(S'effective'
p679
S'effective'
p680
S'JJ'
p681
S'I-ADJP'
p682
g5
tp683
a(g37
g37
g37
g5
g5
tp684
a.