(lp0
(S'Conventional'
p1
S'Conventional'
p2
S'JJ'
p3
S'B-NP'
p4
S'O'
p5
tp6
a(S'in'
p7
S'in'
p8
S'FW'
p9
S'I-NP'
p10
g5
tp11
a(S'vitro'
p12
S'vitro'
p13
S'FW'
p14
S'I-NP'
p15
g5
tp16
a(S'fertilization'
p17
S'fertilization'
p18
S'NN'
p19
S'I-NP'
p20
g5
tp21
a(S'versus'
p22
S'versus'
p23
S'IN'
p24
S'B-PP'
p25
g5
tp26
a(S'intracytoplasmic'
p27
S'intracytoplasmic'
p28
S'JJ'
p29
S'B-NP'
p30
g5
tp31
a(S'sperm'
p32
S'sperm'
p33
S'NN'
p34
S'I-NP'
p35
g5
tp36
a(S'injection'
p37
S'injection'
p38
S'NN'
p39
S'I-NP'
p40
g5
tp41
a(S'in'
p42
S'in'
p43
S'IN'
p44
S'B-PP'
p45
g5
tp46
a(S'patients'
p47
S'patient'
p48
S'NNS'
p49
S'B-NP'
p50
g5
tp51
a(S'with'
p52
S'with'
p53
S'IN'
p54
S'B-PP'
p55
g5
tp56
a(S'borderline'
p57
S'borderline'
p58
S'JJ'
p59
S'B-NP'
p60
g5
tp61
a(S'semen'
p62
S'seman'
p63
S'NNS'
p64
S'I-NP'
p65
g5
tp66
a(S':'
p67
g67
g67
g5
g5
tp68
a(S'a'
p69
g69
S'DT'
p70
S'B-NP'
p71
g5
tp72
a(S'randomized'
p73
S'randomize'
p74
S'VBN'
p75
S'I-NP'
p76
g5
tp77
a(S'study'
p78
S'study'
p79
S'NN'
p80
S'I-NP'
p81
g5
tp82
a(S'using'
p83
S'use'
p84
S'VBG'
p85
S'B-VP'
p86
g5
tp87
a(S'sibling'
p88
S'sibling'
p89
S'NN'
p90
S'B-NP'
p91
g5
tp92
a(S'oocytes'
p93
S'oocyte'
p94
S'NNS'
p95
S'I-NP'
p96
g5
tp97
a(S'.'
p98
g98
g98
g5
g5
tp99
a(S'OBJECTIVE'
p100
S'OBJECTIVE'
p101
S'NN'
p102
S'B-NP'
p103
g5
tp104
a(S'To'
p105
S'To'
p106
S'TO'
p107
S'B-VP'
p108
g5
tp109
a(S'determine'
p110
S'determine'
p111
S'VB'
p112
S'I-VP'
p113
g5
tp114
a(S'whether'
p115
S'whether'
p116
S'IN'
p117
S'B-SBAR'
p118
g5
tp119
a(S'patients'
p120
S'patient'
p121
S'NNS'
p122
S'B-NP'
p123
g5
tp124
a(S'with'
p125
S'with'
p126
S'IN'
p127
S'B-PP'
p128
g5
tp129
a(S'borderline'
p130
S'borderline'
p131
S'JJ'
p132
S'B-NP'
p133
g5
tp134
a(S'semen'
p135
S'seman'
p136
S'NNS'
p137
S'I-NP'
p138
g5
tp139
a(S'should'
p140
S'should'
p141
S'MD'
p142
S'B-VP'
p143
g5
tp144
a(S'be'
p145
S'be'
p146
S'VB'
p147
S'I-VP'
p148
g5
tp149
a(S'treated'
p150
S'treat'
p151
S'VBN'
p152
S'I-VP'
p153
g5
tp154
a(S'with'
p155
S'with'
p156
S'IN'
p157
S'B-PP'
p158
g5
tp159
a(S'conventional'
p160
S'conventional'
p161
S'JJ'
p162
S'B-NP'
p163
g5
tp164
a(S'IVF'
p165
S'IVF'
p166
S'NN'
p167
S'I-NP'
p168
g5
tp169
a(S'or'
p170
S'or'
p171
S'CC'
p172
g5
g5
tp173
a(S'intracytoplasmic'
p174
S'intracytoplasmic'
p175
S'JJ'
p176
S'B-NP'
p177
g5
tp178
a(S'sperm'
p179
S'sperm'
p180
S'NN'
p181
S'I-NP'
p182
g5
tp183
a(S'injection'
p184
S'injection'
p185
S'NN'
p186
S'I-NP'
p187
g5
tp188
a(S'('
p189
g189
g189
g5
g5
tp190
a(S'ICSI'
p191
S'ICSI'
p192
S'NN'
p193
S'B-NP'
p194
S'B-protein'
p195
tp196
a(S')'
p197
g197
g197
g5
g5
tp198
a(g98
g98
g98
g5
g5
tp199
a(S'DESIGN'
p200
S'DESIGN'
p201
S'NN'
p202
S'B-NP'
p203
g5
tp204
a(S'Randomized'
p205
S'Randomize'
p206
S'VBD'
p207
S'B-VP'
p208
g5
tp209
a(S'study'
p210
S'study'
p211
S'NN'
p212
S'B-NP'
p213
g5
tp214
a(g98
g98
g98
g5
g5
tp215
a(S'SETTING'
p216
S'SETTING'
p217
S'VBG'
p218
S'B-VP'
p219
g5
tp220
a(S'A'
p221
g221
S'DT'
p222
S'B-NP'
p223
g5
tp224
a(S'university'
p225
S'university'
p226
S'NN'
p227
S'I-NP'
p228
g5
tp229
a(S'medical'
p230
S'medical'
p231
S'JJ'
p232
S'I-NP'
p233
g5
tp234
a(S'center'
p235
S'center'
p236
S'NN'
p237
S'I-NP'
p238
g5
tp239
a(S'in'
p240
S'in'
p241
S'IN'
p242
S'B-PP'
p243
g5
tp244
a(S'The'
p245
S'The'
p246
S'DT'
p247
S'B-NP'
p248
g5
tp249
a(S'Netherlands'
p250
S'Netherlands'
p251
S'NNP'
p252
S'I-NP'
p253
g5
tp254
a(g98
g98
g98
g5
g5
tp255
a(S'PATIENT'
p256
S'PATIENT'
p257
S'NN'
p258
S'B-NP'
p259
g5
tp260
a(g189
g189
g189
g5
g5
tp261
a(S'S'
p262
g262
S'NN'
p263
S'B-NP'
p264
g5
tp265
a(g197
g197
g197
g5
g5
tp266
a(S'One'
p267
S'One'
p268
S'CD'
p269
S'B-NP'
p270
g5
tp271
a(S'hundred'
p272
S'hundred'
p273
S'CD'
p274
S'I-NP'
p275
g5
tp276
a(S'six'
p277
S'six'
p278
S'CD'
p279
S'I-NP'
p280
g5
tp281
a(S'couples'
p282
S'couple'
p283
S'NNS'
p284
S'I-NP'
p285
g5
tp286
a(S'with'
p287
S'with'
p288
S'IN'
p289
S'B-PP'
p290
g5
tp291
a(S'borderline'
p292
S'borderline'
p293
S'JJ'
p294
S'B-NP'
p295
g5
tp296
a(S'semen'
p297
S'seman'
p298
S'NNS'
p299
S'I-NP'
p300
g5
tp301
a(S'who'
p302
S'who'
p303
S'WP'
p304
S'B-NP'
p305
g5
tp306
a(S'were'
p307
S'be'
p308
S'VBD'
p309
S'B-VP'
p310
g5
tp311
a(S'undergoing'
p312
S'undergo'
p313
S'VBG'
p314
S'I-VP'
p315
g5
tp316
a(S'IVF'
p317
S'IVF'
p318
S'NN'
p319
S'B-NP'
p320
S'B-protein'
p321
tp322
a(S'and'
p323
S'and'
p324
S'CC'
p325
S'I-NP'
p326
g5
tp327
a(S'ICSI'
p328
S'ICSI'
p329
S'NN'
p330
S'I-NP'
p331
S'B-protein'
p332
tp333
a(S'on'
p334
S'on'
p335
S'IN'
p336
S'B-PP'
p337
g5
tp338
a(S'sibling'
p339
S'sibling'
p340
S'NN'
p341
S'B-NP'
p342
S'B-cell_type'
p343
tp344
a(S'oocytes'
p345
S'oocyte'
p346
S'NNS'
p347
S'I-NP'
p348
S'I-cell_type'
p349
tp350
a(g98
g98
g98
g5
g5
tp351
a(S'INTERVENTION'
p352
S'INTERVENTION'
p353
S'NN'
p354
S'B-NP'
p355
g5
tp356
a(g189
g189
g189
g5
g5
tp357
a(g262
g262
S'NN'
p358
S'B-NP'
p359
g5
tp360
a(g197
g197
g197
g5
g5
tp361
a(S'Performing'
p362
S'Perform'
p363
S'VBG'
p364
S'B-VP'
p365
g5
tp366
a(S'IVF'
p367
S'IVF'
p368
S'NN'
p369
S'B-NP'
p370
S'B-protein'
p371
tp372
a(S'and'
p373
S'and'
p374
S'CC'
p375
S'I-NP'
p376
g5
tp377
a(S'ICSI'
p378
S'ICSI'
p379
S'NN'
p380
S'I-NP'
p381
S'B-protein'
p382
tp383
a(S'on'
p384
S'on'
p385
S'IN'
p386
S'B-PP'
p387
g5
tp388
a(S'sibling'
p389
S'sibling'
p390
S'NN'
p391
S'B-NP'
p392
S'B-cell_type'
p393
tp394
a(S'oocytes'
p395
S'oocyte'
p396
S'NNS'
p397
S'I-NP'
p398
S'I-cell_type'
p399
tp400
a(g98
g98
g98
g5
g5
tp401
a(S'MAIN'
p402
S'MAIN'
p403
S'NN'
p404
S'B-NP'
p405
g5
tp406
a(S'OUTCOME'
p407
S'OUTCOME'
p408
S'NN'
p409
S'I-NP'
p410
g5
tp411
a(S'MEASURE'
p412
S'MEASURE'
p413
S'NN'
p414
S'I-NP'
p415
g5
tp416
a(g189
g189
g189
g5
g5
tp417
a(g262
g262
S'NN'
p418
S'B-NP'
p419
g5
tp420
a(g197
g197
g197
g5
g5
tp421
a(S'Fertilization'
p422
S'Fertilization'
p423
S'NN'
p424
S'B-NP'
p425
g5
tp426
a(S'and'
p427
S'and'
p428
S'CC'
p429
S'I-NP'
p430
g5
tp431
a(S'pregnancy'
p432
S'pregnancy'
p433
S'NN'
p434
S'I-NP'
p435
g5
tp436
a(S'rates'
p437
S'rate'
p438
S'NNS'
p439
S'I-NP'
p440
g5
tp441
a(g98
g98
g98
g5
g5
tp442
a(S'RESULT'
p443
S'RESULT'
p444
S'NN'
p445
S'B-NP'
p446
g5
tp447
a(g189
g189
g189
g5
g5
tp448
a(g262
g262
S'NN'
p449
S'B-NP'
p450
g5
tp451
a(g197
g197
g197
g5
g5
tp452
a(S'One'
p453
S'One'
p454
S'CD'
p455
S'B-NP'
p456
g5
tp457
a(S'thousand'
p458
S'thousand'
p459
S'CD'
p460
S'I-NP'
p461
g5
tp462
a(S'five'
p463
S'five'
p464
S'CD'
p465
S'I-NP'
p466
g5
tp467
a(S'hundred'
p468
S'hundred'
p469
S'CD'
p470
S'I-NP'
p471
g5
tp472
a(S'eighteen'
p473
S'eighteen'
p474
S'CD'
p475
S'I-NP'
p476
g5
tp477
a(S'oocytes'
p478
S'oocyte'
p479
S'NNS'
p480
S'I-NP'
p481
g5
tp482
a(S'were'
p483
S'be'
p484
S'VBD'
p485
S'B-VP'
p486
g5
tp487
a(S'collected'
p488
S'collect'
p489
S'VBN'
p490
S'I-VP'
p491
g5
tp492
a(S'in'
p493
S'in'
p494
S'IN'
p495
S'B-PP'
p496
g5
tp497
a(S'106'
p498
S'106'
p499
S'CD'
p500
S'B-NP'
p501
g5
tp502
a(S'oocyte'
p503
S'oocyte'
p504
S'NN'
p505
S'I-NP'
p506
g5
tp507
a(S'retrievals'
p508
S'retrieval'
p509
S'NNS'
p510
S'I-NP'
p511
g5
tp512
a(g67
g67
g67
g5
g5
tp513
a(S'849'
p514
S'849'
p515
S'CD'
p516
S'B-NP'
p517
g5
tp518
a(S'oocytes'
p519
S'oocyte'
p520
S'NNS'
p521
S'I-NP'
p522
g5
tp523
a(S'were'
p524
S'be'
p525
S'VBD'
p526
S'B-VP'
p527
g5
tp528
a(S'randomly'
p529
S'randomly'
p530
S'RB'
p531
S'I-VP'
p532
g5
tp533
a(S'allocated'
p534
S'allocate'
p535
S'VBN'
p536
S'I-VP'
p537
g5
tp538
a(S'to'
p539
S'to'
p540
S'TO'
p541
S'B-PP'
p542
g5
tp543
a(S'ICSI'
p544
S'ICSI'
p545
S'NN'
p546
S'B-NP'
p547
S'B-protein'
p548
tp549
a(S','
p550
g550
g550
g5
g5
tp551
a(S'of'
p552
S'of'
p553
S'IN'
p554
S'B-PP'
p555
g5
tp556
a(S'which'
p557
S'which'
p558
S'WDT'
p559
S'B-NP'
p560
g5
tp561
a(S'761'
p562
S'761'
p563
S'CD'
p564
S'B-NP'
p565
g5
tp566
a(S'were'
p567
S'be'
p568
S'VBD'
p569
S'B-VP'
p570
g5
tp571
a(S'microinjected'
p572
S'microinjecte'
p573
S'VBN'
p574
S'I-VP'
p575
g5
tp576
a(g550
g550
g550
g5
g5
tp577
a(S'and'
p578
S'and'
p579
S'CC'
p580
g5
g5
tp581
a(S'669'
p582
S'669'
p583
S'CD'
p584
S'B-NP'
p585
g5
tp586
a(S'oocytes'
p587
S'oocyte'
p588
S'NNS'
p589
S'I-NP'
p590
g5
tp591
a(S'were'
p592
S'be'
p593
S'VBD'
p594
S'B-VP'
p595
g5
tp596
a(S'randomly'
p597
S'randomly'
p598
S'RB'
p599
S'I-VP'
p600
g5
tp601
a(S'assigned'
p602
S'assign'
p603
S'VBN'
p604
S'I-VP'
p605
g5
tp606
a(S'to'
p607
S'to'
p608
S'TO'
p609
S'B-PP'
p610
g5
tp611
a(S'IVF.'
p612
S'IVF.'
p613
S'NNP'
p614
S'B-NP'
p615
g5
tp616
a(S'In'
p617
S'In'
p618
S'IN'
p619
S'B-PP'
p620
g5
tp621
a(S'26'
p622
S'26'
p623
S'CD'
p624
S'B-NP'
p625
g5
tp626
a(S'of'
p627
S'of'
p628
S'IN'
p629
S'B-PP'
p630
g5
tp631
a(S'the'
p632
S'the'
p633
S'DT'
p634
S'B-NP'
p635
g5
tp636
a(S'106'
p637
S'106'
p638
S'CD'
p639
S'I-NP'
p640
g5
tp641
a(S'patients'
p642
S'patient'
p643
S'NNS'
p644
S'I-NP'
p645
g5
tp646
a(g550
g550
g550
g5
g5
tp647
a(S'there'
p648
S'there'
p649
S'EX'
p650
S'B-NP'
p651
g5
tp652
a(S'was'
p653
S'be'
p654
S'VBD'
p655
S'B-VP'
p656
g5
tp657
a(S'fertilization'
p658
S'fertilization'
p659
S'NN'
p660
S'B-NP'
p661
g5
tp662
a(S'only'
p663
S'only'
p664
S'RB'
p665
S'B-ADVP'
p666
g5
tp667
a(S'after'
p668
S'after'
p669
S'IN'
p670
S'B-PP'
p671
g5
tp672
a(S'ICSI'
p673
S'ICSI'
p674
S'NN'
p675
S'B-NP'
p676
S'B-protein'
p677
tp678
a(S'and'
p679
S'and'
p680
S'CC'
p681
S'B-PP'
p682
g5
tp683
a(S'not'
p684
S'not'
p685
S'RB'
p686
S'B-PP'
p687
g5
tp688
a(S'after'
p689
S'after'
p690
S'IN'
p691
S'I-PP'
p692
g5
tp693
a(S'IVF'
p694
S'IVF'
p695
S'NN'
p696
S'B-NP'
p697
S'B-protein'
p698
tp699
a(g189
g189
g189
g5
g5
tp700
a(S'IVF-'
p701
S'IVF-'
p702
S'NN'
p703
S'B-NP'
p704
S'B-protein'
p705
tp706
a(S'group'
p707
S'group'
p708
S'NN'
p709
S'I-NP'
p710
S'I-protein'
p711
tp712
a(g197
g197
g197
g5
g5
tp713
a(g98
g98
g98
g5
g5
tp714
a(S'The'
p715
S'The'
p716
S'DT'
p717
S'B-NP'
p718
g5
tp719
a(S'fertilization'
p720
S'fertilization'
p721
S'NN'
p722
S'I-NP'
p723
g5
tp724
a(S'rate'
p725
S'rate'
p726
S'NN'
p727
S'I-NP'
p728
g5
tp729
a(S'was'
p730
S'be'
p731
S'VBD'
p732
S'B-VP'
p733
g5
tp734
a(S'51'
p735
S'51'
p736
S'CD'
p737
S'B-NP'
p738
g5
tp739
a(S'%'
p740
g740
S'NN'
p741
S'I-NP'
p742
g5
tp743
a(g189
g189
g189
g5
g5
tp744
a(S'92/182'
p745
S'92/182'
p746
S'CD'
p747
S'B-NP'
p748
g5
tp749
a(S'oocytes'
p750
S'oocyte'
p751
S'NNS'
p752
S'I-NP'
p753
g5
tp754
a(g197
g197
g197
g5
g5
tp755
a(g98
g98
g98
g5
g5
tp756
a(S'In'
p757
S'In'
p758
S'IN'
p759
S'B-PP'
p760
g5
tp761
a(S'78'
p762
S'78'
p763
S'CD'
p764
S'B-NP'
p765
g5
tp766
a(S'patients'
p767
S'patient'
p768
S'NNS'
p769
S'I-NP'
p770
g5
tp771
a(g550
g550
g550
g5
g5
tp772
a(S'there'
p773
S'there'
p774
S'EX'
p775
S'B-NP'
p776
g5
tp777
a(S'was'
p778
S'be'
p779
S'VBD'
p780
S'B-VP'
p781
g5
tp782
a(S'fertilization'
p783
S'fertilization'
p784
S'NN'
p785
S'B-NP'
p786
g5
tp787
a(S'after'
p788
S'after'
p789
S'IN'
p790
S'B-SBAR'
p791
g5
tp792
a(S'both'
p793
S'both'
p794
S'CC'
p795
g5
g5
tp796
a(S'IVF'
p797
S'IVF'
p798
S'NN'
p799
S'B-NP'
p800
S'B-protein'
p801
tp802
a(S'and'
p803
S'and'
p804
S'CC'
p805
g5
g5
tp806
a(S'ICSI'
p807
S'ICSI'
p808
S'NN'
p809
S'B-NP'
p810
g5
tp811
a(g189
g189
g189
g5
g5
tp812
a(S'IVF+'
p813
S'IVF+'
p814
S'JJ'
p815
S'B-NP'
p816
g5
tp817
a(S'group'
p818
S'group'
p819
S'NN'
p820
S'I-NP'
p821
g5
tp822
a(g197
g197
g197
g5
g5
tp823
a(S';'
p824
g824
g67
g5
g5
tp825
a(S'the'
p826
S'the'
p827
S'DT'
p828
S'B-NP'
p829
g5
tp830
a(S'fertilization'
p831
S'fertilization'
p832
S'NN'
p833
S'I-NP'
p834
g5
tp835
a(S'rate'
p836
S'rate'
p837
S'NN'
p838
S'I-NP'
p839
g5
tp840
a(S'was'
p841
S'be'
p842
S'VBD'
p843
S'B-VP'
p844
g5
tp845
a(S'51'
p846
S'51'
p847
S'CD'
p848
S'B-NP'
p849
g5
tp850
a(g740
g740
S'NN'
p851
S'I-NP'
p852
g5
tp853
a(S'for'
p854
S'for'
p855
S'IN'
p856
S'B-PP'
p857
g5
tp858
a(S'both'
p859
S'both'
p860
S'CC'
p861
g5
g5
tp862
a(S'the'
p863
S'the'
p864
S'DT'
p865
S'B-NP'
p866
g5
tp867
a(S'IVF-'
p868
S'IVF-'
p869
S'NN'
p870
S'I-NP'
p871
g5
tp872
a(S'and'
p873
S'and'
p874
S'CC'
p875
g5
g5
tp876
a(S'ICSI-treated'
p877
S'ICSI-treated'
p878
S'JJ'
p879
S'B-NP'
p880
S'B-cell_type'
p881
tp882
a(S'oocytes'
p883
S'oocyte'
p884
S'NNS'
p885
S'I-NP'
p886
S'I-cell_type'
p887
tp888
a(g189
g189
g189
g5
g5
tp889
a(S'271/528'
p890
S'271/528'
p891
S'CD'
p892
S'B-NP'
p893
g5
tp894
a(S'oocytes'
p895
S'oocyte'
p896
S'NNS'
p897
S'I-NP'
p898
g5
tp899
a(S'and'
p900
S'and'
p901
S'CC'
p902
g5
g5
tp903
a(S'334/658'
p904
S'334/658'
p905
S'CD'
p906
S'B-NP'
p907
g5
tp908
a(S'oocytes'
p909
S'oocyte'
p910
S'NNS'
p911
S'I-NP'
p912
g5
tp913
a(g550
g550
g550
g5
g5
tp914
a(S'respectively'
p915
S'respectively'
p916
S'RB'
p917
S'B-ADVP'
p918
g5
tp919
a(g197
g197
g197
g5
g5
tp920
a(g98
g98
g98
g5
g5
tp921
a(S'In'
p922
S'In'
p923
S'IN'
p924
S'B-PP'
p925
g5
tp926
a(S'2'
p927
g927
S'CD'
p928
S'B-NP'
p929
g5
tp930
a(S'patients'
p931
S'patient'
p932
S'NNS'
p933
S'I-NP'
p934
g5
tp935
a(g550
g550
g550
g5
g5
tp936
a(S'there'
p937
S'there'
p938
S'EX'
p939
S'B-NP'
p940
g5
tp941
a(S'was'
p942
S'be'
p943
S'VBD'
p944
S'B-VP'
p945
g5
tp946
a(S'no'
p947
S'no'
p948
S'DT'
p949
S'B-NP'
p950
g5
tp951
a(S'fertilization'
p952
S'fertilization'
p953
S'NN'
p954
S'I-NP'
p955
g5
tp956
a(S'after'
p957
S'after'
p958
S'IN'
p959
S'B-PP'
p960
g5
tp961
a(S'either'
p962
S'either'
p963
S'CC'
p964
g5
g5
tp965
a(S'IVF'
p966
S'IVF'
p967
S'NN'
p968
S'B-NP'
p969
S'B-protein'
p970
tp971
a(g189
g189
g189
g5
g5
tp972
a(S'0/6'
p973
S'0/6'
p974
S'CD'
p975
S'B-NP'
p976
g5
tp977
a(S'oocytes'
p978
S'oocyte'
p979
S'NNS'
p980
S'I-NP'
p981
g5
tp982
a(g197
g197
g197
g5
g5
tp983
a(S'or'
p984
S'or'
p985
S'CC'
p986
g5
g5
tp987
a(S'ICSI'
p988
S'ICSI'
p989
S'NN'
p990
S'B-NP'
p991
g5
tp992
a(g189
g189
g189
g5
g5
tp993
a(S'0/9'
p994
S'0/9'
p995
S'CD'
p996
S'B-NP'
p997
g5
tp998
a(S'oocytes'
p999
S'oocyte'
p1000
S'NNS'
p1001
S'I-NP'
p1002
g5
tp1003
a(g197
g197
g197
g5
g5
tp1004
a(g98
g98
g98
g5
g5
tp1005
a(S'Patients'
p1006
S'Patient'
p1007
S'NNS'
p1008
S'B-NP'
p1009
g5
tp1010
a(S'of'
p1011
S'of'
p1012
S'IN'
p1013
S'B-PP'
p1014
g5
tp1015
a(S'the'
p1016
S'the'
p1017
S'DT'
p1018
S'B-NP'
p1019
g5
tp1020
a(S'IVF+'
p1021
S'IVF+'
p1022
S'JJ'
p1023
S'I-NP'
p1024
S'B-protein'
p1025
tp1026
a(S'group'
p1027
S'group'
p1028
S'NN'
p1029
S'I-NP'
p1030
S'I-protein'
p1031
tp1032
a(S'had'
p1033
S'have'
p1034
S'VBD'
p1035
S'B-VP'
p1036
g5
tp1037
a(g69
g69
S'DT'
p1038
S'B-NP'
p1039
g5
tp1040
a(S'higher'
p1041
S'high'
p1042
S'JJR'
p1043
S'I-NP'
p1044
g5
tp1045
a(S'total'
p1046
S'total'
p1047
S'JJ'
p1048
S'I-NP'
p1049
g5
tp1050
a(S'motile'
p1051
S'motile'
p1052
S'NN'
p1053
S'I-NP'
p1054
g5
tp1055
a(S'sperm'
p1056
S'sperm'
p1057
S'NN'
p1058
S'I-NP'
p1059
g5
tp1060
a(S'count'
p1061
S'count'
p1062
S'NN'
p1063
S'I-NP'
p1064
g5
tp1065
a(S'after'
p1066
S'after'
p1067
S'IN'
p1068
S'B-PP'
p1069
g5
tp1070
a(S'preparation'
p1071
S'preparation'
p1072
S'NN'
p1073
S'B-NP'
p1074
g5
tp1075
a(S'than'
p1076
S'than'
p1077
S'IN'
p1078
S'B-SBAR'
p1079
g5
tp1080
a(S'did'
p1081
S'do'
p1082
S'VBD'
p1083
g5
g5
tp1084
a(S'those'
p1085
S'those'
p1086
S'DT'
p1087
S'B-NP'
p1088
g5
tp1089
a(S'of'
p1090
S'of'
p1091
S'IN'
p1092
S'B-PP'
p1093
g5
tp1094
a(S'the'
p1095
S'the'
p1096
S'DT'
p1097
S'B-NP'
p1098
g5
tp1099
a(S'IVF-'
p1100
S'IVF-'
p1101
S'NN'
p1102
S'I-NP'
p1103
g5
tp1104
a(S'group.'
p1105
S'group.'
p1106
S'NN'
p1107
S'I-NP'
p1108
g5
tp1109
a(S'More'
p1110
S'More'
p1111
S'JJR'
p1112
S'B-NP'
p1113
g5
tp1114
a(S'high-quality'
p1115
S'high-quality'
p1116
S'JJ'
p1117
S'I-NP'
p1118
g5
tp1119
a(S'embryos'
p1120
S'embryo'
p1121
S'NNS'
p1122
S'I-NP'
p1123
g5
tp1124
a(S'were'
p1125
S'be'
p1126
S'VBD'
p1127
S'B-VP'
p1128
g5
tp1129
a(S'obtained'
p1130
S'obtain'
p1131
S'VBN'
p1132
S'I-VP'
p1133
g5
tp1134
a(S'after'
p1135
S'after'
p1136
S'IN'
p1137
S'B-PP'
p1138
g5
tp1139
a(S'ICSI'
p1140
S'ICSI'
p1141
S'NN'
p1142
S'B-NP'
p1143
S'B-protein'
p1144
tp1145
a(S'in'
p1146
S'in'
p1147
S'IN'
p1148
S'B-PP'
p1149
g5
tp1150
a(S'patients'
p1151
S'patient'
p1152
S'NNS'
p1153
S'B-NP'
p1154
g5
tp1155
a(S'of'
p1156
S'of'
p1157
S'IN'
p1158
S'B-PP'
p1159
g5
tp1160
a(S'the'
p1161
S'the'
p1162
S'DT'
p1163
S'B-NP'
p1164
g5
tp1165
a(S'IVF+'
p1166
S'IVF+'
p1167
S'JJ'
p1168
S'I-NP'
p1169
g5
tp1170
a(S'group.'
p1171
S'group.'
p1172
S'NN'
p1173
S'I-NP'
p1174
g5
tp1175
a(S'In'
p1176
S'In'
p1177
S'IN'
p1178
S'B-PP'
p1179
g5
tp1180
a(S'101'
p1181
S'101'
p1182
S'CD'
p1183
S'B-NP'
p1184
g5
tp1185
a(S'patients'
p1186
S'patient'
p1187
S'NNS'
p1188
S'I-NP'
p1189
g5
tp1190
a(g550
g550
g550
g5
g5
tp1191
a(S'embryo'
p1192
S'embryo'
p1193
S'NN'
p1194
S'B-NP'
p1195
g5
tp1196
a(S'transfer'
p1197
S'transfer'
p1198
S'NN'
p1199
S'I-NP'
p1200
g5
tp1201
a(S'was'
p1202
S'be'
p1203
S'VBD'
p1204
S'B-VP'
p1205
g5
tp1206
a(S'performed'
p1207
S'perform'
p1208
S'VBN'
p1209
S'I-VP'
p1210
g5
tp1211
a(g67
g67
g67
g5
g5
tp1212
a(S'26'
p1213
S'26'
p1214
S'CD'
p1215
S'B-NP'
p1216
g5
tp1217
a(S'in'
p1218
S'in'
p1219
S'IN'
p1220
S'B-PP'
p1221
g5
tp1222
a(S'the'
p1223
S'the'
p1224
S'DT'
p1225
S'B-NP'
p1226
g5
tp1227
a(S'IVF-'
p1228
S'IVF-'
p1229
S'NN'
p1230
S'I-NP'
p1231
g5
tp1232
a(S'group'
p1233
S'group'
p1234
S'NN'
p1235
S'I-NP'
p1236
g5
tp1237
a(S'and'
p1238
S'and'
p1239
S'CC'
p1240
g5
g5
tp1241
a(S'75'
p1242
S'75'
p1243
S'CD'
p1244
S'B-NP'
p1245
g5
tp1246
a(S'in'
p1247
S'in'
p1248
S'IN'
p1249
S'B-PP'
p1250
g5
tp1251
a(S'the'
p1252
S'the'
p1253
S'DT'
p1254
S'B-NP'
p1255
g5
tp1256
a(S'IVF+'
p1257
S'IVF+'
p1258
S'JJ'
p1259
S'I-NP'
p1260
g5
tp1261
a(S'group.'
p1262
S'group.'
p1263
S'NN'
p1264
S'I-NP'
p1265
g5
tp1266
a(S'No'
p1267
S'No'
p1268
S'DT'
p1269
S'B-NP'
p1270
g5
tp1271
a(S'significant'
p1272
S'significant'
p1273
S'JJ'
p1274
S'I-NP'
p1275
g5
tp1276
a(S'differences'
p1277
S'difference'
p1278
S'NNS'
p1279
S'I-NP'
p1280
g5
tp1281
a(S'were'
p1282
S'be'
p1283
S'VBD'
p1284
S'B-VP'
p1285
g5
tp1286
a(S'found'
p1287
S'find'
p1288
S'VBN'
p1289
S'I-VP'
p1290
g5
tp1291
a(S'with'
p1292
S'with'
p1293
S'IN'
p1294
S'B-PP'
p1295
g5
tp1296
a(S'regard'
p1297
S'regard'
p1298
S'NN'
p1299
S'B-NP'
p1300
g5
tp1301
a(S'to'
p1302
S'to'
p1303
S'TO'
p1304
S'B-PP'
p1305
g5
tp1306
a(S'pregnancy'
p1307
S'pregnancy'
p1308
S'NN'
p1309
S'B-NP'
p1310
g5
tp1311
a(S'rates'
p1312
S'rate'
p1313
S'NNS'
p1314
S'I-NP'
p1315
g5
tp1316
a(S'between'
p1317
S'between'
p1318
S'IN'
p1319
S'B-PP'
p1320
g5
tp1321
a(S'those'
p1322
S'those'
p1323
S'DT'
p1324
S'B-NP'
p1325
g5
tp1326
a(S'two'
p1327
S'two'
p1328
S'CD'
p1329
S'I-NP'
p1330
g5
tp1331
a(S'groups'
p1332
S'group'
p1333
S'NNS'
p1334
S'I-NP'
p1335
g5
tp1336
a(g67
g67
g67
g5
g5
tp1337
a(S'pregnancy'
p1338
S'pregnancy'
p1339
S'NN'
p1340
S'B-NP'
p1341
g5
tp1342
a(S'rates'
p1343
S'rate'
p1344
S'NNS'
p1345
S'I-NP'
p1346
g5
tp1347
a(S'were'
p1348
S'be'
p1349
S'VBD'
p1350
S'B-VP'
p1351
g5
tp1352
a(S'54'
p1353
S'54'
p1354
S'CD'
p1355
S'B-NP'
p1356
g5
tp1357
a(g740
g740
S'NN'
p1358
S'I-NP'
p1359
g5
tp1360
a(S'in'
p1361
S'in'
p1362
S'IN'
p1363
S'B-PP'
p1364
g5
tp1365
a(S'the'
p1366
S'the'
p1367
S'DT'
p1368
S'B-NP'
p1369
g5
tp1370
a(S'IVF-'
p1371
S'IVF-'
p1372
S'NN'
p1373
S'I-NP'
p1374
g5
tp1375
a(S'group'
p1376
S'group'
p1377
S'NN'
p1378
S'I-NP'
p1379
g5
tp1380
a(S'and'
p1381
S'and'
p1382
S'CC'
p1383
g5
g5
tp1384
a(S'48'
p1385
S'48'
p1386
S'CD'
p1387
S'B-NP'
p1388
g5
tp1389
a(g740
g740
S'NN'
p1390
S'I-NP'
p1391
g5
tp1392
a(S'in'
p1393
S'in'
p1394
S'IN'
p1395
S'B-PP'
p1396
g5
tp1397
a(S'the'
p1398
S'the'
p1399
S'DT'
p1400
S'B-NP'
p1401
g5
tp1402
a(S'IVF+'
p1403
S'IVF+'
p1404
S'JJ'
p1405
S'I-NP'
p1406
g5
tp1407
a(S'group'
p1408
S'group'
p1409
S'NN'
p1410
S'I-NP'
p1411
g5
tp1412
a(g98
g98
g98
g5
g5
tp1413
a(S'CONCLUSION'
p1414
S'CONCLUSION'
p1415
S'NN'
p1416
S'B-NP'
p1417
g5
tp1418
a(g189
g189
g189
g5
g5
tp1419
a(g262
g262
S'NN'
p1420
S'B-NP'
p1421
g5
tp1422
a(g197
g197
g197
g5
g5
tp1423
a(S'Performing'
p1424
S'Perform'
p1425
S'VBG'
p1426
S'B-VP'
p1427
g5
tp1428
a(S'ICSI'
p1429
S'ICSI'
p1430
S'NN'
p1431
S'B-NP'
p1432
S'B-protein'
p1433
tp1434
a(S'on'
p1435
S'on'
p1436
S'IN'
p1437
S'B-PP'
p1438
g5
tp1439
a(S'at'
p1440
S'at'
p1441
S'IN'
p1442
S'B-ADVP'
p1443
g5
tp1444
a(S'least'
p1445
S'least'
p1446
S'JJS'
p1447
S'I-ADVP'
p1448
g5
tp1449
a(S'some'
p1450
S'some'
p1451
S'DT'
p1452
S'B-NP'
p1453
g5
tp1454
a(S'of'
p1455
S'of'
p1456
S'IN'
p1457
S'B-PP'
p1458
g5
tp1459
a(S'the'
p1460
S'the'
p1461
S'DT'
p1462
S'B-NP'
p1463
g5
tp1464
a(S'oocytes'
p1465
S'oocyte'
p1466
S'NNS'
p1467
S'I-NP'
p1468
g5
tp1469
a(S'will'
p1470
S'will'
p1471
S'MD'
p1472
S'B-VP'
p1473
g5
tp1474
a(S'avoid'
p1475
S'avoid'
p1476
S'VB'
p1477
S'I-VP'
p1478
g5
tp1479
a(S'unnecessary'
p1480
S'unnecessary'
p1481
S'JJ'
p1482
S'B-NP'
p1483
g5
tp1484
a(S'fertilization'
p1485
S'fertilization'
p1486
S'NN'
p1487
S'I-NP'
p1488
g5
tp1489
a(S'failure'
p1490
S'failure'
p1491
S'NN'
p1492
S'I-NP'
p1493
g5
tp1494
a(S'in'
p1495
S'in'
p1496
S'IN'
p1497
S'B-PP'
p1498
g5
tp1499
a(S'patients'
p1500
S'patient'
p1501
S'NNS'
p1502
S'B-NP'
p1503
g5
tp1504
a(S'with'
p1505
S'with'
p1506
S'IN'
p1507
S'B-PP'
p1508
g5
tp1509
a(S'borderline'
p1510
S'borderline'
p1511
S'JJ'
p1512
S'B-NP'
p1513
g5
tp1514
a(S'semen'
p1515
S'seman'
p1516
S'NNS'
p1517
S'I-NP'
p1518
g5
tp1519
a(g67
g67
g67
g5
g5
tp1520
a(S'in'
p1521
S'in'
p1522
S'IN'
p1523
S'B-PP'
p1524
g5
tp1525
a(S'this'
p1526
S'this'
p1527
S'DT'
p1528
S'B-NP'
p1529
g5
tp1530
a(S'study'
p1531
S'study'
p1532
S'NN'
p1533
S'I-NP'
p1534
g5
tp1535
a(g550
g550
g550
g5
g5
tp1536
a(S'26'
p1537
S'26'
p1538
S'CD'
p1539
S'B-NP'
p1540
g5
tp1541
a(S'of'
p1542
S'of'
p1543
S'IN'
p1544
S'B-PP'
p1545
g5
tp1546
a(S'104'
p1547
S'104'
p1548
S'CD'
p1549
S'B-NP'
p1550
g5
tp1551
a(S'cycles'
p1552
S'cycle'
p1553
S'NNS'
p1554
S'I-NP'
p1555
g5
tp1556
a(g189
g189
g189
g5
g5
tp1557
a(S'25'
p1558
S'25'
p1559
S'CD'
p1560
S'B-NP'
p1561
g5
tp1562
a(g740
g740
S'NN'
p1563
S'I-NP'
p1564
g5
tp1565
a(g197
g197
g197
g5
g5
tp1566
a(S'were'
p1567
S'be'
p1568
S'VBD'
p1569
S'B-VP'
p1570
g5
tp1571
a(S'rescued'
p1572
S'rescue'
p1573
S'VBN'
p1574
S'I-VP'
p1575
g5
tp1576
a(S'by'
p1577
S'by'
p1578
S'IN'
p1579
S'B-PP'
p1580
g5
tp1581
a(S'ICSI'
p1582
S'ICSI'
p1583
S'NN'
p1584
S'B-NP'
p1585
S'B-protein'
p1586
tp1587
a(g98
g98
g98
g5
g5
tp1588
a.