(lp0
(S'Clinical'
p1
S'Clinical'
p2
S'JJ'
p3
S'B-NP'
p4
S'O'
p5
tp6
a(S'evaluation'
p7
S'evaluation'
p8
S'NN'
p9
S'I-NP'
p10
g5
tp11
a(S'of'
p12
S'of'
p13
S'IN'
p14
S'B-PP'
p15
g5
tp16
a(S'two'
p17
S'two'
p18
S'CD'
p19
S'B-NP'
p20
g5
tp21
a(S'adhesive'
p22
S'adhesive'
p23
S'JJ'
p24
S'I-NP'
p25
g5
tp26
a(S'composite'
p27
S'composite'
p28
S'JJ'
p29
S'I-NP'
p30
g5
tp31
a(S'cements'
p32
S'cement'
p33
S'NNS'
p34
S'I-NP'
p35
g5
tp36
a(S'for'
p37
S'for'
p38
S'IN'
p39
S'B-PP'
p40
g5
tp41
a(S'the'
p42
S'the'
p43
S'DT'
p44
S'B-NP'
p45
g5
tp46
a(S'suppression'
p47
S'suppression'
p48
S'NN'
p49
S'I-NP'
p50
g5
tp51
a(S'of'
p52
S'of'
p53
S'IN'
p54
S'B-PP'
p55
g5
tp56
a(S'dentinal'
p57
S'dentinal'
p58
S'JJ'
p59
S'B-NP'
p60
g5
tp61
a(S'cold'
p62
S'cold'
p63
S'JJ'
p64
S'I-NP'
p65
g5
tp66
a(S'sensitivity'
p67
S'sensitivity'
p68
S'NN'
p69
S'I-NP'
p70
g5
tp71
a(S'.'
p72
g72
g72
g5
g5
tp73
a(S'STATEMENT'
p74
S'STATEMENT'
p75
S'NN'
p76
S'B-NP'
p77
g5
tp78
a(S'OF'
p79
S'OF'
p80
S'IN'
p81
S'B-PP'
p82
g5
tp83
a(S'PROBLEMS'
p84
S'PROBLEMS'
p85
S'NN'
p86
S'B-NP'
p87
g5
tp88
a(S'Postoperative'
p89
S'Postoperative'
p90
S'JJ'
p91
S'I-NP'
p92
g5
tp93
a(S'cold'
p94
S'cold'
p95
S'JJ'
p96
S'I-NP'
p97
g5
tp98
a(S'sensitivity'
p99
S'sensitivity'
p100
S'NN'
p101
S'I-NP'
p102
g5
tp103
a(S'after'
p104
S'after'
p105
S'IN'
p106
S'B-PP'
p107
g5
tp108
a(S'the'
p109
S'the'
p110
S'DT'
p111
S'B-NP'
p112
g5
tp113
a(S'cementation'
p114
S'cementation'
p115
S'NN'
p116
S'I-NP'
p117
g5
tp118
a(S'of'
p119
S'of'
p120
S'IN'
p121
S'B-PP'
p122
g5
tp123
a(S'indirect'
p124
S'indirect'
p125
S'JJ'
p126
S'B-NP'
p127
g5
tp128
a(S'restorations'
p129
S'restoration'
p130
S'NNS'
p131
S'I-NP'
p132
g5
tp133
a(S'with'
p134
S'with'
p135
S'IN'
p136
S'B-PP'
p137
g5
tp138
a(S'composite'
p139
S'composite'
p140
S'JJ'
p141
S'B-NP'
p142
g5
tp143
a(S'cements'
p144
S'cement'
p145
S'NNS'
p146
S'I-NP'
p147
g5
tp148
a(S'has'
p149
S'have'
p150
S'VBZ'
p151
S'B-VP'
p152
g5
tp153
a(S'been'
p154
S'be'
p155
S'VBN'
p156
S'I-VP'
p157
g5
tp158
a(S'reported'
p159
S'report'
p160
S'VBN'
p161
S'I-VP'
p162
g5
tp163
a(S'frequently'
p164
S'frequently'
p165
S'RB'
p166
S'B-VP'
p167
g5
tp168
a(S'but'
p169
S'but'
p170
S'CC'
p171
S'I-VP'
p172
g5
tp173
a(S'not'
p174
S'not'
p175
S'RB'
p176
S'I-VP'
p177
g5
tp178
a(S'scientifically'
p179
S'scientifically'
p180
S'RB'
p181
S'I-VP'
p182
g5
tp183
a(S'documented'
p184
S'document'
p185
S'VBN'
p186
S'I-VP'
p187
g5
tp188
a(g72
g72
g72
g5
g5
tp189
a(S'PURPOSE'
p190
S'PURPOSE'
p191
S'NN'
p192
S'B-NP'
p193
g5
tp194
a(S'This'
p195
S'This'
p196
S'DT'
p197
S'B-NP'
p198
g5
tp199
a(S'controlled'
p200
S'controlled'
p201
S'JJ'
p202
S'I-NP'
p203
g5
tp204
a(S'clinical'
p205
S'clinical'
p206
S'JJ'
p207
S'I-NP'
p208
g5
tp209
a(S'study'
p210
S'study'
p211
S'NN'
p212
S'I-NP'
p213
g5
tp214
a(S'was'
p215
S'be'
p216
S'VBD'
p217
S'B-VP'
p218
g5
tp219
a(S'designed'
p220
S'design'
p221
S'VBN'
p222
S'I-VP'
p223
g5
tp224
a(S'to'
p225
S'to'
p226
S'TO'
p227
S'B-VP'
p228
g5
tp229
a(S'simulate'
p230
S'simulate'
p231
S'VB'
p232
S'I-VP'
p233
g5
tp234
a(S'the'
p235
S'the'
p236
S'DT'
p237
S'B-NP'
p238
g5
tp239
a(S'dentin/composite'
p240
S'dentin/composite'
p241
S'JJ'
p242
S'I-NP'
p243
g5
tp244
a(S'cement'
p245
S'cement'
p246
S'NN'
p247
S'I-NP'
p248
g5
tp249
a(S'interface'
p250
S'interface'
p251
S'NN'
p252
S'I-NP'
p253
g5
tp254
a(S'immediately'
p255
S'immediately'
p256
S'RB'
p257
S'B-ADVP'
p258
g5
tp259
a(S'after'
p260
S'after'
p261
S'IN'
p262
S'B-PP'
p263
g5
tp264
a(S'cementation'
p265
S'cementation'
p266
S'NN'
p267
S'B-NP'
p268
g5
tp269
a(S'of'
p270
S'of'
p271
S'IN'
p272
S'B-PP'
p273
g5
tp274
a(S'a'
p275
g275
S'DT'
p276
S'B-NP'
p277
g5
tp278
a(S'cast'
p279
S'cast'
p280
S'NN'
p281
S'I-NP'
p282
g5
tp283
a(S'restoration.'
p284
S'restoration.'
p285
S'NN'
p286
S'I-NP'
p287
g5
tp288
a(S'The'
p289
S'The'
p290
S'DT'
p291
S'B-NP'
p292
g5
tp293
a(S'desensitizing'
p294
S'desensitize'
p295
S'VBG'
p296
S'I-NP'
p297
g5
tp298
a(S'capabilities'
p299
S'capability'
p300
S'NNS'
p301
S'I-NP'
p302
g5
tp303
a(S'of'
p304
S'of'
p305
S'IN'
p306
S'B-PP'
p307
g5
tp308
a(g275
g275
S'DT'
p309
S'B-NP'
p310
g5
tp311
a(S'composite'
p312
S'composite'
p313
S'JJ'
p314
S'I-NP'
p315
g5
tp316
a(S'cement'
p317
S'cement'
p318
S'NN'
p319
S'I-NP'
p320
g5
tp321
a(S'that'
p322
S'that'
p323
S'WDT'
p324
S'B-NP'
p325
g5
tp326
a(S'contains'
p327
S'contain'
p328
S'VBZ'
p329
S'B-VP'
p330
g5
tp331
a(g275
g275
S'DT'
p332
S'B-NP'
p333
g5
tp334
a(S'self-etching'
p335
S'self-etching'
p336
S'JJ'
p337
S'I-NP'
p338
g5
tp339
a(S','
p340
g340
g340
S'I-NP'
p341
g5
tp342
a(S'dual-polymerizing'
p343
S'dual-polymerizing'
p344
S'JJ'
p345
S'I-NP'
p346
g5
tp347
a(S'resin'
p348
S'resin'
p349
S'NN'
p350
S'I-NP'
p351
g5
tp352
a(S'adhesive'
p353
S'adhesive'
p354
S'JJ'
p355
S'I-NP'
p356
g5
tp357
a(S'system'
p358
S'system'
p359
S'NN'
p360
S'I-NP'
p361
g5
tp362
a(S'were'
p363
S'be'
p364
S'VBD'
p365
S'B-VP'
p366
g5
tp367
a(S'compared'
p368
S'compare'
p369
S'VBN'
p370
S'I-VP'
p371
g5
tp372
a(S'with'
p373
S'with'
p374
S'IN'
p375
S'B-PP'
p376
g5
tp377
a(S'those'
p378
S'those'
p379
S'DT'
p380
S'B-NP'
p381
g5
tp382
a(S'of'
p383
S'of'
p384
S'IN'
p385
S'B-PP'
p386
g5
tp387
a(g275
g275
S'DT'
p388
S'B-NP'
p389
g5
tp390
a(S'composite'
p391
S'composite'
p392
S'JJ'
p393
S'I-NP'
p394
g5
tp395
a(S'cement'
p396
S'cement'
p397
S'NN'
p398
S'I-NP'
p399
g5
tp400
a(S'that'
p401
S'that'
p402
S'WDT'
p403
S'B-NP'
p404
g5
tp405
a(S'use'
p406
S'use'
p407
S'VBP'
p408
S'B-VP'
p409
g5
tp410
a(S'phosphoric'
p411
S'phosphoric'
p412
S'JJ'
p413
S'B-NP'
p414
g5
tp415
a(S'acid'
p416
S'acid'
p417
S'NN'
p418
S'I-NP'
p419
g5
tp420
a(S'etching'
p421
S'etch'
p422
S'VBG'
p423
S'B-VP'
p424
g5
tp425
a(S'followed'
p426
S'follow'
p427
S'VBN'
p428
S'I-VP'
p429
g5
tp430
a(S'by'
p431
S'by'
p432
S'IN'
p433
S'B-PP'
p434
g5
tp435
a(g275
g275
S'DT'
p436
S'B-NP'
p437
g5
tp438
a(S'single-bottle'
p439
S'single-bottle'
p440
S'JJ'
p441
S'I-NP'
p442
g5
tp443
a(g340
g340
g340
S'I-NP'
p444
g5
tp445
a(S'light-activated'
p446
S'light-activated'
p447
S'JJ'
p448
S'I-NP'
p449
g5
tp450
a(S'primer/resin-based'
p451
S'primer/resin-based'
p452
S'JJ'
p453
S'I-NP'
p454
g5
tp455
a(S'adhesive'
p456
S'adhesive'
p457
S'NN'
p458
S'I-NP'
p459
g5
tp460
a(g72
g72
g72
g5
g5
tp461
a(S'MATERIAL'
p462
S'MATERIAL'
p463
S'NN'
p464
S'B-NP'
p465
g5
tp466
a(S'AND'
p467
S'AND'
p468
S'CC'
p469
S'I-NP'
p470
g5
tp471
a(S'METHODS'
p472
S'METHODS'
p473
S'NNS'
p474
S'I-NP'
p475
g5
tp476
a(S'The'
p477
S'The'
p478
S'DT'
p479
S'B-NP'
p480
g5
tp481
a(S'hypersensitive'
p482
S'hypersensitive'
p483
S'JJ'
p484
S'I-NP'
p485
g5
tp486
a(S'root'
p487
S'root'
p488
S'NN'
p489
S'I-NP'
p490
g5
tp491
a(S'surfaces'
p492
S'surface'
p493
S'NNS'
p494
S'I-NP'
p495
g5
tp496
a(S'of'
p497
S'of'
p498
S'IN'
p499
S'B-PP'
p500
g5
tp501
a(S'selected'
p502
S'select'
p503
S'VBN'
p504
S'B-NP'
p505
g5
tp506
a(S'teeth'
p507
S'tooth'
p508
S'NNS'
p509
S'I-NP'
p510
g5
tp511
a(S'were'
p512
S'be'
p513
S'VBD'
p514
S'B-VP'
p515
g5
tp516
a(S'randomized'
p517
S'randomize'
p518
S'VBN'
p519
S'I-VP'
p520
g5
tp521
a(S'to'
p522
S'to'
p523
S'TO'
p524
S'I-VP'
p525
g5
tp526
a(S'receive'
p527
S'receive'
p528
S'VB'
p529
S'I-VP'
p530
g5
tp531
a(S'1'
p532
g532
S'CD'
p533
S'B-NP'
p534
g5
tp535
a(S'of'
p536
S'of'
p537
S'IN'
p538
S'B-PP'
p539
g5
tp540
a(S'3'
p541
g541
S'CD'
p542
S'B-NP'
p543
g5
tp544
a(S'treatments'
p545
S'treatment'
p546
S'NNS'
p547
S'I-NP'
p548
g5
tp549
a(S':'
p550
g550
g550
g5
g5
tp551
a(S'coating'
p552
S'coat'
p553
S'VBG'
p554
S'B-VP'
p555
g5
tp556
a(S'with'
p557
S'with'
p558
S'IN'
p559
S'B-PP'
p560
g5
tp561
a(g275
g275
S'DT'
p562
S'B-NP'
p563
g5
tp564
a(S'self-etching'
p565
S'self-etching'
p566
S'JJ'
p567
S'I-NP'
p568
g5
tp569
a(S'adhesive'
p570
S'adhesive'
p571
S'JJ'
p572
S'I-NP'
p573
g5
tp574
a(S'('
p575
g575
g575
g5
g5
tp576
a(S'Linkmax'
p577
S'Linkmax'
p578
S'NN'
p579
S'B-NP'
p580
g5
tp581
a(S')'
p582
g582
g582
g5
g5
tp583
a(S'and'
p584
S'and'
p585
S'CC'
p586
g5
g5
tp587
a(S'its'
p588
S'its'
p589
S'PRP$'
p590
S'B-NP'
p591
g5
tp592
a(S'respective'
p593
S'respective'
p594
S'JJ'
p595
S'I-NP'
p596
g5
tp597
a(S'cement'
p598
S'cement'
p599
S'NN'
p600
S'I-NP'
p601
g5
tp602
a(g340
g340
g340
g5
g5
tp603
a(S'coating'
p604
S'coat'
p605
S'VBG'
p606
S'B-VP'
p607
g5
tp608
a(S'with'
p609
S'with'
p610
S'IN'
p611
S'B-PP'
p612
g5
tp613
a(g275
g275
S'DT'
p614
S'B-NP'
p615
g5
tp616
a(S'conventionally'
p617
S'conventionally'
p618
S'RB'
p619
S'I-NP'
p620
g5
tp621
a(S'etched'
p622
S'etch'
p623
S'VBN'
p624
S'I-NP'
p625
g5
tp626
a(S'adhesive'
p627
S'adhesive'
p628
S'JJ'
p629
S'I-NP'
p630
g5
tp631
a(g575
g575
g575
g5
g5
tp632
a(S'RelyX'
p633
S'RelyX'
p634
S'NN'
p635
S'B-NP'
p636
S'B-protein'
p637
tp638
a(S'ARC'
p639
S'ARC'
p640
S'NN'
p641
S'I-NP'
p642
S'I-protein'
p643
tp644
a(g582
g582
g582
g5
g5
tp645
a(S'and'
p646
S'and'
p647
S'CC'
p648
g5
g5
tp649
a(S'its'
p650
S'its'
p651
S'PRP$'
p652
S'B-NP'
p653
g5
tp654
a(S'cement'
p655
S'cement'
p656
S'NN'
p657
S'I-NP'
p658
g5
tp659
a(g340
g340
g340
g5
g5
tp660
a(S'or'
p661
S'or'
p662
S'CC'
p663
g5
g5
tp664
a(S'no'
p665
S'no'
p666
S'DT'
p667
S'B-NP'
p668
g5
tp669
a(S'treatment'
p670
S'treatment'
p671
S'NN'
p672
S'I-NP'
p673
g5
tp674
a(g575
g575
g575
g5
g5
tp675
a(S'negative'
p676
S'negative'
p677
S'JJ'
p678
S'B-NP'
p679
g5
tp680
a(S'control'
p681
S'control'
p682
S'NN'
p683
S'I-NP'
p684
g5
tp685
a(g582
g582
g582
g5
g5
tp686
a(g72
g72
g72
g5
g5
tp687
a(S'The'
p688
S'The'
p689
S'DT'
p690
S'B-NP'
p691
g5
tp692
a(S'sample'
p693
S'sample'
p694
S'NN'
p695
S'I-NP'
p696
g5
tp697
a(S'size'
p698
S'size'
p699
S'NN'
p700
S'I-NP'
p701
g5
tp702
a(S'was'
p703
S'be'
p704
S'VBD'
p705
S'B-VP'
p706
g5
tp707
a(S'22.'
p708
S'22.'
p709
S'CD'
p710
S'B-NP'
p711
g5
tp712
a(S'Dentin'
p713
S'Dentin'
p714
S'NN'
p715
S'I-NP'
p716
g5
tp717
a(S'sensitivity'
p718
S'sensitivity'
p719
S'NN'
p720
S'I-NP'
p721
g5
tp722
a(S'was'
p723
S'be'
p724
S'VBD'
p725
S'B-VP'
p726
g5
tp727
a(S'ascertained'
p728
S'ascertain'
p729
S'VBN'
p730
S'I-VP'
p731
g5
tp732
a(S'with'
p733
S'with'
p734
S'IN'
p735
S'B-PP'
p736
g5
tp737
a(S'an'
p738
S'an'
p739
S'DT'
p740
S'B-NP'
p741
g5
tp742
a(S'accurate'
p743
S'accurate'
p744
S'JJ'
p745
S'I-NP'
p746
g5
tp747
a(S'cold'
p748
S'cold'
p749
S'JJ'
p750
S'I-NP'
p751
g5
tp752
a(S'testing'
p753
S'testing'
p754
S'NN'
p755
S'I-NP'
p756
g5
tp757
a(S'device'
p758
S'device'
p759
S'NN'
p760
S'I-NP'
p761
g5
tp762
a(S'that'
p763
S'that'
p764
S'IN'
p765
S'B-NP'
p766
g5
tp767
a(S'slowly'
p768
S'slowly'
p769
S'RB'
p770
S'B-VP'
p771
g5
tp772
a(S'decreased'
p773
S'decrease'
p774
S'VBN'
p775
S'I-VP'
p776
g5
tp777
a(S'in'
p778
S'in'
p779
S'IN'
p780
S'B-PP'
p781
g5
tp782
a(S'temperature.'
p783
S'temperature.'
p784
S'JJ'
p785
S'B-NP'
p786
g5
tp787
a(S'Tooth'
p788
S'Tooth'
p789
S'NNP'
p790
S'I-NP'
p791
g5
tp792
a(S'sensitivity'
p793
S'sensitivity'
p794
S'NN'
p795
S'I-NP'
p796
g5
tp797
a(S'was'
p798
S'be'
p799
S'VBD'
p800
S'B-VP'
p801
g5
tp802
a(S'measured'
p803
S'measure'
p804
S'VBN'
p805
S'I-VP'
p806
g5
tp807
a(S'both'
p808
S'both'
p809
S'CC'
p810
g5
g5
tp811
a(S'immediately'
p812
S'immediately'
p813
S'RB'
p814
S'B-ADVP'
p815
g5
tp816
a(S'and'
p817
S'and'
p818
S'CC'
p819
S'B-ADVP'
p820
g5
tp821
a(S'at'
p822
S'at'
p823
S'IN'
p824
S'B-PP'
p825
g5
tp826
a(S'7'
p827
g827
S'CD'
p828
S'B-NP'
p829
g5
tp830
a(S'days'
p831
S'day'
p832
S'NNS'
p833
S'I-NP'
p834
g5
tp835
a(S'after'
p836
S'after'
p837
S'IN'
p838
S'B-PP'
p839
g5
tp840
a(S'placement.'
p841
S'placement.'
p842
S'NN'
p843
S'B-NP'
p844
g5
tp845
a(S'Two-way'
p846
S'Two-way'
p847
S'NN'
p848
S'I-NP'
p849
g5
tp850
a(S'analysis'
p851
S'analysis'
p852
S'NN'
p853
S'I-NP'
p854
g5
tp855
a(S'of'
p856
S'of'
p857
S'IN'
p858
S'B-PP'
p859
g5
tp860
a(S'variance'
p861
S'variance'
p862
S'NN'
p863
S'B-NP'
p864
g5
tp865
a(S'and'
p866
S'and'
p867
S'CC'
p868
g5
g5
tp869
a(S'Fisher'
p870
S'Fisher'
p871
S'NNP'
p872
S'B-NP'
p873
g5
tp874
a(S"'s"
p875
S"'s"
p876
S'POS'
p877
S'B-NP'
p878
g5
tp879
a(S'least'
p880
S'least'
p881
S'JJS'
p882
S'I-NP'
p883
g5
tp884
a(S'significant'
p885
S'significant'
p886
S'JJ'
p887
S'I-NP'
p888
g5
tp889
a(S'difference'
p890
S'difference'
p891
S'NN'
p892
S'I-NP'
p893
g5
tp894
a(S'test'
p895
S'test'
p896
S'NN'
p897
S'I-NP'
p898
g5
tp899
a(g575
g575
g575
g5
g5
tp900
a(S'P'
p901
g901
S'NN'
p902
S'B-NP'
p903
g5
tp904
a(S'<'
p905
g905
S'JJR'
p906
S'B-NP'
p907
g5
tp908
a(S'.05'
p909
S'.05'
p910
S'CD'
p911
S'I-NP'
p912
g5
tp913
a(g582
g582
g582
g5
g5
tp914
a(S'were'
p915
S'be'
p916
S'VBD'
p917
S'B-VP'
p918
g5
tp919
a(S'used'
p920
S'use'
p921
S'VBN'
p922
S'I-VP'
p923
g5
tp924
a(S'to'
p925
S'to'
p926
S'TO'
p927
S'B-VP'
p928
g5
tp929
a(S'determine'
p930
S'determine'
p931
S'VB'
p932
S'I-VP'
p933
g5
tp934
a(S'whether'
p935
S'whether'
p936
S'IN'
p937
S'B-SBAR'
p938
g5
tp939
a(S'significant'
p940
S'significant'
p941
S'JJ'
p942
S'B-NP'
p943
g5
tp944
a(S'differences'
p945
S'difference'
p946
S'NNS'
p947
S'I-NP'
p948
g5
tp949
a(S'existed'
p950
S'exist'
p951
S'VBD'
p952
S'B-VP'
p953
g5
tp954
a(S'as'
p955
S'as'
p956
S'IN'
p957
S'B-PP'
p958
g5
tp959
a(g275
g275
S'DT'
p960
S'B-NP'
p961
g5
tp962
a(S'function'
p963
S'function'
p964
S'NN'
p965
S'I-NP'
p966
g5
tp967
a(S'of'
p968
S'of'
p969
S'IN'
p970
S'B-PP'
p971
g5
tp972
a(S'treatment'
p973
S'treatment'
p974
S'NN'
p975
S'B-NP'
p976
g5
tp977
a(S'type'
p978
S'type'
p979
S'NN'
p980
S'I-NP'
p981
g5
tp982
a(S'or'
p983
S'or'
p984
S'CC'
p985
S'I-NP'
p986
g5
tp987
a(S'time'
p988
S'time'
p989
S'NN'
p990
S'I-NP'
p991
g5
tp992
a(g72
g72
g72
g5
g5
tp993
a(S'RESULTS'
p994
S'RESULTS'
p995
S'NNS'
p996
S'B-NP'
p997
g5
tp998
a(S'Immediately'
p999
S'Immediately'
p1000
S'RB'
p1001
S'B-ADVP'
p1002
g5
tp1003
a(S'after'
p1004
S'after'
p1005
S'IN'
p1006
S'B-PP'
p1007
g5
tp1008
a(S'placement'
p1009
S'placement'
p1010
S'NN'
p1011
S'B-NP'
p1012
g5
tp1013
a(g340
g340
g340
g5
g5
tp1014
a(S'the'
p1015
S'the'
p1016
S'DT'
p1017
S'B-NP'
p1018
g5
tp1019
a(S'self-etching'
p1020
S'self-etching'
p1021
S'JJ'
p1022
S'I-NP'
p1023
g5
tp1024
a(S'adhesive'
p1025
S'adhesive'
p1026
S'JJ'
p1027
S'I-NP'
p1028
g5
tp1029
a(S'and'
p1030
S'and'
p1031
S'CC'
p1032
g5
g5
tp1033
a(S'its'
p1034
S'its'
p1035
S'PRP$'
p1036
S'B-NP'
p1037
g5
tp1038
a(S'respective'
p1039
S'respective'
p1040
S'JJ'
p1041
S'I-NP'
p1042
g5
tp1043
a(S'cement'
p1044
S'cement'
p1045
S'NN'
p1046
S'I-NP'
p1047
g5
tp1048
a(S'resulted'
p1049
S'result'
p1050
S'VBD'
p1051
S'B-VP'
p1052
g5
tp1053
a(S'in'
p1054
S'in'
p1055
S'IN'
p1056
S'B-PP'
p1057
g5
tp1058
a(S'more'
p1059
S'more'
p1060
S'JJR'
p1061
S'B-NP'
p1062
g5
tp1063
a(S'suppression'
p1064
S'suppression'
p1065
S'NN'
p1066
S'I-NP'
p1067
g5
tp1068
a(S'of'
p1069
S'of'
p1070
S'IN'
p1071
S'B-PP'
p1072
g5
tp1073
a(S'cold'
p1074
S'cold'
p1075
S'JJ'
p1076
S'B-NP'
p1077
g5
tp1078
a(S'sensitivity'
p1079
S'sensitivity'
p1080
S'NN'
p1081
S'I-NP'
p1082
g5
tp1083
a(S'than'
p1084
S'than'
p1085
S'IN'
p1086
S'B-PP'
p1087
g5
tp1088
a(S'no'
p1089
S'no'
p1090
S'DT'
p1091
S'B-NP'
p1092
g5
tp1093
a(S'treatment'
p1094
S'treatment'
p1095
S'NN'
p1096
S'I-NP'
p1097
g5
tp1098
a(g575
g575
g575
g5
g5
tp1099
a(S'control'
p1100
S'control'
p1101
S'NN'
p1102
S'B-NP'
p1103
g5
tp1104
a(g582
g582
g582
g5
g5
tp1105
a(S';'
p1106
g1106
g550
g5
g5
tp1107
a(S'with'
p1108
S'with'
p1109
S'IN'
p1110
S'B-PP'
p1111
g5
tp1112
a(S'Linkmax'
p1113
S'Linkmax'
p1114
S'NN'
p1115
S'B-NP'
p1116
g5
tp1117
a(S'treatment'
p1118
S'treatment'
p1119
S'NN'
p1120
S'I-NP'
p1121
g5
tp1122
a(g340
g340
g340
g5
g5
tp1123
a(S'the'
p1124
S'the'
p1125
S'DT'
p1126
S'B-NP'
p1127
g5
tp1128
a(S'temperature'
p1129
S'temperature'
p1130
S'NN'
p1131
S'I-NP'
p1132
g5
tp1133
a(S'at'
p1134
S'at'
p1135
S'IN'
p1136
S'B-PP'
p1137
g5
tp1138
a(S'which'
p1139
S'which'
p1140
S'WDT'
p1141
S'B-NP'
p1142
g5
tp1143
a(S'teeth'
p1144
S'tooth'
p1145
S'NNS'
p1146
S'B-NP'
p1147
g5
tp1148
a(S'responded'
p1149
S'respond'
p1150
S'VBD'
p1151
S'B-VP'
p1152
g5
tp1153
a(S'was'
p1154
S'be'
p1155
S'VBD'
p1156
S'B-VP'
p1157
g5
tp1158
a(S'reduced'
p1159
S'reduce'
p1160
S'VBN'
p1161
S'I-VP'
p1162
g5
tp1163
a(S'by'
p1164
S'by'
p1165
S'IN'
p1166
S'B-PP'
p1167
g5
tp1168
a(S'8.4'
p1169
S'8.4'
p1170
S'CD'
p1171
S'B-NP'
p1172
g5
tp1173
a(S'degrees'
p1174
S'degree'
p1175
S'NNS'
p1176
S'I-NP'
p1177
g5
tp1178
a(S'C.'
p1179
S'C.'
p1180
S'FW'
p1181
S'B-PP'
p1182
g5
tp1183
a(S'The'
p1184
S'The'
p1185
S'DT'
p1186
S'B-NP'
p1187
g5
tp1188
a(S'conventionally'
p1189
S'conventionally'
p1190
S'RB'
p1191
S'I-NP'
p1192
g5
tp1193
a(S'etched'
p1194
S'etch'
p1195
S'VBN'
p1196
S'I-NP'
p1197
g5
tp1198
a(S'adhesive'
p1199
S'adhesive'
p1200
S'JJ'
p1201
S'I-NP'
p1202
g5
tp1203
a(S'and'
p1204
S'and'
p1205
S'CC'
p1206
g5
g5
tp1207
a(S'its'
p1208
S'its'
p1209
S'PRP$'
p1210
S'B-NP'
p1211
g5
tp1212
a(S'cement'
p1213
S'cement'
p1214
S'NN'
p1215
S'I-NP'
p1216
g5
tp1217
a(S'reduced'
p1218
S'reduce'
p1219
S'VBD'
p1220
S'B-VP'
p1221
g5
tp1222
a(S'the'
p1223
S'the'
p1224
S'DT'
p1225
S'B-NP'
p1226
g5
tp1227
a(S'temperature'
p1228
S'temperature'
p1229
S'NN'
p1230
S'I-NP'
p1231
g5
tp1232
a(S'at'
p1233
S'at'
p1234
S'IN'
p1235
S'B-PP'
p1236
g5
tp1237
a(S'which'
p1238
S'which'
p1239
S'WDT'
p1240
S'B-NP'
p1241
g5
tp1242
a(S'teeth'
p1243
S'tooth'
p1244
S'NNS'
p1245
S'B-NP'
p1246
g5
tp1247
a(S'responded'
p1248
S'respond'
p1249
S'VBD'
p1250
S'B-VP'
p1251
g5
tp1252
a(S'by'
p1253
S'by'
p1254
S'IN'
p1255
S'B-PP'
p1256
g5
tp1257
a(S'9.4'
p1258
S'9.4'
p1259
S'CD'
p1260
S'B-NP'
p1261
g5
tp1262
a(S'degrees'
p1263
S'degree'
p1264
S'NNS'
p1265
S'I-NP'
p1266
g5
tp1267
a(S'C.'
p1268
S'C.'
p1269
S'FW'
p1270
S'B-NP'
p1271
g5
tp1272
a(S'After'
p1273
S'After'
p1274
S'IN'
p1275
S'B-PP'
p1276
g5
tp1277
a(g532
g532
S'CD'
p1278
S'B-NP'
p1279
g5
tp1280
a(S'week'
p1281
S'week'
p1282
S'NN'
p1283
S'I-NP'
p1284
g5
tp1285
a(g340
g340
g340
g5
g5
tp1286
a(S'these'
p1287
S'these'
p1288
S'DT'
p1289
S'B-NP'
p1290
g5
tp1291
a(S'temperature'
p1292
S'temperature'
p1293
S'NN'
p1294
S'I-NP'
p1295
g5
tp1296
a(S'reductions'
p1297
S'reduction'
p1298
S'NNS'
p1299
S'I-NP'
p1300
g5
tp1301
a(S'were'
p1302
S'be'
p1303
S'VBD'
p1304
S'B-VP'
p1305
g5
tp1306
a(S'7.0'
p1307
S'7.0'
p1308
S'CD'
p1309
S'B-NP'
p1310
g5
tp1311
a(S'degrees'
p1312
S'degree'
p1313
S'NNS'
p1314
S'I-NP'
p1315
g5
tp1316
a(S'C'
p1317
g1317
S'JJ'
p1318
S'B-ADJP'
p1319
g5
tp1320
a(S'and'
p1321
S'and'
p1322
S'CC'
p1323
g5
g5
tp1324
a(S'4.3'
p1325
S'4.3'
p1326
S'CD'
p1327
S'B-NP'
p1328
g5
tp1329
a(S'degrees'
p1330
S'degree'
p1331
S'NNS'
p1332
S'I-NP'
p1333
g5
tp1334
a(g1317
g1317
S'NN'
p1335
S'I-NP'
p1336
g5
tp1337
a(g340
g340
g340
g5
g5
tp1338
a(S'respectively.'
p1339
S'respectively.'
p1340
S'VBP'
p1341
S'B-VP'
p1342
g5
tp1343
a(S'Untreated'
p1344
S'Untreated'
p1345
S'JJ'
p1346
S'B-NP'
p1347
g5
tp1348
a(S'controls'
p1349
S'control'
p1350
S'NNS'
p1351
S'I-NP'
p1352
g5
tp1353
a(S'at'
p1354
S'at'
p1355
S'IN'
p1356
S'B-PP'
p1357
g5
tp1358
a(S'the'
p1359
S'the'
p1360
S'DT'
p1361
S'B-NP'
p1362
g5
tp1363
a(S'2'
p1364
g1364
S'CD'
p1365
S'I-NP'
p1366
g5
tp1367
a(S'intervals'
p1368
S'interval'
p1369
S'NNS'
p1370
S'I-NP'
p1371
g5
tp1372
a(S'showed'
p1373
S'show'
p1374
S'VBD'
p1375
S'B-VP'
p1376
g5
tp1377
a(g275
g275
S'DT'
p1378
S'B-NP'
p1379
g5
tp1380
a(S'mean'
p1381
S'mean'
p1382
S'JJ'
p1383
S'I-NP'
p1384
g5
tp1385
a(S'decrease'
p1386
S'decrease'
p1387
S'NN'
p1388
S'I-NP'
p1389
g5
tp1390
a(S'in'
p1391
S'in'
p1392
S'IN'
p1393
S'B-PP'
p1394
g5
tp1395
a(S'sensitivity'
p1396
S'sensitivity'
p1397
S'NN'
p1398
S'B-NP'
p1399
g5
tp1400
a(S'to'
p1401
S'to'
p1402
S'TO'
p1403
S'B-VP'
p1404
g5
tp1405
a(S'cold'
p1406
S'cold'
p1407
S'VB'
p1408
S'I-VP'
p1409
g5
tp1410
a(S'of'
p1411
S'of'
p1412
S'IN'
p1413
S'B-PP'
p1414
g5
tp1415
a(S'3.6'
p1416
S'3.6'
p1417
S'CD'
p1418
S'B-NP'
p1419
g5
tp1420
a(S'degrees'
p1421
S'degree'
p1422
S'NNS'
p1423
S'I-NP'
p1424
g5
tp1425
a(g1317
g1317
S'JJ'
p1426
S'B-ADJP'
p1427
g5
tp1428
a(S'and'
p1429
S'and'
p1430
S'CC'
p1431
g5
g5
tp1432
a(S'4.1'
p1433
S'4.1'
p1434
S'CD'
p1435
S'B-NP'
p1436
g5
tp1437
a(S'degrees'
p1438
S'degree'
p1439
S'NNS'
p1440
S'I-NP'
p1441
g5
tp1442
a(S'C.'
p1443
S'C.'
p1444
S'FW'
p1445
S'I-NP'
p1446
g5
tp1447
a(S'Statistical'
p1448
S'Statistical'
p1449
S'JJ'
p1450
S'I-NP'
p1451
g5
tp1452
a(S'analysis'
p1453
S'analysis'
p1454
S'NN'
p1455
S'I-NP'
p1456
g5
tp1457
a(S'showed'
p1458
S'show'
p1459
S'VBD'
p1460
S'B-VP'
p1461
g5
tp1462
a(S'type'
p1463
S'type'
p1464
S'NN'
p1465
S'B-NP'
p1466
g5
tp1467
a(S'of'
p1468
S'of'
p1469
S'IN'
p1470
S'B-PP'
p1471
g5
tp1472
a(S'composite'
p1473
S'composite'
p1474
S'JJ'
p1475
S'B-NP'
p1476
g5
tp1477
a(S'cement'
p1478
S'cement'
p1479
S'NN'
p1480
S'I-NP'
p1481
g5
tp1482
a(S'to'
p1483
S'to'
p1484
S'TO'
p1485
S'B-VP'
p1486
g5
tp1487
a(S'be'
p1488
S'be'
p1489
S'VB'
p1490
S'I-VP'
p1491
g5
tp1492
a(g275
g275
S'DT'
p1493
S'B-NP'
p1494
g5
tp1495
a(S'significant'
p1496
S'significant'
p1497
S'JJ'
p1498
S'I-NP'
p1499
g5
tp1500
a(S'factor'
p1501
S'factor'
p1502
S'NN'
p1503
S'I-NP'
p1504
g5
tp1505
a(g72
g72
g72
g5
g5
tp1506
a(S'CONCLUSION'
p1507
S'CONCLUSION'
p1508
S'NN'
p1509
S'B-NP'
p1510
g5
tp1511
a(S'Within'
p1512
S'Within'
p1513
S'IN'
p1514
S'B-PP'
p1515
g5
tp1516
a(S'the'
p1517
S'the'
p1518
S'DT'
p1519
S'B-NP'
p1520
g5
tp1521
a(S'limitations'
p1522
S'limitation'
p1523
S'NNS'
p1524
S'I-NP'
p1525
g5
tp1526
a(S'of'
p1527
S'of'
p1528
S'IN'
p1529
S'B-PP'
p1530
g5
tp1531
a(S'this'
p1532
S'this'
p1533
S'DT'
p1534
S'B-NP'
p1535
g5
tp1536
a(S'study'
p1537
S'study'
p1538
S'NN'
p1539
S'I-NP'
p1540
g5
tp1541
a(S'and'
p1542
S'and'
p1543
S'CC'
p1544
S'B-PP'
p1545
g5
tp1546
a(S'in'
p1547
S'in'
p1548
S'IN'
p1549
S'B-PP'
p1550
g5
tp1551
a(S'comparison'
p1552
S'comparison'
p1553
S'NN'
p1554
S'B-NP'
p1555
g5
tp1556
a(S'to'
p1557
S'to'
p1558
S'TO'
p1559
S'B-PP'
p1560
g5
tp1561
a(S'untreated'
p1562
S'untreated'
p1563
S'JJ'
p1564
S'B-NP'
p1565
g5
tp1566
a(S'control'
p1567
S'control'
p1568
S'NN'
p1569
S'I-NP'
p1570
g5
tp1571
a(S'teeth'
p1572
S'tooth'
p1573
S'NNS'
p1574
S'I-NP'
p1575
g5
tp1576
a(g340
g340
g340
g5
g5
tp1577
a(S'Linkmax'
p1578
S'Linkmax'
p1579
S'NN'
p1580
S'B-NP'
p1581
g5
tp1582
a(S'treatment'
p1583
S'treatment'
p1584
S'NN'
p1585
S'I-NP'
p1586
g5
tp1587
a(S'resulted'
p1588
S'result'
p1589
S'VBD'
p1590
S'B-VP'
p1591
g5
tp1592
a(S'in'
p1593
S'in'
p1594
S'IN'
p1595
S'B-PP'
p1596
g5
tp1597
a(g275
g275
S'DT'
p1598
S'B-NP'
p1599
g5
tp1600
a(S'significant'
p1601
S'significant'
p1602
S'JJ'
p1603
S'I-NP'
p1604
g5
tp1605
a(S'reduction'
p1606
S'reduction'
p1607
S'NN'
p1608
S'I-NP'
p1609
g5
tp1610
a(S'in'
p1611
S'in'
p1612
S'IN'
p1613
S'B-PP'
p1614
g5
tp1615
a(S'tooth'
p1616
S'tooth'
p1617
S'JJ'
p1618
S'B-NP'
p1619
g5
tp1620
a(S'root'
p1621
S'root'
p1622
S'NN'
p1623
S'I-NP'
p1624
g5
tp1625
a(S'sensitivity'
p1626
S'sensitivity'
p1627
S'NN'
p1628
S'I-NP'
p1629
g5
tp1630
a(S'over'
p1631
S'over'
p1632
S'IN'
p1633
S'B-PP'
p1634
g5
tp1635
a(g532
g532
S'CD'
p1636
S'B-NP'
p1637
g5
tp1638
a(S'week'
p1639
S'week'
p1640
S'NN'
p1641
S'I-NP'
p1642
g5
tp1643
a(g575
g575
g575
g5
g5
tp1644
a(S'P=.02'
p1645
S'P=.02'
p1646
S'NN'
p1647
S'B-NP'
p1648
g5
tp1649
a(g582
g582
g582
g5
g5
tp1650
a(g340
g340
g340
g5
g5
tp1651
a(S'whereas'
p1652
S'whereas'
p1653
S'IN'
p1654
g5
g5
tp1655
a(S'RelyX'
p1656
S'RelyX'
p1657
S'NN'
p1658
S'B-NP'
p1659
S'B-protein'
p1660
tp1661
a(S'ARC'
p1662
S'ARC'
p1663
S'NN'
p1664
S'I-NP'
p1665
S'I-protein'
p1666
tp1667
a(S'did'
p1668
S'do'
p1669
S'VBD'
p1670
S'B-VP'
p1671
g5
tp1672
a(S'not'
p1673
S'not'
p1674
S'RB'
p1675
g5
g5
tp1676
a(g575
g575
g575
g5
g5
tp1677
a(S'P=.066'
p1678
S'P=.066'
p1679
S'NN'
p1680
S'B-NP'
p1681
g5
tp1682
a(g582
g582
g582
g5
g5
tp1683
a(g72
g72
g72
g5
g5
tp1684
a.