(lp0
(S'Non-pharmacological'
p1
S'Non-pharmacological'
p2
S'JJ'
p3
S'B-NP'
p4
S'O'
p5
tp6
a(S'care'
p7
S'care'
p8
S'NN'
p9
S'I-NP'
p10
g5
tp11
a(S'for'
p12
S'for'
p13
S'IN'
p14
S'B-PP'
p15
g5
tp16
a(S'patients'
p17
S'patient'
p18
S'NNS'
p19
S'B-NP'
p20
g5
tp21
a(S'with'
p22
S'with'
p23
S'IN'
p24
S'B-PP'
p25
g5
tp26
a(S'generalized'
p27
S'generalize'
p28
S'VBN'
p29
S'B-NP'
p30
g5
tp31
a(S'osteoarthritis'
p32
S'osteoarthritis'
p33
S'NN'
p34
S'I-NP'
p35
g5
tp36
a(S':'
p37
g37
g37
g5
g5
tp38
a(S'design'
p39
S'design'
p40
S'NN'
p41
S'B-NP'
p42
g5
tp43
a(S'of'
p44
S'of'
p45
S'IN'
p46
S'B-PP'
p47
g5
tp48
a(S'a'
p49
g49
S'DT'
p50
S'B-NP'
p51
g5
tp52
a(S'randomized'
p53
S'randomize'
p54
S'VBN'
p55
S'I-NP'
p56
g5
tp57
a(S'clinical'
p58
S'clinical'
p59
S'JJ'
p60
S'I-NP'
p61
g5
tp62
a(S'trial'
p63
S'trial'
p64
S'NN'
p65
S'I-NP'
p66
g5
tp67
a(S'.'
p68
g68
g68
g5
g5
tp69
a(S'BACKGROUND'
p70
S'BACKGROUND'
p71
S'NN'
p72
S'B-NP'
p73
g5
tp74
a(S'Non-pharmacological'
p75
S'Non-pharmacological'
p76
S'JJ'
p77
S'I-NP'
p78
g5
tp79
a(S'treatment'
p80
S'treatment'
p81
S'NN'
p82
S'I-NP'
p83
g5
tp84
a(S'('
p85
g85
g85
g5
g5
tp86
a(S'NPT'
p87
S'NPT'
p88
S'NN'
p89
S'B-NP'
p90
S'B-protein'
p91
tp92
a(S')'
p93
g93
g93
g5
g5
tp94
a(S'is'
p95
S'be'
p96
S'VBZ'
p97
S'B-VP'
p98
g5
tp99
a(g49
g49
S'DT'
p100
S'B-NP'
p101
g5
tp102
a(S'useful'
p103
S'useful'
p104
S'JJ'
p105
S'I-NP'
p106
g5
tp107
a(S'treatment'
p108
S'treatment'
p109
S'NN'
p110
S'I-NP'
p111
g5
tp112
a(S'option'
p113
S'option'
p114
S'NN'
p115
S'I-NP'
p116
g5
tp117
a(S'in'
p118
S'in'
p119
S'IN'
p120
S'B-PP'
p121
g5
tp122
a(S'the'
p123
S'the'
p124
S'DT'
p125
S'B-NP'
p126
g5
tp127
a(S'management'
p128
S'management'
p129
S'NN'
p130
S'I-NP'
p131
g5
tp132
a(S'of'
p133
S'of'
p134
S'IN'
p135
S'B-PP'
p136
g5
tp137
a(S'hip'
p138
S'hip'
p139
S'NN'
p140
S'B-NP'
p141
g5
tp142
a(S'or'
p143
S'or'
p144
S'CC'
p145
S'I-NP'
p146
g5
tp147
a(S'knee'
p148
S'knee'
p149
S'NN'
p150
S'I-NP'
p151
g5
tp152
a(S'osteoarthritis.'
p153
S'osteoarthritis.'
p154
S'NN'
p155
S'I-NP'
p156
g5
tp157
a(S'To'
p158
S'To'
p159
S'TO'
p160
S'B-PP'
p161
g5
tp162
a(S'our'
p163
S'our'
p164
S'PRP$'
p165
S'B-NP'
p166
g5
tp167
a(S'knowledge'
p168
S'knowledge'
p169
S'NN'
p170
S'I-NP'
p171
g5
tp172
a(S'however'
p173
S'however'
p174
S'RB'
p175
S'B-ADVP'
p176
g5
tp177
a(S','
p178
g178
g178
g5
g5
tp179
a(S'no'
p180
S'no'
p181
S'DT'
p182
S'B-NP'
p183
g5
tp184
a(S'studies'
p185
S'study'
p186
S'NNS'
p187
S'I-NP'
p188
g5
tp189
a(S'have'
p190
S'have'
p191
S'VBP'
p192
S'B-VP'
p193
g5
tp194
a(S'investigated'
p195
S'investigate'
p196
S'VBN'
p197
S'I-VP'
p198
g5
tp199
a(S'the'
p200
S'the'
p201
S'DT'
p202
S'B-NP'
p203
g5
tp204
a(S'effect'
p205
S'effect'
p206
S'NN'
p207
S'I-NP'
p208
g5
tp209
a(S'of'
p210
S'of'
p211
S'IN'
p212
S'B-PP'
p213
g5
tp214
a(S'NPT'
p215
S'NPT'
p216
S'NN'
p217
S'B-NP'
p218
S'B-protein'
p219
tp220
a(S'in'
p221
S'in'
p222
S'IN'
p223
S'B-PP'
p224
g5
tp225
a(S'patients'
p226
S'patient'
p227
S'NNS'
p228
S'B-NP'
p229
g5
tp230
a(S'with'
p231
S'with'
p232
S'IN'
p233
S'B-PP'
p234
g5
tp235
a(S'generalized'
p236
S'generalize'
p237
S'VBN'
p238
S'B-NP'
p239
g5
tp240
a(S'osteoarthritis'
p241
S'osteoarthritis'
p242
S'NN'
p243
S'I-NP'
p244
g5
tp245
a(g85
g85
g85
g5
g5
tp246
a(S'GOA'
p247
S'GOA'
p248
S'NN'
p249
S'B-NP'
p250
S'B-protein'
p251
tp252
a(g93
g93
g93
g5
g5
tp253
a(g68
g68
g68
g5
g5
tp254
a(S'The'
p255
S'The'
p256
S'DT'
p257
S'B-NP'
p258
g5
tp259
a(S'primary'
p260
S'primary'
p261
S'JJ'
p262
S'I-NP'
p263
g5
tp264
a(S'aim'
p265
S'aim'
p266
S'NN'
p267
S'I-NP'
p268
g5
tp269
a(S'of'
p270
S'of'
p271
S'IN'
p272
S'B-PP'
p273
g5
tp274
a(S'this'
p275
S'this'
p276
S'DT'
p277
S'B-NP'
p278
g5
tp279
a(S'study'
p280
S'study'
p281
S'NN'
p282
S'I-NP'
p283
g5
tp284
a(S'is'
p285
S'be'
p286
S'VBZ'
p287
S'B-VP'
p288
g5
tp289
a(S'to'
p290
S'to'
p291
S'TO'
p292
S'B-VP'
p293
g5
tp294
a(S'compare'
p295
S'compare'
p296
S'VB'
p297
S'I-VP'
p298
g5
tp299
a(S'the'
p300
S'the'
p301
S'DT'
p302
S'B-NP'
p303
g5
tp304
a(S'effectiveness'
p305
S'effectiveness'
p306
S'NN'
p307
S'I-NP'
p308
g5
tp309
a(S'of'
p310
S'of'
p311
S'IN'
p312
S'B-PP'
p313
g5
tp314
a(S'two'
p315
S'two'
p316
S'CD'
p317
S'B-NP'
p318
g5
tp319
a(S'currently'
p320
S'currently'
p321
S'RB'
p322
S'I-NP'
p323
g5
tp324
a(S'existing'
p325
S'exist'
p326
S'VBG'
p327
S'I-NP'
p328
g5
tp329
a(S'health'
p330
S'health'
p331
S'NN'
p332
S'I-NP'
p333
g5
tp334
a(S'care'
p335
S'care'
p336
S'NN'
p337
S'I-NP'
p338
g5
tp339
a(S'programs'
p340
S'program'
p341
S'NNS'
p342
S'I-NP'
p343
g5
tp344
a(S'with'
p345
S'with'
p346
S'IN'
p347
S'B-PP'
p348
g5
tp349
a(S'different'
p350
S'different'
p351
S'JJ'
p352
S'B-NP'
p353
g5
tp354
a(S'intensity'
p355
S'intensity'
p356
S'NN'
p357
S'I-NP'
p358
g5
tp359
a(S'and'
p360
S'and'
p361
S'CC'
p362
S'I-NP'
p363
g5
tp364
a(S'mode'
p365
S'mode'
p366
S'NN'
p367
S'I-NP'
p368
g5
tp369
a(S'of'
p370
S'of'
p371
S'IN'
p372
S'B-PP'
p373
g5
tp374
a(S'delivery'
p375
S'delivery'
p376
S'NN'
p377
S'B-NP'
p378
g5
tp379
a(S'on'
p380
S'on'
p381
S'IN'
p382
S'B-PP'
p383
g5
tp384
a(S'daily'
p385
S'daily'
p386
S'JJ'
p387
S'B-NP'
p388
g5
tp389
a(S'functioning'
p390
S'functioning'
p391
S'NN'
p392
S'I-NP'
p393
g5
tp394
a(S'in'
p395
S'in'
p396
S'IN'
p397
S'B-PP'
p398
g5
tp399
a(S'patients'
p400
S'patient'
p401
S'NNS'
p402
S'B-NP'
p403
g5
tp404
a(S'with'
p405
S'with'
p406
S'IN'
p407
S'B-PP'
p408
g5
tp409
a(S'GOA.'
p410
S'GOA.'
p411
S'NNP'
p412
S'B-NP'
p413
g5
tp414
a(S'The'
p415
S'The'
p416
S'DT'
p417
S'B-NP'
p418
g5
tp419
a(S'secondary'
p420
S'secondary'
p421
S'JJ'
p422
S'I-NP'
p423
g5
tp424
a(S'objective'
p425
S'objective'
p426
S'NN'
p427
S'I-NP'
p428
g5
tp429
a(S'is'
p430
S'be'
p431
S'VBZ'
p432
S'B-VP'
p433
g5
tp434
a(S'to'
p435
S'to'
p436
S'TO'
p437
S'B-VP'
p438
g5
tp439
a(S'compare'
p440
S'compare'
p441
S'VB'
p442
S'I-VP'
p443
g5
tp444
a(S'the'
p445
S'the'
p446
S'DT'
p447
S'B-NP'
p448
g5
tp449
a(S'cost-effectiveness'
p450
S'cost-effectiveness'
p451
S'NN'
p452
S'I-NP'
p453
g5
tp454
a(S'of'
p455
S'of'
p456
S'IN'
p457
S'B-PP'
p458
g5
tp459
a(S'both'
p460
S'both'
p461
S'DT'
p462
S'B-NP'
p463
g5
tp464
a(S'interventions'
p465
S'intervention'
p466
S'NNS'
p467
S'I-NP'
p468
g5
tp469
a(g68
g68
g68
g5
g5
tp470
a(S'METHODS/DESIGN'
p471
S'METHODS/DESIGN'
p472
S'NN'
p473
S'B-NP'
p474
g5
tp475
a(S'In'
p476
S'In'
p477
S'IN'
p478
S'B-PP'
p479
g5
tp480
a(S'this'
p481
S'this'
p482
S'DT'
p483
S'B-NP'
p484
g5
tp485
a(S'randomized'
p486
S'randomize'
p487
S'VBN'
p488
S'I-NP'
p489
g5
tp490
a(g178
g178
g178
S'I-NP'
p491
g5
tp492
a(S'single'
p493
S'single'
p494
S'JJ'
p495
S'I-NP'
p496
g5
tp497
a(S'blind'
p498
S'blind'
p499
S'JJ'
p500
S'I-NP'
p501
g5
tp502
a(g178
g178
g178
S'I-NP'
p503
g5
tp504
a(S'clinical'
p505
S'clinical'
p506
S'JJ'
p507
S'I-NP'
p508
g5
tp509
a(S'trial'
p510
S'trial'
p511
S'NN'
p512
S'I-NP'
p513
g5
tp514
a(S'with'
p515
S'with'
p516
S'IN'
p517
S'B-PP'
p518
g5
tp519
a(S'active'
p520
S'active'
p521
S'JJ'
p522
S'B-NP'
p523
g5
tp524
a(S'controls'
p525
S'control'
p526
S'NNS'
p527
S'I-NP'
p528
g5
tp529
a(g178
g178
g178
g5
g5
tp530
a(S'we'
p531
S'we'
p532
S'PRP'
p533
S'B-NP'
p534
g5
tp535
a(S'aim'
p536
S'aim'
p537
S'VBP'
p538
S'B-VP'
p539
g5
tp540
a(S'to'
p541
S'to'
p542
S'TO'
p543
S'I-VP'
p544
g5
tp545
a(S'include'
p546
S'include'
p547
S'VB'
p548
S'I-VP'
p549
g5
tp550
a(S'170'
p551
S'170'
p552
S'CD'
p553
S'B-NP'
p554
g5
tp555
a(S'patients'
p556
S'patient'
p557
S'NNS'
p558
S'I-NP'
p559
g5
tp560
a(S'with'
p561
S'with'
p562
S'IN'
p563
S'B-PP'
p564
g5
tp565
a(S'GOA.'
p566
S'GOA.'
p567
S'NNP'
p568
S'B-NP'
p569
g5
tp570
a(S'The'
p571
S'The'
p572
S'DT'
p573
S'B-NP'
p574
g5
tp575
a(S'experimental'
p576
S'experimental'
p577
S'JJ'
p578
S'I-NP'
p579
g5
tp580
a(S'intervention'
p581
S'intervention'
p582
S'NN'
p583
S'I-NP'
p584
g5
tp585
a(S'consist'
p586
S'consist'
p587
S'VBP'
p588
S'B-VP'
p589
g5
tp590
a(S'of'
p591
S'of'
p592
S'IN'
p593
S'B-PP'
p594
g5
tp595
a(S'six'
p596
S'six'
p597
S'CD'
p598
S'B-NP'
p599
g5
tp600
a(S'self-management'
p601
S'self-management'
p602
S'NN'
p603
S'I-NP'
p604
g5
tp605
a(S'group'
p606
S'group'
p607
S'NN'
p608
S'I-NP'
p609
g5
tp610
a(S'sessions'
p611
S'session'
p612
S'NNS'
p613
S'I-NP'
p614
g5
tp615
a(S'provided'
p616
S'provide'
p617
S'VBN'
p618
S'B-VP'
p619
g5
tp620
a(S'by'
p621
S'by'
p622
S'IN'
p623
S'B-PP'
p624
g5
tp625
a(g49
g49
S'DT'
p626
S'B-NP'
p627
g5
tp628
a(S'multi-disciplinary'
p629
S'multi-disciplinary'
p630
S'JJ'
p631
S'I-NP'
p632
g5
tp633
a(S'team'
p634
S'team'
p635
S'NN'
p636
S'I-NP'
p637
g5
tp638
a(g85
g85
g85
g5
g5
tp639
a(S'occupational'
p640
S'occupational'
p641
S'JJ'
p642
S'B-NP'
p643
g5
tp644
a(S'therapist'
p645
S'therapist'
p646
S'NN'
p647
S'I-NP'
p648
g5
tp649
a(g178
g178
g178
g5
g5
tp650
a(S'physiotherapist'
p651
S'physiotherapist'
p652
S'NN'
p653
S'B-NP'
p654
g5
tp655
a(g178
g178
g178
g5
g5
tp656
a(S'dietician'
p657
S'dietician'
p658
S'NN'
p659
S'B-NP'
p660
g5
tp661
a(S'and'
p662
S'and'
p663
S'CC'
p664
g5
g5
tp665
a(S'specialized'
p666
S'specialize'
p667
S'VBD'
p668
S'B-VP'
p669
g5
tp670
a(S'nurse'
p671
S'nurse'
p672
S'NN'
p673
S'B-NP'
p674
g5
tp675
a(g93
g93
g93
g5
g5
tp676
a(g68
g68
g68
g5
g5
tp677
a(S'The'
p678
S'The'
p679
S'DT'
p680
S'B-NP'
p681
g5
tp682
a(S'active'
p683
S'active'
p684
S'JJ'
p685
S'I-NP'
p686
g5
tp687
a(S'control'
p688
S'control'
p689
S'NN'
p690
S'I-NP'
p691
g5
tp692
a(S'group'
p693
S'group'
p694
S'NN'
p695
S'I-NP'
p696
g5
tp697
a(S'consists'
p698
S'consist'
p699
S'VBZ'
p700
S'B-VP'
p701
g5
tp702
a(S'of'
p703
S'of'
p704
S'IN'
p705
S'B-PP'
p706
g5
tp707
a(S'two'
p708
S'two'
p709
S'CD'
p710
S'B-NP'
p711
g5
tp712
a(S'group'
p713
S'group'
p714
S'NN'
p715
S'I-NP'
p716
g5
tp717
a(S'sessions'
p718
S'session'
p719
S'NNS'
p720
S'I-NP'
p721
g5
tp722
a(S'and'
p723
S'and'
p724
S'CC'
p725
g5
g5
tp726
a(S'four'
p727
S'four'
p728
S'CD'
p729
S'B-NP'
p730
g5
tp731
a(S'sessions'
p732
S'session'
p733
S'NNS'
p734
S'I-NP'
p735
g5
tp736
a(S'by'
p737
S'by'
p738
S'IN'
p739
S'B-PP'
p740
g5
tp741
a(S'telephone'
p742
S'telephone'
p743
S'NN'
p744
S'B-NP'
p745
g5
tp746
a(g178
g178
g178
g5
g5
tp747
a(S'provided'
p748
S'provide'
p749
S'VBN'
p750
S'B-VP'
p751
g5
tp752
a(S'by'
p753
S'by'
p754
S'IN'
p755
S'B-PP'
p756
g5
tp757
a(g49
g49
S'DT'
p758
S'B-NP'
p759
g5
tp760
a(S'specialized'
p761
S'specialize'
p762
S'VBN'
p763
S'I-NP'
p764
g5
tp765
a(S'nurse'
p766
S'nurse'
p767
S'NN'
p768
S'I-NP'
p769
g5
tp770
a(S'and'
p771
S'and'
p772
S'CC'
p773
S'I-NP'
p774
g5
tp775
a(S'physiotherapist.'
p776
S'physiotherapist.'
p777
S'NN'
p778
S'I-NP'
p779
g5
tp780
a(S'Both'
p781
S'Both'
p782
S'CC'
p783
g5
g5
tp784
a(S'therapies'
p785
S'therapy'
p786
S'NNS'
p787
S'B-NP'
p788
g5
tp789
a(S'last'
p790
S'last'
p791
S'JJ'
p792
S'B-NP'
p793
g5
tp794
a(S'six'
p795
S'six'
p796
S'CD'
p797
S'I-NP'
p798
g5
tp799
a(S'weeks.'
p800
S'weeks.'
p801
S'NNS'
p802
S'I-NP'
p803
g5
tp804
a(S'Main'
p805
S'Main'
p806
S'NNP'
p807
S'I-NP'
p808
g5
tp809
a(S'study'
p810
S'study'
p811
S'NN'
p812
S'I-NP'
p813
g5
tp814
a(S'outcome'
p815
S'outcome'
p816
S'NN'
p817
S'I-NP'
p818
g5
tp819
a(S'is'
p820
S'be'
p821
S'VBZ'
p822
S'B-VP'
p823
g5
tp824
a(S'daily'
p825
S'daily'
p826
S'RB'
p827
S'I-VP'
p828
g5
tp829
a(S'functioning'
p830
S'function'
p831
S'VBG'
p832
S'I-VP'
p833
g5
tp834
a(S'during'
p835
S'during'
p836
S'IN'
p837
S'B-PP'
p838
g5
tp839
a(S'the'
p840
S'the'
p841
S'DT'
p842
S'B-NP'
p843
g5
tp844
a(S'first'
p845
S'first'
p846
S'JJ'
p847
S'I-NP'
p848
g5
tp849
a(S'year'
p850
S'year'
p851
S'NN'
p852
S'I-NP'
p853
g5
tp854
a(S'after'
p855
S'after'
p856
S'IN'
p857
S'B-PP'
p858
g5
tp859
a(S'the'
p860
S'the'
p861
S'DT'
p862
S'B-NP'
p863
g5
tp864
a(S'treatment'
p865
S'treatment'
p866
S'NN'
p867
S'I-NP'
p868
g5
tp869
a(g178
g178
g178
g5
g5
tp870
a(S'assessed'
p871
S'assess'
p872
S'VBN'
p873
S'B-VP'
p874
g5
tp875
a(S'on'
p876
S'on'
p877
S'IN'
p878
S'B-PP'
p879
g5
tp880
a(S'the'
p881
S'the'
p882
S'DT'
p883
S'B-NP'
p884
g5
tp885
a(S'Health'
p886
S'Health'
p887
S'NNP'
p888
S'I-NP'
p889
g5
tp890
a(S'Assessment'
p891
S'Assessment'
p892
S'NNP'
p893
S'I-NP'
p894
g5
tp895
a(S'Questionnaire.'
p896
S'Questionnaire.'
p897
S'NNP'
p898
S'I-NP'
p899
g5
tp900
a(S'Secondary'
p901
S'Secondary'
p902
S'NNP'
p903
S'I-NP'
p904
g5
tp905
a(S'outcomes'
p906
S'outcome'
p907
S'NNS'
p908
S'I-NP'
p909
g5
tp910
a(S'are'
p911
S'be'
p912
S'VBP'
p913
S'B-VP'
p914
g5
tp915
a(S'health'
p916
S'health'
p917
S'NN'
p918
S'B-NP'
p919
g5
tp920
a(S'related'
p921
S'related'
p922
S'JJ'
p923
S'I-NP'
p924
g5
tp925
a(S'quality'
p926
S'quality'
p927
S'NN'
p928
S'I-NP'
p929
g5
tp930
a(S'of'
p931
S'of'
p932
S'IN'
p933
S'B-PP'
p934
g5
tp935
a(S'life'
p936
S'life'
p937
S'NN'
p938
S'B-NP'
p939
g5
tp940
a(g178
g178
g178
g5
g5
tp941
a(S'specific'
p942
S'specific'
p943
S'JJ'
p944
S'B-NP'
p945
g5
tp946
a(S'complaints'
p947
S'complaint'
p948
S'NNS'
p949
S'I-NP'
p950
g5
tp951
a(g178
g178
g178
g5
g5
tp952
a(S'fatigue'
p953
S'fatigue'
p954
S'NN'
p955
S'B-NP'
p956
g5
tp957
a(g178
g178
g178
g5
g5
tp958
a(S'and'
p959
S'and'
p960
S'CC'
p961
g5
g5
tp962
a(S'costs.'
p963
S'costs.'
p964
S'NN'
p965
S'B-NP'
p966
g5
tp967
a(S'Illness'
p968
S'Illness'
p969
S'NNP'
p970
S'I-NP'
p971
g5
tp972
a(S'cognitions'
p973
S'cognition'
p974
S'NNS'
p975
S'I-NP'
p976
g5
tp977
a(g178
g178
g178
g5
g5
tp978
a(S'global'
p979
S'global'
p980
S'JJ'
p981
S'B-NP'
p982
g5
tp983
a(S'perceived'
p984
S'perceive'
p985
S'VBN'
p986
S'I-NP'
p987
g5
tp988
a(S'effect'
p989
S'effect'
p990
S'NN'
p991
S'I-NP'
p992
g5
tp993
a(S'and'
p994
S'and'
p995
S'CC'
p996
S'I-NP'
p997
g5
tp998
a(S'self-efficacy'
p999
S'self-efficacy'
p1000
S'NN'
p1001
S'I-NP'
p1002
g5
tp1003
a(g178
g178
g178
g5
g5
tp1004
a(S'will'
p1005
S'will'
p1006
S'MD'
p1007
S'B-VP'
p1008
g5
tp1009
a(S'also'
p1010
S'also'
p1011
S'RB'
p1012
S'I-VP'
p1013
g5
tp1014
a(S'be'
p1015
S'be'
p1016
S'VB'
p1017
S'I-VP'
p1018
g5
tp1019
a(S'assessed'
p1020
S'assess'
p1021
S'VBN'
p1022
S'I-VP'
p1023
g5
tp1024
a(S'for'
p1025
S'for'
p1026
S'IN'
p1027
S'B-PP'
p1028
g5
tp1029
a(g49
g49
S'DT'
p1030
S'B-NP'
p1031
g5
tp1032
a(S'responder'
p1033
S'responder'
p1034
S'NN'
p1035
S'I-NP'
p1036
g5
tp1037
a(S'analysis.'
p1038
S'analysis.'
p1039
S'NN'
p1040
S'I-NP'
p1041
g5
tp1042
a(S'Outcome'
p1043
S'Outcome'
p1044
S'NNP'
p1045
S'I-NP'
p1046
g5
tp1047
a(S'assessments'
p1048
S'assessment'
p1049
S'NNS'
p1050
S'I-NP'
p1051
g5
tp1052
a(S'are'
p1053
S'be'
p1054
S'VBP'
p1055
S'B-VP'
p1056
g5
tp1057
a(S'performed'
p1058
S'perform'
p1059
S'VBN'
p1060
S'I-VP'
p1061
g5
tp1062
a(S'directly'
p1063
S'directly'
p1064
S'RB'
p1065
S'B-ADVP'
p1066
g5
tp1067
a(S'after'
p1068
S'after'
p1069
S'IN'
p1070
S'B-PP'
p1071
g5
tp1072
a(S'the'
p1073
S'the'
p1074
S'DT'
p1075
S'B-NP'
p1076
g5
tp1077
a(S'intervention'
p1078
S'intervention'
p1079
S'NN'
p1080
S'I-NP'
p1081
g5
tp1082
a(g178
g178
g178
g5
g5
tp1083
a(S'after'
p1084
S'after'
p1085
S'IN'
p1086
S'B-PP'
p1087
g5
tp1088
a(S'26'
p1089
S'26'
p1090
S'CD'
p1091
S'B-NP'
p1092
g5
tp1093
a(S'weeks'
p1094
S'week'
p1095
S'NNS'
p1096
S'I-NP'
p1097
g5
tp1098
a(S'and'
p1099
S'and'
p1100
S'CC'
p1101
g5
g5
tp1102
a(S'after'
p1103
S'after'
p1104
S'IN'
p1105
S'B-PP'
p1106
g5
tp1107
a(S'52'
p1108
S'52'
p1109
S'CD'
p1110
S'B-NP'
p1111
g5
tp1112
a(S'weeks'
p1113
S'week'
p1114
S'NNS'
p1115
S'I-NP'
p1116
g5
tp1117
a(g68
g68
g68
g5
g5
tp1118
a(S'DISCUSSION'
p1119
S'DISCUSSION'
p1120
S'NN'
p1121
S'B-NP'
p1122
g5
tp1123
a(S'This'
p1124
S'This'
p1125
S'DT'
p1126
S'B-NP'
p1127
g5
tp1128
a(S'article'
p1129
S'article'
p1130
S'NN'
p1131
S'I-NP'
p1132
g5
tp1133
a(S'describes'
p1134
S'describe'
p1135
S'VBZ'
p1136
S'B-VP'
p1137
g5
tp1138
a(S'the'
p1139
S'the'
p1140
S'DT'
p1141
S'B-NP'
p1142
g5
tp1143
a(S'design'
p1144
S'design'
p1145
S'NN'
p1146
S'I-NP'
p1147
g5
tp1148
a(S'of'
p1149
S'of'
p1150
S'IN'
p1151
S'B-PP'
p1152
g5
tp1153
a(g49
g49
S'DT'
p1154
S'B-NP'
p1155
g5
tp1156
a(S'randomized'
p1157
S'randomize'
p1158
S'VBN'
p1159
S'I-NP'
p1160
g5
tp1161
a(g178
g178
g178
S'I-NP'
p1162
g5
tp1163
a(S'single'
p1164
S'single'
p1165
S'JJ'
p1166
S'I-NP'
p1167
g5
tp1168
a(S'blind'
p1169
S'blind'
p1170
S'JJ'
p1171
S'I-NP'
p1172
g5
tp1173
a(g178
g178
g178
S'I-NP'
p1174
g5
tp1175
a(S'clinical'
p1176
S'clinical'
p1177
S'JJ'
p1178
S'I-NP'
p1179
g5
tp1180
a(S'trial'
p1181
S'trial'
p1182
S'NN'
p1183
S'I-NP'
p1184
g5
tp1185
a(S'with'
p1186
S'with'
p1187
S'IN'
p1188
S'B-PP'
p1189
g5
tp1190
a(g49
g49
S'DT'
p1191
S'B-NP'
p1192
g5
tp1193
a(S'one'
p1194
S'one'
p1195
S'CD'
p1196
S'I-NP'
p1197
g5
tp1198
a(S'year'
p1199
S'year'
p1200
S'NN'
p1201
S'I-NP'
p1202
g5
tp1203
a(S'follow'
p1204
S'follow'
p1205
S'VB'
p1206
S'B-VP'
p1207
g5
tp1208
a(S'up'
p1209
S'up'
p1210
S'RP'
p1211
S'B-PRT'
p1212
g5
tp1213
a(S'to'
p1214
S'to'
p1215
S'TO'
p1216
S'B-VP'
p1217
g5
tp1218
a(S'compare'
p1219
S'compare'
p1220
S'VB'
p1221
S'I-VP'
p1222
g5
tp1223
a(S'the'
p1224
S'the'
p1225
S'DT'
p1226
S'B-NP'
p1227
g5
tp1228
a(S'costs'
p1229
S'cost'
p1230
S'NNS'
p1231
S'I-NP'
p1232
g5
tp1233
a(S'and'
p1234
S'and'
p1235
S'CC'
p1236
S'I-NP'
p1237
g5
tp1238
a(S'effectiveness'
p1239
S'effectiveness'
p1240
S'NN'
p1241
S'I-NP'
p1242
g5
tp1243
a(S'of'
p1244
S'of'
p1245
S'IN'
p1246
S'B-PP'
p1247
g5
tp1248
a(S'two'
p1249
S'two'
p1250
S'CD'
p1251
S'B-NP'
p1252
g5
tp1253
a(S'non-pharmacological'
p1254
S'non-pharmacological'
p1255
S'JJ'
p1256
S'I-NP'
p1257
g5
tp1258
a(S'interventions'
p1259
S'intervention'
p1260
S'NNS'
p1261
S'I-NP'
p1262
g5
tp1263
a(S'with'
p1264
S'with'
p1265
S'IN'
p1266
S'B-PP'
p1267
g5
tp1268
a(S'different'
p1269
S'different'
p1270
S'JJ'
p1271
S'B-NP'
p1272
g5
tp1273
a(S'modes'
p1274
S'mode'
p1275
S'NNS'
p1276
S'I-NP'
p1277
g5
tp1278
a(S'of'
p1279
S'of'
p1280
S'IN'
p1281
S'B-PP'
p1282
g5
tp1283
a(S'delivery'
p1284
S'delivery'
p1285
S'NN'
p1286
S'B-NP'
p1287
g5
tp1288
a(S'for'
p1289
S'for'
p1290
S'IN'
p1291
S'B-PP'
p1292
g5
tp1293
a(S'patients'
p1294
S'patient'
p1295
S'NNS'
p1296
S'B-NP'
p1297
g5
tp1298
a(S'with'
p1299
S'with'
p1300
S'IN'
p1301
S'B-PP'
p1302
g5
tp1303
a(S'GOA'
p1304
S'GOA'
p1305
S'NN'
p1306
S'B-NP'
p1307
S'B-protein'
p1308
tp1309
a(g68
g68
g68
g5
g5
tp1310
a(S'TRIAL'
p1311
S'TRIAL'
p1312
S'NNP'
p1313
S'B-NP'
p1314
g5
tp1315
a(S'REGISTRATION'
p1316
S'REGISTRATION'
p1317
S'NNP'
p1318
S'I-NP'
p1319
g5
tp1320
a(S'Dutch'
p1321
S'Dutch'
p1322
S'NNP'
p1323
S'I-NP'
p1324
g5
tp1325
a(S'Trial'
p1326
S'Trial'
p1327
S'NNP'
p1328
S'I-NP'
p1329
g5
tp1330
a(S'Register'
p1331
S'Register'
p1332
S'NNP'
p1333
S'I-NP'
p1334
g5
tp1335
a(S'NTR2137'
p1336
S'NTR2137'
p1337
S'NNP'
p1338
S'I-NP'
p1339
g5
tp1340
a(g68
g68
g68
g5
g5
tp1341
a.