(lp0
(S'Incidence'
p1
S'Incidence'
p2
S'NN'
p3
S'B-NP'
p4
S'O'
p5
tp6
a(S'of'
p7
S'of'
p8
S'IN'
p9
S'B-PP'
p10
g5
tp11
a(S'puberty'
p12
S'puberty'
p13
S'NN'
p14
S'B-NP'
p15
g5
tp16
a(S'in'
p17
S'in'
p18
S'IN'
p19
S'B-PP'
p20
g5
tp21
a(S'beef'
p22
S'beef'
p23
S'NN'
p24
S'B-NP'
p25
g5
tp26
a(S'heifers'
p27
S'heifer'
p28
S'NNS'
p29
S'I-NP'
p30
g5
tp31
a(S'fed'
p32
S'feed'
p33
S'VBN'
p34
S'B-VP'
p35
g5
tp36
a(S'high-'
p37
S'high-'
p38
S'JJ'
p39
S'B-NP'
p40
g5
tp41
a(S'or'
p42
S'or'
p43
S'CC'
p44
S'I-NP'
p45
g5
tp46
a(S'low-starch'
p47
S'low-starch'
p48
S'JJ'
p49
S'I-NP'
p50
g5
tp51
a(S'diets'
p52
S'diet'
p53
S'NNS'
p54
S'I-NP'
p55
g5
tp56
a(S'for'
p57
S'for'
p58
S'IN'
p59
S'B-PP'
p60
g5
tp61
a(S'different'
p62
S'different'
p63
S'JJ'
p64
S'B-NP'
p65
g5
tp66
a(S'periods'
p67
S'period'
p68
S'NNS'
p69
S'I-NP'
p70
g5
tp71
a(S'before'
p72
S'before'
p73
S'IN'
p74
S'B-PP'
p75
g5
tp76
a(S'breeding'
p77
S'breed'
p78
S'VBG'
p79
S'B-VP'
p80
g5
tp81
a(S'.'
p82
g82
g82
g5
g5
tp83
a(S'Spring-born'
p84
S'Spring-born'
p85
S'NNP'
p86
S'B-NP'
p87
g5
tp88
a(S'Hereford'
p89
S'Hereford'
p90
S'NNP'
p91
S'I-NP'
p92
g5
tp93
a(S'x'
p94
g94
S'NNP'
p95
S'I-NP'
p96
g5
tp97
a(S'Angus'
p98
S'Angus'
p99
S'NNP'
p100
S'I-NP'
p101
g5
tp102
a(S'heifers'
p103
S'heifer'
p104
S'NNS'
p105
S'I-NP'
p106
g5
tp107
a(S'('
p108
g108
g108
g5
g5
tp109
a(S'n'
p110
g110
S'NN'
p111
S'B-NP'
p112
g5
tp113
a(S'='
p114
g114
S'SYM'
p115
S'B-VP'
p116
g5
tp117
a(S'206'
p118
S'206'
p119
S'CD'
p120
S'B-NP'
p121
g5
tp122
a(S')'
p123
g123
g123
g5
g5
tp124
a(S'were'
p125
S'be'
p126
S'VBD'
p127
S'B-VP'
p128
g5
tp129
a(S'used'
p130
S'use'
p131
S'VBN'
p132
S'I-VP'
p133
g5
tp134
a(S'to'
p135
S'to'
p136
S'TO'
p137
S'B-VP'
p138
g5
tp139
a(S'determine'
p140
S'determine'
p141
S'VB'
p142
S'I-VP'
p143
g5
tp144
a(S'effects'
p145
S'effect'
p146
S'NNS'
p147
S'B-NP'
p148
g5
tp149
a(S'of'
p150
S'of'
p151
S'IN'
p152
S'B-PP'
p153
g5
tp154
a(S'energy'
p155
S'energy'
p156
S'NN'
p157
S'B-NP'
p158
g5
tp159
a(S'supplementation'
p160
S'supplementation'
p161
S'NN'
p162
S'I-NP'
p163
g5
tp164
a(S'programs'
p165
S'program'
p166
S'NNS'
p167
S'I-NP'
p168
g5
tp169
a(S'and'
p170
S'and'
p171
S'CC'
p172
g5
g5
tp173
a(S'amount'
p174
S'amount'
p175
S'NN'
p176
S'B-NP'
p177
g5
tp178
a(S'of'
p179
S'of'
p180
S'IN'
p181
S'B-PP'
p182
g5
tp183
a(S'starch'
p184
S'starch'
p185
S'NN'
p186
S'B-NP'
p187
g5
tp188
a(S'in'
p189
S'in'
p190
S'IN'
p191
S'B-PP'
p192
g5
tp193
a(S'the'
p194
S'the'
p195
S'DT'
p196
S'B-NP'
p197
g5
tp198
a(S'diet'
p199
S'diet'
p200
S'NN'
p201
S'I-NP'
p202
g5
tp203
a(S'on'
p204
S'on'
p205
S'IN'
p206
S'B-PP'
p207
g5
tp208
a(S'incidence'
p209
S'incidence'
p210
S'NN'
p211
S'B-NP'
p212
g5
tp213
a(S'of'
p214
S'of'
p215
S'IN'
p216
S'B-PP'
p217
g5
tp218
a(S'puberty.'
p219
S'puberty.'
p220
S'NN'
p221
S'B-NP'
p222
g5
tp223
a(S'In'
p224
S'In'
p225
S'IN'
p226
S'B-PP'
p227
g5
tp228
a(S'Exp.'
p229
S'Exp.'
p230
S'NNP'
p231
S'B-NP'
p232
g5
tp233
a(S'1'
p234
g234
S'CD'
p235
S'I-NP'
p236
g5
tp237
a(S','
p238
g238
g238
g5
g5
tp239
a(S'heifers'
p240
S'heifer'
p241
S'NNS'
p242
S'B-NP'
p243
g5
tp244
a(g108
g108
g108
g5
g5
tp245
a(S'205'
p246
S'205'
p247
S'CD'
p248
S'B-NP'
p249
g5
tp250
a(S'+/-'
p251
S'+/-'
p252
S'SYM'
p253
S'I-NP'
p254
g5
tp255
a(S'5'
p256
g256
S'CD'
p257
S'I-NP'
p258
g5
tp259
a(S'kg'
p260
S'kg'
p261
S'NN'
p262
S'I-NP'
p263
g5
tp264
a(S';'
p265
g265
S':'
p266
g5
g5
tp267
a(g110
g110
S'NN'
p268
S'B-NP'
p269
g5
tp270
a(g114
g114
S'SYM'
p271
S'B-VP'
p272
g5
tp273
a(S'68'
p274
S'68'
p275
S'CD'
p276
S'B-NP'
p277
g5
tp278
a(g123
g123
g123
g5
g5
tp279
a(S'grazing'
p280
S'graze'
p281
S'VBG'
p282
S'B-VP'
p283
g5
tp284
a(S'dormant'
p285
S'dormant'
p286
S'JJ'
p287
S'B-NP'
p288
g5
tp289
a(S'native'
p290
S'native'
p291
S'JJ'
p292
S'I-NP'
p293
g5
tp294
a(S'pasture'
p295
S'pasture'
p296
S'NN'
p297
S'I-NP'
p298
g5
tp299
a(S'were'
p300
S'be'
p301
S'VBD'
p302
S'B-VP'
p303
g5
tp304
a(S'fed'
p305
S'feed'
p306
S'VBN'
p307
S'I-VP'
p308
g5
tp309
a(S'0.9'
p310
S'0.9'
p311
S'CD'
p312
S'B-NP'
p313
g5
tp314
a(S'kg/d'
p315
S'kg/d'
p316
S'NN'
p317
S'I-NP'
p318
g5
tp319
a(g108
g108
g108
g5
g5
tp320
a(S'as-fed'
p321
S'as-fed'
p322
S'JJ'
p323
S'B-NP'
p324
g5
tp325
a(S'basis'
p326
S'basis'
p327
S'NN'
p328
S'I-NP'
p329
g5
tp330
a(g123
g123
g123
g5
g5
tp331
a(S'of'
p332
S'of'
p333
S'IN'
p334
S'B-PP'
p335
g5
tp336
a(S'a'
p337
g337
S'DT'
p338
S'B-NP'
p339
g5
tp340
a(S'42'
p341
S'42'
p342
S'CD'
p343
S'I-NP'
p344
g5
tp345
a(S'%'
p346
g346
S'NN'
p347
S'I-NP'
p348
g5
tp349
a(S'CP'
p350
S'CP'
p351
S'NN'
p352
S'I-NP'
p353
g5
tp354
a(S'supplement'
p355
S'supplement'
p356
S'NN'
p357
S'I-NP'
p358
g5
tp359
a(S'from'
p360
S'from'
p361
S'IN'
p362
S'B-PP'
p363
g5
tp364
a(S'November'
p365
S'November'
p366
S'NNP'
p367
S'B-NP'
p368
g5
tp369
a(S'until'
p370
S'until'
p371
S'IN'
p372
S'B-PP'
p373
g5
tp374
a(S'February'
p375
S'February'
p376
S'NNP'
p377
S'B-NP'
p378
g5
tp379
a(S'14.'
p380
S'14.'
p381
S'CD'
p382
S'I-NP'
p383
g5
tp384
a(S'Heifers'
p385
S'Heifer'
p386
S'NNS'
p387
S'I-NP'
p388
g5
tp389
a(S'were'
p390
S'be'
p391
S'VBD'
p392
S'B-VP'
p393
g5
tp394
a(S'stratified'
p395
S'stratify'
p396
S'VBN'
p397
S'I-VP'
p398
g5
tp399
a(S'by'
p400
S'by'
p401
S'IN'
p402
S'B-PP'
p403
g5
tp404
a(S'weaning'
p405
S'wean'
p406
S'VBG'
p407
S'B-VP'
p408
g5
tp409
a(S'weight'
p410
S'weight'
p411
S'NN'
p412
S'B-NP'
p413
g5
tp414
a(S'and'
p415
S'and'
p416
S'CC'
p417
g5
g5
tp418
a(S'allotted'
p419
S'allot'
p420
S'VBN'
p421
S'B-VP'
p422
g5
tp423
a(S'randomly'
p424
S'randomly'
p425
S'RB'
p426
S'B-ADVP'
p427
g5
tp428
a(S'to'
p429
S'to'
p430
S'TO'
p431
S'B-PP'
p432
g5
tp433
a(S'treatment'
p434
S'treatment'
p435
S'NN'
p436
S'B-NP'
p437
g5
tp438
a(S'before'
p439
S'before'
p440
S'IN'
p441
S'B-PP'
p442
g5
tp443
a(S'breeding'
p444
S'breed'
p445
S'VBG'
p446
S'B-VP'
p447
g5
tp448
a(g108
g108
g108
g5
g5
tp449
a(S'May'
p450
S'May'
p451
S'NNP'
p452
S'B-NP'
p453
g5
tp454
a(S'to'
p455
S'to'
p456
S'TO'
p457
S'B-PP'
p458
g5
tp459
a(S'July'
p460
S'July'
p461
S'NNP'
p462
S'B-NP'
p463
g5
tp464
a(g123
g123
g123
g5
g5
tp465
a(g82
g82
g82
g5
g5
tp466
a(S'Treatments'
p467
S'Treatment'
p468
S'NNPS'
p469
S'B-NP'
p470
g5
tp471
a(S'were'
p472
S'be'
p473
S'VBD'
p474
S'B-VP'
p475
g5
tp476
a(g234
g234
S'CD'
p477
S'B-NP'
p478
g5
tp479
a(g123
g123
g123
g5
g5
tp480
a(S'0.9'
p481
S'0.9'
p482
S'CD'
p483
S'B-NP'
p484
g5
tp485
a(S'kg'
p486
S'kg'
p487
S'NN'
p488
S'I-NP'
p489
g5
tp490
a(g108
g108
g108
g5
g5
tp491
a(S'as-fed'
p492
S'as-fed'
p493
S'JJ'
p494
S'B-NP'
p495
g5
tp496
a(S'basis'
p497
S'basis'
p498
S'NN'
p499
S'I-NP'
p500
g5
tp501
a(g123
g123
g123
g5
g5
tp502
a(S'of'
p503
S'of'
p504
S'IN'
p505
S'B-PP'
p506
g5
tp507
a(g337
g337
S'DT'
p508
S'B-NP'
p509
g5
tp510
a(S'42'
p511
S'42'
p512
S'CD'
p513
S'I-NP'
p514
g5
tp515
a(g346
g346
S'NN'
p516
S'I-NP'
p517
g5
tp518
a(S'CP'
p519
S'CP'
p520
S'NN'
p521
S'I-NP'
p522
g5
tp523
a(S'supplement/d'
p524
S'supplement/d'
p525
S'NN'
p526
S'I-NP'
p527
g5
tp528
a(S'and'
p529
S'and'
p530
S'CC'
p531
g5
g5
tp532
a(S'pasture'
p533
S'pasture'
p534
S'NN'
p535
S'B-NP'
p536
g5
tp537
a(g108
g108
g108
g5
g5
tp538
a(S'control'
p539
S'control'
p540
S'NN'
p541
S'B-NP'
p542
g5
tp543
a(g123
g123
g123
g5
g5
tp544
a(g265
g265
g266
g5
g5
tp545
a(S'2'
p546
g546
S'LS'
p547
S'B-LST'
p548
g5
tp549
a(g123
g123
g123
g5
g5
tp550
a(g337
g337
S'DT'
p551
S'B-NP'
p552
g5
tp553
a(S'high-starch'
p554
S'high-starch'
p555
S'JJ'
p556
S'I-NP'
p557
g5
tp558
a(g108
g108
g108
g5
g5
tp559
a(S'HS'
p560
S'HS'
p561
S'NN'
p562
S'B-NP'
p563
g5
tp564
a(g123
g123
g123
g5
g5
tp565
a(S'diet'
p566
S'diet'
p567
S'NN'
p568
S'B-NP'
p569
g5
tp570
a(g108
g108
g108
g5
g5
tp571
a(S'73'
p572
S'73'
p573
S'CD'
p574
S'B-NP'
p575
g5
tp576
a(g346
g346
S'NN'
p577
S'I-NP'
p578
g5
tp579
a(S'corn'
p580
S'corn'
p581
S'NN'
p582
S'I-NP'
p583
g5
tp584
a(g265
g265
g266
g5
g5
tp585
a(S'53'
p586
S'53'
p587
S'CD'
p588
S'B-NP'
p589
g5
tp590
a(g346
g346
S'NN'
p591
S'I-NP'
p592
g5
tp593
a(S'starch'
p594
S'starch'
p595
S'NN'
p596
S'I-NP'
p597
g5
tp598
a(g123
g123
g123
g5
g5
tp599
a(S'fed'
p600
S'feed'
p601
S'VBN'
p602
S'B-VP'
p603
g5
tp604
a(S'in'
p605
S'in'
p606
S'IN'
p607
S'B-PP'
p608
g5
tp609
a(g337
g337
S'DT'
p610
S'B-NP'
p611
g5
tp612
a(S'drylot'
p613
S'drylot'
p614
S'NN'
p615
S'I-NP'
p616
g5
tp617
a(S'for'
p618
S'for'
p619
S'IN'
p620
S'B-PP'
p621
g5
tp622
a(S'60'
p623
S'60'
p624
S'CD'
p625
S'B-NP'
p626
g5
tp627
a(S'd'
p628
g628
S'NN'
p629
S'I-NP'
p630
g5
tp631
a(g108
g108
g108
g5
g5
tp632
a(S'HS-60'
p633
S'HS-60'
p634
S'NN'
p635
S'B-NP'
p636
S'B-DNA'
p637
tp638
a(g123
g123
g123
g5
g5
tp639
a(g265
g265
g266
g5
g5
tp640
a(S'3'
p641
g641
S'LS'
p642
S'B-LST'
p643
g5
tp644
a(g123
g123
g123
g5
g5
tp645
a(g337
g337
S'DT'
p646
S'B-NP'
p647
g5
tp648
a(S'HS'
p649
S'HS'
p650
S'NN'
p651
S'I-NP'
p652
g5
tp653
a(S'diet'
p654
S'diet'
p655
S'NN'
p656
S'I-NP'
p657
g5
tp658
a(S'fed'
p659
S'feed'
p660
S'VBN'
p661
S'B-VP'
p662
g5
tp663
a(S'in'
p664
S'in'
p665
S'IN'
p666
S'B-PP'
p667
g5
tp668
a(S'drylot'
p669
S'drylot'
p670
S'NN'
p671
S'B-NP'
p672
g5
tp673
a(S'for'
p674
S'for'
p675
S'IN'
p676
S'B-PP'
p677
g5
tp678
a(S'30'
p679
S'30'
p680
S'CD'
p681
S'B-NP'
p682
g5
tp683
a(g628
g628
S'NN'
p684
S'I-NP'
p685
g5
tp686
a(g108
g108
g108
g5
g5
tp687
a(S'HS-30'
p688
S'HS-30'
p689
S'NN'
p690
S'B-NP'
p691
S'B-DNA'
p692
tp693
a(g123
g123
g123
g5
g5
tp694
a(g265
g265
g266
g5
g5
tp695
a(S'or'
p696
S'or'
p697
S'CC'
p698
g5
g5
tp699
a(S'4'
p700
g700
S'LS'
p701
S'B-LST'
p702
g5
tp703
a(g123
g123
g123
g5
g5
tp704
a(g337
g337
S'DT'
p705
S'B-NP'
p706
g5
tp707
a(S'low-starch'
p708
S'low-starch'
p709
S'JJ'
p710
S'I-NP'
p711
g5
tp712
a(g108
g108
g108
g5
g5
tp713
a(S'LS'
p714
S'LS'
p715
S'NN'
p716
S'B-NP'
p717
g5
tp718
a(g123
g123
g123
g5
g5
tp719
a(S'diet'
p720
S'diet'
p721
S'NN'
p722
S'B-NP'
p723
g5
tp724
a(g108
g108
g108
g5
g5
tp725
a(S'49'
p726
S'49'
p727
S'CD'
p728
S'B-NP'
p729
g5
tp730
a(g346
g346
S'NN'
p731
S'I-NP'
p732
g5
tp733
a(S'corn'
p734
S'corn'
p735
S'NN'
p736
S'I-NP'
p737
g5
tp738
a(g265
g265
g266
g5
g5
tp739
a(S'37'
p740
S'37'
p741
S'CD'
p742
S'B-NP'
p743
g5
tp744
a(g346
g346
S'NN'
p745
S'I-NP'
p746
g5
tp747
a(S'starch'
p748
S'starch'
p749
S'NN'
p750
S'I-NP'
p751
g5
tp752
a(g123
g123
g123
g5
g5
tp753
a(S'self-fed'
p754
S'self-fed'
p755
S'JJ'
p756
S'B-ADJP'
p757
g5
tp758
a(S'on'
p759
S'on'
p760
S'IN'
p761
S'B-PP'
p762
g5
tp763
a(S'pasture'
p764
S'pasture'
p765
S'NN'
p766
S'B-NP'
p767
g5
tp768
a(S'for'
p769
S'for'
p770
S'IN'
p771
S'B-PP'
p772
g5
tp773
a(S'30'
p774
S'30'
p775
S'CD'
p776
S'B-NP'
p777
g5
tp778
a(g628
g628
S'NN'
p779
S'I-NP'
p780
g5
tp781
a(g108
g108
g108
g5
g5
tp782
a(S'LS-30'
p783
S'LS-30'
p784
S'NN'
p785
S'B-NP'
p786
S'B-protein'
p787
tp788
a(g123
g123
g123
g5
g5
tp789
a(g82
g82
g82
g5
g5
tp790
a(S'The'
p791
S'The'
p792
S'DT'
p793
S'B-NP'
p794
g5
tp795
a(S'HS-60'
p796
S'HS-60'
p797
S'NN'
p798
S'I-NP'
p799
S'B-DNA'
p800
tp801
a(S'and'
p802
S'and'
p803
S'CC'
p804
S'I-NP'
p805
g5
tp806
a(S'HS-30'
p807
S'HS-30'
p808
S'NN'
p809
S'I-NP'
p810
S'B-DNA'
p811
tp812
a(S'heifers'
p813
S'heifer'
p814
S'NNS'
p815
S'I-NP'
p816
g5
tp817
a(S'were'
p818
S'be'
p819
S'VBD'
p820
S'B-VP'
p821
g5
tp822
a(S'limited-fed'
p823
S'limited-fed'
p824
S'JJ'
p825
S'B-ADJP'
p826
g5
tp827
a(S'to'
p828
S'to'
p829
S'TO'
p830
S'B-VP'
p831
g5
tp832
a(S'gain'
p833
S'gain'
p834
S'VB'
p835
S'I-VP'
p836
g5
tp837
a(S'0.9'
p838
S'0.9'
p839
S'CD'
p840
S'B-NP'
p841
g5
tp842
a(S'kg/d'
p843
S'kg/d'
p844
S'NN'
p845
S'I-NP'
p846
g5
tp847
a(g238
g238
g238
g5
g5
tp848
a(S'and'
p849
S'and'
p850
S'CC'
p851
g5
g5
tp852
a(S'the'
p853
S'the'
p854
S'DT'
p855
S'B-NP'
p856
g5
tp857
a(S'LS-30'
p858
S'LS-30'
p859
S'NN'
p860
S'I-NP'
p861
S'B-protein'
p862
tp863
a(S'heifers'
p864
S'heifer'
p865
S'NNS'
p866
S'I-NP'
p867
S'I-protein'
p868
tp869
a(S'had'
p870
S'have'
p871
S'VBD'
p872
S'B-VP'
p873
g5
tp874
a(S'ad'
p875
S'ad'
p876
S'NN'
p877
S'B-NP'
p878
g5
tp879
a(S'libitum'
p880
S'libitum'
p881
S'NN'
p882
S'I-NP'
p883
g5
tp884
a(S'access'
p885
S'access'
p886
S'NN'
p887
S'I-NP'
p888
g5
tp889
a(S'to'
p890
S'to'
p891
S'TO'
p892
S'B-PP'
p893
g5
tp894
a(S'the'
p895
S'the'
p896
S'DT'
p897
S'B-NP'
p898
g5
tp899
a(S'diet.'
p900
S'diet.'
p901
S'NN'
p902
S'I-NP'
p903
g5
tp904
a(S'High-starch-60'
p905
S'High-starch-60'
p906
S'NN'
p907
S'I-NP'
p908
g5
tp909
a(S'and'
p910
S'and'
p911
S'CC'
p912
S'I-NP'
p913
g5
tp914
a(S'LS-30'
p915
S'LS-30'
p916
S'NN'
p917
S'I-NP'
p918
S'B-protein'
p919
tp920
a(S'heifers'
p921
S'heifer'
p922
S'NNS'
p923
S'I-NP'
p924
S'I-protein'
p925
tp926
a(S'were'
p927
S'be'
p928
S'VBD'
p929
S'B-VP'
p930
g5
tp931
a(S'heavier'
p932
S'heavy'
p933
S'JJR'
p934
S'B-ADJP'
p935
g5
tp936
a(g108
g108
g108
g5
g5
tp937
a(S'P'
p938
g938
S'NN'
p939
S'B-NP'
p940
g5
tp941
a(S'<'
p942
g942
S'SYM'
p943
g5
g5
tp944
a(S'0.05'
p945
S'0.05'
p946
S'CD'
p947
S'B-NP'
p948
g5
tp949
a(g123
g123
g123
g5
g5
tp950
a(S'than'
p951
S'than'
p952
S'IN'
p953
S'B-PP'
p954
g5
tp955
a(S'control'
p956
S'control'
p957
S'NN'
p958
S'B-NP'
p959
g5
tp960
a(S'and'
p961
S'and'
p962
S'CC'
p963
S'I-NP'
p964
g5
tp965
a(S'HS-30'
p966
S'HS-30'
p967
S'NN'
p968
S'I-NP'
p969
S'B-DNA'
p970
tp971
a(S'heifers'
p972
S'heifer'
p973
S'NNS'
p974
S'I-NP'
p975
g5
tp976
a(S'at'
p977
S'at'
p978
S'IN'
p979
S'B-PP'
p980
g5
tp981
a(S'the'
p982
S'the'
p983
S'DT'
p984
S'B-NP'
p985
g5
tp986
a(S'beginning'
p987
S'beginning'
p988
S'NN'
p989
S'I-NP'
p990
g5
tp991
a(S'of'
p992
S'of'
p993
S'IN'
p994
S'B-PP'
p995
g5
tp996
a(S'the'
p997
S'the'
p998
S'DT'
p999
S'B-NP'
p1000
g5
tp1001
a(S'breeding'
p1002
S'breed'
p1003
S'VBG'
p1004
S'I-NP'
p1005
g5
tp1006
a(S'season.'
p1007
S'season.'
p1008
S'NN'
p1009
S'I-NP'
p1010
g5
tp1011
a(S'Thirty-one'
p1012
S'Thirty-one'
p1013
S'CD'
p1014
S'I-NP'
p1015
g5
tp1016
a(g238
g238
g238
S'I-NP'
p1017
g5
tp1018
a(S'25'
p1019
S'25'
p1020
S'CD'
p1021
S'I-NP'
p1022
g5
tp1023
a(g238
g238
g238
g5
g5
tp1024
a(S'and'
p1025
S'and'
p1026
S'CC'
p1027
g5
g5
tp1028
a(S'26'
p1029
S'26'
p1030
S'CD'
p1031
S'B-NP'
p1032
g5
tp1033
a(g346
g346
S'NN'
p1034
S'I-NP'
p1035
g5
tp1036
a(S'more'
p1037
S'more'
p1038
S'JJR'
p1039
S'B-NP'
p1040
g5
tp1041
a(S'HS-60'
p1042
S'HS-60'
p1043
S'NN'
p1044
S'I-NP'
p1045
S'B-DNA'
p1046
tp1047
a(S'heifers'
p1048
S'heifer'
p1049
S'NNS'
p1050
S'I-NP'
p1051
g5
tp1052
a(S'were'
p1053
S'be'
p1054
S'VBD'
p1055
S'B-VP'
p1056
g5
tp1057
a(S'pubertal'
p1058
S'pubertal'
p1059
S'JJ'
p1060
S'B-ADJP'
p1061
g5
tp1062
a(g108
g108
g108
g5
g5
tp1063
a(g938
g938
S'NN'
p1064
S'B-NP'
p1065
g5
tp1066
a(g942
g942
S'SYM'
p1067
g5
g5
tp1068
a(S'0.05'
p1069
S'0.05'
p1070
S'CD'
p1071
S'B-NP'
p1072
g5
tp1073
a(g123
g123
g123
g5
g5
tp1074
a(S'on'
p1075
S'on'
p1076
S'IN'
p1077
S'B-PP'
p1078
g5
tp1079
a(S'May'
p1080
S'May'
p1081
S'NNP'
p1082
S'B-NP'
p1083
g5
tp1084
a(g234
g234
S'CD'
p1085
S'I-NP'
p1086
g5
tp1087
a(S'compared'
p1088
S'compare'
p1089
S'VBN'
p1090
S'B-PP'
p1091
g5
tp1092
a(S'with'
p1093
S'with'
p1094
S'IN'
p1095
S'B-PP'
p1096
g5
tp1097
a(S'LS-30'
p1098
S'LS-30'
p1099
S'NN'
p1100
S'B-NP'
p1101
S'B-protein'
p1102
tp1103
a(g238
g238
g238
g5
g5
tp1104
a(S'HS-30'
p1105
S'HS-30'
p1106
S'NN'
p1107
S'B-NP'
p1108
S'B-DNA'
p1109
tp1110
a(g238
g238
g238
g5
g5
tp1111
a(S'and'
p1112
S'and'
p1113
S'CC'
p1114
g5
g5
tp1115
a(S'control'
p1116
S'control'
p1117
S'NN'
p1118
S'B-NP'
p1119
g5
tp1120
a(S'heifers'
p1121
S'heifer'
p1122
S'NNS'
p1123
S'I-NP'
p1124
g5
tp1125
a(g238
g238
g238
g5
g5
tp1126
a(S'respectively.'
p1127
S'respectively.'
p1128
S'NN'
p1129
S'B-NP'
p1130
g5
tp1131
a(S'At'
p1132
S'At'
p1133
S'IN'
p1134
S'B-PP'
p1135
g5
tp1136
a(S'puberty'
p1137
S'puberty'
p1138
S'NN'
p1139
S'B-NP'
p1140
g5
tp1141
a(g238
g238
g238
g5
g5
tp1142
a(S'HS-60'
p1143
S'HS-60'
p1144
S'NN'
p1145
S'B-NP'
p1146
S'B-DNA'
p1147
tp1148
a(S'heifers'
p1149
S'heifer'
p1150
S'NNS'
p1151
S'I-NP'
p1152
g5
tp1153
a(S'were'
p1154
S'be'
p1155
S'VBD'
p1156
S'B-VP'
p1157
g5
tp1158
a(S'24'
p1159
S'24'
p1160
S'CD'
p1161
S'B-NP'
p1162
g5
tp1163
a(S'and'
p1164
S'and'
p1165
S'CC'
p1166
S'I-NP'
p1167
g5
tp1168
a(S'22'
p1169
S'22'
p1170
S'CD'
p1171
S'I-NP'
p1172
g5
tp1173
a(g628
g628
S'NN'
p1174
S'I-NP'
p1175
g5
tp1176
a(S'younger'
p1177
S'young'
p1178
S'JJR'
p1179
S'B-ADJP'
p1180
g5
tp1181
a(g108
g108
g108
g5
g5
tp1182
a(g938
g938
S'NN'
p1183
S'B-NP'
p1184
g5
tp1185
a(g942
g942
S'SYM'
p1186
g5
g5
tp1187
a(S'0.05'
p1188
S'0.05'
p1189
S'CD'
p1190
S'B-NP'
p1191
g5
tp1192
a(g123
g123
g123
g5
g5
tp1193
a(S'than'
p1194
S'than'
p1195
S'IN'
p1196
S'B-PP'
p1197
g5
tp1198
a(S'LS-30'
p1199
S'LS-30'
p1200
S'NN'
p1201
S'B-NP'
p1202
S'B-protein'
p1203
tp1204
a(S'and'
p1205
S'and'
p1206
S'CC'
p1207
S'I-NP'
p1208
g5
tp1209
a(S'control'
p1210
S'control'
p1211
S'NN'
p1212
S'I-NP'
p1213
g5
tp1214
a(S'heifers'
p1215
S'heifer'
p1216
S'NNS'
p1217
S'I-NP'
p1218
g5
tp1219
a(g238
g238
g238
g5
g5
tp1220
a(S'and'
p1221
S'and'
p1222
S'CC'
p1223
g5
g5
tp1224
a(S'31'
p1225
S'31'
p1226
S'CD'
p1227
S'B-NP'
p1228
g5
tp1229
a(S'kg'
p1230
S'kg'
p1231
S'NN'
p1232
S'I-NP'
p1233
g5
tp1234
a(S'lighter'
p1235
S'lighter'
p1236
S'NN'
p1237
S'I-NP'
p1238
g5
tp1239
a(g108
g108
g108
g5
g5
tp1240
a(g938
g938
S'NN'
p1241
S'B-NP'
p1242
g5
tp1243
a(g942
g942
S'SYM'
p1244
g5
g5
tp1245
a(S'0.01'
p1246
S'0.01'
p1247
S'CD'
p1248
S'B-NP'
p1249
g5
tp1250
a(g123
g123
g123
g5
g5
tp1251
a(S'than'
p1252
S'than'
p1253
S'IN'
p1254
S'B-PP'
p1255
g5
tp1256
a(S'LS-30'
p1257
S'LS-30'
p1258
S'NN'
p1259
S'B-NP'
p1260
S'B-protein'
p1261
tp1262
a(S'heifers.'
p1263
S'heifers.'
p1264
S'NN'
p1265
S'I-NP'
p1266
g5
tp1267
a(S'In'
p1268
S'In'
p1269
S'IN'
p1270
S'B-PP'
p1271
g5
tp1272
a(S'Exp.'
p1273
S'Exp.'
p1274
S'NNP'
p1275
S'B-NP'
p1276
g5
tp1277
a(g546
g546
S'CD'
p1278
S'I-NP'
p1279
g5
tp1280
a(g238
g238
g238
g5
g5
tp1281
a(S'heifers'
p1282
S'heifer'
p1283
S'VBZ'
p1284
S'B-VP'
p1285
g5
tp1286
a(S'grazed'
p1287
S'graze'
p1288
S'VBN'
p1289
S'I-VP'
p1290
g5
tp1291
a(S'dormant'
p1292
S'dormant'
p1293
S'JJ'
p1294
S'B-NP'
p1295
g5
tp1296
a(S'pasture'
p1297
S'pasture'
p1298
S'NN'
p1299
S'I-NP'
p1300
g5
tp1301
a(S'and'
p1302
S'and'
p1303
S'CC'
p1304
g5
g5
tp1305
a(S'were'
p1306
S'be'
p1307
S'VBD'
p1308
S'B-VP'
p1309
g5
tp1310
a(S'fed'
p1311
S'feed'
p1312
S'VBN'
p1313
S'I-VP'
p1314
g5
tp1315
a(S'0.9'
p1316
S'0.9'
p1317
S'CD'
p1318
S'B-NP'
p1319
g5
tp1320
a(S'kg'
p1321
S'kg'
p1322
S'NN'
p1323
S'I-NP'
p1324
g5
tp1325
a(g108
g108
g108
g5
g5
tp1326
a(S'as-fed'
p1327
S'as-fed'
p1328
S'JJ'
p1329
S'B-NP'
p1330
g5
tp1331
a(S'basis'
p1332
S'basis'
p1333
S'NN'
p1334
S'I-NP'
p1335
g5
tp1336
a(g123
g123
g123
g5
g5
tp1337
a(S'of'
p1338
S'of'
p1339
S'IN'
p1340
S'B-PP'
p1341
g5
tp1342
a(g337
g337
S'DT'
p1343
S'B-NP'
p1344
g5
tp1345
a(S'42'
p1346
S'42'
p1347
S'CD'
p1348
S'I-NP'
p1349
g5
tp1350
a(g346
g346
S'NN'
p1351
S'I-NP'
p1352
g5
tp1353
a(S'CP'
p1354
S'CP'
p1355
S'NN'
p1356
S'I-NP'
p1357
g5
tp1358
a(S'supplement/d'
p1359
S'supplement/d'
p1360
S'NN'
p1361
S'I-NP'
p1362
g5
tp1363
a(S'from'
p1364
S'from'
p1365
S'IN'
p1366
S'B-PP'
p1367
g5
tp1368
a(S'weaning'
p1369
S'wean'
p1370
S'VBG'
p1371
S'B-VP'
p1372
g5
tp1373
a(S'in'
p1374
S'in'
p1375
S'IN'
p1376
S'B-PP'
p1377
g5
tp1378
a(S'October'
p1379
S'October'
p1380
S'NNP'
p1381
S'B-NP'
p1382
g5
tp1383
a(S'to'
p1384
S'to'
p1385
S'TO'
p1386
S'B-VP'
p1387
g5
tp1388
a(S'late'
p1389
S'late'
p1390
S'VB'
p1391
S'I-VP'
p1392
g5
tp1393
a(S'February'
p1394
S'February'
p1395
S'NNP'
p1396
S'B-NP'
p1397
g5
tp1398
a(g265
g265
g266
g5
g5
tp1399
a(S'then'
p1400
S'then'
p1401
S'RB'
p1402
S'B-NP'
p1403
g5
tp1404
a(S'heifers'
p1405
S'heifer'
p1406
S'NNS'
p1407
S'I-NP'
p1408
g5
tp1409
a(S'were'
p1410
S'be'
p1411
S'VBD'
p1412
S'B-VP'
p1413
g5
tp1414
a(S'assigned'
p1415
S'assign'
p1416
S'VBN'
p1417
S'I-VP'
p1418
g5
tp1419
a(S'randomly'
p1420
S'randomly'
p1421
S'RB'
p1422
S'B-ADVP'
p1423
g5
tp1424
a(S'to'
p1425
S'to'
p1426
S'TO'
p1427
S'B-PP'
p1428
g5
tp1429
a(S'treatments'
p1430
S'treatment'
p1431
S'NNS'
p1432
S'B-NP'
p1433
g5
tp1434
a(S'for'
p1435
S'for'
p1436
S'IN'
p1437
S'B-PP'
p1438
g5
tp1439
a(S'60'
p1440
S'60'
p1441
S'CD'
p1442
S'B-NP'
p1443
g5
tp1444
a(g628
g628
S'NN'
p1445
S'I-NP'
p1446
g5
tp1447
a(S'before'
p1448
S'before'
p1449
S'IN'
p1450
S'B-PP'
p1451
g5
tp1452
a(S'the'
p1453
S'the'
p1454
S'DT'
p1455
S'B-NP'
p1456
g5
tp1457
a(S'breeding'
p1458
S'breeding'
p1459
S'NN'
p1460
S'I-NP'
p1461
g5
tp1462
a(S'season.'
p1463
S'season.'
p1464
S'NN'
p1465
S'I-NP'
p1466
g5
tp1467
a(S'In'
p1468
S'In'
p1469
S'IN'
p1470
S'B-PP'
p1471
g5
tp1472
a(S'two'
p1473
S'two'
p1474
S'CD'
p1475
S'B-NP'
p1476
g5
tp1477
a(S'years'
p1478
S'year'
p1479
S'NNS'
p1480
S'I-NP'
p1481
g5
tp1482
a(g238
g238
g238
g5
g5
tp1483
a(S'control'
p1484
S'control'
p1485
S'NN'
p1486
S'B-NP'
p1487
g5
tp1488
a(S'heifers'
p1489
S'heifer'
p1490
S'NNS'
p1491
S'I-NP'
p1492
g5
tp1493
a(g108
g108
g108
g5
g5
tp1494
a(g110
g110
S'NN'
p1495
S'B-NP'
p1496
g5
tp1497
a(g114
g114
S'SYM'
p1498
S'B-VP'
p1499
g5
tp1500
a(S'46'
p1501
S'46'
p1502
S'CD'
p1503
S'B-NP'
p1504
g5
tp1505
a(g123
g123
g123
g5
g5
tp1506
a(S'grazed'
p1507
S'graze'
p1508
S'VBD'
p1509
S'B-VP'
p1510
g5
tp1511
a(S'pasture'
p1512
S'pasture'
p1513
S'NN'
p1514
S'B-NP'
p1515
g5
tp1516
a(S'and'
p1517
S'and'
p1518
S'CC'
p1519
g5
g5
tp1520
a(S'received'
p1521
S'receive'
p1522
S'VBD'
p1523
S'B-VP'
p1524
g5
tp1525
a(S'0.9'
p1526
S'0.9'
p1527
S'CD'
p1528
S'B-NP'
p1529
g5
tp1530
a(S'kg'
p1531
S'kg'
p1532
S'NN'
p1533
S'I-NP'
p1534
g5
tp1535
a(S'of'
p1536
S'of'
p1537
S'IN'
p1538
S'B-PP'
p1539
g5
tp1540
a(S'SBM'
p1541
S'SBM'
p1542
S'NN'
p1543
S'B-NP'
p1544
g5
tp1545
a(S'supplement/d'
p1546
S'supplement/d'
p1547
S'NN'
p1548
S'I-NP'
p1549
g5
tp1550
a(g265
g265
g266
g5
g5
tp1551
a(S'LS'
p1552
S'LS'
p1553
S'NN'
p1554
S'B-NP'
p1555
g5
tp1556
a(g108
g108
g108
g5
g5
tp1557
a(g110
g110
S'NN'
p1558
S'B-NP'
p1559
g5
tp1560
a(g114
g114
S'SYM'
p1561
S'B-VP'
p1562
g5
tp1563
a(S'46'
p1564
S'46'
p1565
S'CD'
p1566
S'B-NP'
p1567
g5
tp1568
a(g123
g123
g123
g5
g5
tp1569
a(S'heifers'
p1570
S'heifer'
p1571
S'NNS'
p1572
S'B-NP'
p1573
g5
tp1574
a(S'were'
p1575
S'be'
p1576
S'VBD'
p1577
S'B-VP'
p1578
g5
tp1579
a(S'self-fed'
p1580
S'self-fed'
p1581
S'JJ'
p1582
S'B-ADJP'
p1583
g5
tp1584
a(g337
g337
S'DT'
p1585
S'B-NP'
p1586
g5
tp1587
a(S'distiller'
p1588
S'distiller'
p1589
S'NN'
p1590
S'I-NP'
p1591
g5
tp1592
a(S"'s"
p1593
S"'s"
p1594
S'POS'
p1595
S'B-NP'
p1596
g5
tp1597
a(S'grain'
p1598
S'grain'
p1599
S'NN'
p1600
S'I-NP'
p1601
g5
tp1602
a(S'and'
p1603
S'and'
p1604
S'CC'
p1605
S'I-NP'
p1606
g5
tp1607
a(S'soybean'
p1608
S'soybean'
p1609
S'NN'
p1610
S'I-NP'
p1611
g5
tp1612
a(S'hull-based'
p1613
S'hull-based'
p1614
S'JJ'
p1615
S'I-NP'
p1616
g5
tp1617
a(S'diet'
p1618
S'diet'
p1619
S'NN'
p1620
S'I-NP'
p1621
g5
tp1622
a(S'in'
p1623
S'in'
p1624
S'IN'
p1625
S'B-PP'
p1626
g5
tp1627
a(S'drylot'
p1628
S'drylot'
p1629
S'NN'
p1630
S'B-NP'
p1631
g5
tp1632
a(g265
g265
g266
g5
g5
tp1633
a(S'and'
p1634
S'and'
p1635
S'CC'
p1636
g5
g5
tp1637
a(S'HS'
p1638
S'HS'
p1639
S'NN'
p1640
S'B-NP'
p1641
g5
tp1642
a(S'heifers'
p1643
S'heifer'
p1644
S'NNS'
p1645
S'I-NP'
p1646
g5
tp1647
a(g108
g108
g108
g5
g5
tp1648
a(g110
g110
S'NN'
p1649
S'B-NP'
p1650
g5
tp1651
a(g114
g114
S'SYM'
p1652
S'B-VP'
p1653
g5
tp1654
a(S'46'
p1655
S'46'
p1656
S'CD'
p1657
S'B-NP'
p1658
g5
tp1659
a(g123
g123
g123
g5
g5
tp1660
a(S'were'
p1661
S'be'
p1662
S'VBD'
p1663
S'B-VP'
p1664
g5
tp1665
a(S'limited-fed'
p1666
S'limited-fed'
p1667
S'JJ'
p1668
S'B-ADJP'
p1669
g5
tp1670
a(g337
g337
S'DT'
p1671
S'B-NP'
p1672
g5
tp1673
a(S'corn-based'
p1674
S'corn-based'
p1675
S'JJ'
p1676
S'I-NP'
p1677
g5
tp1678
a(S'diet'
p1679
S'diet'
p1680
S'NN'
p1681
S'I-NP'
p1682
g5
tp1683
a(S'in'
p1684
S'in'
p1685
S'IN'
p1686
S'B-PP'
p1687
g5
tp1688
a(S'drylot.'
p1689
S'drylot.'
p1690
S'NN'
p1691
S'B-NP'
p1692
g5
tp1693
a(S'During'
p1694
S'During'
p1695
S'IN'
p1696
S'B-PP'
p1697
g5
tp1698
a(S'treatment'
p1699
S'treatment'
p1700
S'NN'
p1701
S'B-NP'
p1702
g5
tp1703
a(g238
g238
g238
g5
g5
tp1704
a(S'HS'
p1705
S'HS'
p1706
S'NN'
p1707
S'B-NP'
p1708
g5
tp1709
a(S'and'
p1710
S'and'
p1711
S'CC'
p1712
S'I-NP'
p1713
g5
tp1714
a(S'LS'
p1715
S'LS'
p1716
S'NN'
p1717
S'I-NP'
p1718
g5
tp1719
a(S'heifers'
p1720
S'heifer'
p1721
S'NNS'
p1722
S'I-NP'
p1723
g5
tp1724
a(S'had'
p1725
S'have'
p1726
S'VBD'
p1727
S'B-VP'
p1728
g5
tp1729
a(S'greater'
p1730
S'great'
p1731
S'JJR'
p1732
S'B-NP'
p1733
g5
tp1734
a(S'weight'
p1735
S'weight'
p1736
S'NN'
p1737
S'I-NP'
p1738
g5
tp1739
a(S'gains'
p1740
S'gain'
p1741
S'NNS'
p1742
S'I-NP'
p1743
g5
tp1744
a(S'than'
p1745
S'than'
p1746
S'IN'
p1747
S'B-PP'
p1748
g5
tp1749
a(S'control'
p1750
S'control'
p1751
S'NN'
p1752
S'B-NP'
p1753
g5
tp1754
a(S'heifers.'
p1755
S'heifers.'
p1756
S'NN'
p1757
S'I-NP'
p1758
g5
tp1759
a(S'Pubertal'
p1760
S'Pubertal'
p1761
S'NNP'
p1762
S'I-NP'
p1763
g5
tp1764
a(S'BW'
p1765
S'BW'
p1766
S'NNP'
p1767
S'I-NP'
p1768
g5
tp1769
a(g108
g108
g108
g5
g5
tp1770
a(S'313'
p1771
S'313'
p1772
S'CD'
p1773
S'B-NP'
p1774
g5
tp1775
a(S'+/-'
p1776
S'+/-'
p1777
S'SYM'
p1778
S'I-NP'
p1779
g5
tp1780
a(S'6'
p1781
g1781
S'CD'
p1782
S'I-NP'
p1783
g5
tp1784
a(S'kg'
p1785
S'kg'
p1786
S'NN'
p1787
S'I-NP'
p1788
g5
tp1789
a(g123
g123
g123
g5
g5
tp1790
a(S'was'
p1791
S'be'
p1792
S'VBD'
p1793
S'B-VP'
p1794
g5
tp1795
a(S'not'
p1796
S'not'
p1797
S'RB'
p1798
S'I-VP'
p1799
g5
tp1800
a(S'influenced'
p1801
S'influence'
p1802
S'VBN'
p1803
S'I-VP'
p1804
g5
tp1805
a(S'by'
p1806
S'by'
p1807
S'IN'
p1808
S'B-PP'
p1809
g5
tp1810
a(S'treatment'
p1811
S'treatment'
p1812
S'NN'
p1813
S'B-NP'
p1814
g5
tp1815
a(g238
g238
g238
g5
g5
tp1816
a(S'but'
p1817
S'but'
p1818
S'CC'
p1819
g5
g5
tp1820
a(S'HS'
p1821
S'HS'
p1822
S'NN'
p1823
S'B-NP'
p1824
g5
tp1825
a(S'and'
p1826
S'and'
p1827
S'CC'
p1828
S'I-NP'
p1829
g5
tp1830
a(S'LS'
p1831
S'LS'
p1832
S'NN'
p1833
S'I-NP'
p1834
g5
tp1835
a(S'heifers'
p1836
S'heifer'
p1837
S'NNS'
p1838
S'I-NP'
p1839
g5
tp1840
a(S'were'
p1841
S'be'
p1842
S'VBD'
p1843
S'B-VP'
p1844
g5
tp1845
a(S'younger'
p1846
S'young'
p1847
S'JJR'
p1848
S'B-ADJP'
p1849
g5
tp1850
a(g108
g108
g108
g5
g5
tp1851
a(g938
g938
S'NN'
p1852
S'B-NP'
p1853
g5
tp1854
a(g942
g942
S'SYM'
p1855
g5
g5
tp1856
a(S'0.03'
p1857
S'0.03'
p1858
S'CD'
p1859
S'B-NP'
p1860
g5
tp1861
a(g123
g123
g123
g5
g5
tp1862
a(S'than'
p1863
S'than'
p1864
S'IN'
p1865
S'B-PP'
p1866
g5
tp1867
a(S'control'
p1868
S'control'
p1869
S'NN'
p1870
S'B-NP'
p1871
g5
tp1872
a(S'heifers'
p1873
S'heifer'
p1874
S'NNS'
p1875
S'I-NP'
p1876
g5
tp1877
a(S'at'
p1878
S'at'
p1879
S'IN'
p1880
S'B-PP'
p1881
g5
tp1882
a(S'puberty.'
p1883
S'puberty.'
p1884
S'NN'
p1885
S'B-NP'
p1886
g5
tp1887
a(S'During'
p1888
S'During'
p1889
S'IN'
p1890
S'B-PP'
p1891
g5
tp1892
a(g337
g337
S'DT'
p1893
S'B-NP'
p1894
g5
tp1895
a(S'60-d'
p1896
S'60-d'
p1897
S'JJ'
p1898
S'I-NP'
p1899
g5
tp1900
a(S'breeding'
p1901
S'breeding'
p1902
S'NN'
p1903
S'I-NP'
p1904
g5
tp1905
a(S'period'
p1906
S'period'
p1907
S'NN'
p1908
S'I-NP'
p1909
g5
tp1910
a(g238
g238
g238
g5
g5
tp1911
a(S'the'
p1912
S'the'
p1913
S'DT'
p1914
S'B-NP'
p1915
g5
tp1916
a(S'incidence'
p1917
S'incidence'
p1918
S'NN'
p1919
S'I-NP'
p1920
g5
tp1921
a(S'of'
p1922
S'of'
p1923
S'IN'
p1924
S'B-PP'
p1925
g5
tp1926
a(S'puberty'
p1927
S'puberty'
p1928
S'NN'
p1929
S'B-NP'
p1930
g5
tp1931
a(S'was'
p1932
S'be'
p1933
S'VBD'
p1934
S'B-VP'
p1935
g5
tp1936
a(S'greater'
p1937
S'great'
p1938
S'JJR'
p1939
S'B-ADJP'
p1940
g5
tp1941
a(g108
g108
g108
g5
g5
tp1942
a(g938
g938
S'NN'
p1943
S'B-NP'
p1944
g5
tp1945
a(g942
g942
S'SYM'
p1946
g5
g5
tp1947
a(S'0.05'
p1948
S'0.05'
p1949
S'CD'
p1950
S'B-NP'
p1951
g5
tp1952
a(g123
g123
g123
g5
g5
tp1953
a(S'for'
p1954
S'for'
p1955
S'IN'
p1956
S'B-PP'
p1957
g5
tp1958
a(S'HS'
p1959
S'HS'
p1960
S'NN'
p1961
S'B-NP'
p1962
g5
tp1963
a(S'and'
p1964
S'and'
p1965
S'CC'
p1966
S'I-NP'
p1967
g5
tp1968
a(S'LS'
p1969
S'LS'
p1970
S'NN'
p1971
S'I-NP'
p1972
g5
tp1973
a(S'heifers'
p1974
S'heifer'
p1975
S'NNS'
p1976
S'I-NP'
p1977
g5
tp1978
a(S'than'
p1979
S'than'
p1980
S'IN'
p1981
S'B-PP'
p1982
g5
tp1983
a(S'for'
p1984
S'for'
p1985
S'IN'
p1986
S'B-PP'
p1987
g5
tp1988
a(S'control'
p1989
S'control'
p1990
S'NN'
p1991
S'B-NP'
p1992
g5
tp1993
a(S'heifers'
p1994
S'heifer'
p1995
S'NNS'
p1996
S'I-NP'
p1997
g5
tp1998
a(S'and'
p1999
S'and'
p2000
S'CC'
p2001
g5
g5
tp2002
a(S'was'
p2003
S'be'
p2004
S'VBD'
p2005
S'B-VP'
p2006
g5
tp2007
a(S'greater'
p2008
S'great'
p2009
S'JJR'
p2010
S'B-ADJP'
p2011
g5
tp2012
a(g108
g108
g108
g5
g5
tp2013
a(g938
g938
S'NN'
p2014
S'B-NP'
p2015
g5
tp2016
a(g942
g942
S'SYM'
p2017
g5
g5
tp2018
a(S'0.05'
p2019
S'0.05'
p2020
S'CD'
p2021
S'B-NP'
p2022
g5
tp2023
a(g123
g123
g123
g5
g5
tp2024
a(S'in'
p2025
S'in'
p2026
S'IN'
p2027
S'B-PP'
p2028
g5
tp2029
a(S'HS'
p2030
S'HS'
p2031
S'NN'
p2032
S'B-NP'
p2033
g5
tp2034
a(S'than'
p2035
S'than'
p2036
S'IN'
p2037
S'B-PP'
p2038
g5
tp2039
a(S'in'
p2040
S'in'
p2041
S'IN'
p2042
S'B-PP'
p2043
g5
tp2044
a(S'LS'
p2045
S'LS'
p2046
S'NN'
p2047
S'B-NP'
p2048
g5
tp2049
a(S'heifers'
p2050
S'heifer'
p2051
S'NNS'
p2052
S'I-NP'
p2053
g5
tp2054
a(S'in'
p2055
S'in'
p2056
S'IN'
p2057
S'B-PP'
p2058
g5
tp2059
a(S'Year'
p2060
S'Year'
p2061
S'NN'
p2062
S'B-NP'
p2063
g5
tp2064
a(S'1.'
p2065
S'1.'
p2066
S'CD'
p2067
S'I-NP'
p2068
g5
tp2069
a(S'Feeding'
p2070
S'Feed'
p2071
S'VBG'
p2072
S'B-VP'
p2073
g5
tp2074
a(g337
g337
S'DT'
p2075
S'B-NP'
p2076
g5
tp2077
a(S'LS'
p2078
S'LS'
p2079
S'NN'
p2080
S'I-NP'
p2081
g5
tp2082
a(S'or'
p2083
S'or'
p2084
S'CC'
p2085
g5
g5
tp2086
a(g337
g337
S'DT'
p2087
S'B-NP'
p2088
g5
tp2089
a(S'HS'
p2090
S'HS'
p2091
S'NN'
p2092
S'I-NP'
p2093
g5
tp2094
a(S'diet'
p2095
S'diet'
p2096
S'NN'
p2097
S'I-NP'
p2098
g5
tp2099
a(S'for'
p2100
S'for'
p2101
S'IN'
p2102
S'B-PP'
p2103
g5
tp2104
a(S'30'
p2105
S'30'
p2106
S'CD'
p2107
S'B-NP'
p2108
g5
tp2109
a(g628
g628
S'NN'
p2110
S'I-NP'
p2111
g5
tp2112
a(S'before'
p2113
S'before'
p2114
S'IN'
p2115
S'B-PP'
p2116
g5
tp2117
a(S'breeding'
p2118
S'breeding'
p2119
S'NN'
p2120
S'B-NP'
p2121
g5
tp2122
a(S'may'
p2123
S'may'
p2124
S'MD'
p2125
S'B-VP'
p2126
g5
tp2127
a(S'be'
p2128
S'be'
p2129
S'VB'
p2130
S'I-VP'
p2131
g5
tp2132
a(S'inadequate'
p2133
S'inadequate'
p2134
S'JJ'
p2135
S'B-ADJP'
p2136
g5
tp2137
a(S'to'
p2138
S'to'
p2139
S'TO'
p2140
S'B-VP'
p2141
g5
tp2142
a(S'stimulate'
p2143
S'stimulate'
p2144
S'VB'
p2145
S'I-VP'
p2146
g5
tp2147
a(S'puberty'
p2148
S'puberty'
p2149
S'NN'
p2150
S'B-NP'
p2151
g5
tp2152
a(S'in'
p2153
S'in'
p2154
S'IN'
p2155
S'B-PP'
p2156
g5
tp2157
a(S'beef'
p2158
S'beef'
p2159
S'NN'
p2160
S'B-NP'
p2161
g5
tp2162
a(S'heifers'
p2163
S'heifer'
p2164
S'NNS'
p2165
S'I-NP'
p2166
g5
tp2167
a(g238
g238
g238
g5
g5
tp2168
a(S'but'
p2169
S'but'
p2170
S'CC'
p2171
g5
g5
tp2172
a(S'feeding'
p2173
S'feed'
p2174
S'VBG'
p2175
S'B-VP'
p2176
g5
tp2177
a(g337
g337
S'DT'
p2178
S'B-NP'
p2179
g5
tp2180
a(S'diet'
p2181
S'diet'
p2182
S'NN'
p2183
S'I-NP'
p2184
g5
tp2185
a(S'with'
p2186
S'with'
p2187
S'IN'
p2188
S'B-PP'
p2189
g5
tp2190
a(g337
g337
S'DT'
p2191
S'B-NP'
p2192
g5
tp2193
a(S'greater'
p2194
S'great'
p2195
S'JJR'
p2196
S'I-NP'
p2197
g5
tp2198
a(S'amount'
p2199
S'amount'
p2200
S'NN'
p2201
S'I-NP'
p2202
g5
tp2203
a(S'of'
p2204
S'of'
p2205
S'IN'
p2206
S'B-PP'
p2207
g5
tp2208
a(S'starch'
p2209
S'starch'
p2210
S'NN'
p2211
S'B-NP'
p2212
g5
tp2213
a(S'for'
p2214
S'for'
p2215
S'IN'
p2216
S'B-PP'
p2217
g5
tp2218
a(S'60'
p2219
S'60'
p2220
S'CD'
p2221
S'B-NP'
p2222
g5
tp2223
a(g628
g628
S'NN'
p2224
S'I-NP'
p2225
g5
tp2226
a(S'before'
p2227
S'before'
p2228
S'IN'
p2229
S'B-PP'
p2230
g5
tp2231
a(S'breeding'
p2232
S'breeding'
p2233
S'NN'
p2234
S'B-NP'
p2235
g5
tp2236
a(S'may'
p2237
S'may'
p2238
S'MD'
p2239
S'B-VP'
p2240
g5
tp2241
a(S'increase'
p2242
S'increase'
p2243
S'VB'
p2244
S'I-VP'
p2245
g5
tp2246
a(S'the'
p2247
S'the'
p2248
S'DT'
p2249
S'B-NP'
p2250
g5
tp2251
a(S'incidence'
p2252
S'incidence'
p2253
S'NN'
p2254
S'I-NP'
p2255
g5
tp2256
a(S'of'
p2257
S'of'
p2258
S'IN'
p2259
S'B-PP'
p2260
g5
tp2261
a(S'puberty'
p2262
S'puberty'
p2263
S'NN'
p2264
S'B-NP'
p2265
g5
tp2266
a(S'during'
p2267
S'during'
p2268
S'IN'
p2269
S'B-PP'
p2270
g5
tp2271
a(S'breeding'
p2272
S'breeding'
p2273
S'NN'
p2274
S'B-NP'
p2275
g5
tp2276
a(S'of'
p2277
S'of'
p2278
S'IN'
p2279
S'B-PP'
p2280
g5
tp2281
a(S'heifers'
p2282
S'heifer'
p2283
S'NNS'
p2284
S'B-NP'
p2285
g5
tp2286
a(S'that'
p2287
S'that'
p2288
S'WDT'
p2289
S'B-NP'
p2290
g5
tp2291
a(S'have'
p2292
S'have'
p2293
S'VBP'
p2294
S'B-VP'
p2295
g5
tp2296
a(S'inadequate'
p2297
S'inadequate'
p2298
S'JJ'
p2299
S'B-NP'
p2300
g5
tp2301
a(S'yearling'
p2302
S'yearling'
p2303
S'JJ'
p2304
S'I-NP'
p2305
g5
tp2306
a(S'weight'
p2307
S'weight'
p2308
S'NN'
p2309
S'I-NP'
p2310
g5
tp2311
a(g82
g82
g82
g5
g5
tp2312
a.