(lp0
(S'Enhanced'
p1
S'Enhance'
p2
S'VBN'
p3
S'B-NP'
p4
S'O'
p5
tp6
a(S'inotropic'
p7
S'inotropic'
p8
S'JJ'
p9
S'I-NP'
p10
g5
tp11
a(S'state'
p12
S'state'
p13
S'NN'
p14
S'I-NP'
p15
g5
tp16
a(S'of'
p17
S'of'
p18
S'IN'
p19
S'B-PP'
p20
g5
tp21
a(S'the'
p22
S'the'
p23
S'DT'
p24
S'B-NP'
p25
g5
tp26
a(S'failing'
p27
S'fail'
p28
S'VBG'
p29
S'I-NP'
p30
g5
tp31
a(S'left'
p32
S'left'
p33
S'JJ'
p34
S'I-NP'
p35
g5
tp36
a(S'ventricle'
p37
S'ventricle'
p38
S'NN'
p39
S'I-NP'
p40
g5
tp41
a(S'by'
p42
S'by'
p43
S'IN'
p44
S'B-PP'
p45
g5
tp46
a(S'cardiac'
p47
S'cardiac'
p48
S'JJ'
p49
S'B-NP'
p50
g5
tp51
a(S'contractility'
p52
S'contractility'
p53
S'NN'
p54
S'I-NP'
p55
g5
tp56
a(S'modulation'
p57
S'modulation'
p58
S'NN'
p59
S'I-NP'
p60
g5
tp61
a(S'electrical'
p62
S'electrical'
p63
S'JJ'
p64
S'I-NP'
p65
g5
tp66
a(S'signals'
p67
S'signal'
p68
S'NNS'
p69
S'I-NP'
p70
g5
tp71
a(S'is'
p72
S'be'
p73
S'VBZ'
p74
S'B-VP'
p75
g5
tp76
a(S'not'
p77
S'not'
p78
S'RB'
p79
S'I-VP'
p80
g5
tp81
a(S'associated'
p82
S'associate'
p83
S'VBN'
p84
S'I-VP'
p85
g5
tp86
a(S'with'
p87
S'with'
p88
S'IN'
p89
S'B-PP'
p90
g5
tp91
a(S'increased'
p92
S'increase'
p93
S'VBN'
p94
S'B-NP'
p95
g5
tp96
a(S'myocardial'
p97
S'myocardial'
p98
S'JJ'
p99
S'I-NP'
p100
g5
tp101
a(S'oxygen'
p102
S'oxygen'
p103
S'NN'
p104
S'I-NP'
p105
g5
tp106
a(S'consumption'
p107
S'consumption'
p108
S'NN'
p109
S'I-NP'
p110
g5
tp111
a(S'.'
p112
g112
g112
g5
g5
tp113
a(S'BACKGROUND'
p114
S'BACKGROUND'
p115
S'NN'
p116
S'B-NP'
p117
g5
tp118
a(S'Previous'
p119
S'Previous'
p120
S'JJ'
p121
S'I-NP'
p122
g5
tp123
a(S'studies'
p124
S'study'
p125
S'NNS'
p126
S'I-NP'
p127
g5
tp128
a(S'in'
p129
S'in'
p130
S'IN'
p131
S'B-PP'
p132
g5
tp133
a(S'patients'
p134
S'patient'
p135
S'NNS'
p136
S'B-NP'
p137
g5
tp138
a(S'and'
p139
S'and'
p140
S'CC'
p141
S'B-PP'
p142
g5
tp143
a(S'in'
p144
S'in'
p145
S'IN'
p146
S'B-PP'
p147
g5
tp148
a(S'dogs'
p149
S'dog'
p150
S'NNS'
p151
S'B-NP'
p152
g5
tp153
a(S'with'
p154
S'with'
p155
S'IN'
p156
S'B-PP'
p157
g5
tp158
a(S'experimentally'
p159
S'experimentally'
p160
S'RB'
p161
S'B-NP'
p162
g5
tp163
a(S'induced'
p164
S'induce'
p165
S'VBN'
p166
S'I-NP'
p167
g5
tp168
a(S'heart'
p169
S'heart'
p170
S'NN'
p171
S'I-NP'
p172
g5
tp173
a(S'failure'
p174
S'failure'
p175
S'NN'
p176
S'I-NP'
p177
g5
tp178
a(S'('
p179
g179
g179
g5
g5
tp180
a(S'HF'
p181
S'HF'
p182
S'NN'
p183
S'B-NP'
p184
S'B-protein'
p185
tp186
a(S')'
p187
g187
g187
g5
g5
tp188
a(S'showed'
p189
S'show'
p190
S'VBD'
p191
S'B-VP'
p192
g5
tp193
a(S'that'
p194
S'that'
p195
S'IN'
p196
S'B-SBAR'
p197
g5
tp198
a(S'electrical'
p199
S'electrical'
p200
S'JJ'
p201
S'B-NP'
p202
g5
tp203
a(S'signals'
p204
S'signal'
p205
S'NNS'
p206
S'I-NP'
p207
g5
tp208
a(S'applied'
p209
S'apply'
p210
S'VBN'
p211
S'B-VP'
p212
g5
tp213
a(S'to'
p214
S'to'
p215
S'TO'
p216
S'B-PP'
p217
g5
tp218
a(S'the'
p219
S'the'
p220
S'DT'
p221
S'B-NP'
p222
g5
tp223
a(S'failing'
p224
S'fail'
p225
S'VBG'
p226
S'I-NP'
p227
g5
tp228
a(S'myocardium'
p229
S'myocardium'
p230
S'NN'
p231
S'I-NP'
p232
g5
tp233
a(S'during'
p234
S'during'
p235
S'IN'
p236
S'B-PP'
p237
g5
tp238
a(S'the'
p239
S'the'
p240
S'DT'
p241
S'B-NP'
p242
g5
tp243
a(S'absolute'
p244
S'absolute'
p245
S'JJ'
p246
S'I-NP'
p247
g5
tp248
a(S'refractory'
p249
S'refractory'
p250
S'JJ'
p251
S'I-NP'
p252
g5
tp253
a(S'period'
p254
S'period'
p255
S'NN'
p256
S'I-NP'
p257
g5
tp258
a(S'improved'
p259
S'improve'
p260
S'VBN'
p261
S'B-VP'
p262
g5
tp263
a(S'left'
p264
S'leave'
p265
S'VBD'
p266
S'B-VP'
p267
g5
tp268
a(S'ventricular'
p269
S'ventricular'
p270
S'JJ'
p271
S'B-ADJP'
p272
g5
tp273
a(g179
g179
g179
g5
g5
tp274
a(S'LV'
p275
S'LV'
p276
S'NN'
p277
S'B-NP'
p278
g5
tp279
a(g187
g187
g187
g5
g5
tp280
a(S'function.'
p281
S'function.'
p282
S'NN'
p283
S'B-NP'
p284
g5
tp285
a(S'We'
p286
S'We'
p287
S'PRP'
p288
S'B-NP'
p289
g5
tp290
a(S'examined'
p291
S'examine'
p292
S'VBD'
p293
S'B-VP'
p294
g5
tp295
a(S'the'
p296
S'the'
p297
S'DT'
p298
S'B-NP'
p299
g5
tp300
a(S'effects'
p301
S'effect'
p302
S'NNS'
p303
S'I-NP'
p304
g5
tp305
a(S'these'
p306
S'these'
p307
S'DT'
p308
S'B-NP'
p309
g5
tp310
a(S'same'
p311
S'same'
p312
S'JJ'
p313
S'I-NP'
p314
g5
tp315
a(S'cardiac'
p316
S'cardiac'
p317
S'JJ'
p318
S'I-NP'
p319
g5
tp320
a(S'contractility'
p321
S'contractility'
p322
S'NN'
p323
S'I-NP'
p324
g5
tp325
a(S'modulating'
p326
S'modulating'
p327
S'NN'
p328
S'I-NP'
p329
g5
tp330
a(g179
g179
g179
g5
g5
tp331
a(S'CCM'
p332
S'CCM'
p333
S'NN'
p334
S'B-NP'
p335
g5
tp336
a(g187
g187
g187
g5
g5
tp337
a(S'electrical'
p338
S'electrical'
p339
S'JJ'
p340
S'B-NP'
p341
g5
tp342
a(S'signals'
p343
S'signal'
p344
S'NNS'
p345
S'I-NP'
p346
g5
tp347
a(S'on'
p348
S'on'
p349
S'IN'
p350
S'B-PP'
p351
g5
tp352
a(S'myocardial'
p353
S'myocardial'
p354
S'JJ'
p355
S'B-NP'
p356
g5
tp357
a(S'oxygen'
p358
S'oxygen'
p359
S'NN'
p360
S'I-NP'
p361
g5
tp362
a(S'consumption'
p363
S'consumption'
p364
S'NN'
p365
S'I-NP'
p366
g5
tp367
a(g179
g179
g179
g5
g5
tp368
a(S'MVO'
p369
S'MVO'
p370
S'NN'
p371
S'B-NP'
p372
S'B-protein'
p373
tp374
a(g179
g179
g179
g5
S'I-protein'
p375
tp376
a(S'2'
p377
g377
S'CD'
p378
S'B-NP'
p379
S'I-protein'
p380
tp381
a(g187
g187
g187
g5
S'I-protein'
p382
tp383
a(g187
g187
g187
g5
g5
tp384
a(S'in'
p385
S'in'
p386
S'IN'
p387
S'B-PP'
p388
g5
tp389
a(S'both'
p390
S'both'
p391
S'CC'
p392
g5
g5
tp393
a(S'patients'
p394
S'patient'
p395
S'NNS'
p396
S'B-NP'
p397
g5
tp398
a(S'and'
p399
S'and'
p400
S'CC'
p401
g5
g5
tp402
a(S'dogs'
p403
S'dog'
p404
S'NNS'
p405
S'B-NP'
p406
g5
tp407
a(S'with'
p408
S'with'
p409
S'IN'
p410
S'B-PP'
p411
g5
tp412
a(S'chronic'
p413
S'chronic'
p414
S'JJ'
p415
S'B-NP'
p416
g5
tp417
a(S'HF'
p418
S'HF'
p419
S'NN'
p420
S'I-NP'
p421
g5
tp422
a(g112
g112
g112
g5
g5
tp423
a(S'METHODS'
p424
S'METHODS'
p425
S'NNS'
p426
S'B-NP'
p427
g5
tp428
a(S'AND'
p429
S'AND'
p430
S'CC'
p431
S'I-NP'
p432
g5
tp433
a(S'RESULTS'
p434
S'RESULTS'
p435
S'NNS'
p436
S'I-NP'
p437
g5
tp438
a(S'Six'
p439
S'Six'
p440
S'CD'
p441
S'B-NP'
p442
g5
tp443
a(S'dogs'
p444
S'dog'
p445
S'NNS'
p446
S'I-NP'
p447
g5
tp448
a(S'with'
p449
S'with'
p450
S'IN'
p451
S'B-PP'
p452
g5
tp453
a(S'microembolizations-induced'
p454
S'microembolizations-induced'
p455
S'JJ'
p456
S'B-NP'
p457
g5
tp458
a(S'HF'
p459
S'HF'
p460
S'NN'
p461
S'I-NP'
p462
g5
tp463
a(S'and'
p464
S'and'
p465
S'CC'
p466
g5
g5
tp467
a(S'9'
p468
g468
S'CD'
p469
S'B-NP'
p470
g5
tp471
a(S'HF'
p472
S'HF'
p473
S'NN'
p474
S'I-NP'
p475
g5
tp476
a(S'patients'
p477
S'patient'
p478
S'NNS'
p479
S'I-NP'
p480
g5
tp481
a(S'underwent'
p482
S'undergo'
p483
S'VBD'
p484
S'B-VP'
p485
g5
tp486
a(S'CCM'
p487
S'CCM'
p488
S'NN'
p489
S'B-NP'
p490
g5
tp491
a(S'leads'
p492
S'lead'
p493
S'NNS'
p494
S'I-NP'
p495
g5
tp496
a(S'and'
p497
S'and'
p498
S'CC'
p499
g5
g5
tp500
a(S'generator'
p501
S'generator'
p502
S'NN'
p503
S'B-NP'
p504
g5
tp505
a(g179
g179
g179
g5
g5
tp506
a(S'OPTIMIZER'
p507
S'OPTIMIZER'
p508
S'NN'
p509
S'B-NP'
p510
g5
tp511
a(S'II'
p512
S'II'
p513
S'CD'
p514
S'I-NP'
p515
g5
tp516
a(g187
g187
g187
g5
g5
tp517
a(S'implantation.'
p518
S'implantation.'
p519
S'VBP'
p520
S'B-VP'
p521
g5
tp522
a(S'After'
p523
S'After'
p524
S'IN'
p525
S'B-PP'
p526
g5
tp527
a(S'baseline'
p528
S'baseline'
p529
S'NN'
p530
S'B-NP'
p531
g5
tp532
a(S'measurements'
p533
S'measurement'
p534
S'NNS'
p535
S'I-NP'
p536
g5
tp537
a(S','
p538
g538
g538
g5
g5
tp539
a(S'CCM'
p540
S'CCM'
p541
S'NN'
p542
S'B-NP'
p543
g5
tp544
a(S'signals'
p545
S'signal'
p546
S'NNS'
p547
S'I-NP'
p548
g5
tp549
a(S'were'
p550
S'be'
p551
S'VBD'
p552
S'B-VP'
p553
g5
tp554
a(S'delivered'
p555
S'deliver'
p556
S'VBN'
p557
S'I-VP'
p558
g5
tp559
a(S'continuously'
p560
S'continuously'
p561
S'RB'
p562
S'B-ADVP'
p563
g5
tp564
a(S'for'
p565
S'for'
p566
S'IN'
p567
S'B-PP'
p568
g5
tp569
a(g377
g377
S'CD'
p570
S'B-NP'
p571
g5
tp572
a(S'hours'
p573
S'hour'
p574
S'NNS'
p575
S'I-NP'
p576
g5
tp577
a(S'in'
p578
S'in'
p579
S'IN'
p580
S'B-PP'
p581
g5
tp582
a(S'dogs'
p583
S'dog'
p584
S'NNS'
p585
S'B-NP'
p586
g5
tp587
a(S'and'
p588
S'and'
p589
S'CC'
p590
S'B-PP'
p591
g5
tp592
a(S'for'
p593
S'for'
p594
S'IN'
p595
S'B-PP'
p596
g5
tp597
a(S'30'
p598
S'30'
p599
S'CD'
p600
S'B-NP'
p601
g5
tp602
a(S'minutes'
p603
S'minute'
p604
S'NNS'
p605
S'I-NP'
p606
g5
tp607
a(S'in'
p608
S'in'
p609
S'IN'
p610
S'B-PP'
p611
g5
tp612
a(S'patients.'
p613
S'patients.'
p614
S'NN'
p615
S'B-NP'
p616
g5
tp617
a(S'MVO'
p618
S'MVO'
p619
S'NN'
p620
S'I-NP'
p621
g5
tp622
a(g179
g179
g179
g5
g5
tp623
a(g377
g377
S'CD'
p624
S'B-NP'
p625
g5
tp626
a(g187
g187
g187
g5
g5
tp627
a(S'was'
p628
S'be'
p629
S'VBD'
p630
S'B-VP'
p631
g5
tp632
a(S'measured'
p633
S'measure'
p634
S'VBN'
p635
S'I-VP'
p636
g5
tp637
a(S'before'
p638
S'before'
p639
S'IN'
p640
S'B-PP'
p641
g5
tp642
a(S'and'
p643
S'and'
p644
S'CC'
p645
S'I-PP'
p646
g5
tp647
a(S'after'
p648
S'after'
p649
S'IN'
p650
S'I-PP'
p651
g5
tp652
a(S'CCM'
p653
S'CCM'
p654
S'NN'
p655
S'B-NP'
p656
S'B-protein'
p657
tp658
a(S'therapy.'
p659
S'therapy.'
p660
S'RB'
p661
S'B-ADVP'
p662
g5
tp663
a(S'In'
p664
S'In'
p665
S'IN'
p666
S'B-PP'
p667
g5
tp668
a(S'dogs'
p669
S'dog'
p670
S'NNS'
p671
S'B-NP'
p672
g5
tp673
a(g538
g538
g538
g5
g5
tp674
a(S'CCM'
p675
S'CCM'
p676
S'NN'
p677
S'B-NP'
p678
g5
tp679
a(S'therapy'
p680
S'therapy'
p681
S'NN'
p682
S'I-NP'
p683
g5
tp684
a(S'increased'
p685
S'increase'
p686
S'VBD'
p687
S'B-VP'
p688
g5
tp689
a(S'LV'
p690
S'LV'
p691
S'NN'
p692
S'B-NP'
p693
g5
tp694
a(S'ejection'
p695
S'ejection'
p696
S'NN'
p697
S'I-NP'
p698
g5
tp699
a(S'fraction'
p700
S'fraction'
p701
S'NN'
p702
S'I-NP'
p703
g5
tp704
a(S'at'
p705
S'at'
p706
S'IN'
p707
S'B-PP'
p708
g5
tp709
a(g377
g377
S'CD'
p710
S'B-NP'
p711
g5
tp712
a(S'hours'
p713
S'hour'
p714
S'NNS'
p715
S'I-NP'
p716
g5
tp717
a(g179
g179
g179
g5
g5
tp718
a(S'26'
p719
S'26'
p720
S'CD'
p721
S'B-NP'
p722
g5
tp723
a(S'+/-'
p724
S'+/-'
p725
S'SYM'
p726
S'I-NP'
p727
g5
tp728
a(S'1'
p729
g729
S'CD'
p730
S'I-NP'
p731
g5
tp732
a(S'versus'
p733
S'versus'
p734
S'IN'
p735
S'B-PP'
p736
g5
tp737
a(S'31'
p738
S'31'
p739
S'CD'
p740
S'B-NP'
p741
g5
tp742
a(S'+/-'
p743
S'+/-'
p744
S'SYM'
p745
S'I-NP'
p746
g5
tp747
a(g377
g377
S'CD'
p748
S'I-NP'
p749
g5
tp750
a(S'%'
p751
g751
S'NN'
p752
S'I-NP'
p753
g5
tp754
a(g538
g538
g538
g5
g5
tp755
a(S'P'
p756
g756
S'NN'
p757
S'B-NP'
p758
g5
tp759
a(S'='
p760
g760
S'SYM'
p761
S'B-VP'
p762
g5
tp763
a(S'.001'
p764
S'.001'
p765
S'CD'
p766
S'B-NP'
p767
g5
tp768
a(g187
g187
g187
g5
g5
tp769
a(S'without'
p770
S'without'
p771
S'IN'
p772
S'B-PP'
p773
g5
tp774
a(S'increasing'
p775
S'increase'
p776
S'VBG'
p777
S'B-VP'
p778
g5
tp779
a(S'MVO'
p780
S'MVO'
p781
S'NN'
p782
S'B-NP'
p783
g5
tp784
a(g179
g179
g179
g5
g5
tp785
a(g377
g377
S'CD'
p786
S'B-NP'
p787
g5
tp788
a(g187
g187
g187
g5
g5
tp789
a(g179
g179
g179
g5
g5
tp790
a(S'257'
p791
S'257'
p792
S'CD'
p793
S'B-NP'
p794
g5
tp795
a(S'+/-'
p796
S'+/-'
p797
S'SYM'
p798
S'I-NP'
p799
g5
tp800
a(S'41'
p801
S'41'
p802
S'CD'
p803
S'I-NP'
p804
g5
tp805
a(S'versus'
p806
S'versus'
p807
S'IN'
p808
S'B-PP'
p809
g5
tp810
a(S'180'
p811
S'180'
p812
S'CD'
p813
S'B-NP'
p814
g5
tp815
a(S'+/-'
p816
S'+/-'
p817
S'SYM'
p818
S'I-NP'
p819
g5
tp820
a(S'34'
p821
S'34'
p822
S'CD'
p823
S'I-NP'
p824
g5
tp825
a(S'micromol/min'
p826
S'micromol/min'
p827
S'NN'
p828
S'I-NP'
p829
g5
tp830
a(g187
g187
g187
g5
g5
tp831
a(g112
g112
g112
g5
g5
tp832
a(S'In'
p833
S'In'
p834
S'IN'
p835
S'B-PP'
p836
g5
tp837
a(S'patients'
p838
S'patient'
p839
S'NNS'
p840
S'B-NP'
p841
g5
tp842
a(g538
g538
g538
g5
g5
tp843
a(S'CCM'
p844
S'CCM'
p845
S'NN'
p846
S'B-NP'
p847
g5
tp848
a(S'therapy'
p849
S'therapy'
p850
S'NN'
p851
S'I-NP'
p852
g5
tp853
a(S'increased'
p854
S'increase'
p855
S'VBD'
p856
S'B-VP'
p857
g5
tp858
a(S'LV'
p859
S'LV'
p860
S'NN'
p861
S'B-NP'
p862
g5
tp863
a(S'peak'
p864
S'peak'
p865
S'JJ'
p866
S'I-NP'
p867
g5
tp868
a(S'+dP/dt'
p869
S'+dP/dt'
p870
S'NN'
p871
S'I-NP'
p872
g5
tp873
a(S'by'
p874
S'by'
p875
S'IN'
p876
S'B-PP'
p877
g5
tp878
a(S'10.1'
p879
S'10.1'
p880
S'CD'
p881
S'B-NP'
p882
g5
tp883
a(S'+/-'
p884
S'+/-'
p885
S'SYM'
p886
S'I-NP'
p887
g5
tp888
a(S'1.5'
p889
S'1.5'
p890
S'CD'
p891
S'I-NP'
p892
g5
tp893
a(g751
g751
S'NN'
p894
S'I-NP'
p895
g5
tp896
a(g112
g112
g112
g5
g5
tp897
a(S'As'
p898
S'As'
p899
S'IN'
p900
S'B-PP'
p901
g5
tp902
a(S'with'
p903
S'with'
p904
S'IN'
p905
S'B-PP'
p906
g5
tp907
a(S'dogs'
p908
S'dog'
p909
S'NNS'
p910
S'B-NP'
p911
g5
tp912
a(g538
g538
g538
g5
g5
tp913
a(S'the'
p914
S'the'
p915
S'DT'
p916
S'B-NP'
p917
g5
tp918
a(S'increase'
p919
S'increase'
p920
S'NN'
p921
S'I-NP'
p922
g5
tp923
a(S'in'
p924
S'in'
p925
S'IN'
p926
S'B-PP'
p927
g5
tp928
a(S'LV'
p929
S'LV'
p930
S'NN'
p931
S'B-NP'
p932
g5
tp933
a(S'function'
p934
S'function'
p935
S'NN'
p936
S'I-NP'
p937
g5
tp938
a(S'after'
p939
S'after'
p940
S'IN'
p941
S'B-PP'
p942
g5
tp943
a(S'30'
p944
S'30'
p945
S'CD'
p946
S'B-NP'
p947
g5
tp948
a(S'minutes'
p949
S'minute'
p950
S'NNS'
p951
S'I-NP'
p952
g5
tp953
a(S'of'
p954
S'of'
p955
S'IN'
p956
S'B-PP'
p957
g5
tp958
a(S'CCM'
p959
S'CCM'
p960
S'NN'
p961
S'B-NP'
p962
g5
tp963
a(S'therapy'
p964
S'therapy'
p965
S'NN'
p966
S'I-NP'
p967
g5
tp968
a(S'was'
p969
S'be'
p970
S'VBD'
p971
S'B-VP'
p972
g5
tp973
a(S'not'
p974
S'not'
p975
S'RB'
p976
S'I-VP'
p977
g5
tp978
a(S'associated'
p979
S'associate'
p980
S'VBN'
p981
S'I-VP'
p982
g5
tp983
a(S'with'
p984
S'with'
p985
S'IN'
p986
S'B-PP'
p987
g5
tp988
a(S'increased'
p989
S'increase'
p990
S'VBN'
p991
S'B-NP'
p992
g5
tp993
a(S'MVO'
p994
S'MVO'
p995
S'NN'
p996
S'I-NP'
p997
g5
tp998
a(g179
g179
g179
g5
g5
tp999
a(g377
g377
S'CD'
p1000
S'B-NP'
p1001
g5
tp1002
a(g187
g187
g187
g5
g5
tp1003
a(g179
g179
g179
g5
g5
tp1004
a(S'13.6'
p1005
S'13.6'
p1006
S'CD'
p1007
S'B-NP'
p1008
g5
tp1009
a(S'+/-'
p1010
S'+/-'
p1011
S'SYM'
p1012
S'I-NP'
p1013
g5
tp1014
a(S'9.7'
p1015
S'9.7'
p1016
S'CD'
p1017
S'I-NP'
p1018
g5
tp1019
a(S'versus'
p1020
S'versus'
p1021
S'IN'
p1022
S'B-PP'
p1023
g5
tp1024
a(S'12.5'
p1025
S'12.5'
p1026
S'CD'
p1027
S'B-NP'
p1028
g5
tp1029
a(S'+/-'
p1030
S'+/-'
p1031
S'SYM'
p1032
S'I-NP'
p1033
g5
tp1034
a(S'7.2'
p1035
S'7.2'
p1036
S'CD'
p1037
S'I-NP'
p1038
g5
tp1039
a(S'mL'
p1040
S'mL'
p1041
S'NN'
p1042
S'I-NP'
p1043
g5
tp1044
a(g5
g5
S'NN'
p1045
S'I-NP'
p1046
g5
tp1047
a(g179
g179
g179
g5
g5
tp1048
a(g377
g377
S'CD'
p1049
S'B-NP'
p1050
g5
tp1051
a(g187
g187
g187
g5
g5
tp1052
a(S'/min'
p1053
S'/min'
p1054
S'NN'
p1055
S'B-NP'
p1056
S'B-protein'
p1057
tp1058
a(g187
g187
g187
g5
g5
tp1059
a(g112
g112
g112
g5
g5
tp1060
a(S'CONCLUSIONS'
p1061
S'CONCLUSIONS'
p1062
S'NNS'
p1063
S'B-NP'
p1064
g5
tp1065
a(S'The'
p1066
S'The'
p1067
S'DT'
p1068
S'B-NP'
p1069
g5
tp1070
a(S'study'
p1071
S'study'
p1072
S'NN'
p1073
S'I-NP'
p1074
g5
tp1075
a(S'results'
p1076
S'result'
p1077
S'NNS'
p1078
S'I-NP'
p1079
g5
tp1080
a(S'suggest'
p1081
S'suggest'
p1082
S'VBP'
p1083
S'B-VP'
p1084
g5
tp1085
a(S'that'
p1086
S'that'
p1087
S'IN'
p1088
S'B-SBAR'
p1089
g5
tp1090
a(S'unlike'
p1091
S'unlike'
p1092
S'JJ'
p1093
S'B-NP'
p1094
g5
tp1095
a(S'cAMP-dependent'
p1096
S'cAMP-dependent'
p1097
S'JJ'
p1098
S'I-NP'
p1099
g5
tp1100
a(S'positive'
p1101
S'positive'
p1102
S'JJ'
p1103
S'I-NP'
p1104
g5
tp1105
a(S'inotropic'
p1106
S'inotropic'
p1107
S'JJ'
p1108
S'I-NP'
p1109
g5
tp1110
a(S'drugs'
p1111
S'drug'
p1112
S'NNS'
p1113
S'I-NP'
p1114
g5
tp1115
a(g538
g538
g538
g5
g5
tp1116
a(S'the'
p1117
S'the'
p1118
S'DT'
p1119
S'B-NP'
p1120
g5
tp1121
a(S'increase'
p1122
S'increase'
p1123
S'NN'
p1124
S'I-NP'
p1125
g5
tp1126
a(S'in'
p1127
S'in'
p1128
S'IN'
p1129
S'B-PP'
p1130
g5
tp1131
a(S'LV'
p1132
S'LV'
p1133
S'NN'
p1134
S'B-NP'
p1135
g5
tp1136
a(S'function'
p1137
S'function'
p1138
S'NN'
p1139
S'I-NP'
p1140
g5
tp1141
a(S'during'
p1142
S'during'
p1143
S'IN'
p1144
S'B-PP'
p1145
g5
tp1146
a(S'CCM'
p1147
S'CCM'
p1148
S'NN'
p1149
S'B-NP'
p1150
g5
tp1151
a(S'therapy'
p1152
S'therapy'
p1153
S'NN'
p1154
S'I-NP'
p1155
g5
tp1156
a(S'is'
p1157
S'be'
p1158
S'VBZ'
p1159
S'B-VP'
p1160
g5
tp1161
a(S'elicited'
p1162
S'elicit'
p1163
S'VBN'
p1164
S'I-VP'
p1165
g5
tp1166
a(S'without'
p1167
S'without'
p1168
S'IN'
p1169
S'B-PP'
p1170
g5
tp1171
a(S'increasing'
p1172
S'increase'
p1173
S'VBG'
p1174
S'B-VP'
p1175
g5
tp1176
a(S'MVO'
p1177
S'MVO'
p1178
S'NN'
p1179
S'B-NP'
p1180
g5
tp1181
a(g179
g179
g179
g5
g5
tp1182
a(g377
g377
S'CD'
p1183
S'B-NP'
p1184
g5
tp1185
a(g187
g187
g187
g5
g5
tp1186
a(g112
g112
g112
g5
g5
tp1187
a.