(lp0
(S'Children'
p1
S'Child'
p2
S'NNS'
p3
S'B-NP'
p4
S'O'
p5
tp6
a(S'with'
p7
S'with'
p8
S'IN'
p9
S'B-PP'
p10
g5
tp11
a(S'autistic'
p12
S'autistic'
p13
S'JJ'
p14
S'B-NP'
p15
g5
tp16
a(S'spectrum'
p17
S'spectrum'
p18
S'NN'
p19
S'I-NP'
p20
g5
tp21
a(S'disorders.'
p22
S'disorders.'
p23
S'NN'
p24
S'I-NP'
p25
g5
tp26
a(S'II'
p27
S'II'
p28
S'CD'
p29
S'I-NP'
p30
g5
tp31
a(S':'
p32
g32
g32
g5
g5
tp33
a(S'parents'
p34
S'parent'
p35
S'NNS'
p36
S'B-NP'
p37
g5
tp38
a(S'are'
p39
S'be'
p40
S'VBP'
p41
S'B-VP'
p42
g5
tp43
a(S'unable'
p44
S'unable'
p45
S'JJ'
p46
S'B-ADJP'
p47
g5
tp48
a(S'to'
p49
S'to'
p50
S'TO'
p51
S'B-VP'
p52
g5
tp53
a(S'distinguish'
p54
S'distinguish'
p55
S'VB'
p56
S'I-VP'
p57
g5
tp58
a(S'secretin'
p59
S'secretin'
p60
S'NN'
p61
S'B-NP'
p62
g5
tp63
a(S'from'
p64
S'from'
p65
S'IN'
p66
S'B-PP'
p67
g5
tp68
a(S'placebo'
p69
S'placebo'
p70
S'NN'
p71
S'B-NP'
p72
g5
tp73
a(S'under'
p74
S'under'
p75
S'IN'
p76
S'B-PP'
p77
g5
tp78
a(S'double-blind'
p79
S'double-blind'
p80
S'JJ'
p81
S'B-NP'
p82
g5
tp83
a(S'conditions'
p84
S'condition'
p85
S'NNS'
p86
S'I-NP'
p87
g5
tp88
a(S'.'
p89
g89
g89
g5
g5
tp90
a(S'BACKGROUND'
p91
S'BACKGROUND'
p92
S'NN'
p93
S'B-NP'
p94
g5
tp95
a(S'Standardised'
p96
S'Standardise'
p97
S'VBD'
p98
S'B-VP'
p99
g5
tp100
a(S'measures'
p101
S'measure'
p102
S'NNS'
p103
S'B-NP'
p104
g5
tp105
a(S'of'
p106
S'of'
p107
S'IN'
p108
S'B-PP'
p109
g5
tp110
a(S'behaviour'
p111
S'behaviour'
p112
S'NN'
p113
S'B-NP'
p114
g5
tp115
a(S'have'
p116
S'have'
p117
S'VBP'
p118
S'B-VP'
p119
g5
tp120
a(S'failed'
p121
S'fail'
p122
S'VBN'
p123
S'I-VP'
p124
g5
tp125
a(S'to'
p126
S'to'
p127
S'TO'
p128
S'I-VP'
p129
g5
tp130
a(S'detect'
p131
S'detect'
p132
S'VB'
p133
S'I-VP'
p134
g5
tp135
a(S'short'
p136
S'short'
p137
S'JJ'
p138
S'B-NP'
p139
g5
tp140
a(S'term'
p141
S'term'
p142
S'NN'
p143
S'I-NP'
p144
g5
tp145
a(S'improvement'
p146
S'improvement'
p147
S'NN'
p148
S'I-NP'
p149
g5
tp150
a(S'in'
p151
S'in'
p152
S'IN'
p153
S'B-PP'
p154
g5
tp155
a(S'children'
p156
S'child'
p157
S'NNS'
p158
S'B-NP'
p159
g5
tp160
a(S'with'
p161
S'with'
p162
S'IN'
p163
S'B-PP'
p164
g5
tp165
a(S'autism'
p166
S'autism'
p167
S'NN'
p168
S'B-NP'
p169
g5
tp170
a(S'following'
p171
S'follow'
p172
S'VBG'
p173
S'B-PP'
p174
g5
tp175
a(S'treatment'
p176
S'treatment'
p177
S'NN'
p178
S'B-NP'
p179
g5
tp180
a(S'with'
p181
S'with'
p182
S'IN'
p183
S'B-PP'
p184
g5
tp185
a(S'secretin.'
p186
S'secretin.'
p187
S'NN'
p188
S'B-NP'
p189
g5
tp190
a(S'However'
p191
S'However'
p192
S'RB'
p193
S'B-ADVP'
p194
g5
tp195
a(S','
p196
g196
g196
g5
g5
tp197
a(S'it'
p198
S'it'
p199
S'PRP'
p200
S'B-NP'
p201
g5
tp202
a(S'is'
p203
S'be'
p204
S'VBZ'
p205
S'B-VP'
p206
g5
tp207
a(S'possible'
p208
S'possible'
p209
S'JJ'
p210
S'B-ADJP'
p211
g5
tp212
a(S'that'
p213
S'that'
p214
S'IN'
p215
S'B-SBAR'
p216
g5
tp217
a(S'standardised'
p218
S'standardised'
p219
S'JJ'
p220
S'B-NP'
p221
g5
tp222
a(S'measures'
p223
S'measure'
p224
S'NNS'
p225
S'I-NP'
p226
g5
tp227
a(S'are'
p228
S'be'
p229
S'VBP'
p230
S'B-VP'
p231
g5
tp232
a(S'insensitive'
p233
S'insensitive'
p234
S'JJ'
p235
S'B-ADJP'
p236
g5
tp237
a(S'to'
p238
S'to'
p239
S'TO'
p240
S'B-PP'
p241
g5
tp242
a(S'dimensions'
p243
S'dimension'
p244
S'NNS'
p245
S'B-NP'
p246
g5
tp247
a(S'of'
p248
S'of'
p249
S'IN'
p250
S'B-PP'
p251
g5
tp252
a(S'child'
p253
S'child'
p254
S'NN'
p255
S'B-NP'
p256
g5
tp257
a(S'behaviour'
p258
S'behaviour'
p259
S'NN'
p260
S'I-NP'
p261
g5
tp262
a(S'that'
p263
S'that'
p264
S'WDT'
p265
S'B-NP'
p266
g5
tp267
a(S'are'
p268
S'be'
p269
S'VBP'
p270
S'B-VP'
p271
g5
tp272
a(S'nonetheless'
p273
S'nonetheless'
p274
S'RB'
p275
S'B-ADJP'
p276
g5
tp277
a(S'detectable'
p278
S'detectable'
p279
S'JJ'
p280
S'I-ADJP'
p281
g5
tp282
a(S'by'
p283
S'by'
p284
S'IN'
p285
S'B-PP'
p286
g5
tp287
a(S'parents'
p288
S'parent'
p289
S'NNS'
p290
S'B-NP'
p291
g5
tp292
a(g89
g89
g89
g5
g5
tp293
a(S'AIM'
p294
S'AIM'
p295
S'NN'
p296
S'B-NP'
p297
g5
tp298
a(S'To'
p299
S'To'
p300
S'TO'
p301
S'B-VP'
p302
g5
tp303
a(S'determine'
p304
S'determine'
p305
S'VB'
p306
S'I-VP'
p307
g5
tp308
a(S'the'
p309
S'the'
p310
S'DT'
p311
S'B-NP'
p312
g5
tp313
a(S'ability'
p314
S'ability'
p315
S'NN'
p316
S'I-NP'
p317
g5
tp318
a(S'of'
p319
S'of'
p320
S'IN'
p321
S'B-PP'
p322
g5
tp323
a(S'parents'
p324
S'parent'
p325
S'NNS'
p326
S'B-NP'
p327
g5
tp328
a(S'of'
p329
S'of'
p330
S'IN'
p331
S'B-PP'
p332
g5
tp333
a(S'children'
p334
S'child'
p335
S'NNS'
p336
S'B-NP'
p337
g5
tp338
a(S'with'
p339
S'with'
p340
S'IN'
p341
S'B-PP'
p342
g5
tp343
a(S'autism'
p344
S'autism'
p345
S'NN'
p346
S'B-NP'
p347
g5
tp348
a(S'to'
p349
S'to'
p350
S'TO'
p351
S'B-PP'
p352
g5
tp353
a(S'guess'
p354
S'guess'
p355
S'NN'
p356
S'B-NP'
p357
g5
tp358
a(g196
g196
g196
g5
g5
tp359
a(S'under'
p360
S'under'
p361
S'IN'
p362
S'B-PP'
p363
g5
tp364
a(S'double'
p365
S'double'
p366
S'JJ'
p367
S'B-NP'
p368
g5
tp369
a(S'blind'
p370
S'blind'
p371
S'JJ'
p372
S'I-NP'
p373
g5
tp374
a(S'conditions'
p375
S'condition'
p376
S'NNS'
p377
S'I-NP'
p378
g5
tp379
a(g196
g196
g196
g5
g5
tp380
a(S'whether'
p381
S'whether'
p382
S'IN'
p383
S'B-SBAR'
p384
g5
tp385
a(S'their'
p386
S'their'
p387
S'PRP$'
p388
S'B-NP'
p389
g5
tp390
a(S'child'
p391
S'child'
p392
S'NN'
p393
S'I-NP'
p394
S'B-protein'
p395
tp396
a(S'had'
p397
S'have'
p398
S'VBD'
p399
S'B-VP'
p400
S'I-protein'
p401
tp402
a(S'received'
p403
S'receive'
p404
S'VBN'
p405
S'I-VP'
p406
S'I-protein'
p407
tp408
a(S'secretin'
p409
S'secretin'
p410
S'NN'
p411
S'B-NP'
p412
S'I-protein'
p413
tp414
a(S'or'
p415
S'or'
p416
S'CC'
p417
S'I-NP'
p418
g5
tp419
a(S'placebo'
p420
S'placebo'
p421
S'NN'
p422
S'I-NP'
p423
g5
tp424
a(g89
g89
g89
g5
g5
tp425
a(S'METHODS'
p426
S'METHODS'
p427
S'NNS'
p428
S'B-NP'
p429
g5
tp430
a(S'2x2'
p431
S'2x2'
p432
S'CD'
p433
S'B-NP'
p434
g5
tp435
a(S'crossover'
p436
S'crossover'
p437
S'NN'
p438
S'I-NP'
p439
g5
tp440
a(S'randomised'
p441
S'randomise'
p442
S'VBN'
p443
S'B-VP'
p444
g5
tp445
a(S'blinded'
p446
S'blind'
p447
S'VBD'
p448
S'B-VP'
p449
g5
tp450
a(S'study'
p451
S'study'
p452
S'NN'
p453
S'B-NP'
p454
g5
tp455
a(g196
g196
g196
g5
g5
tp456
a(S'comparing'
p457
S'compare'
p458
S'VBG'
p459
S'B-VP'
p460
g5
tp461
a(S'the'
p462
S'the'
p463
S'DT'
p464
S'B-NP'
p465
g5
tp466
a(S'effect'
p467
S'effect'
p468
S'NN'
p469
S'I-NP'
p470
g5
tp471
a(S'of'
p472
S'of'
p473
S'IN'
p474
S'B-PP'
p475
g5
tp476
a(S'synthetic'
p477
S'synthetic'
p478
S'JJ'
p479
S'B-NP'
p480
g5
tp481
a(S'human'
p482
S'human'
p483
S'JJ'
p484
S'I-NP'
p485
g5
tp486
a(S'secretin'
p487
S'secretin'
p488
S'NN'
p489
S'I-NP'
p490
g5
tp491
a(S'2'
p492
g492
S'CD'
p493
S'I-NP'
p494
g5
tp495
a(S'U/kg'
p496
S'U/kg'
p497
S'NN'
p498
S'I-NP'
p499
g5
tp500
a(S'to'
p501
S'to'
p502
S'TO'
p503
S'B-PP'
p504
g5
tp505
a(S'placebo'
p506
S'placebo'
p507
S'NN'
p508
S'B-NP'
p509
g5
tp510
a(S'('
p511
g511
g511
g5
g5
tp512
a(S'saline'
p513
S'saline'
p514
S'NN'
p515
S'B-NP'
p516
g5
tp517
a(S')'
p518
g518
g518
g5
g5
tp519
a(g89
g89
g89
g5
g5
tp520
a(S'Sixty'
p521
S'Sixty'
p522
S'CD'
p523
S'B-NP'
p524
g5
tp525
a(S'two'
p526
S'two'
p527
S'CD'
p528
S'I-NP'
p529
g5
tp530
a(S'children'
p531
S'child'
p532
S'NNS'
p533
S'I-NP'
p534
g5
tp535
a(S'with'
p536
S'with'
p537
S'IN'
p538
S'B-PP'
p539
g5
tp540
a(S'autism'
p541
S'autism'
p542
S'NN'
p543
S'B-NP'
p544
g5
tp545
a(g511
g511
g511
g5
g5
tp546
a(S'aged'
p547
S'age'
p548
S'VBN'
p549
S'B-VP'
p550
g5
tp551
a(S'43-103'
p552
S'43-103'
p553
S'CD'
p554
S'B-NP'
p555
g5
tp556
a(S'months'
p557
S'month'
p558
S'NNS'
p559
S'I-NP'
p560
g5
tp561
a(g518
g518
g518
g5
g5
tp562
a(S'were'
p563
S'be'
p564
S'VBD'
p565
S'B-VP'
p566
g5
tp567
a(S'randomly'
p568
S'randomly'
p569
S'RB'
p570
S'I-VP'
p571
g5
tp572
a(S'allocated'
p573
S'allocate'
p574
S'VBN'
p575
S'I-VP'
p576
g5
tp577
a(S'to'
p578
S'to'
p579
S'TO'
p580
S'B-PP'
p581
g5
tp582
a(S'two'
p583
S'two'
p584
S'CD'
p585
S'B-NP'
p586
g5
tp587
a(S'groups'
p588
S'group'
p589
S'NNS'
p590
S'I-NP'
p591
g5
tp592
a(g32
g32
g32
g5
g5
tp593
a(S'group'
p594
S'group'
p595
S'NN'
p596
S'B-NP'
p597
g5
tp598
a(S'1'
p599
g599
S'CD'
p600
S'I-NP'
p601
g5
tp602
a(S'received'
p603
S'receive'
p604
S'VBD'
p605
S'B-VP'
p606
g5
tp607
a(S'placebo'
p608
S'placebo'
p609
S'NN'
p610
S'B-NP'
p611
g5
tp612
a(g196
g196
g196
g5
g5
tp613
a(S'followed'
p614
S'follow'
p615
S'VBD'
p616
S'B-VP'
p617
g5
tp618
a(S'six'
p619
S'six'
p620
S'CD'
p621
S'B-NP'
p622
g5
tp623
a(S'weeks'
p624
S'week'
p625
S'NNS'
p626
S'I-NP'
p627
g5
tp628
a(S'later'
p629
S'later'
p630
S'RB'
p631
S'B-ADVP'
p632
g5
tp633
a(S'by'
p634
S'by'
p635
S'IN'
p636
S'B-PP'
p637
g5
tp638
a(S'secretin'
p639
S'secretin'
p640
S'NN'
p641
S'B-NP'
p642
g5
tp643
a(g196
g196
g196
g5
g5
tp644
a(S'and'
p645
S'and'
p646
S'CC'
p647
g5
g5
tp648
a(S'group'
p649
S'group'
p650
S'NN'
p651
S'B-NP'
p652
S'B-protein'
p653
tp654
a(g492
g492
S'CD'
p655
S'I-NP'
p656
S'I-protein'
p657
tp658
a(S'received'
p659
S'receive'
p660
S'VBD'
p661
S'B-VP'
p662
S'I-protein'
p663
tp664
a(S'secretin'
p665
S'secretin'
p666
S'NN'
p667
S'B-NP'
p668
S'I-protein'
p669
tp670
a(S'followed'
p671
S'follow'
p672
S'VBN'
p673
S'B-VP'
p674
g5
tp675
a(S'by'
p676
S'by'
p677
S'IN'
p678
S'B-PP'
p679
g5
tp680
a(S'placebo.'
p681
S'placebo.'
p682
S'NN'
p683
S'B-NP'
p684
g5
tp685
a(S'At'
p686
S'At'
p687
S'IN'
p688
S'B-PP'
p689
g5
tp690
a(S'the'
p691
S'the'
p692
S'DT'
p693
S'B-NP'
p694
g5
tp695
a(S'conclusion'
p696
S'conclusion'
p697
S'NN'
p698
S'I-NP'
p699
g5
tp700
a(S'of'
p701
S'of'
p702
S'IN'
p703
S'B-PP'
p704
g5
tp705
a(S'the'
p706
S'the'
p707
S'DT'
p708
S'B-NP'
p709
g5
tp710
a(S'study'
p711
S'study'
p712
S'NN'
p713
S'I-NP'
p714
g5
tp715
a(g196
g196
g196
g5
g5
tp716
a(S'parents'
p717
S'parent'
p718
S'NNS'
p719
S'B-NP'
p720
g5
tp721
a(S'were'
p722
S'be'
p723
S'VBD'
p724
S'B-VP'
p725
g5
tp726
a(S'asked'
p727
S'ask'
p728
S'VBN'
p729
S'I-VP'
p730
g5
tp731
a(S'to'
p732
S'to'
p733
S'TO'
p734
S'B-VP'
p735
g5
tp736
a(S'guess'
p737
S'guess'
p738
S'VB'
p739
S'I-VP'
p740
g5
tp741
a(S'their'
p742
S'their'
p743
S'PRP$'
p744
S'B-NP'
p745
g5
tp746
a(S'child'
p747
S'child'
p748
S'NN'
p749
S'I-NP'
p750
g5
tp751
a(S"'s"
p752
S"'s"
p753
S'POS'
p754
S'B-NP'
p755
g5
tp756
a(S'group'
p757
S'group'
p758
S'NN'
p759
S'I-NP'
p760
g5
tp761
a(S'assignment'
p762
S'assignment'
p763
S'NN'
p764
S'I-NP'
p765
g5
tp766
a(g89
g89
g89
g5
g5
tp767
a(S'RESULTS'
p768
S'RESULTS'
p769
S'NNS'
p770
S'B-NP'
p771
g5
tp772
a(S'Twenty'
p773
S'Twenty'
p774
S'CD'
p775
S'B-NP'
p776
g5
tp777
a(S'seven'
p778
S'seven'
p779
S'CD'
p780
S'I-NP'
p781
g5
tp782
a(S'families'
p783
S'family'
p784
S'NNS'
p785
S'I-NP'
p786
g5
tp787
a(S'guessed'
p788
S'guess'
p789
S'VBD'
p790
S'B-VP'
p791
g5
tp792
a(S'their'
p793
S'their'
p794
S'PRP$'
p795
S'B-NP'
p796
g5
tp797
a(S'child'
p798
S'child'
p799
S'NN'
p800
S'I-NP'
p801
g5
tp802
a(S"'s"
p803
S"'s"
p804
S'POS'
p805
S'B-NP'
p806
g5
tp807
a(S'group'
p808
S'group'
p809
S'NN'
p810
S'I-NP'
p811
g5
tp812
a(S'assignment'
p813
S'assignment'
p814
S'NN'
p815
S'I-NP'
p816
g5
tp817
a(S'correctly'
p818
S'correctly'
p819
S'RB'
p820
S'B-ADVP'
p821
g5
tp822
a(S'and'
p823
S'and'
p824
S'CC'
p825
g5
g5
tp826
a(S'27'
p827
S'27'
p828
S'CD'
p829
S'B-NP'
p830
g5
tp831
a(S'guessed'
p832
S'guess'
p833
S'VBN'
p834
S'B-VP'
p835
g5
tp836
a(S'incorrectly.'
p837
S'incorrectly.'
p838
S'RB'
p839
S'B-ADVP'
p840
g5
tp841
a(S'In'
p842
S'In'
p843
S'IN'
p844
S'B-PP'
p845
g5
tp846
a(S'48'
p847
S'48'
p848
S'CD'
p849
S'B-NP'
p850
g5
tp851
a(S'instances'
p852
S'instance'
p853
S'NNS'
p854
S'I-NP'
p855
g5
tp856
a(g196
g196
g196
g5
g5
tp857
a(S'parents'
p858
S'parent'
p859
S'NNS'
p860
S'B-NP'
p861
g5
tp862
a(S'based'
p863
S'base'
p864
S'VBD'
p865
S'B-VP'
p866
g5
tp867
a(S'their'
p868
S'their'
p869
S'PRP$'
p870
S'B-NP'
p871
g5
tp872
a(S'guess'
p873
S'guess'
p874
S'NN'
p875
S'I-NP'
p876
g5
tp877
a(S'on'
p878
S'on'
p879
S'IN'
p880
S'B-PP'
p881
g5
tp882
a(S'perceived'
p883
S'perceive'
p884
S'VBN'
p885
S'B-NP'
p886
g5
tp887
a(S'improvement'
p888
S'improvement'
p889
S'NN'
p890
S'I-NP'
p891
g5
tp892
a(S';'
p893
g893
g32
g5
g5
tp894
a(S'in'
p895
S'in'
p896
S'IN'
p897
S'B-PP'
p898
g5
tp899
a(S'six'
p900
S'six'
p901
S'CD'
p902
S'B-NP'
p903
g5
tp904
a(S'cases'
p905
S'case'
p906
S'NNS'
p907
S'I-NP'
p908
g5
tp909
a(g196
g196
g196
g5
g5
tp910
a(S'parents'
p911
S'parent'
p912
S'NNS'
p913
S'B-NP'
p914
g5
tp915
a(S'based'
p916
S'base'
p917
S'VBD'
p918
S'B-VP'
p919
g5
tp920
a(S'their'
p921
S'their'
p922
S'PRP$'
p923
S'B-NP'
p924
g5
tp925
a(S'guess'
p926
S'guess'
p927
S'NN'
p928
S'I-NP'
p929
g5
tp930
a(S'on'
p931
S'on'
p932
S'IN'
p933
S'B-PP'
p934
g5
tp935
a(S'perceived'
p936
S'perceive'
p937
S'VBN'
p938
S'B-NP'
p939
g5
tp940
a(S'deterioration.'
p941
S'deterioration.'
p942
S'NN'
p943
S'I-NP'
p944
g5
tp945
a(S'Six'
p946
S'Six'
p947
S'CD'
p948
S'B-NP'
p949
g5
tp950
a(S'families'
p951
S'family'
p952
S'NNS'
p953
S'I-NP'
p954
g5
tp955
a(S'saw'
p956
S'see'
p957
S'VBD'
p958
S'B-VP'
p959
g5
tp960
a(S'no'
p961
S'no'
p962
S'DT'
p963
S'B-NP'
p964
g5
tp965
a(S'difference'
p966
S'difference'
p967
S'NN'
p968
S'I-NP'
p969
g5
tp970
a(S'after'
p971
S'after'
p972
S'IN'
p973
S'B-PP'
p974
g5
tp975
a(S'either'
p976
S'either'
p977
S'DT'
p978
S'B-NP'
p979
g5
tp980
a(S'infusion'
p981
S'infusion'
p982
S'NN'
p983
S'I-NP'
p984
g5
tp985
a(g196
g196
g196
g5
g5
tp986
a(S'and'
p987
S'and'
p988
S'CC'
p989
g5
g5
tp990
a(S'offered'
p991
S'offer'
p992
S'VBD'
p993
S'B-VP'
p994
g5
tp995
a(S'no'
p996
S'no'
p997
S'DT'
p998
S'B-NP'
p999
g5
tp1000
a(S'guess.'
p1001
S'guess.'
p1002
S'NN'
p1003
S'I-NP'
p1004
S'B-protein'
p1005
tp1006
a(S'One'
p1007
S'One'
p1008
S'CD'
p1009
S'I-NP'
p1010
S'I-protein'
p1011
tp1012
a(S'family'
p1013
S'family'
p1014
S'NN'
p1015
S'I-NP'
p1016
S'I-protein'
p1017
tp1018
a(S'dropped'
p1019
S'drop'
p1020
S'VBD'
p1021
S'B-VP'
p1022
g5
tp1023
a(S'out'
p1024
S'out'
p1025
S'RP'
p1026
S'B-PRT'
p1027
g5
tp1028
a(S'after'
p1029
S'after'
p1030
S'IN'
p1031
S'B-PP'
p1032
g5
tp1033
a(S'the'
p1034
S'the'
p1035
S'DT'
p1036
S'B-NP'
p1037
g5
tp1038
a(S'first'
p1039
S'first'
p1040
S'JJ'
p1041
S'I-NP'
p1042
g5
tp1043
a(S'infusion'
p1044
S'infusion'
p1045
S'NN'
p1046
S'I-NP'
p1047
g5
tp1048
a(g196
g196
g196
g5
g5
tp1049
a(S'and'
p1050
S'and'
p1051
S'CC'
p1052
g5
g5
tp1053
a(S'one'
p1054
S'one'
p1055
S'CD'
p1056
S'B-NP'
p1057
g5
tp1058
a(S'family'
p1059
S'family'
p1060
S'NN'
p1061
S'I-NP'
p1062
g5
tp1063
a(S'was'
p1064
S'be'
p1065
S'VBD'
p1066
S'B-VP'
p1067
g5
tp1068
a(S'lost'
p1069
S'lose'
p1070
S'VBN'
p1071
S'I-VP'
p1072
g5
tp1073
a(S'to'
p1074
S'to'
p1075
S'TO'
p1076
S'I-VP'
p1077
g5
tp1078
a(S'follow'
p1079
S'follow'
p1080
S'VB'
p1081
S'I-VP'
p1082
g5
tp1083
a(S'up'
p1084
S'up'
p1085
S'RP'
p1086
S'B-PRT'
p1087
g5
tp1088
a(S'after'
p1089
S'after'
p1090
S'IN'
p1091
S'B-PP'
p1092
g5
tp1093
a(S'the'
p1094
S'the'
p1095
S'DT'
p1096
S'B-NP'
p1097
g5
tp1098
a(S'second'
p1099
S'second'
p1100
S'JJ'
p1101
S'I-NP'
p1102
g5
tp1103
a(S'infusion'
p1104
S'infusion'
p1105
S'NN'
p1106
S'I-NP'
p1107
g5
tp1108
a(g89
g89
g89
g5
g5
tp1109
a(S'CONCLUSION'
p1110
S'CONCLUSION'
p1111
S'NN'
p1112
S'B-NP'
p1113
g5
tp1114
a(S'In'
p1115
S'In'
p1116
S'IN'
p1117
S'B-PP'
p1118
g5
tp1119
a(S'a'
p1120
g1120
S'DT'
p1121
S'B-NP'
p1122
g5
tp1123
a(S'controlled'
p1124
S'controlled'
p1125
S'JJ'
p1126
S'I-NP'
p1127
g5
tp1128
a(S'setting'
p1129
S'setting'
p1130
S'NN'
p1131
S'I-NP'
p1132
g5
tp1133
a(g196
g196
g196
g5
g5
tp1134
a(S'parents'
p1135
S'parent'
p1136
S'NNS'
p1137
S'B-NP'
p1138
g5
tp1139
a(S'of'
p1140
S'of'
p1141
S'IN'
p1142
S'B-PP'
p1143
g5
tp1144
a(S'young'
p1145
S'young'
p1146
S'JJ'
p1147
S'B-NP'
p1148
g5
tp1149
a(S'children'
p1150
S'child'
p1151
S'NNS'
p1152
S'I-NP'
p1153
g5
tp1154
a(S'with'
p1155
S'with'
p1156
S'IN'
p1157
S'B-PP'
p1158
g5
tp1159
a(S'autism'
p1160
S'autism'
p1161
S'NN'
p1162
S'B-NP'
p1163
g5
tp1164
a(S'are'
p1165
S'be'
p1166
S'VBP'
p1167
S'B-VP'
p1168
g5
tp1169
a(S'unable'
p1170
S'unable'
p1171
S'JJ'
p1172
S'B-ADJP'
p1173
g5
tp1174
a(S'to'
p1175
S'to'
p1176
S'TO'
p1177
S'B-VP'
p1178
g5
tp1179
a(S'distinguish'
p1180
S'distinguish'
p1181
S'VB'
p1182
S'I-VP'
p1183
g5
tp1184
a(S'the'
p1185
S'the'
p1186
S'DT'
p1187
S'B-NP'
p1188
g5
tp1189
a(S'short'
p1190
S'short'
p1191
S'JJ'
p1192
S'I-NP'
p1193
g5
tp1194
a(S'term'
p1195
S'term'
p1196
S'NN'
p1197
S'I-NP'
p1198
g5
tp1199
a(S'behavioural'
p1200
S'behavioural'
p1201
S'JJ'
p1202
S'I-NP'
p1203
g5
tp1204
a(S'effects'
p1205
S'effect'
p1206
S'NNS'
p1207
S'I-NP'
p1208
g5
tp1209
a(S'of'
p1210
S'of'
p1211
S'IN'
p1212
S'B-PP'
p1213
g5
tp1214
a(S'secretin'
p1215
S'secretin'
p1216
S'NN'
p1217
S'B-NP'
p1218
g5
tp1219
a(S'from'
p1220
S'from'
p1221
S'IN'
p1222
S'B-PP'
p1223
g5
tp1224
a(S'placebo'
p1225
S'placebo'
p1226
S'NN'
p1227
S'B-NP'
p1228
g5
tp1229
a(g89
g89
g89
g5
g5
tp1230
a.