(lp0
(S'Randomized'
p1
S'Randomize'
p2
S'VBN'
p3
S'B-VP'
p4
S'O'
p5
tp6
a(S','
p7
g7
g7
g5
g5
tp8
a(S'controlled'
p9
S'control'
p10
S'VBN'
p11
S'B-NP'
p12
g5
tp13
a(S'trial'
p14
S'trial'
p15
S'NN'
p16
S'I-NP'
p17
g5
tp18
a(S'of'
p19
S'of'
p20
S'IN'
p21
S'B-PP'
p22
g5
tp23
a(S'an'
p24
S'an'
p25
S'DT'
p26
S'B-NP'
p27
g5
tp28
a(S'intervention'
p29
S'intervention'
p30
S'NN'
p31
S'I-NP'
p32
g5
tp33
a(S'for'
p34
S'for'
p35
S'IN'
p36
S'B-PP'
p37
g5
tp38
a(S'toddlers'
p39
S'toddler'
p40
S'NNS'
p41
S'B-NP'
p42
g5
tp43
a(S'with'
p44
S'with'
p45
S'IN'
p46
S'B-PP'
p47
g5
tp48
a(S'autism'
p49
S'autism'
p50
S'NN'
p51
S'B-NP'
p52
g5
tp53
a(S':'
p54
g54
g54
g5
g5
tp55
a(S'the'
p56
S'the'
p57
S'DT'
p58
S'B-NP'
p59
g5
tp60
a(S'Early'
p61
S'Early'
p62
S'NNP'
p63
S'I-NP'
p64
g5
tp65
a(S'Start'
p66
S'Start'
p67
S'NNP'
p68
S'I-NP'
p69
g5
tp70
a(S'Denver'
p71
S'Denver'
p72
S'NNP'
p73
S'I-NP'
p74
g5
tp75
a(S'Model'
p76
S'Model'
p77
S'NNP'
p78
S'I-NP'
p79
g5
tp80
a(S'.'
p81
g81
g81
g5
g5
tp82
a(S'OBJECTIVE'
p83
S'OBJECTIVE'
p84
S'NN'
p85
S'B-NP'
p86
g5
tp87
a(S'To'
p88
S'To'
p89
S'TO'
p90
S'B-VP'
p91
g5
tp92
a(S'conduct'
p93
S'conduct'
p94
S'VB'
p95
S'I-VP'
p96
g5
tp97
a(S'a'
p98
g98
S'DT'
p99
S'B-NP'
p100
g5
tp101
a(S'randomized'
p102
S'randomize'
p103
S'VBN'
p104
S'I-NP'
p105
g5
tp106
a(g7
g7
g7
S'I-NP'
p107
g5
tp108
a(S'controlled'
p109
S'control'
p110
S'VBN'
p111
S'I-NP'
p112
g5
tp113
a(S'trial'
p114
S'trial'
p115
S'NN'
p116
S'I-NP'
p117
g5
tp118
a(S'to'
p119
S'to'
p120
S'TO'
p121
S'B-VP'
p122
g5
tp123
a(S'evaluate'
p124
S'evaluate'
p125
S'VB'
p126
S'I-VP'
p127
g5
tp128
a(S'the'
p129
S'the'
p130
S'DT'
p131
S'B-NP'
p132
g5
tp133
a(S'efficacy'
p134
S'efficacy'
p135
S'NN'
p136
S'I-NP'
p137
g5
tp138
a(S'of'
p139
S'of'
p140
S'IN'
p141
S'B-PP'
p142
g5
tp143
a(S'the'
p144
S'the'
p145
S'DT'
p146
S'B-NP'
p147
g5
tp148
a(S'Early'
p149
S'Early'
p150
S'NNP'
p151
S'I-NP'
p152
g5
tp153
a(S'Start'
p154
S'Start'
p155
S'NNP'
p156
S'I-NP'
p157
g5
tp158
a(S'Denver'
p159
S'Denver'
p160
S'NNP'
p161
S'I-NP'
p162
g5
tp163
a(S'Model'
p164
S'Model'
p165
S'NNP'
p166
S'I-NP'
p167
g5
tp168
a(S'('
p169
g169
g169
g5
g5
tp170
a(S'ESDM'
p171
S'ESDM'
p172
S'NNP'
p173
S'B-NP'
p174
g5
tp175
a(S')'
p176
g176
g176
g5
g5
tp177
a(g7
g7
g7
g5
g5
tp178
a(g98
g98
S'DT'
p179
S'B-NP'
p180
g5
tp181
a(S'comprehensive'
p182
S'comprehensive'
p183
S'JJ'
p184
S'I-NP'
p185
g5
tp186
a(S'developmental'
p187
S'developmental'
p188
S'JJ'
p189
S'I-NP'
p190
g5
tp191
a(S'behavioral'
p192
S'behavioral'
p193
S'JJ'
p194
S'I-NP'
p195
g5
tp196
a(S'intervention'
p197
S'intervention'
p198
S'NN'
p199
S'I-NP'
p200
g5
tp201
a(g7
g7
g7
g5
g5
tp202
a(S'for'
p203
S'for'
p204
S'IN'
p205
S'B-PP'
p206
g5
tp207
a(S'improving'
p208
S'improve'
p209
S'VBG'
p210
S'B-VP'
p211
g5
tp212
a(S'outcomes'
p213
S'outcome'
p214
S'NNS'
p215
S'B-NP'
p216
g5
tp217
a(S'of'
p218
S'of'
p219
S'IN'
p220
S'B-PP'
p221
g5
tp222
a(S'toddlers'
p223
S'toddler'
p224
S'NNS'
p225
S'B-NP'
p226
g5
tp227
a(S'diagnosed'
p228
S'diagnose'
p229
S'VBN'
p230
S'B-VP'
p231
g5
tp232
a(S'with'
p233
S'with'
p234
S'IN'
p235
S'B-PP'
p236
g5
tp237
a(S'autism'
p238
S'autism'
p239
S'NN'
p240
S'B-NP'
p241
g5
tp242
a(S'spectrum'
p243
S'spectrum'
p244
S'NN'
p245
S'I-NP'
p246
g5
tp247
a(S'disorder'
p248
S'disorder'
p249
S'NN'
p250
S'I-NP'
p251
g5
tp252
a(g169
g169
g169
g5
g5
tp253
a(S'ASD'
p254
S'ASD'
p255
S'NN'
p256
S'B-NP'
p257
g5
tp258
a(g176
g176
g176
g5
g5
tp259
a(g81
g81
g81
g5
g5
tp260
a(S'METHODS'
p261
S'METHODS'
p262
S'NNS'
p263
S'B-NP'
p264
g5
tp265
a(S'Forty-eight'
p266
S'Forty-eight'
p267
S'CD'
p268
S'B-NP'
p269
g5
tp270
a(S'children'
p271
S'child'
p272
S'NNS'
p273
S'I-NP'
p274
g5
tp275
a(S'diagnosed'
p276
S'diagnose'
p277
S'VBN'
p278
S'B-VP'
p279
g5
tp280
a(S'with'
p281
S'with'
p282
S'IN'
p283
S'B-PP'
p284
g5
tp285
a(S'ASD'
p286
S'ASD'
p287
S'NN'
p288
S'B-NP'
p289
g5
tp290
a(S'between'
p291
S'between'
p292
S'IN'
p293
S'B-PP'
p294
g5
tp295
a(S'18'
p296
S'18'
p297
S'CD'
p298
S'B-NP'
p299
g5
tp300
a(S'and'
p301
S'and'
p302
S'CC'
p303
S'I-NP'
p304
g5
tp305
a(S'30'
p306
S'30'
p307
S'CD'
p308
S'I-NP'
p309
g5
tp310
a(S'months'
p311
S'month'
p312
S'NNS'
p313
S'I-NP'
p314
g5
tp315
a(S'of'
p316
S'of'
p317
S'IN'
p318
S'B-PP'
p319
g5
tp320
a(S'age'
p321
S'age'
p322
S'NN'
p323
S'B-NP'
p324
g5
tp325
a(S'were'
p326
S'be'
p327
S'VBD'
p328
S'B-VP'
p329
g5
tp330
a(S'randomly'
p331
S'randomly'
p332
S'RB'
p333
S'I-VP'
p334
g5
tp335
a(S'assigned'
p336
S'assign'
p337
S'VBN'
p338
S'I-VP'
p339
g5
tp340
a(S'to'
p341
S'to'
p342
S'TO'
p343
S'B-PP'
p344
g5
tp345
a(S'1'
p346
g346
S'CD'
p347
S'B-NP'
p348
g5
tp349
a(S'of'
p350
S'of'
p351
S'IN'
p352
S'B-PP'
p353
g5
tp354
a(S'2'
p355
g355
S'CD'
p356
S'B-NP'
p357
g5
tp358
a(S'groups'
p359
S'group'
p360
S'NNS'
p361
S'I-NP'
p362
g5
tp363
a(g54
g54
g54
g5
g5
tp364
a(g169
g169
g169
S'B-LST'
p365
g5
tp366
a(g346
g346
S'LS'
p367
S'I-LST'
p368
g5
tp369
a(g176
g176
g176
g5
g5
tp370
a(S'ESDM'
p371
S'ESDM'
p372
S'NN'
p373
S'B-NP'
p374
g5
tp375
a(S'intervention'
p376
S'intervention'
p377
S'NN'
p378
S'I-NP'
p379
g5
tp380
a(g7
g7
g7
g5
g5
tp381
a(S'which'
p382
S'which'
p383
S'WDT'
p384
S'B-NP'
p385
g5
tp386
a(S'is'
p387
S'be'
p388
S'VBZ'
p389
S'B-VP'
p390
g5
tp391
a(S'based'
p392
S'base'
p393
S'VBN'
p394
S'I-VP'
p395
g5
tp396
a(S'on'
p397
S'on'
p398
S'IN'
p399
S'B-PP'
p400
g5
tp401
a(S'developmental'
p402
S'developmental'
p403
S'JJ'
p404
g5
g5
tp405
a(S'and'
p406
S'and'
p407
S'CC'
p408
g5
g5
tp409
a(S'applied'
p410
S'apply'
p411
S'VBN'
p412
S'B-VP'
p413
g5
tp414
a(S'behavioral'
p415
S'behavioral'
p416
S'JJ'
p417
S'B-NP'
p418
g5
tp419
a(S'analytic'
p420
S'analytic'
p421
S'JJ'
p422
S'I-NP'
p423
g5
tp424
a(S'principles'
p425
S'principle'
p426
S'NNS'
p427
S'I-NP'
p428
g5
tp429
a(S'and'
p430
S'and'
p431
S'CC'
p432
g5
g5
tp433
a(S'delivered'
p434
S'deliver'
p435
S'VBN'
p436
S'B-VP'
p437
g5
tp438
a(S'by'
p439
S'by'
p440
S'IN'
p441
S'B-PP'
p442
g5
tp443
a(S'trained'
p444
S'trained'
p445
S'JJ'
p446
S'B-NP'
p447
g5
tp448
a(S'therapists'
p449
S'therapist'
p450
S'NNS'
p451
S'I-NP'
p452
g5
tp453
a(S'and'
p454
S'and'
p455
S'CC'
p456
S'I-NP'
p457
g5
tp458
a(S'parents'
p459
S'parent'
p460
S'NNS'
p461
S'I-NP'
p462
g5
tp463
a(S'for'
p464
S'for'
p465
S'IN'
p466
S'B-PP'
p467
g5
tp468
a(g355
g355
S'CD'
p469
S'B-NP'
p470
g5
tp471
a(S'years'
p472
S'year'
p473
S'NNS'
p474
S'I-NP'
p475
g5
tp476
a(S';'
p477
g477
g54
g5
g5
tp478
a(S'or'
p479
S'or'
p480
S'CC'
p481
g5
g5
tp482
a(g169
g169
g169
S'B-LST'
p483
g5
tp484
a(g355
g355
S'LS'
p485
S'I-LST'
p486
g5
tp487
a(g176
g176
g176
g5
g5
tp488
a(S'referral'
p489
S'referral'
p490
S'JJ'
p491
S'B-ADJP'
p492
g5
tp493
a(S'to'
p494
S'to'
p495
S'TO'
p496
S'B-PP'
p497
g5
tp498
a(S'community'
p499
S'community'
p500
S'NN'
p501
S'B-NP'
p502
g5
tp503
a(S'providers'
p504
S'provider'
p505
S'NNS'
p506
S'I-NP'
p507
g5
tp508
a(S'for'
p509
S'for'
p510
S'IN'
p511
S'B-PP'
p512
g5
tp513
a(S'intervention'
p514
S'intervention'
p515
S'NN'
p516
S'B-NP'
p517
g5
tp518
a(S'commonly'
p519
S'commonly'
p520
S'RB'
p521
S'B-ADJP'
p522
g5
tp523
a(S'available'
p524
S'available'
p525
S'JJ'
p526
S'I-ADJP'
p527
g5
tp528
a(S'in'
p529
S'in'
p530
S'IN'
p531
S'B-PP'
p532
g5
tp533
a(S'the'
p534
S'the'
p535
S'DT'
p536
S'B-NP'
p537
g5
tp538
a(S'community'
p539
S'community'
p540
S'NN'
p541
S'I-NP'
p542
g5
tp543
a(g81
g81
g81
g5
g5
tp544
a(S'RESULTS'
p545
S'RESULTS'
p546
S'NNS'
p547
S'B-NP'
p548
g5
tp549
a(S'Compared'
p550
S'Compare'
p551
S'VBN'
p552
S'B-VP'
p553
g5
tp554
a(S'with'
p555
S'with'
p556
S'IN'
p557
S'B-PP'
p558
g5
tp559
a(S'children'
p560
S'child'
p561
S'NNS'
p562
S'B-NP'
p563
g5
tp564
a(S'who'
p565
S'who'
p566
S'WP'
p567
S'B-NP'
p568
g5
tp569
a(S'received'
p570
S'receive'
p571
S'VBD'
p572
S'B-VP'
p573
g5
tp574
a(S'community-intervention'
p575
S'community-intervention'
p576
S'NN'
p577
S'B-NP'
p578
g5
tp579
a(g7
g7
g7
g5
g5
tp580
a(S'children'
p581
S'child'
p582
S'NNS'
p583
S'B-NP'
p584
g5
tp585
a(S'who'
p586
S'who'
p587
S'WP'
p588
S'B-NP'
p589
g5
tp590
a(S'received'
p591
S'receive'
p592
S'VBD'
p593
S'B-VP'
p594
g5
tp595
a(S'ESDM'
p596
S'ESDM'
p597
S'NNP'
p598
S'B-NP'
p599
g5
tp600
a(S'showed'
p601
S'show'
p602
S'VBD'
p603
S'B-VP'
p604
g5
tp605
a(S'significant'
p606
S'significant'
p607
S'JJ'
p608
S'B-NP'
p609
g5
tp610
a(S'improvements'
p611
S'improvement'
p612
S'NNS'
p613
S'I-NP'
p614
g5
tp615
a(S'in'
p616
S'in'
p617
S'IN'
p618
S'B-PP'
p619
g5
tp620
a(S'IQ'
p621
S'IQ'
p622
S'NN'
p623
S'B-NP'
p624
g5
tp625
a(g7
g7
g7
g5
g5
tp626
a(S'adaptive'
p627
S'adaptive'
p628
S'JJ'
p629
S'B-NP'
p630
g5
tp631
a(S'behavior'
p632
S'behavior'
p633
S'NN'
p634
S'I-NP'
p635
g5
tp636
a(g7
g7
g7
g5
g5
tp637
a(S'and'
p638
S'and'
p639
S'CC'
p640
g5
g5
tp641
a(S'autism'
p642
S'autism'
p643
S'NN'
p644
S'B-NP'
p645
g5
tp646
a(S'diagnosis.'
p647
S'diagnosis.'
p648
S'NN'
p649
S'I-NP'
p650
g5
tp651
a(S'Two'
p652
S'Two'
p653
S'CD'
p654
S'B-NP'
p655
g5
tp656
a(S'years'
p657
S'year'
p658
S'NNS'
p659
S'I-NP'
p660
g5
tp661
a(S'after'
p662
S'after'
p663
S'IN'
p664
S'B-PP'
p665
g5
tp666
a(S'entering'
p667
S'enter'
p668
S'VBG'
p669
S'B-VP'
p670
g5
tp671
a(S'intervention'
p672
S'intervention'
p673
S'NN'
p674
S'B-NP'
p675
g5
tp676
a(g7
g7
g7
g5
g5
tp677
a(S'the'
p678
S'the'
p679
S'DT'
p680
S'B-NP'
p681
g5
tp682
a(S'ESDM'
p683
S'ESDM'
p684
S'NNP'
p685
S'I-NP'
p686
g5
tp687
a(S'group'
p688
S'group'
p689
S'NN'
p690
S'I-NP'
p691
g5
tp692
a(S'on'
p693
S'on'
p694
S'IN'
p695
S'B-PP'
p696
g5
tp697
a(S'average'
p698
S'average'
p699
S'NN'
p700
S'B-NP'
p701
g5
tp702
a(S'improved'
p703
S'improve'
p704
S'VBD'
p705
S'B-VP'
p706
g5
tp707
a(S'17.6'
p708
S'17.6'
p709
S'CD'
p710
S'B-NP'
p711
g5
tp712
a(S'standard'
p713
S'standard'
p714
S'JJ'
p715
S'I-NP'
p716
g5
tp717
a(S'score'
p718
S'score'
p719
S'NN'
p720
S'I-NP'
p721
g5
tp722
a(S'points'
p723
S'point'
p724
S'NNS'
p725
S'I-NP'
p726
g5
tp727
a(g169
g169
g169
g5
g5
tp728
a(g346
g346
S'CD'
p729
S'B-NP'
p730
g5
tp731
a(S'SD'
p732
S'SD'
p733
S'NNP'
p734
S'I-NP'
p735
g5
tp736
a(g54
g54
g54
g5
g5
tp737
a(S'15'
p738
S'15'
p739
S'CD'
p740
S'B-NP'
p741
g5
tp742
a(S'points'
p743
S'point'
p744
S'NNS'
p745
S'I-NP'
p746
g5
tp747
a(g176
g176
g176
g5
g5
tp748
a(S'compared'
p749
S'compare'
p750
S'VBN'
p751
S'B-PP'
p752
g5
tp753
a(S'with'
p754
S'with'
p755
S'IN'
p756
S'B-PP'
p757
g5
tp758
a(S'7.0'
p759
S'7.0'
p760
S'CD'
p761
S'B-NP'
p762
g5
tp763
a(S'points'
p764
S'point'
p765
S'NNS'
p766
S'I-NP'
p767
g5
tp768
a(S'in'
p769
S'in'
p770
S'IN'
p771
S'B-PP'
p772
g5
tp773
a(S'the'
p774
S'the'
p775
S'DT'
p776
S'B-NP'
p777
g5
tp778
a(S'comparison'
p779
S'comparison'
p780
S'NN'
p781
S'I-NP'
p782
g5
tp783
a(S'group'
p784
S'group'
p785
S'NN'
p786
S'I-NP'
p787
g5
tp788
a(S'relative'
p789
S'relative'
p790
S'JJ'
p791
S'B-ADJP'
p792
g5
tp793
a(S'to'
p794
S'to'
p795
S'TO'
p796
S'B-PP'
p797
g5
tp798
a(S'baseline'
p799
S'baseline'
p800
S'NN'
p801
S'B-NP'
p802
g5
tp803
a(S'scores.'
p804
S'scores.'
p805
S'NNS'
p806
S'I-NP'
p807
g5
tp808
a(S'The'
p809
S'The'
p810
S'DT'
p811
S'B-NP'
p812
g5
tp813
a(S'ESDM'
p814
S'ESDM'
p815
S'NNP'
p816
S'I-NP'
p817
g5
tp818
a(S'group'
p819
S'group'
p820
S'NN'
p821
S'I-NP'
p822
g5
tp823
a(S'maintained'
p824
S'maintain'
p825
S'VBD'
p826
S'B-VP'
p827
g5
tp828
a(S'its'
p829
S'its'
p830
S'PRP$'
p831
S'B-NP'
p832
g5
tp833
a(S'rate'
p834
S'rate'
p835
S'NN'
p836
S'I-NP'
p837
g5
tp838
a(S'of'
p839
S'of'
p840
S'IN'
p841
S'B-PP'
p842
g5
tp843
a(S'growth'
p844
S'growth'
p845
S'NN'
p846
S'B-NP'
p847
g5
tp848
a(S'in'
p849
S'in'
p850
S'IN'
p851
S'B-PP'
p852
g5
tp853
a(S'adaptive'
p854
S'adaptive'
p855
S'JJ'
p856
S'B-NP'
p857
g5
tp858
a(S'behavior'
p859
S'behavior'
p860
S'NN'
p861
S'I-NP'
p862
g5
tp863
a(S'compared'
p864
S'compare'
p865
S'VBN'
p866
S'B-PP'
p867
g5
tp868
a(S'with'
p869
S'with'
p870
S'IN'
p871
S'B-PP'
p872
g5
tp873
a(g98
g98
S'DT'
p874
S'B-NP'
p875
g5
tp876
a(S'normative'
p877
S'normative'
p878
S'JJ'
p879
S'I-NP'
p880
g5
tp881
a(S'sample'
p882
S'sample'
p883
S'NN'
p884
S'I-NP'
p885
g5
tp886
a(S'of'
p887
S'of'
p888
S'IN'
p889
S'B-PP'
p890
g5
tp891
a(S'typically'
p892
S'typically'
p893
S'RB'
p894
S'B-ADVP'
p895
g5
tp896
a(S'developing'
p897
S'develop'
p898
S'VBG'
p899
S'B-VP'
p900
g5
tp901
a(S'children.'
p902
S'children.'
p903
S'NN'
p904
S'B-NP'
p905
g5
tp906
a(S'In'
p907
S'In'
p908
S'IN'
p909
S'B-PP'
p910
g5
tp911
a(S'contrast'
p912
S'contrast'
p913
S'NN'
p914
S'B-NP'
p915
g5
tp916
a(g7
g7
g7
g5
g5
tp917
a(S'over'
p918
S'over'
p919
S'IN'
p920
S'B-PP'
p921
g5
tp922
a(S'the'
p923
S'the'
p924
S'DT'
p925
S'B-NP'
p926
g5
tp927
a(S'2-year'
p928
S'2-year'
p929
S'JJ'
p930
S'I-NP'
p931
g5
tp932
a(S'span'
p933
S'span'
p934
S'NN'
p935
S'I-NP'
p936
g5
tp937
a(g7
g7
g7
g5
g5
tp938
a(S'the'
p939
S'the'
p940
S'DT'
p941
S'B-NP'
p942
g5
tp943
a(S'comparison'
p944
S'comparison'
p945
S'NN'
p946
S'I-NP'
p947
g5
tp948
a(S'group'
p949
S'group'
p950
S'NN'
p951
S'I-NP'
p952
g5
tp953
a(S'showed'
p954
S'show'
p955
S'VBD'
p956
S'B-VP'
p957
g5
tp958
a(S'greater'
p959
S'great'
p960
S'JJR'
p961
S'B-NP'
p962
g5
tp963
a(S'delays'
p964
S'delay'
p965
S'NNS'
p966
S'I-NP'
p967
g5
tp968
a(S'in'
p969
S'in'
p970
S'IN'
p971
S'B-PP'
p972
g5
tp973
a(S'adaptive'
p974
S'adaptive'
p975
S'JJ'
p976
S'B-NP'
p977
g5
tp978
a(S'behavior.'
p979
S'behavior.'
p980
S'NN'
p981
S'I-NP'
p982
g5
tp983
a(S'Children'
p984
S'Children'
p985
S'NNP'
p986
S'I-NP'
p987
g5
tp988
a(S'who'
p989
S'who'
p990
S'WP'
p991
S'B-NP'
p992
g5
tp993
a(S'received'
p994
S'receive'
p995
S'VBD'
p996
S'B-VP'
p997
g5
tp998
a(S'ESDM'
p999
S'ESDM'
p1000
S'NNP'
p1001
S'B-NP'
p1002
g5
tp1003
a(S'also'
p1004
S'also'
p1005
S'RB'
p1006
S'B-ADVP'
p1007
g5
tp1008
a(S'were'
p1009
S'be'
p1010
S'VBD'
p1011
S'B-VP'
p1012
g5
tp1013
a(S'more'
p1014
S'more'
p1015
S'RBR'
p1016
S'B-ADJP'
p1017
g5
tp1018
a(S'likely'
p1019
S'likely'
p1020
S'JJ'
p1021
S'I-ADJP'
p1022
g5
tp1023
a(S'to'
p1024
S'to'
p1025
S'TO'
p1026
S'B-VP'
p1027
g5
tp1028
a(S'experience'
p1029
S'experience'
p1030
S'VB'
p1031
S'I-VP'
p1032
g5
tp1033
a(g98
g98
S'DT'
p1034
S'B-NP'
p1035
g5
tp1036
a(S'change'
p1037
S'change'
p1038
S'NN'
p1039
S'I-NP'
p1040
g5
tp1041
a(S'in'
p1042
S'in'
p1043
S'IN'
p1044
S'B-PP'
p1045
g5
tp1046
a(S'diagnosis'
p1047
S'diagnosis'
p1048
S'NN'
p1049
S'B-NP'
p1050
g5
tp1051
a(S'from'
p1052
S'from'
p1053
S'IN'
p1054
S'B-PP'
p1055
g5
tp1056
a(S'autism'
p1057
S'autism'
p1058
S'NN'
p1059
S'B-NP'
p1060
g5
tp1061
a(S'to'
p1062
S'to'
p1063
S'TO'
p1064
S'B-PP'
p1065
g5
tp1066
a(S'pervasive'
p1067
S'pervasive'
p1068
S'JJ'
p1069
S'B-NP'
p1070
g5
tp1071
a(S'developmental'
p1072
S'developmental'
p1073
S'JJ'
p1074
S'I-NP'
p1075
g5
tp1076
a(S'disorder'
p1077
S'disorder'
p1078
S'NN'
p1079
S'I-NP'
p1080
g5
tp1081
a(g7
g7
g7
g5
g5
tp1082
a(S'not'
p1083
S'not'
p1084
S'RB'
p1085
S'B-VP'
p1086
g5
tp1087
a(S'otherwise'
p1088
S'otherwise'
p1089
S'RB'
p1090
S'I-VP'
p1091
g5
tp1092
a(S'specified'
p1093
S'specify'
p1094
S'VBN'
p1095
S'I-VP'
p1096
g5
tp1097
a(g7
g7
g7
g5
g5
tp1098
a(S'than'
p1099
S'than'
p1100
S'IN'
p1101
S'B-PP'
p1102
g5
tp1103
a(S'the'
p1104
S'the'
p1105
S'DT'
p1106
S'B-NP'
p1107
g5
tp1108
a(S'comparison'
p1109
S'comparison'
p1110
S'NN'
p1111
S'I-NP'
p1112
g5
tp1113
a(S'group'
p1114
S'group'
p1115
S'NN'
p1116
S'I-NP'
p1117
g5
tp1118
a(g81
g81
g81
g5
g5
tp1119
a(S'CONCLUSIONS'
p1120
S'CONCLUSIONS'
p1121
S'NNS'
p1122
S'B-NP'
p1123
g5
tp1124
a(S'This'
p1125
S'This'
p1126
S'DT'
p1127
S'B-NP'
p1128
g5
tp1129
a(S'is'
p1130
S'be'
p1131
S'VBZ'
p1132
S'B-VP'
p1133
g5
tp1134
a(S'the'
p1135
S'the'
p1136
S'DT'
p1137
S'B-NP'
p1138
g5
tp1139
a(S'first'
p1140
S'first'
p1141
S'JJ'
p1142
S'I-NP'
p1143
g5
tp1144
a(S'randomized'
p1145
S'randomize'
p1146
S'VBN'
p1147
S'B-VP'
p1148
g5
tp1149
a(g7
g7
g7
g5
g5
tp1150
a(S'controlled'
p1151
S'control'
p1152
S'VBN'
p1153
S'B-NP'
p1154
g5
tp1155
a(S'trial'
p1156
S'trial'
p1157
S'NN'
p1158
S'I-NP'
p1159
g5
tp1160
a(S'to'
p1161
S'to'
p1162
S'TO'
p1163
S'B-VP'
p1164
g5
tp1165
a(S'demonstrate'
p1166
S'demonstrate'
p1167
S'VB'
p1168
S'I-VP'
p1169
g5
tp1170
a(S'the'
p1171
S'the'
p1172
S'DT'
p1173
S'B-NP'
p1174
g5
tp1175
a(S'efficacy'
p1176
S'efficacy'
p1177
S'NN'
p1178
S'I-NP'
p1179
g5
tp1180
a(S'of'
p1181
S'of'
p1182
S'IN'
p1183
S'B-PP'
p1184
g5
tp1185
a(g98
g98
S'DT'
p1186
S'B-NP'
p1187
g5
tp1188
a(S'comprehensive'
p1189
S'comprehensive'
p1190
S'JJ'
p1191
S'I-NP'
p1192
g5
tp1193
a(S'developmental'
p1194
S'developmental'
p1195
S'JJ'
p1196
S'I-NP'
p1197
g5
tp1198
a(S'behavioral'
p1199
S'behavioral'
p1200
S'JJ'
p1201
S'I-NP'
p1202
g5
tp1203
a(S'intervention'
p1204
S'intervention'
p1205
S'NN'
p1206
S'I-NP'
p1207
g5
tp1208
a(S'for'
p1209
S'for'
p1210
S'IN'
p1211
S'B-PP'
p1212
g5
tp1213
a(S'toddlers'
p1214
S'toddler'
p1215
S'NNS'
p1216
S'B-NP'
p1217
g5
tp1218
a(S'with'
p1219
S'with'
p1220
S'IN'
p1221
S'B-PP'
p1222
g5
tp1223
a(S'ASD'
p1224
S'ASD'
p1225
S'NN'
p1226
S'B-NP'
p1227
g5
tp1228
a(S'for'
p1229
S'for'
p1230
S'IN'
p1231
S'B-PP'
p1232
g5
tp1233
a(S'improving'
p1234
S'improve'
p1235
S'VBG'
p1236
S'B-VP'
p1237
g5
tp1238
a(S'cognitive'
p1239
S'cognitive'
p1240
S'JJ'
p1241
S'B-NP'
p1242
g5
tp1243
a(S'and'
p1244
S'and'
p1245
S'CC'
p1246
S'I-NP'
p1247
g5
tp1248
a(S'adaptive'
p1249
S'adaptive'
p1250
S'JJ'
p1251
S'I-NP'
p1252
g5
tp1253
a(S'behavior'
p1254
S'behavior'
p1255
S'NN'
p1256
S'I-NP'
p1257
g5
tp1258
a(S'and'
p1259
S'and'
p1260
S'CC'
p1261
g5
g5
tp1262
a(S'reducing'
p1263
S'reduce'
p1264
S'VBG'
p1265
S'B-VP'
p1266
g5
tp1267
a(S'severity'
p1268
S'severity'
p1269
S'NN'
p1270
S'B-NP'
p1271
g5
tp1272
a(S'of'
p1273
S'of'
p1274
S'IN'
p1275
S'B-PP'
p1276
g5
tp1277
a(S'ASD'
p1278
S'ASD'
p1279
S'NN'
p1280
S'B-NP'
p1281
g5
tp1282
a(S'diagnosis.'
p1283
S'diagnosis.'
p1284
S'NN'
p1285
S'I-NP'
p1286
g5
tp1287
a(S'Results'
p1288
S'Result'
p1289
S'NNS'
p1290
S'I-NP'
p1291
g5
tp1292
a(S'of'
p1293
S'of'
p1294
S'IN'
p1295
S'B-PP'
p1296
g5
tp1297
a(S'this'
p1298
S'this'
p1299
S'DT'
p1300
S'B-NP'
p1301
g5
tp1302
a(S'study'
p1303
S'study'
p1304
S'NN'
p1305
S'I-NP'
p1306
g5
tp1307
a(S'underscore'
p1308
S'underscore'
p1309
S'VBP'
p1310
S'B-VP'
p1311
g5
tp1312
a(S'the'
p1313
S'the'
p1314
S'DT'
p1315
S'B-NP'
p1316
g5
tp1317
a(S'importance'
p1318
S'importance'
p1319
S'NN'
p1320
S'I-NP'
p1321
g5
tp1322
a(S'of'
p1323
S'of'
p1324
S'IN'
p1325
S'B-PP'
p1326
g5
tp1327
a(S'early'
p1328
S'early'
p1329
S'JJ'
p1330
S'B-NP'
p1331
g5
tp1332
a(S'detection'
p1333
S'detection'
p1334
S'NN'
p1335
S'I-NP'
p1336
g5
tp1337
a(S'of'
p1338
S'of'
p1339
S'IN'
p1340
S'B-PP'
p1341
g5
tp1342
a(S'and'
p1343
S'and'
p1344
S'CC'
p1345
g5
g5
tp1346
a(S'intervention'
p1347
S'intervention'
p1348
S'NN'
p1349
S'B-NP'
p1350
g5
tp1351
a(S'in'
p1352
S'in'
p1353
S'IN'
p1354
S'B-PP'
p1355
g5
tp1356
a(S'autism'
p1357
S'autism'
p1358
S'NN'
p1359
S'B-NP'
p1360
g5
tp1361
a(g81
g81
g81
g5
g5
tp1362
a.