(lp0
(S'DTkid'
p1
S'DTkid'
p2
S'NN'
p3
S'B-NP'
p4
S'O'
p5
tp6
a(S':'
p7
g7
g7
g5
g5
tp8
a(S'interactive'
p9
S'interactive'
p10
S'JJ'
p11
S'B-NP'
p12
g5
tp13
a(S'simulation'
p14
S'simulation'
p15
S'NN'
p16
S'I-NP'
p17
g5
tp18
a(S'software'
p19
S'software'
p20
S'NN'
p21
S'I-NP'
p22
g5
tp23
a(S'for'
p24
S'for'
p25
S'IN'
p26
S'B-PP'
p27
g5
tp28
a(S'training'
p29
S'training'
p30
S'NN'
p31
S'B-NP'
p32
g5
tp33
a(S'tutors'
p34
S'tutor'
p35
S'NNS'
p36
S'I-NP'
p37
g5
tp38
a(S'of'
p39
S'of'
p40
S'IN'
p41
S'B-PP'
p42
g5
tp43
a(S'children'
p44
S'child'
p45
S'NNS'
p46
S'B-NP'
p47
g5
tp48
a(S'with'
p49
S'with'
p50
S'IN'
p51
S'B-PP'
p52
g5
tp53
a(S'autism'
p54
S'autism'
p55
S'NN'
p56
S'B-NP'
p57
g5
tp58
a(S'.'
p59
g59
g59
g5
g5
tp60
a(S'Discrete-trial'
p61
S'Discrete-trial'
p62
S'JJ'
p63
S'B-NP'
p64
g5
tp65
a(S'training'
p66
S'training'
p67
S'NN'
p68
S'I-NP'
p69
g5
tp70
a(S'('
p71
g71
g71
g5
g5
tp72
a(S'DTT'
p73
S'DTT'
p74
S'NN'
p75
S'B-NP'
p76
g5
tp77
a(S')'
p78
g78
g78
g5
g5
tp79
a(S'relies'
p80
S'rely'
p81
S'VBZ'
p82
S'B-VP'
p83
g5
tp84
a(S'critically'
p85
S'critically'
p86
S'RB'
p87
S'B-ADVP'
p88
g5
tp89
a(S'on'
p90
S'on'
p91
S'IN'
p92
S'B-PP'
p93
g5
tp94
a(S'implementation'
p95
S'implementation'
p96
S'NN'
p97
S'B-NP'
p98
g5
tp99
a(S'by'
p100
S'by'
p101
S'IN'
p102
S'B-PP'
p103
g5
tp104
a(S'trained'
p105
S'trained'
p106
S'JJ'
p107
S'B-NP'
p108
g5
tp109
a(S'tutors.'
p110
S'tutors.'
p111
S'NN'
p112
S'I-NP'
p113
g5
tp114
a(S'We'
p115
S'We'
p116
S'PRP'
p117
S'B-NP'
p118
g5
tp119
a(S'report'
p120
S'report'
p121
S'VBP'
p122
S'B-VP'
p123
g5
tp124
a(S'three'
p125
S'three'
p126
S'CD'
p127
S'B-NP'
p128
g5
tp129
a(S'experiments'
p130
S'experiment'
p131
S'NNS'
p132
S'I-NP'
p133
g5
tp134
a(S'carried'
p135
S'carry'
p136
S'VBN'
p137
S'B-VP'
p138
g5
tp139
a(S'out'
p140
S'out'
p141
S'RP'
p142
S'B-PRT'
p143
g5
tp144
a(S'in'
p145
S'in'
p146
S'IN'
p147
S'B-PP'
p148
g5
tp149
a(S'the'
p150
S'the'
p151
S'DT'
p152
S'B-NP'
p153
g5
tp154
a(S'development'
p155
S'development'
p156
S'NN'
p157
S'I-NP'
p158
g5
tp159
a(S'of'
p160
S'of'
p161
S'IN'
p162
S'B-PP'
p163
g5
tp164
a(S'``'
p165
S'``'
p166
S'``'
p167
g5
g5
tp168
a(S'DTkid'
p169
S'DTkid'
p170
S'NNP'
p171
S'B-NP'
p172
g5
tp173
a(S"''"
p174
S"''"
p175
S"''"
p176
g5
g5
tp177
a(S'--'
p178
S'--'
p179
g7
g5
g5
tp180
a(S'interactive'
p181
S'interactive'
p182
S'JJ'
p183
S'B-NP'
p184
g5
tp185
a(S'computer'
p186
S'computer'
p187
S'NN'
p188
S'I-NP'
p189
g5
tp190
a(S'simulation'
p191
S'simulation'
p192
S'NN'
p193
S'I-NP'
p194
g5
tp195
a(S'software'
p196
S'software'
p197
S'NN'
p198
S'I-NP'
p199
g5
tp200
a(S'that'
p201
S'that'
p202
S'WDT'
p203
S'B-NP'
p204
g5
tp205
a(S'presents'
p206
S'present'
p207
S'VBZ'
p208
S'B-VP'
p209
g5
tp210
a(S'``'
p211
S'``'
p212
S'``'
p213
g5
g5
tp214
a(S'SIMon'
p215
S'SIMon'
p216
S'NNP'
p217
S'B-NP'
p218
g5
tp219
a(S"''"
p220
S"''"
p221
S"''"
p222
g5
g5
tp223
a(S','
p224
g224
g224
g5
g5
tp225
a(S'a'
p226
g226
S'DT'
p227
S'B-NP'
p228
g5
tp229
a(S'realistic'
p230
S'realistic'
p231
S'JJ'
p232
S'I-NP'
p233
g5
tp234
a(S'virtual'
p235
S'virtual'
p236
S'JJ'
p237
S'I-NP'
p238
g5
tp239
a(S'child'
p240
S'child'
p241
S'NN'
p242
S'I-NP'
p243
g5
tp244
a(S'with'
p245
S'with'
p246
S'IN'
p247
S'B-PP'
p248
g5
tp249
a(S'whom'
p250
S'whom'
p251
S'WP'
p252
S'B-NP'
p253
g5
tp254
a(S'novice'
p255
S'novice'
p256
S'NN'
p257
S'B-NP'
p258
g5
tp259
a(S'tutors'
p260
S'tutor'
p261
S'NNS'
p262
S'I-NP'
p263
g5
tp264
a(S'can'
p265
S'can'
p266
S'MD'
p267
S'B-VP'
p268
g5
tp269
a(S'learn'
p270
S'learn'
p271
S'VB'
p272
S'I-VP'
p273
g5
tp274
a(S'and'
p275
S'and'
p276
S'CC'
p277
g5
g5
tp278
a(S'practise'
p279
S'practise'
p280
S'VB'
p281
S'B-VP'
p282
g5
tp283
a(S'DTT'
p284
S'DTT'
p285
S'NN'
p286
S'B-NP'
p287
g5
tp288
a(S'techniques.'
p289
S'techniques.'
p290
S'NN'
p291
S'I-NP'
p292
g5
tp293
a(S'Experiments'
p294
S'Experiment'
p295
S'NNS'
p296
S'I-NP'
p297
g5
tp298
a(S'1'
p299
g299
S'CD'
p300
S'B-NP'
p301
g5
tp302
a(S'and'
p303
S'and'
p304
S'CC'
p305
S'I-NP'
p306
g5
tp307
a(S'2'
p308
g308
S'CD'
p309
S'I-NP'
p310
g5
tp311
a(S'exposed'
p312
S'expose'
p313
S'VBN'
p314
S'I-NP'
p315
g5
tp316
a(S'groups'
p317
S'group'
p318
S'NNS'
p319
S'I-NP'
p320
g5
tp321
a(S'of'
p322
S'of'
p323
S'IN'
p324
S'B-PP'
p325
g5
tp326
a(S'participants'
p327
S'participant'
p328
S'NNS'
p329
S'B-NP'
p330
g5
tp331
a(S'either'
p332
S'either'
p333
S'CC'
p334
S'B-PP'
p335
g5
tp336
a(S'to'
p337
S'to'
p338
S'TO'
p339
S'B-PP'
p340
g5
tp341
a(S'DTkid'
p342
S'DTkid'
p343
S'NN'
p344
S'B-NP'
p345
g5
tp346
a(S'training'
p347
S'training'
p348
S'NN'
p349
S'I-NP'
p350
g5
tp351
a(S'or'
p352
S'or'
p353
S'CC'
p354
S'B-PP'
p355
g5
tp356
a(S'to'
p357
S'to'
p358
S'TO'
p359
S'B-PP'
p360
g5
tp361
a(g226
g226
S'DT'
p362
S'B-NP'
p363
g5
tp364
a(S'control'
p365
S'control'
p366
S'NN'
p367
S'I-NP'
p368
g5
tp369
a(S'task.'
p370
S'task.'
p371
S'NN'
p372
S'I-NP'
p373
g5
tp374
a(S'Participants'
p375
S'Participant'
p376
S'NNS'
p377
S'I-NP'
p378
g5
tp379
a(S'in'
p380
S'in'
p381
S'IN'
p382
S'B-PP'
p383
g5
tp384
a(S'the'
p385
S'the'
p386
S'DT'
p387
S'B-NP'
p388
g5
tp389
a(S'former'
p390
S'former'
p391
S'JJ'
p392
S'I-NP'
p393
g5
tp394
a(S'groups'
p395
S'group'
p396
S'NNS'
p397
S'I-NP'
p398
g5
tp399
a(S'demonstrated'
p400
S'demonstrate'
p401
S'VBD'
p402
S'B-VP'
p403
g5
tp404
a(S'significantly'
p405
S'significantly'
p406
S'RB'
p407
S'B-NP'
p408
g5
tp409
a(S'greater'
p410
S'great'
p411
S'JJR'
p412
S'I-NP'
p413
g5
tp414
a(S'procedural'
p415
S'procedural'
p416
S'JJ'
p417
S'I-NP'
p418
g5
tp419
a(S'and'
p420
S'and'
p421
S'CC'
p422
S'I-NP'
p423
g5
tp424
a(S'declarative'
p425
S'declarative'
p426
S'JJ'
p427
S'I-NP'
p428
g5
tp429
a(S'knowledge'
p430
S'knowledge'
p431
S'NN'
p432
S'I-NP'
p433
g5
tp434
a(S'of'
p435
S'of'
p436
S'IN'
p437
S'B-PP'
p438
g5
tp439
a(S'DTT.'
p440
S'DTT.'
p441
S'NNP'
p442
S'B-NP'
p443
g5
tp444
a(S'Experiment'
p445
S'Experiment'
p446
S'NNP'
p447
S'I-NP'
p448
g5
tp449
a(S'3'
p450
g450
S'CD'
p451
S'I-NP'
p452
g5
tp453
a(S'confirmed'
p454
S'confirm'
p455
S'VBD'
p456
S'B-VP'
p457
g5
tp458
a(S'this'
p459
S'this'
p460
S'DT'
p461
S'B-NP'
p462
g5
tp463
a(S'finding'
p464
S'finding'
p465
S'NN'
p466
S'I-NP'
p467
g5
tp468
a(g224
g224
g224
g5
g5
tp469
a(S'further'
p470
S'further'
p471
S'RB'
p472
S'B-ADVP'
p473
g5
tp474
a(S'demonstrating'
p475
S'demonstrate'
p476
S'VBG'
p477
S'B-VP'
p478
g5
tp479
a(S'that'
p480
S'that'
p481
S'IN'
p482
S'B-SBAR'
p483
g5
tp484
a(S'observation'
p485
S'observation'
p486
S'NN'
p487
S'B-NP'
p488
g5
tp489
a(S'of'
p490
S'of'
p491
S'IN'
p492
S'B-PP'
p493
g5
tp494
a(S'DTkid'
p495
S'DTkid'
p496
S'NN'
p497
S'B-NP'
p498
g5
tp499
a(S'training'
p500
S'training'
p501
S'NN'
p502
S'I-NP'
p503
g5
tp504
a(S'trials'
p505
S'trial'
p506
S'NNS'
p507
S'I-NP'
p508
g5
tp509
a(S'alone'
p510
S'alone'
p511
S'RB'
p512
S'B-ADVP'
p513
g5
tp514
a(S'was'
p515
S'be'
p516
S'VBD'
p517
S'B-VP'
p518
g5
tp519
a(S'sufficient'
p520
S'sufficient'
p521
S'JJ'
p522
S'B-ADJP'
p523
g5
tp524
a(S'to'
p525
S'to'
p526
S'TO'
p527
S'B-VP'
p528
g5
tp529
a(S'enhance'
p530
S'enhance'
p531
S'VB'
p532
S'I-VP'
p533
g5
tp534
a(S'participants'
p535
S'participant'
p536
S'NNS'
p537
S'B-NP'
p538
g5
tp539
a(S"'"
p540
g540
S'POS'
p541
S'B-NP'
p542
g5
tp543
a(S'declarative'
p544
S'declarative'
p545
S'JJ'
p546
S'I-NP'
p547
g5
tp548
a(S'and'
p549
S'and'
p550
S'CC'
p551
S'I-NP'
p552
g5
tp553
a(S'procedural'
p554
S'procedural'
p555
S'JJ'
p556
S'I-NP'
p557
g5
tp558
a(S'knowledge'
p559
S'knowledge'
p560
S'NN'
p561
S'I-NP'
p562
g5
tp563
a(S'of'
p564
S'of'
p565
S'IN'
p566
S'B-PP'
p567
g5
tp568
a(S'DTT.'
p569
S'DTT.'
p570
S'NNP'
p571
S'B-NP'
p572
g5
tp573
a(S'Results'
p574
S'Result'
p575
S'NNS'
p576
S'I-NP'
p577
g5
tp578
a(S'indicate'
p579
S'indicate'
p580
S'VBP'
p581
S'B-VP'
p582
g5
tp583
a(S'that'
p584
S'that'
p585
S'IN'
p586
S'B-SBAR'
p587
g5
tp588
a(S'DTkid'
p589
S'DTkid'
p590
S'NN'
p591
S'B-NP'
p592
g5
tp593
a(S'offers'
p594
S'offer'
p595
S'VBZ'
p596
S'B-VP'
p597
g5
tp598
a(S'the'
p599
S'the'
p600
S'DT'
p601
S'B-NP'
p602
g5
tp603
a(S'potential'
p604
S'potential'
p605
S'NN'
p606
S'I-NP'
p607
g5
tp608
a(S'for'
p609
S'for'
p610
S'IN'
p611
S'B-PP'
p612
g5
tp613
a(S'an'
p614
S'an'
p615
S'DT'
p616
S'B-NP'
p617
g5
tp618
a(S'effective'
p619
S'effective'
p620
S'JJ'
p621
S'I-NP'
p622
g5
tp623
a(S'means'
p624
S'mean'
p625
S'NNS'
p626
S'I-NP'
p627
g5
tp628
a(S'of'
p629
S'of'
p630
S'IN'
p631
S'B-PP'
p632
g5
tp633
a(S'teaching'
p634
S'teach'
p635
S'VBG'
p636
S'B-VP'
p637
g5
tp638
a(S'DTT'
p639
S'DTT'
p640
S'NN'
p641
S'B-NP'
p642
g5
tp643
a(S'skills'
p644
S'skill'
p645
S'NNS'
p646
S'I-NP'
p647
g5
tp648
a(S'to'
p649
S'to'
p650
S'TO'
p651
S'B-PP'
p652
g5
tp653
a(S'novice'
p654
S'novice'
p655
S'NN'
p656
S'B-NP'
p657
g5
tp658
a(S'tutors'
p659
S'tutor'
p660
S'NNS'
p661
S'I-NP'
p662
g5
tp663
a(S'of'
p664
S'of'
p665
S'IN'
p666
S'B-PP'
p667
g5
tp668
a(S'children'
p669
S'child'
p670
S'NNS'
p671
S'B-NP'
p672
g5
tp673
a(S'with'
p674
S'with'
p675
S'IN'
p676
S'B-PP'
p677
g5
tp678
a(S'autism'
p679
S'autism'
p680
S'NN'
p681
S'B-NP'
p682
g5
tp683
a(g59
g59
g59
g5
g5
tp684
a.