(lp0
(S'A'
p1
g1
S'DT'
p2
S'B-NP'
p3
S'O'
p4
tp5
a(S'randomized'
p6
S'randomize'
p7
S'VBN'
p8
S'I-NP'
p9
g4
tp10
a(S'controlled'
p11
S'control'
p12
S'VBN'
p13
S'I-NP'
p14
g4
tp15
a(S'trial'
p16
S'trial'
p17
S'NN'
p18
S'I-NP'
p19
g4
tp20
a(S'to'
p21
S'to'
p22
S'TO'
p23
S'B-VP'
p24
g4
tp25
a(S'evaluate'
p26
S'evaluate'
p27
S'VB'
p28
S'I-VP'
p29
g4
tp30
a(S'the'
p31
S'the'
p32
S'DT'
p33
S'B-NP'
p34
g4
tp35
a(S'efficacy'
p36
S'efficacy'
p37
S'NN'
p38
S'I-NP'
p39
g4
tp40
a(S'of'
p41
S'of'
p42
S'IN'
p43
S'B-PP'
p44
g4
tp45
a(S'ultrasound-guided'
p46
S'ultrasound-guided'
p47
S'JJ'
p48
S'B-NP'
p49
g4
tp50
a(S'laser'
p51
S'laser'
p52
S'NN'
p53
S'I-NP'
p54
g4
tp55
a(S'photocoagulation'
p56
S'photocoagulation'
p57
S'NN'
p58
S'I-NP'
p59
g4
tp60
a(S'for'
p61
S'for'
p62
S'IN'
p63
S'B-PP'
p64
g4
tp65
a(S'treatment'
p66
S'treatment'
p67
S'NN'
p68
S'B-NP'
p69
g4
tp70
a(S'of'
p71
S'of'
p72
S'IN'
p73
S'B-PP'
p74
g4
tp75
a(S'benign'
p76
S'benign'
p77
S'JJ'
p78
S'B-NP'
p79
g4
tp80
a(S'thyroid'
p81
S'thyroid'
p82
S'NN'
p83
S'I-NP'
p84
g4
tp85
a(S'nodules'
p86
S'nodule'
p87
S'NNS'
p88
S'I-NP'
p89
g4
tp90
a(S'.'
p91
g91
g91
g4
g4
tp92
a(S'This'
p93
S'This'
p94
S'DT'
p95
S'B-NP'
p96
g4
tp97
a(S'randomized'
p98
S'randomize'
p99
S'VBD'
p100
S'B-VP'
p101
g4
tp102
a(S'controlled'
p103
S'control'
p104
S'VBN'
p105
S'B-NP'
p106
g4
tp107
a(S'study'
p108
S'study'
p109
S'NN'
p110
S'I-NP'
p111
g4
tp112
a(S'was'
p113
S'be'
p114
S'VBD'
p115
S'B-VP'
p116
g4
tp117
a(S'designed'
p118
S'design'
p119
S'VBN'
p120
S'I-VP'
p121
g4
tp122
a(S'to'
p123
S'to'
p124
S'TO'
p125
S'B-VP'
p126
g4
tp127
a(S'test'
p128
S'test'
p129
S'VB'
p130
S'I-VP'
p131
g4
tp132
a(S'the'
p133
S'the'
p134
S'DT'
p135
S'B-NP'
p136
g4
tp137
a(S'efficacy'
p138
S'efficacy'
p139
S'NN'
p140
S'I-NP'
p141
g4
tp142
a(S'and'
p143
S'and'
p144
S'CC'
p145
S'I-NP'
p146
g4
tp147
a(S'safety'
p148
S'safety'
p149
S'NN'
p150
S'I-NP'
p151
g4
tp152
a(S'of'
p153
S'of'
p154
S'IN'
p155
S'B-PP'
p156
g4
tp157
a(S'percutaneous'
p158
S'percutaneous'
p159
S'JJ'
p160
S'B-NP'
p161
g4
tp162
a(S'ultrasound'
p163
S'ultrasound'
p164
S'NN'
p165
S'I-NP'
p166
g4
tp167
a(S'('
p168
g168
g168
g4
g4
tp169
a(S'US'
p170
S'US'
p171
S'NN'
p172
S'B-NP'
p173
g4
tp174
a(S')'
p175
g175
g175
g4
g4
tp176
a(S'-guided'
p177
S'-guided'
p178
S'JJ'
p179
S'B-NP'
p180
g4
tp181
a(S'laser'
p182
S'laser'
p183
S'NN'
p184
S'I-NP'
p185
g4
tp186
a(S'photocoagulation'
p187
S'photocoagulation'
p188
S'NN'
p189
S'I-NP'
p190
g4
tp191
a(g168
g168
g168
g4
g4
tp192
a(S'PLP'
p193
S'PLP'
p194
S'NN'
p195
S'B-NP'
p196
g4
tp197
a(g175
g175
g175
g4
g4
tp198
a(S'for'
p199
S'for'
p200
S'IN'
p201
S'B-PP'
p202
g4
tp203
a(S'treatment'
p204
S'treatment'
p205
S'NN'
p206
S'B-NP'
p207
g4
tp208
a(S'of'
p209
S'of'
p210
S'IN'
p211
S'B-PP'
p212
g4
tp213
a(S'subjects'
p214
S'subject'
p215
S'NNS'
p216
S'B-NP'
p217
g4
tp218
a(S'with'
p219
S'with'
p220
S'IN'
p221
S'B-PP'
p222
g4
tp223
a(S'compressive'
p224
S'compressive'
p225
S'JJ'
p226
S'B-NP'
p227
g4
tp228
a(S'symptoms'
p229
S'symptom'
p230
S'NNS'
p231
S'I-NP'
p232
g4
tp233
a(S'due'
p234
S'due'
p235
S'JJ'
p236
S'B-ADJP'
p237
g4
tp238
a(S'to'
p239
S'to'
p240
S'TO'
p241
S'B-PP'
p242
g4
tp243
a(S'benign'
p244
S'benign'
p245
S'JJ'
p246
S'B-NP'
p247
g4
tp248
a(S'thyroid'
p249
S'thyroid'
p250
S'NN'
p251
S'I-NP'
p252
g4
tp253
a(S'nodules'
p254
S'nodule'
p255
S'NNS'
p256
S'I-NP'
p257
g4
tp258
a(S'and/or'
p259
S'and/or'
p260
S'CC'
p261
S'B-PP'
p262
g4
tp263
a(S'at'
p264
S'at'
p265
S'IN'
p266
S'B-PP'
p267
g4
tp268
a(S'high'
p269
S'high'
p270
S'JJ'
p271
S'B-NP'
p272
g4
tp273
a(S'surgical'
p274
S'surgical'
p275
S'JJ'
p276
S'I-NP'
p277
g4
tp278
a(S'risk.'
p279
S'risk.'
p280
S'NN'
p281
S'I-NP'
p282
g4
tp283
a(S'Twenty'
p284
S'Twenty'
p285
S'CD'
p286
S'I-NP'
p287
g4
tp288
a(S'six'
p289
S'six'
p290
S'CD'
p291
S'I-NP'
p292
g4
tp293
a(S'subjects'
p294
S'subject'
p295
S'NNS'
p296
S'I-NP'
p297
g4
tp298
a(S'were'
p299
S'be'
p300
S'VBD'
p301
S'B-VP'
p302
g4
tp303
a(S'randomized'
p304
S'randomize'
p305
S'VBN'
p306
S'I-VP'
p307
g4
tp308
a(S'to'
p309
S'to'
p310
S'TO'
p311
S'B-PP'
p312
g4
tp313
a(S'the'
p314
S'the'
p315
S'DT'
p316
S'B-NP'
p317
g4
tp318
a(S'intervention'
p319
S'intervention'
p320
S'NN'
p321
S'I-NP'
p322
g4
tp323
a(g168
g168
g168
g4
g4
tp324
a(S'no.'
p325
S'no.'
p326
S'NN'
p327
S'B-NP'
p328
g4
tp329
a(S'13'
p330
S'13'
p331
S'CD'
p332
S'I-NP'
p333
g4
tp334
a(S','
p335
g335
g335
g4
g4
tp336
a(S'age'
p337
S'age'
p338
S'NN'
p339
S'B-NP'
p340
g4
tp341
a(S'68+/-3'
p342
S'68+/-3'
p343
S'CD'
p344
S'I-NP'
p345
g4
tp346
a(S'yr'
p347
S'yr'
p348
S'NN'
p349
S'I-NP'
p350
g4
tp351
a(g335
g335
g335
g4
g4
tp352
a(S'mean+/-SEM'
p353
S'mean+/-SEM'
p354
S'NN'
p355
S'B-NP'
p356
g4
tp357
a(g175
g175
g175
g4
g4
tp358
a(S'or'
p359
S'or'
p360
S'CC'
p361
g4
g4
tp362
a(S'observation'
p363
S'observation'
p364
S'NN'
p365
S'B-NP'
p366
g4
tp367
a(g168
g168
g168
g4
g4
tp368
a(S'no.'
p369
S'no.'
p370
S'NN'
p371
S'B-NP'
p372
g4
tp373
a(S'13'
p374
S'13'
p375
S'CD'
p376
S'I-NP'
p377
g4
tp378
a(g335
g335
g335
g4
g4
tp379
a(S'age'
p380
S'age'
p381
S'NN'
p382
S'B-NP'
p383
g4
tp384
a(S'71+/-2'
p385
S'71+/-2'
p386
S'CD'
p387
S'I-NP'
p388
g4
tp389
a(S'yr'
p390
S'yr'
p391
S'NN'
p392
S'I-NP'
p393
g4
tp394
a(g175
g175
g175
g4
g4
tp395
a(S'groups.'
p396
S'groups.'
p397
S'NN'
p398
S'B-NP'
p399
g4
tp400
a(S'In'
p401
S'In'
p402
S'IN'
p403
S'B-PP'
p404
g4
tp405
a(S'the'
p406
S'the'
p407
S'DT'
p408
S'B-NP'
p409
g4
tp410
a(S'control'
p411
S'control'
p412
S'NN'
p413
S'I-NP'
p414
g4
tp415
a(S'group'
p416
S'group'
p417
S'NN'
p418
S'I-NP'
p419
g4
tp420
a(g335
g335
g335
g4
g4
tp421
a(S'the'
p422
S'the'
p423
S'DT'
p424
S'B-NP'
p425
g4
tp426
a(S'volume'
p427
S'volume'
p428
S'NN'
p429
S'I-NP'
p430
g4
tp431
a(S'of'
p432
S'of'
p433
S'IN'
p434
S'B-PP'
p435
g4
tp436
a(S'nodules'
p437
S'nodule'
p438
S'NNS'
p439
S'B-NP'
p440
g4
tp441
a(S'did'
p442
S'do'
p443
S'VBD'
p444
S'B-VP'
p445
g4
tp446
a(S'not'
p447
S'not'
p448
S'RB'
p449
S'I-VP'
p450
g4
tp451
a(S'significantly'
p452
S'significantly'
p453
S'RB'
p454
S'I-VP'
p455
g4
tp456
a(S'change'
p457
S'change'
p458
S'VB'
p459
S'I-VP'
p460
g4
tp461
a(S'over'
p462
S'over'
p463
S'IN'
p464
S'B-PP'
p465
g4
tp466
a(S'the'
p467
S'the'
p468
S'DT'
p469
S'B-NP'
p470
g4
tp471
a(S'30'
p472
S'30'
p473
S'CD'
p474
S'I-NP'
p475
g4
tp476
a(S'week'
p477
S'week'
p478
S'NN'
p479
S'I-NP'
p480
g4
tp481
a(S'period'
p482
S'period'
p483
S'NN'
p484
S'I-NP'
p485
g4
tp486
a(S'of'
p487
S'of'
p488
S'IN'
p489
S'B-PP'
p490
g4
tp491
a(S'observation.'
p492
S'observation.'
p493
S'NN'
p494
S'B-NP'
p495
g4
tp496
a(S'In'
p497
S'In'
p498
S'IN'
p499
S'B-PP'
p500
g4
tp501
a(S'the'
p502
S'the'
p503
S'DT'
p504
S'B-NP'
p505
g4
tp506
a(S'intervention'
p507
S'intervention'
p508
S'NN'
p509
S'I-NP'
p510
g4
tp511
a(S'group'
p512
S'group'
p513
S'NN'
p514
S'I-NP'
p515
g4
tp516
a(g335
g335
g335
g4
g4
tp517
a(S'median'
p518
S'median'
p519
S'JJ'
p520
S'B-NP'
p521
g4
tp522
a(S'nodule'
p523
S'nodule'
p524
S'NN'
p525
S'I-NP'
p526
g4
tp527
a(S'volume'
p528
S'volume'
p529
S'NN'
p530
S'I-NP'
p531
g4
tp532
a(S'at'
p533
S'at'
p534
S'IN'
p535
S'B-PP'
p536
g4
tp537
a(S'baseline'
p538
S'baseline'
p539
S'NN'
p540
S'B-NP'
p541
g4
tp542
a(S'was'
p543
S'be'
p544
S'VBD'
p545
S'B-VP'
p546
g4
tp547
a(S'8.2'
p548
S'8.2'
p549
S'CD'
p550
S'B-NP'
p551
g4
tp552
a(S'ml'
p553
S'ml'
p554
S'NN'
p555
S'I-NP'
p556
g4
tp557
a(g168
g168
g168
g4
g4
tp558
a(S'range'
p559
S'range'
p560
S'NN'
p561
S'B-NP'
p562
S'B-protein'
p563
tp564
a(S'2.8-26.9'
p565
S'2.8-26.9'
p566
S'CD'
p567
S'I-NP'
p568
S'I-protein'
p569
tp570
a(g175
g175
g175
g4
g4
tp571
a(S'and'
p572
S'and'
p573
S'CC'
p574
g4
g4
tp575
a(S'was'
p576
S'be'
p577
S'VBD'
p578
S'B-VP'
p579
g4
tp580
a(S'not'
p581
S'not'
p582
S'RB'
p583
g4
g4
tp584
a(S'significantly'
p585
S'significantly'
p586
S'RB'
p587
S'B-ADJP'
p588
g4
tp589
a(S'different'
p590
S'different'
p591
S'JJ'
p592
S'I-ADJP'
p593
g4
tp594
a(S'from'
p595
S'from'
p596
S'IN'
p597
S'B-PP'
p598
g4
tp599
a(S'that'
p600
S'that'
p601
S'DT'
p602
S'B-NP'
p603
g4
tp604
a(S'of'
p605
S'of'
p606
S'IN'
p607
S'B-PP'
p608
g4
tp609
a(S'the'
p610
S'the'
p611
S'DT'
p612
S'B-NP'
p613
g4
tp614
a(S'control'
p615
S'control'
p616
S'NN'
p617
S'I-NP'
p618
g4
tp619
a(S'group.'
p620
S'group.'
p621
S'NN'
p622
S'I-NP'
p623
g4
tp624
a(S'Nodules'
p625
S'Nodule'
p626
S'NNS'
p627
S'I-NP'
p628
g4
tp629
a(S'decreased'
p630
S'decrease'
p631
S'VBD'
p632
S'B-VP'
p633
g4
tp634
a(S'significantly'
p635
S'significantly'
p636
S'RB'
p637
S'B-ADVP'
p638
g4
tp639
a(g168
g168
g168
g4
g4
tp640
a(S'p'
p641
g641
S'NN'
p642
S'B-NP'
p643
g4
tp644
a(S'<'
p645
g645
S'SYM'
p646
g4
g4
tp647
a(S'0.0001'
p648
S'0.0001'
p649
S'CD'
p650
S'B-NP'
p651
g4
tp652
a(g175
g175
g175
g4
g4
tp653
a(S'by'
p654
S'by'
p655
S'IN'
p656
S'B-PP'
p657
g4
tp658
a(S'22'
p659
S'22'
p660
S'CD'
p661
S'B-NP'
p662
g4
tp663
a(S'%'
p664
g664
S'NN'
p665
S'I-NP'
p666
g4
tp667
a(S'after'
p668
S'after'
p669
S'IN'
p670
S'B-PP'
p671
g4
tp672
a(S'2'
p673
g673
S'CD'
p674
S'B-NP'
p675
g4
tp676
a(S'weeks'
p677
S'week'
p678
S'NNS'
p679
S'I-NP'
p680
g4
tp681
a(g168
g168
g168
g4
g4
tp682
a(S'6.5'
p683
S'6.5'
p684
S'CD'
p685
S'B-NP'
p686
g4
tp687
a(S'ml'
p688
S'ml'
p689
S'NN'
p690
S'I-NP'
p691
g4
tp692
a(S';'
p693
g693
S':'
p694
g4
g4
tp695
a(S'range'
p696
S'range'
p697
S'NN'
p698
S'B-NP'
p699
g4
tp700
a(S'2.4-16.7'
p701
S'2.4-16.7'
p702
S'CD'
p703
S'I-NP'
p704
g4
tp705
a(g175
g175
g175
g4
g4
tp706
a(S'and'
p707
S'and'
p708
S'CC'
p709
g4
g4
tp710
a(S'by'
p711
S'by'
p712
S'IN'
p713
S'B-PP'
p714
g4
tp715
a(S'44'
p716
S'44'
p717
S'CD'
p718
S'B-NP'
p719
g4
tp720
a(g664
g664
S'NN'
p721
S'I-NP'
p722
g4
tp723
a(S'after'
p724
S'after'
p725
S'IN'
p726
S'B-PP'
p727
g4
tp728
a(S'30'
p729
S'30'
p730
S'CD'
p731
S'B-NP'
p732
g4
tp733
a(S'weeks'
p734
S'week'
p735
S'NNS'
p736
S'I-NP'
p737
g4
tp738
a(g168
g168
g168
g4
g4
tp739
a(S'4.6'
p740
S'4.6'
p741
S'CD'
p742
S'B-NP'
p743
g4
tp744
a(S'ml'
p745
S'ml'
p746
S'NN'
p747
S'I-NP'
p748
g4
tp749
a(g693
g693
g694
g4
g4
tp750
a(S'range'
p751
S'range'
p752
S'NN'
p753
S'B-NP'
p754
g4
tp755
a(S'0.69-14.2'
p756
S'0.69-14.2'
p757
S'CD'
p758
S'I-NP'
p759
g4
tp760
a(g175
g175
g175
g4
g4
tp761
a(g91
g91
g91
g4
g4
tp762
a(S'Energy'
p763
S'Energy'
p764
S'NN'
p765
S'B-NP'
p766
g4
tp767
a(S'given'
p768
S'give'
p769
S'VBN'
p770
S'B-VP'
p771
g4
tp772
a(S'was'
p773
S'be'
p774
S'VBD'
p775
S'B-VP'
p776
g4
tp777
a(S'correlated'
p778
S'correlate'
p779
S'VBN'
p780
S'I-VP'
p781
g4
tp782
a(g168
g168
g168
g4
g4
tp783
a(g641
g641
S'NN'
p784
S'B-NP'
p785
g4
tp786
a(g645
g645
S'SYM'
p787
g4
g4
tp788
a(S'0.05'
p789
S'0.05'
p790
S'CD'
p791
S'B-NP'
p792
g4
tp793
a(g175
g175
g175
g4
g4
tp794
a(S'with'
p795
S'with'
p796
S'IN'
p797
S'B-PP'
p798
g4
tp799
a(S'the'
p800
S'the'
p801
S'DT'
p802
S'B-NP'
p803
g4
tp804
a(S'reduction'
p805
S'reduction'
p806
S'NN'
p807
S'I-NP'
p808
g4
tp809
a(S'of'
p810
S'of'
p811
S'IN'
p812
S'B-PP'
p813
g4
tp814
a(S'thyroid'
p815
S'thyroid'
p816
S'JJ'
p817
S'B-NP'
p818
g4
tp819
a(S'nodule'
p820
S'nodule'
p821
S'NN'
p822
S'I-NP'
p823
g4
tp824
a(S'volume.'
p825
S'volume.'
p826
S'NN'
p827
S'I-NP'
p828
g4
tp829
a(S'All'
p830
S'All'
p831
S'DT'
p832
S'B-NP'
p833
g4
tp834
a(S'patients'
p835
S'patient'
p836
S'NNS'
p837
S'I-NP'
p838
g4
tp839
a(S'tolerated'
p840
S'tolerate'
p841
S'VBD'
p842
S'B-VP'
p843
g4
tp844
a(S'the'
p845
S'the'
p846
S'DT'
p847
S'B-NP'
p848
g4
tp849
a(S'treatment'
p850
S'treatment'
p851
S'NN'
p852
S'I-NP'
p853
g4
tp854
a(S'well'
p855
S'well'
p856
S'RB'
p857
S'B-ADVP'
p858
g4
tp859
a(S'and'
p860
S'and'
p861
S'CC'
p862
g4
g4
tp863
a(S'reported'
p864
S'report'
p865
S'VBD'
p866
S'B-VP'
p867
g4
tp868
a(S'relief'
p869
S'relief'
p870
S'NN'
p871
S'B-NP'
p872
g4
tp873
a(S'from'
p874
S'from'
p875
S'IN'
p876
S'B-PP'
p877
g4
tp878
a(S'compressive'
p879
S'compressive'
p880
S'JJ'
p881
S'B-NP'
p882
g4
tp883
a(S'and'
p884
S'and'
p885
S'CC'
p886
S'I-NP'
p887
g4
tp888
a(S'cosmetic'
p889
S'cosmetic'
p890
S'JJ'
p891
S'I-NP'
p892
g4
tp893
a(S'complaints'
p894
S'complaint'
p895
S'NNS'
p896
S'I-NP'
p897
g4
tp898
a(g168
g168
g168
g4
g4
tp899
a(g641
g641
S'NN'
p900
S'B-NP'
p901
g4
tp902
a(g645
g645
S'SYM'
p903
g4
g4
tp904
a(S'0.05'
p905
S'0.05'
p906
S'CD'
p907
S'B-NP'
p908
g4
tp909
a(g175
g175
g175
g4
g4
tp910
a(g91
g91
g91
g4
g4
tp911
a(S'At'
p912
S'At'
p913
S'IN'
p914
S'B-PP'
p915
g4
tp916
a(S'the'
p917
S'the'
p918
S'DT'
p919
S'B-NP'
p920
g4
tp921
a(S'time'
p922
S'time'
p923
S'NN'
p924
S'I-NP'
p925
g4
tp926
a(S'of'
p927
S'of'
p928
S'IN'
p929
S'B-PP'
p930
g4
tp931
a(S'enrolment'
p932
S'enrolment'
p933
S'NN'
p934
S'B-NP'
p935
g4
tp936
a(S'7/13'
p937
S'7/13'
p938
S'CD'
p939
S'I-NP'
p940
g4
tp941
a(g168
g168
g168
g4
g4
tp942
a(S'54'
p943
S'54'
p944
S'CD'
p945
S'B-NP'
p946
g4
tp947
a(g664
g664
S'NN'
p948
S'I-NP'
p949
g4
tp950
a(g175
g175
g175
g4
g4
tp951
a(S'and'
p952
S'and'
p953
S'CC'
p954
g4
g4
tp955
a(S'6/13'
p956
S'6/13'
p957
S'CD'
p958
S'B-NP'
p959
g4
tp960
a(g168
g168
g168
g4
g4
tp961
a(S'46'
p962
S'46'
p963
S'CD'
p964
S'B-NP'
p965
g4
tp966
a(g664
g664
S'NN'
p967
S'I-NP'
p968
g4
tp969
a(g175
g175
g175
g4
g4
tp970
a(S'of'
p971
S'of'
p972
S'IN'
p973
S'B-PP'
p974
g4
tp975
a(S'patients'
p976
S'patient'
p977
S'NNS'
p978
S'B-NP'
p979
g4
tp980
a(S'in'
p981
S'in'
p982
S'IN'
p983
S'B-PP'
p984
g4
tp985
a(S'the'
p986
S'the'
p987
S'DT'
p988
S'B-NP'
p989
g4
tp990
a(S'intervention'
p991
S'intervention'
p992
S'NN'
p993
S'I-NP'
p994
g4
tp995
a(S'and'
p996
S'and'
p997
S'CC'
p998
S'I-NP'
p999
g4
tp1000
a(S'control'
p1001
S'control'
p1002
S'NN'
p1003
S'I-NP'
p1004
g4
tp1005
a(S'groups'
p1006
S'group'
p1007
S'NNS'
p1008
S'I-NP'
p1009
g4
tp1010
a(g335
g335
g335
g4
g4
tp1011
a(S'respectively'
p1012
S'respectively'
p1013
S'RB'
p1014
S'B-ADVP'
p1015
g4
tp1016
a(g335
g335
g335
g4
g4
tp1017
a(S'had'
p1018
S'have'
p1019
S'VBD'
p1020
S'B-VP'
p1021
g4
tp1022
a(S'sub'
p1023
S'sub'
p1024
S'NN'
p1025
S'B-NP'
p1026
g4
tp1027
a(S'clinical'
p1028
S'clinical'
p1029
S'JJ'
p1030
S'I-NP'
p1031
g4
tp1032
a(S'hyperthyroidism.'
p1033
S'hyperthyroidism.'
p1034
S'NN'
p1035
S'I-NP'
p1036
g4
tp1037
a(S'PLP'
p1038
S'PLP'
p1039
S'NN'
p1040
S'I-NP'
p1041
g4
tp1042
a(S'normalized'
p1043
S'normalize'
p1044
S'VBD'
p1045
S'B-VP'
p1046
g4
tp1047
a(S'thyroid'
p1048
S'thyroid'
p1049
S'JJ'
p1050
S'B-NP'
p1051
g4
tp1052
a(S'function'
p1053
S'function'
p1054
S'NN'
p1055
S'I-NP'
p1056
g4
tp1057
a(S'at'
p1058
S'at'
p1059
S'IN'
p1060
S'B-PP'
p1061
g4
tp1062
a(S'6'
p1063
g1063
S'CD'
p1064
S'B-NP'
p1065
g4
tp1066
a(S'and'
p1067
S'and'
p1068
S'CC'
p1069
S'I-NP'
p1070
g4
tp1071
a(S'30'
p1072
S'30'
p1073
S'CD'
p1074
S'I-NP'
p1075
g4
tp1076
a(S'weeks'
p1077
S'week'
p1078
S'NNS'
p1079
S'I-NP'
p1080
g4
tp1081
a(S'after'
p1082
S'after'
p1083
S'IN'
p1084
S'B-PP'
p1085
g4
tp1086
a(S'treatment.'
p1087
S'treatment.'
p1088
S'NN'
p1089
S'B-NP'
p1090
g4
tp1091
a(S'In'
p1092
S'In'
p1093
S'IN'
p1094
S'B-PP'
p1095
g4
tp1096
a(S'conclusion'
p1097
S'conclusion'
p1098
S'NN'
p1099
S'B-NP'
p1100
g4
tp1101
a(g335
g335
g335
g4
g4
tp1102
a(S'PLP'
p1103
S'PLP'
p1104
S'NN'
p1105
S'B-NP'
p1106
S'B-protein'
p1107
tp1108
a(S'is'
p1109
S'be'
p1110
S'VBZ'
p1111
S'B-VP'
p1112
g4
tp1113
a(S'a'
p1114
g1114
S'DT'
p1115
S'B-NP'
p1116
g4
tp1117
a(S'promising'
p1118
S'promising'
p1119
S'JJ'
p1120
S'I-NP'
p1121
g4
tp1122
a(S'safe'
p1123
S'safe'
p1124
S'JJ'
p1125
S'I-NP'
p1126
g4
tp1127
a(S'and'
p1128
S'and'
p1129
S'CC'
p1130
S'I-NP'
p1131
g4
tp1132
a(S'effective'
p1133
S'effective'
p1134
S'JJ'
p1135
S'I-NP'
p1136
g4
tp1137
a(S'procedure'
p1138
S'procedure'
p1139
S'NN'
p1140
S'I-NP'
p1141
g4
tp1142
a(S'for'
p1143
S'for'
p1144
S'IN'
p1145
S'B-PP'
p1146
g4
tp1147
a(S'treatment'
p1148
S'treatment'
p1149
S'NN'
p1150
S'B-NP'
p1151
g4
tp1152
a(S'of'
p1153
S'of'
p1154
S'IN'
p1155
S'B-PP'
p1156
g4
tp1157
a(S'benign'
p1158
S'benign'
p1159
S'JJ'
p1160
S'B-NP'
p1161
g4
tp1162
a(S'thyroid'
p1163
S'thyroid'
p1164
S'NN'
p1165
S'I-NP'
p1166
g4
tp1167
a(S'nodules'
p1168
S'nodule'
p1169
S'NNS'
p1170
S'I-NP'
p1171
g4
tp1172
a(S'in'
p1173
S'in'
p1174
S'IN'
p1175
S'B-PP'
p1176
g4
tp1177
a(S'patients'
p1178
S'patient'
p1179
S'NNS'
p1180
S'B-NP'
p1181
g4
tp1182
a(S'at'
p1183
S'at'
p1184
S'IN'
p1185
S'B-PP'
p1186
g4
tp1187
a(S'high'
p1188
S'high'
p1189
S'JJ'
p1190
S'B-NP'
p1191
g4
tp1192
a(S'surgical'
p1193
S'surgical'
p1194
S'JJ'
p1195
S'I-NP'
p1196
g4
tp1197
a(S'risk'
p1198
S'risk'
p1199
S'NN'
p1200
S'I-NP'
p1201
g4
tp1202
a(g91
g91
g91
g4
g4
tp1203
a.