(lp0
(S'Efficacy'
p1
S'Efficacy'
p2
S'NN'
p3
S'B-NP'
p4
S'O'
p5
tp6
a(S'of'
p7
S'of'
p8
S'IN'
p9
S'B-PP'
p10
g5
tp11
a(S'different'
p12
S'different'
p13
S'JJ'
p14
S'B-NP'
p15
g5
tp16
a(S'gonadotropin'
p17
S'gonadotropin'
p18
S'NN'
p19
S'I-NP'
p20
g5
tp21
a(S'combinations'
p22
S'combination'
p23
S'NNS'
p24
S'I-NP'
p25
g5
tp26
a(S'to'
p27
S'to'
p28
S'TO'
p29
S'B-VP'
p30
g5
tp31
a(S'support'
p32
S'support'
p33
S'VB'
p34
S'I-VP'
p35
g5
tp36
a(S'ovulation'
p37
S'ovulation'
p38
S'NN'
p39
S'B-NP'
p40
g5
tp41
a(S'induction'
p42
S'induction'
p43
S'NN'
p44
S'I-NP'
p45
g5
tp46
a(S'in'
p47
S'in'
p48
S'IN'
p49
S'B-PP'
p50
g5
tp51
a(S'WHO'
p52
S'WHO'
p53
S'NN'
p54
S'B-NP'
p55
g5
tp56
a(S'type'
p57
S'type'
p58
S'NN'
p59
S'I-NP'
p60
g5
tp61
a(S'I'
p62
g62
S'CD'
p63
S'I-NP'
p64
g5
tp65
a(S'anovulation'
p66
S'anovulation'
p67
S'NN'
p68
S'I-NP'
p69
g5
tp70
a(S'infertility'
p71
S'infertility'
p72
S'NN'
p73
S'I-NP'
p74
g5
tp75
a(S':'
p76
g76
g76
g5
g5
tp77
a(S'clinical'
p78
S'clinical'
p79
S'JJ'
p80
S'B-NP'
p81
g5
tp82
a(S'evidences'
p83
S'evidence'
p84
S'NNS'
p85
S'I-NP'
p86
g5
tp87
a(S'of'
p88
S'of'
p89
S'IN'
p90
S'B-PP'
p91
g5
tp92
a(S'human'
p93
S'human'
p94
S'JJ'
p95
S'B-NP'
p96
S'B-protein'
p97
tp98
a(S'recombinant'
p99
S'recombinant'
p100
S'JJ'
p101
S'I-NP'
p102
S'I-protein'
p103
tp104
a(S'FSH/human'
p105
S'FSH/human'
p106
S'JJ'
p107
S'I-NP'
p108
S'I-protein'
p109
tp110
a(S'recombinant'
p111
S'recombinant'
p112
S'JJ'
p113
S'I-NP'
p114
S'I-protein'
p115
tp116
a(S'LH'
p117
S'LH'
p118
S'NN'
p119
S'I-NP'
p120
S'I-protein'
p121
tp122
a(S'in'
p123
S'in'
p124
S'IN'
p125
S'B-PP'
p126
g5
tp127
a(S'a'
p128
g128
S'DT'
p129
S'B-NP'
p130
g5
tp131
a(S'2'
p132
g132
S'CD'
p133
S'I-NP'
p134
g5
tp135
a(g76
g76
S'SYM'
p136
S'I-NP'
p137
g5
tp138
a(S'1'
p139
g139
S'CD'
p140
S'I-NP'
p141
g5
tp142
a(S'ratio'
p143
S'ratio'
p144
S'NN'
p145
S'I-NP'
p146
g5
tp147
a(S'and'
p148
S'and'
p149
S'CC'
p150
g5
g5
tp151
a(S'highly'
p152
S'highly'
p153
S'RB'
p154
S'B-NP'
p155
g5
tp156
a(S'purified'
p157
S'purify'
p158
S'VBN'
p159
S'I-NP'
p160
g5
tp161
a(S'human'
p162
S'human'
p163
S'JJ'
p164
S'I-NP'
p165
g5
tp166
a(S'menopausal'
p167
S'menopausal'
p168
S'JJ'
p169
S'I-NP'
p170
g5
tp171
a(S'gonadotropin'
p172
S'gonadotropin'
p173
S'NN'
p174
S'I-NP'
p175
g5
tp176
a(S'stimulation'
p177
S'stimulation'
p178
S'NN'
p179
S'I-NP'
p180
g5
tp181
a(S'protocols'
p182
S'protocol'
p183
S'NNS'
p184
S'I-NP'
p185
g5
tp186
a(S'.'
p187
g187
g187
g5
g5
tp188
a(S'BACKGROUND'
p189
S'BACKGROUND'
p190
S'NN'
p191
S'B-NP'
p192
g5
tp193
a(S'The'
p194
S'The'
p195
S'DT'
p196
S'B-NP'
p197
g5
tp198
a(S'World'
p199
S'World'
p200
S'NNP'
p201
S'I-NP'
p202
g5
tp203
a(S'Helath'
p204
S'Helath'
p205
S'NNP'
p206
S'I-NP'
p207
g5
tp208
a(S'Organization'
p209
S'Organization'
p210
S'NNP'
p211
S'I-NP'
p212
g5
tp213
a(S'('
p214
g214
g214
g5
g5
tp215
a(S'WHO'
p216
S'WHO'
p217
S'WP'
p218
S'B-NP'
p219
g5
tp220
a(S')'
p221
g221
g221
g5
g5
tp222
a(S'Group'
p223
S'Group'
p224
S'NN'
p225
S'B-NP'
p226
g5
tp227
a(g62
g62
S'CD'
p228
S'I-NP'
p229
g5
tp230
a(S'anovulation'
p231
S'anovulation'
p232
S'NN'
p233
S'I-NP'
p234
g5
tp235
a(S','
p236
g236
g236
g5
g5
tp237
a(S'or'
p238
S'or'
p239
S'CC'
p240
g5
g5
tp241
a(S'hypogonadotropic'
p242
S'hypogonadotropic'
p243
S'JJ'
p244
S'B-NP'
p245
g5
tp246
a(S'hypogonadism'
p247
S'hypogonadism'
p248
S'NN'
p249
S'I-NP'
p250
g5
tp251
a(g214
g214
g214
g5
g5
tp252
a(S'HH'
p253
S'HH'
p254
S'NN'
p255
S'B-NP'
p256
g5
tp257
a(g221
g221
g221
g5
g5
tp258
a(g236
g236
g236
g5
g5
tp259
a(S'is'
p260
S'be'
p261
S'VBZ'
p262
S'B-VP'
p263
g5
tp264
a(S'characterized'
p265
S'characterize'
p266
S'VBN'
p267
S'I-VP'
p268
g5
tp269
a(S'by'
p270
S'by'
p271
S'IN'
p272
S'B-PP'
p273
g5
tp274
a(S'reduced'
p275
S'reduce'
p276
S'VBN'
p277
S'B-NP'
p278
g5
tp279
a(S'hypothalamic/pituitary'
p280
S'hypothalamic/pituitary'
p281
S'JJ'
p282
S'I-NP'
p283
g5
tp284
a(S'activity'
p285
S'activity'
p286
S'NN'
p287
S'I-NP'
p288
g5
tp289
a(S'which'
p290
S'which'
p291
S'WDT'
p292
S'B-NP'
p293
g5
tp294
a(S'results'
p295
S'result'
p296
S'VBZ'
p297
S'B-VP'
p298
g5
tp299
a(S'in'
p300
S'in'
p301
S'IN'
p302
S'B-PP'
p303
g5
tp304
a(S'abnormally'
p305
S'abnormally'
p306
S'RB'
p307
S'B-NP'
p308
g5
tp309
a(S'low'
p310
S'low'
p311
S'JJ'
p312
S'I-NP'
p313
g5
tp314
a(S'serum'
p315
S'serum'
p316
S'NN'
p317
S'I-NP'
p318
g5
tp319
a(S'FSH'
p320
S'FSH'
p321
S'NN'
p322
S'I-NP'
p323
g5
tp324
a(S'and'
p325
S'and'
p326
S'CC'
p327
S'I-NP'
p328
g5
tp329
a(S'LH'
p330
S'LH'
p331
S'NN'
p332
S'I-NP'
p333
g5
tp334
a(S'levels'
p335
S'level'
p336
S'NNS'
p337
S'I-NP'
p338
g5
tp339
a(S'and'
p340
S'and'
p341
S'CC'
p342
g5
g5
tp343
a(S'negligible'
p344
S'negligible'
p345
S'JJ'
p346
S'B-NP'
p347
g5
tp348
a(S'estrogen'
p349
S'estrogen'
p350
S'NN'
p351
S'I-NP'
p352
g5
tp353
a(S'activity'
p354
S'activity'
p355
S'NN'
p356
S'I-NP'
p357
g5
tp358
a(g187
g187
g187
g5
g5
tp359
a(S'AIM'
p360
S'AIM'
p361
S'NN'
p362
S'B-NP'
p363
g5
tp364
a(S'To'
p365
S'To'
p366
S'TO'
p367
S'B-VP'
p368
g5
tp369
a(S'compare'
p370
S'compare'
p371
S'VB'
p372
S'I-VP'
p373
g5
tp374
a(S'the'
p375
S'the'
p376
S'DT'
p377
S'B-NP'
p378
g5
tp379
a(S'efficacy'
p380
S'efficacy'
p381
S'NN'
p382
S'I-NP'
p383
g5
tp384
a(S'of'
p385
S'of'
p386
S'IN'
p387
S'B-PP'
p388
g5
tp389
a(S'human'
p390
S'human'
p391
S'JJ'
p392
S'B-NP'
p393
g5
tp394
a(S'recombinant'
p395
S'recombinant'
p396
S'JJ'
p397
S'I-NP'
p398
g5
tp399
a(S'FSH'
p400
S'FSH'
p401
S'NN'
p402
S'I-NP'
p403
g5
tp404
a(g214
g214
g214
g5
g5
tp405
a(S'r-hFSH'
p406
S'r-hFSH'
p407
S'NN'
p408
S'B-NP'
p409
g5
tp410
a(g221
g221
g221
g5
g5
tp411
a(S'plus'
p412
S'plus'
p413
S'CC'
p414
g5
g5
tp415
a(S'human'
p416
S'human'
p417
S'JJ'
p418
S'B-NP'
p419
g5
tp420
a(S'recombinant'
p421
S'recombinant'
p422
S'JJ'
p423
S'I-NP'
p424
g5
tp425
a(S'LH'
p426
S'LH'
p427
S'NN'
p428
S'I-NP'
p429
g5
tp430
a(g214
g214
g214
g5
g5
tp431
a(S'r-hLH'
p432
S'r-hLH'
p433
S'NN'
p434
S'B-NP'
p435
S'B-protein'
p436
tp437
a(g221
g221
g221
g5
g5
tp438
a(S'in'
p439
S'in'
p440
S'IN'
p441
S'B-PP'
p442
g5
tp443
a(g128
g128
S'DT'
p444
S'B-NP'
p445
g5
tp446
a(g132
g132
S'CD'
p447
S'I-NP'
p448
g5
tp449
a(g76
g76
S'SYM'
p450
S'I-NP'
p451
g5
tp452
a(g139
g139
S'CD'
p453
S'I-NP'
p454
g5
tp455
a(S'ratio'
p456
S'ratio'
p457
S'NN'
p458
S'I-NP'
p459
g5
tp460
a(S'with'
p461
S'with'
p462
S'IN'
p463
S'B-PP'
p464
g5
tp465
a(S'highly'
p466
S'highly'
p467
S'RB'
p468
S'B-NP'
p469
g5
tp470
a(S'purified'
p471
S'purify'
p472
S'VBN'
p473
S'I-NP'
p474
g5
tp475
a(S'human'
p476
S'human'
p477
S'JJ'
p478
S'I-NP'
p479
g5
tp480
a(S'menopausal'
p481
S'menopausal'
p482
S'JJ'
p483
S'I-NP'
p484
g5
tp485
a(S'gonadotropin'
p486
S'gonadotropin'
p487
S'NN'
p488
S'I-NP'
p489
g5
tp490
a(g214
g214
g214
g5
g5
tp491
a(S'hMG-HP'
p492
S'hMG-HP'
p493
S'NN'
p494
S'B-NP'
p495
g5
tp496
a(g221
g221
g221
g5
g5
tp497
a(S'urinary'
p498
S'urinary'
p499
S'JJ'
p500
S'B-NP'
p501
g5
tp502
a(S'extract'
p503
S'extract'
p504
S'NN'
p505
S'I-NP'
p506
g5
tp507
a(g236
g236
g236
g5
g5
tp508
a(S'containing'
p509
S'contain'
p510
S'VBG'
p511
S'B-VP'
p512
g5
tp513
a(S'LH-like'
p514
S'LH-like'
p515
S'JJ'
p516
S'B-NP'
p517
g5
tp518
a(S'activity'
p519
S'activity'
p520
S'NN'
p521
S'I-NP'
p522
g5
tp523
a(g236
g236
g236
g5
g5
tp524
a(S'in'
p525
S'in'
p526
S'IN'
p527
S'B-PP'
p528
g5
tp529
a(S'women'
p530
S'woman'
p531
S'NNS'
p532
S'B-NP'
p533
g5
tp534
a(S'with'
p535
S'with'
p536
S'IN'
p537
S'B-PP'
p538
g5
tp539
a(S'HH'
p540
S'HH'
p541
S'NN'
p542
S'B-NP'
p543
g5
tp544
a(g187
g187
g187
g5
g5
tp545
a(S'SUBJECTS'
p546
S'SUBJECTS'
p547
S'NNS'
p548
S'B-NP'
p549
g5
tp550
a(S'AND'
p551
S'AND'
p552
S'CC'
p553
S'I-NP'
p554
g5
tp555
a(S'METHODS'
p556
S'METHODS'
p557
S'NNS'
p558
S'I-NP'
p559
g5
tp560
a(S'This'
p561
S'This'
p562
S'DT'
p563
S'B-NP'
p564
g5
tp565
a(S'two-arm'
p566
S'two-arm'
p567
S'JJ'
p568
S'I-NP'
p569
g5
tp570
a(S'randomized'
p571
S'randomize'
p572
S'VBN'
p573
S'I-NP'
p574
g5
tp575
a(S'open-label'
p576
S'open-label'
p577
S'JJ'
p578
S'I-NP'
p579
g5
tp580
a(S'study'
p581
S'study'
p582
S'NN'
p583
S'I-NP'
p584
g5
tp585
a(S'included'
p586
S'include'
p587
S'VBD'
p588
S'B-VP'
p589
g5
tp590
a(S'35'
p591
S'35'
p592
S'CD'
p593
S'B-NP'
p594
g5
tp595
a(S'HH'
p596
S'HH'
p597
S'NN'
p598
S'I-NP'
p599
g5
tp600
a(S'women'
p601
S'woman'
p602
S'NNS'
p603
S'I-NP'
p604
g5
tp605
a(g214
g214
g214
g5
g5
tp606
a(S'aged'
p607
S'age'
p608
S'VBN'
p609
S'B-VP'
p610
g5
tp611
a(S'25-36'
p612
S'25-36'
p613
S'CD'
p614
S'B-NP'
p615
g5
tp616
a(S'yr'
p617
S'yr'
p618
S'NN'
p619
S'I-NP'
p620
g5
tp621
a(g221
g221
g221
g5
g5
tp622
a(S'attending'
p623
S'attend'
p624
S'VBG'
p625
S'B-VP'
p626
g5
tp627
a(S'our'
p628
S'our'
p629
S'PRP$'
p630
S'B-NP'
p631
g5
tp632
a(S'Center.'
p633
S'Center.'
p634
S'NNP'
p635
S'I-NP'
p636
g5
tp637
a(S'Eighteen'
p638
S'Eighteen'
p639
S'NNP'
p640
S'I-NP'
p641
g5
tp642
a(S'patients'
p643
S'patient'
p644
S'NNS'
p645
S'I-NP'
p646
g5
tp647
a(S'received'
p648
S'receive'
p649
S'VBD'
p650
S'B-VP'
p651
g5
tp652
a(S'150'
p653
S'150'
p654
S'CD'
p655
S'B-NP'
p656
g5
tp657
a(S'IU'
p658
S'IU'
p659
S'NN'
p660
S'I-NP'
p661
g5
tp662
a(S'hMG-HP'
p663
S'hMG-HP'
p664
S'NN'
p665
S'I-NP'
p666
g5
tp667
a(g214
g214
g214
g5
g5
tp668
a(S'150'
p669
S'150'
p670
S'CD'
p671
S'B-NP'
p672
g5
tp673
a(S'IU'
p674
S'IU'
p675
S'NN'
p676
S'I-NP'
p677
g5
tp678
a(S'FSH'
p679
S'FSH'
p680
S'NN'
p681
S'I-NP'
p682
g5
tp683
a(S'+'
p684
g684
S'SYM'
p685
g5
g5
tp686
a(S'150'
p687
S'150'
p688
S'CD'
p689
S'B-NP'
p690
g5
tp691
a(S'IU'
p692
S'IU'
p693
S'NN'
p694
S'I-NP'
p695
g5
tp696
a(S'LH-like'
p697
S'LH-like'
p698
S'JJ'
p699
S'I-NP'
p700
g5
tp701
a(S'activity'
p702
S'activity'
p703
S'NN'
p704
S'I-NP'
p705
g5
tp706
a(g221
g221
g221
g5
g5
tp707
a(S'and'
p708
S'and'
p709
S'CC'
p710
g5
g5
tp711
a(S'seventeen'
p712
S'seventeen'
p713
S'CD'
p714
S'B-NP'
p715
g5
tp716
a(S'received'
p717
S'receive'
p718
S'VBD'
p719
S'B-VP'
p720
g5
tp721
a(S'150IU'
p722
S'150IU'
p723
S'NN'
p724
S'B-NP'
p725
g5
tp726
a(S'r-hFSH/75IU'
p727
S'r-hFSH/75IU'
p728
S'NN'
p729
S'I-NP'
p730
g5
tp731
a(S'rhLH'
p732
S'rhLH'
p733
S'NN'
p734
S'I-NP'
p735
g5
tp736
a(S'daily'
p737
S'daily'
p738
S'RB'
p739
S'B-ADVP'
p740
g5
tp741
a(S'for'
p742
S'for'
p743
S'IN'
p744
S'B-PP'
p745
g5
tp746
a(g128
g128
S'DT'
p747
S'B-NP'
p748
g5
tp749
a(S'maximum'
p750
S'maximum'
p751
S'NN'
p752
S'I-NP'
p753
g5
tp754
a(S'of'
p755
S'of'
p756
S'IN'
p757
S'B-PP'
p758
g5
tp759
a(S'16'
p760
S'16'
p761
S'CD'
p762
S'B-NP'
p763
g5
tp764
a(S'days.'
p765
S'days.'
p766
S'NN'
p767
S'I-NP'
p768
g5
tp769
a(S'Ovulation'
p770
S'Ovulation'
p771
S'NN'
p772
S'I-NP'
p773
g5
tp774
a(S'was'
p775
S'be'
p776
S'VBD'
p777
S'B-VP'
p778
g5
tp779
a(S'induced'
p780
S'induce'
p781
S'VBN'
p782
S'I-VP'
p783
g5
tp784
a(S'by'
p785
S'by'
p786
S'IN'
p787
S'B-PP'
p788
g5
tp789
a(g128
g128
S'DT'
p790
S'B-NP'
p791
g5
tp792
a(S'single'
p793
S'single'
p794
S'JJ'
p795
S'I-NP'
p796
g5
tp797
a(S'administration'
p798
S'administration'
p799
S'NN'
p800
S'I-NP'
p801
g5
tp802
a(S'of'
p803
S'of'
p804
S'IN'
p805
S'B-PP'
p806
g5
tp807
a(S'hCG'
p808
S'hCG'
p809
S'NN'
p810
S'B-NP'
p811
g5
tp812
a(S'on'
p813
S'on'
p814
S'IN'
p815
S'B-PP'
p816
g5
tp817
a(S'the'
p818
S'the'
p819
S'DT'
p820
S'B-NP'
p821
g5
tp822
a(S'day'
p823
S'day'
p824
S'NN'
p825
S'I-NP'
p826
g5
tp827
a(S'after'
p828
S'after'
p829
S'IN'
p830
S'B-PP'
p831
g5
tp832
a(S'the'
p833
S'the'
p834
S'DT'
p835
S'B-NP'
p836
g5
tp837
a(S'last'
p838
S'last'
p839
S'JJ'
p840
S'I-NP'
p841
g5
tp842
a(S'hMG-HP'
p843
S'hMG-HP'
p844
S'NN'
p845
S'I-NP'
p846
g5
tp847
a(S'or'
p848
S'or'
p849
S'CC'
p850
S'I-NP'
p851
g5
tp852
a(S'r-hFSH/r-hLH'
p853
S'r-hFSH/r-hLH'
p854
S'NN'
p855
S'I-NP'
p856
g5
tp857
a(g187
g187
g187
g5
g5
tp858
a(S'RESULTS'
p859
S'RESULTS'
p860
S'NNS'
p861
S'B-NP'
p862
g5
tp863
a(S'The'
p864
S'The'
p865
S'DT'
p866
S'B-NP'
p867
g5
tp868
a(S'primary'
p869
S'primary'
p870
S'JJ'
p871
S'I-NP'
p872
g5
tp873
a(S'efficacy'
p874
S'efficacy'
p875
S'NN'
p876
S'I-NP'
p877
g5
tp878
a(S'endpoint'
p879
S'endpoint'
p880
S'NN'
p881
S'I-NP'
p882
g5
tp883
a(S'was'
p884
S'be'
p885
S'VBD'
p886
S'B-VP'
p887
g5
tp888
a(S'ovulation'
p889
S'ovulation'
p890
S'NN'
p891
S'B-NP'
p892
g5
tp893
a(S'induction'
p894
S'induction'
p895
S'NN'
p896
S'I-NP'
p897
g5
tp898
a(S'as'
p899
S'as'
p900
S'IN'
p901
S'B-SBAR'
p902
g5
tp903
a(S'measured'
p904
S'measure'
p905
S'VBN'
p906
S'B-VP'
p907
g5
tp908
a(S'by'
p909
S'by'
p910
S'IN'
p911
S'B-PP'
p912
g5
tp913
a(S'follicle'
p914
S'follicle'
p915
S'NN'
p916
S'B-NP'
p917
g5
tp918
a(S'\xe2\x89\xa517'
p919
S'\xe2\x89\xa517'
p920
S'CD'
p921
S'I-NP'
p922
g5
tp923
a(S'mm'
p924
S'mm'
p925
S'NN'
p926
S'I-NP'
p927
g5
tp928
a(g236
g236
g236
g5
g5
tp929
a(S'pre-ovulatory'
p930
S'pre-ovulatory'
p931
S'JJ'
p932
S'B-NP'
p933
g5
tp934
a(S'estradiol'
p935
S'estradiol'
p936
S'NN'
p937
S'I-NP'
p938
g5
tp939
a(g214
g214
g214
g5
g5
tp940
a(S'E'
p941
g941
S'NN'
p942
S'B-NP'
p943
g5
tp944
a(g132
g132
S'CD'
p945
S'I-NP'
p946
g5
tp947
a(g221
g221
g221
g5
g5
tp948
a(S'\xe2\x89\xa5400'
p949
S'\xe2\x89\xa5400'
p950
S'CD'
p951
S'B-NP'
p952
g5
tp953
a(S'pmol/l'
p954
S'pmol/l'
p955
S'NN'
p956
S'I-NP'
p957
g5
tp958
a(S'and'
p959
S'and'
p960
S'CC'
p961
g5
g5
tp962
a(S'mid-luteal'
p963
S'mid-luteal'
p964
S'JJ'
p965
S'B-NP'
p966
g5
tp967
a(S'phase'
p968
S'phase'
p969
S'NN'
p970
S'I-NP'
p971
g5
tp972
a(S'progesterone'
p973
S'progesterone'
p974
S'NN'
p975
S'I-NP'
p976
g5
tp977
a(g214
g214
g214
g5
g5
tp978
a(S'P'
p979
g979
S'NN'
p980
S'B-NP'
p981
g5
tp982
a(S'4'
p983
g983
S'CD'
p984
S'I-NP'
p985
g5
tp986
a(g221
g221
g221
g5
g5
tp987
a(S'\xe2\x89\xa525'
p988
S'\xe2\x89\xa525'
p989
S'CD'
p990
S'B-NP'
p991
g5
tp992
a(S'nmol/l.'
p993
S'nmol/l.'
p994
S'NN'
p995
S'I-NP'
p996
g5
tp997
a(S'Secondary'
p998
S'Secondary'
p999
S'JJ'
p1000
S'I-NP'
p1001
g5
tp1002
a(S'efficacy'
p1003
S'efficacy'
p1004
S'NN'
p1005
S'I-NP'
p1006
g5
tp1007
a(S'endpoints'
p1008
S'endpoint'
p1009
S'NNS'
p1010
S'I-NP'
p1011
g5
tp1012
a(S'included'
p1013
S'include'
p1014
S'VBD'
p1015
S'B-VP'
p1016
g5
tp1017
a(g941
g941
S'NN'
p1018
S'B-NP'
p1019
g5
tp1020
a(g132
g132
S'CD'
p1021
S'I-NP'
p1022
g5
tp1023
a(S'levels/follicle'
p1024
S'levels/follicle'
p1025
S'NN'
p1026
S'I-NP'
p1027
g5
tp1028
a(S'at'
p1029
S'at'
p1030
S'IN'
p1031
S'B-PP'
p1032
g5
tp1033
a(S'mid-cycle'
p1034
S'mid-cycle'
p1035
S'NN'
p1036
S'B-NP'
p1037
g5
tp1038
a(g236
g236
g236
g5
g5
tp1039
a(S'number'
p1040
S'number'
p1041
S'NN'
p1042
S'B-NP'
p1043
g5
tp1044
a(S'of'
p1045
S'of'
p1046
S'IN'
p1047
S'B-PP'
p1048
g5
tp1049
a(S'follicles'
p1050
S'follicle'
p1051
S'NNS'
p1052
S'B-NP'
p1053
g5
tp1054
a(S'at'
p1055
S'at'
p1056
S'IN'
p1057
S'B-PP'
p1058
g5
tp1059
a(S'mid-cycle'
p1060
S'mid-cycle'
p1061
S'NN'
p1062
S'B-NP'
p1063
g5
tp1064
a(S'and'
p1065
S'and'
p1066
S'CC'
p1067
S'I-NP'
p1068
g5
tp1069
a(S'pregnancy'
p1070
S'pregnancy'
p1071
S'NN'
p1072
S'I-NP'
p1073
g5
tp1074
a(S'rate'
p1075
S'rate'
p1076
S'NN'
p1077
S'I-NP'
p1078
g5
tp1079
a(g214
g214
g214
g5
g5
tp1080
a(S'PR'
p1081
S'PR'
p1082
S'NN'
p1083
S'B-NP'
p1084
S'B-protein'
p1085
tp1086
a(g221
g221
g221
g5
g5
tp1087
a(g187
g187
g187
g5
g5
tp1088
a(S'Following'
p1089
S'Follow'
p1090
S'VBG'
p1091
S'B-VP'
p1092
g5
tp1093
a(g128
g128
S'DT'
p1094
S'B-NP'
p1095
g5
tp1096
a(S'total'
p1097
S'total'
p1098
S'NN'
p1099
S'I-NP'
p1100
g5
tp1101
a(S'of'
p1102
S'of'
p1103
S'IN'
p1104
S'B-PP'
p1105
g5
tp1106
a(S'70'
p1107
S'70'
p1108
S'CD'
p1109
S'B-NP'
p1110
g5
tp1111
a(S'cycles'
p1112
S'cycle'
p1113
S'NNS'
p1114
S'I-NP'
p1115
g5
tp1116
a(g236
g236
g236
g5
g5
tp1117
a(S'70'
p1118
S'70'
p1119
S'CD'
p1120
S'B-NP'
p1121
g5
tp1122
a(S'%'
p1123
g1123
S'NN'
p1124
S'I-NP'
p1125
g5
tp1126
a(S'of'
p1127
S'of'
p1128
S'IN'
p1129
S'B-PP'
p1130
g5
tp1131
a(S'r-hFSH/r-hLH'
p1132
S'r-hFSH/r-hLH'
p1133
S'NN'
p1134
S'B-NP'
p1135
g5
tp1136
a(S'treated'
p1137
S'treat'
p1138
S'VBN'
p1139
S'B-NP'
p1140
g5
tp1141
a(S'patients'
p1142
S'patient'
p1143
S'NNS'
p1144
S'I-NP'
p1145
g5
tp1146
a(S'met'
p1147
S'meet'
p1148
S'VBD'
p1149
S'B-VP'
p1150
g5
tp1151
a(S'the'
p1152
S'the'
p1153
S'DT'
p1154
S'B-NP'
p1155
g5
tp1156
a(S'primary'
p1157
S'primary'
p1158
S'JJ'
p1159
S'I-NP'
p1160
g5
tp1161
a(S'endpoint'
p1162
S'endpoint'
p1163
S'NN'
p1164
S'I-NP'
p1165
g5
tp1166
a(S'vs'
p1167
S'vs'
p1168
S'IN'
p1169
S'B-PP'
p1170
g5
tp1171
a(S'88'
p1172
S'88'
p1173
S'CD'
p1174
S'B-NP'
p1175
g5
tp1176
a(g1123
g1123
S'NN'
p1177
S'I-NP'
p1178
g5
tp1179
a(S'in'
p1180
S'in'
p1181
S'IN'
p1182
S'B-PP'
p1183
g5
tp1184
a(S'hMG-HP'
p1185
S'hMG-HP'
p1186
S'NN'
p1187
S'B-NP'
p1188
g5
tp1189
a(S'group'
p1190
S'group'
p1191
S'NN'
p1192
S'I-NP'
p1193
g5
tp1194
a(g214
g214
g214
g5
g5
tp1195
a(S'p=0.11'
p1196
S'p=0.11'
p1197
S'NN'
p1198
S'B-NP'
p1199
g5
tp1200
a(g221
g221
g221
g5
g5
tp1201
a(g187
g187
g187
g5
g5
tp1202
a(S'However'
p1203
S'However'
p1204
S'RB'
p1205
S'B-ADVP'
p1206
g5
tp1207
a(g236
g236
g236
g5
g5
tp1208
a(S'PR'
p1209
S'PR'
p1210
S'NN'
p1211
S'B-NP'
p1212
S'B-protein'
p1213
tp1214
a(S'in'
p1215
S'in'
p1216
S'IN'
p1217
S'B-PP'
p1218
g5
tp1219
a(S'r-hFSH/r-hLH'
p1220
S'r-hFSH/r-hLH'
p1221
S'NN'
p1222
S'B-NP'
p1223
g5
tp1224
a(S'group'
p1225
S'group'
p1226
S'NN'
p1227
S'I-NP'
p1228
g5
tp1229
a(S'was'
p1230
S'be'
p1231
S'VBD'
p1232
S'B-VP'
p1233
g5
tp1234
a(S'55.6'
p1235
S'55.6'
p1236
S'CD'
p1237
S'B-NP'
p1238
g5
tp1239
a(g1123
g1123
S'NN'
p1240
S'I-NP'
p1241
g5
tp1242
a(S'compared'
p1243
S'compare'
p1244
S'VBN'
p1245
S'B-PP'
p1246
g5
tp1247
a(S'to'
p1248
S'to'
p1249
S'TO'
p1250
S'B-PP'
p1251
g5
tp1252
a(S'23.3'
p1253
S'23.3'
p1254
S'CD'
p1255
S'B-NP'
p1256
g5
tp1257
a(g1123
g1123
S'NN'
p1258
S'I-NP'
p1259
g5
tp1260
a(S'in'
p1261
S'in'
p1262
S'IN'
p1263
S'B-PP'
p1264
g5
tp1265
a(S'hMG-HP'
p1266
S'hMG-HP'
p1267
S'NN'
p1268
S'B-NP'
p1269
g5
tp1270
a(S'group'
p1271
S'group'
p1272
S'NN'
p1273
S'I-NP'
p1274
g5
tp1275
a(g214
g214
g214
g5
g5
tp1276
a(S'p=0.01'
p1277
S'p=0.01'
p1278
S'NN'
p1279
S'B-NP'
p1280
g5
tp1281
a(g221
g221
g221
g5
g5
tp1282
a(g187
g187
g187
g5
g5
tp1283
a(S'CONCLUSIONS'
p1284
S'CONCLUSIONS'
p1285
S'NNS'
p1286
S'B-NP'
p1287
g5
tp1288
a(S'The'
p1289
S'The'
p1290
S'DT'
p1291
S'B-NP'
p1292
g5
tp1293
a(S'primary'
p1294
S'primary'
p1295
S'JJ'
p1296
S'I-NP'
p1297
g5
tp1298
a(S'endpoint'
p1299
S'endpoint'
p1300
S'NN'
p1301
S'I-NP'
p1302
g5
tp1303
a(S'achievement'
p1304
S'achievement'
p1305
S'NN'
p1306
S'I-NP'
p1307
g5
tp1308
a(S'did'
p1309
S'do'
p1310
S'VBD'
p1311
S'B-VP'
p1312
g5
tp1313
a(S'not'
p1314
S'not'
p1315
S'RB'
p1316
S'I-VP'
p1317
g5
tp1318
a(S'correlate'
p1319
S'correlate'
p1320
S'VB'
p1321
S'I-VP'
p1322
g5
tp1323
a(S'with'
p1324
S'with'
p1325
S'IN'
p1326
S'B-PP'
p1327
g5
tp1328
a(S'PR.'
p1329
S'PR.'
p1330
S'NNP'
p1331
S'B-NP'
p1332
g5
tp1333
a(S'This'
p1334
S'This'
p1335
S'DT'
p1336
S'B-NP'
p1337
g5
tp1338
a(S'study'
p1339
S'study'
p1340
S'NN'
p1341
S'I-NP'
p1342
g5
tp1343
a(S'has'
p1344
S'have'
p1345
S'VBZ'
p1346
S'B-VP'
p1347
g5
tp1348
a(S'shown'
p1349
S'show'
p1350
S'VBN'
p1351
S'I-VP'
p1352
g5
tp1353
a(S'the'
p1354
S'the'
p1355
S'DT'
p1356
S'B-NP'
p1357
g5
tp1358
a(S'superiority'
p1359
S'superiority'
p1360
S'NN'
p1361
S'I-NP'
p1362
g5
tp1363
a(S'of'
p1364
S'of'
p1365
S'IN'
p1366
S'B-PP'
p1367
g5
tp1368
a(S'LH'
p1369
S'LH'
p1370
S'NN'
p1371
S'B-NP'
p1372
g5
tp1373
a(S'compared'
p1374
S'compare'
p1375
S'VBN'
p1376
S'B-VP'
p1377
g5
tp1378
a(S'to'
p1379
S'to'
p1380
S'TO'
p1381
S'B-PP'
p1382
g5
tp1383
a(S'hCG'
p1384
S'hCG'
p1385
S'NN'
p1386
S'B-NP'
p1387
g5
tp1388
a(S'in'
p1389
S'in'
p1390
S'IN'
p1391
S'B-PP'
p1392
g5
tp1393
a(S'supporting'
p1394
S'support'
p1395
S'VBG'
p1396
S'B-VP'
p1397
g5
tp1398
a(S'FSH-induced'
p1399
S'FSH-induced'
p1400
S'JJ'
p1401
S'B-NP'
p1402
g5
tp1403
a(S'follicular'
p1404
S'follicular'
p1405
S'JJ'
p1406
S'I-NP'
p1407
g5
tp1408
a(S'development'
p1409
S'development'
p1410
S'NN'
p1411
S'I-NP'
p1412
g5
tp1413
a(S'in'
p1414
S'in'
p1415
S'IN'
p1416
S'B-PP'
p1417
g5
tp1418
a(S'HH'
p1419
S'HH'
p1420
S'NN'
p1421
S'B-NP'
p1422
g5
tp1423
a(S'women'
p1424
S'woman'
p1425
S'NNS'
p1426
S'I-NP'
p1427
g5
tp1428
a(g187
g187
g187
g5
g5
tp1429
a.