(lp0
(S'The'
p1
S'The'
p2
S'DT'
p3
S'B-NP'
p4
S'O'
p5
tp6
a(S'effects'
p7
S'effect'
p8
S'NNS'
p9
S'I-NP'
p10
g5
tp11
a(S'of'
p12
S'of'
p13
S'IN'
p14
S'B-PP'
p15
g5
tp16
a(S'a'
p17
g17
S'DT'
p18
S'B-NP'
p19
g5
tp20
a(S'single'
p21
S'single'
p22
S'JJ'
p23
S'I-NP'
p24
g5
tp25
a(S'dose'
p26
S'dose'
p27
S'NN'
p28
S'I-NP'
p29
g5
tp30
a(S'of'
p31
S'of'
p32
S'IN'
p33
S'B-PP'
p34
g5
tp35
a(S'oxytocin'
p36
S'oxytocin'
p37
S'NN'
p38
S'B-NP'
p39
g5
tp40
a(S'on'
p41
S'on'
p42
S'IN'
p43
S'B-PP'
p44
g5
tp45
a(S'working'
p46
S'work'
p47
S'VBG'
p48
S'B-NP'
p49
g5
tp50
a(S'memory'
p51
S'memory'
p52
S'NN'
p53
S'I-NP'
p54
g5
tp55
a(S'in'
p56
S'in'
p57
S'IN'
p58
S'B-PP'
p59
g5
tp60
a(S'schizophrenia'
p61
S'schizophrenia'
p62
S'NN'
p63
S'B-NP'
p64
g5
tp65
a(S'.'
p66
g66
g66
g5
g5
tp67
a.