(lp0
(S'Non-verbal'
p1
S'Non-verbal'
p2
S'JJ'
p3
S'B-NP'
p4
S'O'
p5
tp6
a(S'communication'
p7
S'communication'
p8
S'NN'
p9
S'I-NP'
p10
g5
tp11
a(S'of'
p12
S'of'
p13
S'IN'
p14
S'B-PP'
p15
g5
tp16
a(S'compassion'
p17
S'compassion'
p18
S'NN'
p19
S'B-NP'
p20
g5
tp21
a(S':'
p22
g22
g22
g5
g5
tp23
a(S'measuring'
p24
S'measure'
p25
S'VBG'
p26
S'B-VP'
p27
g5
tp28
a(S'psychophysiologic'
p29
S'psychophysiologic'
p30
S'JJ'
p31
S'B-NP'
p32
g5
tp33
a(S'effects'
p34
S'effect'
p35
S'NNS'
p36
S'I-NP'
p37
g5
tp38
a(S'.'
p39
g39
g39
g5
g5
tp40
a(S'BACKGROUND'
p41
S'BACKGROUND'
p42
S'NN'
p43
S'B-NP'
p44
g5
tp45
a(S'Calm'
p46
S'Calm'
p47
S'NNP'
p48
S'I-NP'
p49
g5
tp50
a(S','
p51
g51
g51
g5
g5
tp52
a(S'compassionate'
p53
S'compassionate'
p54
S'JJ'
p55
S'B-NP'
p56
g5
tp57
a(S'clinicians'
p58
S'clinician'
p59
S'NNS'
p60
S'I-NP'
p61
g5
tp62
a(S'comfort'
p63
S'comfort'
p64
S'VBP'
p65
S'B-VP'
p66
g5
tp67
a(S'others.'
p68
S'others.'
p69
S'JJ'
p70
S'B-ADJP'
p71
g5
tp72
a(S'To'
p73
S'To'
p74
S'TO'
p75
S'B-VP'
p76
g5
tp77
a(S'evaluate'
p78
S'evaluate'
p79
S'VB'
p80
S'I-VP'
p81
g5
tp82
a(S'the'
p83
S'the'
p84
S'DT'
p85
S'B-NP'
p86
g5
tp87
a(S'direct'
p88
S'direct'
p89
S'JJ'
p90
S'I-NP'
p91
g5
tp92
a(S'psychophysiologic'
p93
S'psychophysiologic'
p94
S'JJ'
p95
S'I-NP'
p96
g5
tp97
a(S'benefits'
p98
S'benefit'
p99
S'NNS'
p100
S'I-NP'
p101
g5
tp102
a(S'of'
p103
S'of'
p104
S'IN'
p105
S'B-PP'
p106
g5
tp107
a(S'non-verbal'
p108
S'non-verbal'
p109
S'JJ'
p110
S'B-NP'
p111
g5
tp112
a(S'communication'
p113
S'communication'
p114
S'NN'
p115
S'I-NP'
p116
g5
tp117
a(S'of'
p118
S'of'
p119
S'IN'
p120
S'B-PP'
p121
g5
tp122
a(S'compassion'
p123
S'compassion'
p124
S'NN'
p125
S'B-NP'
p126
g5
tp127
a(S'('
p128
g128
g128
g5
g5
tp129
a(S'NVCC'
p130
S'NVCC'
p131
S'NN'
p132
S'B-NP'
p133
S'B-protein'
p134
tp135
a(S')'
p136
g136
g136
g5
g5
tp137
a(g51
g51
g51
g5
g5
tp138
a(S'it'
p139
S'it'
p140
S'PRP'
p141
S'B-NP'
p142
g5
tp143
a(S'is'
p144
S'be'
p145
S'VBZ'
p146
S'B-VP'
p147
g5
tp148
a(S'important'
p149
S'important'
p150
S'JJ'
p151
S'B-ADJP'
p152
g5
tp153
a(S'to'
p154
S'to'
p155
S'TO'
p156
S'B-VP'
p157
g5
tp158
a(S'minimize'
p159
S'minimize'
p160
S'VB'
p161
S'I-VP'
p162
g5
tp163
a(S'the'
p164
S'the'
p165
S'DT'
p166
S'B-NP'
p167
g5
tp168
a(S'effect'
p169
S'effect'
p170
S'NN'
p171
S'I-NP'
p172
g5
tp173
a(S'of'
p174
S'of'
p175
S'IN'
p176
S'B-PP'
p177
g5
tp178
a(S'subjects'
p179
S'subject'
p180
S'NNS'
p181
S'B-NP'
p182
g5
tp183
a(S"'"
p184
g184
S'POS'
p185
S'B-NP'
p186
g5
tp187
a(S'expectation.'
p188
S'expectation.'
p189
S'NN'
p190
S'I-NP'
p191
g5
tp192
a(S'This'
p193
S'This'
p194
S'DT'
p195
S'B-NP'
p196
g5
tp197
a(S'preliminary'
p198
S'preliminary'
p199
S'JJ'
p200
S'I-NP'
p201
g5
tp202
a(S'study'
p203
S'study'
p204
S'NN'
p205
S'I-NP'
p206
g5
tp207
a(S'was'
p208
S'be'
p209
S'VBD'
p210
S'B-VP'
p211
g5
tp212
a(S'designed'
p213
S'design'
p214
S'VBN'
p215
S'I-VP'
p216
g5
tp217
a(S'to'
p218
S'to'
p219
S'TO'
p220
S'B-PP'
p221
g5
tp222
a(S'a'
p223
g223
S'DT'
p224
g5
g5
tp225
a(g136
g136
g136
g5
g5
tp226
a(S'test'
p227
S'test'
p228
S'NN'
p229
S'B-NP'
p230
g5
tp231
a(S'the'
p232
S'the'
p233
S'DT'
p234
S'B-NP'
p235
g5
tp236
a(S'feasibility'
p237
S'feasibility'
p238
S'NN'
p239
S'I-NP'
p240
g5
tp241
a(S'of'
p242
S'of'
p243
S'IN'
p244
S'B-PP'
p245
g5
tp246
a(S'two'
p247
S'two'
p248
S'CD'
p249
S'B-NP'
p250
g5
tp251
a(S'strategies'
p252
S'strategy'
p253
S'NNS'
p254
S'I-NP'
p255
g5
tp256
a(S'for'
p257
S'for'
p258
S'IN'
p259
S'B-PP'
p260
g5
tp261
a(S'maintaining'
p262
S'maintain'
p263
S'VBG'
p264
S'B-VP'
p265
g5
tp266
a(S'subject'
p267
S'subject'
p268
S'NN'
p269
S'B-NP'
p270
g5
tp271
a(S'blinding'
p272
S'blinding'
p273
S'NN'
p274
S'I-NP'
p275
g5
tp276
a(S'to'
p277
S'to'
p278
S'TO'
p279
S'B-PP'
p280
g5
tp281
a(S'non-verbal'
p282
S'non-verbal'
p283
S'JJ'
p284
S'B-NP'
p285
g5
tp286
a(S'communication'
p287
S'communication'
p288
S'NN'
p289
S'I-NP'
p290
g5
tp291
a(S'of'
p292
S'of'
p293
S'IN'
p294
S'B-PP'
p295
g5
tp296
a(S'compassion'
p297
S'compassion'
p298
S'NN'
p299
S'B-NP'
p300
g5
tp301
a(g128
g128
g128
g5
g5
tp302
a(S'NVCC'
p303
S'NVCC'
p304
S'NN'
p305
S'B-NP'
p306
S'B-protein'
p307
tp308
a(g136
g136
g136
g5
g5
tp309
a(g51
g51
g51
g5
g5
tp310
a(S'and'
p311
S'and'
p312
S'CC'
p313
g5
g5
tp314
a(S'b'
p315
g315
S'NN'
p316
S'B-NP'
p317
g5
tp318
a(g136
g136
g136
g5
g5
tp319
a(S'determine'
p320
S'determine'
p321
S'NN'
p322
S'B-NP'
p323
g5
tp324
a(S'whether'
p325
S'whether'
p326
S'IN'
p327
S'B-SBAR'
p328
g5
tp329
a(S'blinded'
p330
S'blinded'
p331
S'JJ'
p332
S'B-NP'
p333
g5
tp334
a(S'subjects'
p335
S'subject'
p336
S'NNS'
p337
S'I-NP'
p338
g5
tp339
a(S'would'
p340
S'would'
p341
S'MD'
p342
S'B-VP'
p343
g5
tp344
a(S'experience'
p345
S'experience'
p346
S'VB'
p347
S'I-VP'
p348
g5
tp349
a(S'psychophysiologic'
p350
S'psychophysiologic'
p351
S'JJ'
p352
S'B-NP'
p353
g5
tp354
a(S'effects'
p355
S'effect'
p356
S'NNS'
p357
S'I-NP'
p358
g5
tp359
a(S'from'
p360
S'from'
p361
S'IN'
p362
S'B-PP'
p363
g5
tp364
a(S'NVCC'
p365
S'NVCC'
p366
S'NN'
p367
S'B-NP'
p368
S'B-protein'
p369
tp370
a(g39
g39
g39
g5
g5
tp371
a(S'METHODS'
p372
S'METHODS'
p373
S'NNS'
p374
S'B-NP'
p375
g5
tp376
a(S'Subjects'
p377
S'Subject'
p378
S'NNS'
p379
S'I-NP'
p380
g5
tp381
a(S'were'
p382
S'be'
p383
S'VBD'
p384
S'B-VP'
p385
g5
tp386
a(S'healthy'
p387
S'healthy'
p388
S'JJ'
p389
S'B-NP'
p390
g5
tp391
a(S'volunteers'
p392
S'volunteer'
p393
S'NNS'
p394
S'I-NP'
p395
g5
tp396
a(S'who'
p397
S'who'
p398
S'WP'
p399
S'B-NP'
p400
g5
tp401
a(S'were'
p402
S'be'
p403
S'VBD'
p404
S'B-VP'
p405
g5
tp406
a(S'told'
p407
S'tell'
p408
S'VBN'
p409
S'I-VP'
p410
g5
tp411
a(S'the'
p412
S'the'
p413
S'DT'
p414
S'B-NP'
p415
g5
tp416
a(S'study'
p417
S'study'
p418
S'NN'
p419
S'I-NP'
p420
g5
tp421
a(S'was'
p422
S'be'
p423
S'VBD'
p424
S'B-VP'
p425
g5
tp426
a(S'evaluating'
p427
S'evaluate'
p428
S'VBG'
p429
S'I-VP'
p430
g5
tp431
a(S'the'
p432
S'the'
p433
S'DT'
p434
S'B-NP'
p435
g5
tp436
a(S'effect'
p437
S'effect'
p438
S'NN'
p439
S'I-NP'
p440
g5
tp441
a(S'of'
p442
S'of'
p443
S'IN'
p444
S'B-PP'
p445
g5
tp446
a(S'time'
p447
S'time'
p448
S'NN'
p449
S'B-NP'
p450
g5
tp451
a(S'and'
p452
S'and'
p453
S'CC'
p454
S'I-NP'
p455
g5
tp456
a(S'touch'
p457
S'touch'
p458
S'NN'
p459
S'I-NP'
p460
g5
tp461
a(S'on'
p462
S'on'
p463
S'IN'
p464
S'B-PP'
p465
g5
tp466
a(S'the'
p467
S'the'
p468
S'DT'
p469
S'B-NP'
p470
g5
tp471
a(S'autonomic'
p472
S'autonomic'
p473
S'JJ'
p474
S'I-NP'
p475
g5
tp476
a(S'nervous'
p477
S'nervous'
p478
S'JJ'
p479
S'I-NP'
p480
g5
tp481
a(S'system.'
p482
S'system.'
p483
S'NN'
p484
S'I-NP'
p485
g5
tp486
a(S'The'
p487
S'The'
p488
S'DT'
p489
S'B-NP'
p490
g5
tp491
a(S'practitioner'
p492
S'practitioner'
p493
S'NN'
p494
S'I-NP'
p495
g5
tp496
a(S'had'
p497
S'have'
p498
S'VBD'
p499
S'B-VP'
p500
g5
tp501
a(S'more'
p502
S'more'
p503
S'RBR'
p504
S'B-NP'
p505
g5
tp506
a(S'than'
p507
S'than'
p508
S'IN'
p509
S'I-NP'
p510
g5
tp511
a(S'10'
p512
S'10'
p513
S'CD'
p514
S'I-NP'
p515
g5
tp516
a(S'years'
p517
S'year'
p518
S'NNS'
p519
S'I-NP'
p520
g5
tp521
a(g184
g184
S'POS'
p522
S'B-NP'
p523
g5
tp524
a(S'experience'
p525
S'experience'
p526
S'NN'
p527
S'I-NP'
p528
g5
tp529
a(S'with'
p530
S'with'
p531
S'IN'
p532
S'B-PP'
p533
g5
tp534
a(S'loving-kindness'
p535
S'loving-kindness'
p536
S'NN'
p537
S'B-NP'
p538
g5
tp539
a(S'meditation'
p540
S'meditation'
p541
S'NN'
p542
S'I-NP'
p543
g5
tp544
a(g128
g128
g128
g5
g5
tp545
a(S'LKM'
p546
S'LKM'
p547
S'NN'
p548
S'B-NP'
p549
S'B-protein'
p550
tp551
a(g136
g136
g136
g5
g5
tp552
a(g51
g51
g51
g5
g5
tp553
a(g223
g223
S'DT'
p554
S'B-NP'
p555
g5
tp556
a(S'form'
p557
S'form'
p558
S'NN'
p559
S'I-NP'
p560
g5
tp561
a(S'of'
p562
S'of'
p563
S'IN'
p564
S'B-PP'
p565
g5
tp566
a(S'NVCC.'
p567
S'NVCC.'
p568
S'NNP'
p569
S'B-NP'
p570
g5
tp571
a(S'Subjects'
p572
S'Subject'
p573
S'NNPS'
p574
S'I-NP'
p575
g5
tp576
a(S'completed'
p577
S'complete'
p578
S'VBD'
p579
S'B-VP'
p580
g5
tp581
a(S'10-point'
p582
S'10-point'
p583
S'JJ'
p584
S'B-NP'
p585
g5
tp586
a(S'visual'
p587
S'visual'
p588
S'JJ'
p589
S'I-NP'
p590
g5
tp591
a(S'analog'
p592
S'analog'
p593
S'NN'
p594
S'I-NP'
p595
g5
tp596
a(S'scales'
p597
S'scale'
p598
S'NNS'
p599
S'I-NP'
p600
g5
tp601
a(g128
g128
g128
g5
g5
tp602
a(S'VAS'
p603
S'VAS'
p604
S'NNS'
p605
S'B-NP'
p606
g5
tp607
a(g136
g136
g136
g5
g5
tp608
a(S'for'
p609
S'for'
p610
S'IN'
p611
S'B-PP'
p612
g5
tp613
a(S'stress'
p614
S'stress'
p615
S'NN'
p616
S'B-NP'
p617
g5
tp618
a(g51
g51
g51
g5
g5
tp619
a(S'relaxation'
p620
S'relaxation'
p621
S'NN'
p622
S'B-NP'
p623
g5
tp624
a(g51
g51
g51
g5
g5
tp625
a(S'and'
p626
S'and'
p627
S'CC'
p628
g5
g5
tp629
a(S'peacefulness'
p630
S'peacefulness'
p631
S'NN'
p632
S'B-NP'
p633
g5
tp634
a(S'before'
p635
S'before'
p636
S'IN'
p637
S'B-PP'
p638
g5
tp639
a(S'and'
p640
S'and'
p641
S'CC'
p642
S'I-PP'
p643
g5
tp644
a(S'after'
p645
S'after'
p646
S'IN'
p647
S'I-PP'
p648
g5
tp649
a(S'LKM.'
p650
S'LKM.'
p651
S'NNP'
p652
S'B-NP'
p653
g5
tp654
a(S'To'
p655
S'To'
p656
S'TO'
p657
S'B-VP'
p658
g5
tp659
a(S'assess'
p660
S'assess'
p661
S'VB'
p662
S'I-VP'
p663
g5
tp664
a(S'physiologic'
p665
S'physiologic'
p666
S'JJ'
p667
S'B-NP'
p668
g5
tp669
a(S'effects'
p670
S'effect'
p671
S'NNS'
p672
S'I-NP'
p673
g5
tp674
a(g51
g51
g51
S'I-NP'
p675
g5
tp676
a(S'practitioners'
p677
S'practitioner'
p678
S'NNS'
p679
S'I-NP'
p680
g5
tp681
a(S'and'
p682
S'and'
p683
S'CC'
p684
S'I-NP'
p685
g5
tp686
a(S'subjects'
p687
S'subject'
p688
S'NNS'
p689
S'I-NP'
p690
g5
tp691
a(S'wore'
p692
S'wear'
p693
S'VBD'
p694
S'B-VP'
p695
g5
tp696
a(S'cardiorespiratory'
p697
S'cardiorespiratory'
p698
S'JJ'
p699
S'B-NP'
p700
g5
tp701
a(S'monitors'
p702
S'monitor'
p703
S'NNS'
p704
S'I-NP'
p705
g5
tp706
a(S'to'
p707
S'to'
p708
S'TO'
p709
S'B-VP'
p710
g5
tp711
a(S'assess'
p712
S'assess'
p713
S'VB'
p714
S'I-VP'
p715
g5
tp716
a(S'respiratory'
p717
S'respiratory'
p718
S'JJ'
p719
S'B-NP'
p720
g5
tp721
a(S'rate'
p722
S'rate'
p723
S'NN'
p724
S'I-NP'
p725
g5
tp726
a(g128
g128
g128
g5
g5
tp727
a(S'RR'
p728
S'RR'
p729
S'NN'
p730
S'B-NP'
p731
S'B-protein'
p732
tp733
a(g136
g136
g136
g5
g5
tp734
a(g51
g51
g51
g5
g5
tp735
a(S'heart'
p736
S'heart'
p737
S'NN'
p738
S'B-NP'
p739
g5
tp740
a(S'rate'
p741
S'rate'
p742
S'NN'
p743
S'I-NP'
p744
g5
tp745
a(g128
g128
g128
g5
g5
tp746
a(S'HR'
p747
S'HR'
p748
S'NN'
p749
S'B-NP'
p750
S'B-protein'
p751
tp752
a(g136
g136
g136
g5
g5
tp753
a(S'and'
p754
S'and'
p755
S'CC'
p756
g5
g5
tp757
a(S'heart'
p758
S'heart'
p759
S'NN'
p760
S'B-NP'
p761
g5
tp762
a(S'rate'
p763
S'rate'
p764
S'NN'
p765
S'I-NP'
p766
g5
tp767
a(S'variability'
p768
S'variability'
p769
S'NN'
p770
S'I-NP'
p771
g5
tp772
a(g128
g128
g128
g5
g5
tp773
a(S'HRV'
p774
S'HRV'
p775
S'NN'
p776
S'B-NP'
p777
g5
tp778
a(g136
g136
g136
g5
g5
tp779
a(S'throughout'
p780
S'throughout'
p781
S'IN'
p782
S'B-PP'
p783
g5
tp784
a(S'the'
p785
S'the'
p786
S'DT'
p787
S'B-NP'
p788
g5
tp789
a(S'4'
p790
g790
S'CD'
p791
S'I-NP'
p792
g5
tp793
a(S'10-minute'
p794
S'10-minute'
p795
S'JJ'
p796
S'I-NP'
p797
g5
tp798
a(S'study'
p799
S'study'
p800
S'NN'
p801
S'I-NP'
p802
g5
tp803
a(S'periods'
p804
S'period'
p805
S'NNS'
p806
S'I-NP'
p807
g5
tp808
a(g22
g22
g22
g5
g5
tp809
a(S'Baseline'
p810
S'Baseline'
p811
S'NN'
p812
S'B-NP'
p813
g5
tp814
a(g128
g128
g128
g5
g5
tp815
a(S'both'
p816
S'both'
p817
S'CC'
p818
g5
g5
tp819
a(S'practitioner'
p820
S'practitioner'
p821
S'NN'
p822
S'B-NP'
p823
g5
tp824
a(S'and'
p825
S'and'
p826
S'CC'
p827
S'I-NP'
p828
g5
tp829
a(S'subjects'
p830
S'subject'
p831
S'NNS'
p832
S'I-NP'
p833
g5
tp834
a(S'read'
p835
S'read'
p836
S'VBP'
p837
S'B-VP'
p838
g5
tp839
a(S'neutral'
p840
S'neutral'
p841
S'JJ'
p842
S'B-NP'
p843
g5
tp844
a(S'material'
p845
S'material'
p846
S'NN'
p847
S'I-NP'
p848
g5
tp849
a(g136
g136
g136
g5
g5
tp850
a(S';'
p851
g851
g22
g5
g5
tp852
a(S'non-tactile-LKM'
p853
S'non-tactile-LKM'
p854
S'JJ'
p855
g5
g5
tp856
a(g128
g128
g128
g5
g5
tp857
a(S'subjects'
p858
S'subject'
p859
S'NNS'
p860
S'B-NP'
p861
g5
tp862
a(S'read'
p863
S'read'
p864
S'VBN'
p865
S'B-VP'
p866
g5
tp867
a(S'while'
p868
S'while'
p869
S'IN'
p870
S'B-SBAR'
p871
g5
tp872
a(S'the'
p873
S'the'
p874
S'DT'
p875
S'B-NP'
p876
g5
tp877
a(S'practitioner'
p878
S'practitioner'
p879
S'NN'
p880
S'I-NP'
p881
g5
tp882
a(S'practiced'
p883
S'practice'
p884
S'VBD'
p885
S'B-VP'
p886
g5
tp887
a(S'LKM'
p888
S'LKM'
p889
S'NN'
p890
S'B-NP'
p891
S'B-protein'
p892
tp893
a(S'while'
p894
S'while'
p895
S'IN'
p896
S'B-SBAR'
p897
g5
tp898
a(S'pretending'
p899
S'pretend'
p900
S'VBG'
p901
S'B-VP'
p902
g5
tp903
a(S'to'
p904
S'to'
p905
S'TO'
p906
S'I-VP'
p907
g5
tp908
a(S'read'
p909
S'read'
p910
S'VB'
p911
S'I-VP'
p912
g5
tp913
a(g136
g136
g136
g5
g5
tp914
a(g851
g851
g22
g5
g5
tp915
a(S'tactile-LKM'
p916
S'tactile-LKM'
p917
S'NN'
p918
S'B-NP'
p919
g5
tp920
a(g128
g128
g128
g5
g5
tp921
a(S'subjects'
p922
S'subject'
p923
S'NNS'
p924
S'B-NP'
p925
g5
tp926
a(S'rested'
p927
S'rest'
p928
S'VBN'
p929
S'B-VP'
p930
g5
tp931
a(S'while'
p932
S'while'
p933
S'IN'
p934
S'B-SBAR'
p935
g5
tp936
a(S'the'
p937
S'the'
p938
S'DT'
p939
S'B-NP'
p940
g5
tp941
a(S'practitioner'
p942
S'practitioner'
p943
S'NN'
p944
S'I-NP'
p945
g5
tp946
a(S'practiced'
p947
S'practice'
p948
S'VBD'
p949
S'B-VP'
p950
g5
tp951
a(S'LKM'
p952
S'LKM'
p953
S'NN'
p954
S'B-NP'
p955
S'B-protein'
p956
tp957
a(S'while'
p958
S'while'
p959
S'IN'
p960
S'B-SBAR'
p961
g5
tp962
a(S'lightly'
p963
S'lightly'
p964
S'RB'
p965
S'B-ADVP'
p966
g5
tp967
a(S'touching'
p968
S'touch'
p969
S'VBG'
p970
S'B-VP'
p971
g5
tp972
a(S'the'
p973
S'the'
p974
S'DT'
p975
S'B-NP'
p976
g5
tp977
a(S'subject'
p978
S'subject'
p979
S'NN'
p980
S'I-NP'
p981
g5
tp982
a(S'on'
p983
S'on'
p984
S'IN'
p985
S'B-PP'
p986
g5
tp987
a(S'arms'
p988
S'arm'
p989
S'NNS'
p990
S'B-NP'
p991
g5
tp992
a(g51
g51
g51
g5
g5
tp993
a(S'shoulders'
p994
S'shoulder'
p995
S'NNS'
p996
S'B-NP'
p997
g5
tp998
a(g51
g51
g51
g5
g5
tp999
a(S'hands'
p1000
S'hand'
p1001
S'NNS'
p1002
S'B-NP'
p1003
g5
tp1004
a(g51
g51
g51
g5
g5
tp1005
a(S'feet'
p1006
S'foot'
p1007
S'NNS'
p1008
S'B-NP'
p1009
g5
tp1010
a(g51
g51
g51
g5
g5
tp1011
a(S'and'
p1012
S'and'
p1013
S'CC'
p1014
g5
g5
tp1015
a(S'legs'
p1016
S'leg'
p1017
S'NNS'
p1018
S'B-NP'
p1019
g5
tp1020
a(g136
g136
g136
g5
g5
tp1021
a(g851
g851
g22
g5
g5
tp1022
a(S'Post-Intervention'
p1023
S'Post-Intervention'
p1024
S'NNP'
p1025
S'B-NP'
p1026
g5
tp1027
a(S'Rest'
p1028
S'Rest'
p1029
S'NNP'
p1030
S'I-NP'
p1031
g5
tp1032
a(g128
g128
g128
g5
g5
tp1033
a(S'subjects'
p1034
S'subject'
p1035
S'NNS'
p1036
S'B-NP'
p1037
g5
tp1038
a(S'rested'
p1039
S'rest'
p1040
S'VBN'
p1041
S'B-VP'
p1042
g5
tp1043
a(g851
g851
g22
g5
g5
tp1044
a(S'the'
p1045
S'the'
p1046
S'DT'
p1047
S'B-NP'
p1048
g5
tp1049
a(S'practitioner'
p1050
S'practitioner'
p1051
S'NN'
p1052
S'I-NP'
p1053
g5
tp1054
a(S'read'
p1055
S'read'
p1056
S'NN'
p1057
S'I-NP'
p1058
g5
tp1059
a(g136
g136
g136
g5
g5
tp1060
a(g39
g39
g39
g5
g5
tp1061
a(S'To'
p1062
S'To'
p1063
S'TO'
p1064
S'B-VP'
p1065
g5
tp1066
a(S'assess'
p1067
S'assess'
p1068
S'VB'
p1069
S'I-VP'
p1070
g5
tp1071
a(S'blinding'
p1072
S'blinding'
p1073
S'NN'
p1074
S'B-NP'
p1075
g5
tp1076
a(g51
g51
g51
g5
g5
tp1077
a(S'subjects'
p1078
S'subject'
p1079
S'NNS'
p1080
S'B-NP'
p1081
g5
tp1082
a(S'were'
p1083
S'be'
p1084
S'VBD'
p1085
S'B-VP'
p1086
g5
tp1087
a(S'asked'
p1088
S'ask'
p1089
S'VBN'
p1090
S'I-VP'
p1091
g5
tp1092
a(S'after'
p1093
S'after'
p1094
S'IN'
p1095
S'B-PP'
p1096
g5
tp1097
a(S'the'
p1098
S'the'
p1099
S'DT'
p1100
S'B-NP'
p1101
g5
tp1102
a(S'interventions'
p1103
S'intervention'
p1104
S'NNS'
p1105
S'I-NP'
p1106
g5
tp1107
a(S'what'
p1108
S'what'
p1109
S'WP'
p1110
S'B-NP'
p1111
g5
tp1112
a(S'the'
p1113
S'the'
p1114
S'DT'
p1115
S'B-NP'
p1116
g5
tp1117
a(S'practitioner'
p1118
S'practitioner'
p1119
S'NN'
p1120
S'I-NP'
p1121
g5
tp1122
a(S'was'
p1123
S'be'
p1124
S'VBD'
p1125
S'B-VP'
p1126
g5
tp1127
a(S'doing'
p1128
S'do'
p1129
S'VBG'
p1130
S'I-VP'
p1131
g5
tp1132
a(S'during'
p1133
S'during'
p1134
S'IN'
p1135
S'B-PP'
p1136
g5
tp1137
a(S'each'
p1138
S'each'
p1139
S'DT'
p1140
S'B-NP'
p1141
g5
tp1142
a(S'period'
p1143
S'period'
p1144
S'NN'
p1145
S'I-NP'
p1146
g5
tp1147
a(g128
g128
g128
g5
g5
tp1148
a(S'reading'
p1149
S'reading'
p1150
S'NN'
p1151
S'B-NP'
p1152
g5
tp1153
a(g51
g51
g51
g5
g5
tp1154
a(S'touch'
p1155
S'touch'
p1156
S'NN'
p1157
S'B-NP'
p1158
g5
tp1159
a(g51
g51
g51
g5
g5
tp1160
a(S'or'
p1161
S'or'
p1162
S'CC'
p1163
g5
g5
tp1164
a(S'something'
p1165
S'something'
p1166
S'NN'
p1167
S'B-NP'
p1168
g5
tp1169
a(S'else'
p1170
S'else'
p1171
S'RB'
p1172
S'I-NP'
p1173
g5
tp1174
a(g136
g136
g136
g5
g5
tp1175
a(g39
g39
g39
g5
g5
tp1176
a(S'RESULTS'
p1177
S'RESULTS'
p1178
S'NNS'
p1179
S'B-NP'
p1180
g5
tp1181
a(S'Subjects'
p1182
S'Subject'
p1183
S'NNS'
p1184
S'I-NP'
p1185
g5
tp1186
a(g184
g184
S'POS'
p1187
S'B-NP'
p1188
g5
tp1189
a(S'mean'
p1190
S'mean'
p1191
S'JJ'
p1192
S'I-NP'
p1193
g5
tp1194
a(S'age'
p1195
S'age'
p1196
S'NN'
p1197
S'I-NP'
p1198
g5
tp1199
a(S'was'
p1200
S'be'
p1201
S'VBD'
p1202
S'B-VP'
p1203
g5
tp1204
a(S'43.6'
p1205
S'43.6'
p1206
S'CD'
p1207
S'B-NP'
p1208
g5
tp1209
a(S'years'
p1210
S'year'
p1211
S'NNS'
p1212
S'I-NP'
p1213
g5
tp1214
a(g851
g851
g22
g5
g5
tp1215
a(S'all'
p1216
S'all'
p1217
S'DT'
p1218
S'B-NP'
p1219
g5
tp1220
a(S'were'
p1221
S'be'
p1222
S'VBD'
p1223
S'B-VP'
p1224
g5
tp1225
a(S'women.'
p1226
S'women.'
p1227
S'JJ'
p1228
S'B-NP'
p1229
g5
tp1230
a(S'Blinding'
p1231
S'Blinding'
p1232
S'NN'
p1233
S'I-NP'
p1234
g5
tp1235
a(S'was'
p1236
S'be'
p1237
S'VBD'
p1238
S'B-VP'
p1239
g5
tp1240
a(S'maintained'
p1241
S'maintain'
p1242
S'VBN'
p1243
S'I-VP'
p1244
g5
tp1245
a(S'and'
p1246
S'and'
p1247
S'CC'
p1248
g5
g5
tp1249
a(S'the'
p1250
S'the'
p1251
S'DT'
p1252
S'B-NP'
p1253
g5
tp1254
a(S'practitioner'
p1255
S'practitioner'
p1256
S'NN'
p1257
S'I-NP'
p1258
g5
tp1259
a(S'was'
p1260
S'be'
p1261
S'VBD'
p1262
S'B-VP'
p1263
g5
tp1264
a(S'able'
p1265
S'able'
p1266
S'JJ'
p1267
S'B-ADJP'
p1268
g5
tp1269
a(S'to'
p1270
S'to'
p1271
S'TO'
p1272
S'B-VP'
p1273
g5
tp1274
a(S'maintain'
p1275
S'maintain'
p1276
S'VB'
p1277
S'I-VP'
p1278
g5
tp1279
a(S'meditation'
p1280
S'meditation'
p1281
S'NN'
p1282
S'B-NP'
p1283
g5
tp1284
a(S'for'
p1285
S'for'
p1286
S'IN'
p1287
S'B-PP'
p1288
g5
tp1289
a(S'both'
p1290
S'both'
p1291
S'CC'
p1292
S'B-NP'
p1293
g5
tp1294
a(S'tactile'
p1295
S'tactile'
p1296
S'JJ'
p1297
S'I-NP'
p1298
g5
tp1299
a(S'and'
p1300
S'and'
p1301
S'CC'
p1302
S'I-NP'
p1303
g5
tp1304
a(S'non-tactile'
p1305
S'non-tactile'
p1306
S'JJ'
p1307
S'I-NP'
p1308
g5
tp1309
a(S'LKM'
p1310
S'LKM'
p1311
S'NN'
p1312
S'I-NP'
p1313
g5
tp1314
a(S'interventions'
p1315
S'intervention'
p1316
S'NNS'
p1317
S'I-NP'
p1318
g5
tp1319
a(S'as'
p1320
S'as'
p1321
S'IN'
p1322
S'B-SBAR'
p1323
g5
tp1324
a(S'reflected'
p1325
S'reflect'
p1326
S'VBN'
p1327
S'B-VP'
p1328
g5
tp1329
a(S'in'
p1330
S'in'
p1331
S'IN'
p1332
S'B-PP'
p1333
g5
tp1334
a(S'significantly'
p1335
S'significantly'
p1336
S'RB'
p1337
S'B-NP'
p1338
g5
tp1339
a(S'reduced'
p1340
S'reduce'
p1341
S'VBN'
p1342
S'I-NP'
p1343
g5
tp1344
a(S'RR.'
p1345
S'RR.'
p1346
S'NNP'
p1347
S'I-NP'
p1348
g5
tp1349
a(S'Despite'
p1350
S'Despite'
p1351
S'IN'
p1352
S'B-PP'
p1353
g5
tp1354
a(S'blinding'
p1355
S'blinding'
p1356
S'NN'
p1357
S'B-NP'
p1358
g5
tp1359
a(g51
g51
g51
g5
g5
tp1360
a(S'subjects'
p1361
S'subject'
p1362
S'NNS'
p1363
S'B-NP'
p1364
g5
tp1365
a(g184
g184
S'POS'
p1366
S'B-NP'
p1367
g5
tp1368
a(S'VAS'
p1369
S'VAS'
p1370
S'NN'
p1371
S'I-NP'
p1372
g5
tp1373
a(S'scores'
p1374
S'score'
p1375
S'NNS'
p1376
S'I-NP'
p1377
g5
tp1378
a(S'improved'
p1379
S'improve'
p1380
S'VBN'
p1381
S'B-VP'
p1382
g5
tp1383
a(S'from'
p1384
S'from'
p1385
S'IN'
p1386
S'B-PP'
p1387
g5
tp1388
a(S'baseline'
p1389
S'baseline'
p1390
S'NN'
p1391
S'B-NP'
p1392
g5
tp1393
a(S'to'
p1394
S'to'
p1395
S'TO'
p1396
S'B-VP'
p1397
g5
tp1398
a(S'post-intervention'
p1399
S'post-intervention'
p1400
S'VB'
p1401
S'I-VP'
p1402
g5
tp1403
a(S'for'
p1404
S'for'
p1405
S'IN'
p1406
S'B-PP'
p1407
g5
tp1408
a(S'stress'
p1409
S'stress'
p1410
S'NN'
p1411
S'B-NP'
p1412
g5
tp1413
a(g128
g128
g128
g5
g5
tp1414
a(S'5.5'
p1415
S'5.5'
p1416
S'CD'
p1417
S'B-NP'
p1418
g5
tp1419
a(S'vs.'
p1420
S'vs.'
p1421
S'CC'
p1422
S'I-NP'
p1423
g5
tp1424
a(S'2.2'
p1425
S'2.2'
p1426
S'CD'
p1427
S'I-NP'
p1428
g5
tp1429
a(g136
g136
g136
g5
g5
tp1430
a(g51
g51
g51
g5
g5
tp1431
a(S'relaxation'
p1432
S'relaxation'
p1433
S'NN'
p1434
S'B-NP'
p1435
g5
tp1436
a(g128
g128
g128
g5
g5
tp1437
a(S'3.8'
p1438
S'3.8'
p1439
S'CD'
p1440
S'B-NP'
p1441
g5
tp1442
a(S'vs.'
p1443
S'vs.'
p1444
S'CC'
p1445
S'I-NP'
p1446
g5
tp1447
a(S'8.8'
p1448
S'8.8'
p1449
S'CD'
p1450
S'I-NP'
p1451
g5
tp1452
a(g136
g136
g136
g5
g5
tp1453
a(S'and'
p1454
S'and'
p1455
S'CC'
p1456
g5
g5
tp1457
a(S'peacefulness'
p1458
S'peacefulness'
p1459
S'NN'
p1460
S'B-NP'
p1461
g5
tp1462
a(g128
g128
g128
g5
g5
tp1463
a(S'3.8'
p1464
S'3.8'
p1465
S'CD'
p1466
S'B-NP'
p1467
g5
tp1468
a(S'vs.'
p1469
S'vs.'
p1470
S'IN'
p1471
S'B-PP'
p1472
g5
tp1473
a(S'9.0'
p1474
S'9.0'
p1475
S'CD'
p1476
S'B-NP'
p1477
g5
tp1478
a(g51
g51
g51
g5
g5
tp1479
a(S'P'
p1480
g1480
S'NN'
p1481
S'B-NP'
p1482
g5
tp1483
a(S'<'
p1484
g1484
S'SYM'
p1485
S'B-VP'
p1486
g5
tp1487
a(S'0.05'
p1488
S'0.05'
p1489
S'CD'
p1490
S'B-NP'
p1491
g5
tp1492
a(S'for'
p1493
S'for'
p1494
S'IN'
p1495
S'B-PP'
p1496
g5
tp1497
a(S'all'
p1498
S'all'
p1499
S'DT'
p1500
S'B-NP'
p1501
g5
tp1502
a(S'comparisons'
p1503
S'comparison'
p1504
S'NNS'
p1505
S'I-NP'
p1506
g5
tp1507
a(g136
g136
g136
g5
g5
tp1508
a(g39
g39
g39
g5
g5
tp1509
a(S'Subjects'
p1510
S'Subject'
p1511
S'NNPS'
p1512
S'B-NP'
p1513
g5
tp1514
a(S'also'
p1515
S'also'
p1516
S'RB'
p1517
S'B-ADVP'
p1518
g5
tp1519
a(S'had'
p1520
S'have'
p1521
S'VBD'
p1522
S'B-VP'
p1523
g5
tp1524
a(S'significant'
p1525
S'significant'
p1526
S'JJ'
p1527
S'B-NP'
p1528
g5
tp1529
a(S'reductions'
p1530
S'reduction'
p1531
S'NNS'
p1532
S'I-NP'
p1533
g5
tp1534
a(S'in'
p1535
S'in'
p1536
S'IN'
p1537
S'B-PP'
p1538
g5
tp1539
a(S'RR'
p1540
S'RR'
p1541
S'NN'
p1542
S'B-NP'
p1543
g5
tp1544
a(g128
g128
g128
g5
g5
tp1545
a(g1480
g1480
S'NN'
p1546
S'B-NP'
p1547
g5
tp1548
a(g1484
g1484
S'SYM'
p1549
g5
g5
tp1550
a(S'0.0001'
p1551
S'0.0001'
p1552
S'CD'
p1553
S'B-NP'
p1554
g5
tp1555
a(g136
g136
g136
g5
g5
tp1556
a(S'and'
p1557
S'and'
p1558
S'CC'
p1559
g5
g5
tp1560
a(S'improved'
p1561
S'improve'
p1562
S'VBN'
p1563
S'B-NP'
p1564
g5
tp1565
a(S'HRV'
p1566
S'HRV'
p1567
S'NN'
p1568
S'I-NP'
p1569
g5
tp1570
a(g128
g128
g128
g5
g5
tp1571
a(g1480
g1480
S'NN'
p1572
S'B-NP'
p1573
g5
tp1574
a(g1484
g1484
S'SYM'
p1575
g5
g5
tp1576
a(S'0.05'
p1577
S'0.05'
p1578
S'CD'
p1579
S'B-NP'
p1580
g5
tp1581
a(g136
g136
g136
g5
g5
tp1582
a(S'with'
p1583
S'with'
p1584
S'IN'
p1585
S'B-PP'
p1586
g5
tp1587
a(S'both'
p1588
S'both'
p1589
S'CC'
p1590
S'B-NP'
p1591
g5
tp1592
a(S'tactile'
p1593
S'tactile'
p1594
S'JJ'
p1595
S'I-NP'
p1596
g5
tp1597
a(S'and'
p1598
S'and'
p1599
S'CC'
p1600
S'I-NP'
p1601
g5
tp1602
a(S'non-tactile'
p1603
S'non-tactile'
p1604
S'JJ'
p1605
S'I-NP'
p1606
g5
tp1607
a(S'LKM'
p1608
S'LKM'
p1609
S'NN'
p1610
S'I-NP'
p1611
g5
tp1612
a(g39
g39
g39
g5
g5
tp1613
a(S'CONCLUSION'
p1614
S'CONCLUSION'
p1615
S'NN'
p1616
S'B-NP'
p1617
g5
tp1618
a(S'It'
p1619
S'It'
p1620
S'PRP'
p1621
S'B-NP'
p1622
g5
tp1623
a(S'is'
p1624
S'be'
p1625
S'VBZ'
p1626
S'B-VP'
p1627
g5
tp1628
a(S'possible'
p1629
S'possible'
p1630
S'JJ'
p1631
S'B-ADJP'
p1632
g5
tp1633
a(S'to'
p1634
S'to'
p1635
S'TO'
p1636
S'B-VP'
p1637
g5
tp1638
a(S'test'
p1639
S'test'
p1640
S'VB'
p1641
S'I-VP'
p1642
g5
tp1643
a(S'the'
p1644
S'the'
p1645
S'DT'
p1646
S'B-NP'
p1647
g5
tp1648
a(S'effects'
p1649
S'effect'
p1650
S'NNS'
p1651
S'I-NP'
p1652
g5
tp1653
a(S'of'
p1654
S'of'
p1655
S'IN'
p1656
S'B-PP'
p1657
g5
tp1658
a(S'LKM'
p1659
S'LKM'
p1660
S'NN'
p1661
S'B-NP'
p1662
S'B-protein'
p1663
tp1664
a(S'with'
p1665
S'with'
p1666
S'IN'
p1667
S'B-PP'
p1668
g5
tp1669
a(S'tactile'
p1670
S'tactile'
p1671
S'JJ'
p1672
S'B-NP'
p1673
g5
tp1674
a(S'and'
p1675
S'and'
p1676
S'CC'
p1677
S'I-NP'
p1678
g5
tp1679
a(S'non-tactile'
p1680
S'non-tactile'
p1681
S'JJ'
p1682
S'I-NP'
p1683
g5
tp1684
a(S'blinding'
p1685
S'blinding'
p1686
S'NN'
p1687
S'I-NP'
p1688
g5
tp1689
a(S'strategies'
p1690
S'strategy'
p1691
S'NNS'
p1692
S'I-NP'
p1693
g5
tp1694
a(g851
g851
g22
g5
g5
tp1695
a(S'even'
p1696
S'even'
p1697
S'RB'
p1698
S'B-ADVP'
p1699
g5
tp1700
a(S'with'
p1701
S'with'
p1702
S'IN'
p1703
S'B-PP'
p1704
g5
tp1705
a(S'blinding'
p1706
S'blind'
p1707
S'VBG'
p1708
S'B-VP'
p1709
g5
tp1710
a(S'in'
p1711
S'in'
p1712
S'IN'
p1713
S'B-PP'
p1714
g5
tp1715
a(S'this'
p1716
S'this'
p1717
S'DT'
p1718
S'B-NP'
p1719
g5
tp1720
a(S'small'
p1721
S'small'
p1722
S'JJ'
p1723
S'I-NP'
p1724
g5
tp1725
a(S'preliminary'
p1726
S'preliminary'
p1727
S'JJ'
p1728
S'I-NP'
p1729
g5
tp1730
a(S'study'
p1731
S'study'
p1732
S'NN'
p1733
S'I-NP'
p1734
g5
tp1735
a(g51
g51
g51
g5
g5
tp1736
a(S'subjects'
p1737
S'subject'
p1738
S'NNS'
p1739
S'B-NP'
p1740
g5
tp1741
a(S'reported'
p1742
S'report'
p1743
S'VBD'
p1744
S'B-VP'
p1745
g5
tp1746
a(S'significant'
p1747
S'significant'
p1748
S'JJ'
p1749
S'B-NP'
p1750
g5
tp1751
a(S'improvements'
p1752
S'improvement'
p1753
S'NNS'
p1754
S'I-NP'
p1755
g5
tp1756
a(S'in'
p1757
S'in'
p1758
S'IN'
p1759
S'B-PP'
p1760
g5
tp1761
a(S'well-being'
p1762
S'well-being'
p1763
S'NN'
p1764
S'B-NP'
p1765
g5
tp1766
a(S'which'
p1767
S'which'
p1768
S'WDT'
p1769
S'B-NP'
p1770
g5
tp1771
a(S'were'
p1772
S'be'
p1773
S'VBD'
p1774
S'B-VP'
p1775
g5
tp1776
a(S'reflected'
p1777
S'reflect'
p1778
S'VBN'
p1779
S'I-VP'
p1780
g5
tp1781
a(S'in'
p1782
S'in'
p1783
S'IN'
p1784
S'B-PP'
p1785
g5
tp1786
a(S'objective'
p1787
S'objective'
p1788
S'JJ'
p1789
S'B-NP'
p1790
g5
tp1791
a(S'physiologic'
p1792
S'physiologic'
p1793
S'JJ'
p1794
S'I-NP'
p1795
g5
tp1796
a(S'measures'
p1797
S'measure'
p1798
S'NNS'
p1799
S'I-NP'
p1800
g5
tp1801
a(S'of'
p1802
S'of'
p1803
S'IN'
p1804
S'B-PP'
p1805
g5
tp1806
a(S'autonomic'
p1807
S'autonomic'
p1808
S'JJ'
p1809
S'B-NP'
p1810
g5
tp1811
a(S'activity.'
p1812
S'activity.'
p1813
S'NN'
p1814
S'I-NP'
p1815
g5
tp1816
a(S'Extending'
p1817
S'Extend'
p1818
S'VBG'
p1819
S'B-VP'
p1820
g5
tp1821
a(S'compassion'
p1822
S'compassion'
p1823
S'NN'
p1824
S'B-NP'
p1825
g5
tp1826
a(S'is'
p1827
S'be'
p1828
S'VBZ'
p1829
S'B-VP'
p1830
g5
tp1831
a(S'not'
p1832
S'not'
p1833
S'RB'
p1834
S'B-CONJP'
p1835
g5
tp1836
a(S'only'
p1837
S'only'
p1838
S'RB'
p1839
S'I-CONJP'
p1840
g5
tp1841
a(S'good'
p1842
S'good'
p1843
S'JJ'
p1844
S'B-NP'
p1845
g5
tp1846
a(S'care'
p1847
S'care'
p1848
S'NN'
p1849
S'I-NP'
p1850
g5
tp1851
a(g851
g851
g22
g5
g5
tp1852
a(S'it'
p1853
S'it'
p1854
S'PRP'
p1855
S'B-NP'
p1856
g5
tp1857
a(S'may'
p1858
S'may'
p1859
S'MD'
p1860
S'B-VP'
p1861
g5
tp1862
a(S'also'
p1863
S'also'
p1864
S'RB'
p1865
S'I-VP'
p1866
g5
tp1867
a(S'be'
p1868
S'be'
p1869
S'VB'
p1870
S'I-VP'
p1871
g5
tp1872
a(S'good'
p1873
S'good'
p1874
S'JJ'
p1875
S'B-NP'
p1876
g5
tp1877
a(S'medicine'
p1878
S'medicine'
p1879
S'NN'
p1880
S'I-NP'
p1881
g5
tp1882
a(g39
g39
g39
g5
g5
tp1883
a(S'TRIAL'
p1884
S'TRIAL'
p1885
S'NNP'
p1886
S'B-NP'
p1887
g5
tp1888
a(S'REGISTRATION'
p1889
S'REGISTRATION'
p1890
S'NNP'
p1891
S'I-NP'
p1892
g5
tp1893
a(S'NUMBER'
p1894
S'NUMBER'
p1895
S'NNP'
p1896
S'I-NP'
p1897
g5
tp1898
a(S'US'
p1899
S'US'
p1900
S'NNP'
p1901
S'I-NP'
p1902
g5
tp1903
a(S'National'
p1904
S'National'
p1905
S'NNP'
p1906
S'I-NP'
p1907
g5
tp1908
a(S'ClinicalTrials.gov'
p1909
S'ClinicalTrials.gov'
p1910
S'NNP'
p1911
S'I-NP'
p1912
g5
tp1913
a(S'registration'
p1914
S'registration'
p1915
S'NN'
p1916
S'I-NP'
p1917
g5
tp1918
a(S'number'
p1919
S'number'
p1920
S'NN'
p1921
S'I-NP'
p1922
g5
tp1923
a(g51
g51
g51
g5
g5
tp1924
a(S'NCT01428674'
p1925
S'NCT01428674'
p1926
S'NN'
p1927
S'B-NP'
p1928
g5
tp1929
a(g39
g39
g39
g5
g5
tp1930
a.