(lp0
(S'Effect'
p1
S'Effect'
p2
S'NN'
p3
S'B-NP'
p4
S'O'
p5
tp6
a(S'of'
p7
S'of'
p8
S'IN'
p9
S'B-PP'
p10
g5
tp11
a(S'unfractionated'
p12
S'unfractionated'
p13
S'JJ'
p14
S'B-NP'
p15
g5
tp16
a(S'and'
p17
S'and'
p18
S'CC'
p19
S'I-NP'
p20
g5
tp21
a(S'low-molecular-weight'
p22
S'low-molecular-weight'
p23
S'JJ'
p24
S'I-NP'
p25
S'B-protein'
p26
tp27
a(S'heparin'
p28
S'heparin'
p29
S'NN'
p30
S'I-NP'
p31
S'I-protein'
p32
tp33
a(S'on'
p34
S'on'
p35
S'IN'
p36
S'B-PP'
p37
g5
tp38
a(S'OPG'
p39
S'OPG'
p40
S'NN'
p41
S'B-NP'
p42
g5
tp43
a(S','
p44
g44
g44
g5
g5
tp45
a(S'sRANKL'
p46
S'sRANKL'
p47
S'NN'
p48
S'B-NP'
p49
g5
tp50
a(g44
g44
g44
g5
g5
tp51
a(S'and'
p52
S'and'
p53
S'CC'
p54
g5
g5
tp55
a(S'von'
p56
S'von'
p57
S'NN'
p58
S'B-NP'
p59
S'B-protein'
p60
tp61
a(S'Willebrand'
p62
S'Willebrand'
p63
S'NN'
p64
S'I-NP'
p65
S'I-protein'
p66
tp67
a(S'factor'
p68
S'factor'
p69
S'NN'
p70
S'I-NP'
p71
S'I-protein'
p72
tp73
a(S'concentrations'
p74
S'concentration'
p75
S'NNS'
p76
S'I-NP'
p77
g5
tp78
a(S'during'
p79
S'during'
p80
S'IN'
p81
S'B-PP'
p82
g5
tp83
a(S'hemodialysis'
p84
S'hemodialysis'
p85
S'NN'
p86
S'B-NP'
p87
g5
tp88
a(S'.'
p89
g89
g89
g5
g5
tp90
a(S'BACKGROUND'
p91
S'BACKGROUND'
p92
S'NN'
p93
S'B-NP'
p94
g5
tp95
a(S'Endothelial'
p96
S'Endothelial'
p97
S'JJ'
p98
S'I-NP'
p99
g5
tp100
a(S'dysfunction'
p101
S'dysfunction'
p102
S'NN'
p103
S'I-NP'
p104
g5
tp105
a(S'marker'
p106
S'marker'
p107
S'NN'
p108
S'I-NP'
p109
g5
tp110
a(g44
g44
g44
g5
g5
tp111
a(S'von'
p112
S'von'
p113
S'NN'
p114
S'B-NP'
p115
S'B-protein'
p116
tp117
a(S'Willebrand'
p118
S'Willebrand'
p119
S'NN'
p120
S'I-NP'
p121
S'I-protein'
p122
tp123
a(S'factor'
p124
S'factor'
p125
S'NN'
p126
S'I-NP'
p127
S'I-protein'
p128
tp129
a(S'('
p130
g130
g130
g5
g5
tp131
a(S'vWF'
p132
S'vWF'
p133
S'NN'
p134
S'B-NP'
p135
S'B-protein'
p136
tp137
a(S')'
p138
g138
g138
g5
g5
tp139
a(g44
g44
g44
g5
g5
tp140
a(S'is'
p141
S'be'
p142
S'VBZ'
p143
S'B-VP'
p144
g5
tp145
a(S'physically'
p146
S'physically'
p147
S'RB'
p148
S'I-VP'
p149
g5
tp150
a(S'connected'
p151
S'connect'
p152
S'VBN'
p153
S'I-VP'
p154
g5
tp155
a(S'with'
p156
S'with'
p157
S'IN'
p158
S'B-PP'
p159
g5
tp160
a(S'osteoprotegerin'
p161
S'osteoprotegerin'
p162
S'NN'
p163
S'B-NP'
p164
S'B-protein'
p165
tp166
a(g130
g130
g130
g5
g5
tp167
a(S'OPG'
p168
S'OPG'
p169
S'NN'
p170
S'B-NP'
p171
S'B-protein'
p172
tp173
a(g138
g138
g138
g5
g5
tp174
a(S'in'
p175
S'in'
p176
S'IN'
p177
S'B-PP'
p178
g5
tp179
a(S'the'
p180
S'the'
p181
S'DT'
p182
S'B-NP'
p183
g5
tp184
a(S'Weibel-Palade'
p185
S'Weibel-Palade'
p186
S'NNP'
p187
S'I-NP'
p188
g5
tp189
a(S'bodies.'
p190
S'bodies.'
p191
S'NN'
p192
S'I-NP'
p193
g5
tp194
a(S'We'
p195
S'We'
p196
S'PRP'
p197
S'B-NP'
p198
g5
tp199
a(S'aimed'
p200
S'aim'
p201
S'VBD'
p202
S'B-VP'
p203
g5
tp204
a(S'to'
p205
S'to'
p206
S'TO'
p207
S'I-VP'
p208
g5
tp209
a(S'compare'
p210
S'compare'
p211
S'VB'
p212
S'I-VP'
p213
g5
tp214
a(S'the'
p215
S'the'
p216
S'DT'
p217
S'B-NP'
p218
g5
tp219
a(S'effect'
p220
S'effect'
p221
S'NN'
p222
S'I-NP'
p223
g5
tp224
a(S'of'
p225
S'of'
p226
S'IN'
p227
S'B-PP'
p228
g5
tp229
a(S'unfractionated'
p230
S'unfractionated'
p231
S'JJ'
p232
S'B-NP'
p233
g5
tp234
a(g130
g130
g130
g5
g5
tp235
a(S'UFH'
p236
S'UFH'
p237
S'NN'
p238
S'B-NP'
p239
S'B-protein'
p240
tp241
a(g138
g138
g138
g5
g5
tp242
a(S'and'
p243
S'and'
p244
S'CC'
p245
g5
g5
tp246
a(S'low-molecular-weight'
p247
S'low-molecular-weight'
p248
S'JJ'
p249
S'B-NP'
p250
S'B-protein'
p251
tp252
a(g130
g130
g130
g5
S'I-protein'
p253
tp254
a(S'LMWH'
p255
S'LMWH'
p256
S'NN'
p257
S'B-NP'
p258
S'I-protein'
p259
tp260
a(S'enoxaparin'
p261
S'enoxaparin'
p262
S'NN'
p263
S'I-NP'
p264
S'I-protein'
p265
tp266
a(g138
g138
g138
g5
S'I-protein'
p267
tp268
a(S'heparin'
p269
S'heparin'
p270
S'NN'
p271
S'B-NP'
p272
S'I-protein'
p273
tp274
a(S'used'
p275
S'use'
p276
S'VBN'
p277
S'B-VP'
p278
g5
tp279
a(S'as'
p280
S'as'
p281
S'IN'
p282
S'B-PP'
p283
g5
tp284
a(S'anticoagulants'
p285
S'anticoagulant'
p286
S'NNS'
p287
S'B-NP'
p288
g5
tp289
a(S'during'
p290
S'during'
p291
S'IN'
p292
S'B-PP'
p293
g5
tp294
a(S'hemodialysis'
p295
S'hemodialysis'
p296
S'NN'
p297
S'B-NP'
p298
g5
tp299
a(g130
g130
g130
g5
g5
tp300
a(S'HD'
p301
S'HD'
p302
S'NN'
p303
S'B-NP'
p304
g5
tp305
a(g138
g138
g138
g5
g5
tp306
a(S'on'
p307
S'on'
p308
S'IN'
p309
S'B-PP'
p310
g5
tp311
a(S'plasma'
p312
S'plasma'
p313
S'NN'
p314
S'B-NP'
p315
g5
tp316
a(S'levels'
p317
S'level'
p318
S'NNS'
p319
S'I-NP'
p320
g5
tp321
a(S'and'
p322
S'and'
p323
S'CC'
p324
g5
g5
tp325
a(S'relationships'
p326
S'relationship'
p327
S'NNS'
p328
S'B-NP'
p329
g5
tp330
a(S'of'
p331
S'of'
p332
S'IN'
p333
S'B-PP'
p334
g5
tp335
a(S'OPG'
p336
S'OPG'
p337
S'NN'
p338
S'B-NP'
p339
S'B-protein'
p340
tp341
a(g44
g44
g44
g5
g5
tp342
a(S'soluble'
p343
S'soluble'
p344
S'JJ'
p345
S'B-NP'
p346
g5
tp347
a(S'receptor'
p348
S'receptor'
p349
S'NN'
p350
S'I-NP'
p351
g5
tp352
a(S'activator'
p353
S'activator'
p354
S'NN'
p355
S'I-NP'
p356
g5
tp357
a(S'of'
p358
S'of'
p359
S'IN'
p360
S'B-PP'
p361
g5
tp362
a(S'nuclear'
p363
S'nuclear'
p364
S'JJ'
p365
S'B-NP'
p366
S'B-protein'
p367
tp368
a(S'factor'
p369
S'factor'
p370
S'NN'
p371
S'I-NP'
p372
S'I-protein'
p373
tp374
a(S'\xce\xbaB'
p375
S'\xce\xbaB'
p376
S'NN'
p377
S'I-NP'
p378
S'I-protein'
p379
tp380
a(S'Ligand'
p381
S'Ligand'
p382
S'NN'
p383
S'I-NP'
p384
S'I-protein'
p385
tp386
a(g130
g130
g130
g5
g5
tp387
a(S'sRANKL'
p388
S'sRANKL'
p389
S'NN'
p390
S'B-NP'
p391
g5
tp392
a(g138
g138
g138
g5
g5
tp393
a(g44
g44
g44
g5
g5
tp394
a(S'and'
p395
S'and'
p396
S'CC'
p397
g5
g5
tp398
a(S'vWF'
p399
S'vWF'
p400
S'NN'
p401
S'B-NP'
p402
S'B-protein'
p403
tp404
a(g89
g89
g89
g5
g5
tp405
a(S'METHODS'
p406
S'METHODS'
p407
S'NNS'
p408
S'B-NP'
p409
g5
tp410
a(S'Totally'
p411
S'Totally'
p412
S'RB'
p413
S'B-NP'
p414
g5
tp415
a(S'21'
p416
S'21'
p417
S'CD'
p418
S'I-NP'
p419
g5
tp420
a(S'clinically'
p421
S'clinically'
p422
S'RB'
p423
S'I-NP'
p424
g5
tp425
a(S'stable'
p426
S'stable'
p427
S'JJ'
p428
S'I-NP'
p429
g5
tp430
a(S'chronic'
p431
S'chronic'
p432
S'JJ'
p433
S'I-NP'
p434
g5
tp435
a(S'HD'
p436
S'HD'
p437
S'NN'
p438
S'I-NP'
p439
g5
tp440
a(S'patients'
p441
S'patient'
p442
S'NNS'
p443
S'I-NP'
p444
g5
tp445
a(S'were'
p446
S'be'
p447
S'VBD'
p448
S'B-VP'
p449
g5
tp450
a(S'randomly'
p451
S'randomly'
p452
S'RB'
p453
S'I-VP'
p454
g5
tp455
a(S'assigned'
p456
S'assign'
p457
S'VBN'
p458
S'I-VP'
p459
g5
tp460
a(S'to'
p461
S'to'
p462
S'TO'
p463
S'B-PP'
p464
g5
tp465
a(S'either'
p466
S'either'
p467
S'CC'
p468
g5
g5
tp469
a(S'enoxaparin'
p470
S'enoxaparin'
p471
S'NN'
p472
S'B-NP'
p473
g5
tp474
a(g130
g130
g130
g5
g5
tp475
a(S'n'
p476
g476
S'NN'
p477
S'B-NP'
p478
g5
tp479
a(S'='
p480
g480
S'SYM'
p481
S'B-VP'
p482
g5
tp483
a(S'10'
p484
S'10'
p485
S'CD'
p486
S'B-NP'
p487
g5
tp488
a(g138
g138
g138
g5
g5
tp489
a(S'or'
p490
S'or'
p491
S'CC'
p492
g5
g5
tp493
a(S'UFH'
p494
S'UFH'
p495
S'NN'
p496
S'B-NP'
p497
g5
tp498
a(g130
g130
g130
g5
g5
tp499
a(g476
g476
S'NN'
p500
S'B-NP'
p501
g5
tp502
a(g480
g480
S'SYM'
p503
S'B-VP'
p504
g5
tp505
a(S'11'
p506
S'11'
p507
S'CD'
p508
S'B-NP'
p509
g5
tp510
a(g138
g138
g138
g5
g5
tp511
a(S'anticoagulation'
p512
S'anticoagulation'
p513
S'NN'
p514
S'B-NP'
p515
g5
tp516
a(S'and'
p517
S'and'
p518
S'CC'
p519
g5
g5
tp520
a(S'followed'
p521
S'follow'
p522
S'VBD'
p523
S'B-VP'
p524
g5
tp525
a(S'prospectively'
p526
S'prospectively'
p527
S'RB'
p528
S'B-ADVP'
p529
g5
tp530
a(S'for'
p531
S'for'
p532
S'IN'
p533
S'B-PP'
p534
g5
tp535
a(S'12'
p536
S'12'
p537
S'CD'
p538
S'B-NP'
p539
g5
tp540
a(S'weeks'
p541
S'week'
p542
S'NNS'
p543
S'I-NP'
p544
g5
tp545
a(S'before'
p546
S'before'
p547
S'IN'
p548
S'B-PP'
p549
g5
tp550
a(S'crossing'
p551
S'cross'
p552
S'VBG'
p553
S'B-VP'
p554
g5
tp555
a(S'over'
p556
S'over'
p557
S'RP'
p558
S'B-PRT'
p559
g5
tp560
a(S'to'
p561
S'to'
p562
S'TO'
p563
S'B-PP'
p564
g5
tp565
a(S'the'
p566
S'the'
p567
S'DT'
p568
S'B-NP'
p569
g5
tp570
a(S'alternate'
p571
S'alternate'
p572
S'JJ'
p573
S'I-NP'
p574
g5
tp575
a(S'therapy'
p576
S'therapy'
p577
S'NN'
p578
S'I-NP'
p579
g5
tp580
a(S'for'
p581
S'for'
p582
S'IN'
p583
S'B-PP'
p584
g5
tp585
a(S'further'
p586
S'far'
p587
S'JJR'
p588
S'B-NP'
p589
g5
tp590
a(S'12'
p591
S'12'
p592
S'CD'
p593
S'I-NP'
p594
g5
tp595
a(S'weeks.'
p596
S'weeks.'
p597
S'NNS'
p598
S'I-NP'
p599
g5
tp600
a(S'The'
p601
S'The'
p602
S'DT'
p603
S'B-NP'
p604
g5
tp605
a(S'OPG'
p606
S'OPG'
p607
S'NN'
p608
S'I-NP'
p609
S'B-protein'
p610
tp611
a(g44
g44
g44
g5
g5
tp612
a(S'RANKL'
p613
S'RANKL'
p614
S'NN'
p615
S'B-NP'
p616
S'B-protein'
p617
tp618
a(g44
g44
g44
g5
g5
tp619
a(S'and'
p620
S'and'
p621
S'CC'
p622
g5
g5
tp623
a(S'vWF'
p624
S'vWF'
p625
S'NN'
p626
S'B-NP'
p627
S'B-protein'
p628
tp629
a(S'levels'
p630
S'level'
p631
S'NNS'
p632
S'I-NP'
p633
g5
tp634
a(S'were'
p635
S'be'
p636
S'VBD'
p637
S'B-VP'
p638
g5
tp639
a(S'measured'
p640
S'measure'
p641
S'VBN'
p642
S'I-VP'
p643
g5
tp644
a(S'at'
p645
S'at'
p646
S'IN'
p647
S'B-PP'
p648
g5
tp649
a(S'T0'
p650
S'T0'
p651
S'NN'
p652
S'B-NP'
p653
S'B-DNA'
p654
tp655
a(g44
g44
g44
g5
g5
tp656
a(S'T10'
p657
S'T10'
p658
S'NN'
p659
S'B-NP'
p660
S'B-protein'
p661
tp662
a(g44
g44
g44
g5
g5
tp663
a(S'and'
p664
S'and'
p665
S'CC'
p666
g5
g5
tp667
a(S'T180'
p668
S'T180'
p669
S'NN'
p670
S'B-NP'
p671
g5
tp672
a(S'of'
p673
S'of'
p674
S'IN'
p675
S'B-PP'
p676
g5
tp677
a(S'HD'
p678
S'HD'
p679
S'NN'
p680
S'B-NP'
p681
g5
tp682
a(S'session'
p683
S'session'
p684
S'NN'
p685
S'I-NP'
p686
g5
tp687
a(S'after'
p688
S'after'
p689
S'IN'
p690
S'B-SBAR'
p691
g5
tp692
a(S'each'
p693
S'each'
p694
S'DT'
p695
S'B-NP'
p696
g5
tp697
a(S'period'
p698
S'period'
p699
S'NN'
p700
S'I-NP'
p701
g5
tp702
a(S'of'
p703
S'of'
p704
S'IN'
p705
S'B-PP'
p706
g5
tp707
a(S'evaluation'
p708
S'evaluation'
p709
S'NN'
p710
S'B-NP'
p711
g5
tp712
a(g89
g89
g89
g5
g5
tp713
a(S'RESULTS'
p714
S'RESULTS'
p715
S'NNS'
p716
S'B-NP'
p717
g5
tp718
a(S'The'
p719
S'The'
p720
S'DT'
p721
S'B-NP'
p722
g5
tp723
a(S'baseline'
p724
S'baseline'
p725
S'NN'
p726
S'I-NP'
p727
g5
tp728
a(S'sRANKL'
p729
S'sRANKL'
p730
S'NN'
p731
S'I-NP'
p732
g5
tp733
a(S'level'
p734
S'level'
p735
S'NN'
p736
S'I-NP'
p737
g5
tp738
a(S'was'
p739
S'be'
p740
S'VBD'
p741
S'B-VP'
p742
g5
tp743
a(S'higher'
p744
S'high'
p745
S'JJR'
p746
S'B-ADJP'
p747
g5
tp748
a(S'under'
p749
S'under'
p750
S'IN'
p751
S'B-PP'
p752
g5
tp753
a(S'UFH'
p754
S'UFH'
p755
S'NNP'
p756
S'B-NP'
p757
g5
tp758
a(S'treatment.'
p759
S'treatment.'
p760
S'VB'
p761
S'B-VP'
p762
g5
tp763
a(S'Its'
p764
S'Its'
p765
S'PRP$'
p766
S'B-NP'
p767
g5
tp768
a(S'over-HD'
p769
S'over-HD'
p770
S'NN'
p771
S'I-NP'
p772
g5
tp773
a(S'level'
p774
S'level'
p775
S'NN'
p776
S'I-NP'
p777
g5
tp778
a(S'does'
p779
S'do'
p780
S'VBZ'
p781
S'B-VP'
p782
g5
tp783
a(S'not'
p784
S'not'
p785
S'RB'
p786
S'I-VP'
p787
g5
tp788
a(S'behave'
p789
S'behave'
p790
S'VB'
p791
S'I-VP'
p792
g5
tp793
a(S'significantly'
p794
S'significantly'
p795
S'RB'
p796
S'B-ADJP'
p797
g5
tp798
a(S'different'
p799
S'different'
p800
S'JJ'
p801
S'I-ADJP'
p802
g5
tp803
a(S'under'
p804
S'under'
p805
S'IN'
p806
S'B-PP'
p807
g5
tp808
a(S'enoxaparin'
p809
S'enoxaparin'
p810
S'NN'
p811
S'B-NP'
p812
g5
tp813
a(S'and'
p814
S'and'
p815
S'CC'
p816
g5
g5
tp817
a(S'UFH'
p818
S'UFH'
p819
S'NN'
p820
S'B-NP'
p821
g5
tp822
a(S'treatment.'
p823
S'treatment.'
p824
S'NN'
p825
S'I-NP'
p826
g5
tp827
a(S'Plasma'
p828
S'Plasma'
p829
S'NN'
p830
S'I-NP'
p831
g5
tp832
a(S'OPG'
p833
S'OPG'
p834
S'NN'
p835
S'I-NP'
p836
g5
tp837
a(S'levels'
p838
S'level'
p839
S'NNS'
p840
S'I-NP'
p841
g5
tp842
a(S'expressly'
p843
S'expressly'
p844
S'RB'
p845
S'B-ADVP'
p846
g5
tp847
a(S'changed'
p848
S'change'
p849
S'VBD'
p850
S'B-VP'
p851
g5
tp852
a(S'during'
p853
S'during'
p854
S'IN'
p855
S'B-PP'
p856
g5
tp857
a(S'both'
p858
S'both'
p859
S'CC'
p860
g5
g5
tp861
a(S'enoxaparin'
p862
S'enoxaparin'
p863
S'NN'
p864
S'B-NP'
p865
g5
tp866
a(g130
g130
g130
g5
g5
tp867
a(S'\xcf\x87'
p868
S'\xcf\x87'
p869
S'NN'
p870
S'B-NP'
p871
g5
tp872
a(g130
g130
g130
S'B-LST'
p873
g5
tp874
a(S'2'
p875
g875
S'LS'
p876
S'I-LST'
p877
g5
tp878
a(g138
g138
g138
g5
g5
tp879
a(S'analysis'
p880
S'analysis'
p881
S'NN'
p882
S'B-NP'
p883
g5
tp884
a(S'of'
p885
S'of'
p886
S'IN'
p887
S'B-PP'
p888
g5
tp889
a(S'variance'
p890
S'variance'
p891
S'NN'
p892
S'B-NP'
p893
g5
tp894
a(S'['
p895
g895
g130
g5
g5
tp896
a(S'ANOVA'
p897
S'ANOVA'
p898
S'NN'
p899
S'B-NP'
p900
g5
tp901
a(S']'
p902
g902
g138
g5
g5
tp903
a(g480
g480
S'SYM'
p904
S'B-VP'
p905
g5
tp906
a(S'31.13'
p907
S'31.13'
p908
S'CD'
p909
S'B-NP'
p910
g5
tp911
a(g44
g44
g44
g5
g5
tp912
a(S'P'
p913
g913
S'NN'
p914
S'B-NP'
p915
g5
tp916
a(S'<'
p917
g917
S'SYM'
p918
S'B-NP'
p919
g5
tp920
a(S'.016'
p921
S'.016'
p922
S'CD'
p923
S'I-NP'
p924
g5
tp925
a(g138
g138
g138
g5
g5
tp926
a(S'and'
p927
S'and'
p928
S'CC'
p929
g5
g5
tp930
a(S'UFH'
p931
S'UFH'
p932
S'NN'
p933
S'B-NP'
p934
S'B-protein'
p935
tp936
a(g130
g130
g130
g5
S'I-protein'
p937
tp938
a(S'\xcf\x87'
p939
S'\xcf\x87'
p940
S'NN'
p941
S'B-NP'
p942
S'I-protein'
p943
tp944
a(g130
g130
g130
S'B-LST'
p945
S'I-protein'
p946
tp947
a(g875
g875
S'LS'
p948
S'I-LST'
p949
S'I-protein'
p950
tp951
a(g138
g138
g138
g5
g5
tp952
a(S'ANOVA'
p953
S'ANOVA'
p954
S'NN'
p955
S'B-NP'
p956
g5
tp957
a(g480
g480
S'SYM'
p958
S'B-VP'
p959
g5
tp960
a(S'8.26'
p961
S'8.26'
p962
S'CD'
p963
S'B-NP'
p964
g5
tp965
a(g44
g44
g44
g5
g5
tp966
a(g913
g913
S'NN'
p967
S'B-NP'
p968
g5
tp969
a(g480
g480
S'SYM'
p970
S'B-VP'
p971
g5
tp972
a(S'.016'
p973
S'.016'
p974
S'CD'
p975
S'B-NP'
p976
g5
tp977
a(g138
g138
g138
g5
g5
tp978
a(S'anticoagulation'
p979
S'anticoagulation'
p980
S'NN'
p981
S'B-NP'
p982
g5
tp983
a(g44
g44
g44
g5
g5
tp984
a(S'and'
p985
S'and'
p986
S'CC'
p987
g5
g5
tp988
a(S'its'
p989
S'its'
p990
S'PRP$'
p991
S'B-NP'
p992
g5
tp993
a(S'increment'
p994
S'increment'
p995
S'NN'
p996
S'I-NP'
p997
g5
tp998
a(S'at'
p999
S'at'
p1000
S'IN'
p1001
S'B-PP'
p1002
g5
tp1003
a(S'T10'
p1004
S'T10'
p1005
S'NN'
p1006
S'B-NP'
p1007
S'B-protein'
p1008
tp1009
a(S'and'
p1010
S'and'
p1011
S'CC'
p1012
S'I-NP'
p1013
g5
tp1014
a(S'T180'
p1015
S'T180'
p1016
S'NN'
p1017
S'I-NP'
p1018
S'B-protein'
p1019
tp1020
a(S'was'
p1021
S'be'
p1022
S'VBD'
p1023
S'B-VP'
p1024
g5
tp1025
a(S'significantly'
p1026
S'significantly'
p1027
S'RB'
p1028
S'B-ADJP'
p1029
g5
tp1030
a(S'different'
p1031
S'different'
p1032
S'JJ'
p1033
S'I-ADJP'
p1034
g5
tp1035
a(S'between'
p1036
S'between'
p1037
S'IN'
p1038
S'B-PP'
p1039
g5
tp1040
a(S'both'
p1041
S'both'
p1042
S'CC'
p1043
g5
g5
tp1044
a(S'the'
p1045
S'the'
p1046
S'DT'
p1047
S'B-NP'
p1048
g5
tp1049
a(S'heparins.'
p1050
S'heparins.'
p1051
S'NN'
p1052
S'I-NP'
p1053
g5
tp1054
a(S'The'
p1055
S'The'
p1056
S'DT'
p1057
S'B-NP'
p1058
g5
tp1059
a(S'main'
p1060
S'main'
p1061
S'JJ'
p1062
S'I-NP'
p1063
g5
tp1064
a(S'negative'
p1065
S'negative'
p1066
S'JJ'
p1067
S'I-NP'
p1068
g5
tp1069
a(S'predictor'
p1070
S'predictor'
p1071
S'NN'
p1072
S'I-NP'
p1073
g5
tp1074
a(S'of'
p1075
S'of'
p1076
S'IN'
p1077
S'B-PP'
p1078
g5
tp1079
a(S'OPG'
p1080
S'OPG'
p1081
S'NN'
p1082
S'B-NP'
p1083
g5
tp1084
a(S'concentration'
p1085
S'concentration'
p1086
S'NN'
p1087
S'I-NP'
p1088
g5
tp1089
a(S'was'
p1090
S'be'
p1091
S'VBD'
p1092
S'B-VP'
p1093
g5
tp1094
a(S'the'
p1095
S'the'
p1096
S'DT'
p1097
S'B-NP'
p1098
g5
tp1099
a(S'total'
p1100
S'total'
p1101
S'JJ'
p1102
S'I-NP'
p1103
g5
tp1104
a(S'cholesterol'
p1105
S'cholesterol'
p1106
S'NN'
p1107
S'I-NP'
p1108
g5
tp1109
a(S'level'
p1110
S'level'
p1111
S'NN'
p1112
S'I-NP'
p1113
g5
tp1114
a(g130
g130
g130
g5
g5
tp1115
a(S'\xce\xb2'
p1116
S'\xce\xb2'
p1117
S'NN'
p1118
S'B-NP'
p1119
g5
tp1120
a(g480
g480
S'SYM'
p1121
S'B-VP'
p1122
g5
tp1123
a(S'-.51'
p1124
S'-.51'
p1125
S'CD'
p1126
S'B-NP'
p1127
g5
tp1128
a(g44
g44
g44
g5
g5
tp1129
a(g913
g913
S'NN'
p1130
S'B-NP'
p1131
g5
tp1132
a(g480
g480
S'SYM'
p1133
S'B-VP'
p1134
g5
tp1135
a(S'.025'
p1136
S'.025'
p1137
S'CD'
p1138
S'B-NP'
p1139
g5
tp1140
a(g138
g138
g138
g5
g5
tp1141
a(g89
g89
g89
g5
g5
tp1142
a(S'von'
p1143
S'von'
p1144
S'NN'
p1145
S'B-NP'
p1146
S'B-protein'
p1147
tp1148
a(S'Willebrand'
p1149
S'Willebrand'
p1150
S'NN'
p1151
S'I-NP'
p1152
S'I-protein'
p1153
tp1154
a(S'factor'
p1155
S'factor'
p1156
S'NN'
p1157
S'I-NP'
p1158
S'I-protein'
p1159
tp1160
a(S'concentration'
p1161
S'concentration'
p1162
S'NN'
p1163
S'I-NP'
p1164
g5
tp1165
a(S'remained'
p1166
S'remain'
p1167
S'VBD'
p1168
S'B-VP'
p1169
g5
tp1170
a(S'stable'
p1171
S'stable'
p1172
S'JJ'
p1173
S'B-ADJP'
p1174
g5
tp1175
a(S'during'
p1176
S'during'
p1177
S'IN'
p1178
S'B-PP'
p1179
g5
tp1180
a(S'UFH'
p1181
S'UFH'
p1182
S'NN'
p1183
S'B-NP'
p1184
g5
tp1185
a(S'anticoagulation'
p1186
S'anticoagulation'
p1187
S'NN'
p1188
S'I-NP'
p1189
g5
tp1190
a(g44
g44
g44
g5
g5
tp1191
a(S'whereas'
p1192
S'whereas'
p1193
S'IN'
p1194
g5
g5
tp1195
a(S'constant'
p1196
S'constant'
p1197
S'NN'
p1198
S'B-NP'
p1199
g5
tp1200
a(g44
g44
g44
g5
g5
tp1201
a(S'no'
p1202
S'no'
p1203
S'DT'
p1204
S'B-NP'
p1205
g5
tp1206
a(S'significant'
p1207
S'significant'
p1208
S'JJ'
p1209
S'I-NP'
p1210
g5
tp1211
a(S'increments'
p1212
S'increment'
p1213
S'NNS'
p1214
S'I-NP'
p1215
g5
tp1216
a(S'were'
p1217
S'be'
p1218
S'VBD'
p1219
S'B-VP'
p1220
g5
tp1221
a(S'noticed'
p1222
S'notice'
p1223
S'VBN'
p1224
S'I-VP'
p1225
g5
tp1226
a(g44
g44
g44
g5
g5
tp1227
a(S'under'
p1228
S'under'
p1229
S'IN'
p1230
S'B-PP'
p1231
g5
tp1232
a(S'enoxaparin'
p1233
S'enoxaparin'
p1234
S'NN'
p1235
S'B-NP'
p1236
g5
tp1237
a(S'treatment.'
p1238
S'treatment.'
p1239
S'NN'
p1240
S'I-NP'
p1241
g5
tp1242
a(S'After'
p1243
S'After'
p1244
S'IN'
p1245
S'B-PP'
p1246
g5
tp1247
a(S'10'
p1248
S'10'
p1249
S'CD'
p1250
S'B-NP'
p1251
g5
tp1252
a(S'minutes'
p1253
S'minute'
p1254
S'NNS'
p1255
S'I-NP'
p1256
g5
tp1257
a(S'of'
p1258
S'of'
p1259
S'IN'
p1260
S'B-PP'
p1261
g5
tp1262
a(S'HD'
p1263
S'HD'
p1264
S'NN'
p1265
S'B-NP'
p1266
g5
tp1267
a(g44
g44
g44
g5
g5
tp1268
a(S'especially'
p1269
S'especially'
p1270
S'RB'
p1271
S'B-ADVP'
p1272
g5
tp1273
a(S'under'
p1274
S'under'
p1275
S'IN'
p1276
S'B-PP'
p1277
g5
tp1278
a(S'enoxaparin'
p1279
S'enoxaparin'
p1280
S'NN'
p1281
S'B-NP'
p1282
g5
tp1283
a(S'use'
p1284
S'use'
p1285
S'NN'
p1286
S'I-NP'
p1287
g5
tp1288
a(g44
g44
g44
g5
g5
tp1289
a(S'a'
p1290
g1290
S'DT'
p1291
S'B-NP'
p1292
g5
tp1293
a(S'positive'
p1294
S'positive'
p1295
S'JJ'
p1296
S'I-NP'
p1297
g5
tp1298
a(S'correlation'
p1299
S'correlation'
p1300
S'NN'
p1301
S'I-NP'
p1302
g5
tp1303
a(S'between'
p1304
S'between'
p1305
S'IN'
p1306
S'B-PP'
p1307
g5
tp1308
a(S'OPG'
p1309
S'OPG'
p1310
S'NN'
p1311
S'B-NP'
p1312
S'B-protein'
p1313
tp1314
a(S'and'
p1315
S'and'
p1316
S'CC'
p1317
S'I-NP'
p1318
g5
tp1319
a(S'vWF'
p1320
S'vWF'
p1321
S'NN'
p1322
S'I-NP'
p1323
S'B-protein'
p1324
tp1325
a(S'increase'
p1326
S'increase'
p1327
S'NN'
p1328
S'I-NP'
p1329
g5
tp1330
a(S'was'
p1331
S'be'
p1332
S'VBD'
p1333
S'B-VP'
p1334
g5
tp1335
a(S'noticed'
p1336
S'notice'
p1337
S'VBN'
p1338
S'I-VP'
p1339
g5
tp1340
a(g130
g130
g130
g5
g5
tp1341
a(g913
g913
S'NN'
p1342
S'B-NP'
p1343
g5
tp1344
a(g480
g480
S'SYM'
p1345
S'B-VP'
p1346
g5
tp1347
a(S'.03'
p1348
S'.03'
p1349
S'CD'
p1350
S'B-NP'
p1351
g5
tp1352
a(g44
g44
g44
g5
g5
tp1353
a(S'R'
p1354
g1354
S'NN'
p1355
S'B-NP'
p1356
g5
tp1357
a(g480
g480
S'SYM'
p1358
S'B-VP'
p1359
g5
tp1360
a(S'.45'
p1361
S'.45'
p1362
S'CD'
p1363
S'B-NP'
p1364
g5
tp1365
a(g138
g138
g138
g5
g5
tp1366
a(g89
g89
g89
g5
g5
tp1367
a(S'CONCLUSIONS'
p1368
S'CONCLUSIONS'
p1369
S'NNS'
p1370
S'B-NP'
p1371
g5
tp1372
a(S'Impact'
p1373
S'Impact'
p1374
S'NN'
p1375
S'I-NP'
p1376
g5
tp1377
a(S'of'
p1378
S'of'
p1379
S'IN'
p1380
S'B-PP'
p1381
g5
tp1382
a(S'heparin'
p1383
S'heparin'
p1384
S'NN'
p1385
S'B-NP'
p1386
g5
tp1387
a(S'on'
p1388
S'on'
p1389
S'IN'
p1390
S'B-PP'
p1391
g5
tp1392
a(S'endothelial'
p1393
S'endothelial'
p1394
S'JJ'
p1395
S'B-NP'
p1396
S'B-cell_type'
p1397
tp1398
a(S'cells'
p1399
S'cell'
p1400
S'NNS'
p1401
S'I-NP'
p1402
S'I-cell_type'
p1403
tp1404
a(S'and'
p1405
S'and'
p1406
S'CC'
p1407
g5
g5
tp1408
a(S'simultaneously'
p1409
S'simultaneously'
p1410
S'RB'
p1411
S'B-ADVP'
p1412
g5
tp1413
a(S'on'
p1414
S'on'
p1415
S'IN'
p1416
S'B-PP'
p1417
g5
tp1418
a(S'OPG/RANK/RANKL'
p1419
S'OPG/RANK/RANKL'
p1420
S'NN'
p1421
S'B-NP'
p1422
g5
tp1423
a(S'axis'
p1424
S'axis'
p1425
S'NN'
p1426
S'I-NP'
p1427
g5
tp1428
a(S'reinforces'
p1429
S'reinforce'
p1430
S'VBZ'
p1431
S'B-VP'
p1432
g5
tp1433
a(S'the'
p1434
S'the'
p1435
S'DT'
p1436
S'B-NP'
p1437
g5
tp1438
a(S'presumption'
p1439
S'presumption'
p1440
S'NN'
p1441
S'I-NP'
p1442
g5
tp1443
a(S'of'
p1444
S'of'
p1445
S'IN'
p1446
S'B-PP'
p1447
g5
tp1448
a(S'the'
p1449
S'the'
p1450
S'DT'
p1451
S'B-NP'
p1452
g5
tp1453
a(S'pathophysiological'
p1454
S'pathophysiological'
p1455
S'JJ'
p1456
S'I-NP'
p1457
g5
tp1458
a(S'linkage'
p1459
S'linkage'
p1460
S'NN'
p1461
S'I-NP'
p1462
g5
tp1463
a(S'between'
p1464
S'between'
p1465
S'IN'
p1466
S'B-PP'
p1467
g5
tp1468
a(S'bone'
p1469
S'bone'
p1470
S'NN'
p1471
S'B-NP'
p1472
g5
tp1473
a(S'mineralization'
p1474
S'mineralization'
p1475
S'NN'
p1476
S'I-NP'
p1477
g5
tp1478
a(S'and'
p1479
S'and'
p1480
S'CC'
p1481
g5
g5
tp1482
a(S'endothelial'
p1483
S'endothelial'
p1484
S'JJ'
p1485
S'B-NP'
p1486
g5
tp1487
a(S'dysfunction'
p1488
S'dysfunction'
p1489
S'NN'
p1490
S'I-NP'
p1491
g5
tp1492
a(S'in'
p1493
S'in'
p1494
S'IN'
p1495
S'B-PP'
p1496
g5
tp1497
a(S'end-stage'
p1498
S'end-stage'
p1499
S'JJ'
p1500
S'B-NP'
p1501
g5
tp1502
a(S'renal'
p1503
S'renal'
p1504
S'JJ'
p1505
S'I-NP'
p1506
g5
tp1507
a(S'disease'
p1508
S'disease'
p1509
S'NN'
p1510
S'I-NP'
p1511
g5
tp1512
a(g89
g89
g89
g5
g5
tp1513
a.