(lp0
(S'A'
p1
g1
S'DT'
p2
S'B-NP'
p3
S'O'
p4
tp5
a(S'two-part'
p6
S'two-part'
p7
S'JJ'
p8
S'I-NP'
p9
g4
tp10
a(S'phase'
p11
S'phase'
p12
S'NN'
p13
S'I-NP'
p14
g4
tp15
a(S'II'
p16
S'II'
p17
S'CD'
p18
S'I-NP'
p19
g4
tp20
a(S'study'
p21
S'study'
p22
S'NN'
p23
S'I-NP'
p24
g4
tp25
a(S'of'
p26
S'of'
p27
S'IN'
p28
S'B-PP'
p29
g4
tp30
a(S'cediranib'
p31
S'cediranib'
p32
S'NN'
p33
S'B-NP'
p34
g4
tp35
a(S'in'
p36
S'in'
p37
S'IN'
p38
S'B-PP'
p39
g4
tp40
a(S'patients'
p41
S'patient'
p42
S'NNS'
p43
S'B-NP'
p44
g4
tp45
a(S'with'
p46
S'with'
p47
S'IN'
p48
S'B-PP'
p49
g4
tp50
a(S'advanced'
p51
S'advance'
p52
S'VBN'
p53
S'B-NP'
p54
g4
tp55
a(S'solid'
p56
S'solid'
p57
S'JJ'
p58
S'I-NP'
p59
g4
tp60
a(S'tumours'
p61
S'tumour'
p62
S'NNS'
p63
S'I-NP'
p64
g4
tp65
a(S':'
p66
g66
g66
g4
g4
tp67
a(S'the'
p68
S'the'
p69
S'DT'
p70
S'B-NP'
p71
g4
tp72
a(S'effect'
p73
S'effect'
p74
S'NN'
p75
S'I-NP'
p76
g4
tp77
a(S'of'
p78
S'of'
p79
S'IN'
p80
S'B-PP'
p81
g4
tp82
a(S'food'
p83
S'food'
p84
S'NN'
p85
S'B-NP'
p86
g4
tp87
a(S'on'
p88
S'on'
p89
S'IN'
p90
S'B-PP'
p91
g4
tp92
a(S'single-dose'
p93
S'single-dose'
p94
S'JJ'
p95
S'B-NP'
p96
g4
tp97
a(S'pharmacokinetics'
p98
S'pharmacokinetic'
p99
S'NNS'
p100
S'I-NP'
p101
g4
tp102
a(S'and'
p103
S'and'
p104
S'CC'
p105
g4
g4
tp106
a(S'an'
p107
S'an'
p108
S'DT'
p109
S'B-NP'
p110
g4
tp111
a(S'evaluation'
p112
S'evaluation'
p113
S'NN'
p114
S'I-NP'
p115
g4
tp116
a(S'of'
p117
S'of'
p118
S'IN'
p119
S'B-PP'
p120
g4
tp121
a(S'safety'
p122
S'safety'
p123
S'NN'
p124
S'B-NP'
p125
g4
tp126
a(S','
p127
g127
g127
S'I-NP'
p128
g4
tp129
a(S'efficacy'
p130
S'efficacy'
p131
S'NN'
p132
S'I-NP'
p133
g4
tp134
a(S'and'
p135
S'and'
p136
S'CC'
p137
S'I-NP'
p138
g4
tp139
a(S'imaging'
p140
S'imaging'
p141
S'NN'
p142
S'I-NP'
p143
g4
tp144
a(S'pharmacodynamics'
p145
S'pharmacodynamic'
p146
S'NNS'
p147
S'I-NP'
p148
g4
tp149
a(S'.'
p150
g150
g150
g4
g4
tp151
a(S'BACKGROUND'
p152
S'BACKGROUND'
p153
S'NN'
p154
S'B-NP'
p155
g4
tp156
a(S'Cediranib'
p157
S'Cediranib'
p158
S'NN'
p159
S'I-NP'
p160
g4
tp161
a(S'('
p162
g162
g162
g4
g4
tp163
a(S'RECENTIN\xe2\x84\xa2'
p164
S'RECENTIN\xe2\x84\xa2'
p165
S'NN'
p166
S'B-NP'
p167
g4
tp168
a(S')'
p169
g169
g169
g4
g4
tp170
a(S'is'
p171
S'be'
p172
S'VBZ'
p173
S'B-VP'
p174
g4
tp175
a(S'an'
p176
S'an'
p177
S'DT'
p178
S'B-NP'
p179
g4
tp180
a(S'oral'
p181
S'oral'
p182
S'JJ'
p183
S'I-NP'
p184
g4
tp185
a(g127
g127
g127
S'I-NP'
p186
g4
tp187
a(S'highly'
p188
S'highly'
p189
S'RB'
p190
S'I-NP'
p191
g4
tp192
a(S'potent'
p193
S'potent'
p194
S'JJ'
p195
S'I-NP'
p196
g4
tp197
a(S'VEGF'
p198
S'VEGF'
p199
S'NN'
p200
S'I-NP'
p201
S'B-protein'
p202
tp203
a(S'inhibitor.'
p204
S'inhibitor.'
p205
S'IN'
p206
S'B-PP'
p207
g4
tp208
a(S'This'
p209
S'This'
p210
S'DT'
p211
S'B-NP'
p212
g4
tp213
a(S'study'
p214
S'study'
p215
S'NN'
p216
S'I-NP'
p217
g4
tp218
a(S'evaluated'
p219
S'evaluate'
p220
S'VBD'
p221
S'B-VP'
p222
g4
tp223
a(S'the'
p224
S'the'
p225
S'DT'
p226
S'B-NP'
p227
g4
tp228
a(S'effect'
p229
S'effect'
p230
S'NN'
p231
S'I-NP'
p232
g4
tp233
a(S'of'
p234
S'of'
p235
S'IN'
p236
S'B-PP'
p237
g4
tp238
a(S'food'
p239
S'food'
p240
S'NN'
p241
S'B-NP'
p242
g4
tp243
a(S'on'
p244
S'on'
p245
S'IN'
p246
S'B-PP'
p247
g4
tp248
a(S'the'
p249
S'the'
p250
S'DT'
p251
S'B-NP'
p252
g4
tp253
a(S'pharmacokinetics'
p254
S'pharmacokinetic'
p255
S'NNS'
p256
S'I-NP'
p257
g4
tp258
a(S'of'
p259
S'of'
p260
S'IN'
p261
S'B-PP'
p262
g4
tp263
a(S'cediranib'
p264
S'cediranib'
p265
S'NN'
p266
S'B-NP'
p267
g4
tp268
a(S'and'
p269
S'and'
p270
S'CC'
p271
g4
g4
tp272
a(S'compared'
p273
S'compare'
p274
S'VBD'
p275
S'B-VP'
p276
g4
tp277
a(S'the'
p278
S'the'
p279
S'DT'
p280
S'B-NP'
p281
g4
tp282
a(S'administration'
p283
S'administration'
p284
S'NN'
p285
S'I-NP'
p286
g4
tp287
a(S'of'
p288
S'of'
p289
S'IN'
p290
S'B-PP'
p291
g4
tp292
a(S'continual'
p293
S'continual'
p294
S'JJ'
p295
S'B-NP'
p296
g4
tp297
a(S'cediranib'
p298
S'cediranib'
p299
S'NN'
p300
S'I-NP'
p301
g4
tp302
a(S'via'
p303
S'via'
p304
S'IN'
p305
S'B-PP'
p306
g4
tp307
a(S'two'
p308
S'two'
p309
S'CD'
p310
S'B-NP'
p311
g4
tp312
a(S'dosing'
p313
S'dosing'
p314
S'NN'
p315
S'I-NP'
p316
g4
tp317
a(S'strategies'
p318
S'strategy'
p319
S'NNS'
p320
S'I-NP'
p321
g4
tp322
a(S'using'
p323
S'use'
p324
S'VBG'
p325
S'B-VP'
p326
g4
tp327
a(S'this'
p328
S'this'
p329
S'DT'
p330
S'B-NP'
p331
g4
tp332
a(S'as'
p333
S'as'
p334
S'IN'
p335
S'B-PP'
p336
g4
tp337
a(S'a'
p338
g338
S'DT'
p339
S'B-NP'
p340
g4
tp341
a(S'platform'
p342
S'platform'
p343
S'NN'
p344
S'I-NP'
p345
g4
tp346
a(S'to'
p347
S'to'
p348
S'TO'
p349
S'B-VP'
p350
g4
tp351
a(S'investigate'
p352
S'investigate'
p353
S'VB'
p354
S'I-VP'
p355
g4
tp356
a(S'pharmacodynamic'
p357
S'pharmacodynamic'
p358
S'JJ'
p359
S'B-NP'
p360
g4
tp361
a(S'imaging'
p362
S'imaging'
p363
S'NN'
p364
S'I-NP'
p365
g4
tp366
a(S'biomarkers'
p367
S'biomarker'
p368
S'NNS'
p369
S'I-NP'
p370
g4
tp371
a(g150
g150
g150
g4
g4
tp372
a(S'METHODS'
p373
S'METHODS'
p374
S'NNS'
p375
S'B-NP'
p376
g4
tp377
a(S'Sixty'
p378
S'Sixty'
p379
S'CD'
p380
S'B-NP'
p381
g4
tp382
a(S'patients'
p383
S'patient'
p384
S'NNS'
p385
S'I-NP'
p386
g4
tp387
a(S'were'
p388
S'be'
p389
S'VBD'
p390
S'B-VP'
p391
g4
tp392
a(S'randomised'
p393
S'randomise'
p394
S'VBN'
p395
S'I-VP'
p396
g4
tp397
a(S'to'
p398
S'to'
p399
S'TO'
p400
S'I-VP'
p401
g4
tp402
a(S'receive'
p403
S'receive'
p404
S'VB'
p405
S'I-VP'
p406
g4
tp407
a(S'two'
p408
S'two'
p409
S'CD'
p410
S'B-NP'
p411
g4
tp412
a(S'single'
p413
S'single'
p414
S'JJ'
p415
S'I-NP'
p416
g4
tp417
a(S'doses'
p418
S'dose'
p419
S'NNS'
p420
S'I-NP'
p421
g4
tp422
a(S'of'
p423
S'of'
p424
S'IN'
p425
S'B-PP'
p426
g4
tp427
a(S'cediranib'
p428
S'cediranib'
p429
S'NN'
p430
S'B-NP'
p431
g4
tp432
a(S'in'
p433
S'in'
p434
S'IN'
p435
S'B-PP'
p436
g4
tp437
a(S'either'
p438
S'either'
p439
S'CC'
p440
g4
g4
tp441
a(S'fed/fasted'
p442
S'fed/faste'
p443
S'VBN'
p444
S'B-VP'
p445
g4
tp446
a(S'or'
p447
S'or'
p448
S'CC'
p449
S'I-VP'
p450
g4
tp451
a(S'fasted/fed'
p452
S'fasted/fe'
p453
S'VBN'
p454
S'I-VP'
p455
g4
tp456
a(S'state'
p457
S'state'
p458
S'NN'
p459
S'B-NP'
p460
g4
tp461
a(g162
g162
g162
g4
g4
tp462
a(S'Part'
p463
S'Part'
p464
S'NNP'
p465
S'B-NP'
p466
g4
tp467
a(g1
g1
S'NNP'
p468
S'I-NP'
p469
g4
tp470
a(g169
g169
g169
g4
g4
tp471
a(g150
g150
g150
g4
g4
tp472
a(S'In'
p473
S'In'
p474
S'IN'
p475
S'B-PP'
p476
g4
tp477
a(S'continual'
p478
S'continual'
p479
S'JJ'
p480
S'B-NP'
p481
g4
tp482
a(S'dosage'
p483
S'dosage'
p484
S'NN'
p485
S'I-NP'
p486
g4
tp487
a(S'phase'
p488
S'phase'
p489
S'NN'
p490
S'I-NP'
p491
g4
tp492
a(g162
g162
g162
g4
g4
tp493
a(S'Part'
p494
S'Part'
p495
S'NNP'
p496
S'B-NP'
p497
g4
tp498
a(S'B'
p499
g499
S'NNP'
p500
S'I-NP'
p501
g4
tp502
a(g169
g169
g169
g4
g4
tp503
a(g127
g127
g127
g4
g4
tp504
a(S'patients'
p505
S'patient'
p506
S'NNS'
p507
S'B-NP'
p508
g4
tp509
a(S'were'
p510
S'be'
p511
S'VBD'
p512
S'B-VP'
p513
g4
tp514
a(S'randomised'
p515
S'randomise'
p516
S'VBN'
p517
S'I-VP'
p518
g4
tp519
a(S'to'
p520
S'to'
p521
S'TO'
p522
S'B-PP'
p523
g4
tp524
a(g338
g338
S'DT'
p525
S'B-NP'
p526
g4
tp527
a(S'fixed-dose'
p528
S'fixed-dose'
p529
S'JJ'
p530
S'I-NP'
p531
g4
tp532
a(S'or'
p533
S'or'
p534
S'CC'
p535
S'I-NP'
p536
g4
tp537
a(S'dose-escalation'
p538
S'dose-escalation'
p539
S'NN'
p540
S'I-NP'
p541
g4
tp542
a(S'arm.'
p543
S'arm.'
p544
S'NN'
p545
S'I-NP'
p546
g4
tp547
a(S'Exploratory'
p548
S'Exploratory'
p549
S'JJ'
p550
S'I-NP'
p551
g4
tp552
a(S'pharmacodynamic'
p553
S'pharmacodynamic'
p554
S'JJ'
p555
S'I-NP'
p556
g4
tp557
a(S'assessments'
p558
S'assessment'
p559
S'NNS'
p560
S'I-NP'
p561
g4
tp562
a(S'were'
p563
S'be'
p564
S'VBD'
p565
S'B-VP'
p566
g4
tp567
a(S'performed'
p568
S'perform'
p569
S'VBN'
p570
S'I-VP'
p571
g4
tp572
a(S'using'
p573
S'use'
p574
S'VBG'
p575
S'B-VP'
p576
g4
tp577
a(S'DCE-MRI'
p578
S'DCE-MRI'
p579
S'NN'
p580
S'B-NP'
p581
S'B-DNA'
p582
tp583
a(S'and'
p584
S'and'
p585
S'CC'
p586
S'I-NP'
p587
g4
tp588
a(S'CT'
p589
S'CT'
p590
S'NN'
p591
S'I-NP'
p592
g4
tp593
a(S'enhancing'
p594
S'enhance'
p595
S'VBG'
p596
S'B-VP'
p597
g4
tp598
a(S'fraction'
p599
S'fraction'
p600
S'NN'
p601
S'B-NP'
p602
g4
tp603
a(g162
g162
g162
g4
g4
tp604
a(S'EnF'
p605
S'EnF'
p606
S'NN'
p607
S'B-NP'
p608
S'B-protein'
p609
tp610
a(g169
g169
g169
g4
g4
tp611
a(g150
g150
g150
g4
g4
tp612
a(S'RESULTS'
p613
S'RESULTS'
p614
S'NNS'
p615
S'B-NP'
p616
g4
tp617
a(S'In'
p618
S'In'
p619
S'IN'
p620
S'B-PP'
p621
g4
tp622
a(S'part'
p623
S'part'
p624
S'NN'
p625
S'B-NP'
p626
g4
tp627
a(g1
g1
S'NN'
p628
S'I-NP'
p629
g4
tp630
a(g127
g127
g127
g4
g4
tp631
a(S'plasma'
p632
S'plasma'
p633
S'NN'
p634
S'B-NP'
p635
g4
tp636
a(S'AUC'
p637
S'AUC'
p638
S'NN'
p639
S'I-NP'
p640
g4
tp641
a(S'and'
p642
S'and'
p643
S'CC'
p644
g4
g4
tp645
a(S'C'
p646
g646
S'NN'
p647
S'B-NP'
p648
g4
tp649
a(g162
g162
g162
g4
g4
tp650
a(S'max'
p651
S'max'
p652
S'NN'
p653
S'B-NP'
p654
g4
tp655
a(g169
g169
g169
g4
g4
tp656
a(S'of'
p657
S'of'
p658
S'IN'
p659
S'B-PP'
p660
g4
tp661
a(S'cediranib'
p662
S'cediranib'
p663
S'NN'
p664
S'B-NP'
p665
g4
tp666
a(S'were'
p667
S'be'
p668
S'VBD'
p669
S'B-VP'
p670
g4
tp671
a(S'lower'
p672
S'low'
p673
S'JJR'
p674
S'B-ADJP'
p675
g4
tp676
a(S'in'
p677
S'in'
p678
S'IN'
p679
S'B-PP'
p680
g4
tp681
a(S'the'
p682
S'the'
p683
S'DT'
p684
S'B-NP'
p685
g4
tp686
a(S'presence'
p687
S'presence'
p688
S'NN'
p689
S'I-NP'
p690
g4
tp691
a(S'of'
p692
S'of'
p693
S'IN'
p694
S'B-PP'
p695
g4
tp696
a(S'food'
p697
S'food'
p698
S'NN'
p699
S'B-NP'
p700
g4
tp701
a(S'by'
p702
S'by'
p703
S'IN'
p704
S'B-PP'
p705
g4
tp706
a(g338
g338
S'DT'
p707
S'B-NP'
p708
g4
tp709
a(S'mean'
p710
S'mean'
p711
S'NN'
p712
S'I-NP'
p713
g4
tp714
a(S'of'
p715
S'of'
p716
S'IN'
p717
S'B-PP'
p718
g4
tp719
a(S'24'
p720
S'24'
p721
S'CD'
p722
S'B-NP'
p723
g4
tp724
a(S'and'
p725
S'and'
p726
S'CC'
p727
S'I-NP'
p728
g4
tp729
a(S'33'
p730
S'33'
p731
S'CD'
p732
S'I-NP'
p733
g4
tp734
a(S'%'
p735
g735
S'NN'
p736
S'I-NP'
p737
g4
tp738
a(g127
g127
g127
g4
g4
tp739
a(S'respectively'
p740
S'respectively'
p741
S'RB'
p742
S'B-ADVP'
p743
g4
tp744
a(g162
g162
g162
g4
g4
tp745
a(S'94'
p746
S'94'
p747
S'CD'
p748
S'B-NP'
p749
g4
tp750
a(g735
g735
S'NN'
p751
S'I-NP'
p752
g4
tp753
a(S'CI'
p754
S'CI'
p755
S'NN'
p756
S'I-NP'
p757
g4
tp758
a(g66
g66
g66
g4
g4
tp759
a(S'AUC'
p760
S'AUC'
p761
S'NN'
p762
S'B-NP'
p763
g4
tp764
a(g127
g127
g127
g4
g4
tp765
a(S'12-34'
p766
S'12-34'
p767
S'CD'
p768
S'B-NP'
p769
g4
tp770
a(g735
g735
S'NN'
p771
S'I-NP'
p772
g4
tp773
a(S'and'
p774
S'and'
p775
S'CC'
p776
g4
g4
tp777
a(g646
g646
S'NN'
p778
S'B-NP'
p779
g4
tp780
a(g162
g162
g162
g4
g4
tp781
a(S'max'
p782
S'max'
p783
S'NN'
p784
S'B-NP'
p785
S'B-protein'
p786
tp787
a(g169
g169
g169
g4
g4
tp788
a(g127
g127
g127
g4
g4
tp789
a(S'20-43'
p790
S'20-43'
p791
S'CD'
p792
S'B-NP'
p793
g4
tp794
a(g735
g735
S'NN'
p795
S'I-NP'
p796
g4
tp797
a(g169
g169
g169
g4
g4
tp798
a(g127
g127
g127
g4
g4
tp799
a(S'indicating'
p800
S'indicate'
p801
S'VBG'
p802
S'B-VP'
p803
g4
tp804
a(S'food'
p805
S'food'
p806
S'NN'
p807
S'B-NP'
p808
g4
tp809
a(S'reduces'
p810
S'reduce'
p811
S'VBZ'
p812
S'B-VP'
p813
g4
tp814
a(S'cediranib'
p815
S'cediranib'
p816
S'NN'
p817
S'B-NP'
p818
g4
tp819
a(S'plasma'
p820
S'plasma'
p821
S'NN'
p822
S'I-NP'
p823
g4
tp824
a(S'exposure.'
p825
S'exposure.'
p826
S'NN'
p827
S'I-NP'
p828
g4
tp829
a(S'In'
p830
S'In'
p831
S'IN'
p832
S'B-PP'
p833
g4
tp834
a(S'part'
p835
S'part'
p836
S'NN'
p837
S'B-NP'
p838
g4
tp839
a(g499
g499
S'NN'
p840
S'I-NP'
p841
g4
tp842
a(g127
g127
g127
g4
g4
tp843
a(S'cediranib'
p844
S'cediranib'
p845
S'NN'
p846
S'B-NP'
p847
g4
tp848
a(S'30\xc2\xa0mg/day'
p849
S'30\xc2\xa0mg/day'
p850
S'CD'
p851
S'I-NP'
p852
g4
tp853
a(S'appeared'
p854
S'appear'
p855
S'VBD'
p856
S'B-VP'
p857
g4
tp858
a(S'to'
p859
S'to'
p860
S'TO'
p861
S'I-VP'
p862
g4
tp863
a(S'be'
p864
S'be'
p865
S'VB'
p866
S'I-VP'
p867
g4
tp868
a(S'the'
p869
S'the'
p870
S'DT'
p871
S'B-NP'
p872
g4
tp873
a(S'most'
p874
S'most'
p875
S'RBS'
p876
S'I-NP'
p877
g4
tp878
a(S'sustainable'
p879
S'sustainable'
p880
S'JJ'
p881
S'I-NP'
p882
g4
tp883
a(S'for'
p884
S'for'
p885
S'IN'
p886
S'B-PP'
p887
g4
tp888
a(S'chronic'
p889
S'chronic'
p890
S'JJ'
p891
S'B-NP'
p892
g4
tp893
a(S'dosing.'
p894
S'dosing.'
p895
S'NN'
p896
S'I-NP'
p897
g4
tp898
a(S'Continuous'
p899
S'Continuous'
p900
S'JJ'
p901
S'I-NP'
p902
g4
tp903
a(S'cediranib'
p904
S'cediranib'
p905
S'NN'
p906
S'I-NP'
p907
g4
tp908
a(S'therapy'
p909
S'therapy'
p910
S'NN'
p911
S'I-NP'
p912
g4
tp913
a(S'was'
p914
S'be'
p915
S'VBD'
p916
S'B-VP'
p917
g4
tp918
a(S'associated'
p919
S'associate'
p920
S'VBN'
p921
S'I-VP'
p922
g4
tp923
a(S'with'
p924
S'with'
p925
S'IN'
p926
S'B-PP'
p927
g4
tp928
a(S'sustained'
p929
S'sustained'
p930
S'JJ'
p931
S'B-NP'
p932
g4
tp933
a(S'antivascular'
p934
S'antivascular'
p935
S'JJ'
p936
S'I-NP'
p937
g4
tp938
a(S'effects'
p939
S'effect'
p940
S'NNS'
p941
S'I-NP'
p942
g4
tp943
a(S'up'
p944
S'up'
p945
S'IN'
p946
S'B-PP'
p947
g4
tp948
a(S'to'
p949
S'to'
p950
S'TO'
p951
S'B-PP'
p952
g4
tp953
a(S'16\xc2\xa0weeks'
p954
S'16\xc2\xa0week'
p955
S'NNS'
p956
S'B-NP'
p957
g4
tp958
a(g127
g127
g127
g4
g4
tp959
a(S'with'
p960
S'with'
p961
S'IN'
p962
S'B-PP'
p963
g4
tp964
a(S'significant'
p965
S'significant'
p966
S'JJ'
p967
S'B-NP'
p968
g4
tp969
a(S'reductions'
p970
S'reduction'
p971
S'NNS'
p972
S'I-NP'
p973
g4
tp974
a(S'in'
p975
S'in'
p976
S'IN'
p977
S'B-PP'
p978
g4
tp979
a(S'DCE-MRI'
p980
S'DCE-MRI'
p981
S'NN'
p982
S'B-NP'
p983
g4
tp984
a(S'parameters'
p985
S'parameter'
p986
S'NNS'
p987
S'I-NP'
p988
g4
tp989
a(S'and'
p990
S'and'
p991
S'CC'
p992
g4
g4
tp993
a(S'CT'
p994
S'CT'
p995
S'NN'
p996
S'B-NP'
p997
S'B-protein'
p998
tp999
a(S'EnF'
p1000
S'EnF'
p1001
S'NN'
p1002
S'I-NP'
p1003
S'I-protein'
p1004
tp1005
a(g150
g150
g150
g4
g4
tp1006
a(S'CONCLUSIONS'
p1007
S'CONCLUSIONS'
p1008
S'NNS'
p1009
S'B-NP'
p1010
g4
tp1011
a(S'It'
p1012
S'It'
p1013
S'PRP'
p1014
S'B-NP'
p1015
g4
tp1016
a(S'is'
p1017
S'be'
p1018
S'VBZ'
p1019
S'B-VP'
p1020
g4
tp1021
a(S'recommended'
p1022
S'recommend'
p1023
S'VBN'
p1024
S'I-VP'
p1025
g4
tp1026
a(S'that'
p1027
S'that'
p1028
S'IN'
p1029
S'B-SBAR'
p1030
g4
tp1031
a(S'cediranib'
p1032
S'cediranib'
p1033
S'NN'
p1034
S'B-NP'
p1035
g4
tp1036
a(S'be'
p1037
S'be'
p1038
S'VB'
p1039
S'B-VP'
p1040
g4
tp1041
a(S'administered'
p1042
S'administer'
p1043
S'VBN'
p1044
S'I-VP'
p1045
g4
tp1046
a(S'at'
p1047
S'at'
p1048
S'IN'
p1049
S'B-ADVP'
p1050
g4
tp1051
a(S'least'
p1052
S'least'
p1053
S'JJS'
p1054
S'I-ADVP'
p1055
g4
tp1056
a(S'1\xc2\xa0h'
p1057
S'1\xc2\xa0h'
p1058
S'NN'
p1059
S'B-NP'
p1060
g4
tp1061
a(S'before'
p1062
S'before'
p1063
S'IN'
p1064
S'B-PP'
p1065
g4
tp1066
a(S'or'
p1067
S'or'
p1068
S'CC'
p1069
g4
g4
tp1070
a(S'2\xc2\xa0h'
p1071
S'2\xc2\xa0h'
p1072
S'CD'
p1073
S'B-NP'
p1074
g4
tp1075
a(S'after'
p1076
S'after'
p1077
S'IN'
p1078
S'B-SBAR'
p1079
g4
tp1080
a(S'food.'
p1081
S'food.'
p1082
S'NN'
p1083
S'B-NP'
p1084
g4
tp1085
a(S'Evidence'
p1086
S'Evidence'
p1087
S'NN'
p1088
S'I-NP'
p1089
g4
tp1090
a(S'of'
p1091
S'of'
p1092
S'IN'
p1093
S'B-PP'
p1094
g4
tp1095
a(S'antitumour'
p1096
S'antitumour'
p1097
S'JJ'
p1098
S'B-NP'
p1099
g4
tp1100
a(S'activity'
p1101
S'activity'
p1102
S'NN'
p1103
S'I-NP'
p1104
g4
tp1105
a(S'was'
p1106
S'be'
p1107
S'VBD'
p1108
S'B-VP'
p1109
g4
tp1110
a(S'observed'
p1111
S'observe'
p1112
S'VBN'
p1113
S'I-VP'
p1114
g4
tp1115
a(g127
g127
g127
g4
g4
tp1116
a(S'with'
p1117
S'with'
p1118
S'IN'
p1119
S'B-PP'
p1120
g4
tp1121
a(S'significant'
p1122
S'significant'
p1123
S'JJ'
p1124
S'B-NP'
p1125
g4
tp1126
a(S'sustained'
p1127
S'sustained'
p1128
S'JJ'
p1129
S'I-NP'
p1130
g4
tp1131
a(S'effects'
p1132
S'effect'
p1133
S'NNS'
p1134
S'I-NP'
p1135
g4
tp1136
a(S'upon'
p1137
S'upon'
p1138
S'IN'
p1139
S'B-PP'
p1140
g4
tp1141
a(S'imaging'
p1142
S'image'
p1143
S'VBG'
p1144
S'B-VP'
p1145
g4
tp1146
a(S'vascular'
p1147
S'vascular'
p1148
S'JJ'
p1149
S'B-NP'
p1150
g4
tp1151
a(S'parameters'
p1152
S'parameter'
p1153
S'NNS'
p1154
S'I-NP'
p1155
g4
tp1156
a(g150
g150
g150
g4
g4
tp1157
a.