(lp0
(S'Comparison'
p1
S'Comparison'
p2
S'NN'
p3
S'B-NP'
p4
S'O'
p5
tp6
a(S'of'
p7
S'of'
p8
S'IN'
p9
S'B-PP'
p10
g5
tp11
a(S'nitinol'
p12
S'nitinol'
p13
S'NN'
p14
S'B-NP'
p15
g5
tp16
a(S'tipless'
p17
S'tipless'
p18
S'JJ'
p19
S'I-NP'
p20
g5
tp21
a(S'stone'
p22
S'stone'
p23
S'NN'
p24
S'I-NP'
p25
g5
tp26
a(S'baskets'
p27
S'basket'
p28
S'NNS'
p29
S'I-NP'
p30
g5
tp31
a(S'in'
p32
S'in'
p33
S'IN'
p34
S'B-PP'
p35
g5
tp36
a(S'an'
p37
S'an'
p38
S'DT'
p39
S'B-NP'
p40
g5
tp41
a(S'in'
p42
S'in'
p43
S'FW'
p44
S'I-NP'
p45
g5
tp46
a(S'vitro'
p47
S'vitro'
p48
S'FW'
p49
S'I-NP'
p50
g5
tp51
a(S'caliceal'
p52
S'caliceal'
p53
S'NN'
p54
S'I-NP'
p55
g5
tp56
a(S'model'
p57
S'model'
p58
S'NN'
p59
S'I-NP'
p60
g5
tp61
a(S'.'
p62
g62
g62
g5
g5
tp63
a(S'PURPOSE'
p64
S'PURPOSE'
p65
S'NN'
p66
S'B-NP'
p67
g5
tp68
a(S'Tipless'
p69
S'Tipless'
p70
S'JJ'
p71
S'I-NP'
p72
g5
tp73
a(S'stone'
p74
S'stone'
p75
S'NN'
p76
S'I-NP'
p77
g5
tp78
a(S'baskets'
p79
S'basket'
p80
S'NNS'
p81
S'I-NP'
p82
g5
tp83
a(S'facilitate'
p84
S'facilitate'
p85
S'VBP'
p86
S'B-VP'
p87
g5
tp88
a(S'caliceal'
p89
S'caliceal'
p90
S'JJ'
p91
S'B-NP'
p92
g5
tp93
a(S'calculi'
p94
S'calculi'
p95
S'NN'
p96
S'I-NP'
p97
g5
tp98
a(S'extraction'
p99
S'extraction'
p100
S'NN'
p101
S'I-NP'
p102
g5
tp103
a(S'during'
p104
S'during'
p105
S'IN'
p106
S'B-PP'
p107
g5
tp108
a(S'flexible'
p109
S'flexible'
p110
S'JJ'
p111
S'B-NP'
p112
g5
tp113
a(S'ureteroscopy.'
p114
S'ureteroscopy.'
p115
S'NN'
p116
S'I-NP'
p117
g5
tp118
a(S'We'
p119
S'We'
p120
S'PRP'
p121
S'B-NP'
p122
g5
tp123
a(S'evaluated'
p124
S'evaluate'
p125
S'VBD'
p126
S'B-VP'
p127
g5
tp128
a(S'the'
p129
S'the'
p130
S'DT'
p131
S'B-NP'
p132
g5
tp133
a(S'stone'
p134
S'stone'
p135
S'NN'
p136
S'I-NP'
p137
g5
tp138
a(S'capture'
p139
S'capture'
p140
S'NN'
p141
S'I-NP'
p142
g5
tp143
a(S'rate'
p144
S'rate'
p145
S'NN'
p146
S'I-NP'
p147
g5
tp148
a(S'of'
p149
S'of'
p150
S'IN'
p151
S'B-PP'
p152
g5
tp153
a(S'9'
p154
g154
S'CD'
p155
S'B-NP'
p156
g5
tp157
a(S'commercially'
p158
S'commercially'
p159
S'RB'
p160
S'I-NP'
p161
g5
tp162
a(S'available'
p163
S'available'
p164
S'JJ'
p165
S'I-NP'
p166
g5
tp167
a(S'tipless'
p168
S'tipless'
p169
S'JJ'
p170
S'I-NP'
p171
g5
tp172
a(S'stone'
p173
S'stone'
p174
S'NN'
p175
S'I-NP'
p176
g5
tp177
a(S'baskets'
p178
S'basket'
p179
S'NNS'
p180
S'I-NP'
p181
g5
tp182
a(S'in'
p183
S'in'
p184
S'IN'
p185
S'B-PP'
p186
g5
tp187
a(S'an'
p188
S'an'
p189
S'DT'
p190
S'B-NP'
p191
g5
tp192
a(S'in'
p193
S'in'
p194
S'FW'
p195
S'I-NP'
p196
g5
tp197
a(S'vitro'
p198
S'vitro'
p199
S'FW'
p200
S'I-NP'
p201
g5
tp202
a(S'model'
p203
S'model'
p204
S'NN'
p205
S'I-NP'
p206
g5
tp207
a(S'using'
p208
S'use'
p209
S'VBG'
p210
S'B-VP'
p211
g5
tp212
a(S'novice'
p213
S'novice'
p214
S'NN'
p215
S'B-NP'
p216
g5
tp217
a(S'and'
p218
S'and'
p219
S'CC'
p220
S'I-NP'
p221
g5
tp222
a(S'expert'
p223
S'expert'
p224
S'NN'
p225
S'I-NP'
p226
g5
tp227
a(S'operators'
p228
S'operator'
p229
S'NNS'
p230
S'I-NP'
p231
g5
tp232
a(g62
g62
g62
g5
g5
tp233
a(S'MATERIALS'
p234
S'MATERIALS'
p235
S'NNS'
p236
S'B-NP'
p237
g5
tp238
a(S'AND'
p239
S'AND'
p240
S'CC'
p241
S'I-NP'
p242
g5
tp243
a(S'METHODS'
p244
S'METHODS'
p245
S'NNS'
p246
S'I-NP'
p247
g5
tp248
a(S'The'
p249
S'The'
p250
S'DT'
p251
S'B-NP'
p252
g5
tp253
a(S'Microvasive'
p254
S'Microvasive'
p255
S'JJ'
p256
S'I-NP'
p257
g5
tp258
a(S'Zerotip'
p259
S'Zerotip'
p260
S'NN'
p261
S'I-NP'
p262
g5
tp263
a(S'('
p264
g264
g264
g5
g5
tp265
a(S'2.4Fr'
p266
S'2.4Fr'
p267
S'NN'
p268
S'B-NP'
p269
g5
tp270
a(S','
p271
g271
g271
g5
g5
tp272
a(S'3.0Fr'
p273
S'3.0Fr'
p274
S'NN'
p275
S'B-NP'
p276
g5
tp277
a(S')'
p278
g278
g278
g5
g5
tp279
a(g271
g271
g271
g5
g5
tp280
a(S'Cook'
p281
S'Cook'
p282
S'NN'
p283
S'B-NP'
p284
g5
tp285
a(S'N-Circle'
p286
S'N-Circle'
p287
S'NN'
p288
S'I-NP'
p289
g5
tp290
a(g264
g264
g264
g5
g5
tp291
a(S'2.2Fr'
p292
S'2.2Fr'
p293
S'NN'
p294
S'B-NP'
p295
g5
tp296
a(g271
g271
g271
g5
g5
tp297
a(S'3.0Fr'
p298
S'3.0Fr'
p299
S'NN'
p300
S'B-NP'
p301
g5
tp302
a(g271
g271
g271
g5
g5
tp303
a(S'3.2Fr'
p304
S'3.2Fr'
p305
S'NN'
p306
S'B-NP'
p307
g5
tp308
a(g278
g278
g278
g5
g5
tp309
a(g271
g271
g271
g5
g5
tp310
a(S'Bard'
p311
S'Bard'
p312
S'NNP'
p313
S'B-NP'
p314
g5
tp315
a(S'Dimension'
p316
S'Dimension'
p317
S'NNP'
p318
S'I-NP'
p319
g5
tp320
a(g264
g264
g264
g5
g5
tp321
a(S'3.0Fr'
p322
S'3.0Fr'
p323
S'NNP'
p324
S'B-NP'
p325
g5
tp326
a(g271
g271
g271
g5
g5
tp327
a(S'Sacred'
p328
S'Sacred'
p329
S'NNP'
p330
S'B-NP'
p331
g5
tp332
a(S'Heart'
p333
S'Heart'
p334
S'NNP'
p335
S'I-NP'
p336
g5
tp337
a(S'Medical'
p338
S'Medical'
p339
S'NNP'
p340
S'I-NP'
p341
g5
tp342
a(S'Halo'
p343
S'Halo'
p344
S'NNP'
p345
S'I-NP'
p346
g5
tp347
a(g264
g264
g264
g5
g5
tp348
a(S'1.9Fr'
p349
S'1.9Fr'
p350
S'NN'
p351
S'B-NP'
p352
g5
tp353
a(g278
g278
g278
g5
g5
tp354
a(g271
g271
g271
g5
g5
tp355
a(S'Vantage'
p356
S'Vantage'
p357
S'NN'
p358
S'B-NP'
p359
g5
tp360
a(g264
g264
g264
g5
g5
tp361
a(S'1.9Fr'
p362
S'1.9Fr'
p363
S'NN'
p364
S'B-NP'
p365
g5
tp366
a(g278
g278
g278
g5
g5
tp367
a(S'and'
p368
S'and'
p369
S'CC'
p370
g5
g5
tp371
a(S'Circon-ACMI'
p372
S'Circon-ACMI'
p373
S'NN'
p374
S'B-NP'
p375
g5
tp376
a(S'Sur-Catch-NT'
p377
S'Sur-Catch-NT'
p378
S'NN'
p379
S'I-NP'
p380
g5
tp381
a(g264
g264
g264
g5
g5
tp382
a(S'3.0Fr'
p383
S'3.0Fr'
p384
S'NN'
p385
S'B-NP'
p386
g5
tp387
a(g278
g278
g278
g5
g5
tp388
a(S'were'
p389
S'be'
p390
S'VBD'
p391
S'B-VP'
p392
g5
tp393
a(S'tested'
p394
S'test'
p395
S'VBN'
p396
S'I-VP'
p397
g5
tp398
a(S'by'
p399
S'by'
p400
S'IN'
p401
S'B-PP'
p402
g5
tp403
a(S'3'
p404
g404
S'CD'
p405
S'B-NP'
p406
g5
tp407
a(S'novice'
p408
S'novice'
p409
S'NN'
p410
S'I-NP'
p411
g5
tp412
a(S'and'
p413
S'and'
p414
S'CC'
p415
g5
g5
tp416
a(g404
g404
S'CD'
p417
S'B-NP'
p418
g5
tp419
a(S'experienced'
p420
S'experienced'
p421
S'JJ'
p422
S'I-NP'
p423
g5
tp424
a(S'basket'
p425
S'basket'
p426
S'NN'
p427
S'I-NP'
p428
g5
tp429
a(S'operators.'
p430
S'operators.'
p431
S'IN'
p432
S'B-PP'
p433
g5
tp434
a(S'Each'
p435
S'Each'
p436
S'DT'
p437
S'B-NP'
p438
g5
tp439
a(S'operator'
p440
S'operator'
p441
S'NN'
p442
S'I-NP'
p443
g5
tp444
a(S'performed'
p445
S'perform'
p446
S'VBD'
p447
S'B-VP'
p448
g5
tp449
a(S'stone'
p450
S'stone'
p451
S'NN'
p452
S'B-NP'
p453
g5
tp454
a(S'extraction'
p455
S'extraction'
p456
S'NN'
p457
S'I-NP'
p458
g5
tp459
a(S'of'
p460
S'of'
p461
S'IN'
p462
S'B-PP'
p463
g5
tp464
a(S'2'
p465
g465
S'CD'
p466
S'B-NP'
p467
g5
tp468
a(g271
g271
g271
S'I-NP'
p469
g5
tp470
a(S'5'
p471
g471
S'CD'
p472
S'I-NP'
p473
g5
tp474
a(S'and'
p475
S'and'
p476
S'CC'
p477
S'I-NP'
p478
g5
tp479
a(S'8'
p480
g480
S'CD'
p481
S'I-NP'
p482
g5
tp483
a(S'mm'
p484
S'mm'
p485
S'NN'
p486
S'I-NP'
p487
g5
tp488
a(S'calculi'
p489
S'calculus'
p490
S'NNS'
p491
S'I-NP'
p492
g5
tp493
a(g264
g264
g264
g5
g5
tp494
a(S'size'
p495
S'size'
p496
S'NN'
p497
S'B-NP'
p498
g5
tp499
a(S'determined'
p500
S'determine'
p501
S'VBN'
p502
S'B-VP'
p503
g5
tp504
a(S'by'
p505
S'by'
p506
S'IN'
p507
S'B-PP'
p508
g5
tp509
a(S'digital'
p510
S'digital'
p511
S'JJ'
p512
S'B-NP'
p513
g5
tp514
a(S'caliper'
p515
S'caliper'
p516
S'NN'
p517
S'I-NP'
p518
g5
tp519
a(S'with'
p520
S'with'
p521
S'IN'
p522
S'B-PP'
p523
g5
tp524
a(g404
g404
S'CD'
p525
S'B-NP'
p526
g5
tp527
a(S'repetitions'
p528
S'repetition'
p529
S'NNS'
p530
S'I-NP'
p531
g5
tp532
a(S'of'
p533
S'of'
p534
S'IN'
p535
S'B-PP'
p536
g5
tp537
a(S'each'
p538
S'each'
p539
S'DT'
p540
S'B-NP'
p541
g5
tp542
a(S'basket.'
p543
S'basket.'
p544
S'NN'
p545
S'I-NP'
p546
g5
tp547
a(S'The'
p548
S'The'
p549
S'DT'
p550
S'B-NP'
p551
g5
tp552
a(S'time'
p553
S'time'
p554
S'NN'
p555
S'I-NP'
p556
g5
tp557
a(S'to'
p558
S'to'
p559
S'TO'
p560
S'B-PP'
p561
g5
tp562
a(S'extraction'
p563
S'extraction'
p564
S'NN'
p565
S'B-NP'
p566
g5
tp567
a(S'of'
p568
S'of'
p569
S'IN'
p570
S'B-PP'
p571
g5
tp572
a(S'the'
p573
S'the'
p574
S'DT'
p575
S'B-NP'
p576
g5
tp577
a(S'calculus'
p578
S'calculus'
p579
S'NN'
p580
S'I-NP'
p581
g5
tp582
a(S'from'
p583
S'from'
p584
S'IN'
p585
S'B-PP'
p586
g5
tp587
a(S'a'
p588
g588
S'DT'
p589
S'B-NP'
p590
g5
tp591
a(S'convex'
p592
S'convex'
p593
S'NN'
p594
S'I-NP'
p595
g5
tp596
a(S'based'
p597
S'based'
p598
S'JJ'
p599
S'I-NP'
p600
g5
tp601
a(S'test'
p602
S'test'
p603
S'NN'
p604
S'I-NP'
p605
g5
tp606
a(S'tube'
p607
S'tube'
p608
S'NN'
p609
S'I-NP'
p610
g5
tp611
a(S'caliceal'
p612
S'caliceal'
p613
S'NN'
p614
S'I-NP'
p615
g5
tp616
a(S'model'
p617
S'model'
p618
S'NN'
p619
S'I-NP'
p620
g5
tp621
a(S'was'
p622
S'be'
p623
S'VBD'
p624
S'B-VP'
p625
g5
tp626
a(S'recorded.'
p627
S'recorded.'
p628
S'NN'
p629
S'B-NP'
p630
g5
tp631
a(S'Statistical'
p632
S'Statistical'
p633
S'JJ'
p634
S'I-NP'
p635
g5
tp636
a(S'analysis'
p637
S'analysis'
p638
S'NN'
p639
S'I-NP'
p640
g5
tp641
a(S'was'
p642
S'be'
p643
S'VBD'
p644
S'B-VP'
p645
g5
tp646
a(S'performed'
p647
S'perform'
p648
S'VBN'
p649
S'I-VP'
p650
g5
tp651
a(S'using'
p652
S'use'
p653
S'VBG'
p654
S'I-VP'
p655
g5
tp656
a(S'repeated'
p657
S'repeat'
p658
S'VBN'
p659
S'B-NP'
p660
g5
tp661
a(S'measures'
p662
S'measure'
p663
S'NNS'
p664
S'I-NP'
p665
g5
tp666
a(S'ANOVA'
p667
S'ANOVA'
p668
S'NNP'
p669
S'I-NP'
p670
g5
tp671
a(S'and'
p672
S'and'
p673
S'CC'
p674
S'I-NP'
p675
g5
tp676
a(S'Fisher'
p677
S'Fisher'
p678
S'NNP'
p679
S'I-NP'
p680
g5
tp681
a(S"'s"
p682
S"'s"
p683
S'POS'
p684
S'B-NP'
p685
g5
tp686
a(S'pairwise'
p687
S'pairwise'
p688
S'JJ'
p689
S'I-NP'
p690
g5
tp691
a(S'comparisons'
p692
S'comparison'
p693
S'NNS'
p694
S'I-NP'
p695
g5
tp696
a(g62
g62
g62
g5
g5
tp697
a(S'RESULTS'
p698
S'RESULTS'
p699
S'NNS'
p700
S'B-NP'
p701
g5
tp702
a(S'After'
p703
S'After'
p704
S'IN'
p705
S'B-PP'
p706
g5
tp707
a(g588
g588
S'DT'
p708
S'B-NP'
p709
g5
tp710
a(S'learning'
p711
S'learning'
p712
S'NN'
p713
S'I-NP'
p714
g5
tp715
a(S'curve'
p716
S'curve'
p717
S'NN'
p718
S'I-NP'
p719
g5
tp720
a(S'of'
p721
S'of'
p722
S'IN'
p723
S'B-PP'
p724
g5
tp725
a(S'27'
p726
S'27'
p727
S'CD'
p728
S'B-NP'
p729
g5
tp730
a(S'basket'
p731
S'basket'
p732
S'NN'
p733
S'I-NP'
p734
g5
tp735
a(S'retrievals'
p736
S'retrieval'
p737
S'NNS'
p738
S'I-NP'
p739
g5
tp740
a(g271
g271
g271
g5
g5
tp741
a(S'there'
p742
S'there'
p743
S'EX'
p744
S'B-NP'
p745
g5
tp746
a(S'was'
p747
S'be'
p748
S'VBD'
p749
S'B-VP'
p750
g5
tp751
a(S'no'
p752
S'no'
p753
S'DT'
p754
S'B-NP'
p755
g5
tp756
a(S'significant'
p757
S'significant'
p758
S'JJ'
p759
S'I-NP'
p760
g5
tp761
a(S'difference'
p762
S'difference'
p763
S'NN'
p764
S'I-NP'
p765
g5
tp766
a(S'in'
p767
S'in'
p768
S'IN'
p769
S'B-PP'
p770
g5
tp771
a(S'stone'
p772
S'stone'
p773
S'NN'
p774
S'B-NP'
p775
g5
tp776
a(S'capture'
p777
S'capture'
p778
S'NN'
p779
S'I-NP'
p780
g5
tp781
a(S'times'
p782
S'time'
p783
S'NNS'
p784
S'I-NP'
p785
g5
tp786
a(S'between'
p787
S'between'
p788
S'IN'
p789
S'B-PP'
p790
g5
tp791
a(S'novice'
p792
S'novice'
p793
S'NN'
p794
S'B-NP'
p795
g5
tp796
a(g264
g264
g264
g5
g5
tp797
a(S'38'
p798
S'38'
p799
S'CD'
p800
S'B-NP'
p801
g5
tp802
a(S'+/-'
p803
S'+/-'
p804
S'CC'
p805
S'I-NP'
p806
g5
tp807
a(S'54'
p808
S'54'
p809
S'CD'
p810
S'I-NP'
p811
g5
tp812
a(S'seconds'
p813
S'second'
p814
S'NNS'
p815
S'I-NP'
p816
g5
tp817
a(g278
g278
g278
g5
g5
tp818
a(S'and'
p819
S'and'
p820
S'CC'
p821
g5
g5
tp822
a(S'expert'
p823
S'expert'
p824
S'NN'
p825
S'B-NP'
p826
g5
tp827
a(S'operators'
p828
S'operator'
p829
S'NNS'
p830
S'I-NP'
p831
g5
tp832
a(g264
g264
g264
g5
g5
tp833
a(S'32'
p834
S'32'
p835
S'CD'
p836
S'B-NP'
p837
g5
tp838
a(S'+/-'
p839
S'+/-'
p840
S'CC'
p841
S'I-NP'
p842
g5
tp843
a(S'49'
p844
S'49'
p845
S'CD'
p846
S'I-NP'
p847
g5
tp848
a(S'seconds'
p849
S'second'
p850
S'NNS'
p851
S'I-NP'
p852
g5
tp853
a(g271
g271
g271
g5
g5
tp854
a(S'p'
p855
g855
S'NN'
p856
S'B-NP'
p857
g5
tp858
a(S'='
p859
g859
S'SYM'
p860
S'B-VP'
p861
g5
tp862
a(S'0.174'
p863
S'0.174'
p864
S'CD'
p865
S'B-NP'
p866
g5
tp867
a(g278
g278
g278
g5
g5
tp868
a(g62
g62
g62
g5
g5
tp869
a(S'For'
p870
S'For'
p871
S'IN'
p872
S'B-PP'
p873
g5
tp874
a(S'total'
p875
S'total'
p876
S'JJ'
p877
S'B-NP'
p878
g5
tp879
a(S'stone'
p880
S'stone'
p881
S'NN'
p882
S'I-NP'
p883
g5
tp884
a(S'capture'
p885
S'capture'
p886
S'NN'
p887
S'I-NP'
p888
g5
tp889
a(g264
g264
g264
g5
g5
tp890
a(S'all'
p891
S'all'
p892
S'DT'
p893
S'B-NP'
p894
g5
tp895
a(S'sizes'
p896
S'size'
p897
S'NNS'
p898
S'I-NP'
p899
g5
tp900
a(g278
g278
g278
g5
g5
tp901
a(S'the'
p902
S'the'
p903
S'DT'
p904
S'B-NP'
p905
g5
tp906
a(S'Sacred'
p907
S'Sacred'
p908
S'NNP'
p909
S'I-NP'
p910
g5
tp911
a(S'Heart'
p912
S'Heart'
p913
S'NNP'
p914
S'I-NP'
p915
g5
tp916
a(S'Halo'
p917
S'Halo'
p918
S'NNP'
p919
S'I-NP'
p920
g5
tp921
a(S'resulted'
p922
S'result'
p923
S'VBD'
p924
S'B-VP'
p925
g5
tp926
a(S'in'
p927
S'in'
p928
S'IN'
p929
S'B-PP'
p930
g5
tp931
a(S'the'
p932
S'the'
p933
S'DT'
p934
S'B-NP'
p935
g5
tp936
a(S'most'
p937
S'most'
p938
S'RBS'
p939
S'I-NP'
p940
g5
tp941
a(S'rapid'
p942
S'rapid'
p943
S'JJ'
p944
S'I-NP'
p945
g5
tp946
a(S'stone'
p947
S'stone'
p948
S'NN'
p949
S'I-NP'
p950
g5
tp951
a(S'extraction'
p952
S'extraction'
p953
S'NN'
p954
S'I-NP'
p955
g5
tp956
a(g264
g264
g264
g5
g5
tp957
a(S'17'
p958
S'17'
p959
S'CD'
p960
S'B-NP'
p961
g5
tp962
a(S'+/-'
p963
S'+/-'
p964
S'CC'
p965
S'I-NP'
p966
g5
tp967
a(S'14'
p968
S'14'
p969
S'CD'
p970
S'I-NP'
p971
g5
tp972
a(S'seconds'
p973
S'second'
p974
S'NNS'
p975
S'I-NP'
p976
g5
tp977
a(g278
g278
g278
g5
g5
tp978
a(S'by'
p979
S'by'
p980
S'IN'
p981
S'B-PP'
p982
g5
tp983
a(S'novices'
p984
S'novice'
p985
S'NNS'
p986
S'B-NP'
p987
g5
tp988
a(S'and'
p989
S'and'
p990
S'CC'
p991
S'I-NP'
p992
g5
tp993
a(S'experts'
p994
S'expert'
p995
S'NNS'
p996
S'I-NP'
p997
g5
tp998
a(g271
g271
g271
g5
g5
tp999
a(S'while'
p1000
S'while'
p1001
S'IN'
p1002
S'B-SBAR'
p1003
g5
tp1004
a(S'the'
p1005
S'the'
p1006
S'DT'
p1007
S'B-NP'
p1008
g5
tp1009
a(S'Sur-Catch'
p1010
S'Sur-Catch'
p1011
S'JJ'
p1012
S'I-NP'
p1013
g5
tp1014
a(S'NT'
p1015
S'NT'
p1016
S'NN'
p1017
S'I-NP'
p1018
g5
tp1019
a(S'resulted'
p1020
S'result'
p1021
S'VBD'
p1022
S'B-VP'
p1023
g5
tp1024
a(S'in'
p1025
S'in'
p1026
S'IN'
p1027
S'B-PP'
p1028
g5
tp1029
a(S'the'
p1030
S'the'
p1031
S'DT'
p1032
S'B-NP'
p1033
g5
tp1034
a(S'slowest'
p1035
S'slow'
p1036
S'JJS'
p1037
S'I-NP'
p1038
g5
tp1039
a(S'stone'
p1040
S'stone'
p1041
S'NN'
p1042
S'I-NP'
p1043
g5
tp1044
a(S'extraction'
p1045
S'extraction'
p1046
S'NN'
p1047
S'I-NP'
p1048
g5
tp1049
a(g264
g264
g264
g5
g5
tp1050
a(S'78'
p1051
S'78'
p1052
S'CD'
p1053
S'B-NP'
p1054
g5
tp1055
a(S'+/-'
p1056
S'+/-'
p1057
S'CC'
p1058
S'I-NP'
p1059
g5
tp1060
a(S'90'
p1061
S'90'
p1062
S'CD'
p1063
S'I-NP'
p1064
g5
tp1065
a(g271
g271
g271
g5
g5
tp1066
a(S'seconds'
p1067
S'second'
p1068
S'NNS'
p1069
S'B-NP'
p1070
g5
tp1071
a(g271
g271
g271
g5
g5
tp1072
a(g855
g855
S'NN'
p1073
S'B-NP'
p1074
g5
tp1075
a(g859
g859
S'SYM'
p1076
S'B-VP'
p1077
g5
tp1078
a(S'0.001'
p1079
S'0.001'
p1080
S'CD'
p1081
S'B-NP'
p1082
g5
tp1083
a(g278
g278
g278
g5
g5
tp1084
a(g62
g62
g62
g5
g5
tp1085
a(S'The'
p1086
S'The'
p1087
S'DT'
p1088
S'B-NP'
p1089
g5
tp1090
a(S'Halo'
p1091
S'Halo'
p1092
S'NNP'
p1093
S'I-NP'
p1094
g5
tp1095
a(g264
g264
g264
g5
g5
tp1096
a(S'14'
p1097
S'14'
p1098
S'CD'
p1099
S'B-NP'
p1100
g5
tp1101
a(S'+/-'
p1102
S'+/-'
p1103
S'CC'
p1104
S'I-NP'
p1105
g5
tp1106
a(g154
g154
S'CD'
p1107
S'I-NP'
p1108
g5
tp1109
a(S'seconds'
p1110
S'second'
p1111
S'NNS'
p1112
S'I-NP'
p1113
g5
tp1114
a(g278
g278
g278
g5
g5
tp1115
a(S'and'
p1116
S'and'
p1117
S'CC'
p1118
g5
g5
tp1119
a(S'Vantage'
p1120
S'Vantage'
p1121
S'NN'
p1122
S'B-NP'
p1123
g5
tp1124
a(g264
g264
g264
g5
g5
tp1125
a(S'19'
p1126
S'19'
p1127
S'CD'
p1128
S'B-NP'
p1129
g5
tp1130
a(S'+/-'
p1131
S'+/-'
p1132
S'CC'
p1133
S'I-NP'
p1134
g5
tp1135
a(S'12'
p1136
S'12'
p1137
S'CD'
p1138
S'I-NP'
p1139
g5
tp1140
a(S'seconds'
p1141
S'second'
p1142
S'NNS'
p1143
S'I-NP'
p1144
g5
tp1145
a(g278
g278
g278
g5
g5
tp1146
a(S'baskets'
p1147
S'basket'
p1148
S'NNS'
p1149
S'B-NP'
p1150
g5
tp1151
a(S'were'
p1152
S'be'
p1153
S'VBD'
p1154
S'B-VP'
p1155
g5
tp1156
a(S'significantly'
p1157
S'significantly'
p1158
S'RB'
p1159
S'B-ADJP'
p1160
g5
tp1161
a(S'faster'
p1162
S'fast'
p1163
S'JJR'
p1164
S'I-ADJP'
p1165
g5
tp1166
a(S'for'
p1167
S'for'
p1168
S'IN'
p1169
S'B-PP'
p1170
g5
tp1171
a(g465
g465
S'CD'
p1172
S'B-NP'
p1173
g5
tp1174
a(S'mm'
p1175
S'mm'
p1176
S'NN'
p1177
S'I-NP'
p1178
g5
tp1179
a(S'calculi'
p1180
S'calculus'
p1181
S'NNS'
p1182
S'I-NP'
p1183
g5
tp1184
a(S'than'
p1185
S'than'
p1186
S'IN'
p1187
S'B-PP'
p1188
g5
tp1189
a(S'the'
p1190
S'the'
p1191
S'DT'
p1192
S'B-NP'
p1193
g5
tp1194
a(S'N-Circle'
p1195
S'N-Circle'
p1196
S'NN'
p1197
S'I-NP'
p1198
g5
tp1199
a(g264
g264
g264
g5
g5
tp1200
a(S'73'
p1201
S'73'
p1202
S'CD'
p1203
S'B-NP'
p1204
g5
tp1205
a(S'+/-'
p1206
S'+/-'
p1207
S'CC'
p1208
S'I-NP'
p1209
g5
tp1210
a(S'60'
p1211
S'60'
p1212
S'CD'
p1213
S'I-NP'
p1214
g5
tp1215
a(S'seconds'
p1216
S'second'
p1217
S'NNS'
p1218
S'I-NP'
p1219
g5
tp1220
a(g271
g271
g271
g5
g5
tp1221
a(g855
g855
S'NN'
p1222
S'B-NP'
p1223
g5
tp1224
a(g859
g859
S'SYM'
p1225
S'B-VP'
p1226
g5
tp1227
a(S'0.006'
p1228
S'0.006'
p1229
S'CD'
p1230
S'B-NP'
p1231
g5
tp1232
a(g278
g278
g278
g5
g5
tp1233
a(g271
g271
g271
g5
g5
tp1234
a(S'Sur-Catch'
p1235
S'Sur-Catch'
p1236
S'JJ'
p1237
S'B-ADJP'
p1238
g5
tp1239
a(g264
g264
g264
g5
g5
tp1240
a(S'169'
p1241
S'169'
p1242
S'CD'
p1243
S'B-NP'
p1244
g5
tp1245
a(S'+/-'
p1246
S'+/-'
p1247
S'CC'
p1248
S'I-NP'
p1249
g5
tp1250
a(S'85'
p1251
S'85'
p1252
S'CD'
p1253
S'I-NP'
p1254
g5
tp1255
a(S'seconds'
p1256
S'second'
p1257
S'NNS'
p1258
S'I-NP'
p1259
g5
tp1260
a(g271
g271
g271
g5
g5
tp1261
a(g855
g855
S'NN'
p1262
S'B-NP'
p1263
g5
tp1264
a(g859
g859
S'SYM'
p1265
S'B-VP'
p1266
g5
tp1267
a(S'0.0005'
p1268
S'0.0005'
p1269
S'CD'
p1270
S'B-NP'
p1271
g5
tp1272
a(g278
g278
g278
g5
g5
tp1273
a(S'and'
p1274
S'and'
p1275
S'CC'
p1276
g5
g5
tp1277
a(S'Dimension'
p1278
S'Dimension'
p1279
S'NN'
p1280
S'B-NP'
p1281
g5
tp1282
a(g264
g264
g264
g5
g5
tp1283
a(S'73'
p1284
S'73'
p1285
S'CD'
p1286
S'B-NP'
p1287
g5
tp1288
a(S'+/-'
p1289
S'+/-'
p1290
S'CC'
p1291
S'I-NP'
p1292
g5
tp1293
a(S'70'
p1294
S'70'
p1295
S'CD'
p1296
S'I-NP'
p1297
g5
tp1298
a(S'seconds'
p1299
S'second'
p1300
S'NNS'
p1301
S'I-NP'
p1302
g5
tp1303
a(g271
g271
g271
g5
g5
tp1304
a(g855
g855
S'NN'
p1305
S'B-NP'
p1306
g5
tp1307
a(g859
g859
S'SYM'
p1308
S'B-VP'
p1309
g5
tp1310
a(S'0.017'
p1311
S'0.017'
p1312
S'CD'
p1313
S'B-NP'
p1314
g5
tp1315
a(g278
g278
g278
g5
g5
tp1316
a(g62
g62
g62
g5
g5
tp1317
a(S'The'
p1318
S'The'
p1319
S'DT'
p1320
S'B-NP'
p1321
g5
tp1322
a(S'Zerotip'
p1323
S'Zerotip'
p1324
S'NNP'
p1325
S'I-NP'
p1326
g5
tp1327
a(S'functioned'
p1328
S'function'
p1329
S'VBD'
p1330
S'B-VP'
p1331
g5
tp1332
a(S'well'
p1333
S'well'
p1334
S'RB'
p1335
S'B-ADVP'
p1336
g5
tp1337
a(S'for'
p1338
S'for'
p1339
S'IN'
p1340
S'B-PP'
p1341
g5
tp1342
a(g465
g465
S'CD'
p1343
S'B-NP'
p1344
g5
tp1345
a(S'mm'
p1346
S'mm'
p1347
S'NN'
p1348
S'I-NP'
p1349
g5
tp1350
a(S'calculi'
p1351
S'calculus'
p1352
S'NNS'
p1353
S'I-NP'
p1354
g5
tp1355
a(S'in'
p1356
S'in'
p1357
S'IN'
p1358
S'B-PP'
p1359
g5
tp1360
a(S'the'
p1361
S'the'
p1362
S'DT'
p1363
S'B-NP'
p1364
g5
tp1365
a(S'hands'
p1366
S'hand'
p1367
S'NNS'
p1368
S'I-NP'
p1369
g5
tp1370
a(S'of'
p1371
S'of'
p1372
S'IN'
p1373
S'B-PP'
p1374
g5
tp1375
a(S'expert'
p1376
S'expert'
p1377
S'NN'
p1378
S'B-NP'
p1379
g5
tp1380
a(S'operators'
p1381
S'operator'
p1382
S'NNS'
p1383
S'I-NP'
p1384
g5
tp1385
a(g264
g264
g264
g5
g5
tp1386
a(S'15'
p1387
S'15'
p1388
S'CD'
p1389
S'B-NP'
p1390
g5
tp1391
a(S'+/-'
p1392
S'+/-'
p1393
S'CC'
p1394
S'I-NP'
p1395
g5
tp1396
a(g154
g154
S'CD'
p1397
S'I-NP'
p1398
g5
tp1399
a(S'seconds'
p1400
S'second'
p1401
S'NNS'
p1402
S'I-NP'
p1403
g5
tp1404
a(g278
g278
g278
g5
g5
tp1405
a(S'but'
p1406
S'but'
p1407
S'CC'
p1408
S'B-NP'
p1409
g5
tp1410
a(S'not'
p1411
S'not'
p1412
S'RB'
p1413
S'I-NP'
p1414
g5
tp1415
a(S'novice'
p1416
S'novice'
p1417
S'NN'
p1418
S'B-NP'
p1419
g5
tp1420
a(S'operators'
p1421
S'operator'
p1422
S'NNS'
p1423
S'I-NP'
p1424
g5
tp1425
a(g264
g264
g264
g5
g5
tp1426
a(S'94'
p1427
S'94'
p1428
S'CD'
p1429
S'B-NP'
p1430
g5
tp1431
a(S'+/-'
p1432
S'+/-'
p1433
S'CC'
p1434
S'I-NP'
p1435
g5
tp1436
a(S'95'
p1437
S'95'
p1438
S'CD'
p1439
S'I-NP'
p1440
g5
tp1441
a(S'seconds'
p1442
S'second'
p1443
S'NNS'
p1444
S'I-NP'
p1445
g5
tp1446
a(g278
g278
g278
g5
g5
tp1447
a(g62
g62
g62
g5
g5
tp1448
a(S'The'
p1449
S'The'
p1450
S'DT'
p1451
S'B-NP'
p1452
g5
tp1453
a(S'Sur-Catch'
p1454
S'Sur-Catch'
p1455
S'JJ'
p1456
S'I-NP'
p1457
g5
tp1458
a(S'NT'
p1459
S'NT'
p1460
S'NN'
p1461
S'I-NP'
p1462
g5
tp1463
a(S'was'
p1464
S'be'
p1465
S'VBD'
p1466
S'B-VP'
p1467
g5
tp1468
a(S'significantly'
p1469
S'significantly'
p1470
S'RB'
p1471
S'B-ADJP'
p1472
g5
tp1473
a(S'slower'
p1474
S'slow'
p1475
S'JJR'
p1476
S'I-ADJP'
p1477
g5
tp1478
a(S'for'
p1479
S'for'
p1480
S'IN'
p1481
S'B-PP'
p1482
g5
tp1483
a(g465
g465
S'CD'
p1484
S'B-NP'
p1485
g5
tp1486
a(S'mm'
p1487
S'mm'
p1488
S'NN'
p1489
S'I-NP'
p1490
g5
tp1491
a(S'calculi'
p1492
S'calculus'
p1493
S'NNS'
p1494
S'I-NP'
p1495
g5
tp1496
a(S'than'
p1497
S'than'
p1498
S'IN'
p1499
S'B-PP'
p1500
g5
tp1501
a(S'the'
p1502
S'the'
p1503
S'DT'
p1504
S'B-NP'
p1505
g5
tp1506
a(S'N-Circle'
p1507
S'N-Circle'
p1508
S'NN'
p1509
S'I-NP'
p1510
g5
tp1511
a(g264
g264
g264
g5
g5
tp1512
a(g855
g855
S'NN'
p1513
S'B-NP'
p1514
g5
tp1515
a(g859
g859
S'SYM'
p1516
S'B-VP'
p1517
g5
tp1518
a(S'0.01'
p1519
S'0.01'
p1520
S'CD'
p1521
S'B-NP'
p1522
g5
tp1523
a(g278
g278
g278
g5
g5
tp1524
a(g271
g271
g271
g5
g5
tp1525
a(S'Dimension'
p1526
S'Dimension'
p1527
S'NN'
p1528
S'B-NP'
p1529
g5
tp1530
a(g264
g264
g264
g5
g5
tp1531
a(g855
g855
S'NN'
p1532
S'B-NP'
p1533
g5
tp1534
a(S'=.03'
p1535
S'=.03'
p1536
S'CD'
p1537
S'I-NP'
p1538
g5
tp1539
a(g278
g278
g278
g5
g5
tp1540
a(g271
g271
g271
g5
g5
tp1541
a(S'Halo'
p1542
S'Halo'
p1543
S'NN'
p1544
S'B-NP'
p1545
g5
tp1546
a(g264
g264
g264
g5
g5
tp1547
a(g855
g855
S'NN'
p1548
S'B-NP'
p1549
g5
tp1550
a(S'=.0005'
p1551
S'=.0005'
p1552
S'CD'
p1553
S'I-NP'
p1554
g5
tp1555
a(g278
g278
g278
g5
g5
tp1556
a(g271
g271
g271
g5
g5
tp1557
a(S'Vantage'
p1558
S'Vantage'
p1559
S'NN'
p1560
S'B-NP'
p1561
g5
tp1562
a(g264
g264
g264
g5
g5
tp1563
a(g855
g855
S'NN'
p1564
S'B-NP'
p1565
g5
tp1566
a(S'=.001'
p1567
S'=.001'
p1568
S'CD'
p1569
S'I-NP'
p1570
g5
tp1571
a(g278
g278
g278
g5
g5
tp1572
a(S'and'
p1573
S'and'
p1574
S'CC'
p1575
g5
g5
tp1576
a(S'Zerotip'
p1577
S'Zerotip'
p1578
S'NN'
p1579
S'B-NP'
p1580
g5
tp1581
a(g264
g264
g264
g5
g5
tp1582
a(g855
g855
S'NN'
p1583
S'B-NP'
p1584
g5
tp1585
a(S'=.002'
p1586
S'=.002'
p1587
S'NN'
p1588
S'I-NP'
p1589
g5
tp1590
a(g278
g278
g278
g5
g5
tp1591
a(g62
g62
g62
g5
g5
tp1592
a(S'For'
p1593
S'For'
p1594
S'IN'
p1595
S'B-PP'
p1596
g5
tp1597
a(g471
g471
S'CD'
p1598
S'B-NP'
p1599
g5
tp1600
a(S'mm'
p1601
S'mm'
p1602
S'NN'
p1603
S'I-NP'
p1604
g5
tp1605
a(S'calculi'
p1606
S'calculus'
p1607
S'NNS'
p1608
S'I-NP'
p1609
g5
tp1610
a(S'the'
p1611
S'the'
p1612
S'DT'
p1613
S'B-NP'
p1614
g5
tp1615
a(S'Halo'
p1616
S'Halo'
p1617
S'NNP'
p1618
S'I-NP'
p1619
g5
tp1620
a(S'was'
p1621
S'be'
p1622
S'VBD'
p1623
S'B-VP'
p1624
g5
tp1625
a(S'superior'
p1626
S'superior'
p1627
S'JJ'
p1628
S'B-ADJP'
p1629
g5
tp1630
a(g264
g264
g264
g5
g5
tp1631
a(S'12'
p1632
S'12'
p1633
S'CD'
p1634
S'B-NP'
p1635
g5
tp1636
a(S'+/-'
p1637
S'+/-'
p1638
S'CC'
p1639
S'I-NP'
p1640
g5
tp1641
a(g480
g480
S'CD'
p1642
S'I-NP'
p1643
g5
tp1644
a(S'seconds'
p1645
S'second'
p1646
S'NNS'
p1647
S'I-NP'
p1648
g5
tp1649
a(g278
g278
g278
g5
g5
tp1650
a(g271
g271
g271
g5
g5
tp1651
a(S'while'
p1652
S'while'
p1653
S'IN'
p1654
S'B-SBAR'
p1655
g5
tp1656
a(S'the'
p1657
S'the'
p1658
S'DT'
p1659
S'B-NP'
p1660
g5
tp1661
a(S'Zerotip'
p1662
S'Zerotip'
p1663
S'NN'
p1664
S'I-NP'
p1665
g5
tp1666
a(S'were'
p1667
S'be'
p1668
S'VBD'
p1669
S'B-VP'
p1670
g5
tp1671
a(S'superior'
p1672
S'superior'
p1673
S'JJ'
p1674
S'B-ADJP'
p1675
g5
tp1676
a(S'for'
p1677
S'for'
p1678
S'IN'
p1679
S'B-PP'
p1680
g5
tp1681
a(g480
g480
S'CD'
p1682
S'B-NP'
p1683
g5
tp1684
a(S'mm'
p1685
S'mm'
p1686
S'NN'
p1687
S'I-NP'
p1688
g5
tp1689
a(S'calculi'
p1690
S'calculus'
p1691
S'NNS'
p1692
S'I-NP'
p1693
g5
tp1694
a(g264
g264
g264
g5
g5
tp1695
a(g480
g480
S'CD'
p1696
S'B-NP'
p1697
g5
tp1698
a(S'+/-'
p1699
S'+/-'
p1700
S'CC'
p1701
S'I-NP'
p1702
g5
tp1703
a(g404
g404
S'CD'
p1704
S'I-NP'
p1705
g5
tp1706
a(S'seconds'
p1707
S'second'
p1708
S'NNS'
p1709
S'I-NP'
p1710
g5
tp1711
a(g278
g278
g278
g5
g5
tp1712
a(S'compared'
p1713
S'compare'
p1714
S'VBN'
p1715
S'B-PP'
p1716
g5
tp1717
a(S'to'
p1718
S'to'
p1719
S'TO'
p1720
S'B-PP'
p1721
g5
tp1722
a(S'the'
p1723
S'the'
p1724
S'DT'
p1725
S'B-NP'
p1726
g5
tp1727
a(S'N-Circle'
p1728
S'N-Circle'
p1729
S'NN'
p1730
S'I-NP'
p1731
g5
tp1732
a(g264
g264
g264
g5
g5
tp1733
a(S'23'
p1734
S'23'
p1735
S'CD'
p1736
S'B-NP'
p1737
g5
tp1738
a(S'+/-'
p1739
S'+/-'
p1740
S'CC'
p1741
S'I-NP'
p1742
g5
tp1743
a(S'28'
p1744
S'28'
p1745
S'CD'
p1746
S'I-NP'
p1747
g5
tp1748
a(S'seconds'
p1749
S'second'
p1750
S'NNS'
p1751
S'I-NP'
p1752
g5
tp1753
a(g271
g271
g271
g5
g5
tp1754
a(g855
g855
S'NN'
p1755
S'B-NP'
p1756
g5
tp1757
a(g859
g859
S'SYM'
p1758
S'B-VP'
p1759
g5
tp1760
a(S'0.026'
p1761
S'0.026'
p1762
S'CD'
p1763
S'B-NP'
p1764
g5
tp1765
a(g278
g278
g278
g5
g5
tp1766
a(g271
g271
g271
g5
g5
tp1767
a(S'Halo'
p1768
S'Halo'
p1769
S'NNP'
p1770
S'B-NP'
p1771
g5
tp1772
a(g264
g264
g264
g5
g5
tp1773
a(S'26'
p1774
S'26'
p1775
S'CD'
p1776
S'B-NP'
p1777
g5
tp1778
a(S'+/-'
p1779
S'+/-'
p1780
S'CC'
p1781
S'I-NP'
p1782
g5
tp1783
a(S'18'
p1784
S'18'
p1785
S'CD'
p1786
S'I-NP'
p1787
g5
tp1788
a(S'seconds'
p1789
S'second'
p1790
S'NNS'
p1791
S'I-NP'
p1792
g5
tp1793
a(g271
g271
g271
g5
g5
tp1794
a(g855
g855
S'NN'
p1795
S'B-NP'
p1796
g5
tp1797
a(g859
g859
S'SYM'
p1798
S'B-VP'
p1799
g5
tp1800
a(S'0.021'
p1801
S'0.021'
p1802
S'CD'
p1803
S'B-NP'
p1804
g5
tp1805
a(g278
g278
g278
g5
g5
tp1806
a(S'and'
p1807
S'and'
p1808
S'CC'
p1809
g5
g5
tp1810
a(S'Vantage'
p1811
S'Vantage'
p1812
S'NN'
p1813
S'B-NP'
p1814
g5
tp1815
a(g264
g264
g264
g5
g5
tp1816
a(S'23'
p1817
S'23'
p1818
S'CD'
p1819
S'B-NP'
p1820
g5
tp1821
a(S'+/-'
p1822
S'+/-'
p1823
S'CC'
p1824
S'I-NP'
p1825
g5
tp1826
a(S'15'
p1827
S'15'
p1828
S'CD'
p1829
S'I-NP'
p1830
g5
tp1831
a(S'seconds'
p1832
S'second'
p1833
S'NNS'
p1834
S'I-NP'
p1835
g5
tp1836
a(g271
g271
g271
g5
g5
tp1837
a(g855
g855
S'NN'
p1838
S'B-NP'
p1839
g5
tp1840
a(g859
g859
S'SYM'
p1841
S'B-VP'
p1842
g5
tp1843
a(S'0.006'
p1844
S'0.006'
p1845
S'CD'
p1846
S'B-NP'
p1847
g5
tp1848
a(g278
g278
g278
g5
g5
tp1849
a(g62
g62
g62
g5
g5
tp1850
a(S'CONCLUSIONS'
p1851
S'CONCLUSIONS'
p1852
S'NNS'
p1853
S'B-NP'
p1854
g5
tp1855
a(S'The'
p1856
S'The'
p1857
S'DT'
p1858
S'B-NP'
p1859
g5
tp1860
a(S'Sacred'
p1861
S'Sacred'
p1862
S'NNP'
p1863
S'I-NP'
p1864
g5
tp1865
a(S'Heart'
p1866
S'Heart'
p1867
S'NNP'
p1868
S'I-NP'
p1869
g5
tp1870
a(S'Halo'
p1871
S'Halo'
p1872
S'NNP'
p1873
S'I-NP'
p1874
g5
tp1875
a(S'and'
p1876
S'and'
p1877
S'CC'
p1878
S'I-NP'
p1879
g5
tp1880
a(S'Vantage'
p1881
S'Vantage'
p1882
S'NNP'
p1883
S'I-NP'
p1884
g5
tp1885
a(S'baskets'
p1886
S'basket'
p1887
S'NNS'
p1888
S'I-NP'
p1889
g5
tp1890
a(S'resulted'
p1891
S'result'
p1892
S'VBD'
p1893
S'B-VP'
p1894
g5
tp1895
a(S'in'
p1896
S'in'
p1897
S'IN'
p1898
S'B-PP'
p1899
g5
tp1900
a(S'the'
p1901
S'the'
p1902
S'DT'
p1903
S'B-NP'
p1904
g5
tp1905
a(S'most'
p1906
S'most'
p1907
S'RBS'
p1908
S'I-NP'
p1909
g5
tp1910
a(S'expeditious'
p1911
S'expeditious'
p1912
S'JJ'
p1913
S'I-NP'
p1914
g5
tp1915
a(S'stone'
p1916
S'stone'
p1917
S'NN'
p1918
S'I-NP'
p1919
g5
tp1920
a(S'extraction'
p1921
S'extraction'
p1922
S'NN'
p1923
S'I-NP'
p1924
g5
tp1925
a(g271
g271
g271
g5
g5
tp1926
a(S'especially'
p1927
S'especially'
p1928
S'RB'
p1929
S'B-ADVP'
p1930
g5
tp1931
a(S'for'
p1932
S'for'
p1933
S'IN'
p1934
S'B-PP'
p1935
g5
tp1936
a(g465
g465
S'CD'
p1937
S'B-NP'
p1938
g5
tp1939
a(S'to'
p1940
S'to'
p1941
S'TO'
p1942
S'I-NP'
p1943
g5
tp1944
a(g471
g471
S'CD'
p1945
S'I-NP'
p1946
g5
tp1947
a(S'mm'
p1948
S'mm'
p1949
S'NN'
p1950
S'I-NP'
p1951
g5
tp1952
a(S'calculi'
p1953
S'calculus'
p1954
S'NNS'
p1955
S'I-NP'
p1956
g5
tp1957
a(S'while'
p1958
S'while'
p1959
S'IN'
p1960
S'B-SBAR'
p1961
g5
tp1962
a(S'the'
p1963
S'the'
p1964
S'DT'
p1965
S'B-NP'
p1966
g5
tp1967
a(S'Microvasive'
p1968
S'Microvasive'
p1969
S'JJ'
p1970
S'I-NP'
p1971
S'B-protein'
p1972
tp1973
a(S'Zerotip'
p1974
S'Zerotip'
p1975
S'NN'
p1976
S'I-NP'
p1977
S'I-protein'
p1978
tp1979
a(S'was'
p1980
S'be'
p1981
S'VBD'
p1982
S'B-VP'
p1983
g5
tp1984
a(S'optimal'
p1985
S'optimal'
p1986
S'JJ'
p1987
S'B-ADJP'
p1988
g5
tp1989
a(S'for'
p1990
S'for'
p1991
S'IN'
p1992
S'B-PP'
p1993
g5
tp1994
a(g480
g480
S'CD'
p1995
S'B-NP'
p1996
g5
tp1997
a(S'mm'
p1998
S'mm'
p1999
S'NN'
p2000
S'I-NP'
p2001
g5
tp2002
a(S'calculi.'
p2003
S'calculi.'
p2004
S'NN'
p2005
S'I-NP'
p2006
g5
tp2007
a(S'The'
p2008
S'The'
p2009
S'DT'
p2010
S'B-NP'
p2011
g5
tp2012
a(S'Sur-Catch'
p2013
S'Sur-Catch'
p2014
S'NNP'
p2015
S'I-NP'
p2016
g5
tp2017
a(S'NT'
p2018
S'NT'
p2019
S'NNP'
p2020
S'I-NP'
p2021
g5
tp2022
a(S'had'
p2023
S'have'
p2024
S'VBD'
p2025
S'B-VP'
p2026
g5
tp2027
a(S'the'
p2028
S'the'
p2029
S'DT'
p2030
S'B-NP'
p2031
g5
tp2032
a(S'slowest'
p2033
S'slow'
p2034
S'JJS'
p2035
S'I-NP'
p2036
g5
tp2037
a(S'stone'
p2038
S'stone'
p2039
S'NN'
p2040
S'I-NP'
p2041
g5
tp2042
a(S'capture'
p2043
S'capture'
p2044
S'NN'
p2045
S'I-NP'
p2046
g5
tp2047
a(S'rate'
p2048
S'rate'
p2049
S'NN'
p2050
S'I-NP'
p2051
g5
tp2052
a(S'for'
p2053
S'for'
p2054
S'IN'
p2055
S'B-PP'
p2056
g5
tp2057
a(S'all'
p2058
S'all'
p2059
S'DT'
p2060
S'B-NP'
p2061
g5
tp2062
a(S'stone'
p2063
S'stone'
p2064
S'NN'
p2065
S'I-NP'
p2066
g5
tp2067
a(S'sizes.'
p2068
S'sizes.'
p2069
S'NN'
p2070
S'I-NP'
p2071
g5
tp2072
a(S'Caliceal'
p2073
S'Caliceal'
p2074
S'NN'
p2075
S'I-NP'
p2076
g5
tp2077
a(S'models'
p2078
S'model'
p2079
S'NNS'
p2080
S'I-NP'
p2081
g5
tp2082
a(S'of'
p2083
S'of'
p2084
S'IN'
p2085
S'B-PP'
p2086
g5
tp2087
a(S'stone'
p2088
S'stone'
p2089
S'NN'
p2090
S'B-NP'
p2091
g5
tp2092
a(S'basketing'
p2093
S'basketing'
p2094
S'NN'
p2095
S'I-NP'
p2096
g5
tp2097
a(S'may'
p2098
S'may'
p2099
S'MD'
p2100
S'B-VP'
p2101
g5
tp2102
a(S'be'
p2103
S'be'
p2104
S'VB'
p2105
S'I-VP'
p2106
g5
tp2107
a(S'useful'
p2108
S'useful'
p2109
S'JJ'
p2110
S'B-ADJP'
p2111
g5
tp2112
a(S'to'
p2113
S'to'
p2114
S'TO'
p2115
S'B-VP'
p2116
g5
tp2117
a(S'train'
p2118
S'train'
p2119
S'VB'
p2120
S'I-VP'
p2121
g5
tp2122
a(S'novice'
p2123
S'novice'
p2124
S'NN'
p2125
S'B-NP'
p2126
g5
tp2127
a(S'urology'
p2128
S'urology'
p2129
S'NN'
p2130
S'I-NP'
p2131
g5
tp2132
a(S'residents'
p2133
S'resident'
p2134
S'NNS'
p2135
S'I-NP'
p2136
g5
tp2137
a(S'and'
p2138
S'and'
p2139
S'CC'
p2140
g5
g5
tp2141
a(S'nursing'
p2142
S'nursing'
p2143
S'NN'
p2144
S'B-NP'
p2145
g5
tp2146
a(S'assistants'
p2147
S'assistant'
p2148
S'NNS'
p2149
S'I-NP'
p2150
g5
tp2151
a(g62
g62
g62
g5
g5
tp2152
a.