(lp0
(S'Pharmacokinetics'
p1
S'Pharmacokinetic'
p2
S'NNS'
p3
S'B-NP'
p4
S'O'
p5
tp6
a(S'of'
p7
S'of'
p8
S'IN'
p9
S'B-PP'
p10
g5
tp11
a(S'pregabalin'
p12
S'pregabalin'
p13
S'NN'
p14
S'B-NP'
p15
S'B-protein'
p16
tp17
a(S'controlled-release'
p18
S'controlled-release'
p19
S'NN'
p20
S'I-NP'
p21
S'I-protein'
p22
tp23
a(S'in'
p24
S'in'
p25
S'IN'
p26
S'B-PP'
p27
g5
tp28
a(S'healthy'
p29
S'healthy'
p30
S'JJ'
p31
S'B-NP'
p32
g5
tp33
a(S'volunteers'
p34
S'volunteer'
p35
S'NNS'
p36
S'I-NP'
p37
g5
tp38
a(S':'
p39
g39
g39
g5
g5
tp40
a(S'effect'
p41
S'effect'
p42
S'NN'
p43
S'B-NP'
p44
g5
tp45
a(S'of'
p46
S'of'
p47
S'IN'
p48
S'B-PP'
p49
g5
tp50
a(S'food'
p51
S'food'
p52
S'NN'
p53
S'B-NP'
p54
g5
tp55
a(S'in'
p56
S'in'
p57
S'IN'
p58
S'B-PP'
p59
g5
tp60
a(S'five'
p61
S'five'
p62
S'CD'
p63
S'B-NP'
p64
g5
tp65
a(S'single-dose'
p66
S'single-dose'
p67
S'JJ'
p68
S'I-NP'
p69
g5
tp70
a(S','
p71
g71
g71
S'I-NP'
p72
g5
tp73
a(S'randomized'
p74
S'randomize'
p75
S'VBN'
p76
S'I-NP'
p77
g5
tp78
a(g71
g71
g71
S'I-NP'
p79
g5
tp80
a(S'clinical'
p81
S'clinical'
p82
S'JJ'
p83
S'I-NP'
p84
g5
tp85
a(S'pharmacology'
p86
S'pharmacology'
p87
S'NN'
p88
S'I-NP'
p89
g5
tp90
a(S'studies'
p91
S'study'
p92
S'NNS'
p93
S'I-NP'
p94
g5
tp95
a(S'.'
p96
g96
g96
g5
g5
tp97
a(S'BACKGROUND'
p98
S'BACKGROUND'
p99
S'NN'
p100
S'B-NP'
p101
g5
tp102
a(S'The'
p103
S'The'
p104
S'DT'
p105
S'B-NP'
p106
g5
tp107
a(S'pharmacokinetic'
p108
S'pharmacokinetic'
p109
S'JJ'
p110
S'I-NP'
p111
g5
tp112
a(S'properties'
p113
S'property'
p114
S'NNS'
p115
S'I-NP'
p116
g5
tp117
a(S'of'
p118
S'of'
p119
S'IN'
p120
S'B-PP'
p121
g5
tp122
a(S'the'
p123
S'the'
p124
S'DT'
p125
S'B-NP'
p126
g5
tp127
a(S'immediate-release'
p128
S'immediate-release'
p129
S'JJ'
p130
S'I-NP'
p131
g5
tp132
a(S'('
p133
g133
g133
g5
g5
tp134
a(S'IR'
p135
S'IR'
p136
S'NN'
p137
S'B-NP'
p138
S'B-protein'
p139
tp140
a(S')'
p141
g141
g141
g5
g5
tp142
a(S'and'
p143
S'and'
p144
S'CC'
p145
g5
g5
tp146
a(S'the'
p147
S'the'
p148
S'DT'
p149
S'B-NP'
p150
g5
tp151
a(S'recently'
p152
S'recently'
p153
S'RB'
p154
S'I-NP'
p155
g5
tp156
a(S'developed'
p157
S'develop'
p158
S'VBN'
p159
S'I-NP'
p160
g5
tp161
a(S'controlled-release'
p162
S'controlled-release'
p163
S'NN'
p164
S'I-NP'
p165
g5
tp166
a(g133
g133
g133
g5
g5
tp167
a(S'CR'
p168
S'CR'
p169
S'NN'
p170
S'B-NP'
p171
g5
tp172
a(g141
g141
g141
g5
g5
tp173
a(S'formulation'
p174
S'formulation'
p175
S'NN'
p176
S'B-NP'
p177
g5
tp178
a(S'of'
p179
S'of'
p180
S'IN'
p181
S'B-PP'
p182
g5
tp183
a(S'pregabalin'
p184
S'pregabalin'
p185
S'NN'
p186
S'B-NP'
p187
g5
tp188
a(S'are'
p189
S'be'
p190
S'VBP'
p191
S'B-VP'
p192
g5
tp193
a(S'dose'
p194
S'dose'
p195
S'NN'
p196
S'B-NP'
p197
g5
tp198
a(S'proportional.'
p199
S'proportional.'
p200
S'NN'
p201
S'I-NP'
p202
g5
tp203
a(S'Pregabalin'
p204
S'Pregabalin'
p205
S'NN'
p206
S'I-NP'
p207
g5
tp208
a(S'IR'
p209
S'IR'
p210
S'NN'
p211
S'I-NP'
p212
g5
tp213
a(S'can'
p214
S'can'
p215
S'MD'
p216
S'B-VP'
p217
g5
tp218
a(S'be'
p219
S'be'
p220
S'VB'
p221
S'I-VP'
p222
g5
tp223
a(S'taken'
p224
S'take'
p225
S'VBN'
p226
S'I-VP'
p227
g5
tp228
a(S'with'
p229
S'with'
p230
S'IN'
p231
S'B-PP'
p232
g5
tp233
a(S'or'
p234
S'or'
p235
S'CC'
p236
S'B-PP'
p237
g5
tp238
a(S'without'
p239
S'without'
p240
S'IN'
p241
S'I-PP'
p242
g5
tp243
a(S'food'
p244
S'food'
p245
S'NN'
p246
S'B-NP'
p247
g5
tp248
a(g96
g96
g96
g5
g5
tp249
a(S'OBJECTIVES'
p250
S'OBJECTIVES'
p251
S'NNS'
p252
S'B-NP'
p253
g5
tp254
a(S'This'
p255
S'This'
p256
S'DT'
p257
S'B-NP'
p258
g5
tp259
a(S'analysis'
p260
S'analysis'
p261
S'NN'
p262
S'I-NP'
p263
g5
tp264
a(S'characterizes'
p265
S'characterize'
p266
S'VBZ'
p267
S'B-VP'
p268
g5
tp269
a(S'the'
p270
S'the'
p271
S'DT'
p272
S'B-NP'
p273
g5
tp274
a(S'effect'
p275
S'effect'
p276
S'NN'
p277
S'I-NP'
p278
g5
tp279
a(S'of'
p280
S'of'
p281
S'IN'
p282
S'B-PP'
p283
g5
tp284
a(S'food'
p285
S'food'
p286
S'NN'
p287
S'B-NP'
p288
g5
tp289
a(S'on'
p290
S'on'
p291
S'IN'
p292
S'B-PP'
p293
g5
tp294
a(S'pregabalin'
p295
S'pregabalin'
p296
S'NN'
p297
S'B-NP'
p298
g5
tp299
a(S'CR.'
p300
S'CR.'
p301
g96
g5
g5
tp302
a(S'The'
p303
S'The'
p304
S'DT'
p305
S'B-NP'
p306
g5
tp307
a(S'objectives'
p308
S'objective'
p309
S'NNS'
p310
S'I-NP'
p311
g5
tp312
a(S'of'
p313
S'of'
p314
S'IN'
p315
S'B-PP'
p316
g5
tp317
a(S'this'
p318
S'this'
p319
S'DT'
p320
S'B-NP'
p321
g5
tp322
a(S'analysis'
p323
S'analysis'
p324
S'NN'
p325
S'I-NP'
p326
g5
tp327
a(S'were'
p328
S'be'
p329
S'VBD'
p330
S'B-VP'
p331
g5
tp332
a(g39
g39
g39
g5
g5
tp333
a(g133
g133
g133
S'B-LST'
p334
g5
tp335
a(S'1'
p336
g336
S'LS'
p337
S'I-LST'
p338
g5
tp339
a(g141
g141
g141
g5
g5
tp340
a(S'to'
p341
S'to'
p342
S'TO'
p343
S'B-VP'
p344
g5
tp345
a(S'evaluate'
p346
S'evaluate'
p347
S'VB'
p348
S'I-VP'
p349
g5
tp350
a(S'the'
p351
S'the'
p352
S'DT'
p353
S'B-NP'
p354
g5
tp355
a(S'effect'
p356
S'effect'
p357
S'NN'
p358
S'I-NP'
p359
g5
tp360
a(S'of'
p361
S'of'
p362
S'IN'
p363
S'B-PP'
p364
g5
tp365
a(S'administration'
p366
S'administration'
p367
S'NN'
p368
S'B-NP'
p369
g5
tp370
a(S'time'
p371
S'time'
p372
S'NN'
p373
S'I-NP'
p374
g5
tp375
a(S'and'
p376
S'and'
p377
S'CC'
p378
g5
g5
tp379
a(S'fat'
p380
S'fat'
p381
S'NN'
p382
S'B-NP'
p383
g5
tp384
a(S'or'
p385
S'or'
p386
S'CC'
p387
g5
g5
tp388
a(S'caloric'
p389
S'caloric'
p390
S'JJ'
p391
S'B-NP'
p392
g5
tp393
a(S'content'
p394
S'content'
p395
S'NN'
p396
S'I-NP'
p397
g5
tp398
a(S'of'
p399
S'of'
p400
S'IN'
p401
S'B-PP'
p402
g5
tp403
a(S'an'
p404
S'an'
p405
S'DT'
p406
S'B-NP'
p407
g5
tp408
a(S'accompanying'
p409
S'accompany'
p410
S'VBG'
p411
S'I-NP'
p412
g5
tp413
a(S'meal'
p414
S'meal'
p415
S'NN'
p416
S'I-NP'
p417
g5
tp418
a(S'on'
p419
S'on'
p420
S'IN'
p421
S'B-PP'
p422
g5
tp423
a(S'the'
p424
S'the'
p425
S'DT'
p426
S'B-NP'
p427
g5
tp428
a(S'pharmacokinetic'
p429
S'pharmacokinetic'
p430
S'JJ'
p431
S'I-NP'
p432
g5
tp433
a(S'properties'
p434
S'property'
p435
S'NNS'
p436
S'I-NP'
p437
g5
tp438
a(S'of'
p439
S'of'
p440
S'IN'
p441
S'B-PP'
p442
g5
tp443
a(S'a'
p444
g444
S'DT'
p445
S'B-NP'
p446
g5
tp447
a(S'single'
p448
S'single'
p449
S'JJ'
p450
S'I-NP'
p451
g5
tp452
a(S'dose'
p453
S'dose'
p454
S'NN'
p455
S'I-NP'
p456
g5
tp457
a(S'of'
p458
S'of'
p459
S'IN'
p460
S'B-PP'
p461
g5
tp462
a(S'pregabalin'
p463
S'pregabalin'
p464
S'NN'
p465
S'B-NP'
p466
g5
tp467
a(S'CR'
p468
S'CR'
p469
S'NN'
p470
S'I-NP'
p471
g5
tp472
a(g133
g133
g133
g5
g5
tp473
a(S'330\xc2\xa0mg'
p474
S'330\xc2\xa0mg'
p475
S'NN'
p476
S'B-NP'
p477
g5
tp478
a(g141
g141
g141
g5
g5
tp479
a(S'relative'
p480
S'relative'
p481
S'JJ'
p482
S'B-ADVP'
p483
g5
tp484
a(S'to'
p485
S'to'
p486
S'TO'
p487
S'B-PP'
p488
g5
tp489
a(g444
g444
S'DT'
p490
S'B-NP'
p491
g5
tp492
a(S'single'
p493
S'single'
p494
S'JJ'
p495
S'I-NP'
p496
g5
tp497
a(S'dose'
p498
S'dose'
p499
S'NN'
p500
S'I-NP'
p501
g5
tp502
a(S'of'
p503
S'of'
p504
S'IN'
p505
S'B-PP'
p506
g5
tp507
a(S'pregabalin'
p508
S'pregabalin'
p509
S'NN'
p510
S'B-NP'
p511
g5
tp512
a(S'IR'
p513
S'IR'
p514
S'NN'
p515
S'I-NP'
p516
g5
tp517
a(g133
g133
g133
g5
g5
tp518
a(S'300\xc2\xa0mg'
p519
S'300\xc2\xa0mg'
p520
S'CD'
p521
S'B-NP'
p522
g5
tp523
a(g141
g141
g141
g5
g5
tp524
a(S';'
p525
g525
g39
g5
g5
tp526
a(g133
g133
g133
S'B-LST'
p527
g5
tp528
a(S'2'
p529
g529
S'LS'
p530
S'I-LST'
p531
g5
tp532
a(g141
g141
g141
g5
g5
tp533
a(S'to'
p534
S'to'
p535
S'TO'
p536
S'B-VP'
p537
g5
tp538
a(S'evaluate'
p539
S'evaluate'
p540
S'VB'
p541
S'I-VP'
p542
g5
tp543
a(S'the'
p544
S'the'
p545
S'DT'
p546
S'B-NP'
p547
g5
tp548
a(S'pharmacokinetic'
p549
S'pharmacokinetic'
p550
S'JJ'
p551
S'I-NP'
p552
g5
tp553
a(S'properties'
p554
S'property'
p555
S'NNS'
p556
S'I-NP'
p557
g5
tp558
a(S'of'
p559
S'of'
p560
S'IN'
p561
S'B-PP'
p562
g5
tp563
a(g444
g444
S'DT'
p564
S'B-NP'
p565
g5
tp566
a(S'single'
p567
S'single'
p568
S'JJ'
p569
S'I-NP'
p570
g5
tp571
a(S'dose'
p572
S'dose'
p573
S'NN'
p574
S'I-NP'
p575
g5
tp576
a(S'of'
p577
S'of'
p578
S'IN'
p579
S'B-PP'
p580
g5
tp581
a(S'pregabalin'
p582
S'pregabalin'
p583
S'NN'
p584
S'B-NP'
p585
g5
tp586
a(S'CR'
p587
S'CR'
p588
S'NN'
p589
S'I-NP'
p590
g5
tp591
a(S'administered'
p592
S'administer'
p593
S'VBN'
p594
S'B-VP'
p595
g5
tp596
a(S'fasted'
p597
S'fast'
p598
S'VBN'
p599
S'B-VP'
p600
g5
tp601
a(S'relative'
p602
S'relative'
p603
S'JJ'
p604
S'B-ADVP'
p605
g5
tp606
a(S'to'
p607
S'to'
p608
S'TO'
p609
S'B-PP'
p610
g5
tp611
a(g444
g444
S'DT'
p612
S'B-NP'
p613
g5
tp614
a(S'single'
p615
S'single'
p616
S'JJ'
p617
S'I-NP'
p618
g5
tp619
a(S'dose'
p620
S'dose'
p621
S'NN'
p622
S'I-NP'
p623
g5
tp624
a(S'of'
p625
S'of'
p626
S'IN'
p627
S'B-PP'
p628
g5
tp629
a(S'pregabalin'
p630
S'pregabalin'
p631
S'NN'
p632
S'B-NP'
p633
g5
tp634
a(S'CR'
p635
S'CR'
p636
S'NN'
p637
S'I-NP'
p638
g5
tp639
a(S'administered'
p640
S'administer'
p641
S'VBN'
p642
S'B-VP'
p643
g5
tp644
a(S'immediately'
p645
S'immediately'
p646
S'RB'
p647
S'B-ADVP'
p648
g5
tp649
a(S'after'
p650
S'after'
p651
S'IN'
p652
S'B-PP'
p653
g5
tp654
a(S'food'
p655
S'food'
p656
S'NN'
p657
S'B-NP'
p658
g5
tp659
a(g525
g525
g39
g5
g5
tp660
a(S'and'
p661
S'and'
p662
S'CC'
p663
g5
g5
tp664
a(g133
g133
g133
S'B-LST'
p665
g5
tp666
a(S'3'
p667
g667
S'LS'
p668
S'I-LST'
p669
g5
tp670
a(g141
g141
g141
g5
g5
tp671
a(S'to'
p672
S'to'
p673
S'TO'
p674
S'B-VP'
p675
g5
tp676
a(S'determine'
p677
S'determine'
p678
S'VB'
p679
S'I-VP'
p680
g5
tp681
a(S'the'
p682
S'the'
p683
S'DT'
p684
S'B-NP'
p685
g5
tp686
a(S'safety'
p687
S'safety'
p688
S'NN'
p689
S'I-NP'
p690
g5
tp691
a(S'and'
p692
S'and'
p693
S'CC'
p694
S'I-NP'
p695
g5
tp696
a(S'tolerability'
p697
S'tolerability'
p698
S'NN'
p699
S'I-NP'
p700
g5
tp701
a(S'of'
p702
S'of'
p703
S'IN'
p704
S'B-PP'
p705
g5
tp706
a(S'single-dose'
p707
S'single-dose'
p708
S'JJ'
p709
S'B-NP'
p710
g5
tp711
a(S'administration'
p712
S'administration'
p713
S'NN'
p714
S'I-NP'
p715
g5
tp716
a(S'of'
p717
S'of'
p718
S'IN'
p719
S'B-PP'
p720
g5
tp721
a(S'pregabalin'
p722
S'pregabalin'
p723
S'NN'
p724
S'B-NP'
p725
g5
tp726
a(S'CR'
p727
S'CR'
p728
S'NN'
p729
S'I-NP'
p730
g5
tp731
a(S'and'
p732
S'and'
p733
S'CC'
p734
g5
g5
tp735
a(S'IR'
p736
S'IR'
p737
S'NN'
p738
S'B-NP'
p739
S'B-protein'
p740
tp741
a(S'with'
p742
S'with'
p743
S'IN'
p744
S'B-PP'
p745
g5
tp746
a(S'and'
p747
S'and'
p748
S'CC'
p749
S'I-PP'
p750
g5
tp751
a(S'without'
p752
S'without'
p753
S'IN'
p754
S'I-PP'
p755
g5
tp756
a(S'food'
p757
S'food'
p758
S'NN'
p759
S'B-NP'
p760
g5
tp761
a(g96
g96
g96
g5
g5
tp762
a(S'METHODS'
p763
S'METHODS'
p764
S'NNS'
p765
S'B-NP'
p766
g5
tp767
a(S'The'
p768
S'The'
p769
S'DT'
p770
S'B-NP'
p771
g5
tp772
a(S'effect'
p773
S'effect'
p774
S'NN'
p775
S'I-NP'
p776
g5
tp777
a(S'of'
p778
S'of'
p779
S'IN'
p780
S'B-PP'
p781
g5
tp782
a(S'food'
p783
S'food'
p784
S'NN'
p785
S'B-NP'
p786
g5
tp787
a(S'on'
p788
S'on'
p789
S'IN'
p790
S'B-PP'
p791
g5
tp792
a(S'the'
p793
S'the'
p794
S'DT'
p795
S'B-NP'
p796
g5
tp797
a(S'pharmacokinetic'
p798
S'pharmacokinetic'
p799
S'JJ'
p800
S'I-NP'
p801
g5
tp802
a(S'properties'
p803
S'property'
p804
S'NNS'
p805
S'I-NP'
p806
g5
tp807
a(S'of'
p808
S'of'
p809
S'IN'
p810
S'B-PP'
p811
g5
tp812
a(S'pregabalin'
p813
S'pregabalin'
p814
S'NN'
p815
S'B-NP'
p816
g5
tp817
a(S'CR'
p818
S'CR'
p819
S'NN'
p820
S'I-NP'
p821
g5
tp822
a(S'was'
p823
S'be'
p824
S'VBD'
p825
S'B-VP'
p826
g5
tp827
a(S'determined'
p828
S'determine'
p829
S'VBN'
p830
S'I-VP'
p831
g5
tp832
a(S'in'
p833
S'in'
p834
S'IN'
p835
S'B-PP'
p836
g5
tp837
a(S'five'
p838
S'five'
p839
S'CD'
p840
S'B-NP'
p841
g5
tp842
a(S'phase'
p843
S'phase'
p844
S'NN'
p845
S'I-NP'
p846
g5
tp847
a(S'I'
p848
g848
S'CD'
p849
S'I-NP'
p850
g5
tp851
a(g71
g71
g71
g5
g5
tp852
a(S'open-label'
p853
S'open-label'
p854
S'JJ'
p855
S'B-NP'
p856
g5
tp857
a(g71
g71
g71
S'I-NP'
p858
g5
tp859
a(S'single-dose'
p860
S'single-dose'
p861
S'JJ'
p862
S'I-NP'
p863
g5
tp864
a(g71
g71
g71
S'I-NP'
p865
g5
tp866
a(S'crossover'
p867
S'crossover'
p868
S'JJ'
p869
S'I-NP'
p870
g5
tp871
a(S'studies'
p872
S'study'
p873
S'NNS'
p874
S'I-NP'
p875
g5
tp876
a(g133
g133
g133
g5
g5
tp877
a(S'24-28'
p878
S'24-28'
p879
S'CD'
p880
S'B-NP'
p881
g5
tp882
a(S'participants/study'
p883
S'participants/study'
p884
S'NN'
p885
S'I-NP'
p886
g5
tp887
a(g141
g141
g141
g5
g5
tp888
a(g96
g96
g96
g5
g5
tp889
a(S'Caloric'
p890
S'Caloric'
p891
S'JJ'
p892
S'B-NP'
p893
g5
tp894
a(S'and'
p895
S'and'
p896
S'CC'
p897
S'I-NP'
p898
g5
tp899
a(S'fat'
p900
S'fat'
p901
S'JJ'
p902
S'I-NP'
p903
g5
tp904
a(S'content'
p905
S'content'
p906
S'NN'
p907
S'I-NP'
p908
g5
tp909
a(S'of'
p910
S'of'
p911
S'IN'
p912
S'B-PP'
p913
g5
tp914
a(S'meals'
p915
S'meal'
p916
S'NNS'
p917
S'B-NP'
p918
g5
tp919
a(S'were'
p920
S'be'
p921
S'VBD'
p922
S'B-VP'
p923
g5
tp924
a(S'varied'
p925
S'varied'
p926
S'JJ'
p927
S'B-ADJP'
p928
g5
tp929
a(S'and'
p930
S'and'
p931
S'CC'
p932
g5
g5
tp933
a(S'treatments'
p934
S'treatment'
p935
S'NNS'
p936
S'B-NP'
p937
g5
tp938
a(S'were'
p939
S'be'
p940
S'VBD'
p941
S'B-VP'
p942
g5
tp943
a(S'administered'
p944
S'administer'
p945
S'VBN'
p946
S'I-VP'
p947
g5
tp948
a(S'in'
p949
S'in'
p950
S'IN'
p951
S'B-PP'
p952
g5
tp953
a(S'the'
p954
S'the'
p955
S'DT'
p956
S'B-NP'
p957
g5
tp958
a(S'morning'
p959
S'morning'
p960
S'NN'
p961
S'I-NP'
p962
g5
tp963
a(g71
g71
g71
g5
g5
tp964
a(S'at'
p965
S'at'
p966
S'IN'
p967
S'B-PP'
p968
g5
tp969
a(S'midday'
p970
S'midday'
p971
S'NN'
p972
S'B-NP'
p973
g5
tp974
a(g71
g71
g71
g5
g5
tp975
a(S'or'
p976
S'or'
p977
S'CC'
p978
g5
g5
tp979
a(S'in'
p980
S'in'
p981
S'IN'
p982
S'B-PP'
p983
g5
tp984
a(S'the'
p985
S'the'
p986
S'DT'
p987
S'B-NP'
p988
g5
tp989
a(S'evening.'
p990
S'evening.'
p991
S'NN'
p992
S'I-NP'
p993
g5
tp994
a(S'Blood'
p995
S'Blood'
p996
S'NN'
p997
S'I-NP'
p998
g5
tp999
a(S'samples'
p1000
S'sample'
p1001
S'NNS'
p1002
S'I-NP'
p1003
g5
tp1004
a(S'were'
p1005
S'be'
p1006
S'VBD'
p1007
S'B-VP'
p1008
g5
tp1009
a(S'collected'
p1010
S'collect'
p1011
S'VBN'
p1012
S'I-VP'
p1013
g5
tp1014
a(S'up'
p1015
S'up'
p1016
S'RP'
p1017
S'B-PRT'
p1018
g5
tp1019
a(S'to'
p1020
S'to'
p1021
S'TO'
p1022
S'B-VP'
p1023
g5
tp1024
a(S'48\xc2\xa0h'
p1025
S'48\xc2\xa0h'
p1026
S'VB'
p1027
S'I-VP'
p1028
g5
tp1029
a(S'post-dose.'
p1030
S'post-dose.'
p1031
S'JJ'
p1032
S'B-NP'
p1033
g5
tp1034
a(S'Pharmacokinetic'
p1035
S'Pharmacokinetic'
p1036
S'JJ'
p1037
S'I-NP'
p1038
g5
tp1039
a(S'parameters'
p1040
S'parameter'
p1041
S'NNS'
p1042
S'I-NP'
p1043
g5
tp1044
a(S'were'
p1045
S'be'
p1046
S'VBD'
p1047
S'B-VP'
p1048
g5
tp1049
a(S'estimated'
p1050
S'estimate'
p1051
S'VBN'
p1052
S'I-VP'
p1053
g5
tp1054
a(S'from'
p1055
S'from'
p1056
S'IN'
p1057
S'B-PP'
p1058
g5
tp1059
a(S'plasma'
p1060
S'plasma'
p1061
S'NN'
p1062
S'B-NP'
p1063
g5
tp1064
a(S'concentration-time'
p1065
S'concentration-time'
p1066
S'JJ'
p1067
S'I-NP'
p1068
g5
tp1069
a(S'data'
p1070
S'datum'
p1071
S'NNS'
p1072
S'I-NP'
p1073
g5
tp1074
a(S'using'
p1075
S'use'
p1076
S'VBG'
p1077
S'B-VP'
p1078
g5
tp1079
a(S'standard'
p1080
S'standard'
p1081
S'JJ'
p1082
S'B-NP'
p1083
g5
tp1084
a(S'noncompartmental'
p1085
S'noncompartmental'
p1086
S'JJ'
p1087
S'I-NP'
p1088
g5
tp1089
a(S'methods.'
p1090
S'methods.'
p1091
S'NN'
p1092
S'I-NP'
p1093
g5
tp1094
a(S'Adverse'
p1095
S'Adverse'
p1096
S'JJ'
p1097
S'I-NP'
p1098
g5
tp1099
a(S'events'
p1100
S'event'
p1101
S'NNS'
p1102
S'I-NP'
p1103
g5
tp1104
a(S'were'
p1105
S'be'
p1106
S'VBD'
p1107
S'B-VP'
p1108
g5
tp1109
a(S'monitored'
p1110
S'monitor'
p1111
S'VBN'
p1112
S'I-VP'
p1113
g5
tp1114
a(S'throughout'
p1115
S'throughout'
p1116
S'IN'
p1117
S'B-PP'
p1118
g5
tp1119
a(S'all'
p1120
S'all'
p1121
S'DT'
p1122
S'B-NP'
p1123
g5
tp1124
a(S'studies'
p1125
S'study'
p1126
S'NNS'
p1127
S'I-NP'
p1128
g5
tp1129
a(g96
g96
g96
g5
g5
tp1130
a(S'RESULTS'
p1131
S'RESULTS'
p1132
S'NNS'
p1133
S'B-NP'
p1134
g5
tp1135
a(S'One'
p1136
S'One'
p1137
S'CD'
p1138
S'B-NP'
p1139
g5
tp1140
a(S'hundred'
p1141
S'hundred'
p1142
S'CD'
p1143
S'I-NP'
p1144
g5
tp1145
a(S'and'
p1146
S'and'
p1147
S'CC'
p1148
S'I-NP'
p1149
g5
tp1150
a(S'twenty-eight'
p1151
S'twenty-eight'
p1152
S'CD'
p1153
S'I-NP'
p1154
g5
tp1155
a(S'healthy'
p1156
S'healthy'
p1157
S'JJ'
p1158
S'I-NP'
p1159
g5
tp1160
a(S'participants'
p1161
S'participant'
p1162
S'NNS'
p1163
S'I-NP'
p1164
g5
tp1165
a(g133
g133
g133
g5
g5
tp1166
a(S'19-54\xc2\xa0years'
p1167
S'19-54\xc2\xa0year'
p1168
S'NNS'
p1169
S'B-NP'
p1170
g5
tp1171
a(S'of'
p1172
S'of'
p1173
S'IN'
p1174
S'B-PP'
p1175
g5
tp1176
a(S'age'
p1177
S'age'
p1178
S'NN'
p1179
S'B-NP'
p1180
g5
tp1181
a(g141
g141
g141
g5
g5
tp1182
a(S'received'
p1183
S'receive'
p1184
S'VBD'
p1185
S'B-VP'
p1186
g5
tp1187
a(S'pregabalin.'
p1188
S'pregabalin.'
p1189
S'JJ'
p1190
S'B-NP'
p1191
g5
tp1192
a(S'Peak'
p1193
S'Peak'
p1194
S'NNP'
p1195
S'I-NP'
p1196
g5
tp1197
a(S'plasma'
p1198
S'plasma'
p1199
S'NN'
p1200
S'I-NP'
p1201
g5
tp1202
a(S'concentrations'
p1203
S'concentration'
p1204
S'NNS'
p1205
S'I-NP'
p1206
g5
tp1207
a(g133
g133
g133
g5
g5
tp1208
a(S'C'
p1209
g1209
S'NN'
p1210
S'B-NP'
p1211
g5
tp1212
a(S'max'
p1213
S'max'
p1214
S'NN'
p1215
S'I-NP'
p1216
g5
tp1217
a(g141
g141
g141
g5
g5
tp1218
a(S'were'
p1219
S'be'
p1220
S'VBD'
p1221
S'B-VP'
p1222
g5
tp1223
a(S'lower'
p1224
S'low'
p1225
S'JJR'
p1226
S'B-ADJP'
p1227
g5
tp1228
a(S'for'
p1229
S'for'
p1230
S'IN'
p1231
S'B-PP'
p1232
g5
tp1233
a(S'CR'
p1234
S'CR'
p1235
S'NN'
p1236
S'B-NP'
p1237
g5
tp1238
a(S'than'
p1239
S'than'
p1240
S'IN'
p1241
S'B-PP'
p1242
g5
tp1243
a(S'the'
p1244
S'the'
p1245
S'DT'
p1246
S'B-NP'
p1247
g5
tp1248
a(S'respective'
p1249
S'respective'
p1250
S'JJ'
p1251
S'I-NP'
p1252
g5
tp1253
a(S'pregabalin'
p1254
S'pregabalin'
p1255
S'NN'
p1256
S'I-NP'
p1257
g5
tp1258
a(S'IR'
p1259
S'IR'
p1260
S'NN'
p1261
S'I-NP'
p1262
g5
tp1263
a(S'doses'
p1264
S'dose'
p1265
S'NNS'
p1266
S'I-NP'
p1267
g5
tp1268
a(g71
g71
g71
g5
g5
tp1269
a(S'and'
p1270
S'and'
p1271
S'CC'
p1272
g5
g5
tp1273
a(S'time'
p1274
S'time'
p1275
S'NN'
p1276
S'B-NP'
p1277
g5
tp1278
a(S'to'
p1279
S'to'
p1280
S'TO'
p1281
S'B-PP'
p1282
g5
tp1283
a(g1209
g1209
S'NN'
p1284
S'B-NP'
p1285
S'B-protein'
p1286
tp1287
a(S'max'
p1288
S'max'
p1289
S'NN'
p1290
S'I-NP'
p1291
S'I-protein'
p1292
tp1293
a(S'occurred'
p1294
S'occur'
p1295
S'VBD'
p1296
S'B-VP'
p1297
g5
tp1298
a(S'later.'
p1299
S'later.'
p1300
S'RB'
p1301
S'B-ADVP'
p1302
g5
tp1303
a(S'When'
p1304
S'When'
p1305
S'WRB'
p1306
S'B-ADVP'
p1307
g5
tp1308
a(S'pregabalin'
p1309
S'pregabalin'
p1310
S'NN'
p1311
S'B-NP'
p1312
g5
tp1313
a(S'CR'
p1314
S'CR'
p1315
S'NN'
p1316
S'I-NP'
p1317
g5
tp1318
a(S'was'
p1319
S'be'
p1320
S'VBD'
p1321
S'B-VP'
p1322
g5
tp1323
a(S'administered'
p1324
S'administer'
p1325
S'VBN'
p1326
S'I-VP'
p1327
g5
tp1328
a(S'with'
p1329
S'with'
p1330
S'IN'
p1331
S'B-PP'
p1332
g5
tp1333
a(S'food'
p1334
S'food'
p1335
S'NN'
p1336
S'B-NP'
p1337
g5
tp1338
a(S'at'
p1339
S'at'
p1340
S'IN'
p1341
S'B-PP'
p1342
g5
tp1343
a(S'midday'
p1344
S'midday'
p1345
S'NN'
p1346
S'B-NP'
p1347
g5
tp1348
a(S'or'
p1349
S'or'
p1350
S'CC'
p1351
g5
g5
tp1352
a(S'in'
p1353
S'in'
p1354
S'IN'
p1355
S'B-PP'
p1356
g5
tp1357
a(S'the'
p1358
S'the'
p1359
S'DT'
p1360
S'B-NP'
p1361
g5
tp1362
a(S'evening'
p1363
S'evening'
p1364
S'NN'
p1365
S'I-NP'
p1366
g5
tp1367
a(g71
g71
g71
g5
g5
tp1368
a(S'total'
p1369
S'total'
p1370
S'JJ'
p1371
S'B-NP'
p1372
g5
tp1373
a(S'exposures'
p1374
S'exposure'
p1375
S'NNS'
p1376
S'I-NP'
p1377
g5
tp1378
a(S'['
p1379
g1379
g133
g5
g5
tp1380
a(S'area'
p1381
S'area'
p1382
S'NN'
p1383
S'B-NP'
p1384
g5
tp1385
a(S'under'
p1386
S'under'
p1387
S'IN'
p1388
S'B-PP'
p1389
g5
tp1390
a(S'the'
p1391
S'the'
p1392
S'DT'
p1393
S'B-NP'
p1394
g5
tp1395
a(S'plasma'
p1396
S'plasma'
p1397
S'NN'
p1398
S'I-NP'
p1399
g5
tp1400
a(S'concentration-time'
p1401
S'concentration-time'
p1402
S'JJ'
p1403
S'I-NP'
p1404
g5
tp1405
a(S'curve'
p1406
S'curve'
p1407
S'NN'
p1408
S'I-NP'
p1409
g5
tp1410
a(S'from'
p1411
S'from'
p1412
S'IN'
p1413
S'B-PP'
p1414
g5
tp1415
a(S'time'
p1416
S'time'
p1417
S'NN'
p1418
S'B-NP'
p1419
g5
tp1420
a(S'zero'
p1421
S'zero'
p1422
S'CD'
p1423
S'I-NP'
p1424
g5
tp1425
a(S'extrapolated'
p1426
S'extrapolate'
p1427
S'VBN'
p1428
S'B-VP'
p1429
g5
tp1430
a(S'to'
p1431
S'to'
p1432
S'TO'
p1433
S'B-VP'
p1434
g5
tp1435
a(S'infinite'
p1436
S'infinite'
p1437
S'VB'
p1438
S'I-VP'
p1439
g5
tp1440
a(S'time'
p1441
S'time'
p1442
S'NN'
p1443
S'B-NP'
p1444
g5
tp1445
a(g133
g133
g133
g5
g5
tp1446
a(S'AUC\xe2\x88\x9e'
p1447
S'AUC\xe2\x88\x9e'
p1448
S'NN'
p1449
S'B-NP'
p1450
g5
tp1451
a(g141
g141
g141
g5
g5
tp1452
a(S']'
p1453
g1453
g141
g5
g5
tp1454
a(S'were'
p1455
S'be'
p1456
S'VBD'
p1457
S'B-VP'
p1458
g5
tp1459
a(S'equivalent'
p1460
S'equivalent'
p1461
S'JJ'
p1462
S'B-ADJP'
p1463
g5
tp1464
a(S'for'
p1465
S'for'
p1466
S'IN'
p1467
S'B-PP'
p1468
g5
tp1469
a(S'pregabalin'
p1470
S'pregabalin'
p1471
S'NN'
p1472
S'B-NP'
p1473
g5
tp1474
a(S'CR'
p1475
S'CR'
p1476
S'NN'
p1477
S'I-NP'
p1478
g5
tp1479
a(S'and'
p1480
S'and'
p1481
S'CC'
p1482
S'I-NP'
p1483
g5
tp1484
a(S'IR'
p1485
S'IR'
p1486
S'NN'
p1487
S'I-NP'
p1488
g5
tp1489
a(S'formulations'
p1490
S'formulation'
p1491
S'NNS'
p1492
S'I-NP'
p1493
g5
tp1494
a(S'regardless'
p1495
S'regardless'
p1496
S'RB'
p1497
S'B-ADVP'
p1498
g5
tp1499
a(S'of'
p1500
S'of'
p1501
S'IN'
p1502
S'B-PP'
p1503
g5
tp1504
a(S'fat'
p1505
S'fat'
p1506
S'JJ'
p1507
S'B-NP'
p1508
g5
tp1509
a(S'or'
p1510
S'or'
p1511
S'CC'
p1512
S'I-NP'
p1513
g5
tp1514
a(S'caloric'
p1515
S'caloric'
p1516
S'JJ'
p1517
S'I-NP'
p1518
g5
tp1519
a(S'content.'
p1520
S'content.'
p1521
S'NN'
p1522
S'I-NP'
p1523
g5
tp1524
a(S'When'
p1525
S'When'
p1526
S'WRB'
p1527
S'B-ADVP'
p1528
g5
tp1529
a(S'pregabalin'
p1530
S'pregabalin'
p1531
S'NN'
p1532
S'B-NP'
p1533
g5
tp1534
a(S'CR'
p1535
S'CR'
p1536
S'NN'
p1537
S'I-NP'
p1538
g5
tp1539
a(S'was'
p1540
S'be'
p1541
S'VBD'
p1542
S'B-VP'
p1543
g5
tp1544
a(S'administered'
p1545
S'administer'
p1546
S'VBN'
p1547
S'I-VP'
p1548
g5
tp1549
a(S'with'
p1550
S'with'
p1551
S'IN'
p1552
S'B-PP'
p1553
g5
tp1554
a(S'an'
p1555
S'an'
p1556
S'DT'
p1557
S'B-NP'
p1558
g5
tp1559
a(S'800-1'
p1560
S'800-1'
p1561
S'NN'
p1562
S'I-NP'
p1563
g5
tp1564
a(g71
g71
g71
g5
g5
tp1565
a(S'000\xc2\xa0calorie'
p1566
S'000\xc2\xa0calorie'
p1567
S'VBP'
p1568
S'B-VP'
p1569
g5
tp1570
a(S'medium-fat'
p1571
S'medium-fat'
p1572
S'JJ'
p1573
S'B-NP'
p1574
g5
tp1575
a(S'breakfast'
p1576
S'breakfast'
p1577
S'NN'
p1578
S'I-NP'
p1579
g5
tp1580
a(g71
g71
g71
g5
g5
tp1581
a(S'AUC\xe2\x88\x9e'
p1582
S'AUC\xe2\x88\x9e'
p1583
S'NN'
p1584
S'B-NP'
p1585
S'B-protein'
p1586
tp1587
a(S'was'
p1588
S'be'
p1589
S'VBD'
p1590
S'B-VP'
p1591
g5
tp1592
a(S'equivalent'
p1593
S'equivalent'
p1594
S'JJ'
p1595
S'B-ADJP'
p1596
g5
tp1597
a(S'for'
p1598
S'for'
p1599
S'IN'
p1600
S'B-PP'
p1601
g5
tp1602
a(S'pregabalin'
p1603
S'pregabalin'
p1604
S'NN'
p1605
S'B-NP'
p1606
g5
tp1607
a(S'CR'
p1608
S'CR'
p1609
S'NN'
p1610
S'I-NP'
p1611
g5
tp1612
a(S'and'
p1613
S'and'
p1614
S'CC'
p1615
g5
g5
tp1616
a(S'IR.'
p1617
S'IR.'
p1618
S'NNP'
p1619
S'B-NP'
p1620
g5
tp1621
a(S'Bioequivalence'
p1622
S'Bioequivalence'
p1623
S'NNP'
p1624
S'I-NP'
p1625
g5
tp1626
a(S'criteria'
p1627
S'criterion'
p1628
S'NNS'
p1629
S'I-NP'
p1630
g5
tp1631
a(S'for'
p1632
S'for'
p1633
S'IN'
p1634
S'B-PP'
p1635
g5
tp1636
a(S'comparison'
p1637
S'comparison'
p1638
S'NN'
p1639
S'B-NP'
p1640
g5
tp1641
a(S'of'
p1642
S'of'
p1643
S'IN'
p1644
S'B-PP'
p1645
g5
tp1646
a(S'pregabalin'
p1647
S'pregabalin'
p1648
S'NN'
p1649
S'B-NP'
p1650
g5
tp1651
a(S'CR'
p1652
S'CR'
p1653
S'NN'
p1654
S'I-NP'
p1655
g5
tp1656
a(S'after'
p1657
S'after'
p1658
S'IN'
p1659
S'B-PP'
p1660
g5
tp1661
a(g444
g444
S'DT'
p1662
S'B-NP'
p1663
g5
tp1664
a(S'low-'
p1665
S'low-'
p1666
S'JJ'
p1667
S'I-NP'
p1668
g5
tp1669
a(S'or'
p1670
S'or'
p1671
S'CC'
p1672
S'I-NP'
p1673
g5
tp1674
a(S'medium-calorie'
p1675
S'medium-calorie'
p1676
S'JJ'
p1677
S'I-NP'
p1678
g5
tp1679
a(S'breakfast'
p1680
S'breakfast'
p1681
S'NN'
p1682
S'I-NP'
p1683
g5
tp1684
a(S'relative'
p1685
S'relative'
p1686
S'JJ'
p1687
S'B-ADJP'
p1688
g5
tp1689
a(S'to'
p1690
S'to'
p1691
S'TO'
p1692
S'B-PP'
p1693
g5
tp1694
a(S'pregabalin'
p1695
S'pregabalin'
p1696
S'NN'
p1697
S'B-NP'
p1698
g5
tp1699
a(S'IR'
p1700
S'IR'
p1701
S'NN'
p1702
S'I-NP'
p1703
g5
tp1704
a(S'were'
p1705
S'be'
p1706
S'VBD'
p1707
S'B-VP'
p1708
g5
tp1709
a(S'not'
p1710
S'not'
p1711
S'RB'
p1712
S'I-VP'
p1713
g5
tp1714
a(S'met'
p1715
S'meet'
p1716
S'VBN'
p1717
S'I-VP'
p1718
g5
tp1719
a(g525
g525
g39
g5
g5
tp1720
a(S'however'
p1721
S'however'
p1722
S'RB'
p1723
S'B-ADVP'
p1724
g5
tp1725
a(g71
g71
g71
g5
g5
tp1726
a(S'bioavailability'
p1727
S'bioavailability'
p1728
S'NN'
p1729
S'B-NP'
p1730
g5
tp1731
a(S'of'
p1732
S'of'
p1733
S'IN'
p1734
S'B-PP'
p1735
g5
tp1736
a(S'the'
p1737
S'the'
p1738
S'DT'
p1739
S'B-NP'
p1740
g5
tp1741
a(S'pregabalin'
p1742
S'pregabalin'
p1743
S'NN'
p1744
S'I-NP'
p1745
g5
tp1746
a(S'CR'
p1747
S'CR'
p1748
S'NN'
p1749
S'I-NP'
p1750
g5
tp1751
a(S'vs.'
p1752
S'vs.'
p1753
S'IN'
p1754
S'B-PP'
p1755
g5
tp1756
a(S'IR'
p1757
S'IR'
p1758
S'NN'
p1759
S'B-NP'
p1760
g5
tp1761
a(S'formulation'
p1762
S'formulation'
p1763
S'NN'
p1764
S'I-NP'
p1765
g5
tp1766
a(S'was'
p1767
S'be'
p1768
S'VBD'
p1769
S'B-VP'
p1770
g5
tp1771
a(S'relatively'
p1772
S'relatively'
p1773
S'RB'
p1774
S'B-ADJP'
p1775
g5
tp1776
a(S'high'
p1777
S'high'
p1778
S'JJ'
p1779
S'I-ADJP'
p1780
g5
tp1781
a(g133
g133
g133
g5
g5
tp1782
a(S'75-86\xc2\xa0'
p1783
S'75-86\xc2\xa0'
p1784
S'CD'
p1785
S'B-NP'
p1786
g5
tp1787
a(S'%'
p1788
g1788
S'NN'
p1789
S'I-NP'
p1790
g5
tp1791
a(g141
g141
g141
g5
g5
tp1792
a(g96
g96
g96
g5
g5
tp1793
a(S'When'
p1794
S'When'
p1795
S'WRB'
p1796
S'B-ADVP'
p1797
g5
tp1798
a(S'pregabalin'
p1799
S'pregabalin'
p1800
S'NN'
p1801
S'B-NP'
p1802
g5
tp1803
a(S'CR'
p1804
S'CR'
p1805
S'NN'
p1806
S'I-NP'
p1807
g5
tp1808
a(S'was'
p1809
S'be'
p1810
S'VBD'
p1811
S'B-VP'
p1812
g5
tp1813
a(S'administered'
p1814
S'administer'
p1815
S'VBN'
p1816
S'I-VP'
p1817
g5
tp1818
a(S'fasted'
p1819
S'fast'
p1820
S'VBN'
p1821
S'I-VP'
p1822
g5
tp1823
a(g71
g71
g71
g5
g5
tp1824
a(S'the'
p1825
S'the'
p1826
S'DT'
p1827
S'B-NP'
p1828
g5
tp1829
a(S'AUC\xe2\x88\x9e'
p1830
S'AUC\xe2\x88\x9e'
p1831
S'NN'
p1832
S'I-NP'
p1833
S'B-protein'
p1834
tp1835
a(S'was'
p1836
S'be'
p1837
S'VBD'
p1838
S'B-VP'
p1839
g5
tp1840
a(S'70-78\xc2\xa0'
p1841
S'70-78\xc2\xa0'
p1842
S'JJ'
p1843
S'B-NP'
p1844
g5
tp1845
a(g1788
g1788
S'NN'
p1846
S'I-NP'
p1847
g5
tp1848
a(S'of'
p1849
S'of'
p1850
S'IN'
p1851
S'B-PP'
p1852
g5
tp1853
a(S'the'
p1854
S'the'
p1855
S'DT'
p1856
S'B-NP'
p1857
g5
tp1858
a(S'AUC\xe2\x88\x9e'
p1859
S'AUC\xe2\x88\x9e'
p1860
S'NN'
p1861
S'I-NP'
p1862
S'B-protein'
p1863
tp1864
a(S'of'
p1865
S'of'
p1866
S'IN'
p1867
S'B-PP'
p1868
g5
tp1869
a(S'pregabalin'
p1870
S'pregabalin'
p1871
S'NN'
p1872
S'B-NP'
p1873
g5
tp1874
a(S'CR'
p1875
S'CR'
p1876
S'NN'
p1877
S'I-NP'
p1878
g5
tp1879
a(S'administered'
p1880
S'administer'
p1881
S'VBN'
p1882
S'B-VP'
p1883
g5
tp1884
a(S'with'
p1885
S'with'
p1886
S'IN'
p1887
S'B-PP'
p1888
g5
tp1889
a(S'food'
p1890
S'food'
p1891
S'NN'
p1892
S'B-NP'
p1893
g5
tp1894
a(S'and'
p1895
S'and'
p1896
S'CC'
p1897
S'I-NP'
p1898
g5
tp1899
a(S'bioequivalence'
p1900
S'bioequivalence'
p1901
S'NN'
p1902
S'I-NP'
p1903
g5
tp1904
a(S'criteria'
p1905
S'criterion'
p1906
S'NNS'
p1907
S'I-NP'
p1908
g5
tp1909
a(S'were'
p1910
S'be'
p1911
S'VBD'
p1912
S'B-VP'
p1913
g5
tp1914
a(S'not'
p1915
S'not'
p1916
S'RB'
p1917
g5
g5
tp1918
a(S'met.'
p1919
S'met.'
p1920
S'NN'
p1921
S'B-NP'
p1922
g5
tp1923
a(S'Additionally'
p1924
S'Additionally'
p1925
S'RB'
p1926
S'B-ADVP'
p1927
g5
tp1928
a(g71
g71
g71
g5
g5
tp1929
a(S'the'
p1930
S'the'
p1931
S'DT'
p1932
S'B-NP'
p1933
g5
tp1934
a(S'AUC\xe2\x88\x9e'
p1935
S'AUC\xe2\x88\x9e'
p1936
S'NN'
p1937
S'I-NP'
p1938
S'B-protein'
p1939
tp1940
a(S'of'
p1941
S'of'
p1942
S'IN'
p1943
S'B-PP'
p1944
g5
tp1945
a(S'the'
p1946
S'the'
p1947
S'DT'
p1948
S'B-NP'
p1949
g5
tp1950
a(S'pregabalin'
p1951
S'pregabalin'
p1952
S'NN'
p1953
S'I-NP'
p1954
g5
tp1955
a(S'CR'
p1956
S'CR'
p1957
S'JJ'
p1958
S'I-NP'
p1959
g5
tp1960
a(S'formulation'
p1961
S'formulation'
p1962
S'NN'
p1963
S'I-NP'
p1964
g5
tp1965
a(S'administered'
p1966
S'administer'
p1967
S'VBN'
p1968
S'B-VP'
p1969
g5
tp1970
a(S'fasted'
p1971
S'fast'
p1972
S'VBN'
p1973
S'I-VP'
p1974
g5
tp1975
a(S'was'
p1976
S'be'
p1977
S'VBD'
p1978
S'B-VP'
p1979
g5
tp1980
a(S'62-69\xc2\xa0'
p1981
S'62-69\xc2\xa0'
p1982
S'JJ'
p1983
S'B-NP'
p1984
g5
tp1985
a(g1788
g1788
S'NN'
p1986
S'I-NP'
p1987
g5
tp1988
a(S'of'
p1989
S'of'
p1990
S'IN'
p1991
S'B-PP'
p1992
g5
tp1993
a(S'that'
p1994
S'that'
p1995
S'DT'
p1996
S'B-NP'
p1997
g5
tp1998
a(S'of'
p1999
S'of'
p2000
S'IN'
p2001
S'B-PP'
p2002
g5
tp2003
a(S'pregabalin'
p2004
S'pregabalin'
p2005
S'NN'
p2006
S'B-NP'
p2007
g5
tp2008
a(S'IR'
p2009
S'IR'
p2010
S'NN'
p2011
S'I-NP'
p2012
g5
tp2013
a(S'administered'
p2014
S'administer'
p2015
S'VBN'
p2016
S'B-VP'
p2017
g5
tp2018
a(S'fasted'
p2019
S'fast'
p2020
S'VBN'
p2021
S'B-VP'
p2022
g5
tp2023
a(S'and'
p2024
S'and'
p2025
S'CC'
p2026
g5
g5
tp2027
a(S'bioequivalence'
p2028
S'bioequivalence'
p2029
S'NN'
p2030
S'B-NP'
p2031
g5
tp2032
a(S'criteria'
p2033
S'criterion'
p2034
S'NNS'
p2035
S'I-NP'
p2036
g5
tp2037
a(S'were'
p2038
S'be'
p2039
S'VBD'
p2040
S'B-VP'
p2041
g5
tp2042
a(S'not'
p2043
S'not'
p2044
S'RB'
p2045
S'I-VP'
p2046
g5
tp2047
a(S'met.'
p2048
S'met.'
p2049
S'VB'
p2050
S'I-VP'
p2051
g5
tp2052
a(S'Single-dose'
p2053
S'Single-dose'
p2054
S'JJ'
p2055
S'B-NP'
p2056
g5
tp2057
a(S'pregabalin'
p2058
S'pregabalin'
p2059
S'NN'
p2060
S'I-NP'
p2061
g5
tp2062
a(S'CR'
p2063
S'CR'
p2064
S'NN'
p2065
S'I-NP'
p2066
g5
tp2067
a(S'and'
p2068
S'and'
p2069
S'CC'
p2070
S'I-NP'
p2071
g5
tp2072
a(S'IR'
p2073
S'IR'
p2074
S'NN'
p2075
S'I-NP'
p2076
S'B-protein'
p2077
tp2078
a(S'were'
p2079
S'be'
p2080
S'VBD'
p2081
S'B-VP'
p2082
g5
tp2083
a(S'well'
p2084
S'well'
p2085
S'RB'
p2086
S'I-VP'
p2087
g5
tp2088
a(S'tolerated'
p2089
S'tolerate'
p2090
S'VBN'
p2091
S'I-VP'
p2092
g5
tp2093
a(S'in'
p2094
S'in'
p2095
S'IN'
p2096
S'B-PP'
p2097
g5
tp2098
a(S'all'
p2099
S'all'
p2100
S'DT'
p2101
S'B-NP'
p2102
g5
tp2103
a(S'studies'
p2104
S'study'
p2105
S'NNS'
p2106
S'I-NP'
p2107
g5
tp2108
a(g71
g71
g71
g5
g5
tp2109
a(S'with'
p2110
S'with'
p2111
S'IN'
p2112
S'B-PP'
p2113
g5
tp2114
a(S'no'
p2115
S'no'
p2116
S'DT'
p2117
S'B-NP'
p2118
g5
tp2119
a(S'serious'
p2120
S'serious'
p2121
S'JJ'
p2122
S'I-NP'
p2123
g5
tp2124
a(S'or'
p2125
S'or'
p2126
S'CC'
p2127
S'I-NP'
p2128
g5
tp2129
a(S'severe'
p2130
S'severe'
p2131
S'JJ'
p2132
S'I-NP'
p2133
g5
tp2134
a(S'adverse'
p2135
S'adverse'
p2136
S'JJ'
p2137
S'I-NP'
p2138
g5
tp2139
a(S'events'
p2140
S'event'
p2141
S'NNS'
p2142
S'I-NP'
p2143
g5
tp2144
a(S'reported'
p2145
S'report'
p2146
S'VBN'
p2147
S'B-VP'
p2148
g5
tp2149
a(g96
g96
g96
g5
g5
tp2150
a(S'CONCLUSION'
p2151
S'CONCLUSION'
p2152
S'NN'
p2153
S'B-NP'
p2154
g5
tp2155
a(S'Time'
p2156
S'Time'
p2157
S'NN'
p2158
S'I-NP'
p2159
g5
tp2160
a(S'of'
p2161
S'of'
p2162
S'IN'
p2163
S'B-PP'
p2164
g5
tp2165
a(S'day'
p2166
S'day'
p2167
S'NN'
p2168
S'B-NP'
p2169
g5
tp2170
a(S'of'
p2171
S'of'
p2172
S'IN'
p2173
S'B-PP'
p2174
g5
tp2175
a(S'administration'
p2176
S'administration'
p2177
S'NN'
p2178
S'B-NP'
p2179
g5
tp2180
a(S'and'
p2181
S'and'
p2182
S'CC'
p2183
g5
g5
tp2184
a(S'the'
p2185
S'the'
p2186
S'DT'
p2187
S'B-NP'
p2188
g5
tp2189
a(S'fat'
p2190
S'fat'
p2191
S'JJ'
p2192
S'I-NP'
p2193
g5
tp2194
a(S'and'
p2195
S'and'
p2196
S'CC'
p2197
S'I-NP'
p2198
g5
tp2199
a(S'caloric'
p2200
S'caloric'
p2201
S'JJ'
p2202
S'I-NP'
p2203
g5
tp2204
a(S'content'
p2205
S'content'
p2206
S'NN'
p2207
S'I-NP'
p2208
g5
tp2209
a(S'of'
p2210
S'of'
p2211
S'IN'
p2212
S'B-PP'
p2213
g5
tp2214
a(S'the'
p2215
S'the'
p2216
S'DT'
p2217
S'B-NP'
p2218
g5
tp2219
a(S'accompanying'
p2220
S'accompany'
p2221
S'VBG'
p2222
S'I-NP'
p2223
g5
tp2224
a(S'meal'
p2225
S'meal'
p2226
S'NN'
p2227
S'I-NP'
p2228
g5
tp2229
a(S'had'
p2230
S'have'
p2231
S'VBD'
p2232
S'B-VP'
p2233
g5
tp2234
a(S'minimal'
p2235
S'minimal'
p2236
S'JJ'
p2237
S'B-NP'
p2238
g5
tp2239
a(S'overall'
p2240
S'overall'
p2241
S'JJ'
p2242
S'I-NP'
p2243
g5
tp2244
a(S'effect'
p2245
S'effect'
p2246
S'NN'
p2247
S'I-NP'
p2248
g5
tp2249
a(S'on'
p2250
S'on'
p2251
S'IN'
p2252
S'B-PP'
p2253
g5
tp2254
a(S'the'
p2255
S'the'
p2256
S'DT'
p2257
S'B-NP'
p2258
g5
tp2259
a(S'pharmacokinetic'
p2260
S'pharmacokinetic'
p2261
S'JJ'
p2262
S'I-NP'
p2263
g5
tp2264
a(S'properties'
p2265
S'property'
p2266
S'NNS'
p2267
S'I-NP'
p2268
g5
tp2269
a(S'and'
p2270
S'and'
p2271
S'CC'
p2272
g5
g5
tp2273
a(S'bioavailability'
p2274
S'bioavailability'
p2275
S'NN'
p2276
S'B-NP'
p2277
g5
tp2278
a(S'of'
p2279
S'of'
p2280
S'IN'
p2281
S'B-PP'
p2282
g5
tp2283
a(S'the'
p2284
S'the'
p2285
S'DT'
p2286
S'B-NP'
p2287
g5
tp2288
a(S'pregabalin'
p2289
S'pregabalin'
p2290
S'NN'
p2291
S'I-NP'
p2292
g5
tp2293
a(S'CR'
p2294
S'CR'
p2295
S'NN'
p2296
S'I-NP'
p2297
g5
tp2298
a(S'formulation'
p2299
S'formulation'
p2300
S'NN'
p2301
S'I-NP'
p2302
g5
tp2303
a(g96
g96
g96
g5
g5
tp2304
a.