(lp0
(S'Pulse'
p1
S'Pulse'
p2
S'NN'
p3
S'B-NP'
p4
S'O'
p5
tp6
a(S'oximeter'
p7
S'oximeter'
p8
S'NN'
p9
S'I-NP'
p10
g5
tp11
a(S'perfusion'
p12
S'perfusion'
p13
S'NN'
p14
S'I-NP'
p15
g5
tp16
a(S'index'
p17
S'index'
p18
S'NN'
p19
S'I-NP'
p20
g5
tp21
a(S'as'
p22
S'as'
p23
S'IN'
p24
S'B-PP'
p25
g5
tp26
a(S'an'
p27
S'an'
p28
S'DT'
p29
S'B-NP'
p30
g5
tp31
a(S'early'
p32
S'early'
p33
S'JJ'
p34
S'I-NP'
p35
g5
tp36
a(S'indicator'
p37
S'indicator'
p38
S'NN'
p39
S'I-NP'
p40
g5
tp41
a(S'of'
p42
S'of'
p43
S'IN'
p44
S'B-PP'
p45
g5
tp46
a(S'sympathectomy'
p47
S'sympathectomy'
p48
S'NN'
p49
S'B-NP'
p50
g5
tp51
a(S'after'
p52
S'after'
p53
S'IN'
p54
S'B-PP'
p55
g5
tp56
a(S'epidural'
p57
S'epidural'
p58
S'JJ'
p59
S'B-NP'
p60
g5
tp61
a(S'anesthesia'
p62
S'anesthesia'
p63
S'NN'
p64
S'I-NP'
p65
g5
tp66
a(S'.'
p67
g67
g67
g5
g5
tp68
a(S'BACKGROUND'
p69
S'BACKGROUND'
p70
S'NN'
p71
S'B-NP'
p72
g5
tp73
a(S'The'
p74
S'The'
p75
S'DT'
p76
S'B-NP'
p77
g5
tp78
a(S'pulse'
p79
S'pulse'
p80
S'NN'
p81
S'I-NP'
p82
g5
tp83
a(S'oximeter'
p84
S'oximeter'
p85
S'NN'
p86
S'I-NP'
p87
g5
tp88
a(S'perfusion'
p89
S'perfusion'
p90
S'NN'
p91
S'I-NP'
p92
g5
tp93
a(S'index'
p94
S'index'
p95
S'NN'
p96
S'I-NP'
p97
g5
tp98
a(S'('
p99
g99
g99
g5
g5
tp100
a(S'PI'
p101
S'PI'
p102
S'NN'
p103
S'B-NP'
p104
g5
tp105
a(S')'
p106
g106
g106
g5
g5
tp107
a(S'has'
p108
S'have'
p109
S'VBZ'
p110
S'B-VP'
p111
g5
tp112
a(S'been'
p113
S'be'
p114
S'VBN'
p115
S'I-VP'
p116
g5
tp117
a(S'used'
p118
S'use'
p119
S'VBN'
p120
S'I-VP'
p121
g5
tp122
a(S'to'
p123
S'to'
p124
S'TO'
p125
S'I-VP'
p126
g5
tp127
a(S'indicate'
p128
S'indicate'
p129
S'VB'
p130
S'I-VP'
p131
g5
tp132
a(S'sympathectomy-induced'
p133
S'sympathectomy-induced'
p134
S'JJ'
p135
S'B-NP'
p136
g5
tp137
a(S'vasodilatation.'
p138
S'vasodilatation.'
p139
S'NN'
p140
S'I-NP'
p141
g5
tp142
a(S'We'
p143
S'We'
p144
S'PRP'
p145
S'B-NP'
p146
g5
tp147
a(S'hypothesized'
p148
S'hypothesize'
p149
S'VBD'
p150
S'B-VP'
p151
g5
tp152
a(S'that'
p153
S'that'
p154
S'IN'
p155
S'B-SBAR'
p156
g5
tp157
a(S'pulse'
p158
S'pulse'
p159
S'NN'
p160
S'B-NP'
p161
g5
tp162
a(S'oximeter'
p163
S'oximeter'
p164
S'NN'
p165
S'I-NP'
p166
g5
tp167
a(S'PI'
p168
S'PI'
p169
S'NN'
p170
S'I-NP'
p171
g5
tp172
a(S'provides'
p173
S'provide'
p174
S'VBZ'
p175
S'B-VP'
p176
g5
tp177
a(S'an'
p178
S'an'
p179
S'DT'
p180
S'B-NP'
p181
g5
tp182
a(S'earlier'
p183
S'early'
p184
S'JJR'
p185
S'I-NP'
p186
g5
tp187
a(S'and'
p188
S'and'
p189
S'CC'
p190
S'I-NP'
p191
g5
tp192
a(S'clearer'
p193
S'clear'
p194
S'JJR'
p195
S'I-NP'
p196
g5
tp197
a(S'indication'
p198
S'indication'
p199
S'NN'
p200
S'I-NP'
p201
g5
tp202
a(S'of'
p203
S'of'
p204
S'IN'
p205
S'B-PP'
p206
g5
tp207
a(S'sympathectomy'
p208
S'sympathectomy'
p209
S'NN'
p210
S'B-NP'
p211
g5
tp212
a(S'following'
p213
S'follow'
p214
S'VBG'
p215
S'B-PP'
p216
g5
tp217
a(S'epidural'
p218
S'epidural'
p219
S'JJ'
p220
S'B-NP'
p221
g5
tp222
a(S'anesthesia'
p223
S'anesthesia'
p224
S'NN'
p225
S'I-NP'
p226
g5
tp227
a(S'than'
p228
S'than'
p229
S'IN'
p230
S'B-PP'
p231
g5
tp232
a(S'skin'
p233
S'skin'
p234
S'NN'
p235
S'B-NP'
p236
g5
tp237
a(S'temperature'
p238
S'temperature'
p239
S'NN'
p240
S'I-NP'
p241
g5
tp242
a(S'and'
p243
S'and'
p244
S'CC'
p245
g5
g5
tp246
a(S'arterial'
p247
S'arterial'
p248
S'JJ'
p249
S'B-NP'
p250
g5
tp251
a(S'pressure'
p252
S'pressure'
p253
S'NN'
p254
S'I-NP'
p255
g5
tp256
a(g67
g67
g67
g5
g5
tp257
a(S'METHODS'
p258
S'METHODS'
p259
S'NNS'
p260
S'B-NP'
p261
g5
tp262
a(S'Forty'
p263
S'Forty'
p264
S'CD'
p265
S'B-NP'
p266
g5
tp267
a(S'patients'
p268
S'patient'
p269
S'NNS'
p270
S'I-NP'
p271
g5
tp272
a(S'received'
p273
S'receive'
p274
S'VBD'
p275
S'B-VP'
p276
g5
tp277
a(S'lumbar'
p278
S'lumbar'
p279
S'JJ'
p280
S'B-NP'
p281
g5
tp282
a(S'epidural'
p283
S'epidural'
p284
S'JJ'
p285
S'I-NP'
p286
g5
tp287
a(S'catheters.'
p288
S'catheters.'
p289
S'NN'
p290
S'I-NP'
p291
g5
tp292
a(S'Patients'
p293
S'Patient'
p294
S'NNS'
p295
S'I-NP'
p296
g5
tp297
a(S'were'
p298
S'be'
p299
S'VBD'
p300
S'B-VP'
p301
g5
tp302
a(S'randomized'
p303
S'randomize'
p304
S'VBN'
p305
S'I-VP'
p306
g5
tp307
a(S'to'
p308
S'to'
p309
S'TO'
p310
S'B-VP'
p311
g5
tp312
a(S'receive'
p313
S'receive'
p314
S'VB'
p315
S'I-VP'
p316
g5
tp317
a(S'either'
p318
S'either'
p319
S'CC'
p320
g5
g5
tp321
a(S'10'
p322
S'10'
p323
S'CD'
p324
S'B-NP'
p325
g5
tp326
a(S'ml'
p327
S'ml'
p328
S'NN'
p329
S'I-NP'
p330
g5
tp331
a(S'0.5'
p332
S'0.5'
p333
S'CD'
p334
S'B-NP'
p335
g5
tp336
a(S'%'
p337
g337
S'NN'
p338
S'I-NP'
p339
g5
tp340
a(S'bupivacaine'
p341
S'bupivacaine'
p342
S'NN'
p343
S'I-NP'
p344
g5
tp345
a(S'or'
p346
S'or'
p347
S'CC'
p348
g5
g5
tp349
a(S'10'
p350
S'10'
p351
S'CD'
p352
S'B-NP'
p353
g5
tp354
a(S'ml'
p355
S'ml'
p356
S'NN'
p357
S'I-NP'
p358
g5
tp359
a(S'0.25'
p360
S'0.25'
p361
S'CD'
p362
S'B-NP'
p363
g5
tp364
a(g337
g337
S'NN'
p365
S'I-NP'
p366
g5
tp367
a(S'bupivacaine.'
p368
S'bupivacaine.'
p369
S'NN'
p370
S'I-NP'
p371
g5
tp372
a(S'PI'
p373
S'PI'
p374
S'NN'
p375
S'I-NP'
p376
g5
tp377
a(S'in'
p378
S'in'
p379
S'IN'
p380
S'B-PP'
p381
g5
tp382
a(S'the'
p383
S'the'
p384
S'DT'
p385
S'B-NP'
p386
g5
tp387
a(S'toe'
p388
S'toe'
p389
S'NN'
p390
S'I-NP'
p391
g5
tp392
a(S','
p393
g393
g393
g5
g5
tp394
a(S'mean'
p395
S'mean'
p396
S'JJ'
p397
S'B-NP'
p398
g5
tp399
a(S'arterial'
p400
S'arterial'
p401
S'JJ'
p402
S'I-NP'
p403
g5
tp404
a(S'pressure'
p405
S'pressure'
p406
S'NN'
p407
S'I-NP'
p408
g5
tp409
a(g99
g99
g99
g5
g5
tp410
a(S'MAP'
p411
S'MAP'
p412
S'NN'
p413
S'B-NP'
p414
g5
tp415
a(g106
g106
g106
g5
g5
tp416
a(S'and'
p417
S'and'
p418
S'CC'
p419
g5
g5
tp420
a(S'toe'
p421
S'toe'
p422
S'NN'
p423
S'B-NP'
p424
g5
tp425
a(S'temperature'
p426
S'temperature'
p427
S'NN'
p428
S'I-NP'
p429
g5
tp430
a(S'were'
p431
S'be'
p432
S'VBD'
p433
S'B-VP'
p434
g5
tp435
a(S'all'
p436
S'all'
p437
S'DT'
p438
g5
g5
tp439
a(S'assessed'
p440
S'assess'
p441
S'VBN'
p442
S'B-VP'
p443
g5
tp444
a(S'at'
p445
S'at'
p446
S'IN'
p447
S'B-PP'
p448
g5
tp449
a(S'baseline'
p450
S'baseline'
p451
S'NN'
p452
S'B-NP'
p453
g5
tp454
a(S'and'
p455
S'and'
p456
S'CC'
p457
g5
g5
tp458
a(S'at'
p459
S'at'
p460
S'IN'
p461
S'B-PP'
p462
g5
tp463
a(S'5'
p464
g464
S'CD'
p465
S'B-NP'
p466
g5
tp467
a(g393
g393
g393
S'I-NP'
p468
g5
tp469
a(S'10'
p470
S'10'
p471
S'CD'
p472
S'I-NP'
p473
g5
tp474
a(S'and'
p475
S'and'
p476
S'CC'
p477
S'I-NP'
p478
g5
tp479
a(S'20'
p480
S'20'
p481
S'CD'
p482
S'I-NP'
p483
g5
tp484
a(S'min'
p485
S'min'
p486
S'NN'
p487
S'I-NP'
p488
g5
tp489
a(S'following'
p490
S'follow'
p491
S'VBG'
p492
S'B-PP'
p493
g5
tp494
a(S'epidural'
p495
S'epidural'
p496
S'JJ'
p497
S'B-NP'
p498
g5
tp499
a(S'anesthesia.'
p500
S'anesthesia.'
p501
S'NN'
p502
S'I-NP'
p503
g5
tp504
a(S'The'
p505
S'The'
p506
S'DT'
p507
S'B-NP'
p508
g5
tp509
a(S'effect'
p510
S'effect'
p511
S'NN'
p512
S'I-NP'
p513
g5
tp514
a(S'of'
p515
S'of'
p516
S'IN'
p517
S'B-PP'
p518
g5
tp519
a(S'epidural'
p520
S'epidural'
p521
S'JJ'
p522
S'B-NP'
p523
g5
tp524
a(S'anesthesia'
p525
S'anesthesia'
p526
S'NN'
p527
S'I-NP'
p528
g5
tp529
a(S'over'
p530
S'over'
p531
S'IN'
p532
S'B-PP'
p533
g5
tp534
a(S'time'
p535
S'time'
p536
S'NN'
p537
S'B-NP'
p538
g5
tp539
a(S'was'
p540
S'be'
p541
S'VBD'
p542
S'B-VP'
p543
g5
tp544
a(S'assessed'
p545
S'assess'
p546
S'VBN'
p547
S'I-VP'
p548
g5
tp549
a(S'by'
p550
S'by'
p551
S'IN'
p552
S'B-PP'
p553
g5
tp554
a(S'repeated'
p555
S'repeat'
p556
S'VBN'
p557
S'B-NP'
p558
g5
tp559
a(S'measures'
p560
S'measure'
p561
S'NNS'
p562
S'I-NP'
p563
g5
tp564
a(S'analysis'
p565
S'analysis'
p566
S'NN'
p567
S'I-NP'
p568
g5
tp569
a(S'of'
p570
S'of'
p571
S'IN'
p572
S'B-PP'
p573
g5
tp574
a(S'variance.'
p575
S'variance.'
p576
S'NN'
p577
S'B-NP'
p578
g5
tp579
a(S'Additionally'
p580
S'Additionally'
p581
S'RB'
p582
S'B-ADVP'
p583
g5
tp584
a(g393
g393
g393
g5
g5
tp585
a(S'we'
p586
S'we'
p587
S'PRP'
p588
S'B-NP'
p589
g5
tp590
a(S'defined'
p591
S'define'
p592
S'VBD'
p593
S'B-VP'
p594
g5
tp595
a(S'clinically'
p596
S'clinically'
p597
S'RB'
p598
S'B-NP'
p599
g5
tp600
a(S'evident'
p601
S'evident'
p602
S'JJ'
p603
S'I-NP'
p604
g5
tp605
a(S'sympathectomy'
p606
S'sympathectomy'
p607
S'NN'
p608
S'I-NP'
p609
g5
tp610
a(S'criteria'
p611
S'criterion'
p612
S'NNS'
p613
S'I-NP'
p614
g5
tp615
a(g99
g99
g99
g5
g5
tp616
a(S'a'
p617
g617
S'DT'
p618
S'B-NP'
p619
g5
tp620
a(S'100'
p621
S'100'
p622
S'CD'
p623
S'I-NP'
p624
g5
tp625
a(g337
g337
S'NN'
p626
S'I-NP'
p627
g5
tp628
a(S'increase'
p629
S'increase'
p630
S'NN'
p631
S'I-NP'
p632
g5
tp633
a(S'in'
p634
S'in'
p635
S'IN'
p636
S'B-PP'
p637
g5
tp638
a(S'the'
p639
S'the'
p640
S'DT'
p641
S'B-NP'
p642
g5
tp643
a(S'PI'
p644
S'PI'
p645
S'NN'
p646
S'I-NP'
p647
S'B-DNA'
p648
tp649
a(g393
g393
g393
g5
g5
tp650
a(g617
g617
S'DT'
p651
S'B-NP'
p652
g5
tp653
a(S'15'
p654
S'15'
p655
S'CD'
p656
S'I-NP'
p657
g5
tp658
a(g337
g337
S'NN'
p659
S'I-NP'
p660
g5
tp661
a(S'decrease'
p662
S'decrease'
p663
S'NN'
p664
S'I-NP'
p665
g5
tp666
a(S'in'
p667
S'in'
p668
S'IN'
p669
S'B-PP'
p670
g5
tp671
a(S'MAP'
p672
S'MAP'
p673
S'NN'
p674
S'B-NP'
p675
g5
tp676
a(S'and'
p677
S'and'
p678
S'CC'
p679
g5
g5
tp680
a(g617
g617
S'DT'
p681
S'B-NP'
p682
g5
tp683
a(S'1'
p684
g684
S'CD'
p685
S'I-NP'
p686
g5
tp687
a(S'degrees'
p688
S'degree'
p689
S'NNS'
p690
S'I-NP'
p691
g5
tp692
a(S'C'
p693
g693
S'NN'
p694
S'I-NP'
p695
g5
tp696
a(S'increase'
p697
S'increase'
p698
S'NN'
p699
S'I-NP'
p700
g5
tp701
a(S'in'
p702
S'in'
p703
S'IN'
p704
S'B-PP'
p705
g5
tp706
a(S'toe'
p707
S'toe'
p708
S'NN'
p709
S'B-NP'
p710
g5
tp711
a(S'temperature'
p712
S'temperature'
p713
S'NN'
p714
S'I-NP'
p715
g5
tp716
a(g106
g106
g106
g5
g5
tp717
a(g67
g67
g67
g5
g5
tp718
a(S'The'
p719
S'The'
p720
S'DT'
p721
S'B-NP'
p722
g5
tp723
a(S'numbers'
p724
S'number'
p725
S'NNS'
p726
S'I-NP'
p727
g5
tp728
a(S'of'
p729
S'of'
p730
S'IN'
p731
S'B-PP'
p732
g5
tp733
a(S'patients'
p734
S'patient'
p735
S'NNS'
p736
S'B-NP'
p737
g5
tp738
a(S'demonstrating'
p739
S'demonstrate'
p740
S'VBG'
p741
S'B-VP'
p742
g5
tp743
a(S'these'
p744
S'these'
p745
S'DT'
p746
S'B-NP'
p747
g5
tp748
a(S'changes'
p749
S'change'
p750
S'NNS'
p751
S'I-NP'
p752
g5
tp753
a(S'for'
p754
S'for'
p755
S'IN'
p756
S'B-PP'
p757
g5
tp758
a(S'each'
p759
S'each'
p760
S'DT'
p761
S'B-NP'
p762
g5
tp763
a(S'test'
p764
S'test'
p765
S'NN'
p766
S'I-NP'
p767
g5
tp768
a(S'were'
p769
S'be'
p770
S'VBD'
p771
S'B-VP'
p772
g5
tp773
a(S'compared'
p774
S'compare'
p775
S'VBN'
p776
S'I-VP'
p777
g5
tp778
a(S'using'
p779
S'use'
p780
S'VBG'
p781
S'B-VP'
p782
g5
tp783
a(S'the'
p784
S'the'
p785
S'DT'
p786
S'B-NP'
p787
g5
tp788
a(S'McNemar'
p789
S'McNemar'
p790
S'NNP'
p791
S'I-NP'
p792
g5
tp793
a(S'test'
p794
S'test'
p795
S'NN'
p796
S'I-NP'
p797
g5
tp798
a(S'for'
p799
S'for'
p800
S'IN'
p801
S'B-PP'
p802
g5
tp803
a(S'each'
p804
S'each'
p805
S'DT'
p806
S'B-NP'
p807
g5
tp808
a(S'time'
p809
S'time'
p810
S'NN'
p811
S'I-NP'
p812
g5
tp813
a(S'point'
p814
S'point'
p815
S'NN'
p816
S'I-NP'
p817
g5
tp818
a(g67
g67
g67
g5
g5
tp819
a(S'RESULTS'
p820
S'RESULTS'
p821
S'NNS'
p822
S'B-NP'
p823
g5
tp824
a(S'Twenty-nine'
p825
S'Twenty-nine'
p826
S'CD'
p827
S'B-NP'
p828
g5
tp829
a(S'subjects'
p830
S'subject'
p831
S'NNS'
p832
S'I-NP'
p833
g5
tp834
a(S'had'
p835
S'have'
p836
S'VBD'
p837
S'B-VP'
p838
g5
tp839
a(S'photoplethysmography'
p840
S'photoplethysmography'
p841
S'NN'
p842
S'B-NP'
p843
g5
tp844
a(S'signals'
p845
S'signal'
p846
S'NNS'
p847
S'I-NP'
p848
g5
tp849
a(S'that'
p850
S'that'
p851
S'WDT'
p852
S'B-NP'
p853
g5
tp854
a(S'met'
p855
S'meet'
p856
S'VBD'
p857
S'B-VP'
p858
g5
tp859
a(g617
g617
S'DT'
p860
S'B-NP'
p861
g5
tp862
a(S'priori'
p863
S'priori'
p864
S'JJ'
p865
S'I-NP'
p866
g5
tp867
a(S'signal'
p868
S'signal'
p869
S'NN'
p870
S'I-NP'
p871
g5
tp872
a(S'quality'
p873
S'quality'
p874
S'NN'
p875
S'I-NP'
p876
g5
tp877
a(S'criteria'
p878
S'criterion'
p879
S'NNS'
p880
S'I-NP'
p881
g5
tp882
a(S'for'
p883
S'for'
p884
S'IN'
p885
S'B-PP'
p886
g5
tp887
a(S'analysis.'
p888
S'analysis.'
p889
S'NN'
p890
S'B-NP'
p891
g5
tp892
a(S'By'
p893
S'By'
p894
S'IN'
p895
S'B-PP'
p896
g5
tp897
a(S'20'
p898
S'20'
p899
S'CD'
p900
S'B-NP'
p901
g5
tp902
a(S'min'
p903
S'min'
p904
S'NN'
p905
S'I-NP'
p906
g5
tp907
a(g393
g393
g393
g5
g5
tp908
a(S'PI'
p909
S'PI'
p910
S'NN'
p911
S'B-NP'
p912
S'B-protein'
p913
tp914
a(S'increased'
p915
S'increase'
p916
S'VBD'
p917
S'B-VP'
p918
g5
tp919
a(S'by'
p920
S'by'
p921
S'IN'
p922
S'B-PP'
p923
g5
tp924
a(S'326'
p925
S'326'
p926
S'CD'
p927
S'B-NP'
p928
g5
tp929
a(g337
g337
S'NN'
p930
S'I-NP'
p931
g5
tp932
a(g393
g393
g393
g5
g5
tp933
a(S'compared'
p934
S'compare'
p935
S'VBN'
p936
S'B-PP'
p937
g5
tp938
a(S'with'
p939
S'with'
p940
S'IN'
p941
S'B-PP'
p942
g5
tp943
a(g617
g617
S'DT'
p944
S'B-NP'
p945
g5
tp946
a(S'10'
p947
S'10'
p948
S'CD'
p949
S'I-NP'
p950
g5
tp951
a(g337
g337
S'NN'
p952
S'I-NP'
p953
g5
tp954
a(S'decrease'
p955
S'decrease'
p956
S'NN'
p957
S'I-NP'
p958
g5
tp959
a(S'and'
p960
S'and'
p961
S'CC'
p962
g5
g5
tp963
a(g617
g617
S'DT'
p964
S'B-NP'
p965
g5
tp966
a(S'3'
p967
g967
S'CD'
p968
S'I-NP'
p969
g5
tp970
a(g337
g337
S'NN'
p971
S'I-NP'
p972
g5
tp973
a(S'increase'
p974
S'increase'
p975
S'NN'
p976
S'I-NP'
p977
g5
tp978
a(S'in'
p979
S'in'
p980
S'IN'
p981
S'B-PP'
p982
g5
tp983
a(S'MAP'
p984
S'MAP'
p985
S'NN'
p986
S'B-NP'
p987
g5
tp988
a(S'and'
p989
S'and'
p990
S'CC'
p991
S'I-NP'
p992
g5
tp993
a(S'toe'
p994
S'toe'
p995
S'NN'
p996
S'I-NP'
p997
g5
tp998
a(S'temperature'
p999
S'temperature'
p1000
S'NN'
p1001
S'I-NP'
p1002
g5
tp1003
a(g393
g393
g393
g5
g5
tp1004
a(S'respectively.'
p1005
S'respectively.'
p1006
S'NN'
p1007
S'B-NP'
p1008
g5
tp1009
a(S'For'
p1010
S'For'
p1011
S'IN'
p1012
S'B-PP'
p1013
g5
tp1014
a(S'PI'
p1015
S'PI'
p1016
S'NN'
p1017
S'B-NP'
p1018
S'B-protein'
p1019
tp1020
a(S'15/29'
p1021
S'15/29'
p1022
S'CD'
p1023
S'I-NP'
p1024
S'I-protein'
p1025
tp1026
a(g393
g393
g393
S'I-NP'
p1027
g5
tp1028
a(S'26/29'
p1029
S'26/29'
p1030
S'CD'
p1031
S'I-NP'
p1032
g5
tp1033
a(S'and'
p1034
S'and'
p1035
S'CC'
p1036
S'I-NP'
p1037
g5
tp1038
a(S'29/29'
p1039
S'29/29'
p1040
S'CD'
p1041
S'I-NP'
p1042
g5
tp1043
a(S'of'
p1044
S'of'
p1045
S'IN'
p1046
S'B-PP'
p1047
g5
tp1048
a(S'the'
p1049
S'the'
p1050
S'DT'
p1051
S'B-NP'
p1052
g5
tp1053
a(S'subjects'
p1054
S'subject'
p1055
S'NNS'
p1056
S'I-NP'
p1057
g5
tp1058
a(S'met'
p1059
S'meet'
p1060
S'VBD'
p1061
S'B-VP'
p1062
g5
tp1063
a(S'the'
p1064
S'the'
p1065
S'DT'
p1066
S'B-NP'
p1067
g5
tp1068
a(S'sympathectomy'
p1069
S'sympathectomy'
p1070
S'NN'
p1071
S'I-NP'
p1072
g5
tp1073
a(S'criteria'
p1074
S'criterion'
p1075
S'NNS'
p1076
S'I-NP'
p1077
g5
tp1078
a(S'at'
p1079
S'at'
p1080
S'IN'
p1081
S'B-PP'
p1082
g5
tp1083
a(g464
g464
S'CD'
p1084
S'B-NP'
p1085
g5
tp1086
a(g393
g393
g393
S'I-NP'
p1087
g5
tp1088
a(S'10'
p1089
S'10'
p1090
S'CD'
p1091
S'I-NP'
p1092
g5
tp1093
a(S'and'
p1094
S'and'
p1095
S'CC'
p1096
S'I-NP'
p1097
g5
tp1098
a(S'20'
p1099
S'20'
p1100
S'CD'
p1101
S'I-NP'
p1102
g5
tp1103
a(S'min'
p1104
S'min'
p1105
S'NN'
p1106
S'I-NP'
p1107
g5
tp1108
a(g393
g393
g393
g5
g5
tp1109
a(S'respectively'
p1110
S'respectively'
p1111
S'RB'
p1112
S'B-ADVP'
p1113
g5
tp1114
a(g393
g393
g393
g5
g5
tp1115
a(S'compared'
p1116
S'compare'
p1117
S'VBN'
p1118
S'B-PP'
p1119
g5
tp1120
a(S'with'
p1121
S'with'
p1122
S'IN'
p1123
S'B-PP'
p1124
g5
tp1125
a(S'4/29'
p1126
S'4/29'
p1127
S'CD'
p1128
S'B-NP'
p1129
g5
tp1130
a(g393
g393
g393
S'I-NP'
p1131
g5
tp1132
a(S'6/29'
p1133
S'6/29'
p1134
S'CD'
p1135
S'I-NP'
p1136
g5
tp1137
a(S'and'
p1138
S'and'
p1139
S'CC'
p1140
S'I-NP'
p1141
g5
tp1142
a(S'18/29'
p1143
S'18/29'
p1144
S'CD'
p1145
S'I-NP'
p1146
g5
tp1147
a(S'for'
p1148
S'for'
p1149
S'IN'
p1150
S'B-PP'
p1151
g5
tp1152
a(S'MAP'
p1153
S'MAP'
p1154
S'NN'
p1155
S'B-NP'
p1156
g5
tp1157
a(S'changes'
p1158
S'change'
p1159
S'NNS'
p1160
S'I-NP'
p1161
g5
tp1162
a(S'and'
p1163
S'and'
p1164
S'CC'
p1165
g5
g5
tp1166
a(S'3/29'
p1167
S'3/29'
p1168
S'CD'
p1169
S'B-NP'
p1170
g5
tp1171
a(g393
g393
g393
S'I-NP'
p1172
g5
tp1173
a(S'8/29'
p1174
S'8/29'
p1175
S'CD'
p1176
S'I-NP'
p1177
g5
tp1178
a(S'and'
p1179
S'and'
p1180
S'CC'
p1181
S'I-NP'
p1182
g5
tp1183
a(S'14/29'
p1184
S'14/29'
p1185
S'CD'
p1186
S'I-NP'
p1187
g5
tp1188
a(S'for'
p1189
S'for'
p1190
S'IN'
p1191
S'B-PP'
p1192
g5
tp1193
a(S'toe'
p1194
S'toe'
p1195
S'NN'
p1196
S'B-NP'
p1197
g5
tp1198
a(S'temperature'
p1199
S'temperature'
p1200
S'NN'
p1201
S'I-NP'
p1202
g5
tp1203
a(S'changes'
p1204
S'change'
p1205
S'NNS'
p1206
S'I-NP'
p1207
g5
tp1208
a(g67
g67
g67
g5
g5
tp1209
a(S'CONCLUSIONS'
p1210
S'CONCLUSIONS'
p1211
S'NNS'
p1212
S'B-NP'
p1213
g5
tp1214
a(S'PI'
p1215
S'PI'
p1216
S'NN'
p1217
S'I-NP'
p1218
g5
tp1219
a(S'was'
p1220
S'be'
p1221
S'VBD'
p1222
S'B-VP'
p1223
g5
tp1224
a(S'an'
p1225
S'an'
p1226
S'DT'
p1227
S'B-NP'
p1228
g5
tp1229
a(S'earlier'
p1230
S'early'
p1231
S'JJR'
p1232
S'I-NP'
p1233
g5
tp1234
a(g393
g393
g393
S'I-NP'
p1235
g5
tp1236
a(S'clearer'
p1237
S'clear'
p1238
S'JJR'
p1239
S'I-NP'
p1240
g5
tp1241
a(S'and'
p1242
S'and'
p1243
S'CC'
p1244
S'I-NP'
p1245
g5
tp1246
a(S'more'
p1247
S'more'
p1248
S'RBR'
p1249
S'I-NP'
p1250
g5
tp1251
a(S'sensitive'
p1252
S'sensitive'
p1253
S'JJ'
p1254
S'I-NP'
p1255
g5
tp1256
a(S'indicator'
p1257
S'indicator'
p1258
S'NN'
p1259
S'I-NP'
p1260
g5
tp1261
a(S'of'
p1262
S'of'
p1263
S'IN'
p1264
S'B-PP'
p1265
g5
tp1266
a(S'the'
p1267
S'the'
p1268
S'DT'
p1269
S'B-NP'
p1270
g5
tp1271
a(S'development'
p1272
S'development'
p1273
S'NN'
p1274
S'I-NP'
p1275
g5
tp1276
a(S'of'
p1277
S'of'
p1278
S'IN'
p1279
S'B-PP'
p1280
g5
tp1281
a(S'epidural-induced'
p1282
S'epidural-induced'
p1283
S'JJ'
p1284
S'B-NP'
p1285
g5
tp1286
a(S'sympathectomy'
p1287
S'sympathectomy'
p1288
S'NN'
p1289
S'I-NP'
p1290
g5
tp1291
a(S'than'
p1292
S'than'
p1293
S'IN'
p1294
S'B-PP'
p1295
g5
tp1296
a(S'either'
p1297
S'either'
p1298
S'CC'
p1299
g5
g5
tp1300
a(S'skin'
p1301
S'skin'
p1302
S'NN'
p1303
S'B-NP'
p1304
g5
tp1305
a(S'temperature'
p1306
S'temperature'
p1307
S'NN'
p1308
S'I-NP'
p1309
g5
tp1310
a(S'or'
p1311
S'or'
p1312
S'CC'
p1313
S'I-NP'
p1314
g5
tp1315
a(S'MAP'
p1316
S'MAP'
p1317
S'NN'
p1318
S'I-NP'
p1319
g5
tp1320
a(g67
g67
g67
g5
g5
tp1321
a.