(lp0
(S'Evaluation'
p1
S'Evaluation'
p2
S'NN'
p3
S'B-NP'
p4
S'O'
p5
tp6
a(S'of'
p7
S'of'
p8
S'IN'
p9
S'B-PP'
p10
g5
tp11
a(S'different'
p12
S'different'
p13
S'JJ'
p14
S'B-NP'
p15
g5
tp16
a(S'inhaled'
p17
S'inhale'
p18
S'VBN'
p19
S'I-NP'
p20
g5
tp21
a(S'combination'
p22
S'combination'
p23
S'NN'
p24
S'I-NP'
p25
g5
tp26
a(S'therapies'
p27
S'therapy'
p28
S'NNS'
p29
S'I-NP'
p30
g5
tp31
a(S'('
p32
g32
g32
g5
g5
tp33
a(S'EDICT'
p34
S'EDICT'
p35
S'NN'
p36
S'B-NP'
p37
g5
tp38
a(S')'
p39
g39
g39
g5
g5
tp40
a(S':'
p41
g41
g41
g5
g5
tp42
a(S'a'
p43
g43
S'DT'
p44
S'B-NP'
p45
g5
tp46
a(S'randomised'
p47
S'randomise'
p48
S'VBN'
p49
S'I-NP'
p50
g5
tp51
a(S','
p52
g52
g52
S'I-NP'
p53
g5
tp54
a(S'double-blind'
p55
S'double-blind'
p56
S'JJ'
p57
S'I-NP'
p58
g5
tp59
a(S'comparison'
p60
S'comparison'
p61
S'NN'
p62
S'I-NP'
p63
g5
tp64
a(S'of'
p65
S'of'
p66
S'IN'
p67
S'B-PP'
p68
g5
tp69
a(S'Seretide'
p70
S'Seretide'
p71
S'NN'
p72
S'B-NP'
p73
g5
tp74
a(g32
g32
g32
g5
g5
tp75
a(S'50/250'
p76
S'50/250'
p77
S'CD'
p78
S'B-NP'
p79
g5
tp80
a(S'microg'
p81
S'microg'
p82
S'NN'
p83
S'I-NP'
p84
g5
tp85
a(S'bd'
p86
S'bd'
p87
S'NN'
p88
S'I-NP'
p89
g5
tp90
a(S'Diskus'
p91
S'Diskus'
p92
S'NNP'
p93
S'I-NP'
p94
g5
tp95
a(S'vs.'
p96
S'vs.'
p97
S'CC'
p98
g5
g5
tp99
a(S'formoterol'
p100
S'formoterol'
p101
S'NN'
p102
S'B-NP'
p103
g5
tp104
a(g32
g32
g32
g5
g5
tp105
a(S'12'
p106
S'12'
p107
S'CD'
p108
S'B-NP'
p109
g5
tp110
a(S'microg'
p111
S'microg'
p112
S'NN'
p113
S'I-NP'
p114
g5
tp115
a(S'bd'
p116
S'bd'
p117
S'NN'
p118
S'I-NP'
p119
g5
tp120
a(g39
g39
g39
g5
g5
tp121
a(S'and'
p122
S'and'
p123
S'CC'
p124
g5
g5
tp125
a(S'budesonide'
p126
S'budesonide'
p127
S'NN'
p128
S'B-NP'
p129
g5
tp130
a(g32
g32
g32
g5
g5
tp131
a(S'800'
p132
S'800'
p133
S'CD'
p134
S'B-NP'
p135
g5
tp136
a(S'microg'
p137
S'microg'
p138
S'NN'
p139
S'I-NP'
p140
g5
tp141
a(S'bd'
p142
S'bd'
p143
S'NN'
p144
S'I-NP'
p145
g5
tp146
a(g39
g39
g39
g5
g5
tp147
a(S'given'
p148
S'give'
p149
S'VBN'
p150
S'B-VP'
p151
g5
tp152
a(S'concurrently'
p153
S'concurrently'
p154
S'RB'
p155
S'B-ADVP'
p156
g5
tp157
a(g32
g32
g32
g5
g5
tp158
a(S'both'
p159
S'both'
p160
S'DT'
p161
S'B-PP'
p162
g5
tp163
a(S'via'
p164
S'via'
p165
S'IN'
p166
S'I-PP'
p167
g5
tp168
a(S'Turbuhaler'
p169
S'Turbuhaler'
p170
S'NNP'
p171
S'B-NP'
p172
g5
tp173
a(g39
g39
g39
g5
g5
tp174
a(S'in'
p175
S'in'
p176
S'IN'
p177
S'B-PP'
p178
g5
tp179
a(S'patients'
p180
S'patient'
p181
S'NNS'
p182
S'B-NP'
p183
g5
tp184
a(S'with'
p185
S'with'
p186
S'IN'
p187
S'B-PP'
p188
g5
tp189
a(S'moderate-to-severe'
p190
S'moderate-to-severe'
p191
S'JJ'
p192
S'B-NP'
p193
g5
tp194
a(S'asthma'
p195
S'asthma'
p196
S'NN'
p197
S'I-NP'
p198
g5
tp199
a(S'.'
p200
g200
g200
g5
g5
tp201
a(S'The'
p202
S'The'
p203
S'DT'
p204
S'B-NP'
p205
g5
tp206
a(S'aim'
p207
S'aim'
p208
S'NN'
p209
S'I-NP'
p210
g5
tp211
a(S'of'
p212
S'of'
p213
S'IN'
p214
S'B-PP'
p215
g5
tp216
a(S'this'
p217
S'this'
p218
S'DT'
p219
S'B-NP'
p220
g5
tp221
a(S'study'
p222
S'study'
p223
S'NN'
p224
S'I-NP'
p225
g5
tp226
a(S'was'
p227
S'be'
p228
S'VBD'
p229
S'B-VP'
p230
g5
tp231
a(S'to'
p232
S'to'
p233
S'TO'
p234
S'B-VP'
p235
g5
tp236
a(S'compare'
p237
S'compare'
p238
S'VB'
p239
S'I-VP'
p240
g5
tp241
a(S'the'
p242
S'the'
p243
S'DT'
p244
S'B-NP'
p245
g5
tp246
a(S'efficacy'
p247
S'efficacy'
p248
S'NN'
p249
S'I-NP'
p250
g5
tp251
a(S'safety'
p252
S'safety'
p253
S'NN'
p254
S'I-NP'
p255
g5
tp256
a(S'and'
p257
S'and'
p258
S'CC'
p259
S'I-NP'
p260
g5
tp261
a(S'cost'
p262
S'cost'
p263
S'NN'
p264
S'I-NP'
p265
g5
tp266
a(S'of'
p267
S'of'
p268
S'IN'
p269
S'B-PP'
p270
g5
tp271
a(S'Seretide'
p272
S'Seretide'
p273
S'NN'
p274
S'B-NP'
p275
g5
tp276
a(g32
g32
g32
g5
g5
tp277
a(S'salmeterol/fluticasone'
p278
S'salmeterol/fluticasone'
p279
S'NN'
p280
S'B-NP'
p281
g5
tp282
a(S'propionate'
p283
S'propionate'
p284
S'NN'
p285
S'I-NP'
p286
g5
tp287
a(g32
g32
g32
g5
g5
tp288
a(S'Salm/FP'
p289
S'Salm/FP'
p290
S'NN'
p291
S'B-NP'
p292
S'B-protein'
p293
tp294
a(g39
g39
g39
g5
g5
tp295
a(g52
g52
g52
g5
g5
tp296
a(S'50/250'
p297
S'50/250'
p298
S'CD'
p299
S'B-NP'
p300
g5
tp301
a(S'microg'
p302
S'microg'
p303
S'NN'
p304
S'I-NP'
p305
g5
tp306
a(S'bd'
p307
S'bd'
p308
S'NN'
p309
S'I-NP'
p310
g5
tp311
a(g39
g39
g39
g5
g5
tp312
a(S'via'
p313
S'via'
p314
S'IN'
p315
S'B-PP'
p316
g5
tp317
a(S'Diskus'
p318
S'Diskus'
p319
S'NN'
p320
S'B-NP'
p321
g5
tp322
a(S'with'
p323
S'with'
p324
S'IN'
p325
S'B-PP'
p326
g5
tp327
a(S'formoterol'
p328
S'formoterol'
p329
S'NN'
p330
S'B-NP'
p331
g5
tp332
a(g32
g32
g32
g5
g5
tp333
a(S'Form'
p334
S'Form'
p335
S'NN'
p336
S'B-NP'
p337
g5
tp338
a(S';'
p339
g339
g41
g5
g5
tp340
a(S'12'
p341
S'12'
p342
S'CD'
p343
S'B-NP'
p344
g5
tp345
a(S'microg'
p346
S'microg'
p347
S'NN'
p348
S'I-NP'
p349
g5
tp350
a(S'bd'
p351
S'bd'
p352
S'NN'
p353
S'I-NP'
p354
g5
tp355
a(g39
g39
g39
g5
g5
tp356
a(S'and'
p357
S'and'
p358
S'CC'
p359
g5
g5
tp360
a(S'budesonide'
p361
S'budesonide'
p362
S'NN'
p363
S'B-NP'
p364
g5
tp365
a(g32
g32
g32
g5
g5
tp366
a(S'Bud'
p367
S'Bud'
p368
S'NN'
p369
S'B-NP'
p370
g5
tp371
a(g339
g339
g41
g5
g5
tp372
a(S'800'
p373
S'800'
p374
S'CD'
p375
S'B-NP'
p376
g5
tp377
a(S'microg'
p378
S'microg'
p379
S'NN'
p380
S'I-NP'
p381
g5
tp382
a(S'bd'
p383
S'bd'
p384
S'NN'
p385
S'I-NP'
p386
g5
tp387
a(g39
g39
g39
g5
g5
tp388
a(S'given'
p389
S'give'
p390
S'VBN'
p391
S'B-VP'
p392
g5
tp393
a(S'concurrently'
p394
S'concurrently'
p395
S'RB'
p396
S'B-ADVP'
p397
g5
tp398
a(g32
g32
g32
g5
g5
tp399
a(S'Form+Bud'
p400
S'Form+Bud'
p401
S'RB'
p402
S'B-ADVP'
p403
g5
tp404
a(g39
g39
g39
g5
g5
tp405
a(S'via'
p406
S'via'
p407
S'IN'
p408
S'B-PP'
p409
g5
tp410
a(S'Turbuhaler'
p411
S'Turbuhaler'
p412
S'NN'
p413
S'B-NP'
p414
g5
tp415
a(S'in'
p416
S'in'
p417
S'IN'
p418
S'B-PP'
p419
g5
tp420
a(S'patients'
p421
S'patient'
p422
S'NNS'
p423
S'B-NP'
p424
g5
tp425
a(S'with'
p426
S'with'
p427
S'IN'
p428
S'B-PP'
p429
g5
tp430
a(S'moderate-to-severe'
p431
S'moderate-to-severe'
p432
S'JJ'
p433
S'B-NP'
p434
g5
tp435
a(S'asthma'
p436
S'asthma'
p437
S'NN'
p438
S'I-NP'
p439
g5
tp440
a(S'who'
p441
S'who'
p442
S'WP'
p443
S'B-NP'
p444
g5
tp445
a(S'were'
p446
S'be'
p447
S'VBD'
p448
S'B-VP'
p449
g5
tp450
a(S'uncontrolled'
p451
S'uncontrolle'
p452
S'VBN'
p453
S'I-VP'
p454
g5
tp455
a(S'on'
p456
S'on'
p457
S'IN'
p458
S'B-PP'
p459
g5
tp460
a(S'existing'
p461
S'exist'
p462
S'VBG'
p463
S'B-NP'
p464
g5
tp465
a(S'corticosteroid'
p466
S'corticosteroid'
p467
S'NN'
p468
S'I-NP'
p469
g5
tp470
a(S'therapy.'
p471
S'therapy.'
p472
S'RB'
p473
S'B-ADVP'
p474
g5
tp475
a(S'The'
p476
S'The'
p477
S'DT'
p478
S'B-NP'
p479
g5
tp480
a(S'study'
p481
S'study'
p482
S'NN'
p483
S'I-NP'
p484
g5
tp485
a(S'used'
p486
S'use'
p487
S'VBD'
p488
S'B-VP'
p489
g5
tp490
a(g43
g43
S'DT'
p491
S'B-NP'
p492
g5
tp493
a(S'randomised'
p494
S'randomise'
p495
S'VBN'
p496
S'I-NP'
p497
g5
tp498
a(g52
g52
g52
S'I-NP'
p499
g5
tp500
a(S'double-blind'
p501
S'double-blind'
p502
S'JJ'
p503
S'I-NP'
p504
g5
tp505
a(g52
g52
g52
S'I-NP'
p506
g5
tp507
a(S'double-dummy'
p508
S'double-dummy'
p509
S'JJ'
p510
S'I-NP'
p511
g5
tp512
a(g52
g52
g52
S'I-NP'
p513
g5
tp514
a(S'parallel-group'
p515
S'parallel-group'
p516
S'JJ'
p517
S'I-NP'
p518
g5
tp519
a(S'design'
p520
S'design'
p521
S'NN'
p522
S'I-NP'
p523
g5
tp524
a(g52
g52
g52
g5
g5
tp525
a(S'consisting'
p526
S'consist'
p527
S'VBG'
p528
S'B-VP'
p529
g5
tp530
a(S'of'
p531
S'of'
p532
S'IN'
p533
S'B-PP'
p534
g5
tp535
a(g43
g43
S'DT'
p536
S'B-NP'
p537
g5
tp538
a(S'2-week'
p539
S'2-week'
p540
S'JJ'
p541
S'I-NP'
p542
g5
tp543
a(S'run-in'
p544
S'run-in'
p545
S'JJ'
p546
S'I-NP'
p547
g5
tp548
a(S'period'
p549
S'period'
p550
S'NN'
p551
S'I-NP'
p552
g5
tp553
a(S'on'
p554
S'on'
p555
S'IN'
p556
S'B-PP'
p557
g5
tp558
a(S'current'
p559
S'current'
p560
S'JJ'
p561
S'B-NP'
p562
g5
tp563
a(S'corticosteroid'
p564
S'corticosteroid'
p565
S'NN'
p566
S'I-NP'
p567
g5
tp568
a(S'therapy'
p569
S'therapy'
p570
S'NN'
p571
S'I-NP'
p572
g5
tp573
a(g32
g32
g32
g5
g5
tp574
a(S'1000-1600'
p575
S'1000-1600'
p576
S'CD'
p577
S'B-NP'
p578
g5
tp579
a(S'microg/day'
p580
S'microg/day'
p581
S'NN'
p582
S'I-NP'
p583
g5
tp584
a(S'of'
p585
S'of'
p586
S'IN'
p587
S'B-PP'
p588
g5
tp589
a(S'BDP'
p590
S'BDP'
p591
S'NN'
p592
S'B-NP'
p593
g5
tp594
a(S'or'
p595
S'or'
p596
S'CC'
p597
g5
g5
tp598
a(S'equivalent'
p599
S'equivalent'
p600
S'JJ'
p601
S'B-ADJP'
p602
g5
tp603
a(g39
g39
g39
g5
g5
tp604
a(S'and'
p605
S'and'
p606
S'CC'
p607
g5
g5
tp608
a(g43
g43
S'DT'
p609
S'B-NP'
p610
g5
tp611
a(S'12-week'
p612
S'12-week'
p613
S'JJ'
p614
S'I-NP'
p615
g5
tp616
a(S'treatment'
p617
S'treatment'
p618
S'NN'
p619
S'I-NP'
p620
g5
tp621
a(S'period.'
p622
S'period.'
p623
S'NN'
p624
S'I-NP'
p625
g5
tp626
a(S'Symptomatic'
p627
S'Symptomatic'
p628
S'JJ'
p629
S'B-NP'
p630
g5
tp631
a(S'patients'
p632
S'patient'
p633
S'NNS'
p634
S'I-NP'
p635
g5
tp636
a(g32
g32
g32
g5
g5
tp637
a(S'n'
p638
g638
S'NN'
p639
S'B-NP'
p640
g5
tp641
a(S'='
p642
g642
S'SYM'
p643
S'B-VP'
p644
g5
tp645
a(S'428'
p646
S'428'
p647
S'CD'
p648
S'B-NP'
p649
g5
tp650
a(g39
g39
g39
g5
g5
tp651
a(S'with'
p652
S'with'
p653
S'IN'
p654
S'B-PP'
p655
g5
tp656
a(S'FEV1'
p657
S'FEV1'
p658
S'NN'
p659
S'B-NP'
p660
g5
tp661
a(S'of'
p662
S'of'
p663
S'IN'
p664
S'B-PP'
p665
g5
tp666
a(S'50-85'
p667
S'50-85'
p668
S'CD'
p669
S'B-NP'
p670
g5
tp671
a(S'%'
p672
g672
S'NN'
p673
S'I-NP'
p674
g5
tp675
a(S'predicted'
p676
S'predict'
p677
S'VBN'
p678
S'B-VP'
p679
g5
tp680
a(S'and'
p681
S'and'
p682
S'CC'
p683
g5
g5
tp684
a(S'increased'
p685
S'increase'
p686
S'VBN'
p687
S'B-NP'
p688
g5
tp689
a(S'symptom'
p690
S'symptom'
p691
S'NN'
p692
S'I-NP'
p693
g5
tp694
a(S'scores'
p695
S'score'
p696
S'NNS'
p697
S'I-NP'
p698
g5
tp699
a(S'or'
p700
S'or'
p701
S'CC'
p702
g5
g5
tp703
a(S'reliever'
p704
S'reliever'
p705
S'VB'
p706
S'B-VP'
p707
g5
tp708
a(S'use'
p709
S'use'
p710
S'NN'
p711
S'B-NP'
p712
g5
tp713
a(S'during'
p714
S'during'
p715
S'IN'
p716
S'B-PP'
p717
g5
tp718
a(S'run-in'
p719
S'run-in'
p720
S'NN'
p721
S'B-NP'
p722
S'B-protein'
p723
tp724
a(S'were'
p725
S'be'
p726
S'VBD'
p727
S'B-VP'
p728
g5
tp729
a(S'randomly'
p730
S'randomly'
p731
S'RB'
p732
S'I-VP'
p733
g5
tp734
a(S'allocated'
p735
S'allocate'
p736
S'VBN'
p737
S'I-VP'
p738
g5
tp739
a(S'to'
p740
S'to'
p741
S'TO'
p742
S'I-VP'
p743
g5
tp744
a(S'receive'
p745
S'receive'
p746
S'VB'
p747
S'I-VP'
p748
g5
tp749
a(S'either'
p750
S'either'
p751
S'CC'
p752
g5
g5
tp753
a(S'Salm/FP'
p754
S'Salm/FP'
p755
S'NN'
p756
S'B-NP'
p757
S'B-protein'
p758
tp759
a(g32
g32
g32
g5
g5
tp760
a(S'50/250'
p761
S'50/250'
p762
S'CD'
p763
S'B-NP'
p764
g5
tp765
a(S'microg'
p766
S'microg'
p767
S'NN'
p768
S'I-NP'
p769
g5
tp770
a(S'bd'
p771
S'bd'
p772
S'NN'
p773
S'I-NP'
p774
g5
tp775
a(g39
g39
g39
g5
g5
tp776
a(S'via'
p777
S'via'
p778
S'IN'
p779
S'B-PP'
p780
g5
tp781
a(g43
g43
S'DT'
p782
S'B-NP'
p783
g5
tp784
a(S'single'
p785
S'single'
p786
S'JJ'
p787
S'I-NP'
p788
g5
tp789
a(S'Diskus'
p790
S'Diskus'
p791
S'NNP'
p792
S'I-NP'
p793
g5
tp794
a(S'inhaleror'
p795
S'inhaleror'
p796
S'NN'
p797
S'I-NP'
p798
g5
tp799
a(S'Form+Bud'
p800
S'Form+Bud'
p801
S'NNP'
p802
S'I-NP'
p803
g5
tp804
a(g32
g32
g32
g5
g5
tp805
a(S'12+800'
p806
S'12+800'
p807
S'CD'
p808
S'B-NP'
p809
g5
tp810
a(S'microg'
p811
S'microg'
p812
S'NN'
p813
S'I-NP'
p814
g5
tp815
a(S'bd'
p816
S'bd'
p817
S'NN'
p818
S'I-NP'
p819
g5
tp820
a(g39
g39
g39
g5
g5
tp821
a(S'via'
p822
S'via'
p823
S'IN'
p824
S'B-PP'
p825
g5
tp826
a(S'separate'
p827
S'separate'
p828
S'JJ'
p829
S'B-NP'
p830
g5
tp831
a(S'Turbuhalers.'
p832
S'Turbuhalers.'
p833
S'NNP'
p834
S'I-NP'
p835
g5
tp836
a(S'Clinic'
p837
S'Clinic'
p838
S'NNP'
p839
S'I-NP'
p840
g5
tp841
a(g52
g52
g52
g5
g5
tp842
a(S'diary'
p843
S'diary'
p844
S'JJ'
p845
S'B-NP'
p846
g5
tp847
a(S'card'
p848
S'card'
p849
S'NN'
p850
S'I-NP'
p851
g5
tp852
a(S'and'
p853
S'and'
p854
S'CC'
p855
g5
g5
tp856
a(S'asthma-related'
p857
S'asthma-related'
p858
S'JJ'
p859
S'B-NP'
p860
g5
tp861
a(S'health-care'
p862
S'health-care'
p863
S'NN'
p864
S'I-NP'
p865
g5
tp866
a(S'resource'
p867
S'resource'
p868
S'NN'
p869
S'I-NP'
p870
g5
tp871
a(S'utilisation'
p872
S'utilisation'
p873
S'NN'
p874
S'I-NP'
p875
g5
tp876
a(S'data'
p877
S'datum'
p878
S'NNS'
p879
S'I-NP'
p880
g5
tp881
a(S'were'
p882
S'be'
p883
S'VBD'
p884
S'B-VP'
p885
g5
tp886
a(S'collected.'
p887
S'collected.'
p888
S'JJ'
p889
S'B-NP'
p890
g5
tp891
a(S'Improvement'
p892
S'Improvement'
p893
S'NN'
p894
S'I-NP'
p895
g5
tp896
a(S'in'
p897
S'in'
p898
S'IN'
p899
S'B-PP'
p900
g5
tp901
a(S'mean'
p902
S'mean'
p903
S'JJ'
p904
S'B-NP'
p905
g5
tp906
a(S'morning'
p907
S'morning'
p908
S'NN'
p909
S'I-NP'
p910
g5
tp911
a(S'peak'
p912
S'peak'
p913
S'NN'
p914
S'I-NP'
p915
g5
tp916
a(S'expiratory'
p917
S'expiratory'
p918
S'NN'
p919
S'I-NP'
p920
g5
tp921
a(S'flow'
p922
S'flow'
p923
S'NN'
p924
S'I-NP'
p925
g5
tp926
a(g32
g32
g32
g5
g5
tp927
a(S'PEFam'
p928
S'PEFam'
p929
S'NN'
p930
S'B-NP'
p931
g5
tp932
a(S'was'
p933
S'be'
p934
S'VBD'
p935
S'B-VP'
p936
g5
tp937
a(S'similar'
p938
S'similar'
p939
S'JJ'
p940
S'B-ADJP'
p941
g5
tp942
a(S'in'
p943
S'in'
p944
S'IN'
p945
S'B-PP'
p946
g5
tp947
a(S'the'
p948
S'the'
p949
S'DT'
p950
S'B-NP'
p951
g5
tp952
a(S'Salm/FP'
p953
S'Salm/FP'
p954
S'NN'
p955
S'I-NP'
p956
g5
tp957
a(S'and'
p958
S'and'
p959
S'CC'
p960
S'I-NP'
p961
g5
tp962
a(S'Form+Bud'
p963
S'Form+Bud'
p964
S'NN'
p965
S'I-NP'
p966
g5
tp967
a(S'groups.'
p968
S'groups.'
p969
S'NN'
p970
S'I-NP'
p971
g5
tp972
a(S'Both'
p973
S'Both'
p974
S'CC'
p975
g5
g5
tp976
a(S'PEFam'
p977
S'PEFam'
p978
S'NN'
p979
S'B-NP'
p980
g5
tp981
a(S'and'
p982
S'and'
p983
S'CC'
p984
g5
g5
tp985
a(S'mean'
p986
S'mean'
p987
S'JJ'
p988
S'B-NP'
p989
g5
tp990
a(S'evening'
p991
S'evening'
p992
S'NN'
p993
S'I-NP'
p994
g5
tp995
a(S'PEF'
p996
S'PEF'
p997
S'NN'
p998
S'I-NP'
p999
g5
tp1000
a(g32
g32
g32
g5
g5
tp1001
a(S'PEFpm'
p1002
S'PEFpm'
p1003
S'NN'
p1004
S'B-NP'
p1005
g5
tp1006
a(g39
g39
g39
g5
g5
tp1007
a(S'increased'
p1008
S'increase'
p1009
S'VBN'
p1010
S'B-VP'
p1011
g5
tp1012
a(S'by'
p1013
S'by'
p1014
S'IN'
p1015
S'B-PP'
p1016
g5
tp1017
a(g43
g43
S'DT'
p1018
S'B-NP'
p1019
g5
tp1020
a(S'clinically'
p1021
S'clinically'
p1022
S'RB'
p1023
S'I-NP'
p1024
g5
tp1025
a(S'significant'
p1026
S'significant'
p1027
S'JJ'
p1028
S'I-NP'
p1029
g5
tp1030
a(S'amount'
p1031
S'amount'
p1032
S'NN'
p1033
S'I-NP'
p1034
g5
tp1035
a(g32
g32
g32
g5
g5
tp1036
a(S'>'
p1037
g1037
S'SYM'
p1038
S'B-NP'
p1039
g5
tp1040
a(S'20'
p1041
S'20'
p1042
S'CD'
p1043
S'B-NP'
p1044
g5
tp1045
a(S'L/min'
p1046
S'L/min'
p1047
S'NN'
p1048
S'I-NP'
p1049
g5
tp1050
a(g39
g39
g39
g5
g5
tp1051
a(S'from'
p1052
S'from'
p1053
S'IN'
p1054
S'B-PP'
p1055
g5
tp1056
a(S'baseline'
p1057
S'baseline'
p1058
S'NN'
p1059
S'B-NP'
p1060
g5
tp1061
a(S'in'
p1062
S'in'
p1063
S'IN'
p1064
S'B-PP'
p1065
g5
tp1066
a(S'both'
p1067
S'both'
p1068
S'DT'
p1069
S'B-NP'
p1070
g5
tp1071
a(S'treatment'
p1072
S'treatment'
p1073
S'NN'
p1074
S'I-NP'
p1075
g5
tp1076
a(S'groups.'
p1077
S'groups.'
p1078
S'NN'
p1079
S'I-NP'
p1080
g5
tp1081
a(S'The'
p1082
S'The'
p1083
S'DT'
p1084
S'B-NP'
p1085
g5
tp1086
a(S'mean'
p1087
S'mean'
p1088
S'JJ'
p1089
S'I-NP'
p1090
g5
tp1091
a(S'rate'
p1092
S'rate'
p1093
S'NN'
p1094
S'I-NP'
p1095
g5
tp1096
a(S'of'
p1097
S'of'
p1098
S'IN'
p1099
S'B-PP'
p1100
g5
tp1101
a(S'exacerbations'
p1102
S'exacerbation'
p1103
S'NNS'
p1104
S'B-NP'
p1105
g5
tp1106
a(g32
g32
g32
g5
g5
tp1107
a(S'mild'
p1108
S'mild'
p1109
S'JJ'
p1110
S'B-NP'
p1111
g5
tp1112
a(g52
g52
g52
S'I-NP'
p1113
g5
tp1114
a(S'moderate'
p1115
S'moderate'
p1116
S'JJ'
p1117
S'I-NP'
p1118
g5
tp1119
a(S'or'
p1120
S'or'
p1121
S'CC'
p1122
S'I-NP'
p1123
g5
tp1124
a(S'severe'
p1125
S'severe'
p1126
S'JJ'
p1127
S'I-NP'
p1128
g5
tp1129
a(g39
g39
g39
g5
g5
tp1130
a(S'was'
p1131
S'be'
p1132
S'VBD'
p1133
S'B-VP'
p1134
g5
tp1135
a(S'significantly'
p1136
S'significantly'
p1137
S'RB'
p1138
S'B-ADJP'
p1139
g5
tp1140
a(S'lower'
p1141
S'low'
p1142
S'JJR'
p1143
S'I-ADJP'
p1144
g5
tp1145
a(S'in'
p1146
S'in'
p1147
S'IN'
p1148
S'B-PP'
p1149
g5
tp1150
a(S'the'
p1151
S'the'
p1152
S'DT'
p1153
S'B-NP'
p1154
g5
tp1155
a(S'Salm/FP'
p1156
S'Salm/FP'
p1157
S'NN'
p1158
S'I-NP'
p1159
g5
tp1160
a(S'group'
p1161
S'group'
p1162
S'NN'
p1163
S'I-NP'
p1164
g5
tp1165
a(g32
g32
g32
g5
g5
tp1166
a(S'0.472'
p1167
S'0.472'
p1168
S'CD'
p1169
S'B-NP'
p1170
g5
tp1171
a(g39
g39
g39
g5
g5
tp1172
a(S'compared'
p1173
S'compare'
p1174
S'VBN'
p1175
S'B-PP'
p1176
g5
tp1177
a(S'with'
p1178
S'with'
p1179
S'IN'
p1180
S'B-PP'
p1181
g5
tp1182
a(S'the'
p1183
S'the'
p1184
S'DT'
p1185
S'B-NP'
p1186
g5
tp1187
a(S'Form+Bud'
p1188
S'Form+Bud'
p1189
S'NN'
p1190
S'I-NP'
p1191
g5
tp1192
a(S'group'
p1193
S'group'
p1194
S'NN'
p1195
S'I-NP'
p1196
g5
tp1197
a(g32
g32
g32
g5
g5
tp1198
a(S'0.735'
p1199
S'0.735'
p1200
S'CD'
p1201
S'B-NP'
p1202
g5
tp1203
a(g39
g39
g39
g5
g5
tp1204
a(g32
g32
g32
g5
g5
tp1205
a(S'ratio'
p1206
S'ratio'
p1207
S'NN'
p1208
S'B-NP'
p1209
g5
tp1210
a(g642
g642
S'SYM'
p1211
S'B-VP'
p1212
g5
tp1213
a(S'0.64'
p1214
S'0.64'
p1215
S'CD'
p1216
S'B-NP'
p1217
g5
tp1218
a(g339
g339
g41
g5
g5
tp1219
a(S'P'
p1220
g1220
S'NN'
p1221
S'B-NP'
p1222
g5
tp1223
a(S'<'
p1224
g1224
S'SYM'
p1225
S'B-NP'
p1226
g5
tp1227
a(S'0.001'
p1228
S'0.001'
p1229
S'CD'
p1230
S'I-NP'
p1231
g5
tp1232
a(g39
g39
g39
g5
g5
tp1233
a(g52
g52
g52
g5
g5
tp1234
a(S'despite'
p1235
S'despite'
p1236
S'IN'
p1237
S'B-PP'
p1238
g5
tp1239
a(S'the'
p1240
S'the'
p1241
S'DT'
p1242
S'B-NP'
p1243
g5
tp1244
a(S'three-fold'
p1245
S'three-fold'
p1246
S'JJ'
p1247
S'I-NP'
p1248
g5
tp1249
a(S'lower'
p1250
S'low'
p1251
S'JJR'
p1252
S'I-NP'
p1253
g5
tp1254
a(S'microgram'
p1255
S'microgram'
p1256
S'NN'
p1257
S'I-NP'
p1258
g5
tp1259
a(S'inhaled'
p1260
S'inhale'
p1261
S'VBD'
p1262
S'B-VP'
p1263
g5
tp1264
a(S'corticosteroid'
p1265
S'corticosteroid'
p1266
S'NN'
p1267
S'B-NP'
p1268
g5
tp1269
a(S'dose'
p1270
S'dose'
p1271
S'NN'
p1272
S'I-NP'
p1273
g5
tp1274
a(S'in'
p1275
S'in'
p1276
S'IN'
p1277
S'B-PP'
p1278
g5
tp1279
a(S'the'
p1280
S'the'
p1281
S'DT'
p1282
S'B-NP'
p1283
g5
tp1284
a(S'Salm/FP'
p1285
S'Salm/FP'
p1286
S'NN'
p1287
S'I-NP'
p1288
g5
tp1289
a(S'group.'
p1290
S'group.'
p1291
S'NN'
p1292
S'I-NP'
p1293
g5
tp1294
a(S'Patients'
p1295
S'Patient'
p1296
S'NNS'
p1297
S'I-NP'
p1298
g5
tp1299
a(S'in'
p1300
S'in'
p1301
S'IN'
p1302
S'B-PP'
p1303
g5
tp1304
a(S'the'
p1305
S'the'
p1306
S'DT'
p1307
S'B-NP'
p1308
g5
tp1309
a(S'Salm/FP'
p1310
S'Salm/FP'
p1311
S'NNP'
p1312
S'I-NP'
p1313
g5
tp1314
a(S'group'
p1315
S'group'
p1316
S'NN'
p1317
S'I-NP'
p1318
g5
tp1319
a(S'also'
p1320
S'also'
p1321
S'RB'
p1322
S'B-ADVP'
p1323
g5
tp1324
a(S'experienced'
p1325
S'experience'
p1326
S'VBD'
p1327
S'B-VP'
p1328
g5
tp1329
a(S'significantly'
p1330
S'significantly'
p1331
S'RB'
p1332
S'B-NP'
p1333
g5
tp1334
a(S'fewer'
p1335
S'few'
p1336
S'JJR'
p1337
S'I-NP'
p1338
g5
tp1339
a(S'nocturnal'
p1340
S'nocturnal'
p1341
S'JJ'
p1342
S'I-NP'
p1343
g5
tp1344
a(S'symptoms'
p1345
S'symptom'
p1346
S'NNS'
p1347
S'I-NP'
p1348
g5
tp1349
a(g52
g52
g52
g5
g5
tp1350
a(S'with'
p1351
S'with'
p1352
S'IN'
p1353
S'B-PP'
p1354
g5
tp1355
a(g43
g43
S'DT'
p1356
S'B-NP'
p1357
g5
tp1358
a(S'higher'
p1359
S'high'
p1360
S'JJR'
p1361
S'I-NP'
p1362
g5
tp1363
a(S'median'
p1364
S'median'
p1365
S'JJ'
p1366
S'I-NP'
p1367
g5
tp1368
a(S'percentage'
p1369
S'percentage'
p1370
S'NN'
p1371
S'I-NP'
p1372
g5
tp1373
a(S'of'
p1374
S'of'
p1375
S'IN'
p1376
S'B-PP'
p1377
g5
tp1378
a(S'symptom-free'
p1379
S'symptom-free'
p1380
S'JJ'
p1381
S'B-NP'
p1382
g5
tp1383
a(S'nights'
p1384
S'night'
p1385
S'NNS'
p1386
S'I-NP'
p1387
g5
tp1388
a(g32
g32
g32
g5
g5
tp1389
a(g1220
g1220
S'NN'
p1390
S'B-NP'
p1391
g5
tp1392
a(g642
g642
S'SYM'
p1393
S'B-VP'
p1394
g5
tp1395
a(S'0.04'
p1396
S'0.04'
p1397
S'CD'
p1398
S'B-NP'
p1399
g5
tp1400
a(g39
g39
g39
g5
g5
tp1401
a(g52
g52
g52
g5
g5
tp1402
a(S'nights'
p1403
S'night'
p1404
S'NNS'
p1405
S'B-NP'
p1406
g5
tp1407
a(S'with'
p1408
S'with'
p1409
S'IN'
p1410
S'B-PP'
p1411
g5
tp1412
a(g43
g43
S'DT'
p1413
S'B-NP'
p1414
g5
tp1415
a(S'symptom'
p1416
S'symptom'
p1417
S'NN'
p1418
S'I-NP'
p1419
g5
tp1420
a(S'score'
p1421
S'score'
p1422
S'NN'
p1423
S'I-NP'
p1424
g5
tp1425
a(g1224
g1224
S'SYM'
p1426
g5
g5
tp1427
a(S'2'
p1428
g1428
S'CD'
p1429
S'B-NP'
p1430
g5
tp1431
a(g32
g32
g32
g5
g5
tp1432
a(g1220
g1220
S'NN'
p1433
S'B-NP'
p1434
g5
tp1435
a(g642
g642
S'SYM'
p1436
S'B-VP'
p1437
g5
tp1438
a(S'0.03'
p1439
S'0.03'
p1440
S'CD'
p1441
S'B-NP'
p1442
g5
tp1443
a(g39
g39
g39
g5
g5
tp1444
a(g52
g52
g52
g5
g5
tp1445
a(S'and'
p1446
S'and'
p1447
S'CC'
p1448
g5
g5
tp1449
a(S'nights'
p1450
S'night'
p1451
S'NNS'
p1452
S'B-NP'
p1453
g5
tp1454
a(S'with'
p1455
S'with'
p1456
S'IN'
p1457
S'B-PP'
p1458
g5
tp1459
a(S'no'
p1460
S'no'
p1461
S'DT'
p1462
S'B-NP'
p1463
g5
tp1464
a(S'awakenings'
p1465
S'awakening'
p1466
S'NNS'
p1467
S'I-NP'
p1468
g5
tp1469
a(g32
g32
g32
g5
g5
tp1470
a(g1220
g1220
S'NN'
p1471
S'B-NP'
p1472
g5
tp1473
a(g642
g642
S'SYM'
p1474
S'B-VP'
p1475
g5
tp1476
a(S'0.02'
p1477
S'0.02'
p1478
S'CD'
p1479
S'B-NP'
p1480
g5
tp1481
a(g39
g39
g39
g5
g5
tp1482
a(g200
g200
g200
g5
g5
tp1483
a(S'Total'
p1484
S'Total'
p1485
S'JJ'
p1486
S'B-NP'
p1487
g5
tp1488
a(S'asthma-related'
p1489
S'asthma-related'
p1490
S'JJ'
p1491
S'I-NP'
p1492
g5
tp1493
a(S'health-care'
p1494
S'health-care'
p1495
S'NN'
p1496
S'I-NP'
p1497
g5
tp1498
a(S'costs'
p1499
S'cost'
p1500
S'NNS'
p1501
S'I-NP'
p1502
g5
tp1503
a(S'were'
p1504
S'be'
p1505
S'VBD'
p1506
S'B-VP'
p1507
g5
tp1508
a(S'significantly'
p1509
S'significantly'
p1510
S'RB'
p1511
S'B-ADJP'
p1512
g5
tp1513
a(S'lower'
p1514
S'low'
p1515
S'JJR'
p1516
S'I-ADJP'
p1517
g5
tp1518
a(S'in'
p1519
S'in'
p1520
S'IN'
p1521
S'B-PP'
p1522
g5
tp1523
a(S'the'
p1524
S'the'
p1525
S'DT'
p1526
S'B-NP'
p1527
g5
tp1528
a(S'Salm/FP'
p1529
S'Salm/FP'
p1530
S'NNP'
p1531
S'I-NP'
p1532
g5
tp1533
a(S'group'
p1534
S'group'
p1535
S'NN'
p1536
S'I-NP'
p1537
g5
tp1538
a(S'than'
p1539
S'than'
p1540
S'IN'
p1541
S'B-PP'
p1542
g5
tp1543
a(S'the'
p1544
S'the'
p1545
S'DT'
p1546
S'B-NP'
p1547
g5
tp1548
a(S'Form+Bud'
p1549
S'Form+Bud'
p1550
S'NN'
p1551
S'I-NP'
p1552
g5
tp1553
a(S'group'
p1554
S'group'
p1555
S'NN'
p1556
S'I-NP'
p1557
g5
tp1558
a(g32
g32
g32
g5
g5
tp1559
a(g1220
g1220
S'NN'
p1560
S'B-NP'
p1561
g5
tp1562
a(g1224
g1224
S'SYM'
p1563
g5
g5
tp1564
a(S'0.05'
p1565
S'0.05'
p1566
S'CD'
p1567
S'B-NP'
p1568
g5
tp1569
a(g39
g39
g39
g5
g5
tp1570
a(g200
g200
g200
g5
g5
tp1571
a(S'Both'
p1572
S'Both'
p1573
S'DT'
p1574
S'B-NP'
p1575
g5
tp1576
a(S'treatments'
p1577
S'treatment'
p1578
S'NNS'
p1579
S'I-NP'
p1580
g5
tp1581
a(S'were'
p1582
S'be'
p1583
S'VBD'
p1584
S'B-VP'
p1585
g5
tp1586
a(S'well'
p1587
S'well'
p1588
S'RB'
p1589
S'I-VP'
p1590
g5
tp1591
a(S'tolerated'
p1592
S'tolerate'
p1593
S'VBN'
p1594
S'I-VP'
p1595
g5
tp1596
a(g52
g52
g52
g5
g5
tp1597
a(S'with'
p1598
S'with'
p1599
S'IN'
p1600
S'B-PP'
p1601
g5
tp1602
a(g43
g43
S'DT'
p1603
S'B-NP'
p1604
g5
tp1605
a(S'similar'
p1606
S'similar'
p1607
S'JJ'
p1608
S'I-NP'
p1609
g5
tp1610
a(S'low'
p1611
S'low'
p1612
S'JJ'
p1613
S'I-NP'
p1614
g5
tp1615
a(S'incidence'
p1616
S'incidence'
p1617
S'NN'
p1618
S'I-NP'
p1619
g5
tp1620
a(S'of'
p1621
S'of'
p1622
S'IN'
p1623
S'B-PP'
p1624
g5
tp1625
a(S'adverse'
p1626
S'adverse'
p1627
S'JJ'
p1628
S'B-NP'
p1629
g5
tp1630
a(S'events.'
p1631
S'events.'
p1632
S'NN'
p1633
S'I-NP'
p1634
g5
tp1635
a(S'This'
p1636
S'This'
p1637
S'DT'
p1638
S'B-NP'
p1639
g5
tp1640
a(S'study'
p1641
S'study'
p1642
S'NN'
p1643
S'I-NP'
p1644
g5
tp1645
a(S'showed'
p1646
S'show'
p1647
S'VBD'
p1648
S'B-VP'
p1649
g5
tp1650
a(S'that'
p1651
S'that'
p1652
S'IN'
p1653
S'B-SBAR'
p1654
g5
tp1655
a(S'in'
p1656
S'in'
p1657
S'IN'
p1658
S'B-PP'
p1659
g5
tp1660
a(S'symptomatic'
p1661
S'symptomatic'
p1662
S'JJ'
p1663
S'B-NP'
p1664
g5
tp1665
a(S'patients'
p1666
S'patient'
p1667
S'NNS'
p1668
S'I-NP'
p1669
g5
tp1670
a(S'with'
p1671
S'with'
p1672
S'IN'
p1673
S'B-PP'
p1674
g5
tp1675
a(S'moderate-to-severe'
p1676
S'moderate-to-severe'
p1677
S'JJ'
p1678
S'B-NP'
p1679
g5
tp1680
a(S'asthma'
p1681
S'asthma'
p1682
S'NN'
p1683
S'I-NP'
p1684
g5
tp1685
a(g52
g52
g52
g5
g5
tp1686
a(S'Salm/FP'
p1687
S'Salm/FP'
p1688
S'NN'
p1689
S'B-NP'
p1690
g5
tp1691
a(g32
g32
g32
g5
g5
tp1692
a(S'50/250'
p1693
S'50/250'
p1694
S'CD'
p1695
S'B-NP'
p1696
g5
tp1697
a(S'microg'
p1698
S'microg'
p1699
S'NN'
p1700
S'I-NP'
p1701
g5
tp1702
a(S'bd'
p1703
S'bd'
p1704
S'NN'
p1705
S'I-NP'
p1706
g5
tp1707
a(g39
g39
g39
g5
g5
tp1708
a(g52
g52
g52
g5
g5
tp1709
a(S'administered'
p1710
S'administer'
p1711
S'VBN'
p1712
S'B-VP'
p1713
g5
tp1714
a(S'in'
p1715
S'in'
p1716
S'IN'
p1717
S'B-PP'
p1718
g5
tp1719
a(g43
g43
S'DT'
p1720
S'B-NP'
p1721
g5
tp1722
a(S'single'
p1723
S'single'
p1724
S'JJ'
p1725
S'I-NP'
p1726
g5
tp1727
a(S'convenient'
p1728
S'convenient'
p1729
S'JJ'
p1730
S'I-NP'
p1731
g5
tp1732
a(S'device'
p1733
S'device'
p1734
S'NN'
p1735
S'I-NP'
p1736
g5
tp1737
a(g32
g32
g32
g5
g5
tp1738
a(S'Diskus'
p1739
S'Diskus'
p1740
S'NN'
p1741
S'B-NP'
p1742
g5
tp1743
a(g39
g39
g39
g5
g5
tp1744
a(g52
g52
g52
g5
g5
tp1745
a(S'was'
p1746
S'be'
p1747
S'VBD'
p1748
S'B-VP'
p1749
g5
tp1750
a(S'at'
p1751
S'at'
p1752
S'IN'
p1753
S'B-ADJP'
p1754
g5
tp1755
a(S'least'
p1756
S'least'
p1757
S'JJS'
p1758
S'I-ADJP'
p1759
g5
tp1760
a(S'as'
p1761
S'as'
p1762
S'RB'
p1763
S'I-ADJP'
p1764
g5
tp1765
a(S'effective'
p1766
S'effective'
p1767
S'JJ'
p1768
S'I-ADJP'
p1769
g5
tp1770
a(S'as'
p1771
S'as'
p1772
S'IN'
p1773
S'B-PP'
p1774
g5
tp1775
a(S'an'
p1776
S'an'
p1777
S'DT'
p1778
S'B-NP'
p1779
g5
tp1780
a(S'approximately'
p1781
S'approximately'
p1782
S'RB'
p1783
S'I-NP'
p1784
g5
tp1785
a(S'three-fold'
p1786
S'three-fold'
p1787
S'JJ'
p1788
S'I-NP'
p1789
g5
tp1790
a(S'higher'
p1791
S'high'
p1792
S'JJR'
p1793
S'I-NP'
p1794
g5
tp1795
a(S'microgram'
p1796
S'microgram'
p1797
S'NN'
p1798
S'I-NP'
p1799
g5
tp1800
a(S'corticosteroid'
p1801
S'corticosteroid'
p1802
S'NN'
p1803
S'I-NP'
p1804
g5
tp1805
a(S'dose'
p1806
S'dose'
p1807
S'NN'
p1808
S'I-NP'
p1809
g5
tp1810
a(S'of'
p1811
S'of'
p1812
S'IN'
p1813
S'B-PP'
p1814
g5
tp1815
a(S'Bud'
p1816
S'Bud'
p1817
S'NN'
p1818
S'B-NP'
p1819
g5
tp1820
a(g32
g32
g32
g5
g5
tp1821
a(S'800'
p1822
S'800'
p1823
S'CD'
p1824
S'B-NP'
p1825
g5
tp1826
a(S'microg'
p1827
S'microg'
p1828
S'NN'
p1829
S'I-NP'
p1830
g5
tp1831
a(S'bd'
p1832
S'bd'
p1833
S'NN'
p1834
S'I-NP'
p1835
g5
tp1836
a(g39
g39
g39
g5
g5
tp1837
a(S'given'
p1838
S'give'
p1839
S'VBN'
p1840
S'B-VP'
p1841
g5
tp1842
a(S'concurrently'
p1843
S'concurrently'
p1844
S'RB'
p1845
S'B-ADVP'
p1846
g5
tp1847
a(S'with'
p1848
S'with'
p1849
S'IN'
p1850
S'B-PP'
p1851
g5
tp1852
a(S'Form'
p1853
S'Form'
p1854
S'NN'
p1855
S'B-NP'
p1856
g5
tp1857
a(g32
g32
g32
g5
g5
tp1858
a(S'12'
p1859
S'12'
p1860
S'CD'
p1861
S'B-NP'
p1862
g5
tp1863
a(S'microg'
p1864
S'microg'
p1865
S'NN'
p1866
S'I-NP'
p1867
g5
tp1868
a(S'bd'
p1869
S'bd'
p1870
S'NN'
p1871
S'I-NP'
p1872
g5
tp1873
a(g39
g39
g39
g5
g5
tp1874
a(S'in'
p1875
S'in'
p1876
S'IN'
p1877
S'B-PP'
p1878
g5
tp1879
a(S'terms'
p1880
S'term'
p1881
S'NNS'
p1882
S'B-NP'
p1883
g5
tp1884
a(S'of'
p1885
S'of'
p1886
S'IN'
p1887
S'B-PP'
p1888
g5
tp1889
a(S'improvement'
p1890
S'improvement'
p1891
S'NN'
p1892
S'B-NP'
p1893
g5
tp1894
a(S'in'
p1895
S'in'
p1896
S'IN'
p1897
S'B-PP'
p1898
g5
tp1899
a(S'PEFam'
p1900
S'PEFam'
p1901
S'NN'
p1902
S'B-NP'
p1903
g5
tp1904
a(g52
g52
g52
g5
g5
tp1905
a(S'and'
p1906
S'and'
p1907
S'CC'
p1908
g5
g5
tp1909
a(S'superior'
p1910
S'superior'
p1911
S'JJ'
p1912
S'B-ADJP'
p1913
g5
tp1914
a(S'at'
p1915
S'at'
p1916
S'IN'
p1917
S'B-PP'
p1918
g5
tp1919
a(S'reducing'
p1920
S'reduce'
p1921
S'VBG'
p1922
S'B-VP'
p1923
g5
tp1924
a(S'exacerbations'
p1925
S'exacerbation'
p1926
S'NNS'
p1927
S'B-NP'
p1928
g5
tp1929
a(S'and'
p1930
S'and'
p1931
S'CC'
p1932
S'I-NP'
p1933
g5
tp1934
a(S'nights'
p1935
S'night'
p1936
S'NNS'
p1937
S'I-NP'
p1938
g5
tp1939
a(S'with'
p1940
S'with'
p1941
S'IN'
p1942
S'B-PP'
p1943
g5
tp1944
a(S'symptoms'
p1945
S'symptom'
p1946
S'NNS'
p1947
S'B-NP'
p1948
g5
tp1949
a(S'or'
p1950
S'or'
p1951
S'CC'
p1952
g5
g5
tp1953
a(S'night-time'
p1954
S'night-time'
p1955
S'JJ'
p1956
S'B-NP'
p1957
g5
tp1958
a(S'awakenings.'
p1959
S'awakenings.'
p1960
S'NN'
p1961
S'I-NP'
p1962
g5
tp1963
a(S'Salm/FP'
p1964
S'Salm/FP'
p1965
S'NN'
p1966
S'I-NP'
p1967
g5
tp1968
a(S'was'
p1969
S'be'
p1970
S'VBD'
p1971
S'B-VP'
p1972
g5
tp1973
a(S'also'
p1974
S'also'
p1975
S'RB'
p1976
S'B-ADVP'
p1977
g5
tp1978
a(S'the'
p1979
S'the'
p1980
S'DT'
p1981
S'B-NP'
p1982
g5
tp1983
a(S'less'
p1984
S'less'
p1985
S'RBR'
p1986
S'I-NP'
p1987
g5
tp1988
a(S'costly'
p1989
S'costly'
p1990
S'JJ'
p1991
S'I-NP'
p1992
g5
tp1993
a(S'treatment'
p1994
S'treatment'
p1995
S'NN'
p1996
S'I-NP'
p1997
g5
tp1998
a(S'due'
p1999
S'due'
p2000
S'RB'
p2001
S'B-ADVP'
p2002
g5
tp2003
a(S'primarily'
p2004
S'primarily'
p2005
S'RB'
p2006
S'I-ADVP'
p2007
g5
tp2008
a(S'to'
p2009
S'to'
p2010
S'TO'
p2011
S'B-PP'
p2012
g5
tp2013
a(S'lower'
p2014
S'low'
p2015
S'JJR'
p2016
S'B-NP'
p2017
g5
tp2018
a(S'hospitalisation'
p2019
S'hospitalisation'
p2020
S'NN'
p2021
S'I-NP'
p2022
g5
tp2023
a(S'and'
p2024
S'and'
p2025
S'CC'
p2026
S'I-NP'
p2027
g5
tp2028
a(S'drug'
p2029
S'drug'
p2030
S'NN'
p2031
S'I-NP'
p2032
g5
tp2033
a(S'costs'
p2034
S'cost'
p2035
S'NNS'
p2036
S'I-NP'
p2037
g5
tp2038
a(g200
g200
g200
g5
g5
tp2039
a.