(lp0
(S'Trial'
p1
S'Trial'
p2
S'NN'
p3
S'B-NP'
p4
S'O'
p5
tp6
a(S'of'
p7
S'of'
p8
S'IN'
p9
S'B-PP'
p10
g5
tp11
a(S'('
p12
g12
g12
g5
g5
tp13
a(S'+'
p14
g14
S'SYM'
p15
g5
g5
tp16
a(S')'
p17
g17
g17
g5
g5
tp18
a(S'-cyanidanol-3'
p19
S'-cyanidanol-3'
p20
S'CD'
p21
S'B-NP'
p22
g5
tp23
a(S'in'
p24
S'in'
p25
S'IN'
p26
S'B-PP'
p27
g5
tp28
a(S'patients'
p29
S'patient'
p30
S'NNS'
p31
S'B-NP'
p32
g5
tp33
a(S'with'
p34
S'with'
p35
S'IN'
p36
S'B-PP'
p37
g5
tp38
a(S'hepatitis'
p39
S'hepatitis'
p40
S'NN'
p41
S'B-NP'
p42
g5
tp43
a(S'B'
p44
g44
S'NN'
p45
S'I-NP'
p46
g5
tp47
a(S'chronic'
p48
S'chronic'
p49
S'JJ'
p50
S'I-NP'
p51
g5
tp52
a(S'liver'
p53
S'liver'
p54
S'NN'
p55
S'I-NP'
p56
g5
tp57
a(S'disease'
p58
S'disease'
p59
S'NN'
p60
S'I-NP'
p61
g5
tp62
a(S'.'
p63
g63
g63
g5
g5
tp64
a(S'A'
p65
g65
S'DT'
p66
S'B-NP'
p67
g5
tp68
a(S'double-blind'
p69
S'double-blind'
p70
S'JJ'
p71
S'I-NP'
p72
g5
tp73
a(S'controlled'
p74
S'control'
p75
S'VBN'
p76
S'I-NP'
p77
g5
tp78
a(S'trial'
p79
S'trial'
p80
S'NN'
p81
S'I-NP'
p82
g5
tp83
a(S'of'
p84
S'of'
p85
S'IN'
p86
S'B-PP'
p87
g5
tp88
a(S'12'
p89
S'12'
p90
S'CD'
p91
S'B-NP'
p92
g5
tp93
a(S'months'
p94
S'month'
p95
S'NNS'
p96
S'I-NP'
p97
g5
tp98
a(S"'"
p99
g99
S'POS'
p100
S'B-NP'
p101
g5
tp102
a(S'treatment'
p103
S'treatment'
p104
S'NN'
p105
S'I-NP'
p106
g5
tp107
a(S'with'
p108
S'with'
p109
S'IN'
p110
S'B-PP'
p111
g5
tp112
a(g12
g12
g12
g5
g5
tp113
a(g14
g14
S'SYM'
p114
g5
g5
tp115
a(g17
g17
g17
g5
g5
tp116
a(S'-cyanidanol-3'
p117
S'-cyanidanol-3'
p118
S'NN'
p119
S'B-NP'
p120
g5
tp121
a(S'was'
p122
S'be'
p123
S'VBD'
p124
S'B-VP'
p125
g5
tp126
a(S'carried'
p127
S'carry'
p128
S'VBN'
p129
S'I-VP'
p130
g5
tp131
a(S'out'
p132
S'out'
p133
S'RP'
p134
S'B-PRT'
p135
g5
tp136
a(S'in'
p137
S'in'
p138
S'IN'
p139
S'B-PP'
p140
g5
tp141
a(S'26'
p142
S'26'
p143
S'CD'
p144
S'B-NP'
p145
g5
tp146
a(S'patients'
p147
S'patient'
p148
S'NNS'
p149
S'I-NP'
p150
g5
tp151
a(S'with'
p152
S'with'
p153
S'IN'
p154
S'B-PP'
p155
g5
tp156
a(S'chronic'
p157
S'chronic'
p158
S'JJ'
p159
S'B-NP'
p160
g5
tp161
a(S'hepatitis'
p162
S'hepatitis'
p163
S'NN'
p164
S'I-NP'
p165
g5
tp166
a(g44
g44
S'NN'
p167
S'I-NP'
p168
g5
tp169
a(S'liver'
p170
S'liver'
p171
S'NN'
p172
S'I-NP'
p173
g5
tp174
a(S'disease.'
p175
S'disease.'
p176
S'NN'
p177
S'I-NP'
p178
g5
tp179
a(S'Treatment'
p180
S'Treatment'
p181
S'NN'
p182
S'I-NP'
p183
g5
tp184
a(S'did'
p185
S'do'
p186
S'VBD'
p187
S'B-VP'
p188
g5
tp189
a(S'not'
p190
S'not'
p191
S'RB'
p192
S'I-VP'
p193
g5
tp194
a(S'improve'
p195
S'improve'
p196
S'VB'
p197
S'I-VP'
p198
g5
tp199
a(S'liver'
p200
S'liver'
p201
S'NN'
p202
S'B-NP'
p203
g5
tp204
a(S'blood'
p205
S'blood'
p206
S'NN'
p207
S'I-NP'
p208
g5
tp209
a(S'tests'
p210
S'test'
p211
S'NNS'
p212
S'I-NP'
p213
g5
tp214
a(S'nor'
p215
S'nor'
p216
S'CC'
p217
g5
g5
tp218
a(S'histological'
p219
S'histological'
p220
S'JJ'
p221
S'B-NP'
p222
g5
tp223
a(S'appearances'
p224
S'appearance'
p225
S'NNS'
p226
S'I-NP'
p227
g5
tp228
a(S'of'
p229
S'of'
p230
S'IN'
p231
S'B-PP'
p232
g5
tp233
a(S'the'
p234
S'the'
p235
S'DT'
p236
S'B-NP'
p237
g5
tp238
a(S'liver'
p239
S'liver'
p240
S'NN'
p241
S'I-NP'
p242
g5
tp243
a(S','
p244
g244
g244
g5
g5
tp245
a(S'but'
p246
S'but'
p247
S'CC'
p248
g5
g5
tp249
a(S'there'
p250
S'there'
p251
S'EX'
p252
S'B-NP'
p253
g5
tp254
a(S'was'
p255
S'be'
p256
S'VBD'
p257
S'B-VP'
p258
g5
tp259
a(S'a'
p260
g260
S'DT'
p261
S'B-NP'
p262
g5
tp263
a(S'trend'
p264
S'trend'
p265
S'NN'
p266
S'I-NP'
p267
g5
tp268
a(S'towards'
p269
S'towards'
p270
S'IN'
p271
S'B-PP'
p272
g5
tp273
a(S'reduction'
p274
S'reduction'
p275
S'NN'
p276
S'B-NP'
p277
g5
tp278
a(S'of'
p279
S'of'
p280
S'IN'
p281
S'B-PP'
p282
g5
tp283
a(S'serum'
p284
S'serum'
p285
S'NN'
p286
S'B-NP'
p287
g5
tp288
a(S'titres'
p289
S'titre'
p290
S'NNS'
p291
S'I-NP'
p292
g5
tp293
a(S'of'
p294
S'of'
p295
S'IN'
p296
S'B-PP'
p297
g5
tp298
a(S'hepatitis'
p299
S'hepatitis'
p300
S'NN'
p301
S'B-NP'
p302
S'B-protein'
p303
tp304
a(g44
g44
S'NN'
p305
S'I-NP'
p306
S'I-protein'
p307
tp308
a(S'surface'
p309
S'surface'
p310
S'NN'
p311
S'I-NP'
p312
S'I-protein'
p313
tp314
a(S'antigen'
p315
S'antigen'
p316
S'NN'
p317
S'I-NP'
p318
S'I-protein'
p319
tp320
a(g63
g63
g63
g5
g5
tp321
a.