(lp0
(S'Efficacy'
p1
S'Efficacy'
p2
S'NN'
p3
S'B-NP'
p4
S'O'
p5
tp6
a(S'and'
p7
S'and'
p8
S'CC'
p9
S'I-NP'
p10
g5
tp11
a(S'safety'
p12
S'safety'
p13
S'NN'
p14
S'I-NP'
p15
g5
tp16
a(S'of'
p17
S'of'
p18
S'IN'
p19
S'B-PP'
p20
g5
tp21
a(S'oral'
p22
S'oral'
p23
S'JJ'
p24
S'B-NP'
p25
g5
tp26
a(S'conivaptan'
p27
S'conivaptan'
p28
S'NN'
p29
S'I-NP'
p30
g5
tp31
a(S':'
p32
g32
g32
g5
g5
tp33
a(S'a'
p34
g34
S'DT'
p35
S'B-NP'
p36
g5
tp37
a(S'V1A/V2'
p38
S'V1A/V2'
p39
S'NN'
p40
S'I-NP'
p41
S'B-protein'
p42
tp43
a(S'vasopressin'
p44
S'vasopressin'
p45
S'NN'
p46
S'I-NP'
p47
S'I-protein'
p48
tp49
a(S'receptor'
p50
S'receptor'
p51
S'NN'
p52
S'I-NP'
p53
S'I-protein'
p54
tp55
a(S'antagonist'
p56
S'antagonist'
p57
S'NN'
p58
S'I-NP'
p59
g5
tp60
a(S','
p61
g61
g61
g5
g5
tp62
a(S'assessed'
p63
S'assess'
p64
S'VBN'
p65
S'B-VP'
p66
g5
tp67
a(S'in'
p68
S'in'
p69
S'IN'
p70
S'B-PP'
p71
g5
tp72
a(g34
g34
S'DT'
p73
S'B-NP'
p74
g5
tp75
a(S'randomized'
p76
S'randomize'
p77
S'VBN'
p78
S'I-NP'
p79
g5
tp80
a(g61
g61
g61
S'I-NP'
p81
g5
tp82
a(S'placebo-controlled'
p83
S'placebo-controlled'
p84
S'JJ'
p85
S'I-NP'
p86
g5
tp87
a(S'trial'
p88
S'trial'
p89
S'NN'
p90
S'I-NP'
p91
g5
tp92
a(S'in'
p93
S'in'
p94
S'IN'
p95
S'B-PP'
p96
g5
tp97
a(S'patients'
p98
S'patient'
p99
S'NNS'
p100
S'B-NP'
p101
g5
tp102
a(S'with'
p103
S'with'
p104
S'IN'
p105
S'B-PP'
p106
g5
tp107
a(S'euvolemic'
p108
S'euvolemic'
p109
S'JJ'
p110
S'B-NP'
p111
g5
tp112
a(S'or'
p113
S'or'
p114
S'CC'
p115
S'I-NP'
p116
g5
tp117
a(S'hypervolemic'
p118
S'hypervolemic'
p119
S'JJ'
p120
S'I-NP'
p121
g5
tp122
a(S'hyponatremia'
p123
S'hyponatremia'
p124
S'NN'
p125
S'I-NP'
p126
g5
tp127
a(S'.'
p128
g128
g128
g5
g5
tp129
a(S'CONTEXT'
p130
S'CONTEXT'
p131
S'NN'
p132
S'B-NP'
p133
g5
tp134
a(S'Hyponatremia'
p135
S'Hyponatremia'
p136
S'NN'
p137
S'I-NP'
p138
g5
tp139
a(S'['
p140
g140
S'('
p141
S'I-NP'
p142
g5
tp143
a(S'serum'
p144
S'serum'
p145
S'NN'
p146
S'I-NP'
p147
g5
tp148
a(S'sodium'
p149
S'sodium'
p150
S'NN'
p151
S'I-NP'
p152
g5
tp153
a(S'concentration'
p154
S'concentration'
p155
S'NN'
p156
S'I-NP'
p157
g5
tp158
a(g141
g141
g141
g5
g5
tp159
a(g140
g140
g141
g5
g5
tp160
a(S'Na'
p161
S'Na'
p162
S'NN'
p163
S'B-NP'
p164
g5
tp165
a(g141
g141
g141
g5
g5
tp166
a(S'+'
p167
g167
S'SYM'
p168
S'B-NP'
p169
g5
tp170
a(S')'
p171
g171
g171
g5
g5
tp172
a(S']'
p173
g173
g171
g5
g5
tp174
a(g171
g171
g171
g5
g5
tp175
a(g61
g61
g61
g5
g5
tp176
a(S'<'
p177
g177
S'SYM'
p178
S'B-NP'
p179
g5
tp180
a(S'135'
p181
S'135'
p182
S'CD'
p183
S'B-NP'
p184
g5
tp185
a(S'mEq/liter'
p186
S'mEq/liter'
p187
S'NN'
p188
S'I-NP'
p189
g5
tp190
a(g173
g173
g171
g5
g5
tp191
a(S'is'
p192
S'be'
p193
S'VBZ'
p194
S'B-VP'
p195
g5
tp196
a(S'the'
p197
S'the'
p198
S'DT'
p199
S'B-NP'
p200
g5
tp201
a(S'most'
p202
S'most'
p203
S'RBS'
p204
S'I-NP'
p205
g5
tp206
a(S'common'
p207
S'common'
p208
S'JJ'
p209
S'I-NP'
p210
g5
tp211
a(S'fluid'
p212
S'fluid'
p213
S'NN'
p214
S'I-NP'
p215
g5
tp216
a(S'and'
p217
S'and'
p218
S'CC'
p219
S'I-NP'
p220
g5
tp221
a(S'electrolyte'
p222
S'electrolyte'
p223
S'NN'
p224
S'I-NP'
p225
g5
tp226
a(S'abnormality'
p227
S'abnormality'
p228
S'NN'
p229
S'I-NP'
p230
g5
tp231
a(S'among'
p232
S'among'
p233
S'IN'
p234
S'B-PP'
p235
g5
tp236
a(S'hospitalized'
p237
S'hospitalized'
p238
S'JJ'
p239
S'B-NP'
p240
g5
tp241
a(S'patients.'
p242
S'patients.'
p243
S'NN'
p244
S'I-NP'
p245
g5
tp246
a(S'It'
p247
S'It'
p248
S'PRP'
p249
S'B-NP'
p250
g5
tp251
a(S'is'
p252
S'be'
p253
S'VBZ'
p254
S'B-VP'
p255
g5
tp256
a(S'frequently'
p257
S'frequently'
p258
S'RB'
p259
S'I-VP'
p260
g5
tp261
a(S'caused'
p262
S'cause'
p263
S'VBN'
p264
S'I-VP'
p265
g5
tp266
a(S'by'
p267
S'by'
p268
S'IN'
p269
S'B-PP'
p270
g5
tp271
a(S'the'
p272
S'the'
p273
S'DT'
p274
S'B-NP'
p275
g5
tp276
a(S'inappropriate'
p277
S'inappropriate'
p278
S'JJ'
p279
S'I-NP'
p280
g5
tp281
a(S'release'
p282
S'release'
p283
S'NN'
p284
S'I-NP'
p285
g5
tp286
a(S'of'
p287
S'of'
p288
S'IN'
p289
S'B-PP'
p290
g5
tp291
a(S'arginine'
p292
S'arginine'
p293
S'NN'
p294
S'B-NP'
p295
S'B-protein'
p296
tp297
a(S'vasopressin'
p298
S'vasopressin'
p299
S'NN'
p300
S'I-NP'
p301
S'I-protein'
p302
tp303
a(g128
g128
g128
g5
g5
tp304
a(S'OBJECTIVE'
p305
S'OBJECTIVE'
p306
S'NN'
p307
S'B-NP'
p308
g5
tp309
a(S'The'
p310
S'The'
p311
S'DT'
p312
S'B-NP'
p313
g5
tp314
a(S'objective'
p315
S'objective'
p316
S'NN'
p317
S'I-NP'
p318
g5
tp319
a(S'of'
p320
S'of'
p321
S'IN'
p322
S'B-PP'
p323
g5
tp324
a(S'this'
p325
S'this'
p326
S'DT'
p327
S'B-NP'
p328
g5
tp329
a(S'study'
p330
S'study'
p331
S'NN'
p332
S'I-NP'
p333
g5
tp334
a(S'was'
p335
S'be'
p336
S'VBD'
p337
S'B-VP'
p338
g5
tp339
a(S'to'
p340
S'to'
p341
S'TO'
p342
S'B-VP'
p343
g5
tp344
a(S'evaluate'
p345
S'evaluate'
p346
S'VB'
p347
S'I-VP'
p348
g5
tp349
a(S'the'
p350
S'the'
p351
S'DT'
p352
S'B-NP'
p353
g5
tp354
a(S'efficacy'
p355
S'efficacy'
p356
S'NN'
p357
S'I-NP'
p358
g5
tp359
a(S'and'
p360
S'and'
p361
S'CC'
p362
S'I-NP'
p363
g5
tp364
a(S'safety'
p365
S'safety'
p366
S'NN'
p367
S'I-NP'
p368
g5
tp369
a(S'of'
p370
S'of'
p371
S'IN'
p372
S'B-PP'
p373
g5
tp374
a(S'oral'
p375
S'oral'
p376
S'JJ'
p377
S'B-NP'
p378
g5
tp379
a(S'conivaptan'
p380
S'conivaptan'
p381
S'NN'
p382
S'I-NP'
p383
g5
tp384
a(g61
g61
g61
g5
g5
tp385
a(g34
g34
S'DT'
p386
S'B-NP'
p387
g5
tp388
a(S'vasopressin'
p389
S'vasopressin'
p390
S'NN'
p391
S'I-NP'
p392
S'B-protein'
p393
tp394
a(S'V'
p395
g395
S'NN'
p396
S'I-NP'
p397
S'I-protein'
p398
tp399
a(g141
g141
g141
g5
S'I-protein'
p400
tp401
a(S'1A'
p402
S'1A'
p403
S'NN'
p404
S'B-NP'
p405
S'I-protein'
p406
tp407
a(g171
g171
g171
g5
S'I-protein'
p408
tp409
a(S'/V'
p410
S'/V'
p411
S'NN'
p412
S'B-NP'
p413
S'I-protein'
p414
tp415
a(g141
g141
g141
g5
S'I-protein'
p416
tp417
a(S'2'
p418
g418
S'CD'
p419
S'B-NP'
p420
S'I-protein'
p421
tp422
a(g171
g171
g171
g5
S'I-protein'
p423
tp424
a(S'receptor'
p425
S'receptor'
p426
S'NN'
p427
S'B-NP'
p428
S'I-protein'
p429
tp430
a(S'antagonist'
p431
S'antagonist'
p432
S'NN'
p433
S'I-NP'
p434
g5
tp435
a(g61
g61
g61
g5
g5
tp436
a(S'in'
p437
S'in'
p438
S'IN'
p439
S'B-PP'
p440
g5
tp441
a(S'patients'
p442
S'patient'
p443
S'NNS'
p444
S'B-NP'
p445
g5
tp446
a(S'with'
p447
S'with'
p448
S'IN'
p449
S'B-PP'
p450
g5
tp451
a(S'euvolemic'
p452
S'euvolemic'
p453
S'JJ'
p454
S'B-NP'
p455
g5
tp456
a(S'or'
p457
S'or'
p458
S'CC'
p459
S'I-NP'
p460
g5
tp461
a(S'hypervolemic'
p462
S'hypervolemic'
p463
S'JJ'
p464
S'I-NP'
p465
g5
tp466
a(S'hyponatremia'
p467
S'hyponatremia'
p468
S'NN'
p469
S'I-NP'
p470
g5
tp471
a(g128
g128
g128
g5
g5
tp472
a(S'DESIGN'
p473
S'DESIGN'
p474
S'NN'
p475
S'B-NP'
p476
g5
tp477
a(S'The'
p478
S'The'
p479
S'DT'
p480
S'B-NP'
p481
g5
tp482
a(S'study'
p483
S'study'
p484
S'NN'
p485
S'I-NP'
p486
g5
tp487
a(S'design'
p488
S'design'
p489
S'NN'
p490
S'I-NP'
p491
g5
tp492
a(S'was'
p493
S'be'
p494
S'VBD'
p495
S'B-VP'
p496
g5
tp497
a(g34
g34
S'DT'
p498
S'B-NP'
p499
g5
tp500
a(S'5-d'
p501
S'5-d'
p502
S'JJ'
p503
S'I-NP'
p504
g5
tp505
a(S'placebo-controlled'
p506
S'placebo-controlled'
p507
S'JJ'
p508
S'I-NP'
p509
g5
tp510
a(g61
g61
g61
S'I-NP'
p511
g5
tp512
a(S'randomized'
p513
S'randomize'
p514
S'VBN'
p515
S'I-NP'
p516
g5
tp517
a(g61
g61
g61
S'I-NP'
p518
g5
tp519
a(S'double-blind'
p520
S'double-blind'
p521
S'JJ'
p522
S'I-NP'
p523
g5
tp524
a(S'study'
p525
S'study'
p526
S'NN'
p527
S'I-NP'
p528
g5
tp529
a(g128
g128
g128
g5
g5
tp530
a(S'SETTING'
p531
S'SETTING'
p532
S'VBG'
p533
S'B-VP'
p534
g5
tp535
a(S'The'
p536
S'The'
p537
S'DT'
p538
S'B-NP'
p539
g5
tp540
a(S'study'
p541
S'study'
p542
S'NN'
p543
S'I-NP'
p544
g5
tp545
a(S'was'
p546
S'be'
p547
S'VBD'
p548
S'B-VP'
p549
g5
tp550
a(S'performed'
p551
S'perform'
p552
S'VBN'
p553
S'I-VP'
p554
g5
tp555
a(S'at'
p556
S'at'
p557
S'IN'
p558
S'B-PP'
p559
g5
tp560
a(g34
g34
S'DT'
p561
S'B-NP'
p562
g5
tp563
a(S'hospital'
p564
S'hospital'
p565
S'NN'
p566
S'I-NP'
p567
g5
tp568
a(g128
g128
g128
g5
g5
tp569
a(S'INTERVENTION'
p570
S'INTERVENTION'
p571
S'NN'
p572
S'B-NP'
p573
g5
tp574
a(S'Oral'
p575
S'Oral'
p576
S'JJ'
p577
S'I-NP'
p578
g5
tp579
a(S'conivaptan'
p580
S'conivaptan'
p581
S'NN'
p582
S'I-NP'
p583
g5
tp584
a(g141
g141
g141
g5
g5
tp585
a(S'40'
p586
S'40'
p587
S'CD'
p588
S'B-NP'
p589
g5
tp590
a(S'or'
p591
S'or'
p592
S'CC'
p593
S'I-NP'
p594
g5
tp595
a(S'80'
p596
S'80'
p597
S'CD'
p598
S'I-NP'
p599
g5
tp600
a(S'mg/d'
p601
S'mg/d'
p602
S'NN'
p603
S'I-NP'
p604
g5
tp605
a(g171
g171
g171
g5
g5
tp606
a(S'or'
p607
S'or'
p608
S'CC'
p609
g5
g5
tp610
a(S'placebo'
p611
S'placebo'
p612
S'NN'
p613
S'B-NP'
p614
g5
tp615
a(S'was'
p616
S'be'
p617
S'VBD'
p618
S'B-VP'
p619
g5
tp620
a(S'given'
p621
S'give'
p622
S'VBN'
p623
S'I-VP'
p624
g5
tp625
a(S'in'
p626
S'in'
p627
S'IN'
p628
S'B-PP'
p629
g5
tp630
a(S'two'
p631
S'two'
p632
S'CD'
p633
S'B-NP'
p634
g5
tp635
a(S'divided'
p636
S'divide'
p637
S'VBN'
p638
S'I-NP'
p639
g5
tp640
a(S'doses'
p641
S'dose'
p642
S'NNS'
p643
S'I-NP'
p644
g5
tp645
a(g128
g128
g128
g5
g5
tp646
a(S'PATIENTS'
p647
S'PATIENTS'
p648
S'NNS'
p649
S'B-NP'
p650
g5
tp651
a(S'Seventy-four'
p652
S'Seventy-four'
p653
S'CD'
p654
S'B-NP'
p655
g5
tp656
a(S'patients'
p657
S'patient'
p658
S'NNS'
p659
S'I-NP'
p660
g5
tp661
a(g141
g141
g141
g5
g5
tp662
a(S'average'
p663
S'average'
p664
S'JJ'
p665
S'B-NP'
p666
g5
tp667
a(S'baseline'
p668
S'baseline'
p669
S'NN'
p670
S'I-NP'
p671
g5
tp672
a(S'serum'
p673
S'serum'
p674
S'NN'
p675
S'I-NP'
p676
g5
tp677
a(g140
g140
g141
g5
g5
tp678
a(S'Na'
p679
S'Na'
p680
S'NN'
p681
S'B-NP'
p682
g5
tp683
a(g141
g141
g141
g5
g5
tp684
a(g167
g167
S'SYM'
p685
S'B-NP'
p686
g5
tp687
a(g171
g171
g171
g5
g5
tp688
a(g173
g173
g171
g5
g5
tp689
a(g61
g61
g61
g5
g5
tp690
a(S'115'
p691
S'115'
p692
S'CD'
p693
S'B-NP'
p694
g5
tp695
a(S'to'
p696
S'to'
p697
S'TO'
p698
S'B-PP'
p699
g5
tp700
a(g177
g177
S'SYM'
p701
S'B-NP'
p702
g5
tp703
a(S'130'
p704
S'130'
p705
S'CD'
p706
S'I-NP'
p707
g5
tp708
a(S'mEq/liter'
p709
S'mEq/liter'
p710
S'NN'
p711
S'I-NP'
p712
g5
tp713
a(g171
g171
g171
g5
g5
tp714
a(S'were'
p715
S'be'
p716
S'VBD'
p717
S'B-VP'
p718
g5
tp719
a(S'studied'
p720
S'study'
p721
S'VBN'
p722
S'I-VP'
p723
g5
tp724
a(g128
g128
g128
g5
g5
tp725
a(S'MAIN'
p726
S'MAIN'
p727
S'NN'
p728
S'B-NP'
p729
g5
tp730
a(S'OUTCOME'
p731
S'OUTCOME'
p732
S'NN'
p733
S'I-NP'
p734
g5
tp735
a(S'MEASURE'
p736
S'MEASURE'
p737
S'NN'
p738
S'I-NP'
p739
g5
tp740
a(S'The'
p741
S'The'
p742
S'DT'
p743
S'B-NP'
p744
g5
tp745
a(S'main'
p746
S'main'
p747
S'JJ'
p748
S'I-NP'
p749
g5
tp750
a(S'outcome'
p751
S'outcome'
p752
S'NN'
p753
S'I-NP'
p754
g5
tp755
a(S'measure'
p756
S'measure'
p757
S'NN'
p758
S'I-NP'
p759
g5
tp760
a(S'was'
p761
S'be'
p762
S'VBD'
p763
S'B-VP'
p764
g5
tp765
a(S'the'
p766
S'the'
p767
S'DT'
p768
S'B-NP'
p769
g5
tp770
a(S'change'
p771
S'change'
p772
S'NN'
p773
S'I-NP'
p774
g5
tp775
a(S'from'
p776
S'from'
p777
S'IN'
p778
S'B-PP'
p779
g5
tp780
a(S'baseline'
p781
S'baseline'
p782
S'NN'
p783
S'B-NP'
p784
g5
tp785
a(S'in'
p786
S'in'
p787
S'IN'
p788
S'B-PP'
p789
g5
tp790
a(S'serum'
p791
S'serum'
p792
S'NN'
p793
S'B-NP'
p794
g5
tp795
a(g140
g140
g141
g5
g5
tp796
a(S'Na'
p797
S'Na'
p798
S'NN'
p799
S'B-NP'
p800
g5
tp801
a(g141
g141
g141
g5
g5
tp802
a(g167
g167
S'SYM'
p803
S'B-NP'
p804
g5
tp805
a(g171
g171
g171
g5
g5
tp806
a(g173
g173
g171
g5
g5
tp807
a(S'area'
p808
S'area'
p809
S'NN'
p810
S'B-NP'
p811
g5
tp812
a(S'under'
p813
S'under'
p814
S'IN'
p815
S'B-PP'
p816
g5
tp817
a(S'the'
p818
S'the'
p819
S'DT'
p820
S'B-NP'
p821
g5
tp822
a(S'curve'
p823
S'curve'
p824
S'NN'
p825
S'I-NP'
p826
g5
tp827
a(g128
g128
g128
g5
g5
tp828
a(S'RESULTS'
p829
S'RESULTS'
p830
S'NNS'
p831
S'B-NP'
p832
g5
tp833
a(S'The'
p834
S'The'
p835
S'DT'
p836
S'B-NP'
p837
g5
tp838
a(S'least-squares'
p839
S'least-squares'
p840
S'JJ'
p841
S'I-NP'
p842
g5
tp843
a(S'mean'
p844
S'mean'
p845
S'JJ'
p846
S'I-NP'
p847
g5
tp848
a(S'change'
p849
S'change'
p850
S'NN'
p851
S'I-NP'
p852
g5
tp853
a(S'from'
p854
S'from'
p855
S'IN'
p856
S'B-PP'
p857
g5
tp858
a(S'baseline'
p859
S'baseline'
p860
S'NN'
p861
S'B-NP'
p862
g5
tp863
a(S'in'
p864
S'in'
p865
S'IN'
p866
S'B-PP'
p867
g5
tp868
a(S'the'
p869
S'the'
p870
S'DT'
p871
S'B-NP'
p872
g5
tp873
a(S'serum'
p874
S'serum'
p875
S'NN'
p876
S'I-NP'
p877
g5
tp878
a(g140
g140
g141
g5
g5
tp879
a(S'Na'
p880
S'Na'
p881
S'NN'
p882
S'B-NP'
p883
g5
tp884
a(g141
g141
g141
g5
g5
tp885
a(g167
g167
S'SYM'
p886
S'B-NP'
p887
g5
tp888
a(g171
g171
g171
g5
g5
tp889
a(g173
g173
g171
g5
g5
tp890
a(S'area'
p891
S'area'
p892
S'NN'
p893
S'B-NP'
p894
g5
tp895
a(S'under'
p896
S'under'
p897
S'IN'
p898
S'B-PP'
p899
g5
tp900
a(S'the'
p901
S'the'
p902
S'DT'
p903
S'B-NP'
p904
g5
tp905
a(S'curve'
p906
S'curve'
p907
S'NN'
p908
S'I-NP'
p909
g5
tp910
a(S'with'
p911
S'with'
p912
S'IN'
p913
S'B-PP'
p914
g5
tp915
a(S'conivaptan'
p916
S'conivaptan'
p917
S'NN'
p918
S'B-NP'
p919
g5
tp920
a(g141
g141
g141
g5
g5
tp921
a(S'40'
p922
S'40'
p923
S'CD'
p924
S'B-NP'
p925
g5
tp926
a(S'and'
p927
S'and'
p928
S'CC'
p929
S'I-NP'
p930
g5
tp931
a(S'80'
p932
S'80'
p933
S'CD'
p934
S'I-NP'
p935
g5
tp936
a(S'mg/d'
p937
S'mg/d'
p938
S'NN'
p939
S'I-NP'
p940
g5
tp941
a(g171
g171
g171
g5
g5
tp942
a(S'was'
p943
S'be'
p944
S'VBD'
p945
S'B-VP'
p946
g5
tp947
a(S'2.0-fold'
p948
S'2.0-fold'
p949
S'JJ'
p950
S'B-ADJP'
p951
g5
tp952
a(g141
g141
g141
g5
g5
tp953
a(S'P'
p954
g954
S'NN'
p955
S'B-NP'
p956
g5
tp957
a(S'='
p958
g958
S'SYM'
p959
S'B-VP'
p960
g5
tp961
a(S'0.03'
p962
S'0.03'
p963
S'CD'
p964
S'B-NP'
p965
g5
tp966
a(g171
g171
g171
g5
g5
tp967
a(S'and'
p968
S'and'
p969
S'CC'
p970
g5
g5
tp971
a(S'2.5-fold'
p972
S'2.5-fold'
p973
S'JJ'
p974
S'B-NP'
p975
g5
tp976
a(g141
g141
g141
g5
g5
tp977
a(g954
g954
S'NN'
p978
S'B-NP'
p979
g5
tp980
a(g177
g177
S'SYM'
p981
S'B-NP'
p982
g5
tp983
a(S'0.001'
p984
S'0.001'
p985
S'CD'
p986
S'I-NP'
p987
g5
tp988
a(g171
g171
g171
g5
g5
tp989
a(S'greater'
p990
S'great'
p991
S'JJR'
p992
S'B-ADJP'
p993
g5
tp994
a(g61
g61
g61
g5
g5
tp995
a(S'respectively'
p996
S'respectively'
p997
S'RB'
p998
S'B-ADVP'
p999
g5
tp1000
a(g61
g61
g61
g5
g5
tp1001
a(S'than'
p1002
S'than'
p1003
S'IN'
p1004
S'B-PP'
p1005
g5
tp1006
a(S'that'
p1007
S'that'
p1008
S'DT'
p1009
S'B-NP'
p1010
g5
tp1011
a(S'with'
p1012
S'with'
p1013
S'IN'
p1014
S'B-PP'
p1015
g5
tp1016
a(S'placebo.'
p1017
S'placebo.'
p1018
S'NN'
p1019
S'B-NP'
p1020
g5
tp1021
a(S'The'
p1022
S'The'
p1023
S'DT'
p1024
S'B-NP'
p1025
g5
tp1026
a(S'median'
p1027
S'median'
p1028
S'JJ'
p1029
S'I-NP'
p1030
g5
tp1031
a(S'time'
p1032
S'time'
p1033
S'NN'
p1034
S'I-NP'
p1035
g5
tp1036
a(S'to'
p1037
S'to'
p1038
S'TO'
p1039
S'B-VP'
p1040
g5
tp1041
a(S'achieve'
p1042
S'achieve'
p1043
S'VB'
p1044
S'I-VP'
p1045
g5
tp1046
a(g34
g34
S'DT'
p1047
S'B-NP'
p1048
g5
tp1049
a(S'confirmed'
p1050
S'confirm'
p1051
S'VBN'
p1052
S'I-NP'
p1053
g5
tp1054
a(S'increase'
p1055
S'increase'
p1056
S'NN'
p1057
S'I-NP'
p1058
g5
tp1059
a(S'in'
p1060
S'in'
p1061
S'IN'
p1062
S'B-PP'
p1063
g5
tp1064
a(S'serum'
p1065
S'serum'
p1066
S'NN'
p1067
S'B-NP'
p1068
g5
tp1069
a(g140
g140
g141
g5
g5
tp1070
a(S'Na'
p1071
S'Na'
p1072
S'NN'
p1073
S'B-NP'
p1074
g5
tp1075
a(g141
g141
g141
g5
g5
tp1076
a(g167
g167
S'SYM'
p1077
S'B-NP'
p1078
g5
tp1079
a(g171
g171
g171
g5
g5
tp1080
a(g173
g173
g171
g5
g5
tp1081
a(S'of'
p1082
S'of'
p1083
S'IN'
p1084
S'B-PP'
p1085
g5
tp1086
a(S'4'
p1087
g1087
S'CD'
p1088
S'B-NP'
p1089
g5
tp1090
a(S'mEq/liter'
p1091
S'mEq/liter'
p1092
S'NN'
p1093
S'I-NP'
p1094
g5
tp1095
a(S'or'
p1096
S'or'
p1097
S'CC'
p1098
S'I-NP'
p1099
g5
tp1100
a(S'more'
p1101
S'more'
p1102
S'JJR'
p1103
S'I-NP'
p1104
g5
tp1105
a(S'from'
p1106
S'from'
p1107
S'IN'
p1108
S'B-PP'
p1109
g5
tp1110
a(S'baseline'
p1111
S'baseline'
p1112
S'NN'
p1113
S'B-NP'
p1114
g5
tp1115
a(S'was'
p1116
S'be'
p1117
S'VBD'
p1118
S'B-VP'
p1119
g5
tp1120
a(S'71.7'
p1121
S'71.7'
p1122
S'CD'
p1123
S'B-NP'
p1124
g5
tp1125
a(S'h'
p1126
g1126
S'NN'
p1127
S'I-NP'
p1128
g5
tp1129
a(S'for'
p1130
S'for'
p1131
S'IN'
p1132
S'B-PP'
p1133
g5
tp1134
a(S'placebo'
p1135
S'placebo'
p1136
S'NN'
p1137
S'B-NP'
p1138
g5
tp1139
a(g61
g61
g61
g5
g5
tp1140
a(S'27.5'
p1141
S'27.5'
p1142
S'CD'
p1143
S'B-NP'
p1144
g5
tp1145
a(g1126
g1126
S'NN'
p1146
S'I-NP'
p1147
g5
tp1148
a(S'for'
p1149
S'for'
p1150
S'IN'
p1151
S'B-PP'
p1152
g5
tp1153
a(S'40'
p1154
S'40'
p1155
S'CD'
p1156
S'B-NP'
p1157
g5
tp1158
a(S'mg/d'
p1159
S'mg/d'
p1160
S'NN'
p1161
S'I-NP'
p1162
g5
tp1163
a(S'conivaptan'
p1164
S'conivaptan'
p1165
S'NN'
p1166
S'I-NP'
p1167
g5
tp1168
a(g141
g141
g141
g5
g5
tp1169
a(g954
g954
S'NN'
p1170
S'B-NP'
p1171
g5
tp1172
a(g958
g958
S'SYM'
p1173
S'B-VP'
p1174
g5
tp1175
a(S'0.044'
p1176
S'0.044'
p1177
S'CD'
p1178
S'B-NP'
p1179
g5
tp1180
a(g171
g171
g171
g5
g5
tp1181
a(g61
g61
g61
g5
g5
tp1182
a(S'and'
p1183
S'and'
p1184
S'CC'
p1185
g5
g5
tp1186
a(S'12.1'
p1187
S'12.1'
p1188
S'CD'
p1189
S'B-NP'
p1190
g5
tp1191
a(g1126
g1126
S'NN'
p1192
S'I-NP'
p1193
g5
tp1194
a(S'for'
p1195
S'for'
p1196
S'IN'
p1197
S'B-PP'
p1198
g5
tp1199
a(S'80'
p1200
S'80'
p1201
S'CD'
p1202
S'B-NP'
p1203
g5
tp1204
a(S'mg/d'
p1205
S'mg/d'
p1206
S'NN'
p1207
S'I-NP'
p1208
g5
tp1209
a(S'conivaptan'
p1210
S'conivaptan'
p1211
S'NN'
p1212
S'I-NP'
p1213
g5
tp1214
a(g141
g141
g141
g5
g5
tp1215
a(g954
g954
S'NN'
p1216
S'B-NP'
p1217
g5
tp1218
a(g958
g958
S'SYM'
p1219
S'B-VP'
p1220
g5
tp1221
a(S'0.002'
p1222
S'0.002'
p1223
S'CD'
p1224
S'B-NP'
p1225
g5
tp1226
a(g171
g171
g171
g5
g5
tp1227
a(g128
g128
g128
g5
g5
tp1228
a(S'The'
p1229
S'The'
p1230
S'DT'
p1231
S'B-NP'
p1232
g5
tp1233
a(S'mean'
p1234
S'mean'
p1235
S'JJ'
p1236
S'I-NP'
p1237
g5
tp1238
a(S'total'
p1239
S'total'
p1240
S'JJ'
p1241
S'I-NP'
p1242
g5
tp1243
a(S'times'
p1244
S'time'
p1245
S'NNS'
p1246
S'I-NP'
p1247
g5
tp1248
a(S'during'
p1249
S'during'
p1250
S'IN'
p1251
S'B-PP'
p1252
g5
tp1253
a(S'which'
p1254
S'which'
p1255
S'WDT'
p1256
S'B-NP'
p1257
g5
tp1258
a(S'patients'
p1259
S'patient'
p1260
S'NNS'
p1261
S'B-NP'
p1262
g5
tp1263
a(S'had'
p1264
S'have'
p1265
S'VBD'
p1266
S'B-VP'
p1267
g5
tp1268
a(g34
g34
S'DT'
p1269
S'B-NP'
p1270
g5
tp1271
a(S'serum'
p1272
S'serum'
p1273
S'NN'
p1274
S'I-NP'
p1275
g5
tp1276
a(g140
g140
g141
g5
g5
tp1277
a(S'Na'
p1278
S'Na'
p1279
S'NN'
p1280
S'B-NP'
p1281
g5
tp1282
a(g141
g141
g141
g5
g5
tp1283
a(g167
g167
S'SYM'
p1284
S'B-NP'
p1285
g5
tp1286
a(g171
g171
g171
g5
g5
tp1287
a(g173
g173
g171
g5
g5
tp1288
a(S'level'
p1289
S'level'
p1290
S'NN'
p1291
S'B-NP'
p1292
g5
tp1293
a(S'of'
p1294
S'of'
p1295
S'IN'
p1296
S'B-PP'
p1297
g5
tp1298
a(g1087
g1087
S'CD'
p1299
S'B-NP'
p1300
g5
tp1301
a(S'mEq/liter'
p1302
S'mEq/liter'
p1303
S'NN'
p1304
S'I-NP'
p1305
g5
tp1306
a(S'or'
p1307
S'or'
p1308
S'CC'
p1309
S'I-NP'
p1310
g5
tp1311
a(S'more'
p1312
S'more'
p1313
S'JJR'
p1314
S'I-NP'
p1315
g5
tp1316
a(S'above'
p1317
S'above'
p1318
S'IN'
p1319
S'B-PP'
p1320
g5
tp1321
a(S'baseline'
p1322
S'baseline'
p1323
S'NN'
p1324
S'B-NP'
p1325
g5
tp1326
a(S'were'
p1327
S'be'
p1328
S'VBD'
p1329
S'B-VP'
p1330
g5
tp1331
a(S'46.5'
p1332
S'46.5'
p1333
S'CD'
p1334
S'B-NP'
p1335
g5
tp1336
a(g61
g61
g61
S'I-NP'
p1337
g5
tp1338
a(S'69.8'
p1339
S'69.8'
p1340
S'CD'
p1341
S'I-NP'
p1342
g5
tp1343
a(g61
g61
g61
g5
g5
tp1344
a(S'and'
p1345
S'and'
p1346
S'CC'
p1347
g5
g5
tp1348
a(S'88.8'
p1349
S'88.8'
p1350
S'CD'
p1351
S'B-NP'
p1352
g5
tp1353
a(g1126
g1126
S'NN'
p1354
S'I-NP'
p1355
g5
tp1356
a(g141
g141
g141
g5
g5
tp1357
a(g954
g954
S'NN'
p1358
S'B-NP'
p1359
g5
tp1360
a(g958
g958
S'SYM'
p1361
S'B-VP'
p1362
g5
tp1363
a(S'0.001'
p1364
S'0.001'
p1365
S'CD'
p1366
S'B-NP'
p1367
g5
tp1368
a(g171
g171
g171
g5
g5
tp1369
a(g61
g61
g61
g5
g5
tp1370
a(S'respectively.'
p1371
S'respectively.'
p1372
S'VBP'
p1373
S'B-VP'
p1374
g5
tp1375
a(S'The'
p1376
S'The'
p1377
S'DT'
p1378
S'B-NP'
p1379
g5
tp1380
a(S'least-squares'
p1381
S'least-squares'
p1382
S'JJ'
p1383
S'I-NP'
p1384
g5
tp1385
a(S'mean'
p1386
S'mean'
p1387
S'JJ'
p1388
S'I-NP'
p1389
g5
tp1390
a(S'change'
p1391
S'change'
p1392
S'NN'
p1393
S'I-NP'
p1394
g5
tp1395
a(S'in'
p1396
S'in'
p1397
S'IN'
p1398
S'B-PP'
p1399
g5
tp1400
a(S'serum'
p1401
S'serum'
p1402
S'NN'
p1403
S'B-NP'
p1404
g5
tp1405
a(g140
g140
g141
g5
g5
tp1406
a(S'Na'
p1407
S'Na'
p1408
S'NN'
p1409
S'B-NP'
p1410
g5
tp1411
a(g141
g141
g141
g5
g5
tp1412
a(g167
g167
S'SYM'
p1413
S'B-NP'
p1414
g5
tp1415
a(g171
g171
g171
g5
g5
tp1416
a(g173
g173
g171
g5
g5
tp1417
a(S'from'
p1418
S'from'
p1419
S'IN'
p1420
S'B-PP'
p1421
g5
tp1422
a(S'baseline'
p1423
S'baseline'
p1424
S'NN'
p1425
S'B-NP'
p1426
g5
tp1427
a(S'to'
p1428
S'to'
p1429
S'TO'
p1430
S'B-VP'
p1431
g5
tp1432
a(S'end'
p1433
S'end'
p1434
S'VB'
p1435
S'I-VP'
p1436
g5
tp1437
a(S'of'
p1438
S'of'
p1439
S'IN'
p1440
S'B-PP'
p1441
g5
tp1442
a(S'treatment'
p1443
S'treatment'
p1444
S'NN'
p1445
S'B-NP'
p1446
g5
tp1447
a(S'was'
p1448
S'be'
p1449
S'VBD'
p1450
S'B-VP'
p1451
g5
tp1452
a(S'3.4'
p1453
S'3.4'
p1454
S'CD'
p1455
S'B-NP'
p1456
g5
tp1457
a(S'mEq/liter'
p1458
S'mEq/liter'
p1459
S'NN'
p1460
S'I-NP'
p1461
g5
tp1462
a(S'for'
p1463
S'for'
p1464
S'IN'
p1465
S'B-PP'
p1466
g5
tp1467
a(S'placebo'
p1468
S'placebo'
p1469
S'NN'
p1470
S'B-NP'
p1471
g5
tp1472
a(g61
g61
g61
g5
g5
tp1473
a(S'6.4'
p1474
S'6.4'
p1475
S'CD'
p1476
S'B-NP'
p1477
g5
tp1478
a(S'mEq/liter'
p1479
S'mEq/liter'
p1480
S'NN'
p1481
S'I-NP'
p1482
g5
tp1483
a(S'for'
p1484
S'for'
p1485
S'IN'
p1486
S'B-PP'
p1487
g5
tp1488
a(S'40'
p1489
S'40'
p1490
S'CD'
p1491
S'B-NP'
p1492
g5
tp1493
a(S'mg/d'
p1494
S'mg/d'
p1495
S'NN'
p1496
S'I-NP'
p1497
g5
tp1498
a(S'conivaptan'
p1499
S'conivaptan'
p1500
S'NN'
p1501
S'I-NP'
p1502
g5
tp1503
a(g61
g61
g61
g5
g5
tp1504
a(S'and'
p1505
S'and'
p1506
S'CC'
p1507
g5
g5
tp1508
a(S'8.2'
p1509
S'8.2'
p1510
S'CD'
p1511
S'B-NP'
p1512
g5
tp1513
a(S'mEq/liter'
p1514
S'mEq/liter'
p1515
S'NN'
p1516
S'I-NP'
p1517
g5
tp1518
a(S'for'
p1519
S'for'
p1520
S'IN'
p1521
S'B-PP'
p1522
g5
tp1523
a(S'80'
p1524
S'80'
p1525
S'CD'
p1526
S'B-NP'
p1527
g5
tp1528
a(S'mg/d'
p1529
S'mg/d'
p1530
S'NN'
p1531
S'I-NP'
p1532
g5
tp1533
a(S'conivaptan'
p1534
S'conivaptan'
p1535
S'NN'
p1536
S'I-NP'
p1537
g5
tp1538
a(g141
g141
g141
g5
g5
tp1539
a(g954
g954
S'NN'
p1540
S'B-NP'
p1541
g5
tp1542
a(g958
g958
S'SYM'
p1543
S'B-VP'
p1544
g5
tp1545
a(S'0.002'
p1546
S'0.002'
p1547
S'CD'
p1548
S'B-NP'
p1549
g5
tp1550
a(g171
g171
g171
g5
g5
tp1551
a(g128
g128
g128
g5
g5
tp1552
a(S'A'
p1553
g1553
S'NN'
p1554
S'B-NP'
p1555
g5
tp1556
a(S'confirmed'
p1557
S'confirm'
p1558
S'VBD'
p1559
S'B-VP'
p1560
g5
tp1561
a(S'normal'
p1562
S'normal'
p1563
S'JJ'
p1564
S'B-NP'
p1565
g5
tp1566
a(S'serum'
p1567
S'serum'
p1568
S'NN'
p1569
S'I-NP'
p1570
g5
tp1571
a(g140
g140
g141
g5
g5
tp1572
a(S'Na'
p1573
S'Na'
p1574
S'NN'
p1575
S'B-NP'
p1576
g5
tp1577
a(g141
g141
g141
g5
g5
tp1578
a(g167
g167
S'SYM'
p1579
S'B-NP'
p1580
g5
tp1581
a(g171
g171
g171
g5
g5
tp1582
a(g173
g173
g171
g5
g5
tp1583
a(g141
g141
g141
g5
g5
tp1584
a(S'>'
p1585
g1585
S'SYM'
p1586
g5
g5
tp1587
a(S'/=135'
p1588
S'/=135'
p1589
S'CD'
p1590
S'B-NP'
p1591
g5
tp1592
a(S'mEq/liter'
p1593
S'mEq/liter'
p1594
S'NN'
p1595
S'I-NP'
p1596
g5
tp1597
a(g171
g171
g171
g5
g5
tp1598
a(S'or'
p1599
S'or'
p1600
S'CC'
p1601
g5
g5
tp1602
a(S'increase'
p1603
S'increase'
p1604
S'NN'
p1605
S'B-NP'
p1606
g5
tp1607
a(S'of'
p1608
S'of'
p1609
S'IN'
p1610
S'B-PP'
p1611
g5
tp1612
a(S'6'
p1613
g1613
S'CD'
p1614
S'B-NP'
p1615
g5
tp1616
a(S'mEq/liter'
p1617
S'mEq/liter'
p1618
S'NN'
p1619
S'I-NP'
p1620
g5
tp1621
a(S'or'
p1622
S'or'
p1623
S'CC'
p1624
S'I-NP'
p1625
g5
tp1626
a(S'more'
p1627
S'more'
p1628
S'JJR'
p1629
S'I-NP'
p1630
g5
tp1631
a(S'was'
p1632
S'be'
p1633
S'VBD'
p1634
S'B-VP'
p1635
g5
tp1636
a(S'observed'
p1637
S'observe'
p1638
S'VBN'
p1639
S'I-VP'
p1640
g5
tp1641
a(S'in'
p1642
S'in'
p1643
S'IN'
p1644
S'B-PP'
p1645
g5
tp1646
a(S'48'
p1647
S'48'
p1648
S'CD'
p1649
S'B-NP'
p1650
g5
tp1651
a(S'%'
p1652
g1652
S'NN'
p1653
S'I-NP'
p1654
g5
tp1655
a(S'of'
p1656
S'of'
p1657
S'IN'
p1658
S'B-PP'
p1659
g5
tp1660
a(S'patients'
p1661
S'patient'
p1662
S'NNS'
p1663
S'B-NP'
p1664
g5
tp1665
a(S'given'
p1666
S'give'
p1667
S'VBN'
p1668
S'B-PP'
p1669
g5
tp1670
a(S'placebo'
p1671
S'placebo'
p1672
S'NN'
p1673
S'B-NP'
p1674
g5
tp1675
a(g61
g61
g61
g5
g5
tp1676
a(S'71'
p1677
S'71'
p1678
S'CD'
p1679
S'B-NP'
p1680
g5
tp1681
a(g1652
g1652
S'NN'
p1682
S'I-NP'
p1683
g5
tp1684
a(S'given'
p1685
S'give'
p1686
S'VBN'
p1687
S'B-PP'
p1688
g5
tp1689
a(S'40'
p1690
S'40'
p1691
S'CD'
p1692
S'B-NP'
p1693
g5
tp1694
a(S'mg/d'
p1695
S'mg/d'
p1696
S'NN'
p1697
S'I-NP'
p1698
g5
tp1699
a(S'conivaptan'
p1700
S'conivaptan'
p1701
S'NN'
p1702
S'I-NP'
p1703
g5
tp1704
a(g61
g61
g61
g5
g5
tp1705
a(S'and'
p1706
S'and'
p1707
S'CC'
p1708
g5
g5
tp1709
a(S'82'
p1710
S'82'
p1711
S'CD'
p1712
S'B-NP'
p1713
g5
tp1714
a(g1652
g1652
S'NN'
p1715
S'I-NP'
p1716
g5
tp1717
a(S'given'
p1718
S'give'
p1719
S'VBN'
p1720
S'B-PP'
p1721
g5
tp1722
a(S'80'
p1723
S'80'
p1724
S'CD'
p1725
S'B-NP'
p1726
g5
tp1727
a(S'mg/d'
p1728
S'mg/d'
p1729
S'NN'
p1730
S'I-NP'
p1731
g5
tp1732
a(S'conivaptan'
p1733
S'conivaptan'
p1734
S'NN'
p1735
S'I-NP'
p1736
g5
tp1737
a(g141
g141
g141
g5
g5
tp1738
a(g954
g954
S'NN'
p1739
S'B-NP'
p1740
g5
tp1741
a(g958
g958
S'SYM'
p1742
S'B-VP'
p1743
g5
tp1744
a(S'0.014'
p1745
S'0.014'
p1746
S'CD'
p1747
S'B-NP'
p1748
g5
tp1749
a(g171
g171
g171
g5
g5
tp1750
a(g128
g128
g128
g5
g5
tp1751
a(S'Headache'
p1752
S'Headache'
p1753
S'NNP'
p1754
S'B-NP'
p1755
g5
tp1756
a(g61
g61
g61
g5
g5
tp1757
a(S'hypotension'
p1758
S'hypotension'
p1759
S'NN'
p1760
S'B-NP'
p1761
g5
tp1762
a(g61
g61
g61
g5
g5
tp1763
a(S'nausea'
p1764
S'nausea'
p1765
S'NN'
p1766
S'B-NP'
p1767
g5
tp1768
a(g61
g61
g61
g5
g5
tp1769
a(S'constipation'
p1770
S'constipation'
p1771
S'NN'
p1772
S'B-NP'
p1773
g5
tp1774
a(g61
g61
g61
g5
g5
tp1775
a(S'and'
p1776
S'and'
p1777
S'CC'
p1778
g5
g5
tp1779
a(S'postural'
p1780
S'postural'
p1781
S'JJ'
p1782
S'B-NP'
p1783
g5
tp1784
a(S'hypotension'
p1785
S'hypotension'
p1786
S'NN'
p1787
S'I-NP'
p1788
g5
tp1789
a(S'were'
p1790
S'be'
p1791
S'VBD'
p1792
S'B-VP'
p1793
g5
tp1794
a(S'the'
p1795
S'the'
p1796
S'DT'
p1797
S'B-NP'
p1798
g5
tp1799
a(S'most'
p1800
S'most'
p1801
S'RBS'
p1802
S'I-NP'
p1803
g5
tp1804
a(S'common'
p1805
S'common'
p1806
S'JJ'
p1807
S'I-NP'
p1808
g5
tp1809
a(S'adverse'
p1810
S'adverse'
p1811
S'JJ'
p1812
S'I-NP'
p1813
g5
tp1814
a(S'events'
p1815
S'event'
p1816
S'NNS'
p1817
S'I-NP'
p1818
g5
tp1819
a(g128
g128
g128
g5
g5
tp1820
a(S'CONCLUSION'
p1821
S'CONCLUSION'
p1822
S'NN'
p1823
S'B-NP'
p1824
g5
tp1825
a(S'Oral'
p1826
S'Oral'
p1827
S'JJ'
p1828
S'I-NP'
p1829
g5
tp1830
a(S'conivaptan'
p1831
S'conivaptan'
p1832
S'NN'
p1833
S'I-NP'
p1834
g5
tp1835
a(g141
g141
g141
g5
g5
tp1836
a(S'40'
p1837
S'40'
p1838
S'CD'
p1839
S'B-NP'
p1840
g5
tp1841
a(S'and'
p1842
S'and'
p1843
S'CC'
p1844
S'I-NP'
p1845
g5
tp1846
a(S'80'
p1847
S'80'
p1848
S'CD'
p1849
S'I-NP'
p1850
g5
tp1851
a(S'mg/d'
p1852
S'mg/d'
p1853
S'NN'
p1854
S'I-NP'
p1855
g5
tp1856
a(g171
g171
g171
g5
g5
tp1857
a(S'was'
p1858
S'be'
p1859
S'VBD'
p1860
S'B-VP'
p1861
g5
tp1862
a(S'well'
p1863
S'well'
p1864
S'RB'
p1865
S'I-VP'
p1866
g5
tp1867
a(S'tolerated'
p1868
S'tolerate'
p1869
S'VBN'
p1870
S'I-VP'
p1871
g5
tp1872
a(S'and'
p1873
S'and'
p1874
S'CC'
p1875
g5
g5
tp1876
a(S'efficacious'
p1877
S'efficacious'
p1878
S'JJ'
p1879
S'B-ADJP'
p1880
g5
tp1881
a(S'in'
p1882
S'in'
p1883
S'IN'
p1884
S'B-PP'
p1885
g5
tp1886
a(S'correcting'
p1887
S'correct'
p1888
S'VBG'
p1889
S'B-VP'
p1890
g5
tp1891
a(S'serum'
p1892
S'serum'
p1893
S'NN'
p1894
S'B-NP'
p1895
g5
tp1896
a(g140
g140
g141
g5
g5
tp1897
a(S'Na'
p1898
S'Na'
p1899
S'NN'
p1900
S'B-NP'
p1901
g5
tp1902
a(g141
g141
g141
g5
g5
tp1903
a(g167
g167
S'SYM'
p1904
S'B-NP'
p1905
g5
tp1906
a(g171
g171
g171
g5
g5
tp1907
a(g173
g173
g171
g5
g5
tp1908
a(S'in'
p1909
S'in'
p1910
S'IN'
p1911
S'B-PP'
p1912
g5
tp1913
a(S'hyponatremia'
p1914
S'hyponatremia'
p1915
S'NN'
p1916
S'B-NP'
p1917
g5
tp1918
a(g128
g128
g128
g5
g5
tp1919
a.