(lp0
(S'Effect'
p1
S'Effect'
p2
S'NN'
p3
S'B-NP'
p4
S'O'
p5
tp6
a(S'of'
p7
S'of'
p8
S'IN'
p9
S'B-PP'
p10
g5
tp11
a(S'a'
p12
g12
S'DT'
p13
S'B-NP'
p14
g5
tp15
a(S'dental'
p16
S'dental'
p17
S'JJ'
p18
S'I-NP'
p19
g5
tp20
a(S'cream'
p21
S'cream'
p22
S'NN'
p23
S'I-NP'
p24
g5
tp25
a(S'containing'
p26
S'contain'
p27
S'VBG'
p28
S'B-VP'
p29
g5
tp30
a(S'amorphous'
p31
S'amorphous'
p32
S'JJ'
p33
S'B-NP'
p34
S'B-protein'
p35
tp36
a(S'cream'
p37
S'cream'
p38
S'NN'
p39
S'I-NP'
p40
S'I-protein'
p41
tp42
a(S'phosphate'
p43
S'phosphate'
p44
S'NN'
p45
S'I-NP'
p46
S'I-protein'
p47
tp48
a(S'complexes'
p49
S'complex'
p50
S'NNS'
p51
S'I-NP'
p52
S'I-protein'
p53
tp54
a(S'on'
p55
S'on'
p56
S'IN'
p57
S'B-PP'
p58
g5
tp59
a(S'white'
p60
S'white'
p61
S'JJ'
p62
S'B-NP'
p63
g5
tp64
a(S'spot'
p65
S'spot'
p66
S'NN'
p67
S'I-NP'
p68
g5
tp69
a(S'lesion'
p70
S'lesion'
p71
S'NN'
p72
S'I-NP'
p73
g5
tp74
a(S'regression'
p75
S'regression'
p76
S'NN'
p77
S'I-NP'
p78
g5
tp79
a(S'assessed'
p80
S'assess'
p81
S'VBN'
p82
S'B-VP'
p83
g5
tp84
a(S'by'
p85
S'by'
p86
S'IN'
p87
S'B-PP'
p88
g5
tp89
a(S'laser'
p90
S'laser'
p91
S'NN'
p92
S'B-NP'
p93
g5
tp94
a(S'fluorescence'
p95
S'fluorescence'
p96
S'NN'
p97
S'I-NP'
p98
g5
tp99
a(S'.'
p100
g100
g100
g5
g5
tp101
a(S'PURPOSE'
p102
S'PURPOSE'
p103
S'NN'
p104
S'B-NP'
p105
g5
tp106
a(S'To'
p107
S'To'
p108
S'TO'
p109
S'B-VP'
p110
g5
tp111
a(S'investigate'
p112
S'investigate'
p113
S'VB'
p114
S'I-VP'
p115
g5
tp116
a(S'and'
p117
S'and'
p118
S'CC'
p119
S'I-VP'
p120
g5
tp121
a(S'compare'
p122
S'compare'
p123
S'VB'
p124
S'I-VP'
p125
g5
tp126
a(S'the'
p127
S'the'
p128
S'DT'
p129
S'B-NP'
p130
g5
tp131
a(S'effects'
p132
S'effect'
p133
S'NNS'
p134
S'I-NP'
p135
g5
tp136
a(S'of'
p137
S'of'
p138
S'IN'
p139
S'B-PP'
p140
g5
tp141
a(g12
g12
S'DT'
p142
S'B-NP'
p143
g5
tp144
a(S'dental'
p145
S'dental'
p146
S'JJ'
p147
S'I-NP'
p148
g5
tp149
a(S'cream'
p150
S'cream'
p151
S'NN'
p152
S'I-NP'
p153
g5
tp154
a(S'containing'
p155
S'contain'
p156
S'VBG'
p157
S'B-VP'
p158
g5
tp159
a(S'complexes'
p160
S'complex'
p161
S'NNS'
p162
S'B-NP'
p163
g5
tp164
a(S'of'
p165
S'of'
p166
S'IN'
p167
S'B-PP'
p168
g5
tp169
a(S'casein'
p170
S'casein'
p171
S'NN'
p172
S'B-NP'
p173
g5
tp174
a(S'phosphoprotein-amorphous'
p175
S'phosphoprotein-amorphous'
p176
S'JJ'
p177
S'I-NP'
p178
g5
tp179
a(S'calcium'
p180
S'calcium'
p181
S'NN'
p182
S'I-NP'
p183
g5
tp184
a(S'phosphate'
p185
S'phosphate'
p186
S'NN'
p187
S'I-NP'
p188
g5
tp189
a(S'('
p190
g190
g190
g5
g5
tp191
a(S'CPP-ACP'
p192
S'CPP-ACP'
p193
S'NN'
p194
S'B-NP'
p195
S'B-protein'
p196
tp197
a(S')'
p198
g198
g198
g5
g5
tp199
a(S'and'
p200
S'and'
p201
S'CC'
p202
g5
g5
tp203
a(S'fluoride'
p204
S'fluoride'
p205
S'NN'
p206
S'B-NP'
p207
g5
tp208
a(S'mouthwashes'
p209
S'mouthwash'
p210
S'NNS'
p211
S'I-NP'
p212
g5
tp213
a(S'on'
p214
S'on'
p215
S'IN'
p216
S'B-PP'
p217
g5
tp218
a(S'the'
p219
S'the'
p220
S'DT'
p221
S'B-NP'
p222
g5
tp223
a(S'regression'
p224
S'regression'
p225
S'NN'
p226
S'I-NP'
p227
g5
tp228
a(S'of'
p229
S'of'
p230
S'IN'
p231
S'B-PP'
p232
g5
tp233
a(S'white'
p234
S'white'
p235
S'JJ'
p236
S'B-NP'
p237
g5
tp238
a(S'spot'
p239
S'spot'
p240
S'NN'
p241
S'I-NP'
p242
g5
tp243
a(S'lesions'
p244
S'lesion'
p245
S'NNS'
p246
S'I-NP'
p247
g5
tp248
a(g190
g190
g190
g5
g5
tp249
a(S'WSL'
p250
S'WSL'
p251
S'NN'
p252
S'B-NP'
p253
S'B-protein'
p254
tp255
a(g198
g198
g198
g5
g5
tp256
a(g100
g100
g100
g5
g5
tp257
a(S'MATERIALS'
p258
S'MATERIALS'
p259
S'NNS'
p260
S'B-NP'
p261
g5
tp262
a(S'AND'
p263
S'AND'
p264
S'CC'
p265
S'I-NP'
p266
g5
tp267
a(S'METHODS'
p268
S'METHODS'
p269
S'NNS'
p270
S'I-NP'
p271
g5
tp272
a(S'The'
p273
S'The'
p274
S'DT'
p275
S'B-NP'
p276
g5
tp277
a(S'study'
p278
S'study'
p279
S'NN'
p280
S'I-NP'
p281
g5
tp282
a(S'group'
p283
S'group'
p284
S'NN'
p285
S'I-NP'
p286
g5
tp287
a(S'consisted'
p288
S'consist'
p289
S'VBD'
p290
S'B-VP'
p291
g5
tp292
a(S'of'
p293
S'of'
p294
S'IN'
p295
S'B-PP'
p296
g5
tp297
a(S'26'
p298
S'26'
p299
S'CD'
p300
S'B-NP'
p301
g5
tp302
a(S'healthy'
p303
S'healthy'
p304
S'JJ'
p305
S'I-NP'
p306
g5
tp307
a(S'adolescents'
p308
S'adolescent'
p309
S'NNS'
p310
S'I-NP'
p311
g5
tp312
a(g190
g190
g190
g5
g5
tp313
a(S'mean'
p314
S'mean'
p315
S'JJ'
p316
S'B-NP'
p317
g5
tp318
a(S'age'
p319
S'age'
p320
S'NN'
p321
S'I-NP'
p322
g5
tp323
a(S'14.6'
p324
S'14.6'
p325
S'CD'
p326
S'B-NP'
p327
g5
tp328
a(S'years'
p329
S'year'
p330
S'NNS'
p331
S'I-NP'
p332
g5
tp333
a(g198
g198
g198
g5
g5
tp334
a(S'exhibiting'
p335
S'exhibit'
p336
S'VBG'
p337
S'B-VP'
p338
g5
tp339
a(S'60'
p340
S'60'
p341
S'CD'
p342
S'B-NP'
p343
g5
tp344
a(S'teeth'
p345
S'tooth'
p346
S'NNS'
p347
S'I-NP'
p348
g5
tp349
a(S'with'
p350
S'with'
p351
S'IN'
p352
S'B-PP'
p353
g5
tp354
a(S'152'
p355
S'152'
p356
S'CD'
p357
S'B-NP'
p358
S'B-DNA'
p359
tp360
a(S'visible'
p361
S'visible'
p362
S'JJ'
p363
S'I-NP'
p364
S'I-DNA'
p365
tp366
a(S'WSL'
p367
S'WSL'
p368
S'NN'
p369
S'I-NP'
p370
S'I-DNA'
p371
tp372
a(S'sites'
p373
S'site'
p374
S'NNS'
p375
S'I-NP'
p376
S'I-DNA'
p377
tp378
a(S'on'
p379
S'on'
p380
S'IN'
p381
S'B-PP'
p382
g5
tp383
a(S'incisors'
p384
S'incisor'
p385
S'NNS'
p386
S'B-NP'
p387
g5
tp388
a(S'and'
p389
S'and'
p390
S'CC'
p391
S'I-NP'
p392
g5
tp393
a(S'canines'
p394
S'canine'
p395
S'NNS'
p396
S'I-NP'
p397
g5
tp398
a(S'immediately'
p399
S'immediately'
p400
S'RB'
p401
S'B-ADVP'
p402
g5
tp403
a(S'after'
p404
S'after'
p405
S'IN'
p406
S'B-PP'
p407
g5
tp408
a(S'debonding'
p409
S'debonde'
p410
S'VBG'
p411
S'B-VP'
p412
g5
tp413
a(S'of'
p414
S'of'
p415
S'IN'
p416
S'B-PP'
p417
g5
tp418
a(S'fixed'
p419
S'fix'
p420
S'VBN'
p421
S'B-NP'
p422
g5
tp423
a(S'orthodontic'
p424
S'orthodontic'
p425
S'JJ'
p426
S'I-NP'
p427
g5
tp428
a(S'appliances.'
p429
S'appliances.'
p430
S'NN'
p431
S'I-NP'
p432
g5
tp433
a(S'After'
p434
S'After'
p435
S'IN'
p436
S'B-PP'
p437
g5
tp438
a(S'bracket'
p439
S'bracket'
p440
S'NN'
p441
S'B-NP'
p442
g5
tp443
a(S'removal'
p444
S'removal'
p445
S'NN'
p446
S'I-NP'
p447
g5
tp448
a(S','
p449
g449
g449
g5
g5
tp450
a(S'professional'
p451
S'professional'
p452
S'JJ'
p453
S'B-NP'
p454
g5
tp455
a(S'tooth'
p456
S'tooth'
p457
S'NN'
p458
S'I-NP'
p459
g5
tp460
a(S'cleaning'
p461
S'cleaning'
p462
S'NN'
p463
S'I-NP'
p464
g5
tp465
a(S'and'
p466
S'and'
p467
S'CC'
p468
S'I-NP'
p469
g5
tp470
a(S'drying'
p471
S'drying'
p472
S'NN'
p473
S'I-NP'
p474
g5
tp475
a(g449
g449
g449
g5
g5
tp476
a(g12
g12
S'DT'
p477
S'B-NP'
p478
g5
tp479
a(S'visual'
p480
S'visual'
p481
S'JJ'
p482
S'I-NP'
p483
g5
tp484
a(S'scoring'
p485
S'scoring'
p486
S'NN'
p487
S'I-NP'
p488
g5
tp489
a(g190
g190
g190
g5
g5
tp490
a(S'0-4'
p491
S'0-4'
p492
S'CD'
p493
S'B-NP'
p494
g5
tp495
a(g198
g198
g198
g5
g5
tp496
a(S'and'
p497
S'and'
p498
S'CC'
p499
g5
g5
tp500
a(S'laser'
p501
S'laser'
p502
S'NN'
p503
S'B-NP'
p504
g5
tp505
a(S'fluorescence'
p506
S'fluorescence'
p507
S'NN'
p508
S'I-NP'
p509
g5
tp510
a(g190
g190
g190
g5
g5
tp511
a(S'LF'
p512
S'LF'
p513
S'NN'
p514
S'B-NP'
p515
g5
tp516
a(g198
g198
g198
g5
g5
tp517
a(S'readings'
p518
S'reading'
p519
S'NNS'
p520
S'B-NP'
p521
g5
tp522
a(S'were'
p523
S'be'
p524
S'VBD'
p525
S'B-VP'
p526
g5
tp527
a(S'carried'
p528
S'carry'
p529
S'VBN'
p530
S'I-VP'
p531
g5
tp532
a(S'out.'
p533
S'out.'
p534
S'RP'
p535
S'B-PRT'
p536
g5
tp537
a(S'The'
p538
S'The'
p539
S'DT'
p540
S'B-NP'
p541
g5
tp542
a(S'patients'
p543
S'patient'
p544
S'NNS'
p545
S'I-NP'
p546
g5
tp547
a(S'were'
p548
S'be'
p549
S'VBD'
p550
S'B-VP'
p551
g5
tp552
a(S'randomly'
p553
S'randomly'
p554
S'RB'
p555
S'I-VP'
p556
g5
tp557
a(S'assigned'
p558
S'assign'
p559
S'VBN'
p560
S'I-VP'
p561
g5
tp562
a(S'to'
p563
S'to'
p564
S'TO'
p565
S'B-PP'
p566
g5
tp567
a(S'two'
p568
S'two'
p569
S'CD'
p570
S'B-NP'
p571
g5
tp572
a(S'different'
p573
S'different'
p574
S'JJ'
p575
S'I-NP'
p576
g5
tp577
a(S'treatment'
p578
S'treatment'
p579
S'NN'
p580
S'I-NP'
p581
g5
tp582
a(S'protocols'
p583
S'protocol'
p584
S'NNS'
p585
S'I-NP'
p586
g5
tp587
a(S'with'
p588
S'with'
p589
S'IN'
p590
S'B-PP'
p591
g5
tp592
a(S'the'
p593
S'the'
p594
S'DT'
p595
S'B-NP'
p596
g5
tp597
a(S'aim'
p598
S'aim'
p599
S'NN'
p600
S'I-NP'
p601
g5
tp602
a(S'of'
p603
S'of'
p604
S'IN'
p605
S'B-PP'
p606
g5
tp607
a(S'remineralising'
p608
S'remineralise'
p609
S'VBG'
p610
S'B-VP'
p611
g5
tp612
a(S'the'
p613
S'the'
p614
S'DT'
p615
S'B-NP'
p616
g5
tp617
a(S'lesions'
p618
S'lesion'
p619
S'NNS'
p620
S'I-NP'
p621
g5
tp622
a(S':'
p623
g623
g623
g5
g5
tp624
a(S'A'
p625
g625
S'DT'
p626
g5
g5
tp627
a(g198
g198
g198
g5
g5
tp628
a(S'daily'
p629
S'daily'
p630
S'JJ'
p631
S'B-NP'
p632
g5
tp633
a(S'topical'
p634
S'topical'
p635
S'JJ'
p636
S'I-NP'
p637
g5
tp638
a(S'applications'
p639
S'application'
p640
S'NNS'
p641
S'I-NP'
p642
g5
tp643
a(S'of'
p644
S'of'
p645
S'IN'
p646
S'B-PP'
p647
g5
tp648
a(g12
g12
S'DT'
p649
S'B-NP'
p650
g5
tp651
a(S'dental'
p652
S'dental'
p653
S'JJ'
p654
S'I-NP'
p655
g5
tp656
a(S'cream'
p657
S'cream'
p658
S'NN'
p659
S'I-NP'
p660
g5
tp661
a(S'containing'
p662
S'contain'
p663
S'VBG'
p664
S'B-VP'
p665
g5
tp666
a(S'CPP-ACP'
p667
S'CPP-ACP'
p668
S'NN'
p669
S'B-NP'
p670
S'B-DNA'
p671
tp672
a(g190
g190
g190
g5
g5
tp673
a(S'Topacal'
p674
S'Topacal'
p675
S'JJ'
p676
S'B-ADJP'
p677
g5
tp678
a(g198
g198
g198
g5
g5
tp679
a(S'for'
p680
S'for'
p681
S'IN'
p682
S'B-PP'
p683
g5
tp684
a(S'3'
p685
g685
S'CD'
p686
S'B-NP'
p687
g5
tp688
a(S'months'
p689
S'month'
p690
S'NNS'
p691
S'I-NP'
p692
g5
tp693
a(S'followed'
p694
S'follow'
p695
S'VBN'
p696
S'B-VP'
p697
g5
tp698
a(S'by'
p699
S'by'
p700
S'IN'
p701
S'B-PP'
p702
g5
tp703
a(g12
g12
S'DT'
p704
S'B-NP'
p705
g5
tp706
a(S'3-month'
p707
S'3-month'
p708
S'JJ'
p709
S'I-NP'
p710
g5
tp711
a(S'period'
p712
S'period'
p713
S'NN'
p714
S'I-NP'
p715
g5
tp716
a(S'of'
p717
S'of'
p718
S'IN'
p719
S'B-PP'
p720
g5
tp721
a(S'daily'
p722
S'daily'
p723
S'JJ'
p724
S'B-NP'
p725
g5
tp726
a(S'toothbrushing'
p727
S'toothbrushing'
p728
S'NN'
p729
S'I-NP'
p730
g5
tp731
a(S'with'
p732
S'with'
p733
S'IN'
p734
S'B-PP'
p735
g5
tp736
a(S'fluoridated'
p737
S'fluoridate'
p738
S'VBN'
p739
S'B-NP'
p740
g5
tp741
a(S'dentifrice'
p742
S'dentifrice'
p743
S'NN'
p744
S'I-NP'
p745
g5
tp746
a(g449
g449
g449
g5
g5
tp747
a(S'or'
p748
S'or'
p749
S'CC'
p750
g5
g5
tp751
a(S'B'
p752
g752
S'NN'
p753
S'B-NP'
p754
g5
tp755
a(g198
g198
g198
g5
g5
tp756
a(S'daily'
p757
S'daily'
p758
S'RB'
p759
S'B-ADVP'
p760
g5
tp761
a(S'0.05'
p762
S'0.05'
p763
S'CD'
p764
S'B-NP'
p765
g5
tp766
a(S'%'
p767
g767
S'NN'
p768
S'I-NP'
p769
g5
tp770
a(S'sodium'
p771
S'sodium'
p772
S'NN'
p773
S'I-NP'
p774
g5
tp775
a(S'fluoride'
p776
S'fluoride'
p777
S'NN'
p778
S'I-NP'
p779
g5
tp780
a(S'mouthwash'
p781
S'mouthwash'
p782
S'NN'
p783
S'I-NP'
p784
g5
tp785
a(S'combined'
p786
S'combine'
p787
S'VBN'
p788
S'B-VP'
p789
g5
tp790
a(S'with'
p791
S'with'
p792
S'IN'
p793
S'B-PP'
p794
g5
tp795
a(S'fluoridated'
p796
S'fluoridate'
p797
S'VBN'
p798
S'B-NP'
p799
g5
tp800
a(S'dentifrice'
p801
S'dentifrice'
p802
S'NN'
p803
S'I-NP'
p804
g5
tp805
a(S'for'
p806
S'for'
p807
S'IN'
p808
S'B-PP'
p809
g5
tp810
a(S'6'
p811
g811
S'CD'
p812
S'B-NP'
p813
g5
tp814
a(S'months.'
p815
S'months.'
p816
S'NNS'
p817
S'I-NP'
p818
g5
tp819
a(S'The'
p820
S'The'
p821
S'DT'
p822
S'B-NP'
p823
g5
tp824
a(S'registrations'
p825
S'registration'
p826
S'NNS'
p827
S'I-NP'
p828
g5
tp829
a(S'were'
p830
S'be'
p831
S'VBD'
p832
S'B-VP'
p833
g5
tp834
a(S'repeated'
p835
S'repeat'
p836
S'VBN'
p837
S'I-VP'
p838
g5
tp839
a(S'after'
p840
S'after'
p841
S'IN'
p842
S'B-PP'
p843
g5
tp844
a(S'1'
p845
g845
S'CD'
p846
S'B-NP'
p847
g5
tp848
a(g449
g449
g449
S'I-NP'
p849
g5
tp850
a(g685
g685
S'CD'
p851
S'I-NP'
p852
g5
tp853
a(g449
g449
g449
S'I-NP'
p854
g5
tp855
a(g811
g811
S'CD'
p856
S'I-NP'
p857
g5
tp858
a(S'and'
p859
S'and'
p860
S'CC'
p861
S'I-NP'
p862
g5
tp863
a(S'12'
p864
S'12'
p865
S'CD'
p866
S'I-NP'
p867
g5
tp868
a(S'months'
p869
S'month'
p870
S'NNS'
p871
S'I-NP'
p872
g5
tp873
a(S'and'
p874
S'and'
p875
S'CC'
p876
g5
g5
tp877
a(S'follow-up'
p878
S'follow-up'
p879
S'JJ'
p880
S'B-NP'
p881
g5
tp882
a(S'data'
p883
S'datum'
p884
S'NNS'
p885
S'I-NP'
p886
g5
tp887
a(S'were'
p888
S'be'
p889
S'VBD'
p890
S'B-VP'
p891
g5
tp892
a(S'compared'
p893
S'compare'
p894
S'VBN'
p895
S'I-VP'
p896
g5
tp897
a(S'with'
p898
S'with'
p899
S'IN'
p900
S'B-PP'
p901
g5
tp902
a(S'baseline'
p903
S'baseline'
p904
S'NN'
p905
S'B-NP'
p906
g5
tp907
a(S'with'
p908
S'with'
p909
S'IN'
p910
S'B-PP'
p911
g5
tp912
a(S'aid'
p913
S'aid'
p914
S'NN'
p915
S'B-NP'
p916
g5
tp917
a(S'of'
p918
S'of'
p919
S'IN'
p920
S'B-PP'
p921
g5
tp922
a(S'chi-square'
p923
S'chi-square'
p924
S'JJ'
p925
S'B-NP'
p926
g5
tp927
a(S'and'
p928
S'and'
p929
S'CC'
p930
S'I-NP'
p931
g5
tp932
a(S'paired'
p933
S'paired'
p934
S'JJ'
p935
S'I-NP'
p936
g5
tp937
a(S't-tests'
p938
S't-test'
p939
S'NNS'
p940
S'I-NP'
p941
g5
tp942
a(g100
g100
g100
g5
g5
tp943
a(S'RESULTS'
p944
S'RESULTS'
p945
S'NNS'
p946
S'B-NP'
p947
g5
tp948
a(g625
g625
S'DT'
p949
S'B-NP'
p950
g5
tp951
a(S'significant'
p952
S'significant'
p953
S'JJ'
p954
S'I-NP'
p955
g5
tp956
a(S'improvement'
p957
S'improvement'
p958
S'NN'
p959
S'I-NP'
p960
g5
tp961
a(S'of'
p962
S'of'
p963
S'IN'
p964
S'B-PP'
p965
g5
tp966
a(S'the'
p967
S'the'
p968
S'DT'
p969
S'B-NP'
p970
g5
tp971
a(S'clinical'
p972
S'clinical'
p973
S'JJ'
p974
S'I-NP'
p975
g5
tp976
a(S'WSL-scores'
p977
S'WSL-score'
p978
S'NNS'
p979
S'I-NP'
p980
g5
tp981
a(S'was'
p982
S'be'
p983
S'VBD'
p984
S'B-VP'
p985
g5
tp986
a(S'found'
p987
S'find'
p988
S'VBN'
p989
S'I-VP'
p990
g5
tp991
a(S'over'
p992
S'over'
p993
S'IN'
p994
S'B-PP'
p995
g5
tp996
a(S'time'
p997
S'time'
p998
S'NN'
p999
S'B-NP'
p1000
g5
tp1001
a(S'in'
p1002
S'in'
p1003
S'IN'
p1004
S'B-PP'
p1005
g5
tp1006
a(S'both'
p1007
S'both'
p1008
S'DT'
p1009
S'B-NP'
p1010
g5
tp1011
a(S'groups'
p1012
S'group'
p1013
S'NNS'
p1014
S'I-NP'
p1015
g5
tp1016
a(g449
g449
g449
g5
g5
tp1017
a(S'but'
p1018
S'but'
p1019
S'CC'
p1020
g5
g5
tp1021
a(S'there'
p1022
S'there'
p1023
S'EX'
p1024
S'B-NP'
p1025
g5
tp1026
a(S'was'
p1027
S'be'
p1028
S'VBD'
p1029
S'B-VP'
p1030
g5
tp1031
a(g12
g12
S'DT'
p1032
S'B-NP'
p1033
g5
tp1034
a(S'statistically'
p1035
S'statistically'
p1036
S'RB'
p1037
S'I-NP'
p1038
g5
tp1039
a(S'significant'
p1040
S'significant'
p1041
S'JJ'
p1042
S'I-NP'
p1043
g5
tp1044
a(S'difference'
p1045
S'difference'
p1046
S'NN'
p1047
S'I-NP'
p1048
g5
tp1049
a(g190
g190
g190
g5
g5
tp1050
a(S'p'
p1051
g1051
S'NN'
p1052
S'B-NP'
p1053
g5
tp1054
a(S'<'
p1055
g1055
S'SYM'
p1056
S'B-NP'
p1057
g5
tp1058
a(S'0.01'
p1059
S'0.01'
p1060
S'CD'
p1061
S'I-NP'
p1062
g5
tp1063
a(g198
g198
g198
g5
g5
tp1064
a(S'concerning'
p1065
S'concern'
p1066
S'VBG'
p1067
S'B-VP'
p1068
g5
tp1069
a(S'the'
p1070
S'the'
p1071
S'DT'
p1072
S'B-NP'
p1073
g5
tp1074
a(S'number'
p1075
S'number'
p1076
S'NN'
p1077
S'I-NP'
p1078
g5
tp1079
a(S'of'
p1080
S'of'
p1081
S'IN'
p1082
S'B-PP'
p1083
g5
tp1084
a(S'sites'
p1085
S'site'
p1086
S'NNS'
p1087
S'B-NP'
p1088
g5
tp1089
a(S'that'
p1090
S'that'
p1091
S'WDT'
p1092
S'B-NP'
p1093
g5
tp1094
a(S'totally'
p1095
S'totally'
p1096
S'RB'
p1097
S'B-ADVP'
p1098
g5
tp1099
a(S'disappeared'
p1100
S'disappear'
p1101
S'VBD'
p1102
S'B-VP'
p1103
g5
tp1104
a(S'after'
p1105
S'after'
p1106
S'IN'
p1107
S'B-PP'
p1108
g5
tp1109
a(S'12'
p1110
S'12'
p1111
S'CD'
p1112
S'B-NP'
p1113
g5
tp1114
a(S'months'
p1115
S'month'
p1116
S'NNS'
p1117
S'I-NP'
p1118
g5
tp1119
a(S'in'
p1120
S'in'
p1121
S'IN'
p1122
S'B-PP'
p1123
g5
tp1124
a(S'favour'
p1125
S'favour'
p1126
S'NN'
p1127
S'B-NP'
p1128
g5
tp1129
a(S'of'
p1130
S'of'
p1131
S'IN'
p1132
S'B-PP'
p1133
g5
tp1134
a(S'the'
p1135
S'the'
p1136
S'DT'
p1137
S'B-NP'
p1138
g5
tp1139
a(S'CPP-ACP'
p1140
S'CPP-ACP'
p1141
S'NN'
p1142
S'I-NP'
p1143
g5
tp1144
a(S'regime'
p1145
S'regime'
p1146
S'NN'
p1147
S'I-NP'
p1148
g5
tp1149
a(g449
g449
g449
g5
g5
tp1150
a(S'63'
p1151
S'63'
p1152
S'CD'
p1153
S'B-NP'
p1154
g5
tp1155
a(g767
g767
S'NN'
p1156
S'I-NP'
p1157
g5
tp1158
a(S'compared'
p1159
S'compare'
p1160
S'VBN'
p1161
S'B-PP'
p1162
g5
tp1163
a(S'with'
p1164
S'with'
p1165
S'IN'
p1166
S'B-PP'
p1167
g5
tp1168
a(S'25'
p1169
S'25'
p1170
S'CD'
p1171
S'B-NP'
p1172
g5
tp1173
a(g767
g767
S'NN'
p1174
S'I-NP'
p1175
g5
tp1176
a(S'respectively.'
p1177
S'respectively.'
p1178
S'NN'
p1179
S'I-NP'
p1180
g5
tp1181
a(S'The'
p1182
S'The'
p1183
S'DT'
p1184
S'B-NP'
p1185
g5
tp1186
a(S'clinical'
p1187
S'clinical'
p1188
S'JJ'
p1189
S'I-NP'
p1190
g5
tp1191
a(S'registrations'
p1192
S'registration'
p1193
S'NNS'
p1194
S'I-NP'
p1195
g5
tp1196
a(S'were'
p1197
S'be'
p1198
S'VBD'
p1199
S'B-VP'
p1200
g5
tp1201
a(S'mirrored'
p1202
S'mirror'
p1203
S'VBN'
p1204
S'I-VP'
p1205
g5
tp1206
a(S'by'
p1207
S'by'
p1208
S'IN'
p1209
S'B-PP'
p1210
g5
tp1211
a(g12
g12
S'DT'
p1212
S'B-NP'
p1213
g5
tp1214
a(S'statistically'
p1215
S'statistically'
p1216
S'RB'
p1217
S'I-NP'
p1218
g5
tp1219
a(S'significant'
p1220
S'significant'
p1221
S'JJ'
p1222
S'I-NP'
p1223
g5
tp1224
a(S'decrease'
p1225
S'decrease'
p1226
S'NN'
p1227
S'I-NP'
p1228
g5
tp1229
a(g190
g190
g190
g5
g5
tp1230
a(g1051
g1051
S'NN'
p1231
S'B-NP'
p1232
g5
tp1233
a(g1055
g1055
S'SYM'
p1234
g5
g5
tp1235
a(S'0.05'
p1236
S'0.05'
p1237
S'CD'
p1238
S'B-NP'
p1239
g5
tp1240
a(g198
g198
g198
g5
g5
tp1241
a(S'in'
p1242
S'in'
p1243
S'IN'
p1244
S'B-PP'
p1245
g5
tp1246
a(S'the'
p1247
S'the'
p1248
S'DT'
p1249
S'B-NP'
p1250
g5
tp1251
a(S'LF'
p1252
S'LF'
p1253
S'NN'
p1254
S'I-NP'
p1255
g5
tp1256
a(S'readings'
p1257
S'reading'
p1258
S'NNS'
p1259
S'I-NP'
p1260
g5
tp1261
a(S'at'
p1262
S'at'
p1263
S'IN'
p1264
S'B-PP'
p1265
g5
tp1266
a(S'the'
p1267
S'the'
p1268
S'DT'
p1269
S'B-NP'
p1270
g5
tp1271
a(S'6-'
p1272
S'6-'
p1273
S'CD'
p1274
S'I-NP'
p1275
g5
tp1276
a(S'and'
p1277
S'and'
p1278
S'CC'
p1279
g5
g5
tp1280
a(S'12-month'
p1281
S'12-month'
p1282
S'JJ'
p1283
S'B-NP'
p1284
g5
tp1285
a(S'follow-ups'
p1286
S'follow-up'
p1287
S'NNS'
p1288
S'I-NP'
p1289
g5
tp1290
a(S'compared'
p1291
S'compare'
p1292
S'VBN'
p1293
S'B-PP'
p1294
g5
tp1295
a(S'with'
p1296
S'with'
p1297
S'IN'
p1298
S'B-PP'
p1299
g5
tp1300
a(S'baseline.'
p1301
S'baseline.'
p1302
S'NN'
p1303
S'B-NP'
p1304
g5
tp1305
a(S'No'
p1306
S'No'
p1307
S'DT'
p1308
S'B-NP'
p1309
g5
tp1310
a(S'significant'
p1311
S'significant'
p1312
S'JJ'
p1313
S'I-NP'
p1314
g5
tp1315
a(S'differences'
p1316
S'difference'
p1317
S'NNS'
p1318
S'I-NP'
p1319
g5
tp1320
a(S'were'
p1321
S'be'
p1322
S'VBD'
p1323
S'B-VP'
p1324
g5
tp1325
a(S'displayed'
p1326
S'display'
p1327
S'VBN'
p1328
S'I-VP'
p1329
g5
tp1330
a(S'between'
p1331
S'between'
p1332
S'IN'
p1333
S'B-PP'
p1334
g5
tp1335
a(S'the'
p1336
S'the'
p1337
S'DT'
p1338
S'B-NP'
p1339
g5
tp1340
a(S'groups'
p1341
S'group'
p1342
S'NNS'
p1343
S'I-NP'
p1344
g5
tp1345
a(g100
g100
g100
g5
g5
tp1346
a(S'CONCLUSIONS'
p1347
S'CONCLUSIONS'
p1348
S'NNS'
p1349
S'B-NP'
p1350
g5
tp1351
a(S'Clinical'
p1352
S'Clinical'
p1353
S'JJ'
p1354
S'I-NP'
p1355
g5
tp1356
a(S'scoring'
p1357
S'scoring'
p1358
S'NN'
p1359
S'I-NP'
p1360
g5
tp1361
a(S'and'
p1362
S'and'
p1363
S'CC'
p1364
S'I-NP'
p1365
g5
tp1366
a(S'LF'
p1367
S'LF'
p1368
S'NN'
p1369
S'I-NP'
p1370
g5
tp1371
a(S'assessment'
p1372
S'assessment'
p1373
S'NN'
p1374
S'I-NP'
p1375
g5
tp1376
a(S'suggested'
p1377
S'suggest'
p1378
S'VBD'
p1379
S'B-VP'
p1380
g5
tp1381
a(S'that'
p1382
S'that'
p1383
S'IN'
p1384
S'B-SBAR'
p1385
g5
tp1386
a(S'both'
p1387
S'both'
p1388
S'DT'
p1389
S'B-NP'
p1390
g5
tp1391
a(S'regimens'
p1392
S'regimen'
p1393
S'NNS'
p1394
S'I-NP'
p1395
g5
tp1396
a(S'could'
p1397
S'could'
p1398
S'MD'
p1399
S'B-VP'
p1400
g5
tp1401
a(S'promote'
p1402
S'promote'
p1403
S'VB'
p1404
S'I-VP'
p1405
g5
tp1406
a(S'regression'
p1407
S'regression'
p1408
S'NN'
p1409
S'B-NP'
p1410
g5
tp1411
a(S'of'
p1412
S'of'
p1413
S'IN'
p1414
S'B-PP'
p1415
g5
tp1416
a(S'WSL'
p1417
S'WSL'
p1418
S'NN'
p1419
S'B-NP'
p1420
S'B-protein'
p1421
tp1422
a(S'after'
p1423
S'after'
p1424
S'IN'
p1425
S'B-PP'
p1426
g5
tp1427
a(S'debonding'
p1428
S'debonding'
p1429
S'NN'
p1430
S'B-NP'
p1431
g5
tp1432
a(S'of'
p1433
S'of'
p1434
S'IN'
p1435
S'B-PP'
p1436
g5
tp1437
a(S'fixed'
p1438
S'fix'
p1439
S'VBN'
p1440
S'B-NP'
p1441
g5
tp1442
a(S'orthodontic'
p1443
S'orthodontic'
p1444
S'JJ'
p1445
S'I-NP'
p1446
g5
tp1447
a(S'appliances.'
p1448
S'appliances.'
p1449
S'NN'
p1450
S'I-NP'
p1451
g5
tp1452
a(S'The'
p1453
S'The'
p1454
S'DT'
p1455
S'B-NP'
p1456
g5
tp1457
a(S'visual'
p1458
S'visual'
p1459
S'JJ'
p1460
S'I-NP'
p1461
g5
tp1462
a(S'evaluation'
p1463
S'evaluation'
p1464
S'NN'
p1465
S'I-NP'
p1466
g5
tp1467
a(S'suggested'
p1468
S'suggest'
p1469
S'VBD'
p1470
S'B-VP'
p1471
g5
tp1472
a(S'an'
p1473
S'an'
p1474
S'DT'
p1475
S'B-NP'
p1476
g5
tp1477
a(S'aesthetically'
p1478
S'aesthetically'
p1479
S'RB'
p1480
S'I-NP'
p1481
g5
tp1482
a(S'more'
p1483
S'more'
p1484
S'RBR'
p1485
S'I-NP'
p1486
g5
tp1487
a(S'favourable'
p1488
S'favourable'
p1489
S'JJ'
p1490
S'I-NP'
p1491
g5
tp1492
a(S'outcome'
p1493
S'outcome'
p1494
S'NN'
p1495
S'I-NP'
p1496
g5
tp1497
a(S'of'
p1498
S'of'
p1499
S'IN'
p1500
S'B-PP'
p1501
g5
tp1502
a(S'the'
p1503
S'the'
p1504
S'DT'
p1505
S'B-NP'
p1506
g5
tp1507
a(S'amorphous'
p1508
S'amorphous'
p1509
S'JJ'
p1510
S'I-NP'
p1511
g5
tp1512
a(S'calcium'
p1513
S'calcium'
p1514
S'NN'
p1515
S'I-NP'
p1516
g5
tp1517
a(S'phosphate'
p1518
S'phosphate'
p1519
S'NN'
p1520
S'I-NP'
p1521
g5
tp1522
a(S'treatments'
p1523
S'treatment'
p1524
S'NNS'
p1525
S'I-NP'
p1526
g5
tp1527
a(g100
g100
g100
g5
g5
tp1528
a.