(lp0
(S'Combination'
p1
S'Combination'
p2
S'NN'
p3
S'B-NP'
p4
S'O'
p5
tp6
a(S'of'
p7
S'of'
p8
S'IN'
p9
S'B-PP'
p10
g5
tp11
a(S'sotalol'
p12
S'sotalol'
p13
S'NN'
p14
S'B-NP'
p15
g5
tp16
a(S'and'
p17
S'and'
p18
S'CC'
p19
S'I-NP'
p20
g5
tp21
a(S'magnesium'
p22
S'magnesium'
p23
S'NN'
p24
S'I-NP'
p25
g5
tp26
a(S'prevents'
p27
S'prevent'
p28
S'VBZ'
p29
S'B-VP'
p30
g5
tp31
a(S'atrial'
p32
S'atrial'
p33
S'JJ'
p34
S'B-NP'
p35
g5
tp36
a(S'fibrillation'
p37
S'fibrillation'
p38
S'NN'
p39
S'I-NP'
p40
g5
tp41
a(S'after'
p42
S'after'
p43
S'IN'
p44
S'B-PP'
p45
g5
tp46
a(S'coronary'
p47
S'coronary'
p48
S'JJ'
p49
S'B-NP'
p50
g5
tp51
a(S'artery'
p52
S'artery'
p53
S'NN'
p54
S'I-NP'
p55
g5
tp56
a(S'bypass'
p57
S'bypass'
p58
S'IN'
p59
S'B-PP'
p60
g5
tp61
a(S'grafting'
p62
S'grafting'
p63
S'NN'
p64
S'B-NP'
p65
g5
tp66
a(S'.'
p67
g67
g67
g5
g5
tp68
a(S'BACKGROUND'
p69
S'BACKGROUND'
p70
S'NN'
p71
S'B-NP'
p72
g5
tp73
a(S'Atrial'
p74
S'Atrial'
p75
S'JJ'
p76
S'I-NP'
p77
g5
tp78
a(S'fibrillation'
p79
S'fibrillation'
p80
S'NN'
p81
S'I-NP'
p82
g5
tp83
a(S'('
p84
g84
g84
g5
g5
tp85
a(S'AF'
p86
S'AF'
p87
S'NN'
p88
S'B-NP'
p89
g5
tp90
a(S')'
p91
g91
g91
g5
g5
tp92
a(S'is'
p93
S'be'
p94
S'VBZ'
p95
S'B-VP'
p96
g5
tp97
a(S'a'
p98
g98
S'DT'
p99
S'B-NP'
p100
g5
tp101
a(S'common'
p102
S'common'
p103
S'JJ'
p104
S'I-NP'
p105
g5
tp106
a(S'complication'
p107
S'complication'
p108
S'NN'
p109
S'I-NP'
p110
g5
tp111
a(S'reported'
p112
S'report'
p113
S'VBN'
p114
S'B-VP'
p115
g5
tp116
a(S'in'
p117
S'in'
p118
S'IN'
p119
S'B-PP'
p120
g5
tp121
a(S'20'
p122
S'20'
p123
S'CD'
p124
S'B-NP'
p125
g5
tp126
a(S'%'
p127
g127
S'NN'
p128
S'I-NP'
p129
g5
tp130
a(S'to'
p131
S'to'
p132
S'TO'
p133
S'I-NP'
p134
g5
tp135
a(S'40'
p136
S'40'
p137
S'CD'
p138
S'I-NP'
p139
g5
tp140
a(g127
g127
S'NN'
p141
S'I-NP'
p142
g5
tp143
a(S'of'
p144
S'of'
p145
S'IN'
p146
S'B-PP'
p147
g5
tp148
a(S'patients'
p149
S'patient'
p150
S'NNS'
p151
S'B-NP'
p152
g5
tp153
a(S'after'
p154
S'after'
p155
S'IN'
p156
S'B-PP'
p157
g5
tp158
a(S'coronary'
p159
S'coronary'
p160
S'JJ'
p161
S'B-NP'
p162
g5
tp163
a(S'operations.'
p164
S'operations.'
p165
S'NN'
p166
S'I-NP'
p167
g5
tp168
a(S'Sotalol'
p169
S'Sotalol'
p170
S'NN'
p171
S'I-NP'
p172
g5
tp173
a(S'alone'
p174
S'alone'
p175
S'RB'
p176
S'B-ADVP'
p177
g5
tp178
a(S'and'
p179
S'and'
p180
S'CC'
p181
g5
g5
tp182
a(S'magnesium'
p183
S'magnesium'
p184
S'NN'
p185
S'B-NP'
p186
g5
tp187
a(S'alone'
p188
S'alone'
p189
S'RB'
p190
S'B-ADVP'
p191
g5
tp192
a(S'have'
p193
S'have'
p194
S'VBP'
p195
S'B-VP'
p196
g5
tp197
a(S'been'
p198
S'be'
p199
S'VBN'
p200
S'I-VP'
p201
g5
tp202
a(S'shown'
p203
S'show'
p204
S'VBN'
p205
S'I-VP'
p206
g5
tp207
a(S'to'
p208
S'to'
p209
S'TO'
p210
S'I-VP'
p211
g5
tp212
a(S'partially'
p213
S'partially'
p214
S'RB'
p215
S'I-VP'
p216
g5
tp217
a(S'decrease'
p218
S'decrease'
p219
S'VB'
p220
S'I-VP'
p221
g5
tp222
a(S'the'
p223
S'the'
p224
S'DT'
p225
S'B-NP'
p226
g5
tp227
a(S'incidence'
p228
S'incidence'
p229
S'NN'
p230
S'I-NP'
p231
g5
tp232
a(S'of'
p233
S'of'
p234
S'IN'
p235
S'B-PP'
p236
g5
tp237
a(S'AF.'
p238
S'AF.'
p239
S'NNP'
p240
S'B-NP'
p241
g5
tp242
a(S'The'
p243
S'The'
p244
S'DT'
p245
S'B-NP'
p246
g5
tp247
a(S'goal'
p248
S'goal'
p249
S'NN'
p250
S'I-NP'
p251
g5
tp252
a(S'of'
p253
S'of'
p254
S'IN'
p255
S'B-PP'
p256
g5
tp257
a(S'this'
p258
S'this'
p259
S'DT'
p260
S'B-NP'
p261
g5
tp262
a(S'study'
p263
S'study'
p264
S'NN'
p265
S'I-NP'
p266
g5
tp267
a(S'was'
p268
S'be'
p269
S'VBD'
p270
S'B-VP'
p271
g5
tp272
a(S'to'
p273
S'to'
p274
S'TO'
p275
S'B-VP'
p276
g5
tp277
a(S'evaluate'
p278
S'evaluate'
p279
S'VB'
p280
S'I-VP'
p281
g5
tp282
a(S'the'
p283
S'the'
p284
S'DT'
p285
S'B-NP'
p286
g5
tp287
a(S'efficacy'
p288
S'efficacy'
p289
S'NN'
p290
S'I-NP'
p291
g5
tp292
a(S'of'
p293
S'of'
p294
S'IN'
p295
S'B-PP'
p296
g5
tp297
a(S'these'
p298
S'these'
p299
S'DT'
p300
S'B-NP'
p301
g5
tp302
a(S'two'
p303
S'two'
p304
S'CD'
p305
S'I-NP'
p306
g5
tp307
a(S'pharmacological'
p308
S'pharmacological'
p309
S'JJ'
p310
S'I-NP'
p311
g5
tp312
a(S'agents'
p313
S'agent'
p314
S'NNS'
p315
S'I-NP'
p316
g5
tp317
a(S','
p318
g318
g318
g5
g5
tp319
a(S'used'
p320
S'use'
p321
S'VBN'
p322
S'B-VP'
p323
g5
tp324
a(S'alone'
p325
S'alone'
p326
S'RB'
p327
S'B-ADVP'
p328
g5
tp329
a(S'or'
p330
S'or'
p331
S'CC'
p332
g5
g5
tp333
a(S'in'
p334
S'in'
p335
S'IN'
p336
S'B-PP'
p337
g5
tp338
a(S'combination'
p339
S'combination'
p340
S'NN'
p341
S'B-NP'
p342
g5
tp343
a(g318
g318
g318
g5
g5
tp344
a(S'to'
p345
S'to'
p346
S'TO'
p347
S'B-VP'
p348
g5
tp349
a(S'reduce'
p350
S'reduce'
p351
S'VB'
p352
S'I-VP'
p353
g5
tp354
a(S'postoperative'
p355
S'postoperative'
p356
S'JJ'
p357
S'B-NP'
p358
g5
tp359
a(S'AF'
p360
S'AF'
p361
S'NN'
p362
S'I-NP'
p363
g5
tp364
a(g67
g67
g67
g5
g5
tp365
a(S'METHODS'
p366
S'METHODS'
p367
S'NNS'
p368
S'B-NP'
p369
g5
tp370
a(S'Two'
p371
S'Two'
p372
S'CD'
p373
S'B-NP'
p374
g5
tp375
a(S'hundred'
p376
S'hundred'
p377
S'CD'
p378
S'I-NP'
p379
g5
tp380
a(S'seven'
p381
S'seven'
p382
S'CD'
p383
S'I-NP'
p384
g5
tp385
a(S'consecutive'
p386
S'consecutive'
p387
S'JJ'
p388
S'I-NP'
p389
g5
tp390
a(S'coronary'
p391
S'coronary'
p392
S'JJ'
p393
S'I-NP'
p394
g5
tp395
a(S'artery'
p396
S'artery'
p397
S'NN'
p398
S'I-NP'
p399
g5
tp400
a(S'bypass'
p401
S'bypass'
p402
S'NN'
p403
S'I-NP'
p404
g5
tp405
a(S'patients'
p406
S'patient'
p407
S'NNS'
p408
S'I-NP'
p409
g5
tp410
a(g84
g84
g84
g5
g5
tp411
a(S'mean'
p412
S'mean'
p413
S'JJ'
p414
S'B-NP'
p415
g5
tp416
a(S'age'
p417
S'age'
p418
S'NN'
p419
S'I-NP'
p420
g5
tp421
a(S'62'
p422
S'62'
p423
S'CD'
p424
S'B-NP'
p425
g5
tp426
a(S'+/-'
p427
S'+/-'
p428
S'CC'
p429
S'I-NP'
p430
g5
tp431
a(S'11'
p432
S'11'
p433
S'CD'
p434
S'I-NP'
p435
g5
tp436
a(S'years'
p437
S'year'
p438
S'NNS'
p439
S'I-NP'
p440
g5
tp441
a(g91
g91
g91
g5
g5
tp442
a(S'were'
p443
S'be'
p444
S'VBD'
p445
S'B-VP'
p446
g5
tp447
a(S'randomized'
p448
S'randomize'
p449
S'VBN'
p450
S'I-VP'
p451
g5
tp452
a(S'to'
p453
S'to'
p454
S'TO'
p455
S'I-VP'
p456
g5
tp457
a(S'receive'
p458
S'receive'
p459
S'VB'
p460
S'I-VP'
p461
g5
tp462
a(S'sotalol'
p463
S'sotalol'
p464
S'NN'
p465
S'B-NP'
p466
g5
tp467
a(S'alone'
p468
S'alone'
p469
S'RB'
p470
S'B-ADVP'
p471
g5
tp472
a(g84
g84
g84
g5
g5
tp473
a(S'80'
p474
S'80'
p475
S'CD'
p476
S'B-NP'
p477
g5
tp478
a(S'mg'
p479
S'mg'
p480
S'NN'
p481
S'I-NP'
p482
g5
tp483
a(S'twice'
p484
S'twice'
p485
S'RB'
p486
S'B-ADVP'
p487
g5
tp488
a(S'daily'
p489
S'daily'
p490
S'RB'
p491
S'I-ADVP'
p492
g5
tp493
a(S'for'
p494
S'for'
p495
S'IN'
p496
S'B-PP'
p497
g5
tp498
a(S'5'
p499
g499
S'CD'
p500
S'B-NP'
p501
g5
tp502
a(S'days'
p503
S'day'
p504
S'NNS'
p505
S'I-NP'
p506
g5
tp507
a(S'starting'
p508
S'start'
p509
S'VBG'
p510
S'B-VP'
p511
g5
tp512
a(S'from'
p513
S'from'
p514
S'IN'
p515
S'B-PP'
p516
g5
tp517
a(S'the'
p518
S'the'
p519
S'DT'
p520
S'B-NP'
p521
g5
tp522
a(S'morning'
p523
S'morning'
p524
S'NN'
p525
S'I-NP'
p526
g5
tp527
a(S'of'
p528
S'of'
p529
S'IN'
p530
S'B-PP'
p531
g5
tp532
a(S'the'
p533
S'the'
p534
S'DT'
p535
S'B-NP'
p536
g5
tp537
a(S'first'
p538
S'first'
p539
S'JJ'
p540
S'I-NP'
p541
g5
tp542
a(S'postoperative'
p543
S'postoperative'
p544
S'JJ'
p545
S'I-NP'
p546
g5
tp547
a(S'day'
p548
S'day'
p549
S'NN'
p550
S'I-NP'
p551
g5
tp552
a(g91
g91
g91
g5
g5
tp553
a(g84
g84
g84
g5
g5
tp554
a(S'group'
p555
S'group'
p556
S'NN'
p557
S'B-NP'
p558
g5
tp559
a(S'S'
p560
g560
S'NN'
p561
S'I-NP'
p562
g5
tp563
a(g91
g91
g91
g5
g5
tp564
a(g318
g318
g318
g5
g5
tp565
a(S'magnesium'
p566
S'magnesium'
p567
S'NN'
p568
S'B-NP'
p569
g5
tp570
a(S'alone'
p571
S'alone'
p572
S'RB'
p573
S'B-ADVP'
p574
g5
tp575
a(g84
g84
g84
g5
g5
tp576
a(S'1.5'
p577
S'1.5'
p578
S'CD'
p579
S'B-NP'
p580
g5
tp581
a(S'g'
p582
g582
S'NN'
p583
S'I-NP'
p584
g5
tp585
a(S'daily'
p586
S'daily'
p587
S'RB'
p588
S'B-ADVP'
p589
g5
tp590
a(S'for'
p591
S'for'
p592
S'IN'
p593
S'B-PP'
p594
g5
tp595
a(S'6'
p596
g596
S'CD'
p597
S'B-NP'
p598
g5
tp599
a(S'days'
p600
S'day'
p601
S'NNS'
p602
S'I-NP'
p603
g5
tp604
a(S'starting'
p605
S'start'
p606
S'VBG'
p607
S'B-VP'
p608
g5
tp609
a(S'in'
p610
S'in'
p611
S'IN'
p612
S'B-PP'
p613
g5
tp614
a(S'the'
p615
S'the'
p616
S'DT'
p617
S'B-NP'
p618
g5
tp619
a(S'operating'
p620
S'operating'
p621
S'NN'
p622
S'I-NP'
p623
g5
tp624
a(S'room'
p625
S'room'
p626
S'NN'
p627
S'I-NP'
p628
g5
tp629
a(S'just'
p630
S'just'
p631
S'RB'
p632
S'B-ADVP'
p633
g5
tp634
a(S'before'
p635
S'before'
p636
S'IN'
p637
S'B-PP'
p638
g5
tp639
a(S'cardiopulmonary'
p640
S'cardiopulmonary'
p641
S'JJ'
p642
S'B-NP'
p643
g5
tp644
a(S'bypass'
p645
S'bypass'
p646
S'NN'
p647
S'I-NP'
p648
g5
tp649
a(g91
g91
g91
g5
g5
tp650
a(g84
g84
g84
g5
g5
tp651
a(S'group'
p652
S'group'
p653
S'NN'
p654
S'B-NP'
p655
g5
tp656
a(S'M'
p657
g657
S'NN'
p658
S'I-NP'
p659
g5
tp660
a(g91
g91
g91
g5
g5
tp661
a(g318
g318
g318
g5
g5
tp662
a(S'both'
p663
S'both'
p664
S'DT'
p665
S'B-NP'
p666
g5
tp667
a(S'pharmacologic'
p668
S'pharmacologic'
p669
S'JJ'
p670
S'I-NP'
p671
g5
tp672
a(S'agents'
p673
S'agent'
p674
S'NNS'
p675
S'I-NP'
p676
g5
tp677
a(S'at'
p678
S'at'
p679
S'IN'
p680
S'B-PP'
p681
g5
tp682
a(S'the'
p683
S'the'
p684
S'DT'
p685
S'B-NP'
p686
g5
tp687
a(S'same'
p688
S'same'
p689
S'JJ'
p690
S'I-NP'
p691
g5
tp692
a(S'dosages'
p693
S'dosage'
p694
S'NNS'
p695
S'I-NP'
p696
g5
tp697
a(g84
g84
g84
g5
g5
tp698
a(S'group'
p699
S'group'
p700
S'NN'
p701
S'B-NP'
p702
g5
tp703
a(S'S+M'
p704
S'S+M'
p705
S'NN'
p706
S'I-NP'
p707
g5
tp708
a(g91
g91
g91
g5
g5
tp709
a(g318
g318
g318
g5
g5
tp710
a(S'or'
p711
S'or'
p712
S'CC'
p713
g5
g5
tp714
a(S'no'
p715
S'no'
p716
S'DT'
p717
S'B-NP'
p718
g5
tp719
a(S'antiarrhythmic'
p720
S'antiarrhythmic'
p721
S'JJ'
p722
S'I-NP'
p723
g5
tp724
a(S'agents'
p725
S'agent'
p726
S'NNS'
p727
S'I-NP'
p728
g5
tp729
a(g84
g84
g84
g5
g5
tp730
a(S'group'
p731
S'group'
p732
S'NN'
p733
S'B-NP'
p734
g5
tp735
a(S'CTR'
p736
S'CTR'
p737
S'NN'
p738
S'I-NP'
p739
g5
tp740
a(g91
g91
g91
g5
g5
tp741
a(g67
g67
g67
g5
g5
tp742
a(S'All'
p743
S'All'
p744
S'DT'
p745
S'B-NP'
p746
g5
tp747
a(S'patients'
p748
S'patient'
p749
S'NNS'
p750
S'I-NP'
p751
g5
tp752
a(S'with'
p753
S'with'
p754
S'IN'
p755
S'B-PP'
p756
g5
tp757
a(S'an'
p758
S'an'
p759
S'DT'
p760
S'B-NP'
p761
g5
tp762
a(S'ejection'
p763
S'ejection'
p764
S'NN'
p765
S'I-NP'
p766
g5
tp767
a(S'fraction'
p768
S'fraction'
p769
S'NN'
p770
S'I-NP'
p771
g5
tp772
a(S'less'
p773
S'less'
p774
S'JJR'
p775
S'B-NP'
p776
g5
tp777
a(S'than'
p778
S'than'
p779
S'IN'
p780
S'I-NP'
p781
g5
tp782
a(S'0.40'
p783
S'0.40'
p784
S'CD'
p785
S'I-NP'
p786
g5
tp787
a(S'were'
p788
S'be'
p789
S'VBD'
p790
S'B-VP'
p791
g5
tp792
a(S'excluded'
p793
S'exclude'
p794
S'VBN'
p795
S'I-VP'
p796
g5
tp797
a(g67
g67
g67
g5
g5
tp798
a(S'RESULTS'
p799
S'RESULTS'
p800
S'NNS'
p801
S'B-NP'
p802
g5
tp803
a(S'The'
p804
S'The'
p805
S'DT'
p806
S'B-NP'
p807
g5
tp808
a(S'incidence'
p809
S'incidence'
p810
S'NN'
p811
S'I-NP'
p812
g5
tp813
a(S'of'
p814
S'of'
p815
S'IN'
p816
S'B-PP'
p817
g5
tp818
a(S'postoperative'
p819
S'postoperative'
p820
S'JJ'
p821
S'B-NP'
p822
S'B-protein'
p823
tp824
a(S'AF'
p825
S'AF'
p826
S'NN'
p827
S'I-NP'
p828
S'I-protein'
p829
tp830
a(S'was'
p831
S'be'
p832
S'VBD'
p833
S'B-VP'
p834
g5
tp835
a(S'11.8'
p836
S'11.8'
p837
S'CD'
p838
S'B-NP'
p839
g5
tp840
a(g127
g127
S'NN'
p841
S'I-NP'
p842
g5
tp843
a(g84
g84
g84
g5
g5
tp844
a(S'6/51'
p845
S'6/51'
p846
S'CD'
p847
S'B-NP'
p848
g5
tp849
a(g91
g91
g91
g5
g5
tp850
a(S'in'
p851
S'in'
p852
S'IN'
p853
S'B-PP'
p854
g5
tp855
a(S'the'
p856
S'the'
p857
S'DT'
p858
S'B-NP'
p859
g5
tp860
a(g560
g560
S'NN'
p861
S'I-NP'
p862
g5
tp863
a(S'group'
p864
S'group'
p865
S'NN'
p866
S'I-NP'
p867
g5
tp868
a(g318
g318
g318
g5
g5
tp869
a(S'14.8'
p870
S'14.8'
p871
S'CD'
p872
S'B-NP'
p873
g5
tp874
a(g127
g127
S'NN'
p875
S'I-NP'
p876
g5
tp877
a(g84
g84
g84
g5
g5
tp878
a(S'8/54'
p879
S'8/54'
p880
S'CD'
p881
S'B-NP'
p882
g5
tp883
a(g91
g91
g91
g5
g5
tp884
a(S'in'
p885
S'in'
p886
S'IN'
p887
S'B-PP'
p888
g5
tp889
a(S'the'
p890
S'the'
p891
S'DT'
p892
S'B-NP'
p893
g5
tp894
a(g657
g657
S'NN'
p895
S'I-NP'
p896
g5
tp897
a(S'group'
p898
S'group'
p899
S'NN'
p900
S'I-NP'
p901
g5
tp902
a(g318
g318
g318
g5
g5
tp903
a(S'1.9'
p904
S'1.9'
p905
S'CD'
p906
S'B-NP'
p907
g5
tp908
a(g127
g127
S'NN'
p909
S'I-NP'
p910
g5
tp911
a(g84
g84
g84
g5
g5
tp912
a(S'1/52'
p913
S'1/52'
p914
S'CD'
p915
S'B-NP'
p916
g5
tp917
a(g91
g91
g91
g5
g5
tp918
a(S'in'
p919
S'in'
p920
S'IN'
p921
S'B-PP'
p922
g5
tp923
a(S'the'
p924
S'the'
p925
S'DT'
p926
S'B-NP'
p927
g5
tp928
a(S'S+M'
p929
S'S+M'
p930
S'NN'
p931
S'I-NP'
p932
g5
tp933
a(S'group'
p934
S'group'
p935
S'NN'
p936
S'I-NP'
p937
g5
tp938
a(g318
g318
g318
g5
g5
tp939
a(S'and'
p940
S'and'
p941
S'CC'
p942
g5
g5
tp943
a(S'38'
p944
S'38'
p945
S'CD'
p946
S'B-NP'
p947
g5
tp948
a(g127
g127
S'NN'
p949
S'I-NP'
p950
g5
tp951
a(g84
g84
g84
g5
g5
tp952
a(S'19/50'
p953
S'19/50'
p954
S'CD'
p955
S'B-NP'
p956
g5
tp957
a(g91
g91
g91
g5
g5
tp958
a(S'in'
p959
S'in'
p960
S'IN'
p961
S'B-PP'
p962
g5
tp963
a(S'the'
p964
S'the'
p965
S'DT'
p966
S'B-NP'
p967
g5
tp968
a(S'CTR'
p969
S'CTR'
p970
S'NN'
p971
S'I-NP'
p972
g5
tp973
a(S'group.'
p974
S'group.'
p975
S'NN'
p976
S'I-NP'
p977
g5
tp978
a(S'The'
p979
S'The'
p980
S'DT'
p981
S'B-NP'
p982
g5
tp983
a(S'following'
p984
S'follow'
p985
S'VBG'
p986
S'I-NP'
p987
g5
tp988
a(S'differences'
p989
S'difference'
p990
S'NNS'
p991
S'I-NP'
p992
g5
tp993
a(S'were'
p994
S'be'
p995
S'VBD'
p996
S'B-VP'
p997
g5
tp998
a(S'significant'
p999
S'significant'
p1000
S'JJ'
p1001
S'B-ADJP'
p1002
g5
tp1003
a(S':'
p1004
g1004
g1004
g5
g5
tp1005
a(S'group'
p1006
S'group'
p1007
S'NN'
p1008
S'B-NP'
p1009
g5
tp1010
a(S'CTR'
p1011
S'CTR'
p1012
S'NN'
p1013
S'I-NP'
p1014
g5
tp1015
a(S'versus'
p1016
S'versus'
p1017
S'IN'
p1018
S'B-PP'
p1019
g5
tp1020
a(S'groups'
p1021
S'group'
p1022
S'NNS'
p1023
S'B-NP'
p1024
g5
tp1025
a(g560
g560
S'NN'
p1026
S'I-NP'
p1027
g5
tp1028
a(g318
g318
g318
g5
g5
tp1029
a(g657
g657
S'NN'
p1030
S'B-NP'
p1031
g5
tp1032
a(g318
g318
g318
g5
g5
tp1033
a(S'and'
p1034
S'and'
p1035
S'CC'
p1036
g5
g5
tp1037
a(S'S+M'
p1038
S'S+M'
p1039
S'NN'
p1040
S'B-NP'
p1041
g5
tp1042
a(S'with'
p1043
S'with'
p1044
S'IN'
p1045
S'B-PP'
p1046
g5
tp1047
a(S'values'
p1048
S'value'
p1049
S'NNS'
p1050
S'B-NP'
p1051
g5
tp1052
a(S'of'
p1053
S'of'
p1054
S'IN'
p1055
S'B-PP'
p1056
g5
tp1057
a(S'p'
p1058
g1058
S'NN'
p1059
S'B-NP'
p1060
g5
tp1061
a(S'='
p1062
g1062
S'SYM'
p1063
S'B-VP'
p1064
g5
tp1065
a(S'0.002'
p1066
S'0.002'
p1067
S'CD'
p1068
S'B-NP'
p1069
g5
tp1070
a(g318
g318
g318
g5
g5
tp1071
a(g1058
g1058
S'NN'
p1072
S'B-NP'
p1073
g5
tp1074
a(g1062
g1062
S'SYM'
p1075
S'B-VP'
p1076
g5
tp1077
a(S'0.007'
p1078
S'0.007'
p1079
S'CD'
p1080
S'B-NP'
p1081
g5
tp1082
a(S'and'
p1083
S'and'
p1084
S'CC'
p1085
g5
g5
tp1086
a(g1058
g1058
S'NN'
p1087
S'B-NP'
p1088
g5
tp1089
a(S'<'
p1090
g1090
S'SYM'
p1091
g5
g5
tp1092
a(S'0.0001'
p1093
S'0.0001'
p1094
S'CD'
p1095
S'B-NP'
p1096
g5
tp1097
a(g318
g318
g318
g5
g5
tp1098
a(S'respectively'
p1099
S'respectively'
p1100
S'RB'
p1101
S'B-ADVP'
p1102
g5
tp1103
a(S';'
p1104
g1104
g1004
g5
g5
tp1105
a(S'and'
p1106
S'and'
p1107
S'CC'
p1108
g5
g5
tp1109
a(S'group'
p1110
S'group'
p1111
S'NN'
p1112
S'B-NP'
p1113
g5
tp1114
a(S'S+M'
p1115
S'S+M'
p1116
S'NN'
p1117
S'I-NP'
p1118
g5
tp1119
a(S'versus'
p1120
S'versus'
p1121
S'IN'
p1122
S'B-PP'
p1123
g5
tp1124
a(S'groups'
p1125
S'group'
p1126
S'NNS'
p1127
S'B-NP'
p1128
g5
tp1129
a(g560
g560
S'NN'
p1130
S'I-NP'
p1131
g5
tp1132
a(S'and'
p1133
S'and'
p1134
S'CC'
p1135
S'I-NP'
p1136
g5
tp1137
a(g657
g657
S'NN'
p1138
S'I-NP'
p1139
g5
tp1140
a(S'with'
p1141
S'with'
p1142
S'IN'
p1143
S'B-PP'
p1144
g5
tp1145
a(g1058
g1058
S'NN'
p1146
S'B-NP'
p1147
g5
tp1148
a(g1062
g1062
S'SYM'
p1149
S'B-VP'
p1150
g5
tp1151
a(S'0.04'
p1152
S'0.04'
p1153
S'CD'
p1154
S'B-NP'
p1155
g5
tp1156
a(S'and'
p1157
S'and'
p1158
S'CC'
p1159
g5
g5
tp1160
a(g1058
g1058
S'NN'
p1161
S'B-NP'
p1162
g5
tp1163
a(g1062
g1062
S'SYM'
p1164
S'B-VP'
p1165
g5
tp1166
a(S'0.01'
p1167
S'0.01'
p1168
S'CD'
p1169
S'B-NP'
p1170
g5
tp1171
a(g318
g318
g318
g5
g5
tp1172
a(S'respectively'
p1173
S'respectively'
p1174
S'RB'
p1175
S'B-ADVP'
p1176
g5
tp1177
a(g67
g67
g67
g5
g5
tp1178
a(S'CONCLUSIONS'
p1179
S'CONCLUSIONS'
p1180
S'NNS'
p1181
S'B-NP'
p1182
g5
tp1183
a(S'Incidence'
p1184
S'Incidence'
p1185
S'NN'
p1186
S'I-NP'
p1187
g5
tp1188
a(S'of'
p1189
S'of'
p1190
S'IN'
p1191
S'B-PP'
p1192
g5
tp1193
a(S'AF'
p1194
S'AF'
p1195
S'NN'
p1196
S'B-NP'
p1197
g5
tp1198
a(S'after'
p1199
S'after'
p1200
S'IN'
p1201
S'B-PP'
p1202
g5
tp1203
a(S'coronary'
p1204
S'coronary'
p1205
S'JJ'
p1206
S'B-NP'
p1207
g5
tp1208
a(S'operation'
p1209
S'operation'
p1210
S'NN'
p1211
S'I-NP'
p1212
g5
tp1213
a(S'was'
p1214
S'be'
p1215
S'VBD'
p1216
S'B-VP'
p1217
g5
tp1218
a(S'significantly'
p1219
S'significantly'
p1220
S'RB'
p1221
S'I-VP'
p1222
g5
tp1223
a(S'reduced'
p1224
S'reduce'
p1225
S'VBN'
p1226
S'I-VP'
p1227
g5
tp1228
a(S'by'
p1229
S'by'
p1230
S'IN'
p1231
S'B-PP'
p1232
g5
tp1233
a(S'the'
p1234
S'the'
p1235
S'DT'
p1236
S'B-NP'
p1237
g5
tp1238
a(S'administration'
p1239
S'administration'
p1240
S'NN'
p1241
S'I-NP'
p1242
g5
tp1243
a(S'of'
p1244
S'of'
p1245
S'IN'
p1246
S'B-PP'
p1247
g5
tp1248
a(S'sotalol'
p1249
S'sotalol'
p1250
S'NN'
p1251
S'B-NP'
p1252
g5
tp1253
a(S'alone'
p1254
S'alone'
p1255
S'RB'
p1256
S'B-ADVP'
p1257
g5
tp1258
a(S'and'
p1259
S'and'
p1260
S'CC'
p1261
g5
g5
tp1262
a(S'magnesium'
p1263
S'magnesium'
p1264
S'NN'
p1265
S'B-NP'
p1266
g5
tp1267
a(S'alone'
p1268
S'alone'
p1269
S'RB'
p1270
S'B-ADVP'
p1271
g5
tp1272
a(g1104
g1104
g1004
g5
g5
tp1273
a(S'more'
p1274
S'more'
p1275
S'RBR'
p1276
S'B-ADVP'
p1277
g5
tp1278
a(S'importantly'
p1279
S'importantly'
p1280
S'RB'
p1281
S'I-ADVP'
p1282
g5
tp1283
a(g318
g318
g318
g5
g5
tp1284
a(S'the'
p1285
S'the'
p1286
S'DT'
p1287
S'B-NP'
p1288
g5
tp1289
a(S'incidence'
p1290
S'incidence'
p1291
S'NN'
p1292
S'I-NP'
p1293
g5
tp1294
a(S'was'
p1295
S'be'
p1296
S'VBD'
p1297
S'B-VP'
p1298
g5
tp1299
a(S'further'
p1300
S'further'
p1301
S'RBR'
p1302
S'I-VP'
p1303
g5
tp1304
a(S'reduced'
p1305
S'reduce'
p1306
S'VBN'
p1307
S'I-VP'
p1308
g5
tp1309
a(S'by'
p1310
S'by'
p1311
S'IN'
p1312
S'B-PP'
p1313
g5
tp1314
a(S'combining'
p1315
S'combine'
p1316
S'VBG'
p1317
S'B-VP'
p1318
g5
tp1319
a(S'these'
p1320
S'these'
p1321
S'DT'
p1322
S'B-NP'
p1323
g5
tp1324
a(S'agents'
p1325
S'agent'
p1326
S'NNS'
p1327
S'I-NP'
p1328
g5
tp1329
a(g67
g67
g67
g5
g5
tp1330
a.