(lp0
(S'Comparison'
p1
S'Comparison'
p2
S'NN'
p3
S'B-NP'
p4
S'O'
p5
tp6
a(S'of'
p7
S'of'
p8
S'IN'
p9
S'B-PP'
p10
g5
tp11
a(S'fluoxetine'
p12
S'fluoxetine'
p13
S'NN'
p14
S'B-NP'
p15
g5
tp16
a(S'and'
p17
S'and'
p18
S'CC'
p19
S'I-NP'
p20
g5
tp21
a(S'placebo'
p22
S'placebo'
p23
S'NN'
p24
S'I-NP'
p25
g5
tp26
a(S'in'
p27
S'in'
p28
S'IN'
p29
S'B-PP'
p30
g5
tp31
a(S'the'
p32
S'the'
p33
S'DT'
p34
S'B-NP'
p35
g5
tp36
a(S'treatment'
p37
S'treatment'
p38
S'NN'
p39
S'I-NP'
p40
g5
tp41
a(S'of'
p42
S'of'
p43
S'IN'
p44
S'B-PP'
p45
g5
tp46
a(S'obesity'
p47
S'obesity'
p48
S'NN'
p49
S'B-NP'
p50
g5
tp51
a(S'.'
p52
g52
g52
g5
g5
tp53
a(S'Our'
p54
S'Our'
p55
S'PRP$'
p56
S'B-NP'
p57
g5
tp58
a(S'study'
p59
S'study'
p60
S'NN'
p61
S'I-NP'
p62
g5
tp63
a(S'aims'
p64
S'aim'
p65
S'VBZ'
p66
S'B-VP'
p67
g5
tp68
a(S'at'
p69
S'at'
p70
S'IN'
p71
S'B-PP'
p72
g5
tp73
a(S'assessing'
p74
S'assess'
p75
S'VBG'
p76
S'B-VP'
p77
g5
tp78
a(S'the'
p79
S'the'
p80
S'DT'
p81
S'B-NP'
p82
g5
tp83
a(S'efficacy'
p84
S'efficacy'
p85
S'NN'
p86
S'I-NP'
p87
g5
tp88
a(S'and'
p89
S'and'
p90
S'CC'
p91
S'I-NP'
p92
g5
tp93
a(S'safety'
p94
S'safety'
p95
S'NN'
p96
S'I-NP'
p97
g5
tp98
a(S'of'
p99
S'of'
p100
S'IN'
p101
S'B-PP'
p102
g5
tp103
a(S'fluoxetine'
p104
S'fluoxetine'
p105
S'NN'
p106
S'B-NP'
p107
g5
tp108
a(S'as'
p109
S'as'
p110
S'IN'
p111
S'B-PP'
p112
g5
tp113
a(S'compared'
p114
S'compare'
p115
S'VBN'
p116
S'B-PP'
p117
g5
tp118
a(S'with'
p119
S'with'
p120
S'IN'
p121
S'B-PP'
p122
g5
tp123
a(S'placebo'
p124
S'placebo'
p125
S'NN'
p126
S'B-NP'
p127
g5
tp128
a(S'in'
p129
S'in'
p130
S'IN'
p131
S'B-PP'
p132
g5
tp133
a(S'the'
p134
S'the'
p135
S'DT'
p136
S'B-NP'
p137
g5
tp138
a(S'treatment'
p139
S'treatment'
p140
S'NN'
p141
S'I-NP'
p142
g5
tp143
a(S'of'
p144
S'of'
p145
S'IN'
p146
S'B-PP'
p147
g5
tp148
a(S'obesity'
p149
S'obesity'
p150
S'NN'
p151
S'B-NP'
p152
g5
tp153
a(S'using'
p154
S'use'
p155
S'VBG'
p156
S'B-VP'
p157
g5
tp158
a(S'a'
p159
g159
S'DT'
p160
S'B-NP'
p161
g5
tp162
a(S'double-blind'
p163
S'double-blind'
p164
S'JJ'
p165
S'I-NP'
p166
g5
tp167
a(S'crossover'
p168
S'crossover'
p169
S'NN'
p170
S'I-NP'
p171
g5
tp172
a(S'design.'
p173
S'design.'
p174
S'NN'
p175
S'I-NP'
p176
g5
tp177
a(S'We'
p178
S'We'
p179
S'PRP'
p180
S'B-NP'
p181
g5
tp182
a(S'studied'
p183
S'study'
p184
S'VBD'
p185
S'B-VP'
p186
g5
tp187
a(S'42'
p188
S'42'
p189
S'CD'
p190
S'B-NP'
p191
g5
tp192
a(S'obese'
p193
S'obese'
p194
S'JJ'
p195
S'I-NP'
p196
g5
tp197
a(S'women'
p198
S'woman'
p199
S'NNS'
p200
S'I-NP'
p201
g5
tp202
a(S'('
p203
g203
g203
g5
g5
tp204
a(S'body'
p205
S'body'
p206
S'NN'
p207
S'B-NP'
p208
g5
tp209
a(S'mass'
p210
S'mass'
p211
S'NN'
p212
S'I-NP'
p213
g5
tp214
a(S'index'
p215
S'index'
p216
S'NN'
p217
S'I-NP'
p218
g5
tp219
a(S'35.9'
p220
S'35.9'
p221
S'CD'
p222
S'B-NP'
p223
g5
tp224
a(S'+/-'
p225
S'+/-'
p226
S'SYM'
p227
S'I-NP'
p228
g5
tp229
a(S'5.3'
p230
S'5.3'
p231
S'CD'
p232
S'I-NP'
p233
g5
tp234
a(S'kg/m2'
p235
S'kg/m2'
p236
S'NN'
p237
S'I-NP'
p238
g5
tp239
a(S')'
p240
g240
g240
g5
g5
tp241
a(g52
g52
g52
g5
g5
tp242
a(S'The'
p243
S'The'
p244
S'DT'
p245
S'B-NP'
p246
g5
tp247
a(S'obese'
p248
S'obese'
p249
S'JJ'
p250
S'I-NP'
p251
g5
tp252
a(S'patients'
p253
S'patient'
p254
S'NNS'
p255
S'I-NP'
p256
g5
tp257
a(S'were'
p258
S'be'
p259
S'VBD'
p260
S'B-VP'
p261
g5
tp262
a(S'randomized'
p263
S'randomize'
p264
S'VBN'
p265
S'I-VP'
p266
g5
tp267
a(S'to'
p268
S'to'
p269
S'TO'
p270
S'I-VP'
p271
g5
tp272
a(S'start'
p273
S'start'
p274
S'VB'
p275
S'I-VP'
p276
g5
tp277
a(S'treatment'
p278
S'treatment'
p279
S'NN'
p280
S'B-NP'
p281
g5
tp282
a(S'with'
p283
S'with'
p284
S'IN'
p285
S'B-PP'
p286
g5
tp287
a(S'fluoxetine'
p288
S'fluoxetine'
p289
S'NN'
p290
S'B-NP'
p291
g5
tp292
a(g203
g203
g203
g5
g5
tp293
a(S'group'
p294
S'group'
p295
S'NN'
p296
S'B-NP'
p297
g5
tp298
a(S'A'
p299
g299
S'NN'
p300
S'I-NP'
p301
g5
tp302
a(g240
g240
g240
g5
g5
tp303
a(S'or'
p304
S'or'
p305
S'CC'
p306
g5
g5
tp307
a(S'placebo'
p308
S'placebo'
p309
S'NN'
p310
S'B-NP'
p311
g5
tp312
a(g203
g203
g203
g5
g5
tp313
a(S'group'
p314
S'group'
p315
S'NN'
p316
S'B-NP'
p317
g5
tp318
a(S'B'
p319
g319
S'NN'
p320
S'I-NP'
p321
g5
tp322
a(g240
g240
g240
g5
g5
tp323
a(S'for'
p324
S'for'
p325
S'IN'
p326
S'B-PP'
p327
g5
tp328
a(S'3'
p329
g329
S'CD'
p330
S'B-NP'
p331
g5
tp332
a(S'months'
p333
S'month'
p334
S'NNS'
p335
S'I-NP'
p336
g5
tp337
a(g203
g203
g203
g5
g5
tp338
a(S'period'
p339
S'period'
p340
S'NN'
p341
S'B-NP'
p342
g5
tp343
a(S'1'
p344
g344
S'CD'
p345
S'I-NP'
p346
g5
tp347
a(g240
g240
g240
g5
g5
tp348
a(g52
g52
g52
g5
g5
tp349
a(S'After'
p350
S'After'
p351
S'IN'
p352
S'B-PP'
p353
g5
tp354
a(g159
g159
S'DT'
p355
S'B-NP'
p356
g5
tp357
a(S'1-month'
p358
S'1-month'
p359
S'JJ'
p360
S'I-NP'
p361
g5
tp362
a(S'washout'
p363
S'washout'
p364
S'NN'
p365
S'I-NP'
p366
g5
tp367
a(S'period'
p368
S'period'
p369
S'NN'
p370
S'I-NP'
p371
g5
tp372
a(S','
p373
g373
g373
g5
g5
tp374
a(S'treatment'
p375
S'treatment'
p376
S'NN'
p377
S'B-NP'
p378
g5
tp379
a(S'was'
p380
S'be'
p381
S'VBD'
p382
S'B-VP'
p383
g5
tp384
a(S'crossed'
p385
S'cross'
p386
S'VBN'
p387
S'I-VP'
p388
g5
tp389
a(S'for'
p390
S'for'
p391
S'IN'
p392
S'B-PP'
p393
g5
tp394
a(S'the'
p395
S'the'
p396
S'DT'
p397
S'B-NP'
p398
g5
tp399
a(S'following'
p400
S'follow'
p401
S'VBG'
p402
S'I-NP'
p403
g5
tp404
a(g329
g329
S'CD'
p405
S'I-NP'
p406
g5
tp407
a(S'months'
p408
S'month'
p409
S'NNS'
p410
S'I-NP'
p411
g5
tp412
a(g203
g203
g203
g5
g5
tp413
a(S'period'
p414
S'period'
p415
S'NN'
p416
S'B-NP'
p417
g5
tp418
a(S'2'
p419
g419
S'CD'
p420
S'I-NP'
p421
g5
tp422
a(g240
g240
g240
g5
g5
tp423
a(g52
g52
g52
g5
g5
tp424
a(S'There'
p425
S'There'
p426
S'EX'
p427
S'B-NP'
p428
g5
tp429
a(S'was'
p430
S'be'
p431
S'VBD'
p432
S'B-VP'
p433
g5
tp434
a(S'no'
p435
S'no'
p436
S'DT'
p437
S'B-NP'
p438
g5
tp439
a(S'significant'
p440
S'significant'
p441
S'JJ'
p442
S'I-NP'
p443
g5
tp444
a(S'difference'
p445
S'difference'
p446
S'NN'
p447
S'I-NP'
p448
g5
tp449
a(S'in'
p450
S'in'
p451
S'IN'
p452
S'B-PP'
p453
g5
tp454
a(S'weight'
p455
S'weight'
p456
S'NN'
p457
S'B-NP'
p458
g5
tp459
a(S'loss'
p460
S'loss'
p461
S'NN'
p462
S'I-NP'
p463
g5
tp464
a(S'when'
p465
S'when'
p466
S'WRB'
p467
S'B-ADVP'
p468
g5
tp469
a(S'the'
p470
S'the'
p471
S'DT'
p472
S'B-NP'
p473
g5
tp474
a(S'patients'
p475
S'patient'
p476
S'NNS'
p477
S'I-NP'
p478
g5
tp479
a(S'were'
p480
S'be'
p481
S'VBD'
p482
S'B-VP'
p483
g5
tp484
a(S'treated'
p485
S'treat'
p486
S'VBN'
p487
S'I-VP'
p488
g5
tp489
a(S'with'
p490
S'with'
p491
S'IN'
p492
S'B-PP'
p493
g5
tp494
a(S'fluoxetine'
p495
S'fluoxetine'
p496
S'NN'
p497
S'B-NP'
p498
g5
tp499
a(g203
g203
g203
g5
g5
tp500
a(S'group'
p501
S'group'
p502
S'NN'
p503
S'B-NP'
p504
g5
tp505
a(g299
g299
S'NN'
p506
S'I-NP'
p507
g5
tp508
a(S'period'
p509
S'period'
p510
S'NN'
p511
S'I-NP'
p512
g5
tp513
a(g344
g344
S'CD'
p514
S'I-NP'
p515
g5
tp516
a(S'and'
p517
S'and'
p518
S'CC'
p519
S'I-NP'
p520
g5
tp521
a(S'group'
p522
S'group'
p523
S'NN'
p524
S'I-NP'
p525
g5
tp526
a(g319
g319
S'NN'
p527
S'I-NP'
p528
g5
tp529
a(S'period'
p530
S'period'
p531
S'NN'
p532
S'I-NP'
p533
g5
tp534
a(g419
g419
S'CD'
p535
S'I-NP'
p536
g5
tp537
a(g240
g240
g240
g5
g5
tp538
a(S'as'
p539
S'as'
p540
S'IN'
p541
S'B-PP'
p542
g5
tp543
a(S'compared'
p544
S'compare'
p545
S'VBN'
p546
S'B-PP'
p547
g5
tp548
a(S'with'
p549
S'with'
p550
S'IN'
p551
S'B-PP'
p552
g5
tp553
a(S'patients'
p554
S'patient'
p555
S'NNS'
p556
S'B-NP'
p557
g5
tp558
a(S'treated'
p559
S'treat'
p560
S'VBN'
p561
S'B-VP'
p562
g5
tp563
a(S'with'
p564
S'with'
p565
S'IN'
p566
S'B-PP'
p567
g5
tp568
a(S'placebo'
p569
S'placebo'
p570
S'NN'
p571
S'B-NP'
p572
g5
tp573
a(g203
g203
g203
g5
g5
tp574
a(S'group'
p575
S'group'
p576
S'NN'
p577
S'B-NP'
p578
g5
tp579
a(g319
g319
S'NN'
p580
S'I-NP'
p581
g5
tp582
a(S'period'
p583
S'period'
p584
S'NN'
p585
S'I-NP'
p586
g5
tp587
a(g344
g344
S'CD'
p588
S'I-NP'
p589
g5
tp590
a(S'and'
p591
S'and'
p592
S'CC'
p593
S'I-NP'
p594
g5
tp595
a(S'group'
p596
S'group'
p597
S'NN'
p598
S'I-NP'
p599
g5
tp600
a(g299
g299
S'NN'
p601
S'I-NP'
p602
g5
tp603
a(S'period'
p604
S'period'
p605
S'NN'
p606
S'I-NP'
p607
g5
tp608
a(g419
g419
S'CD'
p609
S'I-NP'
p610
g5
tp611
a(g240
g240
g240
g5
g5
tp612
a(g52
g52
g52
g5
g5
tp613
a(S'There'
p614
S'There'
p615
S'EX'
p616
S'B-NP'
p617
g5
tp618
a(S'were'
p619
S'be'
p620
S'VBD'
p621
S'B-VP'
p622
g5
tp623
a(S'no'
p624
S'no'
p625
S'DT'
p626
S'B-NP'
p627
g5
tp628
a(S'significant'
p629
S'significant'
p630
S'JJ'
p631
S'I-NP'
p632
g5
tp633
a(S'differences'
p634
S'difference'
p635
S'NNS'
p636
S'I-NP'
p637
g5
tp638
a(S'in'
p639
S'in'
p640
S'IN'
p641
S'B-PP'
p642
g5
tp643
a(S'monthly'
p644
S'monthly'
p645
S'JJ'
p646
S'B-NP'
p647
g5
tp648
a(S'weight'
p649
S'weight'
p650
S'NN'
p651
S'I-NP'
p652
g5
tp653
a(S'reduction'
p654
S'reduction'
p655
S'NN'
p656
S'I-NP'
p657
g5
tp658
a(S'during'
p659
S'during'
p660
S'IN'
p661
S'B-PP'
p662
g5
tp663
a(S'both'
p664
S'both'
p665
S'DT'
p666
S'B-NP'
p667
g5
tp668
a(S'treatments.'
p669
S'treatments.'
p670
S'NN'
p671
S'I-NP'
p672
g5
tp673
a(S'In'
p674
S'In'
p675
S'IN'
p676
S'B-PP'
p677
g5
tp678
a(S'conclusion'
p679
S'conclusion'
p680
S'NN'
p681
S'B-NP'
p682
g5
tp683
a(g373
g373
g373
g5
g5
tp684
a(S'we'
p685
S'we'
p686
S'PRP'
p687
S'B-NP'
p688
g5
tp689
a(S'demonstrated'
p690
S'demonstrate'
p691
S'VBD'
p692
S'B-VP'
p693
g5
tp694
a(S'that'
p695
S'that'
p696
S'IN'
p697
S'B-SBAR'
p698
g5
tp699
a(S'serotoninergic'
p700
S'serotoninergic'
p701
S'JJ'
p702
S'B-NP'
p703
g5
tp704
a(S'drugs'
p705
S'drug'
p706
S'NNS'
p707
S'I-NP'
p708
g5
tp709
a(S'such'
p710
S'such'
p711
S'JJ'
p712
S'B-PP'
p713
g5
tp714
a(S'as'
p715
S'as'
p716
S'IN'
p717
S'I-PP'
p718
g5
tp719
a(S'fluoxetine'
p720
S'fluoxetine'
p721
S'NN'
p722
S'B-NP'
p723
g5
tp724
a(S'need'
p725
S'need'
p726
S'VBP'
p727
S'B-VP'
p728
g5
tp729
a(S'further'
p730
S'further'
p731
S'JJ'
p732
S'B-NP'
p733
g5
tp734
a(S'investigation'
p735
S'investigation'
p736
S'NN'
p737
S'I-NP'
p738
g5
tp739
a(S'before'
p740
S'before'
p741
S'IN'
p742
S'B-PP'
p743
g5
tp744
a(S'being'
p745
S'be'
p746
S'VBG'
p747
S'B-VP'
p748
g5
tp749
a(S'used'
p750
S'use'
p751
S'VBN'
p752
S'I-VP'
p753
g5
tp754
a(S'indiscriminately'
p755
S'indiscriminately'
p756
S'RB'
p757
S'B-ADVP'
p758
g5
tp759
a(S'in'
p760
S'in'
p761
S'IN'
p762
S'B-PP'
p763
g5
tp764
a(S'obese'
p765
S'obese'
p766
S'JJ'
p767
S'B-NP'
p768
g5
tp769
a(S'subjects'
p770
S'subject'
p771
S'NNS'
p772
S'I-NP'
p773
g5
tp774
a(g52
g52
g52
g5
g5
tp775
a.