(lp0
(S'Effect'
p1
S'Effect'
p2
S'NN'
p3
S'B-NP'
p4
S'O'
p5
tp6
a(S'of'
p7
S'of'
p8
S'IN'
p9
S'B-PP'
p10
g5
tp11
a(S'low-intensity'
p12
S'low-intensity'
p13
S'JJ'
p14
S'B-NP'
p15
g5
tp16
a(S'back'
p17
S'back'
p18
S'JJ'
p19
S'I-NP'
p20
g5
tp21
a(S'exercise'
p22
S'exercise'
p23
S'NN'
p24
S'I-NP'
p25
g5
tp26
a(S'on'
p27
S'on'
p28
S'IN'
p29
S'B-PP'
p30
g5
tp31
a(S'quality'
p32
S'quality'
p33
S'NN'
p34
S'B-NP'
p35
g5
tp36
a(S'of'
p37
S'of'
p38
S'IN'
p39
S'B-PP'
p40
g5
tp41
a(S'life'
p42
S'life'
p43
S'NN'
p44
S'B-NP'
p45
g5
tp46
a(S'and'
p47
S'and'
p48
S'CC'
p49
g5
g5
tp50
a(S'back'
p51
S'back'
p52
S'RB'
p53
S'B-ADVP'
p54
g5
tp55
a(S'extensor'
p56
S'extensor'
p57
S'NN'
p58
S'B-NP'
p59
g5
tp60
a(S'strength'
p61
S'strength'
p62
S'NN'
p63
S'I-NP'
p64
g5
tp65
a(S'in'
p66
S'in'
p67
S'IN'
p68
S'B-PP'
p69
g5
tp70
a(S'patients'
p71
S'patient'
p72
S'NNS'
p73
S'B-NP'
p74
g5
tp75
a(S'with'
p76
S'with'
p77
S'IN'
p78
S'B-PP'
p79
g5
tp80
a(S'osteoporosis'
p81
S'osteoporosis'
p82
S'NN'
p83
S'B-NP'
p84
g5
tp85
a(S':'
p86
g86
g86
g5
g5
tp87
a(S'a'
p88
g88
S'DT'
p89
S'B-NP'
p90
g5
tp91
a(S'randomized'
p92
S'randomize'
p93
S'VBN'
p94
S'I-NP'
p95
g5
tp96
a(S'controlled'
p97
S'control'
p98
S'VBN'
p99
S'I-NP'
p100
g5
tp101
a(S'trial'
p102
S'trial'
p103
S'NN'
p104
S'I-NP'
p105
g5
tp106
a(S'.'
p107
g107
g107
g5
g5
tp108
a(S'UNLABELLED'
p109
S'UNLABELLED'
p110
S'NNP'
p111
S'B-NP'
p112
g5
tp113
a(S'Randomized'
p114
S'Randomized'
p115
S'NNP'
p116
S'I-NP'
p117
g5
tp118
a(S'controlled'
p119
S'control'
p120
S'VBD'
p121
S'B-VP'
p122
g5
tp123
a(S'study'
p124
S'study'
p125
S'NN'
p126
S'B-NP'
p127
g5
tp128
a(S'in'
p129
S'in'
p130
S'IN'
p131
S'B-PP'
p132
g5
tp133
a(S'80'
p134
S'80'
p135
S'CD'
p136
S'B-NP'
p137
g5
tp138
a(S'postmenopausal'
p139
S'postmenopausal'
p140
S'JJ'
p141
S'I-NP'
p142
g5
tp143
a(S'women'
p144
S'woman'
p145
S'NNS'
p146
S'I-NP'
p147
g5
tp148
a(S'with'
p149
S'with'
p150
S'IN'
p151
S'B-PP'
p152
g5
tp153
a(S'osteoporosis'
p154
S'osteoporosis'
p155
S'NN'
p156
S'B-NP'
p157
g5
tp158
a(S'was'
p159
S'be'
p160
S'VBD'
p161
S'B-VP'
p162
g5
tp163
a(S'conducted'
p164
S'conduct'
p165
S'VBN'
p166
S'I-VP'
p167
g5
tp168
a(S'to'
p169
S'to'
p170
S'TO'
p171
S'I-VP'
p172
g5
tp173
a(S'investigate'
p174
S'investigate'
p175
S'VB'
p176
S'I-VP'
p177
g5
tp178
a(S'the'
p179
S'the'
p180
S'DT'
p181
S'B-NP'
p182
g5
tp183
a(S'effect'
p184
S'effect'
p185
S'NN'
p186
S'I-NP'
p187
g5
tp188
a(S'of'
p189
S'of'
p190
S'IN'
p191
S'B-PP'
p192
g5
tp193
a(g88
g88
S'DT'
p194
S'B-NP'
p195
g5
tp196
a(S'home-based'
p197
S'home-based'
p198
S'JJ'
p199
S'I-NP'
p200
g5
tp201
a(S','
p202
g202
g202
S'I-NP'
p203
g5
tp204
a(S'simple'
p205
S'simple'
p206
S'JJ'
p207
S'I-NP'
p208
g5
tp209
a(g202
g202
g202
S'I-NP'
p210
g5
tp211
a(S'low-intensity'
p212
S'low-intensity'
p213
S'JJ'
p214
S'I-NP'
p215
g5
tp216
a(S'exercise.'
p217
S'exercise.'
p218
S'NN'
p219
S'I-NP'
p220
g5
tp221
a(S'Low-intensity'
p222
S'Low-intensity'
p223
S'JJ'
p224
S'I-NP'
p225
g5
tp226
a(S'back-strengthening'
p227
S'back-strengthening'
p228
S'JJ'
p229
S'I-NP'
p230
g5
tp231
a(S'exercise'
p232
S'exercise'
p233
S'NN'
p234
S'I-NP'
p235
g5
tp236
a(S'was'
p237
S'be'
p238
S'VBD'
p239
S'B-VP'
p240
g5
tp241
a(S'effective'
p242
S'effective'
p243
S'JJ'
p244
S'B-ADJP'
p245
g5
tp246
a(S'in'
p247
S'in'
p248
S'IN'
p249
S'B-PP'
p250
g5
tp251
a(S'improving'
p252
S'improve'
p253
S'VBG'
p254
S'B-VP'
p255
g5
tp256
a(S'the'
p257
S'the'
p258
S'DT'
p259
S'B-NP'
p260
g5
tp261
a(S'quality'
p262
S'quality'
p263
S'NN'
p264
S'I-NP'
p265
g5
tp266
a(S'of'
p267
S'of'
p268
S'IN'
p269
S'B-PP'
p270
g5
tp271
a(S'life'
p272
S'life'
p273
S'NN'
p274
S'B-NP'
p275
g5
tp276
a(S'and'
p277
S'and'
p278
S'CC'
p279
g5
g5
tp280
a(S'back'
p281
S'back'
p282
S'RB'
p283
S'B-ADVP'
p284
g5
tp285
a(S'extensor'
p286
S'extensor'
p287
S'NN'
p288
S'B-NP'
p289
g5
tp290
a(S'strength'
p291
S'strength'
p292
S'NN'
p293
S'I-NP'
p294
g5
tp295
a(g107
g107
g107
g5
g5
tp296
a(S'INTRODUCTION'
p297
S'INTRODUCTION'
p298
S'NN'
p299
S'B-NP'
p300
g5
tp301
a(S'AND'
p302
S'AND'
p303
S'CC'
p304
S'I-NP'
p305
g5
tp306
a(S'HYPOTHESIS'
p307
S'HYPOTHESIS'
p308
S'NN'
p309
S'I-NP'
p310
g5
tp311
a(S'Back-strengthening'
p312
S'Back-strengthening'
p313
S'NN'
p314
S'I-NP'
p315
g5
tp316
a(S'exercise'
p317
S'exercise'
p318
S'NN'
p319
S'I-NP'
p320
g5
tp321
a(S'is'
p322
S'be'
p323
S'VBZ'
p324
S'B-VP'
p325
g5
tp326
a(S'effective'
p327
S'effective'
p328
S'JJ'
p329
S'B-ADJP'
p330
g5
tp331
a(S'in'
p332
S'in'
p333
S'IN'
p334
S'B-PP'
p335
g5
tp336
a(S'increasing'
p337
S'increase'
p338
S'VBG'
p339
S'B-VP'
p340
g5
tp341
a(S'back'
p342
S'back'
p343
S'RB'
p344
S'B-ADVP'
p345
g5
tp346
a(S'extensor'
p347
S'extensor'
p348
S'NN'
p349
S'B-NP'
p350
g5
tp351
a(S'strength'
p352
S'strength'
p353
S'NN'
p354
S'I-NP'
p355
g5
tp356
a(S'and'
p357
S'and'
p358
S'CC'
p359
g5
g5
tp360
a(S'decreasing'
p361
S'decrease'
p362
S'VBG'
p363
S'B-VP'
p364
g5
tp365
a(S'risk'
p366
S'risk'
p367
S'NN'
p368
S'B-NP'
p369
g5
tp370
a(S'of'
p371
S'of'
p372
S'IN'
p373
S'B-PP'
p374
g5
tp375
a(S'vertebral'
p376
S'vertebral'
p377
S'JJ'
p378
S'B-NP'
p379
g5
tp380
a(S'fractures.'
p381
S'fractures.'
p382
S'NN'
p383
S'I-NP'
p384
g5
tp385
a(S'We'
p386
S'We'
p387
S'PRP'
p388
S'B-NP'
p389
g5
tp390
a(S'hypothesized'
p391
S'hypothesize'
p392
S'VBD'
p393
S'B-VP'
p394
g5
tp395
a(S'that'
p396
S'that'
p397
S'IN'
p398
S'B-SBAR'
p399
g5
tp400
a(g88
g88
S'DT'
p401
S'B-NP'
p402
g5
tp403
a(S'home-based'
p404
S'home-based'
p405
S'JJ'
p406
S'I-NP'
p407
g5
tp408
a(g202
g202
g202
S'I-NP'
p409
g5
tp410
a(S'simple'
p411
S'simple'
p412
S'JJ'
p413
S'I-NP'
p414
g5
tp415
a(g202
g202
g202
S'I-NP'
p416
g5
tp417
a(S'low-intensity'
p418
S'low-intensity'
p419
S'JJ'
p420
S'I-NP'
p421
g5
tp422
a(S'exercise'
p423
S'exercise'
p424
S'NN'
p425
S'I-NP'
p426
g5
tp427
a(S'could'
p428
S'could'
p429
S'MD'
p430
S'B-VP'
p431
g5
tp432
a(S'enhance'
p433
S'enhance'
p434
S'VB'
p435
S'I-VP'
p436
g5
tp437
a(S'back'
p438
S'back'
p439
S'RB'
p440
S'B-ADVP'
p441
g5
tp442
a(S'extensor'
p443
S'extensor'
p444
S'NN'
p445
S'B-NP'
p446
g5
tp447
a(S'strength'
p448
S'strength'
p449
S'NN'
p450
S'I-NP'
p451
g5
tp452
a(S'and'
p453
S'and'
p454
S'CC'
p455
g5
g5
tp456
a(S'improve'
p457
S'improve'
p458
S'VB'
p459
S'B-VP'
p460
g5
tp461
a(S'the'
p462
S'the'
p463
S'DT'
p464
S'B-NP'
p465
g5
tp466
a(S'quality'
p467
S'quality'
p468
S'NN'
p469
S'I-NP'
p470
g5
tp471
a(S'of'
p472
S'of'
p473
S'IN'
p474
S'B-PP'
p475
g5
tp476
a(S'life'
p477
S'life'
p478
S'NN'
p479
S'B-NP'
p480
g5
tp481
a(S'and/or'
p482
S'and/or'
p483
S'CC'
p484
S'B-NP'
p485
g5
tp486
a(S'spinal'
p487
S'spinal'
p488
S'JJ'
p489
S'I-NP'
p490
g5
tp491
a(S'range'
p492
S'range'
p493
S'NN'
p494
S'I-NP'
p495
g5
tp496
a(S'of'
p497
S'of'
p498
S'IN'
p499
S'B-PP'
p500
g5
tp501
a(S'motion'
p502
S'motion'
p503
S'NN'
p504
S'B-NP'
p505
g5
tp506
a(S'in'
p507
S'in'
p508
S'IN'
p509
S'B-PP'
p510
g5
tp511
a(S'postmenopausal'
p512
S'postmenopausal'
p513
S'JJ'
p514
S'B-NP'
p515
g5
tp516
a(S'women'
p517
S'woman'
p518
S'NNS'
p519
S'I-NP'
p520
g5
tp521
a(S'in'
p522
S'in'
p523
S'IN'
p524
S'B-PP'
p525
g5
tp526
a(g88
g88
S'DT'
p527
S'B-NP'
p528
g5
tp529
a(S'short-term'
p530
S'short-term'
p531
S'JJ'
p532
S'I-NP'
p533
g5
tp534
a(S'follow-up'
p535
S'follow-up'
p536
S'NN'
p537
S'I-NP'
p538
g5
tp539
a(g107
g107
g107
g5
g5
tp540
a(S'METHODS'
p541
S'METHODS'
p542
S'NNS'
p543
S'B-NP'
p544
g5
tp545
a(S'Eighty'
p546
S'Eighty'
p547
S'CD'
p548
S'B-NP'
p549
g5
tp550
a(S'postmenopausal'
p551
S'postmenopausal'
p552
S'JJ'
p553
S'I-NP'
p554
g5
tp555
a(S'women'
p556
S'woman'
p557
S'NNS'
p558
S'I-NP'
p559
g5
tp560
a(S'with'
p561
S'with'
p562
S'IN'
p563
S'B-PP'
p564
g5
tp565
a(S'osteoporosis'
p566
S'osteoporosis'
p567
S'NN'
p568
S'B-NP'
p569
g5
tp570
a(S'were'
p571
S'be'
p572
S'VBD'
p573
S'B-VP'
p574
g5
tp575
a(S'randomly'
p576
S'randomly'
p577
S'RB'
p578
S'I-VP'
p579
g5
tp580
a(S'assigned'
p581
S'assign'
p582
S'VBN'
p583
S'I-VP'
p584
g5
tp585
a(S'to'
p586
S'to'
p587
S'TO'
p588
S'B-PP'
p589
g5
tp590
a(g88
g88
S'DT'
p591
S'B-NP'
p592
g5
tp593
a(S'control'
p594
S'control'
p595
S'NN'
p596
S'I-NP'
p597
g5
tp598
a(S'group'
p599
S'group'
p600
S'NN'
p601
S'I-NP'
p602
g5
tp603
a(S'('
p604
g604
g604
g5
g5
tp605
a(S'n'
p606
g606
S'NN'
p607
S'B-NP'
p608
g5
tp609
a(S'='
p610
g610
S'SYM'
p611
S'B-VP'
p612
g5
tp613
a(S'38'
p614
S'38'
p615
S'CD'
p616
S'B-NP'
p617
g5
tp618
a(S')'
p619
g619
g619
g5
g5
tp620
a(S'or'
p621
S'or'
p622
S'CC'
p623
g5
g5
tp624
a(S'an'
p625
S'an'
p626
S'DT'
p627
S'B-NP'
p628
g5
tp629
a(S'exercise'
p630
S'exercise'
p631
S'NN'
p632
S'I-NP'
p633
g5
tp634
a(S'group'
p635
S'group'
p636
S'NN'
p637
S'I-NP'
p638
g5
tp639
a(g604
g604
g604
g5
g5
tp640
a(g606
g606
S'NN'
p641
S'B-NP'
p642
g5
tp643
a(g610
g610
S'SYM'
p644
S'B-VP'
p645
g5
tp646
a(S'42'
p647
S'42'
p648
S'CD'
p649
S'B-NP'
p650
g5
tp651
a(g619
g619
g619
g5
g5
tp652
a(g107
g107
g107
g5
g5
tp653
a(S'Subjects'
p654
S'Subject'
p655
S'NNPS'
p656
S'B-NP'
p657
g5
tp658
a(S'were'
p659
S'be'
p660
S'VBD'
p661
S'B-VP'
p662
g5
tp663
a(S'instructed'
p664
S'instruct'
p665
S'VBN'
p666
S'I-VP'
p667
g5
tp668
a(S'to'
p669
S'to'
p670
S'TO'
p671
S'I-VP'
p672
g5
tp673
a(S'lift'
p674
S'lift'
p675
S'VB'
p676
S'I-VP'
p677
g5
tp678
a(S'their'
p679
S'their'
p680
S'PRP$'
p681
S'B-NP'
p682
g5
tp683
a(S'upper'
p684
S'upper'
p685
S'JJ'
p686
S'I-NP'
p687
g5
tp688
a(S'trunk'
p689
S'trunk'
p690
S'NN'
p691
S'I-NP'
p692
g5
tp693
a(S'from'
p694
S'from'
p695
S'IN'
p696
S'B-PP'
p697
g5
tp698
a(g88
g88
S'DT'
p699
S'B-NP'
p700
g5
tp701
a(S'prone'
p702
S'prone'
p703
S'JJ'
p704
S'I-NP'
p705
g5
tp706
a(S'position'
p707
S'position'
p708
S'NN'
p709
S'I-NP'
p710
g5
tp711
a(S'antigravity'
p712
S'antigravity'
p713
S'NN'
p714
S'I-NP'
p715
g5
tp716
a(S'and'
p717
S'and'
p718
S'CC'
p719
g5
g5
tp720
a(S'maintain'
p721
S'maintain'
p722
S'VB'
p723
S'B-VP'
p724
g5
tp725
a(S'the'
p726
S'the'
p727
S'DT'
p728
S'B-NP'
p729
g5
tp730
a(S'neutral'
p731
S'neutral'
p732
S'JJ'
p733
S'I-NP'
p734
g5
tp735
a(S'position.'
p736
S'position.'
p737
S'NN'
p738
S'I-NP'
p739
g5
tp740
a(S'Isometric'
p741
S'Isometric'
p742
S'NNP'
p743
S'I-NP'
p744
g5
tp745
a(S'back'
p746
S'back'
p747
S'RB'
p748
S'B-ADVP'
p749
g5
tp750
a(S'extensor'
p751
S'extensor'
p752
S'NN'
p753
S'B-NP'
p754
g5
tp755
a(S'strength'
p756
S'strength'
p757
S'NN'
p758
S'I-NP'
p759
g5
tp760
a(g202
g202
g202
g5
g5
tp761
a(S'spinal'
p762
S'spinal'
p763
S'JJ'
p764
S'B-NP'
p765
g5
tp766
a(S'range'
p767
S'range'
p768
S'NN'
p769
S'I-NP'
p770
g5
tp771
a(S'of'
p772
S'of'
p773
S'IN'
p774
S'B-PP'
p775
g5
tp776
a(S'motion'
p777
S'motion'
p778
S'NN'
p779
S'B-NP'
p780
g5
tp781
a(g202
g202
g202
g5
g5
tp782
a(S'and'
p783
S'and'
p784
S'CC'
p785
g5
g5
tp786
a(S'scores'
p787
S'score'
p788
S'NNS'
p789
S'B-NP'
p790
g5
tp791
a(S'for'
p792
S'for'
p793
S'IN'
p794
S'B-PP'
p795
g5
tp796
a(S'quality'
p797
S'quality'
p798
S'NN'
p799
S'B-NP'
p800
g5
tp801
a(S'of'
p802
S'of'
p803
S'IN'
p804
S'B-PP'
p805
g5
tp806
a(S'life'
p807
S'life'
p808
S'NN'
p809
S'B-NP'
p810
g5
tp811
a(S'were'
p812
S'be'
p813
S'VBD'
p814
S'B-VP'
p815
g5
tp816
a(S'evaluated'
p817
S'evaluate'
p818
S'VBN'
p819
S'I-VP'
p820
g5
tp821
a(S'at'
p822
S'at'
p823
S'IN'
p824
S'B-PP'
p825
g5
tp826
a(S'baseline'
p827
S'baseline'
p828
S'NN'
p829
S'B-NP'
p830
g5
tp831
a(S'and'
p832
S'and'
p833
S'CC'
p834
g5
g5
tp835
a(S'4'
p836
g836
S'CD'
p837
S'B-NP'
p838
g5
tp839
a(S'months'
p840
S'month'
p841
S'NNS'
p842
S'I-NP'
p843
g5
tp844
a(g107
g107
g107
g5
g5
tp845
a(S'RESULTS'
p846
S'RESULTS'
p847
S'NNS'
p848
S'B-NP'
p849
g5
tp850
a(S'Back'
p851
S'Back'
p852
S'RB'
p853
S'B-ADVP'
p854
g5
tp855
a(S'extensor'
p856
S'extensor'
p857
S'VBP'
p858
S'B-VP'
p859
g5
tp860
a(S'strength'
p861
S'strength'
p862
S'NN'
p863
S'B-NP'
p864
g5
tp865
a(S'significantly'
p866
S'significantly'
p867
S'RB'
p868
S'B-ADVP'
p869
g5
tp870
a(S'increased'
p871
S'increase'
p872
S'VBD'
p873
S'B-VP'
p874
g5
tp875
a(S'both'
p876
S'both'
p877
S'CC'
p878
g5
g5
tp879
a(S'in'
p880
S'in'
p881
S'IN'
p882
S'B-PP'
p883
g5
tp884
a(S'the'
p885
S'the'
p886
S'DT'
p887
S'B-NP'
p888
g5
tp889
a(S'exercise'
p890
S'exercise'
p891
S'NN'
p892
S'I-NP'
p893
g5
tp894
a(S'group'
p895
S'group'
p896
S'NN'
p897
S'I-NP'
p898
g5
tp899
a(g604
g604
g604
g5
g5
tp900
a(S'26'
p901
S'26'
p902
S'CD'
p903
S'B-NP'
p904
g5
tp905
a(S'%'
p906
g906
S'NN'
p907
S'I-NP'
p908
g5
tp909
a(g619
g619
g619
g5
g5
tp910
a(S'and'
p911
S'and'
p912
S'CC'
p913
g5
g5
tp914
a(S'in'
p915
S'in'
p916
S'IN'
p917
S'B-PP'
p918
g5
tp919
a(S'the'
p920
S'the'
p921
S'DT'
p922
S'B-NP'
p923
g5
tp924
a(S'control'
p925
S'control'
p926
S'NN'
p927
S'I-NP'
p928
g5
tp929
a(S'group'
p930
S'group'
p931
S'NN'
p932
S'I-NP'
p933
g5
tp934
a(g604
g604
g604
g5
g5
tp935
a(S'11'
p936
S'11'
p937
S'CD'
p938
S'B-NP'
p939
g5
tp940
a(g906
g906
S'NN'
p941
S'I-NP'
p942
g5
tp943
a(g619
g619
g619
g5
g5
tp944
a(g107
g107
g107
g5
g5
tp945
a(S'Scores'
p946
S'Score'
p947
S'NNS'
p948
S'B-NP'
p949
g5
tp950
a(S'for'
p951
S'for'
p952
S'IN'
p953
S'B-PP'
p954
g5
tp955
a(S'quality'
p956
S'quality'
p957
S'NN'
p958
S'B-NP'
p959
g5
tp960
a(S'of'
p961
S'of'
p962
S'IN'
p963
S'B-PP'
p964
g5
tp965
a(S'life'
p966
S'life'
p967
S'NN'
p968
S'B-NP'
p969
g5
tp970
a(S'increased'
p971
S'increase'
p972
S'VBD'
p973
S'B-VP'
p974
g5
tp975
a(S'in'
p976
S'in'
p977
S'IN'
p978
S'B-PP'
p979
g5
tp980
a(S'the'
p981
S'the'
p982
S'DT'
p983
S'B-NP'
p984
g5
tp985
a(S'exercise'
p986
S'exercise'
p987
S'NN'
p988
S'I-NP'
p989
g5
tp990
a(S'group'
p991
S'group'
p992
S'NN'
p993
S'I-NP'
p994
g5
tp995
a(g604
g604
g604
g5
g5
tp996
a(S'7'
p997
g997
S'CD'
p998
S'B-NP'
p999
g5
tp1000
a(g906
g906
S'NN'
p1001
S'I-NP'
p1002
g5
tp1003
a(g619
g619
g619
g5
g5
tp1004
a(g202
g202
g202
g5
g5
tp1005
a(S'whereas'
p1006
S'whereas'
p1007
S'IN'
p1008
g5
g5
tp1009
a(S'it'
p1010
S'it'
p1011
S'PRP'
p1012
S'B-NP'
p1013
g5
tp1014
a(S'remained'
p1015
S'remain'
p1016
S'VBD'
p1017
S'B-VP'
p1018
g5
tp1019
a(S'unchanged'
p1020
S'unchanged'
p1021
S'JJ'
p1022
S'B-ADJP'
p1023
g5
tp1024
a(S'in'
p1025
S'in'
p1026
S'IN'
p1027
S'B-PP'
p1028
g5
tp1029
a(S'the'
p1030
S'the'
p1031
S'DT'
p1032
S'B-NP'
p1033
g5
tp1034
a(S'control'
p1035
S'control'
p1036
S'NN'
p1037
S'I-NP'
p1038
g5
tp1039
a(S'group'
p1040
S'group'
p1041
S'NN'
p1042
S'I-NP'
p1043
g5
tp1044
a(g604
g604
g604
g5
g5
tp1045
a(S'0'
p1046
g1046
S'CD'
p1047
S'B-NP'
p1048
g5
tp1049
a(g906
g906
S'NN'
p1050
S'I-NP'
p1051
g5
tp1052
a(g619
g619
g619
g5
g5
tp1053
a(g107
g107
g107
g5
g5
tp1054
a(S'There'
p1055
S'There'
p1056
S'EX'
p1057
S'B-NP'
p1058
g5
tp1059
a(S'was'
p1060
S'be'
p1061
S'VBD'
p1062
S'B-VP'
p1063
g5
tp1064
a(g88
g88
S'DT'
p1065
S'B-NP'
p1066
g5
tp1067
a(S'significant'
p1068
S'significant'
p1069
S'JJ'
p1070
S'I-NP'
p1071
g5
tp1072
a(S'difference'
p1073
S'difference'
p1074
S'NN'
p1075
S'I-NP'
p1076
g5
tp1077
a(S'in'
p1078
S'in'
p1079
S'IN'
p1080
S'B-PP'
p1081
g5
tp1082
a(S'quality'
p1083
S'quality'
p1084
S'NN'
p1085
S'B-NP'
p1086
g5
tp1087
a(S'of'
p1088
S'of'
p1089
S'IN'
p1090
S'B-PP'
p1091
g5
tp1092
a(S'life'
p1093
S'life'
p1094
S'NN'
p1095
S'B-NP'
p1096
g5
tp1097
a(S'score'
p1098
S'score'
p1099
S'NN'
p1100
S'I-NP'
p1101
g5
tp1102
a(S'between'
p1103
S'between'
p1104
S'IN'
p1105
S'B-PP'
p1106
g5
tp1107
a(S'the'
p1108
S'the'
p1109
S'DT'
p1110
S'B-NP'
p1111
g5
tp1112
a(S'groups'
p1113
S'group'
p1114
S'NNS'
p1115
S'I-NP'
p1116
g5
tp1117
a(g604
g604
g604
g5
g5
tp1118
a(S'p'
p1119
g1119
S'NN'
p1120
S'B-NP'
p1121
g5
tp1122
a(g610
g610
S'SYM'
p1123
S'B-VP'
p1124
g5
tp1125
a(S'0.012'
p1126
S'0.012'
p1127
S'CD'
p1128
S'B-NP'
p1129
g5
tp1130
a(g619
g619
g619
g5
g5
tp1131
a(g107
g107
g107
g5
g5
tp1132
a(S'CONCLUSIONS'
p1133
S'CONCLUSIONS'
p1134
S'NNS'
p1135
S'B-NP'
p1136
g5
tp1137
a(S'Low-intensity'
p1138
S'Low-intensity'
p1139
S'JJ'
p1140
S'I-NP'
p1141
g5
tp1142
a(S'back-strengthening'
p1143
S'back-strengthening'
p1144
S'JJ'
p1145
S'I-NP'
p1146
g5
tp1147
a(S'exercise'
p1148
S'exercise'
p1149
S'NN'
p1150
S'I-NP'
p1151
g5
tp1152
a(S'was'
p1153
S'be'
p1154
S'VBD'
p1155
S'B-VP'
p1156
g5
tp1157
a(S'effective'
p1158
S'effective'
p1159
S'JJ'
p1160
S'B-ADJP'
p1161
g5
tp1162
a(S'in'
p1163
S'in'
p1164
S'IN'
p1165
S'B-PP'
p1166
g5
tp1167
a(S'improving'
p1168
S'improve'
p1169
S'VBG'
p1170
S'B-VP'
p1171
g5
tp1172
a(S'the'
p1173
S'the'
p1174
S'DT'
p1175
S'B-NP'
p1176
g5
tp1177
a(S'quality'
p1178
S'quality'
p1179
S'NN'
p1180
S'I-NP'
p1181
g5
tp1182
a(S'of'
p1183
S'of'
p1184
S'IN'
p1185
S'B-PP'
p1186
g5
tp1187
a(S'life'
p1188
S'life'
p1189
S'NN'
p1190
S'B-NP'
p1191
g5
tp1192
a(S'and'
p1193
S'and'
p1194
S'CC'
p1195
g5
g5
tp1196
a(S'back'
p1197
S'back'
p1198
S'RB'
p1199
S'B-ADVP'
p1200
g5
tp1201
a(S'extensor'
p1202
S'extensor'
p1203
S'NN'
p1204
S'B-NP'
p1205
g5
tp1206
a(S'strength'
p1207
S'strength'
p1208
S'NN'
p1209
S'I-NP'
p1210
g5
tp1211
a(S'in'
p1212
S'in'
p1213
S'IN'
p1214
S'B-PP'
p1215
g5
tp1216
a(S'patients'
p1217
S'patient'
p1218
S'NNS'
p1219
S'B-NP'
p1220
g5
tp1221
a(S'with'
p1222
S'with'
p1223
S'IN'
p1224
S'B-PP'
p1225
g5
tp1226
a(S'osteoporosis'
p1227
S'osteoporosis'
p1228
S'NN'
p1229
S'B-NP'
p1230
g5
tp1231
a(g107
g107
g107
g5
g5
tp1232
a.