(lp0
(S'Evaluating'
p1
S'Evaluate'
p2
S'VBG'
p3
S'B-VP'
p4
S'O'
p5
tp6
a(S'the'
p7
S'the'
p8
S'DT'
p9
S'B-NP'
p10
g5
tp11
a(S'impact'
p12
S'impact'
p13
S'NN'
p14
S'I-NP'
p15
g5
tp16
a(S'of'
p17
S'of'
p18
S'IN'
p19
S'B-PP'
p20
g5
tp21
a(S'peer'
p22
S'peer'
p23
S'NN'
p24
S'B-NP'
p25
g5
tp26
a(S','
p27
g27
g27
g5
g5
tp28
a(S'nurse'
p29
S'nurse'
p30
S'NN'
p31
S'B-NP'
p32
g5
tp33
a(S'case-managed'
p34
S'case-managed'
p35
S'JJ'
p36
S'B-ADJP'
p37
g5
tp38
a(g27
g27
g27
g5
g5
tp39
a(S'and'
p40
S'and'
p41
S'CC'
p42
g5
g5
tp43
a(S'standard'
p44
S'standard'
p45
S'JJ'
p46
S'B-NP'
p47
g5
tp48
a(S'HIV'
p49
S'HIV'
p50
S'NN'
p51
S'I-NP'
p52
g5
tp53
a(S'risk-reduction'
p54
S'risk-reduction'
p55
S'NN'
p56
S'I-NP'
p57
g5
tp58
a(S'programs'
p59
S'program'
p60
S'NNS'
p61
S'I-NP'
p62
g5
tp63
a(S'on'
p64
S'on'
p65
S'IN'
p66
S'B-PP'
p67
g5
tp68
a(S'psychosocial'
p69
S'psychosocial'
p70
S'JJ'
p71
S'B-NP'
p72
g5
tp73
a(S'and'
p74
S'and'
p75
S'CC'
p76
S'I-NP'
p77
g5
tp78
a(S'health-promoting'
p79
S'health-promoting'
p80
S'JJ'
p81
S'I-NP'
p82
g5
tp83
a(S'behavioral'
p84
S'behavioral'
p85
S'JJ'
p86
S'I-NP'
p87
g5
tp88
a(S'outcomes'
p89
S'outcome'
p90
S'NNS'
p91
S'I-NP'
p92
g5
tp93
a(S'among'
p94
S'among'
p95
S'IN'
p96
S'B-PP'
p97
g5
tp98
a(S'homeless'
p99
S'homeless'
p100
S'JJ'
p101
S'B-NP'
p102
g5
tp103
a(S'women'
p104
S'woman'
p105
S'NNS'
p106
S'I-NP'
p107
g5
tp108
a(S'.'
p109
g109
g109
g5
g5
tp110
a(S'Investigators'
p111
S'Investigator'
p112
S'NNS'
p113
S'B-NP'
p114
g5
tp115
a(S'examined'
p116
S'examine'
p117
S'VBD'
p118
S'B-VP'
p119
g5
tp120
a(S'the'
p121
S'the'
p122
S'DT'
p123
S'B-NP'
p124
g5
tp125
a(S'6-month'
p126
S'6-month'
p127
S'JJ'
p128
S'I-NP'
p129
g5
tp130
a(S'impact'
p131
S'impact'
p132
S'NN'
p133
S'I-NP'
p134
g5
tp135
a(S'of'
p136
S'of'
p137
S'IN'
p138
S'B-PP'
p139
g5
tp140
a(S'three'
p141
S'three'
p142
S'CD'
p143
S'B-NP'
p144
g5
tp145
a(S'cognitive-behavioral'
p146
S'cognitive-behavioral'
p147
S'JJ'
p148
S'I-NP'
p149
g5
tp150
a(S'HIV'
p151
S'HIV'
p152
S'NN'
p153
S'I-NP'
p154
g5
tp155
a(S'risk-reduction'
p156
S'risk-reduction'
p157
S'NN'
p158
S'I-NP'
p159
g5
tp160
a(S'programs'
p161
S'program'
p162
S'NNS'
p163
S'I-NP'
p164
g5
tp165
a(S'on'
p166
S'on'
p167
S'IN'
p168
S'B-PP'
p169
g5
tp170
a(S'behavioral'
p171
S'behavioral'
p172
S'JJ'
p173
S'B-NP'
p174
g5
tp175
a(S'factors'
p176
S'factor'
p177
S'NNS'
p178
S'I-NP'
p179
g5
tp180
a(S'('
p181
g181
g181
g5
g5
tp182
a(S'substance'
p183
S'substance'
p184
S'NN'
p185
S'B-NP'
p186
g5
tp187
a(S'use'
p188
S'use'
p189
S'NN'
p190
S'I-NP'
p191
g5
tp192
a(S'and'
p193
S'and'
p194
S'CC'
p195
g5
g5
tp196
a(S'sexual'
p197
S'sexual'
p198
S'JJ'
p199
S'B-NP'
p200
g5
tp201
a(S'risk'
p202
S'risk'
p203
S'NN'
p204
S'I-NP'
p205
g5
tp206
a(S'behaviors'
p207
S'behavior'
p208
S'NNS'
p209
S'I-NP'
p210
g5
tp211
a(S')'
p212
g212
g212
g5
g5
tp213
a(S'and'
p214
S'and'
p215
S'CC'
p216
g5
g5
tp217
a(S'cognitive'
p218
S'cognitive'
p219
S'JJ'
p220
S'B-NP'
p221
g5
tp222
a(S'and'
p223
S'and'
p224
S'CC'
p225
S'I-NP'
p226
g5
tp227
a(S'psychological'
p228
S'psychological'
p229
S'JJ'
p230
S'I-NP'
p231
g5
tp232
a(S'resources'
p233
S'resource'
p234
S'NNS'
p235
S'I-NP'
p236
g5
tp237
a(S'of'
p238
S'of'
p239
S'IN'
p240
S'B-PP'
p241
g5
tp242
a(S'325'
p243
S'325'
p244
S'CD'
p245
S'B-NP'
p246
g5
tp247
a(S'women'
p248
S'woman'
p249
S'NNS'
p250
S'I-NP'
p251
g5
tp252
a(S'who'
p253
S'who'
p254
S'WP'
p255
S'B-NP'
p256
g5
tp257
a(S'resided'
p258
S'reside'
p259
S'VBD'
p260
S'B-VP'
p261
g5
tp262
a(S'in'
p263
S'in'
p264
S'IN'
p265
S'B-PP'
p266
g5
tp267
a(S'emergency'
p268
S'emergency'
p269
S'NN'
p270
S'B-NP'
p271
g5
tp272
a(S'or'
p273
S'or'
p274
S'CC'
p275
g5
g5
tp276
a(S'sober-living'
p277
S'sober-living'
p278
S'JJ'
p279
S'B-NP'
p280
g5
tp281
a(S'shelters'
p282
S'shelter'
p283
S'NNS'
p284
S'I-NP'
p285
g5
tp286
a(S'and'
p287
S'and'
p288
S'CC'
p289
g5
g5
tp290
a(S'their'
p291
S'their'
p292
S'PRP$'
p293
S'B-NP'
p294
g5
tp295
a(S'308'
p296
S'308'
p297
S'CD'
p298
S'I-NP'
p299
g5
tp300
a(S'intimate'
p301
S'intimate'
p302
S'JJ'
p303
S'I-NP'
p304
g5
tp305
a(S'sexual'
p306
S'sexual'
p307
S'JJ'
p308
S'I-NP'
p309
g5
tp310
a(S'partners.'
p311
S'partners.'
p312
S'NN'
p313
S'I-NP'
p314
g5
tp315
a(S'Participants'
p316
S'Participant'
p317
S'NNS'
p318
S'I-NP'
p319
g5
tp320
a(S'were'
p321
S'be'
p322
S'VBD'
p323
S'B-VP'
p324
g5
tp325
a(S'randomized'
p326
S'randomize'
p327
S'VBN'
p328
S'I-VP'
p329
g5
tp330
a(S'by'
p331
S'by'
p332
S'IN'
p333
S'B-PP'
p334
g5
tp335
a(S'shelter'
p336
S'shelter'
p337
S'NN'
p338
S'B-NP'
p339
g5
tp340
a(S'to'
p341
S'to'
p342
S'TO'
p343
S'B-PP'
p344
g5
tp345
a(S'a'
p346
g346
S'DT'
p347
S'B-NP'
p348
g5
tp349
a(S'peer-mentored'
p350
S'peer-mentored'
p351
S'JJ'
p352
S'I-NP'
p353
g5
tp354
a(g27
g27
g27
g5
g5
tp355
a(g346
g346
S'DT'
p356
S'B-NP'
p357
g5
tp358
a(S'nurse'
p359
S'nurse'
p360
S'NN'
p361
S'I-NP'
p362
g5
tp363
a(S'case-managed'
p364
S'case-managed'
p365
S'JJ'
p366
S'B-ADJP'
p367
g5
tp368
a(g27
g27
g27
g5
g5
tp369
a(S'or'
p370
S'or'
p371
S'CC'
p372
g5
g5
tp373
a(g346
g346
S'DT'
p374
S'B-NP'
p375
g5
tp376
a(S'standard'
p377
S'standard'
p378
S'JJ'
p379
S'I-NP'
p380
g5
tp381
a(S'care'
p382
S'care'
p383
S'NN'
p384
S'I-NP'
p385
g5
tp386
a(S'HIV'
p387
S'HIV'
p388
S'NN'
p389
S'I-NP'
p390
g5
tp391
a(S'risk-reduction'
p392
S'risk-reduction'
p393
S'NN'
p394
S'I-NP'
p395
g5
tp396
a(S'program.'
p397
S'program.'
p398
S'NN'
p399
S'I-NP'
p400
g5
tp401
a(S'Significant'
p402
S'Significant'
p403
S'JJ'
p404
S'I-NP'
p405
g5
tp406
a(S'improvements'
p407
S'improvement'
p408
S'NNS'
p409
S'I-NP'
p410
g5
tp411
a(S'were'
p412
S'be'
p413
S'VBD'
p414
S'B-VP'
p415
g5
tp416
a(S'observed'
p417
S'observe'
p418
S'VBN'
p419
S'I-VP'
p420
g5
tp421
a(S'in'
p422
S'in'
p423
S'IN'
p424
S'B-PP'
p425
g5
tp426
a(S'all'
p427
S'all'
p428
S'DT'
p429
S'B-NP'
p430
g5
tp431
a(S'groups'
p432
S'group'
p433
S'NNS'
p434
S'I-NP'
p435
g5
tp436
a(S'in'
p437
S'in'
p438
S'IN'
p439
S'B-PP'
p440
g5
tp441
a(S'all'
p442
S'all'
p443
S'DT'
p444
S'B-NP'
p445
g5
tp446
a(S'behavioral'
p447
S'behavioral'
p448
S'JJ'
p449
S'I-NP'
p450
S'B-protein'
p451
tp452
a(S'factors'
p453
S'factor'
p454
S'NNS'
p455
S'I-NP'
p456
S'I-protein'
p457
tp458
a(S'and'
p459
S'and'
p460
S'CC'
p461
g5
g5
tp462
a(S'cognitive'
p463
S'cognitive'
p464
S'JJ'
p465
S'B-NP'
p466
g5
tp467
a(S'and'
p468
S'and'
p469
S'CC'
p470
S'I-NP'
p471
g5
tp472
a(S'psychological'
p473
S'psychological'
p474
S'JJ'
p475
S'I-NP'
p476
g5
tp477
a(S'resources'
p478
S'resource'
p479
S'NNS'
p480
S'I-NP'
p481
g5
tp482
a(S'except'
p483
S'except'
p484
S'IN'
p485
S'B-PP'
p486
g5
tp487
a(S'for'
p488
S'for'
p489
S'IN'
p490
S'B-PP'
p491
g5
tp492
a(S'self-esteem.'
p493
S'self-esteem.'
p494
S'JJ'
p495
S'B-NP'
p496
g5
tp497
a(S'Participants'
p498
S'Participant'
p499
S'NNS'
p500
S'I-NP'
p501
g5
tp502
a(S'in'
p503
S'in'
p504
S'IN'
p505
S'B-PP'
p506
g5
tp507
a(S'the'
p508
S'the'
p509
S'DT'
p510
S'B-NP'
p511
g5
tp512
a(S'peer-mentored'
p513
S'peer-mentored'
p514
S'JJ'
p515
S'I-NP'
p516
g5
tp517
a(S'and'
p518
S'and'
p519
S'CC'
p520
S'I-NP'
p521
g5
tp522
a(S'nurse'
p523
S'nurse'
p524
S'JJ'
p525
S'I-NP'
p526
g5
tp527
a(S'case-managed'
p528
S'case-managed'
p529
S'JJ'
p530
S'I-NP'
p531
g5
tp532
a(S'groups'
p533
S'group'
p534
S'NNS'
p535
S'I-NP'
p536
g5
tp537
a(S'did'
p538
S'do'
p539
S'VBD'
p540
S'B-VP'
p541
g5
tp542
a(S'not'
p543
S'not'
p544
S'RB'
p545
S'I-VP'
p546
g5
tp547
a(S'differ'
p548
S'differ'
p549
S'VB'
p550
S'I-VP'
p551
g5
tp552
a(S'significantly'
p553
S'significantly'
p554
S'RB'
p555
S'B-ADVP'
p556
g5
tp557
a(S'from'
p558
S'from'
p559
S'IN'
p560
S'B-PP'
p561
g5
tp562
a(S'the'
p563
S'the'
p564
S'DT'
p565
S'B-NP'
p566
g5
tp567
a(S'standard'
p568
S'standard'
p569
S'JJ'
p570
S'I-NP'
p571
g5
tp572
a(S'group'
p573
S'group'
p574
S'NN'
p575
S'I-NP'
p576
g5
tp577
a(S'in'
p578
S'in'
p579
S'IN'
p580
S'B-PP'
p581
g5
tp582
a(S'self-esteem'
p583
S'self-esteem'
p584
S'NN'
p585
S'B-NP'
p586
g5
tp587
a(g27
g27
g27
g5
g5
tp588
a(S'life'
p589
S'life'
p590
S'NN'
p591
S'B-NP'
p592
g5
tp593
a(S'satisfaction'
p594
S'satisfaction'
p595
S'NN'
p596
S'I-NP'
p597
g5
tp598
a(g27
g27
g27
g5
g5
tp599
a(S'psychological'
p600
S'psychological'
p601
S'JJ'
p602
S'B-NP'
p603
g5
tp604
a(S'well-being'
p605
S'well-being'
p606
S'NN'
p607
S'I-NP'
p608
g5
tp609
a(g27
g27
g27
g5
g5
tp610
a(S'use'
p611
S'use'
p612
S'NN'
p613
S'B-NP'
p614
g5
tp615
a(S'of'
p616
S'of'
p617
S'IN'
p618
S'B-PP'
p619
g5
tp620
a(S'noninjection'
p621
S'noninjection'
p622
S'JJ'
p623
S'B-NP'
p624
g5
tp625
a(S'drugs'
p626
S'drug'
p627
S'NNS'
p628
S'I-NP'
p629
g5
tp630
a(g27
g27
g27
g5
g5
tp631
a(S'sex'
p632
S'sex'
p633
S'NN'
p634
S'B-NP'
p635
g5
tp636
a(S'with'
p637
S'with'
p638
S'IN'
p639
S'B-PP'
p640
g5
tp641
a(S'multiple'
p642
S'multiple'
p643
S'JJ'
p644
S'B-NP'
p645
g5
tp646
a(S'partners'
p647
S'partner'
p648
S'NNS'
p649
S'I-NP'
p650
g5
tp651
a(g27
g27
g27
g5
g5
tp652
a(S'and'
p653
S'and'
p654
S'CC'
p655
g5
g5
tp656
a(S'unprotected'
p657
S'unprotected'
p658
S'JJ'
p659
S'B-NP'
p660
g5
tp661
a(S'sex'
p662
S'sex'
p663
S'NN'
p664
S'I-NP'
p665
g5
tp666
a(S'at'
p667
S'at'
p668
S'IN'
p669
S'B-PP'
p670
g5
tp671
a(S'6'
p672
g672
S'CD'
p673
S'B-NP'
p674
g5
tp675
a(S'months'
p676
S'month'
p677
S'NNS'
p678
S'I-NP'
p679
g5
tp680
a(g181
g181
g181
g5
g5
tp681
a(S'n'
p682
g682
S'NN'
p683
S'B-NP'
p684
g5
tp685
a(S'='
p686
g686
S'SYM'
p687
S'B-VP'
p688
g5
tp689
a(S'633'
p690
S'633'
p691
S'CD'
p692
S'B-NP'
p693
g5
tp694
a(g212
g212
g212
g5
g5
tp695
a(g109
g109
g109
g5
g5
tp696
a(S'It'
p697
S'It'
p698
S'PRP'
p699
S'B-NP'
p700
g5
tp701
a(S'was'
p702
S'be'
p703
S'VBD'
p704
S'B-VP'
p705
g5
tp706
a(S'concluded'
p707
S'conclude'
p708
S'VBN'
p709
S'I-VP'
p710
g5
tp711
a(S'that'
p712
S'that'
p713
S'IN'
p714
S'B-SBAR'
p715
g5
tp716
a(g346
g346
S'DT'
p717
S'B-NP'
p718
g5
tp719
a(S'standard'
p720
S'standard'
p721
S'JJ'
p722
S'I-NP'
p723
g5
tp724
a(S'approach'
p725
S'approach'
p726
S'NN'
p727
S'I-NP'
p728
g5
tp729
a(S'by'
p730
S'by'
p731
S'IN'
p732
S'B-PP'
p733
g5
tp734
a(S'health'
p735
S'health'
p736
S'NN'
p737
S'B-NP'
p738
g5
tp739
a(S'care'
p740
S'care'
p741
S'NN'
p742
S'I-NP'
p743
g5
tp744
a(S'professionals'
p745
S'professional'
p746
S'NNS'
p747
S'I-NP'
p748
g5
tp749
a(S'appears'
p750
S'appear'
p751
S'VBZ'
p752
S'B-VP'
p753
g5
tp754
a(S'to'
p755
S'to'
p756
S'TO'
p757
S'I-VP'
p758
g5
tp759
a(S'effectively'
p760
S'effectively'
p761
S'RB'
p762
S'I-VP'
p763
g5
tp764
a(S'modify'
p765
S'modify'
p766
S'VB'
p767
S'I-VP'
p768
g5
tp769
a(S'HIV'
p770
S'HIV'
p771
S'NN'
p772
S'B-NP'
p773
g5
tp774
a(S'risk'
p775
S'risk'
p776
S'NN'
p777
S'I-NP'
p778
g5
tp779
a(S'behaviors'
p780
S'behavior'
p781
S'NNS'
p782
S'I-NP'
p783
g5
tp784
a(S'for'
p785
S'for'
p786
S'IN'
p787
S'B-PP'
p788
g5
tp789
a(g346
g346
S'DT'
p790
S'B-NP'
p791
g5
tp792
a(S'majority'
p793
S'majority'
p794
S'NN'
p795
S'I-NP'
p796
g5
tp797
a(S'of'
p798
S'of'
p799
S'IN'
p800
S'B-PP'
p801
g5
tp802
a(S'homeless'
p803
S'homeless'
p804
S'JJ'
p805
S'B-NP'
p806
g5
tp807
a(S'participants'
p808
S'participant'
p809
S'NNS'
p810
S'I-NP'
p811
g5
tp812
a(S'and'
p813
S'and'
p814
S'CC'
p815
g5
g5
tp816
a(S'may'
p817
S'may'
p818
S'MD'
p819
S'B-VP'
p820
g5
tp821
a(S'have'
p822
S'have'
p823
S'VB'
p824
S'I-VP'
p825
g5
tp826
a(S'important'
p827
S'important'
p828
S'JJ'
p829
S'B-NP'
p830
g5
tp831
a(S'economic'
p832
S'economic'
p833
S'JJ'
p834
S'I-NP'
p835
g5
tp836
a(S'and'
p837
S'and'
p838
S'CC'
p839
S'I-NP'
p840
g5
tp841
a(S'policy'
p842
S'policy'
p843
S'NN'
p844
S'I-NP'
p845
g5
tp846
a(S'implications.'
p847
S'implications.'
p848
S'VBP'
p849
S'B-VP'
p850
g5
tp851
a(S'Further'
p852
S'Further'
p853
S'RB'
p854
S'B-ADVP'
p855
g5
tp856
a(g27
g27
g27
g5
g5
tp857
a(S'the'
p858
S'the'
p859
S'DT'
p860
S'B-NP'
p861
g5
tp862
a(S'impact'
p863
S'impact'
p864
S'NN'
p865
S'I-NP'
p866
g5
tp867
a(S'of'
p868
S'of'
p869
S'IN'
p870
S'B-PP'
p871
g5
tp872
a(S'short-term'
p873
S'short-term'
p874
S'JJ'
p875
S'B-NP'
p876
g5
tp877
a(S'programs'
p878
S'program'
p879
S'NNS'
p880
S'I-NP'
p881
g5
tp882
a(S'that'
p883
S'that'
p884
S'WDT'
p885
S'B-NP'
p886
g5
tp887
a(S'address'
p888
S'address'
p889
S'VBP'
p890
S'B-VP'
p891
g5
tp892
a(S'psychological'
p893
S'psychological'
p894
S'JJ'
p895
S'B-NP'
p896
g5
tp897
a(S'vulnerabilities'
p898
S'vulnerability'
p899
S'NNS'
p900
S'I-NP'
p901
g5
tp902
a(S'of'
p903
S'of'
p904
S'IN'
p905
S'B-PP'
p906
g5
tp907
a(S'impoverished'
p908
S'impoverished'
p909
S'JJ'
p910
S'B-NP'
p911
S'B-cell_type'
p912
tp913
a(S'populations'
p914
S'population'
p915
S'NNS'
p916
S'I-NP'
p917
S'I-cell_type'
p918
tp919
a(S'needs'
p920
S'need'
p921
S'VBZ'
p922
S'B-VP'
p923
g5
tp924
a(S'to'
p925
S'to'
p926
S'TO'
p927
S'I-VP'
p928
g5
tp929
a(S'be'
p930
S'be'
p931
S'VB'
p932
S'I-VP'
p933
g5
tp934
a(S'studied'
p935
S'study'
p936
S'VBN'
p937
S'I-VP'
p938
g5
tp939
a(S'further'
p940
S'further'
p941
S'RBR'
p942
S'B-ADVP'
p943
g5
tp944
a(g109
g109
g109
g5
g5
tp945
a.