(lp0
(S'Cardiac'
p1
S'Cardiac'
p2
S'JJ'
p3
S'B-NP'
p4
S'O'
p5
tp6
a(S'safety'
p7
S'safety'
p8
S'NN'
p9
S'I-NP'
p10
g5
tp11
a(S'of'
p12
S'of'
p13
S'IN'
p14
S'B-PP'
p15
g5
tp16
a(S'formoterol'
p17
S'formoterol'
p18
S'NN'
p19
S'B-NP'
p20
g5
tp21
a(S'12'
p22
S'12'
p23
S'CD'
p24
S'I-NP'
p25
g5
tp26
a(S'microg'
p27
S'microg'
p28
S'NN'
p29
S'I-NP'
p30
g5
tp31
a(S'twice'
p32
S'twice'
p33
S'RB'
p34
S'B-ADVP'
p35
g5
tp36
a(S'daily'
p37
S'daily'
p38
S'RB'
p39
S'I-ADVP'
p40
g5
tp41
a(S'in'
p42
S'in'
p43
S'IN'
p44
S'B-PP'
p45
g5
tp46
a(S'patients'
p47
S'patient'
p48
S'NNS'
p49
S'B-NP'
p50
g5
tp51
a(S'with'
p52
S'with'
p53
S'IN'
p54
S'B-PP'
p55
g5
tp56
a(S'chronic'
p57
S'chronic'
p58
S'JJ'
p59
S'B-NP'
p60
g5
tp61
a(S'obstructive'
p62
S'obstructive'
p63
S'JJ'
p64
S'I-NP'
p65
g5
tp66
a(S'pulmonary'
p67
S'pulmonary'
p68
S'JJ'
p69
S'I-NP'
p70
g5
tp71
a(S'disease'
p72
S'disease'
p73
S'NN'
p74
S'I-NP'
p75
g5
tp76
a(S'.'
p77
g77
g77
g5
g5
tp78
a(S'BACKGROUND'
p79
S'BACKGROUND'
p80
S'NN'
p81
S'B-NP'
p82
g5
tp83
a(S'Some'
p84
S'Some'
p85
S'DT'
p86
S'B-NP'
p87
g5
tp88
a(S'evidence'
p89
S'evidence'
p90
S'NN'
p91
S'I-NP'
p92
g5
tp93
a(S'suggests'
p94
S'suggest'
p95
S'VBZ'
p96
S'B-VP'
p97
g5
tp98
a(S'an'
p99
S'an'
p100
S'DT'
p101
S'B-NP'
p102
g5
tp103
a(S'increased'
p104
S'increase'
p105
S'VBN'
p106
S'I-NP'
p107
g5
tp108
a(S'risk'
p109
S'risk'
p110
S'NN'
p111
S'I-NP'
p112
g5
tp113
a(S'of'
p114
S'of'
p115
S'IN'
p116
S'B-PP'
p117
g5
tp118
a(S'myocardial'
p119
S'myocardial'
p120
S'JJ'
p121
S'B-NP'
p122
g5
tp123
a(S'infarction'
p124
S'infarction'
p125
S'NN'
p126
S'I-NP'
p127
g5
tp128
a(S'and'
p129
S'and'
p130
S'CC'
p131
S'I-NP'
p132
g5
tp133
a(S'dysrhythmia'
p134
S'dysrhythmia'
p135
S'NN'
p136
S'I-NP'
p137
g5
tp138
a(S'events'
p139
S'event'
p140
S'NNS'
p141
S'I-NP'
p142
g5
tp143
a(S'associated'
p144
S'associate'
p145
S'VBN'
p146
S'B-VP'
p147
g5
tp148
a(S'with'
p149
S'with'
p150
S'IN'
p151
S'B-PP'
p152
g5
tp153
a(S'beta'
p154
S'beta'
p155
S'NN'
p156
S'B-NP'
p157
g5
tp158
a(S'('
p159
g159
g159
g5
g5
tp160
a(S'2'
p161
g161
S'CD'
p162
S'B-NP'
p163
g5
tp164
a(S')'
p165
g165
g165
g5
g5
tp166
a(S'-agonist'
p167
S'-agonist'
p168
S'JJ'
p169
S'B-NP'
p170
g5
tp171
a(S'use'
p172
S'use'
p173
S'NN'
p174
S'I-NP'
p175
g5
tp176
a(S'in'
p177
S'in'
p178
S'IN'
p179
S'B-PP'
p180
g5
tp181
a(S'patients'
p182
S'patient'
p183
S'NNS'
p184
S'B-NP'
p185
g5
tp186
a(S'with'
p187
S'with'
p188
S'IN'
p189
S'B-PP'
p190
g5
tp191
a(S'chronic'
p192
S'chronic'
p193
S'JJ'
p194
S'B-NP'
p195
g5
tp196
a(S'obstructive'
p197
S'obstructive'
p198
S'JJ'
p199
S'I-NP'
p200
g5
tp201
a(S'pulmonary'
p202
S'pulmonary'
p203
S'JJ'
p204
S'I-NP'
p205
g5
tp206
a(S'disease'
p207
S'disease'
p208
S'NN'
p209
S'I-NP'
p210
g5
tp211
a(g159
g159
g159
g5
g5
tp212
a(S'COPD'
p213
S'COPD'
p214
S'NN'
p215
S'B-NP'
p216
g5
tp217
a(g165
g165
g165
g5
g5
tp218
a(g77
g77
g77
g5
g5
tp219
a(S'This'
p220
S'This'
p221
S'DT'
p222
S'B-NP'
p223
g5
tp224
a(S'prospective'
p225
S'prospective'
p226
S'JJ'
p227
S'I-NP'
p228
g5
tp229
a(S','
p230
g230
g230
S'I-NP'
p231
g5
tp232
a(S'multicenter'
p233
S'multicenter'
p234
S'JJ'
p235
S'I-NP'
p236
g5
tp237
a(g230
g230
g230
S'I-NP'
p238
g5
tp239
a(S'randomized'
p240
S'randomize'
p241
S'VBN'
p242
S'I-NP'
p243
g5
tp244
a(g230
g230
g230
S'I-NP'
p245
g5
tp246
a(S'double-blind'
p247
S'double-blind'
p248
S'JJ'
p249
S'I-NP'
p250
g5
tp251
a(g230
g230
g230
S'I-NP'
p252
g5
tp253
a(S'placebo-controlled'
p254
S'placebo-controlled'
p255
S'JJ'
p256
S'I-NP'
p257
g5
tp258
a(S'study'
p259
S'study'
p260
S'NN'
p261
S'I-NP'
p262
g5
tp263
a(S'compared'
p264
S'compare'
p265
S'VBD'
p266
S'B-VP'
p267
g5
tp268
a(S'the'
p269
S'the'
p270
S'DT'
p271
S'B-NP'
p272
g5
tp273
a(S'cardiac'
p274
S'cardiac'
p275
S'JJ'
p276
S'I-NP'
p277
g5
tp278
a(S'safety'
p279
S'safety'
p280
S'NN'
p281
S'I-NP'
p282
g5
tp283
a(S'of'
p284
S'of'
p285
S'IN'
p286
S'B-PP'
p287
g5
tp288
a(S'formoterol'
p289
S'formoterol'
p290
S'NN'
p291
S'B-NP'
p292
g5
tp293
a(S'and'
p294
S'and'
p295
S'CC'
p296
S'I-NP'
p297
g5
tp298
a(S'placebo'
p299
S'placebo'
p300
S'NN'
p301
S'I-NP'
p302
g5
tp303
a(S'in'
p304
S'in'
p305
S'IN'
p306
S'B-PP'
p307
g5
tp308
a(S'patients'
p309
S'patient'
p310
S'NNS'
p311
S'B-NP'
p312
g5
tp313
a(S'with'
p314
S'with'
p315
S'IN'
p316
S'B-PP'
p317
g5
tp318
a(S'COPD'
p319
S'COPD'
p320
S'NN'
p321
S'B-NP'
p322
g5
tp323
a(g77
g77
g77
g5
g5
tp324
a(S'METHODS'
p325
S'METHODS'
p326
S'NNS'
p327
S'B-NP'
p328
g5
tp329
a(S'After'
p330
S'After'
p331
S'IN'
p332
S'B-PP'
p333
g5
tp334
a(S'a'
p335
g335
S'DT'
p336
S'B-NP'
p337
g5
tp338
a(S'3-14-day'
p339
S'3-14-day'
p340
S'JJ'
p341
S'I-NP'
p342
g5
tp343
a(S'run-in'
p344
S'run-in'
p345
S'NN'
p346
S'I-NP'
p347
g5
tp348
a(g230
g230
g230
g5
g5
tp349
a(S'204'
p350
S'204'
p351
S'CD'
p352
S'B-NP'
p353
g5
tp354
a(S'patients'
p355
S'patient'
p356
S'NNS'
p357
S'I-NP'
p358
g5
tp359
a(S'were'
p360
S'be'
p361
S'VBD'
p362
S'B-VP'
p363
g5
tp364
a(S'randomized'
p365
S'randomize'
p366
S'VBN'
p367
S'I-VP'
p368
g5
tp369
a(S'to'
p370
S'to'
p371
S'TO'
p372
S'I-VP'
p373
g5
tp374
a(S'receive'
p375
S'receive'
p376
S'VB'
p377
S'I-VP'
p378
g5
tp379
a(S'formoterol'
p380
S'formoterol'
p381
S'NN'
p382
S'B-NP'
p383
g5
tp384
a(S'12'
p385
S'12'
p386
S'CD'
p387
S'I-NP'
p388
g5
tp389
a(S'microg'
p390
S'microg'
p391
S'NN'
p392
S'I-NP'
p393
g5
tp394
a(S'dry'
p395
S'dry'
p396
S'JJ'
p397
S'I-NP'
p398
g5
tp399
a(S'powder'
p400
S'powder'
p401
S'NN'
p402
S'I-NP'
p403
g5
tp404
a(S'inhalation'
p405
S'inhalation'
p406
S'NN'
p407
S'I-NP'
p408
g5
tp409
a(S'or'
p410
S'or'
p411
S'CC'
p412
S'I-NP'
p413
g5
tp414
a(S'matching'
p415
S'matching'
p416
S'NN'
p417
S'I-NP'
p418
g5
tp419
a(S'placebo'
p420
S'placebo'
p421
S'NN'
p422
S'I-NP'
p423
g5
tp424
a(S'twice'
p425
S'twice'
p426
S'RB'
p427
S'B-ADVP'
p428
g5
tp429
a(S'daily'
p430
S'daily'
p431
S'RB'
p432
S'I-ADVP'
p433
g5
tp434
a(S'for'
p435
S'for'
p436
S'IN'
p437
S'B-PP'
p438
g5
tp439
a(S'8'
p440
g440
S'CD'
p441
S'B-NP'
p442
g5
tp443
a(S'weeks.'
p444
S'weeks.'
p445
S'NN'
p446
S'I-NP'
p447
g5
tp448
a(S'Twenty'
p449
S'Twenty'
p450
S'CD'
p451
S'B-NP'
p452
g5
tp453
a(S'four-hour'
p454
S'four-hour'
p455
S'JJ'
p456
S'I-NP'
p457
g5
tp458
a(S'continuous'
p459
S'continuous'
p460
S'JJ'
p461
S'I-NP'
p462
g5
tp463
a(S'electrocardiography'
p464
S'electrocardiography'
p465
S'NN'
p466
S'I-NP'
p467
g5
tp468
a(g159
g159
g159
g5
g5
tp469
a(S'Holter'
p470
S'Holter'
p471
S'NN'
p472
S'B-NP'
p473
g5
tp474
a(S'monitoring'
p475
S'monitoring'
p476
S'NN'
p477
S'I-NP'
p478
g5
tp479
a(g165
g165
g165
g5
g5
tp480
a(S'was'
p481
S'be'
p482
S'VBD'
p483
S'B-VP'
p484
g5
tp485
a(S'performed'
p486
S'perform'
p487
S'VBN'
p488
S'I-VP'
p489
g5
tp490
a(S'at'
p491
S'at'
p492
S'IN'
p493
S'B-PP'
p494
g5
tp495
a(S'screening'
p496
S'screening'
p497
S'NN'
p498
S'B-NP'
p499
g5
tp500
a(S'and'
p501
S'and'
p502
S'CC'
p503
g5
g5
tp504
a(S'after'
p505
S'after'
p506
S'IN'
p507
S'B-PP'
p508
g5
tp509
a(g161
g161
S'CD'
p510
S'B-NP'
p511
g5
tp512
a(S'and'
p513
S'and'
p514
S'CC'
p515
S'I-NP'
p516
g5
tp517
a(g440
g440
S'CD'
p518
S'I-NP'
p519
g5
tp520
a(S'weeks'
p521
S'week'
p522
S'NNS'
p523
S'I-NP'
p524
g5
tp525
a(S'of'
p526
S'of'
p527
S'IN'
p528
S'B-PP'
p529
g5
tp530
a(S'treatment'
p531
S'treatment'
p532
S'NN'
p533
S'B-NP'
p534
g5
tp535
a(g77
g77
g77
g5
g5
tp536
a(S'RESULTS'
p537
S'RESULTS'
p538
S'NNS'
p539
S'B-NP'
p540
g5
tp541
a(S'Only'
p542
S'Only'
p543
S'RB'
p544
S'B-NP'
p545
g5
tp546
a(g335
g335
S'DT'
p547
S'I-NP'
p548
g5
tp549
a(S'small'
p550
S'small'
p551
S'JJ'
p552
S'I-NP'
p553
g5
tp554
a(S'number'
p555
S'number'
p556
S'NN'
p557
S'I-NP'
p558
g5
tp559
a(S'of'
p560
S'of'
p561
S'IN'
p562
S'B-PP'
p563
g5
tp564
a(S'patients'
p565
S'patient'
p566
S'NNS'
p567
S'B-NP'
p568
g5
tp569
a(S'met'
p570
S'meet'
p571
S'VBD'
p572
S'B-VP'
p573
g5
tp574
a(S'the'
p575
S'the'
p576
S'DT'
p577
S'B-NP'
p578
g5
tp579
a(S'predefined'
p580
S'predefine'
p581
S'VBN'
p582
S'I-NP'
p583
g5
tp584
a(S'criteria'
p585
S'criterion'
p586
S'NNS'
p587
S'I-NP'
p588
g5
tp589
a(S'for'
p590
S'for'
p591
S'IN'
p592
S'B-PP'
p593
g5
tp594
a(g335
g335
S'DT'
p595
S'B-NP'
p596
g5
tp597
a(S'proarrhythmic'
p598
S'proarrhythmic'
p599
S'JJ'
p600
S'I-NP'
p601
g5
tp602
a(S'event'
p603
S'event'
p604
S'NN'
p605
S'I-NP'
p606
g5
tp607
a(g159
g159
g159
g5
g5
tp608
a(S'4'
p609
g609
S'CD'
p610
S'B-NP'
p611
g5
tp612
a(S'formoterol'
p613
S'formoterol'
p614
S'NN'
p615
S'I-NP'
p616
g5
tp617
a(S'and'
p618
S'and'
p619
S'CC'
p620
g5
g5
tp621
a(g161
g161
S'CD'
p622
S'B-NP'
p623
g5
tp624
a(S'placebo'
p625
S'placebo'
p626
S'NN'
p627
S'I-NP'
p628
g5
tp629
a(S'patients'
p630
S'patient'
p631
S'NNS'
p632
S'I-NP'
p633
g5
tp634
a(g165
g165
g165
g5
g5
tp635
a(g77
g77
g77
g5
g5
tp636
a(S'No'
p637
S'No'
p638
S'DT'
p639
S'B-NP'
p640
g5
tp641
a(S'patients'
p642
S'patient'
p643
S'NNS'
p644
S'I-NP'
p645
g5
tp646
a(S'had'
p647
S'have'
p648
S'VBD'
p649
S'B-VP'
p650
g5
tp651
a(S'sustained'
p652
S'sustained'
p653
S'JJ'
p654
S'B-NP'
p655
g5
tp656
a(S'postbaseline'
p657
S'postbaseline'
p658
S'JJ'
p659
S'I-NP'
p660
g5
tp661
a(S'ventricular'
p662
S'ventricular'
p663
S'JJ'
p664
S'I-NP'
p665
g5
tp666
a(S'tachycardia'
p667
S'tachycardia'
p668
S'NN'
p669
S'I-NP'
p670
g5
tp671
a(S'events'
p672
S'event'
p673
S'NNS'
p674
S'I-NP'
p675
g5
tp676
a(g230
g230
g230
g5
g5
tp677
a(S'postbaseline'
p678
S'postbaseline'
p679
S'JJ'
p680
S'B-NP'
p681
g5
tp682
a(S'run'
p683
S'run'
p684
S'NN'
p685
S'I-NP'
p686
g5
tp687
a(S'of'
p688
S'of'
p689
S'IN'
p690
S'B-PP'
p691
g5
tp692
a(S'ventricular'
p693
S'ventricular'
p694
S'JJ'
p695
S'B-NP'
p696
g5
tp697
a(S'ectopic'
p698
S'ectopic'
p699
S'JJ'
p700
S'I-NP'
p701
g5
tp702
a(S'beats'
p703
S'beat'
p704
S'NNS'
p705
S'I-NP'
p706
g5
tp707
a(S'associated'
p708
S'associate'
p709
S'VBN'
p710
S'B-VP'
p711
g5
tp712
a(S'with'
p713
S'with'
p714
S'IN'
p715
S'B-PP'
p716
g5
tp717
a(S'relevant'
p718
S'relevant'
p719
S'JJ'
p720
S'B-NP'
p721
g5
tp722
a(S'symptoms'
p723
S'symptom'
p724
S'NNS'
p725
S'I-NP'
p726
g5
tp727
a(g159
g159
g159
g5
g5
tp728
a(S'e.g.'
p729
S'e.g.'
p730
S'FW'
p731
S'B-NP'
p732
g5
tp733
a(S'hypotension'
p734
S'hypotension'
p735
S'NN'
p736
S'I-NP'
p737
g5
tp738
a(g230
g230
g230
g5
g5
tp739
a(S'syncope'
p740
S'syncope'
p741
S'NN'
p742
S'B-NP'
p743
g5
tp744
a(g165
g165
g165
g5
g5
tp745
a(g230
g230
g230
g5
g5
tp746
a(S'or'
p747
S'or'
p748
S'CC'
p749
g5
g5
tp750
a(S'an'
p751
S'an'
p752
S'DT'
p753
S'B-NP'
p754
g5
tp755
a(S'episode'
p756
S'episode'
p757
S'NN'
p758
S'I-NP'
p759
g5
tp760
a(S'of'
p761
S'of'
p762
S'IN'
p763
S'B-PP'
p764
g5
tp765
a(S'ventricular'
p766
S'ventricular'
p767
S'JJ'
p768
S'B-NP'
p769
g5
tp770
a(S'flutter'
p771
S'flutter'
p772
S'NN'
p773
S'I-NP'
p774
g5
tp775
a(S'or'
p776
S'or'
p777
S'CC'
p778
S'I-NP'
p779
g5
tp780
a(S'fibrillation.'
p781
S'fibrillation.'
p782
S'NN'
p783
S'I-NP'
p784
g5
tp785
a(S'Holter'
p786
S'Holter'
p787
S'NNP'
p788
S'I-NP'
p789
g5
tp790
a(S'monitoring'
p791
S'monitor'
p792
S'VBG'
p793
S'I-NP'
p794
g5
tp795
a(S'data'
p796
S'datum'
p797
S'NNS'
p798
S'I-NP'
p799
g5
tp800
a(S'were'
p801
S'be'
p802
S'VBD'
p803
S'B-VP'
p804
g5
tp805
a(S'variable'
p806
S'variable'
p807
S'JJ'
p808
S'B-ADJP'
p809
g5
tp810
a(S'but'
p811
S'but'
p812
S'CC'
p813
g5
g5
tp814
a(S'showed'
p815
S'show'
p816
S'VBD'
p817
S'B-VP'
p818
g5
tp819
a(S'no'
p820
S'no'
p821
S'DT'
p822
S'B-NP'
p823
g5
tp824
a(S'clinically'
p825
S'clinically'
p826
S'RB'
p827
S'I-NP'
p828
g5
tp829
a(S'meaningful'
p830
S'meaningful'
p831
S'JJ'
p832
S'I-NP'
p833
g5
tp834
a(S'differences'
p835
S'difference'
p836
S'NNS'
p837
S'I-NP'
p838
g5
tp839
a(S'between'
p840
S'between'
p841
S'IN'
p842
S'B-PP'
p843
g5
tp844
a(S'the'
p845
S'the'
p846
S'DT'
p847
S'B-NP'
p848
g5
tp849
a(S'formoterol'
p850
S'formoterol'
p851
S'NN'
p852
S'I-NP'
p853
g5
tp854
a(S'and'
p855
S'and'
p856
S'CC'
p857
S'I-NP'
p858
g5
tp859
a(S'placebo'
p860
S'placebo'
p861
S'NN'
p862
S'I-NP'
p863
g5
tp864
a(S'groups'
p865
S'group'
p866
S'NNS'
p867
S'I-NP'
p868
g5
tp869
a(g230
g230
g230
g5
g5
tp870
a(S'respectively'
p871
S'respectively'
p872
S'RB'
p873
S'B-ADVP'
p874
g5
tp875
a(g230
g230
g230
g5
g5
tp876
a(S'for'
p877
S'for'
p878
S'IN'
p879
S'B-PP'
p880
g5
tp881
a(S'variables'
p882
S'variable'
p883
S'NNS'
p884
S'B-NP'
p885
g5
tp886
a(S'such'
p887
S'such'
p888
S'JJ'
p889
S'B-PP'
p890
g5
tp891
a(S'as'
p892
S'as'
p893
S'IN'
p894
S'I-PP'
p895
g5
tp896
a(g159
g159
g159
g5
g5
tp897
a(S'mean+/-SD'
p898
S'mean+/-SD'
p899
S'NN'
p900
S'B-NP'
p901
g5
tp902
a(S'at'
p903
S'at'
p904
S'IN'
p905
S'B-PP'
p906
g5
tp907
a(S'end'
p908
S'end'
p909
S'NN'
p910
S'B-NP'
p911
g5
tp912
a(S'of'
p913
S'of'
p914
S'IN'
p915
S'B-PP'
p916
g5
tp917
a(S'treatment'
p918
S'treatment'
p919
S'NN'
p920
S'B-NP'
p921
g5
tp922
a(g165
g165
g165
g5
g5
tp923
a(S':'
p924
g924
g924
g5
g5
tp925
a(S'heart'
p926
S'heart'
p927
S'NN'
p928
S'B-NP'
p929
g5
tp930
a(S'rate'
p931
S'rate'
p932
S'NN'
p933
S'I-NP'
p934
g5
tp935
a(g159
g159
g159
g5
g5
tp936
a(S'80+/-8.6'
p937
S'80+/-8.6'
p938
S'CD'
p939
S'B-NP'
p940
g5
tp941
a(S'vs.'
p942
S'vs.'
p943
S'IN'
p944
S'B-PP'
p945
g5
tp946
a(S'80+/-10.6'
p947
S'80+/-10.6'
p948
S'CD'
p949
S'B-NP'
p950
g5
tp951
a(S'bpm'
p952
S'bpm'
p953
S'NN'
p954
S'I-NP'
p955
g5
tp956
a(g165
g165
g165
g5
g5
tp957
a(g230
g230
g230
g5
g5
tp958
a(S'number'
p959
S'number'
p960
S'NN'
p961
S'B-NP'
p962
g5
tp963
a(S'and'
p964
S'and'
p965
S'CC'
p966
S'I-NP'
p967
g5
tp968
a(S'rate'
p969
S'rate'
p970
S'NN'
p971
S'I-NP'
p972
g5
tp973
a(S'of'
p974
S'of'
p975
S'IN'
p976
S'B-PP'
p977
g5
tp978
a(S'ventricular'
p979
S'ventricular'
p980
S'JJ'
p981
S'B-NP'
p982
g5
tp983
a(S'premature'
p984
S'premature'
p985
S'JJ'
p986
S'I-NP'
p987
g5
tp988
a(S'beats'
p989
S'beat'
p990
S'NNS'
p991
S'I-NP'
p992
g5
tp993
a(g159
g159
g159
g5
g5
tp994
a(S'total'
p995
S'total'
p996
S'NN'
p997
S'B-NP'
p998
g5
tp999
a(S'732+/-2685.4'
p1000
S'732+/-2685.4'
p1001
S'CD'
p1002
S'I-NP'
p1003
g5
tp1004
a(S'vs.'
p1005
S'vs.'
p1006
S'CC'
p1007
S'B-PP'
p1008
g5
tp1009
a(S'650+/-2090.6'
p1010
S'650+/-2090.6'
p1011
S'CD'
p1012
S'B-NP'
p1013
g5
tp1014
a(S';'
p1015
g1015
g924
g5
g5
tp1016
a(S'rate'
p1017
S'rate'
p1018
S'NN'
p1019
S'B-NP'
p1020
g5
tp1021
a(S'35+/-131.0'
p1022
S'35+/-131.0'
p1023
S'CD'
p1024
S'I-NP'
p1025
g5
tp1026
a(S'vs.'
p1027
S'vs.'
p1028
S'IN'
p1029
S'B-PP'
p1030
g5
tp1031
a(S'30+/-101.3'
p1032
S'30+/-101.3'
p1033
S'CD'
p1034
S'B-NP'
p1035
g5
tp1036
a(S'per'
p1037
S'per'
p1038
S'IN'
p1039
S'B-PP'
p1040
g5
tp1041
a(S'h'
p1042
g1042
S'NN'
p1043
S'B-NP'
p1044
g5
tp1045
a(g165
g165
g165
g5
g5
tp1046
a(g230
g230
g230
g5
g5
tp1047
a(S'ventricular'
p1048
S'ventricular'
p1049
S'JJ'
p1050
S'B-NP'
p1051
g5
tp1052
a(S'tachycardia'
p1053
S'tachycardia'
p1054
S'NN'
p1055
S'I-NP'
p1056
g5
tp1057
a(S'events'
p1058
S'event'
p1059
S'NNS'
p1060
S'I-NP'
p1061
g5
tp1062
a(g159
g159
g159
g5
g5
tp1063
a(S'total'
p1064
S'total'
p1065
S'NN'
p1066
S'B-NP'
p1067
g5
tp1068
a(S'0.4+/-1.70'
p1069
S'0.4+/-1.70'
p1070
S'CD'
p1071
S'I-NP'
p1072
g5
tp1073
a(S'vs.'
p1074
S'vs.'
p1075
S'CC'
p1076
S'B-PP'
p1077
g5
tp1078
a(S'1.0+/-9.23'
p1079
S'1.0+/-9.23'
p1080
S'CD'
p1081
S'B-NP'
p1082
g5
tp1083
a(g1015
g1015
g924
g5
g5
tp1084
a(S'rate'
p1085
S'rate'
p1086
S'NN'
p1087
S'B-NP'
p1088
g5
tp1089
a(S'0.02+/-0.082'
p1090
S'0.02+/-0.082'
p1091
S'CD'
p1092
S'I-NP'
p1093
g5
tp1094
a(S'vs.'
p1095
S'vs.'
p1096
S'IN'
p1097
S'B-PP'
p1098
g5
tp1099
a(S'0.05+/-0.479'
p1100
S'0.05+/-0.479'
p1101
S'CD'
p1102
S'B-NP'
p1103
g5
tp1104
a(S'per'
p1105
S'per'
p1106
S'IN'
p1107
S'B-PP'
p1108
g5
tp1109
a(g1042
g1042
S'NN'
p1110
S'B-NP'
p1111
g5
tp1112
a(g165
g165
g165
g5
g5
tp1113
a(g230
g230
g230
g5
g5
tp1114
a(S'and'
p1115
S'and'
p1116
S'CC'
p1117
g5
g5
tp1118
a(S'supraventricular'
p1119
S'supraventricular'
p1120
S'JJ'
p1121
S'B-NP'
p1122
g5
tp1123
a(S'premature'
p1124
S'premature'
p1125
S'JJ'
p1126
S'I-NP'
p1127
g5
tp1128
a(S'beats'
p1129
S'beat'
p1130
S'NNS'
p1131
S'I-NP'
p1132
g5
tp1133
a(g159
g159
g159
g5
g5
tp1134
a(S'total'
p1135
S'total'
p1136
S'NN'
p1137
S'B-NP'
p1138
g5
tp1139
a(S'504+/-1844.1'
p1140
S'504+/-1844.1'
p1141
S'CD'
p1142
S'I-NP'
p1143
g5
tp1144
a(S'vs.'
p1145
S'vs.'
p1146
S'CC'
p1147
S'B-PP'
p1148
g5
tp1149
a(S'823+/-2961.8'
p1150
S'823+/-2961.8'
p1151
S'CD'
p1152
S'B-NP'
p1153
g5
tp1154
a(g1015
g1015
g924
g5
g5
tp1155
a(S'rate'
p1156
S'rate'
p1157
S'NN'
p1158
S'B-NP'
p1159
g5
tp1160
a(S'22+/-80.6'
p1161
S'22+/-80.6'
p1162
S'CD'
p1163
S'I-NP'
p1164
g5
tp1165
a(S'vs.'
p1166
S'vs.'
p1167
S'IN'
p1168
S'B-PP'
p1169
g5
tp1170
a(S'37+/-129.6'
p1171
S'37+/-129.6'
p1172
S'CD'
p1173
S'B-NP'
p1174
g5
tp1175
a(S'per'
p1176
S'per'
p1177
S'IN'
p1178
S'B-PP'
p1179
g5
tp1180
a(g1042
g1042
S'NN'
p1181
S'B-NP'
p1182
g5
tp1183
a(g165
g165
g165
g5
g5
tp1184
a(g77
g77
g77
g5
g5
tp1185
a(S'Vital'
p1186
S'Vital'
p1187
S'JJ'
p1188
S'B-NP'
p1189
g5
tp1190
a(S'signs'
p1191
S'sign'
p1192
S'NNS'
p1193
S'I-NP'
p1194
g5
tp1195
a(S'and'
p1196
S'and'
p1197
S'CC'
p1198
g5
g5
tp1199
a(S'electrocardiogram'
p1200
S'electrocardiogram'
p1201
S'NN'
p1202
S'B-NP'
p1203
g5
tp1204
a(S'data'
p1205
S'datum'
p1206
S'NNS'
p1207
S'I-NP'
p1208
g5
tp1209
a(g230
g230
g230
g5
g5
tp1210
a(S'including'
p1211
S'include'
p1212
S'VBG'
p1213
S'B-PP'
p1214
g5
tp1215
a(S'corrected'
p1216
S'correct'
p1217
S'VBN'
p1218
S'B-NP'
p1219
g5
tp1220
a(S'QT'
p1221
S'QT'
p1222
S'NN'
p1223
S'I-NP'
p1224
g5
tp1225
a(S'intervals'
p1226
S'interval'
p1227
S'NNS'
p1228
S'I-NP'
p1229
g5
tp1230
a(g159
g159
g159
g5
g5
tp1231
a(S'Bazett'
p1232
S'Bazett'
p1233
S'NNP'
p1234
S'B-NP'
p1235
g5
tp1236
a(S'and'
p1237
S'and'
p1238
S'CC'
p1239
S'I-NP'
p1240
g5
tp1241
a(S'Fridericia'
p1242
S'Fridericia'
p1243
S'NNP'
p1244
S'I-NP'
p1245
g5
tp1246
a(g165
g165
g165
g5
g5
tp1247
a(g230
g230
g230
g5
g5
tp1248
a(S'were'
p1249
S'be'
p1250
S'VBD'
p1251
S'B-VP'
p1252
g5
tp1253
a(S'similar'
p1254
S'similar'
p1255
S'JJ'
p1256
S'B-ADJP'
p1257
g5
tp1258
a(S'across'
p1259
S'across'
p1260
S'IN'
p1261
S'B-PP'
p1262
g5
tp1263
a(S'treatment'
p1264
S'treatment'
p1265
S'NN'
p1266
S'B-NP'
p1267
g5
tp1268
a(S'groups.'
p1269
S'groups.'
p1270
S'NNS'
p1271
S'I-NP'
p1272
g5
tp1273
a(S'The'
p1274
S'The'
p1275
S'DT'
p1276
S'B-NP'
p1277
g5
tp1278
a(S'overall'
p1279
S'overall'
p1280
S'JJ'
p1281
S'I-NP'
p1282
g5
tp1283
a(S'adverse'
p1284
S'adverse'
p1285
S'JJ'
p1286
S'I-NP'
p1287
g5
tp1288
a(S'event'
p1289
S'event'
p1290
S'NN'
p1291
S'I-NP'
p1292
g5
tp1293
a(S'experience'
p1294
S'experience'
p1295
S'NN'
p1296
S'I-NP'
p1297
g5
tp1298
a(S'was'
p1299
S'be'
p1300
S'VBD'
p1301
S'B-VP'
p1302
g5
tp1303
a(S'similar'
p1304
S'similar'
p1305
S'JJ'
p1306
S'B-ADJP'
p1307
g5
tp1308
a(S'in'
p1309
S'in'
p1310
S'IN'
p1311
S'B-PP'
p1312
g5
tp1313
a(S'the'
p1314
S'the'
p1315
S'DT'
p1316
S'B-NP'
p1317
g5
tp1318
a(S'formoterol'
p1319
S'formoterol'
p1320
S'NN'
p1321
S'I-NP'
p1322
g5
tp1323
a(g159
g159
g159
g5
g5
tp1324
a(S'n=26'
p1325
S'n=26'
p1326
S'NN'
p1327
S'B-NP'
p1328
g5
tp1329
a(S'['
p1330
g1330
g159
g5
g5
tp1331
a(S'27'
p1332
S'27'
p1333
S'CD'
p1334
S'B-NP'
p1335
g5
tp1336
a(S'%'
p1337
g1337
S'NN'
p1338
S'I-NP'
p1339
g5
tp1340
a(S']'
p1341
g1341
g165
g5
g5
tp1342
a(g165
g165
g165
g5
g5
tp1343
a(S'and'
p1344
S'and'
p1345
S'CC'
p1346
g5
g5
tp1347
a(S'placebo'
p1348
S'placebo'
p1349
S'NN'
p1350
S'B-NP'
p1351
g5
tp1352
a(g159
g159
g159
g5
g5
tp1353
a(S'n=33'
p1354
S'n=33'
p1355
S'NN'
p1356
S'B-NP'
p1357
g5
tp1358
a(g1330
g1330
g159
g5
g5
tp1359
a(S'31'
p1360
S'31'
p1361
S'CD'
p1362
S'B-NP'
p1363
g5
tp1364
a(g1337
g1337
S'NN'
p1365
S'I-NP'
p1366
g5
tp1367
a(g1341
g1341
g165
g5
g5
tp1368
a(g165
g165
g165
g5
g5
tp1369
a(S'groups.'
p1370
S'groups.'
p1371
S'NNS'
p1372
S'B-NP'
p1373
g5
tp1374
a(S'The'
p1375
S'The'
p1376
S'DT'
p1377
S'B-NP'
p1378
g5
tp1379
a(S'most'
p1380
S'most'
p1381
S'RBS'
p1382
S'I-NP'
p1383
g5
tp1384
a(S'common'
p1385
S'common'
p1386
S'JJ'
p1387
S'I-NP'
p1388
g5
tp1389
a(S'adverse'
p1390
S'adverse'
p1391
S'JJ'
p1392
S'I-NP'
p1393
g5
tp1394
a(S'events'
p1395
S'event'
p1396
S'NNS'
p1397
S'I-NP'
p1398
g5
tp1399
a(g230
g230
g230
g5
g5
tp1400
a(S'infections'
p1401
S'infection'
p1402
S'NNS'
p1403
S'B-NP'
p1404
g5
tp1405
a(S'and'
p1406
S'and'
p1407
S'CC'
p1408
g5
g5
tp1409
a(S'respiratory'
p1410
S'respiratory'
p1411
S'JJ'
p1412
S'B-NP'
p1413
g5
tp1414
a(S'events'
p1415
S'event'
p1416
S'NNS'
p1417
S'I-NP'
p1418
g5
tp1419
a(g230
g230
g230
g5
g5
tp1420
a(S'were'
p1421
S'be'
p1422
S'VBD'
p1423
S'B-VP'
p1424
g5
tp1425
a(S'expected'
p1426
S'expect'
p1427
S'VBN'
p1428
S'I-VP'
p1429
g5
tp1430
a(S'for'
p1431
S'for'
p1432
S'IN'
p1433
S'B-PP'
p1434
g5
tp1435
a(S'this'
p1436
S'this'
p1437
S'DT'
p1438
S'B-NP'
p1439
g5
tp1440
a(S'patient'
p1441
S'patient'
p1442
S'NN'
p1443
S'I-NP'
p1444
g5
tp1445
a(S'population.'
p1446
S'population.'
p1447
S'NN'
p1448
S'I-NP'
p1449
g5
tp1450
a(S'The'
p1451
S'The'
p1452
S'DT'
p1453
S'B-NP'
p1454
g5
tp1455
a(S'incidence'
p1456
S'incidence'
p1457
S'NN'
p1458
S'I-NP'
p1459
g5
tp1460
a(S'of'
p1461
S'of'
p1462
S'IN'
p1463
S'B-PP'
p1464
g5
tp1465
a(S'cardiac'
p1466
S'cardiac'
p1467
S'JJ'
p1468
S'B-NP'
p1469
g5
tp1470
a(S'adverse'
p1471
S'adverse'
p1472
S'JJ'
p1473
S'I-NP'
p1474
g5
tp1475
a(S'events'
p1476
S'event'
p1477
S'NNS'
p1478
S'I-NP'
p1479
g5
tp1480
a(S'was'
p1481
S'be'
p1482
S'VBD'
p1483
S'B-VP'
p1484
g5
tp1485
a(S'low'
p1486
S'low'
p1487
S'JJ'
p1488
S'B-ADJP'
p1489
g5
tp1490
a(g159
g159
g159
g5
g5
tp1491
a(S'1'
p1492
g1492
S'CD'
p1493
S'B-NP'
p1494
g5
tp1495
a(S'formoterol'
p1496
S'formoterol'
p1497
S'NN'
p1498
S'I-NP'
p1499
g5
tp1500
a(S'and'
p1501
S'and'
p1502
S'CC'
p1503
g5
g5
tp1504
a(g609
g609
S'CD'
p1505
S'B-NP'
p1506
g5
tp1507
a(S'placebo'
p1508
S'placebo'
p1509
S'NN'
p1510
S'I-NP'
p1511
g5
tp1512
a(S'patients'
p1513
S'patient'
p1514
S'NNS'
p1515
S'I-NP'
p1516
g5
tp1517
a(g165
g165
g165
g5
g5
tp1518
a(g77
g77
g77
g5
g5
tp1519
a(S'CONCLUSIONS'
p1520
S'CONCLUSIONS'
p1521
S'NNS'
p1522
S'B-NP'
p1523
g5
tp1524
a(S'The'
p1525
S'The'
p1526
S'DT'
p1527
S'B-NP'
p1528
g5
tp1529
a(S'results'
p1530
S'result'
p1531
S'NNS'
p1532
S'I-NP'
p1533
g5
tp1534
a(S'of'
p1535
S'of'
p1536
S'IN'
p1537
S'B-PP'
p1538
g5
tp1539
a(S'this'
p1540
S'this'
p1541
S'DT'
p1542
S'B-NP'
p1543
g5
tp1544
a(S'study'
p1545
S'study'
p1546
S'NN'
p1547
S'I-NP'
p1548
g5
tp1549
a(S'confirm'
p1550
S'confirm'
p1551
S'VBP'
p1552
S'B-VP'
p1553
g5
tp1554
a(S'the'
p1555
S'the'
p1556
S'DT'
p1557
S'B-NP'
p1558
g5
tp1559
a(S'good'
p1560
S'good'
p1561
S'JJ'
p1562
S'I-NP'
p1563
g5
tp1564
a(S'cardiovascular'
p1565
S'cardiovascular'
p1566
S'JJ'
p1567
S'I-NP'
p1568
g5
tp1569
a(S'safety'
p1570
S'safety'
p1571
S'NN'
p1572
S'I-NP'
p1573
g5
tp1574
a(S'profile'
p1575
S'profile'
p1576
S'NN'
p1577
S'I-NP'
p1578
g5
tp1579
a(S'of'
p1580
S'of'
p1581
S'IN'
p1582
S'B-PP'
p1583
g5
tp1584
a(S'formoterol'
p1585
S'formoterol'
p1586
S'NN'
p1587
S'B-NP'
p1588
g5
tp1589
a(S'in'
p1590
S'in'
p1591
S'IN'
p1592
S'B-PP'
p1593
g5
tp1594
a(S'patients'
p1595
S'patient'
p1596
S'NNS'
p1597
S'B-NP'
p1598
g5
tp1599
a(S'with'
p1600
S'with'
p1601
S'IN'
p1602
S'B-PP'
p1603
g5
tp1604
a(S'COPD'
p1605
S'COPD'
p1606
S'NN'
p1607
S'B-NP'
p1608
g5
tp1609
a(g77
g77
g77
g5
g5
tp1610
a.