(lp0
(S'A'
p1
g1
S'DT'
p2
S'B-NP'
p3
S'O'
p4
tp5
a(S'randomized'
p6
S'randomize'
p7
S'VBN'
p8
S'I-NP'
p9
g4
tp10
a(S'comparative'
p11
S'comparative'
p12
S'JJ'
p13
S'I-NP'
p14
g4
tp15
a(S'trial'
p16
S'trial'
p17
S'NN'
p18
S'I-NP'
p19
g4
tp20
a(S'of'
p21
S'of'
p22
S'IN'
p23
S'B-PP'
p24
g4
tp25
a(S'combined'
p26
S'combine'
p27
S'VBN'
p28
S'B-VP'
p29
g4
tp30
a(S'versus'
p31
S'versus'
p32
S'IN'
p33
S'B-PP'
p34
g4
tp35
a(S'alternating'
p36
S'alternate'
p37
S'VBG'
p38
S'B-VP'
p39
g4
tp40
a(S'therapy'
p41
S'therapy'
p42
S'NN'
p43
S'B-NP'
p44
g4
tp45
a(S'with'
p46
S'with'
p47
S'IN'
p48
S'B-PP'
p49
g4
tp50
a(S'cytostatic'
p51
S'cytostatic'
p52
S'JJ'
p53
S'B-NP'
p54
g4
tp55
a(S'drugs'
p56
S'drug'
p57
S'NNS'
p58
S'I-NP'
p59
g4
tp60
a(S'and'
p61
S'and'
p62
S'CC'
p63
g4
g4
tp64
a(S'high-dose'
p65
S'high-dose'
p66
S'JJ'
p67
S'B-NP'
p68
g4
tp69
a(S'medroxyprogesteron'
p70
S'medroxyprogesteron'
p71
S'NN'
p72
S'I-NP'
p73
g4
tp74
a(S'acetate'
p75
S'acetate'
p76
S'NN'
p77
S'I-NP'
p78
g4
tp79
a(S'in'
p80
S'in'
p81
S'IN'
p82
S'B-PP'
p83
g4
tp84
a(S'advanced'
p85
S'advance'
p86
S'VBN'
p87
S'B-NP'
p88
g4
tp89
a(S'breast'
p90
S'breast'
p91
S'NN'
p92
S'I-NP'
p93
g4
tp94
a(S'cancer'
p95
S'cancer'
p96
S'NN'
p97
S'I-NP'
p98
g4
tp99
a(S'.'
p100
g100
g100
g4
g4
tp101
a(g1
g1
S'DT'
p102
S'B-NP'
p103
g4
tp104
a(S'prospective'
p105
S'prospective'
p106
S'JJ'
p107
S'I-NP'
p108
g4
tp109
a(S'multicenter'
p110
S'multicenter'
p111
S'JJ'
p112
S'I-NP'
p113
g4
tp114
a(S'trial'
p115
S'trial'
p116
S'NN'
p117
S'I-NP'
p118
g4
tp119
a(S'was'
p120
S'be'
p121
S'VBD'
p122
S'B-VP'
p123
g4
tp124
a(S'conducted'
p125
S'conduct'
p126
S'VBN'
p127
S'I-VP'
p128
g4
tp129
a(S'in'
p130
S'in'
p131
S'IN'
p132
S'B-PP'
p133
g4
tp134
a(S'155'
p135
S'155'
p136
S'CD'
p137
S'B-NP'
p138
g4
tp139
a(S'consecutive'
p140
S'consecutive'
p141
S'JJ'
p142
S'I-NP'
p143
g4
tp144
a(S'patients'
p145
S'patient'
p146
S'NNS'
p147
S'I-NP'
p148
g4
tp149
a(S'with'
p150
S'with'
p151
S'IN'
p152
S'B-PP'
p153
g4
tp154
a(S'Stage'
p155
S'Stage'
p156
S'NN'
p157
S'B-NP'
p158
g4
tp159
a(S'IV'
p160
S'IV'
p161
S'CD'
p162
S'I-NP'
p163
g4
tp164
a(S'breast'
p165
S'breast'
p166
S'NN'
p167
S'I-NP'
p168
g4
tp169
a(S'cancer'
p170
S'cancer'
p171
S'NN'
p172
S'I-NP'
p173
g4
tp174
a(S'randomly'
p175
S'randomly'
p176
S'RB'
p177
S'B-VP'
p178
g4
tp179
a(S'allocated'
p180
S'allocate'
p181
S'VBN'
p182
S'I-VP'
p183
g4
tp184
a(S'to'
p185
S'to'
p186
S'TO'
p187
S'B-VP'
p188
g4
tp189
a(S'receive'
p190
S'receive'
p191
S'VB'
p192
S'I-VP'
p193
g4
tp194
a(S'either'
p195
S'either'
p196
S'CC'
p197
g4
g4
tp198
a(S'('
p199
g199
g199
g4
g4
tp200
a(S'1'
p201
g201
S'LS'
p202
S'I-LST'
p203
g4
tp204
a(S')'
p205
g205
g205
g4
g4
tp206
a(S'vincristin'
p207
S'vincristin'
p208
S'NN'
p209
S'B-NP'
p210
g4
tp211
a(g199
g199
g199
g4
g4
tp212
a(S'V'
p213
g213
S'NN'
p214
S'B-NP'
p215
g4
tp216
a(g205
g205
g205
g4
g4
tp217
a(S'1.2'
p218
S'1.2'
p219
S'CD'
p220
S'B-NP'
p221
g4
tp222
a(S'mg/m2'
p223
S'mg/m2'
p224
S'NN'
p225
S'I-NP'
p226
g4
tp227
a(g199
g199
g199
g4
g4
tp228
a(S'maximum'
p229
S'maximum'
p230
S'JJ'
p231
S'B-NP'
p232
g4
tp233
a(S'dose'
p234
S'dose'
p235
S'NN'
p236
S'I-NP'
p237
g4
tp238
a(S','
p239
g239
g239
g4
g4
tp240
a(S'2'
p241
g241
S'CD'
p242
S'B-NP'
p243
g4
tp244
a(S'mg'
p245
S'mg'
p246
S'NN'
p247
S'I-NP'
p248
g4
tp249
a(g205
g205
g205
g4
g4
tp250
a(g239
g239
g239
g4
g4
tp251
a(S'Adriamycin'
p252
S'Adriamycin'
p253
S'NN'
p254
S'B-NP'
p255
g4
tp256
a(g199
g199
g199
g4
g4
tp257
a(g1
g1
S'NN'
p258
S'B-NP'
p259
g4
tp260
a(g205
g205
g205
g4
g4
tp261
a(g199
g199
g199
g4
g4
tp262
a(S'doxorubicin'
p263
S'doxorubicin'
p264
S'NN'
p265
S'B-NP'
p266
g4
tp267
a(g205
g205
g205
g4
g4
tp268
a(S'40'
p269
S'40'
p270
S'CD'
p271
S'B-NP'
p272
g4
tp273
a(S'mg/m2'
p274
S'mg/m2'
p275
S'NN'
p276
S'I-NP'
p277
g4
tp278
a(g239
g239
g239
g4
g4
tp279
a(S'and'
p280
S'and'
p281
S'CC'
p282
g4
g4
tp283
a(S'cyclophosphamide'
p284
S'cyclophosphamide'
p285
S'NN'
p286
S'B-NP'
p287
S'B-protein'
p288
tp289
a(g199
g199
g199
g4
S'I-protein'
p290
tp291
a(S'C'
p292
g292
S'NN'
p293
S'B-NP'
p294
S'I-protein'
p295
tp296
a(g205
g205
g205
g4
S'I-protein'
p297
tp298
a(S'500'
p299
S'500'
p300
S'CD'
p301
S'B-NP'
p302
S'I-protein'
p303
tp304
a(S'mg/m2'
p305
S'mg/m2'
p306
S'NN'
p307
S'I-NP'
p308
S'I-protein'
p309
tp310
a(g239
g239
g239
g4
g4
tp311
a(S'all'
p312
S'all'
p313
S'RB'
p314
S'B-ADVP'
p315
g4
tp316
a(S'intravenously'
p317
S'intravenously'
p318
S'RB'
p319
S'I-ADVP'
p320
g4
tp321
a(S'on'
p322
S'on'
p323
S'IN'
p324
S'B-PP'
p325
g4
tp326
a(S'day'
p327
S'day'
p328
S'NN'
p329
S'B-NP'
p330
g4
tp331
a(g201
g201
S'CD'
p332
S'I-NP'
p333
g4
tp334
a(g239
g239
g239
g4
g4
tp335
a(S'every'
p336
S'every'
p337
S'DT'
p338
S'B-NP'
p339
g4
tp340
a(S'4'
p341
g341
S'CD'
p342
S'I-NP'
p343
g4
tp344
a(S'weeks'
p345
S'week'
p346
S'NNS'
p347
S'I-NP'
p348
g4
tp349
a(g239
g239
g239
g4
g4
tp350
a(S'in'
p351
S'in'
p352
S'IN'
p353
S'B-PP'
p354
g4
tp355
a(S'combination'
p356
S'combination'
p357
S'NN'
p358
S'B-NP'
p359
g4
tp360
a(S'with'
p361
S'with'
p362
S'IN'
p363
S'B-PP'
p364
g4
tp365
a(S'medroxyprogesteron'
p366
S'medroxyprogesteron'
p367
S'NN'
p368
S'B-NP'
p369
g4
tp370
a(S'acetate'
p371
S'acetate'
p372
S'NN'
p373
S'I-NP'
p374
g4
tp375
a(g199
g199
g199
g4
g4
tp376
a(S'MPA'
p377
S'MPA'
p378
S'NN'
p379
S'B-NP'
p380
g4
tp381
a(g205
g205
g205
g4
g4
tp382
a(S'600'
p383
S'600'
p384
S'CD'
p385
S'B-NP'
p386
g4
tp387
a(S'mg'
p388
S'mg'
p389
S'NN'
p390
S'I-NP'
p391
g4
tp392
a(S'orally'
p393
S'orally'
p394
S'RB'
p395
S'B-ADVP'
p396
g4
tp397
a(S'on'
p398
S'on'
p399
S'IN'
p400
S'B-PP'
p401
g4
tp402
a(S'days'
p403
S'day'
p404
S'NNS'
p405
S'B-NP'
p406
g4
tp407
a(g201
g201
S'CD'
p408
S'I-NP'
p409
g4
tp410
a(S'through'
p411
S'through'
p412
S'IN'
p413
S'B-PP'
p414
g4
tp415
a(S'14'
p416
S'14'
p417
S'CD'
p418
S'B-NP'
p419
g4
tp420
a(g239
g239
g239
g4
g4
tp421
a(S'500'
p422
S'500'
p423
S'CD'
p424
S'B-NP'
p425
g4
tp426
a(S'mg'
p427
S'mg'
p428
S'NN'
p429
S'I-NP'
p430
g4
tp431
a(S'intramuscularly'
p432
S'intramuscularly'
p433
S'RB'
p434
S'B-ADVP'
p435
g4
tp436
a(S'on'
p437
S'on'
p438
S'IN'
p439
S'B-PP'
p440
g4
tp441
a(S'days'
p442
S'day'
p443
S'NNS'
p444
S'B-NP'
p445
g4
tp446
a(g201
g201
S'CD'
p447
S'I-NP'
p448
g4
tp449
a(S'through'
p450
S'through'
p451
S'IN'
p452
S'B-PP'
p453
g4
tp454
a(S'28'
p455
S'28'
p456
S'CD'
p457
S'B-NP'
p458
g4
tp459
a(g239
g239
g239
g4
g4
tp460
a(S'and'
p461
S'and'
p462
S'CC'
p463
g4
g4
tp464
a(S'twice'
p465
S'twice'
p466
S'RB'
p467
S'B-NP'
p468
g4
tp469
a(S'weekly'
p470
S'weekly'
p471
S'JJ'
p472
S'I-NP'
p473
g4
tp474
a(S'afterwards'
p475
S'afterward'
p476
S'NNS'
p477
S'I-NP'
p478
g4
tp479
a(g199
g199
g199
g4
g4
tp480
a(S'combined'
p481
S'combine'
p482
S'VBN'
p483
S'B-NP'
p484
g4
tp485
a(S'chemoendocrine'
p486
S'chemoendocrine'
p487
S'JJ'
p488
S'I-NP'
p489
g4
tp490
a(S'approach'
p491
S'approach'
p492
S'NN'
p493
S'I-NP'
p494
g4
tp495
a(g205
g205
g205
g4
g4
tp496
a(S'or'
p497
S'or'
p498
S'CC'
p499
g4
g4
tp500
a(g199
g199
g199
S'B-LST'
p501
g4
tp502
a(g241
g241
S'LS'
p503
S'I-LST'
p504
g4
tp505
a(g205
g205
g205
g4
g4
tp506
a(S'the'
p507
S'the'
p508
S'DT'
p509
S'B-NP'
p510
g4
tp511
a(S'same'
p512
S'same'
p513
S'JJ'
p514
S'I-NP'
p515
g4
tp516
a(S'combination'
p517
S'combination'
p518
S'NN'
p519
S'I-NP'
p520
g4
tp521
a(S'chemotherapy'
p522
S'chemotherapy'
p523
S'NN'
p524
S'I-NP'
p525
g4
tp526
a(g199
g199
g199
g4
g4
tp527
a(S'VAC'
p528
S'VAC'
p529
S'NN'
p530
S'B-NP'
p531
g4
tp532
a(g205
g205
g205
g4
g4
tp533
a(S'for'
p534
S'for'
p535
S'IN'
p536
S'B-PP'
p537
g4
tp538
a(S'three'
p539
S'three'
p540
S'CD'
p541
S'B-NP'
p542
g4
tp543
a(S'cycles'
p544
S'cycle'
p545
S'NNS'
p546
S'I-NP'
p547
g4
tp548
a(S'alternating'
p549
S'alternate'
p550
S'VBG'
p551
S'B-VP'
p552
g4
tp553
a(S'with'
p554
S'with'
p555
S'IN'
p556
S'B-PP'
p557
g4
tp558
a(S'MPA'
p559
S'MPA'
p560
S'NN'
p561
S'B-NP'
p562
S'B-protein'
p563
tp564
a(S'in'
p565
S'in'
p566
S'IN'
p567
S'B-PP'
p568
g4
tp569
a(S'the'
p570
S'the'
p571
S'DT'
p572
S'B-NP'
p573
g4
tp574
a(S'above-mentioned'
p575
S'above-mentioned'
p576
S'JJ'
p577
S'I-NP'
p578
g4
tp579
a(S'dosage'
p580
S'dosage'
p581
S'NN'
p582
S'I-NP'
p583
g4
tp584
a(S'during'
p585
S'during'
p586
S'IN'
p587
S'B-PP'
p588
g4
tp589
a(S'8'
p590
g590
S'CD'
p591
S'B-NP'
p592
g4
tp593
a(S'weeks'
p594
S'week'
p595
S'NNS'
p596
S'I-NP'
p597
g4
tp598
a(g199
g199
g199
g4
g4
tp599
a(S'alternating'
p600
S'alternate'
p601
S'VBG'
p602
S'B-VP'
p603
g4
tp604
a(S'chemoendocrine'
p605
S'chemoendocrine'
p606
S'JJ'
p607
S'B-NP'
p608
g4
tp609
a(S'approach'
p610
S'approach'
p611
S'NN'
p612
S'I-NP'
p613
g4
tp614
a(g205
g205
g205
g4
g4
tp615
a(g100
g100
g100
g4
g4
tp616
a(S'Results'
p617
S'Result'
p618
S'NNS'
p619
S'B-NP'
p620
g4
tp621
a(S'show'
p622
S'show'
p623
S'VBP'
p624
S'B-VP'
p625
g4
tp626
a(S'an'
p627
S'an'
p628
S'DT'
p629
S'B-NP'
p630
g4
tp631
a(S'overall'
p632
S'overall'
p633
S'JJ'
p634
S'I-NP'
p635
g4
tp636
a(S'response'
p637
S'response'
p638
S'NN'
p639
S'I-NP'
p640
g4
tp641
a(S'rate'
p642
S'rate'
p643
S'NN'
p644
S'I-NP'
p645
g4
tp646
a(S'of'
p647
S'of'
p648
S'IN'
p649
S'B-PP'
p650
g4
tp651
a(S'73'
p652
S'73'
p653
S'CD'
p654
S'B-NP'
p655
g4
tp656
a(S'%'
p657
g657
S'NN'
p658
S'I-NP'
p659
g4
tp660
a(S'with'
p661
S'with'
p662
S'IN'
p663
S'B-PP'
p664
g4
tp665
a(S'26'
p666
S'26'
p667
S'CD'
p668
S'B-NP'
p669
g4
tp670
a(g657
g657
S'NN'
p671
S'I-NP'
p672
g4
tp673
a(S'complete'
p674
S'complete'
p675
S'JJ'
p676
S'I-NP'
p677
g4
tp678
a(S'responses'
p679
S'response'
p680
S'NNS'
p681
S'I-NP'
p682
g4
tp683
a(S'in'
p684
S'in'
p685
S'IN'
p686
S'B-PP'
p687
g4
tp688
a(S'the'
p689
S'the'
p690
S'DT'
p691
S'B-NP'
p692
g4
tp693
a(S'combined'
p694
S'combined'
p695
S'JJ'
p696
S'I-NP'
p697
g4
tp698
a(S'treatment'
p699
S'treatment'
p700
S'NN'
p701
S'I-NP'
p702
g4
tp703
a(S'arm'
p704
S'arm'
p705
S'NN'
p706
S'I-NP'
p707
g4
tp708
a(g239
g239
g239
g4
g4
tp709
a(S'whereas'
p710
S'whereas'
p711
S'IN'
p712
g4
g4
tp713
a(S'in'
p714
S'in'
p715
S'IN'
p716
S'B-PP'
p717
g4
tp718
a(S'the'
p719
S'the'
p720
S'DT'
p721
S'B-NP'
p722
g4
tp723
a(S'alternating'
p724
S'alternate'
p725
S'VBG'
p726
S'I-NP'
p727
g4
tp728
a(S'arm'
p729
S'arm'
p730
S'NN'
p731
S'I-NP'
p732
g4
tp733
a(g239
g239
g239
g4
g4
tp734
a(S'an'
p735
S'an'
p736
S'DT'
p737
S'B-NP'
p738
g4
tp739
a(S'overall'
p740
S'overall'
p741
S'JJ'
p742
S'I-NP'
p743
g4
tp744
a(S'response'
p745
S'response'
p746
S'NN'
p747
S'I-NP'
p748
g4
tp749
a(S'rate'
p750
S'rate'
p751
S'NN'
p752
S'I-NP'
p753
g4
tp754
a(S'of'
p755
S'of'
p756
S'IN'
p757
S'B-PP'
p758
g4
tp759
a(S'76'
p760
S'76'
p761
S'CD'
p762
S'B-NP'
p763
g4
tp764
a(g657
g657
S'NN'
p765
S'I-NP'
p766
g4
tp767
a(S'with'
p768
S'with'
p769
S'IN'
p770
S'B-PP'
p771
g4
tp772
a(S'20'
p773
S'20'
p774
S'CD'
p775
S'B-NP'
p776
g4
tp777
a(g657
g657
S'NN'
p778
S'I-NP'
p779
g4
tp780
a(S'complete'
p781
S'complete'
p782
S'JJ'
p783
S'I-NP'
p784
g4
tp785
a(S'responses'
p786
S'response'
p787
S'NNS'
p788
S'I-NP'
p789
g4
tp790
a(S'was'
p791
S'be'
p792
S'VBD'
p793
S'B-VP'
p794
g4
tp795
a(S'observed.'
p796
S'observed.'
p797
S'VBN'
p798
S'I-VP'
p799
g4
tp800
a(S'In'
p801
S'In'
p802
S'IN'
p803
S'B-PP'
p804
g4
tp805
a(S'patients'
p806
S'patient'
p807
S'NNS'
p808
S'B-NP'
p809
g4
tp810
a(S'with'
p811
S'with'
p812
S'IN'
p813
S'B-PP'
p814
g4
tp815
a(S'more'
p816
S'more'
p817
S'JJR'
p818
S'B-NP'
p819
g4
tp820
a(S'than'
p821
S'than'
p822
S'IN'
p823
S'I-NP'
p824
g4
tp825
a(S'one'
p826
S'one'
p827
S'CD'
p828
S'I-NP'
p829
g4
tp830
a(S'metastatic'
p831
S'metastatic'
p832
S'JJ'
p833
S'I-NP'
p834
g4
tp835
a(S'site'
p836
S'site'
p837
S'NN'
p838
S'I-NP'
p839
g4
tp840
a(g239
g239
g239
g4
g4
tp841
a(S'response'
p842
S'response'
p843
S'NN'
p844
S'B-NP'
p845
g4
tp846
a(S'rate'
p847
S'rate'
p848
S'NN'
p849
S'I-NP'
p850
g4
tp851
a(S'was'
p852
S'be'
p853
S'VBD'
p854
S'B-VP'
p855
g4
tp856
a(S'higher'
p857
S'high'
p858
S'JJR'
p859
S'B-ADJP'
p860
g4
tp861
a(S'in'
p862
S'in'
p863
S'IN'
p864
S'B-PP'
p865
g4
tp866
a(S'the'
p867
S'the'
p868
S'DT'
p869
S'B-NP'
p870
g4
tp871
a(S'combination'
p872
S'combination'
p873
S'NN'
p874
S'I-NP'
p875
g4
tp876
a(S'treatment'
p877
S'treatment'
p878
S'NN'
p879
S'I-NP'
p880
g4
tp881
a(g239
g239
g239
g4
g4
tp882
a(S'and'
p883
S'and'
p884
S'CC'
p885
g4
g4
tp886
a(S'only'
p887
S'only'
p888
S'RB'
p889
S'B-ADVP'
p890
g4
tp891
a(S'in'
p892
S'in'
p893
S'IN'
p894
S'B-PP'
p895
g4
tp896
a(S'this'
p897
S'this'
p898
S'DT'
p899
S'B-NP'
p900
g4
tp901
a(S'arm'
p902
S'arm'
p903
S'NN'
p904
S'I-NP'
p905
g4
tp906
a(S'were'
p907
S'be'
p908
S'VBD'
p909
S'B-VP'
p910
g4
tp911
a(S'complete'
p912
S'complete'
p913
S'JJ'
p914
S'B-NP'
p915
g4
tp916
a(S'responses'
p917
S'response'
p918
S'NNS'
p919
S'I-NP'
p920
g4
tp921
a(S'observed'
p922
S'observe'
p923
S'VBN'
p924
S'B-VP'
p925
g4
tp926
a(S'in'
p927
S'in'
p928
S'IN'
p929
S'B-PP'
p930
g4
tp931
a(S'these'
p932
S'these'
p933
S'DT'
p934
S'B-NP'
p935
g4
tp936
a(S'patients.'
p937
S'patients.'
p938
S'NNS'
p939
S'I-NP'
p940
g4
tp941
a(S'Although'
p942
S'Although'
p943
S'IN'
p944
S'B-SBAR'
p945
g4
tp946
a(S'the'
p947
S'the'
p948
S'DT'
p949
S'B-NP'
p950
g4
tp951
a(S'median'
p952
S'median'
p953
S'JJ'
p954
S'I-NP'
p955
g4
tp956
a(S'duration'
p957
S'duration'
p958
S'NN'
p959
S'I-NP'
p960
g4
tp961
a(S'of'
p962
S'of'
p963
S'IN'
p964
S'B-PP'
p965
g4
tp966
a(S'response'
p967
S'response'
p968
S'NN'
p969
S'B-NP'
p970
g4
tp971
a(S'was'
p972
S'be'
p973
S'VBD'
p974
S'B-VP'
p975
g4
tp976
a(S'long'
p977
S'long'
p978
S'JJ'
p979
S'B-ADJP'
p980
g4
tp981
a(S'in'
p982
S'in'
p983
S'IN'
p984
S'B-PP'
p985
g4
tp986
a(S'both'
p987
S'both'
p988
S'DT'
p989
S'B-NP'
p990
g4
tp991
a(S'treatment'
p992
S'treatment'
p993
S'NN'
p994
S'I-NP'
p995
g4
tp996
a(S'arms'
p997
S'arm'
p998
S'NNS'
p999
S'I-NP'
p1000
g4
tp1001
a(g199
g199
g199
g4
g4
tp1002
a(S'combination'
p1003
S'combination'
p1004
S'NN'
p1005
S'B-NP'
p1006
g4
tp1007
a(g239
g239
g239
g4
g4
tp1008
a(S'19'
p1009
S'19'
p1010
S'CD'
p1011
S'B-NP'
p1012
g4
tp1013
a(S'months'
p1014
S'month'
p1015
S'NNS'
p1016
S'I-NP'
p1017
g4
tp1018
a(S'versus'
p1019
S'versus'
p1020
S'IN'
p1021
S'B-PP'
p1022
g4
tp1023
a(S'alternating'
p1024
S'alternate'
p1025
S'VBG'
p1026
S'B-VP'
p1027
g4
tp1028
a(g239
g239
g239
g4
g4
tp1029
a(S'21'
p1030
S'21'
p1031
S'CD'
p1032
S'B-NP'
p1033
g4
tp1034
a(S'months'
p1035
S'month'
p1036
S'NNS'
p1037
S'I-NP'
p1038
g4
tp1039
a(g205
g205
g205
g4
g4
tp1040
a(g239
g239
g239
g4
g4
tp1041
a(S'the'
p1042
S'the'
p1043
S'DT'
p1044
S'B-NP'
p1045
g4
tp1046
a(S'median'
p1047
S'median'
p1048
S'JJ'
p1049
S'I-NP'
p1050
g4
tp1051
a(S'overall'
p1052
S'overall'
p1053
S'JJ'
p1054
S'I-NP'
p1055
g4
tp1056
a(S'survival'
p1057
S'survival'
p1058
S'NN'
p1059
S'I-NP'
p1060
g4
tp1061
a(S'in'
p1062
S'in'
p1063
S'IN'
p1064
S'B-PP'
p1065
g4
tp1066
a(S'both'
p1067
S'both'
p1068
S'DT'
p1069
S'B-NP'
p1070
g4
tp1071
a(S'groups'
p1072
S'group'
p1073
S'NNS'
p1074
S'I-NP'
p1075
g4
tp1076
a(S'was'
p1077
S'be'
p1078
S'VBD'
p1079
S'B-VP'
p1080
g4
tp1081
a(S'not'
p1082
S'not'
p1083
S'RB'
p1084
g4
g4
tp1085
a(S'definitely'
p1086
S'definitely'
p1087
S'RB'
p1088
S'B-ADJP'
p1089
g4
tp1090
a(S'prolonged'
p1091
S'prolonged'
p1092
S'JJ'
p1093
S'I-ADJP'
p1094
g4
tp1095
a(g199
g199
g199
g4
g4
tp1096
a(S'22'
p1097
S'22'
p1098
S'CD'
p1099
S'B-NP'
p1100
g4
tp1101
a(S'versus'
p1102
S'versus'
p1103
S'IN'
p1104
S'I-NP'
p1105
g4
tp1106
a(S'24'
p1107
S'24'
p1108
S'CD'
p1109
S'I-NP'
p1110
g4
tp1111
a(S'months'
p1112
S'month'
p1113
S'NNS'
p1114
S'I-NP'
p1115
g4
tp1116
a(g239
g239
g239
g4
g4
tp1117
a(S'respectively'
p1118
S'respectively'
p1119
S'RB'
p1120
S'B-ADVP'
p1121
g4
tp1122
a(g205
g205
g205
g4
g4
tp1123
a(g100
g100
g100
g4
g4
tp1124
a(S'However'
p1125
S'However'
p1126
S'RB'
p1127
S'B-ADVP'
p1128
g4
tp1129
a(g239
g239
g239
g4
g4
tp1130
a(S'results'
p1131
S'result'
p1132
S'VBZ'
p1133
S'B-VP'
p1134
g4
tp1135
a(S'in'
p1136
S'in'
p1137
S'IN'
p1138
S'B-PP'
p1139
g4
tp1140
a(S'subsets'
p1141
S'subset'
p1142
S'NNS'
p1143
S'B-NP'
p1144
g4
tp1145
a(S'of'
p1146
S'of'
p1147
S'IN'
p1148
S'B-PP'
p1149
g4
tp1150
a(S'patients'
p1151
S'patient'
p1152
S'NNS'
p1153
S'B-NP'
p1154
g4
tp1155
a(S'suggest'
p1156
S'suggest'
p1157
S'VBP'
p1158
S'B-VP'
p1159
g4
tp1160
a(S'that'
p1161
S'that'
p1162
S'IN'
p1163
S'B-SBAR'
p1164
g4
tp1165
a(S'the'
p1166
S'the'
p1167
S'DT'
p1168
S'B-NP'
p1169
g4
tp1170
a(S'alternating'
p1171
S'alternate'
p1172
S'VBG'
p1173
S'I-NP'
p1174
g4
tp1175
a(S'chemoendocrine'
p1176
S'chemoendocrine'
p1177
S'JJ'
p1178
S'I-NP'
p1179
g4
tp1180
a(S'approach'
p1181
S'approach'
p1182
S'NN'
p1183
S'I-NP'
p1184
g4
tp1185
a(S'may'
p1186
S'may'
p1187
S'MD'
p1188
S'B-VP'
p1189
g4
tp1190
a(S'be'
p1191
S'be'
p1192
S'VB'
p1193
S'I-VP'
p1194
g4
tp1195
a(S'better'
p1196
S'good'
p1197
S'JJR'
p1198
S'B-ADJP'
p1199
g4
tp1200
a(S'for'
p1201
S'for'
p1202
S'IN'
p1203
S'B-PP'
p1204
g4
tp1205
a(S'estrogen'
p1206
S'estrogen'
p1207
S'NN'
p1208
S'B-NP'
p1209
S'B-protein'
p1210
tp1211
a(S'receptor'
p1212
S'receptor'
p1213
S'NN'
p1214
S'I-NP'
p1215
S'I-protein'
p1216
tp1217
a(g199
g199
g199
g4
g4
tp1218
a(S'ER'
p1219
S'ER'
p1220
S'NN'
p1221
S'B-NP'
p1222
S'B-protein'
p1223
tp1224
a(g205
g205
g205
g4
g4
tp1225
a(S'-negative'
p1226
S'-negative'
p1227
S'JJ'
p1228
S'B-NP'
p1229
g4
tp1230
a(S'patients'
p1231
S'patient'
p1232
S'NNS'
p1233
S'I-NP'
p1234
g4
tp1235
a(g239
g239
g239
g4
g4
tp1236
a(S'for'
p1237
S'for'
p1238
S'IN'
p1239
S'B-PP'
p1240
g4
tp1241
a(S'patients'
p1242
S'patient'
p1243
S'NNS'
p1244
S'B-NP'
p1245
g4
tp1246
a(S'younger'
p1247
S'young'
p1248
S'JJR'
p1249
S'B-ADJP'
p1250
g4
tp1251
a(S'than'
p1252
S'than'
p1253
S'IN'
p1254
S'B-PP'
p1255
g4
tp1256
a(S'51'
p1257
S'51'
p1258
S'CD'
p1259
S'B-NP'
p1260
g4
tp1261
a(S'years'
p1262
S'year'
p1263
S'NNS'
p1264
S'I-NP'
p1265
g4
tp1266
a(S'of'
p1267
S'of'
p1268
S'IN'
p1269
S'B-PP'
p1270
g4
tp1271
a(S'age'
p1272
S'age'
p1273
S'NN'
p1274
S'B-NP'
p1275
g4
tp1276
a(g239
g239
g239
S'B-PP'
p1277
g4
tp1278
a(S'and'
p1279
S'and'
p1280
S'CC'
p1281
S'I-PP'
p1282
g4
tp1283
a(S'for'
p1284
S'for'
p1285
S'IN'
p1286
S'B-PP'
p1287
g4
tp1288
a(S'patients'
p1289
S'patient'
p1290
S'NNS'
p1291
S'B-NP'
p1292
g4
tp1293
a(S'with'
p1294
S'with'
p1295
S'IN'
p1296
S'B-PP'
p1297
g4
tp1298
a(S'a'
p1299
g1299
S'DT'
p1300
S'B-NP'
p1301
g4
tp1302
a(S'disease-free'
p1303
S'disease-free'
p1304
S'JJ'
p1305
S'I-NP'
p1306
g4
tp1307
a(S'interval'
p1308
S'interval'
p1309
S'NN'
p1310
S'I-NP'
p1311
g4
tp1312
a(S'of'
p1313
S'of'
p1314
S'IN'
p1315
S'B-PP'
p1316
g4
tp1317
a(g201
g201
S'CD'
p1318
S'B-NP'
p1319
g4
tp1320
a(S'year'
p1321
S'year'
p1322
S'NN'
p1323
S'I-NP'
p1324
g4
tp1325
a(S'or'
p1326
S'or'
p1327
S'CC'
p1328
g4
g4
tp1329
a(S'less.'
p1330
S'less.'
p1331
S'JJR'
p1332
S'B-NP'
p1333
g4
tp1334
a(S'Patients'
p1335
S'Patient'
p1336
S'NNS'
p1337
S'I-NP'
p1338
g4
tp1339
a(S'with'
p1340
S'with'
p1341
S'IN'
p1342
S'B-PP'
p1343
g4
tp1344
a(S'these'
p1345
S'these'
p1346
S'DT'
p1347
S'B-NP'
p1348
g4
tp1349
a(S'parameters'
p1350
S'parameter'
p1351
S'NNS'
p1352
S'I-NP'
p1353
g4
tp1354
a(S'probably'
p1355
S'probably'
p1356
S'RB'
p1357
S'B-ADVP'
p1358
g4
tp1359
a(S'belong'
p1360
S'belong'
p1361
S'VBP'
p1362
S'B-VP'
p1363
g4
tp1364
a(S'to'
p1365
S'to'
p1366
S'TO'
p1367
S'B-PP'
p1368
g4
tp1369
a(S'the'
p1370
S'the'
p1371
S'DT'
p1372
S'B-NP'
p1373
g4
tp1374
a(S'same'
p1375
S'same'
p1376
S'JJ'
p1377
S'I-NP'
p1378
g4
tp1379
a(S'population.'
p1380
S'population.'
p1381
S'NN'
p1382
S'I-NP'
p1383
g4
tp1384
a(S'It'
p1385
S'It'
p1386
S'PRP'
p1387
S'B-NP'
p1388
g4
tp1389
a(S'is'
p1390
S'be'
p1391
S'VBZ'
p1392
S'B-VP'
p1393
g4
tp1394
a(S'concluded'
p1395
S'conclude'
p1396
S'VBN'
p1397
S'I-VP'
p1398
g4
tp1399
a(S'that'
p1400
S'that'
p1401
S'IN'
p1402
S'B-SBAR'
p1403
g4
tp1404
a(S'combination'
p1405
S'combination'
p1406
S'NN'
p1407
S'B-NP'
p1408
g4
tp1409
a(S'of'
p1410
S'of'
p1411
S'IN'
p1412
S'B-PP'
p1413
g4
tp1414
a(S'chemotherapy'
p1415
S'chemotherapy'
p1416
S'NN'
p1417
S'B-NP'
p1418
g4
tp1419
a(S'and'
p1420
S'and'
p1421
S'CC'
p1422
g4
g4
tp1423
a(S'high-dose'
p1424
S'high-dose'
p1425
S'JJ'
p1426
S'B-NP'
p1427
g4
tp1428
a(S'MPA'
p1429
S'MPA'
p1430
S'NN'
p1431
S'I-NP'
p1432
g4
tp1433
a(S'may'
p1434
S'may'
p1435
S'MD'
p1436
S'B-VP'
p1437
g4
tp1438
a(S'be'
p1439
S'be'
p1440
S'VB'
p1441
S'I-VP'
p1442
g4
tp1443
a(S'indicated'
p1444
S'indicate'
p1445
S'VBN'
p1446
S'I-VP'
p1447
g4
tp1448
a(S'in'
p1449
S'in'
p1450
S'IN'
p1451
S'B-PP'
p1452
g4
tp1453
a(S'ER-positive'
p1454
S'ER-positive'
p1455
S'JJ'
p1456
S'B-NP'
p1457
g4
tp1458
a(S'patients'
p1459
S'patient'
p1460
S'NNS'
p1461
S'I-NP'
p1462
g4
tp1463
a(S'when'
p1464
S'when'
p1465
S'WRB'
p1466
S'B-ADVP'
p1467
g4
tp1468
a(g1299
g1299
S'DT'
p1469
S'B-NP'
p1470
g4
tp1471
a(S'clinical'
p1472
S'clinical'
p1473
S'JJ'
p1474
S'I-NP'
p1475
g4
tp1476
a(S'response'
p1477
S'response'
p1478
S'NN'
p1479
S'I-NP'
p1480
g4
tp1481
a(S'is'
p1482
S'be'
p1483
S'VBZ'
p1484
S'B-VP'
p1485
g4
tp1486
a(S'urgently'
p1487
S'urgently'
p1488
S'RB'
p1489
S'B-ADVP'
p1490
g4
tp1491
a(S'needed.'
p1492
S'needed.'
p1493
S'RB'
p1494
S'B-ADVP'
p1495
g4
tp1496
a(S'In'
p1497
S'In'
p1498
S'IN'
p1499
S'B-PP'
p1500
g4
tp1501
a(S'ER-negative'
p1502
S'ER-negative'
p1503
S'JJ'
p1504
S'B-NP'
p1505
g4
tp1506
a(S'patients'
p1507
S'patient'
p1508
S'NNS'
p1509
S'I-NP'
p1510
g4
tp1511
a(g239
g239
g239
g4
g4
tp1512
a(S'the'
p1513
S'the'
p1514
S'DT'
p1515
S'B-NP'
p1516
g4
tp1517
a(S'alternating'
p1518
S'alternate'
p1519
S'VBG'
p1520
S'I-NP'
p1521
g4
tp1522
a(S'use'
p1523
S'use'
p1524
S'NN'
p1525
S'I-NP'
p1526
g4
tp1527
a(S'of'
p1528
S'of'
p1529
S'IN'
p1530
S'B-PP'
p1531
g4
tp1532
a(S'both'
p1533
S'both'
p1534
S'DT'
p1535
S'B-NP'
p1536
g4
tp1537
a(S'treatment'
p1538
S'treatment'
p1539
S'NN'
p1540
S'I-NP'
p1541
g4
tp1542
a(S'modalities'
p1543
S'modality'
p1544
S'NNS'
p1545
S'I-NP'
p1546
g4
tp1547
a(S'deserves'
p1548
S'deserve'
p1549
S'VBZ'
p1550
S'B-VP'
p1551
g4
tp1552
a(S'further'
p1553
S'further'
p1554
S'JJ'
p1555
S'B-NP'
p1556
g4
tp1557
a(S'investigation'
p1558
S'investigation'
p1559
S'NN'
p1560
S'I-NP'
p1561
g4
tp1562
a(g100
g100
g100
g4
g4
tp1563
a.