(lp0
(S'Plasmakinetic'
p1
S'Plasmakinetic'
p2
S'JJ'
p3
S'B-NP'
p4
S'O'
p5
tp6
a(S'prostate'
p7
S'prostate'
p8
S'NN'
p9
S'I-NP'
p10
g5
tp11
a(S'resection'
p12
S'resection'
p13
S'NN'
p14
S'I-NP'
p15
g5
tp16
a(S'in'
p17
S'in'
p18
S'IN'
p19
S'B-PP'
p20
g5
tp21
a(S'the'
p22
S'the'
p23
S'DT'
p24
S'B-NP'
p25
g5
tp26
a(S'treatment'
p27
S'treatment'
p28
S'NN'
p29
S'I-NP'
p30
g5
tp31
a(S'of'
p32
S'of'
p33
S'IN'
p34
S'B-PP'
p35
g5
tp36
a(S'benign'
p37
S'benign'
p38
S'JJ'
p39
S'B-NP'
p40
g5
tp41
a(S'prostate'
p42
S'prostate'
p43
S'NN'
p44
S'I-NP'
p45
g5
tp46
a(S'hyperplasia'
p47
S'hyperplasia'
p48
S'NN'
p49
S'I-NP'
p50
g5
tp51
a(S':'
p52
g52
g52
g5
g5
tp53
a(S'results'
p54
S'result'
p55
S'NNS'
p56
S'B-NP'
p57
g5
tp58
a(S'of'
p59
S'of'
p60
S'IN'
p61
S'B-PP'
p62
g5
tp63
a(S'1-year'
p64
S'1-year'
p65
S'JJ'
p66
S'B-NP'
p67
g5
tp68
a(S'follow'
p69
S'follow'
p70
S'VB'
p71
S'B-VP'
p72
g5
tp73
a(S'up'
p74
S'up'
p75
S'IN'
p76
S'B-PRT'
p77
g5
tp78
a(S'.'
p79
g79
g79
g5
g5
tp80
a(S'AIM'
p81
S'AIM'
p82
S'NN'
p83
S'B-NP'
p84
g5
tp85
a(S'In'
p86
S'In'
p87
S'IN'
p88
S'B-PP'
p89
g5
tp90
a(S'our'
p91
S'our'
p92
S'PRP$'
p93
S'B-NP'
p94
g5
tp95
a(S'randomized'
p96
S'randomize'
p97
S'VBN'
p98
S'I-NP'
p99
g5
tp100
a(S'prospective'
p101
S'prospective'
p102
S'JJ'
p103
S'I-NP'
p104
g5
tp105
a(S'study'
p106
S'study'
p107
S'NN'
p108
S'I-NP'
p109
g5
tp110
a(S','
p111
g111
g111
g5
g5
tp112
a(S'we'
p113
S'we'
p114
S'PRP'
p115
S'B-NP'
p116
g5
tp117
a(S'aimed'
p118
S'aim'
p119
S'VBD'
p120
S'B-VP'
p121
g5
tp122
a(S'to'
p123
S'to'
p124
S'TO'
p125
S'I-VP'
p126
g5
tp127
a(S'evaluate'
p128
S'evaluate'
p129
S'VB'
p130
S'I-VP'
p131
g5
tp132
a(S'the'
p133
S'the'
p134
S'DT'
p135
S'B-NP'
p136
g5
tp137
a(S'efficiency'
p138
S'efficiency'
p139
S'NN'
p140
S'I-NP'
p141
g5
tp142
a(S'of'
p143
S'of'
p144
S'IN'
p145
S'B-PP'
p146
g5
tp147
a(S'plasmakinetic'
p148
S'plasmakinetic'
p149
S'JJ'
p150
S'B-NP'
p151
g5
tp152
a(S'resection'
p153
S'resection'
p154
S'NN'
p155
S'I-NP'
p156
g5
tp157
a(S'of'
p158
S'of'
p159
S'IN'
p160
S'B-PP'
p161
g5
tp162
a(S'prostate'
p163
S'prostate'
p164
S'NN'
p165
S'B-NP'
p166
g5
tp167
a(S'('
p168
g168
g168
g5
g5
tp169
a(S'PKRP'
p170
S'PKRP'
p171
S'NN'
p172
S'B-NP'
p173
S'B-protein'
p174
tp175
a(S')'
p176
g176
g176
g5
g5
tp177
a(S'by'
p178
S'by'
p179
S'IN'
p180
S'B-PP'
p181
g5
tp182
a(S'comparing'
p183
S'compare'
p184
S'VBG'
p185
S'B-VP'
p186
g5
tp187
a(S'the'
p188
S'the'
p189
S'DT'
p190
S'B-NP'
p191
g5
tp192
a(S'preoperative'
p193
S'preoperative'
p194
S'JJ'
p195
S'I-NP'
p196
g5
tp197
a(S'and'
p198
S'and'
p199
S'CC'
p200
S'I-NP'
p201
g5
tp202
a(S'postoperative'
p203
S'postoperative'
p204
S'JJ'
p205
S'I-NP'
p206
g5
tp207
a(S'results'
p208
S'result'
p209
S'NNS'
p210
S'I-NP'
p211
g5
tp212
a(S'of'
p213
S'of'
p214
S'IN'
p215
S'B-PP'
p216
g5
tp217
a(S'the'
p218
S'the'
p219
S'DT'
p220
S'B-NP'
p221
g5
tp222
a(S'transurethral'
p223
S'transurethral'
p224
S'JJ'
p225
S'I-NP'
p226
g5
tp227
a(S'resection'
p228
S'resection'
p229
S'NN'
p230
S'I-NP'
p231
g5
tp232
a(S'of'
p233
S'of'
p234
S'IN'
p235
S'B-PP'
p236
g5
tp237
a(S'prostate'
p238
S'prostate'
p239
S'NN'
p240
S'B-NP'
p241
g5
tp242
a(g168
g168
g168
g5
g5
tp243
a(S'TURP'
p244
S'TURP'
p245
S'NN'
p246
S'B-NP'
p247
S'B-protein'
p248
tp249
a(g176
g176
g176
g5
g5
tp250
a(S'and'
p251
S'and'
p252
S'CC'
p253
g5
g5
tp254
a(S'PKRP'
p255
S'PKRP'
p256
S'NN'
p257
S'B-NP'
p258
S'B-protein'
p259
tp260
a(S'techniques'
p261
S'technique'
p262
S'NNS'
p263
S'I-NP'
p264
g5
tp265
a(S'which'
p266
S'which'
p267
S'WDT'
p268
S'B-NP'
p269
g5
tp270
a(S'we'
p271
S'we'
p272
S'PRP'
p273
S'B-NP'
p274
g5
tp275
a(S'administered'
p276
S'administer'
p277
S'VBD'
p278
S'B-VP'
p279
g5
tp280
a(S'in'
p281
S'in'
p282
S'IN'
p283
S'B-PP'
p284
g5
tp285
a(S'patients'
p286
S'patient'
p287
S'NNS'
p288
S'B-NP'
p289
g5
tp290
a(S'with'
p291
S'with'
p292
S'IN'
p293
S'B-PP'
p294
g5
tp295
a(S'benign'
p296
S'benign'
p297
S'JJ'
p298
S'B-NP'
p299
g5
tp300
a(S'prostate'
p301
S'prostate'
p302
S'NN'
p303
S'I-NP'
p304
g5
tp305
a(S'hyperplasia'
p306
S'hyperplasia'
p307
S'NN'
p308
S'I-NP'
p309
g5
tp310
a(g168
g168
g168
g5
g5
tp311
a(S'BPH'
p312
S'BPH'
p313
S'NN'
p314
S'B-NP'
p315
g5
tp316
a(g176
g176
g176
g5
g5
tp317
a(S'in'
p318
S'in'
p319
S'IN'
p320
S'B-PP'
p321
g5
tp322
a(S'our'
p323
S'our'
p324
S'PRP$'
p325
S'B-NP'
p326
g5
tp327
a(S'clinic'
p328
S'clinic'
p329
S'NN'
p330
S'I-NP'
p331
g5
tp332
a(g79
g79
g79
g5
g5
tp333
a(S'METHODS'
p334
S'METHODS'
p335
S'NNS'
p336
S'B-NP'
p337
g5
tp338
a(S'Of'
p339
S'Of'
p340
S'IN'
p341
S'B-PP'
p342
g5
tp343
a(S'57'
p344
S'57'
p345
S'CD'
p346
S'B-NP'
p347
g5
tp348
a(S'patients'
p349
S'patient'
p350
S'NNS'
p351
S'I-NP'
p352
g5
tp353
a(S'for'
p354
S'for'
p355
S'IN'
p356
S'B-PP'
p357
g5
tp358
a(S'whom'
p359
S'whom'
p360
S'WP'
p361
S'B-NP'
p362
g5
tp363
a(S'we'
p364
S'we'
p365
S'PRP'
p366
S'B-NP'
p367
g5
tp368
a(S'thought'
p369
S'think'
p370
S'VBD'
p371
S'B-VP'
p372
g5
tp373
a(S'an'
p374
S'an'
p375
S'DT'
p376
S'B-NP'
p377
g5
tp378
a(S'operative'
p379
S'operative'
p380
S'JJ'
p381
S'I-NP'
p382
g5
tp383
a(S'intervention'
p384
S'intervention'
p385
S'NN'
p386
S'I-NP'
p387
g5
tp388
a(S'was'
p389
S'be'
p390
S'VBD'
p391
S'B-VP'
p392
g5
tp393
a(S'necessary'
p394
S'necessary'
p395
S'JJ'
p396
S'B-ADJP'
p397
g5
tp398
a(g111
g111
g111
g5
g5
tp399
a(S'30'
p400
S'30'
p401
S'CD'
p402
S'B-NP'
p403
g5
tp404
a(S'cases'
p405
S'case'
p406
S'NNS'
p407
S'I-NP'
p408
g5
tp409
a(S'in'
p410
S'in'
p411
S'IN'
p412
S'B-PP'
p413
g5
tp414
a(S'the'
p415
S'the'
p416
S'DT'
p417
S'B-NP'
p418
g5
tp419
a(S'first'
p420
S'first'
p421
S'JJ'
p422
S'I-NP'
p423
g5
tp424
a(S'group'
p425
S'group'
p426
S'NN'
p427
S'I-NP'
p428
g5
tp429
a(S'had'
p430
S'have'
p431
S'VBD'
p432
S'B-VP'
p433
g5
tp434
a(S'a'
p435
g435
S'DT'
p436
S'B-NP'
p437
g5
tp438
a(S'TURP'
p439
S'TURP'
p440
S'NN'
p441
S'I-NP'
p442
S'B-protein'
p443
tp444
a(S'and'
p445
S'and'
p446
S'CC'
p447
g5
g5
tp448
a(S'24'
p449
S'24'
p450
S'CD'
p451
S'B-NP'
p452
g5
tp453
a(S'cases'
p454
S'case'
p455
S'NNS'
p456
S'I-NP'
p457
g5
tp458
a(S'in'
p459
S'in'
p460
S'IN'
p461
S'B-PP'
p462
g5
tp463
a(S'the'
p464
S'the'
p465
S'DT'
p466
S'B-NP'
p467
g5
tp468
a(S'second'
p469
S'second'
p470
S'JJ'
p471
S'I-NP'
p472
g5
tp473
a(S'group'
p474
S'group'
p475
S'NN'
p476
S'I-NP'
p477
g5
tp478
a(S'had'
p479
S'have'
p480
S'VBD'
p481
S'B-VP'
p482
g5
tp483
a(g435
g435
S'DT'
p484
S'B-NP'
p485
g5
tp486
a(S'PKRP.'
p487
S'PKRP.'
p488
S'NNP'
p489
S'I-NP'
p490
g5
tp491
a(S'International'
p492
S'International'
p493
S'NNP'
p494
S'I-NP'
p495
g5
tp496
a(S'prostate'
p497
S'prostate'
p498
S'NN'
p499
S'I-NP'
p500
g5
tp501
a(S'symptom'
p502
S'symptom'
p503
S'NN'
p504
S'I-NP'
p505
g5
tp506
a(S'scores'
p507
S'score'
p508
S'NNS'
p509
S'I-NP'
p510
g5
tp511
a(g168
g168
g168
g5
g5
tp512
a(S'I-PSS'
p513
S'I-PSS'
p514
S'NN'
p515
S'B-NP'
p516
S'B-protein'
p517
tp518
a(g176
g176
g176
g5
g5
tp519
a(g111
g111
g111
g5
g5
tp520
a(S'uroflowmetry'
p521
S'uroflowmetry'
p522
S'NN'
p523
S'B-NP'
p524
g5
tp525
a(g111
g111
g111
g5
g5
tp526
a(S'measurement'
p527
S'measurement'
p528
S'NN'
p529
S'B-NP'
p530
g5
tp531
a(S'of'
p532
S'of'
p533
S'IN'
p534
S'B-PP'
p535
g5
tp536
a(S'residual'
p537
S'residual'
p538
S'JJ'
p539
S'B-NP'
p540
g5
tp541
a(S'urine'
p542
S'urine'
p543
S'NN'
p544
S'I-NP'
p545
g5
tp546
a(S'amount'
p547
S'amount'
p548
S'NN'
p549
S'I-NP'
p550
g5
tp551
a(S'and'
p552
S'and'
p553
S'CC'
p554
g5
g5
tp555
a(S'ultrasonography'
p556
S'ultrasonography'
p557
S'NN'
p558
S'B-NP'
p559
g5
tp560
a(S'were'
p561
S'be'
p562
S'VBD'
p563
S'B-VP'
p564
g5
tp565
a(S'performed'
p566
S'perform'
p567
S'VBN'
p568
S'I-VP'
p569
g5
tp570
a(S'for'
p571
S'for'
p572
S'IN'
p573
S'B-PP'
p574
g5
tp575
a(S'each'
p576
S'each'
p577
S'DT'
p578
S'B-NP'
p579
g5
tp580
a(S'patient'
p581
S'patient'
p582
S'NN'
p583
S'I-NP'
p584
g5
tp585
a(S'both'
p586
S'both'
p587
S'CC'
p588
g5
g5
tp589
a(S'preoperatively'
p590
S'preoperatively'
p591
S'RB'
p592
S'B-ADVP'
p593
g5
tp594
a(S'and'
p595
S'and'
p596
S'CC'
p597
g5
g5
tp598
a(S'postoperatively'
p599
S'postoperatively'
p600
S'RB'
p601
S'B-ADVP'
p602
g5
tp603
a(g168
g168
g168
g5
g5
tp604
a(S'first'
p605
S'first'
p606
S'JJ'
p607
S'B-NP'
p608
g5
tp609
a(S'month'
p610
S'month'
p611
S'NN'
p612
S'I-NP'
p613
g5
tp614
a(S'and'
p615
S'and'
p616
S'CC'
p617
g5
g5
tp618
a(S'first'
p619
S'first'
p620
S'JJ'
p621
S'B-NP'
p622
g5
tp623
a(S'year'
p624
S'year'
p625
S'NN'
p626
S'I-NP'
p627
g5
tp628
a(g176
g176
g176
g5
g5
tp629
a(g79
g79
g79
g5
g5
tp630
a(S'Operation'
p631
S'Operation'
p632
S'NN'
p633
S'B-NP'
p634
g5
tp635
a(S'times'
p636
S'time'
p637
S'NNS'
p638
S'I-NP'
p639
g5
tp640
a(g111
g111
g111
g5
g5
tp641
a(S'urethral'
p642
S'urethral'
p643
S'JJ'
p644
S'B-NP'
p645
g5
tp646
a(S'catheterization'
p647
S'catheterization'
p648
S'NN'
p649
S'I-NP'
p650
g5
tp651
a(S'times'
p652
S'time'
p653
S'NNS'
p654
S'I-NP'
p655
g5
tp656
a(g111
g111
g111
g5
g5
tp657
a(S'preoperative'
p658
S'preoperative'
p659
S'JJ'
p660
S'B-NP'
p661
g5
tp662
a(S'and'
p663
S'and'
p664
S'CC'
p665
S'I-NP'
p666
g5
tp667
a(S'postoperative'
p668
S'postoperative'
p669
S'JJ'
p670
S'I-NP'
p671
g5
tp672
a(S'Hb'
p673
S'Hb'
p674
S'NN'
p675
S'I-NP'
p676
S'B-protein'
p677
tp678
a(g111
g111
g111
S'I-NP'
p679
g5
tp680
a(S'Htc'
p681
S'Htc'
p682
S'NN'
p683
S'I-NP'
p684
S'B-protein'
p685
tp686
a(S'and'
p687
S'and'
p688
S'CC'
p689
S'I-NP'
p690
g5
tp691
a(S'serum'
p692
S'serum'
p693
S'NN'
p694
S'I-NP'
p695
g5
tp696
a(S'Na'
p697
S'Na'
p698
S'NN'
p699
S'I-NP'
p700
g5
tp701
a(S'values'
p702
S'value'
p703
S'NNS'
p704
S'I-NP'
p705
g5
tp706
a(S'of'
p707
S'of'
p708
S'IN'
p709
S'B-PP'
p710
g5
tp711
a(S'the'
p712
S'the'
p713
S'DT'
p714
S'B-NP'
p715
g5
tp716
a(S'patients'
p717
S'patient'
p718
S'NNS'
p719
S'I-NP'
p720
g5
tp721
a(S'were'
p722
S'be'
p723
S'VBD'
p724
S'B-VP'
p725
g5
tp726
a(S'compared'
p727
S'compare'
p728
S'VBN'
p729
S'I-VP'
p730
g5
tp731
a(S'and'
p732
S'and'
p733
S'CC'
p734
g5
g5
tp735
a(S'the'
p736
S'the'
p737
S'DT'
p738
S'B-NP'
p739
g5
tp740
a(S'complications'
p741
S'complication'
p742
S'NNS'
p743
S'I-NP'
p744
g5
tp745
a(S'of'
p746
S'of'
p747
S'IN'
p748
S'B-PP'
p749
g5
tp750
a(S'the'
p751
S'the'
p752
S'DT'
p753
S'B-NP'
p754
g5
tp755
a(S'groups'
p756
S'group'
p757
S'NNS'
p758
S'I-NP'
p759
g5
tp760
a(S'were'
p761
S'be'
p762
S'VBD'
p763
S'B-VP'
p764
g5
tp765
a(S'also'
p766
S'also'
p767
S'RB'
p768
S'I-VP'
p769
g5
tp770
a(S'compared'
p771
S'compare'
p772
S'VBN'
p773
S'I-VP'
p774
g5
tp775
a(g79
g79
g79
g5
g5
tp776
a(S'RESULTS'
p777
S'RESULTS'
p778
S'NNS'
p779
S'B-NP'
p780
g5
tp781
a(S'On'
p782
S'On'
p783
S'IN'
p784
S'B-PP'
p785
g5
tp786
a(S'first'
p787
S'first'
p788
S'JJ'
p789
S'B-NP'
p790
g5
tp791
a(S'month'
p792
S'month'
p793
S'NN'
p794
S'I-NP'
p795
g5
tp796
a(S'and'
p797
S'and'
p798
S'CC'
p799
g5
g5
tp800
a(S'first'
p801
S'first'
p802
S'JJ'
p803
S'B-NP'
p804
g5
tp805
a(S'year'
p806
S'year'
p807
S'NN'
p808
S'I-NP'
p809
g5
tp810
a(S'follow'
p811
S'follow'
p812
S'VB'
p813
S'B-VP'
p814
g5
tp815
a(S'up'
p816
S'up'
p817
S'RP'
p818
S'B-PRT'
p819
g5
tp820
a(S'between'
p821
S'between'
p822
S'IN'
p823
S'B-PP'
p824
g5
tp825
a(S'the'
p826
S'the'
p827
S'DT'
p828
S'B-NP'
p829
g5
tp830
a(S'groups'
p831
S'group'
p832
S'NNS'
p833
S'I-NP'
p834
g5
tp835
a(g111
g111
g111
g5
g5
tp836
a(S'there'
p837
S'there'
p838
S'EX'
p839
S'B-NP'
p840
g5
tp841
a(S'was'
p842
S'be'
p843
S'VBD'
p844
S'B-VP'
p845
g5
tp846
a(S'no'
p847
S'no'
p848
S'DT'
p849
S'B-NP'
p850
g5
tp851
a(S'significant'
p852
S'significant'
p853
S'JJ'
p854
S'I-NP'
p855
g5
tp856
a(S'statistical'
p857
S'statistical'
p858
S'JJ'
p859
S'I-NP'
p860
g5
tp861
a(S'difference'
p862
S'difference'
p863
S'NN'
p864
S'I-NP'
p865
g5
tp866
a(S'in'
p867
S'in'
p868
S'IN'
p869
S'B-PP'
p870
g5
tp871
a(S'I-PSS'
p872
S'I-PSS'
p873
S'NN'
p874
S'B-NP'
p875
g5
tp876
a(g111
g111
g111
g5
g5
tp877
a(S'maximum'
p878
S'maximum'
p879
S'NN'
p880
S'B-NP'
p881
g5
tp882
a(S'flow'
p883
S'flow'
p884
S'NN'
p885
S'I-NP'
p886
g5
tp887
a(S'rate'
p888
S'rate'
p889
S'NN'
p890
S'I-NP'
p891
g5
tp892
a(g111
g111
g111
g5
g5
tp893
a(S'average'
p894
S'average'
p895
S'JJ'
p896
S'B-NP'
p897
g5
tp898
a(S'flow'
p899
S'flow'
p900
S'NN'
p901
S'I-NP'
p902
g5
tp903
a(g111
g111
g111
g5
g5
tp904
a(S'residual'
p905
S'residual'
p906
S'JJ'
p907
S'B-NP'
p908
g5
tp909
a(S'urine'
p910
S'urine'
p911
S'NN'
p912
S'I-NP'
p913
g5
tp914
a(S'and'
p915
S'and'
p916
S'CC'
p917
S'I-NP'
p918
g5
tp919
a(S'size'
p920
S'size'
p921
S'NN'
p922
S'I-NP'
p923
g5
tp924
a(S'of'
p925
S'of'
p926
S'IN'
p927
S'B-PP'
p928
g5
tp929
a(S'the'
p930
S'the'
p931
S'DT'
p932
S'B-NP'
p933
g5
tp934
a(S'prostate.'
p935
S'prostate.'
p936
S'NN'
p937
S'I-NP'
p938
g5
tp939
a(S'The'
p940
S'The'
p941
S'DT'
p942
S'B-NP'
p943
g5
tp944
a(S'decrease'
p945
S'decrease'
p946
S'NN'
p947
S'I-NP'
p948
g5
tp949
a(S'in'
p950
S'in'
p951
S'IN'
p952
S'B-PP'
p953
g5
tp954
a(S'serum'
p955
S'serum'
p956
S'NN'
p957
S'B-NP'
p958
g5
tp959
a(S'Na'
p960
S'Na'
p961
S'NN'
p962
S'I-NP'
p963
g5
tp964
a(S'level'
p965
S'level'
p966
S'NN'
p967
S'I-NP'
p968
g5
tp969
a(S'was'
p970
S'be'
p971
S'VBD'
p972
S'B-VP'
p973
g5
tp974
a(S'found'
p975
S'find'
p976
S'VBN'
p977
S'I-VP'
p978
g5
tp979
a(S'to'
p980
S'to'
p981
S'TO'
p982
S'I-VP'
p983
g5
tp984
a(S'be'
p985
S'be'
p986
S'VB'
p987
S'I-VP'
p988
g5
tp989
a(S'significantly'
p990
S'significantly'
p991
S'RB'
p992
S'B-ADJP'
p993
g5
tp994
a(S'higher'
p995
S'high'
p996
S'JJR'
p997
S'I-ADJP'
p998
g5
tp999
a(S'in'
p1000
S'in'
p1001
S'IN'
p1002
S'B-PP'
p1003
g5
tp1004
a(S'the'
p1005
S'the'
p1006
S'DT'
p1007
S'B-NP'
p1008
g5
tp1009
a(S'TURP'
p1010
S'TURP'
p1011
S'NN'
p1012
S'I-NP'
p1013
g5
tp1014
a(S'group'
p1015
S'group'
p1016
S'NN'
p1017
S'I-NP'
p1018
g5
tp1019
a(g168
g168
g168
g5
g5
tp1020
a(S'P'
p1021
g1021
S'NN'
p1022
S'B-NP'
p1023
g5
tp1024
a(S'<'
p1025
g1025
S'SYM'
p1026
g5
g5
tp1027
a(S'0.05'
p1028
S'0.05'
p1029
S'CD'
p1030
S'B-NP'
p1031
g5
tp1032
a(g176
g176
g176
g5
g5
tp1033
a(g79
g79
g79
g5
g5
tp1034
a(S'The'
p1035
S'The'
p1036
S'DT'
p1037
S'B-NP'
p1038
g5
tp1039
a(S'operation'
p1040
S'operation'
p1041
S'NN'
p1042
S'I-NP'
p1043
g5
tp1044
a(S'times'
p1045
S'time'
p1046
S'NNS'
p1047
S'I-NP'
p1048
g5
tp1049
a(S'were'
p1050
S'be'
p1051
S'VBD'
p1052
S'B-VP'
p1053
g5
tp1054
a(S'not'
p1055
S'not'
p1056
S'RB'
p1057
S'B-ADJP'
p1058
g5
tp1059
a(S'significantly'
p1060
S'significantly'
p1061
S'RB'
p1062
S'I-ADJP'
p1063
g5
tp1064
a(S'different'
p1065
S'different'
p1066
S'JJ'
p1067
S'I-ADJP'
p1068
g5
tp1069
a(S'between'
p1070
S'between'
p1071
S'IN'
p1072
S'B-PP'
p1073
g5
tp1074
a(S'the'
p1075
S'the'
p1076
S'DT'
p1077
S'B-NP'
p1078
g5
tp1079
a(S'groups.'
p1080
S'groups.'
p1081
S'NN'
p1082
S'I-NP'
p1083
g5
tp1084
a(S'While'
p1085
S'While'
p1086
S'IN'
p1087
S'B-SBAR'
p1088
g5
tp1089
a(S'the'
p1090
S'the'
p1091
S'DT'
p1092
S'B-NP'
p1093
g5
tp1094
a(S'postoperative'
p1095
S'postoperative'
p1096
S'JJ'
p1097
S'I-NP'
p1098
g5
tp1099
a(S'catheterization'
p1100
S'catheterization'
p1101
S'NN'
p1102
S'I-NP'
p1103
g5
tp1104
a(S'time'
p1105
S'time'
p1106
S'NN'
p1107
S'I-NP'
p1108
g5
tp1109
a(S'was'
p1110
S'be'
p1111
S'VBD'
p1112
S'B-VP'
p1113
g5
tp1114
a(S'75.7'
p1115
S'75.7'
p1116
S'CD'
p1117
S'B-NP'
p1118
g5
tp1119
a(S'h'
p1120
g1120
S'NN'
p1121
S'I-NP'
p1122
g5
tp1123
a(S'in'
p1124
S'in'
p1125
S'IN'
p1126
S'B-PP'
p1127
g5
tp1128
a(S'TURP'
p1129
S'TURP'
p1130
S'NN'
p1131
S'B-NP'
p1132
g5
tp1133
a(S'group'
p1134
S'group'
p1135
S'NN'
p1136
S'I-NP'
p1137
g5
tp1138
a(g111
g111
g111
g5
g5
tp1139
a(S'it'
p1140
S'it'
p1141
S'PRP'
p1142
S'B-NP'
p1143
g5
tp1144
a(S'was'
p1145
S'be'
p1146
S'VBD'
p1147
S'B-VP'
p1148
g5
tp1149
a(S'found'
p1150
S'find'
p1151
S'VBN'
p1152
S'I-VP'
p1153
g5
tp1154
a(S'to'
p1155
S'to'
p1156
S'TO'
p1157
S'I-VP'
p1158
g5
tp1159
a(S'be'
p1160
S'be'
p1161
S'VB'
p1162
S'I-VP'
p1163
g5
tp1164
a(S'42'
p1165
S'42'
p1166
S'CD'
p1167
S'B-NP'
p1168
g5
tp1169
a(g1120
g1120
S'NN'
p1170
S'I-NP'
p1171
g5
tp1172
a(S'in'
p1173
S'in'
p1174
S'IN'
p1175
S'B-PP'
p1176
g5
tp1177
a(S'PKRP'
p1178
S'PKRP'
p1179
S'NN'
p1180
S'B-NP'
p1181
S'B-protein'
p1182
tp1183
a(S'group'
p1184
S'group'
p1185
S'NN'
p1186
S'I-NP'
p1187
S'I-protein'
p1188
tp1189
a(S'and'
p1190
S'and'
p1191
S'CC'
p1192
g5
g5
tp1193
a(S'it'
p1194
S'it'
p1195
S'PRP'
p1196
S'B-NP'
p1197
g5
tp1198
a(S'was'
p1199
S'be'
p1200
S'VBD'
p1201
S'B-VP'
p1202
g5
tp1203
a(S'clear'
p1204
S'clear'
p1205
S'JJ'
p1206
S'B-ADJP'
p1207
g5
tp1208
a(S'that'
p1209
S'that'
p1210
S'IN'
p1211
S'B-SBAR'
p1212
g5
tp1213
a(S'catheterization'
p1214
S'catheterization'
p1215
S'NN'
p1216
S'B-NP'
p1217
g5
tp1218
a(S'time'
p1219
S'time'
p1220
S'NN'
p1221
S'I-NP'
p1222
g5
tp1223
a(S'was'
p1224
S'be'
p1225
S'VBD'
p1226
S'B-VP'
p1227
g5
tp1228
a(S'significantly'
p1229
S'significantly'
p1230
S'RB'
p1231
S'B-ADJP'
p1232
g5
tp1233
a(S'shorter'
p1234
S'short'
p1235
S'JJR'
p1236
S'I-ADJP'
p1237
g5
tp1238
a(g168
g168
g168
g5
g5
tp1239
a(g1021
g1021
S'NN'
p1240
S'B-NP'
p1241
g5
tp1242
a(g1025
g1025
S'JJR'
p1243
S'B-NP'
p1244
g5
tp1245
a(S'0001'
p1246
S'0001'
p1247
S'CD'
p1248
S'I-NP'
p1249
g5
tp1250
a(g176
g176
g176
g5
g5
tp1251
a(g79
g79
g79
g5
g5
tp1252
a(S'CONCLUSION'
p1253
S'CONCLUSION'
p1254
S'NN'
p1255
S'B-NP'
p1256
g5
tp1257
a(S'It'
p1258
S'It'
p1259
S'PRP'
p1260
S'B-NP'
p1261
g5
tp1262
a(S'is'
p1263
S'be'
p1264
S'VBZ'
p1265
S'B-VP'
p1266
g5
tp1267
a(S'obvious'
p1268
S'obvious'
p1269
S'JJ'
p1270
S'B-ADJP'
p1271
g5
tp1272
a(S'that'
p1273
S'that'
p1274
S'IN'
p1275
S'B-SBAR'
p1276
g5
tp1277
a(S'PKRP'
p1278
S'PKRP'
p1279
S'NN'
p1280
S'B-NP'
p1281
S'B-protein'
p1282
tp1283
a(S'is'
p1284
S'be'
p1285
S'VBZ'
p1286
S'B-VP'
p1287
g5
tp1288
a(S'as'
p1289
S'as'
p1290
S'RB'
p1291
S'B-ADJP'
p1292
g5
tp1293
a(S'efficient'
p1294
S'efficient'
p1295
S'JJ'
p1296
S'I-ADJP'
p1297
g5
tp1298
a(S'as'
p1299
S'as'
p1300
S'IN'
p1301
S'B-PP'
p1302
g5
tp1303
a(S'TURP'
p1304
S'TURP'
p1305
S'NN'
p1306
S'B-NP'
p1307
S'B-protein'
p1308
tp1309
a(S'and'
p1310
S'and'
p1311
S'CC'
p1312
g5
g5
tp1313
a(S'it'
p1314
S'it'
p1315
S'PRP'
p1316
S'B-NP'
p1317
g5
tp1318
a(S'has'
p1319
S'have'
p1320
S'VBZ'
p1321
S'B-VP'
p1322
g5
tp1323
a(g435
g435
S'DT'
p1324
S'B-NP'
p1325
g5
tp1326
a(S'similar'
p1327
S'similar'
p1328
S'JJ'
p1329
S'I-NP'
p1330
g5
tp1331
a(S'morbidity.'
p1332
S'morbidity.'
p1333
S'NN'
p1334
S'I-NP'
p1335
g5
tp1336
a(S'In'
p1337
S'In'
p1338
S'IN'
p1339
S'B-PP'
p1340
g5
tp1341
a(S'our'
p1342
S'our'
p1343
S'PRP$'
p1344
S'B-NP'
p1345
g5
tp1346
a(S'opinion'
p1347
S'opinion'
p1348
S'NN'
p1349
S'I-NP'
p1350
g5
tp1351
a(g111
g111
g111
g5
g5
tp1352
a(S'PKRP'
p1353
S'PKRP'
p1354
S'NN'
p1355
S'B-NP'
p1356
S'B-protein'
p1357
tp1358
a(S'makes'
p1359
S'make'
p1360
S'VBZ'
p1361
S'B-VP'
p1362
g5
tp1363
a(g435
g435
S'DT'
p1364
S'B-NP'
p1365
g5
tp1366
a(S'promising'
p1367
S'promising'
p1368
S'JJ'
p1369
S'I-NP'
p1370
g5
tp1371
a(S'treatment'
p1372
S'treatment'
p1373
S'NN'
p1374
S'I-NP'
p1375
g5
tp1376
a(S'for'
p1377
S'for'
p1378
S'IN'
p1379
S'B-PP'
p1380
g5
tp1381
a(S'BPH'
p1382
S'BPH'
p1383
S'NN'
p1384
S'B-NP'
p1385
g5
tp1386
a(S'with'
p1387
S'with'
p1388
S'IN'
p1389
S'B-PP'
p1390
g5
tp1391
a(S'its'
p1392
S'its'
p1393
S'PRP$'
p1394
S'B-NP'
p1395
g5
tp1396
a(S'advantages'
p1397
S'advantage'
p1398
S'NNS'
p1399
S'I-NP'
p1400
g5
tp1401
a(g111
g111
g111
g5
g5
tp1402
a(S'such'
p1403
S'such'
p1404
S'JJ'
p1405
S'B-PP'
p1406
g5
tp1407
a(S'as'
p1408
S'as'
p1409
S'IN'
p1410
S'I-PP'
p1411
g5
tp1412
a(S'early'
p1413
S'early'
p1414
S'JJ'
p1415
S'B-NP'
p1416
g5
tp1417
a(S'removal'
p1418
S'removal'
p1419
S'NN'
p1420
S'I-NP'
p1421
g5
tp1422
a(S'of'
p1423
S'of'
p1424
S'IN'
p1425
S'B-PP'
p1426
g5
tp1427
a(S'postoperative'
p1428
S'postoperative'
p1429
S'JJ'
p1430
S'B-NP'
p1431
g5
tp1432
a(S'urethral'
p1433
S'urethral'
p1434
S'JJ'
p1435
S'I-NP'
p1436
g5
tp1437
a(S'catheter'
p1438
S'catheter'
p1439
S'NN'
p1440
S'I-NP'
p1441
g5
tp1442
a(g111
g111
g111
g5
g5
tp1443
a(g435
g435
S'DT'
p1444
S'B-NP'
p1445
g5
tp1446
a(S'shorter'
p1447
S'short'
p1448
S'JJR'
p1449
S'I-NP'
p1450
g5
tp1451
a(S'hospital'
p1452
S'hospital'
p1453
S'NN'
p1454
S'I-NP'
p1455
g5
tp1456
a(S'stay'
p1457
S'stay'
p1458
S'NN'
p1459
S'I-NP'
p1460
g5
tp1461
a(S'and'
p1462
S'and'
p1463
S'CC'
p1464
g5
g5
tp1465
a(S'the'
p1466
S'the'
p1467
S'DT'
p1468
S'B-NP'
p1469
g5
tp1470
a(S'absence'
p1471
S'absence'
p1472
S'NN'
p1473
S'I-NP'
p1474
g5
tp1475
a(S'of'
p1476
S'of'
p1477
S'IN'
p1478
S'B-PP'
p1479
g5
tp1480
a(S'TUR'
p1481
S'TUR'
p1482
S'NN'
p1483
S'B-NP'
p1484
S'B-protein'
p1485
tp1486
a(S'syndrome'
p1487
S'syndrome'
p1488
S'NN'
p1489
S'I-NP'
p1490
S'I-protein'
p1491
tp1492
a(S'risk'
p1493
S'risk'
p1494
S'NN'
p1495
S'I-NP'
p1496
S'I-protein'
p1497
tp1498
a(g79
g79
g79
g5
g5
tp1499
a.