(lp0
(S'Oxytocin'
p1
S'Oxytocin'
p2
S'NN'
p3
S'B-NP'
p4
S'O'
p5
tp6
a(S'infusion'
p7
S'infusion'
p8
S'NN'
p9
S'I-NP'
p10
g5
tp11
a(S'reduces'
p12
S'reduce'
p13
S'VBZ'
p14
S'B-VP'
p15
g5
tp16
a(S'repetitive'
p17
S'repetitive'
p18
S'JJ'
p19
S'B-NP'
p20
g5
tp21
a(S'behaviors'
p22
S'behavior'
p23
S'NNS'
p24
S'I-NP'
p25
g5
tp26
a(S'in'
p27
S'in'
p28
S'IN'
p29
S'B-PP'
p30
g5
tp31
a(S'adults'
p32
S'adult'
p33
S'NNS'
p34
S'B-NP'
p35
g5
tp36
a(S'with'
p37
S'with'
p38
S'IN'
p39
S'B-PP'
p40
g5
tp41
a(S'autistic'
p42
S'autistic'
p43
S'JJ'
p44
g5
g5
tp45
a(S'and'
p46
S'and'
p47
S'CC'
p48
g5
g5
tp49
a(S'Asperger'
p50
S'Asperger'
p51
S'NNP'
p52
S'B-NP'
p53
g5
tp54
a(S"'s"
p55
S"'s"
p56
S'POS'
p57
S'B-NP'
p58
g5
tp59
a(S'disorders'
p60
S'disorder'
p61
S'NNS'
p62
S'I-NP'
p63
g5
tp64
a(S'.'
p65
g65
g65
g5
g5
tp66
a(S'Autism'
p67
S'Autism'
p68
S'NN'
p69
S'B-NP'
p70
g5
tp71
a(S'is'
p72
S'be'
p73
S'VBZ'
p74
S'B-VP'
p75
g5
tp76
a(S'a'
p77
g77
S'DT'
p78
S'B-NP'
p79
g5
tp80
a(S'neurodevelopmental'
p81
S'neurodevelopmental'
p82
S'JJ'
p83
S'I-NP'
p84
g5
tp85
a(S'disorder'
p86
S'disorder'
p87
S'NN'
p88
S'I-NP'
p89
g5
tp90
a(S'characterized'
p91
S'characterize'
p92
S'VBN'
p93
S'B-VP'
p94
g5
tp95
a(S'by'
p96
S'by'
p97
S'IN'
p98
S'B-PP'
p99
g5
tp100
a(S'dysfunction'
p101
S'dysfunction'
p102
S'NN'
p103
S'B-NP'
p104
g5
tp105
a(S'in'
p106
S'in'
p107
S'IN'
p108
S'B-PP'
p109
g5
tp110
a(S'three'
p111
S'three'
p112
S'CD'
p113
S'B-NP'
p114
g5
tp115
a(S'core'
p116
S'core'
p117
S'NN'
p118
S'I-NP'
p119
S'B-protein'
p120
tp121
a(S'behavioral'
p122
S'behavioral'
p123
S'JJ'
p124
S'I-NP'
p125
S'I-protein'
p126
tp127
a(S'domains'
p128
S'domain'
p129
S'NNS'
p130
S'I-NP'
p131
S'I-protein'
p132
tp133
a(S':'
p134
g134
g134
g5
g5
tp135
a(S'repetitive'
p136
S'repetitive'
p137
S'JJ'
p138
S'B-NP'
p139
g5
tp140
a(S'behaviors'
p141
S'behavior'
p142
S'NNS'
p143
S'I-NP'
p144
g5
tp145
a(S','
p146
g146
g146
g5
g5
tp147
a(S'social'
p148
S'social'
p149
S'JJ'
p150
S'B-NP'
p151
g5
tp152
a(S'deficits'
p153
S'deficit'
p154
S'NNS'
p155
S'I-NP'
p156
g5
tp157
a(g146
g146
g146
g5
g5
tp158
a(S'and'
p159
S'and'
p160
S'CC'
p161
g5
g5
tp162
a(S'language'
p163
S'language'
p164
S'NN'
p165
S'B-NP'
p166
g5
tp167
a(S'abnormalities.'
p168
S'abnormalities.'
p169
S'NN'
p170
S'I-NP'
p171
g5
tp172
a(S'There'
p173
S'There'
p174
S'EX'
p175
S'B-NP'
p176
g5
tp177
a(S'is'
p178
S'be'
p179
S'VBZ'
p180
S'B-VP'
p181
g5
tp182
a(S'evidence'
p183
S'evidence'
p184
S'NN'
p185
S'B-NP'
p186
g5
tp187
a(S'that'
p188
S'that'
p189
S'IN'
p190
S'B-SBAR'
p191
g5
tp192
a(S'abnormalities'
p193
S'abnormality'
p194
S'NNS'
p195
S'B-NP'
p196
g5
tp197
a(S'exist'
p198
S'exist'
p199
S'VBP'
p200
S'B-VP'
p201
g5
tp202
a(S'in'
p203
S'in'
p204
S'IN'
p205
S'B-PP'
p206
g5
tp207
a(S'peptide'
p208
S'peptide'
p209
S'NN'
p210
S'B-NP'
p211
g5
tp212
a(S'systems'
p213
S'system'
p214
S'NNS'
p215
S'I-NP'
p216
g5
tp217
a(g146
g146
g146
g5
g5
tp218
a(S'particularly'
p219
S'particularly'
p220
S'RB'
p221
S'B-ADVP'
p222
g5
tp223
a(S'the'
p224
S'the'
p225
S'DT'
p226
S'B-NP'
p227
g5
tp228
a(S'oxytocin'
p229
S'oxytocin'
p230
S'NN'
p231
S'I-NP'
p232
g5
tp233
a(S'system'
p234
S'system'
p235
S'NN'
p236
S'I-NP'
p237
g5
tp238
a(g146
g146
g146
g5
g5
tp239
a(S'in'
p240
S'in'
p241
S'IN'
p242
S'B-PP'
p243
g5
tp244
a(S'autism'
p245
S'autism'
p246
S'NN'
p247
S'B-NP'
p248
g5
tp249
a(S'spectrum'
p250
S'spectrum'
p251
S'NN'
p252
S'I-NP'
p253
g5
tp254
a(S'patients.'
p255
S'patients.'
p256
S'NN'
p257
S'I-NP'
p258
g5
tp259
a(S'Furthermore'
p260
S'Furthermore'
p261
S'RB'
p262
S'B-ADVP'
p263
g5
tp264
a(g146
g146
g146
g5
g5
tp265
a(S'oxytocin'
p266
S'oxytocin'
p267
S'NN'
p268
S'B-NP'
p269
g5
tp270
a(S'and'
p271
S'and'
p272
S'CC'
p273
g5
g5
tp274
a(S'the'
p275
S'the'
p276
S'DT'
p277
S'B-NP'
p278
g5
tp279
a(S'closely'
p280
S'closely'
p281
S'RB'
p282
S'I-NP'
p283
g5
tp284
a(S'related'
p285
S'related'
p286
S'JJ'
p287
S'I-NP'
p288
g5
tp289
a(S'peptide'
p290
S'peptide'
p291
S'NN'
p292
S'I-NP'
p293
g5
tp294
a(S'vasopressin'
p295
S'vasopressin'
p296
S'NN'
p297
S'I-NP'
p298
g5
tp299
a(S'are'
p300
S'be'
p301
S'VBP'
p302
S'B-VP'
p303
g5
tp304
a(S'known'
p305
S'know'
p306
S'VBN'
p307
S'I-VP'
p308
g5
tp309
a(S'to'
p310
S'to'
p311
S'TO'
p312
S'I-VP'
p313
g5
tp314
a(S'play'
p315
S'play'
p316
S'VB'
p317
S'I-VP'
p318
g5
tp319
a(g77
g77
S'DT'
p320
S'B-NP'
p321
g5
tp322
a(S'role'
p323
S'role'
p324
S'NN'
p325
S'I-NP'
p326
g5
tp327
a(S'in'
p328
S'in'
p329
S'IN'
p330
S'B-PP'
p331
g5
tp332
a(S'social'
p333
S'social'
p334
S'JJ'
p335
S'B-NP'
p336
g5
tp337
a(S'and'
p338
S'and'
p339
S'CC'
p340
S'I-NP'
p341
g5
tp342
a(S'repetitive'
p343
S'repetitive'
p344
S'JJ'
p345
S'I-NP'
p346
g5
tp347
a(S'behaviors.'
p348
S'behaviors.'
p349
S'NN'
p350
S'I-NP'
p351
g5
tp352
a(S'This'
p353
S'This'
p354
S'DT'
p355
S'B-NP'
p356
g5
tp357
a(S'study'
p358
S'study'
p359
S'NN'
p360
S'I-NP'
p361
g5
tp362
a(S'examined'
p363
S'examine'
p364
S'VBD'
p365
S'B-VP'
p366
g5
tp367
a(S'the'
p368
S'the'
p369
S'DT'
p370
S'B-NP'
p371
g5
tp372
a(S'impact'
p373
S'impact'
p374
S'NN'
p375
S'I-NP'
p376
g5
tp377
a(S'of'
p378
S'of'
p379
S'IN'
p380
S'B-PP'
p381
g5
tp382
a(S'oxytocin'
p383
S'oxytocin'
p384
S'NN'
p385
S'B-NP'
p386
g5
tp387
a(S'on'
p388
S'on'
p389
S'IN'
p390
S'B-PP'
p391
g5
tp392
a(S'repetitive'
p393
S'repetitive'
p394
S'JJ'
p395
S'B-NP'
p396
g5
tp397
a(S'behaviors'
p398
S'behavior'
p399
S'NNS'
p400
S'I-NP'
p401
g5
tp402
a(S'in'
p403
S'in'
p404
S'IN'
p405
S'B-PP'
p406
g5
tp407
a(S'15'
p408
S'15'
p409
S'CD'
p410
S'B-NP'
p411
g5
tp412
a(S'adults'
p413
S'adult'
p414
S'NNS'
p415
S'I-NP'
p416
g5
tp417
a(S'with'
p418
S'with'
p419
S'IN'
p420
S'B-PP'
p421
g5
tp422
a(S'autism'
p423
S'autism'
p424
S'NN'
p425
S'B-NP'
p426
g5
tp427
a(S'or'
p428
S'or'
p429
S'CC'
p430
g5
g5
tp431
a(S'Asperger'
p432
S'Asperger'
p433
S'NN'
p434
S'B-NP'
p435
g5
tp436
a(S"'s"
p437
S"'s"
p438
S'POS'
p439
S'B-NP'
p440
g5
tp441
a(S'disorder'
p442
S'disorder'
p443
S'NN'
p444
S'I-NP'
p445
g5
tp446
a(S'via'
p447
S'via'
p448
S'IN'
p449
S'B-PP'
p450
g5
tp451
a(S'randomized'
p452
S'randomize'
p453
S'VBN'
p454
S'B-NP'
p455
g5
tp456
a(S'double-blind'
p457
S'double-blind'
p458
S'JJ'
p459
S'I-NP'
p460
g5
tp461
a(S'oxytocin'
p462
S'oxytocin'
p463
S'NN'
p464
S'I-NP'
p465
g5
tp466
a(S'and'
p467
S'and'
p468
S'CC'
p469
S'I-NP'
p470
g5
tp471
a(S'placebo'
p472
S'placebo'
p473
S'NN'
p474
S'I-NP'
p475
g5
tp476
a(S'challenges.'
p477
S'challenges.'
p478
S'NN'
p479
S'I-NP'
p480
g5
tp481
a(S'The'
p482
S'The'
p483
S'DT'
p484
S'B-NP'
p485
g5
tp486
a(S'primary'
p487
S'primary'
p488
S'JJ'
p489
S'I-NP'
p490
g5
tp491
a(S'outcome'
p492
S'outcome'
p493
S'NN'
p494
S'I-NP'
p495
g5
tp496
a(S'measure'
p497
S'measure'
p498
S'NN'
p499
S'I-NP'
p500
g5
tp501
a(S'was'
p502
S'be'
p503
S'VBD'
p504
S'B-VP'
p505
g5
tp506
a(S'an'
p507
S'an'
p508
S'DT'
p509
S'B-NP'
p510
g5
tp511
a(S'instrument'
p512
S'instrument'
p513
S'NN'
p514
S'I-NP'
p515
g5
tp516
a(S'rating'
p517
S'rat'
p518
S'VBG'
p519
S'B-VP'
p520
g5
tp521
a(S'six'
p522
S'six'
p523
S'CD'
p524
S'B-NP'
p525
g5
tp526
a(S'repetitive'
p527
S'repetitive'
p528
S'JJ'
p529
S'I-NP'
p530
g5
tp531
a(S'behaviors'
p532
S'behavior'
p533
S'NNS'
p534
S'I-NP'
p535
g5
tp536
a(g134
g134
g134
g5
g5
tp537
a(S'need'
p538
S'need'
p539
S'VB'
p540
S'B-VP'
p541
g5
tp542
a(S'to'
p543
S'to'
p544
S'TO'
p545
S'I-VP'
p546
g5
tp547
a(S'know'
p548
S'know'
p549
S'VB'
p550
S'I-VP'
p551
g5
tp552
a(g146
g146
g146
g5
g5
tp553
a(S'repeating'
p554
S'repeat'
p555
S'VBG'
p556
S'B-VP'
p557
g5
tp558
a(g146
g146
g146
g5
g5
tp559
a(S'ordering'
p560
S'order'
p561
S'VBG'
p562
S'B-VP'
p563
g5
tp564
a(g146
g146
g146
g5
g5
tp565
a(S'need'
p566
S'need'
p567
S'VBP'
p568
S'B-VP'
p569
g5
tp570
a(S'to'
p571
S'to'
p572
S'TO'
p573
S'I-VP'
p574
g5
tp575
a(S'tell/ask'
p576
S'tell/ask'
p577
S'VB'
p578
S'I-VP'
p579
g5
tp580
a(g146
g146
g146
g5
g5
tp581
a(S'self-injury'
p582
S'self-injury'
p583
S'NN'
p584
S'B-NP'
p585
g5
tp586
a(g146
g146
g146
g5
g5
tp587
a(S'and'
p588
S'and'
p589
S'CC'
p590
g5
g5
tp591
a(S'touching.'
p592
S'touching.'
p593
S'NN'
p594
S'B-NP'
p595
g5
tp596
a(S'Patients'
p597
S'Patient'
p598
S'NNS'
p599
S'I-NP'
p600
g5
tp601
a(S'with'
p602
S'with'
p603
S'IN'
p604
S'B-PP'
p605
g5
tp606
a(S'autism'
p607
S'autism'
p608
S'NN'
p609
S'B-NP'
p610
g5
tp611
a(S'spectrum'
p612
S'spectrum'
p613
S'NN'
p614
S'I-NP'
p615
g5
tp616
a(S'disorders'
p617
S'disorder'
p618
S'NNS'
p619
S'I-NP'
p620
g5
tp621
a(S'showed'
p622
S'show'
p623
S'VBD'
p624
S'B-VP'
p625
g5
tp626
a(g77
g77
S'DT'
p627
S'B-NP'
p628
g5
tp629
a(S'significant'
p630
S'significant'
p631
S'JJ'
p632
S'I-NP'
p633
g5
tp634
a(S'reduction'
p635
S'reduction'
p636
S'NN'
p637
S'I-NP'
p638
g5
tp639
a(S'in'
p640
S'in'
p641
S'IN'
p642
S'B-PP'
p643
g5
tp644
a(S'repetitive'
p645
S'repetitive'
p646
S'JJ'
p647
S'B-NP'
p648
g5
tp649
a(S'behaviors'
p650
S'behavior'
p651
S'NNS'
p652
S'I-NP'
p653
g5
tp654
a(S'following'
p655
S'follow'
p656
S'VBG'
p657
S'B-PP'
p658
g5
tp659
a(S'oxytocin'
p660
S'oxytocin'
p661
S'NN'
p662
S'B-NP'
p663
g5
tp664
a(S'infusion'
p665
S'infusion'
p666
S'NN'
p667
S'I-NP'
p668
g5
tp669
a(S'in'
p670
S'in'
p671
S'IN'
p672
S'B-PP'
p673
g5
tp674
a(S'comparison'
p675
S'comparison'
p676
S'NN'
p677
S'B-NP'
p678
g5
tp679
a(S'to'
p680
S'to'
p681
S'TO'
p682
S'B-VP'
p683
g5
tp684
a(S'placebo'
p685
S'placebo'
p686
S'VB'
p687
S'I-VP'
p688
g5
tp689
a(S'infusion.'
p690
S'infusion.'
p691
S'NN'
p692
S'B-NP'
p693
g5
tp694
a(S'Repetitive'
p695
S'Repetitive'
p696
S'JJ'
p697
S'I-NP'
p698
g5
tp699
a(S'behavior'
p700
S'behavior'
p701
S'NN'
p702
S'I-NP'
p703
g5
tp704
a(S'in'
p705
S'in'
p706
S'IN'
p707
S'B-PP'
p708
g5
tp709
a(S'autism'
p710
S'autism'
p711
S'NN'
p712
S'B-NP'
p713
g5
tp714
a(S'spectrum'
p715
S'spectrum'
p716
S'NN'
p717
S'I-NP'
p718
g5
tp719
a(S'disorders'
p720
S'disorder'
p721
S'NNS'
p722
S'I-NP'
p723
g5
tp724
a(S'may'
p725
S'may'
p726
S'MD'
p727
S'B-VP'
p728
g5
tp729
a(S'be'
p730
S'be'
p731
S'VB'
p732
S'I-VP'
p733
g5
tp734
a(S'related'
p735
S'relate'
p736
S'VBN'
p737
S'I-VP'
p738
g5
tp739
a(S'to'
p740
S'to'
p741
S'TO'
p742
S'B-PP'
p743
g5
tp744
a(S'abnormalities'
p745
S'abnormality'
p746
S'NNS'
p747
S'B-NP'
p748
g5
tp749
a(S'in'
p750
S'in'
p751
S'IN'
p752
S'B-PP'
p753
g5
tp754
a(S'the'
p755
S'the'
p756
S'DT'
p757
S'B-NP'
p758
g5
tp759
a(S'oxytocin'
p760
S'oxytocin'
p761
S'NN'
p762
S'I-NP'
p763
g5
tp764
a(S'system'
p765
S'system'
p766
S'NN'
p767
S'I-NP'
p768
g5
tp769
a(g146
g146
g146
g5
g5
tp770
a(S'and'
p771
S'and'
p772
S'CC'
p773
g5
g5
tp774
a(S'may'
p775
S'may'
p776
S'MD'
p777
S'B-VP'
p778
g5
tp779
a(S'be'
p780
S'be'
p781
S'VB'
p782
S'I-VP'
p783
g5
tp784
a(S'partially'
p785
S'partially'
p786
S'RB'
p787
S'I-VP'
p788
g5
tp789
a(S'ameliorated'
p790
S'ameliorate'
p791
S'VBN'
p792
S'I-VP'
p793
g5
tp794
a(S'by'
p795
S'by'
p796
S'IN'
p797
S'B-PP'
p798
g5
tp799
a(S'synthetic'
p800
S'synthetic'
p801
S'JJ'
p802
S'B-NP'
p803
g5
tp804
a(S'oxytocin'
p805
S'oxytocin'
p806
S'NN'
p807
S'I-NP'
p808
g5
tp809
a(S'infusion'
p810
S'infusion'
p811
S'NN'
p812
S'I-NP'
p813
g5
tp814
a(g65
g65
g65
g5
g5
tp815
a.