(lp0
(S'Assessment'
p1
S'Assessment'
p2
S'NN'
p3
S'B-NP'
p4
S'O'
p5
tp6
a(S'of'
p7
S'of'
p8
S'IN'
p9
S'B-PP'
p10
g5
tp11
a(S'radiotherapy'
p12
S'radiotherapy'
p13
S'NN'
p14
S'B-NP'
p15
g5
tp16
a(S'combined'
p17
S'combine'
p18
S'VBN'
p19
S'B-VP'
p20
g5
tp21
a(S'with'
p22
S'with'
p23
S'IN'
p24
S'B-PP'
p25
g5
tp26
a(S'adjuvant'
p27
S'adjuvant'
p28
S'JJ'
p29
S'B-NP'
p30
g5
tp31
a(S'chemotherapy'
p32
S'chemotherapy'
p33
S'NN'
p34
S'I-NP'
p35
g5
tp36
a(S'in'
p37
S'in'
p38
S'IN'
p39
S'B-PP'
p40
g5
tp41
a(S'the'
p42
S'the'
p43
S'DT'
p44
S'B-NP'
p45
g5
tp46
a(S'treatment'
p47
S'treatment'
p48
S'NN'
p49
S'I-NP'
p50
g5
tp51
a(S'of'
p52
S'of'
p53
S'IN'
p54
S'B-PP'
p55
g5
tp56
a(S'patients'
p57
S'patient'
p58
S'NNS'
p59
S'B-NP'
p60
g5
tp61
a(S'with'
p62
S'with'
p63
S'IN'
p64
S'B-PP'
p65
g5
tp66
a(S'advanced'
p67
S'advance'
p68
S'VBN'
p69
S'B-NP'
p70
g5
tp71
a(S'nasopharyngeal'
p72
S'nasopharyngeal'
p73
S'JJ'
p74
S'I-NP'
p75
g5
tp76
a(S'carcinoma'
p77
S'carcinoma'
p78
S'NN'
p79
S'I-NP'
p80
g5
tp81
a(S':'
p82
g82
g82
g5
g5
tp83
a(S'a'
p84
g84
S'DT'
p85
S'B-NP'
p86
g5
tp87
a(S'prospective'
p88
S'prospective'
p89
S'JJ'
p90
S'I-NP'
p91
g5
tp92
a(S'study'
p93
S'study'
p94
S'NN'
p95
S'I-NP'
p96
g5
tp97
a(S'.'
p98
g98
g98
g5
g5
tp99
a(S'PURPOSE'
p100
S'PURPOSE'
p101
S'NN'
p102
S'B-NP'
p103
g5
tp104
a(S'To'
p105
S'To'
p106
S'TO'
p107
S'B-VP'
p108
g5
tp109
a(S'explore'
p110
S'explore'
p111
S'VB'
p112
S'I-VP'
p113
g5
tp114
a(S'the'
p115
S'the'
p116
S'DT'
p117
S'B-NP'
p118
g5
tp119
a(S'clinical'
p120
S'clinical'
p121
S'JJ'
p122
S'I-NP'
p123
g5
tp124
a(S'efficacy'
p125
S'efficacy'
p126
S'NN'
p127
S'I-NP'
p128
g5
tp129
a(S'of'
p130
S'of'
p131
S'IN'
p132
S'B-PP'
p133
g5
tp134
a(S'radiotherapy'
p135
S'radiotherapy'
p136
S'NN'
p137
S'B-NP'
p138
g5
tp139
a(S'combined'
p140
S'combine'
p141
S'VBN'
p142
S'B-VP'
p143
g5
tp144
a(S'with'
p145
S'with'
p146
S'IN'
p147
S'B-PP'
p148
g5
tp149
a(S'concurrent'
p150
S'concurrent'
p151
S'JJ'
p152
S'B-NP'
p153
g5
tp154
a(S'combination'
p155
S'combination'
p156
S'NN'
p157
S'I-NP'
p158
g5
tp159
a(S'chemotherapy'
p160
S'chemotherapy'
p161
S'NN'
p162
S'I-NP'
p163
g5
tp164
a(S'in'
p165
S'in'
p166
S'IN'
p167
S'B-PP'
p168
g5
tp169
a(S'the'
p170
S'the'
p171
S'DT'
p172
S'B-NP'
p173
g5
tp174
a(S'treatment'
p175
S'treatment'
p176
S'NN'
p177
S'I-NP'
p178
g5
tp179
a(S'of'
p180
S'of'
p181
S'IN'
p182
S'B-PP'
p183
g5
tp184
a(S'patients'
p185
S'patient'
p186
S'NNS'
p187
S'B-NP'
p188
g5
tp189
a(S'with'
p190
S'with'
p191
S'IN'
p192
S'B-PP'
p193
g5
tp194
a(S'advanced'
p195
S'advance'
p196
S'VBN'
p197
S'B-NP'
p198
g5
tp199
a(S'nasopharyngeal'
p200
S'nasopharyngeal'
p201
S'JJ'
p202
S'I-NP'
p203
g5
tp204
a(S'carcinoma'
p205
S'carcinoma'
p206
S'NN'
p207
S'I-NP'
p208
g5
tp209
a(S'('
p210
g210
g210
g5
g5
tp211
a(S'NPC'
p212
S'NPC'
p213
S'NN'
p214
S'B-NP'
p215
S'B-protein'
p216
tp217
a(S')'
p218
g218
g218
g5
g5
tp219
a(g98
g98
g98
g5
g5
tp220
a(S'METHODS'
p221
S'METHODS'
p222
S'NNS'
p223
S'B-NP'
p224
g5
tp225
a(S'Two'
p226
S'Two'
p227
S'CD'
p228
S'B-NP'
p229
g5
tp230
a(S'hundred'
p231
S'hundred'
p232
S'CD'
p233
S'I-NP'
p234
g5
tp235
a(S'patients'
p236
S'patient'
p237
S'NNS'
p238
S'I-NP'
p239
g5
tp240
a(S'with'
p241
S'with'
p242
S'IN'
p243
S'B-PP'
p244
g5
tp245
a(S'stage'
p246
S'stage'
p247
S'NN'
p248
S'B-NP'
p249
g5
tp250
a(S'III/IV'
p251
S'III/IV'
p252
S'CD'
p253
S'I-NP'
p254
g5
tp255
a(S'NPC'
p256
S'NPC'
p257
S'NN'
p258
S'I-NP'
p259
S'B-protein'
p260
tp261
a(S'were'
p262
S'be'
p263
S'VBD'
p264
S'B-VP'
p265
g5
tp266
a(S'randomly'
p267
S'randomly'
p268
S'RB'
p269
S'I-VP'
p270
g5
tp271
a(S'allocated'
p272
S'allocate'
p273
S'VBN'
p274
S'I-VP'
p275
g5
tp276
a(S'into'
p277
S'into'
p278
S'IN'
p279
S'B-PP'
p280
g5
tp281
a(S'the'
p282
S'the'
p283
S'DT'
p284
S'B-NP'
p285
g5
tp286
a(S'treatment'
p287
S'treatment'
p288
S'NN'
p289
S'I-NP'
p290
g5
tp291
a(S'group'
p292
S'group'
p293
S'NN'
p294
S'I-NP'
p295
g5
tp296
a(g210
g210
g210
g5
g5
tp297
a(S'N=100'
p298
S'N=100'
p299
S'NN'
p300
S'B-NP'
p301
S'B-protein'
p302
tp303
a(g218
g218
g218
g5
g5
tp304
a(S'and'
p305
S'and'
p306
S'CC'
p307
g5
g5
tp308
a(S'the'
p309
S'the'
p310
S'DT'
p311
S'B-NP'
p312
g5
tp313
a(S'control'
p314
S'control'
p315
S'NN'
p316
S'I-NP'
p317
g5
tp318
a(S'group'
p319
S'group'
p320
S'NN'
p321
S'I-NP'
p322
g5
tp323
a(g210
g210
g210
g5
g5
tp324
a(S'N=100'
p325
S'N=100'
p326
S'NN'
p327
S'B-NP'
p328
g5
tp329
a(g218
g218
g218
g5
g5
tp330
a(g98
g98
g98
g5
g5
tp331
a(S'Patients'
p332
S'Patient'
p333
S'NNPS'
p334
S'B-NP'
p335
g5
tp336
a(S'in'
p337
S'in'
p338
S'IN'
p339
S'B-PP'
p340
g5
tp341
a(S'the'
p342
S'the'
p343
S'DT'
p344
S'B-NP'
p345
g5
tp346
a(S'control'
p347
S'control'
p348
S'NN'
p349
S'I-NP'
p350
g5
tp351
a(S'group'
p352
S'group'
p353
S'NN'
p354
S'I-NP'
p355
g5
tp356
a(S'received'
p357
S'receive'
p358
S'VBD'
p359
S'B-VP'
p360
g5
tp361
a(S'conventional'
p362
S'conventional'
p363
S'JJ'
p364
S'B-NP'
p365
g5
tp366
a(S'fractionated'
p367
S'fractionate'
p368
S'VBN'
p369
S'I-NP'
p370
g5
tp371
a(S'radiotherapy'
p372
S'radiotherapy'
p373
S'NN'
p374
S'I-NP'
p375
g5
tp376
a(S','
p377
g377
g377
g5
g5
tp378
a(S'while'
p379
S'while'
p380
S'IN'
p381
S'B-SBAR'
p382
g5
tp383
a(S'patients'
p384
S'patient'
p385
S'NNS'
p386
S'B-NP'
p387
g5
tp388
a(S'in'
p389
S'in'
p390
S'IN'
p391
S'B-PP'
p392
g5
tp393
a(S'the'
p394
S'the'
p395
S'DT'
p396
S'B-NP'
p397
g5
tp398
a(S'treatment'
p399
S'treatment'
p400
S'NN'
p401
S'I-NP'
p402
g5
tp403
a(S'group'
p404
S'group'
p405
S'NN'
p406
S'I-NP'
p407
g5
tp408
a(S'received'
p409
S'receive'
p410
S'VBD'
p411
S'B-VP'
p412
g5
tp413
a(S'conventional'
p414
S'conventional'
p415
S'JJ'
p416
S'B-NP'
p417
g5
tp418
a(S'fractionated'
p419
S'fractionate'
p420
S'VBN'
p421
S'I-NP'
p422
g5
tp423
a(S'radiotherapy'
p424
S'radiotherapy'
p425
S'NN'
p426
S'I-NP'
p427
g5
tp428
a(S'combined'
p429
S'combine'
p430
S'VBN'
p431
S'B-VP'
p432
g5
tp433
a(S'with'
p434
S'with'
p435
S'IN'
p436
S'B-PP'
p437
g5
tp438
a(S'concurrent'
p439
S'concurrent'
p440
S'JJ'
p441
S'B-NP'
p442
g5
tp443
a(S'combination'
p444
S'combination'
p445
S'NN'
p446
S'I-NP'
p447
g5
tp448
a(S'chemotherapy'
p449
S'chemotherapy'
p450
S'NN'
p451
S'I-NP'
p452
g5
tp453
a(S'with'
p454
S'with'
p455
S'IN'
p456
S'B-PP'
p457
g5
tp458
a(S'cisplatin'
p459
S'cisplatin'
p460
S'NN'
p461
S'B-NP'
p462
g5
tp463
a(S'and'
p464
S'and'
p465
S'CC'
p466
g5
g5
tp467
a(S'5-fluorouracil'
p468
S'5-fluorouracil'
p469
S'NN'
p470
S'B-NP'
p471
g5
tp472
a(g210
g210
g210
g5
g5
tp473
a(S'5-FU'
p474
S'5-FU'
p475
S'NN'
p476
S'B-NP'
p477
g5
tp478
a(g218
g218
g218
g5
g5
tp479
a(g98
g98
g98
g5
g5
tp480
a(S'Short-term'
p481
S'Short-term'
p482
S'JJ'
p483
S'B-NP'
p484
g5
tp485
a(S'efficacy'
p486
S'efficacy'
p487
S'NN'
p488
S'I-NP'
p489
g5
tp490
a(g377
g377
g377
g5
g5
tp491
a(S'radiotherapy'
p492
S'radiotherapy'
p493
S'NN'
p494
S'B-NP'
p495
g5
tp496
a(S'toxicity'
p497
S'toxicity'
p498
S'NN'
p499
S'I-NP'
p500
g5
tp501
a(g377
g377
g377
g5
g5
tp502
a(S'shortand'
p503
S'shortand'
p504
S'VB'
p505
S'B-VP'
p506
g5
tp507
a(S'long-term'
p508
S'long-term'
p509
S'JJ'
p510
S'B-NP'
p511
g5
tp512
a(S'survival'
p513
S'survival'
p514
S'NN'
p515
S'I-NP'
p516
g5
tp517
a(S'were'
p518
S'be'
p519
S'VBD'
p520
S'B-VP'
p521
g5
tp522
a(S'compared'
p523
S'compare'
p524
S'VBN'
p525
S'I-VP'
p526
g5
tp527
a(g98
g98
g98
g5
g5
tp528
a(S'RESULTS'
p529
S'RESULTS'
p530
S'NNS'
p531
S'B-NP'
p532
g5
tp533
a(S'The'
p534
S'The'
p535
S'DT'
p536
S'B-NP'
p537
g5
tp538
a(S'short-term'
p539
S'short-term'
p540
S'JJ'
p541
S'I-NP'
p542
g5
tp543
a(S'response'
p544
S'response'
p545
S'NN'
p546
S'I-NP'
p547
g5
tp548
a(S'rate'
p549
S'rate'
p550
S'NN'
p551
S'I-NP'
p552
g5
tp553
a(S'of'
p554
S'of'
p555
S'IN'
p556
S'B-PP'
p557
g5
tp558
a(S'the'
p559
S'the'
p560
S'DT'
p561
S'B-NP'
p562
g5
tp563
a(S'treatment'
p564
S'treatment'
p565
S'NN'
p566
S'I-NP'
p567
g5
tp568
a(S'group'
p569
S'group'
p570
S'NN'
p571
S'I-NP'
p572
g5
tp573
a(S'was'
p574
S'be'
p575
S'VBD'
p576
S'B-VP'
p577
g5
tp578
a(S'96'
p579
S'96'
p580
S'CD'
p581
S'B-NP'
p582
g5
tp583
a(S'%'
p584
g584
S'NN'
p585
S'I-NP'
p586
g5
tp587
a(g377
g377
g377
g5
g5
tp588
a(S'which'
p589
S'which'
p590
S'WDT'
p591
S'B-NP'
p592
g5
tp593
a(S'was'
p594
S'be'
p595
S'VBD'
p596
S'B-VP'
p597
g5
tp598
a(S'significantly'
p599
S'significantly'
p600
S'RB'
p601
S'B-ADJP'
p602
g5
tp603
a(S'higher'
p604
S'high'
p605
S'JJR'
p606
S'I-ADJP'
p607
g5
tp608
a(S'than'
p609
S'than'
p610
S'IN'
p611
S'B-PP'
p612
g5
tp613
a(S'that'
p614
S'that'
p615
S'DT'
p616
S'B-NP'
p617
g5
tp618
a(S'of'
p619
S'of'
p620
S'IN'
p621
S'B-PP'
p622
g5
tp623
a(S'the'
p624
S'the'
p625
S'DT'
p626
S'B-NP'
p627
g5
tp628
a(S'control'
p629
S'control'
p630
S'NN'
p631
S'I-NP'
p632
g5
tp633
a(S'group'
p634
S'group'
p635
S'NN'
p636
S'I-NP'
p637
g5
tp638
a(g210
g210
g210
g5
g5
tp639
a(S'87'
p640
S'87'
p641
S'CD'
p642
S'B-NP'
p643
g5
tp644
a(g584
g584
S'NN'
p645
S'I-NP'
p646
g5
tp647
a(g377
g377
g377
g5
g5
tp648
a(S'p'
p649
g649
S'NN'
p650
S'B-NP'
p651
g5
tp652
a(S'<'
p653
g653
S'SYM'
p654
S'B-NP'
p655
g5
tp656
a(S'0.05'
p657
S'0.05'
p658
S'CD'
p659
S'I-NP'
p660
g5
tp661
a(g218
g218
g218
g5
g5
tp662
a(g98
g98
g98
g5
g5
tp663
a(S'The'
p664
S'The'
p665
S'DT'
p666
S'B-NP'
p667
g5
tp668
a(S'local'
p669
S'local'
p670
S'JJ'
p671
S'I-NP'
p672
g5
tp673
a(S'radiation'
p674
S'radiation'
p675
S'NN'
p676
S'I-NP'
p677
g5
tp678
a(S'toxicity'
p679
S'toxicity'
p680
S'NN'
p681
S'I-NP'
p682
g5
tp683
a(S'of'
p684
S'of'
p685
S'IN'
p686
S'B-PP'
p687
g5
tp688
a(S'the'
p689
S'the'
p690
S'DT'
p691
S'B-NP'
p692
g5
tp693
a(S'treatment'
p694
S'treatment'
p695
S'NN'
p696
S'I-NP'
p697
g5
tp698
a(S'group'
p699
S'group'
p700
S'NN'
p701
S'I-NP'
p702
g5
tp703
a(S'was'
p704
S'be'
p705
S'VBD'
p706
S'B-VP'
p707
g5
tp708
a(S'similar'
p709
S'similar'
p710
S'JJ'
p711
S'B-ADJP'
p712
g5
tp713
a(S'to'
p714
S'to'
p715
S'TO'
p716
S'B-PP'
p717
g5
tp718
a(S'that'
p719
S'that'
p720
S'DT'
p721
S'B-NP'
p722
g5
tp723
a(S'of'
p724
S'of'
p725
S'IN'
p726
S'B-PP'
p727
g5
tp728
a(S'the'
p729
S'the'
p730
S'DT'
p731
S'B-NP'
p732
g5
tp733
a(S'control'
p734
S'control'
p735
S'NN'
p736
S'I-NP'
p737
g5
tp738
a(S'group'
p739
S'group'
p740
S'NN'
p741
S'I-NP'
p742
g5
tp743
a(g649
g649
S'NN'
p744
S'I-NP'
p745
g5
tp746
a(S'>'
p747
g747
S'JJR'
p748
S'B-NP'
p749
g5
tp750
a(S'0.05'
p751
S'0.05'
p752
S'CD'
p753
S'I-NP'
p754
g5
tp755
a(g218
g218
g218
g5
g5
tp756
a(g377
g377
g377
g5
g5
tp757
a(S'but'
p758
S'but'
p759
S'CC'
p760
g5
g5
tp761
a(S'the'
p762
S'the'
p763
S'DT'
p764
S'B-NP'
p765
g5
tp766
a(S'hematological'
p767
S'hematological'
p768
S'JJ'
p769
S'I-NP'
p770
g5
tp771
a(S'and'
p772
S'and'
p773
S'CC'
p774
S'I-NP'
p775
g5
tp776
a(S'gastrointestinal'
p777
S'gastrointestinal'
p778
S'JJ'
p779
S'I-NP'
p780
g5
tp781
a(S'toxicities'
p782
S'toxicity'
p783
S'NNS'
p784
S'I-NP'
p785
g5
tp786
a(S'were'
p787
S'be'
p788
S'VBD'
p789
S'B-VP'
p790
g5
tp791
a(S'significantly'
p792
S'significantly'
p793
S'RB'
p794
S'B-ADJP'
p795
g5
tp796
a(S'higher'
p797
S'high'
p798
S'JJR'
p799
S'I-ADJP'
p800
g5
tp801
a(S'in'
p802
S'in'
p803
S'IN'
p804
S'B-PP'
p805
g5
tp806
a(S'the'
p807
S'the'
p808
S'DT'
p809
S'B-NP'
p810
g5
tp811
a(S'treatment'
p812
S'treatment'
p813
S'NN'
p814
S'I-NP'
p815
g5
tp816
a(S'group'
p817
S'group'
p818
S'NN'
p819
S'I-NP'
p820
g5
tp821
a(g649
g649
S'NN'
p822
S'I-NP'
p823
g5
tp824
a(g653
g653
S'SYM'
p825
S'B-NP'
p826
g5
tp827
a(S'0.05'
p828
S'0.05'
p829
S'CD'
p830
S'I-NP'
p831
g5
tp832
a(g218
g218
g218
g5
g5
tp833
a(g98
g98
g98
g5
g5
tp834
a(S'The'
p835
S'The'
p836
S'DT'
p837
S'B-NP'
p838
g5
tp839
a(S'1-'
p840
S'1-'
p841
S'NN'
p842
S'I-NP'
p843
g5
tp844
a(g377
g377
g377
g5
g5
tp845
a(S'3-'
p846
S'3-'
p847
S'NN'
p848
S'B-NP'
p849
g5
tp850
a(S'and'
p851
S'and'
p852
S'CC'
p853
g5
g5
tp854
a(S'5-year'
p855
S'5-year'
p856
S'JJ'
p857
S'B-NP'
p858
g5
tp859
a(S'overall'
p860
S'overall'
p861
S'JJ'
p862
S'I-NP'
p863
g5
tp864
a(S'survival'
p865
S'survival'
p866
S'NN'
p867
S'I-NP'
p868
g5
tp869
a(S'rates'
p870
S'rate'
p871
S'NNS'
p872
S'I-NP'
p873
g5
tp874
a(S'were'
p875
S'be'
p876
S'VBD'
p877
S'B-VP'
p878
g5
tp879
a(S'87'
p880
S'87'
p881
S'CD'
p882
S'B-NP'
p883
g5
tp884
a(g377
g377
g377
S'I-NP'
p885
g5
tp886
a(S'80'
p887
S'80'
p888
S'CD'
p889
S'I-NP'
p890
g5
tp891
a(g377
g377
g377
g5
g5
tp892
a(S'and'
p893
S'and'
p894
S'CC'
p895
g5
g5
tp896
a(S'76'
p897
S'76'
p898
S'CD'
p899
S'B-NP'
p900
g5
tp901
a(g584
g584
S'NN'
p902
S'I-NP'
p903
g5
tp904
a(g377
g377
g377
g5
g5
tp905
a(S'respectively'
p906
S'respectively'
p907
S'RB'
p908
S'B-ADVP'
p909
g5
tp910
a(g377
g377
g377
g5
g5
tp911
a(S'in'
p912
S'in'
p913
S'IN'
p914
S'B-PP'
p915
g5
tp916
a(S'the'
p917
S'the'
p918
S'DT'
p919
S'B-NP'
p920
g5
tp921
a(S'treatment'
p922
S'treatment'
p923
S'NN'
p924
S'I-NP'
p925
g5
tp926
a(S'group'
p927
S'group'
p928
S'NN'
p929
S'I-NP'
p930
g5
tp931
a(S'and'
p932
S'and'
p933
S'CC'
p934
g5
g5
tp935
a(S'74'
p936
S'74'
p937
S'CD'
p938
S'B-NP'
p939
g5
tp940
a(g377
g377
g377
S'I-NP'
p941
g5
tp942
a(S'64'
p943
S'64'
p944
S'CD'
p945
S'I-NP'
p946
g5
tp947
a(g377
g377
g377
g5
g5
tp948
a(S'and'
p949
S'and'
p950
S'CC'
p951
g5
g5
tp952
a(S'51'
p953
S'51'
p954
S'CD'
p955
S'B-NP'
p956
g5
tp957
a(g584
g584
S'NN'
p958
S'I-NP'
p959
g5
tp960
a(g377
g377
g377
g5
g5
tp961
a(S'respectively'
p962
S'respectively'
p963
S'RB'
p964
S'B-ADVP'
p965
g5
tp966
a(g377
g377
g377
g5
g5
tp967
a(S'in'
p968
S'in'
p969
S'IN'
p970
S'B-PP'
p971
g5
tp972
a(S'the'
p973
S'the'
p974
S'DT'
p975
S'B-NP'
p976
g5
tp977
a(S'control'
p978
S'control'
p979
S'NN'
p980
S'I-NP'
p981
g5
tp982
a(S'group'
p983
S'group'
p984
S'NN'
p985
S'I-NP'
p986
g5
tp987
a(g377
g377
g377
g5
g5
tp988
a(S'significantly'
p989
S'significantly'
p990
S'RB'
p991
S'B-VP'
p992
g5
tp993
a(S'favoring'
p994
S'favor'
p995
S'VBG'
p996
S'I-VP'
p997
g5
tp998
a(S'the'
p999
S'the'
p1000
S'DT'
p1001
S'B-NP'
p1002
g5
tp1003
a(S'treatment'
p1004
S'treatment'
p1005
S'NN'
p1006
S'I-NP'
p1007
g5
tp1008
a(S'group'
p1009
S'group'
p1010
S'NN'
p1011
S'I-NP'
p1012
g5
tp1013
a(g649
g649
S'NN'
p1014
S'I-NP'
p1015
g5
tp1016
a(g653
g653
S'SYM'
p1017
S'B-NP'
p1018
g5
tp1019
a(S'0.05'
p1020
S'0.05'
p1021
S'CD'
p1022
S'I-NP'
p1023
g5
tp1024
a(g218
g218
g218
g5
g5
tp1025
a(g98
g98
g98
g5
g5
tp1026
a(S'CONCLUSION'
p1027
S'CONCLUSION'
p1028
S'NN'
p1029
S'B-NP'
p1030
g5
tp1031
a(S'Radiotherapy'
p1032
S'Radiotherapy'
p1033
S'NN'
p1034
S'I-NP'
p1035
g5
tp1036
a(S'with'
p1037
S'with'
p1038
S'IN'
p1039
S'B-PP'
p1040
g5
tp1041
a(S'concurrent'
p1042
S'concurrent'
p1043
S'JJ'
p1044
S'B-NP'
p1045
g5
tp1046
a(S'combination'
p1047
S'combination'
p1048
S'NN'
p1049
S'I-NP'
p1050
g5
tp1051
a(S'chemotherapy'
p1052
S'chemotherapy'
p1053
S'NN'
p1054
S'I-NP'
p1055
g5
tp1056
a(S'can'
p1057
S'can'
p1058
S'MD'
p1059
S'B-VP'
p1060
g5
tp1061
a(S'improve'
p1062
S'improve'
p1063
S'VB'
p1064
S'I-VP'
p1065
g5
tp1066
a(S'the'
p1067
S'the'
p1068
S'DT'
p1069
S'B-NP'
p1070
g5
tp1071
a(S'prognosis'
p1072
S'prognosis'
p1073
S'NN'
p1074
S'I-NP'
p1075
g5
tp1076
a(S'of'
p1077
S'of'
p1078
S'IN'
p1079
S'B-PP'
p1080
g5
tp1081
a(S'patients'
p1082
S'patient'
p1083
S'NNS'
p1084
S'B-NP'
p1085
g5
tp1086
a(S'with'
p1087
S'with'
p1088
S'IN'
p1089
S'B-PP'
p1090
g5
tp1091
a(S'advanced'
p1092
S'advance'
p1093
S'VBN'
p1094
S'B-NP'
p1095
g5
tp1096
a(S'NPC'
p1097
S'NPC'
p1098
S'NN'
p1099
S'I-NP'
p1100
S'B-protein'
p1101
tp1102
a(S'but'
p1103
S'but'
p1104
S'CC'
p1105
g5
g5
tp1106
a(S'at'
p1107
S'at'
p1108
S'IN'
p1109
S'B-PP'
p1110
g5
tp1111
a(S'the'
p1112
S'the'
p1113
S'DT'
p1114
S'B-NP'
p1115
g5
tp1116
a(S'cost'
p1117
S'cost'
p1118
S'NN'
p1119
S'I-NP'
p1120
g5
tp1121
a(S'of'
p1122
S'of'
p1123
S'IN'
p1124
S'B-PP'
p1125
g5
tp1126
a(S'significant'
p1127
S'significant'
p1128
S'JJ'
p1129
S'B-NP'
p1130
g5
tp1131
a(S'toxicity'
p1132
S'toxicity'
p1133
S'NN'
p1134
S'I-NP'
p1135
g5
tp1136
a(g98
g98
g98
g5
g5
tp1137
a.