(lp0
(S'Safety'
p1
S'Safety'
p2
S'NN'
p3
S'B-NP'
p4
S'O'
p5
tp6
a(S'of'
p7
S'of'
p8
S'IN'
p9
S'B-PP'
p10
g5
tp11
a(S'the'
p12
S'the'
p13
S'DT'
p14
S'B-NP'
p15
g5
tp16
a(S'combination'
p17
S'combination'
p18
S'NN'
p19
S'I-NP'
p20
g5
tp21
a(S'of'
p22
S'of'
p23
S'IN'
p24
S'B-PP'
p25
g5
tp26
a(S'valsartan'
p27
S'valsartan'
p28
S'NN'
p29
S'B-NP'
p30
g5
tp31
a(S'and'
p32
S'and'
p33
S'CC'
p34
S'I-NP'
p35
g5
tp36
a(S'benazepril'
p37
S'benazepril'
p38
S'NN'
p39
S'I-NP'
p40
g5
tp41
a(S'in'
p42
S'in'
p43
S'IN'
p44
S'B-PP'
p45
g5
tp46
a(S'patients'
p47
S'patient'
p48
S'NNS'
p49
S'B-NP'
p50
g5
tp51
a(S'with'
p52
S'with'
p53
S'IN'
p54
S'B-PP'
p55
g5
tp56
a(S'chronic'
p57
S'chronic'
p58
S'JJ'
p59
S'B-NP'
p60
g5
tp61
a(S'renal'
p62
S'renal'
p63
S'JJ'
p64
S'I-NP'
p65
g5
tp66
a(S'disease.'
p67
S'disease.'
p68
S'NN'
p69
S'I-NP'
p70
g5
tp71
a(S'European'
p72
S'European'
p73
S'NNP'
p74
S'I-NP'
p75
g5
tp76
a(S'Group'
p77
S'Group'
p78
S'NNP'
p79
S'I-NP'
p80
g5
tp81
a(S'for'
p82
S'for'
p83
S'IN'
p84
S'B-PP'
p85
g5
tp86
a(S'the'
p87
S'the'
p88
S'DT'
p89
S'B-NP'
p90
g5
tp91
a(S'Investigation'
p92
S'Investigation'
p93
S'NN'
p94
S'I-NP'
p95
g5
tp96
a(S'of'
p97
S'of'
p98
S'IN'
p99
S'B-PP'
p100
g5
tp101
a(S'Valsartan'
p102
S'Valsartan'
p103
S'NNP'
p104
S'B-NP'
p105
g5
tp106
a(S'in'
p107
S'in'
p108
S'IN'
p109
S'B-PP'
p110
g5
tp111
a(S'Chronic'
p112
S'Chronic'
p113
S'NNP'
p114
S'B-NP'
p115
g5
tp116
a(S'Renal'
p117
S'Renal'
p118
S'JJ'
p119
S'I-NP'
p120
g5
tp121
a(S'Disease'
p122
S'Disease'
p123
S'NN'
p124
S'I-NP'
p125
g5
tp126
a(S'.'
p127
g127
g127
g5
g5
tp128
a(S'OBJECTIVE'
p129
S'OBJECTIVE'
p130
S'NN'
p131
S'B-NP'
p132
g5
tp133
a(S'Several'
p134
S'Several'
p135
S'JJ'
p136
S'I-NP'
p137
g5
tp138
a(S'experimental'
p139
S'experimental'
p140
S'JJ'
p141
S'I-NP'
p142
g5
tp143
a(S'and'
p144
S'and'
p145
S'CC'
p146
S'I-NP'
p147
g5
tp148
a(S'clinical'
p149
S'clinical'
p150
S'JJ'
p151
S'I-NP'
p152
g5
tp153
a(S'studies'
p154
S'study'
p155
S'NNS'
p156
S'I-NP'
p157
g5
tp158
a(S'indicate'
p159
S'indicate'
p160
S'VBP'
p161
S'B-VP'
p162
g5
tp163
a(S'that'
p164
S'that'
p165
S'IN'
p166
S'B-SBAR'
p167
g5
tp168
a(S'the'
p169
S'the'
p170
S'DT'
p171
S'B-NP'
p172
g5
tp173
a(S'renin'
p174
S'renin'
p175
S'NN'
p176
S'I-NP'
p177
S'B-protein'
p178
tp179
a(S'system'
p180
S'system'
p181
S'NN'
p182
S'I-NP'
p183
g5
tp184
a(S'may'
p185
S'may'
p186
S'MD'
p187
S'B-VP'
p188
g5
tp189
a(S'play'
p190
S'play'
p191
S'VB'
p192
S'I-VP'
p193
g5
tp194
a(S'a'
p195
g195
S'DT'
p196
S'B-NP'
p197
g5
tp198
a(S'pivotal'
p199
S'pivotal'
p200
S'JJ'
p201
S'I-NP'
p202
g5
tp203
a(S'role'
p204
S'role'
p205
S'NN'
p206
S'I-NP'
p207
g5
tp208
a(S'in'
p209
S'in'
p210
S'IN'
p211
S'B-PP'
p212
g5
tp213
a(S'progressing'
p214
S'progress'
p215
S'VBG'
p216
S'B-VP'
p217
g5
tp218
a(S'renal'
p219
S'renal'
p220
S'JJ'
p221
S'B-NP'
p222
g5
tp223
a(S'disease.'
p224
S'disease.'
p225
S'NN'
p226
S'I-NP'
p227
g5
tp228
a(S'The'
p229
S'The'
p230
S'DT'
p231
S'B-NP'
p232
g5
tp233
a(S'combination'
p234
S'combination'
p235
S'NN'
p236
S'I-NP'
p237
g5
tp238
a(S'of'
p239
S'of'
p240
S'IN'
p241
S'B-PP'
p242
g5
tp243
a(S'an'
p244
S'an'
p245
S'DT'
p246
S'B-NP'
p247
g5
tp248
a(S'angiotensin-converting'
p249
S'angiotensin-converting'
p250
S'JJ'
p251
S'I-NP'
p252
g5
tp253
a(S'enzyme'
p254
S'enzyme'
p255
S'NN'
p256
S'I-NP'
p257
g5
tp258
a(S'inhibitor'
p259
S'inhibitor'
p260
S'NN'
p261
S'I-NP'
p262
g5
tp263
a(S'and'
p264
S'and'
p265
S'CC'
p266
g5
g5
tp267
a(S'an'
p268
S'an'
p269
S'DT'
p270
S'B-NP'
p271
g5
tp272
a(S'angiotensin'
p273
S'angiotensin'
p274
S'NN'
p275
S'I-NP'
p276
g5
tp277
a(S'receptor'
p278
S'receptor'
p279
S'NN'
p280
S'I-NP'
p281
g5
tp282
a(S'blocker'
p283
S'blocker'
p284
S'NN'
p285
S'I-NP'
p286
g5
tp287
a(S'could'
p288
S'could'
p289
S'MD'
p290
S'B-VP'
p291
g5
tp292
a(S'provide'
p293
S'provide'
p294
S'VB'
p295
S'I-VP'
p296
g5
tp297
a(g195
g195
S'DT'
p298
S'B-NP'
p299
g5
tp300
a(S'higher'
p301
S'high'
p302
S'JJR'
p303
S'I-NP'
p304
g5
tp305
a(S'degree'
p306
S'degree'
p307
S'NN'
p308
S'I-NP'
p309
g5
tp310
a(S'of'
p311
S'of'
p312
S'IN'
p313
S'B-PP'
p314
g5
tp315
a(S'blockade'
p316
S'blockade'
p317
S'NN'
p318
S'B-NP'
p319
g5
tp320
a(S'of'
p321
S'of'
p322
S'IN'
p323
S'B-PP'
p324
g5
tp325
a(S'the'
p326
S'the'
p327
S'DT'
p328
S'B-NP'
p329
g5
tp330
a(S'renin-angiotensin'
p331
S'renin-angiotensin'
p332
S'NN'
p333
S'I-NP'
p334
g5
tp335
a(S'system'
p336
S'system'
p337
S'NN'
p338
S'I-NP'
p339
g5
tp340
a(S'than'
p341
S'than'
p342
S'IN'
p343
S'B-PP'
p344
g5
tp345
a(S'either'
p346
S'either'
p347
S'DT'
p348
S'B-NP'
p349
g5
tp350
a(S'agent'
p351
S'agent'
p352
S'NN'
p353
S'I-NP'
p354
g5
tp355
a(S'alone.'
p356
S'alone.'
p357
S'RB'
p358
S'B-NP'
p359
g5
tp360
a(S'Such'
p361
S'Such'
p362
S'JJ'
p363
S'I-NP'
p364
g5
tp365
a(S'enhanced'
p366
S'enhance'
p367
S'VBN'
p368
S'I-NP'
p369
g5
tp370
a(S'suppression'
p371
S'suppression'
p372
S'NN'
p373
S'I-NP'
p374
g5
tp375
a(S'might'
p376
S'might'
p377
S'MD'
p378
S'B-VP'
p379
g5
tp380
a(S'be'
p381
S'be'
p382
S'VB'
p383
S'I-VP'
p384
g5
tp385
a(S'of'
p386
S'of'
p387
S'IN'
p388
S'B-PP'
p389
g5
tp390
a(S'benefit'
p391
S'benefit'
p392
S'NN'
p393
S'B-NP'
p394
g5
tp395
a(S'for'
p396
S'for'
p397
S'IN'
p398
S'B-PP'
p399
g5
tp400
a(S'patients'
p401
S'patient'
p402
S'NNS'
p403
S'B-NP'
p404
g5
tp405
a(S'exhibiting'
p406
S'exhibit'
p407
S'VBG'
p408
S'B-VP'
p409
g5
tp410
a(g195
g195
S'DT'
p411
S'B-NP'
p412
g5
tp413
a(S'progressive'
p414
S'progressive'
p415
S'JJ'
p416
S'I-NP'
p417
g5
tp418
a(S'decline'
p419
S'decline'
p420
S'NN'
p421
S'I-NP'
p422
g5
tp423
a(S'in'
p424
S'in'
p425
S'IN'
p426
S'B-PP'
p427
g5
tp428
a(S'renal'
p429
S'renal'
p430
S'JJ'
p431
S'B-NP'
p432
g5
tp433
a(S'function'
p434
S'function'
p435
S'NN'
p436
S'I-NP'
p437
g5
tp438
a(S'because'
p439
S'because'
p440
S'IN'
p441
S'B-PP'
p442
g5
tp443
a(S'of'
p444
S'of'
p445
S'IN'
p446
S'I-PP'
p447
g5
tp448
a(S'chronic'
p449
S'chronic'
p450
S'JJ'
p451
S'B-NP'
p452
g5
tp453
a(S'renal'
p454
S'renal'
p455
S'JJ'
p456
S'I-NP'
p457
g5
tp458
a(S'disease'
p459
S'disease'
p460
S'NN'
p461
S'I-NP'
p462
g5
tp463
a(g127
g127
g127
g5
g5
tp464
a(S'METHODS'
p465
S'METHODS'
p466
S'NNS'
p467
S'B-NP'
p468
g5
tp469
a(S'A'
p470
g470
S'DT'
p471
S'B-NP'
p472
g5
tp473
a(S'pilot'
p474
S'pilot'
p475
S'RB'
p476
S'I-NP'
p477
g5
tp478
a(S'multinational'
p479
S'multinational'
p480
S'JJ'
p481
S'I-NP'
p482
g5
tp483
a(S','
p484
g484
g484
S'I-NP'
p485
g5
tp486
a(S'multicentre'
p487
S'multicentre'
p488
S'JJ'
p489
S'I-NP'
p490
g5
tp491
a(g484
g484
g484
S'I-NP'
p492
g5
tp493
a(S'randomized'
p494
S'randomize'
p495
S'VBN'
p496
S'I-NP'
p497
g5
tp498
a(g484
g484
g484
S'I-NP'
p499
g5
tp500
a(S'active-controlled'
p501
S'active-controlled'
p502
S'JJ'
p503
S'I-NP'
p504
g5
tp505
a(g484
g484
g484
S'I-NP'
p506
g5
tp507
a(S'parallel'
p508
S'parallel'
p509
S'JJ'
p510
S'I-NP'
p511
g5
tp512
a(S'group'
p513
S'group'
p514
S'NN'
p515
S'I-NP'
p516
g5
tp517
a(S'open-label'
p518
S'open-label'
p519
S'JJ'
p520
S'I-NP'
p521
g5
tp522
a(S'study'
p523
S'study'
p524
S'NN'
p525
S'I-NP'
p526
g5
tp527
a(S'has'
p528
S'have'
p529
S'VBZ'
p530
S'B-VP'
p531
g5
tp532
a(S'been'
p533
S'be'
p534
S'VBN'
p535
S'I-VP'
p536
g5
tp537
a(S'conducted'
p538
S'conduct'
p539
S'VBN'
p540
S'I-VP'
p541
g5
tp542
a(S'in'
p543
S'in'
p544
S'IN'
p545
S'B-PP'
p546
g5
tp547
a(g195
g195
S'DT'
p548
S'B-NP'
p549
g5
tp550
a(S'group'
p551
S'group'
p552
S'NN'
p553
S'I-NP'
p554
g5
tp555
a(S'of'
p556
S'of'
p557
S'IN'
p558
S'B-PP'
p559
g5
tp560
a(S'patients'
p561
S'patient'
p562
S'NNS'
p563
S'B-NP'
p564
g5
tp565
a(S'with'
p566
S'with'
p567
S'IN'
p568
S'B-PP'
p569
g5
tp570
a(S'progressive'
p571
S'progressive'
p572
S'JJ'
p573
S'B-NP'
p574
g5
tp575
a(S'chronic'
p576
S'chronic'
p577
S'JJ'
p578
S'I-NP'
p579
g5
tp580
a(S'renal'
p581
S'renal'
p582
S'JJ'
p583
S'I-NP'
p584
g5
tp585
a(S'failure'
p586
S'failure'
p587
S'NN'
p588
S'I-NP'
p589
g5
tp590
a(S'('
p591
g591
g591
g5
g5
tp592
a(S'creatinine'
p593
S'creatinine'
p594
S'NN'
p595
S'B-NP'
p596
g5
tp597
a(S'clearance'
p598
S'clearance'
p599
S'NN'
p600
S'I-NP'
p601
g5
tp602
a(S'20-45'
p603
S'20-45'
p604
S'CD'
p605
S'B-NP'
p606
g5
tp607
a(S'ml/min'
p608
S'ml/min'
p609
S'NN'
p610
S'I-NP'
p611
g5
tp612
a(S')'
p613
g613
g613
g5
g5
tp614
a(S'either'
p615
S'either'
p616
S'CC'
p617
S'B-PP'
p618
g5
tp619
a(S'with'
p620
S'with'
p621
S'IN'
p622
S'I-PP'
p623
g5
tp624
a(S'or'
p625
S'or'
p626
S'CC'
p627
S'B-PP'
p628
g5
tp629
a(S'without'
p630
S'without'
p631
S'IN'
p632
S'B-PP'
p633
g5
tp634
a(S'proteinuria'
p635
S'proteinuria'
p636
S'NN'
p637
S'B-NP'
p638
g5
tp639
a(S'and'
p640
S'and'
p641
S'CC'
p642
g5
g5
tp643
a(S'hypertension.'
p644
S'hypertension.'
p645
S'VB'
p646
S'B-VP'
p647
g5
tp648
a(S'The'
p649
S'The'
p650
S'DT'
p651
S'B-NP'
p652
g5
tp653
a(S'primary'
p654
S'primary'
p655
S'JJ'
p656
S'I-NP'
p657
g5
tp658
a(S'aim'
p659
S'aim'
p660
S'NN'
p661
S'I-NP'
p662
g5
tp663
a(S'of'
p664
S'of'
p665
S'IN'
p666
S'B-PP'
p667
g5
tp668
a(S'the'
p669
S'the'
p670
S'DT'
p671
S'B-NP'
p672
g5
tp673
a(S'study'
p674
S'study'
p675
S'NN'
p676
S'I-NP'
p677
g5
tp678
a(S'was'
p679
S'be'
p680
S'VBD'
p681
S'B-VP'
p682
g5
tp683
a(S'to'
p684
S'to'
p685
S'TO'
p686
S'B-VP'
p687
g5
tp688
a(S'investigate'
p689
S'investigate'
p690
S'VB'
p691
S'I-VP'
p692
g5
tp693
a(S'the'
p694
S'the'
p695
S'DT'
p696
S'B-NP'
p697
g5
tp698
a(S'safety'
p699
S'safety'
p700
S'NN'
p701
S'I-NP'
p702
g5
tp703
a(S'and'
p704
S'and'
p705
S'CC'
p706
S'I-NP'
p707
g5
tp708
a(S'tolerability'
p709
S'tolerability'
p710
S'NN'
p711
S'I-NP'
p712
g5
tp713
a(S'of'
p714
S'of'
p715
S'IN'
p716
S'B-PP'
p717
g5
tp718
a(S'the'
p719
S'the'
p720
S'DT'
p721
S'B-NP'
p722
g5
tp723
a(S'combination'
p724
S'combination'
p725
S'NN'
p726
S'I-NP'
p727
g5
tp728
a(S'of'
p729
S'of'
p730
S'IN'
p731
S'B-PP'
p732
g5
tp733
a(S'valsartan'
p734
S'valsartan'
p735
S'NN'
p736
S'B-NP'
p737
g5
tp738
a(S'and'
p739
S'and'
p740
S'CC'
p741
S'I-NP'
p742
g5
tp743
a(S'benazepril.'
p744
S'benazepril.'
p745
S'NN'
p746
S'I-NP'
p747
g5
tp748
a(S'Patients'
p749
S'Patient'
p750
S'NNS'
p751
S'I-NP'
p752
g5
tp753
a(S'were'
p754
S'be'
p755
S'VBD'
p756
S'B-VP'
p757
g5
tp758
a(S'randomly'
p759
S'randomly'
p760
S'RB'
p761
S'I-VP'
p762
g5
tp763
a(S'assigned'
p764
S'assign'
p765
S'VBN'
p766
S'I-VP'
p767
g5
tp768
a(S'to'
p769
S'to'
p770
S'TO'
p771
S'B-PP'
p772
g5
tp773
a(S'one'
p774
S'one'
p775
S'CD'
p776
S'B-NP'
p777
g5
tp778
a(S'of'
p779
S'of'
p780
S'IN'
p781
S'B-PP'
p782
g5
tp783
a(S'three'
p784
S'three'
p785
S'CD'
p786
S'B-NP'
p787
g5
tp788
a(S'groups'
p789
S'group'
p790
S'NNS'
p791
S'I-NP'
p792
g5
tp793
a(S':'
p794
g794
g794
g5
g5
tp795
a(S'group'
p796
S'group'
p797
S'NN'
p798
S'B-NP'
p799
g5
tp800
a(S'1'
p801
g801
S'CD'
p802
S'I-NP'
p803
g5
tp804
a(S'received'
p805
S'receive'
p806
S'VBD'
p807
S'B-VP'
p808
g5
tp809
a(S'valsartan'
p810
S'valsartan'
p811
S'NN'
p812
S'B-NP'
p813
g5
tp814
a(S'160'
p815
S'160'
p816
S'CD'
p817
S'I-NP'
p818
g5
tp819
a(S'mg'
p820
S'mg'
p821
S'NN'
p822
S'I-NP'
p823
g5
tp824
a(S'once'
p825
S'once'
p826
S'RB'
p827
g5
g5
tp828
a(S'daily'
p829
S'daily'
p830
S'RB'
p831
g5
g5
tp832
a(g591
g591
g591
g5
g5
tp833
a(S'n'
p834
g834
S'NN'
p835
S'B-NP'
p836
g5
tp837
a(S'='
p838
g838
S'SYM'
p839
S'B-VP'
p840
g5
tp841
a(S'22'
p842
S'22'
p843
S'CD'
p844
S'B-NP'
p845
g5
tp846
a(g613
g613
g613
g5
g5
tp847
a(S';'
p848
g848
g794
g5
g5
tp849
a(S'group'
p850
S'group'
p851
S'NN'
p852
S'B-NP'
p853
g5
tp854
a(S'2'
p855
g855
S'CD'
p856
S'I-NP'
p857
g5
tp858
a(S'received'
p859
S'receive'
p860
S'VBD'
p861
S'B-VP'
p862
g5
tp863
a(S'valsartan'
p864
S'valsartan'
p865
S'NN'
p866
S'B-NP'
p867
g5
tp868
a(S'80'
p869
S'80'
p870
S'CD'
p871
S'I-NP'
p872
g5
tp873
a(S'mg'
p874
S'mg'
p875
S'NN'
p876
S'I-NP'
p877
g5
tp878
a(S'once'
p879
S'once'
p880
S'RB'
p881
S'B-ADVP'
p882
g5
tp883
a(S'daily'
p884
S'daily'
p885
S'RB'
p886
S'I-ADVP'
p887
g5
tp888
a(S'plus'
p889
S'plus'
p890
S'CC'
p891
g5
g5
tp892
a(S'benazepril'
p893
S'benazepril'
p894
S'NN'
p895
S'B-NP'
p896
g5
tp897
a(S'5'
p898
g898
S'CD'
p899
S'I-NP'
p900
g5
tp901
a(S'or'
p902
S'or'
p903
S'CC'
p904
S'I-NP'
p905
g5
tp906
a(S'10'
p907
S'10'
p908
S'CD'
p909
S'I-NP'
p910
g5
tp911
a(S'mg'
p912
S'mg'
p913
S'NN'
p914
S'I-NP'
p915
g5
tp916
a(S'once'
p917
S'once'
p918
S'RB'
p919
g5
g5
tp920
a(S'daily'
p921
S'daily'
p922
S'RB'
p923
g5
g5
tp924
a(g591
g591
g591
g5
g5
tp925
a(g834
g834
S'NN'
p926
S'B-NP'
p927
g5
tp928
a(g838
g838
S'SYM'
p929
S'B-VP'
p930
g5
tp931
a(S'42'
p932
S'42'
p933
S'CD'
p934
S'B-NP'
p935
g5
tp936
a(g613
g613
g613
g5
g5
tp937
a(g848
g848
g794
g5
g5
tp938
a(S'group'
p939
S'group'
p940
S'NN'
p941
S'B-NP'
p942
g5
tp943
a(S'3'
p944
g944
S'CD'
p945
S'I-NP'
p946
g5
tp947
a(S'received'
p948
S'receive'
p949
S'VBD'
p950
S'B-VP'
p951
g5
tp952
a(S'valsartan'
p953
S'valsartan'
p954
S'NN'
p955
S'B-NP'
p956
g5
tp957
a(S'160'
p958
S'160'
p959
S'CD'
p960
S'I-NP'
p961
g5
tp962
a(S'mg'
p963
S'mg'
p964
S'NN'
p965
S'I-NP'
p966
g5
tp967
a(S'once'
p968
S'once'
p969
S'RB'
p970
S'B-ADVP'
p971
g5
tp972
a(S'daily'
p973
S'daily'
p974
S'RB'
p975
S'I-ADVP'
p976
g5
tp977
a(S'plus'
p978
S'plus'
p979
S'CC'
p980
g5
g5
tp981
a(S'benazepril'
p982
S'benazepril'
p983
S'NN'
p984
S'B-NP'
p985
g5
tp986
a(g898
g898
S'CD'
p987
S'I-NP'
p988
g5
tp989
a(S'or'
p990
S'or'
p991
S'CC'
p992
S'I-NP'
p993
g5
tp994
a(S'10'
p995
S'10'
p996
S'CD'
p997
S'I-NP'
p998
g5
tp999
a(S'mg'
p1000
S'mg'
p1001
S'NN'
p1002
S'I-NP'
p1003
g5
tp1004
a(S'once'
p1005
S'once'
p1006
S'RB'
p1007
g5
g5
tp1008
a(S'daily'
p1009
S'daily'
p1010
S'RB'
p1011
g5
g5
tp1012
a(g591
g591
g591
g5
g5
tp1013
a(g834
g834
S'NN'
p1014
S'B-NP'
p1015
g5
tp1016
a(g838
g838
S'SYM'
p1017
S'B-VP'
p1018
g5
tp1019
a(S'44'
p1020
S'44'
p1021
S'CD'
p1022
S'B-NP'
p1023
g5
tp1024
a(g613
g613
g613
g5
g5
tp1025
a(g127
g127
g127
g5
g5
tp1026
a(S'The'
p1027
S'The'
p1028
S'DT'
p1029
S'B-NP'
p1030
g5
tp1031
a(S'study'
p1032
S'study'
p1033
S'NN'
p1034
S'I-NP'
p1035
g5
tp1036
a(S'lasted'
p1037
S'last'
p1038
S'VBD'
p1039
S'B-VP'
p1040
g5
tp1041
a(S'for'
p1042
S'for'
p1043
S'IN'
p1044
S'B-PP'
p1045
g5
tp1046
a(g898
g898
S'CD'
p1047
S'B-NP'
p1048
g5
tp1049
a(S'weeks'
p1050
S'week'
p1051
S'NNS'
p1052
S'I-NP'
p1053
g5
tp1054
a(g484
g484
g484
g5
g5
tp1055
a(S'and'
p1056
S'and'
p1057
S'CC'
p1058
g5
g5
tp1059
a(S'in'
p1060
S'in'
p1061
S'IN'
p1062
S'B-PP'
p1063
g5
tp1064
a(S'groups'
p1065
S'group'
p1066
S'NNS'
p1067
S'B-NP'
p1068
g5
tp1069
a(g855
g855
S'CD'
p1070
S'I-NP'
p1071
g5
tp1072
a(S'and'
p1073
S'and'
p1074
S'CC'
p1075
S'I-NP'
p1076
g5
tp1077
a(g944
g944
S'CD'
p1078
S'I-NP'
p1079
g5
tp1080
a(S'benazepril'
p1081
S'benazepril'
p1082
S'NN'
p1083
S'I-NP'
p1084
g5
tp1085
a(S'was'
p1086
S'be'
p1087
S'VBD'
p1088
S'B-VP'
p1089
g5
tp1090
a(S'added'
p1091
S'add'
p1092
S'VBN'
p1093
S'I-VP'
p1094
g5
tp1095
a(S'on'
p1096
S'on'
p1097
S'IN'
p1098
S'B-PP'
p1099
g5
tp1100
a(S'top'
p1101
S'top'
p1102
S'NN'
p1103
S'B-NP'
p1104
g5
tp1105
a(S'of'
p1106
S'of'
p1107
S'IN'
p1108
S'B-PP'
p1109
g5
tp1110
a(S'valsartan'
p1111
S'valsartan'
p1112
S'NN'
p1113
S'B-NP'
p1114
g5
tp1115
a(S'after'
p1116
S'after'
p1117
S'IN'
p1118
S'B-PP'
p1119
g5
tp1120
a(S'the'
p1121
S'the'
p1122
S'DT'
p1123
S'B-NP'
p1124
g5
tp1125
a(S'first'
p1126
S'first'
p1127
S'JJ'
p1128
S'I-NP'
p1129
g5
tp1130
a(S'week'
p1131
S'week'
p1132
S'NN'
p1133
S'I-NP'
p1134
g5
tp1135
a(S'of'
p1136
S'of'
p1137
S'IN'
p1138
S'B-PP'
p1139
g5
tp1140
a(S'therapy'
p1141
S'therapy'
p1142
S'NN'
p1143
S'B-NP'
p1144
g5
tp1145
a(S'with'
p1146
S'with'
p1147
S'IN'
p1148
S'B-PP'
p1149
g5
tp1150
a(S'the'
p1151
S'the'
p1152
S'DT'
p1153
S'B-NP'
p1154
g5
tp1155
a(S'angiotensin'
p1156
S'angiotensin'
p1157
S'NN'
p1158
S'I-NP'
p1159
S'B-protein'
p1160
tp1161
a(S'receptor'
p1162
S'receptor'
p1163
S'NN'
p1164
S'I-NP'
p1165
S'I-protein'
p1166
tp1167
a(S'blocker'
p1168
S'blocker'
p1169
S'NN'
p1170
S'I-NP'
p1171
g5
tp1172
a(g127
g127
g127
g5
g5
tp1173
a(S'RESULTS'
p1174
S'RESULTS'
p1175
S'NNS'
p1176
S'B-NP'
p1177
g5
tp1178
a(S'Serum'
p1179
S'Serum'
p1180
S'NN'
p1181
S'I-NP'
p1182
g5
tp1183
a(S'creatinine'
p1184
S'creatinine'
p1185
S'NN'
p1186
S'I-NP'
p1187
g5
tp1188
a(S'increased'
p1189
S'increase'
p1190
S'VBD'
p1191
S'B-VP'
p1192
g5
tp1193
a(S'in'
p1194
S'in'
p1195
S'IN'
p1196
S'B-PP'
p1197
g5
tp1198
a(S'all'
p1199
S'all'
p1200
S'DT'
p1201
S'B-NP'
p1202
g5
tp1203
a(S'three'
p1204
S'three'
p1205
S'CD'
p1206
S'I-NP'
p1207
g5
tp1208
a(S'groups'
p1209
S'group'
p1210
S'NNS'
p1211
S'I-NP'
p1212
g5
tp1213
a(g591
g591
g591
g5
g5
tp1214
a(S'mean'
p1215
S'mean'
p1216
S'JJ'
p1217
S'B-NP'
p1218
g5
tp1219
a(S'change'
p1220
S'change'
p1221
S'NN'
p1222
S'I-NP'
p1223
g5
tp1224
a(S'within'
p1225
S'within'
p1226
S'IN'
p1227
S'B-PP'
p1228
g5
tp1229
a(g195
g195
S'DT'
p1230
S'B-NP'
p1231
g5
tp1232
a(S'group'
p1233
S'group'
p1234
S'NN'
p1235
S'I-NP'
p1236
g5
tp1237
a(g794
g794
g794
g5
g5
tp1238
a(S'11'
p1239
S'11'
p1240
S'CD'
p1241
S'B-NP'
p1242
g5
tp1243
a(S'micromol/l'
p1244
S'micromol/l'
p1245
S'NN'
p1246
S'I-NP'
p1247
g5
tp1248
a(S'in'
p1249
S'in'
p1250
S'IN'
p1251
S'B-PP'
p1252
g5
tp1253
a(S'group'
p1254
S'group'
p1255
S'NN'
p1256
S'B-NP'
p1257
g5
tp1258
a(g801
g801
S'CD'
p1259
S'I-NP'
p1260
g5
tp1261
a(g484
g484
g484
g5
g5
tp1262
a(S'P='
p1263
S'P='
p1264
S'NNP'
p1265
S'B-NP'
p1266
g5
tp1267
a(S'0.045'
p1268
S'0.045'
p1269
S'CD'
p1270
S'I-NP'
p1271
g5
tp1272
a(g848
g848
g794
g5
g5
tp1273
a(S'9'
p1274
g1274
S'CD'
p1275
S'B-NP'
p1276
g5
tp1277
a(S'micromol/l'
p1278
S'micromol/l'
p1279
S'NN'
p1280
S'I-NP'
p1281
g5
tp1282
a(S'in'
p1283
S'in'
p1284
S'IN'
p1285
S'B-PP'
p1286
g5
tp1287
a(S'group'
p1288
S'group'
p1289
S'NN'
p1290
S'B-NP'
p1291
g5
tp1292
a(g855
g855
S'CD'
p1293
S'I-NP'
p1294
g5
tp1295
a(g484
g484
g484
g5
g5
tp1296
a(S'P='
p1297
S'P='
p1298
S'NNP'
p1299
S'B-NP'
p1300
g5
tp1301
a(S'0.030'
p1302
S'0.030'
p1303
S'CD'
p1304
S'I-NP'
p1305
g5
tp1306
a(g848
g848
g794
g5
g5
tp1307
a(S'15'
p1308
S'15'
p1309
S'CD'
p1310
S'B-NP'
p1311
g5
tp1312
a(S'micromol/l'
p1313
S'micromol/l'
p1314
S'NN'
p1315
S'I-NP'
p1316
g5
tp1317
a(S'in'
p1318
S'in'
p1319
S'IN'
p1320
S'B-PP'
p1321
g5
tp1322
a(S'group'
p1323
S'group'
p1324
S'NN'
p1325
S'B-NP'
p1326
g5
tp1327
a(g944
g944
S'CD'
p1328
S'I-NP'
p1329
g5
tp1330
a(g484
g484
g484
g5
g5
tp1331
a(S'P='
p1332
S'P='
p1333
S'NN'
p1334
S'B-NP'
p1335
g5
tp1336
a(S'0.0006'
p1337
S'0.0006'
p1338
S'CD'
p1339
S'I-NP'
p1340
g5
tp1341
a(g613
g613
g613
g5
g5
tp1342
a(g127
g127
g127
g5
g5
tp1343
a(S'Serum'
p1344
S'Serum'
p1345
S'NN'
p1346
S'B-NP'
p1347
g5
tp1348
a(S'potassium'
p1349
S'potassium'
p1350
S'NN'
p1351
S'I-NP'
p1352
g5
tp1353
a(S'also'
p1354
S'also'
p1355
S'RB'
p1356
S'B-ADVP'
p1357
g5
tp1358
a(S'increased'
p1359
S'increase'
p1360
S'VBD'
p1361
S'B-VP'
p1362
g5
tp1363
a(S'in'
p1364
S'in'
p1365
S'IN'
p1366
S'B-PP'
p1367
g5
tp1368
a(S'all'
p1369
S'all'
p1370
S'DT'
p1371
S'B-NP'
p1372
g5
tp1373
a(S'three'
p1374
S'three'
p1375
S'CD'
p1376
S'I-NP'
p1377
g5
tp1378
a(S'groups'
p1379
S'group'
p1380
S'NNS'
p1381
S'I-NP'
p1382
g5
tp1383
a(S'of'
p1384
S'of'
p1385
S'IN'
p1386
S'B-PP'
p1387
g5
tp1388
a(S'patients'
p1389
S'patient'
p1390
S'NNS'
p1391
S'B-NP'
p1392
g5
tp1393
a(g591
g591
g591
g5
g5
tp1394
a(S'mean'
p1395
S'mean'
p1396
S'JJ'
p1397
S'B-NP'
p1398
g5
tp1399
a(S'change'
p1400
S'change'
p1401
S'NN'
p1402
S'I-NP'
p1403
g5
tp1404
a(S'within'
p1405
S'within'
p1406
S'IN'
p1407
S'B-PP'
p1408
g5
tp1409
a(g195
g195
S'DT'
p1410
S'B-NP'
p1411
g5
tp1412
a(S'group'
p1413
S'group'
p1414
S'NN'
p1415
S'I-NP'
p1416
g5
tp1417
a(g794
g794
g794
g5
g5
tp1418
a(S'0.28'
p1419
S'0.28'
p1420
S'CD'
p1421
S'B-NP'
p1422
g5
tp1423
a(S'mmol/l'
p1424
S'mmol/l'
p1425
S'NN'
p1426
S'I-NP'
p1427
g5
tp1428
a(S'in'
p1429
S'in'
p1430
S'IN'
p1431
S'B-PP'
p1432
g5
tp1433
a(S'group'
p1434
S'group'
p1435
S'NN'
p1436
S'B-NP'
p1437
g5
tp1438
a(g801
g801
S'CD'
p1439
S'I-NP'
p1440
g5
tp1441
a(g484
g484
g484
g5
g5
tp1442
a(S'P='
p1443
S'P='
p1444
S'NNP'
p1445
S'B-NP'
p1446
g5
tp1447
a(S'0.28'
p1448
S'0.28'
p1449
S'CD'
p1450
S'I-NP'
p1451
g5
tp1452
a(g848
g848
g794
g5
g5
tp1453
a(S'0.48'
p1454
S'0.48'
p1455
S'CD'
p1456
S'B-NP'
p1457
g5
tp1458
a(S'mmol/l'
p1459
S'mmol/l'
p1460
S'NN'
p1461
S'I-NP'
p1462
g5
tp1463
a(S'in'
p1464
S'in'
p1465
S'IN'
p1466
S'B-PP'
p1467
g5
tp1468
a(S'group'
p1469
S'group'
p1470
S'NN'
p1471
S'B-NP'
p1472
g5
tp1473
a(g855
g855
S'CD'
p1474
S'I-NP'
p1475
g5
tp1476
a(g484
g484
g484
g5
g5
tp1477
a(S'P='
p1478
S'P='
p1479
S'NNP'
p1480
S'B-NP'
p1481
g5
tp1482
a(S'0.0008'
p1483
S'0.0008'
p1484
S'CD'
p1485
S'I-NP'
p1486
g5
tp1487
a(g848
g848
g794
g5
g5
tp1488
a(S'0.36'
p1489
S'0.36'
p1490
S'CD'
p1491
S'B-NP'
p1492
g5
tp1493
a(S'mmol/l'
p1494
S'mmol/l'
p1495
S'NN'
p1496
S'I-NP'
p1497
g5
tp1498
a(S'in'
p1499
S'in'
p1500
S'IN'
p1501
S'B-PP'
p1502
g5
tp1503
a(S'group'
p1504
S'group'
p1505
S'NN'
p1506
S'B-NP'
p1507
g5
tp1508
a(g944
g944
S'CD'
p1509
S'I-NP'
p1510
g5
tp1511
a(g484
g484
g484
g5
g5
tp1512
a(S'P='
p1513
S'P='
p1514
S'NN'
p1515
S'B-NP'
p1516
g5
tp1517
a(S'0.02'
p1518
S'0.02'
p1519
S'CD'
p1520
S'I-NP'
p1521
g5
tp1522
a(g613
g613
g613
g5
g5
tp1523
a(g127
g127
g127
g5
g5
tp1524
a(S'After'
p1525
S'After'
p1526
S'IN'
p1527
S'B-PP'
p1528
g5
tp1529
a(g898
g898
S'CD'
p1530
S'B-NP'
p1531
g5
tp1532
a(S'weeks'
p1533
S'week'
p1534
S'NNS'
p1535
S'I-NP'
p1536
g5
tp1537
a(S'of'
p1538
S'of'
p1539
S'IN'
p1540
S'B-PP'
p1541
g5
tp1542
a(S'treatment'
p1543
S'treatment'
p1544
S'NN'
p1545
S'B-NP'
p1546
g5
tp1547
a(g484
g484
g484
g5
g5
tp1548
a(S'the'
p1549
S'the'
p1550
S'DT'
p1551
S'B-NP'
p1552
g5
tp1553
a(S'largest'
p1554
S'large'
p1555
S'JJS'
p1556
S'I-NP'
p1557
g5
tp1558
a(S'decrease'
p1559
S'decrease'
p1560
S'NN'
p1561
S'I-NP'
p1562
g5
tp1563
a(S'in'
p1564
S'in'
p1565
S'IN'
p1566
S'B-PP'
p1567
g5
tp1568
a(S'blood'
p1569
S'blood'
p1570
S'NN'
p1571
S'B-NP'
p1572
g5
tp1573
a(S'pressure'
p1574
S'pressure'
p1575
S'NN'
p1576
S'I-NP'
p1577
g5
tp1578
a(S'was'
p1579
S'be'
p1580
S'VBD'
p1581
S'B-VP'
p1582
g5
tp1583
a(S'observed'
p1584
S'observe'
p1585
S'VBN'
p1586
S'I-VP'
p1587
g5
tp1588
a(S'in'
p1589
S'in'
p1590
S'IN'
p1591
S'B-PP'
p1592
g5
tp1593
a(S'group'
p1594
S'group'
p1595
S'NN'
p1596
S'B-NP'
p1597
g5
tp1598
a(g944
g944
S'CD'
p1599
S'I-NP'
p1600
g5
tp1601
a(g591
g591
g591
g5
g5
tp1602
a(S'the'
p1603
S'the'
p1604
S'DT'
p1605
S'B-NP'
p1606
g5
tp1607
a(S'mean'
p1608
S'mean'
p1609
S'JJ'
p1610
S'I-NP'
p1611
g5
tp1612
a(S'change'
p1613
S'change'
p1614
S'NN'
p1615
S'I-NP'
p1616
g5
tp1617
a(S'from'
p1618
S'from'
p1619
S'IN'
p1620
S'B-PP'
p1621
g5
tp1622
a(S'baseline'
p1623
S'baseline'
p1624
S'NN'
p1625
S'B-NP'
p1626
g5
tp1627
a(S'in'
p1628
S'in'
p1629
S'IN'
p1630
S'B-PP'
p1631
g5
tp1632
a(S'seated'
p1633
S'seat'
p1634
S'VBN'
p1635
S'B-NP'
p1636
g5
tp1637
a(S'diastolic'
p1638
S'diastolic'
p1639
S'JJ'
p1640
S'I-NP'
p1641
g5
tp1642
a(S'blood'
p1643
S'blood'
p1644
S'NN'
p1645
S'I-NP'
p1646
g5
tp1647
a(S'pressure'
p1648
S'pressure'
p1649
S'NN'
p1650
S'I-NP'
p1651
g5
tp1652
a(g591
g591
g591
g5
g5
tp1653
a(S'SDBP'
p1654
S'SDBP'
p1655
S'NN'
p1656
S'B-NP'
p1657
S'B-protein'
p1658
tp1659
a(g613
g613
g613
g5
g5
tp1660
a(S'and'
p1661
S'and'
p1662
S'CC'
p1663
g5
g5
tp1664
a(S'seated'
p1665
S'seat'
p1666
S'VBN'
p1667
S'B-VP'
p1668
g5
tp1669
a(S'systolic'
p1670
S'systolic'
p1671
S'JJ'
p1672
S'B-NP'
p1673
g5
tp1674
a(S'blood'
p1675
S'blood'
p1676
S'NN'
p1677
S'I-NP'
p1678
g5
tp1679
a(S'pressure'
p1680
S'pressure'
p1681
S'NN'
p1682
S'I-NP'
p1683
g5
tp1684
a(g591
g591
g591
g5
g5
tp1685
a(S'SSBP'
p1686
S'SSBP'
p1687
S'NN'
p1688
S'B-NP'
p1689
S'B-protein'
p1690
tp1691
a(g613
g613
g613
g5
g5
tp1692
a(g484
g484
g484
g5
g5
tp1693
a(S'respectively'
p1694
S'respectively'
p1695
S'RB'
p1696
S'B-ADVP'
p1697
g5
tp1698
a(g484
g484
g484
g5
g5
tp1699
a(S'were'
p1700
S'be'
p1701
S'VBD'
p1702
S'B-VP'
p1703
g5
tp1704
a(g794
g794
g794
g5
g5
tp1705
a(S'-2.0'
p1706
S'-2.0'
p1707
S'CD'
p1708
S'B-NP'
p1709
g5
tp1710
a(S'and'
p1711
S'and'
p1712
S'CC'
p1713
S'I-NP'
p1714
g5
tp1715
a(S'-11.5'
p1716
S'-11.5'
p1717
S'CD'
p1718
S'I-NP'
p1719
g5
tp1720
a(S'mmHg'
p1721
S'mmHg'
p1722
S'NN'
p1723
S'I-NP'
p1724
g5
tp1725
a(S'in'
p1726
S'in'
p1727
S'IN'
p1728
S'B-PP'
p1729
g5
tp1730
a(S'group'
p1731
S'group'
p1732
S'NN'
p1733
S'B-NP'
p1734
g5
tp1735
a(g801
g801
S'CD'
p1736
S'I-NP'
p1737
g5
tp1738
a(g848
g848
g794
g5
g5
tp1739
a(S'-7.6'
p1740
S'-7.6'
p1741
S'CD'
p1742
S'B-NP'
p1743
g5
tp1744
a(S'and'
p1745
S'and'
p1746
S'CC'
p1747
S'I-NP'
p1748
g5
tp1749
a(S'-15.4'
p1750
S'-15.4'
p1751
S'CD'
p1752
S'I-NP'
p1753
g5
tp1754
a(S'mmHg'
p1755
S'mmHg'
p1756
S'NN'
p1757
S'I-NP'
p1758
g5
tp1759
a(S'in'
p1760
S'in'
p1761
S'IN'
p1762
S'B-PP'
p1763
g5
tp1764
a(S'group'
p1765
S'group'
p1766
S'NN'
p1767
S'B-NP'
p1768
g5
tp1769
a(g855
g855
S'CD'
p1770
S'I-NP'
p1771
g5
tp1772
a(g848
g848
g794
g5
g5
tp1773
a(S'-12.6'
p1774
S'-12.6'
p1775
S'CD'
p1776
S'B-NP'
p1777
g5
tp1778
a(S'and'
p1779
S'and'
p1780
S'CC'
p1781
S'I-NP'
p1782
g5
tp1783
a(S'-21.6'
p1784
S'-21.6'
p1785
S'CD'
p1786
S'I-NP'
p1787
g5
tp1788
a(S'mmHg'
p1789
S'mmHg'
p1790
S'NN'
p1791
S'I-NP'
p1792
g5
tp1793
a(S'in'
p1794
S'in'
p1795
S'IN'
p1796
S'B-PP'
p1797
g5
tp1798
a(S'group'
p1799
S'group'
p1800
S'NN'
p1801
S'B-NP'
p1802
g5
tp1803
a(g944
g944
S'CD'
p1804
S'I-NP'
p1805
g5
tp1806
a(g613
g613
g613
g5
g5
tp1807
a(g127
g127
g127
g5
g5
tp1808
a(S'In'
p1809
S'In'
p1810
S'IN'
p1811
S'B-PP'
p1812
g5
tp1813
a(S'addition'
p1814
S'addition'
p1815
S'NN'
p1816
S'B-NP'
p1817
g5
tp1818
a(g484
g484
g484
g5
g5
tp1819
a(S'both'
p1820
S'both'
p1821
S'DT'
p1822
S'B-NP'
p1823
g5
tp1824
a(S'combination'
p1825
S'combination'
p1826
S'NN'
p1827
S'I-NP'
p1828
g5
tp1829
a(S'treatments'
p1830
S'treatment'
p1831
S'NNS'
p1832
S'I-NP'
p1833
g5
tp1834
a(S'resulted'
p1835
S'result'
p1836
S'VBD'
p1837
S'B-VP'
p1838
g5
tp1839
a(S'in'
p1840
S'in'
p1841
S'IN'
p1842
S'B-PP'
p1843
g5
tp1844
a(S'the'
p1845
S'the'
p1846
S'DT'
p1847
S'B-NP'
p1848
g5
tp1849
a(S'reduction'
p1850
S'reduction'
p1851
S'NN'
p1852
S'I-NP'
p1853
g5
tp1854
a(S'of'
p1855
S'of'
p1856
S'IN'
p1857
S'B-PP'
p1858
g5
tp1859
a(S'proteinuria.'
p1860
S'proteinuria.'
p1861
S'NN'
p1862
S'B-NP'
p1863
g5
tp1864
a(S'The'
p1865
S'The'
p1866
S'DT'
p1867
S'B-NP'
p1868
g5
tp1869
a(S'total'
p1870
S'total'
p1871
S'JJ'
p1872
S'I-NP'
p1873
g5
tp1874
a(S'number'
p1875
S'number'
p1876
S'NN'
p1877
S'I-NP'
p1878
g5
tp1879
a(S'of'
p1880
S'of'
p1881
S'IN'
p1882
S'B-PP'
p1883
g5
tp1884
a(S'patients'
p1885
S'patient'
p1886
S'NNS'
p1887
S'B-NP'
p1888
g5
tp1889
a(S'with'
p1890
S'with'
p1891
S'IN'
p1892
S'B-PP'
p1893
g5
tp1894
a(S'adverse'
p1895
S'adverse'
p1896
S'JJ'
p1897
S'B-NP'
p1898
g5
tp1899
a(S'experiences'
p1900
S'experience'
p1901
S'NNS'
p1902
S'I-NP'
p1903
g5
tp1904
a(S'were'
p1905
S'be'
p1906
S'VBD'
p1907
S'B-VP'
p1908
g5
tp1909
a(S'10'
p1910
S'10'
p1911
S'CD'
p1912
S'B-NP'
p1913
g5
tp1914
a(g591
g591
g591
g5
g5
tp1915
a(S'45.5'
p1916
S'45.5'
p1917
S'CD'
p1918
S'B-NP'
p1919
g5
tp1920
a(S'%'
p1921
g1921
S'NN'
p1922
S'I-NP'
p1923
g5
tp1924
a(g613
g613
g613
g5
g5
tp1925
a(g484
g484
g484
g5
g5
tp1926
a(S'14'
p1927
S'14'
p1928
S'CD'
p1929
S'B-NP'
p1930
g5
tp1931
a(g591
g591
g591
g5
g5
tp1932
a(S'33.3'
p1933
S'33.3'
p1934
S'CD'
p1935
S'B-NP'
p1936
g5
tp1937
a(g1921
g1921
S'NN'
p1938
S'I-NP'
p1939
g5
tp1940
a(g613
g613
g613
g5
g5
tp1941
a(S'and'
p1942
S'and'
p1943
S'CC'
p1944
g5
g5
tp1945
a(S'11'
p1946
S'11'
p1947
S'CD'
p1948
S'B-NP'
p1949
g5
tp1950
a(g591
g591
g591
g5
g5
tp1951
a(S'25'
p1952
S'25'
p1953
S'CD'
p1954
S'B-NP'
p1955
g5
tp1956
a(g1921
g1921
S'NN'
p1957
S'I-NP'
p1958
g5
tp1959
a(g613
g613
g613
g5
g5
tp1960
a(S'in'
p1961
S'in'
p1962
S'IN'
p1963
S'B-PP'
p1964
g5
tp1965
a(S'groups'
p1966
S'group'
p1967
S'NNS'
p1968
S'B-NP'
p1969
g5
tp1970
a(g801
g801
S'CD'
p1971
S'I-NP'
p1972
g5
tp1973
a(g484
g484
g484
S'I-NP'
p1974
g5
tp1975
a(g855
g855
S'CD'
p1976
S'I-NP'
p1977
g5
tp1978
a(S'and'
p1979
S'and'
p1980
S'CC'
p1981
S'I-NP'
p1982
g5
tp1983
a(g944
g944
S'CD'
p1984
S'I-NP'
p1985
g5
tp1986
a(g484
g484
g484
g5
g5
tp1987
a(S'respectively.'
p1988
S'respectively.'
p1989
S'RB'
p1990
S'B-ADVP'
p1991
g5
tp1992
a(S'In'
p1993
S'In'
p1994
S'IN'
p1995
S'B-PP'
p1996
g5
tp1997
a(S'six'
p1998
S'six'
p1999
S'CD'
p2000
S'B-NP'
p2001
g5
tp2002
a(S'patients'
p2003
S'patient'
p2004
S'NNS'
p2005
S'I-NP'
p2006
g5
tp2007
a(g591
g591
g591
g5
g5
tp2008
a(S'5.6'
p2009
S'5.6'
p2010
S'CD'
p2011
S'B-NP'
p2012
g5
tp2013
a(g1921
g1921
S'NN'
p2014
S'I-NP'
p2015
g5
tp2016
a(g613
g613
g613
g5
g5
tp2017
a(S'therapy'
p2018
S'therapy'
p2019
S'NN'
p2020
S'B-NP'
p2021
g5
tp2022
a(S'was'
p2023
S'be'
p2024
S'VBD'
p2025
S'B-VP'
p2026
g5
tp2027
a(S'discontinued'
p2028
S'discontinue'
p2029
S'VBN'
p2030
S'I-VP'
p2031
g5
tp2032
a(S'as'
p2033
S'as'
p2034
S'IN'
p2035
S'B-PP'
p2036
g5
tp2037
a(g195
g195
S'DT'
p2038
S'B-NP'
p2039
g5
tp2040
a(S'result'
p2041
S'result'
p2042
S'NN'
p2043
S'I-NP'
p2044
g5
tp2045
a(S'of'
p2046
S'of'
p2047
S'IN'
p2048
S'B-PP'
p2049
g5
tp2050
a(S'adverse'
p2051
S'adverse'
p2052
S'JJ'
p2053
S'B-NP'
p2054
g5
tp2055
a(S'experiences.'
p2056
S'experiences.'
p2057
S'NN'
p2058
S'I-NP'
p2059
g5
tp2060
a(S'Only'
p2061
S'Only'
p2062
S'RB'
p2063
S'B-NP'
p2064
g5
tp2065
a(S'one'
p2066
S'one'
p2067
S'CD'
p2068
S'I-NP'
p2069
g5
tp2070
a(S'patient'
p2071
S'patient'
p2072
S'NN'
p2073
S'I-NP'
p2074
g5
tp2075
a(S'in'
p2076
S'in'
p2077
S'IN'
p2078
S'B-PP'
p2079
g5
tp2080
a(S'each'
p2081
S'each'
p2082
S'DT'
p2083
S'B-NP'
p2084
g5
tp2085
a(S'of'
p2086
S'of'
p2087
S'IN'
p2088
S'B-PP'
p2089
g5
tp2090
a(S'the'
p2091
S'the'
p2092
S'DT'
p2093
S'B-NP'
p2094
g5
tp2095
a(S'combined'
p2096
S'combine'
p2097
S'VBN'
p2098
S'I-NP'
p2099
g5
tp2100
a(S'therapy'
p2101
S'therapy'
p2102
S'NN'
p2103
S'I-NP'
p2104
g5
tp2105
a(S'groups'
p2106
S'group'
p2107
S'NNS'
p2108
S'I-NP'
p2109
g5
tp2110
a(S'withdrew'
p2111
S'withdraw'
p2112
S'VBD'
p2113
S'B-VP'
p2114
g5
tp2115
a(S'from'
p2116
S'from'
p2117
S'IN'
p2118
S'B-PP'
p2119
g5
tp2120
a(S'the'
p2121
S'the'
p2122
S'DT'
p2123
S'B-NP'
p2124
g5
tp2125
a(S'study'
p2126
S'study'
p2127
S'NN'
p2128
S'I-NP'
p2129
g5
tp2130
a(S'because'
p2131
S'because'
p2132
S'IN'
p2133
S'B-PP'
p2134
g5
tp2135
a(S'of'
p2136
S'of'
p2137
S'IN'
p2138
S'I-PP'
p2139
g5
tp2140
a(S'hyperkalaemia'
p2141
S'hyperkalaemia'
p2142
S'NN'
p2143
S'B-NP'
p2144
g5
tp2145
a(S'and'
p2146
S'and'
p2147
S'CC'
p2148
g5
g5
tp2149
a(S'no'
p2150
S'no'
p2151
S'DT'
p2152
S'B-NP'
p2153
g5
tp2154
a(S'patients'
p2155
S'patient'
p2156
S'NNS'
p2157
S'I-NP'
p2158
g5
tp2159
a(S'were'
p2160
S'be'
p2161
S'VBD'
p2162
S'B-VP'
p2163
g5
tp2164
a(S'forced'
p2165
S'force'
p2166
S'VBN'
p2167
S'I-VP'
p2168
g5
tp2169
a(S'to'
p2170
S'to'
p2171
S'TO'
p2172
S'I-VP'
p2173
g5
tp2174
a(S'withdraw'
p2175
S'withdraw'
p2176
S'VB'
p2177
S'I-VP'
p2178
g5
tp2179
a(S'because'
p2180
S'because'
p2181
S'IN'
p2182
S'B-PP'
p2183
g5
tp2184
a(S'of'
p2185
S'of'
p2186
S'IN'
p2187
S'I-PP'
p2188
g5
tp2189
a(S'an'
p2190
S'an'
p2191
S'DT'
p2192
S'B-NP'
p2193
g5
tp2194
a(S'increase'
p2195
S'increase'
p2196
S'NN'
p2197
S'I-NP'
p2198
g5
tp2199
a(S'in'
p2200
S'in'
p2201
S'IN'
p2202
S'B-PP'
p2203
g5
tp2204
a(S'serum'
p2205
S'serum'
p2206
S'NN'
p2207
S'B-NP'
p2208
g5
tp2209
a(S'creatinine'
p2210
S'creatinine'
p2211
S'NN'
p2212
S'I-NP'
p2213
g5
tp2214
a(g484
g484
g484
g5
g5
tp2215
a(S'acute'
p2216
S'acute'
p2217
S'JJ'
p2218
S'B-NP'
p2219
g5
tp2220
a(S'renal'
p2221
S'renal'
p2222
S'JJ'
p2223
S'I-NP'
p2224
g5
tp2225
a(S'failure'
p2226
S'failure'
p2227
S'NN'
p2228
S'I-NP'
p2229
g5
tp2230
a(S'or'
p2231
S'or'
p2232
S'CC'
p2233
S'I-NP'
p2234
g5
tp2235
a(S'hospitalization'
p2236
S'hospitalization'
p2237
S'NN'
p2238
S'I-NP'
p2239
g5
tp2240
a(g127
g127
g127
g5
g5
tp2241
a(S'CONCLUSIONS'
p2242
S'CONCLUSIONS'
p2243
S'NNS'
p2244
S'B-NP'
p2245
g5
tp2246
a(S'These'
p2247
S'These'
p2248
S'DT'
p2249
S'B-NP'
p2250
g5
tp2251
a(S'results'
p2252
S'result'
p2253
S'NNS'
p2254
S'I-NP'
p2255
g5
tp2256
a(S'indicate'
p2257
S'indicate'
p2258
S'VBP'
p2259
S'B-VP'
p2260
g5
tp2261
a(S'that'
p2262
S'that'
p2263
S'IN'
p2264
S'B-SBAR'
p2265
g5
tp2266
a(S'short-term'
p2267
S'short-term'
p2268
S'JJ'
p2269
S'B-NP'
p2270
g5
tp2271
a(S'combination'
p2272
S'combination'
p2273
S'NN'
p2274
S'I-NP'
p2275
g5
tp2276
a(S'of'
p2277
S'of'
p2278
S'IN'
p2279
S'B-PP'
p2280
g5
tp2281
a(S'an'
p2282
S'an'
p2283
S'DT'
p2284
S'B-NP'
p2285
g5
tp2286
a(S'angiotensin-converting'
p2287
S'angiotensin-converting'
p2288
S'JJ'
p2289
S'I-NP'
p2290
g5
tp2291
a(S'enzyme'
p2292
S'enzyme'
p2293
S'NN'
p2294
S'I-NP'
p2295
g5
tp2296
a(S'inhibitor'
p2297
S'inhibitor'
p2298
S'NN'
p2299
S'I-NP'
p2300
g5
tp2301
a(S'and'
p2302
S'and'
p2303
S'CC'
p2304
g5
g5
tp2305
a(S'an'
p2306
S'an'
p2307
S'DT'
p2308
S'B-NP'
p2309
g5
tp2310
a(S'angiotensin'
p2311
S'angiotensin'
p2312
S'NN'
p2313
S'I-NP'
p2314
g5
tp2315
a(S'receptor'
p2316
S'receptor'
p2317
S'NN'
p2318
S'I-NP'
p2319
g5
tp2320
a(S'blocker'
p2321
S'blocker'
p2322
S'NN'
p2323
S'I-NP'
p2324
g5
tp2325
a(S'is'
p2326
S'be'
p2327
S'VBZ'
p2328
S'B-VP'
p2329
g5
tp2330
a(S'safe'
p2331
S'safe'
p2332
S'JJ'
p2333
S'B-ADJP'
p2334
g5
tp2335
a(S'and'
p2336
S'and'
p2337
S'CC'
p2338
g5
g5
tp2339
a(S'well'
p2340
S'well'
p2341
S'RB'
p2342
S'B-ADJP'
p2343
g5
tp2344
a(S'tolerated'
p2345
S'tolerate'
p2346
S'VBN'
p2347
S'I-ADJP'
p2348
g5
tp2349
a(S'in'
p2350
S'in'
p2351
S'IN'
p2352
S'B-PP'
p2353
g5
tp2354
a(S'patients'
p2355
S'patient'
p2356
S'NNS'
p2357
S'B-NP'
p2358
g5
tp2359
a(S'with'
p2360
S'with'
p2361
S'IN'
p2362
S'B-PP'
p2363
g5
tp2364
a(S'moderate'
p2365
S'moderate'
p2366
S'JJ'
p2367
S'B-NP'
p2368
g5
tp2369
a(S'chronic'
p2370
S'chronic'
p2371
S'JJ'
p2372
S'I-NP'
p2373
g5
tp2374
a(S'renal'
p2375
S'renal'
p2376
S'JJ'
p2377
S'I-NP'
p2378
g5
tp2379
a(S'failure'
p2380
S'failure'
p2381
S'NN'
p2382
S'I-NP'
p2383
g5
tp2384
a(g127
g127
g127
g5
g5
tp2385
a.