(lp0
(S'Effect'
p1
S'Effect'
p2
S'NN'
p3
S'B-NP'
p4
S'O'
p5
tp6
a(S'of'
p7
S'of'
p8
S'IN'
p9
S'B-PP'
p10
g5
tp11
a(S'an'
p12
S'an'
p13
S'DT'
p14
S'B-NP'
p15
g5
tp16
a(S'induction'
p17
S'induction'
p18
S'NN'
p19
S'I-NP'
p20
g5
tp21
a(S'period'
p22
S'period'
p23
S'NN'
p24
S'I-NP'
p25
g5
tp26
a(S'of'
p27
S'of'
p28
S'IN'
p29
S'B-PP'
p30
g5
tp31
a(S'pegylated'
p32
S'pegylate'
p33
S'VBN'
p34
S'B-NP'
p35
g5
tp36
a(S'interferon-\xce\xb12a'
p37
S'interferon-\xce\xb12a'
p38
S'NN'
p39
S'I-NP'
p40
g5
tp41
a(S'and'
p42
S'and'
p43
S'CC'
p44
S'I-NP'
p45
g5
tp46
a(S'ribavirin'
p47
S'ribavirin'
p48
S'NN'
p49
S'I-NP'
p50
g5
tp51
a(S'on'
p52
S'on'
p53
S'IN'
p54
S'B-PP'
p55
g5
tp56
a(S'early'
p57
S'early'
p58
S'JJ'
p59
S'B-NP'
p60
g5
tp61
a(S'virological'
p62
S'virological'
p63
S'JJ'
p64
S'I-NP'
p65
g5
tp66
a(S'response'
p67
S'response'
p68
S'NN'
p69
S'I-NP'
p70
g5
tp71
a(S'in'
p72
S'in'
p73
S'IN'
p74
S'B-PP'
p75
g5
tp76
a(S'HIV-HCV-coinfected'
p77
S'HIV-HCV-coinfected'
p78
S'JJ'
p79
S'B-NP'
p80
g5
tp81
a(S'patients'
p82
S'patient'
p83
S'NNS'
p84
S'I-NP'
p85
g5
tp86
a(S':'
p87
g87
g87
g5
g5
tp88
a(S'results'
p89
S'result'
p90
S'NNS'
p91
S'B-NP'
p92
g5
tp93
a(S'from'
p94
S'from'
p95
S'IN'
p96
S'B-PP'
p97
g5
tp98
a(S'the'
p99
S'the'
p100
S'DT'
p101
S'B-NP'
p102
g5
tp103
a(S'CORAL-2'
p104
S'CORAL-2'
p105
S'NN'
p106
S'I-NP'
p107
g5
tp108
a(S'study'
p109
S'study'
p110
S'NN'
p111
S'I-NP'
p112
g5
tp113
a(S'.'
p114
g114
g114
g5
g5
tp115
a(S'BACKGROUND'
p116
S'BACKGROUND'
p117
S'NN'
p118
S'B-NP'
p119
g5
tp120
a(S'It'
p121
S'It'
p122
S'PRP'
p123
S'B-NP'
p124
g5
tp125
a(S'is'
p126
S'be'
p127
S'VBZ'
p128
S'B-VP'
p129
g5
tp130
a(S'uncertain'
p131
S'uncertain'
p132
S'JJ'
p133
S'B-ADJP'
p134
g5
tp135
a(S'whether'
p136
S'whether'
p137
S'IN'
p138
S'B-SBAR'
p139
g5
tp140
a(S'a'
p141
g141
S'DT'
p142
S'B-NP'
p143
g5
tp144
a(S'4-week'
p145
S'4-week'
p146
S'JJ'
p147
S'I-NP'
p148
g5
tp149
a(S'induction'
p150
S'induction'
p151
S'NN'
p152
S'I-NP'
p153
g5
tp154
a(S'period'
p155
S'period'
p156
S'NN'
p157
S'I-NP'
p158
g5
tp159
a(S'of'
p160
S'of'
p161
S'IN'
p162
S'B-PP'
p163
g5
tp164
a(S'pegylated'
p165
S'pegylate'
p166
S'VBN'
p167
S'B-NP'
p168
g5
tp169
a(S'interferon'
p170
S'interferon'
p171
S'NN'
p172
S'I-NP'
p173
g5
tp174
a(S'and'
p175
S'and'
p176
S'CC'
p177
S'I-NP'
p178
g5
tp179
a(S'ribavirin'
p180
S'ribavirin'
p181
S'NN'
p182
S'I-NP'
p183
S'B-protein'
p184
tp185
a(S'increases'
p186
S'increase'
p187
S'VBZ'
p188
S'B-VP'
p189
g5
tp190
a(S'early'
p191
S'early'
p192
S'JJ'
p193
S'B-NP'
p194
g5
tp195
a(S'virological'
p196
S'virological'
p197
S'JJ'
p198
S'I-NP'
p199
g5
tp200
a(S'response'
p201
S'response'
p202
S'NN'
p203
S'I-NP'
p204
g5
tp205
a(S'('
p206
g206
g206
g5
g5
tp207
a(S'EVR'
p208
S'EVR'
p209
S'NN'
p210
S'B-NP'
p211
S'B-protein'
p212
tp213
a(S')'
p214
g214
g214
g5
g5
tp215
a(S'in'
p216
S'in'
p217
S'IN'
p218
S'B-PP'
p219
g5
tp220
a(S'HIV-HCV-coinfected'
p221
S'HIV-HCV-coinfected'
p222
S'JJ'
p223
S'B-NP'
p224
g5
tp225
a(S'patients'
p226
S'patient'
p227
S'NNS'
p228
S'I-NP'
p229
g5
tp230
a(g114
g114
g114
g5
g5
tp231
a(S'METHODS'
p232
S'METHODS'
p233
S'NNS'
p234
S'B-NP'
p235
g5
tp236
a(S'HIV'
p237
S'HIV'
p238
S'NN'
p239
S'I-NP'
p240
g5
tp241
a(S'and'
p242
S'and'
p243
S'CC'
p244
S'I-NP'
p245
g5
tp246
a(S'HCV'
p247
S'HCV'
p248
S'NN'
p249
S'I-NP'
p250
g5
tp251
a(S'genotype'
p252
S'genotype'
p253
S'NN'
p254
S'I-NP'
p255
g5
tp256
a(S'1-'
p257
S'1-'
p258
S'CD'
p259
S'I-NP'
p260
g5
tp261
a(S'and'
p262
S'and'
p263
S'CC'
p264
g5
g5
tp265
a(S'4-coinfected'
p266
S'4-coinfected'
p267
S'JJ'
p268
S'B-NP'
p269
g5
tp270
a(S'subjects'
p271
S'subject'
p272
S'NNS'
p273
S'I-NP'
p274
g5
tp275
a(S'were'
p276
S'be'
p277
S'VBD'
p278
S'B-VP'
p279
g5
tp280
a(S'randomized'
p281
S'randomize'
p282
S'VBN'
p283
S'I-VP'
p284
g5
tp285
a(S'to'
p286
S'to'
p287
S'TO'
p288
S'I-VP'
p289
g5
tp290
a(S'receive'
p291
S'receive'
p292
S'VB'
p293
S'I-VP'
p294
g5
tp295
a(S'pegylated'
p296
S'pegylate'
p297
S'VBN'
p298
S'B-NP'
p299
g5
tp300
a(S'interferon-\xce\xb12a'
p301
S'interferon-\xce\xb12a'
p302
S'NN'
p303
S'I-NP'
p304
S'B-protein'
p305
tp306
a(S'270'
p307
S'270'
p308
S'CD'
p309
S'I-NP'
p310
S'I-protein'
p311
tp312
a(S'\xce\xbcg/week'
p313
S'\xce\xbcg/week'
p314
S'NN'
p315
S'I-NP'
p316
S'I-protein'
p317
tp318
a(S'plus'
p319
S'plus'
p320
S'CC'
p321
g5
g5
tp322
a(S'ribavirin'
p323
S'ribavirin'
p324
S'NN'
p325
S'B-NP'
p326
g5
tp327
a(S'1'
p328
g328
S'CD'
p329
S'I-NP'
p330
g5
tp331
a(S','
p332
g332
g332
S'I-NP'
p333
g5
tp334
a(S'600'
p335
S'600'
p336
S'CD'
p337
S'I-NP'
p338
g5
tp339
a(S'mg'
p340
S'mg'
p341
S'NN'
p342
S'I-NP'
p343
g5
tp344
a(S'daily'
p345
S'daily'
p346
S'JJ'
p347
S'I-NP'
p348
g5
tp349
a(S'and'
p350
S'and'
p351
S'CC'
p352
S'I-NP'
p353
g5
tp354
a(S'epoetin-\xce\xb2'
p355
S'epoetin-\xce\xb2'
p356
S'NN'
p357
S'I-NP'
p358
g5
tp359
a(S'for'
p360
S'for'
p361
S'IN'
p362
S'B-PP'
p363
g5
tp364
a(S'4'
p365
g365
S'CD'
p366
S'B-NP'
p367
g5
tp368
a(S'weeks'
p369
S'week'
p370
S'NNS'
p371
S'I-NP'
p372
g5
tp373
a(g332
g332
g332
g5
g5
tp374
a(S'followed'
p375
S'follow'
p376
S'VBN'
p377
S'B-VP'
p378
g5
tp379
a(S'by'
p380
S'by'
p381
S'IN'
p382
S'B-PP'
p383
g5
tp384
a(S'pegylated'
p385
S'pegylate'
p386
S'VBN'
p387
S'B-NP'
p388
g5
tp389
a(S'interferon-\xce\xb12a'
p390
S'interferon-\xce\xb12a'
p391
S'NN'
p392
S'I-NP'
p393
S'B-protein'
p394
tp395
a(S'at'
p396
S'at'
p397
S'IN'
p398
S'B-PP'
p399
g5
tp400
a(S'standard'
p401
S'standard'
p402
S'JJ'
p403
S'B-NP'
p404
g5
tp405
a(S'dosages'
p406
S'dosage'
p407
S'NNS'
p408
S'I-NP'
p409
g5
tp410
a(S'plus'
p411
S'plus'
p412
S'CC'
p413
g5
g5
tp414
a(S'weight-based'
p415
S'weight-based'
p416
S'JJ'
p417
S'B-NP'
p418
g5
tp419
a(S'ribavirin'
p420
S'ribavirin'
p421
S'NN'
p422
S'I-NP'
p423
g5
tp424
a(g206
g206
g206
g5
g5
tp425
a(S'WBR'
p426
S'WBR'
p427
S'NN'
p428
S'B-NP'
p429
S'B-protein'
p430
tp431
a(g214
g214
g214
g5
g5
tp432
a(S'dosage'
p433
S'dosage'
p434
S'NN'
p435
S'B-NP'
p436
g5
tp437
a(S'for'
p438
S'for'
p439
S'IN'
p440
S'B-PP'
p441
g5
tp442
a(S'8'
p443
g443
S'CD'
p444
S'B-NP'
p445
g5
tp446
a(S'weeks'
p447
S'week'
p448
S'NNS'
p449
S'I-NP'
p450
g5
tp451
a(g206
g206
g206
g5
g5
tp452
a(S'induction'
p453
S'induction'
p454
S'NN'
p455
S'B-NP'
p456
g5
tp457
a(S'arm'
p458
S'arm'
p459
S'NN'
p460
S'I-NP'
p461
g5
tp462
a(S'['
p463
g463
g206
g5
g5
tp464
a(S'IA'
p465
S'IA'
p466
S'NN'
p467
S'B-NP'
p468
g5
tp469
a(S']'
p470
g470
g214
g5
g5
tp471
a(g214
g214
g214
g5
g5
tp472
a(g332
g332
g332
g5
g5
tp473
a(S'or'
p474
S'or'
p475
S'CC'
p476
g5
g5
tp477
a(S'pegylated'
p478
S'pegylate'
p479
S'VBN'
p480
S'B-NP'
p481
g5
tp482
a(S'interferon-\xce\xb12a'
p483
S'interferon-\xce\xb12a'
p484
S'NN'
p485
S'I-NP'
p486
S'B-protein'
p487
tp488
a(S'plus'
p489
S'plus'
p490
S'CC'
p491
g5
g5
tp492
a(S'WBR'
p493
S'WBR'
p494
S'NN'
p495
S'B-NP'
p496
S'B-protein'
p497
tp498
a(S'for'
p499
S'for'
p500
S'IN'
p501
S'B-PP'
p502
g5
tp503
a(S'12'
p504
S'12'
p505
S'CD'
p506
S'B-NP'
p507
g5
tp508
a(S'weeks'
p509
S'week'
p510
S'NNS'
p511
S'I-NP'
p512
g5
tp513
a(g206
g206
g206
g5
g5
tp514
a(S'standard'
p515
S'standard'
p516
S'JJ'
p517
S'B-NP'
p518
g5
tp519
a(S'therapy'
p520
S'therapy'
p521
S'NN'
p522
S'I-NP'
p523
g5
tp524
a(S'arm'
p525
S'arm'
p526
S'NN'
p527
S'I-NP'
p528
g5
tp529
a(g463
g463
g206
g5
g5
tp530
a(S'SA'
p531
S'SA'
p532
S'NN'
p533
S'B-NP'
p534
g5
tp535
a(g470
g470
g214
g5
g5
tp536
a(g214
g214
g214
g5
g5
tp537
a(g114
g114
g114
g5
g5
tp538
a(S'HCV'
p539
S'HCV'
p540
S'NN'
p541
S'B-NP'
p542
S'B-RNA'
p543
tp544
a(S'RNA'
p545
S'RNA'
p546
S'NN'
p547
S'I-NP'
p548
S'I-RNA'
p549
tp550
a(S'was'
p551
S'be'
p552
S'VBD'
p553
S'B-VP'
p554
g5
tp555
a(S'determined'
p556
S'determine'
p557
S'VBN'
p558
S'I-VP'
p559
g5
tp560
a(S'at'
p561
S'at'
p562
S'IN'
p563
S'B-PP'
p564
g5
tp565
a(S'weeks'
p566
S'week'
p567
S'NNS'
p568
S'B-NP'
p569
g5
tp570
a(S'0'
p571
g571
S'CD'
p572
S'B-NP'
p573
g5
tp574
a(g332
g332
g332
S'I-NP'
p575
g5
tp576
a(g328
g328
S'CD'
p577
S'I-NP'
p578
g5
tp579
a(g332
g332
g332
S'I-NP'
p580
g5
tp581
a(S'2'
p582
g582
S'CD'
p583
S'I-NP'
p584
g5
tp585
a(g332
g332
g332
S'I-NP'
p586
g5
tp587
a(S'3'
p588
g588
S'CD'
p589
S'I-NP'
p590
g5
tp591
a(g332
g332
g332
S'I-NP'
p592
g5
tp593
a(g365
g365
S'CD'
p594
S'I-NP'
p595
g5
tp596
a(g332
g332
g332
S'I-NP'
p597
g5
tp598
a(g443
g443
S'CD'
p599
S'I-NP'
p600
g5
tp601
a(S'and'
p602
S'and'
p603
S'CC'
p604
S'I-NP'
p605
g5
tp606
a(S'12.'
p607
S'12.'
p608
S'CD'
p609
S'I-NP'
p610
g5
tp611
a(S'Ribavirin'
p612
S'Ribavirin'
p613
S'NN'
p614
S'I-NP'
p615
g5
tp616
a(S'plasma'
p617
S'plasma'
p618
S'NN'
p619
S'I-NP'
p620
g5
tp621
a(S'trough'
p622
S'trough'
p623
S'NN'
p624
S'I-NP'
p625
g5
tp626
a(S'concentrations'
p627
S'concentration'
p628
S'NNS'
p629
S'I-NP'
p630
g5
tp631
a(S'were'
p632
S'be'
p633
S'VBD'
p634
S'B-VP'
p635
g5
tp636
a(S'determined'
p637
S'determine'
p638
S'VBN'
p639
S'I-VP'
p640
g5
tp641
a(S'at'
p642
S'at'
p643
S'IN'
p644
S'B-PP'
p645
g5
tp646
a(S'weeks'
p647
S'week'
p648
S'NNS'
p649
S'B-NP'
p650
g5
tp651
a(g365
g365
S'CD'
p652
S'B-NP'
p653
g5
tp654
a(g206
g206
g206
g5
g5
tp655
a(S'RBV-C'
p656
S'RBV-C'
p657
S'NN'
p658
S'B-NP'
p659
g5
tp660
a(g206
g206
g206
g5
g5
tp661
a(g365
g365
S'CD'
p662
S'B-NP'
p663
g5
tp664
a(g214
g214
g214
g5
g5
tp665
a(g214
g214
g214
g5
g5
tp666
a(S'and'
p667
S'and'
p668
S'CC'
p669
g5
g5
tp670
a(S'12'
p671
S'12'
p672
S'CD'
p673
S'B-NP'
p674
g5
tp675
a(g206
g206
g206
g5
g5
tp676
a(S'RBV-C'
p677
S'RBV-C'
p678
S'NN'
p679
S'B-NP'
p680
S'B-protein'
p681
tp682
a(g206
g206
g206
g5
g5
tp683
a(S'12'
p684
S'12'
p685
S'CD'
p686
S'B-NP'
p687
g5
tp688
a(g214
g214
g214
g5
g5
tp689
a(g214
g214
g214
g5
g5
tp690
a(g114
g114
g114
g5
g5
tp691
a(S'RESULTS'
p692
S'RESULTS'
p693
S'NNS'
p694
S'B-NP'
p695
g5
tp696
a(S'A'
p697
g697
S'DT'
p698
S'B-NP'
p699
g5
tp700
a(S'total'
p701
S'total'
p702
S'NN'
p703
S'I-NP'
p704
g5
tp705
a(S'of'
p706
S'of'
p707
S'IN'
p708
S'B-PP'
p709
g5
tp710
a(S'67'
p711
S'67'
p712
S'CD'
p713
S'B-NP'
p714
g5
tp715
a(S'patients'
p716
S'patient'
p717
S'NNS'
p718
S'I-NP'
p719
g5
tp720
a(S'were'
p721
S'be'
p722
S'VBD'
p723
S'B-VP'
p724
g5
tp725
a(S'included'
p726
S'include'
p727
S'VBN'
p728
S'I-VP'
p729
g5
tp730
a(S';'
p731
g731
g87
g5
g5
tp732
a(S'33'
p733
S'33'
p734
S'CD'
p735
S'B-NP'
p736
g5
tp737
a(S'in'
p738
S'in'
p739
S'IN'
p740
S'B-PP'
p741
g5
tp742
a(S'the'
p743
S'the'
p744
S'DT'
p745
S'B-NP'
p746
g5
tp747
a(S'SA'
p748
S'SA'
p749
S'NN'
p750
S'I-NP'
p751
g5
tp752
a(S'and'
p753
S'and'
p754
S'CC'
p755
g5
g5
tp756
a(S'34'
p757
S'34'
p758
S'CD'
p759
S'B-NP'
p760
g5
tp761
a(S'in'
p762
S'in'
p763
S'IN'
p764
S'B-PP'
p765
g5
tp766
a(S'the'
p767
S'the'
p768
S'DT'
p769
S'B-NP'
p770
g5
tp771
a(S'IA.'
p772
S'IA.'
p773
S'NNP'
p774
S'I-NP'
p775
g5
tp776
a(S'Overall'
p777
S'Overall'
p778
S'NNP'
p779
S'I-NP'
p780
g5
tp781
a(g332
g332
g332
g5
g5
tp782
a(S'25'
p783
S'25'
p784
S'CD'
p785
S'B-NP'
p786
g5
tp787
a(S'%'
p788
g788
S'NN'
p789
S'I-NP'
p790
g5
tp791
a(S'received'
p792
S'receive'
p793
S'VBD'
p794
S'B-VP'
p795
g5
tp796
a(S'nucleoside'
p797
S'nucleoside'
p798
S'NN'
p799
S'B-NP'
p800
S'B-protein'
p801
tp802
a(S'reverse'
p803
S'reverse'
p804
S'JJ'
p805
S'I-NP'
p806
S'I-protein'
p807
tp808
a(S'transcriptase'
p809
S'transcriptase'
p810
S'NN'
p811
S'I-NP'
p812
S'I-protein'
p813
tp814
a(S'inhibitor'
p815
S'inhibitor'
p816
S'NN'
p817
S'I-NP'
p818
g5
tp819
a(g206
g206
g206
g5
g5
tp820
a(S'NRTI'
p821
S'NRTI'
p822
S'NN'
p823
S'B-NP'
p824
g5
tp825
a(g214
g214
g214
g5
g5
tp826
a(S'-sparing'
p827
S'-sparing'
p828
S'NN'
p829
S'B-NP'
p830
g5
tp831
a(S'regimens.'
p832
S'regimens.'
p833
S'VBP'
p834
S'B-VP'
p835
g5
tp836
a(S'More'
p837
S'More'
p838
S'JJR'
p839
S'B-NP'
p840
g5
tp841
a(S'patients'
p842
S'patient'
p843
S'NNS'
p844
S'I-NP'
p845
g5
tp846
a(S'achieved'
p847
S'achieve'
p848
S'VBD'
p849
S'B-VP'
p850
g5
tp851
a(S'an'
p852
S'an'
p853
S'DT'
p854
S'B-NP'
p855
g5
tp856
a(S'HCV'
p857
S'HCV'
p858
S'NN'
p859
S'I-NP'
p860
g5
tp861
a(S'RNA'
p862
S'RNA'
p863
S'NN'
p864
S'I-NP'
p865
g5
tp866
a(S'decrease'
p867
S'decrease'
p868
S'NN'
p869
S'I-NP'
p870
g5
tp871
a(S'\xe2\x89\xa51'
p872
S'\xe2\x89\xa51'
p873
S'NN'
p874
S'I-NP'
p875
g5
tp876
a(S'log'
p877
S'log'
p878
S'NN'
p879
S'I-NP'
p880
g5
tp881
a(g206
g206
g206
g5
g5
tp882
a(S'10'
p883
S'10'
p884
S'CD'
p885
S'B-NP'
p886
g5
tp887
a(g214
g214
g214
g5
g5
tp888
a(S'at'
p889
S'at'
p890
S'IN'
p891
S'B-PP'
p892
g5
tp893
a(S'week'
p894
S'week'
p895
S'NN'
p896
S'B-NP'
p897
S'B-DNA'
p898
tp899
a(g365
g365
S'CD'
p900
S'I-NP'
p901
S'I-DNA'
p902
tp903
a(S'in'
p904
S'in'
p905
S'IN'
p906
S'B-PP'
p907
g5
tp908
a(S'the'
p909
S'the'
p910
S'DT'
p911
S'B-NP'
p912
g5
tp913
a(S'IA'
p914
S'IA'
p915
S'NN'
p916
S'I-NP'
p917
g5
tp918
a(S'than'
p919
S'than'
p920
S'IN'
p921
S'B-PP'
p922
g5
tp923
a(S'in'
p924
S'in'
p925
S'IN'
p926
S'B-PP'
p927
g5
tp928
a(S'the'
p929
S'the'
p930
S'DT'
p931
S'B-NP'
p932
g5
tp933
a(S'SA'
p934
S'SA'
p935
S'NN'
p936
S'I-NP'
p937
g5
tp938
a(g206
g206
g206
g5
g5
tp939
a(S'62'
p940
S'62'
p941
S'CD'
p942
S'B-NP'
p943
g5
tp944
a(g788
g788
S'NN'
p945
S'I-NP'
p946
g5
tp947
a(S'versus'
p948
S'versus'
p949
S'IN'
p950
S'B-PP'
p951
g5
tp952
a(S'38'
p953
S'38'
p954
S'CD'
p955
S'B-NP'
p956
g5
tp957
a(g788
g788
S'NN'
p958
S'I-NP'
p959
g5
tp960
a(g731
g731
g87
g5
g5
tp961
a(S'P=0.017'
p962
S'P=0.017'
p963
S'NN'
p964
S'B-NP'
p965
g5
tp966
a(g214
g214
g214
g5
g5
tp967
a(g332
g332
g332
g5
g5
tp968
a(S'but'
p969
S'but'
p970
S'CC'
p971
g5
g5
tp972
a(S'EVR'
p973
S'EVR'
p974
S'NN'
p975
S'B-NP'
p976
g5
tp977
a(S'rates'
p978
S'rate'
p979
S'NNS'
p980
S'I-NP'
p981
g5
tp982
a(S'were'
p983
S'be'
p984
S'VBD'
p985
S'B-VP'
p986
g5
tp987
a(S'similar'
p988
S'similar'
p989
S'JJ'
p990
S'B-ADJP'
p991
g5
tp992
a(S'in'
p993
S'in'
p994
S'IN'
p995
S'B-PP'
p996
g5
tp997
a(S'the'
p998
S'the'
p999
S'DT'
p1000
S'B-NP'
p1001
g5
tp1002
a(S'two'
p1003
S'two'
p1004
S'CD'
p1005
S'I-NP'
p1006
g5
tp1007
a(S'groups'
p1008
S'group'
p1009
S'NNS'
p1010
S'I-NP'
p1011
g5
tp1012
a(g206
g206
g206
g5
g5
tp1013
a(S'74'
p1014
S'74'
p1015
S'CD'
p1016
S'B-NP'
p1017
g5
tp1018
a(g788
g788
S'NN'
p1019
S'I-NP'
p1020
g5
tp1021
a(S'versus'
p1022
S'versus'
p1023
S'IN'
p1024
S'B-PP'
p1025
g5
tp1026
a(S'59'
p1027
S'59'
p1028
S'CD'
p1029
S'B-NP'
p1030
g5
tp1031
a(g788
g788
S'NN'
p1032
S'I-NP'
p1033
g5
tp1034
a(S'in'
p1035
S'in'
p1036
S'IN'
p1037
S'B-PP'
p1038
g5
tp1039
a(S'the'
p1040
S'the'
p1041
S'DT'
p1042
S'B-NP'
p1043
g5
tp1044
a(S'IA'
p1045
S'IA'
p1046
S'NN'
p1047
S'I-NP'
p1048
g5
tp1049
a(S'and'
p1050
S'and'
p1051
S'CC'
p1052
S'I-NP'
p1053
g5
tp1054
a(S'SA'
p1055
S'SA'
p1056
S'NN'
p1057
S'I-NP'
p1058
g5
tp1059
a(g332
g332
g332
g5
g5
tp1060
a(S'respectively'
p1061
S'respectively'
p1062
S'RB'
p1063
S'B-ADVP'
p1064
g5
tp1065
a(g731
g731
g87
g5
g5
tp1066
a(S'P=0.15'
p1067
S'P=0.15'
p1068
S'NN'
p1069
S'B-NP'
p1070
g5
tp1071
a(g214
g214
g214
g5
g5
tp1072
a(g114
g114
g114
g5
g5
tp1073
a(S'Independent'
p1074
S'Independent'
p1075
S'JJ'
p1076
S'B-NP'
p1077
g5
tp1078
a(S'predictors'
p1079
S'predictor'
p1080
S'NNS'
p1081
S'I-NP'
p1082
g5
tp1083
a(S'of'
p1084
S'of'
p1085
S'IN'
p1086
S'B-PP'
p1087
g5
tp1088
a(S'faster'
p1089
S'fast'
p1090
S'JJR'
p1091
S'B-NP'
p1092
g5
tp1093
a(S'HCV'
p1094
S'HCV'
p1095
S'NN'
p1096
S'I-NP'
p1097
g5
tp1098
a(S'RNA'
p1099
S'RNA'
p1100
S'NN'
p1101
S'I-NP'
p1102
g5
tp1103
a(S'decrease'
p1104
S'decrease'
p1105
S'NN'
p1106
S'I-NP'
p1107
g5
tp1108
a(S'at'
p1109
S'at'
p1110
S'IN'
p1111
S'B-PP'
p1112
g5
tp1113
a(S'12'
p1114
S'12'
p1115
S'CD'
p1116
S'B-NP'
p1117
g5
tp1118
a(S'weeks'
p1119
S'week'
p1120
S'NNS'
p1121
S'I-NP'
p1122
g5
tp1123
a(S'were'
p1124
S'be'
p1125
S'VBD'
p1126
S'B-VP'
p1127
g5
tp1128
a(S'higher'
p1129
S'high'
p1130
S'JJR'
p1131
S'B-NP'
p1132
g5
tp1133
a(S'RBV-C'
p1134
S'RBV-C'
p1135
S'NN'
p1136
S'I-NP'
p1137
S'B-protein'
p1138
tp1139
a(g206
g206
g206
g5
g5
tp1140
a(g365
g365
S'CD'
p1141
S'B-NP'
p1142
g5
tp1143
a(g214
g214
g214
g5
g5
tp1144
a(S'and'
p1145
S'and'
p1146
S'CC'
p1147
g5
g5
tp1148
a(S'younger'
p1149
S'young'
p1150
S'JJR'
p1151
S'B-NP'
p1152
g5
tp1153
a(S'age.'
p1154
S'age.'
p1155
S'NN'
p1156
S'I-NP'
p1157
g5
tp1158
a(S'RBV-C'
p1159
S'RBV-C'
p1160
S'NN'
p1161
S'I-NP'
p1162
g5
tp1163
a(g206
g206
g206
g5
g5
tp1164
a(g365
g365
S'CD'
p1165
S'B-NP'
p1166
g5
tp1167
a(g214
g214
g214
g5
g5
tp1168
a(S'were'
p1169
S'be'
p1170
S'VBD'
p1171
S'B-VP'
p1172
g5
tp1173
a(S'higher'
p1174
S'high'
p1175
S'JJR'
p1176
S'B-ADJP'
p1177
g5
tp1178
a(S'in'
p1179
S'in'
p1180
S'IN'
p1181
S'B-PP'
p1182
g5
tp1183
a(S'patients'
p1184
S'patient'
p1185
S'NNS'
p1186
S'B-NP'
p1187
g5
tp1188
a(S'allocated'
p1189
S'allocate'
p1190
S'VBN'
p1191
S'B-VP'
p1192
g5
tp1193
a(S'in'
p1194
S'in'
p1195
S'IN'
p1196
S'B-PP'
p1197
g5
tp1198
a(S'the'
p1199
S'the'
p1200
S'DT'
p1201
S'B-NP'
p1202
g5
tp1203
a(S'IA'
p1204
S'IA'
p1205
S'NN'
p1206
S'I-NP'
p1207
g5
tp1208
a(S'and'
p1209
S'and'
p1210
S'CC'
p1211
S'B-PP'
p1212
g5
tp1213
a(S'in'
p1214
S'in'
p1215
S'IN'
p1216
S'B-PP'
p1217
g5
tp1218
a(S'those'
p1219
S'those'
p1220
S'DT'
p1221
S'B-NP'
p1222
g5
tp1223
a(S'receiving'
p1224
S'receive'
p1225
S'VBG'
p1226
S'I-NP'
p1227
g5
tp1228
a(S'NRTIs'
p1229
S'NRTI'
p1230
S'NNS'
p1231
S'I-NP'
p1232
S'B-DNA'
p1233
tp1234
a(g206
g206
g206
g5
g5
tp1235
a(S'P=0.039'
p1236
S'P=0.039'
p1237
S'NN'
p1238
S'B-NP'
p1239
g5
tp1240
a(g214
g214
g214
g5
g5
tp1241
a(g114
g114
g114
g5
g5
tp1242
a(S'CONCLUSIONS'
p1243
S'CONCLUSIONS'
p1244
S'NNS'
p1245
S'B-NP'
p1246
g5
tp1247
a(g697
g697
S'DT'
p1248
S'B-NP'
p1249
g5
tp1250
a(S'4-week'
p1251
S'4-week'
p1252
S'JJ'
p1253
S'I-NP'
p1254
g5
tp1255
a(S'induction'
p1256
S'induction'
p1257
S'NN'
p1258
S'I-NP'
p1259
g5
tp1260
a(S'with'
p1261
S'with'
p1262
S'IN'
p1263
S'B-PP'
p1264
g5
tp1265
a(S'pegylated'
p1266
S'pegylate'
p1267
S'VBN'
p1268
S'B-NP'
p1269
g5
tp1270
a(S'interferon-\xce\xb12a'
p1271
S'interferon-\xce\xb12a'
p1272
S'NN'
p1273
S'I-NP'
p1274
S'B-protein'
p1275
tp1276
a(S'plus'
p1277
S'plus'
p1278
S'CC'
p1279
S'I-NP'
p1280
g5
tp1281
a(S'ribavirin'
p1282
S'ribavirin'
p1283
S'NN'
p1284
S'I-NP'
p1285
g5
tp1286
a(S'was'
p1287
S'be'
p1288
S'VBD'
p1289
S'B-VP'
p1290
g5
tp1291
a(S'associated'
p1292
S'associate'
p1293
S'VBN'
p1294
S'I-VP'
p1295
g5
tp1296
a(S'with'
p1297
S'with'
p1298
S'IN'
p1299
S'B-PP'
p1300
g5
tp1301
a(g141
g141
S'DT'
p1302
S'B-NP'
p1303
g5
tp1304
a(S'greater'
p1305
S'great'
p1306
S'JJR'
p1307
S'I-NP'
p1308
g5
tp1309
a(S'decrease'
p1310
S'decrease'
p1311
S'NN'
p1312
S'I-NP'
p1313
g5
tp1314
a(S'in'
p1315
S'in'
p1316
S'IN'
p1317
S'B-PP'
p1318
g5
tp1319
a(S'HCV'
p1320
S'HCV'
p1321
S'NN'
p1322
S'B-NP'
p1323
S'B-RNA'
p1324
tp1325
a(S'RNA'
p1326
S'RNA'
p1327
S'NN'
p1328
S'I-NP'
p1329
S'I-RNA'
p1330
tp1331
a(S'at'
p1332
S'at'
p1333
S'IN'
p1334
S'B-PP'
p1335
g5
tp1336
a(S'week'
p1337
S'week'
p1338
S'NN'
p1339
S'B-NP'
p1340
g5
tp1341
a(g365
g365
S'CD'
p1342
S'I-NP'
p1343
g5
tp1344
a(g731
g731
g87
g5
g5
tp1345
a(S'however'
p1346
S'however'
p1347
S'RB'
p1348
g5
g5
tp1349
a(g332
g332
g332
g5
g5
tp1350
a(S'this'
p1351
S'this'
p1352
S'DT'
p1353
S'B-NP'
p1354
g5
tp1355
a(S'did'
p1356
S'do'
p1357
S'VBD'
p1358
S'B-VP'
p1359
g5
tp1360
a(S'not'
p1361
S'not'
p1362
S'RB'
p1363
S'I-VP'
p1364
g5
tp1365
a(S'translate'
p1366
S'translate'
p1367
S'VB'
p1368
S'I-VP'
p1369
g5
tp1370
a(S'into'
p1371
S'into'
p1372
S'IN'
p1373
S'B-PP'
p1374
g5
tp1375
a(S'higher'
p1376
S'high'
p1377
S'JJR'
p1378
S'B-NP'
p1379
g5
tp1380
a(S'EVR'
p1381
S'EVR'
p1382
S'NN'
p1383
S'I-NP'
p1384
g5
tp1385
a(S'rates.'
p1386
S'rates.'
p1387
S'NNS'
p1388
S'I-NP'
p1389
g5
tp1390
a(S'Higher'
p1391
S'High'
p1392
S'JJR'
p1393
S'B-NP'
p1394
g5
tp1395
a(S'RBV'
p1396
S'RBV'
p1397
S'NN'
p1398
S'I-NP'
p1399
g5
tp1400
a(S'doses'
p1401
S'dose'
p1402
S'NNS'
p1403
S'I-NP'
p1404
g5
tp1405
a(S'and'
p1406
S'and'
p1407
S'CC'
p1408
g5
g5
tp1409
a(S'avoidance'
p1410
S'avoidance'
p1411
S'NN'
p1412
S'B-NP'
p1413
g5
tp1414
a(S'of'
p1415
S'of'
p1416
S'IN'
p1417
S'B-PP'
p1418
g5
tp1419
a(S'NRTI-sparing'
p1420
S'NRTI-sparing'
p1421
S'JJ'
p1422
S'B-NP'
p1423
g5
tp1424
a(S'antiretroviral'
p1425
S'antiretroviral'
p1426
S'JJ'
p1427
S'I-NP'
p1428
g5
tp1429
a(S'regimens'
p1430
S'regimen'
p1431
S'NNS'
p1432
S'I-NP'
p1433
g5
tp1434
a(S'might'
p1435
S'might'
p1436
S'MD'
p1437
S'B-VP'
p1438
g5
tp1439
a(S'improve'
p1440
S'improve'
p1441
S'VB'
p1442
S'I-VP'
p1443
g5
tp1444
a(S'HCV'
p1445
S'HCV'
p1446
S'NN'
p1447
S'B-NP'
p1448
g5
tp1449
a(S'treatment'
p1450
S'treatment'
p1451
S'NN'
p1452
S'I-NP'
p1453
g5
tp1454
a(S'efficacy'
p1455
S'efficacy'
p1456
S'NN'
p1457
S'I-NP'
p1458
g5
tp1459
a(g114
g114
g114
g5
g5
tp1460
a.