(lp0
(S'Cross-over'
p1
S'Cross-over'
p2
S'JJ'
p3
S'B-NP'
p4
S'O'
p5
tp6
a(S'trial'
p7
S'trial'
p8
S'NN'
p9
S'I-NP'
p10
g5
tp11
a(S'of'
p12
S'of'
p13
S'IN'
p14
S'B-PP'
p15
g5
tp16
a(S'intensive'
p17
S'intensive'
p18
S'JJ'
p19
S'B-NP'
p20
g5
tp21
a(S'monotherapy'
p22
S'monotherapy'
p23
S'NN'
p24
S'I-NP'
p25
g5
tp26
a(S'with'
p27
S'with'
p28
S'IN'
p29
S'B-PP'
p30
g5
tp31
a(S'atorvastatin'
p32
S'atorvastatin'
p33
S'NN'
p34
S'B-NP'
p35
g5
tp36
a(S'and'
p37
S'and'
p38
S'CC'
p39
g5
g5
tp40
a(S'combined'
p41
S'combine'
p42
S'VBN'
p43
S'B-NP'
p44
g5
tp45
a(S'therapy'
p46
S'therapy'
p47
S'NN'
p48
S'I-NP'
p49
g5
tp50
a(S'with'
p51
S'with'
p52
S'IN'
p53
S'B-PP'
p54
g5
tp55
a(S'atorvastatin'
p56
S'atorvastatin'
p57
S'NN'
p58
S'B-NP'
p59
g5
tp60
a(S'and'
p61
S'and'
p62
S'CC'
p63
S'I-NP'
p64
g5
tp65
a(S'colestimide'
p66
S'colestimide'
p67
S'NN'
p68
S'I-NP'
p69
g5
tp70
a(S'for'
p71
S'for'
p72
S'IN'
p73
S'B-PP'
p74
g5
tp75
a(S'Japanese'
p76
S'Japanese'
p77
S'JJ'
p78
S'B-NP'
p79
g5
tp80
a(S'familial'
p81
S'familial'
p82
S'JJ'
p83
S'I-NP'
p84
g5
tp85
a(S'hypercholesterolemia'
p86
S'hypercholesterolemia'
p87
S'NN'
p88
S'I-NP'
p89
g5
tp90
a(S'.'
p91
g91
g91
g5
g5
tp92
a(S'BACKGROUND'
p93
S'BACKGROUND'
p94
S'NN'
p95
S'B-NP'
p96
g5
tp97
a(S'In'
p98
S'In'
p99
S'IN'
p100
S'B-PP'
p101
g5
tp102
a(S'familial'
p103
S'familial'
p104
S'JJ'
p105
S'B-NP'
p106
g5
tp107
a(S'hypercholesterolemia'
p108
S'hypercholesterolemia'
p109
S'NN'
p110
S'I-NP'
p111
g5
tp112
a(S'('
p113
g113
g113
g5
g5
tp114
a(S'FH'
p115
S'FH'
p116
S'NN'
p117
S'B-NP'
p118
g5
tp119
a(S')'
p120
g120
g120
g5
g5
tp121
a(S','
p122
g122
g122
g5
g5
tp123
a(S'low-density'
p124
S'low-density'
p125
S'NN'
p126
S'B-NP'
p127
g5
tp128
a(S'lipoprotein-cholesterol'
p129
S'lipoprotein-cholesterol'
p130
S'NN'
p131
S'I-NP'
p132
g5
tp133
a(g113
g113
g113
g5
g5
tp134
a(S'LDL-C'
p135
S'LDL-C'
p136
S'NN'
p137
S'B-NP'
p138
S'B-protein'
p139
tp140
a(g120
g120
g120
g5
g5
tp141
a(S'-lowering'
p142
S'-lowering'
p143
S'JJ'
p144
S'B-NP'
p145
g5
tp146
a(S'therapy'
p147
S'therapy'
p148
S'NN'
p149
S'I-NP'
p150
g5
tp151
a(S'is'
p152
S'be'
p153
S'VBZ'
p154
S'B-VP'
p155
g5
tp156
a(S'important'
p157
S'important'
p158
S'JJ'
p159
S'B-ADJP'
p160
g5
tp161
a(S'to'
p162
S'to'
p163
S'TO'
p164
S'B-VP'
p165
g5
tp166
a(S'avoid'
p167
S'avoid'
p168
S'VB'
p169
S'I-VP'
p170
g5
tp171
a(S'predisposition'
p172
S'predisposition'
p173
S'NN'
p174
S'B-NP'
p175
g5
tp176
a(S'to'
p177
S'to'
p178
S'TO'
p179
S'B-PP'
p180
g5
tp181
a(S'coronary'
p182
S'coronary'
p183
S'JJ'
p184
S'B-NP'
p185
g5
tp186
a(S'artery'
p187
S'artery'
p188
S'NN'
p189
S'I-NP'
p190
g5
tp191
a(S'disease.'
p192
S'disease.'
p193
S'NN'
p194
S'I-NP'
p195
g5
tp196
a(S'This'
p197
S'This'
p198
S'DT'
p199
S'B-NP'
p200
g5
tp201
a(S'study'
p202
S'study'
p203
S'NN'
p204
S'I-NP'
p205
g5
tp206
a(S'investigated'
p207
S'investigate'
p208
S'VBD'
p209
S'B-VP'
p210
g5
tp211
a(S'the'
p212
S'the'
p213
S'DT'
p214
S'B-NP'
p215
g5
tp216
a(S'advantages'
p217
S'advantage'
p218
S'NNS'
p219
S'I-NP'
p220
g5
tp221
a(S'of'
p222
S'of'
p223
S'IN'
p224
S'B-PP'
p225
g5
tp226
a(S'combined'
p227
S'combined'
p228
S'JJ'
p229
S'B-NP'
p230
g5
tp231
a(S'therapy'
p232
S'therapy'
p233
S'NN'
p234
S'I-NP'
p235
g5
tp236
a(S'with'
p237
S'with'
p238
S'IN'
p239
S'B-PP'
p240
g5
tp241
a(S'atorvastatin'
p242
S'atorvastatin'
p243
S'NN'
p244
S'B-NP'
p245
g5
tp246
a(S'and'
p247
S'and'
p248
S'CC'
p249
S'I-NP'
p250
g5
tp251
a(S'colestimide'
p252
S'colestimide'
p253
S'NN'
p254
S'I-NP'
p255
g5
tp256
a(S'vs'
p257
S'vs'
p258
S'CC'
p259
g5
g5
tp260
a(S'intensive'
p261
S'intensive'
p262
S'JJ'
p263
S'B-NP'
p264
g5
tp265
a(S'monotherapy'
p266
S'monotherapy'
p267
S'NN'
p268
S'I-NP'
p269
g5
tp270
a(S'with'
p271
S'with'
p272
S'IN'
p273
S'B-PP'
p274
g5
tp275
a(S'atorvastatin'
p276
S'atorvastatin'
p277
S'NN'
p278
S'B-NP'
p279
g5
tp280
a(g91
g91
g91
g5
g5
tp281
a(S'METHODS'
p282
S'METHODS'
p283
S'NNS'
p284
S'B-NP'
p285
g5
tp286
a(S'AND'
p287
S'AND'
p288
S'CC'
p289
S'I-NP'
p290
g5
tp291
a(S'RESULTS'
p292
S'RESULTS'
p293
S'NNS'
p294
S'I-NP'
p295
g5
tp296
a(S'The'
p297
S'The'
p298
S'DT'
p299
S'B-NP'
p300
g5
tp301
a(S'trial'
p302
S'trial'
p303
S'NN'
p304
S'I-NP'
p305
g5
tp306
a(S'used'
p307
S'use'
p308
S'VBD'
p309
S'B-VP'
p310
g5
tp311
a(S'a'
p312
g312
S'DT'
p313
S'B-NP'
p314
g5
tp315
a(S'randomized'
p316
S'randomize'
p317
S'VBN'
p318
S'I-NP'
p319
g5
tp320
a(S'cross-over'
p321
S'cross-over'
p322
S'NN'
p323
S'I-NP'
p324
g5
tp325
a(S'design'
p326
S'design'
p327
S'NN'
p328
S'I-NP'
p329
g5
tp330
a(S'consisting'
p331
S'consist'
p332
S'VBG'
p333
S'B-VP'
p334
g5
tp335
a(S'of'
p336
S'of'
p337
S'IN'
p338
S'B-PP'
p339
g5
tp340
a(S'2'
p341
g341
S'CD'
p342
S'B-NP'
p343
g5
tp344
a(S'16-week'
p345
S'16-week'
p346
S'JJ'
p347
S'I-NP'
p348
g5
tp349
a(S'periods'
p350
S'period'
p351
S'NNS'
p352
S'I-NP'
p353
g5
tp354
a(S'of'
p355
S'of'
p356
S'IN'
p357
S'B-PP'
p358
g5
tp359
a(S'open-label'
p360
S'open-label'
p361
S'JJ'
p362
S'B-NP'
p363
g5
tp364
a(S'drug'
p365
S'drug'
p366
S'NN'
p367
S'I-NP'
p368
g5
tp369
a(S'therapy.'
p370
S'therapy.'
p371
S'RB'
p372
S'B-ADVP'
p373
g5
tp374
a(S'Among'
p375
S'Among'
p376
S'IN'
p377
S'B-PP'
p378
g5
tp379
a(S'the'
p380
S'the'
p381
S'DT'
p382
S'B-NP'
p383
g5
tp384
a(S'24'
p385
S'24'
p386
S'CD'
p387
S'I-NP'
p388
g5
tp389
a(S'initial'
p390
S'initial'
p391
S'JJ'
p392
S'I-NP'
p393
g5
tp394
a(S'patients'
p395
S'patient'
p396
S'NNS'
p397
S'I-NP'
p398
g5
tp399
a(g122
g122
g122
g5
g5
tp400
a(S'17'
p401
S'17'
p402
S'CD'
p403
S'B-NP'
p404
g5
tp405
a(S'heterozygous'
p406
S'heterozygous'
p407
S'JJ'
p408
S'I-NP'
p409
g5
tp410
a(S'FH'
p411
S'FH'
p412
S'NN'
p413
S'I-NP'
p414
g5
tp415
a(S'patients'
p416
S'patient'
p417
S'NNS'
p418
S'I-NP'
p419
g5
tp420
a(g113
g113
g113
g5
g5
tp421
a(S'age'
p422
S'age'
p423
S'NN'
p424
S'B-NP'
p425
g5
tp426
a(S':'
p427
g427
g427
g5
g5
tp428
a(S'54.1'
p429
S'54.1'
p430
S'CD'
p431
S'B-NP'
p432
g5
tp433
a(S'years'
p434
S'year'
p435
S'NNS'
p436
S'I-NP'
p437
g5
tp438
a(S';'
p439
g439
g427
g5
g5
tp440
a(S'5'
p441
g441
S'CD'
p442
S'B-NP'
p443
g5
tp444
a(S'males'
p445
S'male'
p446
S'NNS'
p447
S'I-NP'
p448
g5
tp449
a(g120
g120
g120
g5
g5
tp450
a(S'were'
p451
S'be'
p452
S'VBD'
p453
S'B-VP'
p454
g5
tp455
a(S'enrolled'
p456
S'enrol'
p457
S'VBN'
p458
S'I-VP'
p459
g5
tp460
a(S'after'
p461
S'after'
p462
S'IN'
p463
S'B-PP'
p464
g5
tp465
a(S'20'
p466
S'20'
p467
S'CD'
p468
S'B-NP'
p469
g5
tp470
a(S'mg/day'
p471
S'mg/day'
p472
S'NN'
p473
S'I-NP'
p474
g5
tp475
a(S'atorvastatin'
p476
S'atorvastatin'
p477
S'NN'
p478
S'I-NP'
p479
g5
tp480
a(S'failed'
p481
S'fail'
p482
S'VBD'
p483
S'B-VP'
p484
g5
tp485
a(S'to'
p486
S'to'
p487
S'TO'
p488
S'I-VP'
p489
g5
tp490
a(S'achieve'
p491
S'achieve'
p492
S'VB'
p493
S'I-VP'
p494
g5
tp495
a(S'their'
p496
S'their'
p497
S'PRP$'
p498
S'B-NP'
p499
g5
tp500
a(S'target'
p501
S'target'
p502
S'NN'
p503
S'I-NP'
p504
g5
tp505
a(S'level.'
p506
S'level.'
p507
S'NN'
p508
S'I-NP'
p509
g5
tp510
a(S'The'
p511
S'The'
p512
S'DT'
p513
S'B-NP'
p514
g5
tp515
a(S'patients'
p516
S'patient'
p517
S'NNS'
p518
S'I-NP'
p519
g5
tp520
a(S'received'
p521
S'receive'
p522
S'VBD'
p523
S'B-VP'
p524
g5
tp525
a(S'20'
p526
S'20'
p527
S'CD'
p528
S'B-NP'
p529
g5
tp530
a(S'mg/day'
p531
S'mg/day'
p532
S'NN'
p533
S'I-NP'
p534
g5
tp535
a(S'atorvastatin'
p536
S'atorvastatin'
p537
S'NN'
p538
S'I-NP'
p539
g5
tp540
a(S'and'
p541
S'and'
p542
S'CC'
p543
g5
g5
tp544
a(S'3'
p545
g545
S'CD'
p546
S'B-NP'
p547
g5
tp548
a(S'g/day'
p549
S'g/day'
p550
S'NN'
p551
S'I-NP'
p552
g5
tp553
a(S'colestimide'
p554
S'colestimide'
p555
S'NN'
p556
S'I-NP'
p557
g5
tp558
a(S'or'
p559
S'or'
p560
S'CC'
p561
g5
g5
tp562
a(S'40'
p563
S'40'
p564
S'CD'
p565
S'B-NP'
p566
g5
tp567
a(S'mg/day'
p568
S'mg/day'
p569
S'NN'
p570
S'I-NP'
p571
g5
tp572
a(S'atorvastatin.'
p573
S'atorvastatin.'
p574
S'IN'
p575
S'B-PP'
p576
g5
tp577
a(S'Fifteen'
p578
S'Fifteen'
p579
S'CD'
p580
S'B-NP'
p581
g5
tp582
a(S'patients'
p583
S'patient'
p584
S'NNS'
p585
S'I-NP'
p586
g5
tp587
a(S'completed'
p588
S'complete'
p589
S'VBD'
p590
S'B-VP'
p591
g5
tp592
a(S'the'
p593
S'the'
p594
S'DT'
p595
S'B-NP'
p596
g5
tp597
a(S'trial'
p598
S'trial'
p599
S'NN'
p600
S'I-NP'
p601
g5
tp602
a(S'and'
p603
S'and'
p604
S'CC'
p605
g5
g5
tp606
a(S'their'
p607
S'their'
p608
S'PRP$'
p609
S'B-NP'
p610
g5
tp611
a(S'LDL-C'
p612
S'LDL-C'
p613
S'NN'
p614
S'I-NP'
p615
S'B-protein'
p616
tp617
a(S'reduced'
p618
S'reduce'
p619
S'VBD'
p620
S'B-VP'
p621
g5
tp622
a(S'from'
p623
S'from'
p624
S'IN'
p625
S'B-PP'
p626
g5
tp627
a(S'5.07'
p628
S'5.07'
p629
S'CD'
p630
S'B-NP'
p631
g5
tp632
a(S'+/-'
p633
S'+/-'
p634
S'SYM'
p635
S'I-NP'
p636
g5
tp637
a(S'1.10'
p638
S'1.10'
p639
S'CD'
p640
S'I-NP'
p641
g5
tp642
a(S'mmol/L'
p643
S'mmol/L'
p644
S'NN'
p645
S'I-NP'
p646
g5
tp647
a(S'to'
p648
S'to'
p649
S'TO'
p650
S'B-PP'
p651
g5
tp652
a(S'3.76'
p653
S'3.76'
p654
S'CD'
p655
S'B-NP'
p656
g5
tp657
a(S'+/-'
p658
S'+/-'
p659
S'SYM'
p660
S'I-NP'
p661
g5
tp662
a(S'0.90'
p663
S'0.90'
p664
S'CD'
p665
S'I-NP'
p666
g5
tp667
a(S'mmol/L'
p668
S'mmol/L'
p669
S'NN'
p670
S'I-NP'
p671
g5
tp672
a(S'with'
p673
S'with'
p674
S'IN'
p675
S'B-PP'
p676
g5
tp677
a(S'the'
p678
S'the'
p679
S'DT'
p680
S'B-NP'
p681
g5
tp682
a(S'combined'
p683
S'combine'
p684
S'VBN'
p685
S'I-NP'
p686
g5
tp687
a(S'therapy'
p688
S'therapy'
p689
S'NN'
p690
S'I-NP'
p691
g5
tp692
a(S'and'
p693
S'and'
p694
S'CC'
p695
S'B-PP'
p696
g5
tp697
a(S'to'
p698
S'to'
p699
S'TO'
p700
S'B-PP'
p701
g5
tp702
a(S'3.81'
p703
S'3.81'
p704
S'CD'
p705
S'B-NP'
p706
g5
tp707
a(S'+/-'
p708
S'+/-'
p709
S'SYM'
p710
S'I-NP'
p711
g5
tp712
a(S'0.50'
p713
S'0.50'
p714
S'CD'
p715
S'I-NP'
p716
g5
tp717
a(S'mmol/L'
p718
S'mmol/L'
p719
S'NN'
p720
S'I-NP'
p721
g5
tp722
a(S'with'
p723
S'with'
p724
S'IN'
p725
S'B-PP'
p726
g5
tp727
a(S'the'
p728
S'the'
p729
S'DT'
p730
S'B-NP'
p731
g5
tp732
a(S'intensive'
p733
S'intensive'
p734
S'JJ'
p735
S'I-NP'
p736
g5
tp737
a(S'monotherapy.'
p738
S'monotherapy.'
p739
S'NN'
p740
S'I-NP'
p741
g5
tp742
a(S'Although'
p743
S'Although'
p744
S'IN'
p745
S'B-PP'
p746
g5
tp747
a(S'the'
p748
S'the'
p749
S'DT'
p750
S'B-NP'
p751
g5
tp752
a(g341
g341
S'CD'
p753
S'I-NP'
p754
g5
tp755
a(S'therapies'
p756
S'therapy'
p757
S'NNS'
p758
S'I-NP'
p759
g5
tp760
a(S'showed'
p761
S'show'
p762
S'VBD'
p763
S'B-VP'
p764
g5
tp765
a(S'comparable'
p766
S'comparable'
p767
S'JJ'
p768
S'B-NP'
p769
g5
tp770
a(S'mean'
p771
S'mean'
p772
S'JJ'
p773
S'I-NP'
p774
g5
tp775
a(S'effects'
p776
S'effect'
p777
S'NNS'
p778
S'I-NP'
p779
g5
tp780
a(S'for'
p781
S'for'
p782
S'IN'
p783
S'B-PP'
p784
g5
tp785
a(S'decreasing'
p786
S'decrease'
p787
S'VBG'
p788
S'B-VP'
p789
g5
tp790
a(S'LDL-C'
p791
S'LDL-C'
p792
S'NN'
p793
S'B-NP'
p794
S'B-protein'
p795
tp796
a(g122
g122
g122
g5
g5
tp797
a(S'similar'
p798
S'similar'
p799
S'JJ'
p800
S'B-NP'
p801
g5
tp802
a(S'adverse'
p803
S'adverse'
p804
S'JJ'
p805
S'I-NP'
p806
g5
tp807
a(S'reaction'
p808
S'reaction'
p809
S'NN'
p810
S'I-NP'
p811
g5
tp812
a(S'and'
p813
S'and'
p814
S'CC'
p815
S'I-NP'
p816
g5
tp817
a(S'cost'
p818
S'cost'
p819
S'NN'
p820
S'I-NP'
p821
g5
tp822
a(g122
g122
g122
g5
g5
tp823
a(S'each'
p824
S'each'
p825
S'DT'
p826
S'B-NP'
p827
g5
tp828
a(S'therapy'
p829
S'therapy'
p830
S'NN'
p831
S'I-NP'
p832
g5
tp833
a(S'was'
p834
S'be'
p835
S'VBD'
p836
S'B-VP'
p837
g5
tp838
a(S'predominantly'
p839
S'predominantly'
p840
S'RB'
p841
S'B-ADJP'
p842
g5
tp843
a(S'more'
p844
S'more'
p845
S'RBR'
p846
S'I-ADJP'
p847
g5
tp848
a(S'effective'
p849
S'effective'
p850
S'JJ'
p851
S'I-ADJP'
p852
g5
tp853
a(S'in'
p854
S'in'
p855
S'IN'
p856
S'B-PP'
p857
g5
tp858
a(S'some'
p859
S'some'
p860
S'DT'
p861
S'B-NP'
p862
g5
tp863
a(S'patients'
p864
S'patient'
p865
S'NNS'
p866
S'I-NP'
p867
g5
tp868
a(S'than'
p869
S'than'
p870
S'IN'
p871
S'B-PP'
p872
g5
tp873
a(S'in'
p874
S'in'
p875
S'IN'
p876
S'B-PP'
p877
g5
tp878
a(S'others.'
p879
S'others.'
p880
S'RB'
p881
S'B-NP'
p882
g5
tp883
a(S'The'
p884
S'The'
p885
S'DT'
p886
S'I-NP'
p887
g5
tp888
a(S'triglyceride'
p889
S'triglyceride'
p890
S'NN'
p891
S'I-NP'
p892
g5
tp893
a(S'and'
p894
S'and'
p895
S'CC'
p896
S'I-NP'
p897
g5
tp898
a(S'high-density'
p899
S'high-density'
p900
S'JJ'
p901
S'I-NP'
p902
g5
tp903
a(S'lipoprotein'
p904
S'lipoprotein'
p905
S'NN'
p906
S'I-NP'
p907
g5
tp908
a(S'cholesterol'
p909
S'cholesterol'
p910
S'NN'
p911
S'I-NP'
p912
g5
tp913
a(S'levels'
p914
S'level'
p915
S'NNS'
p916
S'I-NP'
p917
g5
tp918
a(S'were'
p919
S'be'
p920
S'VBD'
p921
S'B-VP'
p922
g5
tp923
a(S'similar'
p924
S'similar'
p925
S'JJ'
p926
S'B-ADJP'
p927
g5
tp928
a(S'in'
p929
S'in'
p930
S'IN'
p931
S'B-PP'
p932
g5
tp933
a(S'both'
p934
S'both'
p935
S'DT'
p936
S'B-NP'
p937
g5
tp938
a(S'therapies'
p939
S'therapy'
p940
S'NNS'
p941
S'I-NP'
p942
g5
tp943
a(g91
g91
g91
g5
g5
tp944
a(S'CONCLUSIONS'
p945
S'CONCLUSIONS'
p946
S'NNS'
p947
S'B-NP'
p948
g5
tp949
a(S'To'
p950
S'To'
p951
S'TO'
p952
S'B-VP'
p953
g5
tp954
a(S'achieve'
p955
S'achieve'
p956
S'VB'
p957
S'I-VP'
p958
g5
tp959
a(S'the'
p960
S'the'
p961
S'DT'
p962
S'B-NP'
p963
g5
tp964
a(S'therapeutic'
p965
S'therapeutic'
p966
S'JJ'
p967
S'I-NP'
p968
g5
tp969
a(S'target'
p970
S'target'
p971
S'NN'
p972
S'I-NP'
p973
g5
tp974
a(S'of'
p975
S'of'
p976
S'IN'
p977
S'B-PP'
p978
g5
tp979
a(S'LDL-C'
p980
S'LDL-C'
p981
S'NN'
p982
S'B-NP'
p983
S'B-protein'
p984
tp985
a(S'level'
p986
S'level'
p987
S'NN'
p988
S'I-NP'
p989
g5
tp990
a(S'for'
p991
S'for'
p992
S'IN'
p993
S'B-PP'
p994
g5
tp995
a(S'refractory'
p996
S'refractory'
p997
S'JJ'
p998
S'B-NP'
p999
g5
tp1000
a(S'FH'
p1001
S'FH'
p1002
S'NN'
p1003
S'I-NP'
p1004
g5
tp1005
a(g122
g122
g122
g5
g5
tp1006
a(S'the'
p1007
S'the'
p1008
S'DT'
p1009
S'B-NP'
p1010
g5
tp1011
a(S'LDL-C-lowering'
p1012
S'LDL-C-lowering'
p1013
S'NN'
p1014
S'I-NP'
p1015
g5
tp1016
a(S'therapy'
p1017
S'therapy'
p1018
S'NN'
p1019
S'I-NP'
p1020
g5
tp1021
a(S'selected'
p1022
S'select'
p1023
S'VBN'
p1024
S'B-VP'
p1025
g5
tp1026
a(S'can'
p1027
S'can'
p1028
S'MD'
p1029
S'B-VP'
p1030
g5
tp1031
a(S'be'
p1032
S'be'
p1033
S'VB'
p1034
S'I-VP'
p1035
g5
tp1036
a(S'either'
p1037
S'either'
p1038
S'CC'
p1039
g5
g5
tp1040
a(S'intensive'
p1041
S'intensive'
p1042
S'JJ'
p1043
S'B-NP'
p1044
g5
tp1045
a(S'monotherapy'
p1046
S'monotherapy'
p1047
S'NN'
p1048
S'I-NP'
p1049
g5
tp1050
a(S'or'
p1051
S'or'
p1052
S'CC'
p1053
g5
g5
tp1054
a(S'combined'
p1055
S'combine'
p1056
S'VBN'
p1057
S'B-NP'
p1058
g5
tp1059
a(S'therapy'
p1060
S'therapy'
p1061
S'NN'
p1062
S'I-NP'
p1063
g5
tp1064
a(S'as'
p1065
S'as'
p1066
S'IN'
p1067
S'B-PP'
p1068
g5
tp1069
a(S'the'
p1070
S'the'
p1071
S'DT'
p1072
S'B-NP'
p1073
g5
tp1074
a(S'next'
p1075
S'next'
p1076
S'JJ'
p1077
S'I-NP'
p1078
g5
tp1079
a(S'to'
p1080
S'to'
p1081
S'TO'
p1082
S'I-NP'
p1083
g5
tp1084
a(S'standard'
p1085
S'standard'
p1086
S'JJ'
p1087
S'I-NP'
p1088
g5
tp1089
a(S'statin'
p1090
S'statin'
p1091
S'NN'
p1092
S'I-NP'
p1093
g5
tp1094
a(S'therapy'
p1095
S'therapy'
p1096
S'NN'
p1097
S'I-NP'
p1098
g5
tp1099
a(g91
g91
g91
g5
g5
tp1100
a.