(lp0
(S'A'
p1
g1
S'DT'
p2
S'B-NP'
p3
S'O'
p4
tp5
a(S'Placebo-Controlled'
p6
S'Placebo-Controlled'
p7
S'JJ'
p8
S'I-NP'
p9
g4
tp10
a(S'Trial'
p11
S'Trial'
p12
S'NN'
p13
S'I-NP'
p14
g4
tp15
a(S'of'
p16
S'of'
p17
S'IN'
p18
S'B-PP'
p19
g4
tp20
a(S'Obeticholic'
p21
S'Obeticholic'
p22
S'JJ'
p23
S'B-NP'
p24
g4
tp25
a(S'Acid'
p26
S'Acid'
p27
S'NN'
p28
S'I-NP'
p29
g4
tp30
a(S'in'
p31
S'in'
p32
S'IN'
p33
S'B-PP'
p34
g4
tp35
a(S'Primary'
p36
S'Primary'
p37
S'JJ'
p38
S'B-NP'
p39
g4
tp40
a(S'Biliary'
p41
S'Biliary'
p42
S'JJ'
p43
S'I-NP'
p44
g4
tp45
a(S'Cholangitis'
p46
S'Cholangitis'
p47
S'NN'
p48
S'I-NP'
p49
g4
tp50
a(S'.'
p51
g51
g51
g4
g4
tp52
a(S'BACKGROUND'
p53
S'BACKGROUND'
p54
S'NN'
p55
S'B-NP'
p56
g4
tp57
a(S'Primary'
p58
S'Primary'
p59
S'JJ'
p60
S'I-NP'
p61
g4
tp62
a(S'biliary'
p63
S'biliary'
p64
S'JJ'
p65
S'I-NP'
p66
g4
tp67
a(S'cholangitis'
p68
S'cholangitis'
p69
S'NN'
p70
S'I-NP'
p71
g4
tp72
a(S'('
p73
g73
g73
g4
g4
tp74
a(S'formerly'
p75
S'formerly'
p76
S'RB'
p77
S'B-VP'
p78
g4
tp79
a(S'called'
p80
S'call'
p81
S'VBN'
p82
S'I-VP'
p83
g4
tp84
a(S'primary'
p85
S'primary'
p86
S'JJ'
p87
S'B-NP'
p88
g4
tp89
a(S'biliary'
p90
S'biliary'
p91
S'JJ'
p92
S'I-NP'
p93
g4
tp94
a(S'cirrhosis'
p95
S'cirrhosis'
p96
S'NN'
p97
S'I-NP'
p98
g4
tp99
a(S')'
p100
g100
g100
g4
g4
tp101
a(S'can'
p102
S'can'
p103
S'MD'
p104
S'B-VP'
p105
g4
tp106
a(S'progress'
p107
S'progress'
p108
S'VB'
p109
S'I-VP'
p110
g4
tp111
a(S'to'
p112
S'to'
p113
S'TO'
p114
S'B-PP'
p115
g4
tp116
a(S'cirrhosis'
p117
S'cirrhosis'
p118
S'NN'
p119
S'B-NP'
p120
g4
tp121
a(S'and'
p122
S'and'
p123
S'CC'
p124
S'I-NP'
p125
g4
tp126
a(S'death'
p127
S'death'
p128
S'NN'
p129
S'I-NP'
p130
S'B-protein'
p131
tp132
a(S'despite'
p133
S'despite'
p134
S'IN'
p135
S'B-PP'
p136
S'I-protein'
p137
tp138
a(S'ursodiol'
p139
S'ursodiol'
p140
S'NN'
p141
S'B-NP'
p142
S'I-protein'
p143
tp144
a(S'therapy.'
p145
S'therapy.'
p146
S'NN'
p147
S'I-NP'
p148
S'I-protein'
p149
tp150
a(S'Alkaline'
p151
S'Alkaline'
p152
S'NN'
p153
S'I-NP'
p154
S'I-protein'
p155
tp156
a(S'phosphatase'
p157
S'phosphatase'
p158
S'NN'
p159
S'I-NP'
p160
S'I-protein'
p161
tp162
a(S'and'
p163
S'and'
p164
S'CC'
p165
S'I-NP'
p166
g4
tp167
a(S'bilirubin'
p168
S'bilirubin'
p169
S'NN'
p170
S'I-NP'
p171
g4
tp172
a(S'levels'
p173
S'level'
p174
S'NNS'
p175
S'I-NP'
p176
g4
tp177
a(S'correlate'
p178
S'correlate'
p179
S'VBP'
p180
S'B-VP'
p181
g4
tp182
a(S'with'
p183
S'with'
p184
S'IN'
p185
S'B-PP'
p186
g4
tp187
a(S'the'
p188
S'the'
p189
S'DT'
p190
S'B-NP'
p191
g4
tp192
a(S'risk'
p193
S'risk'
p194
S'NN'
p195
S'I-NP'
p196
g4
tp197
a(S'of'
p198
S'of'
p199
S'IN'
p200
S'B-PP'
p201
g4
tp202
a(S'liver'
p203
S'liver'
p204
S'NN'
p205
S'B-NP'
p206
g4
tp207
a(S'transplantation'
p208
S'transplantation'
p209
S'NN'
p210
S'I-NP'
p211
g4
tp212
a(S'or'
p213
S'or'
p214
S'CC'
p215
g4
g4
tp216
a(S'death.'
p217
S'death.'
p218
S'NN'
p219
S'B-NP'
p220
g4
tp221
a(S'Obeticholic'
p222
S'Obeticholic'
p223
S'JJ'
p224
S'I-NP'
p225
g4
tp226
a(S'acid'
p227
S'acid'
p228
S'NN'
p229
S'I-NP'
p230
g4
tp231
a(S','
p232
g232
g232
g4
g4
tp233
a(S'a'
p234
g234
S'DT'
p235
S'B-NP'
p236
g4
tp237
a(S'farnesoid'
p238
S'farnesoid'
p239
S'JJ'
p240
S'I-NP'
p241
S'B-protein'
p242
tp243
a(S'X'
p244
g244
S'NN'
p245
S'I-NP'
p246
S'I-protein'
p247
tp248
a(S'receptor'
p249
S'receptor'
p250
S'NN'
p251
S'I-NP'
p252
S'I-protein'
p253
tp254
a(S'agonist'
p255
S'agonist'
p256
S'NN'
p257
S'I-NP'
p258
g4
tp259
a(g232
g232
g232
g4
g4
tp260
a(S'has'
p261
S'have'
p262
S'VBZ'
p263
S'B-VP'
p264
g4
tp265
a(S'shown'
p266
S'show'
p267
S'VBN'
p268
S'I-VP'
p269
g4
tp270
a(S'potential'
p271
S'potential'
p272
S'JJ'
p273
S'B-NP'
p274
g4
tp275
a(S'benefit'
p276
S'benefit'
p277
S'NN'
p278
S'I-NP'
p279
g4
tp280
a(S'in'
p281
S'in'
p282
S'IN'
p283
S'B-PP'
p284
g4
tp285
a(S'patients'
p286
S'patient'
p287
S'NNS'
p288
S'B-NP'
p289
g4
tp290
a(S'with'
p291
S'with'
p292
S'IN'
p293
S'B-PP'
p294
g4
tp295
a(S'this'
p296
S'this'
p297
S'DT'
p298
S'B-NP'
p299
g4
tp300
a(S'disease'
p301
S'disease'
p302
S'NN'
p303
S'I-NP'
p304
g4
tp305
a(g51
g51
g51
g4
g4
tp306
a(S'METHODS'
p307
S'METHODS'
p308
S'NNS'
p309
S'B-NP'
p310
g4
tp311
a(S'In'
p312
S'In'
p313
S'IN'
p314
S'B-PP'
p315
g4
tp316
a(S'this'
p317
S'this'
p318
S'DT'
p319
S'B-NP'
p320
g4
tp321
a(S'12-month'
p322
S'12-month'
p323
S'JJ'
p324
S'I-NP'
p325
g4
tp326
a(g232
g232
g232
S'I-NP'
p327
g4
tp328
a(S'double-blind'
p329
S'double-blind'
p330
S'JJ'
p331
S'I-NP'
p332
g4
tp333
a(g232
g232
g232
S'I-NP'
p334
g4
tp335
a(S'placebo-controlled'
p336
S'placebo-controlled'
p337
S'JJ'
p338
S'I-NP'
p339
g4
tp340
a(g232
g232
g232
S'I-NP'
p341
g4
tp342
a(S'phase'
p343
S'phase'
p344
S'NN'
p345
S'I-NP'
p346
g4
tp347
a(S'3'
p348
g348
S'CD'
p349
S'I-NP'
p350
g4
tp351
a(S'trial'
p352
S'trial'
p353
S'NN'
p354
S'I-NP'
p355
g4
tp356
a(g232
g232
g232
g4
g4
tp357
a(S'we'
p358
S'we'
p359
S'PRP'
p360
S'B-NP'
p361
g4
tp362
a(S'randomly'
p363
S'randomly'
p364
S'RB'
p365
S'B-ADVP'
p366
g4
tp367
a(S'assigned'
p368
S'assign'
p369
S'VBD'
p370
S'B-VP'
p371
g4
tp372
a(S'217'
p373
S'217'
p374
S'CD'
p375
S'B-NP'
p376
g4
tp377
a(S'patients'
p378
S'patient'
p379
S'NNS'
p380
S'I-NP'
p381
g4
tp382
a(S'who'
p383
S'who'
p384
S'WP'
p385
S'B-NP'
p386
g4
tp387
a(S'had'
p388
S'have'
p389
S'VBD'
p390
S'B-VP'
p391
g4
tp392
a(S'an'
p393
S'an'
p394
S'DT'
p395
S'B-NP'
p396
g4
tp397
a(S'inadequate'
p398
S'inadequate'
p399
S'JJ'
p400
S'I-NP'
p401
g4
tp402
a(S'response'
p403
S'response'
p404
S'NN'
p405
S'I-NP'
p406
g4
tp407
a(S'to'
p408
S'to'
p409
S'TO'
p410
S'B-PP'
p411
g4
tp412
a(S'ursodiol'
p413
S'ursodiol'
p414
S'NN'
p415
S'B-NP'
p416
g4
tp417
a(S'or'
p418
S'or'
p419
S'CC'
p420
g4
g4
tp421
a(S'who'
p422
S'who'
p423
S'WP'
p424
S'B-NP'
p425
g4
tp426
a(S'found'
p427
S'find'
p428
S'VBD'
p429
S'B-VP'
p430
g4
tp431
a(S'the'
p432
S'the'
p433
S'DT'
p434
S'B-NP'
p435
g4
tp436
a(S'side'
p437
S'side'
p438
S'NN'
p439
S'I-NP'
p440
g4
tp441
a(S'effects'
p442
S'effect'
p443
S'NNS'
p444
S'I-NP'
p445
g4
tp446
a(S'of'
p447
S'of'
p448
S'IN'
p449
S'B-PP'
p450
g4
tp451
a(S'ursodiol'
p452
S'ursodiol'
p453
S'NN'
p454
S'B-NP'
p455
g4
tp456
a(S'unacceptable'
p457
S'unacceptable'
p458
S'JJ'
p459
S'B-ADJP'
p460
g4
tp461
a(S'to'
p462
S'to'
p463
S'TO'
p464
S'B-VP'
p465
g4
tp466
a(S'receive'
p467
S'receive'
p468
S'VB'
p469
S'I-VP'
p470
g4
tp471
a(S'obeticholic'
p472
S'obeticholic'
p473
S'JJ'
p474
S'B-NP'
p475
g4
tp476
a(S'acid'
p477
S'acid'
p478
S'NN'
p479
S'I-NP'
p480
g4
tp481
a(S'at'
p482
S'at'
p483
S'IN'
p484
S'B-PP'
p485
g4
tp486
a(g234
g234
S'DT'
p487
S'B-NP'
p488
g4
tp489
a(S'dose'
p490
S'dose'
p491
S'NN'
p492
S'I-NP'
p493
g4
tp494
a(S'of'
p495
S'of'
p496
S'IN'
p497
S'B-PP'
p498
g4
tp499
a(S'10'
p500
S'10'
p501
S'CD'
p502
S'B-NP'
p503
g4
tp504
a(S'mg'
p505
S'mg'
p506
S'NN'
p507
S'I-NP'
p508
g4
tp509
a(g73
g73
g73
g4
g4
tp510
a(S'the'
p511
S'the'
p512
S'DT'
p513
S'B-NP'
p514
g4
tp515
a(S'10-mg'
p516
S'10-mg'
p517
S'JJ'
p518
S'I-NP'
p519
g4
tp520
a(S'group'
p521
S'group'
p522
S'NN'
p523
S'I-NP'
p524
g4
tp525
a(g100
g100
g100
g4
g4
tp526
a(g232
g232
g232
g4
g4
tp527
a(S'obeticholic'
p528
S'obeticholic'
p529
S'JJ'
p530
S'B-NP'
p531
g4
tp532
a(S'acid'
p533
S'acid'
p534
S'NN'
p535
S'I-NP'
p536
g4
tp537
a(S'at'
p538
S'at'
p539
S'IN'
p540
S'B-PP'
p541
g4
tp542
a(g234
g234
S'DT'
p543
S'B-NP'
p544
g4
tp545
a(S'dose'
p546
S'dose'
p547
S'NN'
p548
S'I-NP'
p549
g4
tp550
a(S'of'
p551
S'of'
p552
S'IN'
p553
S'B-PP'
p554
g4
tp555
a(S'5'
p556
g556
S'CD'
p557
S'B-NP'
p558
g4
tp559
a(S'mg'
p560
S'mg'
p561
S'NN'
p562
S'I-NP'
p563
g4
tp564
a(S'with'
p565
S'with'
p566
S'IN'
p567
S'B-PP'
p568
g4
tp569
a(S'adjustment'
p570
S'adjustment'
p571
S'NN'
p572
S'B-NP'
p573
g4
tp574
a(S'to'
p575
S'to'
p576
S'TO'
p577
S'B-PP'
p578
g4
tp579
a(S'10'
p580
S'10'
p581
S'CD'
p582
S'B-NP'
p583
g4
tp584
a(S'mg'
p585
S'mg'
p586
S'NN'
p587
S'I-NP'
p588
g4
tp589
a(S'if'
p590
S'if'
p591
S'IN'
p592
S'B-SBAR'
p593
g4
tp594
a(S'applicable'
p595
S'applicable'
p596
S'JJ'
p597
S'B-ADJP'
p598
g4
tp599
a(g73
g73
g73
g4
g4
tp600
a(S'the'
p601
S'the'
p602
S'DT'
p603
S'B-NP'
p604
g4
tp605
a(S'5-10-mg'
p606
S'5-10-mg'
p607
S'NN'
p608
S'I-NP'
p609
g4
tp610
a(S'group'
p611
S'group'
p612
S'NN'
p613
S'I-NP'
p614
g4
tp615
a(g100
g100
g100
g4
g4
tp616
a(g232
g232
g232
g4
g4
tp617
a(S'or'
p618
S'or'
p619
S'CC'
p620
g4
g4
tp621
a(S'placebo.'
p622
S'placebo.'
p623
S'NN'
p624
S'B-NP'
p625
g4
tp626
a(S'The'
p627
S'The'
p628
S'DT'
p629
S'B-NP'
p630
g4
tp631
a(S'primary'
p632
S'primary'
p633
S'JJ'
p634
S'I-NP'
p635
g4
tp636
a(S'end'
p637
S'end'
p638
S'NN'
p639
S'I-NP'
p640
g4
tp641
a(S'point'
p642
S'point'
p643
S'NN'
p644
S'I-NP'
p645
g4
tp646
a(S'was'
p647
S'be'
p648
S'VBD'
p649
S'B-VP'
p650
g4
tp651
a(S'an'
p652
S'an'
p653
S'DT'
p654
S'B-NP'
p655
g4
tp656
a(S'alkaline'
p657
S'alkaline'
p658
S'NN'
p659
S'I-NP'
p660
S'B-protein'
p661
tp662
a(S'phosphatase'
p663
S'phosphatase'
p664
S'NN'
p665
S'I-NP'
p666
S'I-protein'
p667
tp668
a(S'level'
p669
S'level'
p670
S'NN'
p671
S'I-NP'
p672
g4
tp673
a(S'of'
p674
S'of'
p675
S'IN'
p676
S'B-PP'
p677
g4
tp678
a(S'less'
p679
S'less'
p680
S'JJR'
p681
S'B-NP'
p682
g4
tp683
a(S'than'
p684
S'than'
p685
S'IN'
p686
S'I-NP'
p687
g4
tp688
a(S'1.67'
p689
S'1.67'
p690
S'CD'
p691
S'I-NP'
p692
g4
tp693
a(S'times'
p694
S'time'
p695
S'NNS'
p696
S'I-NP'
p697
g4
tp698
a(S'the'
p699
S'the'
p700
S'DT'
p701
S'I-NP'
p702
g4
tp703
a(S'upper'
p704
S'upper'
p705
S'JJ'
p706
S'I-NP'
p707
g4
tp708
a(S'limit'
p709
S'limit'
p710
S'NN'
p711
S'I-NP'
p712
g4
tp713
a(S'of'
p714
S'of'
p715
S'IN'
p716
S'B-PP'
p717
g4
tp718
a(S'the'
p719
S'the'
p720
S'DT'
p721
S'B-NP'
p722
g4
tp723
a(S'normal'
p724
S'normal'
p725
S'JJ'
p726
S'I-NP'
p727
g4
tp728
a(S'range'
p729
S'range'
p730
S'NN'
p731
S'I-NP'
p732
g4
tp733
a(g232
g232
g232
g4
g4
tp734
a(S'with'
p735
S'with'
p736
S'IN'
p737
S'B-PP'
p738
g4
tp739
a(g234
g234
S'DT'
p740
S'B-NP'
p741
g4
tp742
a(S'reduction'
p743
S'reduction'
p744
S'NN'
p745
S'I-NP'
p746
g4
tp747
a(S'of'
p748
S'of'
p749
S'IN'
p750
S'B-PP'
p751
g4
tp752
a(S'at'
p753
S'at'
p754
S'IN'
p755
S'B-NP'
p756
g4
tp757
a(S'least'
p758
S'least'
p759
S'JJS'
p760
S'I-NP'
p761
g4
tp762
a(S'15'
p763
S'15'
p764
S'CD'
p765
S'I-NP'
p766
g4
tp767
a(S'%'
p768
g768
S'NN'
p769
S'I-NP'
p770
g4
tp771
a(S'from'
p772
S'from'
p773
S'IN'
p774
S'B-PP'
p775
g4
tp776
a(S'baseline'
p777
S'baseline'
p778
S'NN'
p779
S'B-NP'
p780
g4
tp781
a(g232
g232
g232
g4
g4
tp782
a(S'and'
p783
S'and'
p784
S'CC'
p785
g4
g4
tp786
a(g234
g234
S'DT'
p787
S'B-NP'
p788
g4
tp789
a(S'normal'
p790
S'normal'
p791
S'JJ'
p792
S'I-NP'
p793
g4
tp794
a(S'total'
p795
S'total'
p796
S'JJ'
p797
S'I-NP'
p798
g4
tp799
a(S'bilirubin'
p800
S'bilirubin'
p801
S'NN'
p802
S'I-NP'
p803
g4
tp804
a(S'level'
p805
S'level'
p806
S'NN'
p807
S'I-NP'
p808
g4
tp809
a(g51
g51
g51
g4
g4
tp810
a(S'RESULTS'
p811
S'RESULTS'
p812
S'NNS'
p813
S'B-NP'
p814
g4
tp815
a(S'Of'
p816
S'Of'
p817
S'IN'
p818
S'B-PP'
p819
g4
tp820
a(S'216'
p821
S'216'
p822
S'CD'
p823
S'B-NP'
p824
g4
tp825
a(S'patients'
p826
S'patient'
p827
S'NNS'
p828
S'I-NP'
p829
g4
tp830
a(S'who'
p831
S'who'
p832
S'WP'
p833
S'B-NP'
p834
g4
tp835
a(S'underwent'
p836
S'undergo'
p837
S'VBD'
p838
S'B-VP'
p839
g4
tp840
a(S'randomization'
p841
S'randomization'
p842
S'NN'
p843
S'B-NP'
p844
g4
tp845
a(S'and'
p846
S'and'
p847
S'CC'
p848
g4
g4
tp849
a(S'received'
p850
S'receive'
p851
S'VBD'
p852
S'B-VP'
p853
g4
tp854
a(S'at'
p855
S'at'
p856
S'IN'
p857
S'B-NP'
p858
g4
tp859
a(S'least'
p860
S'least'
p861
S'JJS'
p862
S'I-NP'
p863
g4
tp864
a(S'one'
p865
S'one'
p866
S'CD'
p867
S'I-NP'
p868
g4
tp869
a(S'dose'
p870
S'dose'
p871
S'NN'
p872
S'I-NP'
p873
g4
tp874
a(S'of'
p875
S'of'
p876
S'IN'
p877
S'B-PP'
p878
g4
tp879
a(S'obeticholic'
p880
S'obeticholic'
p881
S'JJ'
p882
S'B-NP'
p883
g4
tp884
a(S'acid'
p885
S'acid'
p886
S'NN'
p887
S'I-NP'
p888
g4
tp889
a(S'or'
p890
S'or'
p891
S'CC'
p892
S'I-NP'
p893
g4
tp894
a(S'placebo'
p895
S'placebo'
p896
S'NN'
p897
S'I-NP'
p898
g4
tp899
a(g232
g232
g232
g4
g4
tp900
a(S'93'
p901
S'93'
p902
S'CD'
p903
S'B-NP'
p904
g4
tp905
a(g768
g768
S'NN'
p906
S'I-NP'
p907
g4
tp908
a(S'received'
p909
S'receive'
p910
S'VBD'
p911
S'B-VP'
p912
g4
tp913
a(S'ursodiol'
p914
S'ursodiol'
p915
S'NN'
p916
S'B-NP'
p917
g4
tp918
a(S'as'
p919
S'as'
p920
S'IN'
p921
S'B-PP'
p922
g4
tp923
a(S'background'
p924
S'background'
p925
S'NN'
p926
S'B-NP'
p927
g4
tp928
a(S'therapy.'
p929
S'therapy.'
p930
S'RB'
p931
S'B-ADVP'
p932
g4
tp933
a(S'The'
p934
S'The'
p935
S'DT'
p936
S'B-NP'
p937
g4
tp938
a(S'primary'
p939
S'primary'
p940
S'JJ'
p941
S'I-NP'
p942
g4
tp943
a(S'end'
p944
S'end'
p945
S'NN'
p946
S'I-NP'
p947
g4
tp948
a(S'point'
p949
S'point'
p950
S'NN'
p951
S'I-NP'
p952
g4
tp953
a(S'occurred'
p954
S'occur'
p955
S'VBD'
p956
S'B-VP'
p957
g4
tp958
a(S'in'
p959
S'in'
p960
S'IN'
p961
S'B-PP'
p962
g4
tp963
a(S'more'
p964
S'more'
p965
S'JJR'
p966
S'B-NP'
p967
g4
tp968
a(S'patients'
p969
S'patient'
p970
S'NNS'
p971
S'I-NP'
p972
g4
tp973
a(S'in'
p974
S'in'
p975
S'IN'
p976
S'B-PP'
p977
g4
tp978
a(S'the'
p979
S'the'
p980
S'DT'
p981
S'B-NP'
p982
g4
tp983
a(S'5-10-mg'
p984
S'5-10-mg'
p985
S'JJ'
p986
S'I-NP'
p987
g4
tp988
a(S'group'
p989
S'group'
p990
S'NN'
p991
S'I-NP'
p992
g4
tp993
a(g73
g73
g73
g4
g4
tp994
a(S'46'
p995
S'46'
p996
S'CD'
p997
S'B-NP'
p998
g4
tp999
a(g768
g768
S'NN'
p1000
S'I-NP'
p1001
g4
tp1002
a(g100
g100
g100
g4
g4
tp1003
a(S'and'
p1004
S'and'
p1005
S'CC'
p1006
g4
g4
tp1007
a(S'the'
p1008
S'the'
p1009
S'DT'
p1010
S'B-NP'
p1011
g4
tp1012
a(S'10-mg'
p1013
S'10-mg'
p1014
S'JJ'
p1015
S'I-NP'
p1016
g4
tp1017
a(S'group'
p1018
S'group'
p1019
S'NN'
p1020
S'I-NP'
p1021
g4
tp1022
a(g73
g73
g73
g4
g4
tp1023
a(S'47'
p1024
S'47'
p1025
S'CD'
p1026
S'B-NP'
p1027
g4
tp1028
a(g768
g768
S'NN'
p1029
S'I-NP'
p1030
g4
tp1031
a(g100
g100
g100
g4
g4
tp1032
a(S'than'
p1033
S'than'
p1034
S'IN'
p1035
S'B-PP'
p1036
g4
tp1037
a(S'in'
p1038
S'in'
p1039
S'IN'
p1040
S'B-PP'
p1041
g4
tp1042
a(S'the'
p1043
S'the'
p1044
S'DT'
p1045
S'B-NP'
p1046
g4
tp1047
a(S'placebo'
p1048
S'placebo'
p1049
S'NN'
p1050
S'I-NP'
p1051
g4
tp1052
a(S'group'
p1053
S'group'
p1054
S'NN'
p1055
S'I-NP'
p1056
g4
tp1057
a(g73
g73
g73
g4
g4
tp1058
a(S'10'
p1059
S'10'
p1060
S'CD'
p1061
S'B-NP'
p1062
g4
tp1063
a(g768
g768
S'NN'
p1064
S'I-NP'
p1065
g4
tp1066
a(S';'
p1067
g1067
S':'
p1068
g4
g4
tp1069
a(S'P'
p1070
g1070
S'NN'
p1071
S'B-NP'
p1072
g4
tp1073
a(S'<'
p1074
g1074
S'SYM'
p1075
S'B-VP'
p1076
g4
tp1077
a(S'0.001'
p1078
S'0.001'
p1079
S'CD'
p1080
S'B-NP'
p1081
g4
tp1082
a(S'for'
p1083
S'for'
p1084
S'IN'
p1085
S'B-PP'
p1086
g4
tp1087
a(S'both'
p1088
S'both'
p1089
S'DT'
p1090
S'B-NP'
p1091
g4
tp1092
a(S'comparisons'
p1093
S'comparison'
p1094
S'NNS'
p1095
S'I-NP'
p1096
g4
tp1097
a(g100
g100
g100
g4
g4
tp1098
a(g51
g51
g51
g4
g4
tp1099
a(S'Patients'
p1100
S'Patient'
p1101
S'NNPS'
p1102
S'B-NP'
p1103
g4
tp1104
a(S'in'
p1105
S'in'
p1106
S'IN'
p1107
S'B-PP'
p1108
g4
tp1109
a(S'the'
p1110
S'the'
p1111
S'DT'
p1112
S'B-NP'
p1113
g4
tp1114
a(S'5-10-mg'
p1115
S'5-10-mg'
p1116
S'JJ'
p1117
S'I-NP'
p1118
g4
tp1119
a(S'group'
p1120
S'group'
p1121
S'NN'
p1122
S'I-NP'
p1123
g4
tp1124
a(S'and'
p1125
S'and'
p1126
S'CC'
p1127
g4
g4
tp1128
a(S'those'
p1129
S'those'
p1130
S'DT'
p1131
S'B-NP'
p1132
g4
tp1133
a(S'in'
p1134
S'in'
p1135
S'IN'
p1136
S'B-PP'
p1137
g4
tp1138
a(S'the'
p1139
S'the'
p1140
S'DT'
p1141
S'B-NP'
p1142
g4
tp1143
a(S'10-mg'
p1144
S'10-mg'
p1145
S'JJ'
p1146
S'I-NP'
p1147
g4
tp1148
a(S'group'
p1149
S'group'
p1150
S'NN'
p1151
S'I-NP'
p1152
g4
tp1153
a(S'had'
p1154
S'have'
p1155
S'VBD'
p1156
S'B-VP'
p1157
g4
tp1158
a(S'greater'
p1159
S'great'
p1160
S'JJR'
p1161
S'B-NP'
p1162
g4
tp1163
a(S'decreases'
p1164
S'decrease'
p1165
S'NNS'
p1166
S'I-NP'
p1167
g4
tp1168
a(S'than'
p1169
S'than'
p1170
S'IN'
p1171
S'B-PP'
p1172
g4
tp1173
a(S'those'
p1174
S'those'
p1175
S'DT'
p1176
S'B-NP'
p1177
g4
tp1178
a(S'in'
p1179
S'in'
p1180
S'IN'
p1181
S'B-PP'
p1182
g4
tp1183
a(S'the'
p1184
S'the'
p1185
S'DT'
p1186
S'B-NP'
p1187
g4
tp1188
a(S'placebo'
p1189
S'placebo'
p1190
S'NN'
p1191
S'I-NP'
p1192
g4
tp1193
a(S'group'
p1194
S'group'
p1195
S'NN'
p1196
S'I-NP'
p1197
g4
tp1198
a(S'in'
p1199
S'in'
p1200
S'IN'
p1201
S'B-PP'
p1202
g4
tp1203
a(S'the'
p1204
S'the'
p1205
S'DT'
p1206
S'B-NP'
p1207
g4
tp1208
a(S'alkaline'
p1209
S'alkaline'
p1210
S'NN'
p1211
S'I-NP'
p1212
S'B-protein'
p1213
tp1214
a(S'phosphatase'
p1215
S'phosphatase'
p1216
S'NN'
p1217
S'I-NP'
p1218
S'I-protein'
p1219
tp1220
a(S'level'
p1221
S'level'
p1222
S'NN'
p1223
S'I-NP'
p1224
g4
tp1225
a(g73
g73
g73
g4
g4
tp1226
a(S'least-squares'
p1227
S'least-square'
p1228
S'NNS'
p1229
S'B-NP'
p1230
g4
tp1231
a(S'mean'
p1232
S'mean'
p1233
S'NN'
p1234
S'I-NP'
p1235
g4
tp1236
a(g232
g232
g232
g4
g4
tp1237
a(S'-113'
p1238
S'-113'
p1239
S'CD'
p1240
S'B-NP'
p1241
g4
tp1242
a(S'and'
p1243
S'and'
p1244
S'CC'
p1245
S'I-NP'
p1246
g4
tp1247
a(S'-130'
p1248
S'-130'
p1249
S'CD'
p1250
S'I-NP'
p1251
g4
tp1252
a(S'U'
p1253
g1253
S'NN'
p1254
S'I-NP'
p1255
g4
tp1256
a(S'per'
p1257
S'per'
p1258
S'IN'
p1259
S'B-PP'
p1260
g4
tp1261
a(S'liter'
p1262
S'liter'
p1263
S'NN'
p1264
S'B-NP'
p1265
g4
tp1266
a(g232
g232
g232
g4
g4
tp1267
a(S'respectively'
p1268
S'respectively'
p1269
S'RB'
p1270
S'B-ADVP'
p1271
g4
tp1272
a(g232
g232
g232
g4
g4
tp1273
a(S'vs.'
p1274
S'vs.'
p1275
S'IN'
p1276
S'B-PP'
p1277
g4
tp1278
a(S'-14'
p1279
S'-14'
p1280
S'CD'
p1281
S'B-NP'
p1282
g4
tp1283
a(g1253
g1253
S'NN'
p1284
S'I-NP'
p1285
g4
tp1286
a(S'per'
p1287
S'per'
p1288
S'IN'
p1289
S'B-PP'
p1290
g4
tp1291
a(S'liter'
p1292
S'liter'
p1293
S'NN'
p1294
S'B-NP'
p1295
g4
tp1296
a(g1067
g1067
g1068
g4
g4
tp1297
a(g1070
g1070
S'NN'
p1298
S'B-NP'
p1299
g4
tp1300
a(g1074
g1074
S'SYM'
p1301
S'B-VP'
p1302
g4
tp1303
a(S'0.001'
p1304
S'0.001'
p1305
S'CD'
p1306
S'B-NP'
p1307
g4
tp1308
a(S'for'
p1309
S'for'
p1310
S'IN'
p1311
S'B-PP'
p1312
g4
tp1313
a(S'both'
p1314
S'both'
p1315
S'DT'
p1316
S'B-NP'
p1317
g4
tp1318
a(S'comparisons'
p1319
S'comparison'
p1320
S'NNS'
p1321
S'I-NP'
p1322
g4
tp1323
a(g100
g100
g100
g4
g4
tp1324
a(S'and'
p1325
S'and'
p1326
S'CC'
p1327
g4
g4
tp1328
a(S'total'
p1329
S'total'
p1330
S'JJ'
p1331
S'B-NP'
p1332
g4
tp1333
a(S'bilirubin'
p1334
S'bilirubin'
p1335
S'NN'
p1336
S'I-NP'
p1337
g4
tp1338
a(S'level'
p1339
S'level'
p1340
S'NN'
p1341
S'I-NP'
p1342
g4
tp1343
a(g73
g73
g73
g4
g4
tp1344
a(S'-0.02'
p1345
S'-0.02'
p1346
S'CD'
p1347
S'B-NP'
p1348
g4
tp1349
a(S'and'
p1350
S'and'
p1351
S'CC'
p1352
S'I-NP'
p1353
g4
tp1354
a(S'-0.05'
p1355
S'-0.05'
p1356
S'CD'
p1357
S'I-NP'
p1358
g4
tp1359
a(S'mg'
p1360
S'mg'
p1361
S'NN'
p1362
S'I-NP'
p1363
g4
tp1364
a(S'per'
p1365
S'per'
p1366
S'IN'
p1367
S'B-PP'
p1368
g4
tp1369
a(S'deciliter'
p1370
S'deciliter'
p1371
S'NN'
p1372
S'B-NP'
p1373
g4
tp1374
a(S'['
p1375
g1375
g73
g4
g4
tp1376
a(S'-0.3'
p1377
S'-0.3'
p1378
S'CD'
p1379
S'B-NP'
p1380
g4
tp1381
a(S'and'
p1382
S'and'
p1383
S'CC'
p1384
S'I-NP'
p1385
g4
tp1386
a(S'-0.9'
p1387
S'-0.9'
p1388
S'CD'
p1389
S'I-NP'
p1390
g4
tp1391
a(S'\xce\xbcmol'
p1392
S'\xce\xbcmol'
p1393
S'NN'
p1394
S'I-NP'
p1395
g4
tp1396
a(S'per'
p1397
S'per'
p1398
S'IN'
p1399
S'B-PP'
p1400
g4
tp1401
a(S'liter'
p1402
S'liter'
p1403
S'NN'
p1404
S'B-NP'
p1405
g4
tp1406
a(S']'
p1407
g1407
g100
g4
g4
tp1408
a(g232
g232
g232
g4
g4
tp1409
a(S'respectively'
p1410
S'respectively'
p1411
S'RB'
p1412
S'B-ADVP'
p1413
g4
tp1414
a(g232
g232
g232
g4
g4
tp1415
a(S'vs.'
p1416
S'vs.'
p1417
S'IN'
p1418
S'B-PP'
p1419
g4
tp1420
a(S'0.12'
p1421
S'0.12'
p1422
S'CD'
p1423
S'B-NP'
p1424
g4
tp1425
a(S'mg'
p1426
S'mg'
p1427
S'NN'
p1428
S'I-NP'
p1429
g4
tp1430
a(S'per'
p1431
S'per'
p1432
S'IN'
p1433
S'B-PP'
p1434
g4
tp1435
a(S'deciliter'
p1436
S'deciliter'
p1437
S'NN'
p1438
S'B-NP'
p1439
g4
tp1440
a(g1375
g1375
g73
g4
g4
tp1441
a(S'2.0'
p1442
S'2.0'
p1443
S'CD'
p1444
S'B-NP'
p1445
g4
tp1446
a(S'\xce\xbcmol'
p1447
S'\xce\xbcmol'
p1448
S'NN'
p1449
S'I-NP'
p1450
g4
tp1451
a(S'per'
p1452
S'per'
p1453
S'IN'
p1454
S'B-PP'
p1455
g4
tp1456
a(S'liter'
p1457
S'liter'
p1458
S'NN'
p1459
S'B-NP'
p1460
g4
tp1461
a(g1407
g1407
g100
g4
g4
tp1462
a(g1067
g1067
g1068
g4
g4
tp1463
a(g1070
g1070
S'NN'
p1464
S'B-NP'
p1465
g4
tp1466
a(g1074
g1074
S'SYM'
p1467
S'B-VP'
p1468
g4
tp1469
a(S'0.001'
p1470
S'0.001'
p1471
S'CD'
p1472
S'B-NP'
p1473
g4
tp1474
a(S'for'
p1475
S'for'
p1476
S'IN'
p1477
S'B-PP'
p1478
g4
tp1479
a(S'both'
p1480
S'both'
p1481
S'DT'
p1482
S'B-NP'
p1483
g4
tp1484
a(S'comparisons'
p1485
S'comparison'
p1486
S'NNS'
p1487
S'I-NP'
p1488
g4
tp1489
a(g100
g100
g100
g4
g4
tp1490
a(g51
g51
g51
g4
g4
tp1491
a(S'Changes'
p1492
S'Change'
p1493
S'NNS'
p1494
S'B-NP'
p1495
g4
tp1496
a(S'in'
p1497
S'in'
p1498
S'IN'
p1499
S'B-PP'
p1500
g4
tp1501
a(S'noninvasive'
p1502
S'noninvasive'
p1503
S'JJ'
p1504
S'B-NP'
p1505
g4
tp1506
a(S'measures'
p1507
S'measure'
p1508
S'NNS'
p1509
S'I-NP'
p1510
g4
tp1511
a(S'of'
p1512
S'of'
p1513
S'IN'
p1514
S'B-PP'
p1515
g4
tp1516
a(S'liver'
p1517
S'liver'
p1518
S'NN'
p1519
S'B-NP'
p1520
g4
tp1521
a(S'fibrosis'
p1522
S'fibrosis'
p1523
S'NN'
p1524
S'I-NP'
p1525
g4
tp1526
a(S'did'
p1527
S'do'
p1528
S'VBD'
p1529
S'B-VP'
p1530
g4
tp1531
a(S'not'
p1532
S'not'
p1533
S'RB'
p1534
S'I-VP'
p1535
g4
tp1536
a(S'differ'
p1537
S'differ'
p1538
S'VB'
p1539
S'I-VP'
p1540
g4
tp1541
a(S'significantly'
p1542
S'significantly'
p1543
S'RB'
p1544
S'B-ADVP'
p1545
g4
tp1546
a(S'between'
p1547
S'between'
p1548
S'IN'
p1549
S'B-PP'
p1550
g4
tp1551
a(S'either'
p1552
S'either'
p1553
S'CC'
p1554
g4
g4
tp1555
a(S'treatment'
p1556
S'treatment'
p1557
S'NN'
p1558
S'B-NP'
p1559
g4
tp1560
a(S'group'
p1561
S'group'
p1562
S'NN'
p1563
S'I-NP'
p1564
g4
tp1565
a(S'and'
p1566
S'and'
p1567
S'CC'
p1568
g4
g4
tp1569
a(S'the'
p1570
S'the'
p1571
S'DT'
p1572
S'B-NP'
p1573
g4
tp1574
a(S'placebo'
p1575
S'placebo'
p1576
S'NN'
p1577
S'I-NP'
p1578
g4
tp1579
a(S'group'
p1580
S'group'
p1581
S'NN'
p1582
S'I-NP'
p1583
g4
tp1584
a(S'at'
p1585
S'at'
p1586
S'IN'
p1587
S'B-PP'
p1588
g4
tp1589
a(S'12'
p1590
S'12'
p1591
S'CD'
p1592
S'B-NP'
p1593
g4
tp1594
a(S'months.'
p1595
S'months.'
p1596
S'NNS'
p1597
S'I-NP'
p1598
g4
tp1599
a(S'Pruritus'
p1600
S'Pruritus'
p1601
S'NNP'
p1602
S'B-NP'
p1603
g4
tp1604
a(S'was'
p1605
S'be'
p1606
S'VBD'
p1607
S'B-VP'
p1608
g4
tp1609
a(S'more'
p1610
S'more'
p1611
S'RBR'
p1612
S'B-ADJP'
p1613
g4
tp1614
a(S'common'
p1615
S'common'
p1616
S'JJ'
p1617
S'I-ADJP'
p1618
g4
tp1619
a(S'with'
p1620
S'with'
p1621
S'IN'
p1622
S'B-PP'
p1623
g4
tp1624
a(S'obeticholic'
p1625
S'obeticholic'
p1626
S'JJ'
p1627
S'B-NP'
p1628
g4
tp1629
a(S'acid'
p1630
S'acid'
p1631
S'NN'
p1632
S'I-NP'
p1633
g4
tp1634
a(S'than'
p1635
S'than'
p1636
S'IN'
p1637
S'B-PP'
p1638
g4
tp1639
a(S'with'
p1640
S'with'
p1641
S'IN'
p1642
S'B-PP'
p1643
g4
tp1644
a(S'placebo'
p1645
S'placebo'
p1646
S'NN'
p1647
S'B-NP'
p1648
g4
tp1649
a(g73
g73
g73
g4
g4
tp1650
a(S'56'
p1651
S'56'
p1652
S'CD'
p1653
S'B-NP'
p1654
g4
tp1655
a(g768
g768
S'NN'
p1656
S'I-NP'
p1657
g4
tp1658
a(S'of'
p1659
S'of'
p1660
S'IN'
p1661
S'B-PP'
p1662
g4
tp1663
a(S'patients'
p1664
S'patient'
p1665
S'NNS'
p1666
S'B-NP'
p1667
g4
tp1668
a(S'in'
p1669
S'in'
p1670
S'IN'
p1671
S'B-PP'
p1672
g4
tp1673
a(S'the'
p1674
S'the'
p1675
S'DT'
p1676
S'B-NP'
p1677
g4
tp1678
a(S'5-10-mg'
p1679
S'5-10-mg'
p1680
S'JJ'
p1681
S'I-NP'
p1682
g4
tp1683
a(S'group'
p1684
S'group'
p1685
S'NN'
p1686
S'I-NP'
p1687
g4
tp1688
a(S'and'
p1689
S'and'
p1690
S'CC'
p1691
g4
g4
tp1692
a(S'68'
p1693
S'68'
p1694
S'CD'
p1695
S'B-NP'
p1696
g4
tp1697
a(g768
g768
S'NN'
p1698
S'I-NP'
p1699
g4
tp1700
a(S'of'
p1701
S'of'
p1702
S'IN'
p1703
S'B-PP'
p1704
g4
tp1705
a(S'those'
p1706
S'those'
p1707
S'DT'
p1708
S'B-NP'
p1709
g4
tp1710
a(S'in'
p1711
S'in'
p1712
S'IN'
p1713
S'B-PP'
p1714
g4
tp1715
a(S'the'
p1716
S'the'
p1717
S'DT'
p1718
S'B-NP'
p1719
g4
tp1720
a(S'10-mg'
p1721
S'10-mg'
p1722
S'JJ'
p1723
S'I-NP'
p1724
g4
tp1725
a(S'group'
p1726
S'group'
p1727
S'NN'
p1728
S'I-NP'
p1729
g4
tp1730
a(S'vs.'
p1731
S'vs.'
p1732
S'IN'
p1733
S'B-PP'
p1734
g4
tp1735
a(S'38'
p1736
S'38'
p1737
S'CD'
p1738
S'B-NP'
p1739
g4
tp1740
a(g768
g768
S'NN'
p1741
S'I-NP'
p1742
g4
tp1743
a(S'in'
p1744
S'in'
p1745
S'IN'
p1746
S'B-PP'
p1747
g4
tp1748
a(S'the'
p1749
S'the'
p1750
S'DT'
p1751
S'B-NP'
p1752
g4
tp1753
a(S'placebo'
p1754
S'placebo'
p1755
S'NN'
p1756
S'I-NP'
p1757
g4
tp1758
a(S'group'
p1759
S'group'
p1760
S'NN'
p1761
S'I-NP'
p1762
g4
tp1763
a(g100
g100
g100
g4
g4
tp1764
a(g51
g51
g51
g4
g4
tp1765
a(S'The'
p1766
S'The'
p1767
S'DT'
p1768
S'B-NP'
p1769
g4
tp1770
a(S'rate'
p1771
S'rate'
p1772
S'NN'
p1773
S'I-NP'
p1774
g4
tp1775
a(S'of'
p1776
S'of'
p1777
S'IN'
p1778
S'B-PP'
p1779
g4
tp1780
a(S'serious'
p1781
S'serious'
p1782
S'JJ'
p1783
S'B-NP'
p1784
g4
tp1785
a(S'adverse'
p1786
S'adverse'
p1787
S'JJ'
p1788
S'I-NP'
p1789
g4
tp1790
a(S'events'
p1791
S'event'
p1792
S'NNS'
p1793
S'I-NP'
p1794
g4
tp1795
a(S'was'
p1796
S'be'
p1797
S'VBD'
p1798
S'B-VP'
p1799
g4
tp1800
a(S'16'
p1801
S'16'
p1802
S'CD'
p1803
S'B-NP'
p1804
g4
tp1805
a(g768
g768
S'NN'
p1806
S'I-NP'
p1807
g4
tp1808
a(S'in'
p1809
S'in'
p1810
S'IN'
p1811
S'B-PP'
p1812
g4
tp1813
a(S'the'
p1814
S'the'
p1815
S'DT'
p1816
S'B-NP'
p1817
g4
tp1818
a(S'5-10-mg'
p1819
S'5-10-mg'
p1820
S'JJ'
p1821
S'I-NP'
p1822
g4
tp1823
a(S'group'
p1824
S'group'
p1825
S'NN'
p1826
S'I-NP'
p1827
g4
tp1828
a(g232
g232
g232
g4
g4
tp1829
a(S'11'
p1830
S'11'
p1831
S'CD'
p1832
S'B-NP'
p1833
g4
tp1834
a(g768
g768
S'NN'
p1835
S'I-NP'
p1836
g4
tp1837
a(S'in'
p1838
S'in'
p1839
S'IN'
p1840
S'B-PP'
p1841
g4
tp1842
a(S'the'
p1843
S'the'
p1844
S'DT'
p1845
S'B-NP'
p1846
g4
tp1847
a(S'10-mg'
p1848
S'10-mg'
p1849
S'JJ'
p1850
S'I-NP'
p1851
g4
tp1852
a(S'group'
p1853
S'group'
p1854
S'NN'
p1855
S'I-NP'
p1856
g4
tp1857
a(g232
g232
g232
g4
g4
tp1858
a(S'and'
p1859
S'and'
p1860
S'CC'
p1861
g4
g4
tp1862
a(S'4'
p1863
g1863
S'CD'
p1864
S'B-NP'
p1865
g4
tp1866
a(g768
g768
S'NN'
p1867
S'I-NP'
p1868
g4
tp1869
a(S'in'
p1870
S'in'
p1871
S'IN'
p1872
S'B-PP'
p1873
g4
tp1874
a(S'the'
p1875
S'the'
p1876
S'DT'
p1877
S'B-NP'
p1878
g4
tp1879
a(S'placebo'
p1880
S'placebo'
p1881
S'NN'
p1882
S'I-NP'
p1883
g4
tp1884
a(S'group'
p1885
S'group'
p1886
S'NN'
p1887
S'I-NP'
p1888
g4
tp1889
a(g51
g51
g51
g4
g4
tp1890
a(S'CONCLUSIONS'
p1891
S'CONCLUSIONS'
p1892
S'NNS'
p1893
S'B-NP'
p1894
g4
tp1895
a(S'Obeticholic'
p1896
S'Obeticholic'
p1897
S'JJ'
p1898
S'B-NP'
p1899
g4
tp1900
a(S'acid'
p1901
S'acid'
p1902
S'NN'
p1903
S'I-NP'
p1904
g4
tp1905
a(S'administered'
p1906
S'administer'
p1907
S'VBN'
p1908
S'B-VP'
p1909
g4
tp1910
a(S'with'
p1911
S'with'
p1912
S'IN'
p1913
S'B-PP'
p1914
g4
tp1915
a(S'ursodiol'
p1916
S'ursodiol'
p1917
S'NN'
p1918
S'B-NP'
p1919
g4
tp1920
a(S'or'
p1921
S'or'
p1922
S'CC'
p1923
S'B-PP'
p1924
g4
tp1925
a(S'as'
p1926
S'as'
p1927
S'IN'
p1928
S'B-PP'
p1929
g4
tp1930
a(S'monotherapy'
p1931
S'monotherapy'
p1932
S'NN'
p1933
S'B-NP'
p1934
g4
tp1935
a(S'for'
p1936
S'for'
p1937
S'IN'
p1938
S'B-PP'
p1939
g4
tp1940
a(S'12'
p1941
S'12'
p1942
S'CD'
p1943
S'B-NP'
p1944
g4
tp1945
a(S'months'
p1946
S'month'
p1947
S'NNS'
p1948
S'I-NP'
p1949
g4
tp1950
a(S'in'
p1951
S'in'
p1952
S'IN'
p1953
S'B-PP'
p1954
g4
tp1955
a(S'patients'
p1956
S'patient'
p1957
S'NNS'
p1958
S'B-NP'
p1959
g4
tp1960
a(S'with'
p1961
S'with'
p1962
S'IN'
p1963
S'B-PP'
p1964
g4
tp1965
a(S'primary'
p1966
S'primary'
p1967
S'JJ'
p1968
S'B-NP'
p1969
g4
tp1970
a(S'biliary'
p1971
S'biliary'
p1972
S'JJ'
p1973
S'I-NP'
p1974
g4
tp1975
a(S'cholangitis'
p1976
S'cholangitis'
p1977
S'NN'
p1978
S'I-NP'
p1979
g4
tp1980
a(S'resulted'
p1981
S'result'
p1982
S'VBD'
p1983
S'B-VP'
p1984
g4
tp1985
a(S'in'
p1986
S'in'
p1987
S'IN'
p1988
S'B-PP'
p1989
g4
tp1990
a(S'decreases'
p1991
S'decrease'
p1992
S'NNS'
p1993
S'B-NP'
p1994
g4
tp1995
a(S'from'
p1996
S'from'
p1997
S'IN'
p1998
S'B-PP'
p1999
g4
tp2000
a(S'baseline'
p2001
S'baseline'
p2002
S'NN'
p2003
S'B-NP'
p2004
g4
tp2005
a(S'in'
p2006
S'in'
p2007
S'IN'
p2008
S'B-PP'
p2009
g4
tp2010
a(S'alkaline'
p2011
S'alkaline'
p2012
S'NN'
p2013
S'B-NP'
p2014
S'B-protein'
p2015
tp2016
a(S'phosphatase'
p2017
S'phosphatase'
p2018
S'NN'
p2019
S'I-NP'
p2020
S'I-protein'
p2021
tp2022
a(S'and'
p2023
S'and'
p2024
S'CC'
p2025
g4
g4
tp2026
a(S'total'
p2027
S'total'
p2028
S'JJ'
p2029
S'B-NP'
p2030
g4
tp2031
a(S'bilirubin'
p2032
S'bilirubin'
p2033
S'NN'
p2034
S'I-NP'
p2035
g4
tp2036
a(S'levels'
p2037
S'level'
p2038
S'NNS'
p2039
S'I-NP'
p2040
g4
tp2041
a(S'that'
p2042
S'that'
p2043
S'WDT'
p2044
S'B-NP'
p2045
g4
tp2046
a(S'differed'
p2047
S'differ'
p2048
S'VBD'
p2049
S'B-VP'
p2050
g4
tp2051
a(S'significantly'
p2052
S'significantly'
p2053
S'RB'
p2054
S'B-ADVP'
p2055
g4
tp2056
a(S'from'
p2057
S'from'
p2058
S'IN'
p2059
S'B-PP'
p2060
g4
tp2061
a(S'the'
p2062
S'the'
p2063
S'DT'
p2064
S'B-NP'
p2065
g4
tp2066
a(S'changes'
p2067
S'change'
p2068
S'NNS'
p2069
S'I-NP'
p2070
g4
tp2071
a(S'observed'
p2072
S'observe'
p2073
S'VBN'
p2074
S'B-VP'
p2075
g4
tp2076
a(S'with'
p2077
S'with'
p2078
S'IN'
p2079
S'B-PP'
p2080
g4
tp2081
a(S'placebo.'
p2082
S'placebo.'
p2083
S'NN'
p2084
S'B-NP'
p2085
g4
tp2086
a(S'There'
p2087
S'There'
p2088
S'EX'
p2089
S'B-NP'
p2090
g4
tp2091
a(S'were'
p2092
S'be'
p2093
S'VBD'
p2094
S'B-VP'
p2095
g4
tp2096
a(S'more'
p2097
S'more'
p2098
S'RBR'
p2099
S'B-NP'
p2100
g4
tp2101
a(S'serious'
p2102
S'serious'
p2103
S'JJ'
p2104
S'I-NP'
p2105
g4
tp2106
a(S'adverse'
p2107
S'adverse'
p2108
S'JJ'
p2109
S'I-NP'
p2110
g4
tp2111
a(S'events'
p2112
S'event'
p2113
S'NNS'
p2114
S'I-NP'
p2115
g4
tp2116
a(S'with'
p2117
S'with'
p2118
S'IN'
p2119
S'B-PP'
p2120
g4
tp2121
a(S'obeticholic'
p2122
S'obeticholic'
p2123
S'JJ'
p2124
S'B-NP'
p2125
g4
tp2126
a(S'acid.'
p2127
S'acid.'
p2128
S'NN'
p2129
S'I-NP'
p2130
g4
tp2131
a(g73
g73
g73
g4
g4
tp2132
a(S'Funded'
p2133
S'Fund'
p2134
S'VBN'
p2135
S'B-VP'
p2136
g4
tp2137
a(S'by'
p2138
S'by'
p2139
S'IN'
p2140
S'B-PP'
p2141
g4
tp2142
a(S'Intercept'
p2143
S'Intercept'
p2144
S'NNP'
p2145
S'B-NP'
p2146
g4
tp2147
a(S'Pharmaceuticals'
p2148
S'Pharmaceuticals'
p2149
S'NNP'
p2150
S'I-NP'
p2151
g4
tp2152
a(g1067
g1067
g1068
g4
g4
tp2153
a(S'POISE'
p2154
S'POISE'
p2155
S'NNP'
p2156
S'B-NP'
p2157
g4
tp2158
a(S'ClinicalTrials.gov'
p2159
S'ClinicalTrials.gov'
p2160
S'NNP'
p2161
S'I-NP'
p2162
g4
tp2163
a(S'number'
p2164
S'number'
p2165
S'NN'
p2166
S'I-NP'
p2167
g4
tp2168
a(g232
g232
g232
g4
g4
tp2169
a(S'NCT01473524'
p2170
S'NCT01473524'
p2171
S'NN'
p2172
S'B-NP'
p2173
g4
tp2174
a(g1067
g1067
g1068
g4
g4
tp2175
a(S'Current'
p2176
S'Current'
p2177
S'JJ'
p2178
S'B-NP'
p2179
g4
tp2180
a(S'Controlled'
p2181
S'Controlled'
p2182
S'JJ'
p2183
S'I-NP'
p2184
g4
tp2185
a(S'Trials'
p2186
S'Trial'
p2187
S'NNS'
p2188
S'I-NP'
p2189
g4
tp2190
a(S'number'
p2191
S'number'
p2192
S'NN'
p2193
S'I-NP'
p2194
g4
tp2195
a(g232
g232
g232
g4
g4
tp2196
a(S'ISRCTN89514817.'
p2197
S'ISRCTN89514817.'
p2198
S'NN'
p2199
S'B-NP'
p2200
S'B-protein'
p2201
tp2202
a(g100
g100
g100
g4
g4
tp2203
a(g51
g51
g51
g4
g4
tp2204
a.