(lp0
(S'A'
p1
g1
S'DT'
p2
S'B-NP'
p3
S'O'
p4
tp5
a(S'dose-ranging'
p6
S'dose-ranging'
p7
S'JJ'
p8
S'I-NP'
p9
g4
tp10
a(S'study'
p11
S'study'
p12
S'NN'
p13
S'I-NP'
p14
g4
tp15
a(S'of'
p16
S'of'
p17
S'IN'
p18
S'B-PP'
p19
g4
tp20
a(S'pramipexole'
p21
S'pramipexole'
p22
S'NN'
p23
S'B-NP'
p24
g4
tp25
a(S'for'
p26
S'for'
p27
S'IN'
p28
S'B-PP'
p29
g4
tp30
a(S'the'
p31
S'the'
p32
S'DT'
p33
S'B-NP'
p34
g4
tp35
a(S'symptomatic'
p36
S'symptomatic'
p37
S'JJ'
p38
S'I-NP'
p39
g4
tp40
a(S'treatment'
p41
S'treatment'
p42
S'NN'
p43
S'I-NP'
p44
g4
tp45
a(S'of'
p46
S'of'
p47
S'IN'
p48
S'B-PP'
p49
g4
tp50
a(S'restless'
p51
S'restless'
p52
S'JJ'
p53
S'B-NP'
p54
g4
tp55
a(S'legs'
p56
S'leg'
p57
S'NNS'
p58
S'I-NP'
p59
g4
tp60
a(S'syndrome'
p61
S'syndrome'
p62
S'NN'
p63
S'I-NP'
p64
g4
tp65
a(S':'
p66
g66
g66
g4
g4
tp67
a(S'polysomnographic'
p68
S'polysomnographic'
p69
S'JJ'
p70
S'B-NP'
p71
g4
tp72
a(S'evaluation'
p73
S'evaluation'
p74
S'NN'
p75
S'I-NP'
p76
g4
tp77
a(S'of'
p78
S'of'
p79
S'IN'
p80
S'B-PP'
p81
g4
tp82
a(S'periodic'
p83
S'periodic'
p84
S'JJ'
p85
S'B-NP'
p86
g4
tp87
a(S'leg'
p88
S'leg'
p89
S'NN'
p90
S'I-NP'
p91
g4
tp92
a(S'movements'
p93
S'movement'
p94
S'NNS'
p95
S'I-NP'
p96
g4
tp97
a(S'and'
p98
S'and'
p99
S'CC'
p100
g4
g4
tp101
a(S'sleep'
p102
S'sleep'
p103
S'VB'
p104
S'B-VP'
p105
g4
tp106
a(S'disturbance'
p107
S'disturbance'
p108
S'NN'
p109
S'B-NP'
p110
g4
tp111
a(S'.'
p112
g112
g112
g4
g4
tp113
a(S'OBJECTIVE'
p114
S'OBJECTIVE'
p115
S'NN'
p116
S'B-NP'
p117
g4
tp118
a(S'To'
p119
S'To'
p120
S'TO'
p121
S'B-VP'
p122
g4
tp123
a(S'evaluate'
p124
S'evaluate'
p125
S'VB'
p126
S'I-VP'
p127
g4
tp128
a(S','
p129
g129
g129
g4
g4
tp130
a(S'both'
p131
S'both'
p132
S'DT'
p133
g4
g4
tp134
a(S'polysomnographically'
p135
S'polysomnographically'
p136
S'RB'
p137
S'B-ADVP'
p138
g4
tp139
a(S'and'
p140
S'and'
p141
S'CC'
p142
g4
g4
tp143
a(S'by'
p144
S'by'
p145
S'IN'
p146
S'B-PP'
p147
g4
tp148
a(S'subjective'
p149
S'subjective'
p150
S'JJ'
p151
S'B-NP'
p152
g4
tp153
a(S'scales'
p154
S'scale'
p155
S'NNS'
p156
S'I-NP'
p157
g4
tp158
a(g129
g129
g129
g4
g4
tp159
a(S'the'
p160
S'the'
p161
S'DT'
p162
S'B-NP'
p163
g4
tp164
a(S'efficacy'
p165
S'efficacy'
p166
S'NN'
p167
S'I-NP'
p168
g4
tp169
a(S'and'
p170
S'and'
p171
S'CC'
p172
S'I-NP'
p173
g4
tp174
a(S'safety'
p175
S'safety'
p176
S'NN'
p177
S'I-NP'
p178
g4
tp179
a(S'profile'
p180
S'profile'
p181
S'NN'
p182
S'I-NP'
p183
g4
tp184
a(S'of'
p185
S'of'
p186
S'IN'
p187
S'B-PP'
p188
g4
tp189
a(S'pramipexole'
p190
S'pramipexole'
p191
S'NN'
p192
S'B-NP'
p193
g4
tp194
a(S'for'
p195
S'for'
p196
S'IN'
p197
S'B-PP'
p198
g4
tp199
a(S'restless'
p200
S'restless'
p201
S'JJ'
p202
S'B-NP'
p203
g4
tp204
a(S'legs'
p205
S'leg'
p206
S'NNS'
p207
S'I-NP'
p208
g4
tp209
a(S'syndrome'
p210
S'syndrome'
p211
S'NN'
p212
S'I-NP'
p213
g4
tp214
a(S'('
p215
g215
g215
g4
g4
tp216
a(S'RLS'
p217
S'RLS'
p218
S'NN'
p219
S'B-NP'
p220
g4
tp221
a(S')'
p222
g222
g222
g4
g4
tp223
a(S'via'
p224
S'via'
p225
S'IN'
p226
S'B-PP'
p227
g4
tp228
a(S'a'
p229
g229
S'DT'
p230
S'B-NP'
p231
g4
tp232
a(S'3-week'
p233
S'3-week'
p234
S'JJ'
p235
S'I-NP'
p236
g4
tp237
a(g129
g129
g129
S'I-NP'
p238
g4
tp239
a(S'double-blind'
p240
S'double-blind'
p241
S'JJ'
p242
S'I-NP'
p243
g4
tp244
a(g129
g129
g129
S'I-NP'
p245
g4
tp246
a(S'placebo-controlled'
p247
S'placebo-controlled'
p248
S'JJ'
p249
S'I-NP'
p250
g4
tp251
a(g129
g129
g129
S'I-NP'
p252
g4
tp253
a(S'parallel-group'
p254
S'parallel-group'
p255
S'JJ'
p256
S'I-NP'
p257
g4
tp258
a(g129
g129
g129
S'I-NP'
p259
g4
tp260
a(S'dose-ranging'
p261
S'dose-ranging'
p262
S'JJ'
p263
S'I-NP'
p264
g4
tp265
a(S'study'
p266
S'study'
p267
S'NN'
p268
S'I-NP'
p269
g4
tp270
a(g112
g112
g112
g4
g4
tp271
a(S'METHODS'
p272
S'METHODS'
p273
S'NNS'
p274
S'B-NP'
p275
g4
tp276
a(S'At'
p277
S'At'
p278
S'IN'
p279
S'B-PP'
p280
g4
tp281
a(S'baseline'
p282
S'baseline'
p283
S'NN'
p284
S'B-NP'
p285
g4
tp286
a(S'and'
p287
S'and'
p288
S'CC'
p289
g4
g4
tp290
a(S'after'
p291
S'after'
p292
S'IN'
p293
S'B-PP'
p294
g4
tp295
a(S'3'
p296
g296
S'CD'
p297
S'B-NP'
p298
g4
tp299
a(S'weeks'
p300
S'week'
p301
S'NNS'
p302
S'I-NP'
p303
g4
tp304
a(g129
g129
g129
g4
g4
tp305
a(S'periodic'
p306
S'periodic'
p307
S'JJ'
p308
S'B-NP'
p309
g4
tp310
a(S'limb'
p311
S'limb'
p312
S'NN'
p313
S'I-NP'
p314
g4
tp315
a(S'movements'
p316
S'movement'
p317
S'NNS'
p318
S'I-NP'
p319
g4
tp320
a(g215
g215
g215
g4
g4
tp321
a(S'PLM'
p322
S'PLM'
p323
S'NN'
p324
S'B-NP'
p325
S'B-protein'
p326
tp327
a(g222
g222
g222
g4
g4
tp328
a(S'and'
p329
S'and'
p330
S'CC'
p331
g4
g4
tp332
a(S'sleep'
p333
S'sleep'
p334
S'NN'
p335
S'B-NP'
p336
g4
tp337
a(S'parameters'
p338
S'parameter'
p339
S'NNS'
p340
S'I-NP'
p341
g4
tp342
a(S'were'
p343
S'be'
p344
S'VBD'
p345
S'B-VP'
p346
g4
tp347
a(S'assessed'
p348
S'assess'
p349
S'VBN'
p350
S'I-VP'
p351
g4
tp352
a(S'by'
p353
S'by'
p354
S'IN'
p355
S'B-PP'
p356
g4
tp357
a(S'polysomnography'
p358
S'polysomnography'
p359
S'NN'
p360
S'B-NP'
p361
g4
tp362
a(g129
g129
g129
g4
g4
tp363
a(S'and'
p364
S'and'
p365
S'CC'
p366
g4
g4
tp367
a(S'patients'
p368
S'patient'
p369
S'NNS'
p370
S'B-NP'
p371
g4
tp372
a(S'self-assessed'
p373
S'self-assesse'
p374
S'VBD'
p375
S'B-VP'
p376
g4
tp377
a(S'their'
p378
S'their'
p379
S'PRP$'
p380
S'B-NP'
p381
g4
tp382
a(S'sleep'
p383
S'sleep'
p384
S'NN'
p385
S'I-NP'
p386
g4
tp387
a(S'disturbance'
p388
S'disturbance'
p389
S'NN'
p390
S'I-NP'
p391
g4
tp392
a(S'and'
p393
S'and'
p394
S'CC'
p395
g4
g4
tp396
a(S'overall'
p397
S'overall'
p398
S'JJ'
p399
S'B-NP'
p400
g4
tp401
a(S'RLS'
p402
S'RLS'
p403
S'NN'
p404
S'I-NP'
p405
g4
tp406
a(S'severity'
p407
S'severity'
p408
S'NN'
p409
S'I-NP'
p410
g4
tp411
a(S'using'
p412
S'use'
p413
S'VBG'
p414
S'B-VP'
p415
g4
tp416
a(S'the'
p417
S'the'
p418
S'DT'
p419
S'B-NP'
p420
g4
tp421
a(S'international'
p422
S'international'
p423
S'JJ'
p424
S'I-NP'
p425
g4
tp426
a(S'RLS'
p427
S'RLS'
p428
S'NN'
p429
S'I-NP'
p430
g4
tp431
a(S'study'
p432
S'study'
p433
S'NN'
p434
S'I-NP'
p435
g4
tp436
a(S'group'
p437
S'group'
p438
S'NN'
p439
S'I-NP'
p440
g4
tp441
a(S'rating'
p442
S'rating'
p443
S'NN'
p444
S'I-NP'
p445
g4
tp446
a(S'scale'
p447
S'scale'
p448
S'NN'
p449
S'I-NP'
p450
g4
tp451
a(g215
g215
g215
g4
g4
tp452
a(S'IRLS'
p453
S'IRLS'
p454
S'NN'
p455
S'B-NP'
p456
S'B-protein'
p457
tp458
a(g222
g222
g222
g4
g4
tp459
a(g112
g112
g112
g4
g4
tp460
a(S'Four'
p461
S'Four'
p462
S'CD'
p463
S'B-NP'
p464
g4
tp465
a(S'pramipexole'
p466
S'pramipexole'
p467
S'NN'
p468
S'I-NP'
p469
g4
tp470
a(S'doses'
p471
S'dose'
p472
S'NNS'
p473
S'I-NP'
p474
g4
tp475
a(S'were'
p476
S'be'
p477
S'VBD'
p478
S'B-VP'
p479
g4
tp480
a(S'evaluated'
p481
S'evaluate'
p482
S'VBN'
p483
S'I-VP'
p484
g4
tp485
a(g66
g66
g66
g4
g4
tp486
a(S'0.125'
p487
S'0.125'
p488
S'CD'
p489
S'B-NP'
p490
g4
tp491
a(g129
g129
g129
S'I-NP'
p492
g4
tp493
a(S'0.25'
p494
S'0.25'
p495
S'CD'
p496
S'I-NP'
p497
g4
tp498
a(g129
g129
g129
S'I-NP'
p499
g4
tp500
a(S'0.50'
p501
S'0.50'
p502
S'CD'
p503
S'I-NP'
p504
g4
tp505
a(g129
g129
g129
g4
g4
tp506
a(S'and'
p507
S'and'
p508
S'CC'
p509
g4
g4
tp510
a(S'0.75mg/d.'
p511
S'0.75mg/d.'
p512
S'CD'
p513
S'B-NP'
p514
g4
tp515
a(S'Data'
p516
S'Datum'
p517
S'NNS'
p518
S'I-NP'
p519
g4
tp520
a(S'from'
p521
S'from'
p522
S'IN'
p523
S'B-PP'
p524
g4
tp525
a(S'107'
p526
S'107'
p527
S'CD'
p528
S'B-NP'
p529
g4
tp530
a(S'patients'
p531
S'patient'
p532
S'NNS'
p533
S'I-NP'
p534
g4
tp535
a(S'were'
p536
S'be'
p537
S'VBD'
p538
S'B-VP'
p539
g4
tp540
a(S'included'
p541
S'include'
p542
S'VBN'
p543
S'I-VP'
p544
g4
tp545
a(S'in'
p546
S'in'
p547
S'IN'
p548
S'B-PP'
p549
g4
tp550
a(S'the'
p551
S'the'
p552
S'DT'
p553
S'B-NP'
p554
g4
tp555
a(S'intent-to-treat'
p556
S'intent-to-treat'
p557
S'JJ'
p558
S'I-NP'
p559
g4
tp560
a(g215
g215
g215
g4
g4
tp561
a(S'ITT'
p562
S'ITT'
p563
S'JJ'
p564
S'B-ADJP'
p565
g4
tp566
a(g222
g222
g222
g4
g4
tp567
a(S'analysis'
p568
S'analysis'
p569
S'NN'
p570
S'B-NP'
p571
g4
tp572
a(g112
g112
g112
g4
g4
tp573
a(S'RESULTS'
p574
S'RESULTS'
p575
S'NNS'
p576
S'B-NP'
p577
g4
tp578
a(S'For'
p579
S'For'
p580
S'IN'
p581
S'B-PP'
p582
g4
tp583
a(S'pramipexole'
p584
S'pramipexole'
p585
S'NN'
p586
S'B-NP'
p587
g4
tp588
a(S'recipients'
p589
S'recipient'
p590
S'NNS'
p591
S'I-NP'
p592
g4
tp593
a(g129
g129
g129
g4
g4
tp594
a(S'the'
p595
S'the'
p596
S'DT'
p597
S'B-NP'
p598
g4
tp599
a(S'primary'
p600
S'primary'
p601
S'JJ'
p602
S'I-NP'
p603
g4
tp604
a(S'outcome'
p605
S'outcome'
p606
S'NN'
p607
S'I-NP'
p608
g4
tp609
a(S'measure'
p610
S'measure'
p611
S'NN'
p612
S'I-NP'
p613
g4
tp614
a(g129
g129
g129
g4
g4
tp615
a(S'PLM'
p616
S'PLM'
p617
S'NN'
p618
S'B-NP'
p619
S'B-protein'
p620
tp621
a(S'per'
p622
S'per'
p623
S'IN'
p624
S'B-PP'
p625
g4
tp626
a(S'hour'
p627
S'hour'
p628
S'NN'
p629
S'B-NP'
p630
g4
tp631
a(S'in'
p632
S'in'
p633
S'IN'
p634
S'B-PP'
p635
g4
tp636
a(S'bed'
p637
S'bed'
p638
S'NN'
p639
S'B-NP'
p640
g4
tp641
a(S'asleep'
p642
S'asleep'
p643
S'NN'
p644
S'I-NP'
p645
g4
tp646
a(S'or'
p647
S'or'
p648
S'CC'
p649
g4
g4
tp650
a(S'awake'
p651
S'awake'
p652
S'NN'
p653
S'B-NP'
p654
g4
tp655
a(g215
g215
g215
g4
g4
tp656
a(S'the'
p657
S'the'
p658
S'DT'
p659
S'B-NP'
p660
g4
tp661
a(S'PLM'
p662
S'PLM'
p663
S'NN'
p664
S'I-NP'
p665
S'B-protein'
p666
tp667
a(S'index'
p668
S'index'
p669
S'NN'
p670
S'I-NP'
p671
S'I-protein'
p672
tp673
a(g129
g129
g129
g4
g4
tp674
a(S'or'
p675
S'or'
p676
S'CC'
p677
g4
g4
tp678
a(S'PLMI'
p679
S'PLMI'
p680
S'NN'
p681
S'B-NP'
p682
S'B-protein'
p683
tp684
a(g222
g222
g222
g4
g4
tp685
a(g129
g129
g129
g4
g4
tp686
a(S'decreased'
p687
S'decrease'
p688
S'VBN'
p689
S'B-VP'
p690
g4
tp691
a(S'by'
p692
S'by'
p693
S'IN'
p694
S'B-PP'
p695
g4
tp696
a(g229
g229
S'DT'
p697
S'B-NP'
p698
g4
tp699
a(S'median'
p700
S'median'
p701
S'NN'
p702
S'I-NP'
p703
g4
tp704
a(S'of'
p705
S'of'
p706
S'IN'
p707
S'B-PP'
p708
g4
tp709
a(S'-26.55'
p710
S'-26.55'
p711
S'CD'
p712
S'B-NP'
p713
g4
tp714
a(S'to'
p715
S'to'
p716
S'TO'
p717
S'B-PP'
p718
g4
tp719
a(S'-52.70'
p720
S'-52.70'
p721
S'CD'
p722
S'B-NP'
p723
g4
tp724
a(S'depending'
p725
S'depend'
p726
S'VBG'
p727
S'B-PP'
p728
g4
tp729
a(S'on'
p730
S'on'
p731
S'IN'
p732
S'B-PP'
p733
g4
tp734
a(S'dosage'
p735
S'dosage'
p736
S'NN'
p737
S'B-NP'
p738
g4
tp739
a(S'group'
p740
S'group'
p741
S'NN'
p742
S'I-NP'
p743
g4
tp744
a(g129
g129
g129
g4
g4
tp745
a(S'vs.'
p746
S'vs.'
p747
S'IN'
p748
S'B-PP'
p749
g4
tp750
a(S'-3.00'
p751
S'-3.00'
p752
S'CD'
p753
S'B-NP'
p754
g4
tp755
a(S'for'
p756
S'for'
p757
S'IN'
p758
S'B-PP'
p759
g4
tp760
a(S'placebo'
p761
S'placebo'
p762
S'NN'
p763
S'B-NP'
p764
g4
tp765
a(g215
g215
g215
g4
g4
tp766
a(S'p'
p767
g767
S'NN'
p768
S'B-NP'
p769
g4
tp770
a(S'<'
p771
g771
S'JJR'
p772
S'B-NP'
p773
g4
tp774
a(S'0.01'
p775
S'0.01'
p776
S'CD'
p777
S'I-NP'
p778
g4
tp779
a(S'or'
p780
S'or'
p781
S'CC'
p782
S'I-NP'
p783
g4
tp784
a(S'0.001'
p785
S'0.001'
p786
S'CD'
p787
S'I-NP'
p788
g4
tp789
a(S'for'
p790
S'for'
p791
S'IN'
p792
S'B-PP'
p793
g4
tp794
a(S'each'
p795
S'each'
p796
S'DT'
p797
S'B-NP'
p798
g4
tp799
a(S'group'
p800
S'group'
p801
S'NN'
p802
S'I-NP'
p803
g4
tp804
a(S'vs.'
p805
S'vs.'
p806
S'FW'
p807
S'B-PP'
p808
g4
tp809
a(S'placebo'
p810
S'placebo'
p811
S'NN'
p812
S'B-NP'
p813
g4
tp814
a(S';'
p815
g815
g66
g4
g4
tp816
a(S'Wilcoxon-Mann-Whitney'
p817
S'Wilcoxon-Mann-Whitney'
p818
S'JJ'
p819
S'B-NP'
p820
g4
tp821
a(S'test'
p822
S'test'
p823
S'NN'
p824
S'I-NP'
p825
g4
tp826
a(g222
g222
g222
g4
g4
tp827
a(g112
g112
g112
g4
g4
tp828
a(S'Improvements'
p829
S'Improvement'
p830
S'NNPS'
p831
S'B-NP'
p832
g4
tp833
a(S'in'
p834
S'in'
p835
S'IN'
p836
S'B-PP'
p837
g4
tp838
a(S'the'
p839
S'the'
p840
S'DT'
p841
S'B-NP'
p842
g4
tp843
a(S'secondary'
p844
S'secondary'
p845
S'JJ'
p846
S'I-NP'
p847
g4
tp848
a(S'endpoints'
p849
S'endpoint'
p850
S'NNS'
p851
S'I-NP'
p852
g4
tp853
a(S'of'
p854
S'of'
p855
S'IN'
p856
S'B-PP'
p857
g4
tp858
a(S'PLM'
p859
S'PLM'
p860
S'NN'
p861
S'B-NP'
p862
S'B-protein'
p863
tp864
a(S'while'
p865
S'while'
p866
S'IN'
p867
S'B-SBAR'
p868
g4
tp869
a(S'asleep'
p870
S'asleep'
p871
S'NN'
p872
S'B-NP'
p873
g4
tp874
a(S'and'
p875
S'and'
p876
S'CC'
p877
g4
g4
tp878
a(S'while'
p879
S'while'
p880
S'IN'
p881
S'B-SBAR'
p882
g4
tp883
a(S'awake'
p884
S'awake'
p885
S'NN'
p886
S'B-NP'
p887
g4
tp888
a(S'were'
p889
S'be'
p890
S'VBD'
p891
S'B-VP'
p892
g4
tp893
a(S'also'
p894
S'also'
p895
S'RB'
p896
S'B-ADVP'
p897
g4
tp898
a(S'significantly'
p899
S'significantly'
p900
S'RB'
p901
S'B-ADJP'
p902
g4
tp903
a(S'superior'
p904
S'superior'
p905
S'JJ'
p906
S'I-ADJP'
p907
g4
tp908
a(S'for'
p909
S'for'
p910
S'IN'
p911
S'B-PP'
p912
g4
tp913
a(S'pramipexole.'
p914
S'pramipexole.'
p915
S'NN'
p916
S'B-NP'
p917
g4
tp918
a(S'At'
p919
S'At'
p920
S'IN'
p921
S'B-PP'
p922
g4
tp923
a(g296
g296
S'CD'
p924
S'B-NP'
p925
g4
tp926
a(S'weeks'
p927
S'week'
p928
S'NNS'
p929
S'I-NP'
p930
g4
tp931
a(g129
g129
g129
g4
g4
tp932
a(S'all'
p933
S'all'
p934
S'DT'
p935
S'B-NP'
p936
g4
tp937
a(S'pramipexole'
p938
S'pramipexole'
p939
S'NN'
p940
S'I-NP'
p941
g4
tp942
a(S'doses'
p943
S'dose'
p944
S'NNS'
p945
S'I-NP'
p946
g4
tp947
a(S'reduced'
p948
S'reduce'
p949
S'VBD'
p950
S'B-VP'
p951
g4
tp952
a(S'the'
p953
S'the'
p954
S'DT'
p955
S'B-NP'
p956
g4
tp957
a(S'median'
p958
S'median'
p959
S'NN'
p960
S'I-NP'
p961
g4
tp962
a(S'for'
p963
S'for'
p964
S'IN'
p965
S'B-PP'
p966
g4
tp967
a(S'PLM'
p968
S'PLM'
p969
S'NN'
p970
S'B-NP'
p971
S'B-protein'
p972
tp973
a(S'while'
p974
S'while'
p975
S'IN'
p976
S'B-SBAR'
p977
g4
tp978
a(S'asleep'
p979
S'asleep'
p980
S'NN'
p981
S'B-NP'
p982
g4
tp983
a(S'to'
p984
S'to'
p985
S'TO'
p986
S'B-PP'
p987
g4
tp988
a(S'levels'
p989
S'level'
p990
S'NNS'
p991
S'B-NP'
p992
g4
tp993
a(S'considered'
p994
S'consider'
p995
S'VBN'
p996
S'B-VP'
p997
g4
tp998
a(S'normal'
p999
S'normal'
p1000
S'JJ'
p1001
S'B-ADJP'
p1002
g4
tp1003
a(g215
g215
g215
g4
g4
tp1004
a(g771
g771
S'SYM'
p1005
g4
g4
tp1006
a(S'5PLM/h'
p1007
S'5PLM/h'
p1008
S'NN'
p1009
S'B-NP'
p1010
g4
tp1011
a(g222
g222
g222
g4
g4
tp1012
a(g112
g112
g112
g4
g4
tp1013
a(S'Except'
p1014
S'Except'
p1015
S'IN'
p1016
S'B-PP'
p1017
g4
tp1018
a(S'for'
p1019
S'for'
p1020
S'IN'
p1021
S'B-PP'
p1022
g4
tp1023
a(S'delta-sleep'
p1024
S'delta-sleep'
p1025
S'JJ'
p1026
S'B-NP'
p1027
g4
tp1028
a(S'time'
p1029
S'time'
p1030
S'NN'
p1031
S'I-NP'
p1032
g4
tp1033
a(S'and'
p1034
S'and'
p1035
S'CC'
p1036
S'I-NP'
p1037
g4
tp1038
a(S'awakenings/arousals'
p1039
S'awakenings/arousal'
p1040
S'NNS'
p1041
S'I-NP'
p1042
g4
tp1043
a(g129
g129
g129
g4
g4
tp1044
a(S'sleep'
p1045
S'sleep'
p1046
S'NN'
p1047
S'B-NP'
p1048
g4
tp1049
a(S'parameters'
p1050
S'parameter'
p1051
S'NNS'
p1052
S'I-NP'
p1053
g4
tp1054
a(S'remained'
p1055
S'remain'
p1056
S'VBD'
p1057
S'B-VP'
p1058
g4
tp1059
a(S'unchanged'
p1060
S'unchanged'
p1061
S'JJ'
p1062
S'B-NP'
p1063
g4
tp1064
a(S'or'
p1065
S'or'
p1066
S'CC'
p1067
S'I-NP'
p1068
g4
tp1069
a(S'favored'
p1070
S'favored'
p1071
S'JJ'
p1072
S'I-NP'
p1073
g4
tp1074
a(S'pramipexole.'
p1075
S'pramipexole.'
p1076
S'NN'
p1077
S'I-NP'
p1078
g4
tp1079
a(S'Median'
p1080
S'Median'
p1081
S'JJ'
p1082
S'I-NP'
p1083
g4
tp1084
a(S'sleep'
p1085
S'sleep'
p1086
S'NN'
p1087
S'I-NP'
p1088
g4
tp1089
a(S'latency'
p1090
S'latency'
p1091
S'NN'
p1092
S'I-NP'
p1093
g4
tp1094
a(S'was'
p1095
S'be'
p1096
S'VBD'
p1097
S'B-VP'
p1098
g4
tp1099
a(S'reduced'
p1100
S'reduce'
p1101
S'VBN'
p1102
S'I-VP'
p1103
g4
tp1104
a(S'by'
p1105
S'by'
p1106
S'IN'
p1107
S'B-PP'
p1108
g4
tp1109
a(S'-5.00'
p1110
S'-5.00'
p1111
S'CD'
p1112
S'B-NP'
p1113
g4
tp1114
a(S'to'
p1115
S'to'
p1116
S'TO'
p1117
S'B-PP'
p1118
g4
tp1119
a(S'-11.75min'
p1120
S'-11.75min'
p1121
S'NN'
p1122
S'B-NP'
p1123
S'B-protein'
p1124
tp1125
a(S'in'
p1126
S'in'
p1127
S'IN'
p1128
S'B-PP'
p1129
g4
tp1130
a(S'the'
p1131
S'the'
p1132
S'DT'
p1133
S'B-NP'
p1134
g4
tp1135
a(S'pramipexole'
p1136
S'pramipexole'
p1137
S'NN'
p1138
S'I-NP'
p1139
g4
tp1140
a(S'groups'
p1141
S'group'
p1142
S'NNS'
p1143
S'I-NP'
p1144
g4
tp1145
a(g129
g129
g129
g4
g4
tp1146
a(S'vs.'
p1147
S'vs.'
p1148
S'IN'
p1149
S'B-PP'
p1150
g4
tp1151
a(S'-2.00'
p1152
S'-2.00'
p1153
S'CD'
p1154
S'B-NP'
p1155
g4
tp1156
a(S'for'
p1157
S'for'
p1158
S'IN'
p1159
S'B-PP'
p1160
g4
tp1161
a(S'placebo'
p1162
S'placebo'
p1163
S'NN'
p1164
S'B-NP'
p1165
g4
tp1166
a(g215
g215
g215
g4
g4
tp1167
a(g767
g767
S'NN'
p1168
S'B-NP'
p1169
g4
tp1170
a(g771
g771
S'JJR'
p1171
S'B-NP'
p1172
g4
tp1173
a(S'0.05'
p1174
S'0.05'
p1175
S'CD'
p1176
S'I-NP'
p1177
g4
tp1178
a(S'for'
p1179
S'for'
p1180
S'IN'
p1181
S'B-PP'
p1182
g4
tp1183
a(S'all'
p1184
S'all'
p1185
S'DT'
p1186
S'B-NP'
p1187
g4
tp1188
a(S'groups'
p1189
S'group'
p1190
S'NNS'
p1191
S'I-NP'
p1192
g4
tp1193
a(S'except'
p1194
S'except'
p1195
S'IN'
p1196
S'B-PP'
p1197
g4
tp1198
a(S'0.25mg/d'
p1199
S'0.25mg/d'
p1200
S'CD'
p1201
S'B-NP'
p1202
g4
tp1203
a(g222
g222
g222
g4
g4
tp1204
a(g112
g112
g112
g4
g4
tp1205
a(S'Median'
p1206
S'Median'
p1207
S'JJ'
p1208
S'B-NP'
p1209
g4
tp1210
a(S'total'
p1211
S'total'
p1212
S'JJ'
p1213
S'I-NP'
p1214
g4
tp1215
a(S'sleep'
p1216
S'sleep'
p1217
S'NN'
p1218
S'I-NP'
p1219
g4
tp1220
a(S'time'
p1221
S'time'
p1222
S'NN'
p1223
S'I-NP'
p1224
g4
tp1225
a(S'increased'
p1226
S'increase'
p1227
S'VBN'
p1228
S'B-VP'
p1229
g4
tp1230
a(S'by'
p1231
S'by'
p1232
S'IN'
p1233
S'B-PP'
p1234
g4
tp1235
a(S'25.75-66.75min'
p1236
S'25.75-66.75min'
p1237
S'NN'
p1238
S'B-NP'
p1239
g4
tp1240
a(g129
g129
g129
g4
g4
tp1241
a(S'vs.'
p1242
S'vs.'
p1243
S'IN'
p1244
S'B-PP'
p1245
g4
tp1246
a(S'25.50'
p1247
S'25.50'
p1248
S'CD'
p1249
S'B-NP'
p1250
g4
tp1251
a(g215
g215
g215
g4
g4
tp1252
a(g767
g767
S'NN'
p1253
S'B-NP'
p1254
g4
tp1255
a(g771
g771
S'JJR'
p1256
S'B-NP'
p1257
g4
tp1258
a(S'0.05'
p1259
S'0.05'
p1260
S'CD'
p1261
S'I-NP'
p1262
g4
tp1263
a(S'for'
p1264
S'for'
p1265
S'IN'
p1266
S'B-PP'
p1267
g4
tp1268
a(S'0.50mg/d'
p1269
S'0.50mg/d'
p1270
S'CD'
p1271
S'B-NP'
p1272
g4
tp1273
a(g222
g222
g222
g4
g4
tp1274
a(g129
g129
g129
g4
g4
tp1275
a(S'and'
p1276
S'and'
p1277
S'CC'
p1278
g4
g4
tp1279
a(S'median'
p1280
S'median'
p1281
S'JJ'
p1282
S'B-NP'
p1283
g4
tp1284
a(S'time'
p1285
S'time'
p1286
S'NN'
p1287
S'I-NP'
p1288
g4
tp1289
a(S'in'
p1290
S'in'
p1291
S'IN'
p1292
S'B-PP'
p1293
g4
tp1294
a(S'stages'
p1295
S'stage'
p1296
S'NNS'
p1297
S'B-NP'
p1298
g4
tp1299
a(S'2-4/rapid'
p1300
S'2-4/rapid'
p1301
S'JJ'
p1302
S'B-NP'
p1303
g4
tp1304
a(S'eye'
p1305
S'eye'
p1306
S'NN'
p1307
S'I-NP'
p1308
g4
tp1309
a(S'movement'
p1310
S'movement'
p1311
S'NN'
p1312
S'I-NP'
p1313
g4
tp1314
a(g215
g215
g215
g4
g4
tp1315
a(S'REM'
p1316
S'REM'
p1317
S'NN'
p1318
S'B-NP'
p1319
g4
tp1320
a(g222
g222
g222
g4
g4
tp1321
a(S'sleep'
p1322
S'sleep'
p1323
S'NN'
p1324
S'B-NP'
p1325
g4
tp1326
a(S'increased'
p1327
S'increase'
p1328
S'VBN'
p1329
S'B-VP'
p1330
g4
tp1331
a(S'by'
p1332
S'by'
p1333
S'IN'
p1334
S'B-PP'
p1335
g4
tp1336
a(S'37.00-68.00min'
p1337
S'37.00-68.00min'
p1338
S'NN'
p1339
S'B-NP'
p1340
g4
tp1341
a(g129
g129
g129
g4
g4
tp1342
a(S'vs.'
p1343
S'vs.'
p1344
S'IN'
p1345
S'B-PP'
p1346
g4
tp1347
a(S'26.75'
p1348
S'26.75'
p1349
S'CD'
p1350
S'B-NP'
p1351
g4
tp1352
a(g215
g215
g215
g4
g4
tp1353
a(g767
g767
S'NN'
p1354
S'B-NP'
p1355
g4
tp1356
a(g771
g771
S'JJR'
p1357
S'B-NP'
p1358
g4
tp1359
a(S'0.05'
p1360
S'0.05'
p1361
S'CD'
p1362
S'I-NP'
p1363
g4
tp1364
a(S'for'
p1365
S'for'
p1366
S'IN'
p1367
S'B-PP'
p1368
g4
tp1369
a(S'0.50mg/d'
p1370
S'0.50mg/d'
p1371
S'CD'
p1372
S'B-NP'
p1373
g4
tp1374
a(g222
g222
g222
g4
g4
tp1375
a(g112
g112
g112
g4
g4
tp1376
a(S'By'
p1377
S'By'
p1378
S'IN'
p1379
S'B-PP'
p1380
g4
tp1381
a(S'subjective'
p1382
S'subjective'
p1383
S'JJ'
p1384
S'B-NP'
p1385
g4
tp1386
a(S'IRLS'
p1387
S'IRLS'
p1388
S'NN'
p1389
S'I-NP'
p1390
g4
tp1391
a(S'ratings'
p1392
S'rating'
p1393
S'NNS'
p1394
S'I-NP'
p1395
g4
tp1396
a(g129
g129
g129
g4
g4
tp1397
a(S'all'
p1398
S'all'
p1399
S'DT'
p1400
S'B-NP'
p1401
g4
tp1402
a(S'pramipexole'
p1403
S'pramipexole'
p1404
S'NN'
p1405
S'I-NP'
p1406
g4
tp1407
a(S'doses'
p1408
S'dose'
p1409
S'NNS'
p1410
S'I-NP'
p1411
g4
tp1412
a(S'were'
p1413
S'be'
p1414
S'VBD'
p1415
S'B-VP'
p1416
g4
tp1417
a(S'significantly'
p1418
S'significantly'
p1419
S'RB'
p1420
S'B-ADJP'
p1421
g4
tp1422
a(S'superior'
p1423
S'superior'
p1424
S'JJ'
p1425
S'I-ADJP'
p1426
g4
tp1427
a(S'to'
p1428
S'to'
p1429
S'TO'
p1430
S'B-VP'
p1431
g4
tp1432
a(S'placebo.'
p1433
S'placebo.'
p1434
S'VB'
p1435
S'I-VP'
p1436
g4
tp1437
a(S'Safety'
p1438
S'Safety'
p1439
S'NN'
p1440
S'B-NP'
p1441
g4
tp1442
a(S'analysis'
p1443
S'analysis'
p1444
S'NN'
p1445
S'I-NP'
p1446
g4
tp1447
a(S'demonstrated'
p1448
S'demonstrate'
p1449
S'VBD'
p1450
S'B-VP'
p1451
g4
tp1452
a(S'no'
p1453
S'no'
p1454
S'DT'
p1455
S'B-NP'
p1456
g4
tp1457
a(S'dose-dependent'
p1458
S'dose-dependent'
p1459
S'JJ'
p1460
S'I-NP'
p1461
g4
tp1462
a(S'increase'
p1463
S'increase'
p1464
S'NN'
p1465
S'I-NP'
p1466
g4
tp1467
a(S'in'
p1468
S'in'
p1469
S'IN'
p1470
S'B-PP'
p1471
g4
tp1472
a(S'adverse'
p1473
S'adverse'
p1474
S'JJ'
p1475
S'B-NP'
p1476
g4
tp1477
a(S'events'
p1478
S'event'
p1479
S'NNS'
p1480
S'I-NP'
p1481
g4
tp1482
a(g129
g129
g129
g4
g4
tp1483
a(S'and'
p1484
S'and'
p1485
S'CC'
p1486
g4
g4
tp1487
a(S'no'
p1488
S'no'
p1489
S'DT'
p1490
S'B-NP'
p1491
g4
tp1492
a(S'drug-related'
p1493
S'drug-related'
p1494
S'JJ'
p1495
S'I-NP'
p1496
g4
tp1497
a(S'increase'
p1498
S'increase'
p1499
S'NN'
p1500
S'I-NP'
p1501
g4
tp1502
a(S'in'
p1503
S'in'
p1504
S'IN'
p1505
S'B-PP'
p1506
g4
tp1507
a(S'daytime'
p1508
S'daytime'
p1509
S'NN'
p1510
S'B-NP'
p1511
g4
tp1512
a(S'somnolence'
p1513
S'somnolence'
p1514
S'NN'
p1515
S'I-NP'
p1516
g4
tp1517
a(S'was'
p1518
S'be'
p1519
S'VBD'
p1520
S'B-VP'
p1521
g4
tp1522
a(S'observed'
p1523
S'observe'
p1524
S'VBN'
p1525
S'I-VP'
p1526
g4
tp1527
a(g112
g112
g112
g4
g4
tp1528
a(S'CONCLUSIONS'
p1529
S'CONCLUSIONS'
p1530
S'NNS'
p1531
S'B-NP'
p1532
g4
tp1533
a(S'Pramipexole'
p1534
S'Pramipexole'
p1535
S'NN'
p1536
S'I-NP'
p1537
g4
tp1538
a(S'is'
p1539
S'be'
p1540
S'VBZ'
p1541
S'B-VP'
p1542
g4
tp1543
a(S'effective'
p1544
S'effective'
p1545
S'JJ'
p1546
S'B-ADJP'
p1547
g4
tp1548
a(S'and'
p1549
S'and'
p1550
S'CC'
p1551
g4
g4
tp1552
a(S'well'
p1553
S'well'
p1554
S'RB'
p1555
S'B-ADJP'
p1556
g4
tp1557
a(S'tolerated'
p1558
S'tolerate'
p1559
S'VBN'
p1560
S'I-ADJP'
p1561
g4
tp1562
a(S'in'
p1563
S'in'
p1564
S'IN'
p1565
S'B-PP'
p1566
g4
tp1567
a(S'RLS'
p1568
S'RLS'
p1569
S'NN'
p1570
S'B-NP'
p1571
S'B-protein'
p1572
tp1573
a(g129
g129
g129
g4
g4
tp1574
a(S'most'
p1575
S'most'
p1576
S'RBS'
p1577
S'B-ADVP'
p1578
g4
tp1579
a(S'notably'
p1580
S'notably'
p1581
S'RB'
p1582
S'I-ADVP'
p1583
g4
tp1584
a(S'among'
p1585
S'among'
p1586
S'IN'
p1587
S'B-PP'
p1588
g4
tp1589
a(S'objective'
p1590
S'objective'
p1591
S'JJ'
p1592
S'B-NP'
p1593
g4
tp1594
a(S'measures'
p1595
S'measure'
p1596
S'NNS'
p1597
S'I-NP'
p1598
g4
tp1599
a(g129
g129
g129
g4
g4
tp1600
a(S'for'
p1601
S'for'
p1602
S'IN'
p1603
S'B-PP'
p1604
g4
tp1605
a(S'reducing'
p1606
S'reduce'
p1607
S'VBG'
p1608
S'B-VP'
p1609
g4
tp1610
a(S'PLM'
p1611
S'PLM'
p1612
S'NN'
p1613
S'B-NP'
p1614
g4
tp1615
a(S'and'
p1616
S'and'
p1617
S'CC'
p1618
g4
g4
tp1619
a(S'decreasing'
p1620
S'decrease'
p1621
S'VBG'
p1622
S'B-VP'
p1623
g4
tp1624
a(S'sleep'
p1625
S'sleep'
p1626
S'NN'
p1627
S'B-NP'
p1628
g4
tp1629
a(S'latency.'
p1630
S'latency.'
p1631
S'RB'
p1632
S'B-ADVP'
p1633
g4
tp1634
a(S'Although'
p1635
S'Although'
p1636
S'IN'
p1637
S'B-PP'
p1638
g4
tp1639
a(S'other'
p1640
S'other'
p1641
S'JJ'
p1642
S'B-NP'
p1643
g4
tp1644
a(S'sleep'
p1645
S'sleep'
p1646
S'NN'
p1647
S'I-NP'
p1648
g4
tp1649
a(S'parameters'
p1650
S'parameter'
p1651
S'NNS'
p1652
S'I-NP'
p1653
g4
tp1654
a(S'showed'
p1655
S'show'
p1656
S'VBD'
p1657
S'B-VP'
p1658
g4
tp1659
a(S'lesser'
p1660
S'less'
p1661
S'JJR'
p1662
S'B-NP'
p1663
g4
tp1664
a(g129
g129
g129
S'I-NP'
p1665
g4
tp1666
a(S'usually'
p1667
S'usually'
p1668
S'RB'
p1669
S'I-NP'
p1670
g4
tp1671
a(S'insignificant'
p1672
S'insignificant'
p1673
S'JJ'
p1674
S'I-NP'
p1675
g4
tp1676
a(S'change'
p1677
S'change'
p1678
S'NN'
p1679
S'I-NP'
p1680
g4
tp1681
a(g129
g129
g129
g4
g4
tp1682
a(S'patients'
p1683
S'patient'
p1684
S'NNS'
p1685
S'B-NP'
p1686
g4
tp1687
a(S"'"
p1688
g1688
S'POS'
p1689
S'B-NP'
p1690
g4
tp1691
a(S'subjective'
p1692
S'subjective'
p1693
S'JJ'
p1694
S'I-NP'
p1695
g4
tp1696
a(S'ratings'
p1697
S'rating'
p1698
S'NNS'
p1699
S'I-NP'
p1700
g4
tp1701
a(S'of'
p1702
S'of'
p1703
S'IN'
p1704
S'B-PP'
p1705
g4
tp1706
a(S'RLS'
p1707
S'RLS'
p1708
S'NN'
p1709
S'B-NP'
p1710
g4
tp1711
a(S'severity'
p1712
S'severity'
p1713
S'NN'
p1714
S'I-NP'
p1715
g4
tp1716
a(S'and'
p1717
S'and'
p1718
S'CC'
p1719
g4
g4
tp1720
a(S'sleep'
p1721
S'sleep'
p1722
S'NN'
p1723
S'B-NP'
p1724
g4
tp1725
a(S'disturbance'
p1726
S'disturbance'
p1727
S'NN'
p1728
S'I-NP'
p1729
g4
tp1730
a(S'were'
p1731
S'be'
p1732
S'VBD'
p1733
S'B-VP'
p1734
g4
tp1735
a(S'significantly'
p1736
S'significantly'
p1737
S'RB'
p1738
S'I-VP'
p1739
g4
tp1740
a(S'improved'
p1741
S'improve'
p1742
S'VBN'
p1743
S'I-VP'
p1744
g4
tp1745
a(g215
g215
g215
g4
g4
tp1746
a(S'p0.0023'
p1747
S'p0.0023'
p1748
S'NN'
p1749
S'B-NP'
p1750
g4
tp1751
a(g222
g222
g222
g4
g4
tp1752
a(g112
g112
g112
g4
g4
tp1753
a.