(lp0
(S'Human'
p1
S'Human'
p2
S'JJ'
p3
S'B-NP'
p4
S'O'
p5
tp6
a(S'papillomavirus'
p7
S'papillomavirus'
p8
S'NN'
p9
S'I-NP'
p10
g5
tp11
a(S'and'
p12
S'and'
p13
S'CC'
p14
S'I-NP'
p15
g5
tp16
a(S'Papanicolaou'
p17
S'Papanicolaou'
p18
S'NN'
p19
S'I-NP'
p20
g5
tp21
a(S'tests'
p22
S'test'
p23
S'NNS'
p24
S'I-NP'
p25
g5
tp26
a(S'to'
p27
S'to'
p28
S'TO'
p29
S'B-VP'
p30
g5
tp31
a(S'screen'
p32
S'screen'
p33
S'VB'
p34
S'I-VP'
p35
g5
tp36
a(S'for'
p37
S'for'
p38
S'IN'
p39
S'B-PP'
p40
g5
tp41
a(S'cervical'
p42
S'cervical'
p43
S'JJ'
p44
S'B-NP'
p45
g5
tp46
a(S'cancer'
p47
S'cancer'
p48
S'NN'
p49
S'I-NP'
p50
g5
tp51
a(S'.'
p52
g52
g52
g5
g5
tp53
a(S'BACKGROUND'
p54
S'BACKGROUND'
p55
S'NN'
p56
S'B-NP'
p57
g5
tp58
a(S'Screening'
p59
S'Screening'
p60
S'NN'
p61
S'I-NP'
p62
g5
tp63
a(S'for'
p64
S'for'
p65
S'IN'
p66
S'B-PP'
p67
g5
tp68
a(S'cervical'
p69
S'cervical'
p70
S'JJ'
p71
S'B-NP'
p72
g5
tp73
a(S'cancer'
p74
S'cancer'
p75
S'NN'
p76
S'I-NP'
p77
g5
tp78
a(S'based'
p79
S'base'
p80
S'VBN'
p81
S'B-VP'
p82
g5
tp83
a(S'on'
p84
S'on'
p85
S'IN'
p86
S'B-PP'
p87
g5
tp88
a(S'testing'
p89
S'testing'
p90
S'NN'
p91
S'B-NP'
p92
g5
tp93
a(S'for'
p94
S'for'
p95
S'IN'
p96
S'B-PP'
p97
g5
tp98
a(S'human'
p99
S'human'
p100
S'JJ'
p101
S'B-NP'
p102
g5
tp103
a(S'papillomavirus'
p104
S'papillomavirus'
p105
S'NN'
p106
S'I-NP'
p107
g5
tp108
a(S'('
p109
g109
g109
g5
g5
tp110
a(S'HPV'
p111
S'HPV'
p112
S'NN'
p113
S'B-NP'
p114
g5
tp115
a(S')'
p116
g116
g116
g5
g5
tp117
a(S'increases'
p118
S'increase'
p119
S'VBZ'
p120
S'B-VP'
p121
g5
tp122
a(S'the'
p123
S'the'
p124
S'DT'
p125
S'B-NP'
p126
g5
tp127
a(S'sensitivity'
p128
S'sensitivity'
p129
S'NN'
p130
S'I-NP'
p131
g5
tp132
a(S'of'
p133
S'of'
p134
S'IN'
p135
S'B-PP'
p136
g5
tp137
a(S'detection'
p138
S'detection'
p139
S'NN'
p140
S'B-NP'
p141
g5
tp142
a(S'of'
p143
S'of'
p144
S'IN'
p145
S'B-PP'
p146
g5
tp147
a(S'high-grade'
p148
S'high-grade'
p149
S'JJ'
p150
S'B-NP'
p151
g5
tp152
a(g109
g109
g109
g5
g5
tp153
a(S'grade'
p154
S'grade'
p155
S'NN'
p156
S'B-NP'
p157
g5
tp158
a(S'2'
p159
g159
S'CD'
p160
S'I-NP'
p161
g5
tp162
a(S'or'
p163
S'or'
p164
S'CC'
p165
S'I-NP'
p166
g5
tp167
a(S'3'
p168
g168
S'CD'
p169
S'I-NP'
p170
g5
tp171
a(g116
g116
g116
g5
g5
tp172
a(S'cervical'
p173
S'cervical'
p174
S'JJ'
p175
S'B-NP'
p176
g5
tp177
a(S'intraepithelial'
p178
S'intraepithelial'
p179
S'JJ'
p180
S'I-NP'
p181
g5
tp182
a(S'neoplasia'
p183
S'neoplasia'
p184
S'NN'
p185
S'I-NP'
p186
g5
tp187
a(S','
p188
g188
g188
g5
g5
tp189
a(S'but'
p190
S'but'
p191
S'CC'
p192
g5
g5
tp193
a(S'whether'
p194
S'whether'
p195
S'IN'
p196
S'B-SBAR'
p197
g5
tp198
a(S'this'
p199
S'this'
p200
S'DT'
p201
S'B-NP'
p202
g5
tp203
a(S'gain'
p204
S'gain'
p205
S'NN'
p206
S'I-NP'
p207
g5
tp208
a(S'represents'
p209
S'represent'
p210
S'VBZ'
p211
S'B-VP'
p212
g5
tp213
a(S'overdiagnosis'
p214
S'overdiagnosis'
p215
S'NN'
p216
S'B-NP'
p217
g5
tp218
a(S'or'
p219
S'or'
p220
S'CC'
p221
S'I-NP'
p222
g5
tp223
a(S'protection'
p224
S'protection'
p225
S'NN'
p226
S'I-NP'
p227
g5
tp228
a(S'against'
p229
S'against'
p230
S'IN'
p231
S'B-PP'
p232
g5
tp233
a(S'future'
p234
S'future'
p235
S'JJ'
p236
S'B-NP'
p237
g5
tp238
a(S'high-grade'
p239
S'high-grade'
p240
S'JJ'
p241
S'I-NP'
p242
g5
tp243
a(S'cervical'
p244
S'cervical'
p245
S'JJ'
p246
S'I-NP'
p247
g5
tp248
a(S'epithelial'
p249
S'epithelial'
p250
S'JJ'
p251
S'I-NP'
p252
g5
tp253
a(S'neoplasia'
p254
S'neoplasia'
p255
S'NN'
p256
S'I-NP'
p257
g5
tp258
a(S'or'
p259
S'or'
p260
S'CC'
p261
g5
g5
tp262
a(S'cervical'
p263
S'cervical'
p264
S'JJ'
p265
S'B-NP'
p266
g5
tp267
a(S'cancer'
p268
S'cancer'
p269
S'NN'
p270
S'I-NP'
p271
g5
tp272
a(S'is'
p273
S'be'
p274
S'VBZ'
p275
S'B-VP'
p276
g5
tp277
a(S'unknown'
p278
S'unknown'
p279
S'JJ'
p280
S'B-ADJP'
p281
g5
tp282
a(g52
g52
g52
g5
g5
tp283
a(S'METHODS'
p284
S'METHODS'
p285
S'NNS'
p286
S'B-NP'
p287
g5
tp288
a(S'In'
p289
S'In'
p290
S'IN'
p291
S'B-PP'
p292
g5
tp293
a(S'a'
p294
g294
S'DT'
p295
S'B-NP'
p296
g5
tp297
a(S'population-based'
p298
S'population-based'
p299
S'JJ'
p300
S'I-NP'
p301
g5
tp302
a(S'screening'
p303
S'screening'
p304
S'NN'
p305
S'I-NP'
p306
g5
tp307
a(S'program'
p308
S'program'
p309
S'NN'
p310
S'I-NP'
p311
g5
tp312
a(S'in'
p313
S'in'
p314
S'IN'
p315
S'B-PP'
p316
g5
tp317
a(S'Sweden'
p318
S'Sweden'
p319
S'NNP'
p320
S'B-NP'
p321
g5
tp322
a(g188
g188
g188
g5
g5
tp323
a(S'12'
p324
S'12'
p325
S'CD'
p326
S'B-NP'
p327
g5
tp328
a(g188
g188
g188
g5
g5
tp329
a(S'527'
p330
S'527'
p331
S'CD'
p332
S'B-NP'
p333
g5
tp334
a(S'women'
p335
S'woman'
p336
S'NNS'
p337
S'I-NP'
p338
g5
tp339
a(S'32'
p340
S'32'
p341
S'CD'
p342
S'B-NP'
p343
g5
tp344
a(S'to'
p345
S'to'
p346
S'TO'
p347
S'I-NP'
p348
g5
tp349
a(S'38'
p350
S'38'
p351
S'CD'
p352
S'I-NP'
p353
g5
tp354
a(S'years'
p355
S'year'
p356
S'NNS'
p357
S'I-NP'
p358
g5
tp359
a(S'of'
p360
S'of'
p361
S'IN'
p362
S'B-PP'
p363
g5
tp364
a(S'age'
p365
S'age'
p366
S'NN'
p367
S'B-NP'
p368
g5
tp369
a(S'were'
p370
S'be'
p371
S'VBD'
p372
S'B-VP'
p373
g5
tp374
a(S'randomly'
p375
S'randomly'
p376
S'RB'
p377
S'I-VP'
p378
g5
tp379
a(S'assigned'
p380
S'assign'
p381
S'VBN'
p382
S'I-VP'
p383
g5
tp384
a(S'at'
p385
S'at'
p386
S'IN'
p387
S'B-PP'
p388
g5
tp389
a(g294
g294
S'DT'
p390
S'B-NP'
p391
g5
tp392
a(S'1'
p393
g393
S'CD'
p394
S'I-NP'
p395
g5
tp396
a(S':'
p397
g397
S'SYM'
p398
S'I-NP'
p399
g5
tp400
a(g393
g393
S'CD'
p401
S'I-NP'
p402
g5
tp403
a(S'ratio'
p404
S'ratio'
p405
S'NN'
p406
S'I-NP'
p407
g5
tp408
a(S'to'
p409
S'to'
p410
S'TO'
p411
S'B-VP'
p412
g5
tp413
a(S'have'
p414
S'have'
p415
S'VB'
p416
S'I-VP'
p417
g5
tp418
a(S'an'
p419
S'an'
p420
S'DT'
p421
S'B-NP'
p422
g5
tp423
a(S'HPV'
p424
S'HPV'
p425
S'NN'
p426
S'I-NP'
p427
g5
tp428
a(S'test'
p429
S'test'
p430
S'NN'
p431
S'I-NP'
p432
g5
tp433
a(S'plus'
p434
S'plus'
p435
S'CC'
p436
g5
g5
tp437
a(g294
g294
S'DT'
p438
S'B-NP'
p439
g5
tp440
a(S'Papanicolaou'
p441
S'Papanicolaou'
p442
S'NN'
p443
S'I-NP'
p444
g5
tp445
a(g109
g109
g109
g5
g5
tp446
a(S'Pap'
p447
S'Pap'
p448
S'NN'
p449
S'B-NP'
p450
S'B-protein'
p451
tp452
a(g116
g116
g116
g5
g5
tp453
a(S'test'
p454
S'test'
p455
S'NN'
p456
S'B-NP'
p457
g5
tp458
a(g109
g109
g109
g5
g5
tp459
a(S'intervention'
p460
S'intervention'
p461
S'NN'
p462
S'B-NP'
p463
g5
tp464
a(S'group'
p465
S'group'
p466
S'NN'
p467
S'I-NP'
p468
g5
tp469
a(g116
g116
g116
g5
g5
tp470
a(S'or'
p471
S'or'
p472
S'CC'
p473
g5
g5
tp474
a(g294
g294
S'DT'
p475
S'B-NP'
p476
g5
tp477
a(S'Pap'
p478
S'Pap'
p479
S'NN'
p480
S'I-NP'
p481
g5
tp482
a(S'test'
p483
S'test'
p484
S'NN'
p485
S'I-NP'
p486
g5
tp487
a(S'alone'
p488
S'alone'
p489
S'RB'
p490
S'B-ADVP'
p491
g5
tp492
a(g109
g109
g109
g5
g5
tp493
a(S'control'
p494
S'control'
p495
S'NN'
p496
S'B-NP'
p497
g5
tp498
a(S'group'
p499
S'group'
p500
S'NN'
p501
S'I-NP'
p502
g5
tp503
a(g116
g116
g116
g5
g5
tp504
a(g52
g52
g52
g5
g5
tp505
a(S'Women'
p506
S'Woman'
p507
S'NNS'
p508
S'B-NP'
p509
g5
tp510
a(S'with'
p511
S'with'
p512
S'IN'
p513
S'B-PP'
p514
g5
tp515
a(g294
g294
S'DT'
p516
S'B-NP'
p517
g5
tp518
a(S'positive'
p519
S'positive'
p520
S'JJ'
p521
S'I-NP'
p522
g5
tp523
a(S'HPV'
p524
S'HPV'
p525
S'NN'
p526
S'I-NP'
p527
g5
tp528
a(S'test'
p529
S'test'
p530
S'NN'
p531
S'I-NP'
p532
g5
tp533
a(S'and'
p534
S'and'
p535
S'CC'
p536
g5
g5
tp537
a(g294
g294
S'DT'
p538
S'B-NP'
p539
g5
tp540
a(S'normal'
p541
S'normal'
p542
S'JJ'
p543
S'I-NP'
p544
g5
tp545
a(S'Pap'
p546
S'Pap'
p547
S'NN'
p548
S'I-NP'
p549
g5
tp550
a(S'test'
p551
S'test'
p552
S'NN'
p553
S'I-NP'
p554
g5
tp555
a(S'result'
p556
S'result'
p557
S'NN'
p558
S'I-NP'
p559
g5
tp560
a(S'were'
p561
S'be'
p562
S'VBD'
p563
S'B-VP'
p564
g5
tp565
a(S'offered'
p566
S'offer'
p567
S'VBN'
p568
S'I-VP'
p569
g5
tp570
a(g294
g294
S'DT'
p571
S'B-NP'
p572
g5
tp573
a(S'second'
p574
S'second'
p575
S'JJ'
p576
S'I-NP'
p577
g5
tp578
a(S'HPV'
p579
S'HPV'
p580
S'NN'
p581
S'I-NP'
p582
g5
tp583
a(S'test'
p584
S'test'
p585
S'NN'
p586
S'I-NP'
p587
g5
tp588
a(S'at'
p589
S'at'
p590
S'IN'
p591
S'B-NP'
p592
g5
tp593
a(S'least'
p594
S'least'
p595
S'JJS'
p596
S'I-NP'
p597
g5
tp598
a(g393
g393
S'CD'
p599
S'I-NP'
p600
g5
tp601
a(S'year'
p602
S'year'
p603
S'NN'
p604
S'I-NP'
p605
g5
tp606
a(S'later'
p607
S'later'
p608
S'RB'
p609
S'B-ADVP'
p610
g5
tp611
a(g188
g188
g188
g5
g5
tp612
a(S'and'
p613
S'and'
p614
S'CC'
p615
g5
g5
tp616
a(S'those'
p617
S'those'
p618
S'DT'
p619
S'B-NP'
p620
g5
tp621
a(S'who'
p622
S'who'
p623
S'WP'
p624
S'B-NP'
p625
g5
tp626
a(S'were'
p627
S'be'
p628
S'VBD'
p629
S'B-VP'
p630
g5
tp631
a(S'found'
p632
S'find'
p633
S'VBN'
p634
S'I-VP'
p635
g5
tp636
a(S'to'
p637
S'to'
p638
S'TO'
p639
S'I-VP'
p640
g5
tp641
a(S'be'
p642
S'be'
p643
S'VB'
p644
S'I-VP'
p645
g5
tp646
a(S'persistently'
p647
S'persistently'
p648
S'RB'
p649
S'I-VP'
p650
g5
tp651
a(S'infected'
p652
S'infect'
p653
S'VBN'
p654
S'I-VP'
p655
g5
tp656
a(S'with'
p657
S'with'
p658
S'IN'
p659
S'B-PP'
p660
g5
tp661
a(S'the'
p662
S'the'
p663
S'DT'
p664
S'B-NP'
p665
g5
tp666
a(S'same'
p667
S'same'
p668
S'JJ'
p669
S'I-NP'
p670
g5
tp671
a(S'high-risk'
p672
S'high-risk'
p673
S'JJ'
p674
S'I-NP'
p675
g5
tp676
a(S'type'
p677
S'type'
p678
S'NN'
p679
S'I-NP'
p680
g5
tp681
a(S'of'
p682
S'of'
p683
S'IN'
p684
S'B-PP'
p685
g5
tp686
a(S'HPV'
p687
S'HPV'
p688
S'NN'
p689
S'B-NP'
p690
g5
tp691
a(S'were'
p692
S'be'
p693
S'VBD'
p694
S'B-VP'
p695
g5
tp696
a(S'then'
p697
S'then'
p698
S'RB'
p699
S'I-VP'
p700
g5
tp701
a(S'offered'
p702
S'offer'
p703
S'VBN'
p704
S'I-VP'
p705
g5
tp706
a(S'colposcopy'
p707
S'colposcopy'
p708
S'NN'
p709
S'B-NP'
p710
g5
tp711
a(S'with'
p712
S'with'
p713
S'IN'
p714
S'B-PP'
p715
g5
tp716
a(S'cervical'
p717
S'cervical'
p718
S'JJ'
p719
S'B-NP'
p720
g5
tp721
a(S'biopsy.'
p722
S'biopsy.'
p723
S'NN'
p724
S'I-NP'
p725
g5
tp726
a(S'A'
p727
g727
S'NN'
p728
S'I-NP'
p729
g5
tp730
a(S'similar'
p731
S'similar'
p732
S'JJ'
p733
S'I-NP'
p734
g5
tp735
a(S'number'
p736
S'number'
p737
S'NN'
p738
S'I-NP'
p739
g5
tp740
a(S'of'
p741
S'of'
p742
S'IN'
p743
S'B-PP'
p744
g5
tp745
a(S'double-blinded'
p746
S'double-blinded'
p747
S'JJ'
p748
S'B-NP'
p749
S'B-protein'
p750
tp751
a(S'Pap'
p752
S'Pap'
p753
S'NN'
p754
S'I-NP'
p755
S'I-protein'
p756
tp757
a(S'smears'
p758
S'smear'
p759
S'NNS'
p760
S'I-NP'
p761
S'I-protein'
p762
tp763
a(S'and'
p764
S'and'
p765
S'CC'
p766
S'I-NP'
p767
g5
tp768
a(S'colposcopies'
p769
S'colposcopy'
p770
S'NNS'
p771
S'I-NP'
p772
g5
tp773
a(S'with'
p774
S'with'
p775
S'IN'
p776
S'B-PP'
p777
g5
tp778
a(S'biopsy'
p779
S'biopsy'
p780
S'NN'
p781
S'B-NP'
p782
g5
tp783
a(S'were'
p784
S'be'
p785
S'VBD'
p786
S'B-VP'
p787
g5
tp788
a(S'performed'
p789
S'perform'
p790
S'VBN'
p791
S'I-VP'
p792
g5
tp793
a(S'in'
p794
S'in'
p795
S'IN'
p796
S'B-PP'
p797
g5
tp798
a(S'randomly'
p799
S'randomly'
p800
S'RB'
p801
S'B-NP'
p802
g5
tp803
a(S'selected'
p804
S'select'
p805
S'VBN'
p806
S'I-NP'
p807
g5
tp808
a(S'women'
p809
S'woman'
p810
S'NNS'
p811
S'I-NP'
p812
g5
tp813
a(S'in'
p814
S'in'
p815
S'IN'
p816
S'B-PP'
p817
g5
tp818
a(S'the'
p819
S'the'
p820
S'DT'
p821
S'B-NP'
p822
g5
tp823
a(S'control'
p824
S'control'
p825
S'NN'
p826
S'I-NP'
p827
g5
tp828
a(S'group.'
p829
S'group.'
p830
S'NN'
p831
S'I-NP'
p832
g5
tp833
a(S'Comprehensive'
p834
S'Comprehensive'
p835
S'JJ'
p836
S'I-NP'
p837
g5
tp838
a(S'registry'
p839
S'registry'
p840
S'NN'
p841
S'I-NP'
p842
g5
tp843
a(S'data'
p844
S'datum'
p845
S'NNS'
p846
S'I-NP'
p847
g5
tp848
a(S'were'
p849
S'be'
p850
S'VBD'
p851
S'B-VP'
p852
g5
tp853
a(S'used'
p854
S'use'
p855
S'VBN'
p856
S'I-VP'
p857
g5
tp858
a(S'to'
p859
S'to'
p860
S'TO'
p861
S'B-VP'
p862
g5
tp863
a(S'follow'
p864
S'follow'
p865
S'VB'
p866
S'I-VP'
p867
g5
tp868
a(S'the'
p869
S'the'
p870
S'DT'
p871
S'B-NP'
p872
g5
tp873
a(S'women'
p874
S'woman'
p875
S'NNS'
p876
S'I-NP'
p877
g5
tp878
a(S'for'
p879
S'for'
p880
S'IN'
p881
S'B-PP'
p882
g5
tp883
a(g294
g294
S'DT'
p884
S'B-NP'
p885
g5
tp886
a(S'mean'
p887
S'mean'
p888
S'NN'
p889
S'I-NP'
p890
g5
tp891
a(S'of'
p892
S'of'
p893
S'IN'
p894
S'B-PP'
p895
g5
tp896
a(S'4.1'
p897
S'4.1'
p898
S'CD'
p899
S'B-NP'
p900
g5
tp901
a(S'years.'
p902
S'years.'
p903
S'NN'
p904
S'I-NP'
p905
g5
tp906
a(S'The'
p907
S'The'
p908
S'DT'
p909
S'B-NP'
p910
g5
tp911
a(S'relative'
p912
S'relative'
p913
S'JJ'
p914
S'I-NP'
p915
g5
tp916
a(S'rates'
p917
S'rate'
p918
S'NNS'
p919
S'I-NP'
p920
g5
tp921
a(S'of'
p922
S'of'
p923
S'IN'
p924
S'B-PP'
p925
g5
tp926
a(S'grade'
p927
S'grade'
p928
S'NN'
p929
S'B-NP'
p930
g5
tp931
a(g159
g159
S'CD'
p932
S'I-NP'
p933
g5
tp934
a(S'or'
p935
S'or'
p936
S'CC'
p937
S'I-NP'
p938
g5
tp939
a(g168
g168
S'CD'
p940
S'I-NP'
p941
g5
tp942
a(S'cervical'
p943
S'cervical'
p944
S'JJ'
p945
S'I-NP'
p946
g5
tp947
a(S'intraepithelial'
p948
S'intraepithelial'
p949
S'JJ'
p950
S'I-NP'
p951
g5
tp952
a(S'neoplasia'
p953
S'neoplasia'
p954
S'NN'
p955
S'I-NP'
p956
g5
tp957
a(S'or'
p958
S'or'
p959
S'CC'
p960
S'I-NP'
p961
g5
tp962
a(S'cancer'
p963
S'cancer'
p964
S'NN'
p965
S'I-NP'
p966
g5
tp967
a(S'detected'
p968
S'detect'
p969
S'VBN'
p970
S'B-VP'
p971
g5
tp972
a(S'at'
p973
S'at'
p974
S'IN'
p975
S'B-PP'
p976
g5
tp977
a(S'enrollment'
p978
S'enrollment'
p979
S'NN'
p980
S'B-NP'
p981
g5
tp982
a(S'and'
p983
S'and'
p984
S'CC'
p985
S'B-PP'
p986
g5
tp987
a(S'at'
p988
S'at'
p989
S'IN'
p990
S'B-PP'
p991
g5
tp992
a(S'subsequent'
p993
S'subsequent'
p994
S'JJ'
p995
S'B-NP'
p996
g5
tp997
a(S'screening'
p998
S'screening'
p999
S'NN'
p1000
S'I-NP'
p1001
g5
tp1002
a(S'examinations'
p1003
S'examination'
p1004
S'NNS'
p1005
S'I-NP'
p1006
g5
tp1007
a(S'were'
p1008
S'be'
p1009
S'VBD'
p1010
S'B-VP'
p1011
g5
tp1012
a(S'calculated'
p1013
S'calculate'
p1014
S'VBN'
p1015
S'I-VP'
p1016
g5
tp1017
a(g52
g52
g52
g5
g5
tp1018
a(S'RESULTS'
p1019
S'RESULTS'
p1020
S'NNS'
p1021
S'B-NP'
p1022
g5
tp1023
a(S'At'
p1024
S'At'
p1025
S'IN'
p1026
S'B-PP'
p1027
g5
tp1028
a(S'enrollment'
p1029
S'enrollment'
p1030
S'NN'
p1031
S'B-NP'
p1032
g5
tp1033
a(g188
g188
g188
g5
g5
tp1034
a(S'the'
p1035
S'the'
p1036
S'DT'
p1037
S'B-NP'
p1038
g5
tp1039
a(S'proportion'
p1040
S'proportion'
p1041
S'NN'
p1042
S'I-NP'
p1043
g5
tp1044
a(S'of'
p1045
S'of'
p1046
S'IN'
p1047
S'B-PP'
p1048
g5
tp1049
a(S'women'
p1050
S'woman'
p1051
S'NNS'
p1052
S'B-NP'
p1053
g5
tp1054
a(S'in'
p1055
S'in'
p1056
S'IN'
p1057
S'B-PP'
p1058
g5
tp1059
a(S'the'
p1060
S'the'
p1061
S'DT'
p1062
S'B-NP'
p1063
g5
tp1064
a(S'intervention'
p1065
S'intervention'
p1066
S'NN'
p1067
S'I-NP'
p1068
g5
tp1069
a(S'group'
p1070
S'group'
p1071
S'NN'
p1072
S'I-NP'
p1073
g5
tp1074
a(S'who'
p1075
S'who'
p1076
S'WP'
p1077
S'B-NP'
p1078
g5
tp1079
a(S'were'
p1080
S'be'
p1081
S'VBD'
p1082
S'B-VP'
p1083
g5
tp1084
a(S'found'
p1085
S'find'
p1086
S'VBN'
p1087
S'I-VP'
p1088
g5
tp1089
a(S'to'
p1090
S'to'
p1091
S'TO'
p1092
S'I-VP'
p1093
g5
tp1094
a(S'have'
p1095
S'have'
p1096
S'VB'
p1097
S'I-VP'
p1098
g5
tp1099
a(S'lesions'
p1100
S'lesion'
p1101
S'NNS'
p1102
S'B-NP'
p1103
g5
tp1104
a(S'of'
p1105
S'of'
p1106
S'IN'
p1107
S'B-PP'
p1108
g5
tp1109
a(S'grade'
p1110
S'grade'
p1111
S'NN'
p1112
S'B-NP'
p1113
g5
tp1114
a(g159
g159
S'CD'
p1115
S'I-NP'
p1116
g5
tp1117
a(S'or'
p1118
S'or'
p1119
S'CC'
p1120
S'I-NP'
p1121
g5
tp1122
a(g168
g168
S'CD'
p1123
S'I-NP'
p1124
g5
tp1125
a(S'cervical'
p1126
S'cervical'
p1127
S'JJ'
p1128
S'I-NP'
p1129
g5
tp1130
a(S'intraepithelial'
p1131
S'intraepithelial'
p1132
S'JJ'
p1133
S'I-NP'
p1134
g5
tp1135
a(S'neoplasia'
p1136
S'neoplasia'
p1137
S'NN'
p1138
S'I-NP'
p1139
g5
tp1140
a(S'or'
p1141
S'or'
p1142
S'CC'
p1143
S'I-NP'
p1144
g5
tp1145
a(S'cancer'
p1146
S'cancer'
p1147
S'NN'
p1148
S'I-NP'
p1149
g5
tp1150
a(S'was'
p1151
S'be'
p1152
S'VBD'
p1153
S'B-VP'
p1154
g5
tp1155
a(S'51'
p1156
S'51'
p1157
S'CD'
p1158
S'B-NP'
p1159
g5
tp1160
a(S'%'
p1161
g1161
S'NN'
p1162
S'I-NP'
p1163
g5
tp1164
a(S'greater'
p1165
S'great'
p1166
S'JJR'
p1167
S'B-ADJP'
p1168
g5
tp1169
a(g109
g109
g109
g5
g5
tp1170
a(S'95'
p1171
S'95'
p1172
S'CD'
p1173
S'B-NP'
p1174
g5
tp1175
a(g1161
g1161
S'NN'
p1176
S'I-NP'
p1177
g5
tp1178
a(S'confidence'
p1179
S'confidence'
p1180
S'NN'
p1181
S'I-NP'
p1182
g5
tp1183
a(S'interval'
p1184
S'interval'
p1185
S'NN'
p1186
S'I-NP'
p1187
g5
tp1188
a(S'['
p1189
g1189
g109
g5
g5
tp1190
a(S'CI'
p1191
S'CI'
p1192
S'NN'
p1193
S'B-NP'
p1194
g5
tp1195
a(S']'
p1196
g1196
g116
g5
g5
tp1197
a(g188
g188
g188
g5
g5
tp1198
a(S'13'
p1199
S'13'
p1200
S'CD'
p1201
S'B-NP'
p1202
g5
tp1203
a(S'to'
p1204
S'to'
p1205
S'TO'
p1206
S'B-PP'
p1207
g5
tp1208
a(S'102'
p1209
S'102'
p1210
S'CD'
p1211
S'B-NP'
p1212
g5
tp1213
a(g116
g116
g116
g5
g5
tp1214
a(S'than'
p1215
S'than'
p1216
S'IN'
p1217
S'B-PP'
p1218
g5
tp1219
a(S'the'
p1220
S'the'
p1221
S'DT'
p1222
S'B-NP'
p1223
g5
tp1224
a(S'proportion'
p1225
S'proportion'
p1226
S'NN'
p1227
S'I-NP'
p1228
g5
tp1229
a(S'of'
p1230
S'of'
p1231
S'IN'
p1232
S'B-PP'
p1233
g5
tp1234
a(S'women'
p1235
S'woman'
p1236
S'NNS'
p1237
S'B-NP'
p1238
g5
tp1239
a(S'in'
p1240
S'in'
p1241
S'IN'
p1242
S'B-PP'
p1243
g5
tp1244
a(S'the'
p1245
S'the'
p1246
S'DT'
p1247
S'B-NP'
p1248
g5
tp1249
a(S'control'
p1250
S'control'
p1251
S'NN'
p1252
S'I-NP'
p1253
g5
tp1254
a(S'group'
p1255
S'group'
p1256
S'NN'
p1257
S'I-NP'
p1258
g5
tp1259
a(S'who'
p1260
S'who'
p1261
S'WP'
p1262
S'B-NP'
p1263
g5
tp1264
a(S'were'
p1265
S'be'
p1266
S'VBD'
p1267
S'B-VP'
p1268
g5
tp1269
a(S'found'
p1270
S'find'
p1271
S'VBN'
p1272
S'I-VP'
p1273
g5
tp1274
a(S'to'
p1275
S'to'
p1276
S'TO'
p1277
S'I-VP'
p1278
g5
tp1279
a(S'have'
p1280
S'have'
p1281
S'VB'
p1282
S'I-VP'
p1283
g5
tp1284
a(S'such'
p1285
S'such'
p1286
S'JJ'
p1287
S'B-NP'
p1288
g5
tp1289
a(S'lesions.'
p1290
S'lesions.'
p1291
S'NN'
p1292
S'I-NP'
p1293
g5
tp1294
a(S'At'
p1295
S'At'
p1296
S'IN'
p1297
S'B-PP'
p1298
g5
tp1299
a(S'subsequent'
p1300
S'subsequent'
p1301
S'JJ'
p1302
S'B-NP'
p1303
g5
tp1304
a(S'screening'
p1305
S'screening'
p1306
S'NN'
p1307
S'I-NP'
p1308
g5
tp1309
a(S'examinations'
p1310
S'examination'
p1311
S'NNS'
p1312
S'I-NP'
p1313
g5
tp1314
a(g188
g188
g188
g5
g5
tp1315
a(S'the'
p1316
S'the'
p1317
S'DT'
p1318
S'B-NP'
p1319
g5
tp1320
a(S'proportion'
p1321
S'proportion'
p1322
S'NN'
p1323
S'I-NP'
p1324
g5
tp1325
a(S'of'
p1326
S'of'
p1327
S'IN'
p1328
S'B-PP'
p1329
g5
tp1330
a(S'women'
p1331
S'woman'
p1332
S'NNS'
p1333
S'B-NP'
p1334
g5
tp1335
a(S'in'
p1336
S'in'
p1337
S'IN'
p1338
S'B-PP'
p1339
g5
tp1340
a(S'the'
p1341
S'the'
p1342
S'DT'
p1343
S'B-NP'
p1344
g5
tp1345
a(S'intervention'
p1346
S'intervention'
p1347
S'NN'
p1348
S'I-NP'
p1349
g5
tp1350
a(S'group'
p1351
S'group'
p1352
S'NN'
p1353
S'I-NP'
p1354
g5
tp1355
a(S'who'
p1356
S'who'
p1357
S'WP'
p1358
S'B-NP'
p1359
g5
tp1360
a(S'were'
p1361
S'be'
p1362
S'VBD'
p1363
S'B-VP'
p1364
g5
tp1365
a(S'found'
p1366
S'find'
p1367
S'VBN'
p1368
S'I-VP'
p1369
g5
tp1370
a(S'to'
p1371
S'to'
p1372
S'TO'
p1373
S'I-VP'
p1374
g5
tp1375
a(S'have'
p1376
S'have'
p1377
S'VB'
p1378
S'I-VP'
p1379
g5
tp1380
a(S'grade'
p1381
S'grade'
p1382
S'NN'
p1383
S'B-NP'
p1384
g5
tp1385
a(g159
g159
S'CD'
p1386
S'I-NP'
p1387
g5
tp1388
a(S'or'
p1389
S'or'
p1390
S'CC'
p1391
S'I-NP'
p1392
g5
tp1393
a(g168
g168
S'CD'
p1394
S'I-NP'
p1395
g5
tp1396
a(S'lesions'
p1397
S'lesion'
p1398
S'NNS'
p1399
S'I-NP'
p1400
g5
tp1401
a(S'or'
p1402
S'or'
p1403
S'CC'
p1404
S'I-NP'
p1405
g5
tp1406
a(S'cancer'
p1407
S'cancer'
p1408
S'NN'
p1409
S'I-NP'
p1410
g5
tp1411
a(S'was'
p1412
S'be'
p1413
S'VBD'
p1414
S'B-VP'
p1415
g5
tp1416
a(S'42'
p1417
S'42'
p1418
S'CD'
p1419
S'B-NP'
p1420
g5
tp1421
a(g1161
g1161
S'NN'
p1422
S'I-NP'
p1423
g5
tp1424
a(S'less'
p1425
S'less'
p1426
S'JJR'
p1427
S'B-ADJP'
p1428
g5
tp1429
a(g109
g109
g109
g5
g5
tp1430
a(S'95'
p1431
S'95'
p1432
S'CD'
p1433
S'B-NP'
p1434
g5
tp1435
a(g1161
g1161
S'NN'
p1436
S'I-NP'
p1437
g5
tp1438
a(S'CI'
p1439
S'CI'
p1440
S'NN'
p1441
S'I-NP'
p1442
g5
tp1443
a(g188
g188
g188
g5
g5
tp1444
a(S'4'
p1445
g1445
S'CD'
p1446
S'B-NP'
p1447
g5
tp1448
a(S'to'
p1449
S'to'
p1450
S'TO'
p1451
S'B-PP'
p1452
g5
tp1453
a(S'64'
p1454
S'64'
p1455
S'CD'
p1456
S'B-NP'
p1457
g5
tp1458
a(g116
g116
g116
g5
g5
tp1459
a(S'and'
p1460
S'and'
p1461
S'CC'
p1462
g5
g5
tp1463
a(S'the'
p1464
S'the'
p1465
S'DT'
p1466
S'B-NP'
p1467
g5
tp1468
a(S'proportion'
p1469
S'proportion'
p1470
S'NN'
p1471
S'I-NP'
p1472
g5
tp1473
a(S'with'
p1474
S'with'
p1475
S'IN'
p1476
S'B-PP'
p1477
g5
tp1478
a(S'grade'
p1479
S'grade'
p1480
S'NN'
p1481
S'B-NP'
p1482
g5
tp1483
a(g168
g168
S'CD'
p1484
S'I-NP'
p1485
g5
tp1486
a(S'lesions'
p1487
S'lesion'
p1488
S'NNS'
p1489
S'I-NP'
p1490
g5
tp1491
a(S'or'
p1492
S'or'
p1493
S'CC'
p1494
S'I-NP'
p1495
g5
tp1496
a(S'cancer'
p1497
S'cancer'
p1498
S'NN'
p1499
S'I-NP'
p1500
g5
tp1501
a(S'was'
p1502
S'be'
p1503
S'VBD'
p1504
S'B-VP'
p1505
g5
tp1506
a(S'47'
p1507
S'47'
p1508
S'CD'
p1509
S'B-NP'
p1510
g5
tp1511
a(g1161
g1161
S'NN'
p1512
S'I-NP'
p1513
g5
tp1514
a(S'less'
p1515
S'less'
p1516
S'JJR'
p1517
S'B-ADJP'
p1518
g5
tp1519
a(g109
g109
g109
g5
g5
tp1520
a(S'95'
p1521
S'95'
p1522
S'CD'
p1523
S'B-NP'
p1524
g5
tp1525
a(g1161
g1161
S'NN'
p1526
S'I-NP'
p1527
g5
tp1528
a(S'CI'
p1529
S'CI'
p1530
S'NN'
p1531
S'I-NP'
p1532
g5
tp1533
a(g188
g188
g188
g5
g5
tp1534
a(g159
g159
S'CD'
p1535
S'B-NP'
p1536
g5
tp1537
a(S'to'
p1538
S'to'
p1539
S'TO'
p1540
S'B-PP'
p1541
g5
tp1542
a(S'71'
p1543
S'71'
p1544
S'CD'
p1545
S'B-NP'
p1546
g5
tp1547
a(g116
g116
g116
g5
g5
tp1548
a(S'than'
p1549
S'than'
p1550
S'IN'
p1551
S'B-PP'
p1552
g5
tp1553
a(S'the'
p1554
S'the'
p1555
S'DT'
p1556
S'B-NP'
p1557
g5
tp1558
a(S'proportions'
p1559
S'proportion'
p1560
S'NNS'
p1561
S'I-NP'
p1562
g5
tp1563
a(S'of'
p1564
S'of'
p1565
S'IN'
p1566
S'B-PP'
p1567
g5
tp1568
a(S'control'
p1569
S'control'
p1570
S'NN'
p1571
S'B-NP'
p1572
g5
tp1573
a(S'women'
p1574
S'woman'
p1575
S'NNS'
p1576
S'I-NP'
p1577
g5
tp1578
a(S'who'
p1579
S'who'
p1580
S'WP'
p1581
S'B-NP'
p1582
g5
tp1583
a(S'were'
p1584
S'be'
p1585
S'VBD'
p1586
S'B-VP'
p1587
g5
tp1588
a(S'found'
p1589
S'find'
p1590
S'VBN'
p1591
S'I-VP'
p1592
g5
tp1593
a(S'to'
p1594
S'to'
p1595
S'TO'
p1596
S'I-VP'
p1597
g5
tp1598
a(S'have'
p1599
S'have'
p1600
S'VB'
p1601
S'I-VP'
p1602
g5
tp1603
a(S'such'
p1604
S'such'
p1605
S'JJ'
p1606
S'B-NP'
p1607
g5
tp1608
a(S'lesions.'
p1609
S'lesions.'
p1610
S'NN'
p1611
S'I-NP'
p1612
g5
tp1613
a(S'Women'
p1614
S'Woman'
p1615
S'NNS'
p1616
S'I-NP'
p1617
g5
tp1618
a(S'with'
p1619
S'with'
p1620
S'IN'
p1621
S'B-PP'
p1622
g5
tp1623
a(S'persistent'
p1624
S'persistent'
p1625
S'JJ'
p1626
S'B-NP'
p1627
g5
tp1628
a(S'HPV'
p1629
S'HPV'
p1630
S'NN'
p1631
S'I-NP'
p1632
g5
tp1633
a(S'infection'
p1634
S'infection'
p1635
S'NN'
p1636
S'I-NP'
p1637
g5
tp1638
a(S'remained'
p1639
S'remain'
p1640
S'VBD'
p1641
S'B-VP'
p1642
g5
tp1643
a(S'at'
p1644
S'at'
p1645
S'IN'
p1646
S'B-PP'
p1647
g5
tp1648
a(S'high'
p1649
S'high'
p1650
S'JJ'
p1651
S'B-NP'
p1652
g5
tp1653
a(S'risk'
p1654
S'risk'
p1655
S'NN'
p1656
S'I-NP'
p1657
g5
tp1658
a(S'for'
p1659
S'for'
p1660
S'IN'
p1661
S'B-PP'
p1662
g5
tp1663
a(S'grade'
p1664
S'grade'
p1665
S'NN'
p1666
S'B-NP'
p1667
g5
tp1668
a(g159
g159
S'CD'
p1669
S'I-NP'
p1670
g5
tp1671
a(S'or'
p1672
S'or'
p1673
S'CC'
p1674
S'I-NP'
p1675
g5
tp1676
a(g168
g168
S'CD'
p1677
S'I-NP'
p1678
g5
tp1679
a(S'lesions'
p1680
S'lesion'
p1681
S'NNS'
p1682
S'I-NP'
p1683
g5
tp1684
a(S'or'
p1685
S'or'
p1686
S'CC'
p1687
S'I-NP'
p1688
g5
tp1689
a(S'cancer'
p1690
S'cancer'
p1691
S'NN'
p1692
S'I-NP'
p1693
g5
tp1694
a(S'after'
p1695
S'after'
p1696
S'IN'
p1697
S'B-PP'
p1698
g5
tp1699
a(S'referral'
p1700
S'referral'
p1701
S'NN'
p1702
S'B-NP'
p1703
g5
tp1704
a(S'for'
p1705
S'for'
p1706
S'IN'
p1707
S'B-PP'
p1708
g5
tp1709
a(S'colposcopy'
p1710
S'colposcopy'
p1711
S'NN'
p1712
S'B-NP'
p1713
g5
tp1714
a(g52
g52
g52
g5
g5
tp1715
a(S'CONCLUSIONS'
p1716
S'CONCLUSIONS'
p1717
S'NNS'
p1718
S'B-NP'
p1719
g5
tp1720
a(S'The'
p1721
S'The'
p1722
S'DT'
p1723
S'B-NP'
p1724
g5
tp1725
a(S'addition'
p1726
S'addition'
p1727
S'NN'
p1728
S'I-NP'
p1729
g5
tp1730
a(S'of'
p1731
S'of'
p1732
S'IN'
p1733
S'B-PP'
p1734
g5
tp1735
a(S'an'
p1736
S'an'
p1737
S'DT'
p1738
S'B-NP'
p1739
g5
tp1740
a(S'HPV'
p1741
S'HPV'
p1742
S'NN'
p1743
S'I-NP'
p1744
g5
tp1745
a(S'test'
p1746
S'test'
p1747
S'NN'
p1748
S'I-NP'
p1749
g5
tp1750
a(S'to'
p1751
S'to'
p1752
S'TO'
p1753
S'B-PP'
p1754
g5
tp1755
a(S'the'
p1756
S'the'
p1757
S'DT'
p1758
S'B-NP'
p1759
g5
tp1760
a(S'Pap'
p1761
S'Pap'
p1762
S'NN'
p1763
S'I-NP'
p1764
g5
tp1765
a(S'test'
p1766
S'test'
p1767
S'NN'
p1768
S'I-NP'
p1769
g5
tp1770
a(S'to'
p1771
S'to'
p1772
S'TO'
p1773
S'B-VP'
p1774
g5
tp1775
a(S'screen'
p1776
S'screen'
p1777
S'VB'
p1778
S'I-VP'
p1779
g5
tp1780
a(S'women'
p1781
S'woman'
p1782
S'NNS'
p1783
S'B-NP'
p1784
g5
tp1785
a(S'in'
p1786
S'in'
p1787
S'IN'
p1788
S'B-PP'
p1789
g5
tp1790
a(S'their'
p1791
S'their'
p1792
S'PRP$'
p1793
S'B-NP'
p1794
g5
tp1795
a(S'mid-30s'
p1796
S'mid-30'
p1797
S'NNS'
p1798
S'I-NP'
p1799
g5
tp1800
a(S'for'
p1801
S'for'
p1802
S'IN'
p1803
S'B-PP'
p1804
g5
tp1805
a(S'cervical'
p1806
S'cervical'
p1807
S'JJ'
p1808
S'B-NP'
p1809
g5
tp1810
a(S'cancer'
p1811
S'cancer'
p1812
S'NN'
p1813
S'I-NP'
p1814
g5
tp1815
a(S'reduces'
p1816
S'reduce'
p1817
S'VBZ'
p1818
S'B-VP'
p1819
g5
tp1820
a(S'the'
p1821
S'the'
p1822
S'DT'
p1823
S'B-NP'
p1824
g5
tp1825
a(S'incidence'
p1826
S'incidence'
p1827
S'NN'
p1828
S'I-NP'
p1829
g5
tp1830
a(S'of'
p1831
S'of'
p1832
S'IN'
p1833
S'B-PP'
p1834
g5
tp1835
a(S'grade'
p1836
S'grade'
p1837
S'NN'
p1838
S'B-NP'
p1839
g5
tp1840
a(g159
g159
S'CD'
p1841
S'I-NP'
p1842
g5
tp1843
a(S'or'
p1844
S'or'
p1845
S'CC'
p1846
S'I-NP'
p1847
g5
tp1848
a(g168
g168
S'CD'
p1849
S'I-NP'
p1850
g5
tp1851
a(S'cervical'
p1852
S'cervical'
p1853
S'JJ'
p1854
S'I-NP'
p1855
g5
tp1856
a(S'intraepithelial'
p1857
S'intraepithelial'
p1858
S'JJ'
p1859
S'I-NP'
p1860
g5
tp1861
a(S'neoplasia'
p1862
S'neoplasia'
p1863
S'NN'
p1864
S'I-NP'
p1865
g5
tp1866
a(S'or'
p1867
S'or'
p1868
S'CC'
p1869
S'I-NP'
p1870
g5
tp1871
a(S'cancer'
p1872
S'cancer'
p1873
S'NN'
p1874
S'I-NP'
p1875
g5
tp1876
a(S'detected'
p1877
S'detect'
p1878
S'VBN'
p1879
S'B-VP'
p1880
g5
tp1881
a(S'by'
p1882
S'by'
p1883
S'IN'
p1884
S'B-PP'
p1885
g5
tp1886
a(S'subsequent'
p1887
S'subsequent'
p1888
S'JJ'
p1889
S'B-NP'
p1890
g5
tp1891
a(S'screening'
p1892
S'screening'
p1893
S'NN'
p1894
S'I-NP'
p1895
g5
tp1896
a(S'examinations.'
p1897
S'examinations.'
p1898
S'NN'
p1899
S'I-NP'
p1900
g5
tp1901
a(g109
g109
g109
g5
g5
tp1902
a(S'ClinicalTrials.gov'
p1903
S'ClinicalTrials.gov'
p1904
S'NN'
p1905
S'B-NP'
p1906
g5
tp1907
a(S'number'
p1908
S'number'
p1909
S'NN'
p1910
S'I-NP'
p1911
g5
tp1912
a(g188
g188
g188
g5
g5
tp1913
a(S'NCT00479375'
p1914
S'NCT00479375'
p1915
S'NN'
p1916
S'B-NP'
p1917
g5
tp1918
a(g1189
g1189
g109
g5
g5
tp1919
a(S'ClinicalTrials.gov'
p1920
S'ClinicalTrials.gov'
p1921
S'NN'
p1922
S'B-NP'
p1923
g5
tp1924
a(g1196
g1196
g116
g5
g5
tp1925
a(g52
g52
g52
g5
g5
tp1926
a(g116
g116
g116
g5
g5
tp1927
a(g52
g52
g52
g5
g5
tp1928
a.