(lp0
(S'Whole-body'
p1
S'Whole-body'
p2
S'JJ'
p3
S'B-NP'
p4
S'O'
p5
tp6
a(S'CT'
p7
S'CT'
p8
S'NN'
p9
S'I-NP'
p10
g5
tp11
a(S'screening'
p12
S'screening'
p13
S'NN'
p14
S'I-NP'
p15
g5
tp16
a(S':'
p17
g17
g17
g5
g5
tp18
a(S'scan'
p19
S'scan'
p20
S'NN'
p21
S'B-NP'
p22
g5
tp23
a(S'delay'
p24
S'delay'
p25
S'NN'
p26
S'I-NP'
p27
g5
tp28
a(S'and'
p29
S'and'
p30
S'CC'
p31
g5
g5
tp32
a(S'contrast'
p33
S'contrast'
p34
S'NN'
p35
S'B-NP'
p36
g5
tp37
a(S'injection'
p38
S'injection'
p39
S'NN'
p40
S'I-NP'
p41
g5
tp42
a(S'duration'
p43
S'duration'
p44
S'NN'
p45
S'I-NP'
p46
g5
tp47
a(S'for'
p48
S'for'
p49
S'IN'
p50
S'B-PP'
p51
g5
tp52
a(S'optimal'
p53
S'optimal'
p54
S'JJ'
p55
S'B-NP'
p56
g5
tp57
a(S'enhancement'
p58
S'enhancement'
p59
S'NN'
p60
S'I-NP'
p61
g5
tp62
a(S'of'
p63
S'of'
p64
S'IN'
p65
S'B-PP'
p66
g5
tp67
a(S'abdominal'
p68
S'abdominal'
p69
S'JJ'
p70
S'B-NP'
p71
g5
tp72
a(S'organs'
p73
S'organ'
p74
S'NNS'
p75
S'I-NP'
p76
g5
tp77
a(S'and'
p78
S'and'
p79
S'CC'
p80
g5
g5
tp81
a(S'deep'
p82
S'deep'
p83
S'JJ'
p84
S'B-NP'
p85
g5
tp86
a(S'vessels'
p87
S'vessel'
p88
S'NNS'
p89
S'I-NP'
p90
g5
tp91
a(S'.'
p92
g92
g92
g5
g5
tp93
a(S'PURPOSE'
p94
S'PURPOSE'
p95
S'NN'
p96
S'B-NP'
p97
g5
tp98
a(S'To'
p99
S'To'
p100
S'TO'
p101
S'B-VP'
p102
g5
tp103
a(S'assess'
p104
S'assess'
p105
S'VB'
p106
S'I-VP'
p107
g5
tp108
a(S'the'
p109
S'the'
p110
S'DT'
p111
S'B-NP'
p112
g5
tp113
a(S'optimal'
p114
S'optimal'
p115
S'JJ'
p116
S'I-NP'
p117
g5
tp118
a(S'scan'
p119
S'scan'
p120
S'NN'
p121
S'I-NP'
p122
g5
tp123
a(S'delays'
p124
S'delay'
p125
S'NNS'
p126
S'I-NP'
p127
g5
tp128
a(S'and'
p129
S'and'
p130
S'CC'
p131
g5
g5
tp132
a(S'contrast'
p133
S'contrast'
p134
S'NN'
p135
S'B-NP'
p136
g5
tp137
a(S'injection'
p138
S'injection'
p139
S'NN'
p140
S'I-NP'
p141
g5
tp142
a(S'durations'
p143
S'duration'
p144
S'NNS'
p145
S'I-NP'
p146
g5
tp147
a(S'for'
p148
S'for'
p149
S'IN'
p150
S'B-PP'
p151
g5
tp152
a(S'contrast-enhanced'
p153
S'contrast-enhanced'
p154
S'JJ'
p155
S'B-NP'
p156
g5
tp157
a(S'whole-body'
p158
S'whole-body'
p159
S'JJ'
p160
S'I-NP'
p161
g5
tp162
a(S'computed'
p163
S'compute'
p164
S'VBN'
p165
S'I-NP'
p166
g5
tp167
a(S'tomography'
p168
S'tomography'
p169
S'NN'
p170
S'I-NP'
p171
g5
tp172
a(S'('
p173
g173
g173
g5
g5
tp174
a(S'CT'
p175
S'CT'
p176
S'NN'
p177
S'B-NP'
p178
S'B-protein'
p179
tp180
a(S')'
p181
g181
g181
g5
g5
tp182
a(g92
g92
g92
g5
g5
tp183
a(S'MATERIALS'
p184
S'MATERIALS'
p185
S'NNS'
p186
S'B-NP'
p187
g5
tp188
a(S'AND'
p189
S'AND'
p190
S'CC'
p191
S'I-NP'
p192
g5
tp193
a(S'METHODS'
p194
S'METHODS'
p195
S'NNS'
p196
S'I-NP'
p197
g5
tp198
a(S'One'
p199
S'One'
p200
S'CD'
p201
S'B-NP'
p202
g5
tp203
a(S'hundred'
p204
S'hundred'
p205
S'CD'
p206
S'I-NP'
p207
g5
tp208
a(S'forty-two'
p209
S'forty-two'
p210
S'CD'
p211
S'I-NP'
p212
g5
tp213
a(S'patients'
p214
S'patient'
p215
S'NNS'
p216
S'I-NP'
p217
g5
tp218
a(S'were'
p219
S'be'
p220
S'VBD'
p221
S'B-VP'
p222
g5
tp223
a(S'randomized'
p224
S'randomize'
p225
S'VBN'
p226
S'I-VP'
p227
g5
tp228
a(S'into'
p229
S'into'
p230
S'IN'
p231
S'B-PP'
p232
g5
tp233
a(S'three'
p234
S'three'
p235
S'CD'
p236
S'B-NP'
p237
g5
tp238
a(S'groups'
p239
S'group'
p240
S'NNS'
p241
S'I-NP'
p242
g5
tp243
a(g17
g17
g17
g5
g5
tp244
a(S'protocol'
p245
S'protocol'
p246
S'NN'
p247
S'B-NP'
p248
g5
tp249
a(S'A-scan'
p250
S'A-scan'
p251
S'JJ'
p252
S'I-NP'
p253
g5
tp254
a(S'delay'
p255
S'delay'
p256
S'NN'
p257
S'I-NP'
p258
g5
tp259
a(S'of'
p260
S'of'
p261
S'IN'
p262
S'B-PP'
p263
g5
tp264
a(S'65'
p265
S'65'
p266
S'CD'
p267
S'B-NP'
p268
g5
tp269
a(S's'
p270
g270
S'NN'
p271
S'I-NP'
p272
g5
tp273
a(S'after'
p274
S'after'
p275
S'IN'
p276
S'B-PP'
p277
g5
tp278
a(S'starting'
p279
S'start'
p280
S'VBG'
p281
S'B-VP'
p282
g5
tp283
a(S'contrast'
p284
S'contrast'
p285
S'NN'
p286
S'B-NP'
p287
g5
tp288
a(S'injection'
p289
S'injection'
p290
S'NN'
p291
S'I-NP'
p292
g5
tp293
a(S'over'
p294
S'over'
p295
S'IN'
p296
S'B-NP'
p297
g5
tp298
a(S'30'
p299
S'30'
p300
S'CD'
p301
S'I-NP'
p302
g5
tp303
a(g270
g270
S'NN'
p304
S'I-NP'
p305
g5
tp306
a(S';'
p307
g307
g17
g5
g5
tp308
a(S'protocol'
p309
S'protocol'
p310
S'NN'
p311
S'B-NP'
p312
g5
tp313
a(S'B-105'
p314
S'B-105'
p315
S'NN'
p316
S'I-NP'
p317
g5
tp318
a(S'and'
p319
S'and'
p320
S'CC'
p321
g5
g5
tp322
a(S'70'
p323
S'70'
p324
S'CD'
p325
S'B-NP'
p326
g5
tp327
a(g270
g270
S'NN'
p328
S'I-NP'
p329
g5
tp330
a(g307
g307
g17
g5
g5
tp331
a(S'and'
p332
S'and'
p333
S'CC'
p334
g5
g5
tp335
a(S'protocol'
p336
S'protocol'
p337
S'NN'
p338
S'B-NP'
p339
g5
tp340
a(S'C-145'
p341
S'C-145'
p342
S'NN'
p343
S'I-NP'
p344
g5
tp345
a(S'and'
p346
S'and'
p347
S'CC'
p348
g5
g5
tp349
a(S'110'
p350
S'110'
p351
S'CD'
p352
S'B-NP'
p353
g5
tp354
a(g270
g270
S'NN'
p355
S'I-NP'
p356
g5
tp357
a(S','
p358
g358
g358
g5
g5
tp359
a(S'respectively.'
p360
S'respectively.'
p361
S'NN'
p362
S'B-NP'
p363
g5
tp364
a(S'Contrast'
p365
S'Contrast'
p366
S'NN'
p367
S'I-NP'
p368
g5
tp369
a(S'enhancement'
p370
S'enhancement'
p371
S'NN'
p372
S'I-NP'
p373
g5
tp374
a(S'and'
p375
S'and'
p376
S'CC'
p377
g5
g5
tp378
a(S'diagnostic'
p379
S'diagnostic'
p380
S'JJ'
p381
S'B-NP'
p382
g5
tp383
a(S'acceptability'
p384
S'acceptability'
p385
S'NN'
p386
S'I-NP'
p387
g5
tp388
a(S'were'
p389
S'be'
p390
S'VBD'
p391
S'B-VP'
p392
g5
tp393
a(S'assessed'
p394
S'assess'
p395
S'VBN'
p396
S'I-VP'
p397
g5
tp398
a(g92
g92
g92
g5
g5
tp399
a(S'RESULTS'
p400
S'RESULTS'
p401
S'NNS'
p402
S'B-NP'
p403
g5
tp404
a(S'Qualitative'
p405
S'Qualitative'
p406
S'JJ'
p407
S'I-NP'
p408
g5
tp409
a(S'assessment'
p410
S'assessment'
p411
S'NN'
p412
S'I-NP'
p413
g5
tp414
a(S'was'
p415
S'be'
p416
S'VBD'
p417
S'B-VP'
p418
g5
tp419
a(S'subtle'
p420
S'subtle'
p421
S'JJ'
p422
S'B-ADJP'
p423
g5
tp424
a(S'among'
p425
S'among'
p426
S'IN'
p427
S'B-PP'
p428
g5
tp429
a(S'the'
p430
S'the'
p431
S'DT'
p432
S'B-NP'
p433
g5
tp434
a(S'three'
p435
S'three'
p436
S'CD'
p437
S'I-NP'
p438
g5
tp439
a(S'protocols.'
p440
S'protocols.'
p441
S'NN'
p442
S'I-NP'
p443
g5
tp444
a(S'Homogenous'
p445
S'Homogenous'
p446
S'JJ'
p447
S'I-NP'
p448
g5
tp449
a(S'enhancement'
p450
S'enhancement'
p451
S'NN'
p452
S'I-NP'
p453
g5
tp454
a(S'of'
p455
S'of'
p456
S'IN'
p457
S'B-PP'
p458
g5
tp459
a(S'deep'
p460
S'deep'
p461
S'JJ'
p462
S'B-NP'
p463
g5
tp464
a(S'veins'
p465
S'vein'
p466
S'NNS'
p467
S'I-NP'
p468
g5
tp469
a(S'was'
p470
S'be'
p471
S'VBD'
p472
S'B-VP'
p473
g5
tp474
a(S'more'
p475
S'more'
p476
S'RBR'
p477
S'I-VP'
p478
g5
tp479
a(S'assuredly'
p480
S'assuredly'
p481
S'RB'
p482
S'I-VP'
p483
g5
tp484
a(S'achieved'
p485
S'achieve'
p486
S'VBN'
p487
S'I-VP'
p488
g5
tp489
a(S'with'
p490
S'with'
p491
S'IN'
p492
S'B-PP'
p493
g5
tp494
a(S'protocol'
p495
S'protocol'
p496
S'NN'
p497
S'B-NP'
p498
g5
tp499
a(S'C'
p500
g500
S'NN'
p501
S'I-NP'
p502
g5
tp503
a(g92
g92
g92
g5
g5
tp504
a(S'CONCLUSION'
p505
S'CONCLUSION'
p506
S'NN'
p507
S'B-NP'
p508
g5
tp509
a(S'With'
p510
S'With'
p511
S'IN'
p512
S'B-PP'
p513
g5
tp514
a(S'protocol'
p515
S'protocol'
p516
S'NN'
p517
S'B-NP'
p518
g5
tp519
a(g500
g500
S'NN'
p520
S'I-NP'
p521
g5
tp522
a(g358
g358
g358
g5
g5
tp523
a(S'qualitatively'
p524
S'qualitatively'
p525
S'RB'
p526
S'B-NP'
p527
g5
tp528
a(S'acceptable'
p529
S'acceptable'
p530
S'JJ'
p531
S'I-NP'
p532
g5
tp533
a(S'enhancement'
p534
S'enhancement'
p535
S'NN'
p536
S'I-NP'
p537
g5
tp538
a(S'can'
p539
S'can'
p540
S'MD'
p541
S'B-VP'
p542
g5
tp543
a(S'be'
p544
S'be'
p545
S'VB'
p546
S'I-VP'
p547
g5
tp548
a(S'obtained'
p549
S'obtain'
p550
S'VBN'
p551
S'I-VP'
p552
g5
tp553
a(S'in'
p554
S'in'
p555
S'IN'
p556
S'B-PP'
p557
g5
tp558
a(S'whole-body'
p559
S'whole-body'
p560
S'JJ'
p561
S'B-NP'
p562
g5
tp563
a(S'CT'
p564
S'CT'
p565
S'NN'
p566
S'I-NP'
p567
g5
tp568
a(g92
g92
g92
g5
g5
tp569
a.