(lp0
(S'Physiologic'
p1
S'Physiologic'
p2
S'JJ'
p3
S'B-NP'
p4
S'O'
p5
tp6
a(S'modeling'
p7
S'modeling'
p8
S'NN'
p9
S'I-NP'
p10
g5
tp11
a(S'of'
p12
S'of'
p13
S'IN'
p14
S'B-PP'
p15
g5
tp16
a(S'the'
p17
S'the'
p18
S'DT'
p19
S'B-NP'
p20
g5
tp21
a(S'intravenous'
p22
S'intravenous'
p23
S'JJ'
p24
S'I-NP'
p25
g5
tp26
a(S'glucose'
p27
S'glucose'
p28
S'NN'
p29
S'I-NP'
p30
g5
tp31
a(S'tolerance'
p32
S'tolerance'
p33
S'NN'
p34
S'I-NP'
p35
g5
tp36
a(S'test'
p37
S'test'
p38
S'NN'
p39
S'I-NP'
p40
g5
tp41
a(S'in'
p42
S'in'
p43
S'IN'
p44
S'B-PP'
p45
g5
tp46
a(S'type'
p47
S'type'
p48
S'NN'
p49
S'B-NP'
p50
g5
tp51
a(S'2'
p52
g52
S'CD'
p53
S'I-NP'
p54
g5
tp55
a(S'diabetes'
p56
S'diabete'
p57
S'NNS'
p58
S'I-NP'
p59
g5
tp60
a(S':'
p61
g61
g61
g5
g5
tp62
a(S'a'
p63
g63
S'DT'
p64
S'B-NP'
p65
g5
tp66
a(S'new'
p67
S'new'
p68
S'JJ'
p69
S'I-NP'
p70
g5
tp71
a(S'approach'
p72
S'approach'
p73
S'NN'
p74
S'I-NP'
p75
g5
tp76
a(S'to'
p77
S'to'
p78
S'TO'
p79
S'B-PP'
p80
g5
tp81
a(S'the'
p82
S'the'
p83
S'DT'
p84
S'B-NP'
p85
g5
tp86
a(S'insulin'
p87
S'insulin'
p88
S'NN'
p89
S'I-NP'
p90
g5
tp91
a(S'compartment'
p92
S'compartment'
p93
S'NN'
p94
S'I-NP'
p95
g5
tp96
a(S'.'
p97
g97
g97
g5
g5
tp98
a(S'The'
p99
S'The'
p100
S'DT'
p101
S'B-NP'
p102
g5
tp103
a(S'minimal'
p104
S'minimal'
p105
S'JJ'
p106
S'I-NP'
p107
g5
tp108
a(S'model'
p109
S'model'
p110
S'NN'
p111
S'I-NP'
p112
g5
tp113
a(S'of'
p114
S'of'
p115
S'IN'
p116
S'B-PP'
p117
g5
tp118
a(S'Bergman'
p119
S'Bergman'
p120
S'NNP'
p121
S'B-NP'
p122
g5
tp123
a(S'et'
p124
S'et'
p125
S'FW'
p126
S'I-NP'
p127
g5
tp128
a(S'al'
p129
S'al'
p130
S'FW'
p131
S'I-NP'
p132
g5
tp133
a(S'has'
p134
S'have'
p135
S'VBZ'
p136
S'B-VP'
p137
g5
tp138
a(S'been'
p139
S'be'
p140
S'VBN'
p141
S'I-VP'
p142
g5
tp143
a(S'used'
p144
S'use'
p145
S'VBN'
p146
S'I-VP'
p147
g5
tp148
a(S'to'
p149
S'to'
p150
S'TO'
p151
S'B-VP'
p152
g5
tp153
a(S'yield'
p154
S'yield'
p155
S'VB'
p156
S'I-VP'
p157
g5
tp158
a(S'estimates'
p159
S'estimate'
p160
S'NNS'
p161
S'B-NP'
p162
g5
tp163
a(S'of'
p164
S'of'
p165
S'IN'
p166
S'B-PP'
p167
g5
tp168
a(S'insulin'
p169
S'insulin'
p170
S'NN'
p171
S'B-NP'
p172
g5
tp173
a(S'sensitivity'
p174
S'sensitivity'
p175
S'NN'
p176
S'I-NP'
p177
g5
tp178
a(S'('
p179
g179
g179
g5
g5
tp180
a(S'Si'
p181
S'Si'
p182
S'NN'
p183
S'B-NP'
p184
g5
tp185
a(S')'
p186
g186
g186
g5
g5
tp187
a(S'and'
p188
S'and'
p189
S'CC'
p190
g5
g5
tp191
a(S'glucose'
p192
S'glucose'
p193
S'NN'
p194
S'B-NP'
p195
g5
tp196
a(S'effectiveness'
p197
S'effectiveness'
p198
S'NN'
p199
S'I-NP'
p200
g5
tp201
a(g179
g179
g179
g5
g5
tp202
a(S'Sg'
p203
S'Sg'
p204
S'NN'
p205
S'B-NP'
p206
g5
tp207
a(g186
g186
g186
g5
g5
tp208
a(S'in'
p209
S'in'
p210
S'IN'
p211
S'B-PP'
p212
g5
tp213
a(S'type'
p214
S'type'
p215
S'NN'
p216
S'B-NP'
p217
g5
tp218
a(g52
g52
S'CD'
p219
S'I-NP'
p220
g5
tp221
a(S'diabetes'
p222
S'diabetes'
p223
S'NN'
p224
S'I-NP'
p225
g5
tp226
a(S'by'
p227
S'by'
p228
S'IN'
p229
S'B-PP'
p230
g5
tp231
a(S'incorporating'
p232
S'incorporate'
p233
S'VBG'
p234
S'B-VP'
p235
g5
tp236
a(S'exogenous'
p237
S'exogenous'
p238
S'JJ'
p239
S'B-NP'
p240
g5
tp241
a(S'insulin'
p242
S'insulin'
p243
S'NN'
p244
S'I-NP'
p245
g5
tp246
a(S'protocols'
p247
S'protocol'
p248
S'NNS'
p249
S'I-NP'
p250
g5
tp251
a(S'into'
p252
S'into'
p253
S'IN'
p254
S'B-PP'
p255
g5
tp256
a(S'the'
p257
S'the'
p258
S'DT'
p259
S'B-NP'
p260
g5
tp261
a(S'regular'
p262
S'regular'
p263
S'JJ'
p264
S'I-NP'
p265
g5
tp266
a(S'intravenous'
p267
S'intravenous'
p268
S'JJ'
p269
S'I-NP'
p270
g5
tp271
a(S'glucose'
p272
S'glucose'
p273
S'NN'
p274
S'I-NP'
p275
g5
tp276
a(S'tolerance'
p277
S'tolerance'
p278
S'NN'
p279
S'I-NP'
p280
g5
tp281
a(S'test'
p282
S'test'
p283
S'NN'
p284
S'I-NP'
p285
g5
tp286
a(g179
g179
g179
g5
g5
tp287
a(S'IVGTT'
p288
S'IVGTT'
p289
S'NN'
p290
S'B-NP'
p291
S'B-protein'
p292
tp293
a(g186
g186
g186
g5
g5
tp294
a(g97
g97
g97
g5
g5
tp295
a(S'These'
p296
S'These'
p297
S'DT'
p298
S'B-NP'
p299
g5
tp300
a(S'estimates'
p301
S'estimate'
p302
S'NNS'
p303
S'I-NP'
p304
g5
tp305
a(S','
p306
g306
g306
g5
g5
tp307
a(S'however'
p308
S'however'
p309
S'RB'
p310
S'B-ADVP'
p311
g5
tp312
a(g306
g306
g306
g5
g5
tp313
a(S'are'
p314
S'be'
p315
S'VBP'
p316
S'B-VP'
p317
g5
tp318
a(S'influenced'
p319
S'influence'
p320
S'VBN'
p321
S'I-VP'
p322
g5
tp323
a(S'by'
p324
S'by'
p325
S'IN'
p326
S'B-PP'
p327
g5
tp328
a(S'the'
p329
S'the'
p330
S'DT'
p331
S'B-NP'
p332
g5
tp333
a(S'degree'
p334
S'degree'
p335
S'NN'
p336
S'I-NP'
p337
g5
tp338
a(S'to'
p339
S'to'
p340
S'TO'
p341
S'B-PP'
p342
g5
tp343
a(S'which'
p344
S'which'
p345
S'WDT'
p346
S'B-NP'
p347
g5
tp348
a(S'the'
p349
S'the'
p350
S'DT'
p351
S'B-NP'
p352
g5
tp353
a(S'dose'
p354
S'dose'
p355
S'NN'
p356
S'I-NP'
p357
g5
tp358
a(S'of'
p359
S'of'
p360
S'IN'
p361
S'B-PP'
p362
g5
tp363
a(S'exogenous'
p364
S'exogenous'
p365
S'JJ'
p366
S'B-NP'
p367
S'B-protein'
p368
tp369
a(S'insulin'
p370
S'insulin'
p371
S'NN'
p372
S'I-NP'
p373
S'I-protein'
p374
tp375
a(S'is'
p376
S'be'
p377
S'VBZ'
p378
S'B-VP'
p379
g5
tp380
a(S'greater'
p381
S'great'
p382
S'JJR'
p383
S'B-ADJP'
p384
g5
tp385
a(S'than'
p386
S'than'
p387
S'IN'
p388
S'B-PP'
p389
g5
tp390
a(S'the'
p391
S'the'
p392
S'DT'
p393
S'B-NP'
p394
g5
tp395
a(S'physiologic'
p396
S'physiologic'
p397
S'JJ'
p398
S'I-NP'
p399
g5
tp400
a(S'response'
p401
S'response'
p402
S'NN'
p403
S'I-NP'
p404
g5
tp405
a(S'to'
p406
S'to'
p407
S'TO'
p408
S'B-PP'
p409
g5
tp410
a(g63
g63
S'DT'
p411
S'B-NP'
p412
g5
tp413
a(S'glucose'
p414
S'glucose'
p415
S'NN'
p416
S'I-NP'
p417
g5
tp418
a(S'load.'
p419
S'load.'
p420
S'NN'
p421
S'I-NP'
p422
g5
tp423
a(S'Moreover'
p424
S'Moreover'
p425
S'RB'
p426
S'B-ADVP'
p427
g5
tp428
a(g306
g306
g306
g5
g5
tp429
a(S'most'
p430
S'most'
p431
S'JJS'
p432
S'B-NP'
p433
g5
tp434
a(S'studies'
p435
S'study'
p436
S'NNS'
p437
S'I-NP'
p438
g5
tp439
a(S'have'
p440
S'have'
p441
S'VBP'
p442
S'B-VP'
p443
g5
tp444
a(S'related'
p445
S'relate'
p446
S'VBN'
p447
S'I-VP'
p448
g5
tp449
a(S'to'
p450
S'to'
p451
S'TO'
p452
S'B-PP'
p453
g5
tp454
a(S'type'
p455
S'type'
p456
S'NN'
p457
S'B-NP'
p458
g5
tp459
a(g52
g52
S'CD'
p460
S'I-NP'
p461
g5
tp462
a(S'diabetes'
p463
S'diabetes'
p464
S'NN'
p465
S'I-NP'
p466
g5
tp467
a(S'subjects'
p468
S'subject'
p469
S'NNS'
p470
S'I-NP'
p471
g5
tp472
a(S'whose'
p473
S'whose'
p474
S'WP$'
p475
S'B-NP'
p476
g5
tp477
a(S'diabetes'
p478
S'diabetes'
p479
S'NN'
p480
S'I-NP'
p481
g5
tp482
a(S'was'
p483
S'be'
p484
S'VBD'
p485
S'B-VP'
p486
g5
tp487
a(S'relatively'
p488
S'relatively'
p489
S'RB'
p490
S'B-ADJP'
p491
g5
tp492
a(S'mild'
p493
S'mild'
p494
S'JJ'
p495
S'I-ADJP'
p496
g5
tp497
a(S'in'
p498
S'in'
p499
S'IN'
p500
S'B-PP'
p501
g5
tp502
a(S'terms'
p503
S'term'
p504
S'NNS'
p505
S'B-NP'
p506
g5
tp507
a(S'of'
p508
S'of'
p509
S'IN'
p510
S'B-PP'
p511
g5
tp512
a(S'therapeutic'
p513
S'therapeutic'
p514
S'JJ'
p515
S'B-NP'
p516
g5
tp517
a(S'requirements.'
p518
S'requirements.'
p519
S'NNS'
p520
S'I-NP'
p521
g5
tp522
a(S'To'
p523
S'To'
p524
S'TO'
p525
S'B-VP'
p526
g5
tp527
a(S'develop'
p528
S'develop'
p529
S'VB'
p530
S'I-VP'
p531
g5
tp532
a(g63
g63
S'DT'
p533
S'B-NP'
p534
g5
tp535
a(S'``'
p536
S'``'
p537
S'``'
p538
S'I-NP'
p539
g5
tp540
a(S'minimal'
p541
S'minimal'
p542
S'JJ'
p543
S'I-NP'
p544
g5
tp545
a(S'disturbance'
p546
S'disturbance'
p547
S'NN'
p548
S'I-NP'
p549
g5
tp550
a(S"''"
p551
S"''"
p552
S"''"
p553
S'I-NP'
p554
g5
tp555
a(S'approach'
p556
S'approach'
p557
S'NN'
p558
S'I-NP'
p559
g5
tp560
a(S'in'
p561
S'in'
p562
S'IN'
p563
S'B-PP'
p564
g5
tp565
a(S'estimating'
p566
S'estimate'
p567
S'VBG'
p568
S'B-VP'
p569
g5
tp570
a(S'Si'
p571
S'Si'
p572
S'NNP'
p573
S'B-NP'
p574
g5
tp575
a(S'and'
p576
S'and'
p577
S'CC'
p578
S'I-NP'
p579
g5
tp580
a(S'Sg'
p581
S'Sg'
p582
S'NNP'
p583
S'I-NP'
p584
g5
tp585
a(S'in'
p586
S'in'
p587
S'IN'
p588
S'B-PP'
p589
g5
tp590
a(S'type'
p591
S'type'
p592
S'NN'
p593
S'B-NP'
p594
g5
tp595
a(g52
g52
S'CD'
p596
S'I-NP'
p597
g5
tp598
a(S'diabetes'
p599
S'diabete'
p600
S'NNS'
p601
S'I-NP'
p602
g5
tp603
a(g306
g306
g306
g5
g5
tp604
a(S'we'
p605
S'we'
p606
S'PRP'
p607
S'B-NP'
p608
g5
tp609
a(S'have'
p610
S'have'
p611
S'VBP'
p612
S'B-VP'
p613
g5
tp614
a(S'used'
p615
S'use'
p616
S'VBN'
p617
S'I-VP'
p618
g5
tp619
a(g63
g63
S'DT'
p620
S'B-NP'
p621
g5
tp622
a(S'reduced'
p623
S'reduce'
p624
S'VBN'
p625
S'I-NP'
p626
g5
tp627
a(S'glucose'
p628
S'glucose'
p629
S'NN'
p630
S'I-NP'
p631
g5
tp632
a(S'load'
p633
S'load'
p634
S'NN'
p635
S'I-NP'
p636
g5
tp637
a(g179
g179
g179
g5
g5
tp638
a(S'200'
p639
S'200'
p640
S'CD'
p641
S'B-NP'
p642
g5
tp643
a(S'mg/kg'
p644
S'mg/kg'
p645
S'NN'
p646
S'I-NP'
p647
g5
tp648
a(g186
g186
g186
g5
g5
tp649
a(S'and'
p650
S'and'
p651
S'CC'
p652
g5
g5
tp653
a(g63
g63
S'DT'
p654
S'B-NP'
p655
g5
tp656
a(S'``'
p657
S'``'
p658
S'``'
p659
S'I-NP'
p660
g5
tp661
a(S'physiologic'
p662
S'physiologic'
p663
S'JJ'
p664
S'I-NP'
p665
g5
tp666
a(S"''"
p667
S"''"
p668
S"''"
p669
S'I-NP'
p670
g5
tp671
a(S'insulin'
p672
S'insulin'
p673
S'NN'
p674
S'I-NP'
p675
g5
tp676
a(S'infusion'
p677
S'infusion'
p678
S'NN'
p679
S'I-NP'
p680
g5
tp681
a(S'throughout'
p682
S'throughout'
p683
S'IN'
p684
S'B-PP'
p685
g5
tp686
a(S'the'
p687
S'the'
p688
S'DT'
p689
S'B-NP'
p690
g5
tp691
a(S'IVGTT'
p692
S'IVGTT'
p693
S'NN'
p694
S'I-NP'
p695
S'B-protein'
p696
tp697
a(S'in'
p698
S'in'
p699
S'IN'
p700
S'B-PP'
p701
g5
tp702
a(g63
g63
S'DT'
p703
S'B-NP'
p704
g5
tp705
a(S'series'
p706
S'series'
p707
S'NN'
p708
S'I-NP'
p709
g5
tp710
a(S'of'
p711
S'of'
p712
S'IN'
p713
S'B-PP'
p714
g5
tp715
a(S'8'
p716
g716
S'CD'
p717
S'B-NP'
p718
g5
tp719
a(S'patients'
p720
S'patient'
p721
S'NNS'
p722
S'I-NP'
p723
g5
tp724
a(g306
g306
g306
g5
g5
tp725
a(S'5'
p726
g726
S'CD'
p727
S'B-NP'
p728
g5
tp729
a(S'of'
p730
S'of'
p731
S'IN'
p732
S'B-PP'
p733
g5
tp734
a(S'whom'
p735
S'whom'
p736
S'WP'
p737
S'B-NP'
p738
g5
tp739
a(S'were'
p740
S'be'
p741
S'VBD'
p742
S'B-VP'
p743
g5
tp744
a(S'insulin-requiring.'
p745
S'insulin-requiring.'
p746
S'JJ'
p747
S'B-NP'
p748
g5
tp749
a(S'Data'
p750
S'Data'
p751
S'NN'
p752
S'I-NP'
p753
g5
tp754
a(S'from'
p755
S'from'
p756
S'IN'
p757
S'B-PP'
p758
g5
tp759
a(S'this'
p760
S'this'
p761
S'DT'
p762
S'B-NP'
p763
g5
tp764
a(S'approach'
p765
S'approach'
p766
S'NN'
p767
S'I-NP'
p768
g5
tp769
a(S'were'
p770
S'be'
p771
S'VBD'
p772
S'B-VP'
p773
g5
tp774
a(S'analyzed'
p775
S'analyze'
p776
S'VBN'
p777
S'I-VP'
p778
g5
tp779
a(S'using'
p780
S'use'
p781
S'VBG'
p782
S'B-VP'
p783
g5
tp784
a(S'the'
p785
S'the'
p786
S'DT'
p787
S'B-NP'
p788
g5
tp789
a(S'modelling'
p790
S'modelling'
p791
S'NN'
p792
S'I-NP'
p793
g5
tp794
a(S'program'
p795
S'program'
p796
S'NN'
p797
S'I-NP'
p798
g5
tp799
a(S'CONSAM'
p800
S'CONSAM'
p801
S'NN'
p802
S'I-NP'
p803
g5
tp804
a(S'to'
p805
S'to'
p806
S'TO'
p807
S'B-VP'
p808
g5
tp809
a(S'apply'
p810
S'apply'
p811
S'VB'
p812
S'I-VP'
p813
g5
tp814
a(S'the'
p815
S'the'
p816
S'DT'
p817
S'B-NP'
p818
g5
tp819
a(S'Bergman'
p820
S'Bergman'
p821
S'NNP'
p822
S'I-NP'
p823
g5
tp824
a(S'model'
p825
S'model'
p826
S'NN'
p827
S'I-NP'
p828
g5
tp829
a(g306
g306
g306
g5
g5
tp830
a(S'either'
p831
S'either'
p832
S'CC'
p833
g5
g5
tp834
a(S'unmodified'
p835
S'unmodified'
p836
S'JJ'
p837
g5
g5
tp838
a(g179
g179
g179
g5
g5
tp839
a(S'BMM'
p840
S'BMM'
p841
S'NN'
p842
S'B-NP'
p843
S'B-protein'
p844
tp845
a(g186
g186
g186
g5
g5
tp846
a(g306
g306
g306
g5
g5
tp847
a(S'or'
p848
S'or'
p849
S'CC'
p850
g5
g5
tp851
a(S'incorporating'
p852
S'incorporate'
p853
S'VBG'
p854
S'B-VP'
p855
g5
tp856
a(S'an'
p857
S'an'
p858
S'DT'
p859
S'B-NP'
p860
g5
tp861
a(S'additional'
p862
S'additional'
p863
S'JJ'
p864
S'I-NP'
p865
g5
tp866
a(S'delay'
p867
S'delay'
p868
S'NN'
p869
S'I-NP'
p870
g5
tp871
a(S'element'
p872
S'element'
p873
S'NN'
p874
S'I-NP'
p875
g5
tp876
a(S'between'
p877
S'between'
p878
S'IN'
p879
S'B-PP'
p880
g5
tp881
a(S'the'
p882
S'the'
p883
S'DT'
p884
S'B-NP'
p885
g5
tp886
a(S'plasma'
p887
S'plasma'
p888
S'NN'
p889
S'I-NP'
p890
g5
tp891
a(S'and'
p892
S'and'
p893
S'CC'
p894
g5
g5
tp895
a(S'``'
p896
S'``'
p897
S'``'
p898
S'B-NP'
p899
g5
tp900
a(S'remote'
p901
S'remote'
p902
S'JJ'
p903
S'I-NP'
p904
g5
tp905
a(S"''"
p906
S"''"
p907
S"''"
p908
S'I-NP'
p909
g5
tp910
a(S'insulin'
p911
S'insulin'
p912
S'NN'
p913
S'I-NP'
p914
g5
tp915
a(S'compartments'
p916
S'compartment'
p917
S'NNS'
p918
S'I-NP'
p919
g5
tp920
a(g179
g179
g179
g5
g5
tp921
a(S'MMD'
p922
S'MMD'
p923
S'NN'
p924
S'B-NP'
p925
g5
tp926
a(g186
g186
g186
g5
g5
tp927
a(g97
g97
g97
g5
g5
tp928
a(S'Application'
p929
S'Application'
p930
S'NN'
p931
S'B-NP'
p932
g5
tp933
a(S'of'
p934
S'of'
p935
S'IN'
p936
S'B-PP'
p937
g5
tp938
a(S'the'
p939
S'the'
p940
S'DT'
p941
S'B-NP'
p942
g5
tp943
a(S'MMD'
p944
S'MMD'
p945
S'NN'
p946
S'I-NP'
p947
g5
tp948
a(S'and'
p949
S'and'
p950
S'CC'
p951
S'I-NP'
p952
g5
tp953
a(S'extension'
p954
S'extension'
p955
S'NN'
p956
S'I-NP'
p957
g5
tp958
a(S'of'
p959
S'of'
p960
S'IN'
p961
S'B-PP'
p962
g5
tp963
a(S'the'
p964
S'the'
p965
S'DT'
p966
S'B-NP'
p967
g5
tp968
a(S'IVGTT'
p969
S'IVGTT'
p970
S'NN'
p971
S'I-NP'
p972
S'B-protein'
p973
tp974
a(S'from'
p975
S'from'
p976
S'IN'
p977
S'B-PP'
p978
g5
tp979
a(S'3'
p980
g980
S'CD'
p981
S'B-NP'
p982
g5
tp983
a(S'to'
p984
S'to'
p985
S'TO'
p986
S'I-NP'
p987
g5
tp988
a(g726
g726
S'CD'
p989
S'I-NP'
p990
g5
tp991
a(S'hours'
p992
S'hour'
p993
S'NNS'
p994
S'I-NP'
p995
g5
tp996
a(S'improved'
p997
S'improve'
p998
S'VBD'
p999
S'B-VP'
p1000
g5
tp1001
a(S'successful'
p1002
S'successful'
p1003
S'JJ'
p1004
S'B-NP'
p1005
g5
tp1006
a(S'resolution'
p1007
S'resolution'
p1008
S'NN'
p1009
S'I-NP'
p1010
g5
tp1011
a(S'of'
p1012
S'of'
p1013
S'IN'
p1014
S'B-PP'
p1015
g5
tp1016
a(S'Si'
p1017
S'Si'
p1018
S'NNP'
p1019
S'B-NP'
p1020
g5
tp1021
a(S'and'
p1022
S'and'
p1023
S'CC'
p1024
S'I-NP'
p1025
g5
tp1026
a(S'Sg'
p1027
S'Sg'
p1028
S'NNP'
p1029
S'I-NP'
p1030
g5
tp1031
a(S'from'
p1032
S'from'
p1033
S'IN'
p1034
S'B-PP'
p1035
g5
tp1036
a(S'37.5'
p1037
S'37.5'
p1038
S'CD'
p1039
S'B-NP'
p1040
g5
tp1041
a(S'%'
p1042
g1042
S'NN'
p1043
S'I-NP'
p1044
g5
tp1045
a(g179
g179
g179
g5
g5
tp1046
a(S'BMM'
p1047
S'BMM'
p1048
S'NN'
p1049
S'B-NP'
p1050
g5
tp1051
a(g306
g306
g306
g5
g5
tp1052
a(S'3-hour'
p1053
S'3-hour'
p1054
S'JJ'
p1055
S'B-NP'
p1056
g5
tp1057
a(S'IVGTT'
p1058
S'IVGTT'
p1059
S'NN'
p1060
S'I-NP'
p1061
g5
tp1062
a(g186
g186
g186
g5
g5
tp1063
a(S'to'
p1064
S'to'
p1065
S'TO'
p1066
S'B-PP'
p1067
g5
tp1068
a(S'100'
p1069
S'100'
p1070
S'CD'
p1071
S'B-NP'
p1072
g5
tp1073
a(g1042
g1042
S'NN'
p1074
S'I-NP'
p1075
g5
tp1076
a(g179
g179
g179
g5
g5
tp1077
a(S'MMD'
p1078
S'MMD'
p1079
S'NN'
p1080
S'B-NP'
p1081
g5
tp1082
a(g306
g306
g306
g5
g5
tp1083
a(S'5-hour'
p1084
S'5-hour'
p1085
S'JJ'
p1086
S'B-NP'
p1087
g5
tp1088
a(S'IVGTT'
p1089
S'IVGTT'
p1090
S'NN'
p1091
S'I-NP'
p1092
g5
tp1093
a(g186
g186
g186
g5
g5
tp1094
a(g97
g97
g97
g5
g5
tp1095
a(S'Si'
p1096
S'Si'
p1097
S'NNP'
p1098
S'B-NP'
p1099
g5
tp1100
a(S'was'
p1101
S'be'
p1102
S'VBD'
p1103
S'B-VP'
p1104
g5
tp1105
a(S'reduced'
p1106
S'reduce'
p1107
S'VBN'
p1108
S'I-VP'
p1109
g5
tp1110
a(S'in'
p1111
S'in'
p1112
S'IN'
p1113
S'B-PP'
p1114
g5
tp1115
a(S'these'
p1116
S'these'
p1117
S'DT'
p1118
S'B-NP'
p1119
g5
tp1120
a(S'type'
p1121
S'type'
p1122
S'NN'
p1123
S'I-NP'
p1124
g5
tp1125
a(g52
g52
S'CD'
p1126
S'I-NP'
p1127
g5
tp1128
a(S'diabetes'
p1129
S'diabetes'
p1130
S'NN'
p1131
S'I-NP'
p1132
g5
tp1133
a(S'patients'
p1134
S'patient'
p1135
S'NNS'
p1136
S'I-NP'
p1137
g5
tp1138
a(S'compared'
p1139
S'compare'
p1140
S'VBN'
p1141
S'B-PP'
p1142
g5
tp1143
a(S'with'
p1144
S'with'
p1145
S'IN'
p1146
S'B-PP'
p1147
g5
tp1148
a(S'normal'
p1149
S'normal'
p1150
S'JJ'
p1151
S'B-NP'
p1152
g5
tp1153
a(S'subjects'
p1154
S'subject'
p1155
S'NNS'
p1156
S'I-NP'
p1157
g5
tp1158
a(g179
g179
g179
g5
g5
tp1159
a(S'1.86'
p1160
S'1.86'
p1161
S'CD'
p1162
S'B-NP'
p1163
g5
tp1164
a(S'+/-'
p1165
S'+/-'
p1166
S'SYM'
p1167
S'I-NP'
p1168
g5
tp1169
a(S'0.60'
p1170
S'0.60'
p1171
S'CD'
p1172
S'I-NP'
p1173
g5
tp1174
a(S'v.'
p1175
S'v.'
p1176
S'IN'
p1177
S'B-PP'
p1178
g5
tp1179
a(S'8.65'
p1180
S'8.65'
p1181
S'CD'
p1182
S'B-NP'
p1183
g5
tp1184
a(S'+/-'
p1185
S'+/-'
p1186
S'SYM'
p1187
S'I-NP'
p1188
g5
tp1189
a(S'2.27'
p1190
S'2.27'
p1191
S'CD'
p1192
S'I-NP'
p1193
g5
tp1194
a(S'min'
p1195
S'min'
p1196
S'NN'
p1197
S'I-NP'
p1198
g5
tp1199
a(g179
g179
g179
g5
g5
tp1200
a(S'-1'
p1201
S'-1'
p1202
S'CD'
p1203
S'B-NP'
p1204
g5
tp1205
a(g186
g186
g186
g5
g5
tp1206
a(S'x'
p1207
g1207
S'NN'
p1208
S'B-NP'
p1209
g5
tp1210
a(S'microU'
p1211
S'microU'
p1212
S'NN'
p1213
S'I-NP'
p1214
g5
tp1215
a(g179
g179
g179
g5
g5
tp1216
a(S'-1'
p1217
S'-1'
p1218
S'CD'
p1219
S'B-NP'
p1220
g5
tp1221
a(g186
g186
g186
g5
g5
tp1222
a(g1207
g1207
S'SYM'
p1223
S'B-NP'
p1224
g5
tp1225
a(S'mL'
p1226
S'mL'
p1227
S'NN'
p1228
S'I-NP'
p1229
g5
tp1230
a(g1207
g1207
S'SYM'
p1231
S'B-NP'
p1232
g5
tp1233
a(S'10'
p1234
S'10'
p1235
S'CD'
p1236
S'B-NP'
p1237
g5
tp1238
a(g179
g179
g179
g5
g5
tp1239
a(S'4'
p1240
g1240
S'CD'
p1241
S'B-NP'
p1242
g5
tp1243
a(g186
g186
g186
g5
g5
tp1244
a(S'P'
p1245
g1245
S'NN'
p1246
S'B-NP'
p1247
g5
tp1248
a(S'<'
p1249
g1249
S'SYM'
p1250
S'B-NP'
p1251
g5
tp1252
a(S'.01'
p1253
S'.01'
p1254
S'CD'
p1255
S'I-NP'
p1256
g5
tp1257
a(g186
g186
g186
g5
g5
tp1258
a(g97
g97
g97
g5
g5
tp1259
a(S'The'
p1260
S'The'
p1261
S'DT'
p1262
S'B-NP'
p1263
g5
tp1264
a(S'results'
p1265
S'result'
p1266
S'NNS'
p1267
S'I-NP'
p1268
g5
tp1269
a(S'were'
p1270
S'be'
p1271
S'VBD'
p1272
S'B-VP'
p1273
g5
tp1274
a(S'validated'
p1275
S'validate'
p1276
S'VBN'
p1277
S'I-VP'
p1278
g5
tp1279
a(S'in'
p1280
S'in'
p1281
S'IN'
p1282
S'B-PP'
p1283
g5
tp1284
a(S'the'
p1285
S'the'
p1286
S'DT'
p1287
S'B-NP'
p1288
g5
tp1289
a(S'type'
p1290
S'type'
p1291
S'NN'
p1292
S'I-NP'
p1293
g5
tp1294
a(g52
g52
S'CD'
p1295
S'I-NP'
p1296
g5
tp1297
a(S'diabetes'
p1298
S'diabetes'
p1299
S'NN'
p1300
S'I-NP'
p1301
g5
tp1302
a(S'group'
p1303
S'group'
p1304
S'NN'
p1305
S'I-NP'
p1306
g5
tp1307
a(S'using'
p1308
S'use'
p1309
S'VBG'
p1310
S'B-VP'
p1311
g5
tp1312
a(g63
g63
S'DT'
p1313
S'B-NP'
p1314
g5
tp1315
a(S'2-stage'
p1316
S'2-stage'
p1317
S'JJ'
p1318
S'I-NP'
p1319
g5
tp1320
a(S'euglycemic'
p1321
S'euglycemic'
p1322
S'JJ'
p1323
S'I-NP'
p1324
g5
tp1325
a(S'clamp'
p1326
S'clamp'
p1327
S'NN'
p1328
S'I-NP'
p1329
g5
tp1330
a(g179
g179
g179
g5
g5
tp1331
a(g179
g179
g179
g5
g5
tp1332
a(S'Si'
p1333
S'Si'
p1334
S'NNP'
p1335
g5
g5
tp1336
a(g186
g186
g186
g5
g5
tp1337
a(S'CLAMP'
p1338
S'CLAMP'
p1339
S'NN'
p1340
S'B-NP'
p1341
g5
tp1342
a(S'='
p1343
g1343
S'SYM'
p1344
S'B-VP'
p1345
g5
tp1346
a(S'2.02'
p1347
S'2.02'
p1348
S'CD'
p1349
S'B-NP'
p1350
g5
tp1351
a(S'+/-'
p1352
S'+/-'
p1353
S'SYM'
p1354
S'I-NP'
p1355
g5
tp1356
a(S'0.42'
p1357
S'0.42'
p1358
S'CD'
p1359
S'I-NP'
p1360
g5
tp1361
a(S'min'
p1362
S'min'
p1363
S'NN'
p1364
S'I-NP'
p1365
g5
tp1366
a(g179
g179
g179
g5
g5
tp1367
a(S'-1'
p1368
S'-1'
p1369
S'CD'
p1370
S'B-NP'
p1371
g5
tp1372
a(g186
g186
g186
g5
g5
tp1373
a(g1207
g1207
S'NN'
p1374
S'B-NP'
p1375
g5
tp1376
a(S'microU'
p1377
S'microU'
p1378
S'NN'
p1379
S'I-NP'
p1380
g5
tp1381
a(g179
g179
g179
g5
g5
tp1382
a(S'-1'
p1383
S'-1'
p1384
S'CD'
p1385
S'B-NP'
p1386
g5
tp1387
a(g186
g186
g186
g5
g5
tp1388
a(g1207
g1207
S'SYM'
p1389
S'B-NP'
p1390
g5
tp1391
a(S'mL'
p1392
S'mL'
p1393
S'NN'
p1394
S'I-NP'
p1395
g5
tp1396
a(g1207
g1207
S'SYM'
p1397
S'B-NP'
p1398
g5
tp1399
a(S'10'
p1400
S'10'
p1401
S'CD'
p1402
S'B-NP'
p1403
g5
tp1404
a(g179
g179
g179
g5
g5
tp1405
a(g1240
g1240
S'CD'
p1406
S'B-NP'
p1407
g5
tp1408
a(g186
g186
g186
g5
g5
tp1409
a(g1245
g1245
S'NN'
p1410
S'B-NP'
p1411
g5
tp1412
a(S'>'
p1413
g1413
S'SYM'
p1414
S'B-NP'
p1415
g5
tp1416
a(S'.4'
p1417
S'.4'
p1418
S'CD'
p1419
S'I-NP'
p1420
g5
tp1421
a(g186
g186
g186
g5
g5
tp1422
a(g97
g97
g97
g5
g5
tp1423
a(S'Sg'
p1424
S'Sg'
p1425
S'NN'
p1426
S'B-NP'
p1427
g5
tp1428
a(S'was'
p1429
S'be'
p1430
S'VBD'
p1431
S'B-VP'
p1432
g5
tp1433
a(S'not'
p1434
S'not'
p1435
S'RB'
p1436
S'I-VP'
p1437
g5
tp1438
a(S'significantly'
p1439
S'significantly'
p1440
S'RB'
p1441
S'I-VP'
p1442
g5
tp1443
a(S'reduced'
p1444
S'reduce'
p1445
S'VBN'
p1446
S'I-VP'
p1447
g5
tp1448
a(g179
g179
g179
g5
g5
tp1449
a(S'2.00'
p1450
S'2.00'
p1451
S'CD'
p1452
S'B-NP'
p1453
g5
tp1454
a(S'+/-'
p1455
S'+/-'
p1456
S'SYM'
p1457
S'I-NP'
p1458
g5
tp1459
a(S'0.25'
p1460
S'0.25'
p1461
S'CD'
p1462
S'I-NP'
p1463
g5
tp1464
a(S'type'
p1465
S'type'
p1466
S'NN'
p1467
S'I-NP'
p1468
g5
tp1469
a(g52
g52
S'CD'
p1470
S'B-NP'
p1471
g5
tp1472
a(S'diabetes'
p1473
S'diabete'
p1474
S'NNS'
p1475
S'I-NP'
p1476
g5
tp1477
a(S'v.'
p1478
S'v.'
p1479
S'IN'
p1480
S'B-PP'
p1481
g5
tp1482
a(S'1.55'
p1483
S'1.55'
p1484
S'CD'
p1485
S'B-NP'
p1486
g5
tp1487
a(S'+/-'
p1488
S'+/-'
p1489
S'SYM'
p1490
S'I-NP'
p1491
g5
tp1492
a(S'0.26'
p1493
S'0.26'
p1494
S'CD'
p1495
S'I-NP'
p1496
g5
tp1497
a(S'normal'
p1498
S'normal'
p1499
S'JJ'
p1500
S'I-NP'
p1501
g5
tp1502
a(S'min'
p1503
S'min'
p1504
S'NN'
p1505
S'I-NP'
p1506
g5
tp1507
a(g179
g179
g179
g5
g5
tp1508
a(S'-1'
p1509
S'-1'
p1510
S'CD'
p1511
S'B-NP'
p1512
g5
tp1513
a(g186
g186
g186
g5
g5
tp1514
a(g1207
g1207
S'NN'
p1515
S'B-NP'
p1516
g5
tp1517
a(S'10'
p1518
S'10'
p1519
S'CD'
p1520
S'I-NP'
p1521
g5
tp1522
a(g179
g179
g179
g5
g5
tp1523
a(g52
g52
S'CD'
p1524
S'B-NP'
p1525
g5
tp1526
a(g186
g186
g186
g5
g5
tp1527
a(g186
g186
g186
g5
g5
tp1528
a(g97
g97
g97
g5
g5
tp1529
a(S'Data'
p1530
S'Datum'
p1531
S'NNPS'
p1532
S'B-NP'
p1533
S'B-DNA'
p1534
tp1535
a(S'from'
p1536
S'from'
p1537
S'IN'
p1538
S'B-PP'
p1539
g5
tp1540
a(g63
g63
S'DT'
p1541
S'B-NP'
p1542
g5
tp1543
a(S'group'
p1544
S'group'
p1545
S'NN'
p1546
S'I-NP'
p1547
g5
tp1548
a(S'of'
p1549
S'of'
p1550
S'IN'
p1551
S'B-PP'
p1552
g5
tp1553
a(S'normal'
p1554
S'normal'
p1555
S'JJ'
p1556
S'B-NP'
p1557
g5
tp1558
a(S'nondiabetic'
p1559
S'nondiabetic'
p1560
S'JJ'
p1561
S'I-NP'
p1562
g5
tp1563
a(S'subjects'
p1564
S'subject'
p1565
S'NNS'
p1566
S'I-NP'
p1567
g5
tp1568
a(S'was'
p1569
S'be'
p1570
S'VBD'
p1571
S'B-VP'
p1572
g5
tp1573
a(S'then'
p1574
S'then'
p1575
S'RB'
p1576
S'I-VP'
p1577
g5
tp1578
a(S'analyzed'
p1579
S'analyze'
p1580
S'VBN'
p1581
S'I-VP'
p1582
g5
tp1583
a(S'using'
p1584
S'use'
p1585
S'VBG'
p1586
S'B-VP'
p1587
g5
tp1588
a(S'the'
p1589
S'the'
p1590
S'DT'
p1591
S'B-NP'
p1592
g5
tp1593
a(S'MMD'
p1594
S'MMD'
p1595
S'NN'
p1596
S'I-NP'
p1597
g5
tp1598
a(g306
g306
g306
g5
g5
tp1599
a(S'but'
p1600
S'but'
p1601
S'CC'
p1602
g5
g5
tp1603
a(S'this'
p1604
S'this'
p1605
S'DT'
p1606
S'B-NP'
p1607
g5
tp1608
a(S'approach'
p1609
S'approach'
p1610
S'NN'
p1611
S'I-NP'
p1612
g5
tp1613
a(S'did'
p1614
S'do'
p1615
S'VBD'
p1616
S'B-VP'
p1617
g5
tp1618
a(S'not'
p1619
S'not'
p1620
S'RB'
p1621
S'I-VP'
p1622
g5
tp1623
a(S'enhance'
p1624
S'enhance'
p1625
S'VB'
p1626
S'I-VP'
p1627
g5
tp1628
a(S'the'
p1629
S'the'
p1630
S'DT'
p1631
S'B-NP'
p1632
g5
tp1633
a(S'fit'
p1634
S'fit'
p1635
S'NN'
p1636
S'I-NP'
p1637
g5
tp1638
a(S'of'
p1639
S'of'
p1640
S'IN'
p1641
S'B-PP'
p1642
g5
tp1643
a(S'the'
p1644
S'the'
p1645
S'DT'
p1646
S'B-NP'
p1647
g5
tp1648
a(S'model'
p1649
S'model'
p1650
S'NN'
p1651
S'I-NP'
p1652
g5
tp1653
a(S'compared'
p1654
S'compare'
p1655
S'VBN'
p1656
S'B-PP'
p1657
g5
tp1658
a(S'with'
p1659
S'with'
p1660
S'IN'
p1661
S'B-PP'
p1662
g5
tp1663
a(S'the'
p1664
S'the'
p1665
S'DT'
p1666
S'B-NP'
p1667
g5
tp1668
a(S'BMM.'
p1669
S'BMM.'
p1670
S'NNP'
p1671
S'I-NP'
p1672
g5
tp1673
a(S'This'
p1674
S'This'
p1675
S'DT'
p1676
S'B-NP'
p1677
g5
tp1678
a(S'result'
p1679
S'result'
p1680
S'NN'
p1681
S'I-NP'
p1682
g5
tp1683
a(S'indicates'
p1684
S'indicate'
p1685
S'VBZ'
p1686
S'B-VP'
p1687
g5
tp1688
a(S'that'
p1689
S'that'
p1690
S'IN'
p1691
S'B-SBAR'
p1692
g5
tp1693
a(S'the'
p1694
S'the'
p1695
S'DT'
p1696
S'B-NP'
p1697
g5
tp1698
a(S'delay'
p1699
S'delay'
p1700
S'NN'
p1701
S'I-NP'
p1702
g5
tp1703
a(S'in'
p1704
S'in'
p1705
S'IN'
p1706
S'B-PP'
p1707
g5
tp1708
a(S'insulin'
p1709
S'insulin'
p1710
S'NN'
p1711
S'B-NP'
p1712
g5
tp1713
a(S'action'
p1714
S'action'
p1715
S'NN'
p1716
S'I-NP'
p1717
g5
tp1718
a(S'in'
p1719
S'in'
p1720
S'IN'
p1721
S'B-PP'
p1722
g5
tp1723
a(S'type'
p1724
S'type'
p1725
S'NN'
p1726
S'B-NP'
p1727
g5
tp1728
a(g52
g52
S'CD'
p1729
S'I-NP'
p1730
g5
tp1731
a(S'diabetes'
p1732
S'diabete'
p1733
S'NNS'
p1734
S'I-NP'
p1735
g5
tp1736
a(S'represents'
p1737
S'represent'
p1738
S'VBZ'
p1739
S'B-VP'
p1740
g5
tp1741
a(S'an'
p1742
S'an'
p1743
S'DT'
p1744
S'B-NP'
p1745
g5
tp1746
a(S'abnormality'
p1747
S'abnormality'
p1748
S'NN'
p1749
S'I-NP'
p1750
g5
tp1751
a(S'whereby'
p1752
S'whereby'
p1753
S'WRB'
p1754
S'B-ADVP'
p1755
g5
tp1756
a(S'the'
p1757
S'the'
p1758
S'DT'
p1759
S'B-NP'
p1760
g5
tp1761
a(S'onset'
p1762
S'onset'
p1763
S'NN'
p1764
S'I-NP'
p1765
g5
tp1766
a(S'of'
p1767
S'of'
p1768
S'IN'
p1769
S'B-PP'
p1770
g5
tp1771
a(S'insulin'
p1772
S'insulin'
p1773
S'NN'
p1774
S'B-NP'
p1775
S'B-protein'
p1776
tp1777
a(S'action'
p1778
S'action'
p1779
S'NN'
p1780
S'I-NP'
p1781
g5
tp1782
a(S'can'
p1783
S'can'
p1784
S'MD'
p1785
S'B-VP'
p1786
g5
tp1787
a(S'not'
p1788
S'not'
p1789
S'RB'
p1790
S'I-VP'
p1791
g5
tp1792
a(S'be'
p1793
S'be'
p1794
S'VB'
p1795
S'I-VP'
p1796
g5
tp1797
a(S'described'
p1798
S'describe'
p1799
S'VBN'
p1800
S'I-VP'
p1801
g5
tp1802
a(S'as'
p1803
S'as'
p1804
S'IN'
p1805
S'B-PP'
p1806
g5
tp1807
a(g63
g63
S'DT'
p1808
S'B-NP'
p1809
g5
tp1810
a(S'single'
p1811
S'single'
p1812
S'JJ'
p1813
S'I-NP'
p1814
g5
tp1815
a(S'phase'
p1816
S'phase'
p1817
S'NN'
p1818
S'I-NP'
p1819
g5
tp1820
a(S'in'
p1821
S'in'
p1822
S'IN'
p1823
S'B-PP'
p1824
g5
tp1825
a(S'the'
p1826
S'the'
p1827
S'DT'
p1828
S'B-NP'
p1829
g5
tp1830
a(S'transfer'
p1831
S'transfer'
p1832
S'NN'
p1833
S'I-NP'
p1834
g5
tp1835
a(S'of'
p1836
S'of'
p1837
S'IN'
p1838
S'B-PP'
p1839
g5
tp1840
a(S'insulin'
p1841
S'insulin'
p1842
S'NN'
p1843
S'B-NP'
p1844
S'B-protein'
p1845
tp1846
a(S'from'
p1847
S'from'
p1848
S'IN'
p1849
S'B-PP'
p1850
g5
tp1851
a(S'plasma'
p1852
S'plasma'
p1853
S'NN'
p1854
S'B-NP'
p1855
g5
tp1856
a(S'to'
p1857
S'to'
p1858
S'TO'
p1859
S'B-PP'
p1860
g5
tp1861
a(S'the'
p1862
S'the'
p1863
S'DT'
p1864
S'B-NP'
p1865
g5
tp1866
a(S'remote'
p1867
S'remote'
p1868
S'JJ'
p1869
S'I-NP'
p1870
g5
tp1871
a(S'compartment.'
p1872
S'compartment.'
p1873
S'NN'
p1874
S'I-NP'
p1875
g5
tp1876
a(S'It'
p1877
S'It'
p1878
S'PRP'
p1879
S'B-NP'
p1880
g5
tp1881
a(S'is'
p1882
S'be'
p1883
S'VBZ'
p1884
S'B-VP'
p1885
g5
tp1886
a(S'postulated'
p1887
S'postulate'
p1888
S'VBN'
p1889
S'I-VP'
p1890
g5
tp1891
a(S'that'
p1892
S'that'
p1893
S'IN'
p1894
S'B-SBAR'
p1895
g5
tp1896
a(S'the'
p1897
S'the'
p1898
S'DT'
p1899
S'B-NP'
p1900
g5
tp1901
a(S'physiologic'
p1902
S'physiologic'
p1903
S'JJ'
p1904
S'I-NP'
p1905
g5
tp1906
a(S'basis'
p1907
S'basis'
p1908
S'NN'
p1909
S'I-NP'
p1910
g5
tp1911
a(S'for'
p1912
S'for'
p1913
S'IN'
p1914
S'B-PP'
p1915
g5
tp1916
a(S'this'
p1917
S'this'
p1918
S'DT'
p1919
S'B-NP'
p1920
g5
tp1921
a(S'delayed'
p1922
S'delay'
p1923
S'VBN'
p1924
S'I-NP'
p1925
g5
tp1926
a(S'action'
p1927
S'action'
p1928
S'NN'
p1929
S'I-NP'
p1930
g5
tp1931
a(S'may'
p1932
S'may'
p1933
S'MD'
p1934
S'B-VP'
p1935
g5
tp1936
a(S'relate'
p1937
S'relate'
p1938
S'VB'
p1939
S'I-VP'
p1940
g5
tp1941
a(S'to'
p1942
S'to'
p1943
S'TO'
p1944
S'B-PP'
p1945
g5
tp1946
a(S'transcapillary'
p1947
S'transcapillary'
p1948
S'JJ'
p1949
S'B-NP'
p1950
g5
tp1951
a(S'endothelial'
p1952
S'endothelial'
p1953
S'JJ'
p1954
S'I-NP'
p1955
g5
tp1956
a(S'transfer'
p1957
S'transfer'
p1958
S'NN'
p1959
S'I-NP'
p1960
g5
tp1961
a(S'of'
p1962
S'of'
p1963
S'IN'
p1964
S'B-PP'
p1965
g5
tp1966
a(S'insulin'
p1967
S'insulin'
p1968
S'NN'
p1969
S'B-NP'
p1970
S'B-protein'
p1971
tp1972
a(g306
g306
g306
g5
g5
tp1973
a(S'this'
p1974
S'this'
p1975
S'DT'
p1976
S'B-NP'
p1977
g5
tp1978
a(S'process'
p1979
S'process'
p1980
S'NN'
p1981
S'I-NP'
p1982
g5
tp1983
a(S'limiting'
p1984
S'limit'
p1985
S'VBG'
p1986
S'B-VP'
p1987
g5
tp1988
a(S'the'
p1989
S'the'
p1990
S'DT'
p1991
S'B-NP'
p1992
g5
tp1993
a(S'rate'
p1994
S'rate'
p1995
S'NN'
p1996
S'I-NP'
p1997
g5
tp1998
a(S'of'
p1999
S'of'
p2000
S'IN'
p2001
S'B-PP'
p2002
g5
tp2003
a(S'onset'
p2004
S'onset'
p2005
S'NN'
p2006
S'B-NP'
p2007
g5
tp2008
a(S'of'
p2009
S'of'
p2010
S'IN'
p2011
S'B-PP'
p2012
g5
tp2013
a(S'insulin'
p2014
S'insulin'
p2015
S'NN'
p2016
S'B-NP'
p2017
S'B-protein'
p2018
tp2019
a(S'action'
p2020
S'action'
p2021
S'NN'
p2022
S'I-NP'
p2023
g5
tp2024
a(g97
g97
g97
g5
g5
tp2025
a.