(lp0
(S'Most'
p1
S'Most'
p2
S'RBS'
p3
S'B-NP'
p4
S'O'
p5
tp6
a(S'effective'
p7
S'effective'
p8
S'JJ'
p9
S'I-NP'
p10
g5
tp11
a(S'regimen'
p12
S'regimen'
p13
S'NN'
p14
S'I-NP'
p15
g5
tp16
a(S'of'
p17
S'of'
p18
S'IN'
p19
S'B-PP'
p20
g5
tp21
a(S'tranexamic'
p22
S'tranexamic'
p23
S'JJ'
p24
S'B-NP'
p25
g5
tp26
a(S'acid'
p27
S'acid'
p28
S'NN'
p29
S'I-NP'
p30
g5
tp31
a(S'in'
p32
S'in'
p33
S'IN'
p34
S'B-PP'
p35
g5
tp36
a(S'knee'
p37
S'knee'
p38
S'NN'
p39
S'B-NP'
p40
g5
tp41
a(S'arthroplasty'
p42
S'arthroplasty'
p43
S'NN'
p44
S'I-NP'
p45
g5
tp46
a(S':'
p47
g47
g47
g5
g5
tp48
a(S'a'
p49
g49
S'DT'
p50
S'B-NP'
p51
g5
tp52
a(S'prospective'
p53
S'prospective'
p54
S'JJ'
p55
S'I-NP'
p56
g5
tp57
a(S'randomized'
p58
S'randomize'
p59
S'VBN'
p60
S'I-NP'
p61
g5
tp62
a(S'controlled'
p63
S'control'
p64
S'VBN'
p65
S'I-NP'
p66
g5
tp67
a(S'study'
p68
S'study'
p69
S'NN'
p70
S'I-NP'
p71
g5
tp72
a(S'in'
p73
S'in'
p74
S'IN'
p75
S'B-PP'
p76
g5
tp77
a(S'240'
p78
S'240'
p79
S'CD'
p80
S'B-NP'
p81
g5
tp82
a(S'patients'
p83
S'patient'
p84
S'NNS'
p85
S'I-NP'
p86
g5
tp87
a(S'.'
p88
g88
g88
g5
g5
tp89
a(S'BACKGROUND'
p90
S'BACKGROUND'
p91
S'NN'
p92
S'B-NP'
p93
g5
tp94
a(S'The'
p95
S'The'
p96
S'DT'
p97
S'B-NP'
p98
g5
tp99
a(S'antifibrinolytic'
p100
S'antifibrinolytic'
p101
S'JJ'
p102
S'I-NP'
p103
g5
tp104
a(S'tranexamic'
p105
S'tranexamic'
p106
S'JJ'
p107
S'I-NP'
p108
g5
tp109
a(S'acid'
p110
S'acid'
p111
S'NN'
p112
S'I-NP'
p113
g5
tp114
a(S'reduces'
p115
S'reduce'
p116
S'VBZ'
p117
S'B-VP'
p118
g5
tp119
a(S'surgical'
p120
S'surgical'
p121
S'JJ'
p122
S'B-NP'
p123
g5
tp124
a(S'blood'
p125
S'blood'
p126
S'NN'
p127
S'I-NP'
p128
g5
tp129
a(S'loss'
p130
S'loss'
p131
S'NN'
p132
S'I-NP'
p133
g5
tp134
a(S','
p135
g135
g135
g5
g5
tp136
a(S'but'
p137
S'but'
p138
S'CC'
p139
g5
g5
tp140
a(S'studies'
p141
S'study'
p142
S'NNS'
p143
S'B-NP'
p144
g5
tp145
a(S'have'
p146
S'have'
p147
S'VBP'
p148
S'B-VP'
p149
g5
tp150
a(S'not'
p151
S'not'
p152
S'RB'
p153
S'I-VP'
p154
g5
tp155
a(S'identified'
p156
S'identify'
p157
S'VBN'
p158
S'I-VP'
p159
g5
tp160
a(S'an'
p161
S'an'
p162
S'DT'
p163
S'B-NP'
p164
g5
tp165
a(S'optimal'
p166
S'optimal'
p167
S'JJ'
p168
S'I-NP'
p169
g5
tp170
a(S'regimen'
p171
S'regimen'
p172
S'NN'
p173
S'I-NP'
p174
g5
tp175
a(g88
g88
g88
g5
g5
tp176
a(S'QUESTIONS/PURPOSES'
p177
S'QUESTIONS/PURPOSES'
p178
S'NNS'
p179
S'B-NP'
p180
g5
tp181
a(S'We'
p182
S'We'
p183
S'PRP'
p184
S'B-NP'
p185
g5
tp186
a(S'studied'
p187
S'study'
p188
S'VBD'
p189
S'B-VP'
p190
g5
tp191
a(S'different'
p192
S'different'
p193
S'JJ'
p194
S'B-NP'
p195
g5
tp196
a(S'dosages'
p197
S'dosage'
p198
S'NNS'
p199
S'I-NP'
p200
g5
tp201
a(g135
g135
g135
g5
g5
tp202
a(S'timings'
p203
S'timing'
p204
S'NNS'
p205
S'B-NP'
p206
g5
tp207
a(g135
g135
g135
g5
g5
tp208
a(S'and'
p209
S'and'
p210
S'CC'
p211
g5
g5
tp212
a(S'modes'
p213
S'mode'
p214
S'NNS'
p215
S'B-NP'
p216
g5
tp217
a(S'of'
p218
S'of'
p219
S'IN'
p220
S'B-PP'
p221
g5
tp222
a(S'administration'
p223
S'administration'
p224
S'NN'
p225
S'B-NP'
p226
g5
tp227
a(S'to'
p228
S'to'
p229
S'TO'
p230
S'B-VP'
p231
g5
tp232
a(S'identify'
p233
S'identify'
p234
S'VB'
p235
S'I-VP'
p236
g5
tp237
a(S'the'
p238
S'the'
p239
S'DT'
p240
S'B-NP'
p241
g5
tp242
a(S'most'
p243
S'most'
p244
S'RBS'
p245
S'I-NP'
p246
g5
tp247
a(S'effective'
p248
S'effective'
p249
S'JJ'
p250
S'I-NP'
p251
g5
tp252
a(S'regimen'
p253
S'regimen'
p254
S'NN'
p255
S'I-NP'
p256
g5
tp257
a(S'of'
p258
S'of'
p259
S'IN'
p260
S'B-PP'
p261
g5
tp262
a(S'tranexamic'
p263
S'tranexamic'
p264
S'JJ'
p265
S'B-NP'
p266
g5
tp267
a(S'acid'
p268
S'acid'
p269
S'NN'
p270
S'I-NP'
p271
g5
tp272
a(S'in'
p273
S'in'
p274
S'IN'
p275
S'B-PP'
p276
g5
tp277
a(S'achieving'
p278
S'achieve'
p279
S'VBG'
p280
S'B-VP'
p281
g5
tp282
a(S'maximum'
p283
S'maximum'
p284
S'JJ'
p285
S'B-NP'
p286
g5
tp287
a(S'reduction'
p288
S'reduction'
p289
S'NN'
p290
S'I-NP'
p291
g5
tp292
a(S'of'
p293
S'of'
p294
S'IN'
p295
S'B-PP'
p296
g5
tp297
a(S'blood'
p298
S'blood'
p299
S'NN'
p300
S'B-NP'
p301
g5
tp302
a(S'loss'
p303
S'loss'
p304
S'NN'
p305
S'I-NP'
p306
g5
tp307
a(S'in'
p308
S'in'
p309
S'IN'
p310
S'B-PP'
p311
g5
tp312
a(S'TKA'
p313
S'TKA'
p314
S'NN'
p315
S'B-NP'
p316
S'B-protein'
p317
tp318
a(g88
g88
g88
g5
g5
tp319
a(S'METHODS'
p320
S'METHODS'
p321
S'NNS'
p322
S'B-NP'
p323
g5
tp324
a(S'We'
p325
S'We'
p326
S'PRP'
p327
S'B-NP'
p328
g5
tp329
a(S'prospectively'
p330
S'prospectively'
p331
S'RB'
p332
S'B-ADVP'
p333
g5
tp334
a(S'studied'
p335
S'study'
p336
S'VBD'
p337
S'B-VP'
p338
g5
tp339
a(S'five'
p340
S'five'
p341
S'CD'
p342
S'B-NP'
p343
g5
tp344
a(S'regimens'
p345
S'regimen'
p346
S'NNS'
p347
S'I-NP'
p348
g5
tp349
a(S'('
p350
g350
g350
g5
g5
tp351
a(S'four'
p352
S'four'
p353
S'CD'
p354
S'B-NP'
p355
g5
tp356
a(S'intravenous'
p357
S'intravenous'
p358
S'JJ'
p359
S'I-NP'
p360
g5
tp361
a(g135
g135
g135
g5
g5
tp362
a(S'one'
p363
S'one'
p364
S'CD'
p365
S'B-NP'
p366
g5
tp367
a(S'local'
p368
S'local'
p369
S'JJ'
p370
S'I-NP'
p371
g5
tp372
a(S';'
p373
g373
g47
g5
g5
tp374
a(S'40'
p375
S'40'
p376
S'CD'
p377
S'B-NP'
p378
g5
tp379
a(S'patients'
p380
S'patient'
p381
S'NNS'
p382
S'I-NP'
p383
g5
tp384
a(S'each'
p385
S'each'
p386
S'DT'
p387
S'B-NP'
p388
g5
tp389
a(S')'
p390
g390
g390
g5
g5
tp391
a(S'with'
p392
S'with'
p393
S'IN'
p394
S'B-PP'
p395
g5
tp396
a(g49
g49
S'DT'
p397
S'B-NP'
p398
g5
tp399
a(S'control'
p400
S'control'
p401
S'NN'
p402
S'I-NP'
p403
g5
tp404
a(S'group'
p405
S'group'
p406
S'NN'
p407
S'I-NP'
p408
g5
tp409
a(g350
g350
g350
g5
g5
tp410
a(S'no'
p411
S'no'
p412
S'DT'
p413
S'B-NP'
p414
g5
tp415
a(S'tranexamic'
p416
S'tranexamic'
p417
S'JJ'
p418
S'I-NP'
p419
g5
tp420
a(S'acid'
p421
S'acid'
p422
S'NN'
p423
S'I-NP'
p424
g5
tp425
a(g390
g390
g390
g5
g5
tp426
a(g88
g88
g88
g5
g5
tp427
a(S'The'
p428
S'The'
p429
S'DT'
p430
S'B-NP'
p431
g5
tp432
a(S'four'
p433
S'four'
p434
S'CD'
p435
S'I-NP'
p436
g5
tp437
a(S'intravenous'
p438
S'intravenous'
p439
S'JJ'
p440
g5
g5
tp441
a(g350
g350
g350
g5
g5
tp442
a(S'10-mg/kg'
p443
S'10-mg/kg'
p444
S'JJ'
p445
S'B-NP'
p446
g5
tp447
a(S'dose'
p448
S'dose'
p449
S'NN'
p450
S'I-NP'
p451
g5
tp452
a(g390
g390
g390
g5
g5
tp453
a(S'regimens'
p454
S'regimen'
p455
S'NNS'
p456
S'B-NP'
p457
g5
tp458
a(S'included'
p459
S'include'
p460
S'VBD'
p461
S'B-VP'
p462
g5
tp463
a(g350
g350
g350
S'B-LST'
p464
g5
tp465
a(S'1'
p466
g466
S'LS'
p467
S'I-LST'
p468
g5
tp469
a(g390
g390
g390
g5
g5
tp470
a(S'intraoperative'
p471
S'intraoperative'
p472
S'JJ'
p473
S'B-NP'
p474
g5
tp475
a(S'dose'
p476
S'dose'
p477
S'NN'
p478
S'I-NP'
p479
g5
tp480
a(g350
g350
g350
g5
g5
tp481
a(S'IO'
p482
S'IO'
p483
S'NN'
p484
S'B-NP'
p485
g5
tp486
a(g390
g390
g390
g5
g5
tp487
a(S'given'
p488
S'give'
p489
S'VBN'
p490
S'B-PP'
p491
g5
tp492
a(S'before'
p493
S'before'
p494
S'IN'
p495
S'B-PP'
p496
g5
tp497
a(S'tourniquet'
p498
S'tourniquet'
p499
S'NN'
p500
S'B-NP'
p501
g5
tp502
a(S'deflation'
p503
S'deflation'
p504
S'NN'
p505
S'I-NP'
p506
g5
tp507
a(g135
g135
g135
g5
g5
tp508
a(g350
g350
g350
S'B-LST'
p509
g5
tp510
a(S'2'
p511
g511
S'LS'
p512
S'I-LST'
p513
g5
tp514
a(g390
g390
g390
g5
g5
tp515
a(S'additional'
p516
S'additional'
p517
S'JJ'
p518
S'B-NP'
p519
g5
tp520
a(S'preoperative'
p521
S'preoperative'
p522
S'JJ'
p523
S'I-NP'
p524
g5
tp525
a(S'dose'
p526
S'dose'
p527
S'NN'
p528
S'I-NP'
p529
g5
tp530
a(g350
g350
g350
g5
g5
tp531
a(S'POIO'
p532
S'POIO'
p533
S'NN'
p534
S'B-NP'
p535
S'B-protein'
p536
tp537
a(g390
g390
g390
g5
g5
tp538
a(g135
g135
g135
g5
g5
tp539
a(g350
g350
g350
S'B-LST'
p540
g5
tp541
a(S'3'
p542
g542
S'LS'
p543
S'I-LST'
p544
g5
tp545
a(g390
g390
g390
g5
g5
tp546
a(S'additional'
p547
S'additional'
p548
S'JJ'
p549
S'B-NP'
p550
g5
tp551
a(S'postoperative'
p552
S'postoperative'
p553
S'JJ'
p554
S'I-NP'
p555
g5
tp556
a(S'dose'
p557
S'dose'
p558
S'NN'
p559
S'I-NP'
p560
g5
tp561
a(g350
g350
g350
g5
g5
tp562
a(S'IOPO'
p563
S'IOPO'
p564
S'NN'
p565
S'B-NP'
p566
S'B-protein'
p567
tp568
a(g390
g390
g390
g5
g5
tp569
a(g135
g135
g135
g5
g5
tp570
a(S'and'
p571
S'and'
p572
S'CC'
p573
g5
g5
tp574
a(g350
g350
g350
S'B-LST'
p575
g5
tp576
a(S'4'
p577
g577
S'LS'
p578
S'I-LST'
p579
g5
tp580
a(g390
g390
g390
g5
g5
tp581
a(S'all'
p582
S'all'
p583
S'DT'
p584
S'B-NP'
p585
g5
tp586
a(S'three'
p587
S'three'
p588
S'CD'
p589
S'I-NP'
p590
g5
tp591
a(S'doses'
p592
S'dose'
p593
S'NNS'
p594
S'I-NP'
p595
g5
tp596
a(g350
g350
g350
g5
g5
tp597
a(S'POIOPO'
p598
S'POIOPO'
p599
S'NN'
p600
S'B-NP'
p601
S'B-protein'
p602
tp603
a(g390
g390
g390
g5
g5
tp604
a(g88
g88
g88
g5
g5
tp605
a(S'The'
p606
S'The'
p607
S'DT'
p608
S'B-NP'
p609
g5
tp610
a(S'fifth'
p611
S'fifth'
p612
S'JJ'
p613
S'I-NP'
p614
g5
tp615
a(S'regimen'
p616
S'regimen'
p617
S'NN'
p618
S'I-NP'
p619
g5
tp620
a(S'was'
p621
S'be'
p622
S'VBD'
p623
S'B-VP'
p624
g5
tp625
a(g49
g49
S'DT'
p626
S'B-NP'
p627
g5
tp628
a(S'single'
p629
S'single'
p630
S'JJ'
p631
S'I-NP'
p632
g5
tp633
a(S'local'
p634
S'local'
p635
S'JJ'
p636
S'I-NP'
p637
g5
tp638
a(S'application'
p639
S'application'
p640
S'NN'
p641
S'I-NP'
p642
g5
tp643
a(g350
g350
g350
g5
g5
tp644
a(S'LA'
p645
S'LA'
p646
S'NN'
p647
S'B-NP'
p648
g5
tp649
a(g390
g390
g390
g5
g5
tp650
a(g88
g88
g88
g5
g5
tp651
a(S'Two'
p652
S'Two'
p653
S'CD'
p654
S'B-NP'
p655
g5
tp656
a(S'independent'
p657
S'independent'
p658
S'JJ'
p659
S'I-NP'
p660
g5
tp661
a(S'parameters'
p662
S'parameter'
p663
S'NNS'
p664
S'I-NP'
p665
g5
tp666
a(S'of'
p667
S'of'
p668
S'IN'
p669
S'B-PP'
p670
g5
tp671
a(S'drain'
p672
S'drain'
p673
S'NN'
p674
S'B-NP'
p675
g5
tp676
a(S'loss'
p677
S'loss'
p678
S'NN'
p679
S'I-NP'
p680
g5
tp681
a(S'and'
p682
S'and'
p683
S'CC'
p684
g5
g5
tp685
a(S'total'
p686
S'total'
p687
S'JJ'
p688
S'B-NP'
p689
g5
tp690
a(S'blood'
p691
S'blood'
p692
S'NN'
p693
S'I-NP'
p694
g5
tp695
a(S'loss'
p696
S'loss'
p697
S'NN'
p698
S'I-NP'
p699
g5
tp700
a(g135
g135
g135
g5
g5
tp701
a(S'calculated'
p702
S'calculate'
p703
S'VBN'
p704
S'B-VP'
p705
g5
tp706
a(S'by'
p707
S'by'
p708
S'IN'
p709
S'B-PP'
p710
g5
tp711
a(S'the'
p712
S'the'
p713
S'DT'
p714
S'B-NP'
p715
g5
tp716
a(S'hemoglobin'
p717
S'hemoglobin'
p718
S'NN'
p719
S'I-NP'
p720
S'B-protein'
p721
tp722
a(S'balance'
p723
S'balance'
p724
S'NN'
p725
S'I-NP'
p726
g5
tp727
a(S'method'
p728
S'method'
p729
S'NN'
p730
S'I-NP'
p731
g5
tp732
a(g135
g135
g135
g5
g5
tp733
a(S'were'
p734
S'be'
p735
S'VBD'
p736
S'B-VP'
p737
g5
tp738
a(S'evaluated'
p739
S'evaluate'
p740
S'VBN'
p741
S'I-VP'
p742
g5
tp743
a(S'statistically'
p744
S'statistically'
p745
S'RB'
p746
S'B-ADVP'
p747
g5
tp748
a(g88
g88
g88
g5
g5
tp749
a(S'RESULTS'
p750
S'RESULTS'
p751
S'NNS'
p752
S'B-NP'
p753
g5
tp754
a(S'Both'
p755
S'Both'
p756
S'DT'
p757
S'B-NP'
p758
g5
tp759
a(S'parameters'
p760
S'parameter'
p761
S'NNS'
p762
S'I-NP'
p763
g5
tp764
a(S'were'
p765
S'be'
p766
S'VBD'
p767
S'B-VP'
p768
g5
tp769
a(S'reduced'
p770
S'reduce'
p771
S'VBN'
p772
S'I-VP'
p773
g5
tp774
a(S'in'
p775
S'in'
p776
S'IN'
p777
S'B-PP'
p778
g5
tp779
a(S'all'
p780
S'all'
p781
S'DT'
p782
S'B-NP'
p783
g5
tp784
a(S'five'
p785
S'five'
p786
S'CD'
p787
S'I-NP'
p788
g5
tp789
a(S'regimens'
p790
S'regimen'
p791
S'NNS'
p792
S'I-NP'
p793
g5
tp794
a(S'as'
p795
S'as'
p796
S'IN'
p797
S'B-PP'
p798
g5
tp799
a(S'against'
p800
S'against'
p801
S'IN'
p802
S'B-PP'
p803
g5
tp804
a(S'the'
p805
S'the'
p806
S'DT'
p807
S'B-NP'
p808
g5
tp809
a(S'control.'
p810
S'control.'
p811
S'NN'
p812
S'I-NP'
p813
g5
tp814
a(S'A'
p815
g815
S'NN'
p816
S'I-NP'
p817
g5
tp818
a(S'significant'
p819
S'significant'
p820
S'JJ'
p821
S'I-NP'
p822
g5
tp823
a(S'reduction'
p824
S'reduction'
p825
S'NN'
p826
S'I-NP'
p827
g5
tp828
a(S'in'
p829
S'in'
p830
S'IN'
p831
S'B-PP'
p832
g5
tp833
a(S'drain'
p834
S'drain'
p835
S'NN'
p836
S'B-NP'
p837
g5
tp838
a(S'loss'
p839
S'loss'
p840
S'NN'
p841
S'I-NP'
p842
g5
tp843
a(S'was'
p844
S'be'
p845
S'VBD'
p846
S'B-VP'
p847
g5
tp848
a(S'seen'
p849
S'see'
p850
S'VBN'
p851
S'I-VP'
p852
g5
tp853
a(S'in'
p854
S'in'
p855
S'IN'
p856
S'B-PP'
p857
g5
tp858
a(S'the'
p859
S'the'
p860
S'DT'
p861
S'B-NP'
p862
g5
tp863
a(S'POIO'
p864
S'POIO'
p865
S'NN'
p866
S'I-NP'
p867
S'B-protein'
p868
tp869
a(g135
g135
g135
g5
g5
tp870
a(S'IOPO'
p871
S'IOPO'
p872
S'NN'
p873
S'B-NP'
p874
S'B-protein'
p875
tp876
a(g135
g135
g135
g5
g5
tp877
a(S'and'
p878
S'and'
p879
S'CC'
p880
g5
g5
tp881
a(S'POIOPO'
p882
S'POIOPO'
p883
S'NN'
p884
S'B-NP'
p885
g5
tp886
a(S'groups'
p887
S'group'
p888
S'NNS'
p889
S'I-NP'
p890
g5
tp891
a(S'whereas'
p892
S'whereas'
p893
S'IN'
p894
S'B-PP'
p895
g5
tp896
a(S'total'
p897
S'total'
p898
S'JJ'
p899
S'B-NP'
p900
g5
tp901
a(S'blood'
p902
S'blood'
p903
S'NN'
p904
S'I-NP'
p905
g5
tp906
a(S'loss'
p907
S'loss'
p908
S'NN'
p909
S'I-NP'
p910
g5
tp911
a(S'was'
p912
S'be'
p913
S'VBD'
p914
S'B-VP'
p915
g5
tp916
a(S'significantly'
p917
S'significantly'
p918
S'RB'
p919
S'I-VP'
p920
g5
tp921
a(S'reduced'
p922
S'reduce'
p923
S'VBN'
p924
S'I-VP'
p925
g5
tp926
a(S'in'
p927
S'in'
p928
S'IN'
p929
S'B-PP'
p930
g5
tp931
a(S'the'
p932
S'the'
p933
S'DT'
p934
S'B-NP'
p935
g5
tp936
a(S'POIO'
p937
S'POIO'
p938
S'NN'
p939
S'I-NP'
p940
S'B-protein'
p941
tp942
a(g135
g135
g135
g5
g5
tp943
a(S'POIOPO'
p944
S'POIOPO'
p945
S'NN'
p946
S'B-NP'
p947
S'B-protein'
p948
tp949
a(g135
g135
g135
g5
g5
tp950
a(S'and'
p951
S'and'
p952
S'CC'
p953
g5
g5
tp954
a(S'LA'
p955
S'LA'
p956
S'NN'
p957
S'B-NP'
p958
g5
tp959
a(S'groups.'
p960
S'groups.'
p961
S'NNS'
p962
S'I-NP'
p963
g5
tp964
a(S'The'
p965
S'The'
p966
S'DT'
p967
S'B-NP'
p968
g5
tp969
a(S'POIOPO'
p970
S'POIOPO'
p971
S'NN'
p972
S'I-NP'
p973
g5
tp974
a(S'group'
p975
S'group'
p976
S'NN'
p977
S'I-NP'
p978
g5
tp979
a(S'had'
p980
S'have'
p981
S'VBD'
p982
S'B-VP'
p983
g5
tp984
a(S'the'
p985
S'the'
p986
S'DT'
p987
S'B-NP'
p988
g5
tp989
a(S'least'
p990
S'least'
p991
S'JJS'
p992
S'I-NP'
p993
g5
tp994
a(S'drain'
p995
S'drain'
p996
S'NN'
p997
S'I-NP'
p998
g5
tp999
a(S'loss'
p1000
S'loss'
p1001
S'NN'
p1002
S'I-NP'
p1003
g5
tp1004
a(g350
g350
g350
g5
g5
tp1005
a(S'303'
p1006
S'303'
p1007
S'CD'
p1008
S'B-NP'
p1009
g5
tp1010
a(S'mL'
p1011
S'mL'
p1012
S'NN'
p1013
S'I-NP'
p1014
g5
tp1015
a(g390
g390
g390
g5
g5
tp1016
a(S'and'
p1017
S'and'
p1018
S'CC'
p1019
S'B-NP'
p1020
g5
tp1021
a(S'least'
p1022
S'least'
p1023
S'JJS'
p1024
S'I-NP'
p1025
g5
tp1026
a(S'total'
p1027
S'total'
p1028
S'JJ'
p1029
S'I-NP'
p1030
g5
tp1031
a(S'blood'
p1032
S'blood'
p1033
S'NN'
p1034
S'I-NP'
p1035
g5
tp1036
a(S'loss'
p1037
S'loss'
p1038
S'NN'
p1039
S'I-NP'
p1040
g5
tp1041
a(g350
g350
g350
g5
g5
tp1042
a(S'688'
p1043
S'688'
p1044
S'CD'
p1045
S'B-NP'
p1046
g5
tp1047
a(S'mL'
p1048
S'mL'
p1049
S'NN'
p1050
S'I-NP'
p1051
g5
tp1052
a(g390
g390
g390
g5
g5
tp1053
a(g88
g88
g88
g5
g5
tp1054
a(S'The'
p1055
S'The'
p1056
S'DT'
p1057
S'B-NP'
p1058
g5
tp1059
a(S'IO'
p1060
S'IO'
p1061
S'NNP'
p1062
S'I-NP'
p1063
g5
tp1064
a(S'group'
p1065
S'group'
p1066
S'NN'
p1067
S'I-NP'
p1068
g5
tp1069
a(S'had'
p1070
S'have'
p1071
S'VBD'
p1072
S'B-VP'
p1073
g5
tp1074
a(S'the'
p1075
S'the'
p1076
S'DT'
p1077
S'B-NP'
p1078
g5
tp1079
a(S'greatest'
p1080
S'great'
p1081
S'JJS'
p1082
S'I-NP'
p1083
g5
tp1084
a(S'drain'
p1085
S'drain'
p1086
S'NN'
p1087
S'I-NP'
p1088
g5
tp1089
a(S'loss'
p1090
S'loss'
p1091
S'NN'
p1092
S'I-NP'
p1093
g5
tp1094
a(S'and'
p1095
S'and'
p1096
S'CC'
p1097
g5
g5
tp1098
a(S'the'
p1099
S'the'
p1100
S'DT'
p1101
S'B-NP'
p1102
g5
tp1103
a(S'IOPO'
p1104
S'IOPO'
p1105
S'NN'
p1106
S'I-NP'
p1107
g5
tp1108
a(S'group'
p1109
S'group'
p1110
S'NN'
p1111
S'I-NP'
p1112
g5
tp1113
a(S'the'
p1114
S'the'
p1115
S'DT'
p1116
S'B-NP'
p1117
g5
tp1118
a(S'greatest'
p1119
S'great'
p1120
S'JJS'
p1121
S'I-NP'
p1122
g5
tp1123
a(S'total'
p1124
S'total'
p1125
S'JJ'
p1126
S'I-NP'
p1127
g5
tp1128
a(S'blood'
p1129
S'blood'
p1130
S'NN'
p1131
S'I-NP'
p1132
g5
tp1133
a(S'loss'
p1134
S'loss'
p1135
S'NN'
p1136
S'I-NP'
p1137
g5
tp1138
a(g88
g88
g88
g5
g5
tp1139
a(S'CONCLUSIONS'
p1140
S'CONCLUSIONS'
p1141
S'NNS'
p1142
S'B-NP'
p1143
g5
tp1144
a(S'Single-dose'
p1145
S'Single-dose'
p1146
S'JJ'
p1147
S'I-NP'
p1148
g5
tp1149
a(S'tranexamic'
p1150
S'tranexamic'
p1151
S'JJ'
p1152
S'I-NP'
p1153
g5
tp1154
a(S'acid'
p1155
S'acid'
p1156
S'NN'
p1157
S'I-NP'
p1158
g5
tp1159
a(S'did'
p1160
S'do'
p1161
S'VBD'
p1162
S'B-VP'
p1163
g5
tp1164
a(S'not'
p1165
S'not'
p1166
S'RB'
p1167
S'I-VP'
p1168
g5
tp1169
a(S'give'
p1170
S'give'
p1171
S'VB'
p1172
S'I-VP'
p1173
g5
tp1174
a(S'effective'
p1175
S'effective'
p1176
S'JJ'
p1177
S'B-NP'
p1178
g5
tp1179
a(S'results.'
p1180
S'results.'
p1181
S'NNS'
p1182
S'I-NP'
p1183
g5
tp1184
a(S'The'
p1185
S'The'
p1186
S'DT'
p1187
S'B-NP'
p1188
g5
tp1189
a(S'two-dose'
p1190
S'two-dose'
p1191
S'JJ'
p1192
S'I-NP'
p1193
g5
tp1194
a(S'regimen'
p1195
S'regimen'
p1196
S'NN'
p1197
S'I-NP'
p1198
g5
tp1199
a(S'of'
p1200
S'of'
p1201
S'IN'
p1202
S'B-PP'
p1203
g5
tp1204
a(S'POIO'
p1205
S'POIO'
p1206
S'NN'
p1207
S'B-NP'
p1208
S'B-protein'
p1209
tp1210
a(S'was'
p1211
S'be'
p1212
S'VBD'
p1213
S'B-VP'
p1214
g5
tp1215
a(S'the'
p1216
S'the'
p1217
S'DT'
p1218
S'B-NP'
p1219
g5
tp1220
a(S'least'
p1221
S'least'
p1222
S'JJS'
p1223
S'I-NP'
p1224
g5
tp1225
a(S'amount'
p1226
S'amount'
p1227
S'NN'
p1228
S'I-NP'
p1229
g5
tp1230
a(S'necessary'
p1231
S'necessary'
p1232
S'JJ'
p1233
S'B-ADJP'
p1234
g5
tp1235
a(S'for'
p1236
S'for'
p1237
S'IN'
p1238
S'B-PP'
p1239
g5
tp1240
a(S'effective'
p1241
S'effective'
p1242
S'JJ'
p1243
S'B-NP'
p1244
g5
tp1245
a(S'results.'
p1246
S'results.'
p1247
S'NNS'
p1248
S'I-NP'
p1249
g5
tp1250
a(S'When'
p1251
S'When'
p1252
S'WRB'
p1253
S'B-ADVP'
p1254
g5
tp1255
a(S'compared'
p1256
S'compare'
p1257
S'VBN'
p1258
S'B-VP'
p1259
g5
tp1260
a(S'against'
p1261
S'against'
p1262
S'IN'
p1263
S'B-PP'
p1264
g5
tp1265
a(S'the'
p1266
S'the'
p1267
S'DT'
p1268
S'B-NP'
p1269
g5
tp1270
a(S'control'
p1271
S'control'
p1272
S'NN'
p1273
S'I-NP'
p1274
g5
tp1275
a(g135
g135
g135
g5
g5
tp1276
a(S'this'
p1277
S'this'
p1278
S'DT'
p1279
S'B-NP'
p1280
g5
tp1281
a(S'regimen'
p1282
S'regimen'
p1283
S'NN'
p1284
S'I-NP'
p1285
g5
tp1286
a(S'produced'
p1287
S'produce'
p1288
S'VBD'
p1289
S'B-VP'
p1290
g5
tp1291
a(S'reduction'
p1292
S'reduction'
p1293
S'NN'
p1294
S'B-NP'
p1295
g5
tp1296
a(S'of'
p1297
S'of'
p1298
S'IN'
p1299
S'B-PP'
p1300
g5
tp1301
a(S'drain'
p1302
S'drain'
p1303
S'NN'
p1304
S'B-NP'
p1305
g5
tp1306
a(S'loss'
p1307
S'loss'
p1308
S'NN'
p1309
S'I-NP'
p1310
g5
tp1311
a(S'and'
p1312
S'and'
p1313
S'CC'
p1314
g5
g5
tp1315
a(S'total'
p1316
S'total'
p1317
S'JJ'
p1318
S'B-NP'
p1319
g5
tp1320
a(S'blood'
p1321
S'blood'
p1322
S'NN'
p1323
S'I-NP'
p1324
g5
tp1325
a(S'loss'
p1326
S'loss'
p1327
S'NN'
p1328
S'I-NP'
p1329
g5
tp1330
a(g135
g135
g135
g5
g5
tp1331
a(S'whereas'
p1332
S'whereas'
p1333
S'IN'
p1334
g5
g5
tp1335
a(S'the'
p1336
S'the'
p1337
S'DT'
p1338
S'B-NP'
p1339
g5
tp1340
a(S'IOPO'
p1341
S'IOPO'
p1342
S'NN'
p1343
S'I-NP'
p1344
g5
tp1345
a(S'regimen'
p1346
S'regimen'
p1347
S'NN'
p1348
S'I-NP'
p1349
g5
tp1350
a(S'did'
p1351
S'do'
p1352
S'VBD'
p1353
S'B-VP'
p1354
g5
tp1355
a(S'not.'
p1356
S'not.'
p1357
S'RB'
p1358
S'B-ADVP'
p1359
g5
tp1360
a(S'The'
p1361
S'The'
p1362
S'DT'
p1363
S'B-NP'
p1364
g5
tp1365
a(S'three-dose'
p1366
S'three-dose'
p1367
S'JJ'
p1368
S'I-NP'
p1369
g5
tp1370
a(S'regimen'
p1371
S'regimen'
p1372
S'NN'
p1373
S'I-NP'
p1374
g5
tp1375
a(S'of'
p1376
S'of'
p1377
S'IN'
p1378
S'B-PP'
p1379
g5
tp1380
a(S'POIOPO'
p1381
S'POIOPO'
p1382
S'NN'
p1383
S'B-NP'
p1384
S'B-protein'
p1385
tp1386
a(S'produced'
p1387
S'produce'
p1388
S'VBD'
p1389
S'B-VP'
p1390
g5
tp1391
a(S'maximum'
p1392
S'maximum'
p1393
S'JJ'
p1394
S'B-NP'
p1395
g5
tp1396
a(S'effective'
p1397
S'effective'
p1398
S'JJ'
p1399
S'I-NP'
p1400
g5
tp1401
a(S'reduction'
p1402
S'reduction'
p1403
S'NN'
p1404
S'I-NP'
p1405
g5
tp1406
a(S'of'
p1407
S'of'
p1408
S'IN'
p1409
S'B-PP'
p1410
g5
tp1411
a(S'drain'
p1412
S'drain'
p1413
S'NN'
p1414
S'B-NP'
p1415
g5
tp1416
a(S'loss'
p1417
S'loss'
p1418
S'NN'
p1419
S'I-NP'
p1420
g5
tp1421
a(S'and'
p1422
S'and'
p1423
S'CC'
p1424
g5
g5
tp1425
a(S'total'
p1426
S'total'
p1427
S'JJ'
p1428
S'B-NP'
p1429
g5
tp1430
a(S'blood'
p1431
S'blood'
p1432
S'NN'
p1433
S'I-NP'
p1434
g5
tp1435
a(S'loss'
p1436
S'loss'
p1437
S'NN'
p1438
S'I-NP'
p1439
g5
tp1440
a(g88
g88
g88
g5
g5
tp1441
a.