(lp0
(S'Randomized'
p1
S'Randomize'
p2
S'VBN'
p3
S'B-NP'
p4
S'O'
p5
tp6
a(S','
p7
g7
g7
S'I-NP'
p8
g5
tp9
a(S'double-blind'
p10
S'double-blind'
p11
S'JJ'
p12
S'I-NP'
p13
g5
tp14
a(g7
g7
g7
S'I-NP'
p15
g5
tp16
a(S'multicenter'
p17
S'multicenter'
p18
S'JJ'
p19
S'I-NP'
p20
g5
tp21
a(S'trial'
p22
S'trial'
p23
S'NN'
p24
S'I-NP'
p25
g5
tp26
a(S'comparing'
p27
S'compare'
p28
S'VBG'
p29
S'B-VP'
p30
g5
tp31
a(S'two'
p32
S'two'
p33
S'CD'
p34
S'B-NP'
p35
g5
tp36
a(S'doses'
p37
S'dose'
p38
S'NNS'
p39
S'I-NP'
p40
g5
tp41
a(S'of'
p42
S'of'
p43
S'IN'
p44
S'B-PP'
p45
g5
tp46
a(S'arzoxifene'
p47
S'arzoxifene'
p48
S'NN'
p49
S'B-NP'
p50
g5
tp51
a(S'('
p52
g52
g52
g5
g5
tp53
a(S'LY353381'
p54
S'LY353381'
p55
S'NN'
p56
S'B-NP'
p57
g5
tp58
a(S')'
p59
g59
g59
g5
g5
tp60
a(S'in'
p61
S'in'
p62
S'IN'
p63
S'B-PP'
p64
g5
tp65
a(S'hormone-sensitive'
p66
S'hormone-sensitive'
p67
S'JJ'
p68
S'B-NP'
p69
g5
tp70
a(S'advanced'
p71
S'advanced'
p72
S'JJ'
p73
S'I-NP'
p74
g5
tp75
a(S'or'
p76
S'or'
p77
S'CC'
p78
S'I-NP'
p79
g5
tp80
a(S'metastatic'
p81
S'metastatic'
p82
S'JJ'
p83
S'I-NP'
p84
g5
tp85
a(S'breast'
p86
S'breast'
p87
S'NN'
p88
S'I-NP'
p89
g5
tp90
a(S'cancer'
p91
S'cancer'
p92
S'NN'
p93
S'I-NP'
p94
g5
tp95
a(S'patients'
p96
S'patient'
p97
S'NNS'
p98
S'I-NP'
p99
g5
tp100
a(S'.'
p101
g101
g101
g5
g5
tp102
a(S'BACKGROUND'
p103
S'BACKGROUND'
p104
S'NN'
p105
S'B-NP'
p106
g5
tp107
a(S'This'
p108
S'This'
p109
S'DT'
p110
S'B-NP'
p111
g5
tp112
a(S'randomized'
p113
S'randomize'
p114
S'VBN'
p115
S'I-NP'
p116
g5
tp117
a(g7
g7
g7
S'I-NP'
p118
g5
tp119
a(S'double-blind'
p120
S'double-blind'
p121
S'JJ'
p122
S'I-NP'
p123
g5
tp124
a(g7
g7
g7
S'I-NP'
p125
g5
tp126
a(S'phase'
p127
S'phase'
p128
S'NN'
p129
S'I-NP'
p130
g5
tp131
a(S'II'
p132
S'II'
p133
S'CD'
p134
S'I-NP'
p135
g5
tp136
a(S'study'
p137
S'study'
p138
S'NN'
p139
S'I-NP'
p140
g5
tp141
a(S'assessed'
p142
S'assess'
p143
S'VBD'
p144
S'B-VP'
p145
g5
tp146
a(S'two'
p147
S'two'
p148
S'CD'
p149
S'B-NP'
p150
g5
tp151
a(S'doses'
p152
S'dose'
p153
S'NNS'
p154
S'I-NP'
p155
g5
tp156
a(S'of'
p157
S'of'
p158
S'IN'
p159
S'B-PP'
p160
g5
tp161
a(S'the'
p162
S'the'
p163
S'DT'
p164
S'B-NP'
p165
g5
tp166
a(S'selective'
p167
S'selective'
p168
S'JJ'
p169
S'I-NP'
p170
g5
tp171
a(S'estrogen'
p172
S'estrogen'
p173
S'NN'
p174
S'I-NP'
p175
g5
tp176
a(S'receptor'
p177
S'receptor'
p178
S'NN'
p179
S'I-NP'
p180
g5
tp181
a(S'modulator'
p182
S'modulator'
p183
S'NN'
p184
S'I-NP'
p185
g5
tp186
a(S'arzoxifene'
p187
S'arzoxifene'
p188
S'NN'
p189
S'I-NP'
p190
g5
tp191
a(S'in'
p192
S'in'
p193
S'IN'
p194
S'B-PP'
p195
g5
tp196
a(S'women'
p197
S'woman'
p198
S'NNS'
p199
S'B-NP'
p200
g5
tp201
a(S'with'
p202
S'with'
p203
S'IN'
p204
S'B-PP'
p205
g5
tp206
a(S'advanced'
p207
S'advance'
p208
S'VBN'
p209
S'B-NP'
p210
g5
tp211
a(S'breast'
p212
S'breast'
p213
S'NN'
p214
S'I-NP'
p215
g5
tp216
a(S'cancer.'
p217
S'cancer.'
p218
S'MD'
p219
g5
g5
tp220
a(S'The'
p221
S'The'
p222
S'DT'
p223
S'B-NP'
p224
g5
tp225
a(S'primary'
p226
S'primary'
p227
S'JJ'
p228
S'I-NP'
p229
g5
tp230
a(S'end'
p231
S'end'
p232
S'NN'
p233
S'I-NP'
p234
g5
tp235
a(S'point'
p236
S'point'
p237
S'NN'
p238
S'I-NP'
p239
g5
tp240
a(S'was'
p241
S'be'
p242
S'VBD'
p243
S'B-VP'
p244
g5
tp245
a(S'to'
p246
S'to'
p247
S'TO'
p248
S'B-VP'
p249
g5
tp250
a(S'choose'
p251
S'choose'
p252
S'VB'
p253
S'I-VP'
p254
g5
tp255
a(S'the'
p256
S'the'
p257
S'DT'
p258
S'B-NP'
p259
g5
tp260
a(S'best'
p261
S'good'
p262
S'JJS'
p263
S'I-NP'
p264
g5
tp265
a(S'of'
p266
S'of'
p267
S'IN'
p268
S'B-PP'
p269
g5
tp270
a(S'two'
p271
S'two'
p272
S'CD'
p273
S'B-NP'
p274
g5
tp275
a(S'doses'
p276
S'dose'
p277
S'NNS'
p278
S'I-NP'
p279
g5
tp280
a(S'of'
p281
S'of'
p282
S'IN'
p283
S'B-PP'
p284
g5
tp285
a(S'arzoxifene'
p286
S'arzoxifene'
p287
S'NN'
p288
S'B-NP'
p289
g5
tp290
a(S'based'
p291
S'base'
p292
S'VBN'
p293
S'B-VP'
p294
g5
tp295
a(S'on'
p296
S'on'
p297
S'IN'
p298
S'B-PP'
p299
g5
tp300
a(S'the'
p301
S'the'
p302
S'DT'
p303
S'B-NP'
p304
g5
tp305
a(S'response'
p306
S'response'
p307
S'NN'
p308
S'I-NP'
p309
g5
tp310
a(S'rate'
p311
S'rate'
p312
S'NN'
p313
S'I-NP'
p314
g5
tp315
a(S'or'
p316
S'or'
p317
S'CC'
p318
g5
g5
tp319
a(S'the'
p320
S'the'
p321
S'DT'
p322
S'B-NP'
p323
g5
tp324
a(S'clinical'
p325
S'clinical'
p326
S'JJ'
p327
S'I-NP'
p328
g5
tp329
a(S'benefit'
p330
S'benefit'
p331
S'NN'
p332
S'I-NP'
p333
g5
tp334
a(S'rate'
p335
S'rate'
p336
S'NN'
p337
S'I-NP'
p338
g5
tp339
a(g52
g52
g52
g5
g5
tp340
a(S'CBR'
p341
S'CBR'
p342
S'NN'
p343
S'B-NP'
p344
S'B-protein'
p345
tp346
a(g59
g59
g59
g5
g5
tp347
a(g101
g101
g101
g5
g5
tp348
a(S'Pharmacokinetics'
p349
S'Pharmacokinetic'
p350
S'NNPS'
p351
S'B-NP'
p352
g5
tp353
a(S'and'
p354
S'and'
p355
S'CC'
p356
g5
g5
tp357
a(S'toxicities'
p358
S'toxicity'
p359
S'NNS'
p360
S'B-NP'
p361
g5
tp362
a(S'were'
p363
S'be'
p364
S'VBD'
p365
S'B-VP'
p366
g5
tp367
a(S'also'
p368
S'also'
p369
S'RB'
p370
S'I-VP'
p371
g5
tp372
a(S'assessed'
p373
S'assess'
p374
S'VBN'
p375
S'I-VP'
p376
g5
tp377
a(g101
g101
g101
g5
g5
tp378
a(S'PATIENTS'
p379
S'PATIENTS'
p380
S'NNS'
p381
S'B-NP'
p382
g5
tp383
a(S'AND'
p384
S'AND'
p385
S'CC'
p386
S'I-NP'
p387
g5
tp388
a(S'METHODS'
p389
S'METHODS'
p390
S'NNS'
p391
S'I-NP'
p392
g5
tp393
a(S'Ninety-two'
p394
S'Ninety-two'
p395
S'CD'
p396
S'B-NP'
p397
g5
tp398
a(S'patients'
p399
S'patient'
p400
S'NNS'
p401
S'I-NP'
p402
g5
tp403
a(S'with'
p404
S'with'
p405
S'IN'
p406
S'B-PP'
p407
g5
tp408
a(S'advanced'
p409
S'advance'
p410
S'VBN'
p411
S'B-NP'
p412
g5
tp413
a(S'breast'
p414
S'breast'
p415
S'NN'
p416
S'I-NP'
p417
g5
tp418
a(S'cancer'
p419
S'cancer'
p420
S'NN'
p421
S'I-NP'
p422
g5
tp423
a(S'received'
p424
S'receive'
p425
S'VBD'
p426
S'B-VP'
p427
g5
tp428
a(S'arzoxifene'
p429
S'arzoxifene'
p430
S'NN'
p431
S'B-NP'
p432
g5
tp433
a(S'20'
p434
S'20'
p435
S'CD'
p436
S'I-NP'
p437
g5
tp438
a(S'or'
p439
S'or'
p440
S'CC'
p441
S'I-NP'
p442
g5
tp443
a(S'50'
p444
S'50'
p445
S'CD'
p446
S'I-NP'
p447
g5
tp448
a(S'mg/day.'
p449
S'mg/day.'
p450
S'NN'
p451
S'I-NP'
p452
g5
tp453
a(S'Tumor'
p454
S'Tumor'
p455
S'NN'
p456
S'I-NP'
p457
g5
tp458
a(S'response'
p459
S'response'
p460
S'NN'
p461
S'I-NP'
p462
g5
tp463
a(S'was'
p464
S'be'
p465
S'VBD'
p466
S'B-VP'
p467
g5
tp468
a(S'assessed'
p469
S'assess'
p470
S'VBN'
p471
S'I-VP'
p472
g5
tp473
a(S'using'
p474
S'use'
p475
S'VBG'
p476
S'B-VP'
p477
g5
tp478
a(S'World'
p479
S'World'
p480
S'NNP'
p481
S'B-NP'
p482
g5
tp483
a(S'Health'
p484
S'Health'
p485
S'NNP'
p486
S'I-NP'
p487
g5
tp488
a(S'Organization'
p489
S'Organization'
p490
S'NNP'
p491
S'I-NP'
p492
g5
tp493
a(S'criteria.'
p494
S'criteria.'
p495
S'NNP'
p496
S'I-NP'
p497
g5
tp498
a(S'Toxicities'
p499
S'Toxicity'
p500
S'NNPS'
p501
S'I-NP'
p502
g5
tp503
a(S'were'
p504
S'be'
p505
S'VBD'
p506
S'B-VP'
p507
g5
tp508
a(S'graded'
p509
S'grade'
p510
S'VBN'
p511
S'I-VP'
p512
g5
tp513
a(S'according'
p514
S'accord'
p515
S'VBG'
p516
S'B-PP'
p517
g5
tp518
a(S'to'
p519
S'to'
p520
S'TO'
p521
S'B-PP'
p522
g5
tp523
a(S'the'
p524
S'the'
p525
S'DT'
p526
S'B-NP'
p527
g5
tp528
a(S'National'
p529
S'National'
p530
S'NNP'
p531
S'I-NP'
p532
g5
tp533
a(S'Cancer'
p534
S'Cancer'
p535
S'NNP'
p536
S'I-NP'
p537
g5
tp538
a(S'Institute'
p539
S'Institute'
p540
S'NNP'
p541
S'I-NP'
p542
g5
tp543
a(S'Common'
p544
S'Common'
p545
S'NNP'
p546
S'I-NP'
p547
g5
tp548
a(S'Toxicity'
p549
S'Toxicity'
p550
S'NNP'
p551
S'I-NP'
p552
g5
tp553
a(S'Criteria'
p554
S'Criteria'
p555
S'NNP'
p556
S'I-NP'
p557
g5
tp558
a(g52
g52
g52
g5
g5
tp559
a(S'NCI-CTC'
p560
S'NCI-CTC'
p561
S'NN'
p562
S'B-NP'
p563
g5
tp564
a(g59
g59
g59
g5
g5
tp565
a(S'system.'
p566
S'system.'
p567
S'NN'
p568
S'B-NP'
p569
g5
tp570
a(S'Pharmacokinetic'
p571
S'Pharmacokinetic'
p572
S'JJ'
p573
S'I-NP'
p574
g5
tp575
a(S'data'
p576
S'datum'
p577
S'NNS'
p578
S'I-NP'
p579
g5
tp580
a(S'were'
p581
S'be'
p582
S'VBD'
p583
S'B-VP'
p584
g5
tp585
a(S'analyzed'
p586
S'analyze'
p587
S'VBN'
p588
S'I-VP'
p589
g5
tp590
a(S'using'
p591
S'use'
p592
S'VBG'
p593
S'B-VP'
p594
g5
tp595
a(S'the'
p596
S'the'
p597
S'DT'
p598
S'B-NP'
p599
g5
tp600
a(S'NONMEM'
p601
S'NONMEM'
p602
S'NN'
p603
S'I-NP'
p604
g5
tp605
a(S'software'
p606
S'software'
p607
S'NN'
p608
S'I-NP'
p609
g5
tp610
a(S'program'
p611
S'program'
p612
S'NN'
p613
S'I-NP'
p614
g5
tp615
a(g52
g52
g52
g5
g5
tp616
a(S'GloboMax'
p617
S'GloboMax'
p618
S'NNP'
p619
S'B-NP'
p620
g5
tp621
a(g7
g7
g7
g5
g5
tp622
a(S'Hanover'
p623
S'Hanover'
p624
S'NNP'
p625
S'B-NP'
p626
g5
tp627
a(g7
g7
g7
g5
g5
tp628
a(S'MD'
p629
S'MD'
p630
S'NNP'
p631
S'B-NP'
p632
g5
tp633
a(g7
g7
g7
g5
g5
tp634
a(S'USA'
p635
S'USA'
p636
S'NNP'
p637
S'B-NP'
p638
g5
tp639
a(g59
g59
g59
g5
g5
tp640
a(g101
g101
g101
g5
g5
tp641
a(S'RESULTS'
p642
S'RESULTS'
p643
S'NNS'
p644
S'B-NP'
p645
g5
tp646
a(S'Response'
p647
S'Response'
p648
S'VBP'
p649
S'B-VP'
p650
g5
tp651
a(S'rates'
p652
S'rate'
p653
S'NNS'
p654
S'B-NP'
p655
g5
tp656
a(S'in'
p657
S'in'
p658
S'IN'
p659
S'B-PP'
p660
g5
tp661
a(S'the'
p662
S'the'
p663
S'DT'
p664
S'B-NP'
p665
g5
tp666
a(S'20'
p667
S'20'
p668
S'CD'
p669
S'I-NP'
p670
g5
tp671
a(S'mg'
p672
S'mg'
p673
S'NN'
p674
S'I-NP'
p675
g5
tp676
a(S'arm'
p677
S'arm'
p678
S'NN'
p679
S'I-NP'
p680
g5
tp681
a(S'were'
p682
S'be'
p683
S'VBD'
p684
S'B-VP'
p685
g5
tp686
a(S'numerically'
p687
S'numerically'
p688
S'RB'
p689
S'B-ADJP'
p690
g5
tp691
a(S'higher'
p692
S'high'
p693
S'JJR'
p694
S'I-ADJP'
p695
g5
tp696
a(S'than'
p697
S'than'
p698
S'IN'
p699
S'B-PP'
p700
g5
tp701
a(S'the'
p702
S'the'
p703
S'DT'
p704
S'B-NP'
p705
g5
tp706
a(S'50-mg'
p707
S'50-mg'
p708
S'JJ'
p709
S'I-NP'
p710
g5
tp711
a(S'arm'
p712
S'arm'
p713
S'NN'
p714
S'I-NP'
p715
g5
tp716
a(S'according'
p717
S'accord'
p718
S'VBG'
p719
S'B-PP'
p720
g5
tp721
a(S'to'
p722
S'to'
p723
S'TO'
p724
S'B-PP'
p725
g5
tp726
a(S'the'
p727
S'the'
p728
S'DT'
p729
S'B-NP'
p730
g5
tp731
a(S'investigator'
p732
S'investigator'
p733
S'NN'
p734
S'I-NP'
p735
g5
tp736
a(g52
g52
g52
g5
g5
tp737
a(S'40.5'
p738
S'40.5'
p739
S'CD'
p740
S'B-NP'
p741
g5
tp742
a(S'%'
p743
g743
S'NN'
p744
S'I-NP'
p745
g5
tp746
a(S'versus'
p747
S'versus'
p748
S'IN'
p749
S'B-PP'
p750
g5
tp751
a(S'36.4'
p752
S'36.4'
p753
S'CD'
p754
S'B-NP'
p755
g5
tp756
a(g743
g743
S'NN'
p757
S'I-NP'
p758
g5
tp759
a(g59
g59
g59
g5
g5
tp760
a(S'and'
p761
S'and'
p762
S'CC'
p763
g5
g5
tp764
a(S'the'
p765
S'the'
p766
S'DT'
p767
S'B-NP'
p768
g5
tp769
a(S'independent'
p770
S'independent'
p771
S'JJ'
p772
S'I-NP'
p773
g5
tp774
a(S'review'
p775
S'review'
p776
S'NN'
p777
S'I-NP'
p778
g5
tp779
a(S'panel'
p780
S'panel'
p781
S'NN'
p782
S'I-NP'
p783
g5
tp784
a(g52
g52
g52
g5
g5
tp785
a(S'42.9'
p786
S'42.9'
p787
S'CD'
p788
S'B-NP'
p789
g5
tp790
a(g743
g743
S'NN'
p791
S'I-NP'
p792
g5
tp793
a(S'versus'
p794
S'versus'
p795
S'IN'
p796
S'B-PP'
p797
g5
tp798
a(S'27.3'
p799
S'27.3'
p800
S'CD'
p801
S'B-NP'
p802
g5
tp803
a(g743
g743
S'NN'
p804
S'I-NP'
p805
g5
tp806
a(g59
g59
g59
g5
g5
tp807
a(g101
g101
g101
g5
g5
tp808
a(S'CBR'
p809
S'CBR'
p810
S'NN'
p811
S'B-NP'
p812
S'B-protein'
p813
tp814
a(S'was'
p815
S'be'
p816
S'VBD'
p817
S'B-VP'
p818
g5
tp819
a(S'higher'
p820
S'high'
p821
S'JJR'
p822
S'B-ADJP'
p823
g5
tp824
a(S'in'
p825
S'in'
p826
S'IN'
p827
S'B-PP'
p828
g5
tp829
a(S'the'
p830
S'the'
p831
S'DT'
p832
S'B-NP'
p833
g5
tp834
a(S'20'
p835
S'20'
p836
S'CD'
p837
S'I-NP'
p838
g5
tp839
a(S'mg'
p840
S'mg'
p841
S'NN'
p842
S'I-NP'
p843
g5
tp844
a(S'arm'
p845
S'arm'
p846
S'NN'
p847
S'I-NP'
p848
g5
tp849
a(S'according'
p850
S'accord'
p851
S'VBG'
p852
S'B-PP'
p853
g5
tp854
a(S'to'
p855
S'to'
p856
S'TO'
p857
S'B-PP'
p858
g5
tp859
a(S'the'
p860
S'the'
p861
S'DT'
p862
S'B-NP'
p863
g5
tp864
a(S'investigator'
p865
S'investigator'
p866
S'NN'
p867
S'I-NP'
p868
g5
tp869
a(g52
g52
g52
g5
g5
tp870
a(S'64.3'
p871
S'64.3'
p872
S'CD'
p873
S'B-NP'
p874
g5
tp875
a(g743
g743
S'NN'
p876
S'I-NP'
p877
g5
tp878
a(S'versus'
p879
S'versus'
p880
S'IN'
p881
S'B-PP'
p882
g5
tp883
a(S'61.4'
p884
S'61.4'
p885
S'CD'
p886
S'B-NP'
p887
g5
tp888
a(g743
g743
S'NN'
p889
S'I-NP'
p890
g5
tp891
a(g59
g59
g59
g5
g5
tp892
a(S'and'
p893
S'and'
p894
S'CC'
p895
g5
g5
tp896
a(S'the'
p897
S'the'
p898
S'DT'
p899
S'B-NP'
p900
g5
tp901
a(S'independent'
p902
S'independent'
p903
S'JJ'
p904
S'I-NP'
p905
g5
tp906
a(S'review'
p907
S'review'
p908
S'NN'
p909
S'I-NP'
p910
g5
tp911
a(S'panel'
p912
S'panel'
p913
S'NN'
p914
S'I-NP'
p915
g5
tp916
a(g52
g52
g52
g5
g5
tp917
a(S'59.5'
p918
S'59.5'
p919
S'CD'
p920
S'B-NP'
p921
g5
tp922
a(g743
g743
S'NN'
p923
S'I-NP'
p924
g5
tp925
a(S'versus'
p926
S'versus'
p927
S'IN'
p928
S'B-PP'
p929
g5
tp930
a(S'47.7'
p931
S'47.7'
p932
S'CD'
p933
S'B-NP'
p934
g5
tp935
a(g743
g743
S'NN'
p936
S'I-NP'
p937
g5
tp938
a(g59
g59
g59
g5
g5
tp939
a(g101
g101
g101
g5
g5
tp940
a(S'Arzoxifene'
p941
S'Arzoxifene'
p942
S'NN'
p943
S'B-NP'
p944
g5
tp945
a(S'was'
p946
S'be'
p947
S'VBD'
p948
S'B-VP'
p949
g5
tp950
a(S'well'
p951
S'well'
p952
S'RB'
p953
S'I-VP'
p954
g5
tp955
a(S'tolerated.'
p956
S'tolerated.'
p957
S'VBN'
p958
S'I-VP'
p959
g5
tp960
a(S'There'
p961
S'There'
p962
S'EX'
p963
S'B-NP'
p964
g5
tp965
a(S'were'
p966
S'be'
p967
S'VBD'
p968
S'B-VP'
p969
g5
tp970
a(S'no'
p971
S'no'
p972
S'DT'
p973
S'B-NP'
p974
g5
tp975
a(S'study'
p976
S'study'
p977
S'NN'
p978
S'I-NP'
p979
g5
tp980
a(S'drug-related'
p981
S'drug-related'
p982
S'JJ'
p983
S'I-NP'
p984
g5
tp985
a(S'deaths.'
p986
S'deaths.'
p987
S'NN'
p988
S'I-NP'
p989
g5
tp990
a(S'Mean'
p991
S'Mean'
p992
S'NN'
p993
S'I-NP'
p994
g5
tp995
a(S'observed'
p996
S'observe'
p997
S'VBN'
p998
S'B-VP'
p999
g5
tp1000
a(S'steady-state'
p1001
S'steady-state'
p1002
S'JJ'
p1003
S'B-NP'
p1004
g5
tp1005
a(S'plasma'
p1006
S'plasma'
p1007
S'NN'
p1008
S'I-NP'
p1009
g5
tp1010
a(S'concentrations'
p1011
S'concentration'
p1012
S'NNS'
p1013
S'I-NP'
p1014
g5
tp1015
a(S'of'
p1016
S'of'
p1017
S'IN'
p1018
S'B-PP'
p1019
g5
tp1020
a(S'arzoxifene'
p1021
S'arzoxifene'
p1022
S'NN'
p1023
S'B-NP'
p1024
g5
tp1025
a(S'were'
p1026
S'be'
p1027
S'VBD'
p1028
S'B-VP'
p1029
g5
tp1030
a(S'3.62'
p1031
S'3.62'
p1032
S'CD'
p1033
S'B-NP'
p1034
g5
tp1035
a(S'and'
p1036
S'and'
p1037
S'CC'
p1038
S'I-NP'
p1039
g5
tp1040
a(S'7.48'
p1041
S'7.48'
p1042
S'CD'
p1043
S'I-NP'
p1044
g5
tp1045
a(S'ng/ml'
p1046
S'ng/ml'
p1047
S'NN'
p1048
S'I-NP'
p1049
g5
tp1050
a(S'for'
p1051
S'for'
p1052
S'IN'
p1053
S'B-PP'
p1054
g5
tp1055
a(S'the'
p1056
S'the'
p1057
S'DT'
p1058
S'B-NP'
p1059
g5
tp1060
a(S'20'
p1061
S'20'
p1062
S'CD'
p1063
S'I-NP'
p1064
g5
tp1065
a(S'and'
p1066
S'and'
p1067
S'CC'
p1068
S'I-NP'
p1069
g5
tp1070
a(S'50'
p1071
S'50'
p1072
S'CD'
p1073
S'I-NP'
p1074
g5
tp1075
a(S'mg'
p1076
S'mg'
p1077
S'NN'
p1078
S'I-NP'
p1079
g5
tp1080
a(S'doses'
p1081
S'dose'
p1082
S'NNS'
p1083
S'I-NP'
p1084
g5
tp1085
a(g7
g7
g7
g5
g5
tp1086
a(S'respectively'
p1087
S'respectively'
p1088
S'RB'
p1089
S'B-ADVP'
p1090
g5
tp1091
a(g101
g101
g101
g5
g5
tp1092
a(S'CONCLUSIONS'
p1093
S'CONCLUSIONS'
p1094
S'NNS'
p1095
S'B-NP'
p1096
g5
tp1097
a(S'There'
p1098
S'There'
p1099
S'EX'
p1100
S'B-NP'
p1101
g5
tp1102
a(S'were'
p1103
S'be'
p1104
S'VBD'
p1105
S'B-VP'
p1106
g5
tp1107
a(S'no'
p1108
S'no'
p1109
S'DT'
p1110
S'B-NP'
p1111
g5
tp1112
a(S'significant'
p1113
S'significant'
p1114
S'JJ'
p1115
S'I-NP'
p1116
g5
tp1117
a(S'differences'
p1118
S'difference'
p1119
S'NNS'
p1120
S'I-NP'
p1121
g5
tp1122
a(S'in'
p1123
S'in'
p1124
S'IN'
p1125
S'B-PP'
p1126
g5
tp1127
a(S'efficacy'
p1128
S'efficacy'
p1129
S'NN'
p1130
S'B-NP'
p1131
g5
tp1132
a(S'or'
p1133
S'or'
p1134
S'CC'
p1135
S'I-NP'
p1136
g5
tp1137
a(S'safety'
p1138
S'safety'
p1139
S'NN'
p1140
S'I-NP'
p1141
g5
tp1142
a(S'between'
p1143
S'between'
p1144
S'IN'
p1145
S'B-PP'
p1146
g5
tp1147
a(S'20'
p1148
S'20'
p1149
S'CD'
p1150
S'B-NP'
p1151
g5
tp1152
a(S'and'
p1153
S'and'
p1154
S'CC'
p1155
S'I-NP'
p1156
g5
tp1157
a(S'50'
p1158
S'50'
p1159
S'CD'
p1160
S'I-NP'
p1161
g5
tp1162
a(S'mg'
p1163
S'mg'
p1164
S'NN'
p1165
S'I-NP'
p1166
g5
tp1167
a(S'of'
p1168
S'of'
p1169
S'IN'
p1170
S'B-PP'
p1171
g5
tp1172
a(S'arzoxifene.'
p1173
S'arzoxifene.'
p1174
S'NN'
p1175
S'B-NP'
p1176
g5
tp1177
a(S'Accordingly'
p1178
S'Accordingly'
p1179
S'RB'
p1180
S'B-ADVP'
p1181
g5
tp1182
a(g7
g7
g7
g5
g5
tp1183
a(S'arzoxifene'
p1184
S'arzoxifene'
p1185
S'NN'
p1186
S'B-NP'
p1187
g5
tp1188
a(S'20'
p1189
S'20'
p1190
S'CD'
p1191
S'I-NP'
p1192
g5
tp1193
a(S'mg/day'
p1194
S'mg/day'
p1195
S'NN'
p1196
S'I-NP'
p1197
g5
tp1198
a(S'was'
p1199
S'be'
p1200
S'VBD'
p1201
S'B-VP'
p1202
g5
tp1203
a(S'selected'
p1204
S'select'
p1205
S'VBN'
p1206
S'I-VP'
p1207
g5
tp1208
a(S'for'
p1209
S'for'
p1210
S'IN'
p1211
S'B-PP'
p1212
g5
tp1213
a(S'further'
p1214
S'further'
p1215
S'JJ'
p1216
S'B-NP'
p1217
g5
tp1218
a(S'study'
p1219
S'study'
p1220
S'NN'
p1221
S'I-NP'
p1222
g5
tp1223
a(S'in'
p1224
S'in'
p1225
S'IN'
p1226
S'B-PP'
p1227
g5
tp1228
a(S'patients'
p1229
S'patient'
p1230
S'NNS'
p1231
S'B-NP'
p1232
g5
tp1233
a(S'with'
p1234
S'with'
p1235
S'IN'
p1236
S'B-PP'
p1237
g5
tp1238
a(S'breast'
p1239
S'breast'
p1240
S'NN'
p1241
S'B-NP'
p1242
g5
tp1243
a(S'cancer'
p1244
S'cancer'
p1245
S'NN'
p1246
S'I-NP'
p1247
g5
tp1248
a(g101
g101
g101
g5
g5
tp1249
a.