(lp0
(S'Ondansetron'
p1
S'Ondansetron'
p2
S'NN'
p3
S'B-NP'
p4
S'O'
p5
tp6
a(S'has'
p7
S'have'
p8
S'VBZ'
p9
S'B-VP'
p10
g5
tp11
a(S'similar'
p12
S'similar'
p13
S'JJ'
p14
S'B-NP'
p15
g5
tp16
a(S'clinical'
p17
S'clinical'
p18
S'JJ'
p19
S'I-NP'
p20
g5
tp21
a(S'efficacy'
p22
S'efficacy'
p23
S'NN'
p24
S'I-NP'
p25
g5
tp26
a(S'against'
p27
S'against'
p28
S'IN'
p29
S'B-PP'
p30
g5
tp31
a(S'both'
p32
S'both'
p33
S'CC'
p34
g5
g5
tp35
a(S'nausea'
p36
S'nausea'
p37
S'NN'
p38
S'B-NP'
p39
g5
tp40
a(S'and'
p41
S'and'
p42
S'CC'
p43
S'I-NP'
p44
g5
tp45
a(S'vomiting'
p46
S'vomiting'
p47
S'NN'
p48
S'I-NP'
p49
g5
tp50
a(S'.'
p51
g51
g51
g5
g5
tp52
a(S'Ondansetron'
p53
S'Ondansetron'
p54
S'NN'
p55
S'B-NP'
p56
g5
tp57
a(S'is'
p58
S'be'
p59
S'VBZ'
p60
S'B-VP'
p61
g5
tp62
a(S'widely'
p63
S'widely'
p64
S'RB'
p65
S'I-VP'
p66
g5
tp67
a(S'believed'
p68
S'believe'
p69
S'VBN'
p70
S'I-VP'
p71
g5
tp72
a(S'to'
p73
S'to'
p74
S'TO'
p75
S'I-VP'
p76
g5
tp77
a(S'prevent'
p78
S'prevent'
p79
S'VB'
p80
S'I-VP'
p81
g5
tp82
a(S'postoperative'
p83
S'postoperative'
p84
S'JJ'
p85
S'B-NP'
p86
g5
tp87
a(S'vomiting'
p88
S'vomiting'
p89
S'NN'
p90
S'I-NP'
p91
g5
tp92
a(S'more'
p93
S'more'
p94
S'RBR'
p95
S'B-ADVP'
p96
g5
tp97
a(S'effectively'
p98
S'effectively'
p99
S'RB'
p100
S'I-ADVP'
p101
g5
tp102
a(S'than'
p103
S'than'
p104
S'IN'
p105
S'B-PP'
p106
g5
tp107
a(S'nausea.'
p108
S'nausea.'
p109
S'FW'
p110
S'B-NP'
p111
g5
tp112
a(S'We'
p113
S'We'
p114
S'PRP'
p115
S'B-NP'
p116
g5
tp117
a(S'analysed'
p118
S'analyse'
p119
S'VBD'
p120
S'B-VP'
p121
g5
tp122
a(S'data'
p123
S'datum'
p124
S'NNS'
p125
S'B-NP'
p126
g5
tp127
a(S'from'
p128
S'from'
p129
S'IN'
p130
S'B-PP'
p131
g5
tp132
a(S'5161'
p133
S'5161'
p134
S'CD'
p135
S'B-NP'
p136
g5
tp137
a(S'patients'
p138
S'patient'
p139
S'NNS'
p140
S'I-NP'
p141
g5
tp142
a(S'undergoing'
p143
S'undergo'
p144
S'VBG'
p145
S'B-VP'
p146
g5
tp147
a(S'general'
p148
S'general'
p149
S'JJ'
p150
S'B-NP'
p151
g5
tp152
a(S'anaesthesia'
p153
S'anaesthesia'
p154
S'NN'
p155
S'I-NP'
p156
g5
tp157
a(S'who'
p158
S'who'
p159
S'WP'
p160
S'B-NP'
p161
g5
tp162
a(S'were'
p163
S'be'
p164
S'VBD'
p165
S'B-VP'
p166
g5
tp167
a(S'randomly'
p168
S'randomly'
p169
S'RB'
p170
S'I-VP'
p171
g5
tp172
a(S'stratified'
p173
S'stratify'
p174
S'VBN'
p175
S'I-VP'
p176
g5
tp177
a(S'to'
p178
S'to'
p179
S'TO'
p180
S'I-VP'
p181
g5
tp182
a(S'receive'
p183
S'receive'
p184
S'VB'
p185
S'I-VP'
p186
g5
tp187
a(S'a'
p188
g188
S'DT'
p189
S'B-NP'
p190
g5
tp191
a(S'combination'
p192
S'combination'
p193
S'NN'
p194
S'I-NP'
p195
g5
tp196
a(S'of'
p197
S'of'
p198
S'IN'
p199
S'B-PP'
p200
g5
tp201
a(S'six'
p202
S'six'
p203
S'CD'
p204
S'B-NP'
p205
g5
tp206
a(S'interventions'
p207
S'intervention'
p208
S'NNS'
p209
S'I-NP'
p210
g5
tp211
a(S','
p212
g212
g212
g5
g5
tp213
a(S'one'
p214
S'one'
p215
S'CD'
p216
S'B-NP'
p217
g5
tp218
a(S'of'
p219
S'of'
p220
S'IN'
p221
S'B-PP'
p222
g5
tp223
a(S'which'
p224
S'which'
p225
S'WDT'
p226
S'B-NP'
p227
g5
tp228
a(S'was'
p229
S'be'
p230
S'VBD'
p231
S'B-VP'
p232
g5
tp233
a(S'4'
p234
g234
S'CD'
p235
S'B-NP'
p236
g5
tp237
a(S'mg'
p238
S'mg'
p239
S'NN'
p240
S'I-NP'
p241
g5
tp242
a(S'ondansetron'
p243
S'ondansetron'
p244
S'NN'
p245
S'I-NP'
p246
g5
tp247
a(S'vs'
p248
S'vs'
p249
S'IN'
p250
S'B-PP'
p251
g5
tp252
a(S'placebo.'
p253
S'placebo.'
p254
S'NN'
p255
S'B-NP'
p256
g5
tp257
a(S'For'
p258
S'For'
p259
S'IN'
p260
S'B-PP'
p261
g5
tp262
a(S'the'
p263
S'the'
p264
S'DT'
p265
S'B-NP'
p266
g5
tp267
a(S'purpose'
p268
S'purpose'
p269
S'NN'
p270
S'I-NP'
p271
g5
tp272
a(S'of'
p273
S'of'
p274
S'IN'
p275
S'B-PP'
p276
g5
tp277
a(S'this'
p278
S'this'
p279
S'DT'
p280
S'B-NP'
p281
g5
tp282
a(S'study'
p283
S'study'
p284
S'NN'
p285
S'I-NP'
p286
g5
tp287
a(g188
g188
S'DT'
p288
S'B-NP'
p289
g5
tp290
a(S'20'
p291
S'20'
p292
S'CD'
p293
S'I-NP'
p294
g5
tp295
a(S'%'
p296
g296
S'NN'
p297
S'I-NP'
p298
g5
tp299
a(S'difference'
p300
S'difference'
p301
S'NN'
p302
S'I-NP'
p303
g5
tp304
a(S'in'
p305
S'in'
p306
S'IN'
p307
S'B-PP'
p308
g5
tp309
a(S'the'
p310
S'the'
p311
S'DT'
p312
S'B-NP'
p313
g5
tp314
a(S'relative'
p315
S'relative'
p316
S'JJ'
p317
S'I-NP'
p318
g5
tp319
a(S'risks'
p320
S'risk'
p321
S'NNS'
p322
S'I-NP'
p323
g5
tp324
a(S'for'
p325
S'for'
p326
S'IN'
p327
S'B-PP'
p328
g5
tp329
a(S'the'
p330
S'the'
p331
S'DT'
p332
S'B-NP'
p333
g5
tp334
a(S'two'
p335
S'two'
p336
S'CD'
p337
S'I-NP'
p338
g5
tp339
a(S'outcomes'
p340
S'outcome'
p341
S'NNS'
p342
S'I-NP'
p343
g5
tp344
a(S'was'
p345
S'be'
p346
S'VBD'
p347
S'B-VP'
p348
g5
tp349
a(S'considered'
p350
S'consider'
p351
S'VBN'
p352
S'I-VP'
p353
g5
tp354
a(S'clinically'
p355
S'clinically'
p356
S'RB'
p357
S'B-NP'
p358
g5
tp359
a(S'relevant.'
p360
S'relevant.'
p361
S'JJ'
p362
S'I-NP'
p363
g5
tp364
a(S'Nausea'
p365
S'Nausea'
p366
S'NNP'
p367
S'I-NP'
p368
g5
tp369
a(S'was'
p370
S'be'
p371
S'VBD'
p372
S'B-VP'
p373
g5
tp374
a(S'reduced'
p375
S'reduce'
p376
S'VBN'
p377
S'I-VP'
p378
g5
tp379
a(S'from'
p380
S'from'
p381
S'IN'
p382
S'B-PP'
p383
g5
tp384
a(S'38'
p385
S'38'
p386
S'CD'
p387
S'B-NP'
p388
g5
tp389
a(g296
g296
S'NN'
p390
S'I-NP'
p391
g5
tp392
a(S'('
p393
g393
g393
g5
g5
tp394
a(S'969/2585'
p395
S'969/2585'
p396
S'CD'
p397
S'B-NP'
p398
g5
tp399
a(S')'
p400
g400
g400
g5
g5
tp401
a(S'in'
p402
S'in'
p403
S'IN'
p404
S'B-PP'
p405
g5
tp406
a(S'the'
p407
S'the'
p408
S'DT'
p409
S'B-NP'
p410
g5
tp411
a(S'control'
p412
S'control'
p413
S'NN'
p414
S'I-NP'
p415
g5
tp416
a(S'to'
p417
S'to'
p418
S'TO'
p419
S'B-PP'
p420
g5
tp421
a(S'28'
p422
S'28'
p423
S'CD'
p424
S'B-NP'
p425
g5
tp426
a(g296
g296
S'NN'
p427
S'I-NP'
p428
g5
tp429
a(g393
g393
g393
g5
g5
tp430
a(S'715/2576'
p431
S'715/2576'
p432
S'CD'
p433
S'B-NP'
p434
g5
tp435
a(g400
g400
g400
g5
g5
tp436
a(S'in'
p437
S'in'
p438
S'IN'
p439
S'B-PP'
p440
g5
tp441
a(S'the'
p442
S'the'
p443
S'DT'
p444
S'B-NP'
p445
g5
tp446
a(S'ondansetron'
p447
S'ondansetron'
p448
S'NN'
p449
S'I-NP'
p450
g5
tp451
a(S'group'
p452
S'group'
p453
S'NN'
p454
S'I-NP'
p455
g5
tp456
a(g212
g212
g212
g5
g5
tp457
a(S'corresponding'
p458
S'correspond'
p459
S'VBG'
p460
S'B-VP'
p461
g5
tp462
a(S'to'
p463
S'to'
p464
S'TO'
p465
S'B-PP'
p466
g5
tp467
a(g188
g188
S'DT'
p468
S'B-NP'
p469
g5
tp470
a(S'relative'
p471
S'relative'
p472
S'JJ'
p473
S'I-NP'
p474
g5
tp475
a(S'risk'
p476
S'risk'
p477
S'NN'
p478
S'I-NP'
p479
g5
tp480
a(S'of'
p481
S'of'
p482
S'IN'
p483
S'B-PP'
p484
g5
tp485
a(S'0.74'
p486
S'0.74'
p487
S'CD'
p488
S'B-NP'
p489
g5
tp490
a(g212
g212
g212
g5
g5
tp491
a(S'or'
p492
S'or'
p493
S'CC'
p494
g5
g5
tp495
a(g188
g188
S'DT'
p496
S'B-NP'
p497
g5
tp498
a(S'relative'
p499
S'relative'
p500
S'JJ'
p501
S'I-NP'
p502
g5
tp503
a(S'risk'
p504
S'risk'
p505
S'NN'
p506
S'I-NP'
p507
g5
tp508
a(S'reduction'
p509
S'reduction'
p510
S'NN'
p511
S'I-NP'
p512
g5
tp513
a(S'of'
p514
S'of'
p515
S'IN'
p516
S'B-PP'
p517
g5
tp518
a(S'26'
p519
S'26'
p520
S'CD'
p521
S'B-NP'
p522
g5
tp523
a(g296
g296
S'NN'
p524
S'I-NP'
p525
g5
tp526
a(g51
g51
g51
S'I-NP'
p527
g5
tp528
a(S'Vomiting'
p529
S'Vomiting'
p530
S'NN'
p531
S'I-NP'
p532
g5
tp533
a(S'was'
p534
S'be'
p535
S'VBD'
p536
S'B-VP'
p537
g5
tp538
a(S'reduced'
p539
S'reduce'
p540
S'VBN'
p541
S'I-VP'
p542
g5
tp543
a(S'from'
p544
S'from'
p545
S'IN'
p546
S'B-PP'
p547
g5
tp548
a(S'17'
p549
S'17'
p550
S'CD'
p551
S'B-NP'
p552
g5
tp553
a(g296
g296
S'NN'
p554
S'I-NP'
p555
g5
tp556
a(g393
g393
g393
g5
g5
tp557
a(S'441/2585'
p558
S'441/2585'
p559
S'CD'
p560
S'B-NP'
p561
g5
tp562
a(g400
g400
g400
g5
g5
tp563
a(S'to'
p564
S'to'
p565
S'TO'
p566
S'B-PP'
p567
g5
tp568
a(S'11'
p569
S'11'
p570
S'CD'
p571
S'B-NP'
p572
g5
tp573
a(g296
g296
S'NN'
p574
S'I-NP'
p575
g5
tp576
a(g393
g393
g393
g5
g5
tp577
a(S'293/2576'
p578
S'293/2576'
p579
S'CD'
p580
S'B-NP'
p581
g5
tp582
a(g400
g400
g400
g5
g5
tp583
a(g212
g212
g212
g5
g5
tp584
a(S'corresponding'
p585
S'correspond'
p586
S'VBG'
p587
S'B-VP'
p588
g5
tp589
a(S'to'
p590
S'to'
p591
S'TO'
p592
S'B-PP'
p593
g5
tp594
a(g188
g188
S'DT'
p595
S'B-NP'
p596
g5
tp597
a(S'relative'
p598
S'relative'
p599
S'JJ'
p600
S'I-NP'
p601
g5
tp602
a(S'risk'
p603
S'risk'
p604
S'NN'
p605
S'I-NP'
p606
g5
tp607
a(S'of'
p608
S'of'
p609
S'IN'
p610
S'B-PP'
p611
g5
tp612
a(S'0.67'
p613
S'0.67'
p614
S'CD'
p615
S'B-NP'
p616
g5
tp617
a(g212
g212
g212
g5
g5
tp618
a(S'or'
p619
S'or'
p620
S'CC'
p621
g5
g5
tp622
a(g188
g188
S'DT'
p623
S'B-NP'
p624
g5
tp625
a(S'relative'
p626
S'relative'
p627
S'JJ'
p628
S'I-NP'
p629
g5
tp630
a(S'risk'
p631
S'risk'
p632
S'NN'
p633
S'I-NP'
p634
g5
tp635
a(S'reduction'
p636
S'reduction'
p637
S'NN'
p638
S'I-NP'
p639
g5
tp640
a(S'of'
p641
S'of'
p642
S'IN'
p643
S'B-PP'
p644
g5
tp645
a(S'33'
p646
S'33'
p647
S'CD'
p648
S'B-NP'
p649
g5
tp650
a(g296
g296
S'NN'
p651
S'I-NP'
p652
g5
tp653
a(g51
g51
g51
g5
g5
tp654
a(S'The'
p655
S'The'
p656
S'DT'
p657
S'B-NP'
p658
g5
tp659
a(S'relative'
p660
S'relative'
p661
S'JJ'
p662
S'I-NP'
p663
g5
tp664
a(S'risks'
p665
S'risk'
p666
S'NNS'
p667
S'I-NP'
p668
g5
tp669
a(S'of'
p670
S'of'
p671
S'IN'
p672
S'B-PP'
p673
g5
tp674
a(S'0.67'
p675
S'0.67'
p676
S'CD'
p677
S'B-NP'
p678
g5
tp679
a(S'and'
p680
S'and'
p681
S'CC'
p682
S'I-NP'
p683
g5
tp684
a(S'0.74'
p685
S'0.74'
p686
S'CD'
p687
S'I-NP'
p688
g5
tp689
a(S'were'
p690
S'be'
p691
S'VBD'
p692
S'B-VP'
p693
g5
tp694
a(S'clinically'
p695
S'clinically'
p696
S'RB'
p697
S'B-ADJP'
p698
g5
tp699
a(S'similar'
p700
S'similar'
p701
S'JJ'
p702
S'I-ADJP'
p703
g5
tp704
a(S'and'
p705
S'and'
p706
S'CC'
p707
g5
g5
tp708
a(S'the'
p709
S'the'
p710
S'DT'
p711
S'B-NP'
p712
g5
tp713
a(S'difference'
p714
S'difference'
p715
S'NN'
p716
S'I-NP'
p717
g5
tp718
a(S'between'
p719
S'between'
p720
S'IN'
p721
S'B-PP'
p722
g5
tp723
a(S'them'
p724
S'them'
p725
S'PRP'
p726
S'B-NP'
p727
g5
tp728
a(S'did'
p729
S'do'
p730
S'VBD'
p731
S'B-VP'
p732
g5
tp733
a(S'not'
p734
S'not'
p735
S'RB'
p736
S'I-VP'
p737
g5
tp738
a(S'reach'
p739
S'reach'
p740
S'VB'
p741
S'I-VP'
p742
g5
tp743
a(S'statistical'
p744
S'statistical'
p745
S'JJ'
p746
S'B-NP'
p747
g5
tp748
a(S'significance.'
p749
S'significance.'
p750
S'NN'
p751
S'I-NP'
p752
g5
tp753
a(S'We'
p754
S'We'
p755
S'PRP'
p756
S'B-NP'
p757
g5
tp758
a(S'thus'
p759
S'thus'
p760
S'RB'
p761
S'B-ADVP'
p762
g5
tp763
a(S'conclude'
p764
S'conclude'
p765
S'VBP'
p766
S'B-VP'
p767
g5
tp768
a(S'that'
p769
S'that'
p770
S'IN'
p771
S'B-SBAR'
p772
g5
tp773
a(S'ondansetron'
p774
S'ondansetron'
p775
S'NN'
p776
S'B-NP'
p777
g5
tp778
a(S'prevents'
p779
S'prevent'
p780
S'VBZ'
p781
S'B-VP'
p782
g5
tp783
a(S'postoperative'
p784
S'postoperative'
p785
S'JJ'
p786
S'B-NP'
p787
g5
tp788
a(S'nausea'
p789
S'nausea'
p790
S'NN'
p791
S'I-NP'
p792
g5
tp793
a(S'and'
p794
S'and'
p795
S'CC'
p796
g5
g5
tp797
a(S'postoperative'
p798
S'postoperative'
p799
S'JJ'
p800
S'B-NP'
p801
g5
tp802
a(S'vomiting'
p803
S'vomiting'
p804
S'NN'
p805
S'I-NP'
p806
g5
tp807
a(S'equally'
p808
S'equally'
p809
S'RB'
p810
S'B-ADVP'
p811
g5
tp812
a(S'well'
p813
S'well'
p814
S'RB'
p815
S'I-ADVP'
p816
g5
tp817
a(g51
g51
g51
g5
g5
tp818
a.