(lp0
(S'An'
p1
S'An'
p2
S'DT'
p3
S'B-NP'
p4
S'O'
p5
tp6
a(S'explorative'
p7
S'explorative'
p8
S'JJ'
p9
S'I-NP'
p10
g5
tp11
a(S'study'
p12
S'study'
p13
S'NN'
p14
S'I-NP'
p15
g5
tp16
a(S'on'
p17
S'on'
p18
S'IN'
p19
S'B-PP'
p20
g5
tp21
a(S'the'
p22
S'the'
p23
S'DT'
p24
S'B-NP'
p25
g5
tp26
a(S'clinical'
p27
S'clinical'
p28
S'JJ'
p29
S'I-NP'
p30
g5
tp31
a(S'utility'
p32
S'utility'
p33
S'NN'
p34
S'I-NP'
p35
g5
tp36
a(S'of'
p37
S'of'
p38
S'IN'
p39
S'B-PP'
p40
g5
tp41
a(S'baseline'
p42
S'baseline'
p43
S'NN'
p44
S'B-NP'
p45
g5
tp46
a(S'and'
p47
S'and'
p48
S'CC'
p49
g5
g5
tp50
a(S'serial'
p51
S'serial'
p52
S'JJ'
p53
S'B-NP'
p54
g5
tp55
a(S'serum'
p56
S'serum'
p57
S'NN'
p58
S'I-NP'
p59
g5
tp60
a(S'tumour'
p61
S'tumour'
p62
S'NN'
p63
S'I-NP'
p64
g5
tp65
a(S'marker'
p66
S'marker'
p67
S'NN'
p68
S'I-NP'
p69
g5
tp70
a(S'measurements'
p71
S'measurement'
p72
S'NNS'
p73
S'I-NP'
p74
g5
tp75
a(S'in'
p76
S'in'
p77
S'IN'
p78
S'B-PP'
p79
g5
tp80
a(S'advanced'
p81
S'advance'
p82
S'VBN'
p83
S'B-NP'
p84
g5
tp85
a(S'upper'
p86
S'upper'
p87
S'JJ'
p88
S'I-NP'
p89
g5
tp90
a(S'gastrointestinal'
p91
S'gastrointestinal'
p92
S'JJ'
p93
S'I-NP'
p94
g5
tp95
a(S'cancer'
p96
S'cancer'
p97
S'NN'
p98
S'I-NP'
p99
g5
tp100
a(S'.'
p101
g101
g101
g5
g5
tp102
a(S'The'
p103
S'The'
p104
S'DT'
p105
S'B-NP'
p106
g5
tp107
a(S'value'
p108
S'value'
p109
S'NN'
p110
S'I-NP'
p111
g5
tp112
a(S'of'
p113
S'of'
p114
S'IN'
p115
S'B-PP'
p116
g5
tp117
a(S'early'
p118
S'early'
p119
S'JJ'
p120
S'B-NP'
p121
g5
tp122
a(S'tumour'
p123
S'tumour'
p124
S'NN'
p125
S'I-NP'
p126
g5
tp127
a(S'marker'
p128
S'marker'
p129
S'NN'
p130
S'I-NP'
p131
g5
tp132
a(S'changes'
p133
S'change'
p134
S'NNS'
p135
S'I-NP'
p136
g5
tp137
a(S'during'
p138
S'during'
p139
S'IN'
p140
S'B-PP'
p141
g5
tp142
a(S'palliative'
p143
S'palliative'
p144
S'JJ'
p145
S'B-NP'
p146
g5
tp147
a(S'chemotherapy'
p148
S'chemotherapy'
p149
S'NN'
p150
S'I-NP'
p151
g5
tp152
a(S'in'
p153
S'in'
p154
S'IN'
p155
S'B-PP'
p156
g5
tp157
a(S'patients'
p158
S'patient'
p159
S'NNS'
p160
S'B-NP'
p161
g5
tp162
a(S'with'
p163
S'with'
p164
S'IN'
p165
S'B-PP'
p166
g5
tp167
a(S'upper'
p168
S'upper'
p169
S'JJ'
p170
S'B-NP'
p171
g5
tp172
a(S'gastrointestinal'
p173
S'gastrointestinal'
p174
S'JJ'
p175
S'I-NP'
p176
g5
tp177
a(S'adenocarcinoma'
p178
S'adenocarcinoma'
p179
S'NN'
p180
S'I-NP'
p181
g5
tp182
a(S'('
p183
g183
g183
g5
g5
tp184
a(S'UGIA'
p185
S'UGIA'
p186
S'NN'
p187
S'B-NP'
p188
g5
tp189
a(S')'
p190
g190
g190
g5
g5
tp191
a(S'is'
p192
S'be'
p193
S'VBZ'
p194
S'B-VP'
p195
g5
tp196
a(S'unclear.'
p197
S'unclear.'
p198
S'JJ'
p199
S'B-ADJP'
p200
g5
tp201
a(S'Seventy-three'
p202
S'Seventy-three'
p203
S'CD'
p204
S'B-NP'
p205
g5
tp206
a(S'patients'
p207
S'patient'
p208
S'NNS'
p209
S'I-NP'
p210
g5
tp211
a(S'with'
p212
S'with'
p213
S'IN'
p214
S'B-PP'
p215
g5
tp216
a(S'advanced'
p217
S'advance'
p218
S'VBN'
p219
S'B-NP'
p220
g5
tp221
a(S'UGIA'
p222
S'UGIA'
p223
S'NN'
p224
S'I-NP'
p225
g5
tp226
a(S'were'
p227
S'be'
p228
S'VBD'
p229
S'B-VP'
p230
g5
tp231
a(S'randomised'
p232
S'randomise'
p233
S'VBN'
p234
S'I-VP'
p235
g5
tp236
a(S'to'
p237
S'to'
p238
S'TO'
p239
S'I-VP'
p240
g5
tp241
a(S'receive'
p242
S'receive'
p243
S'VB'
p244
S'I-VP'
p245
g5
tp246
a(S'45'
p247
S'45'
p248
S'CD'
p249
S'B-NP'
p250
g5
tp251
a(S'mg/m2'
p252
S'mg/m2'
p253
S'NN'
p254
S'I-NP'
p255
g5
tp256
a(S'docetaxel'
p257
S'docetaxel'
p258
S'NN'
p259
S'I-NP'
p260
g5
tp261
a(S'or'
p262
S'or'
p263
S'CC'
p264
g5
g5
tp265
a(S'180'
p266
S'180'
p267
S'CD'
p268
S'B-NP'
p269
g5
tp270
a(S'mg/m2'
p271
S'mg/m2'
p272
S'NN'
p273
S'I-NP'
p274
g5
tp275
a(S'irinotecan'
p276
S'irinotecan'
p277
S'NN'
p278
S'I-NP'
p279
g5
tp280
a(S'with'
p281
S'with'
p282
S'IN'
p283
S'B-PP'
p284
g5
tp285
a(S'5-FU/leucovorin.'
p286
S'5-FU/leucovorin.'
p287
S'NN'
p288
S'B-NP'
p289
g5
tp290
a(S'After'
p291
S'After'
p292
S'IN'
p293
S'B-PP'
p294
g5
tp295
a(S'every'
p296
S'every'
p297
S'DT'
p298
S'B-NP'
p299
g5
tp300
a(S'2nd'
p301
S'2nd'
p302
S'JJ'
p303
S'I-NP'
p304
g5
tp305
a(S'course'
p306
S'course'
p307
S'NN'
p308
S'I-NP'
p309
g5
tp310
a(S'the'
p311
S'the'
p312
S'DT'
p313
S'B-NP'
p314
g5
tp315
a(S'patients'
p316
S'patient'
p317
S'NNS'
p318
S'I-NP'
p319
g5
tp320
a(S'were'
p321
S'be'
p322
S'VBD'
p323
S'B-VP'
p324
g5
tp325
a(S'crossed'
p326
S'cross'
p327
S'VBN'
p328
S'I-VP'
p329
g5
tp330
a(S'over'
p331
S'over'
p332
S'RP'
p333
S'B-PRT'
p334
g5
tp335
a(S'to'
p336
S'to'
p337
S'TO'
p338
S'B-PP'
p339
g5
tp340
a(S'the'
p341
S'the'
p342
S'DT'
p343
S'B-NP'
p344
g5
tp345
a(S'other'
p346
S'other'
p347
S'JJ'
p348
S'I-NP'
p349
g5
tp350
a(S'regimen.'
p351
S'regimen.'
p352
S'NN'
p353
S'I-NP'
p354
g5
tp355
a(S'Serum'
p356
S'Serum'
p357
S'NN'
p358
S'I-NP'
p359
g5
tp360
a(S'was'
p361
S'be'
p362
S'VBD'
p363
S'B-VP'
p364
g5
tp365
a(S'sampled'
p366
S'sample'
p367
S'VBN'
p368
S'I-VP'
p369
g5
tp370
a(S'before'
p371
S'before'
p372
S'IN'
p373
S'B-PP'
p374
g5
tp375
a(S'start'
p376
S'start'
p377
S'NN'
p378
S'B-NP'
p379
g5
tp380
a(S'of'
p381
S'of'
p382
S'IN'
p383
S'B-PP'
p384
g5
tp385
a(S'chemotherapy'
p386
S'chemotherapy'
p387
S'NN'
p388
S'B-NP'
p389
g5
tp390
a(S'and'
p391
S'and'
p392
S'CC'
p393
g5
g5
tp394
a(S'every'
p395
S'every'
p396
S'DT'
p397
S'B-NP'
p398
g5
tp399
a(S'2nd'
p400
S'2nd'
p401
S'JJ'
p402
S'I-NP'
p403
g5
tp404
a(S'week'
p405
S'week'
p406
S'NN'
p407
S'I-NP'
p408
g5
tp409
a(S'during'
p410
S'during'
p411
S'IN'
p412
S'B-PP'
p413
g5
tp414
a(S'8'
p415
g415
S'CD'
p416
S'B-NP'
p417
g5
tp418
a(S'weeks'
p419
S'week'
p420
S'NNS'
p421
S'I-NP'
p422
g5
tp423
a(S'for'
p424
S'for'
p425
S'IN'
p426
S'B-PP'
p427
g5
tp428
a(S'CEA'
p429
S'CEA'
p430
S'NN'
p431
S'B-NP'
p432
S'B-protein'
p433
tp434
a(S','
p435
g435
g435
g5
g5
tp436
a(S'TPA'
p437
S'TPA'
p438
S'NN'
p439
S'B-NP'
p440
g5
tp441
a(g435
g435
g435
g5
g5
tp442
a(S'TPS'
p443
S'TPS'
p444
S'NN'
p445
S'B-NP'
p446
S'B-protein'
p447
tp448
a(g435
g435
g435
g5
g5
tp449
a(S'CA72-4'
p450
S'CA72-4'
p451
S'NN'
p452
S'B-NP'
p453
S'B-protein'
p454
tp455
a(g435
g435
g435
g5
g5
tp456
a(S'CA19-9'
p457
S'CA19-9'
p458
S'NN'
p459
S'B-NP'
p460
g5
tp461
a(S'and'
p462
S'and'
p463
S'CC'
p464
g5
g5
tp465
a(S'CA242'
p466
S'CA242'
p467
S'NN'
p468
S'B-NP'
p469
g5
tp470
a(S'measurements.'
p471
S'measurements.'
p472
S'NN'
p473
S'I-NP'
p474
g5
tp475
a(S'Eighteen'
p476
S'Eighteen'
p477
S'CD'
p478
S'B-NP'
p479
g5
tp480
a(S'patients'
p481
S'patient'
p482
S'NNS'
p483
S'I-NP'
p484
g5
tp485
a(g183
g183
g183
g5
g5
tp486
a(S'25'
p487
S'25'
p488
S'CD'
p489
S'B-NP'
p490
g5
tp491
a(S'%'
p492
g492
S'NN'
p493
S'I-NP'
p494
g5
tp495
a(g190
g190
g190
g5
g5
tp496
a(S'had'
p497
S'have'
p498
S'VBD'
p499
S'B-VP'
p500
g5
tp501
a(S'partial'
p502
S'partial'
p503
S'JJ'
p504
S'B-NP'
p505
g5
tp506
a(S'response'
p507
S'response'
p508
S'NN'
p509
S'I-NP'
p510
g5
tp511
a(g183
g183
g183
g5
g5
tp512
a(S'PR'
p513
S'PR'
p514
S'NN'
p515
S'B-NP'
p516
S'B-protein'
p517
tp518
a(g190
g190
g190
g5
g5
tp519
a(S'and'
p520
S'and'
p521
S'CC'
p522
g5
g5
tp523
a(S'21'
p524
S'21'
p525
S'CD'
p526
S'B-NP'
p527
g5
tp528
a(S'patients'
p529
S'patient'
p530
S'NNS'
p531
S'I-NP'
p532
g5
tp533
a(S'had'
p534
S'have'
p535
S'VBD'
p536
S'B-VP'
p537
g5
tp538
a(S'stable'
p539
S'stable'
p540
S'JJ'
p541
S'B-NP'
p542
g5
tp543
a(S'disease'
p544
S'disease'
p545
S'NN'
p546
S'I-NP'
p547
g5
tp548
a(S'for'
p549
S'for'
p550
S'IN'
p551
S'B-PP'
p552
g5
tp553
a(S'at'
p554
S'at'
p555
S'IN'
p556
S'B-NP'
p557
g5
tp558
a(S'least'
p559
S'least'
p560
S'JJS'
p561
S'I-NP'
p562
g5
tp563
a(S'4'
p564
g564
S'CD'
p565
S'I-NP'
p566
g5
tp567
a(S'months'
p568
S'month'
p569
S'NNS'
p570
S'I-NP'
p571
g5
tp572
a(g183
g183
g183
g5
g5
tp573
a(S'SD4'
p574
S'SD4'
p575
S'NN'
p576
S'B-NP'
p577
S'B-protein'
p578
tp579
a(g190
g190
g190
g5
g5
tp580
a(g101
g101
g101
g5
g5
tp581
a(S'All'
p582
S'All'
p583
S'DT'
p584
S'B-NP'
p585
g5
tp586
a(S'baseline'
p587
S'baseline'
p588
S'NN'
p589
S'I-NP'
p590
g5
tp591
a(S'marker'
p592
S'marker'
p593
S'NN'
p594
S'I-NP'
p595
g5
tp596
a(S'levels'
p597
S'level'
p598
S'NNS'
p599
S'I-NP'
p600
g5
tp601
a(g435
g435
g435
g5
g5
tp602
a(S'except'
p603
S'except'
p604
S'IN'
p605
S'B-PP'
p606
g5
tp607
a(S'CA72-4'
p608
S'CA72-4'
p609
S'NN'
p610
S'B-NP'
p611
g5
tp612
a(g435
g435
g435
g5
g5
tp613
a(S'correlated'
p614
S'correlate'
p615
S'VBD'
p616
S'B-VP'
p617
g5
tp618
a(S'with'
p619
S'with'
p620
S'IN'
p621
S'B-PP'
p622
g5
tp623
a(S'time'
p624
S'time'
p625
S'NN'
p626
S'B-NP'
p627
g5
tp628
a(S'to'
p629
S'to'
p630
S'TO'
p631
S'B-PP'
p632
g5
tp633
a(S'progression'
p634
S'progression'
p635
S'NN'
p636
S'B-NP'
p637
g5
tp638
a(S'and'
p639
S'and'
p640
S'CC'
p641
S'I-NP'
p642
g5
tp643
a(S'survival.'
p644
S'survival.'
p645
S'NN'
p646
S'I-NP'
p647
g5
tp648
a(S'Patients'
p649
S'Patient'
p650
S'NNS'
p651
S'I-NP'
p652
g5
tp653
a(S'with'
p654
S'with'
p655
S'IN'
p656
S'B-PP'
p657
g5
tp658
a(S'normal'
p659
S'normal'
p660
S'JJ'
p661
S'B-NP'
p662
g5
tp663
a(S'levels'
p664
S'level'
p665
S'NNS'
p666
S'I-NP'
p667
g5
tp668
a(g435
g435
g435
g5
g5
tp669
a(S'except'
p670
S'except'
p671
S'IN'
p672
S'B-PP'
p673
g5
tp674
a(S'CA72-4'
p675
S'CA72-4'
p676
S'NN'
p677
S'B-NP'
p678
g5
tp679
a(g435
g435
g435
g5
g5
tp680
a(S'also'
p681
S'also'
p682
S'RB'
p683
S'B-ADVP'
p684
g5
tp685
a(S'had'
p686
S'have'
p687
S'VBD'
p688
S'B-VP'
p689
g5
tp690
a(S'more'
p691
S'more'
p692
S'RBR'
p693
S'B-NP'
p694
g5
tp695
a(S'clinical'
p696
S'clinical'
p697
S'JJ'
p698
S'I-NP'
p699
g5
tp700
a(S'responses'
p701
S'response'
p702
S'NNS'
p703
S'I-NP'
p704
g5
tp705
a(g183
g183
g183
g5
g5
tp706
a(S'PR+SD4'
p707
S'PR+SD4'
p708
S'NN'
p709
S'B-NP'
p710
S'B-protein'
p711
tp712
a(g190
g190
g190
g5
g5
tp713
a(S'than'
p714
S'than'
p715
S'IN'
p716
S'B-PP'
p717
g5
tp718
a(S'patients'
p719
S'patient'
p720
S'NNS'
p721
S'B-NP'
p722
g5
tp723
a(S'with'
p724
S'with'
p725
S'IN'
p726
S'B-PP'
p727
g5
tp728
a(S'elevated'
p729
S'elevate'
p730
S'VBN'
p731
S'B-NP'
p732
g5
tp733
a(S'values.'
p734
S'values.'
p735
S'NN'
p736
S'I-NP'
p737
g5
tp738
a(S'Tumour'
p739
S'Tumour'
p740
S'NNP'
p741
S'I-NP'
p742
g5
tp743
a(S'marker'
p744
S'marker'
p745
S'NN'
p746
S'I-NP'
p747
g5
tp748
a(S'changes'
p749
S'change'
p750
S'NNS'
p751
S'I-NP'
p752
g5
tp753
a(S'early'
p754
S'early'
p755
S'RB'
p756
S'B-ADVP'
p757
g5
tp758
a(S'during'
p759
S'during'
p760
S'IN'
p761
S'B-PP'
p762
g5
tp763
a(S'treatment'
p764
S'treatment'
p765
S'NN'
p766
S'B-NP'
p767
g5
tp768
a(S'provided'
p769
S'provide'
p770
S'VBD'
p771
S'B-VP'
p772
g5
tp773
a(S'modest'
p774
S'modest'
p775
S'JJ'
p776
S'B-NP'
p777
g5
tp778
a(S'predictive'
p779
S'predictive'
p780
S'JJ'
p781
S'I-NP'
p782
g5
tp783
a(S'information'
p784
S'information'
p785
S'NN'
p786
S'I-NP'
p787
g5
tp788
a(S'for'
p789
S'for'
p790
S'IN'
p791
S'B-PP'
p792
g5
tp793
a(S'tumour'
p794
S'tumour'
p795
S'NN'
p796
S'B-NP'
p797
g5
tp798
a(S'response'
p799
S'response'
p800
S'NN'
p801
S'I-NP'
p802
g5
tp803
a(S'and'
p804
S'and'
p805
S'CC'
p806
g5
g5
tp807
a(S'survival.'
p808
S'survival.'
p809
S'NN'
p810
S'B-NP'
p811
g5
tp812
a(S'A'
p813
g813
S'NN'
p814
S'I-NP'
p815
g5
tp816
a(S'model'
p817
S'model'
p818
S'NN'
p819
S'I-NP'
p820
g5
tp821
a(S'combining'
p822
S'combine'
p823
S'VBG'
p824
S'I-NP'
p825
g5
tp826
a(S'baseline'
p827
S'baseline'
p828
S'NN'
p829
S'I-NP'
p830
g5
tp831
a(S'level'
p832
S'level'
p833
S'NN'
p834
S'I-NP'
p835
g5
tp836
a(g435
g435
g435
g5
g5
tp837
a(S'the'
p838
S'the'
p839
S'DT'
p840
S'B-NP'
p841
g5
tp842
a(S'change'
p843
S'change'
p844
S'NN'
p845
S'I-NP'
p846
g5
tp847
a(S'and'
p848
S'and'
p849
S'CC'
p850
g5
g5
tp851
a(S'the'
p852
S'the'
p853
S'DT'
p854
S'B-NP'
p855
g5
tp856
a(S'interaction'
p857
S'interaction'
p858
S'NN'
p859
S'I-NP'
p860
g5
tp861
a(S'between'
p862
S'between'
p863
S'IN'
p864
S'B-PP'
p865
g5
tp866
a(S'them'
p867
S'them'
p868
S'PRP'
p869
S'B-NP'
p870
g5
tp871
a(S'gave'
p872
S'give'
p873
S'VBD'
p874
S'B-VP'
p875
g5
tp876
a(S'the'
p877
S'the'
p878
S'DT'
p879
S'B-NP'
p880
g5
tp881
a(S'best'
p882
S'good'
p883
S'JJS'
p884
S'I-NP'
p885
g5
tp886
a(S'prediction'
p887
S'prediction'
p888
S'NN'
p889
S'I-NP'
p890
g5
tp891
a(S'of'
p892
S'of'
p893
S'IN'
p894
S'B-PP'
p895
g5
tp896
a(S'outcome'
p897
S'outcome'
p898
S'NN'
p899
S'B-NP'
p900
g5
tp901
a(g435
g435
g435
g5
g5
tp902
a(S'however'
p903
S'however'
p904
S'RB'
p905
S'B-ADVP'
p906
g5
tp907
a(g435
g435
g435
g5
g5
tp908
a(S'insignificantly'
p909
S'insignificantly'
p910
S'RB'
p911
S'B-ADVP'
p912
g5
tp913
a(S'better'
p914
S'good'
p915
S'JJR'
p916
S'I-ADVP'
p917
g5
tp918
a(S'than'
p919
S'than'
p920
S'IN'
p921
S'B-PP'
p922
g5
tp923
a(S'baseline'
p924
S'baseline'
p925
S'NN'
p926
S'B-NP'
p927
g5
tp928
a(S'level'
p929
S'level'
p930
S'NN'
p931
S'I-NP'
p932
g5
tp933
a(S'for'
p934
S'for'
p935
S'IN'
p936
S'B-PP'
p937
g5
tp938
a(S'all'
p939
S'all'
p940
S'DT'
p941
S'B-NP'
p942
g5
tp943
a(S'markers'
p944
S'marker'
p945
S'NNS'
p946
S'I-NP'
p947
g5
tp948
a(S'except'
p949
S'except'
p950
S'IN'
p951
S'B-PP'
p952
g5
tp953
a(S'CA242.'
p954
S'CA242.'
p955
S'NNP'
p956
S'B-NP'
p957
g5
tp958
a(S'Baseline'
p959
S'Baseline'
p960
S'NNP'
p961
S'I-NP'
p962
g5
tp963
a(S'tumour'
p964
S'tumour'
p965
S'NN'
p966
S'I-NP'
p967
g5
tp968
a(S'marker'
p969
S'marker'
p970
S'NN'
p971
S'I-NP'
p972
g5
tp973
a(S'levels'
p974
S'level'
p975
S'NNS'
p976
S'I-NP'
p977
g5
tp978
a(S'provide'
p979
S'provide'
p980
S'VBP'
p981
S'B-VP'
p982
g5
tp983
a(S'prognostic'
p984
S'prognostic'
p985
S'JJ'
p986
S'B-NP'
p987
g5
tp988
a(S'information'
p989
S'information'
p990
S'NN'
p991
S'I-NP'
p992
g5
tp993
a(S'for'
p994
S'for'
p995
S'IN'
p996
S'B-PP'
p997
g5
tp998
a(S'patients'
p999
S'patient'
p1000
S'NNS'
p1001
S'B-NP'
p1002
g5
tp1003
a(S'with'
p1004
S'with'
p1005
S'IN'
p1006
S'B-PP'
p1007
g5
tp1008
a(S'UGIA'
p1009
S'UGIA'
p1010
S'NN'
p1011
S'B-NP'
p1012
g5
tp1013
a(S'on'
p1014
S'on'
p1015
S'IN'
p1016
S'B-PP'
p1017
g5
tp1018
a(S'palliative'
p1019
S'palliative'
p1020
S'JJ'
p1021
S'B-NP'
p1022
g5
tp1023
a(S'chemotherapy.'
p1024
S'chemotherapy.'
p1025
S'NN'
p1026
S'I-NP'
p1027
g5
tp1028
a(S'Early'
p1029
S'Early'
p1030
S'JJ'
p1031
S'I-NP'
p1032
g5
tp1033
a(S'changes'
p1034
S'change'
p1035
S'NNS'
p1036
S'I-NP'
p1037
g5
tp1038
a(S'generally'
p1039
S'generally'
p1040
S'RB'
p1041
S'B-ADVP'
p1042
g5
tp1043
a(S'failed'
p1044
S'fail'
p1045
S'VBD'
p1046
S'B-VP'
p1047
g5
tp1048
a(S'to'
p1049
S'to'
p1050
S'TO'
p1051
S'I-VP'
p1052
g5
tp1053
a(S'provide'
p1054
S'provide'
p1055
S'VB'
p1056
S'I-VP'
p1057
g5
tp1058
a(S'accurate'
p1059
S'accurate'
p1060
S'JJ'
p1061
S'B-NP'
p1062
g5
tp1063
a(S'information'
p1064
S'information'
p1065
S'NN'
p1066
S'I-NP'
p1067
g5
tp1068
a(S'for'
p1069
S'for'
p1070
S'IN'
p1071
S'B-PP'
p1072
g5
tp1073
a(S'tumour'
p1074
S'tumour'
p1075
S'NN'
p1076
S'B-NP'
p1077
g5
tp1078
a(S'response'
p1079
S'response'
p1080
S'NN'
p1081
S'I-NP'
p1082
g5
tp1083
a(S'and'
p1084
S'and'
p1085
S'CC'
p1086
S'I-NP'
p1087
g5
tp1088
a(S'survival'
p1089
S'survival'
p1090
S'NN'
p1091
S'I-NP'
p1092
g5
tp1093
a(g101
g101
g101
g5
g5
tp1094
a.