(lp0
(S'Effect'
p1
S'Effect'
p2
S'NN'
p3
S'B-NP'
p4
S'O'
p5
tp6
a(S'of'
p7
S'of'
p8
S'IN'
p9
S'B-PP'
p10
g5
tp11
a(S'dietary'
p12
S'dietary'
p13
S'JJ'
p14
S'B-NP'
p15
g5
tp16
a(S'zinc'
p17
S'zinc'
p18
S'NN'
p19
S'I-NP'
p20
g5
tp21
a(S'oxide'
p22
S'oxide'
p23
S'NN'
p24
S'I-NP'
p25
g5
tp26
a(S'on'
p27
S'on'
p28
S'IN'
p29
S'B-PP'
p30
g5
tp31
a(S'jejunal'
p32
S'jejunal'
p33
S'JJ'
p34
S'B-NP'
p35
g5
tp36
a(S'morphological'
p37
S'morphological'
p38
S'JJ'
p39
S'I-NP'
p40
g5
tp41
a(S'and'
p42
S'and'
p43
S'CC'
p44
S'I-NP'
p45
g5
tp46
a(S'immunological'
p47
S'immunological'
p48
S'JJ'
p49
S'I-NP'
p50
g5
tp51
a(S'characteristics'
p52
S'characteristic'
p53
S'NNS'
p54
S'I-NP'
p55
g5
tp56
a(S'in'
p57
S'in'
p58
S'IN'
p59
S'B-PP'
p60
g5
tp61
a(S'weaned'
p62
S'wean'
p63
S'VBN'
p64
S'B-NP'
p65
g5
tp66
a(S'piglets'
p67
S'piglet'
p68
S'NNS'
p69
S'I-NP'
p70
g5
tp71
a(S'.'
p72
g72
g72
g5
g5
tp73
a(S'The'
p74
S'The'
p75
S'DT'
p76
S'B-NP'
p77
g5
tp78
a(S'aim'
p79
S'aim'
p80
S'NN'
p81
S'I-NP'
p82
g5
tp83
a(S'of'
p84
S'of'
p85
S'IN'
p86
S'B-PP'
p87
g5
tp88
a(S'this'
p89
S'this'
p90
S'DT'
p91
S'B-NP'
p92
g5
tp93
a(S'study'
p94
S'study'
p95
S'NN'
p96
S'I-NP'
p97
g5
tp98
a(S'was'
p99
S'be'
p100
S'VBD'
p101
S'B-VP'
p102
g5
tp103
a(S'to'
p104
S'to'
p105
S'TO'
p106
S'B-VP'
p107
g5
tp108
a(S'evaluate'
p109
S'evaluate'
p110
S'VB'
p111
S'I-VP'
p112
g5
tp113
a(S'age-related'
p114
S'age-related'
p115
S'JJ'
p116
S'B-NP'
p117
g5
tp118
a(S'changes'
p119
S'change'
p120
S'NNS'
p121
S'I-NP'
p122
g5
tp123
a(S'and'
p124
S'and'
p125
S'CC'
p126
g5
g5
tp127
a(S'the'
p128
S'the'
p129
S'DT'
p130
S'B-NP'
p131
g5
tp132
a(S'effect'
p133
S'effect'
p134
S'NN'
p135
S'I-NP'
p136
g5
tp137
a(S'of'
p138
S'of'
p139
S'IN'
p140
S'B-PP'
p141
g5
tp142
a(S'dietary'
p143
S'dietary'
p144
S'JJ'
p145
S'B-NP'
p146
g5
tp147
a(S'Zn'
p148
S'Zn'
p149
S'NN'
p150
S'I-NP'
p151
g5
tp152
a(S'concentration'
p153
S'concentration'
p154
S'NN'
p155
S'I-NP'
p156
g5
tp157
a(S'on'
p158
S'on'
p159
S'IN'
p160
S'B-PP'
p161
g5
tp162
a(S'morphological'
p163
S'morphological'
p164
S'JJ'
p165
S'B-NP'
p166
g5
tp167
a(S'and'
p168
S'and'
p169
S'CC'
p170
S'I-NP'
p171
g5
tp172
a(S'immunological'
p173
S'immunological'
p174
S'JJ'
p175
S'I-NP'
p176
g5
tp177
a(S'characteristics'
p178
S'characteristic'
p179
S'NNS'
p180
S'I-NP'
p181
g5
tp182
a(S'in'
p183
S'in'
p184
S'IN'
p185
S'B-PP'
p186
g5
tp187
a(S'the'
p188
S'the'
p189
S'DT'
p190
S'B-NP'
p191
g5
tp192
a(S'gastrointestinal'
p193
S'gastrointestinal'
p194
S'JJ'
p195
S'I-NP'
p196
g5
tp197
a(S'tract'
p198
S'tract'
p199
S'NN'
p200
S'I-NP'
p201
g5
tp202
a(S'of'
p203
S'of'
p204
S'IN'
p205
S'B-PP'
p206
g5
tp207
a(S'piglets.'
p208
S'piglets.'
p209
S'NN'
p210
S'B-NP'
p211
g5
tp212
a(S'A'
p213
g213
S'NN'
p214
S'I-NP'
p215
g5
tp216
a(S'total'
p217
S'total'
p218
S'NN'
p219
S'I-NP'
p220
g5
tp221
a(S'of'
p222
S'of'
p223
S'IN'
p224
S'B-PP'
p225
g5
tp226
a(S'96'
p227
S'96'
p228
S'CD'
p229
S'B-NP'
p230
g5
tp231
a(S'purebred'
p232
S'purebred'
p233
S'JJ'
p234
S'I-NP'
p235
g5
tp236
a(S'Landrace'
p237
S'Landrace'
p238
S'NNP'
p239
S'I-NP'
p240
g5
tp241
a(S'piglets'
p242
S'piglet'
p243
S'NNS'
p244
S'I-NP'
p245
g5
tp246
a(S'were'
p247
S'be'
p248
S'VBD'
p249
S'B-VP'
p250
g5
tp251
a(S'weaned'
p252
S'wean'
p253
S'VBN'
p254
S'I-VP'
p255
g5
tp256
a(S'at'
p257
S'at'
p258
S'IN'
p259
S'B-PP'
p260
g5
tp261
a(S'the'
p262
S'the'
p263
S'DT'
p264
S'B-NP'
p265
g5
tp266
a(S'age'
p267
S'age'
p268
S'NN'
p269
S'I-NP'
p270
g5
tp271
a(S'of'
p272
S'of'
p273
S'IN'
p274
S'B-PP'
p275
g5
tp276
a(S'26'
p277
S'26'
p278
S'CD'
p279
S'B-NP'
p280
g5
tp281
a(S'\xc2\xb1'
p282
S'\xc2\xb1'
p283
S'HYPH'
p284
S'I-NP'
p285
g5
tp286
a(S'1'
p287
g287
S'CD'
p288
S'I-NP'
p289
g5
tp290
a(S'd'
p291
g291
S'NN'
p292
S'I-NP'
p293
g5
tp294
a(S','
p295
g295
g295
g5
g5
tp296
a(S'and'
p297
S'and'
p298
S'CC'
p299
g5
g5
tp300
a(S'randomly'
p301
S'randomly'
p302
S'RB'
p303
S'B-VP'
p304
g5
tp305
a(S'allocated'
p306
S'allocate'
p307
S'VBN'
p308
S'I-VP'
p309
g5
tp310
a(S'into'
p311
S'into'
p312
S'IN'
p313
S'B-PP'
p314
g5
tp315
a(S'3'
p316
g316
S'CD'
p317
S'B-NP'
p318
g5
tp319
a(S'treatment'
p320
S'treatment'
p321
S'NN'
p322
S'I-NP'
p323
g5
tp324
a(S'groups'
p325
S'group'
p326
S'NNS'
p327
S'I-NP'
p328
g5
tp329
a(S'fed'
p330
S'feed'
p331
S'VBN'
p332
S'B-VP'
p333
g5
tp334
a(S'with'
p335
S'with'
p336
S'IN'
p337
S'B-PP'
p338
g5
tp339
a(S'low'
p340
S'low'
p341
S'JJ'
p342
S'B-NP'
p343
g5
tp344
a(S'('
p345
g345
g345
g5
g5
tp346
a(S'57'
p347
S'57'
p348
S'CD'
p349
S'B-NP'
p350
g5
tp351
a(S'mg'
p352
S'mg'
p353
S'NN'
p354
S'I-NP'
p355
g5
tp356
a(S'Zn/kg'
p357
S'Zn/kg'
p358
S'NN'
p359
S'I-NP'
p360
g5
tp361
a(S')'
p362
g362
g362
g5
g5
tp363
a(g295
g295
g295
g5
g5
tp364
a(S'medium'
p365
S'medium'
p366
S'NN'
p367
S'B-NP'
p368
g5
tp369
a(g345
g345
g345
g5
g5
tp370
a(S'164'
p371
S'164'
p372
S'CD'
p373
S'B-NP'
p374
g5
tp375
a(S'mg'
p376
S'mg'
p377
S'NN'
p378
S'I-NP'
p379
g5
tp380
a(S'Zn/kg'
p381
S'Zn/kg'
p382
S'NN'
p383
S'I-NP'
p384
g5
tp385
a(g362
g362
g362
g5
g5
tp386
a(g295
g295
g295
g5
g5
tp387
a(S'and'
p388
S'and'
p389
S'CC'
p390
g5
g5
tp391
a(S'high'
p392
S'high'
p393
S'JJ'
p394
S'B-ADJP'
p395
g5
tp396
a(g345
g345
g345
g5
g5
tp397
a(S'2425'
p398
S'2425'
p399
S'CD'
p400
S'B-NP'
p401
g5
tp402
a(S'mg'
p403
S'mg'
p404
S'NN'
p405
S'I-NP'
p406
g5
tp407
a(S'Zn/kg'
p408
S'Zn/kg'
p409
S'NN'
p410
S'I-NP'
p411
g5
tp412
a(g362
g362
g362
g5
g5
tp413
a(S'dietary'
p414
S'dietary'
p415
S'JJ'
p416
S'B-NP'
p417
g5
tp418
a(S'Zn'
p419
S'Zn'
p420
S'NN'
p421
S'I-NP'
p422
g5
tp423
a(g345
g345
g345
g5
g5
tp424
a(S'ZnO'
p425
S'ZnO'
p426
S'NN'
p427
S'B-NP'
p428
S'B-protein'
p429
tp430
a(g362
g362
g362
g5
g5
tp431
a(g72
g72
g72
g5
g5
tp432
a(S'Piglets'
p433
S'Piglet'
p434
S'NNPS'
p435
S'B-NP'
p436
S'B-cell_type'
p437
tp438
a(g345
g345
g345
g5
g5
tp439
a(S'4'
p440
g440
S'CD'
p441
S'B-NP'
p442
g5
tp443
a(S'males'
p444
S'male'
p445
S'NNS'
p446
S'I-NP'
p447
g5
tp448
a(S'and'
p449
S'and'
p450
S'CC'
p451
g5
g5
tp452
a(g440
g440
S'CD'
p453
S'B-NP'
p454
g5
tp455
a(S'females'
p456
S'female'
p457
S'NNS'
p458
S'I-NP'
p459
g5
tp460
a(S'per'
p461
S'per'
p462
S'IN'
p463
S'B-PP'
p464
g5
tp465
a(S'treatment'
p466
S'treatment'
p467
S'NN'
p468
S'B-NP'
p469
g5
tp470
a(S'group'
p471
S'group'
p472
S'NN'
p473
S'I-NP'
p474
g5
tp475
a(g362
g362
g362
g5
g5
tp476
a(S'were'
p477
S'be'
p478
S'VBD'
p479
S'B-VP'
p480
g5
tp481
a(S'killed'
p482
S'kill'
p483
S'VBN'
p484
S'I-VP'
p485
g5
tp486
a(S'at'
p487
S'at'
p488
S'IN'
p489
S'B-PP'
p490
g5
tp491
a(S'33'
p492
S'33'
p493
S'CD'
p494
S'B-NP'
p495
g5
tp496
a(S'\xc2\xb1'
p497
S'\xc2\xb1'
p498
S'NN'
p499
S'I-NP'
p500
g5
tp501
a(g287
g287
S'CD'
p502
S'B-NP'
p503
g5
tp504
a(g295
g295
g295
S'I-NP'
p505
g5
tp506
a(S'40'
p507
S'40'
p508
S'CD'
p509
S'I-NP'
p510
g5
tp511
a(S'\xc2\xb1'
p512
S'\xc2\xb1'
p513
S'NN'
p514
S'I-NP'
p515
g5
tp516
a(g287
g287
S'CD'
p517
S'I-NP'
p518
g5
tp519
a(g295
g295
g295
S'I-NP'
p520
g5
tp521
a(S'47'
p522
S'47'
p523
S'CD'
p524
S'I-NP'
p525
g5
tp526
a(S'\xc2\xb1'
p527
S'\xc2\xb1'
p528
S'NN'
p529
S'I-NP'
p530
g5
tp531
a(g287
g287
S'CD'
p532
S'I-NP'
p533
g5
tp534
a(g295
g295
g295
g5
g5
tp535
a(S'and'
p536
S'and'
p537
S'CC'
p538
g5
g5
tp539
a(S'54'
p540
S'54'
p541
S'CD'
p542
S'B-NP'
p543
g5
tp544
a(S'\xc2\xb1'
p545
S'\xc2\xb1'
p546
S'HYPH'
p547
S'I-NP'
p548
g5
tp549
a(g287
g287
S'CD'
p550
S'I-NP'
p551
g5
tp552
a(g291
g291
S'NN'
p553
S'I-NP'
p554
g5
tp555
a(S'of'
p556
S'of'
p557
S'IN'
p558
S'B-PP'
p559
g5
tp560
a(S'age.'
p561
S'age.'
p562
S'NN'
p563
S'B-NP'
p564
g5
tp565
a(S'In'
p566
S'In'
p567
S'IN'
p568
S'B-PP'
p569
g5
tp570
a(S'the'
p571
S'the'
p572
S'DT'
p573
S'B-NP'
p574
g5
tp575
a(S'jejunum'
p576
S'jejunum'
p577
S'NN'
p578
S'I-NP'
p579
g5
tp580
a(g295
g295
g295
g5
g5
tp581
a(S'villus'
p582
S'villus'
p583
S'CC'
p584
g5
g5
tp585
a(S'height'
p586
S'height'
p587
S'NN'
p588
S'B-NP'
p589
g5
tp590
a(g295
g295
g295
g5
g5
tp591
a(S'crypt'
p592
S'crypt'
p593
S'NN'
p594
S'B-NP'
p595
g5
tp596
a(S'depth'
p597
S'depth'
p598
S'NN'
p599
S'I-NP'
p600
g5
tp601
a(g295
g295
g295
g5
g5
tp602
a(S'and'
p603
S'and'
p604
S'CC'
p605
g5
g5
tp606
a(S'the'
p607
S'the'
p608
S'DT'
p609
S'B-NP'
p610
g5
tp611
a(S'number'
p612
S'number'
p613
S'NN'
p614
S'I-NP'
p615
g5
tp616
a(S'of'
p617
S'of'
p618
S'IN'
p619
S'B-PP'
p620
g5
tp621
a(S'goblet'
p622
S'goblet'
p623
S'NN'
p624
S'B-NP'
p625
S'B-cell_type'
p626
tp627
a(S'cells'
p628
S'cell'
p629
S'NNS'
p630
S'I-NP'
p631
S'I-cell_type'
p632
tp633
a(S'producing'
p634
S'produce'
p635
S'VBG'
p636
S'B-VP'
p637
g5
tp638
a(S'neutral'
p639
S'neutral'
p640
S'JJ'
p641
S'B-NP'
p642
g5
tp643
a(g295
g295
g295
S'I-NP'
p644
g5
tp645
a(S'acidic'
p646
S'acidic'
p647
S'JJ'
p648
S'I-NP'
p649
g5
tp650
a(g295
g295
g295
S'I-NP'
p651
g5
tp652
a(S'sulfated'
p653
S'sulfate'
p654
S'VBN'
p655
S'I-NP'
p656
g5
tp657
a(g295
g295
g295
S'I-NP'
p658
g5
tp659
a(S'and'
p660
S'and'
p661
S'CC'
p662
S'I-NP'
p663
g5
tp664
a(S'sialylated'
p665
S'sialylate'
p666
S'VBN'
p667
S'I-NP'
p668
g5
tp669
a(S'mucins'
p670
S'mucin'
p671
S'NNS'
p672
S'I-NP'
p673
g5
tp674
a(S'were'
p675
S'be'
p676
S'VBD'
p677
S'B-VP'
p678
g5
tp679
a(S'measured.'
p680
S'measured.'
p681
S'VBN'
p682
S'I-VP'
p683
g5
tp684
a(S'Intraepithelial'
p685
S'Intraepithelial'
p686
S'JJ'
p687
S'B-NP'
p688
g5
tp689
a(S'lymphocytes'
p690
S'lymphocyte'
p691
S'NNS'
p692
S'I-NP'
p693
g5
tp694
a(S'were'
p695
S'be'
p696
S'VBD'
p697
S'B-VP'
p698
g5
tp699
a(S'characterized'
p700
S'characterize'
p701
S'VBN'
p702
S'I-VP'
p703
g5
tp704
a(S'by'
p705
S'by'
p706
S'IN'
p707
S'B-PP'
p708
g5
tp709
a(S'flow'
p710
S'flow'
p711
S'NN'
p712
S'B-NP'
p713
g5
tp714
a(S'cytometry'
p715
S'cytometry'
p716
S'NN'
p717
S'I-NP'
p718
g5
tp719
a(S'and'
p720
S'and'
p721
S'CC'
p722
g5
g5
tp723
a(S'the'
p724
S'the'
p725
S'DT'
p726
S'B-NP'
p727
g5
tp728
a(S'gene'
p729
S'gene'
p730
S'NN'
p731
S'I-NP'
p732
g5
tp733
a(S'expression'
p734
S'expression'
p735
S'NN'
p736
S'I-NP'
p737
g5
tp738
a(S'of'
p739
S'of'
p740
S'IN'
p741
S'B-PP'
p742
g5
tp743
a(S'mucin'
p744
S'mucin'
p745
S'NN'
p746
S'B-NP'
p747
S'B-protein'
p748
tp749
a(S'2'
p750
g750
S'CD'
p751
S'I-NP'
p752
S'I-protein'
p753
tp754
a(g345
g345
g345
g5
g5
tp755
a(S'MUC2'
p756
S'MUC2'
p757
S'NN'
p758
S'B-NP'
p759
S'B-protein'
p760
tp761
a(g362
g362
g362
g5
g5
tp762
a(g295
g295
g295
g5
g5
tp763
a(S'mucin'
p764
S'mucin'
p765
S'NN'
p766
S'B-NP'
p767
g5
tp768
a(S'20'
p769
S'20'
p770
S'CD'
p771
S'I-NP'
p772
g5
tp773
a(g345
g345
g345
g5
g5
tp774
a(S'MUC20'
p775
S'MUC20'
p776
S'NN'
p777
S'B-NP'
p778
S'B-protein'
p779
tp780
a(g362
g362
g362
g5
g5
tp781
a(g295
g295
g295
g5
g5
tp782
a(S'\xce\xb2-defensin'
p783
S'\xce\xb2-defensin'
p784
S'NN'
p785
S'B-NP'
p786
S'B-protein'
p787
tp788
a(g316
g316
S'CD'
p789
S'I-NP'
p790
S'I-protein'
p791
tp792
a(g295
g295
g295
g5
g5
tp793
a(S'and'
p794
S'and'
p795
S'CC'
p796
g5
g5
tp797
a(S'trefoil'
p798
S'trefoil'
p799
S'NN'
p800
S'B-NP'
p801
S'B-protein'
p802
tp803
a(S'factor'
p804
S'factor'
p805
S'NN'
p806
S'I-NP'
p807
S'I-protein'
p808
tp809
a(g316
g316
S'CD'
p810
S'I-NP'
p811
S'I-protein'
p812
tp813
a(g345
g345
g345
g5
g5
tp814
a(S'TFF3'
p815
S'TFF3'
p816
S'NN'
p817
S'B-NP'
p818
S'B-protein'
p819
tp820
a(g362
g362
g362
g5
g5
tp821
a(S'was'
p822
S'be'
p823
S'VBD'
p824
S'B-VP'
p825
g5
tp826
a(S'determined'
p827
S'determine'
p828
S'VBN'
p829
S'I-VP'
p830
g5
tp831
a(S'by'
p832
S'by'
p833
S'IN'
p834
S'B-PP'
p835
g5
tp836
a(S'reverse'
p837
S'reverse'
p838
S'JJ'
p839
S'B-NP'
p840
g5
tp841
a(S'transcription'
p842
S'transcription'
p843
S'NN'
p844
S'I-NP'
p845
g5
tp846
a(S'quantitative'
p847
S'quantitative'
p848
S'JJ'
p849
S'I-NP'
p850
g5
tp851
a(S'PCR.'
p852
S'PCR.'
p853
S'NN'
p854
S'I-NP'
p855
g5
tp856
a(S'Villus'
p857
S'Villus'
p858
S'NN'
p859
S'I-NP'
p860
g5
tp861
a(S'height'
p862
S'height'
p863
S'NN'
p864
S'I-NP'
p865
g5
tp866
a(S'and'
p867
S'and'
p868
S'CC'
p869
g5
g5
tp870
a(S'crypt'
p871
S'crypt'
p872
S'NN'
p873
S'B-NP'
p874
g5
tp875
a(S'depth'
p876
S'depth'
p877
S'NN'
p878
S'I-NP'
p879
g5
tp880
a(S'in'
p881
S'in'
p882
S'IN'
p883
S'B-PP'
p884
g5
tp885
a(S'the'
p886
S'the'
p887
S'DT'
p888
S'B-NP'
p889
g5
tp890
a(S'jejunum'
p891
S'jejunum'
p892
S'NN'
p893
S'I-NP'
p894
g5
tp895
a(S'showed'
p896
S'show'
p897
S'VBD'
p898
S'B-VP'
p899
g5
tp900
a(S'age'
p901
S'age'
p902
S'NN'
p903
S'B-NP'
p904
g5
tp905
a(S'related'
p906
S'related'
p907
S'JJ'
p908
S'I-NP'
p909
g5
tp910
a(S'differences'
p911
S'difference'
p912
S'NNS'
p913
S'I-NP'
p914
g5
tp915
a(g345
g345
g345
g5
g5
tp916
a(S'P'
p917
g917
S'NN'
p918
S'B-NP'
p919
g5
tp920
a(S'<'
p921
g921
S'SYM'
p922
g5
g5
tp923
a(S'0.01'
p924
S'0.01'
p925
S'CD'
p926
S'B-NP'
p927
g5
tp928
a(g362
g362
g362
g5
g5
tp929
a(g295
g295
g295
g5
g5
tp930
a(S'whereas'
p931
S'whereas'
p932
S'IN'
p933
g5
g5
tp934
a(S'the'
p935
S'the'
p936
S'DT'
p937
S'B-NP'
p938
g5
tp939
a(S'dietary'
p940
S'dietary'
p941
S'JJ'
p942
S'I-NP'
p943
g5
tp944
a(S'concentrations'
p945
S'concentration'
p946
S'NNS'
p947
S'I-NP'
p948
g5
tp949
a(S'of'
p950
S'of'
p951
S'IN'
p952
S'B-PP'
p953
g5
tp954
a(S'Zn'
p955
S'Zn'
p956
S'NN'
p957
S'B-NP'
p958
S'B-protein'
p959
tp960
a(S'had'
p961
S'have'
p962
S'VBD'
p963
S'B-VP'
p964
g5
tp965
a(S'no'
p966
S'no'
p967
S'DT'
p968
S'B-NP'
p969
g5
tp970
a(S'effect.'
p971
S'effect.'
p972
S'NN'
p973
S'I-NP'
p974
g5
tp975
a(S'The'
p976
S'The'
p977
S'DT'
p978
S'B-NP'
p979
g5
tp980
a(S'mucin'
p981
S'mucin'
p982
S'NN'
p983
S'I-NP'
p984
g5
tp985
a(S'types'
p986
S'type'
p987
S'NNS'
p988
S'I-NP'
p989
g5
tp990
a(S'were'
p991
S'be'
p992
S'VBD'
p993
S'B-VP'
p994
g5
tp995
a(S'modified'
p996
S'modify'
p997
S'VBN'
p998
S'I-VP'
p999
g5
tp1000
a(S'mainly'
p1001
S'mainly'
p1002
S'RB'
p1003
S'B-ADVP'
p1004
g5
tp1005
a(S'by'
p1006
S'by'
p1007
S'IN'
p1008
S'B-PP'
p1009
g5
tp1010
a(S'age'
p1011
S'age'
p1012
S'NN'
p1013
S'B-NP'
p1014
g5
tp1015
a(g295
g295
g295
g5
g5
tp1016
a(S'and'
p1017
S'and'
p1018
S'CC'
p1019
g5
g5
tp1020
a(S'dietary'
p1021
S'dietary'
p1022
S'JJ'
p1023
S'B-NP'
p1024
g5
tp1025
a(S'Zn'
p1026
S'Zn'
p1027
S'NN'
p1028
S'I-NP'
p1029
g5
tp1030
a(S'had'
p1031
S'have'
p1032
S'VBD'
p1033
S'B-VP'
p1034
g5
tp1035
a(S'no'
p1036
S'no'
p1037
S'DT'
p1038
S'B-NP'
p1039
g5
tp1040
a(S'effect'
p1041
S'effect'
p1042
S'NN'
p1043
S'I-NP'
p1044
g5
tp1045
a(S'in'
p1046
S'in'
p1047
S'IN'
p1048
S'B-PP'
p1049
g5
tp1050
a(S'the'
p1051
S'the'
p1052
S'DT'
p1053
S'B-NP'
p1054
g5
tp1055
a(S'proximal'
p1056
S'proximal'
p1057
S'JJ'
p1058
S'I-NP'
p1059
g5
tp1060
a(S'jejunum.'
p1061
S'jejunum.'
p1062
S'NN'
p1063
S'I-NP'
p1064
g5
tp1065
a(S'In'
p1066
S'In'
p1067
S'IN'
p1068
S'B-PP'
p1069
g5
tp1070
a(S'the'
p1071
S'the'
p1072
S'DT'
p1073
S'B-NP'
p1074
g5
tp1075
a(S'distal'
p1076
S'distal'
p1077
S'JJ'
p1078
S'I-NP'
p1079
g5
tp1080
a(S'jejunum'
p1081
S'jejunum'
p1082
S'NN'
p1083
S'I-NP'
p1084
g5
tp1085
a(g295
g295
g295
g5
g5
tp1086
a(S'age'
p1087
S'age'
p1088
S'NN'
p1089
S'B-NP'
p1090
g5
tp1091
a(S'and'
p1092
S'and'
p1093
S'CC'
p1094
S'I-NP'
p1095
g5
tp1096
a(S'Zn'
p1097
S'Zn'
p1098
S'NN'
p1099
S'I-NP'
p1100
S'B-protein'
p1101
tp1102
a(S'had'
p1103
S'have'
p1104
S'VBD'
p1105
S'B-VP'
p1106
g5
tp1107
a(S'effects'
p1108
S'effect'
p1109
S'NNS'
p1110
S'B-NP'
p1111
g5
tp1112
a(S'on'
p1113
S'on'
p1114
S'IN'
p1115
S'B-PP'
p1116
g5
tp1117
a(S'the'
p1118
S'the'
p1119
S'DT'
p1120
S'B-NP'
p1121
g5
tp1122
a(S'mucin'
p1123
S'mucin'
p1124
S'NN'
p1125
S'I-NP'
p1126
g5
tp1127
a(S'types.'
p1128
S'types.'
p1129
S'NN'
p1130
S'I-NP'
p1131
g5
tp1132
a(S'The'
p1133
S'The'
p1134
S'DT'
p1135
S'B-NP'
p1136
g5
tp1137
a(S'abundance'
p1138
S'abundance'
p1139
S'NN'
p1140
S'I-NP'
p1141
g5
tp1142
a(S'of'
p1143
S'of'
p1144
S'IN'
p1145
S'B-PP'
p1146
g5
tp1147
a(S'sulfomucins'
p1148
S'sulfomucin'
p1149
S'NNS'
p1150
S'B-NP'
p1151
g5
tp1152
a(S'decreased'
p1153
S'decrease'
p1154
S'VBD'
p1155
S'B-VP'
p1156
g5
tp1157
a(g345
g345
g345
g5
g5
tp1158
a(g917
g917
S'NN'
p1159
S'B-NP'
p1160
g5
tp1161
a(g921
g921
S'SYM'
p1162
g5
g5
tp1163
a(S'0.001'
p1164
S'0.001'
p1165
S'CD'
p1166
S'B-NP'
p1167
g5
tp1168
a(g362
g362
g362
g5
g5
tp1169
a(S'and'
p1170
S'and'
p1171
S'CC'
p1172
g5
g5
tp1173
a(S'sialomucins'
p1174
S'sialomucin'
p1175
S'NNS'
p1176
S'B-NP'
p1177
g5
tp1178
a(S'increased'
p1179
S'increase'
p1180
S'VBD'
p1181
S'B-VP'
p1182
g5
tp1183
a(S'with'
p1184
S'with'
p1185
S'IN'
p1186
S'B-PP'
p1187
g5
tp1188
a(S'age'
p1189
S'age'
p1190
S'NN'
p1191
S'B-NP'
p1192
g5
tp1193
a(g345
g345
g345
g5
g5
tp1194
a(g917
g917
S'NN'
p1195
S'B-NP'
p1196
g5
tp1197
a(g921
g921
S'SYM'
p1198
g5
g5
tp1199
a(S'0.001'
p1200
S'0.001'
p1201
S'CD'
p1202
S'B-NP'
p1203
g5
tp1204
a(g362
g362
g362
g5
g5
tp1205
a(g295
g295
g295
g5
g5
tp1206
a(S'while'
p1207
S'while'
p1208
S'IN'
p1209
S'B-SBAR'
p1210
g5
tp1211
a(S'high'
p1212
S'high'
p1213
S'JJ'
p1214
S'B-NP'
p1215
g5
tp1216
a(S'dietary'
p1217
S'dietary'
p1218
S'JJ'
p1219
S'I-NP'
p1220
g5
tp1221
a(S'ZnO'
p1222
S'ZnO'
p1223
S'NN'
p1224
S'I-NP'
p1225
g5
tp1226
a(S'reduced'
p1227
S'reduce'
p1228
S'VBD'
p1229
S'B-VP'
p1230
g5
tp1231
a(S'the'
p1232
S'the'
p1233
S'DT'
p1234
S'B-NP'
p1235
g5
tp1236
a(S'sulfomucins'
p1237
S'sulfomucin'
p1238
S'NNS'
p1239
S'I-NP'
p1240
g5
tp1241
a(g345
g345
g345
g5
g5
tp1242
a(g917
g917
S'NN'
p1243
S'B-NP'
p1244
g5
tp1245
a(g921
g921
S'SYM'
p1246
g5
g5
tp1247
a(S'0.001'
p1248
S'0.001'
p1249
S'CD'
p1250
S'B-NP'
p1251
g5
tp1252
a(g362
g362
g362
g5
g5
tp1253
a(S'and'
p1254
S'and'
p1255
S'CC'
p1256
g5
g5
tp1257
a(S'increased'
p1258
S'increase'
p1259
S'VBD'
p1260
S'B-VP'
p1261
g5
tp1262
a(S'the'
p1263
S'the'
p1264
S'DT'
p1265
S'B-NP'
p1266
g5
tp1267
a(S'sialomucins'
p1268
S'sialomucin'
p1269
S'NNS'
p1270
S'I-NP'
p1271
g5
tp1272
a(g345
g345
g345
g5
g5
tp1273
a(g917
g917
S'NN'
p1274
S'B-NP'
p1275
g5
tp1276
a(g921
g921
S'SYM'
p1277
g5
g5
tp1278
a(S'0.05'
p1279
S'0.05'
p1280
S'CD'
p1281
S'B-NP'
p1282
g5
tp1283
a(g362
g362
g362
g5
g5
tp1284
a(S'in'
p1285
S'in'
p1286
S'IN'
p1287
S'B-PP'
p1288
g5
tp1289
a(S'the'
p1290
S'the'
p1291
S'DT'
p1292
S'B-NP'
p1293
g5
tp1294
a(S'crypts.'
p1295
S'crypts.'
p1296
S'NN'
p1297
S'I-NP'
p1298
g5
tp1299
a(S'The'
p1300
S'The'
p1301
S'DT'
p1302
S'B-NP'
p1303
g5
tp1304
a(S'phenotypes'
p1305
S'phenotype'
p1306
S'NNS'
p1307
S'I-NP'
p1308
g5
tp1309
a(S'of'
p1310
S'of'
p1311
S'IN'
p1312
S'B-PP'
p1313
g5
tp1314
a(S'lymphocytes'
p1315
S'lymphocyte'
p1316
S'NNS'
p1317
S'B-NP'
p1318
S'B-cell_type'
p1319
tp1320
a(S'in'
p1321
S'in'
p1322
S'IN'
p1323
S'B-PP'
p1324
g5
tp1325
a(S'the'
p1326
S'the'
p1327
S'DT'
p1328
S'B-NP'
p1329
g5
tp1330
a(S'epithelium'
p1331
S'epithelium'
p1332
S'NN'
p1333
S'I-NP'
p1334
g5
tp1335
a(S'of'
p1336
S'of'
p1337
S'IN'
p1338
S'B-PP'
p1339
g5
tp1340
a(S'the'
p1341
S'the'
p1342
S'DT'
p1343
S'B-NP'
p1344
g5
tp1345
a(S'proximal'
p1346
S'proximal'
p1347
S'JJ'
p1348
S'I-NP'
p1349
g5
tp1350
a(S'jejunum'
p1351
S'jejunum'
p1352
S'NN'
p1353
S'I-NP'
p1354
g5
tp1355
a(S'showed'
p1356
S'show'
p1357
S'VBD'
p1358
S'B-VP'
p1359
g5
tp1360
a(S'relatively'
p1361
S'relatively'
p1362
S'RB'
p1363
S'B-NP'
p1364
g5
tp1365
a(S'constant'
p1366
S'constant'
p1367
S'JJ'
p1368
S'I-NP'
p1369
g5
tp1370
a(S'percentages'
p1371
S'percentage'
p1372
S'NNS'
p1373
S'I-NP'
p1374
g5
tp1375
a(S'of'
p1376
S'of'
p1377
S'IN'
p1378
S'B-PP'
p1379
g5
tp1380
a(S'T-cells'
p1381
S'T-cell'
p1382
S'NNS'
p1383
S'B-NP'
p1384
S'B-cell_type'
p1385
tp1386
a(g295
g295
g295
g5
g5
tp1387
a(S'as'
p1388
S'as'
p1389
S'RB'
p1390
S'B-CONJP'
p1391
g5
tp1392
a(S'well'
p1393
S'well'
p1394
S'RB'
p1395
S'I-CONJP'
p1396
g5
tp1397
a(S'as'
p1398
S'as'
p1399
S'IN'
p1400
S'I-CONJP'
p1401
g5
tp1402
a(S'natural'
p1403
S'natural'
p1404
S'JJ'
p1405
S'B-NP'
p1406
g5
tp1407
a(S'killer'
p1408
S'killer'
p1409
S'NN'
p1410
S'I-NP'
p1411
g5
tp1412
a(S'cells.'
p1413
S'cells.'
p1414
S'NNS'
p1415
S'I-NP'
p1416
g5
tp1417
a(S'High'
p1418
S'High'
p1419
S'JJ'
p1420
S'B-NP'
p1421
g5
tp1422
a(S'dietary'
p1423
S'dietary'
p1424
S'JJ'
p1425
S'I-NP'
p1426
g5
tp1427
a(S'Zn'
p1428
S'Zn'
p1429
S'NN'
p1430
S'I-NP'
p1431
g5
tp1432
a(S'treatment'
p1433
S'treatment'
p1434
S'NN'
p1435
S'I-NP'
p1436
g5
tp1437
a(S'led'
p1438
S'lead'
p1439
S'VBD'
p1440
S'B-VP'
p1441
g5
tp1442
a(S'to'
p1443
S'to'
p1444
S'TO'
p1445
S'B-PP'
p1446
g5
tp1447
a(S'a'
p1448
g1448
S'DT'
p1449
S'B-NP'
p1450
g5
tp1451
a(S'reduced'
p1452
S'reduce'
p1453
S'VBN'
p1454
S'I-NP'
p1455
g5
tp1456
a(S'abundance'
p1457
S'abundance'
p1458
S'NN'
p1459
S'I-NP'
p1460
g5
tp1461
a(S'of'
p1462
S'of'
p1463
S'IN'
p1464
S'B-PP'
p1465
g5
tp1466
a(S'CD8'
p1467
S'CD8'
p1468
S'NN'
p1469
S'B-NP'
p1470
S'B-cell_type'
p1471
tp1472
a(g345
g345
g345
g5
S'I-cell_type'
p1473
tp1474
a(S'+'
p1475
g1475
S'SYM'
p1476
g5
S'I-cell_type'
p1477
tp1478
a(g362
g362
g362
g5
S'I-cell_type'
p1479
tp1480
a(S'\xce\xb3\xce\xb4'
p1481
S'\xce\xb3\xce\xb4'
p1482
S'NN'
p1483
S'B-NP'
p1484
S'I-cell_type'
p1485
tp1486
a(S'T-cells'
p1487
S'T-cell'
p1488
S'NNS'
p1489
S'I-NP'
p1490
S'I-cell_type'
p1491
tp1492
a(g345
g345
g345
g5
g5
tp1493
a(g917
g917
S'NN'
p1494
S'B-NP'
p1495
g5
tp1496
a(g921
g921
S'SYM'
p1497
g5
g5
tp1498
a(S'0.05'
p1499
S'0.05'
p1500
S'CD'
p1501
S'B-NP'
p1502
g5
tp1503
a(g362
g362
g362
g5
g5
tp1504
a(g72
g72
g72
g5
g5
tp1505
a(S'The'
p1506
S'The'
p1507
S'DT'
p1508
S'B-NP'
p1509
g5
tp1510
a(S'apportionment'
p1511
S'apportionment'
p1512
S'NN'
p1513
S'I-NP'
p1514
g5
tp1515
a(S'of'
p1516
S'of'
p1517
S'IN'
p1518
S'B-PP'
p1519
g5
tp1520
a(S'different'
p1521
S'different'
p1522
S'JJ'
p1523
S'B-NP'
p1524
g5
tp1525
a(S'cytotoxic'
p1526
S'cytotoxic'
p1527
S'JJ'
p1528
S'I-NP'
p1529
S'B-cell_type'
p1530
tp1531
a(S'T-cell'
p1532
S'T-cell'
p1533
S'NN'
p1534
S'I-NP'
p1535
S'I-cell_type'
p1536
tp1537
a(S'was'
p1538
S'be'
p1539
S'VBD'
p1540
S'B-VP'
p1541
g5
tp1542
a(S'age'
p1543
S'age'
p1544
S'NN'
p1545
S'B-NP'
p1546
g5
tp1547
a(S'dependent.'
p1548
S'dependent.'
p1549
S'NN'
p1550
S'I-NP'
p1551
g5
tp1552
a(S'Although'
p1553
S'Although'
p1554
S'IN'
p1555
S'B-SBAR'
p1556
g5
tp1557
a(S'the'
p1558
S'the'
p1559
S'DT'
p1560
S'B-NP'
p1561
g5
tp1562
a(S'percentage'
p1563
S'percentage'
p1564
S'NN'
p1565
S'I-NP'
p1566
g5
tp1567
a(S'of'
p1568
S'of'
p1569
S'IN'
p1570
S'B-PP'
p1571
g5
tp1572
a(S'CD4'
p1573
S'CD4'
p1574
S'NN'
p1575
S'B-NP'
p1576
S'B-protein'
p1577
tp1578
a(g345
g345
g345
g5
g5
tp1579
a(S'-'
p1580
g1580
S'SYM'
p1581
g5
g5
tp1582
a(g362
g362
g362
g5
g5
tp1583
a(S'CD8\xce\xb2'
p1584
S'CD8\xce\xb2'
p1585
S'NN'
p1586
S'B-NP'
p1587
g5
tp1588
a(g345
g345
g345
g5
g5
tp1589
a(g1475
g1475
S'SYM'
p1590
g5
g5
tp1591
a(g362
g362
g362
g5
g5
tp1592
a(S'increased'
p1593
S'increase'
p1594
S'VBN'
p1595
S'B-VP'
p1596
g5
tp1597
a(g345
g345
g345
g5
g5
tp1598
a(g917
g917
S'NN'
p1599
S'B-NP'
p1600
g5
tp1601
a(g921
g921
S'SYM'
p1602
g5
g5
tp1603
a(S'0.01'
p1604
S'0.01'
p1605
S'CD'
p1606
S'B-NP'
p1607
g5
tp1608
a(g362
g362
g362
g5
g5
tp1609
a(g295
g295
g295
g5
g5
tp1610
a(S'the'
p1611
S'the'
p1612
S'DT'
p1613
S'B-NP'
p1614
g5
tp1615
a(S'relative'
p1616
S'relative'
p1617
S'JJ'
p1618
S'I-NP'
p1619
g5
tp1620
a(S'amount'
p1621
S'amount'
p1622
S'NN'
p1623
S'I-NP'
p1624
g5
tp1625
a(S'of'
p1626
S'of'
p1627
S'IN'
p1628
S'B-PP'
p1629
g5
tp1630
a(S'CD4'
p1631
S'CD4'
p1632
S'NN'
p1633
S'B-NP'
p1634
g5
tp1635
a(g345
g345
g345
g5
g5
tp1636
a(g1475
g1475
S'SYM'
p1637
g5
g5
tp1638
a(g362
g362
g362
g5
g5
tp1639
a(S'CD8\xce\xb2'
p1640
S'CD8\xce\xb2'
p1641
S'NN'
p1642
S'B-NP'
p1643
g5
tp1644
a(g345
g345
g345
g5
g5
tp1645
a(g1475
g1475
S'SYM'
p1646
S'B-NP'
p1647
g5
tp1648
a(g362
g362
g362
g5
g5
tp1649
a(S'decreased'
p1650
S'decrease'
p1651
S'VBD'
p1652
S'B-VP'
p1653
g5
tp1654
a(S'with'
p1655
S'with'
p1656
S'IN'
p1657
S'B-PP'
p1658
g5
tp1659
a(S'age'
p1660
S'age'
p1661
S'NN'
p1662
S'B-NP'
p1663
g5
tp1664
a(g345
g345
g345
g5
g5
tp1665
a(g917
g917
S'NN'
p1666
S'B-NP'
p1667
g5
tp1668
a(g921
g921
S'SYM'
p1669
g5
g5
tp1670
a(S'0.05'
p1671
S'0.05'
p1672
S'CD'
p1673
S'B-NP'
p1674
g5
tp1675
a(g362
g362
g362
g5
g5
tp1676
a(g72
g72
g72
g5
g5
tp1677
a(S'The'
p1678
S'The'
p1679
S'DT'
p1680
S'B-NP'
p1681
g5
tp1682
a(S'expression'
p1683
S'expression'
p1684
S'NN'
p1685
S'I-NP'
p1686
g5
tp1687
a(S'of'
p1688
S'of'
p1689
S'IN'
p1690
S'B-PP'
p1691
g5
tp1692
a(S'MUC2'
p1693
S'MUC2'
p1694
S'NN'
p1695
S'B-NP'
p1696
S'B-protein'
p1697
tp1698
a(S'and'
p1699
S'and'
p1700
S'CC'
p1701
S'I-NP'
p1702
g5
tp1703
a(S'MUC20'
p1704
S'MUC20'
p1705
S'NN'
p1706
S'I-NP'
p1707
S'B-protein'
p1708
tp1709
a(S'was'
p1710
S'be'
p1711
S'VBD'
p1712
S'B-VP'
p1713
g5
tp1714
a(S'not'
p1715
S'not'
p1716
S'RB'
p1717
S'I-VP'
p1718
g5
tp1719
a(S'influenced'
p1720
S'influence'
p1721
S'VBN'
p1722
S'I-VP'
p1723
g5
tp1724
a(S'by'
p1725
S'by'
p1726
S'IN'
p1727
S'B-PP'
p1728
g5
tp1729
a(S'age'
p1730
S'age'
p1731
S'NN'
p1732
S'B-NP'
p1733
g5
tp1734
a(S'or'
p1735
S'or'
p1736
S'CC'
p1737
g5
g5
tp1738
a(S'dietary'
p1739
S'dietary'
p1740
S'JJ'
p1741
S'B-NP'
p1742
g5
tp1743
a(S'Zn'
p1744
S'Zn'
p1745
S'NN'
p1746
S'I-NP'
p1747
g5
tp1748
a(S'concentration.'
p1749
S'concentration.'
p1750
S'NN'
p1751
S'I-NP'
p1752
g5
tp1753
a(S'High'
p1754
S'High'
p1755
S'JJ'
p1756
S'I-NP'
p1757
g5
tp1758
a(S'Zn'
p1759
S'Zn'
p1760
S'NN'
p1761
S'I-NP'
p1762
g5
tp1763
a(S'intakes'
p1764
S'intake'
p1765
S'NNS'
p1766
S'I-NP'
p1767
g5
tp1768
a(S'resulted'
p1769
S'result'
p1770
S'VBD'
p1771
S'B-VP'
p1772
g5
tp1773
a(S'in'
p1774
S'in'
p1775
S'IN'
p1776
S'B-PP'
p1777
g5
tp1778
a(g1448
g1448
S'DT'
p1779
S'B-NP'
p1780
g5
tp1781
a(S'reduced'
p1782
S'reduce'
p1783
S'VBN'
p1784
S'I-NP'
p1785
g5
tp1786
a(S'gene'
p1787
S'gene'
p1788
S'NN'
p1789
S'I-NP'
p1790
g5
tp1791
a(S'expression'
p1792
S'expression'
p1793
S'NN'
p1794
S'I-NP'
p1795
g5
tp1796
a(S'of'
p1797
S'of'
p1798
S'IN'
p1799
S'B-PP'
p1800
g5
tp1801
a(S'\xce\xb2-defensin'
p1802
S'\xce\xb2-defensin'
p1803
S'NN'
p1804
S'B-NP'
p1805
S'B-protein'
p1806
tp1807
a(g316
g316
S'CD'
p1808
S'I-NP'
p1809
S'I-protein'
p1810
tp1811
a(g345
g345
g345
g5
g5
tp1812
a(g917
g917
S'NN'
p1813
S'B-NP'
p1814
g5
tp1815
a(g921
g921
S'SYM'
p1816
g5
g5
tp1817
a(S'0.05'
p1818
S'0.05'
p1819
S'CD'
p1820
S'B-NP'
p1821
g5
tp1822
a(g362
g362
g362
g5
g5
tp1823
a(g295
g295
g295
g5
g5
tp1824
a(S'but'
p1825
S'but'
p1826
S'CC'
p1827
g5
g5
tp1828
a(S'did'
p1829
S'do'
p1830
S'VBD'
p1831
S'B-VP'
p1832
g5
tp1833
a(S'not'
p1834
S'not'
p1835
S'RB'
p1836
S'I-VP'
p1837
g5
tp1838
a(S'affect'
p1839
S'affect'
p1840
S'VB'
p1841
S'I-VP'
p1842
g5
tp1843
a(S'the'
p1844
S'the'
p1845
S'DT'
p1846
S'B-NP'
p1847
g5
tp1848
a(S'expression'
p1849
S'expression'
p1850
S'NN'
p1851
S'I-NP'
p1852
g5
tp1853
a(S'of'
p1854
S'of'
p1855
S'IN'
p1856
S'B-PP'
p1857
g5
tp1858
a(S'TFF3.'
p1859
S'TFF3.'
p1860
S'NN'
p1861
S'B-NP'
p1862
S'B-protein'
p1863
tp1864
a(S'It'
p1865
S'It'
p1866
S'PRP'
p1867
S'B-NP'
p1868
g5
tp1869
a(S'is'
p1870
S'be'
p1871
S'VBZ'
p1872
S'B-VP'
p1873
g5
tp1874
a(S'concluded'
p1875
S'conclude'
p1876
S'VBN'
p1877
S'I-VP'
p1878
g5
tp1879
a(S'that'
p1880
S'that'
p1881
S'IN'
p1882
S'B-SBAR'
p1883
g5
tp1884
a(S'Zn'
p1885
S'Zn'
p1886
S'NN'
p1887
S'B-NP'
p1888
S'B-protein'
p1889
tp1890
a(S'in'
p1891
S'in'
p1892
S'IN'
p1893
S'B-PP'
p1894
g5
tp1895
a(S'the'
p1896
S'the'
p1897
S'DT'
p1898
S'B-NP'
p1899
g5
tp1900
a(S'form'
p1901
S'form'
p1902
S'NN'
p1903
S'I-NP'
p1904
g5
tp1905
a(S'of'
p1906
S'of'
p1907
S'IN'
p1908
S'B-PP'
p1909
g5
tp1910
a(S'ZnO'
p1911
S'ZnO'
p1912
S'NN'
p1913
S'B-NP'
p1914
S'B-protein'
p1915
tp1916
a(S'appears'
p1917
S'appear'
p1918
S'VBZ'
p1919
S'B-VP'
p1920
g5
tp1921
a(S'to'
p1922
S'to'
p1923
S'TO'
p1924
S'I-VP'
p1925
g5
tp1926
a(S'have'
p1927
S'have'
p1928
S'VB'
p1929
S'I-VP'
p1930
g5
tp1931
a(S'specific'
p1932
S'specific'
p1933
S'JJ'
p1934
S'B-NP'
p1935
g5
tp1936
a(S'effects'
p1937
S'effect'
p1938
S'NNS'
p1939
S'I-NP'
p1940
g5
tp1941
a(S'on'
p1942
S'on'
p1943
S'IN'
p1944
S'B-PP'
p1945
g5
tp1946
a(S'the'
p1947
S'the'
p1948
S'DT'
p1949
S'B-NP'
p1950
g5
tp1951
a(S'innate'
p1952
S'innate'
p1953
S'JJ'
p1954
S'I-NP'
p1955
g5
tp1956
a(S'and'
p1957
S'and'
p1958
S'CC'
p1959
S'I-NP'
p1960
g5
tp1961
a(S'adaptive'
p1962
S'adaptive'
p1963
S'JJ'
p1964
S'I-NP'
p1965
g5
tp1966
a(S'gut'
p1967
S'gut'
p1968
S'NN'
p1969
S'I-NP'
p1970
g5
tp1971
a(S'associated'
p1972
S'associated'
p1973
S'JJ'
p1974
S'I-NP'
p1975
g5
tp1976
a(S'immune'
p1977
S'immune'
p1978
S'JJ'
p1979
S'I-NP'
p1980
g5
tp1981
a(S'system'
p1982
S'system'
p1983
S'NN'
p1984
S'I-NP'
p1985
g5
tp1986
a(S'of'
p1987
S'of'
p1988
S'IN'
p1989
S'B-PP'
p1990
g5
tp1991
a(S'piglets.'
p1992
S'piglets.'
p1993
S'NN'
p1994
S'B-NP'
p1995
g5
tp1996
a(S'These'
p1997
S'These'
p1998
S'DT'
p1999
S'B-NP'
p2000
g5
tp2001
a(S'might'
p2002
S'might'
p2003
S'MD'
p2004
S'B-VP'
p2005
g5
tp2006
a(S'contribute'
p2007
S'contribute'
p2008
S'VB'
p2009
S'I-VP'
p2010
g5
tp2011
a(S'to'
p2012
S'to'
p2013
S'TO'
p2014
S'B-PP'
p2015
g5
tp2016
a(S'the'
p2017
S'the'
p2018
S'DT'
p2019
S'B-NP'
p2020
g5
tp2021
a(S'positive'
p2022
S'positive'
p2023
S'JJ'
p2024
S'I-NP'
p2025
g5
tp2026
a(S'effects'
p2027
S'effect'
p2028
S'NNS'
p2029
S'I-NP'
p2030
g5
tp2031
a(S'of'
p2032
S'of'
p2033
S'IN'
p2034
S'B-PP'
p2035
g5
tp2036
a(S'Zn'
p2037
S'Zn'
p2038
S'NN'
p2039
S'B-NP'
p2040
S'B-protein'
p2041
tp2042
a(S'on'
p2043
S'on'
p2044
S'IN'
p2045
S'B-PP'
p2046
g5
tp2047
a(S'the'
p2048
S'the'
p2049
S'DT'
p2050
S'B-NP'
p2051
g5
tp2052
a(S'prevention'
p2053
S'prevention'
p2054
S'NN'
p2055
S'I-NP'
p2056
g5
tp2057
a(S'of'
p2058
S'of'
p2059
S'IN'
p2060
S'B-PP'
p2061
g5
tp2062
a(S'postweaning'
p2063
S'postweane'
p2064
S'VBG'
p2065
S'B-VP'
p2066
g5
tp2067
a(S'diarrhea'
p2068
S'diarrhea'
p2069
S'NN'
p2070
S'B-NP'
p2071
g5
tp2072
a(g72
g72
g72
g5
g5
tp2073
a.