(lp0
(S'Cytokine'
p1
S'Cytokine'
p2
S'NN'
p3
S'B-NP'
p4
S'B-protein'
p5
tp6
a(S'levels'
p7
S'level'
p8
S'NNS'
p9
S'I-NP'
p10
S'O'
p11
tp12
a(S'and'
p13
S'and'
p14
S'CC'
p15
g11
g11
tp16
a(S'systemic'
p17
S'systemic'
p18
S'JJ'
p19
S'B-NP'
p20
g11
tp21
a(S'toxicity'
p22
S'toxicity'
p23
S'NN'
p24
S'I-NP'
p25
g11
tp26
a(S'in'
p27
S'in'
p28
S'IN'
p29
S'B-PP'
p30
g11
tp31
a(S'patients'
p32
S'patient'
p33
S'NNS'
p34
S'B-NP'
p35
g11
tp36
a(S'undergoing'
p37
S'undergo'
p38
S'VBG'
p39
S'B-VP'
p40
g11
tp41
a(S'isolated'
p42
S'isolate'
p43
S'VBN'
p44
S'B-NP'
p45
g11
tp46
a(S'limb'
p47
S'limb'
p48
S'NN'
p49
S'I-NP'
p50
g11
tp51
a(S'perfusion'
p52
S'perfusion'
p53
S'NN'
p54
S'I-NP'
p55
g11
tp56
a(S'with'
p57
S'with'
p58
S'IN'
p59
S'B-PP'
p60
g11
tp61
a(S'high-dose'
p62
S'high-dose'
p63
S'JJ'
p64
S'B-NP'
p65
S'B-protein'
p66
tp67
a(S'tumor'
p68
S'tumor'
p69
S'NN'
p70
S'I-NP'
p71
S'I-protein'
p72
tp73
a(S'necrosis'
p74
S'necrosis'
p75
S'NN'
p76
S'I-NP'
p77
S'I-protein'
p78
tp79
a(S'factor'
p80
S'factor'
p81
S'NN'
p82
S'I-NP'
p83
S'I-protein'
p84
tp85
a(S','
p86
g86
g86
g11
g11
tp87
a(S'interferon'
p88
S'interferon'
p89
S'NN'
p90
S'B-NP'
p91
S'B-protein'
p92
tp93
a(S'gamma'
p94
S'gamma'
p95
S'NN'
p96
S'I-NP'
p97
S'I-protein'
p98
tp99
a(g86
g86
g86
g11
g11
tp100
a(S'and'
p101
S'and'
p102
S'CC'
p103
g11
g11
tp104
a(S'melphalan'
p105
S'melphalan'
p106
S'NN'
p107
S'B-NP'
p108
g11
tp109
a(S'.'
p110
g110
g110
g11
g11
tp111
a(S'PURPOSE'
p112
S'PURPOSE'
p113
S'NN'
p114
S'B-NP'
p115
g11
tp116
a(S'Isolated'
p117
S'Isolate'
p118
S'VBD'
p119
S'B-VP'
p120
g11
tp121
a(S'limb'
p122
S'limb'
p123
S'NN'
p124
S'B-NP'
p125
g11
tp126
a(S'perfusion'
p127
S'perfusion'
p128
S'NN'
p129
S'I-NP'
p130
g11
tp131
a(S'('
p132
g132
g132
g11
g11
tp133
a(S'ILP'
p134
S'ILP'
p135
S'NN'
p136
S'B-NP'
p137
g11
tp138
a(S')'
p139
g139
g139
g11
g11
tp140
a(S'with'
p141
S'with'
p142
S'IN'
p143
S'B-PP'
p144
g11
tp145
a(S'tumor'
p146
S'tumor'
p147
S'NN'
p148
S'B-NP'
p149
S'B-protein'
p150
tp151
a(S'necrosis'
p152
S'necrosis'
p153
S'NN'
p154
S'I-NP'
p155
S'I-protein'
p156
tp157
a(S'factor'
p158
S'factor'
p159
S'NN'
p160
S'I-NP'
p161
S'I-protein'
p162
tp163
a(g132
g132
g132
g11
g11
tp164
a(S'TNF'
p165
S'TNF'
p166
S'NN'
p167
S'B-NP'
p168
S'B-protein'
p169
tp170
a(g139
g139
g139
g11
g11
tp171
a(g86
g86
g86
g11
g11
tp172
a(S'interferon'
p173
S'interferon'
p174
S'NN'
p175
S'B-NP'
p176
S'B-protein'
p177
tp178
a(S'gamma'
p179
S'gamma'
p180
S'NN'
p181
S'I-NP'
p182
S'I-protein'
p183
tp184
a(g86
g86
g86
g11
g11
tp185
a(S'and'
p186
S'and'
p187
S'CC'
p188
g11
g11
tp189
a(S'melphalan'
p190
S'melphalan'
p191
S'NN'
p192
S'B-NP'
p193
g11
tp194
a(g132
g132
g132
g11
g11
tp195
a(S'M'
p196
g196
S'NN'
p197
S'B-NP'
p198
g11
tp199
a(g139
g139
g139
g11
g11
tp200
a(S'has'
p201
S'have'
p202
S'VBZ'
p203
S'B-VP'
p204
g11
tp205
a(S'been'
p206
S'be'
p207
S'VBN'
p208
S'I-VP'
p209
g11
tp210
a(S'reported'
p211
S'report'
p212
S'VBN'
p213
S'I-VP'
p214
g11
tp215
a(S'to'
p216
S'to'
p217
S'TO'
p218
S'I-VP'
p219
g11
tp220
a(S'result'
p221
S'result'
p222
S'VB'
p223
S'I-VP'
p224
g11
tp225
a(S'in'
p226
S'in'
p227
S'IN'
p228
S'B-PP'
p229
g11
tp230
a(S'high'
p231
S'high'
p232
S'JJ'
p233
S'B-NP'
p234
g11
tp235
a(S'response'
p236
S'response'
p237
S'NN'
p238
S'I-NP'
p239
g11
tp240
a(S'rates'
p241
S'rate'
p242
S'NNS'
p243
S'I-NP'
p244
g11
tp245
a(S'for'
p246
S'for'
p247
S'IN'
p248
S'B-PP'
p249
g11
tp250
a(S'extremity'
p251
S'extremity'
p252
S'NN'
p253
S'B-NP'
p254
g11
tp255
a(S'melanoma'
p256
S'melanoma'
p257
S'NN'
p258
S'I-NP'
p259
g11
tp260
a(S'and'
p261
S'and'
p262
S'CC'
p263
g11
g11
tp264
a(S'sarcoma.'
p265
S'sarcoma.'
p266
S'FW'
p267
S'B-NP'
p268
g11
tp269
a(S'We'
p270
S'We'
p271
S'PRP'
p272
S'B-NP'
p273
g11
tp274
a(S'have'
p275
S'have'
p276
S'VBP'
p277
S'B-VP'
p278
g11
tp279
a(S'evaluated'
p280
S'evaluate'
p281
S'VBN'
p282
S'I-VP'
p283
g11
tp284
a(S'the'
p285
S'the'
p286
S'DT'
p287
S'B-NP'
p288
g11
tp289
a(S'relationship'
p290
S'relationship'
p291
S'NN'
p292
S'I-NP'
p293
g11
tp294
a(S'of'
p295
S'of'
p296
S'IN'
p297
S'B-PP'
p298
g11
tp299
a(S'systemic'
p300
S'systemic'
p301
S'JJ'
p302
S'B-NP'
p303
g11
tp304
a(S'TNF'
p305
S'TNF'
p306
S'NN'
p307
S'I-NP'
p308
S'B-protein'
p309
tp310
a(S'exposure'
p311
S'exposure'
p312
S'NN'
p313
S'I-NP'
p314
g11
tp315
a(S'to'
p316
S'to'
p317
S'TO'
p318
S'B-PP'
p319
g11
tp320
a(S'induction'
p321
S'induction'
p322
S'NN'
p323
S'B-NP'
p324
g11
tp325
a(S'of'
p326
S'of'
p327
S'IN'
p328
S'B-PP'
p329
g11
tp330
a(S'several'
p331
S'several'
p332
S'JJ'
p333
S'B-NP'
p334
g11
tp335
a(S'secondary'
p336
S'secondary'
p337
S'JJ'
p338
S'I-NP'
p339
g11
tp340
a(S'mediators'
p341
S'mediator'
p342
S'NNS'
p343
S'I-NP'
p344
g11
tp345
a(S'and'
p346
S'and'
p347
S'CC'
p348
g11
g11
tp349
a(S'incidence'
p350
S'incidence'
p351
S'NN'
p352
S'B-NP'
p353
g11
tp354
a(S'of'
p355
S'of'
p356
S'IN'
p357
S'B-PP'
p358
g11
tp359
a(S'systemic'
p360
S'systemic'
p361
S'JJ'
p362
S'B-NP'
p363
g11
tp364
a(S'toxicity'
p365
S'toxicity'
p366
S'NN'
p367
S'I-NP'
p368
g11
tp369
a(g110
g110
g110
g11
g11
tp370
a(S'PATIENTS'
p371
S'PATIENTS'
p372
S'NNS'
p373
S'B-NP'
p374
g11
tp375
a(S'AND'
p376
S'AND'
p377
S'CC'
p378
S'I-NP'
p379
g11
tp380
a(S'METHODS'
p381
S'METHODS'
p382
S'NNS'
p383
S'I-NP'
p384
g11
tp385
a(S'Nineteen'
p386
S'Nineteen'
p387
S'CD'
p388
S'B-NP'
p389
g11
tp390
a(S'patients'
p391
S'patient'
p392
S'NNS'
p393
S'I-NP'
p394
g11
tp395
a(S'with'
p396
S'with'
p397
S'IN'
p398
S'B-PP'
p399
g11
tp400
a(S'extremity'
p401
S'extremity'
p402
S'NN'
p403
S'B-NP'
p404
g11
tp405
a(S'melanoma'
p406
S'melanoma'
p407
S'NN'
p408
S'I-NP'
p409
g11
tp410
a(g132
g132
g132
g11
g11
tp411
a(S'n'
p412
g412
S'NN'
p413
S'B-NP'
p414
g11
tp415
a(S'='
p416
g416
S'SYM'
p417
S'B-VP'
p418
g11
tp419
a(S'16'
p420
S'16'
p421
S'CD'
p422
S'B-NP'
p423
g11
tp424
a(g139
g139
g139
g11
g11
tp425
a(S'or'
p426
S'or'
p427
S'CC'
p428
g11
g11
tp429
a(S'sarcoma'
p430
S'sarcoma'
p431
S'NN'
p432
S'B-NP'
p433
g11
tp434
a(g132
g132
g132
g11
g11
tp435
a(g412
g412
S'NN'
p436
S'B-NP'
p437
g11
tp438
a(g416
g416
S'SYM'
p439
S'B-VP'
p440
g11
tp441
a(S'3'
p442
g442
S'CD'
p443
S'B-NP'
p444
g11
tp445
a(g139
g139
g139
g11
g11
tp446
a(g86
g86
g86
g11
g11
tp447
a(S'underwent'
p448
S'undergo'
p449
S'VBD'
p450
S'B-VP'
p451
g11
tp452
a(S'90-minute'
p453
S'90-minute'
p454
S'JJ'
p455
S'B-NP'
p456
g11
tp457
a(S'ILP'
p458
S'ILP'
p459
S'NN'
p460
S'I-NP'
p461
g11
tp462
a(S'with'
p463
S'with'
p464
S'IN'
p465
S'B-PP'
p466
g11
tp467
a(S'TNF-alpha'
p468
S'TNF-alpha'
p469
S'NN'
p470
S'B-NP'
p471
S'B-protein'
p472
tp473
a(g86
g86
g86
g11
g11
tp474
a(S'interferon'
p475
S'interferon'
p476
S'NN'
p477
S'B-NP'
p478
S'B-protein'
p479
tp480
a(S'gamma'
p481
S'gamma'
p482
S'NN'
p483
S'I-NP'
p484
S'I-protein'
p485
tp486
a(g132
g132
g132
g11
g11
tp487
a(S'0.2'
p488
S'0.2'
p489
S'CD'
p490
S'B-NP'
p491
g11
tp492
a(S'mg'
p493
S'mg'
p494
S'NN'
p495
S'I-NP'
p496
g11
tp497
a(g139
g139
g139
g11
g11
tp498
a(g86
g86
g86
g11
g11
tp499
a(S'and'
p500
S'and'
p501
S'CC'
p502
g11
g11
tp503
a(g196
g196
S'NN'
p504
S'B-NP'
p505
g11
tp506
a(g132
g132
g132
g11
g11
tp507
a(S'10'
p508
S'10'
p509
S'CD'
p510
S'B-NP'
p511
g11
tp512
a(S'to'
p513
S'to'
p514
S'TO'
p515
S'I-NP'
p516
g11
tp517
a(S'13'
p518
S'13'
p519
S'CD'
p520
S'I-NP'
p521
g11
tp522
a(S'mg/L'
p523
S'mg/L'
p524
S'NN'
p525
S'I-NP'
p526
g11
tp527
a(S'of'
p528
S'of'
p529
S'IN'
p530
S'B-PP'
p531
g11
tp532
a(S'limb'
p533
S'limb'
p534
S'NN'
p535
S'B-NP'
p536
g11
tp537
a(S'volume'
p538
S'volume'
p539
S'NN'
p540
S'I-NP'
p541
g11
tp542
a(g139
g139
g139
g11
g11
tp543
a(g132
g132
g132
g11
g11
tp544
a(S'TNF/IFN/M'
p545
S'TNF/IFN/M'
p546
S'NN'
p547
S'B-NP'
p548
g11
tp549
a(g139
g139
g139
g11
g11
tp550
a(g132
g132
g132
g11
g11
tp551
a(g412
g412
S'NN'
p552
S'B-NP'
p553
g11
tp554
a(g416
g416
S'SYM'
p555
S'B-VP'
p556
g11
tp557
a(S'12'
p558
S'12'
p559
S'CD'
p560
S'B-NP'
p561
g11
tp562
a(g139
g139
g139
g11
g11
tp563
a(g86
g86
g86
g11
g11
tp564
a(S'or'
p565
S'or'
p566
S'CC'
p567
g11
g11
tp568
a(g196
g196
S'NN'
p569
g11
g11
tp570
a(S'alone'
p571
S'alone'
p572
S'RB'
p573
g11
g11
tp574
a(g132
g132
g132
g11
g11
tp575
a(g412
g412
S'NN'
p576
S'B-NP'
p577
g11
tp578
a(g416
g416
S'SYM'
p579
S'B-VP'
p580
g11
tp581
a(S'7'
p582
g582
S'CD'
p583
S'B-NP'
p584
g11
tp585
a(g139
g139
g139
g11
g11
tp586
a(g110
g110
g110
g11
g11
tp587
a(S'Continuous'
p588
S'Continuous'
p589
S'JJ'
p590
S'B-NP'
p591
g11
tp592
a(S'intraoperative'
p593
S'intraoperative'
p594
S'JJ'
p595
S'I-NP'
p596
g11
tp597
a(S'monitoring'
p598
S'monitoring'
p599
S'NN'
p600
S'I-NP'
p601
g11
tp602
a(g132
g132
g132
g11
g11
tp603
a(S'CIM'
p604
S'CIM'
p605
S'NN'
p606
S'B-NP'
p607
g11
tp608
a(g139
g139
g139
g11
g11
tp609
a(S'for'
p610
S'for'
p611
S'IN'
p612
S'B-PP'
p613
g11
tp614
a(S'systemic'
p615
S'systemic'
p616
S'JJ'
p617
S'B-NP'
p618
g11
tp619
a(S'leak'
p620
S'leak'
p621
S'NN'
p622
S'I-NP'
p623
g11
tp624
a(S'from'
p625
S'from'
p626
S'IN'
p627
S'B-PP'
p628
g11
tp629
a(S'the'
p630
S'the'
p631
S'DT'
p632
S'B-NP'
p633
g11
tp634
a(S'perfusion'
p635
S'perfusion'
p636
S'NN'
p637
S'I-NP'
p638
g11
tp639
a(S'circuit'
p640
S'circuit'
p641
S'NN'
p642
S'I-NP'
p643
g11
tp644
a(S'was'
p645
S'be'
p646
S'VBD'
p647
S'B-VP'
p648
g11
tp649
a(S'performed'
p650
S'perform'
p651
S'VBN'
p652
S'I-VP'
p653
g11
tp654
a(S'using'
p655
S'use'
p656
S'VBG'
p657
S'B-VP'
p658
g11
tp659
a(S'radioactive'
p660
S'radioactive'
p661
S'JJ'
p662
S'B-NP'
p663
g11
tp664
a(S'iodine-131'
p665
S'iodine-131'
p666
S'NN'
p667
S'I-NP'
p668
g11
tp669
a(S'albumin.'
p670
S'albumin.'
p671
S'NN'
p672
S'I-NP'
p673
g11
tp674
a(S'Cytokine'
p675
S'Cytokine'
p676
S'NN'
p677
S'I-NP'
p678
S'B-protein'
p679
tp680
a(S'levels'
p681
S'level'
p682
S'NNS'
p683
S'I-NP'
p684
g11
tp685
a(S'in'
p686
S'in'
p687
S'IN'
p688
S'B-PP'
p689
g11
tp690
a(S'the'
p691
S'the'
p692
S'DT'
p693
S'B-NP'
p694
g11
tp695
a(S'perfusate'
p696
S'perfusate'
p697
S'NN'
p698
S'I-NP'
p699
g11
tp700
a(S'and'
p701
S'and'
p702
S'CC'
p703
g11
g11
tp704
a(S'systemic'
p705
S'systemic'
p706
S'JJ'
p707
S'B-NP'
p708
g11
tp709
a(S'circulation'
p710
S'circulation'
p711
S'NN'
p712
S'I-NP'
p713
g11
tp714
a(S'during'
p715
S'during'
p716
S'IN'
p717
S'B-PP'
p718
g11
tp719
a(S'and'
p720
S'and'
p721
S'CC'
p722
S'I-PP'
p723
g11
tp724
a(S'after'
p725
S'after'
p726
S'IN'
p727
S'I-PP'
p728
g11
tp729
a(S'ILP'
p730
S'ILP'
p731
S'NN'
p732
S'B-NP'
p733
S'B-protein'
p734
tp735
a(S'were'
p736
S'be'
p737
S'VBD'
p738
S'B-VP'
p739
g11
tp740
a(S'measured'
p741
S'measure'
p742
S'VBN'
p743
S'I-VP'
p744
g11
tp745
a(S'by'
p746
S'by'
p747
S'IN'
p748
S'B-PP'
p749
g11
tp750
a(S'enzyme-linked'
p751
S'enzyme-linked'
p752
S'JJ'
p753
S'B-NP'
p754
g11
tp755
a(S'immunosorbent'
p756
S'immunosorbent'
p757
S'JJ'
p758
S'I-NP'
p759
g11
tp760
a(S'assay'
p761
S'assay'
p762
S'NN'
p763
S'I-NP'
p764
g11
tp765
a(g110
g110
g110
g11
g11
tp766
a(S'RESULTS'
p767
S'RESULTS'
p768
S'NNS'
p769
S'B-NP'
p770
g11
tp771
a(S'Systemic'
p772
S'Systemic'
p773
S'JJ'
p774
S'I-NP'
p775
g11
tp776
a(S'leaks'
p777
S'leak'
p778
S'NNS'
p779
S'I-NP'
p780
g11
tp781
a(S'>'
p782
g782
S'SYM'
p783
S'B-NP'
p784
g11
tp785
a(S'or'
p786
S'or'
p787
S'CC'
p788
g11
g11
tp789
a(g416
g416
S'SYM'
p790
S'B-VP'
p791
g11
tp792
a(S'1'
p793
g793
S'CD'
p794
S'B-NP'
p795
g11
tp796
a(S'%'
p797
g797
S'NN'
p798
S'I-NP'
p799
g11
tp800
a(S'from'
p801
S'from'
p802
S'IN'
p803
S'B-PP'
p804
g11
tp805
a(S'the'
p806
S'the'
p807
S'DT'
p808
S'B-NP'
p809
g11
tp810
a(S'perfusion'
p811
S'perfusion'
p812
S'NN'
p813
S'I-NP'
p814
g11
tp815
a(S'circuit'
p816
S'circuit'
p817
S'NN'
p818
S'I-NP'
p819
g11
tp820
a(S'occurred'
p821
S'occur'
p822
S'VBD'
p823
S'B-VP'
p824
g11
tp825
a(S'in'
p826
S'in'
p827
S'IN'
p828
S'B-PP'
p829
g11
tp830
a(S'six'
p831
S'six'
p832
S'CD'
p833
S'B-NP'
p834
g11
tp835
a(S'patients'
p836
S'patient'
p837
S'NNS'
p838
S'I-NP'
p839
g11
tp840
a(S'who'
p841
S'who'
p842
S'WP'
p843
S'B-NP'
p844
g11
tp845
a(S'received'
p846
S'receive'
p847
S'VBD'
p848
S'B-VP'
p849
g11
tp850
a(S'TNF/IFN/M'
p851
S'TNF/IFN/M'
p852
S'NN'
p853
S'B-NP'
p854
g11
tp855
a(S'and'
p856
S'and'
p857
S'CC'
p858
g11
g11
tp859
a(S'in'
p860
S'in'
p861
S'IN'
p862
S'B-PP'
p863
g11
tp864
a(S'four'
p865
S'four'
p866
S'CD'
p867
S'B-NP'
p868
g11
tp869
a(S'who'
p870
S'who'
p871
S'WP'
p872
S'B-NP'
p873
g11
tp874
a(S'received'
p875
S'receive'
p876
S'VBD'
p877
S'B-VP'
p878
g11
tp879
a(g196
g196
S'NN'
p880
S'B-NP'
p881
g11
tp882
a(S'alone.'
p883
S'alone.'
p884
S'RB'
p885
S'B-NP'
p886
g11
tp887
a(S'Hypotension'
p888
S'Hypotension'
p889
S'NN'
p890
S'I-NP'
p891
g11
tp892
a(S'that'
p893
S'that'
p894
S'WDT'
p895
S'B-NP'
p896
g11
tp897
a(S'required'
p898
S'require'
p899
S'VBD'
p900
S'B-VP'
p901
g11
tp902
a(S'vasopressor'
p903
S'vasopressor'
p904
S'NN'
p905
S'B-NP'
p906
g11
tp907
a(S'support'
p908
S'support'
p909
S'NN'
p910
S'I-NP'
p911
g11
tp912
a(S'occurred'
p913
S'occur'
p914
S'VBD'
p915
S'B-VP'
p916
g11
tp917
a(S'in'
p918
S'in'
p919
S'IN'
p920
S'B-PP'
p921
g11
tp922
a(S'six'
p923
S'six'
p924
S'CD'
p925
S'B-NP'
p926
g11
tp927
a(S'of'
p928
S'of'
p929
S'IN'
p930
S'B-PP'
p931
g11
tp932
a(S'six'
p933
S'six'
p934
S'CD'
p935
S'B-NP'
p936
g11
tp937
a(S'patients'
p938
S'patient'
p939
S'NNS'
p940
S'I-NP'
p941
g11
tp942
a(S'with'
p943
S'with'
p944
S'IN'
p945
S'B-PP'
p946
g11
tp947
a(S'evidence'
p948
S'evidence'
p949
S'NN'
p950
S'B-NP'
p951
g11
tp952
a(S'of'
p953
S'of'
p954
S'IN'
p955
S'B-PP'
p956
g11
tp957
a(S'a'
p958
g958
S'DT'
p959
S'B-NP'
p960
g11
tp961
a(S'leak'
p962
S'leak'
p963
S'NN'
p964
S'I-NP'
p965
g11
tp966
a(g132
g132
g132
g11
g11
tp967
a(g782
g782
S'SYM'
p968
S'B-NP'
p969
g11
tp970
a(S'or'
p971
S'or'
p972
S'CC'
p973
g11
g11
tp974
a(g416
g416
S'SYM'
p975
S'B-VP'
p976
g11
tp977
a(g793
g793
S'CD'
p978
S'B-NP'
p979
g11
tp980
a(g797
g797
S'NN'
p981
S'I-NP'
p982
g11
tp983
a(g139
g139
g139
g11
g11
tp984
a(S'and'
p985
S'and'
p986
S'CC'
p987
g11
g11
tp988
a(S'zero'
p989
S'zero'
p990
S'CD'
p991
S'B-NP'
p992
g11
tp993
a(S'of'
p994
S'of'
p995
S'IN'
p996
S'B-PP'
p997
g11
tp998
a(S'six'
p999
S'six'
p1000
S'CD'
p1001
S'B-NP'
p1002
g11
tp1003
a(S'patients'
p1004
S'patient'
p1005
S'NNS'
p1006
S'I-NP'
p1007
g11
tp1008
a(S'without'
p1009
S'without'
p1010
S'IN'
p1011
S'B-PP'
p1012
g11
tp1013
a(g958
g958
S'DT'
p1014
S'B-NP'
p1015
g11
tp1016
a(S'leak'
p1017
S'leak'
p1018
S'NN'
p1019
S'I-NP'
p1020
g11
tp1021
a(g132
g132
g132
g11
g11
tp1022
a(S'<'
p1023
g1023
S'SYM'
p1024
S'B-NP'
p1025
g11
tp1026
a(g793
g793
S'CD'
p1027
S'B-NP'
p1028
g11
tp1029
a(g797
g797
S'NN'
p1030
S'I-NP'
p1031
g11
tp1032
a(g139
g139
g139
g11
g11
tp1033
a(g110
g110
g110
g11
g11
tp1034
a(S'These'
p1035
S'These'
p1036
S'DT'
p1037
S'B-NP'
p1038
g11
tp1039
a(S'six'
p1040
S'six'
p1041
S'CD'
p1042
S'I-NP'
p1043
g11
tp1044
a(S'patients'
p1045
S'patient'
p1046
S'NNS'
p1047
S'I-NP'
p1048
g11
tp1049
a(S'had'
p1050
S'have'
p1051
S'VBD'
p1052
S'B-VP'
p1053
g11
tp1054
a(S'significantly'
p1055
S'significantly'
p1056
S'RB'
p1057
S'B-NP'
p1058
g11
tp1059
a(S'higher'
p1060
S'high'
p1061
S'JJR'
p1062
S'I-NP'
p1063
g11
tp1064
a(S'peak'
p1065
S'peak'
p1066
S'JJ'
p1067
S'I-NP'
p1068
g11
tp1069
a(S'systemic'
p1070
S'systemic'
p1071
S'JJ'
p1072
S'I-NP'
p1073
g11
tp1074
a(S'TNF'
p1075
S'TNF'
p1076
S'NN'
p1077
S'I-NP'
p1078
S'B-protein'
p1079
tp1080
a(S'levels'
p1081
S'level'
p1082
S'NNS'
p1083
S'I-NP'
p1084
g11
tp1085
a(S'during'
p1086
S'during'
p1087
S'IN'
p1088
S'B-PP'
p1089
g11
tp1090
a(S'and'
p1091
S'and'
p1092
S'CC'
p1093
S'I-PP'
p1094
g11
tp1095
a(S'after'
p1096
S'after'
p1097
S'IN'
p1098
S'I-PP'
p1099
g11
tp1100
a(S'perfusion'
p1101
S'perfusion'
p1102
S'NN'
p1103
S'B-NP'
p1104
g11
tp1105
a(S'than'
p1106
S'than'
p1107
S'IN'
p1108
S'B-PP'
p1109
g11
tp1110
a(S'patients'
p1111
S'patient'
p1112
S'NNS'
p1113
S'B-NP'
p1114
g11
tp1115
a(S'without'
p1116
S'without'
p1117
S'IN'
p1118
S'B-PP'
p1119
g11
tp1120
a(g958
g958
S'DT'
p1121
S'B-NP'
p1122
g11
tp1123
a(S'leak'
p1124
S'leak'
p1125
S'NN'
p1126
S'I-NP'
p1127
g11
tp1128
a(g132
g132
g132
g11
g11
tp1129
a(S'2.8'
p1130
S'2.8'
p1131
S'CD'
p1132
S'B-NP'
p1133
g11
tp1134
a(S'and'
p1135
S'and'
p1136
S'CC'
p1137
S'I-NP'
p1138
g11
tp1139
a(S'8.2'
p1140
S'8.2'
p1141
S'CD'
p1142
S'I-NP'
p1143
g11
tp1144
a(S'ng/mL'
p1145
S'ng/mL'
p1146
S'NN'
p1147
S'I-NP'
p1148
g11
tp1149
a(S'v'
p1150
g1150
S'NN'
p1151
S'I-NP'
p1152
g11
tp1153
a(S'0.7'
p1154
S'0.7'
p1155
S'CD'
p1156
S'B-NP'
p1157
g11
tp1158
a(S'and'
p1159
S'and'
p1160
S'CC'
p1161
S'I-NP'
p1162
g11
tp1163
a(S'2.0'
p1164
S'2.0'
p1165
S'CD'
p1166
S'I-NP'
p1167
g11
tp1168
a(S'ng/mL'
p1169
S'ng/mL'
p1170
S'NN'
p1171
S'I-NP'
p1172
g11
tp1173
a(g86
g86
g86
g11
g11
tp1174
a(S'respectively'
p1175
S'respectively'
p1176
S'RB'
p1177
S'B-ADVP'
p1178
g11
tp1179
a(S';'
p1180
g1180
S':'
p1181
g11
g11
tp1182
a(S'P'
p1183
g1183
S'NN'
p1184
S'B-NP'
p1185
g11
tp1186
a(g1023
g1023
S'JJR'
p1187
S'B-NP'
p1188
g11
tp1189
a(S'.05'
p1190
S'.05'
p1191
S'CD'
p1192
S'I-NP'
p1193
g11
tp1194
a(g139
g139
g139
g11
g11
tp1195
a(g110
g110
g110
g11
g11
tp1196
a(S'All'
p1197
S'All'
p1198
S'DT'
p1199
S'B-NP'
p1200
g11
tp1201
a(S'patients'
p1202
S'patient'
p1203
S'NNS'
p1204
S'I-NP'
p1205
g11
tp1206
a(S'who'
p1207
S'who'
p1208
S'WP'
p1209
S'B-NP'
p1210
g11
tp1211
a(S'received'
p1212
S'receive'
p1213
S'VBD'
p1214
S'B-VP'
p1215
g11
tp1216
a(S'TNF/IFN/M'
p1217
S'TNF/IFN/M'
p1218
S'NN'
p1219
S'B-NP'
p1220
g11
tp1221
a(S'had'
p1222
S'have'
p1223
S'VBD'
p1224
S'B-VP'
p1225
g11
tp1226
a(S'significantly'
p1227
S'significantly'
p1228
S'RB'
p1229
S'B-NP'
p1230
g11
tp1231
a(S'greater'
p1232
S'great'
p1233
S'JJR'
p1234
S'I-NP'
p1235
g11
tp1236
a(S'increases'
p1237
S'increase'
p1238
S'NNS'
p1239
S'I-NP'
p1240
g11
tp1241
a(S'in'
p1242
S'in'
p1243
S'IN'
p1244
S'B-PP'
p1245
g11
tp1246
a(S'systemic'
p1247
S'systemic'
p1248
S'JJ'
p1249
S'B-NP'
p1250
g11
tp1251
a(S'interleukin-6'
p1252
S'interleukin-6'
p1253
S'NN'
p1254
S'I-NP'
p1255
S'B-protein'
p1256
tp1257
a(g132
g132
g132
g11
g11
tp1258
a(S'IL-6'
p1259
S'IL-6'
p1260
S'NN'
p1261
S'B-NP'
p1262
S'B-protein'
p1263
tp1264
a(g139
g139
g139
g11
g11
tp1265
a(S'levels'
p1266
S'level'
p1267
S'NNS'
p1268
S'B-NP'
p1269
g11
tp1270
a(S'than'
p1271
S'than'
p1272
S'IN'
p1273
S'B-PP'
p1274
g11
tp1275
a(S'in'
p1276
S'in'
p1277
S'IN'
p1278
S'B-PP'
p1279
g11
tp1280
a(S'patients'
p1281
S'patient'
p1282
S'NNS'
p1283
S'B-NP'
p1284
g11
tp1285
a(S'with'
p1286
S'with'
p1287
S'IN'
p1288
S'B-PP'
p1289
g11
tp1290
a(g196
g196
S'NN'
p1291
S'B-NP'
p1292
g11
tp1293
a(S'alone'
p1294
S'alone'
p1295
S'RB'
p1296
S'B-ADVP'
p1297
g11
tp1298
a(g132
g132
g132
g11
g11
tp1299
a(S'12'
p1300
S'12'
p1301
S'CD'
p1302
S'B-NP'
p1303
g11
tp1304
a(g86
g86
g86
g11
g11
tp1305
a(S'395'
p1306
S'395'
p1307
S'CD'
p1308
S'B-NP'
p1309
g11
tp1310
a(S'+/-'
p1311
S'+/-'
p1312
S'SYM'
p1313
S'I-NP'
p1314
g11
tp1315
a(S'10'
p1316
S'10'
p1317
S'CD'
p1318
S'I-NP'
p1319
g11
tp1320
a(g86
g86
g86
S'I-NP'
p1321
g11
tp1322
a(S'374'
p1323
S'374'
p1324
S'CD'
p1325
S'I-NP'
p1326
g11
tp1327
a(S'pg/mL'
p1328
S'pg/mL'
p1329
S'NN'
p1330
S'I-NP'
p1331
g11
tp1332
a(g1150
g1150
S'IN'
p1333
S'B-PP'
p1334
g11
tp1335
a(S'79.4'
p1336
S'79.4'
p1337
S'CD'
p1338
S'B-NP'
p1339
g11
tp1340
a(S'+/-'
p1341
S'+/-'
p1342
S'SYM'
p1343
S'I-NP'
p1344
g11
tp1345
a(S'7.2'
p1346
S'7.2'
p1347
S'CD'
p1348
S'I-NP'
p1349
g11
tp1350
a(S'pg/mL'
p1351
S'pg/mL'
p1352
S'NN'
p1353
S'I-NP'
p1354
g11
tp1355
a(g86
g86
g86
g11
g11
tp1356
a(S'respectively'
p1357
S'respectively'
p1358
S'RB'
p1359
S'B-ADVP'
p1360
g11
tp1361
a(g1180
g1180
g1181
g11
g11
tp1362
a(g1183
g1183
S'NN'
p1363
S'B-NP'
p1364
g11
tp1365
a(g1023
g1023
S'JJR'
p1366
S'B-NP'
p1367
g11
tp1368
a(S'.001'
p1369
S'.001'
p1370
S'CD'
p1371
S'I-NP'
p1372
g11
tp1373
a(g139
g139
g139
g11
g11
tp1374
a(g110
g110
g110
g11
g11
tp1375
a(S'Intracellular'
p1376
S'Intracellular'
p1377
S'JJ'
p1378
S'B-NP'
p1379
S'B-protein'
p1380
tp1381
a(S'adhesion'
p1382
S'adhesion'
p1383
S'NN'
p1384
S'I-NP'
p1385
S'I-protein'
p1386
tp1387
a(S'molecule'
p1388
S'molecule'
p1389
S'NN'
p1390
S'I-NP'
p1391
S'I-protein'
p1392
tp1393
a(g132
g132
g132
g11
g11
tp1394
a(S'ICAM'
p1395
S'ICAM'
p1396
S'NN'
p1397
S'B-NP'
p1398
S'B-protein'
p1399
tp1400
a(g139
g139
g139
g11
g11
tp1401
a(g86
g86
g86
g11
g11
tp1402
a(S'IL-8'
p1403
S'IL-8'
p1404
S'NN'
p1405
S'B-NP'
p1406
S'B-protein'
p1407
tp1408
a(g86
g86
g86
g11
g11
tp1409
a(S'and'
p1410
S'and'
p1411
S'CC'
p1412
g11
g11
tp1413
a(S'TNF-R'
p1414
S'TNF-R'
p1415
S'NN'
p1416
S'B-NP'
p1417
S'B-protein'
p1418
tp1419
a(S'levels'
p1420
S'level'
p1421
S'NNS'
p1422
S'I-NP'
p1423
g11
tp1424
a(S'were'
p1425
S'be'
p1426
S'VBD'
p1427
S'B-VP'
p1428
g11
tp1429
a(S'also'
p1430
S'also'
p1431
S'RB'
p1432
S'I-VP'
p1433
g11
tp1434
a(S'increased'
p1435
S'increase'
p1436
S'VBN'
p1437
S'I-VP'
p1438
g11
tp1439
a(S'after'
p1440
S'after'
p1441
S'IN'
p1442
S'B-PP'
p1443
g11
tp1444
a(S'ILP'
p1445
S'ILP'
p1446
S'NN'
p1447
S'B-NP'
p1448
S'B-protein'
p1449
tp1450
a(S'with'
p1451
S'with'
p1452
S'IN'
p1453
S'B-PP'
p1454
g11
tp1455
a(S'TNF/IFN/M'
p1456
S'TNF/IFN/M'
p1457
S'NN'
p1458
S'B-NP'
p1459
S'B-protein'
p1460
tp1461
a(g110
g110
g110
g11
g11
tp1462
a(S'CONCLUSION'
p1463
S'CONCLUSION'
p1464
S'NN'
p1465
S'B-NP'
p1466
g11
tp1467
a(S'ILP'
p1468
S'ILP'
p1469
S'NN'
p1470
S'I-NP'
p1471
g11
tp1472
a(S'with'
p1473
S'with'
p1474
S'IN'
p1475
S'B-PP'
p1476
g11
tp1477
a(S'TNF/IFN/M'
p1478
S'TNF/IFN/M'
p1479
S'NN'
p1480
S'B-NP'
p1481
S'B-protein'
p1482
tp1483
a(S'can'
p1484
S'can'
p1485
S'MD'
p1486
S'B-VP'
p1487
g11
tp1488
a(S'be'
p1489
S'be'
p1490
S'VB'
p1491
S'I-VP'
p1492
g11
tp1493
a(S'safely'
p1494
S'safely'
p1495
S'RB'
p1496
S'I-VP'
p1497
g11
tp1498
a(S'performed'
p1499
S'perform'
p1500
S'VBN'
p1501
S'I-VP'
p1502
g11
tp1503
a(g86
g86
g86
g11
g11
tp1504
a(S'as'
p1505
S'as'
p1506
S'IN'
p1507
S'B-SBAR'
p1508
g11
tp1509
a(S'I131'
p1510
S'I131'
p1511
S'NN'
p1512
S'B-NP'
p1513
S'B-protein'
p1514
tp1515
a(S'albumin'
p1516
S'albumin'
p1517
S'NN'
p1518
S'I-NP'
p1519
S'I-protein'
p1520
tp1521
a(S'provides'
p1522
S'provide'
p1523
S'VBZ'
p1524
S'B-VP'
p1525
g11
tp1526
a(g958
g958
S'DT'
p1527
S'B-NP'
p1528
g11
tp1529
a(S'sensitive'
p1530
S'sensitive'
p1531
S'JJ'
p1532
S'I-NP'
p1533
g11
tp1534
a(S'measure'
p1535
S'measure'
p1536
S'NN'
p1537
S'I-NP'
p1538
g11
tp1539
a(S'of'
p1540
S'of'
p1541
S'IN'
p1542
S'B-PP'
p1543
g11
tp1544
a(S'systemic'
p1545
S'systemic'
p1546
S'JJ'
p1547
S'B-NP'
p1548
g11
tp1549
a(S'leakage'
p1550
S'leakage'
p1551
S'NN'
p1552
S'I-NP'
p1553
g11
tp1554
a(S'from'
p1555
S'from'
p1556
S'IN'
p1557
S'B-PP'
p1558
g11
tp1559
a(S'the'
p1560
S'the'
p1561
S'DT'
p1562
S'B-NP'
p1563
g11
tp1564
a(S'perfusion'
p1565
S'perfusion'
p1566
S'NN'
p1567
S'I-NP'
p1568
g11
tp1569
a(S'circuit.'
p1570
S'circuit.'
p1571
S'NN'
p1572
S'I-NP'
p1573
g11
tp1574
a(S'Patients'
p1575
S'Patient'
p1576
S'NNS'
p1577
S'I-NP'
p1578
g11
tp1579
a(S'with'
p1580
S'with'
p1581
S'IN'
p1582
S'B-PP'
p1583
g11
tp1584
a(g958
g958
S'DT'
p1585
S'B-NP'
p1586
g11
tp1587
a(S'measured'
p1588
S'measure'
p1589
S'VBN'
p1590
S'I-NP'
p1591
g11
tp1592
a(S'leak'
p1593
S'leak'
p1594
S'NN'
p1595
S'I-NP'
p1596
g11
tp1597
a(S'of'
p1598
S'of'
p1599
S'IN'
p1600
S'B-PP'
p1601
g11
tp1602
a(g782
g782
S'SYM'
p1603
S'B-NP'
p1604
g11
tp1605
a(S'or'
p1606
S'or'
p1607
S'CC'
p1608
g11
g11
tp1609
a(g416
g416
S'SYM'
p1610
S'B-VP'
p1611
g11
tp1612
a(g793
g793
S'CD'
p1613
S'B-NP'
p1614
g11
tp1615
a(g797
g797
S'NN'
p1616
S'I-NP'
p1617
g11
tp1618
a(S'develop'
p1619
S'develop'
p1620
S'VBP'
p1621
S'B-VP'
p1622
g11
tp1623
a(S'mild'
p1624
S'mild'
p1625
S'JJ'
p1626
S'B-NP'
p1627
g11
tp1628
a(S'and'
p1629
S'and'
p1630
S'CC'
p1631
S'I-NP'
p1632
g11
tp1633
a(S'transient'
p1634
S'transient'
p1635
S'JJ'
p1636
S'I-NP'
p1637
g11
tp1638
a(S'postoperative'
p1639
S'postoperative'
p1640
S'JJ'
p1641
S'I-NP'
p1642
g11
tp1643
a(S'hypotension'
p1644
S'hypotension'
p1645
S'NN'
p1646
S'I-NP'
p1647
g11
tp1648
a(S'with'
p1649
S'with'
p1650
S'IN'
p1651
S'B-PP'
p1652
g11
tp1653
a(S'significantly'
p1654
S'significantly'
p1655
S'RB'
p1656
S'B-NP'
p1657
g11
tp1658
a(S'higher'
p1659
S'high'
p1660
S'JJR'
p1661
S'I-NP'
p1662
g11
tp1663
a(S'systemic'
p1664
S'systemic'
p1665
S'JJ'
p1666
S'I-NP'
p1667
g11
tp1668
a(S'TNF'
p1669
S'TNF'
p1670
S'NN'
p1671
S'I-NP'
p1672
S'B-protein'
p1673
tp1674
a(S'levels'
p1675
S'level'
p1676
S'NNS'
p1677
S'I-NP'
p1678
g11
tp1679
a(S'and'
p1680
S'and'
p1681
S'CC'
p1682
g11
g11
tp1683
a(S'lower'
p1684
S'low'
p1685
S'JJR'
p1686
S'B-NP'
p1687
g11
tp1688
a(S'perfusate'
p1689
S'perfusate'
p1690
S'NN'
p1691
S'I-NP'
p1692
g11
tp1693
a(S'TNF'
p1694
S'TNF'
p1695
S'NN'
p1696
S'I-NP'
p1697
S'B-protein'
p1698
tp1699
a(S'levels'
p1700
S'level'
p1701
S'NNS'
p1702
S'I-NP'
p1703
g11
tp1704
a(S'than'
p1705
S'than'
p1706
S'IN'
p1707
S'B-PP'
p1708
g11
tp1709
a(S'in'
p1710
S'in'
p1711
S'IN'
p1712
S'B-PP'
p1713
g11
tp1714
a(S'patients'
p1715
S'patient'
p1716
S'NNS'
p1717
S'B-NP'
p1718
g11
tp1719
a(S'without'
p1720
S'without'
p1721
S'IN'
p1722
S'B-PP'
p1723
g11
tp1724
a(S'leaks'
p1725
S'leak'
p1726
S'NNS'
p1727
S'B-NP'
p1728
g11
tp1729
a(g110
g110
g110
g11
g11
tp1730
a.