(lp0
(S'['
p1
g1
S'('
p2
S'O'
p3
g3
tp4
a(S'Effectiveness'
p5
S'Effectiveness'
p6
S'NN'
p7
S'B-NP'
p8
g3
tp9
a(S'of'
p10
S'of'
p11
S'IN'
p12
S'B-PP'
p13
g3
tp14
a(S'morphine'
p15
S'morphine'
p16
S'NN'
p17
S'B-NP'
p18
g3
tp19
a(S'by'
p20
S'by'
p21
S'IN'
p22
S'B-PP'
p23
g3
tp24
a(S'periarticular'
p25
S'periarticular'
p26
S'JJ'
p27
S'B-NP'
p28
g3
tp29
a(S'injections'
p30
S'injection'
p31
S'NNS'
p32
S'I-NP'
p33
g3
tp34
a(S'after'
p35
S'after'
p36
S'IN'
p37
S'B-PP'
p38
g3
tp39
a(S'shoulder'
p40
S'shoulder'
p41
S'NN'
p42
S'B-NP'
p43
g3
tp44
a(S'arthroscopy'
p45
S'arthroscopy'
p46
S'NN'
p47
S'I-NP'
p48
g3
tp49
a(S']'
p50
g50
S')'
p51
g3
g3
tp52
a(S'.'
p53
g53
g53
g3
g3
tp54
a(S'Peripheral'
p55
S'Peripheral'
p56
S'JJ'
p57
S'B-NP'
p58
S'B-protein'
p59
tp60
a(S'opioid'
p61
S'opioid'
p62
S'JJ'
p63
S'I-NP'
p64
S'I-protein'
p65
tp66
a(S'receptors'
p67
S'receptor'
p68
S'NNS'
p69
S'I-NP'
p70
S'I-protein'
p71
tp72
a(S'have'
p73
S'have'
p74
S'VBP'
p75
S'B-VP'
p76
g3
tp77
a(S'been'
p78
S'be'
p79
S'VBN'
p80
S'I-VP'
p81
g3
tp82
a(S'found'
p83
S'find'
p84
S'VBN'
p85
S'I-VP'
p86
g3
tp87
a(S'in'
p88
S'in'
p89
S'IN'
p90
S'B-PP'
p91
g3
tp92
a(S'inflamed'
p93
S'inflamed'
p94
S'JJ'
p95
S'B-NP'
p96
g3
tp97
a(S'synovia'
p98
S'synovia'
p99
S'NN'
p100
S'I-NP'
p101
g3
tp102
a(S'and'
p103
S'and'
p104
S'CC'
p105
g3
g3
tp106
a(S'the'
p107
S'the'
p108
S'DT'
p109
S'B-NP'
p110
g3
tp111
a(S'analgesic'
p112
S'analgesic'
p113
S'JJ'
p114
S'I-NP'
p115
g3
tp116
a(S'effect'
p117
S'effect'
p118
S'NN'
p119
S'I-NP'
p120
g3
tp121
a(S'of'
p122
S'of'
p123
S'IN'
p124
S'B-PP'
p125
g3
tp126
a(S'intra-articularly'
p127
S'intra-articularly'
p128
S'JJ'
p129
S'B-NP'
p130
g3
tp131
a(S'administered'
p132
S'administer'
p133
S'VBN'
p134
S'I-NP'
p135
g3
tp136
a(S'morphine'
p137
S'morphine'
p138
S'NN'
p139
S'I-NP'
p140
g3
tp141
a(S'after'
p142
S'after'
p143
S'IN'
p144
S'B-PP'
p145
g3
tp146
a(S'arthroscopic'
p147
S'arthroscopic'
p148
S'JJ'
p149
S'B-NP'
p150
g3
tp151
a(S'knee'
p152
S'knee'
p153
S'NN'
p154
S'I-NP'
p155
g3
tp156
a(S'surgery'
p157
S'surgery'
p158
S'NN'
p159
S'I-NP'
p160
g3
tp161
a(S'has'
p162
S'have'
p163
S'VBZ'
p164
S'B-VP'
p165
g3
tp166
a(S'been'
p167
S'be'
p168
S'VBN'
p169
S'I-VP'
p170
g3
tp171
a(S'proven.'
p172
S'proven.'
p173
S'FW'
p174
S'B-ADJP'
p175
g3
tp176
a(S'There'
p177
S'There'
p178
S'EX'
p179
S'B-NP'
p180
g3
tp181
a(S'is'
p182
S'be'
p183
S'VBZ'
p184
S'B-VP'
p185
g3
tp186
a(S'controversy'
p187
S'controversy'
p188
S'NN'
p189
S'B-NP'
p190
g3
tp191
a(S'about'
p192
S'about'
p193
S'IN'
p194
S'B-PP'
p195
g3
tp196
a(S'efficacy'
p197
S'efficacy'
p198
S'NN'
p199
S'B-NP'
p200
g3
tp201
a(S'of'
p202
S'of'
p203
S'IN'
p204
S'B-PP'
p205
g3
tp206
a(S'intraarticular'
p207
S'intraarticular'
p208
S'JJ'
p209
S'B-NP'
p210
g3
tp211
a(S'morphine'
p212
S'morphine'
p213
S'NN'
p214
S'I-NP'
p215
g3
tp216
a(S'after'
p217
S'after'
p218
S'IN'
p219
S'B-PP'
p220
g3
tp221
a(S'shoulder'
p222
S'shoulder'
p223
S'NN'
p224
S'B-NP'
p225
g3
tp226
a(S'arthroscopy.'
p227
S'arthroscopy.'
p228
S'NN'
p229
S'I-NP'
p230
g3
tp231
a(S'Thirty-two'
p232
S'Thirty-two'
p233
S'CD'
p234
S'B-NP'
p235
g3
tp236
a(S'patients'
p237
S'patient'
p238
S'NNS'
p239
S'I-NP'
p240
g3
tp241
a(S'with'
p242
S'with'
p243
S'IN'
p244
S'B-PP'
p245
g3
tp246
a(S'impingement'
p247
S'impingement'
p248
S'NN'
p249
S'B-NP'
p250
g3
tp251
a(S'syndrome'
p252
S'syndrome'
p253
S'NN'
p254
S'I-NP'
p255
g3
tp256
a(S'underwent'
p257
S'undergo'
p258
S'VBD'
p259
S'B-VP'
p260
g3
tp261
a(S'subacromial'
p262
S'subacromial'
p263
S'JJ'
p264
S'B-NP'
p265
g3
tp266
a(S'decompression'
p267
S'decompression'
p268
S'NN'
p269
S'I-NP'
p270
g3
tp271
a(S'in'
p272
S'in'
p273
S'IN'
p274
S'B-PP'
p275
g3
tp276
a(S'the'
p277
S'the'
p278
S'DT'
p279
S'B-NP'
p280
g3
tp281
a(S'course'
p282
S'course'
p283
S'NN'
p284
S'I-NP'
p285
g3
tp286
a(S'of'
p287
S'of'
p288
S'IN'
p289
S'B-PP'
p290
g3
tp291
a(S'arthroscopic'
p292
S'arthroscopic'
p293
S'JJ'
p294
S'B-NP'
p295
g3
tp296
a(S'shoulder'
p297
S'shoulder'
p298
S'NN'
p299
S'I-NP'
p300
g3
tp301
a(S'surgery.'
p302
S'surgery.'
p303
S'NN'
p304
S'I-NP'
p305
g3
tp306
a(S'At'
p307
S'At'
p308
S'IN'
p309
S'B-PP'
p310
g3
tp311
a(S'the'
p312
S'the'
p313
S'DT'
p314
S'B-NP'
p315
g3
tp316
a(S'end'
p317
S'end'
p318
S'NN'
p319
S'I-NP'
p320
g3
tp321
a(S'of'
p322
S'of'
p323
S'IN'
p324
S'B-PP'
p325
g3
tp326
a(S'the'
p327
S'the'
p328
S'DT'
p329
S'B-NP'
p330
g3
tp331
a(S'operation'
p332
S'operation'
p333
S'NN'
p334
S'I-NP'
p335
g3
tp336
a(S'morphine'
p337
S'morphine'
p338
S'NN'
p339
S'I-NP'
p340
g3
tp341
a(g2
g2
g2
g3
g3
tp342
a(S'5'
p343
g343
S'CD'
p344
S'B-NP'
p345
g3
tp346
a(S'mg'
p347
S'mg'
p348
S'NN'
p349
S'I-NP'
p350
g3
tp351
a(g51
g51
g51
g3
g3
tp352
a(S'or'
p353
S'or'
p354
S'CC'
p355
g3
g3
tp356
a(S'saline'
p357
S'saline'
p358
S'NN'
p359
S'B-NP'
p360
g3
tp361
a(S'was'
p362
S'be'
p363
S'VBD'
p364
S'B-VP'
p365
g3
tp366
a(S'injected'
p367
S'inject'
p368
S'VBN'
p369
S'I-VP'
p370
g3
tp371
a(S'periarticularly.'
p372
S'periarticularly.'
p373
S'NN'
p374
S'B-NP'
p375
g3
tp376
a(S'Pain'
p377
S'Pain'
p378
S'NN'
p379
S'I-NP'
p380
g3
tp381
a(S'intensity'
p382
S'intensity'
p383
S'NN'
p384
S'I-NP'
p385
g3
tp386
a(g2
g2
g2
g3
g3
tp387
a(S'rest'
p388
S'rest'
p389
S'NN'
p390
S'B-NP'
p391
g3
tp392
a(S'and'
p393
S'and'
p394
S'CC'
p395
g3
g3
tp396
a(S'passive'
p397
S'passive'
p398
S'JJ'
p399
S'B-NP'
p400
g3
tp401
a(S'mobilisation'
p402
S'mobilisation'
p403
S'NN'
p404
S'I-NP'
p405
g3
tp406
a(g51
g51
g51
g3
g3
tp407
a(S'was'
p408
S'be'
p409
S'VBD'
p410
S'B-VP'
p411
g3
tp412
a(S'recorded'
p413
S'record'
p414
S'VBN'
p415
S'I-VP'
p416
g3
tp417
a(S'after'
p418
S'after'
p419
S'IN'
p420
S'B-PP'
p421
g3
tp422
a(S'recovery'
p423
S'recovery'
p424
S'NN'
p425
S'B-NP'
p426
g3
tp427
a(S'and'
p428
S'and'
p429
S'CC'
p430
g3
g3
tp431
a(S'after'
p432
S'after'
p433
S'IN'
p434
S'B-PP'
p435
g3
tp436
a(S'1'
p437
g437
S'CD'
p438
S'B-NP'
p439
g3
tp440
a(S','
p441
g441
g441
S'I-NP'
p442
g3
tp443
a(S'2'
p444
g444
S'CD'
p445
S'I-NP'
p446
g3
tp447
a(g441
g441
g441
S'I-NP'
p448
g3
tp449
a(S'4'
p450
g450
S'CD'
p451
S'I-NP'
p452
g3
tp453
a(g441
g441
g441
g3
g3
tp454
a(S'and'
p455
S'and'
p456
S'CC'
p457
g3
g3
tp458
a(S'24'
p459
S'24'
p460
S'CD'
p461
S'B-NP'
p462
g3
tp463
a(S'hours'
p464
S'hour'
p465
S'NNS'
p466
S'I-NP'
p467
g3
tp468
a(g2
g2
g2
g3
g3
tp469
a(S'Numeric'
p470
S'Numeric'
p471
S'NNP'
p472
S'B-NP'
p473
g3
tp474
a(S'Rating'
p475
S'Rating'
p476
S'NNP'
p477
S'I-NP'
p478
g3
tp479
a(S'Scale'
p480
S'Scale'
p481
S'NNP'
p482
S'I-NP'
p483
g3
tp484
a(g51
g51
g51
g3
g3
tp485
a(S';'
p486
g486
S':'
p487
g3
g3
tp488
a(S'the'
p489
S'the'
p490
S'DT'
p491
S'B-NP'
p492
g3
tp493
a(S'use'
p494
S'use'
p495
S'NN'
p496
S'I-NP'
p497
g3
tp498
a(S'of'
p499
S'of'
p500
S'IN'
p501
S'B-PP'
p502
g3
tp503
a(S'rescue'
p504
S'rescue'
p505
S'NN'
p506
S'B-NP'
p507
g3
tp508
a(S'medication'
p509
S'medication'
p510
S'NN'
p511
S'I-NP'
p512
g3
tp513
a(g2
g2
g2
g3
g3
tp514
a(S'piritramide'
p515
S'piritramide'
p516
S'NN'
p517
S'B-NP'
p518
g3
tp519
a(S'by'
p520
S'by'
p521
S'IN'
p522
S'B-PP'
p523
g3
tp524
a(S'patient'
p525
S'patient'
p526
S'NN'
p527
S'B-NP'
p528
g3
tp529
a(S'controlled'
p530
S'controlled'
p531
S'JJ'
p532
S'I-NP'
p533
g3
tp534
a(S'analgesia'
p535
S'analgesia'
p536
S'NN'
p537
S'I-NP'
p538
g3
tp539
a(g51
g51
g51
g3
g3
tp540
a(S'was'
p541
S'be'
p542
S'VBD'
p543
S'B-VP'
p544
g3
tp545
a(S'noted.'
p546
S'noted.'
p547
S'RB'
p548
S'B-ADVP'
p549
g3
tp550
a(S'No'
p551
S'No'
p552
S'DT'
p553
S'B-NP'
p554
g3
tp555
a(S'relevant'
p556
S'relevant'
p557
S'JJ'
p558
S'I-NP'
p559
g3
tp560
a(S'pain'
p561
S'pain'
p562
S'NN'
p563
S'I-NP'
p564
g3
tp565
a(S'reduction'
p566
S'reduction'
p567
S'NN'
p568
S'I-NP'
p569
g3
tp570
a(S'was'
p571
S'be'
p572
S'VBD'
p573
S'B-VP'
p574
g3
tp575
a(S'apparent'
p576
S'apparent'
p577
S'JJ'
p578
S'B-ADJP'
p579
g3
tp580
a(S'in'
p581
S'in'
p582
S'IN'
p583
S'B-PP'
p584
g3
tp585
a(S'the'
p586
S'the'
p587
S'DT'
p588
S'B-NP'
p589
g3
tp590
a(S'morphine'
p591
S'morphine'
p592
S'NN'
p593
S'I-NP'
p594
g3
tp595
a(S'group.'
p596
S'group.'
p597
S'NN'
p598
S'I-NP'
p599
g3
tp600
a(S'Piritramide'
p601
S'Piritramide'
p602
S'NN'
p603
S'I-NP'
p604
g3
tp605
a(S'consumption'
p606
S'consumption'
p607
S'NN'
p608
S'I-NP'
p609
g3
tp610
a(S'was'
p611
S'be'
p612
S'VBD'
p613
S'B-VP'
p614
g3
tp615
a(S'identical'
p616
S'identical'
p617
S'JJ'
p618
S'B-ADJP'
p619
g3
tp620
a(S'in'
p621
S'in'
p622
S'IN'
p623
S'B-PP'
p624
g3
tp625
a(S'both'
p626
S'both'
p627
S'DT'
p628
S'B-NP'
p629
g3
tp630
a(S'groups'
p631
S'group'
p632
S'NNS'
p633
S'I-NP'
p634
g3
tp635
a(g2
g2
g2
g3
g3
tp636
a(S'19.7'
p637
S'19.7'
p638
S'CD'
p639
S'B-NP'
p640
g3
tp641
a(S'+/-'
p642
S'+/-'
p643
S'CC'
p644
S'I-NP'
p645
g3
tp646
a(S'16'
p647
S'16'
p648
S'CD'
p649
S'I-NP'
p650
g3
tp651
a(S'mg'
p652
S'mg'
p653
S'NN'
p654
S'I-NP'
p655
g3
tp656
a(S'vs.'
p657
S'vs.'
p658
S'IN'
p659
S'B-PP'
p660
g3
tp661
a(S'19.8'
p662
S'19.8'
p663
S'CD'
p664
S'B-NP'
p665
g3
tp666
a(S'+/-'
p667
S'+/-'
p668
S'SYM'
p669
S'I-NP'
p670
g3
tp671
a(S'19'
p672
S'19'
p673
S'CD'
p674
S'I-NP'
p675
g3
tp676
a(S'mg'
p677
S'mg'
p678
S'NN'
p679
S'I-NP'
p680
g3
tp681
a(g51
g51
g51
g3
g3
tp682
a(g53
g53
g53
g3
g3
tp683
a(S'We'
p684
S'We'
p685
S'PRP'
p686
S'B-NP'
p687
g3
tp688
a(S'conclude'
p689
S'conclude'
p690
S'VBP'
p691
S'B-VP'
p692
g3
tp693
a(S'that'
p694
S'that'
p695
S'IN'
p696
S'B-SBAR'
p697
g3
tp698
a(S'periarticularly'
p699
S'periarticularly'
p700
S'RB'
p701
S'B-NP'
p702
g3
tp703
a(S'administered'
p704
S'administer'
p705
S'VBN'
p706
S'I-NP'
p707
g3
tp708
a(S'morphine'
p709
S'morphine'
p710
S'NN'
p711
S'I-NP'
p712
g3
tp713
a(S'in'
p714
S'in'
p715
S'IN'
p716
S'B-PP'
p717
g3
tp718
a(S'arthroscopic'
p719
S'arthroscopic'
p720
S'JJ'
p721
S'B-NP'
p722
g3
tp723
a(S'subacromial'
p724
S'subacromial'
p725
S'JJ'
p726
S'I-NP'
p727
g3
tp728
a(S'decompression'
p729
S'decompression'
p730
S'NN'
p731
S'I-NP'
p732
g3
tp733
a(S'in'
p734
S'in'
p735
S'IN'
p736
S'B-PP'
p737
g3
tp738
a(S'the'
p739
S'the'
p740
S'DT'
p741
S'B-NP'
p742
g3
tp743
a(S'dosage'
p744
S'dosage'
p745
S'NN'
p746
S'I-NP'
p747
g3
tp748
a(S'applied'
p749
S'apply'
p750
S'VBN'
p751
S'B-VP'
p752
g3
tp753
a(S'in'
p754
S'in'
p755
S'IN'
p756
S'B-PP'
p757
g3
tp758
a(S'this'
p759
S'this'
p760
S'DT'
p761
S'B-NP'
p762
g3
tp763
a(S'study'
p764
S'study'
p765
S'NN'
p766
S'I-NP'
p767
g3
tp768
a(S'does'
p769
S'do'
p770
S'VBZ'
p771
S'B-VP'
p772
g3
tp773
a(S'exert'
p774
S'exert'
p775
S'VB'
p776
S'I-VP'
p777
g3
tp778
a(S'no'
p779
S'no'
p780
S'DT'
p781
S'B-NP'
p782
g3
tp783
a(S'relevant'
p784
S'relevant'
p785
S'JJ'
p786
S'I-NP'
p787
g3
tp788
a(S'analgesic'
p789
S'analgesic'
p790
S'JJ'
p791
S'I-NP'
p792
g3
tp793
a(S'effect.'
p794
S'effect.'
p795
S'NN'
p796
S'I-NP'
p797
g3
tp798
a(S'This'
p799
S'This'
p800
S'DT'
p801
S'B-NP'
p802
g3
tp803
a(S'is'
p804
S'be'
p805
S'VBZ'
p806
S'B-VP'
p807
g3
tp808
a(S'possibly'
p809
S'possibly'
p810
S'RB'
p811
S'B-ADVP'
p812
g3
tp813
a(S'due'
p814
S'due'
p815
S'JJ'
p816
S'B-ADJP'
p817
g3
tp818
a(S'to'
p819
S'to'
p820
S'TO'
p821
S'B-PP'
p822
g3
tp823
a(S'the'
p824
S'the'
p825
S'DT'
p826
S'B-NP'
p827
g3
tp828
a(S'fact'
p829
S'fact'
p830
S'NN'
p831
S'I-NP'
p832
g3
tp833
a(S'that'
p834
S'that'
p835
S'IN'
p836
S'B-SBAR'
p837
g3
tp838
a(S'either'
p839
S'either'
p840
S'CC'
p841
S'B-NP'
p842
g3
tp843
a(S'subacromial'
p844
S'subacromial'
p845
S'JJ'
p846
S'I-NP'
p847
g3
tp848
a(S'tissue'
p849
S'tissue'
p850
S'NN'
p851
S'I-NP'
p852
g3
tp853
a(g441
g441
g441
g3
g3
tp854
a(S'despite'
p855
S'despite'
p856
S'IN'
p857
S'B-PP'
p858
g3
tp859
a(S'of'
p860
S'of'
p861
S'IN'
p862
S'B-PP'
p863
g3
tp864
a(S'chronic'
p865
S'chronic'
p866
S'JJ'
p867
S'B-NP'
p868
g3
tp869
a(S'inflammation'
p870
S'inflammation'
p871
S'NN'
p872
S'I-NP'
p873
g3
tp874
a(g441
g441
g441
g3
g3
tp875
a(S'does'
p876
S'do'
p877
S'VBZ'
p878
S'B-VP'
p879
g3
tp880
a(S'not'
p881
S'not'
p882
S'RB'
p883
S'I-VP'
p884
g3
tp885
a(S'show'
p886
S'show'
p887
S'VB'
p888
S'I-VP'
p889
g3
tp890
a(S'the'
p891
S'the'
p892
S'DT'
p893
S'B-NP'
p894
g3
tp895
a(S'same'
p896
S'same'
p897
S'JJ'
p898
S'I-NP'
p899
g3
tp900
a(S'reagibility'
p901
S'reagibility'
p902
S'NN'
p903
S'I-NP'
p904
g3
tp905
a(S'as'
p906
S'as'
p907
S'IN'
p908
S'B-PP'
p909
g3
tp910
a(S'synovia'
p911
S'synovia'
p912
S'NN'
p913
S'B-NP'
p914
g3
tp915
a(S'or'
p916
S'or'
p917
S'CC'
p918
g3
g3
tp919
a(S'it'
p920
S'it'
p921
S'PRP'
p922
S'B-NP'
p923
g3
tp924
a(S'is'
p925
S'be'
p926
S'VBZ'
p927
S'B-VP'
p928
g3
tp929
a(S'a'
p930
g930
S'DT'
p931
S'B-NP'
p932
g3
tp933
a(S'problem'
p934
S'problem'
p935
S'NN'
p936
S'I-NP'
p937
g3
tp938
a(S'of'
p939
S'of'
p940
S'IN'
p941
S'B-PP'
p942
g3
tp943
a(S'the'
p944
S'the'
p945
S'DT'
p946
S'B-NP'
p947
g3
tp948
a(S'nearly'
p949
S'nearly'
p950
S'RB'
p951
S'I-NP'
p952
g3
tp953
a(S'complete'
p954
S'complete'
p955
S'JJ'
p956
S'I-NP'
p957
g3
tp958
a(S'resection'
p959
S'resection'
p960
S'NN'
p961
S'I-NP'
p962
g3
tp963
a(S'of'
p964
S'of'
p965
S'IN'
p966
S'B-PP'
p967
g3
tp968
a(S'the'
p969
S'the'
p970
S'DT'
p971
S'B-NP'
p972
g3
tp973
a(S'subacromial'
p974
S'subacromial'
p975
S'JJ'
p976
S'I-NP'
p977
g3
tp978
a(S'bursa'
p979
S'bursa'
p980
S'NN'
p981
S'I-NP'
p982
g3
tp983
a(g53
g53
g53
g3
g3
tp984
a.