(lp0
(S'Cophenylcaine'
p1
S'Cophenylcaine'
p2
S'NN'
p3
S'B-NP'
p4
S'O'
p5
tp6
a(S'spray'
p7
S'spray'
p8
S'NN'
p9
S'I-NP'
p10
g5
tp11
a(S'vs.'
p12
S'vs.'
p13
S'IN'
p14
S'B-PP'
p15
g5
tp16
a(S'placebo'
p17
S'placebo'
p18
S'NN'
p19
S'B-NP'
p20
g5
tp21
a(S'in'
p22
S'in'
p23
S'IN'
p24
S'B-PP'
p25
g5
tp26
a(S'flexible'
p27
S'flexible'
p28
S'JJ'
p29
S'B-NP'
p30
g5
tp31
a(S'nasendoscopy'
p32
S'nasendoscopy'
p33
S'NN'
p34
S'I-NP'
p35
g5
tp36
a(S':'
p37
g37
g37
g5
g5
tp38
a(S'a'
p39
g39
S'DT'
p40
S'B-NP'
p41
g5
tp42
a(S'prospective'
p43
S'prospective'
p44
S'JJ'
p45
S'I-NP'
p46
g5
tp47
a(S'double-blind'
p48
S'double-blind'
p49
S'JJ'
p50
S'I-NP'
p51
g5
tp52
a(S'randomised'
p53
S'randomise'
p54
S'VBN'
p55
S'I-NP'
p56
g5
tp57
a(S'controlled'
p58
S'controlled'
p59
S'JJ'
p60
S'I-NP'
p61
g5
tp62
a(S'trial'
p63
S'trial'
p64
S'NN'
p65
S'I-NP'
p66
g5
tp67
a(S'.'
p68
g68
g68
g5
g5
tp69
a(S'Practices'
p70
S'Practice'
p71
S'NNS'
p72
S'B-NP'
p73
g5
tp74
a(S'vary'
p75
S'vary'
p76
S'VBP'
p77
S'B-VP'
p78
g5
tp79
a(S'across'
p80
S'across'
p81
S'IN'
p82
S'B-PP'
p83
g5
tp84
a(S'the'
p85
S'the'
p86
S'DT'
p87
S'B-NP'
p88
g5
tp89
a(S'UK'
p90
S'UK'
p91
S'NN'
p92
S'I-NP'
p93
S'B-protein'
p94
tp95
a(S'on'
p96
S'on'
p97
S'IN'
p98
S'B-PP'
p99
g5
tp100
a(S'the'
p101
S'the'
p102
S'DT'
p103
S'B-NP'
p104
g5
tp105
a(S'use'
p106
S'use'
p107
S'NN'
p108
S'I-NP'
p109
g5
tp110
a(S'of'
p111
S'of'
p112
S'IN'
p113
S'B-PP'
p114
g5
tp115
a(S'topical'
p116
S'topical'
p117
S'JJ'
p118
S'B-NP'
p119
g5
tp120
a(S'preparation'
p121
S'preparation'
p122
S'NN'
p123
S'I-NP'
p124
g5
tp125
a(S'prior'
p126
S'prior'
p127
S'JJ'
p128
S'B-ADJP'
p129
g5
tp130
a(S'to'
p131
S'to'
p132
S'TO'
p133
S'B-PP'
p134
g5
tp135
a(S'flexible'
p136
S'flexible'
p137
S'JJ'
p138
S'B-NP'
p139
g5
tp140
a(S'fibreoptic'
p141
S'fibreoptic'
p142
S'JJ'
p143
S'I-NP'
p144
g5
tp145
a(S'nasendoscopy.'
p146
S'nasendoscopy.'
p147
S'NN'
p148
S'I-NP'
p149
g5
tp150
a(S'In'
p151
S'In'
p152
S'IN'
p153
S'B-PP'
p154
g5
tp155
a(S'this'
p156
S'this'
p157
S'DT'
p158
S'B-NP'
p159
g5
tp160
a(S'double-blind'
p161
S'double-blind'
p162
S'JJ'
p163
S'I-NP'
p164
g5
tp165
a(S'study'
p166
S'study'
p167
S'NN'
p168
S'I-NP'
p169
g5
tp170
a(S','
p171
g171
g171
g5
g5
tp172
a(S'we'
p173
S'we'
p174
S'PRP'
p175
S'B-NP'
p176
g5
tp177
a(S'randomised'
p178
S'randomise'
p179
S'VBD'
p180
S'B-VP'
p181
g5
tp182
a(S'98'
p183
S'98'
p184
S'CD'
p185
S'B-NP'
p186
g5
tp187
a(S'patients'
p188
S'patient'
p189
S'NNS'
p190
S'I-NP'
p191
g5
tp192
a(S'to'
p193
S'to'
p194
S'TO'
p195
S'B-VP'
p196
g5
tp197
a(S'receive'
p198
S'receive'
p199
S'VB'
p200
S'I-VP'
p201
g5
tp202
a(S'cophenylcaine'
p203
S'cophenylcaine'
p204
S'NN'
p205
S'B-NP'
p206
g5
tp207
a(S'or'
p208
S'or'
p209
S'CC'
p210
S'I-NP'
p211
g5
tp212
a(S'placebo'
p213
S'placebo'
p214
S'NN'
p215
S'I-NP'
p216
g5
tp217
a(S'nasal'
p218
S'nasal'
p219
S'JJ'
p220
S'I-NP'
p221
g5
tp222
a(S'spray'
p223
S'spray'
p224
S'NN'
p225
S'I-NP'
p226
g5
tp227
a(S'before'
p228
S'before'
p229
S'IN'
p230
S'B-PP'
p231
g5
tp232
a(S'flexible'
p233
S'flexible'
p234
S'JJ'
p235
S'B-NP'
p236
g5
tp237
a(S'nasendoscopy.'
p238
S'nasendoscopy.'
p239
S'NN'
p240
S'I-NP'
p241
g5
tp242
a(S'A'
p243
g243
S'NN'
p244
S'I-NP'
p245
g5
tp246
a(S'visual'
p247
S'visual'
p248
S'JJ'
p249
S'I-NP'
p250
g5
tp251
a(S'analogue'
p252
S'analogue'
p253
S'NN'
p254
S'I-NP'
p255
g5
tp256
a(S'scale'
p257
S'scale'
p258
S'NN'
p259
S'I-NP'
p260
g5
tp261
a(S'('
p262
g262
g262
g5
g5
tp263
a(S'1-100'
p264
S'1-100'
p265
S'CD'
p266
S'B-NP'
p267
g5
tp268
a(S')'
p269
g269
g269
g5
g5
tp270
a(S'was'
p271
S'be'
p272
S'VBD'
p273
S'B-VP'
p274
g5
tp275
a(S'used'
p276
S'use'
p277
S'VBN'
p278
S'I-VP'
p279
g5
tp280
a(S'to'
p281
S'to'
p282
S'TO'
p283
S'B-VP'
p284
g5
tp285
a(S'record'
p286
S'record'
p287
S'VB'
p288
S'I-VP'
p289
g5
tp290
a(S'pain'
p291
S'pain'
p292
S'NN'
p293
S'B-NP'
p294
g5
tp295
a(g171
g171
g171
g5
g5
tp296
a(S'unpleasantness'
p297
S'unpleasantness'
p298
S'NN'
p299
S'B-NP'
p300
g5
tp301
a(S'of'
p302
S'of'
p303
S'IN'
p304
S'B-PP'
p305
g5
tp306
a(S'taste'
p307
S'taste'
p308
S'NN'
p309
S'B-NP'
p310
g5
tp311
a(S'and'
p312
S'and'
p313
S'CC'
p314
g5
g5
tp315
a(S'overall'
p316
S'overall'
p317
S'JJ'
p318
S'B-NP'
p319
g5
tp320
a(S'discomfort'
p321
S'discomfort'
p322
S'NN'
p323
S'I-NP'
p324
g5
tp325
a(S'experienced.'
p326
S'experienced.'
p327
S'NN'
p328
S'I-NP'
p329
g5
tp330
a(S'Overall'
p331
S'Overall'
p332
S'NNP'
p333
S'I-NP'
p334
g5
tp335
a(g171
g171
g171
g5
g5
tp336
a(S'the'
p337
S'the'
p338
S'DT'
p339
S'B-NP'
p340
g5
tp341
a(S'procedure'
p342
S'procedure'
p343
S'NN'
p344
S'I-NP'
p345
g5
tp346
a(S'was'
p347
S'be'
p348
S'VBD'
p349
S'B-VP'
p350
g5
tp351
a(S'associated'
p352
S'associate'
p353
S'VBN'
p354
S'I-VP'
p355
g5
tp356
a(S'with'
p357
S'with'
p358
S'IN'
p359
S'B-PP'
p360
g5
tp361
a(S'minimal'
p362
S'minimal'
p363
S'JJ'
p364
S'B-NP'
p365
S'B-protein'
p366
tp367
a(S'pain'
p368
S'pain'
p369
S'NN'
p370
S'I-NP'
p371
S'I-protein'
p372
tp373
a(S'and'
p374
S'and'
p375
S'CC'
p376
S'I-NP'
p377
g5
tp378
a(S'discomfort'
p379
S'discomfort'
p380
S'NN'
p381
S'I-NP'
p382
g5
tp383
a(S'in'
p384
S'in'
p385
S'IN'
p386
S'B-PP'
p387
g5
tp388
a(S'both'
p389
S'both'
p390
S'DT'
p391
S'B-NP'
p392
g5
tp393
a(S'groups.'
p394
S'groups.'
p395
S'NNS'
p396
S'I-NP'
p397
g5
tp398
a(S'There'
p399
S'There'
p400
S'EX'
p401
S'B-NP'
p402
g5
tp403
a(S'was'
p404
S'be'
p405
S'VBD'
p406
S'B-VP'
p407
g5
tp408
a(S'no'
p409
S'no'
p410
S'DT'
p411
S'B-NP'
p412
g5
tp413
a(S'significant'
p414
S'significant'
p415
S'JJ'
p416
S'I-NP'
p417
g5
tp418
a(S'difference'
p419
S'difference'
p420
S'NN'
p421
S'I-NP'
p422
g5
tp423
a(S'in'
p424
S'in'
p425
S'IN'
p426
S'B-PP'
p427
g5
tp428
a(S'pain'
p429
S'pain'
p430
S'NN'
p431
S'B-NP'
p432
g5
tp433
a(S'or'
p434
S'or'
p435
S'CC'
p436
g5
g5
tp437
a(S'overall'
p438
S'overall'
p439
S'JJ'
p440
S'B-NP'
p441
g5
tp442
a(S'discomfort'
p443
S'discomfort'
p444
S'NN'
p445
S'I-NP'
p446
g5
tp447
a(S'experienced'
p448
S'experience'
p449
S'VBD'
p450
S'B-VP'
p451
g5
tp452
a(S'between'
p453
S'between'
p454
S'IN'
p455
S'B-PP'
p456
g5
tp457
a(S'the'
p458
S'the'
p459
S'DT'
p460
S'B-NP'
p461
g5
tp462
a(S'two'
p463
S'two'
p464
S'CD'
p465
S'I-NP'
p466
g5
tp467
a(S'groups'
p468
S'group'
p469
S'NNS'
p470
S'I-NP'
p471
g5
tp472
a(S';'
p473
g473
g37
g5
g5
tp474
a(S'however'
p475
S'however'
p476
S'RB'
p477
S'B-ADVP'
p478
g5
tp479
a(g171
g171
g171
g5
g5
tp480
a(S'the'
p481
S'the'
p482
S'DT'
p483
S'B-NP'
p484
g5
tp485
a(S'sensation'
p486
S'sensation'
p487
S'NN'
p488
S'I-NP'
p489
g5
tp490
a(S'of'
p491
S'of'
p492
S'IN'
p493
S'B-PP'
p494
g5
tp495
a(S'bad'
p496
S'bad'
p497
S'JJ'
p498
S'B-NP'
p499
g5
tp500
a(S'taste'
p501
S'taste'
p502
S'NN'
p503
S'I-NP'
p504
g5
tp505
a(S'was'
p506
S'be'
p507
S'VBD'
p508
S'B-VP'
p509
g5
tp510
a(S'significantly'
p511
S'significantly'
p512
S'RB'
p513
S'B-ADJP'
p514
g5
tp515
a(S'worse'
p516
S'worse'
p517
S'JJR'
p518
S'I-ADJP'
p519
g5
tp520
a(S'in'
p521
S'in'
p522
S'IN'
p523
S'B-PP'
p524
g5
tp525
a(S'the'
p526
S'the'
p527
S'DT'
p528
S'B-NP'
p529
g5
tp530
a(S'cophenylcaine'
p531
S'cophenylcaine'
p532
S'NN'
p533
S'I-NP'
p534
g5
tp535
a(S'group.'
p536
S'group.'
p537
S'NN'
p538
S'I-NP'
p539
g5
tp540
a(S'In'
p541
S'In'
p542
S'IN'
p543
S'B-PP'
p544
g5
tp545
a(S'linear'
p546
S'linear'
p547
S'JJ'
p548
S'B-NP'
p549
g5
tp550
a(S'regression'
p551
S'regression'
p552
S'NN'
p553
S'I-NP'
p554
g5
tp555
a(g171
g171
g171
g5
g5
tp556
a(S'factors'
p557
S'factor'
p558
S'NNS'
p559
S'B-NP'
p560
g5
tp561
a(S'that'
p562
S'that'
p563
S'WDT'
p564
S'B-NP'
p565
g5
tp566
a(S'predicted'
p567
S'predict'
p568
S'VBD'
p569
S'B-VP'
p570
g5
tp571
a(S'the'
p572
S'the'
p573
S'DT'
p574
S'B-NP'
p575
g5
tp576
a(S'overall'
p577
S'overall'
p578
S'JJ'
p579
S'I-NP'
p580
g5
tp581
a(S'unpleasantness'
p582
S'unpleasantness'
p583
S'NN'
p584
S'I-NP'
p585
g5
tp586
a(S'of'
p587
S'of'
p588
S'IN'
p589
S'B-PP'
p590
g5
tp591
a(S'the'
p592
S'the'
p593
S'DT'
p594
S'B-NP'
p595
g5
tp596
a(S'experience'
p597
S'experience'
p598
S'NN'
p599
S'I-NP'
p600
g5
tp601
a(S'were'
p602
S'be'
p603
S'VBD'
p604
S'B-VP'
p605
g5
tp606
a(S'primarily'
p607
S'primarily'
p608
S'RB'
p609
S'I-VP'
p610
g5
tp611
a(S'pain'
p612
S'pain'
p613
S'VB'
p614
S'I-VP'
p615
g5
tp616
a(S'experienced'
p617
S'experienced'
p618
S'JJ'
p619
S'B-NP'
p620
g5
tp621
a(S'and'
p622
S'and'
p623
S'CC'
p624
S'I-NP'
p625
g5
tp626
a(S'secondarily'
p627
S'secondarily'
p628
S'RB'
p629
S'I-NP'
p630
g5
tp631
a(S'unpleasantness'
p632
S'unpleasantness'
p633
S'NN'
p634
S'I-NP'
p635
g5
tp636
a(S'of'
p637
S'of'
p638
S'IN'
p639
S'B-PP'
p640
g5
tp641
a(S'taste.'
p642
S'taste.'
p643
S'NN'
p644
S'B-NP'
p645
g5
tp646
a(S'We'
p647
S'We'
p648
S'PRP'
p649
S'B-NP'
p650
g5
tp651
a(S'conclude'
p652
S'conclude'
p653
S'VBP'
p654
S'B-VP'
p655
g5
tp656
a(S'that'
p657
S'that'
p658
S'IN'
p659
S'B-SBAR'
p660
g5
tp661
a(S'the'
p662
S'the'
p663
S'DT'
p664
S'B-NP'
p665
g5
tp666
a(S'routine'
p667
S'routine'
p668
S'JJ'
p669
S'I-NP'
p670
g5
tp671
a(S'use'
p672
S'use'
p673
S'NN'
p674
S'I-NP'
p675
g5
tp676
a(S'of'
p677
S'of'
p678
S'IN'
p679
S'B-PP'
p680
g5
tp681
a(S'cophenylcaine'
p682
S'cophenylcaine'
p683
S'NN'
p684
S'B-NP'
p685
g5
tp686
a(S'for'
p687
S'for'
p688
S'IN'
p689
S'B-PP'
p690
g5
tp691
a(S'nasal'
p692
S'nasal'
p693
S'JJ'
p694
S'B-NP'
p695
g5
tp696
a(S'preparation'
p697
S'preparation'
p698
S'NN'
p699
S'I-NP'
p700
g5
tp701
a(S'is'
p702
S'be'
p703
S'VBZ'
p704
S'B-VP'
p705
g5
tp706
a(S'not'
p707
S'not'
p708
S'RB'
p709
g5
g5
tp710
a(S'justified'
p711
S'justified'
p712
S'JJ'
p713
S'B-ADJP'
p714
g5
tp715
a(S'before'
p716
S'before'
p717
S'IN'
p718
S'B-PP'
p719
g5
tp720
a(S'flexible'
p721
S'flexible'
p722
S'JJ'
p723
S'B-NP'
p724
g5
tp725
a(S'nasendoscopy'
p726
S'nasendoscopy'
p727
S'NN'
p728
S'I-NP'
p729
g5
tp730
a(g68
g68
g68
g5
g5
tp731
a.