(lp0
(S'Olanzapine'
p1
S'Olanzapine'
p2
S'NN'
p3
S'B-NP'
p4
S'O'
p5
tp6
a(S'versus'
p7
S'versus'
p8
S'CC'
p9
S'I-NP'
p10
g5
tp11
a(S'haloperidol'
p12
S'haloperidol'
p13
S'NN'
p14
S'I-NP'
p15
g5
tp16
a(S'in'
p17
S'in'
p18
S'IN'
p19
S'B-PP'
p20
g5
tp21
a(S'children'
p22
S'child'
p23
S'NNS'
p24
S'B-NP'
p25
g5
tp26
a(S'with'
p27
S'with'
p28
S'IN'
p29
S'B-PP'
p30
g5
tp31
a(S'autistic'
p32
S'autistic'
p33
S'JJ'
p34
S'B-NP'
p35
g5
tp36
a(S'disorder'
p37
S'disorder'
p38
S'NN'
p39
S'I-NP'
p40
g5
tp41
a(S':'
p42
g42
g42
g5
g5
tp43
a(S'an'
p44
S'an'
p45
S'DT'
p46
S'B-NP'
p47
g5
tp48
a(S'open'
p49
S'open'
p50
S'JJ'
p51
S'I-NP'
p52
g5
tp53
a(S'pilot'
p54
S'pilot'
p55
S'NN'
p56
S'I-NP'
p57
g5
tp58
a(S'study'
p59
S'study'
p60
S'NN'
p61
S'I-NP'
p62
g5
tp63
a(S'.'
p64
g64
g64
g5
g5
tp65
a(S'OBJECTIVES'
p66
S'OBJECTIVES'
p67
S'NNS'
p68
S'B-NP'
p69
g5
tp70
a(S'Conventional'
p71
S'Conventional'
p72
S'JJ'
p73
S'I-NP'
p74
g5
tp75
a(S'neuroleptics'
p76
S'neuroleptic'
p77
S'NNS'
p78
S'I-NP'
p79
g5
tp80
a(S'ameliorate'
p81
S'ameliorate'
p82
S'VBP'
p83
S'B-VP'
p84
g5
tp85
a(S'symptoms'
p86
S'symptom'
p87
S'NNS'
p88
S'B-NP'
p89
g5
tp90
a(S'in'
p91
S'in'
p92
S'IN'
p93
S'B-PP'
p94
g5
tp95
a(S'children'
p96
S'child'
p97
S'NNS'
p98
S'B-NP'
p99
g5
tp100
a(S'with'
p101
S'with'
p102
S'IN'
p103
S'B-PP'
p104
g5
tp105
a(S'autistic'
p106
S'autistic'
p107
S'JJ'
p108
S'B-NP'
p109
g5
tp110
a(S'disorder'
p111
S'disorder'
p112
S'NN'
p113
S'I-NP'
p114
g5
tp115
a(S';'
p116
g116
g42
g5
g5
tp117
a(S'however'
p118
S'however'
p119
S'RB'
p120
S'B-ADVP'
p121
g5
tp122
a(S','
p123
g123
g123
g5
g5
tp124
a(S'they'
p125
S'they'
p126
S'PRP'
p127
S'B-NP'
p128
g5
tp129
a(S'are'
p130
S'be'
p131
S'VBP'
p132
S'B-VP'
p133
g5
tp134
a(S'known'
p135
S'know'
p136
S'VBN'
p137
S'I-VP'
p138
g5
tp139
a(S'to'
p140
S'to'
p141
S'TO'
p142
S'I-VP'
p143
g5
tp144
a(S'cause'
p145
S'cause'
p146
S'VB'
p147
S'I-VP'
p148
g5
tp149
a(S'dyskinesias.'
p150
S'dyskinesias.'
p151
S'NN'
p152
S'B-NP'
p153
g5
tp154
a(S'Atypical'
p155
S'Atypical'
p156
S'JJ'
p157
S'I-NP'
p158
g5
tp159
a(S'neuroleptics'
p160
S'neuroleptic'
p161
S'NNS'
p162
S'I-NP'
p163
g5
tp164
a(g123
g123
g123
g5
g5
tp165
a(S'including'
p166
S'include'
p167
S'VBG'
p168
S'B-PP'
p169
g5
tp170
a(S'olanzapine'
p171
S'olanzapine'
p172
S'NN'
p173
S'B-NP'
p174
g5
tp175
a(g123
g123
g123
g5
g5
tp176
a(S'may'
p177
S'may'
p178
S'MD'
p179
S'B-VP'
p180
g5
tp181
a(S'have'
p182
S'have'
p183
S'VB'
p184
S'I-VP'
p185
g5
tp186
a(S'less'
p187
S'less'
p188
S'JJR'
p189
S'B-NP'
p190
g5
tp191
a(S'risk'
p192
S'risk'
p193
S'NN'
p194
S'I-NP'
p195
g5
tp196
a(S'for'
p197
S'for'
p198
S'IN'
p199
S'B-PP'
p200
g5
tp201
a(S'dyskinesia'
p202
S'dyskinesia'
p203
S'NN'
p204
S'B-NP'
p205
g5
tp206
a(g123
g123
g123
g5
g5
tp207
a(S'but'
p208
S'but'
p209
S'CC'
p210
g5
g5
tp211
a(S'their'
p212
S'their'
p213
S'PRP$'
p214
S'B-NP'
p215
g5
tp216
a(S'efficacy'
p217
S'efficacy'
p218
S'NN'
p219
S'I-NP'
p220
g5
tp221
a(S'in'
p222
S'in'
p223
S'IN'
p224
S'B-PP'
p225
g5
tp226
a(S'autistic'
p227
S'autistic'
p228
S'JJ'
p229
S'B-NP'
p230
g5
tp231
a(S'disorder'
p232
S'disorder'
p233
S'NN'
p234
S'I-NP'
p235
g5
tp236
a(S'is'
p237
S'be'
p238
S'VBZ'
p239
S'B-VP'
p240
g5
tp241
a(S'not'
p242
S'not'
p243
S'RB'
p244
S'I-VP'
p245
g5
tp246
a(S'established.'
p247
S'established.'
p248
S'VB'
p249
S'I-VP'
p250
g5
tp251
a(S'This'
p252
S'This'
p253
S'DT'
p254
S'B-NP'
p255
g5
tp256
a(S'study'
p257
S'study'
p258
S'NN'
p259
S'I-NP'
p260
g5
tp261
a(S'was'
p262
S'be'
p263
S'VBD'
p264
S'B-VP'
p265
g5
tp266
a(S'designed'
p267
S'design'
p268
S'VBN'
p269
S'I-VP'
p270
g5
tp271
a(S'to'
p272
S'to'
p273
S'TO'
p274
S'B-VP'
p275
g5
tp276
a(S'investigate'
p277
S'investigate'
p278
S'VB'
p279
S'I-VP'
p280
g5
tp281
a(S'the'
p282
S'the'
p283
S'DT'
p284
S'B-NP'
p285
g5
tp286
a(S'safety'
p287
S'safety'
p288
S'NN'
p289
S'I-NP'
p290
g5
tp291
a(S'and'
p292
S'and'
p293
S'CC'
p294
S'I-NP'
p295
g5
tp296
a(S'effectiveness'
p297
S'effectiveness'
p298
S'NN'
p299
S'I-NP'
p300
g5
tp301
a(S'of'
p302
S'of'
p303
S'IN'
p304
S'B-PP'
p305
g5
tp306
a(S'open-label'
p307
S'open-label'
p308
S'JJ'
p309
S'B-NP'
p310
g5
tp311
a(S'olanzapine'
p312
S'olanzapine'
p313
S'NN'
p314
S'I-NP'
p315
g5
tp316
a(S'as'
p317
S'as'
p318
S'IN'
p319
S'B-PP'
p320
g5
tp321
a(S'a'
p322
g322
S'DT'
p323
S'B-NP'
p324
g5
tp325
a(S'treatment'
p326
S'treatment'
p327
S'NN'
p328
S'I-NP'
p329
g5
tp330
a(S'for'
p331
S'for'
p332
S'IN'
p333
S'B-PP'
p334
g5
tp335
a(S'children'
p336
S'child'
p337
S'NNS'
p338
S'B-NP'
p339
g5
tp340
a(S'with'
p341
S'with'
p342
S'IN'
p343
S'B-PP'
p344
g5
tp345
a(S'autistic'
p346
S'autistic'
p347
S'JJ'
p348
S'B-NP'
p349
g5
tp350
a(S'disorder'
p351
S'disorder'
p352
S'NN'
p353
S'I-NP'
p354
g5
tp355
a(S'by'
p356
S'by'
p357
S'IN'
p358
S'B-PP'
p359
g5
tp360
a(S'using'
p361
S'use'
p362
S'VBG'
p363
S'B-VP'
p364
g5
tp365
a(S'haloperidol'
p366
S'haloperidol'
p367
S'NN'
p368
S'B-NP'
p369
g5
tp370
a(S'as'
p371
S'as'
p372
S'IN'
p373
S'B-PP'
p374
g5
tp375
a(g322
g322
S'DT'
p376
S'B-NP'
p377
g5
tp378
a(S'standard'
p379
S'standard'
p380
S'JJ'
p381
S'I-NP'
p382
g5
tp383
a(S'comparator'
p384
S'comparator'
p385
S'NN'
p386
S'I-NP'
p387
g5
tp388
a(S'treatment'
p389
S'treatment'
p390
S'NN'
p391
S'I-NP'
p392
g5
tp393
a(g64
g64
g64
g5
g5
tp394
a(S'METHOD'
p395
S'METHOD'
p396
S'NN'
p397
S'B-NP'
p398
g5
tp399
a(S'In'
p400
S'In'
p401
S'IN'
p402
S'B-PP'
p403
g5
tp404
a(g322
g322
S'DT'
p405
S'B-NP'
p406
g5
tp407
a(S'parallel'
p408
S'parallel'
p409
S'JJ'
p410
S'I-NP'
p411
g5
tp412
a(S'groups'
p413
S'group'
p414
S'NNS'
p415
S'I-NP'
p416
g5
tp417
a(S'design'
p418
S'design'
p419
S'VBP'
p420
S'B-VP'
p421
g5
tp422
a(g123
g123
g123
g5
g5
tp423
a(S'12'
p424
S'12'
p425
S'CD'
p426
S'B-NP'
p427
g5
tp428
a(S'children'
p429
S'child'
p430
S'NNS'
p431
S'I-NP'
p432
g5
tp433
a(S'with'
p434
S'with'
p435
S'IN'
p436
S'B-PP'
p437
g5
tp438
a(S'DSM-IV'
p439
S'DSM-IV'
p440
S'NN'
p441
S'B-NP'
p442
g5
tp443
a(S'autistic'
p444
S'autistic'
p445
S'JJ'
p446
S'I-NP'
p447
g5
tp448
a(S'disorder'
p449
S'disorder'
p450
S'NN'
p451
S'I-NP'
p452
g5
tp453
a(S'('
p454
g454
g454
g5
g5
tp455
a(S'mean'
p456
S'mean'
p457
S'JJ'
p458
S'B-NP'
p459
g5
tp460
a(S'age'
p461
S'age'
p462
S'NN'
p463
S'I-NP'
p464
g5
tp465
a(S'7.8+/-2.1'
p466
S'7.8+/-2.1'
p467
S'CD'
p468
S'B-NP'
p469
g5
tp470
a(S'years'
p471
S'year'
p472
S'NNS'
p473
S'I-NP'
p474
g5
tp475
a(S')'
p476
g476
g476
g5
g5
tp477
a(S'were'
p478
S'be'
p479
S'VBD'
p480
S'B-VP'
p481
g5
tp482
a(S'randomized'
p483
S'randomize'
p484
S'VBN'
p485
S'I-VP'
p486
g5
tp487
a(S'to'
p488
S'to'
p489
S'TO'
p490
S'B-PP'
p491
g5
tp492
a(S'6'
p493
g493
S'CD'
p494
S'B-NP'
p495
g5
tp496
a(S'weeks'
p497
S'week'
p498
S'NNS'
p499
S'I-NP'
p500
g5
tp501
a(S'of'
p502
S'of'
p503
S'IN'
p504
S'B-PP'
p505
g5
tp506
a(S'open'
p507
S'open'
p508
S'JJ'
p509
S'B-NP'
p510
g5
tp511
a(S'treatment'
p512
S'treatment'
p513
S'NN'
p514
S'I-NP'
p515
g5
tp516
a(S'with'
p517
S'with'
p518
S'IN'
p519
S'B-PP'
p520
g5
tp521
a(S'olanzapine'
p522
S'olanzapine'
p523
S'NN'
p524
S'B-NP'
p525
g5
tp526
a(S'or'
p527
S'or'
p528
S'CC'
p529
S'I-NP'
p530
g5
tp531
a(S'haloperidol.'
p532
S'haloperidol.'
p533
S'NN'
p534
S'I-NP'
p535
g5
tp536
a(S'Mean'
p537
S'Mean'
p538
S'NN'
p539
S'I-NP'
p540
g5
tp541
a(S'final'
p542
S'final'
p543
S'JJ'
p544
S'I-NP'
p545
g5
tp546
a(S'dosages'
p547
S'dosage'
p548
S'NNS'
p549
S'I-NP'
p550
g5
tp551
a(S'were'
p552
S'be'
p553
S'VBD'
p554
S'B-VP'
p555
g5
tp556
a(S'7.9+/-2.5'
p557
S'7.9+/-2.5'
p558
S'CD'
p559
S'B-NP'
p560
g5
tp561
a(S'mg/day'
p562
S'mg/day'
p563
S'NN'
p564
S'I-NP'
p565
g5
tp566
a(S'for'
p567
S'for'
p568
S'IN'
p569
S'B-PP'
p570
g5
tp571
a(S'olanzapine'
p572
S'olanzapine'
p573
S'NN'
p574
S'B-NP'
p575
g5
tp576
a(S'and'
p577
S'and'
p578
S'CC'
p579
g5
g5
tp580
a(S'1.4+/-0.7'
p581
S'1.4+/-0.7'
p582
S'CD'
p583
S'B-NP'
p584
g5
tp585
a(S'mg/day'
p586
S'mg/day'
p587
S'NN'
p588
S'I-NP'
p589
g5
tp590
a(S'for'
p591
S'for'
p592
S'IN'
p593
S'B-PP'
p594
g5
tp595
a(S'haloperidol.'
p596
S'haloperidol.'
p597
S'JJ'
p598
S'B-NP'
p599
g5
tp600
a(S'Outcome'
p601
S'Outcome'
p602
S'NNP'
p603
S'I-NP'
p604
g5
tp605
a(S'measures'
p606
S'measure'
p607
S'NNS'
p608
S'I-NP'
p609
g5
tp610
a(S'included'
p611
S'include'
p612
S'VBD'
p613
S'B-VP'
p614
g5
tp615
a(S'the'
p616
S'the'
p617
S'DT'
p618
S'B-NP'
p619
g5
tp620
a(S'Clinical'
p621
S'Clinical'
p622
S'JJ'
p623
S'I-NP'
p624
g5
tp625
a(S'Global'
p626
S'Global'
p627
S'JJ'
p628
S'I-NP'
p629
g5
tp630
a(S'Impressions'
p631
S'Impression'
p632
S'NNS'
p633
S'I-NP'
p634
g5
tp635
a(g454
g454
g454
g5
g5
tp636
a(S'CGI'
p637
S'CGI'
p638
S'NN'
p639
S'B-NP'
p640
S'B-protein'
p641
tp642
a(g476
g476
g476
g5
g5
tp643
a(S'and'
p644
S'and'
p645
S'CC'
p646
g5
g5
tp647
a(S'the'
p648
S'the'
p649
S'DT'
p650
S'B-NP'
p651
g5
tp652
a(S'Children'
p653
S'Children'
p654
S'NNP'
p655
S'I-NP'
p656
g5
tp657
a(S"'s"
p658
S"'s"
p659
S'POS'
p660
S'B-NP'
p661
g5
tp662
a(S'Psychiatric'
p663
S'Psychiatric'
p664
S'NNP'
p665
S'I-NP'
p666
g5
tp667
a(S'Rating'
p668
S'Rating'
p669
S'NNP'
p670
S'I-NP'
p671
g5
tp672
a(S'Scale'
p673
S'Scale'
p674
S'NNP'
p675
S'I-NP'
p676
g5
tp677
a(g454
g454
g454
g5
g5
tp678
a(S'CPRS'
p679
S'CPRS'
p680
S'NNP'
p681
S'B-NP'
p682
S'B-protein'
p683
tp684
a(g476
g476
g476
g5
g5
tp685
a(g64
g64
g64
g5
g5
tp686
a(S'RESULTS'
p687
S'RESULTS'
p688
S'NNS'
p689
S'B-NP'
p690
g5
tp691
a(S'Both'
p692
S'Both'
p693
S'DT'
p694
S'B-NP'
p695
g5
tp696
a(S'groups'
p697
S'group'
p698
S'NNS'
p699
S'I-NP'
p700
g5
tp701
a(S'had'
p702
S'have'
p703
S'VBD'
p704
S'B-VP'
p705
g5
tp706
a(S'symptom'
p707
S'symptom'
p708
S'NN'
p709
S'B-NP'
p710
g5
tp711
a(S'reduction.'
p712
S'reduction.'
p713
S'NN'
p714
S'I-NP'
p715
g5
tp716
a(S'Five'
p717
S'Five'
p718
S'CD'
p719
S'I-NP'
p720
g5
tp721
a(S'of'
p722
S'of'
p723
S'IN'
p724
S'B-PP'
p725
g5
tp726
a(S'six'
p727
S'six'
p728
S'CD'
p729
S'B-NP'
p730
g5
tp731
a(S'in'
p732
S'in'
p733
S'IN'
p734
S'B-PP'
p735
g5
tp736
a(S'the'
p737
S'the'
p738
S'DT'
p739
S'B-NP'
p740
g5
tp741
a(S'olanzapine'
p742
S'olanzapine'
p743
S'NN'
p744
S'I-NP'
p745
g5
tp746
a(S'group'
p747
S'group'
p748
S'NN'
p749
S'I-NP'
p750
g5
tp751
a(S'and'
p752
S'and'
p753
S'CC'
p754
g5
g5
tp755
a(S'three'
p756
S'three'
p757
S'CD'
p758
S'B-NP'
p759
g5
tp760
a(S'of'
p761
S'of'
p762
S'IN'
p763
S'B-PP'
p764
g5
tp765
a(S'six'
p766
S'six'
p767
S'CD'
p768
S'B-NP'
p769
g5
tp770
a(S'in'
p771
S'in'
p772
S'IN'
p773
S'B-PP'
p774
g5
tp775
a(S'the'
p776
S'the'
p777
S'DT'
p778
S'B-NP'
p779
g5
tp780
a(S'haloperidol'
p781
S'haloperidol'
p782
S'NN'
p783
S'I-NP'
p784
g5
tp785
a(S'group'
p786
S'group'
p787
S'NN'
p788
S'I-NP'
p789
g5
tp790
a(S'were'
p791
S'be'
p792
S'VBD'
p793
S'B-VP'
p794
g5
tp795
a(S'rated'
p796
S'rat'
p797
S'VBN'
p798
S'I-VP'
p799
g5
tp800
a(S'as'
p801
S'as'
p802
S'IN'
p803
S'B-PP'
p804
g5
tp805
a(S'responders'
p806
S'responder'
p807
S'NNS'
p808
S'B-NP'
p809
g5
tp810
a(S'according'
p811
S'accord'
p812
S'VBG'
p813
S'B-PP'
p814
g5
tp815
a(S'to'
p816
S'to'
p817
S'TO'
p818
S'B-PP'
p819
g5
tp820
a(S'the'
p821
S'the'
p822
S'DT'
p823
S'B-NP'
p824
g5
tp825
a(S'CGI'
p826
S'CGI'
p827
S'NN'
p828
S'I-NP'
p829
g5
tp830
a(S'Improvement'
p831
S'Improvement'
p832
S'NN'
p833
S'I-NP'
p834
g5
tp835
a(S'item.'
p836
S'item.'
p837
S'NN'
p838
S'I-NP'
p839
g5
tp840
a(S'Subjects'
p841
S'Subject'
p842
S'NNS'
p843
S'I-NP'
p844
g5
tp845
a(S'showed'
p846
S'show'
p847
S'VBD'
p848
S'B-VP'
p849
g5
tp850
a(S'improvement'
p851
S'improvement'
p852
S'NN'
p853
S'B-NP'
p854
g5
tp855
a(S'on'
p856
S'on'
p857
S'IN'
p858
S'B-PP'
p859
g5
tp860
a(S'the'
p861
S'the'
p862
S'DT'
p863
S'B-NP'
p864
g5
tp865
a(S'CPRS'
p866
S'CPRS'
p867
S'NN'
p868
S'I-NP'
p869
S'B-protein'
p870
tp871
a(S'Autism'
p872
S'Autism'
p873
S'NN'
p874
S'I-NP'
p875
S'I-protein'
p876
tp877
a(S'Factor'
p878
S'Factor'
p879
S'NN'
p880
S'I-NP'
p881
S'I-protein'
p882
tp883
a(g454
g454
g454
g5
g5
tp884
a(S'F1'
p885
S'F1'
p886
S'NN'
p887
S'B-NP'
p888
g5
tp889
a(g123
g123
g123
g5
g5
tp890
a(S'9'
p891
g891
S'CD'
p892
S'B-NP'
p893
g5
tp894
a(S'='
p895
g895
S'SYM'
p896
S'B-VP'
p897
g5
tp898
a(S'24.4'
p899
S'24.4'
p900
S'CD'
p901
S'B-NP'
p902
g5
tp903
a(g123
g123
g123
g5
g5
tp904
a(S'p'
p905
g905
S'NN'
p906
S'B-NP'
p907
g5
tp908
a(g895
g895
S'SYM'
p909
S'B-VP'
p910
g5
tp911
a(S'.0008'
p912
S'.0008'
p913
S'CD'
p914
S'B-NP'
p915
g5
tp916
a(g476
g476
g476
g5
g5
tp917
a(g64
g64
g64
g5
g5
tp918
a(S'Side'
p919
S'Side'
p920
S'NNP'
p921
S'B-NP'
p922
g5
tp923
a(S'effects'
p924
S'effect'
p925
S'NNS'
p926
S'I-NP'
p927
g5
tp928
a(S'included'
p929
S'include'
p930
S'VBD'
p931
S'B-VP'
p932
g5
tp933
a(S'drowsiness'
p934
S'drowsiness'
p935
S'NN'
p936
S'B-NP'
p937
g5
tp938
a(S'and'
p939
S'and'
p940
S'CC'
p941
S'I-NP'
p942
g5
tp943
a(S'weight'
p944
S'weight'
p945
S'NN'
p946
S'I-NP'
p947
g5
tp948
a(S'gain'
p949
S'gain'
p950
S'NN'
p951
S'I-NP'
p952
g5
tp953
a(g64
g64
g64
g5
g5
tp954
a(S'CONCLUSIONS'
p955
S'CONCLUSIONS'
p956
S'NNS'
p957
S'B-NP'
p958
g5
tp959
a(S'The'
p960
S'The'
p961
S'DT'
p962
S'B-NP'
p963
g5
tp964
a(S'findings'
p965
S'finding'
p966
S'NNS'
p967
S'I-NP'
p968
g5
tp969
a(S'suggest'
p970
S'suggest'
p971
S'VBP'
p972
S'B-VP'
p973
g5
tp974
a(S'that'
p975
S'that'
p976
S'IN'
p977
S'B-SBAR'
p978
g5
tp979
a(S'olanzapine'
p980
S'olanzapine'
p981
S'NN'
p982
S'B-NP'
p983
g5
tp984
a(S'is'
p985
S'be'
p986
S'VBZ'
p987
S'B-VP'
p988
g5
tp989
a(g322
g322
S'DT'
p990
S'B-NP'
p991
g5
tp992
a(S'promising'
p993
S'promising'
p994
S'JJ'
p995
S'I-NP'
p996
g5
tp997
a(S'treatment'
p998
S'treatment'
p999
S'NN'
p1000
S'I-NP'
p1001
g5
tp1002
a(S'for'
p1003
S'for'
p1004
S'IN'
p1005
S'B-PP'
p1006
g5
tp1007
a(S'children'
p1008
S'child'
p1009
S'NNS'
p1010
S'B-NP'
p1011
g5
tp1012
a(S'with'
p1013
S'with'
p1014
S'IN'
p1015
S'B-PP'
p1016
g5
tp1017
a(S'autistic'
p1018
S'autistic'
p1019
S'JJ'
p1020
S'B-NP'
p1021
g5
tp1022
a(S'disorder.'
p1023
S'disorder.'
p1024
S'NN'
p1025
S'I-NP'
p1026
g5
tp1027
a(S'Further'
p1028
S'Further'
p1029
S'JJ'
p1030
S'I-NP'
p1031
g5
tp1032
a(S'placebo-controlled'
p1033
S'placebo-controlled'
p1034
S'JJ'
p1035
S'I-NP'
p1036
g5
tp1037
a(S'and'
p1038
S'and'
p1039
S'CC'
p1040
S'I-NP'
p1041
g5
tp1042
a(S'long-term'
p1043
S'long-term'
p1044
S'JJ'
p1045
S'I-NP'
p1046
g5
tp1047
a(S'studies'
p1048
S'study'
p1049
S'NNS'
p1050
S'I-NP'
p1051
g5
tp1052
a(S'of'
p1053
S'of'
p1054
S'IN'
p1055
S'B-PP'
p1056
g5
tp1057
a(S'olanzapine'
p1058
S'olanzapine'
p1059
S'NN'
p1060
S'B-NP'
p1061
g5
tp1062
a(S'in'
p1063
S'in'
p1064
S'IN'
p1065
S'B-PP'
p1066
g5
tp1067
a(S'autistic'
p1068
S'autistic'
p1069
S'JJ'
p1070
S'B-NP'
p1071
g5
tp1072
a(S'disorder'
p1073
S'disorder'
p1074
S'NN'
p1075
S'I-NP'
p1076
g5
tp1077
a(S'are'
p1078
S'be'
p1079
S'VBP'
p1080
S'B-VP'
p1081
g5
tp1082
a(S'required'
p1083
S'require'
p1084
S'VBN'
p1085
S'I-VP'
p1086
g5
tp1087
a(g64
g64
g64
g5
g5
tp1088
a.