(lp0
(S'Laryngeal'
p1
S'Laryngeal'
p2
S'JJ'
p3
S'B-NP'
p4
S'O'
p5
tp6
a(S'preservation'
p7
S'preservation'
p8
S'NN'
p9
S'I-NP'
p10
g5
tp11
a(S'with'
p12
S'with'
p13
S'IN'
p14
S'B-PP'
p15
g5
tp16
a(S'induction'
p17
S'induction'
p18
S'NN'
p19
S'B-NP'
p20
g5
tp21
a(S'chemotherapy'
p22
S'chemotherapy'
p23
S'NN'
p24
S'I-NP'
p25
g5
tp26
a(S'for'
p27
S'for'
p28
S'IN'
p29
S'B-PP'
p30
g5
tp31
a(S'hypopharyngeal'
p32
S'hypopharyngeal'
p33
S'JJ'
p34
S'B-NP'
p35
g5
tp36
a(S'squamous'
p37
S'squamous'
p38
S'JJ'
p39
S'I-NP'
p40
g5
tp41
a(S'cell'
p42
S'cell'
p43
S'NN'
p44
S'I-NP'
p45
g5
tp46
a(S'carcinoma'
p47
S'carcinoma'
p48
S'NN'
p49
S'I-NP'
p50
g5
tp51
a(S':'
p52
g52
g52
g5
g5
tp53
a(S'10-year'
p54
S'10-year'
p55
S'JJ'
p56
S'B-NP'
p57
g5
tp58
a(S'results'
p59
S'result'
p60
S'NNS'
p61
S'I-NP'
p62
g5
tp63
a(S'of'
p64
S'of'
p65
S'IN'
p66
S'B-PP'
p67
g5
tp68
a(S'EORTC'
p69
S'EORTC'
p70
S'NN'
p71
S'B-NP'
p72
g5
tp73
a(S'trial'
p74
S'trial'
p75
S'NN'
p76
S'I-NP'
p77
g5
tp78
a(S'24891'
p79
S'24891'
p80
S'CD'
p81
S'I-NP'
p82
g5
tp83
a(S'.'
p84
g84
g84
g5
g5
tp85
a(S'BACKGROUND'
p86
S'BACKGROUND'
p87
S'NN'
p88
S'B-NP'
p89
g5
tp90
a(S'We'
p91
S'We'
p92
S'PRP'
p93
S'B-NP'
p94
g5
tp95
a(S'report'
p96
S'report'
p97
S'VBP'
p98
S'B-VP'
p99
g5
tp100
a(S'the'
p101
S'the'
p102
S'DT'
p103
S'B-NP'
p104
g5
tp105
a(S'10-year'
p106
S'10-year'
p107
S'JJ'
p108
S'I-NP'
p109
g5
tp110
a(S'results'
p111
S'result'
p112
S'NNS'
p113
S'I-NP'
p114
g5
tp115
a(S'of'
p116
S'of'
p117
S'IN'
p118
S'B-PP'
p119
g5
tp120
a(S'the'
p121
S'the'
p122
S'DT'
p123
S'B-NP'
p124
g5
tp125
a(S'EORTC'
p126
S'EORTC'
p127
S'NN'
p128
S'I-NP'
p129
g5
tp130
a(S'trial'
p131
S'trial'
p132
S'NN'
p133
S'I-NP'
p134
g5
tp135
a(S'24891'
p136
S'24891'
p137
S'CD'
p138
S'I-NP'
p139
g5
tp140
a(S'comparing'
p141
S'compare'
p142
S'VBG'
p143
S'B-VP'
p144
g5
tp145
a(S'a'
p146
g146
S'DT'
p147
S'B-NP'
p148
g5
tp149
a(S'larynx-preservation'
p150
S'larynx-preservation'
p151
S'NN'
p152
S'I-NP'
p153
g5
tp154
a(S'approach'
p155
S'approach'
p156
S'NN'
p157
S'I-NP'
p158
g5
tp159
a(S'to'
p160
S'to'
p161
S'TO'
p162
S'B-PP'
p163
g5
tp164
a(S'immediate'
p165
S'immediate'
p166
S'JJ'
p167
S'B-NP'
p168
g5
tp169
a(S'surgery'
p170
S'surgery'
p171
S'NN'
p172
S'I-NP'
p173
g5
tp174
a(S'in'
p175
S'in'
p176
S'IN'
p177
S'B-PP'
p178
g5
tp179
a(S'hypopharynx'
p180
S'hypopharynx'
p181
S'NN'
p182
S'B-NP'
p183
g5
tp184
a(S'and'
p185
S'and'
p186
S'CC'
p187
g5
g5
tp188
a(S'lateral'
p189
S'lateral'
p190
S'JJ'
p191
S'B-NP'
p192
g5
tp193
a(S'epilarynx'
p194
S'epilarynx'
p195
S'NN'
p196
S'I-NP'
p197
g5
tp198
a(S'squamous'
p199
S'squamous'
p200
S'JJ'
p201
S'I-NP'
p202
g5
tp203
a(S'cell'
p204
S'cell'
p205
S'NN'
p206
S'I-NP'
p207
g5
tp208
a(S'carcinoma'
p209
S'carcinoma'
p210
S'NN'
p211
S'I-NP'
p212
g5
tp213
a(g84
g84
g84
g5
g5
tp214
a(S'MATERIAL'
p215
S'MATERIAL'
p216
S'NN'
p217
S'B-NP'
p218
g5
tp219
a(S'AND'
p220
S'AND'
p221
S'CC'
p222
S'I-NP'
p223
g5
tp224
a(S'METHODS'
p225
S'METHODS'
p226
S'NNS'
p227
S'I-NP'
p228
g5
tp229
a(S'Two'
p230
S'Two'
p231
S'CD'
p232
S'B-NP'
p233
g5
tp234
a(S'hundred'
p235
S'hundred'
p236
S'CD'
p237
S'I-NP'
p238
g5
tp239
a(S'and'
p240
S'and'
p241
S'CC'
p242
g5
g5
tp243
a(S'two'
p244
S'two'
p245
S'CD'
p246
S'B-NP'
p247
g5
tp248
a(S'patients'
p249
S'patient'
p250
S'NNS'
p251
S'I-NP'
p252
g5
tp253
a(S'were'
p254
S'be'
p255
S'VBD'
p256
S'B-VP'
p257
g5
tp258
a(S'randomized'
p259
S'randomize'
p260
S'VBN'
p261
S'I-VP'
p262
g5
tp263
a(S'to'
p264
S'to'
p265
S'TO'
p266
S'B-PP'
p267
g5
tp268
a(S'either'
p269
S'either'
p270
S'CC'
p271
g5
g5
tp272
a(S'the'
p273
S'the'
p274
S'DT'
p275
S'B-NP'
p276
g5
tp277
a(S'surgical'
p278
S'surgical'
p279
S'JJ'
p280
S'I-NP'
p281
g5
tp282
a(S'approach'
p283
S'approach'
p284
S'NN'
p285
S'I-NP'
p286
g5
tp287
a(S'('
p288
g288
g288
g5
g5
tp289
a(S'total'
p290
S'total'
p291
S'JJ'
p292
S'B-NP'
p293
g5
tp294
a(S'laryngectomy'
p295
S'laryngectomy'
p296
S'NN'
p297
S'I-NP'
p298
g5
tp299
a(S'with'
p300
S'with'
p301
S'IN'
p302
S'B-PP'
p303
g5
tp304
a(S'partial'
p305
S'partial'
p306
S'JJ'
p307
S'B-NP'
p308
g5
tp309
a(S'pharyngectomy'
p310
S'pharyngectomy'
p311
S'NN'
p312
S'I-NP'
p313
g5
tp314
a(S'and'
p315
S'and'
p316
S'CC'
p317
S'I-NP'
p318
g5
tp319
a(S'neck'
p320
S'neck'
p321
S'NN'
p322
S'I-NP'
p323
g5
tp324
a(S'dissection'
p325
S'dissection'
p326
S'NN'
p327
S'I-NP'
p328
g5
tp329
a(S','
p330
g330
g330
g5
g5
tp331
a(S'followed'
p332
S'follow'
p333
S'VBN'
p334
S'B-VP'
p335
g5
tp336
a(S'by'
p337
S'by'
p338
S'IN'
p339
S'B-PP'
p340
g5
tp341
a(S'irradiation'
p342
S'irradiation'
p343
S'NN'
p344
S'B-NP'
p345
g5
tp346
a(S')'
p347
g347
g347
g5
g5
tp348
a(S'or'
p349
S'or'
p350
S'CC'
p351
S'B-PP'
p352
g5
tp353
a(S'to'
p354
S'to'
p355
S'TO'
p356
S'B-PP'
p357
g5
tp358
a(S'the'
p359
S'the'
p360
S'DT'
p361
S'B-NP'
p362
g5
tp363
a(S'chemotherapy'
p364
S'chemotherapy'
p365
S'NN'
p366
S'I-NP'
p367
g5
tp368
a(S'arm'
p369
S'arm'
p370
S'NN'
p371
S'I-NP'
p372
g5
tp373
a(S'up'
p374
S'up'
p375
S'IN'
p376
S'B-NP'
p377
g5
tp378
a(S'to'
p379
S'to'
p380
S'TO'
p381
S'I-NP'
p382
g5
tp383
a(S'three'
p384
S'three'
p385
S'CD'
p386
S'I-NP'
p387
g5
tp388
a(S'cycles'
p389
S'cycle'
p390
S'NNS'
p391
S'I-NP'
p392
g5
tp393
a(S'of'
p394
S'of'
p395
S'IN'
p396
S'B-PP'
p397
g5
tp398
a(S'induction'
p399
S'induction'
p400
S'NN'
p401
S'B-NP'
p402
g5
tp403
a(S'chemotherapy'
p404
S'chemotherapy'
p405
S'NN'
p406
S'I-NP'
p407
g5
tp408
a(g288
g288
g288
g5
g5
tp409
a(S'cisplatin'
p410
S'cisplatin'
p411
S'NN'
p412
S'B-NP'
p413
g5
tp414
a(S'100'
p415
S'100'
p416
S'CD'
p417
S'I-NP'
p418
g5
tp419
a(S'mg/m'
p420
S'mg/m'
p421
S'NN'
p422
S'I-NP'
p423
g5
tp424
a(g288
g288
g288
g5
g5
tp425
a(S'2'
p426
g426
S'CD'
p427
S'B-NP'
p428
g5
tp429
a(g347
g347
g347
g5
g5
tp430
a(S'day'
p431
S'day'
p432
S'NN'
p433
S'B-NP'
p434
g5
tp435
a(S'1'
p436
g436
S'CD'
p437
S'I-NP'
p438
g5
tp439
a(S'+'
p440
g440
S'SYM'
p441
S'B-NP'
p442
g5
tp443
a(S'5-FU'
p444
S'5-FU'
p445
S'NN'
p446
S'B-NP'
p447
g5
tp448
a(S'1000'
p449
S'1000'
p450
S'CD'
p451
S'I-NP'
p452
g5
tp453
a(S'mg/m'
p454
S'mg/m'
p455
S'NN'
p456
S'I-NP'
p457
g5
tp458
a(g288
g288
g288
g5
g5
tp459
a(g426
g426
S'CD'
p460
S'B-NP'
p461
g5
tp462
a(g347
g347
g347
g5
g5
tp463
a(S'day'
p464
S'day'
p465
S'NN'
p466
S'B-NP'
p467
g5
tp468
a(S'1-5'
p469
S'1-5'
p470
S'CD'
p471
S'I-NP'
p472
g5
tp473
a(g347
g347
g347
g5
g5
tp474
a(S'followed'
p475
S'follow'
p476
S'VBN'
p477
S'B-VP'
p478
g5
tp479
a(S'for'
p480
S'for'
p481
S'IN'
p482
S'B-PP'
p483
g5
tp484
a(S'complete'
p485
S'complete'
p486
S'JJ'
p487
S'B-NP'
p488
g5
tp489
a(S'responders'
p490
S'responder'
p491
S'NNS'
p492
S'I-NP'
p493
g5
tp494
a(S'by'
p495
S'by'
p496
S'IN'
p497
S'B-PP'
p498
g5
tp499
a(S'irradiation'
p500
S'irradiation'
p501
S'NN'
p502
S'B-NP'
p503
g5
tp504
a(S'and'
p505
S'and'
p506
S'CC'
p507
g5
g5
tp508
a(S'otherwise'
p509
S'otherwise'
p510
S'RB'
p511
S'B-ADVP'
p512
g5
tp513
a(S'by'
p514
S'by'
p515
S'IN'
p516
S'B-PP'
p517
g5
tp518
a(S'conventional'
p519
S'conventional'
p520
S'JJ'
p521
S'B-NP'
p522
g5
tp523
a(S'treatment.'
p524
S'treatment.'
p525
S'NN'
p526
S'I-NP'
p527
g5
tp528
a(S'The'
p529
S'The'
p530
S'DT'
p531
S'B-NP'
p532
g5
tp533
a(S'end'
p534
S'end'
p535
S'NN'
p536
S'I-NP'
p537
g5
tp538
a(S'points'
p539
S'point'
p540
S'NNS'
p541
S'I-NP'
p542
g5
tp543
a(S'were'
p544
S'be'
p545
S'VBD'
p546
S'B-VP'
p547
g5
tp548
a(S'overall'
p549
S'overall'
p550
S'JJ'
p551
S'B-NP'
p552
g5
tp553
a(S'survival'
p554
S'survival'
p555
S'NN'
p556
S'I-NP'
p557
g5
tp558
a(S'['
p559
g559
g288
g5
g5
tp560
a(S'OS'
p561
S'OS'
p562
S'NN'
p563
S'B-NP'
p564
g5
tp565
a(g330
g330
g330
g5
g5
tp566
a(S'noninferiority'
p567
S'noninferiority'
p568
S'NN'
p569
S'B-NP'
p570
g5
tp571
a(g52
g52
g52
g5
g5
tp572
a(S'hazard'
p573
S'hazard'
p574
S'NN'
p575
S'B-NP'
p576
g5
tp577
a(S'ratio'
p578
S'ratio'
p579
S'NN'
p580
S'I-NP'
p581
g5
tp582
a(g288
g288
g288
g5
g5
tp583
a(S'preservation/surgery'
p584
S'preservation/surgery'
p585
S'NN'
p586
S'B-NP'
p587
g5
tp588
a(g347
g347
g347
g5
g5
tp589
a(S'\xe2\x89\xa4'
p590
S'\xe2\x89\xa4'
p591
S'NN'
p592
S'B-NP'
p593
g5
tp594
a(S'1.428'
p595
S'1.428'
p596
S'CD'
p597
S'I-NP'
p598
g5
tp599
a(g330
g330
g330
g5
g5
tp600
a(S'one-sided'
p601
S'one-sided'
p602
S'JJ'
p603
S'B-NP'
p604
g5
tp605
a(S'\xce\xb1'
p606
S'\xce\xb1'
p607
S'NN'
p608
S'I-NP'
p609
g5
tp610
a(S'='
p611
g611
S'SYM'
p612
S'B-VP'
p613
g5
tp614
a(S'0.05'
p615
S'0.05'
p616
S'CD'
p617
S'B-NP'
p618
g5
tp619
a(S']'
p620
g620
g347
g5
g5
tp621
a(g330
g330
g330
g5
g5
tp622
a(S'progression-free'
p623
S'progression-free'
p624
S'JJ'
p625
S'B-NP'
p626
g5
tp627
a(S'survival'
p628
S'survival'
p629
S'NN'
p630
S'I-NP'
p631
g5
tp632
a(g288
g288
g288
g5
g5
tp633
a(S'PFS'
p634
S'PFS'
p635
S'NN'
p636
S'B-NP'
p637
S'B-protein'
p638
tp639
a(g347
g347
g347
g5
g5
tp640
a(S'and'
p641
S'and'
p642
S'CC'
p643
g5
g5
tp644
a(S'survival'
p645
S'survival'
p646
S'NN'
p647
S'B-NP'
p648
g5
tp649
a(S'with'
p650
S'with'
p651
S'IN'
p652
S'B-PP'
p653
g5
tp654
a(g146
g146
S'DT'
p655
S'B-NP'
p656
g5
tp657
a(S'functional'
p658
S'functional'
p659
S'JJ'
p660
S'I-NP'
p661
g5
tp662
a(S'larynx'
p663
S'larynx'
p664
S'NN'
p665
S'I-NP'
p666
g5
tp667
a(g288
g288
g288
g5
g5
tp668
a(S'SFL'
p669
S'SFL'
p670
S'NN'
p671
S'B-NP'
p672
S'B-protein'
p673
tp674
a(g347
g347
g347
g5
g5
tp675
a(g84
g84
g84
g5
g5
tp676
a(S'RESULTS'
p677
S'RESULTS'
p678
S'NNS'
p679
S'B-NP'
p680
g5
tp681
a(S'At'
p682
S'At'
p683
S'IN'
p684
S'B-PP'
p685
g5
tp686
a(g146
g146
S'DT'
p687
S'B-NP'
p688
g5
tp689
a(S'median'
p690
S'median'
p691
S'JJ'
p692
S'I-NP'
p693
g5
tp694
a(S'follow-up'
p695
S'follow-up'
p696
S'NN'
p697
S'I-NP'
p698
g5
tp699
a(S'of'
p700
S'of'
p701
S'IN'
p702
S'B-PP'
p703
g5
tp704
a(S'10.5'
p705
S'10.5'
p706
S'CD'
p707
S'B-NP'
p708
g5
tp709
a(S'years'
p710
S'year'
p711
S'NNS'
p712
S'I-NP'
p713
g5
tp714
a(S'on'
p715
S'on'
p716
S'IN'
p717
S'B-PP'
p718
g5
tp719
a(S'194'
p720
S'194'
p721
S'CD'
p722
S'B-NP'
p723
g5
tp724
a(S'eligible'
p725
S'eligible'
p726
S'JJ'
p727
S'I-NP'
p728
g5
tp729
a(S'patients'
p730
S'patient'
p731
S'NNS'
p732
S'I-NP'
p733
g5
tp734
a(g330
g330
g330
g5
g5
tp735
a(S'disease'
p736
S'disease'
p737
S'NN'
p738
S'B-NP'
p739
g5
tp740
a(S'evolution'
p741
S'evolution'
p742
S'NN'
p743
S'I-NP'
p744
g5
tp745
a(S'was'
p746
S'be'
p747
S'VBD'
p748
S'B-VP'
p749
g5
tp750
a(S'seen'
p751
S'see'
p752
S'VBN'
p753
S'I-VP'
p754
g5
tp755
a(S'in'
p756
S'in'
p757
S'IN'
p758
S'B-PP'
p759
g5
tp760
a(S'54'
p761
S'54'
p762
S'CD'
p763
S'B-NP'
p764
g5
tp765
a(S'and'
p766
S'and'
p767
S'CC'
p768
S'I-NP'
p769
g5
tp770
a(S'49'
p771
S'49'
p772
S'CD'
p773
S'I-NP'
p774
g5
tp775
a(S'patients'
p776
S'patient'
p777
S'NNS'
p778
S'I-NP'
p779
g5
tp780
a(S'in'
p781
S'in'
p782
S'IN'
p783
S'B-PP'
p784
g5
tp785
a(S'the'
p786
S'the'
p787
S'DT'
p788
S'B-NP'
p789
g5
tp790
a(S'surgery'
p791
S'surgery'
p792
S'NN'
p793
S'I-NP'
p794
g5
tp795
a(S'and'
p796
S'and'
p797
S'CC'
p798
S'I-NP'
p799
g5
tp800
a(S'chemotherapy'
p801
S'chemotherapy'
p802
S'NN'
p803
S'I-NP'
p804
g5
tp805
a(S'arm'
p806
S'arm'
p807
S'NN'
p808
S'I-NP'
p809
g5
tp810
a(g330
g330
g330
g5
g5
tp811
a(S'respectively'
p812
S'respectively'
p813
S'RB'
p814
S'B-ADVP'
p815
g5
tp816
a(g330
g330
g330
g5
g5
tp817
a(S'and'
p818
S'and'
p819
S'CC'
p820
g5
g5
tp821
a(S'81'
p822
S'81'
p823
S'CD'
p824
S'B-NP'
p825
g5
tp826
a(S'and'
p827
S'and'
p828
S'CC'
p829
S'I-NP'
p830
g5
tp831
a(S'83'
p832
S'83'
p833
S'CD'
p834
S'I-NP'
p835
g5
tp836
a(S'patients'
p837
S'patient'
p838
S'NNS'
p839
S'I-NP'
p840
g5
tp841
a(S'had'
p842
S'have'
p843
S'VBD'
p844
S'B-VP'
p845
g5
tp846
a(S'died.'
p847
S'died.'
p848
S'VBN'
p849
S'I-VP'
p850
g5
tp851
a(S'The'
p852
S'The'
p853
S'DT'
p854
S'B-NP'
p855
g5
tp856
a(S'10-year'
p857
S'10-year'
p858
S'JJ'
p859
S'I-NP'
p860
g5
tp861
a(S'OS'
p862
S'OS'
p863
S'NN'
p864
S'I-NP'
p865
g5
tp866
a(S'rate'
p867
S'rate'
p868
S'NN'
p869
S'I-NP'
p870
g5
tp871
a(S'was'
p872
S'be'
p873
S'VBD'
p874
S'B-VP'
p875
g5
tp876
a(S'13.8'
p877
S'13.8'
p878
S'CD'
p879
S'B-NP'
p880
g5
tp881
a(S'%'
p882
g882
S'NN'
p883
S'I-NP'
p884
g5
tp885
a(S'in'
p886
S'in'
p887
S'IN'
p888
S'B-PP'
p889
g5
tp890
a(S'the'
p891
S'the'
p892
S'DT'
p893
S'B-NP'
p894
g5
tp895
a(S'surgery'
p896
S'surgery'
p897
S'NN'
p898
S'I-NP'
p899
g5
tp900
a(S'arm'
p901
S'arm'
p902
S'NN'
p903
S'I-NP'
p904
g5
tp905
a(S'and'
p906
S'and'
p907
S'CC'
p908
g5
g5
tp909
a(S'13.1'
p910
S'13.1'
p911
S'CD'
p912
S'B-NP'
p913
g5
tp914
a(g882
g882
S'NN'
p915
S'I-NP'
p916
g5
tp917
a(S'in'
p918
S'in'
p919
S'IN'
p920
S'B-PP'
p921
g5
tp922
a(S'the'
p923
S'the'
p924
S'DT'
p925
S'B-NP'
p926
g5
tp927
a(S'chemotherapy'
p928
S'chemotherapy'
p929
S'NN'
p930
S'I-NP'
p931
g5
tp932
a(S'arm.'
p933
S'arm.'
p934
S'NN'
p935
S'I-NP'
p936
g5
tp937
a(S'The'
p938
S'The'
p939
S'DT'
p940
S'B-NP'
p941
g5
tp942
a(S'10-year'
p943
S'10-year'
p944
S'JJ'
p945
S'I-NP'
p946
g5
tp947
a(S'PFS'
p948
S'PFS'
p949
S'NN'
p950
S'I-NP'
p951
g5
tp952
a(S'rates'
p953
S'rate'
p954
S'NNS'
p955
S'I-NP'
p956
g5
tp957
a(S'were'
p958
S'be'
p959
S'VBD'
p960
S'B-VP'
p961
g5
tp962
a(S'8.5'
p963
S'8.5'
p964
S'CD'
p965
S'B-NP'
p966
g5
tp967
a(g882
g882
S'NN'
p968
S'I-NP'
p969
g5
tp970
a(S'and'
p971
S'and'
p972
S'CC'
p973
g5
g5
tp974
a(S'10.8'
p975
S'10.8'
p976
S'CD'
p977
S'B-NP'
p978
g5
tp979
a(g882
g882
S'NN'
p980
S'I-NP'
p981
g5
tp982
a(g330
g330
g330
g5
g5
tp983
a(S'respectively.'
p984
S'respectively.'
p985
S'NN'
p986
S'B-NP'
p987
g5
tp988
a(S'In'
p989
S'In'
p990
S'IN'
p991
S'B-PP'
p992
g5
tp993
a(S'the'
p994
S'the'
p995
S'DT'
p996
S'B-NP'
p997
g5
tp998
a(S'chemotherapy'
p999
S'chemotherapy'
p1000
S'NN'
p1001
S'I-NP'
p1002
g5
tp1003
a(S'arm'
p1004
S'arm'
p1005
S'NN'
p1006
S'I-NP'
p1007
g5
tp1008
a(g330
g330
g330
g5
g5
tp1009
a(S'the'
p1010
S'the'
p1011
S'DT'
p1012
S'B-NP'
p1013
g5
tp1014
a(S'10-year'
p1015
S'10-year'
p1016
S'JJ'
p1017
S'I-NP'
p1018
g5
tp1019
a(S'SFL'
p1020
S'SFL'
p1021
S'NNP'
p1022
S'I-NP'
p1023
g5
tp1024
a(S'rate'
p1025
S'rate'
p1026
S'NN'
p1027
S'I-NP'
p1028
g5
tp1029
a(S'was'
p1030
S'be'
p1031
S'VBD'
p1032
S'B-VP'
p1033
g5
tp1034
a(S'8.7'
p1035
S'8.7'
p1036
S'CD'
p1037
S'B-NP'
p1038
g5
tp1039
a(g882
g882
S'NN'
p1040
S'I-NP'
p1041
g5
tp1042
a(g84
g84
g84
g5
g5
tp1043
a(S'CONCLUSION'
p1044
S'CONCLUSION'
p1045
S'NN'
p1046
S'B-NP'
p1047
g5
tp1048
a(S'This'
p1049
S'This'
p1050
S'DT'
p1051
S'B-NP'
p1052
g5
tp1053
a(S'strategy'
p1054
S'strategy'
p1055
S'NN'
p1056
S'I-NP'
p1057
g5
tp1058
a(S'did'
p1059
S'do'
p1060
S'VBD'
p1061
S'B-VP'
p1062
g5
tp1063
a(S'not'
p1064
S'not'
p1065
S'RB'
p1066
S'I-VP'
p1067
g5
tp1068
a(S'compromise'
p1069
S'compromise'
p1070
S'VB'
p1071
S'I-VP'
p1072
g5
tp1073
a(S'disease'
p1074
S'disease'
p1075
S'NN'
p1076
S'B-NP'
p1077
g5
tp1078
a(S'control'
p1079
S'control'
p1080
S'NN'
p1081
S'I-NP'
p1082
g5
tp1083
a(S'or'
p1084
S'or'
p1085
S'CC'
p1086
g5
g5
tp1087
a(S'survival'
p1088
S'survival'
p1089
S'NN'
p1090
S'B-NP'
p1091
g5
tp1092
a(g288
g288
g288
g5
g5
tp1093
a(S'that'
p1094
S'that'
p1095
S'WDT'
p1096
S'B-NP'
p1097
g5
tp1098
a(S'remained'
p1099
S'remain'
p1100
S'VBD'
p1101
S'B-VP'
p1102
g5
tp1103
a(S'poor'
p1104
S'poor'
p1105
S'JJ'
p1106
S'B-ADJP'
p1107
g5
tp1108
a(g347
g347
g347
g5
g5
tp1109
a(S'and'
p1110
S'and'
p1111
S'CC'
p1112
g5
g5
tp1113
a(S'allowed'
p1114
S'allow'
p1115
S'VBD'
p1116
S'B-VP'
p1117
g5
tp1118
a(S'more'
p1119
S'more'
p1120
S'JJR'
p1121
S'B-NP'
p1122
g5
tp1123
a(S'than'
p1124
S'than'
p1125
S'IN'
p1126
S'I-NP'
p1127
g5
tp1128
a(S'half'
p1129
S'half'
p1130
S'NN'
p1131
S'I-NP'
p1132
g5
tp1133
a(S'of'
p1134
S'of'
p1135
S'IN'
p1136
S'B-PP'
p1137
g5
tp1138
a(S'the'
p1139
S'the'
p1140
S'DT'
p1141
S'B-NP'
p1142
g5
tp1143
a(S'survivors'
p1144
S'survivor'
p1145
S'NNS'
p1146
S'I-NP'
p1147
g5
tp1148
a(S'to'
p1149
S'to'
p1150
S'TO'
p1151
S'B-VP'
p1152
g5
tp1153
a(S'retain'
p1154
S'retain'
p1155
S'VB'
p1156
S'I-VP'
p1157
g5
tp1158
a(S'their'
p1159
S'their'
p1160
S'PRP$'
p1161
S'B-NP'
p1162
g5
tp1163
a(S'larynx'
p1164
S'larynx'
p1165
S'NN'
p1166
S'I-NP'
p1167
g5
tp1168
a(g84
g84
g84
g5
g5
tp1169
a.