(lp0
(S'There'
p1
S'There'
p2
S'EX'
p3
S'B-NP'
p4
S'O'
p5
tp6
a(S'are'
p7
S'be'
p8
S'VBP'
p9
S'B-VP'
p10
g5
tp11
a(S'some'
p12
S'some'
p13
S'DT'
p14
S'B-NP'
p15
g5
tp16
a(S'benefits'
p17
S'benefit'
p18
S'NNS'
p19
S'I-NP'
p20
g5
tp21
a(S'for'
p22
S'for'
p23
S'IN'
p24
S'B-PP'
p25
g5
tp26
a(S'eradicating'
p27
S'eradicate'
p28
S'VBG'
p29
S'B-VP'
p30
g5
tp31
a(S'Helicobacter'
p32
S'Helicobacter'
p33
S'NN'
p34
S'B-NP'
p35
g5
tp36
a(S'pylori'
p37
S'pylori'
p38
S'NN'
p39
S'I-NP'
p40
g5
tp41
a(S'in'
p42
S'in'
p43
S'IN'
p44
S'B-PP'
p45
g5
tp46
a(S'patients'
p47
S'patient'
p48
S'NNS'
p49
S'B-NP'
p50
g5
tp51
a(S'with'
p52
S'with'
p53
S'IN'
p54
S'B-PP'
p55
g5
tp56
a(S'non-ulcer'
p57
S'non-ulcer'
p58
S'JJ'
p59
S'B-NP'
p60
g5
tp61
a(S'dyspepsia'
p62
S'dyspepsia'
p63
S'NN'
p64
S'I-NP'
p65
g5
tp66
a(S'.'
p67
g67
g67
g5
g5
tp68
a(S'BACKGROUND'
p69
S'BACKGROUND'
p70
S'NN'
p71
S'B-NP'
p72
g5
tp73
a(S'The'
p74
S'The'
p75
S'DT'
p76
S'B-NP'
p77
g5
tp78
a(S'relationship'
p79
S'relationship'
p80
S'NN'
p81
S'I-NP'
p82
g5
tp83
a(S'between'
p84
S'between'
p85
S'IN'
p86
S'B-PP'
p87
g5
tp88
a(S'Helicobacter'
p89
S'Helicobacter'
p90
S'NN'
p91
S'B-NP'
p92
g5
tp93
a(S'pylori'
p94
S'pylori'
p95
S'NN'
p96
S'I-NP'
p97
g5
tp98
a(S'infection'
p99
S'infection'
p100
S'NN'
p101
S'I-NP'
p102
g5
tp103
a(S'and'
p104
S'and'
p105
S'CC'
p106
g5
g5
tp107
a(S'non-ulcer'
p108
S'non-ulcer'
p109
S'JJ'
p110
S'B-NP'
p111
g5
tp112
a(S'dyspepsia'
p113
S'dyspepsia'
p114
S'NN'
p115
S'I-NP'
p116
g5
tp117
a(S'is'
p118
S'be'
p119
S'VBZ'
p120
S'B-VP'
p121
g5
tp122
a(S'not'
p123
S'not'
p124
S'RB'
p125
S'I-VP'
p126
g5
tp127
a(S'established'
p128
S'establish'
p129
S'VBN'
p130
S'I-VP'
p131
g5
tp132
a(g67
g67
g67
g5
g5
tp133
a(S'AIM'
p134
S'AIM'
p135
S'NN'
p136
S'B-NP'
p137
g5
tp138
a(S'To'
p139
S'To'
p140
S'TO'
p141
S'B-VP'
p142
g5
tp143
a(S'determine'
p144
S'determine'
p145
S'VB'
p146
S'I-VP'
p147
g5
tp148
a(S'whether'
p149
S'whether'
p150
S'IN'
p151
S'B-SBAR'
p152
g5
tp153
a(S'eradication'
p154
S'eradication'
p155
S'NN'
p156
S'B-NP'
p157
g5
tp158
a(S'of'
p159
S'of'
p160
S'IN'
p161
S'B-PP'
p162
g5
tp163
a(S'H.'
p164
S'H.'
p165
S'NN'
p166
S'B-NP'
p167
g5
tp168
a(S'pylori'
p169
S'pylori'
p170
S'NN'
p171
S'I-NP'
p172
g5
tp173
a(S'might'
p174
S'might'
p175
S'MD'
p176
S'B-VP'
p177
g5
tp178
a(S'be'
p179
S'be'
p180
S'VB'
p181
S'I-VP'
p182
g5
tp183
a(S'of'
p184
S'of'
p185
S'IN'
p186
S'B-PP'
p187
g5
tp188
a(S'benefit'
p189
S'benefit'
p190
S'NN'
p191
S'B-NP'
p192
g5
tp193
a(S'in'
p194
S'in'
p195
S'IN'
p196
S'B-PP'
p197
g5
tp198
a(S'non-ulcer'
p199
S'non-ulcer'
p200
S'JJ'
p201
S'B-NP'
p202
g5
tp203
a(S'dyspepsia'
p204
S'dyspepsia'
p205
S'NN'
p206
S'I-NP'
p207
g5
tp208
a(S'patients'
p209
S'patient'
p210
S'NNS'
p211
S'I-NP'
p212
g5
tp213
a(g67
g67
g67
g5
g5
tp214
a(S'METHODS'
p215
S'METHODS'
p216
S'NNS'
p217
S'B-NP'
p218
g5
tp219
a(S'We'
p220
S'We'
p221
S'PRP'
p222
S'B-NP'
p223
g5
tp224
a(S'randomly'
p225
S'randomly'
p226
S'RB'
p227
S'B-ADVP'
p228
g5
tp229
a(S'assigned'
p230
S'assign'
p231
S'VBD'
p232
S'B-VP'
p233
g5
tp234
a(S'129'
p235
S'129'
p236
S'CD'
p237
S'B-NP'
p238
g5
tp239
a(S'H.'
p240
S'H.'
p241
S'NN'
p242
S'I-NP'
p243
g5
tp244
a(S'pylori'
p245
S'pylori'
p246
S'NN'
p247
S'I-NP'
p248
g5
tp249
a(S'infected'
p250
S'infected'
p251
S'JJ'
p252
S'B-NP'
p253
g5
tp254
a(S'patients'
p255
S'patient'
p256
S'NNS'
p257
S'I-NP'
p258
g5
tp259
a(S'with'
p260
S'with'
p261
S'IN'
p262
S'B-PP'
p263
g5
tp264
a(S'severe'
p265
S'severe'
p266
S'JJ'
p267
S'B-NP'
p268
g5
tp269
a(S'epigastric'
p270
S'epigastric'
p271
S'JJ'
p272
S'I-NP'
p273
g5
tp274
a(S'pain'
p275
S'pain'
p276
S'NN'
p277
S'I-NP'
p278
g5
tp279
a(S','
p280
g280
g280
g5
g5
tp281
a(S'without'
p282
S'without'
p283
S'IN'
p284
S'B-PP'
p285
g5
tp286
a(S'gastro-oesophageal'
p287
S'gastro-oesophageal'
p288
S'JJ'
p289
S'B-NP'
p290
g5
tp291
a(S'reflux'
p292
S'reflux'
p293
S'NN'
p294
S'I-NP'
p295
g5
tp296
a(S'symptoms'
p297
S'symptom'
p298
S'NNS'
p299
S'I-NP'
p300
g5
tp301
a(g280
g280
g280
g5
g5
tp302
a(S'to'
p303
S'to'
p304
S'TO'
p305
S'B-VP'
p306
g5
tp307
a(S'receive'
p308
S'receive'
p309
S'VB'
p310
S'I-VP'
p311
g5
tp312
a(S'twice'
p313
S'twice'
p314
S'RB'
p315
S'B-NP'
p316
g5
tp317
a(S'daily'
p318
S'daily'
p319
S'JJ'
p320
S'I-NP'
p321
g5
tp322
a(S'treatment'
p323
S'treatment'
p324
S'NN'
p325
S'I-NP'
p326
g5
tp327
a(S'with'
p328
S'with'
p329
S'IN'
p330
S'B-PP'
p331
g5
tp332
a(S'300'
p333
S'300'
p334
S'CD'
p335
S'B-NP'
p336
g5
tp337
a(S'mg'
p338
S'mg'
p339
S'NN'
p340
S'I-NP'
p341
g5
tp342
a(S'of'
p343
S'of'
p344
S'IN'
p345
S'B-PP'
p346
g5
tp347
a(S'ranitidine'
p348
S'ranitidine'
p349
S'NN'
p350
S'B-NP'
p351
g5
tp352
a(g280
g280
g280
g5
g5
tp353
a(S'1000'
p354
S'1000'
p355
S'CD'
p356
S'B-NP'
p357
g5
tp358
a(S'mg'
p359
S'mg'
p360
S'NN'
p361
S'I-NP'
p362
g5
tp363
a(S'of'
p364
S'of'
p365
S'IN'
p366
S'B-PP'
p367
g5
tp368
a(S'amoxicillin'
p369
S'amoxicillin'
p370
S'NN'
p371
S'B-NP'
p372
S'B-protein'
p373
tp374
a(g280
g280
g280
g5
g5
tp375
a(S'and'
p376
S'and'
p377
S'CC'
p378
g5
g5
tp379
a(S'500'
p380
S'500'
p381
S'CD'
p382
S'B-NP'
p383
g5
tp384
a(S'mg'
p385
S'mg'
p386
S'NN'
p387
S'I-NP'
p388
g5
tp389
a(S'of'
p390
S'of'
p391
S'IN'
p392
S'B-PP'
p393
g5
tp394
a(S'clarithromycin'
p395
S'clarithromycin'
p396
S'NN'
p397
S'B-NP'
p398
g5
tp399
a(S'for'
p400
S'for'
p401
S'IN'
p402
S'B-PP'
p403
g5
tp404
a(S'7'
p405
g405
S'CD'
p406
S'B-NP'
p407
g5
tp408
a(S'days'
p409
S'day'
p410
S'NNS'
p411
S'I-NP'
p412
g5
tp413
a(S'and'
p414
S'and'
p415
S'CC'
p416
g5
g5
tp417
a(S'124'
p418
S'124'
p419
S'CD'
p420
S'B-NP'
p421
g5
tp422
a(S'such'
p423
S'such'
p424
S'JJ'
p425
S'I-NP'
p426
g5
tp427
a(S'patients'
p428
S'patient'
p429
S'NNS'
p430
S'I-NP'
p431
g5
tp432
a(S'to'
p433
S'to'
p434
S'TO'
p435
S'B-VP'
p436
g5
tp437
a(S'receive'
p438
S'receive'
p439
S'VB'
p440
S'I-VP'
p441
g5
tp442
a(S'identical-appearing'
p443
S'identical-appearing'
p444
S'JJ'
p445
S'B-NP'
p446
g5
tp447
a(S'placebos'
p448
S'placebo'
p449
S'NNS'
p450
S'I-NP'
p451
g5
tp452
a(g67
g67
g67
g5
g5
tp453
a(S'RESULTS'
p454
S'RESULTS'
p455
S'NNS'
p456
S'B-NP'
p457
g5
tp458
a(S'Treatment'
p459
S'Treatment'
p460
S'NN'
p461
S'I-NP'
p462
g5
tp463
a(S'was'
p464
S'be'
p465
S'VBD'
p466
S'B-VP'
p467
g5
tp468
a(S'successful'
p469
S'successful'
p470
S'JJ'
p471
S'B-ADJP'
p472
g5
tp473
a(S'('
p474
g474
g474
g5
g5
tp475
a(S'decrease'
p476
S'decrease'
p477
S'NN'
p478
S'B-NP'
p479
g5
tp480
a(S'of'
p481
S'of'
p482
S'IN'
p483
S'B-PP'
p484
g5
tp485
a(S'symptoms'
p486
S'symptom'
p487
S'NNS'
p488
S'B-NP'
p489
g5
tp490
a(S'at'
p491
S'at'
p492
S'IN'
p493
S'B-PP'
p494
g5
tp495
a(S'12'
p496
S'12'
p497
S'CD'
p498
S'B-NP'
p499
g5
tp500
a(S'months'
p501
S'month'
p502
S'NNS'
p503
S'I-NP'
p504
g5
tp505
a(S')'
p506
g506
g506
g5
g5
tp507
a(S'in'
p508
S'in'
p509
S'IN'
p510
S'B-PP'
p511
g5
tp512
a(S'62'
p513
S'62'
p514
S'CD'
p515
S'B-NP'
p516
g5
tp517
a(S'%'
p518
g518
S'NN'
p519
S'I-NP'
p520
g5
tp521
a(S'of'
p522
S'of'
p523
S'IN'
p524
S'B-PP'
p525
g5
tp526
a(S'patients'
p527
S'patient'
p528
S'NNS'
p529
S'B-NP'
p530
g5
tp531
a(S'in'
p532
S'in'
p533
S'IN'
p534
S'B-PP'
p535
g5
tp536
a(S'the'
p537
S'the'
p538
S'DT'
p539
S'B-NP'
p540
g5
tp541
a(S'active-treatment'
p542
S'active-treatment'
p543
S'NN'
p544
S'I-NP'
p545
g5
tp546
a(S'group'
p547
S'group'
p548
S'NN'
p549
S'I-NP'
p550
g5
tp551
a(S'and'
p552
S'and'
p553
S'CC'
p554
S'B-PP'
p555
g5
tp556
a(S'in'
p557
S'in'
p558
S'IN'
p559
S'B-PP'
p560
g5
tp561
a(S'60'
p562
S'60'
p563
S'CD'
p564
S'B-NP'
p565
g5
tp566
a(g518
g518
S'NN'
p567
S'I-NP'
p568
g5
tp569
a(S'of'
p570
S'of'
p571
S'IN'
p572
S'B-PP'
p573
g5
tp574
a(S'the'
p575
S'the'
p576
S'DT'
p577
S'B-NP'
p578
g5
tp579
a(S'placebo'
p580
S'placebo'
p581
S'NN'
p582
S'I-NP'
p583
g5
tp584
a(S'group'
p585
S'group'
p586
S'NN'
p587
S'I-NP'
p588
g5
tp589
a(g474
g474
g474
g5
g5
tp590
a(S'N.S.'
p591
S'N.S.'
p592
S'NN'
p593
S'B-NP'
p594
g5
tp595
a(g506
g506
g506
g5
g5
tp596
a(g67
g67
g67
g5
g5
tp597
a(S'At'
p598
S'At'
p599
S'IN'
p600
S'B-PP'
p601
g5
tp602
a(S'12'
p603
S'12'
p604
S'CD'
p605
S'B-NP'
p606
g5
tp607
a(S'months'
p608
S'month'
p609
S'NNS'
p610
S'I-NP'
p611
g5
tp612
a(g280
g280
g280
g5
g5
tp613
a(S'the'
p614
S'the'
p615
S'DT'
p616
S'B-NP'
p617
g5
tp618
a(S'rate'
p619
S'rate'
p620
S'NN'
p621
S'I-NP'
p622
g5
tp623
a(S'of'
p624
S'of'
p625
S'IN'
p626
S'B-PP'
p627
g5
tp628
a(S'eradication'
p629
S'eradication'
p630
S'NN'
p631
S'B-NP'
p632
g5
tp633
a(S'of'
p634
S'of'
p635
S'IN'
p636
S'B-PP'
p637
g5
tp638
a(S'H.'
p639
S'H.'
p640
S'NN'
p641
S'B-NP'
p642
g5
tp643
a(S'pylori'
p644
S'pylori'
p645
S'NN'
p646
S'I-NP'
p647
g5
tp648
a(S'was'
p649
S'be'
p650
S'VBD'
p651
S'B-VP'
p652
g5
tp653
a(S'69'
p654
S'69'
p655
S'CD'
p656
S'B-NP'
p657
g5
tp658
a(g518
g518
S'NN'
p659
S'I-NP'
p660
g5
tp661
a(S'in'
p662
S'in'
p663
S'IN'
p664
S'B-PP'
p665
g5
tp666
a(S'the'
p667
S'the'
p668
S'DT'
p669
S'B-NP'
p670
g5
tp671
a(S'active-treatment'
p672
S'active-treatment'
p673
S'NN'
p674
S'I-NP'
p675
g5
tp676
a(S'group'
p677
S'group'
p678
S'NN'
p679
S'I-NP'
p680
g5
tp681
a(S'and'
p682
S'and'
p683
S'CC'
p684
g5
g5
tp685
a(S'18'
p686
S'18'
p687
S'CD'
p688
S'B-NP'
p689
g5
tp690
a(g518
g518
S'NN'
p691
S'I-NP'
p692
g5
tp693
a(S'in'
p694
S'in'
p695
S'IN'
p696
S'B-PP'
p697
g5
tp698
a(S'the'
p699
S'the'
p700
S'DT'
p701
S'B-NP'
p702
g5
tp703
a(S'placebo'
p704
S'placebo'
p705
S'NN'
p706
S'I-NP'
p707
g5
tp708
a(S'group'
p709
S'group'
p710
S'NN'
p711
S'I-NP'
p712
g5
tp713
a(g474
g474
g474
g5
g5
tp714
a(S'P'
p715
g715
S'NN'
p716
S'B-NP'
p717
g5
tp718
a(S'<'
p719
g719
S'SYM'
p720
g5
g5
tp721
a(S'0.001'
p722
S'0.001'
p723
S'CD'
p724
S'B-NP'
p725
g5
tp726
a(g506
g506
g506
g5
g5
tp727
a(g67
g67
g67
g5
g5
tp728
a(S'Complete'
p729
S'Complete'
p730
S'JJ'
p731
S'B-NP'
p732
g5
tp733
a(S'relief'
p734
S'relief'
p735
S'NN'
p736
S'I-NP'
p737
g5
tp738
a(S'of'
p739
S'of'
p740
S'IN'
p741
S'B-PP'
p742
g5
tp743
a(S'symptoms'
p744
S'symptom'
p745
S'NNS'
p746
S'B-NP'
p747
g5
tp748
a(S'occurred'
p749
S'occur'
p750
S'VBD'
p751
S'B-VP'
p752
g5
tp753
a(S'significantly'
p754
S'significantly'
p755
S'RB'
p756
S'B-ADVP'
p757
g5
tp758
a(S'more'
p759
S'more'
p760
S'RBR'
p761
S'I-ADVP'
p762
g5
tp763
a(S'frequently'
p764
S'frequently'
p765
S'RB'
p766
S'I-ADVP'
p767
g5
tp768
a(S'in'
p769
S'in'
p770
S'IN'
p771
S'B-PP'
p772
g5
tp773
a(S'patients'
p774
S'patient'
p775
S'NNS'
p776
S'B-NP'
p777
g5
tp778
a(S'on'
p779
S'on'
p780
S'IN'
p781
S'B-PP'
p782
g5
tp783
a(S'the'
p784
S'the'
p785
S'DT'
p786
S'B-NP'
p787
g5
tp788
a(S'active'
p789
S'active'
p790
S'JJ'
p791
S'I-NP'
p792
g5
tp793
a(S'treatment'
p794
S'treatment'
p795
S'NN'
p796
S'I-NP'
p797
g5
tp798
a(g474
g474
g474
g5
g5
tp799
a(S'43'
p800
S'43'
p801
S'CD'
p802
S'B-NP'
p803
g5
tp804
a(g518
g518
S'NN'
p805
S'I-NP'
p806
g5
tp807
a(g506
g506
g506
g5
g5
tp808
a(S'than'
p809
S'than'
p810
S'IN'
p811
S'B-PP'
p812
g5
tp813
a(S'in'
p814
S'in'
p815
S'IN'
p816
S'B-PP'
p817
g5
tp818
a(S'placebo-treated'
p819
S'placebo-treated'
p820
S'JJ'
p821
S'B-NP'
p822
g5
tp823
a(S'patients'
p824
S'patient'
p825
S'NNS'
p826
S'I-NP'
p827
g5
tp828
a(g474
g474
g474
g5
g5
tp829
a(S'31'
p830
S'31'
p831
S'CD'
p832
S'B-NP'
p833
g5
tp834
a(g518
g518
S'NN'
p835
S'I-NP'
p836
g5
tp837
a(g280
g280
g280
g5
g5
tp838
a(S'P=0.048'
p839
S'P=0.048'
p840
S'NN'
p841
S'B-NP'
p842
g5
tp843
a(g506
g506
g506
g5
g5
tp844
a(g67
g67
g67
g5
g5
tp845
a(S'Within'
p846
S'Within'
p847
S'IN'
p848
S'B-PP'
p849
g5
tp850
a(S'the'
p851
S'the'
p852
S'DT'
p853
S'B-NP'
p854
g5
tp855
a(S'active-treatment'
p856
S'active-treatment'
p857
S'NN'
p858
S'I-NP'
p859
g5
tp860
a(S'group'
p861
S'group'
p862
S'NN'
p863
S'I-NP'
p864
g5
tp865
a(g280
g280
g280
g5
g5
tp866
a(S'therapeutic'
p867
S'therapeutic'
p868
S'JJ'
p869
S'B-NP'
p870
g5
tp871
a(S'success'
p872
S'success'
p873
S'NN'
p874
S'I-NP'
p875
g5
tp876
a(S'was'
p877
S'be'
p878
S'VBD'
p879
S'B-VP'
p880
g5
tp881
a(S'significantly'
p882
S'significantly'
p883
S'RB'
p884
S'B-ADJP'
p885
g5
tp886
a(S'more'
p887
S'more'
p888
S'RBR'
p889
S'I-ADJP'
p890
g5
tp891
a(S'frequent'
p892
S'frequent'
p893
S'JJ'
p894
S'I-ADJP'
p895
g5
tp896
a(S'in'
p897
S'in'
p898
S'IN'
p899
S'B-PP'
p900
g5
tp901
a(S'the'
p902
S'the'
p903
S'DT'
p904
S'B-NP'
p905
g5
tp906
a(S'non-infected'
p907
S'non-infected'
p908
S'JJ'
p909
S'I-NP'
p910
g5
tp911
a(S'patients'
p912
S'patient'
p913
S'NNS'
p914
S'I-NP'
p915
g5
tp916
a(g474
g474
g474
g5
g5
tp917
a(S'84'
p918
S'84'
p919
S'CD'
p920
S'B-NP'
p921
g5
tp922
a(g518
g518
S'NN'
p923
S'I-NP'
p924
g5
tp925
a(S'vs.'
p926
S'vs.'
p927
S'IN'
p928
S'B-PP'
p929
g5
tp930
a(S'64'
p931
S'64'
p932
S'CD'
p933
S'B-NP'
p934
g5
tp935
a(g518
g518
S'NN'
p936
S'I-NP'
p937
g5
tp938
a(g280
g280
g280
g5
g5
tp939
a(S'P=0.04'
p940
S'P=0.04'
p941
S'NN'
p942
S'B-NP'
p943
g5
tp944
a(g506
g506
g506
g5
g5
tp945
a(g67
g67
g67
g5
g5
tp946
a(S'CONCLUSIONS'
p947
S'CONCLUSIONS'
p948
S'NNS'
p949
S'B-NP'
p950
g5
tp951
a(S'Although'
p952
S'Although'
p953
S'IN'
p954
S'B-PP'
p955
g5
tp956
a(S'eradicating'
p957
S'eradicate'
p958
S'VBG'
p959
S'B-VP'
p960
g5
tp961
a(S'H.'
p962
S'H.'
p963
S'NN'
p964
S'B-NP'
p965
g5
tp966
a(S'pylori'
p967
S'pylori'
p968
S'NN'
p969
S'I-NP'
p970
g5
tp971
a(S'is'
p972
S'be'
p973
S'VBZ'
p974
S'B-VP'
p975
g5
tp976
a(S'not'
p977
S'not'
p978
S'RB'
p979
g5
g5
tp980
a(S'likely'
p981
S'likely'
p982
S'JJ'
p983
S'B-ADJP'
p984
g5
tp985
a(S'to'
p986
S'to'
p987
S'TO'
p988
S'B-VP'
p989
g5
tp990
a(S'relieve'
p991
S'relieve'
p992
S'VB'
p993
S'I-VP'
p994
g5
tp995
a(S'symptoms'
p996
S'symptom'
p997
S'NNS'
p998
S'B-NP'
p999
g5
tp1000
a(S'in'
p1001
S'in'
p1002
S'IN'
p1003
S'B-PP'
p1004
g5
tp1005
a(S'the'
p1006
S'the'
p1007
S'DT'
p1008
S'B-NP'
p1009
g5
tp1010
a(S'majority'
p1011
S'majority'
p1012
S'NN'
p1013
S'I-NP'
p1014
g5
tp1015
a(S'of'
p1016
S'of'
p1017
S'IN'
p1018
S'B-PP'
p1019
g5
tp1020
a(S'patients'
p1021
S'patient'
p1022
S'NNS'
p1023
S'B-NP'
p1024
g5
tp1025
a(S'with'
p1026
S'with'
p1027
S'IN'
p1028
S'B-PP'
p1029
g5
tp1030
a(S'non-ulcer'
p1031
S'non-ulcer'
p1032
S'JJ'
p1033
S'B-NP'
p1034
g5
tp1035
a(S'dyspepsia'
p1036
S'dyspepsia'
p1037
S'NN'
p1038
S'I-NP'
p1039
g5
tp1040
a(g280
g280
g280
g5
g5
tp1041
a(S'a'
p1042
g1042
S'DT'
p1043
S'B-NP'
p1044
g5
tp1045
a(S'small'
p1046
S'small'
p1047
S'JJ'
p1048
S'I-NP'
p1049
g5
tp1050
a(S'proportion'
p1051
S'proportion'
p1052
S'NN'
p1053
S'I-NP'
p1054
g5
tp1055
a(S'of'
p1056
S'of'
p1057
S'IN'
p1058
S'B-PP'
p1059
g5
tp1060
a(S'H.'
p1061
S'H.'
p1062
S'NN'
p1063
S'B-NP'
p1064
g5
tp1065
a(S'pylori-infected'
p1066
S'pylori-infected'
p1067
S'JJ'
p1068
S'I-NP'
p1069
g5
tp1070
a(S'patients'
p1071
S'patient'
p1072
S'NNS'
p1073
S'I-NP'
p1074
g5
tp1075
a(S'may'
p1076
S'may'
p1077
S'MD'
p1078
S'B-VP'
p1079
g5
tp1080
a(S'benefit'
p1081
S'benefit'
p1082
S'VB'
p1083
S'I-VP'
p1084
g5
tp1085
a(S'from'
p1086
S'from'
p1087
S'IN'
p1088
S'B-PP'
p1089
g5
tp1090
a(S'eradication'
p1091
S'eradication'
p1092
S'NN'
p1093
S'B-NP'
p1094
g5
tp1095
a(S'treatment'
p1096
S'treatment'
p1097
S'NN'
p1098
S'I-NP'
p1099
g5
tp1100
a(g67
g67
g67
g5
g5
tp1101
a.