(lp0
(S'Safety'
p1
S'Safety'
p2
S'NN'
p3
S'B-NP'
p4
S'O'
p5
tp6
a(S'of'
p7
S'of'
p8
S'IN'
p9
S'B-PP'
p10
g5
tp11
a(S'injectable'
p12
S'injectable'
p13
S'JJ'
p14
S'B-NP'
p15
g5
tp16
a(S'opioid'
p17
S'opioid'
p18
S'JJ'
p19
S'I-NP'
p20
g5
tp21
a(S'maintenance'
p22
S'maintenance'
p23
S'NN'
p24
S'I-NP'
p25
g5
tp26
a(S'treatment'
p27
S'treatment'
p28
S'NN'
p29
S'I-NP'
p30
g5
tp31
a(S'for'
p32
S'for'
p33
S'IN'
p34
S'B-PP'
p35
g5
tp36
a(S'heroin'
p37
S'heroin'
p38
S'NN'
p39
S'B-NP'
p40
g5
tp41
a(S'dependence'
p42
S'dependence'
p43
S'NN'
p44
S'I-NP'
p45
g5
tp46
a(S'.'
p47
g47
g47
g5
g5
tp48
a(S'BACKGROUND'
p49
S'BACKGROUND'
p50
S'NN'
p51
S'B-NP'
p52
g5
tp53
a(S'There'
p54
S'There'
p55
S'EX'
p56
S'B-NP'
p57
g5
tp58
a(S'is'
p59
S'be'
p60
S'VBZ'
p61
S'B-VP'
p62
g5
tp63
a(S'a'
p64
g64
S'DT'
p65
S'B-NP'
p66
g5
tp67
a(S'growing'
p68
S'grow'
p69
S'VBG'
p70
S'I-NP'
p71
g5
tp72
a(S'debate'
p73
S'debate'
p74
S'NN'
p75
S'I-NP'
p76
g5
tp77
a(S'about'
p78
S'about'
p79
S'IN'
p80
S'B-PP'
p81
g5
tp82
a(S'injectable'
p83
S'injectable'
p84
S'JJ'
p85
S'B-NP'
p86
g5
tp87
a(S'opioid'
p88
S'opioid'
p89
S'JJ'
p90
S'I-NP'
p91
g5
tp92
a(S'treatment'
p93
S'treatment'
p94
S'NN'
p95
S'I-NP'
p96
g5
tp97
a(S'programs'
p98
S'program'
p99
S'NNS'
p100
S'I-NP'
p101
g5
tp102
a(S'in'
p103
S'in'
p104
S'IN'
p105
S'B-PP'
p106
g5
tp107
a(S'many'
p108
S'many'
p109
S'JJ'
p110
S'B-NP'
p111
g5
tp112
a(S'Western'
p113
S'Western'
p114
S'JJ'
p115
S'I-NP'
p116
g5
tp117
a(S'countries.'
p118
S'countries.'
p119
S'NN'
p120
S'I-NP'
p121
g5
tp122
a(S'This'
p123
S'This'
p124
S'DT'
p125
S'B-NP'
p126
g5
tp127
a(S'is'
p128
S'be'
p129
S'VBZ'
p130
S'B-VP'
p131
g5
tp132
a(S'the'
p133
S'the'
p134
S'DT'
p135
S'B-NP'
p136
g5
tp137
a(S'first'
p138
S'first'
p139
S'JJ'
p140
S'I-NP'
p141
g5
tp142
a(S'placebo-controlled'
p143
S'placebo-controlled'
p144
S'JJ'
p145
S'I-NP'
p146
g5
tp147
a(S'study'
p148
S'study'
p149
S'NN'
p150
S'I-NP'
p151
g5
tp152
a(S'of'
p153
S'of'
p154
S'IN'
p155
S'B-PP'
p156
g5
tp157
a(S'the'
p158
S'the'
p159
S'DT'
p160
S'B-NP'
p161
g5
tp162
a(S'safety'
p163
S'safety'
p164
S'NN'
p165
S'I-NP'
p166
g5
tp167
a(S'of'
p168
S'of'
p169
S'IN'
p170
S'B-PP'
p171
g5
tp172
a(S'injectable'
p173
S'injectable'
p174
S'JJ'
p175
S'B-NP'
p176
g5
tp177
a(S'opioids'
p178
S'opioid'
p179
S'NNS'
p180
S'I-NP'
p181
g5
tp182
a(S'in'
p183
S'in'
p184
S'IN'
p185
S'B-PP'
p186
g5
tp187
a(g64
g64
S'DT'
p188
S'B-NP'
p189
g5
tp190
a(S'controlled'
p191
S'control'
p192
S'VBN'
p193
S'I-NP'
p194
g5
tp195
a(S'treatment'
p196
S'treatment'
p197
S'NN'
p198
S'I-NP'
p199
g5
tp200
a(S'setting'
p201
S'setting'
p202
S'NN'
p203
S'I-NP'
p204
g5
tp205
a(g47
g47
g47
g5
g5
tp206
a(S'METHODS'
p207
S'METHODS'
p208
S'NNS'
p209
S'B-NP'
p210
g5
tp211
a(S'Twenty-five'
p212
S'Twenty-five'
p213
S'CD'
p214
S'B-NP'
p215
g5
tp216
a(S'opioid-dependent'
p217
S'opioid-dependent'
p218
S'JJ'
p219
S'I-NP'
p220
g5
tp221
a(S'patients'
p222
S'patient'
p223
S'NNS'
p224
S'I-NP'
p225
g5
tp226
a(S'on'
p227
S'on'
p228
S'IN'
p229
S'B-PP'
p230
g5
tp231
a(S'intravenous'
p232
S'intravenous'
p233
S'JJ'
p234
S'B-NP'
p235
g5
tp236
a(S'('
p237
g237
g237
g5
g5
tp238
a(S'IV'
p239
S'IV'
p240
S'CD'
p241
g5
g5
tp242
a(S')'
p243
g243
g243
g5
g5
tp244
a(S'heroin'
p245
S'heroin'
p246
S'NN'
p247
S'B-NP'
p248
g5
tp249
a(S'or'
p250
S'or'
p251
S'CC'
p252
g5
g5
tp253
a(S'IV'
p254
S'IV'
p255
S'CD'
p256
S'B-NP'
p257
g5
tp258
a(S'methadone'
p259
S'methadone'
p260
S'NN'
p261
S'I-NP'
p262
g5
tp263
a(S'maintenance'
p264
S'maintenance'
p265
S'NN'
p266
S'I-NP'
p267
g5
tp268
a(S'treatment'
p269
S'treatment'
p270
S'NN'
p271
S'I-NP'
p272
g5
tp273
a(S'were'
p274
S'be'
p275
S'VBD'
p276
S'B-VP'
p277
g5
tp278
a(S'randomly'
p279
S'randomly'
p280
S'RB'
p281
S'I-VP'
p282
g5
tp283
a(S'assigned'
p284
S'assign'
p285
S'VBN'
p286
S'I-VP'
p287
g5
tp288
a(S'to'
p289
S'to'
p290
S'TO'
p291
S'B-PP'
p292
g5
tp293
a(S'either'
p294
S'either'
p295
S'CC'
p296
g5
g5
tp297
a(S'their'
p298
S'their'
p299
S'PRP$'
p300
S'B-NP'
p301
g5
tp302
a(S'individual'
p303
S'individual'
p304
S'JJ'
p305
S'I-NP'
p306
g5
tp307
a(S'prescribed'
p308
S'prescribe'
p309
S'VBN'
p310
S'I-NP'
p311
g5
tp312
a(S'IV'
p313
S'IV'
p314
S'CD'
p315
S'I-NP'
p316
g5
tp317
a(S'maintenance'
p318
S'maintenance'
p319
S'NN'
p320
S'I-NP'
p321
g5
tp322
a(S'dose'
p323
S'dose'
p324
S'NN'
p325
S'I-NP'
p326
g5
tp327
a(S'or'
p328
S'or'
p329
S'CC'
p330
g5
g5
tp331
a(S'placebo.'
p332
S'placebo.'
p333
S'NN'
p334
S'B-NP'
p335
g5
tp336
a(S'Acute'
p337
S'Acute'
p338
S'JJ'
p339
S'I-NP'
p340
g5
tp341
a(S'drug'
p342
S'drug'
p343
S'NN'
p344
S'I-NP'
p345
g5
tp346
a(S'effects'
p347
S'effect'
p348
S'NNS'
p349
S'I-NP'
p350
g5
tp351
a(S'were'
p352
S'be'
p353
S'VBD'
p354
S'B-VP'
p355
g5
tp356
a(S'recorded'
p357
S'record'
p358
S'VBN'
p359
S'I-VP'
p360
g5
tp361
a(S','
p362
g362
g362
g5
g5
tp363
a(S'focusing'
p364
S'focus'
p365
S'VBG'
p366
S'B-VP'
p367
g5
tp368
a(S'on'
p369
S'on'
p370
S'IN'
p371
S'B-PP'
p372
g5
tp373
a(S'electrocardiography'
p374
S'electrocardiography'
p375
S'NN'
p376
S'B-NP'
p377
g5
tp378
a(g362
g362
g362
g5
g5
tp379
a(S'respiratory'
p380
S'respiratory'
p381
S'JJ'
p382
S'B-NP'
p383
g5
tp384
a(S'movements'
p385
S'movement'
p386
S'NNS'
p387
S'I-NP'
p388
g5
tp389
a(g362
g362
g362
g5
g5
tp390
a(S'arterial'
p391
S'arterial'
p392
S'JJ'
p393
S'B-NP'
p394
g5
tp395
a(S'blood'
p396
S'blood'
p397
S'NN'
p398
S'I-NP'
p399
g5
tp400
a(S'oxygen'
p401
S'oxygen'
p402
S'NN'
p403
S'I-NP'
p404
g5
tp405
a(S'saturation'
p406
S'saturation'
p407
S'NN'
p408
S'I-NP'
p409
g5
tp410
a(g362
g362
g362
g5
g5
tp411
a(S'and'
p412
S'and'
p413
S'CC'
p414
g5
g5
tp415
a(S'electroencephalography'
p416
S'electroencephalography'
p417
S'NN'
p418
S'B-NP'
p419
g5
tp420
a(g237
g237
g237
g5
g5
tp421
a(S'EEG'
p422
S'EEG'
p423
S'NN'
p424
S'B-NP'
p425
S'B-protein'
p426
tp427
a(g243
g243
g243
g5
g5
tp428
a(g47
g47
g47
g5
g5
tp429
a(S'RESULTS'
p430
S'RESULTS'
p431
S'NNS'
p432
S'B-NP'
p433
g5
tp434
a(S'After'
p435
S'After'
p436
S'IN'
p437
S'B-PP'
p438
g5
tp439
a(S'heroin'
p440
S'heroin'
p441
S'NN'
p442
S'B-NP'
p443
g5
tp444
a(S'injection'
p445
S'injection'
p446
S'NN'
p447
S'I-NP'
p448
g5
tp449
a(g362
g362
g362
g5
g5
tp450
a(S'marked'
p451
S'marked'
p452
S'JJ'
p453
S'B-NP'
p454
g5
tp455
a(S'respiratory'
p456
S'respiratory'
p457
S'JJ'
p458
S'I-NP'
p459
g5
tp460
a(S'depression'
p461
S'depression'
p462
S'NN'
p463
S'I-NP'
p464
g5
tp465
a(S'progressing'
p466
S'progress'
p467
S'VBG'
p468
S'B-VP'
p469
g5
tp470
a(S'to'
p471
S'to'
p472
S'TO'
p473
S'B-PP'
p474
g5
tp475
a(g64
g64
S'DT'
p476
S'B-NP'
p477
g5
tp478
a(S'Cheyne-Stokes'
p479
S'Cheyne-Stokes'
p480
S'NNP'
p481
S'I-NP'
p482
g5
tp483
a(S'pattern'
p484
S'pattern'
p485
S'NN'
p486
S'I-NP'
p487
g5
tp488
a(S'occurred.'
p489
S'occurred.'
p490
S'VBD'
p491
S'B-VP'
p492
g5
tp493
a(S'Peripheral'
p494
S'Peripheral'
p495
S'JJ'
p496
S'B-NP'
p497
g5
tp498
a(S'arterial'
p499
S'arterial'
p500
S'JJ'
p501
S'I-NP'
p502
g5
tp503
a(S'blood'
p504
S'blood'
p505
S'NN'
p506
S'I-NP'
p507
g5
tp508
a(S'oxygenation'
p509
S'oxygenation'
p510
S'NN'
p511
S'I-NP'
p512
g5
tp513
a(S'decreased'
p514
S'decrease'
p515
S'VBD'
p516
S'B-VP'
p517
g5
tp518
a(S'to'
p519
S'to'
p520
S'TO'
p521
S'B-PP'
p522
g5
tp523
a(S'78.9'
p524
S'78.9'
p525
S'CD'
p526
S'B-NP'
p527
g5
tp528
a(S'+/-'
p529
S'+/-'
p530
S'SYM'
p531
S'I-NP'
p532
g5
tp533
a(S'8.7'
p534
S'8.7'
p535
S'CD'
p536
S'I-NP'
p537
g5
tp538
a(S'%'
p539
g539
S'NN'
p540
S'I-NP'
p541
g5
tp542
a(g237
g237
g237
g5
g5
tp543
a(S'mean'
p544
S'mean'
p545
S'NN'
p546
S'B-NP'
p547
g5
tp548
a(S'+/-'
p549
S'+/-'
p550
S'SYM'
p551
g5
g5
tp552
a(S'SD'
p553
S'SD'
p554
S'NN'
p555
S'B-NP'
p556
g5
tp557
a(g243
g243
g243
g5
g5
tp558
a(S'ranging'
p559
S'range'
p560
S'VBG'
p561
S'B-VP'
p562
g5
tp563
a(S'from'
p564
S'from'
p565
S'IN'
p566
S'B-PP'
p567
g5
tp568
a(S'52'
p569
S'52'
p570
S'CD'
p571
S'B-NP'
p572
g5
tp573
a(g539
g539
S'NN'
p574
S'I-NP'
p575
g5
tp576
a(S'-90'
p577
S'-90'
p578
S'CD'
p579
S'B-NP'
p580
g5
tp581
a(g539
g539
S'NN'
p582
S'I-NP'
p583
g5
tp584
a(g47
g47
g47
g5
g5
tp585
a(S'During'
p586
S'During'
p587
S'IN'
p588
S'B-PP'
p589
g5
tp590
a(S'hypoxia'
p591
S'hypoxia'
p592
S'NN'
p593
S'B-NP'
p594
g5
tp595
a(g362
g362
g362
g5
g5
tp596
a(S'7'
p597
g597
S'CD'
p598
S'B-NP'
p599
g5
tp600
a(S'of'
p601
S'of'
p602
S'IN'
p603
S'B-PP'
p604
g5
tp605
a(S'the'
p606
S'the'
p607
S'DT'
p608
S'B-NP'
p609
g5
tp610
a(S'16'
p611
S'16'
p612
S'CD'
p613
S'I-NP'
p614
g5
tp615
a(S'subjects'
p616
S'subject'
p617
S'NNS'
p618
S'I-NP'
p619
g5
tp620
a(S'experienced'
p621
S'experience'
p622
S'VBD'
p623
S'B-VP'
p624
g5
tp625
a(S'intermittent'
p626
S'intermittent'
p627
S'JJ'
p628
S'B-ADJP'
p629
g5
tp630
a(S'and'
p631
S'and'
p632
S'CC'
p633
g5
g5
tp634
a(S'somewhat'
p635
S'somewhat'
p636
S'RB'
p637
S'B-ADJP'
p638
g5
tp639
a(S'severe'
p640
S'severe'
p641
S'JJ'
p642
S'B-NP'
p643
g5
tp644
a(S'bradycardia.'
p645
S'bradycardia.'
p646
S'NN'
p647
S'I-NP'
p648
g5
tp649
a(S'Five'
p650
S'Five'
p651
S'CD'
p652
S'B-NP'
p653
g5
tp654
a(S'subjects'
p655
S'subject'
p656
S'NNS'
p657
S'I-NP'
p658
g5
tp659
a(S'exhibited'
p660
S'exhibit'
p661
S'VBD'
p662
S'B-VP'
p663
g5
tp664
a(S'paroxysmal'
p665
S'paroxysmal'
p666
S'JJ'
p667
S'B-NP'
p668
g5
tp669
a(S'EEG'
p670
S'EEG'
p671
S'NN'
p672
S'I-NP'
p673
g5
tp674
a(S'patterns.'
p675
S'patterns.'
p676
S'NN'
p677
S'I-NP'
p678
g5
tp679
a(S'After'
p680
S'After'
p681
S'IN'
p682
S'B-PP'
p683
g5
tp684
a(S'methadone'
p685
S'methadone'
p686
S'NN'
p687
S'B-NP'
p688
g5
tp689
a(S'injection'
p690
S'injection'
p691
S'NN'
p692
S'I-NP'
p693
g5
tp694
a(g362
g362
g362
g5
g5
tp695
a(S'respiratory'
p696
S'respiratory'
p697
S'JJ'
p698
S'B-NP'
p699
g5
tp700
a(S'depression'
p701
S'depression'
p702
S'NN'
p703
S'I-NP'
p704
g5
tp705
a(S'was'
p706
S'be'
p707
S'VBD'
p708
S'B-VP'
p709
g5
tp710
a(S'less'
p711
S'less'
p712
S'RBR'
p713
S'B-ADJP'
p714
g5
tp715
a(S'pronounced'
p716
S'pronounced'
p717
S'JJ'
p718
S'I-ADJP'
p719
g5
tp720
a(S'than'
p721
S'than'
p722
S'IN'
p723
S'B-PP'
p724
g5
tp725
a(S'after'
p726
S'after'
p727
S'IN'
p728
S'B-PP'
p729
g5
tp730
a(S'heroin'
p731
S'heroin'
p732
S'NN'
p733
S'B-NP'
p734
g5
tp735
a(S'injection.'
p736
S'injection.'
p737
S'NN'
p738
S'I-NP'
p739
g5
tp740
a(S'No'
p741
S'No'
p742
S'DT'
p743
S'B-NP'
p744
g5
tp745
a(S'relevant'
p746
S'relevant'
p747
S'JJ'
p748
S'I-NP'
p749
g5
tp750
a(S'bradycardia'
p751
S'bradycardia'
p752
S'NN'
p753
S'I-NP'
p754
g5
tp755
a(S'was'
p756
S'be'
p757
S'VBD'
p758
S'B-VP'
p759
g5
tp760
a(S'noted'
p761
S'note'
p762
S'VBN'
p763
S'I-VP'
p764
g5
tp765
a(g47
g47
g47
g5
g5
tp766
a(S'CONCLUSIONS'
p767
S'CONCLUSIONS'
p768
S'NNS'
p769
S'B-NP'
p770
g5
tp771
a(S'Opioid'
p772
S'Opioid'
p773
S'JJ'
p774
S'B-NP'
p775
g5
tp776
a(S'doses'
p777
S'dose'
p778
S'NNS'
p779
S'I-NP'
p780
g5
tp781
a(S'commonly'
p782
S'commonly'
p783
S'RB'
p784
S'B-VP'
p785
g5
tp786
a(S'prescribed'
p787
S'prescribe'
p788
S'VBN'
p789
S'I-VP'
p790
g5
tp791
a(S'in'
p792
S'in'
p793
S'IN'
p794
S'B-PP'
p795
g5
tp796
a(S'IV'
p797
S'IV'
p798
S'CD'
p799
S'B-NP'
p800
g5
tp801
a(S'opioid'
p802
S'opioid'
p803
S'JJ'
p804
S'I-NP'
p805
g5
tp806
a(S'treatment'
p807
S'treatment'
p808
S'NN'
p809
S'I-NP'
p810
g5
tp811
a(S'induce'
p812
S'induce'
p813
S'VBP'
p814
S'B-VP'
p815
g5
tp816
a(S'marked'
p817
S'marked'
p818
S'JJ'
p819
S'B-NP'
p820
g5
tp821
a(S'respiratory'
p822
S'respiratory'
p823
S'JJ'
p824
S'I-NP'
p825
g5
tp826
a(S'and'
p827
S'and'
p828
S'CC'
p829
S'I-NP'
p830
g5
tp831
a(S'circulatory'
p832
S'circulatory'
p833
S'JJ'
p834
S'I-NP'
p835
g5
tp836
a(S'depression'
p837
S'depression'
p838
S'NN'
p839
S'I-NP'
p840
g5
tp841
a(g362
g362
g362
g5
g5
tp842
a(S'as'
p843
S'as'
p844
S'RB'
p845
S'B-CONJP'
p846
g5
tp847
a(S'well'
p848
S'well'
p849
S'RB'
p850
S'I-CONJP'
p851
g5
tp852
a(S'as'
p853
S'as'
p854
S'IN'
p855
S'I-CONJP'
p856
g5
tp857
a(S'occasionally'
p858
S'occasionally'
p859
S'RB'
p860
S'B-NP'
p861
g5
tp862
a(S'irregular'
p863
S'irregular'
p864
S'JJ'
p865
S'I-NP'
p866
g5
tp867
a(S'paroxysmal'
p868
S'paroxysmal'
p869
S'JJ'
p870
S'I-NP'
p871
g5
tp872
a(S'EEG'
p873
S'EEG'
p874
S'NN'
p875
S'I-NP'
p876
g5
tp877
a(S'activity.'
p878
S'activity.'
p879
S'NN'
p880
S'I-NP'
p881
g5
tp882
a(S'Further'
p883
S'Further'
p884
S'JJ'
p885
S'I-NP'
p886
g5
tp887
a(S'studies'
p888
S'study'
p889
S'NNS'
p890
S'I-NP'
p891
g5
tp892
a(S'are'
p893
S'be'
p894
S'VBP'
p895
S'B-VP'
p896
g5
tp897
a(S'needed'
p898
S'need'
p899
S'VBN'
p900
S'I-VP'
p901
g5
tp902
a(S'to'
p903
S'to'
p904
S'TO'
p905
S'B-VP'
p906
g5
tp907
a(S'optimize'
p908
S'optimize'
p909
S'VB'
p910
S'I-VP'
p911
g5
tp912
a(S'the'
p913
S'the'
p914
S'DT'
p915
S'B-NP'
p916
g5
tp917
a(S'clinical'
p918
S'clinical'
p919
S'JJ'
p920
S'I-NP'
p921
g5
tp922
a(S'practice'
p923
S'practice'
p924
S'NN'
p925
S'I-NP'
p926
g5
tp927
a(S'of'
p928
S'of'
p929
S'IN'
p930
S'B-PP'
p931
g5
tp932
a(S'IV'
p933
S'IV'
p934
S'CD'
p935
S'B-NP'
p936
g5
tp937
a(S'opioid'
p938
S'opioid'
p939
S'JJ'
p940
S'I-NP'
p941
g5
tp942
a(S'treatment'
p943
S'treatment'
p944
S'NN'
p945
S'I-NP'
p946
g5
tp947
a(S'to'
p948
S'to'
p949
S'TO'
p950
S'B-VP'
p951
g5
tp952
a(S'prevent'
p953
S'prevent'
p954
S'VB'
p955
S'I-VP'
p956
g5
tp957
a(S'serious'
p958
S'serious'
p959
S'JJ'
p960
S'B-NP'
p961
g5
tp962
a(S'complications.'
p963
S'complications.'
p964
S'NN'
p965
S'I-NP'
p966
g5
tp967
a(S'Moreover'
p968
S'Moreover'
p969
S'RB'
p970
S'B-ADVP'
p971
g5
tp972
a(g362
g362
g362
g5
g5
tp973
a(S'the'
p974
S'the'
p975
S'DT'
p976
S'B-NP'
p977
g5
tp978
a(S'extent'
p979
S'extent'
p980
S'NN'
p981
S'I-NP'
p982
g5
tp983
a(S'of'
p984
S'of'
p985
S'IN'
p986
S'B-PP'
p987
g5
tp988
a(S'the'
p989
S'the'
p990
S'DT'
p991
S'B-NP'
p992
g5
tp993
a(S'observed'
p994
S'observe'
p995
S'VBN'
p996
S'I-NP'
p997
g5
tp998
a(S'effects'
p999
S'effect'
p1000
S'NNS'
p1001
S'I-NP'
p1002
g5
tp1003
a(S'raises'
p1004
S'raise'
p1005
S'VBZ'
p1006
S'B-VP'
p1007
g5
tp1008
a(S'questions'
p1009
S'question'
p1010
S'NNS'
p1011
S'B-NP'
p1012
g5
tp1013
a(S'about'
p1014
S'about'
p1015
S'IN'
p1016
S'B-PP'
p1017
g5
tp1018
a(S'the'
p1019
S'the'
p1020
S'DT'
p1021
S'B-NP'
p1022
g5
tp1023
a(S'appropriateness'
p1024
S'appropriateness'
p1025
S'NN'
p1026
S'I-NP'
p1027
g5
tp1028
a(S'of'
p1029
S'of'
p1030
S'IN'
p1031
S'B-PP'
p1032
g5
tp1033
a(S'IV'
p1034
S'IV'
p1035
S'CD'
p1036
S'B-NP'
p1037
g5
tp1038
a(S'opioid'
p1039
S'opioid'
p1040
S'JJ'
p1041
S'I-NP'
p1042
g5
tp1043
a(S'treatment'
p1044
S'treatment'
p1045
S'NN'
p1046
S'I-NP'
p1047
g5
tp1048
a(S'in'
p1049
S'in'
p1050
S'IN'
p1051
S'B-PP'
p1052
g5
tp1053
a(S'the'
p1054
S'the'
p1055
S'DT'
p1056
S'B-NP'
p1057
g5
tp1058
a(S'present'
p1059
S'present'
p1060
S'JJ'
p1061
S'I-NP'
p1062
g5
tp1063
a(S'form'
p1064
S'form'
p1065
S'NN'
p1066
S'I-NP'
p1067
g5
tp1068
a(g47
g47
g47
g5
g5
tp1069
a.