(lp0
(S'Influence'
p1
S'Influence'
p2
S'NN'
p3
S'B-NP'
p4
S'O'
p5
tp6
a(S'of'
p7
S'of'
p8
S'IN'
p9
S'B-PP'
p10
g5
tp11
a(S'phase-related'
p12
S'phase-related'
p13
S'JJ'
p14
S'B-NP'
p15
g5
tp16
a(S'variability'
p17
S'variability'
p18
S'NN'
p19
S'I-NP'
p20
g5
tp21
a(S'in'
p22
S'in'
p23
S'IN'
p24
S'B-PP'
p25
g5
tp26
a(S'premenstrual'
p27
S'premenstrual'
p28
S'JJ'
p29
S'B-NP'
p30
g5
tp31
a(S'symptomatology'
p32
S'symptomatology'
p33
S'NN'
p34
S'I-NP'
p35
g5
tp36
a(S','
p37
g37
g37
g5
g5
tp38
a(S'mood'
p39
S'mood'
p40
S'NN'
p41
S'B-NP'
p42
g5
tp43
a(g37
g37
g37
g5
g5
tp44
a(S'smoking'
p45
S'smoking'
p46
S'NN'
p47
S'B-NP'
p48
g5
tp49
a(S'withdrawal'
p50
S'withdrawal'
p51
S'NN'
p52
S'I-NP'
p53
g5
tp54
a(g37
g37
g37
g5
g5
tp55
a(S'and'
p56
S'and'
p57
S'CC'
p58
g5
g5
tp59
a(S'smoking'
p60
S'smoking'
p61
S'NN'
p62
S'B-NP'
p63
g5
tp64
a(S'behavior'
p65
S'behavior'
p66
S'NN'
p67
S'I-NP'
p68
g5
tp69
a(S'during'
p70
S'during'
p71
S'IN'
p72
S'B-PP'
p73
g5
tp74
a(S'ad'
p75
S'ad'
p76
S'NN'
p77
S'B-NP'
p78
g5
tp79
a(S'libitum'
p80
S'libitum'
p81
S'NN'
p82
S'I-NP'
p83
g5
tp84
a(S'smoking'
p85
S'smoking'
p86
S'NN'
p87
S'I-NP'
p88
g5
tp89
a(g37
g37
g37
g5
g5
tp90
a(S'on'
p91
S'on'
p92
S'IN'
p93
S'B-PP'
p94
g5
tp95
a(S'smoking'
p96
S'smoking'
p97
S'NN'
p98
S'B-NP'
p99
g5
tp100
a(S'cessation'
p101
S'cessation'
p102
S'NN'
p103
S'I-NP'
p104
g5
tp105
a(S'outcome'
p106
S'outcome'
p107
S'NN'
p108
S'I-NP'
p109
g5
tp110
a(S'.'
p111
g111
g111
g5
g5
tp112
a(S'Emerging'
p113
S'Emerge'
p114
S'VBG'
p115
S'B-NP'
p116
g5
tp117
a(S'evidence'
p118
S'evidence'
p119
S'NN'
p120
S'I-NP'
p121
g5
tp122
a(S'suggests'
p123
S'suggest'
p124
S'VBZ'
p125
S'B-VP'
p126
g5
tp127
a(S'that'
p128
S'that'
p129
S'IN'
p130
S'B-SBAR'
p131
g5
tp132
a(S'women'
p133
S'woman'
p134
S'NNS'
p135
S'B-NP'
p136
g5
tp137
a(S'have'
p138
S'have'
p139
S'VBP'
p140
S'B-VP'
p141
g5
tp142
a(S'a'
p143
g143
S'DT'
p144
S'B-NP'
p145
g5
tp146
a(S'more'
p147
S'more'
p148
S'RBR'
p149
S'I-NP'
p150
g5
tp151
a(S'difficult'
p152
S'difficult'
p153
S'JJ'
p154
S'I-NP'
p155
g5
tp156
a(S'time'
p157
S'time'
p158
S'NN'
p159
S'I-NP'
p160
g5
tp161
a(S'quitting'
p162
S'quit'
p163
S'VBG'
p164
S'B-VP'
p165
g5
tp166
a(S'smoking'
p167
S'smoking'
p168
S'NN'
p169
S'B-NP'
p170
g5
tp171
a(S'than'
p172
S'than'
p173
S'IN'
p174
S'B-PP'
p175
g5
tp176
a(S'men-possibly'
p177
S'men-possibly'
p178
S'RB'
p179
S'B-NP'
p180
g5
tp181
a(S'due'
p182
S'due'
p183
S'JJ'
p184
S'B-ADJP'
p185
g5
tp186
a(g37
g37
g37
g5
g5
tp187
a(S'in'
p188
S'in'
p189
S'IN'
p190
S'B-PP'
p191
g5
tp192
a(S'part'
p193
S'part'
p194
S'NN'
p195
S'B-NP'
p196
g5
tp197
a(g37
g37
g37
g5
g5
tp198
a(S'to'
p199
S'to'
p200
S'TO'
p201
S'B-PP'
p202
g5
tp203
a(S'sex'
p204
S'sex'
p205
S'NN'
p206
S'B-NP'
p207
g5
tp208
a(S'hormones.'
p209
S'hormones.'
p210
S'NN'
p211
S'I-NP'
p212
g5
tp213
a(S'The'
p214
S'The'
p215
S'DT'
p216
S'B-NP'
p217
g5
tp218
a(S'present'
p219
S'present'
p220
S'JJ'
p221
S'I-NP'
p222
g5
tp223
a(S'study'
p224
S'study'
p225
S'NN'
p226
S'I-NP'
p227
g5
tp228
a(S'characterized'
p229
S'characterize'
p230
S'VBD'
p231
S'B-VP'
p232
g5
tp233
a(S'mood'
p234
S'mood'
p235
S'NN'
p236
S'B-NP'
p237
g5
tp238
a(g37
g37
g37
g5
g5
tp239
a(S'premenstrual'
p240
S'premenstrual'
p241
S'JJ'
p242
S'B-NP'
p243
g5
tp244
a(S'symptomatology'
p245
S'symptomatology'
p246
S'NN'
p247
S'I-NP'
p248
g5
tp249
a(g37
g37
g37
g5
g5
tp250
a(S'and'
p251
S'and'
p252
S'CC'
p253
g5
g5
tp254
a(S'smoking'
p255
S'smoking'
p256
S'NN'
p257
S'B-NP'
p258
g5
tp259
a(S'withdrawal'
p260
S'withdrawal'
p261
S'NN'
p262
S'I-NP'
p263
g5
tp264
a(g37
g37
g37
g5
g5
tp265
a(S'as'
p266
S'as'
p267
S'RB'
p268
S'B-CONJP'
p269
g5
tp270
a(S'well'
p271
S'well'
p272
S'RB'
p273
S'I-CONJP'
p274
g5
tp275
a(S'as'
p276
S'as'
p277
S'IN'
p278
S'I-CONJP'
p279
g5
tp280
a(S'smoking'
p281
S'smoking'
p282
S'NN'
p283
S'B-NP'
p284
g5
tp285
a(S'behavior'
p286
S'behavior'
p287
S'NN'
p288
S'I-NP'
p289
g5
tp290
a(g37
g37
g37
g5
g5
tp291
a(S'in'
p292
S'in'
p293
S'IN'
p294
S'B-PP'
p295
g5
tp296
a(S'the'
p297
S'the'
p298
S'DT'
p299
S'B-NP'
p300
g5
tp301
a(S'follicular'
p302
S'follicular'
p303
S'JJ'
p304
S'I-NP'
p305
g5
tp306
a(S'and'
p307
S'and'
p308
S'CC'
p309
S'I-NP'
p310
g5
tp311
a(S'luteal'
p312
S'luteal'
p313
S'JJ'
p314
S'I-NP'
p315
g5
tp316
a(S'phases'
p317
S'phase'
p318
S'NNS'
p319
S'I-NP'
p320
g5
tp321
a(S'during'
p322
S'during'
p323
S'IN'
p324
S'B-PP'
p325
g5
tp326
a(S'ad'
p327
S'ad'
p328
S'NN'
p329
S'B-NP'
p330
g5
tp331
a(S'libitum'
p332
S'libitum'
p333
S'NN'
p334
S'I-NP'
p335
g5
tp336
a(S'smoking'
p337
S'smoking'
p338
S'NN'
p339
S'I-NP'
p340
g5
tp341
a(S'in'
p342
S'in'
p343
S'IN'
p344
S'B-PP'
p345
g5
tp346
a(S'25'
p347
S'25'
p348
S'CD'
p349
S'B-NP'
p350
g5
tp351
a(S'women'
p352
S'woman'
p353
S'NNS'
p354
S'I-NP'
p355
g5
tp356
a(S'intending'
p357
S'intend'
p358
S'VBG'
p359
S'B-VP'
p360
g5
tp361
a(S'to'
p362
S'to'
p363
S'TO'
p364
S'I-VP'
p365
g5
tp366
a(S'quit.'
p367
S'quit.'
p368
S'VB'
p369
S'I-VP'
p370
g5
tp371
a(S'We'
p372
S'We'
p373
S'PRP'
p374
S'B-NP'
p375
g5
tp376
a(S'also'
p377
S'also'
p378
S'RB'
p379
S'B-ADVP'
p380
g5
tp381
a(S'investigated'
p382
S'investigate'
p383
S'VBD'
p384
S'B-VP'
p385
g5
tp386
a(S'the'
p387
S'the'
p388
S'DT'
p389
S'B-NP'
p390
g5
tp391
a(S'possible'
p392
S'possible'
p393
S'JJ'
p394
S'I-NP'
p395
g5
tp396
a(S'influence'
p397
S'influence'
p398
S'NN'
p399
S'I-NP'
p400
g5
tp401
a(S'of'
p402
S'of'
p403
S'IN'
p404
S'B-PP'
p405
g5
tp406
a(S'phase-related'
p407
S'phase-related'
p408
S'JJ'
p409
S'B-NP'
p410
g5
tp411
a(S'variability'
p412
S'variability'
p413
S'NN'
p414
S'I-NP'
p415
g5
tp416
a(S'in'
p417
S'in'
p418
S'IN'
p419
S'B-PP'
p420
g5
tp421
a(S'these'
p422
S'these'
p423
S'DT'
p424
S'B-NP'
p425
g5
tp426
a(S'measures'
p427
S'measure'
p428
S'NNS'
p429
S'I-NP'
p430
g5
tp431
a(S'on'
p432
S'on'
p433
S'IN'
p434
S'B-PP'
p435
g5
tp436
a(S'likelihood'
p437
S'likelihood'
p438
S'NN'
p439
S'B-NP'
p440
g5
tp441
a(S'of'
p442
S'of'
p443
S'IN'
p444
S'B-PP'
p445
g5
tp446
a(S'study'
p447
S'study'
p448
S'NN'
p449
S'B-NP'
p450
g5
tp451
a(S'adherence'
p452
S'adherence'
p453
S'NN'
p454
S'I-NP'
p455
g5
tp456
a(S'and'
p457
S'and'
p458
S'CC'
p459
S'I-NP'
p460
g5
tp461
a(S'smoking'
p462
S'smoking'
p463
S'NN'
p464
S'I-NP'
p465
g5
tp466
a(S'cessation.'
p467
S'cessation.'
p468
S'NN'
p469
S'I-NP'
p470
g5
tp471
a(S'We'
p472
S'We'
p473
S'PRP'
p474
S'B-NP'
p475
g5
tp476
a(S'found'
p477
S'find'
p478
S'VBD'
p479
S'B-VP'
p480
g5
tp481
a(S'that'
p482
S'that'
p483
S'IN'
p484
S'B-SBAR'
p485
g5
tp486
a(S'premenstrual'
p487
S'premenstrual'
p488
S'JJ'
p489
S'B-NP'
p490
g5
tp491
a(S'symptomatology'
p492
S'symptomatology'
p493
S'NN'
p494
S'I-NP'
p495
g5
tp496
a(g37
g37
g37
g5
g5
tp497
a(S'as'
p498
S'as'
p499
S'RB'
p500
S'B-CONJP'
p501
g5
tp502
a(S'well'
p503
S'well'
p504
S'RB'
p505
S'I-CONJP'
p506
g5
tp507
a(S'as'
p508
S'as'
p509
S'IN'
p510
S'I-CONJP'
p511
g5
tp512
a(S'some'
p513
S'some'
p514
S'DT'
p515
S'B-NP'
p516
g5
tp517
a(S'measures'
p518
S'measure'
p519
S'NNS'
p520
S'I-NP'
p521
g5
tp522
a(S'of'
p523
S'of'
p524
S'IN'
p525
S'B-PP'
p526
g5
tp527
a(S'mood'
p528
S'mood'
p529
S'NN'
p530
S'B-NP'
p531
g5
tp532
a(S'and'
p533
S'and'
p534
S'CC'
p535
S'I-NP'
p536
g5
tp537
a(S'smoking'
p538
S'smoking'
p539
S'NN'
p540
S'I-NP'
p541
g5
tp542
a(S'withdrawal'
p543
S'withdrawal'
p544
S'NN'
p545
S'I-NP'
p546
g5
tp547
a(g37
g37
g37
g5
g5
tp548
a(S'were'
p549
S'be'
p550
S'VBD'
p551
S'B-VP'
p552
g5
tp553
a(S'significantly'
p554
S'significantly'
p555
S'RB'
p556
S'B-ADJP'
p557
g5
tp558
a(S'higher'
p559
S'high'
p560
S'JJR'
p561
S'I-ADJP'
p562
g5
tp563
a(S'during'
p564
S'during'
p565
S'IN'
p566
S'B-PP'
p567
g5
tp568
a(S'the'
p569
S'the'
p570
S'DT'
p571
S'B-NP'
p572
g5
tp573
a(S'luteal'
p574
S'luteal'
p575
S'JJ'
p576
S'I-NP'
p577
g5
tp578
a(S'phase'
p579
S'phase'
p580
S'NN'
p581
S'I-NP'
p582
g5
tp583
a(S'than'
p584
S'than'
p585
S'IN'
p586
S'B-PP'
p587
g5
tp588
a(S'in'
p589
S'in'
p590
S'IN'
p591
S'B-PP'
p592
g5
tp593
a(S'the'
p594
S'the'
p595
S'DT'
p596
S'B-NP'
p597
g5
tp598
a(S'follicular'
p599
S'follicular'
p600
S'JJ'
p601
S'I-NP'
p602
g5
tp603
a(S'phase.'
p604
S'phase.'
p605
S'NN'
p606
S'I-NP'
p607
g5
tp608
a(S'Cigarettes/day'
p609
S'Cigarettes/day'
p610
S'NNP'
p611
S'B-NP'
p612
g5
tp613
a(S'did'
p614
S'do'
p615
S'VBD'
p616
S'B-VP'
p617
g5
tp618
a(S'not'
p619
S'not'
p620
S'RB'
p621
S'I-VP'
p622
g5
tp623
a(S'vary'
p624
S'vary'
p625
S'JJ'
p626
S'I-VP'
p627
g5
tp628
a(S'by'
p629
S'by'
p630
S'IN'
p631
S'B-PP'
p632
g5
tp633
a(S'menstrual'
p634
S'menstrual'
p635
S'JJ'
p636
S'B-NP'
p637
g5
tp638
a(S'cycle'
p639
S'cycle'
p640
S'NN'
p641
S'I-NP'
p642
g5
tp643
a(S'phase.'
p644
S'phase.'
p645
S'NN'
p646
S'I-NP'
p647
g5
tp648
a(S'Phase-related'
p649
S'Phase-related'
p650
S'JJ'
p651
S'I-NP'
p652
g5
tp653
a(S'variability'
p654
S'variability'
p655
S'NN'
p656
S'I-NP'
p657
g5
tp658
a(S'in'
p659
S'in'
p660
S'IN'
p661
S'B-PP'
p662
g5
tp663
a(S'premenstrual'
p664
S'premenstrual'
p665
S'JJ'
p666
S'B-NP'
p667
g5
tp668
a(S'symptomatology'
p669
S'symptomatology'
p670
S'NN'
p671
S'I-NP'
p672
g5
tp673
a(S'['
p674
g674
S'('
p675
g5
g5
tp676
a(S'F'
p677
g677
S'NN'
p678
S'B-NP'
p679
g5
tp680
a(g675
g675
g675
g5
g5
tp681
a(S'3'
p682
g682
S'CD'
p683
S'B-NP'
p684
g5
tp685
a(g37
g37
g37
S'I-NP'
p686
g5
tp687
a(S'20'
p688
S'20'
p689
S'CD'
p690
S'I-NP'
p691
g5
tp692
a(S')'
p693
g693
g693
g5
g5
tp694
a(S'=2.82'
p695
S'=2.82'
p696
S'CD'
p697
S'B-NP'
p698
g5
tp699
a(g37
g37
g37
g5
g5
tp700
a(S'p=0.0650'
p701
S'p=0.0650'
p702
S'NN'
p703
S'B-NP'
p704
g5
tp705
a(g693
g693
g693
g5
g5
tp706
a(S']'
p707
g707
g693
g5
g5
tp708
a(S'and'
p709
S'and'
p710
S'CC'
p711
g5
g5
tp712
a(S'urge'
p713
S'urge'
p714
S'VBP'
p715
S'B-VP'
p716
g5
tp717
a(S'to'
p718
S'to'
p719
S'TO'
p720
S'I-VP'
p721
g5
tp722
a(S'smoke'
p723
S'smoke'
p724
S'VB'
p725
S'I-VP'
p726
g5
tp727
a(g674
g674
g675
g5
g5
tp728
a(g677
g677
S'NN'
p729
S'B-NP'
p730
g5
tp731
a(g675
g675
g675
g5
g5
tp732
a(S'2'
p733
g733
S'CD'
p734
S'B-NP'
p735
g5
tp736
a(g37
g37
g37
g5
g5
tp737
a(S'21'
p738
S'21'
p739
S'CD'
p740
S'B-NP'
p741
g5
tp742
a(g693
g693
g693
g5
g5
tp743
a(S'=4.85'
p744
S'=4.85'
p745
S'CD'
p746
S'B-NP'
p747
g5
tp748
a(g37
g37
g37
g5
g5
tp749
a(S'p=0.0186'
p750
S'p=0.0186'
p751
S'NN'
p752
S'B-NP'
p753
g5
tp754
a(g693
g693
g693
g5
g5
tp755
a(g707
g707
g693
g5
g5
tp756
a(S'were'
p757
S'be'
p758
S'VBD'
p759
S'B-VP'
p760
g5
tp761
a(S'associated'
p762
S'associate'
p763
S'VBN'
p764
S'I-VP'
p765
g5
tp766
a(S'with'
p767
S'with'
p768
S'IN'
p769
S'B-PP'
p770
g5
tp771
a(S'relapse.'
p772
S'relapse.'
p773
S'NN'
p774
S'B-NP'
p775
g5
tp776
a(S'These'
p777
S'These'
p778
S'DT'
p779
S'B-NP'
p780
g5
tp781
a(S'data'
p782
S'datum'
p783
S'NNS'
p784
S'I-NP'
p785
g5
tp786
a(S'support'
p787
S'support'
p788
S'VBP'
p789
S'B-VP'
p790
g5
tp791
a(S'the'
p792
S'the'
p793
S'DT'
p794
S'B-NP'
p795
g5
tp796
a(S'inference'
p797
S'inference'
p798
S'NN'
p799
S'I-NP'
p800
g5
tp801
a(S'that'
p802
S'that'
p803
S'IN'
p804
S'B-SBAR'
p805
g5
tp806
a(S'sex'
p807
S'sex'
p808
S'NN'
p809
S'B-NP'
p810
g5
tp811
a(S'hormones'
p812
S'hormone'
p813
S'NNS'
p814
S'I-NP'
p815
g5
tp816
a(S'influence'
p817
S'influence'
p818
S'VBP'
p819
S'B-VP'
p820
g5
tp821
a(S'smoking'
p822
S'smoking'
p823
S'NN'
p824
S'B-NP'
p825
g5
tp826
a(S'cessation'
p827
S'cessation'
p828
S'NN'
p829
S'I-NP'
p830
g5
tp831
a(S'outcome.'
p832
S'outcome.'
p833
S'RB'
p834
S'B-ADVP'
p835
g5
tp836
a(S'This'
p837
S'This'
p838
S'DT'
p839
S'B-NP'
p840
g5
tp841
a(S'knowledge'
p842
S'knowledge'
p843
S'NN'
p844
S'I-NP'
p845
g5
tp846
a(S'may'
p847
S'may'
p848
S'MD'
p849
S'B-VP'
p850
g5
tp851
a(S'contribute'
p852
S'contribute'
p853
S'VB'
p854
S'I-VP'
p855
g5
tp856
a(S'to'
p857
S'to'
p858
S'TO'
p859
S'B-PP'
p860
g5
tp861
a(S'the'
p862
S'the'
p863
S'DT'
p864
S'B-NP'
p865
g5
tp866
a(S'development'
p867
S'development'
p868
S'NN'
p869
S'I-NP'
p870
g5
tp871
a(S'of'
p872
S'of'
p873
S'IN'
p874
S'B-PP'
p875
g5
tp876
a(S'more'
p877
S'more'
p878
S'RBR'
p879
S'B-NP'
p880
g5
tp881
a(S'rational'
p882
S'rational'
p883
S'JJ'
p884
S'I-NP'
p885
g5
tp886
a(S'and'
p887
S'and'
p888
S'CC'
p889
S'I-NP'
p890
g5
tp891
a(S'effective'
p892
S'effective'
p893
S'JJ'
p894
S'I-NP'
p895
g5
tp896
a(S'smoking'
p897
S'smoking'
p898
S'NN'
p899
S'I-NP'
p900
g5
tp901
a(S'cessation'
p902
S'cessation'
p903
S'NN'
p904
S'I-NP'
p905
g5
tp906
a(S'interventions'
p907
S'intervention'
p908
S'NNS'
p909
S'I-NP'
p910
g5
tp911
a(S'for'
p912
S'for'
p913
S'IN'
p914
S'B-PP'
p915
g5
tp916
a(S'women'
p917
S'woman'
p918
S'NNS'
p919
S'B-NP'
p920
g5
tp921
a(g111
g111
g111
g5
g5
tp922
a.