(lp0
(S'Quick'
p1
S'Quick'
p2
S'NNP'
p3
S'B-NP'
p4
S'O'
p5
tp6
a(S'change'
p7
S'change'
p8
S'NN'
p9
S'I-NP'
p10
g5
tp11
a(S'versus'
p12
S'versus'
p13
S'IN'
p14
S'B-PP'
p15
g5
tp16
a(S'double'
p17
S'double'
p18
S'JJ'
p19
S'B-NP'
p20
g5
tp21
a(S'pump'
p22
S'pump'
p23
S'NN'
p24
S'I-NP'
p25
g5
tp26
a(S'while'
p27
S'while'
p28
S'IN'
p29
S'B-SBAR'
p30
g5
tp31
a(S'changing'
p32
S'change'
p33
S'VBG'
p34
S'B-VP'
p35
g5
tp36
a(S'the'
p37
S'the'
p38
S'DT'
p39
S'B-NP'
p40
g5
tp41
a(S'infusion'
p42
S'infusion'
p43
S'NN'
p44
S'I-NP'
p45
g5
tp46
a(S'of'
p47
S'of'
p48
S'IN'
p49
S'B-PP'
p50
g5
tp51
a(S'inotropes'
p52
S'inotrope'
p53
S'NNS'
p54
S'B-NP'
p55
g5
tp56
a(S':'
p57
g57
g57
g5
g5
tp58
a(S'an'
p59
S'an'
p60
S'DT'
p61
S'B-NP'
p62
g5
tp63
a(S'experimental'
p64
S'experimental'
p65
S'JJ'
p66
S'I-NP'
p67
g5
tp68
a(S'study'
p69
S'study'
p70
S'NN'
p71
S'I-NP'
p72
g5
tp73
a(S'.'
p74
g74
g74
g5
g5
tp75
a(S'BACKGROUND'
p76
S'BACKGROUND'
p77
S'NN'
p78
S'B-NP'
p79
g5
tp80
a(S'Quick'
p81
S'Quick'
p82
S'NN'
p83
S'I-NP'
p84
g5
tp85
a(S'change'
p86
S'change'
p87
S'NN'
p88
S'I-NP'
p89
g5
tp90
a(S'('
p91
g91
g91
g5
g5
tp92
a(S'QC'
p93
S'QC'
p94
S'NN'
p95
S'B-NP'
p96
g5
tp97
a(S')'
p98
g98
g98
g5
g5
tp99
a(S'and'
p100
S'and'
p101
S'CC'
p102
g5
g5
tp103
a(S'double'
p104
S'double'
p105
S'JJ'
p106
S'B-NP'
p107
g5
tp108
a(S'pumping'
p109
S'pumping'
p110
S'NN'
p111
S'I-NP'
p112
g5
tp113
a(g91
g91
g91
g5
g5
tp114
a(S'DP'
p115
S'DP'
p116
S'NN'
p117
S'B-NP'
p118
g5
tp119
a(g98
g98
g98
g5
g5
tp120
a(S'are'
p121
S'be'
p122
S'VBP'
p123
S'B-VP'
p124
g5
tp125
a(S'common'
p126
S'common'
p127
S'JJ'
p128
S'B-NP'
p129
g5
tp130
a(S'methods'
p131
S'method'
p132
S'NNS'
p133
S'I-NP'
p134
g5
tp135
a(S'of'
p136
S'of'
p137
S'IN'
p138
S'B-PP'
p139
g5
tp140
a(S'substituting'
p141
S'substitute'
p142
S'VBG'
p143
S'B-VP'
p144
g5
tp145
a(S'the'
p146
S'the'
p147
S'DT'
p148
S'B-NP'
p149
g5
tp150
a(S'infusion'
p151
S'infusion'
p152
S'NN'
p153
S'I-NP'
p154
g5
tp155
a(S'of'
p156
S'of'
p157
S'IN'
p158
S'B-PP'
p159
g5
tp160
a(S'inotropes'
p161
S'inotrope'
p162
S'NNS'
p163
S'B-NP'
p164
g5
tp165
a(S'given'
p166
S'give'
p167
S'VBN'
p168
S'B-VP'
p169
g5
tp170
a(S'through'
p171
S'through'
p172
S'IN'
p173
S'B-PP'
p174
g5
tp175
a(S'intravenous'
p176
S'intravenous'
p177
S'JJ'
p178
S'B-NP'
p179
g5
tp180
a(S'pump'
p181
S'pump'
p182
S'NN'
p183
S'I-NP'
p184
g5
tp185
a(g74
g74
g74
g5
g5
tp186
a(S'AIMS'
p187
S'AIMS'
p188
S'NNS'
p189
S'B-NP'
p190
g5
tp191
a(S'The'
p192
S'The'
p193
S'DT'
p194
S'B-NP'
p195
g5
tp196
a(S'aim'
p197
S'aim'
p198
S'NN'
p199
S'I-NP'
p200
g5
tp201
a(S'of'
p202
S'of'
p203
S'IN'
p204
S'B-PP'
p205
g5
tp206
a(S'the'
p207
S'the'
p208
S'DT'
p209
S'B-NP'
p210
g5
tp211
a(S'study'
p212
S'study'
p213
S'NN'
p214
S'I-NP'
p215
g5
tp216
a(S'was'
p217
S'be'
p218
S'VBD'
p219
S'B-VP'
p220
g5
tp221
a(S'to'
p222
S'to'
p223
S'TO'
p224
S'B-VP'
p225
g5
tp226
a(S'compare'
p227
S'compare'
p228
S'VB'
p229
S'I-VP'
p230
g5
tp231
a(S'two'
p232
S'two'
p233
S'CD'
p234
S'B-NP'
p235
g5
tp236
a(S'methods'
p237
S'method'
p238
S'NNS'
p239
S'I-NP'
p240
g5
tp241
a(S'in'
p242
S'in'
p243
S'IN'
p244
S'B-PP'
p245
g5
tp246
a(S'respect'
p247
S'respect'
p248
S'NN'
p249
S'B-NP'
p250
g5
tp251
a(S'with'
p252
S'with'
p253
S'IN'
p254
S'B-PP'
p255
g5
tp256
a(S'the'
p257
S'the'
p258
S'DT'
p259
S'B-NP'
p260
g5
tp261
a(S'variation'
p262
S'variation'
p263
S'NN'
p264
S'I-NP'
p265
g5
tp266
a(S'in'
p267
S'in'
p268
S'IN'
p269
S'B-PP'
p270
g5
tp271
a(S'mean'
p272
S'mean'
p273
S'JJ'
p274
S'B-NP'
p275
g5
tp276
a(S'arterial'
p277
S'arterial'
p278
S'JJ'
p279
S'I-NP'
p280
g5
tp281
a(S'pressure'
p282
S'pressure'
p283
S'NN'
p284
S'I-NP'
p285
g5
tp286
a(g91
g91
g91
g5
g5
tp287
a(S'MAP'
p288
S'MAP'
p289
S'NN'
p290
S'B-NP'
p291
g5
tp292
a(g98
g98
g98
g5
g5
tp293
a(g74
g74
g74
g5
g5
tp294
a(S'The'
p295
S'The'
p296
S'DT'
p297
S'B-NP'
p298
g5
tp299
a(S'hypothesis'
p300
S'hypothesis'
p301
S'NN'
p302
S'I-NP'
p303
g5
tp304
a(S'was'
p305
S'be'
p306
S'VBD'
p307
S'B-VP'
p308
g5
tp309
a(S'that'
p310
S'that'
p311
S'IN'
p312
S'B-SBAR'
p313
g5
tp314
a(S'the'
p315
S'the'
p316
S'DT'
p317
S'B-NP'
p318
g5
tp319
a(S'DP'
p320
S'DP'
p321
S'NN'
p322
S'I-NP'
p323
g5
tp324
a(S'method'
p325
S'method'
p326
S'NN'
p327
S'I-NP'
p328
g5
tp329
a(S'could'
p330
S'could'
p331
S'MD'
p332
S'B-VP'
p333
g5
tp334
a(S'be'
p335
S'be'
p336
S'VB'
p337
S'I-VP'
p338
g5
tp339
a(S'the'
p340
S'the'
p341
S'DT'
p342
S'B-NP'
p343
g5
tp344
a(S'most'
p345
S'most'
p346
S'RBS'
p347
S'I-NP'
p348
g5
tp349
a(S'effective'
p350
S'effective'
p351
S'JJ'
p352
S'I-NP'
p353
g5
tp354
a(S'in'
p355
S'in'
p356
S'IN'
p357
S'B-PP'
p358
g5
tp359
a(S'achieving'
p360
S'achieve'
p361
S'VBG'
p362
S'B-VP'
p363
g5
tp364
a(S'haemodynamic'
p365
S'haemodynamic'
p366
S'JJ'
p367
S'B-NP'
p368
g5
tp369
a(S'stability'
p370
S'stability'
p371
S'NN'
p372
S'I-NP'
p373
g5
tp374
a(g74
g74
g74
g5
g5
tp375
a(S'DESIGN'
p376
S'DESIGN'
p377
S'NN'
p378
S'B-NP'
p379
g5
tp380
a(S'The'
p381
S'The'
p382
S'DT'
p383
S'B-NP'
p384
g5
tp385
a(S'study'
p386
S'study'
p387
S'NN'
p388
S'I-NP'
p389
g5
tp390
a(S'is'
p391
S'be'
p392
S'VBZ'
p393
S'B-VP'
p394
g5
tp395
a(S'a'
p396
g396
S'DT'
p397
S'B-NP'
p398
g5
tp399
a(S'randomized'
p400
S'randomize'
p401
S'VBN'
p402
S'I-NP'
p403
g5
tp404
a(S'research'
p405
S'research'
p406
S'NN'
p407
S'I-NP'
p408
g5
tp409
a(S'in'
p410
S'in'
p411
S'IN'
p412
S'B-PP'
p413
g5
tp414
a(S'an'
p415
S'an'
p416
S'DT'
p417
S'B-NP'
p418
g5
tp419
a(S'open'
p420
S'open'
p421
S'JJ'
p422
S'I-NP'
p423
g5
tp424
a(S'randomized'
p425
S'randomize'
p426
S'VBN'
p427
S'I-NP'
p428
g5
tp429
a(S'clinical'
p430
S'clinical'
p431
S'JJ'
p432
S'I-NP'
p433
g5
tp434
a(S'trial'
p435
S'trial'
p436
S'NN'
p437
S'I-NP'
p438
g5
tp439
a(g74
g74
g74
g5
g5
tp440
a(S'METHODS'
p441
S'METHODS'
p442
S'NNS'
p443
S'B-NP'
p444
g5
tp445
a(S'The'
p446
S'The'
p447
S'DT'
p448
S'B-NP'
p449
g5
tp450
a(S'study'
p451
S'study'
p452
S'NN'
p453
S'I-NP'
p454
g5
tp455
a(S'took'
p456
S'take'
p457
S'VBD'
p458
S'B-VP'
p459
g5
tp460
a(S'place'
p461
S'place'
p462
S'NN'
p463
S'B-NP'
p464
g5
tp465
a(S'at'
p466
S'at'
p467
S'IN'
p468
S'B-PP'
p469
g5
tp470
a(S'the'
p471
S'the'
p472
S'DT'
p473
S'B-NP'
p474
g5
tp475
a(S'Paediatric'
p476
S'Paediatric'
p477
S'NNP'
p478
S'I-NP'
p479
g5
tp480
a(S'Intensive'
p481
S'Intensive'
p482
S'NNP'
p483
S'I-NP'
p484
g5
tp485
a(S'Care'
p486
S'Care'
p487
S'NNP'
p488
S'I-NP'
p489
g5
tp490
a(S'Unit'
p491
S'Unit'
p492
S'NNP'
p493
S'I-NP'
p494
g5
tp495
a(S'of'
p496
S'of'
p497
S'IN'
p498
S'B-PP'
p499
g5
tp500
a(S'Padua'
p501
S'Padua'
p502
S'NNP'
p503
S'B-NP'
p504
g5
tp505
a(S'Hospital.'
p506
S'Hospital.'
p507
S'NNP'
p508
S'I-NP'
p509
g5
tp510
a(S'It'
p511
S'It'
p512
S'PRP'
p513
S'B-NP'
p514
g5
tp515
a(S'considered'
p516
S'consider'
p517
S'VBD'
p518
S'B-VP'
p519
g5
tp520
a(S'patients'
p521
S'patient'
p522
S'NNS'
p523
S'B-NP'
p524
g5
tp525
a(S'of'
p526
S'of'
p527
S'IN'
p528
S'B-PP'
p529
g5
tp530
a(S'0-36'
p531
S'0-36'
p532
S'CD'
p533
S'B-NP'
p534
g5
tp535
a(S'months'
p536
S'month'
p537
S'NNS'
p538
S'I-NP'
p539
g5
tp540
a(S','
p541
g541
g541
g5
g5
tp542
a(S'not'
p543
S'not'
p544
S'RB'
p545
S'B-ADJP'
p546
g5
tp547
a(S'premature'
p548
S'premature'
p549
S'JJ'
p550
S'I-ADJP'
p551
g5
tp552
a(g541
g541
g541
g5
g5
tp553
a(S'treated'
p554
S'treat'
p555
S'VBN'
p556
S'B-VP'
p557
g5
tp558
a(S'with'
p559
S'with'
p560
S'IN'
p561
S'B-PP'
p562
g5
tp563
a(S'inotropic'
p564
S'inotropic'
p565
S'JJ'
p566
S'B-NP'
p567
g5
tp568
a(S'infusion'
p569
S'infusion'
p570
S'NN'
p571
S'I-NP'
p572
g5
tp573
a(S'with'
p574
S'with'
p575
S'IN'
p576
S'B-PP'
p577
g5
tp578
a(S'monitoring'
p579
S'monitoring'
p580
S'NN'
p581
S'B-NP'
p582
g5
tp583
a(S'of'
p584
S'of'
p585
S'IN'
p586
S'B-PP'
p587
g5
tp588
a(S'blood'
p589
S'blood'
p590
S'NN'
p591
S'B-NP'
p592
g5
tp593
a(S'pressure.'
p594
S'pressure.'
p595
S'NN'
p596
S'I-NP'
p597
g5
tp598
a(S'The'
p599
S'The'
p600
S'DT'
p601
S'B-NP'
p602
g5
tp603
a(S'research'
p604
S'research'
p605
S'NN'
p606
S'I-NP'
p607
g5
tp608
a(S'obtained'
p609
S'obtain'
p610
S'VBD'
p611
S'B-VP'
p612
g5
tp613
a(S'the'
p614
S'the'
p615
S'DT'
p616
S'B-NP'
p617
g5
tp618
a(S'approval'
p619
S'approval'
p620
S'NN'
p621
S'I-NP'
p622
g5
tp623
a(S'of'
p624
S'of'
p625
S'IN'
p626
S'B-PP'
p627
g5
tp628
a(S'the'
p629
S'the'
p630
S'DT'
p631
S'B-NP'
p632
g5
tp633
a(S'Hospital'
p634
S'Hospital'
p635
S'NNP'
p636
S'I-NP'
p637
g5
tp638
a(S'Research'
p639
S'Research'
p640
S'NNP'
p641
S'I-NP'
p642
g5
tp643
a(S'Ethics'
p644
S'Ethics'
p645
S'NNP'
p646
S'I-NP'
p647
g5
tp648
a(S'committee'
p649
S'committee'
p650
S'NN'
p651
S'I-NP'
p652
g5
tp653
a(S'and'
p654
S'and'
p655
S'CC'
p656
S'I-NP'
p657
g5
tp658
a(S'parents'
p659
S'parent'
p660
S'NNS'
p661
S'I-NP'
p662
g5
tp663
a(S'signed'
p664
S'sign'
p665
S'VBD'
p666
S'B-VP'
p667
g5
tp668
a(S'informed'
p669
S'inform'
p670
S'VBN'
p671
S'I-VP'
p672
g5
tp673
a(S'consent.'
p674
S'consent.'
p675
S'NN'
p676
S'B-NP'
p677
g5
tp678
a(S'Comparison'
p679
S'Comparison'
p680
S'NN'
p681
S'I-NP'
p682
g5
tp683
a(S'of'
p684
S'of'
p685
S'IN'
p686
S'B-PP'
p687
g5
tp688
a(S'the'
p689
S'the'
p690
S'DT'
p691
S'B-NP'
p692
g5
tp693
a(S'two'
p694
S'two'
p695
S'CD'
p696
S'I-NP'
p697
g5
tp698
a(S'groups'
p699
S'group'
p700
S'NNS'
p701
S'I-NP'
p702
g5
tp703
a(S'made'
p704
S'make'
p705
S'VBD'
p706
S'B-VP'
p707
g5
tp708
a(S'use'
p709
S'use'
p710
S'NN'
p711
S'B-NP'
p712
g5
tp713
a(S'of'
p714
S'of'
p715
S'IN'
p716
S'B-PP'
p717
g5
tp718
a(S'the'
p719
S'the'
p720
S'DT'
p721
S'B-NP'
p722
g5
tp723
a(S'Wilcoxon'
p724
S'Wilcoxon'
p725
S'NNP'
p726
S'I-NP'
p727
g5
tp728
a(S'test'
p729
S'test'
p730
S'NN'
p731
S'I-NP'
p732
g5
tp733
a(S'for'
p734
S'for'
p735
S'IN'
p736
S'B-PP'
p737
g5
tp738
a(S'the'
p739
S'the'
p740
S'DT'
p741
S'B-NP'
p742
g5
tp743
a(S'continuous'
p744
S'continuous'
p745
S'JJ'
p746
S'I-NP'
p747
g5
tp748
a(S'variables'
p749
S'variable'
p750
S'NNS'
p751
S'I-NP'
p752
g5
tp753
a(S'and'
p754
S'and'
p755
S'CC'
p756
g5
g5
tp757
a(S'the'
p758
S'the'
p759
S'DT'
p760
S'B-NP'
p761
g5
tp762
a(S'Fisher'
p763
S'Fisher'
p764
S'NNP'
p765
S'I-NP'
p766
g5
tp767
a(S"'s"
p768
S"'s"
p769
S'POS'
p770
S'B-NP'
p771
g5
tp772
a(S'exact'
p773
S'exact'
p774
S'JJ'
p775
S'I-NP'
p776
g5
tp777
a(S'test'
p778
S'test'
p779
S'NN'
p780
S'I-NP'
p781
g5
tp782
a(S'for'
p783
S'for'
p784
S'IN'
p785
S'B-PP'
p786
g5
tp787
a(S'the'
p788
S'the'
p789
S'DT'
p790
S'B-NP'
p791
g5
tp792
a(S'comparison'
p793
S'comparison'
p794
S'NN'
p795
S'I-NP'
p796
g5
tp797
a(S'of'
p798
S'of'
p799
S'IN'
p800
S'B-PP'
p801
g5
tp802
a(S'frequencies'
p803
S'frequency'
p804
S'NNS'
p805
S'B-NP'
p806
g5
tp807
a(g541
g541
g541
g5
g5
tp808
a(S'at'
p809
S'at'
p810
S'IN'
p811
S'B-PP'
p812
g5
tp813
a(S'significance'
p814
S'significance'
p815
S'NN'
p816
S'B-NP'
p817
g5
tp818
a(S'value'
p819
S'value'
p820
S'NN'
p821
S'I-NP'
p822
g5
tp823
a(S'of'
p824
S'of'
p825
S'IN'
p826
S'B-PP'
p827
g5
tp828
a(S'5'
p829
g829
S'CD'
p830
S'B-NP'
p831
g5
tp832
a(S'%'
p833
g833
S'NN'
p834
S'I-NP'
p835
g5
tp836
a(g74
g74
g74
g5
g5
tp837
a(S'The'
p838
S'The'
p839
S'DT'
p840
S'B-NP'
p841
g5
tp842
a(S'data'
p843
S'datum'
p844
S'NNS'
p845
S'I-NP'
p846
g5
tp847
a(S'were'
p848
S'be'
p849
S'VBD'
p850
S'B-VP'
p851
g5
tp852
a(S'registered'
p853
S'register'
p854
S'VBN'
p855
S'I-VP'
p856
g5
tp857
a(S'in'
p858
S'in'
p859
S'IN'
p860
S'B-PP'
p861
g5
tp862
a(S'an'
p863
S'an'
p864
S'DT'
p865
S'B-NP'
p866
g5
tp867
a(S'Excel'
p868
S'Excel'
p869
S'NNP'
p870
S'I-NP'
p871
g5
tp872
a(S'spreadsheet'
p873
S'spreadsheet'
p874
S'NN'
p875
S'I-NP'
p876
g5
tp877
a(S'and'
p878
S'and'
p879
S'CC'
p880
g5
g5
tp881
a(S'analysed'
p882
S'analyse'
p883
S'VBN'
p884
S'B-VP'
p885
g5
tp886
a(S'with'
p887
S'with'
p888
S'IN'
p889
S'B-PP'
p890
g5
tp891
a(S'SAS'
p892
S'SAS'
p893
S'NN'
p894
S'B-NP'
p895
S'B-protein'
p896
tp897
a(g74
g74
g74
g5
g5
tp898
a(S'RESULTS'
p899
S'RESULTS'
p900
S'NNS'
p901
S'B-NP'
p902
g5
tp903
a(S'The'
p904
S'The'
p905
S'DT'
p906
S'B-NP'
p907
g5
tp908
a(S'sample'
p909
S'sample'
p910
S'NN'
p911
S'I-NP'
p912
g5
tp913
a(S'comprised'
p914
S'comprise'
p915
S'VBD'
p916
S'B-VP'
p917
g5
tp918
a(S'30'
p919
S'30'
p920
S'CD'
p921
S'B-NP'
p922
g5
tp923
a(S'patients'
p924
S'patient'
p925
S'NNS'
p926
S'I-NP'
p927
g5
tp928
a(S'of'
p929
S'of'
p930
S'IN'
p931
S'B-PP'
p932
g5
tp933
a(S'age'
p934
S'age'
p935
S'NN'
p936
S'B-NP'
p937
g5
tp938
a(S'between'
p939
S'between'
p940
S'IN'
p941
S'B-PP'
p942
g5
tp943
a(S'1'
p944
g944
S'CD'
p945
S'B-NP'
p946
g5
tp947
a(S'and'
p948
S'and'
p949
S'CC'
p950
S'I-NP'
p951
g5
tp952
a(S'27'
p953
S'27'
p954
S'CD'
p955
S'I-NP'
p956
g5
tp957
a(S'months'
p958
S'month'
p959
S'NNS'
p960
S'I-NP'
p961
g5
tp962
a(g541
g541
g541
g5
g5
tp963
a(S'of'
p964
S'of'
p965
S'IN'
p966
S'B-PP'
p967
g5
tp968
a(S'whom'
p969
S'whom'
p970
S'WP'
p971
S'B-NP'
p972
g5
tp973
a(S'13'
p974
S'13'
p975
S'CD'
p976
S'B-NP'
p977
g5
tp978
a(g91
g91
g91
g5
g5
tp979
a(S'43'
p980
S'43'
p981
S'CD'
p982
S'B-NP'
p983
g5
tp984
a(g833
g833
S'NN'
p985
S'I-NP'
p986
g5
tp987
a(g98
g98
g98
g5
g5
tp988
a(S'were'
p989
S'be'
p990
S'VBD'
p991
S'B-VP'
p992
g5
tp993
a(S'male.'
p994
S'male.'
p995
S'FW'
p996
S'B-ADJP'
p997
g5
tp998
a(S'They'
p999
S'They'
p1000
S'PRP'
p1001
S'B-NP'
p1002
g5
tp1003
a(S'were'
p1004
S'be'
p1005
S'VBD'
p1006
S'B-VP'
p1007
g5
tp1008
a(S'all'
p1009
S'all'
p1010
S'DT'
p1011
g5
g5
tp1012
a(S'affected'
p1013
S'affect'
p1014
S'VBN'
p1015
S'B-VP'
p1016
g5
tp1017
a(S'by'
p1018
S'by'
p1019
S'IN'
p1020
S'B-PP'
p1021
g5
tp1022
a(S'cardiac'
p1023
S'cardiac'
p1024
S'JJ'
p1025
S'B-NP'
p1026
g5
tp1027
a(g541
g541
g541
S'I-NP'
p1028
g5
tp1029
a(S'respiratory'
p1030
S'respiratory'
p1031
S'JJ'
p1032
S'I-NP'
p1033
g5
tp1034
a(S'or'
p1035
S'or'
p1036
S'CC'
p1037
S'I-NP'
p1038
g5
tp1039
a(S'infective'
p1040
S'infective'
p1041
S'JJ'
p1042
S'I-NP'
p1043
g5
tp1044
a(S'pathology'
p1045
S'pathology'
p1046
S'NN'
p1047
S'I-NP'
p1048
g5
tp1049
a(g541
g541
g541
g5
g5
tp1050
a(S'all'
p1051
S'all'
p1052
S'DT'
p1053
S'B-NP'
p1054
g5
tp1055
a(S'of'
p1056
S'of'
p1057
S'IN'
p1058
S'B-PP'
p1059
g5
tp1060
a(S'them'
p1061
S'them'
p1062
S'PRP'
p1063
S'B-NP'
p1064
g5
tp1065
a(S'intubated'
p1066
S'intubated'
p1067
S'JJ'
p1068
S'B-ADJP'
p1069
g5
tp1070
a(S'and'
p1071
S'and'
p1072
S'CC'
p1073
g5
g5
tp1074
a(S'on'
p1075
S'on'
p1076
S'IN'
p1077
S'B-PP'
p1078
g5
tp1079
a(S'artificial'
p1080
S'artificial'
p1081
S'JJ'
p1082
S'B-NP'
p1083
g5
tp1084
a(S'respiratory'
p1085
S'respiratory'
p1086
S'JJ'
p1087
S'I-NP'
p1088
g5
tp1089
a(S'support'
p1090
S'support'
p1091
S'NN'
p1092
S'I-NP'
p1093
g5
tp1094
a(g541
g541
g541
g5
g5
tp1095
a(S'sedated'
p1096
S'sedate'
p1097
S'VBN'
p1098
S'B-VP'
p1099
g5
tp1100
a(S'and'
p1101
S'and'
p1102
S'CC'
p1103
S'I-VP'
p1104
g5
tp1105
a(S'infused'
p1106
S'infuse'
p1107
S'VBN'
p1108
S'I-VP'
p1109
g5
tp1110
a(S'with'
p1111
S'with'
p1112
S'IN'
p1113
S'B-PP'
p1114
g5
tp1115
a(S'dopamine.'
p1116
S'dopamine.'
p1117
S'NN'
p1118
S'B-NP'
p1119
g5
tp1120
a(S'The'
p1121
S'The'
p1122
S'DT'
p1123
S'B-NP'
p1124
g5
tp1125
a(S'characteristics'
p1126
S'characteristic'
p1127
S'NNS'
p1128
S'I-NP'
p1129
g5
tp1130
a(S'of'
p1131
S'of'
p1132
S'IN'
p1133
S'B-PP'
p1134
g5
tp1135
a(S'the'
p1136
S'the'
p1137
S'DT'
p1138
S'B-NP'
p1139
g5
tp1140
a(S'patients'
p1141
S'patient'
p1142
S'NNS'
p1143
S'I-NP'
p1144
g5
tp1145
a(S'of'
p1146
S'of'
p1147
S'IN'
p1148
S'B-PP'
p1149
g5
tp1150
a(S'the'
p1151
S'the'
p1152
S'DT'
p1153
S'B-NP'
p1154
g5
tp1155
a(S'two'
p1156
S'two'
p1157
S'CD'
p1158
S'I-NP'
p1159
g5
tp1160
a(S'groups'
p1161
S'group'
p1162
S'NNS'
p1163
S'I-NP'
p1164
g5
tp1165
a(S'did'
p1166
S'do'
p1167
S'VBD'
p1168
S'B-VP'
p1169
g5
tp1170
a(S'not'
p1171
S'not'
p1172
S'RB'
p1173
S'I-VP'
p1174
g5
tp1175
a(S'differ'
p1176
S'differ'
p1177
S'VB'
p1178
S'I-VP'
p1179
g5
tp1180
a(S'significantly.'
p1181
S'significantly.'
p1182
S'RB'
p1183
S'B-ADVP'
p1184
g5
tp1185
a(S'The'
p1186
S'The'
p1187
S'DT'
p1188
S'B-NP'
p1189
g5
tp1190
a(S'percentage'
p1191
S'percentage'
p1192
S'NN'
p1193
S'I-NP'
p1194
g5
tp1195
a(S'variation'
p1196
S'variation'
p1197
S'NN'
p1198
S'I-NP'
p1199
g5
tp1200
a(S'of'
p1201
S'of'
p1202
S'IN'
p1203
S'B-PP'
p1204
g5
tp1205
a(S'the'
p1206
S'the'
p1207
S'DT'
p1208
S'B-NP'
p1209
g5
tp1210
a(S'baseline'
p1211
S'baseline'
p1212
S'NN'
p1213
S'I-NP'
p1214
g5
tp1215
a(S'value'
p1216
S'value'
p1217
S'NN'
p1218
S'I-NP'
p1219
g5
tp1220
a(S'of'
p1221
S'of'
p1222
S'IN'
p1223
S'B-PP'
p1224
g5
tp1225
a(S'MAP'
p1226
S'MAP'
p1227
S'NN'
p1228
S'B-NP'
p1229
S'B-protein'
p1230
tp1231
a(S'after'
p1232
S'after'
p1233
S'IN'
p1234
S'B-PP'
p1235
g5
tp1236
a(S'30'
p1237
S'30'
p1238
S'CD'
p1239
S'B-NP'
p1240
g5
tp1241
a(S'min'
p1242
S'min'
p1243
S'NN'
p1244
S'I-NP'
p1245
g5
tp1246
a(S'from'
p1247
S'from'
p1248
S'IN'
p1249
S'B-PP'
p1250
g5
tp1251
a(S'starting'
p1252
S'start'
p1253
S'VBG'
p1254
S'B-VP'
p1255
g5
tp1256
a(S'the'
p1257
S'the'
p1258
S'DT'
p1259
S'B-NP'
p1260
g5
tp1261
a(S'treatment'
p1262
S'treatment'
p1263
S'NN'
p1264
S'I-NP'
p1265
g5
tp1266
a(S'between'
p1267
S'between'
p1268
S'IN'
p1269
S'B-PP'
p1270
g5
tp1271
a(S'the'
p1272
S'the'
p1273
S'DT'
p1274
S'B-NP'
p1275
g5
tp1276
a(S'two'
p1277
S'two'
p1278
S'CD'
p1279
S'I-NP'
p1280
g5
tp1281
a(S'methods'
p1282
S'method'
p1283
S'NNS'
p1284
S'I-NP'
p1285
g5
tp1286
a(S'was'
p1287
S'be'
p1288
S'VBD'
p1289
S'B-VP'
p1290
g5
tp1291
a(S'not'
p1292
S'not'
p1293
S'RB'
p1294
g5
g5
tp1295
a(S'statistically'
p1296
S'statistically'
p1297
S'RB'
p1298
S'B-ADJP'
p1299
g5
tp1300
a(S'significant'
p1301
S'significant'
p1302
S'JJ'
p1303
S'I-ADJP'
p1304
g5
tp1305
a(g91
g91
g91
g5
g5
tp1306
a(S'p'
p1307
g1307
S'NN'
p1308
S'B-NP'
p1309
g5
tp1310
a(S'='
p1311
g1311
S'SYM'
p1312
S'B-VP'
p1313
g5
tp1314
a(S'0.85'
p1315
S'0.85'
p1316
S'CD'
p1317
S'B-NP'
p1318
g5
tp1319
a(g98
g98
g98
g5
g5
tp1320
a(g74
g74
g74
g5
g5
tp1321
a(S'The'
p1322
S'The'
p1323
S'DT'
p1324
S'B-NP'
p1325
g5
tp1326
a(S'95'
p1327
S'95'
p1328
S'CD'
p1329
S'I-NP'
p1330
g5
tp1331
a(g833
g833
S'NN'
p1332
S'I-NP'
p1333
g5
tp1334
a(S'confidence'
p1335
S'confidence'
p1336
S'NN'
p1337
S'I-NP'
p1338
g5
tp1339
a(S'interval'
p1340
S'interval'
p1341
S'NN'
p1342
S'I-NP'
p1343
g5
tp1344
a(S'for'
p1345
S'for'
p1346
S'IN'
p1347
S'B-PP'
p1348
g5
tp1349
a(S'the'
p1350
S'the'
p1351
S'DT'
p1352
S'B-NP'
p1353
g5
tp1354
a(S'difference'
p1355
S'difference'
p1356
S'NN'
p1357
S'I-NP'
p1358
g5
tp1359
a(S'in'
p1360
S'in'
p1361
S'IN'
p1362
S'B-PP'
p1363
g5
tp1364
a(S'the'
p1365
S'the'
p1366
S'DT'
p1367
S'B-NP'
p1368
g5
tp1369
a(S'percentage'
p1370
S'percentage'
p1371
S'NN'
p1372
S'I-NP'
p1373
g5
tp1374
a(S'variation'
p1375
S'variation'
p1376
S'NN'
p1377
S'I-NP'
p1378
g5
tp1379
a(S'of'
p1380
S'of'
p1381
S'IN'
p1382
S'B-PP'
p1383
g5
tp1384
a(S'MAP'
p1385
S'MAP'
p1386
S'NN'
p1387
S'B-NP'
p1388
g5
tp1389
a(S'between'
p1390
S'between'
p1391
S'IN'
p1392
S'B-PP'
p1393
g5
tp1394
a(S'the'
p1395
S'the'
p1396
S'DT'
p1397
S'B-NP'
p1398
g5
tp1399
a(S'two'
p1400
S'two'
p1401
S'CD'
p1402
S'I-NP'
p1403
g5
tp1404
a(S'groups'
p1405
S'group'
p1406
S'NNS'
p1407
S'I-NP'
p1408
g5
tp1409
a(S'was'
p1410
S'be'
p1411
S'VBD'
p1412
S'B-VP'
p1413
g5
tp1414
a(g91
g91
g91
g5
g5
tp1415
a(S'-3.1'
p1416
S'-3.1'
p1417
S'CD'
p1418
S'B-NP'
p1419
g5
tp1420
a(g541
g541
g541
S'I-NP'
p1421
g5
tp1422
a(S'+3.7'
p1423
S'+3.7'
p1424
S'CD'
p1425
S'I-NP'
p1426
g5
tp1427
a(g98
g98
g98
g5
g5
tp1428
a(g74
g74
g74
g5
g5
tp1429
a(S'From'
p1430
S'From'
p1431
S'IN'
p1432
S'B-PP'
p1433
g5
tp1434
a(g396
g396
S'DT'
p1435
S'B-NP'
p1436
g5
tp1437
a(S'clinical'
p1438
S'clinical'
p1439
S'JJ'
p1440
S'I-NP'
p1441
g5
tp1442
a(S'perspective'
p1443
S'perspective'
p1444
S'NN'
p1445
S'I-NP'
p1446
g5
tp1447
a(g541
g541
g541
g5
g5
tp1448
a(S'the'
p1449
S'the'
p1450
S'DT'
p1451
S'B-NP'
p1452
g5
tp1453
a(S'methods'
p1454
S'method'
p1455
S'NNS'
p1456
S'I-NP'
p1457
g5
tp1458
a(S'are'
p1459
S'be'
p1460
S'VBP'
p1461
S'B-VP'
p1462
g5
tp1463
a(S'to'
p1464
S'to'
p1465
S'TO'
p1466
S'I-VP'
p1467
g5
tp1468
a(S'be'
p1469
S'be'
p1470
S'VB'
p1471
S'I-VP'
p1472
g5
tp1473
a(S'considered'
p1474
S'consider'
p1475
S'VBN'
p1476
S'I-VP'
p1477
g5
tp1478
a(S'equivalent'
p1479
S'equivalent'
p1480
S'JJ'
p1481
S'B-ADJP'
p1482
g5
tp1483
a(g74
g74
g74
g5
g5
tp1484
a(S'CONCLUSIONS'
p1485
S'CONCLUSIONS'
p1486
S'NNS'
p1487
S'B-NP'
p1488
g5
tp1489
a(S'The'
p1490
S'The'
p1491
S'DT'
p1492
S'B-NP'
p1493
g5
tp1494
a(S'study'
p1495
S'study'
p1496
S'NN'
p1497
S'I-NP'
p1498
g5
tp1499
a(S'was'
p1500
S'be'
p1501
S'VBD'
p1502
S'B-VP'
p1503
g5
tp1504
a(S'conducted'
p1505
S'conduct'
p1506
S'VBN'
p1507
S'I-VP'
p1508
g5
tp1509
a(S'on'
p1510
S'on'
p1511
S'IN'
p1512
S'B-PP'
p1513
g5
tp1514
a(g396
g396
S'DT'
p1515
S'B-NP'
p1516
g5
tp1517
a(S'limited'
p1518
S'limited'
p1519
S'JJ'
p1520
S'I-NP'
p1521
g5
tp1522
a(S'sample'
p1523
S'sample'
p1524
S'NN'
p1525
S'I-NP'
p1526
g5
tp1527
a(S';'
p1528
g1528
g57
g5
g5
tp1529
a(S'no'
p1530
S'no'
p1531
S'DT'
p1532
S'B-NP'
p1533
g5
tp1534
a(S'statistically'
p1535
S'statistically'
p1536
S'RB'
p1537
S'I-NP'
p1538
g5
tp1539
a(S'significant'
p1540
S'significant'
p1541
S'JJ'
p1542
S'I-NP'
p1543
g5
tp1544
a(S'differences'
p1545
S'difference'
p1546
S'NNS'
p1547
S'I-NP'
p1548
g5
tp1549
a(S'were'
p1550
S'be'
p1551
S'VBD'
p1552
S'B-VP'
p1553
g5
tp1554
a(S'detected'
p1555
S'detect'
p1556
S'VBN'
p1557
S'I-VP'
p1558
g5
tp1559
a(g1528
g1528
g57
g5
g5
tp1560
a(S'QC'
p1561
S'QC'
p1562
S'NN'
p1563
S'B-NP'
p1564
g5
tp1565
a(S'is'
p1566
S'be'
p1567
S'VBZ'
p1568
S'B-VP'
p1569
g5
tp1570
a(S'the'
p1571
S'the'
p1572
S'DT'
p1573
S'B-NP'
p1574
g5
tp1575
a(S'quickest'
p1576
S'quick'
p1577
S'JJS'
p1578
S'I-NP'
p1579
g5
tp1580
a(S'and'
p1581
S'and'
p1582
S'CC'
p1583
g5
g5
tp1584
a(S'more'
p1585
S'more'
p1586
S'RBR'
p1587
S'B-NP'
p1588
g5
tp1589
a(S'cost-effective'
p1590
S'cost-effective'
p1591
S'JJ'
p1592
S'I-NP'
p1593
g5
tp1594
a(S'method'
p1595
S'method'
p1596
S'NN'
p1597
S'I-NP'
p1598
g5
tp1599
a(g74
g74
g74
g5
g5
tp1600
a.