(lp0
(S'Comparative'
p1
S'Comparative'
p2
S'JJ'
p3
S'B-NP'
p4
S'O'
p5
tp6
a(S'bioavailability'
p7
S'bioavailability'
p8
S'NN'
p9
S'I-NP'
p10
g5
tp11
a(S'study'
p12
S'study'
p13
S'NN'
p14
S'I-NP'
p15
g5
tp16
a(S'with'
p17
S'with'
p18
S'IN'
p19
S'B-PP'
p20
g5
tp21
a(S'two'
p22
S'two'
p23
S'CD'
p24
S'B-NP'
p25
g5
tp26
a(S'pantoprazole'
p27
S'pantoprazole'
p28
S'NN'
p29
S'I-NP'
p30
g5
tp31
a(S'delayed-released'
p32
S'delayed-released'
p33
S'JJ'
p34
S'I-NP'
p35
g5
tp36
a(S'tablet'
p37
S'tablet'
p38
S'NN'
p39
S'I-NP'
p40
g5
tp41
a(S'formulations'
p42
S'formulation'
p43
S'NNS'
p44
S'I-NP'
p45
g5
tp46
a(S'administered'
p47
S'administer'
p48
S'VBN'
p49
S'B-VP'
p50
g5
tp51
a(S'with'
p52
S'with'
p53
S'IN'
p54
S'B-PP'
p55
g5
tp56
a(S'and'
p57
S'and'
p58
S'CC'
p59
g5
g5
tp60
a(S'without'
p61
S'without'
p62
S'IN'
p63
S'B-PP'
p64
g5
tp65
a(S'food'
p66
S'food'
p67
S'NN'
p68
S'B-NP'
p69
g5
tp70
a(S'in'
p71
S'in'
p72
S'IN'
p73
S'B-PP'
p74
g5
tp75
a(S'healthy'
p76
S'healthy'
p77
S'JJ'
p78
S'B-NP'
p79
g5
tp80
a(S'subjects'
p81
S'subject'
p82
S'NNS'
p83
S'I-NP'
p84
g5
tp85
a(S'.'
p86
g86
g86
g5
g5
tp87
a(S'OBJECTIVE'
p88
S'OBJECTIVE'
p89
S'NN'
p90
S'B-NP'
p91
g5
tp92
a(S'To'
p93
S'To'
p94
S'TO'
p95
S'B-VP'
p96
g5
tp97
a(S'assess'
p98
S'assess'
p99
S'VB'
p100
S'I-VP'
p101
g5
tp102
a(S'the'
p103
S'the'
p104
S'DT'
p105
S'B-NP'
p106
g5
tp107
a(S'comparative'
p108
S'comparative'
p109
S'JJ'
p110
S'I-NP'
p111
g5
tp112
a(S'bioavailability'
p113
S'bioavailability'
p114
S'NN'
p115
S'I-NP'
p116
g5
tp117
a(S'of'
p118
S'of'
p119
S'IN'
p120
S'B-PP'
p121
g5
tp122
a(S'two'
p123
S'two'
p124
S'CD'
p125
S'B-NP'
p126
g5
tp127
a(S'formulations'
p128
S'formulation'
p129
S'NNS'
p130
S'I-NP'
p131
g5
tp132
a(S'('
p133
g133
g133
g5
g5
tp134
a(S'40'
p135
S'40'
p136
S'CD'
p137
S'B-NP'
p138
g5
tp139
a(S'mg'
p140
S'mg'
p141
S'NN'
p142
S'I-NP'
p143
g5
tp144
a(S'delayed-released'
p145
S'delayed-released'
p146
S'JJ'
p147
S'B-ADJP'
p148
g5
tp149
a(S'['
p150
g150
g133
g5
g5
tp151
a(S'DR'
p152
S'DR'
p153
S'NN'
p154
g5
g5
tp155
a(S']'
p156
g156
S')'
p157
g5
g5
tp158
a(S'tablet'
p159
S'tablet'
p160
S'NN'
p161
S'B-NP'
p162
g5
tp163
a(S';'
p164
g164
S':'
p165
g5
g5
tp166
a(S'test'
p167
S'test'
p168
S'NN'
p169
S'B-NP'
p170
g5
tp171
a(S'and'
p172
S'and'
p173
S'CC'
p174
S'I-NP'
p175
g5
tp176
a(S'reference'
p177
S'reference'
p178
S'NN'
p179
S'I-NP'
p180
g5
tp181
a(g157
g157
g157
g5
g5
tp182
a(S'of'
p183
S'of'
p184
S'IN'
p185
S'B-PP'
p186
g5
tp187
a(S'pantoprazole'
p188
S'pantoprazole'
p189
S'NN'
p190
S'B-NP'
p191
g5
tp192
a(g133
g133
g133
g5
g5
tp193
a(S'CAS'
p194
S'CAS'
p195
S'NN'
p196
S'B-NP'
p197
g5
tp198
a(S'102625-70-7'
p199
S'102625-70-7'
p200
S'CD'
p201
S'I-NP'
p202
g5
tp203
a(g157
g157
g157
g5
g5
tp204
a(S'in'
p205
S'in'
p206
S'IN'
p207
S'B-PP'
p208
g5
tp209
a(S'healthy'
p210
S'healthy'
p211
S'JJ'
p212
S'B-NP'
p213
g5
tp214
a(S'volunteers'
p215
S'volunteer'
p216
S'NNS'
p217
S'I-NP'
p218
g5
tp219
a(S'of'
p220
S'of'
p221
S'IN'
p222
S'B-PP'
p223
g5
tp224
a(S'both'
p225
S'both'
p226
S'DT'
p227
S'B-NP'
p228
g5
tp229
a(S'sexes'
p230
S'sex'
p231
S'NNS'
p232
S'I-NP'
p233
g5
tp234
a(S','
p235
g235
g235
g5
g5
tp236
a(S'with'
p237
S'with'
p238
S'IN'
p239
S'B-PP'
p240
g5
tp241
a(S'and'
p242
S'and'
p243
S'CC'
p244
S'I-PP'
p245
g5
tp246
a(S'without'
p247
S'without'
p248
S'IN'
p249
S'I-PP'
p250
g5
tp251
a(S'food'
p252
S'food'
p253
S'NN'
p254
S'B-NP'
p255
g5
tp256
a(g86
g86
g86
g5
g5
tp257
a(S'METHODS'
p258
S'METHODS'
p259
S'NNS'
p260
S'B-NP'
p261
g5
tp262
a(S'The'
p263
S'The'
p264
S'DT'
p265
S'B-NP'
p266
g5
tp267
a(S'study'
p268
S'study'
p269
S'NN'
p270
S'I-NP'
p271
g5
tp272
a(S'was'
p273
S'be'
p274
S'VBD'
p275
S'B-VP'
p276
g5
tp277
a(S'conducted'
p278
S'conduct'
p279
S'VBN'
p280
S'I-VP'
p281
g5
tp282
a(S'using'
p283
S'use'
p284
S'VBG'
p285
S'I-VP'
p286
g5
tp287
a(S'an'
p288
S'an'
p289
S'DT'
p290
S'B-NP'
p291
g5
tp292
a(S'open'
p293
S'open'
p294
S'JJ'
p295
S'I-NP'
p296
g5
tp297
a(g235
g235
g235
S'I-NP'
p298
g5
tp299
a(S'randomized'
p300
S'randomize'
p301
S'VBN'
p302
S'I-NP'
p303
g5
tp304
a(g235
g235
g235
S'I-NP'
p305
g5
tp306
a(S'two-period'
p307
S'two-period'
p308
S'JJ'
p309
S'I-NP'
p310
g5
tp311
a(S'crossover'
p312
S'crossover'
p313
S'NN'
p314
S'I-NP'
p315
g5
tp316
a(S'design'
p317
S'design'
p318
S'NN'
p319
S'I-NP'
p320
g5
tp321
a(S'with'
p322
S'with'
p323
S'IN'
p324
S'B-PP'
p325
g5
tp326
a(S'a'
p327
g327
S'DT'
p328
S'B-NP'
p329
g5
tp330
a(S'1-week'
p331
S'1-week'
p332
S'JJ'
p333
S'I-NP'
p334
g5
tp335
a(S'washout'
p336
S'washout'
p337
S'NN'
p338
S'I-NP'
p339
g5
tp340
a(S'interval'
p341
S'interval'
p342
S'NN'
p343
S'I-NP'
p344
g5
tp345
a(g235
g235
g235
g5
g5
tp346
a(S'in'
p347
S'in'
p348
S'IN'
p349
S'B-PP'
p350
g5
tp351
a(S'two'
p352
S'two'
p353
S'CD'
p354
S'B-NP'
p355
g5
tp356
a(S'groups'
p357
S'group'
p358
S'NNS'
p359
S'I-NP'
p360
g5
tp361
a(g235
g235
g235
g5
g5
tp362
a(S'with'
p363
S'with'
p364
S'IN'
p365
S'B-PP'
p366
g5
tp367
a(S'and'
p368
S'and'
p369
S'CC'
p370
S'B-PP'
p371
g5
tp372
a(S'without'
p373
S'without'
p374
S'IN'
p375
S'B-PP'
p376
g5
tp377
a(S'food.'
p378
S'food.'
p379
S'NN'
p380
S'B-NP'
p381
g5
tp382
a(S'Plasma'
p383
S'Plasma'
p384
S'NN'
p385
S'I-NP'
p386
g5
tp387
a(S'samples'
p388
S'sample'
p389
S'NNS'
p390
S'I-NP'
p391
g5
tp392
a(S'were'
p393
S'be'
p394
S'VBD'
p395
S'B-VP'
p396
g5
tp397
a(S'obtained'
p398
S'obtain'
p399
S'VBN'
p400
S'I-VP'
p401
g5
tp402
a(S'for'
p403
S'for'
p404
S'IN'
p405
S'B-PP'
p406
g5
tp407
a(S'up'
p408
S'up'
p409
S'RB'
p410
S'B-NP'
p411
g5
tp412
a(S'to'
p413
S'to'
p414
S'TO'
p415
S'I-NP'
p416
g5
tp417
a(S'24'
p418
S'24'
p419
S'CD'
p420
S'I-NP'
p421
g5
tp422
a(S'h'
p423
g423
S'NN'
p424
S'I-NP'
p425
g5
tp426
a(S'post'
p427
S'post'
p428
S'IN'
p429
S'B-PP'
p430
g5
tp431
a(S'dose.'
p432
S'dose.'
p433
S'NN'
p434
S'B-NP'
p435
g5
tp436
a(S'Plasma'
p437
S'Plasma'
p438
S'NN'
p439
S'I-NP'
p440
g5
tp441
a(S'pantoprazole'
p442
S'pantoprazole'
p443
S'NN'
p444
S'I-NP'
p445
g5
tp446
a(S'concentrations'
p447
S'concentration'
p448
S'NNS'
p449
S'I-NP'
p450
g5
tp451
a(S'were'
p452
S'be'
p453
S'VBD'
p454
S'B-VP'
p455
g5
tp456
a(S'analyzed'
p457
S'analyze'
p458
S'VBN'
p459
S'I-VP'
p460
g5
tp461
a(S'by'
p462
S'by'
p463
S'IN'
p464
S'B-PP'
p465
g5
tp466
a(S'liquid'
p467
S'liquid'
p468
S'JJ'
p469
S'B-NP'
p470
g5
tp471
a(S'chromatography'
p472
S'chromatography'
p473
S'NN'
p474
S'I-NP'
p475
g5
tp476
a(S'coupled'
p477
S'couple'
p478
S'VBN'
p479
S'B-VP'
p480
g5
tp481
a(S'to'
p482
S'to'
p483
S'TO'
p484
S'B-PP'
p485
g5
tp486
a(S'tandem'
p487
S'tandem'
p488
S'JJ'
p489
S'B-NP'
p490
g5
tp491
a(S'mass'
p492
S'mass'
p493
S'NN'
p494
S'I-NP'
p495
g5
tp496
a(S'spectrometry'
p497
S'spectrometry'
p498
S'NN'
p499
S'I-NP'
p500
g5
tp501
a(g133
g133
g133
g5
g5
tp502
a(S'LC-MS-MS'
p503
S'LC-MS-MS'
p504
S'NN'
p505
S'B-NP'
p506
g5
tp507
a(g157
g157
g157
g5
g5
tp508
a(S'with'
p509
S'with'
p510
S'IN'
p511
S'B-PP'
p512
g5
tp513
a(S'positive'
p514
S'positive'
p515
S'JJ'
p516
S'B-NP'
p517
g5
tp518
a(S'ion'
p519
S'ion'
p520
S'NN'
p521
S'I-NP'
p522
g5
tp523
a(S'electrospray'
p524
S'electrospray'
p525
S'NN'
p526
S'I-NP'
p527
g5
tp528
a(S'ionization'
p529
S'ionization'
p530
S'NN'
p531
S'I-NP'
p532
g5
tp533
a(S'using'
p534
S'use'
p535
S'VBG'
p536
S'B-VP'
p537
g5
tp538
a(S'multiple'
p539
S'multiple'
p540
S'JJ'
p541
S'B-NP'
p542
g5
tp543
a(S'reactions'
p544
S'reaction'
p545
S'NNS'
p546
S'I-NP'
p547
g5
tp548
a(S'monitoring'
p549
S'monitoring'
p550
S'NN'
p551
S'I-NP'
p552
g5
tp553
a(g133
g133
g133
g5
g5
tp554
a(S'MRM'
p555
S'MRM'
p556
S'NN'
p557
S'B-NP'
p558
S'B-protein'
p559
tp560
a(g157
g157
g157
g5
g5
tp561
a(g86
g86
g86
g5
g5
tp562
a(S'From'
p563
S'From'
p564
S'IN'
p565
S'B-PP'
p566
g5
tp567
a(S'the'
p568
S'the'
p569
S'DT'
p570
S'B-NP'
p571
g5
tp572
a(S'pantoprazole'
p573
S'pantoprazole'
p574
S'NN'
p575
S'I-NP'
p576
g5
tp577
a(S'plasma'
p578
S'plasma'
p579
S'NN'
p580
S'I-NP'
p581
g5
tp582
a(S'concentration'
p583
S'concentration'
p584
S'NN'
p585
S'I-NP'
p586
g5
tp587
a(S'vs.'
p588
S'vs.'
p589
S'IN'
p590
S'B-PP'
p591
g5
tp592
a(S'time'
p593
S'time'
p594
S'NN'
p595
S'B-NP'
p596
g5
tp597
a(S'curves'
p598
S'curve'
p599
S'NNS'
p600
S'I-NP'
p601
g5
tp602
a(g235
g235
g235
g5
g5
tp603
a(S'the'
p604
S'the'
p605
S'DT'
p606
S'B-NP'
p607
g5
tp608
a(S'pharmacokinetic'
p609
S'pharmacokinetic'
p610
S'JJ'
p611
S'I-NP'
p612
g5
tp613
a(S'parameters'
p614
S'parameter'
p615
S'NNS'
p616
S'I-NP'
p617
g5
tp618
a(S'AUC'
p619
S'AUC'
p620
S'NN'
p621
S'I-NP'
p622
g5
tp623
a(g133
g133
g133
g5
g5
tp624
a(S'last'
p625
S'last'
p626
S'JJ'
p627
S'B-ADJP'
p628
g5
tp629
a(g157
g157
g157
g5
g5
tp630
a(S'and'
p631
S'and'
p632
S'CC'
p633
g5
g5
tp634
a(S'C'
p635
g635
S'NN'
p636
S'B-NP'
p637
g5
tp638
a(g133
g133
g133
g5
g5
tp639
a(S'max'
p640
S'max'
p641
S'NN'
p642
S'B-NP'
p643
g5
tp644
a(g157
g157
g157
g5
g5
tp645
a(S'were'
p646
S'be'
p647
S'VBD'
p648
S'B-VP'
p649
g5
tp650
a(S'obtained'
p651
S'obtain'
p652
S'VBN'
p653
S'I-VP'
p654
g5
tp655
a(g235
g235
g235
g5
g5
tp656
a(S'with'
p657
S'with'
p658
S'IN'
p659
S'B-PP'
p660
g5
tp661
a(S'and'
p662
S'and'
p663
S'CC'
p664
S'I-PP'
p665
g5
tp666
a(S'without'
p667
S'without'
p668
S'IN'
p669
S'I-PP'
p670
g5
tp671
a(S'food'
p672
S'food'
p673
S'NN'
p674
S'B-NP'
p675
g5
tp676
a(g86
g86
g86
g5
g5
tp677
a(S'RESULTS'
p678
S'RESULTS'
p679
S'NNS'
p680
S'B-NP'
p681
g5
tp682
a(S'The'
p683
S'The'
p684
S'DT'
p685
S'B-NP'
p686
g5
tp687
a(S'limit'
p688
S'limit'
p689
S'NN'
p690
S'I-NP'
p691
g5
tp692
a(S'of'
p693
S'of'
p694
S'IN'
p695
S'B-PP'
p696
g5
tp697
a(S'quantification'
p698
S'quantification'
p699
S'NN'
p700
S'B-NP'
p701
g5
tp702
a(S'was'
p703
S'be'
p704
S'VBD'
p705
S'B-VP'
p706
g5
tp707
a(S'5'
p708
g708
S'CD'
p709
S'B-NP'
p710
g5
tp711
a(S'ng/mL'
p712
S'ng/mL'
p713
S'NN'
p714
S'I-NP'
p715
g5
tp716
a(S'for'
p717
S'for'
p718
S'IN'
p719
S'B-PP'
p720
g5
tp721
a(S'plasma'
p722
S'plasma'
p723
S'NN'
p724
S'B-NP'
p725
g5
tp726
a(S'pantoprazole'
p727
S'pantoprazole'
p728
S'NN'
p729
S'I-NP'
p730
g5
tp731
a(S'analysis.'
p732
S'analysis.'
p733
S'NN'
p734
S'I-NP'
p735
g5
tp736
a(S'The'
p737
S'The'
p738
S'DT'
p739
S'B-NP'
p740
g5
tp741
a(S'geometric'
p742
S'geometric'
p743
S'JJ'
p744
S'I-NP'
p745
g5
tp746
a(S'mean'
p747
S'mean'
p748
S'NN'
p749
S'I-NP'
p750
g5
tp751
a(S'and'
p752
S'and'
p753
S'CC'
p754
g5
g5
tp755
a(S'90'
p756
S'90'
p757
S'CD'
p758
S'B-NP'
p759
g5
tp760
a(S'%'
p761
g761
S'NN'
p762
S'I-NP'
p763
g5
tp764
a(S'confidence'
p765
S'confidence'
p766
S'NN'
p767
S'I-NP'
p768
g5
tp769
a(S'interval'
p770
S'interval'
p771
S'NN'
p772
S'I-NP'
p773
g5
tp774
a(S'CI'
p775
S'CI'
p776
S'NN'
p777
S'I-NP'
p778
g5
tp779
a(S'of'
p780
S'of'
p781
S'IN'
p782
S'B-PP'
p783
g5
tp784
a(S'test/reference'
p785
S'test/reference'
p786
S'NN'
p787
S'B-NP'
p788
g5
tp789
a(S'percent'
p790
S'percent'
p791
S'NN'
p792
S'I-NP'
p793
g5
tp794
a(S'ratios'
p795
S'ratio'
p796
S'NNS'
p797
S'I-NP'
p798
g5
tp799
a(S'were'
p800
S'be'
p801
S'VBD'
p802
S'B-VP'
p803
g5
tp804
a(g235
g235
g235
g5
g5
tp805
a(S'without'
p806
S'without'
p807
S'IN'
p808
S'B-PP'
p809
g5
tp810
a(S'and'
p811
S'and'
p812
S'CC'
p813
S'I-PP'
p814
g5
tp815
a(S'with'
p816
S'with'
p817
S'IN'
p818
S'I-PP'
p819
g5
tp820
a(S'food'
p821
S'food'
p822
S'NN'
p823
S'B-NP'
p824
g5
tp825
a(g235
g235
g235
g5
g5
tp826
a(S'respectively'
p827
S'respectively'
p828
S'RB'
p829
S'B-ADVP'
p830
g5
tp831
a(g165
g165
g165
g5
g5
tp832
a(S'104.6540'
p833
S'104.6540'
p834
S'CD'
p835
S'B-NP'
p836
g5
tp837
a(g761
g761
S'NN'
p838
S'I-NP'
p839
g5
tp840
a(g133
g133
g133
g5
g5
tp841
a(S'90.8616'
p842
S'90.8616'
p843
S'CD'
p844
S'B-NP'
p845
g5
tp846
a(g761
g761
S'NN'
p847
S'I-NP'
p848
g5
tp849
a(S'-120.5401'
p850
S'-120.5401'
p851
S'CD'
p852
S'B-NP'
p853
g5
tp854
a(g761
g761
S'NN'
p855
S'I-NP'
p856
g5
tp857
a(g157
g157
g157
g5
g5
tp858
a(S'and'
p859
S'and'
p860
S'CC'
p861
g5
g5
tp862
a(S'99.9708'
p863
S'99.9708'
p864
S'CD'
p865
S'B-NP'
p866
g5
tp867
a(g761
g761
S'NN'
p868
S'I-NP'
p869
g5
tp870
a(g133
g133
g133
g5
g5
tp871
a(S'90.9987'
p872
S'90.9987'
p873
S'CD'
p874
S'B-NP'
p875
g5
tp876
a(g761
g761
S'NN'
p877
S'I-NP'
p878
g5
tp879
a(S'-109.8275'
p880
S'-109.8275'
p881
S'CD'
p882
S'B-NP'
p883
g5
tp884
a(g761
g761
S'NN'
p885
S'I-NP'
p886
g5
tp887
a(g157
g157
g157
g5
g5
tp888
a(S'for'
p889
S'for'
p890
S'IN'
p891
S'B-PP'
p892
g5
tp893
a(g635
g635
S'NN'
p894
S'B-NP'
p895
g5
tp896
a(g133
g133
g133
g5
g5
tp897
a(S'max'
p898
S'max'
p899
S'NN'
p900
S'B-NP'
p901
S'B-protein'
p902
tp903
a(g157
g157
g157
g5
g5
tp904
a(g235
g235
g235
g5
g5
tp905
a(S'95.6634'
p906
S'95.6634'
p907
S'CD'
p908
S'B-NP'
p909
g5
tp910
a(g761
g761
S'NN'
p911
S'I-NP'
p912
g5
tp913
a(g133
g133
g133
g5
g5
tp914
a(S'85.2675'
p915
S'85.2675'
p916
S'CD'
p917
S'B-NP'
p918
g5
tp919
a(g761
g761
S'NN'
p920
S'I-NP'
p921
g5
tp922
a(S'-107.3267'
p923
S'-107.3267'
p924
S'CD'
p925
S'B-NP'
p926
g5
tp927
a(g761
g761
S'NN'
p928
S'I-NP'
p929
g5
tp930
a(g157
g157
g157
g5
g5
tp931
a(S'and'
p932
S'and'
p933
S'CC'
p934
g5
g5
tp935
a(S'89.3500'
p936
S'89.3500'
p937
S'CD'
p938
S'B-NP'
p939
g5
tp940
a(g761
g761
S'NN'
p941
S'I-NP'
p942
g5
tp943
a(g133
g133
g133
g5
g5
tp944
a(S'83.6630'
p945
S'83.6630'
p946
S'CD'
p947
S'B-NP'
p948
g5
tp949
a(g761
g761
S'NN'
p950
S'I-NP'
p951
g5
tp952
a(S'-95.4237'
p953
S'-95.4237'
p954
S'CD'
p955
S'B-NP'
p956
g5
tp957
a(g761
g761
S'NN'
p958
S'I-NP'
p959
g5
tp960
a(g157
g157
g157
g5
g5
tp961
a(S'for'
p962
S'for'
p963
S'IN'
p964
S'B-PP'
p965
g5
tp966
a(S'AUC'
p967
S'AUC'
p968
S'NN'
p969
S'B-NP'
p970
g5
tp971
a(g133
g133
g133
g5
g5
tp972
a(S'last'
p973
S'last'
p974
S'JJ'
p975
S'B-ADJP'
p976
g5
tp977
a(g157
g157
g157
g5
g5
tp978
a(g86
g86
g86
g5
g5
tp979
a(S'CONCLUSION'
p980
S'CONCLUSION'
p981
S'NN'
p982
S'B-NP'
p983
g5
tp984
a(S'Since'
p985
S'Since'
p986
S'IN'
p987
S'B-PP'
p988
g5
tp989
a(S'the'
p990
S'the'
p991
S'DT'
p992
S'B-NP'
p993
g5
tp994
a(S'90'
p995
S'90'
p996
S'CD'
p997
S'I-NP'
p998
g5
tp999
a(g761
g761
S'NN'
p1000
S'I-NP'
p1001
g5
tp1002
a(S'CI'
p1003
S'CI'
p1004
S'NN'
p1005
S'I-NP'
p1006
g5
tp1007
a(S'for'
p1008
S'for'
p1009
S'IN'
p1010
S'B-PP'
p1011
g5
tp1012
a(S'AUC'
p1013
S'AUC'
p1014
S'NN'
p1015
S'B-NP'
p1016
g5
tp1017
a(g133
g133
g133
g5
g5
tp1018
a(S'last'
p1019
S'last'
p1020
S'JJ'
p1021
S'B-ADJP'
p1022
g5
tp1023
a(g157
g157
g157
g5
g5
tp1024
a(S'and'
p1025
S'and'
p1026
S'CC'
p1027
g5
g5
tp1028
a(g635
g635
S'NN'
p1029
S'B-NP'
p1030
g5
tp1031
a(g133
g133
g133
g5
g5
tp1032
a(S'max'
p1033
S'max'
p1034
S'NN'
p1035
S'B-NP'
p1036
g5
tp1037
a(g157
g157
g157
g5
g5
tp1038
a(S'ratios'
p1039
S'ratio'
p1040
S'NNS'
p1041
S'B-NP'
p1042
g5
tp1043
a(S'were'
p1044
S'be'
p1045
S'VBD'
p1046
S'B-VP'
p1047
g5
tp1048
a(S'within'
p1049
S'within'
p1050
S'IN'
p1051
S'B-PP'
p1052
g5
tp1053
a(S'the'
p1054
S'the'
p1055
S'DT'
p1056
S'B-NP'
p1057
g5
tp1058
a(S'80-125'
p1059
S'80-125'
p1060
S'CD'
p1061
S'I-NP'
p1062
g5
tp1063
a(g761
g761
S'NN'
p1064
S'I-NP'
p1065
g5
tp1066
a(S'interval'
p1067
S'interval'
p1068
S'NN'
p1069
S'I-NP'
p1070
g5
tp1071
a(S'proposed'
p1072
S'propose'
p1073
S'VBN'
p1074
S'B-VP'
p1075
g5
tp1076
a(S'by'
p1077
S'by'
p1078
S'IN'
p1079
S'B-PP'
p1080
g5
tp1081
a(S'the'
p1082
S'the'
p1083
S'DT'
p1084
S'B-NP'
p1085
g5
tp1086
a(S'US'
p1087
S'US'
p1088
S'NNP'
p1089
S'I-NP'
p1090
g5
tp1091
a(S'FDA'
p1092
S'FDA'
p1093
S'NNP'
p1094
S'I-NP'
p1095
g5
tp1096
a(g235
g235
g235
g5
g5
tp1097
a(S'it'
p1098
S'it'
p1099
S'PRP'
p1100
S'B-NP'
p1101
g5
tp1102
a(S'was'
p1103
S'be'
p1104
S'VBD'
p1105
S'B-VP'
p1106
g5
tp1107
a(S'concluded'
p1108
S'conclude'
p1109
S'VBN'
p1110
S'I-VP'
p1111
g5
tp1112
a(S'that'
p1113
S'that'
p1114
S'IN'
p1115
S'B-SBAR'
p1116
g5
tp1117
a(S'pantoprazole'
p1118
S'pantoprazole'
p1119
S'NN'
p1120
S'B-NP'
p1121
g5
tp1122
a(S'40'
p1123
S'40'
p1124
S'CD'
p1125
S'I-NP'
p1126
g5
tp1127
a(S'mg'
p1128
S'mg'
p1129
S'NN'
p1130
S'I-NP'
p1131
g5
tp1132
a(S'DR'
p1133
S'DR'
p1134
S'NN'
p1135
S'I-NP'
p1136
g5
tp1137
a(S'tablet'
p1138
S'tablet'
p1139
S'NN'
p1140
S'I-NP'
p1141
g5
tp1142
a(g133
g133
g133
g5
g5
tp1143
a(S'test'
p1144
S'test'
p1145
S'NN'
p1146
S'B-NP'
p1147
g5
tp1148
a(S'formulation'
p1149
S'formulation'
p1150
S'NN'
p1151
S'I-NP'
p1152
g5
tp1153
a(g157
g157
g157
g5
g5
tp1154
a(S'with'
p1155
S'with'
p1156
S'IN'
p1157
S'B-PP'
p1158
g5
tp1159
a(S'and'
p1160
S'and'
p1161
S'CC'
p1162
g5
g5
tp1163
a(S'without'
p1164
S'without'
p1165
S'IN'
p1166
S'B-PP'
p1167
g5
tp1168
a(S'food'
p1169
S'food'
p1170
S'NN'
p1171
S'B-NP'
p1172
g5
tp1173
a(S'was'
p1174
S'be'
p1175
S'VBD'
p1176
S'B-VP'
p1177
g5
tp1178
a(S'bioequivalent'
p1179
S'bioequivalent'
p1180
S'JJ'
p1181
S'B-ADJP'
p1182
g5
tp1183
a(S'to'
p1184
S'to'
p1185
S'TO'
p1186
S'B-PP'
p1187
g5
tp1188
a(S'the'
p1189
S'the'
p1190
S'DT'
p1191
S'B-NP'
p1192
g5
tp1193
a(S'reference'
p1194
S'reference'
p1195
S'NN'
p1196
S'I-NP'
p1197
g5
tp1198
a(S'40'
p1199
S'40'
p1200
S'CD'
p1201
S'I-NP'
p1202
g5
tp1203
a(S'mg'
p1204
S'mg'
p1205
S'NN'
p1206
S'I-NP'
p1207
g5
tp1208
a(S'DR'
p1209
S'DR'
p1210
S'NN'
p1211
S'I-NP'
p1212
g5
tp1213
a(S'tablet'
p1214
S'tablet'
p1215
S'NN'
p1216
S'I-NP'
p1217
g5
tp1218
a(S'for'
p1219
S'for'
p1220
S'IN'
p1221
S'B-PP'
p1222
g5
tp1223
a(S'both'
p1224
S'both'
p1225
S'CC'
p1226
g5
g5
tp1227
a(S'the'
p1228
S'the'
p1229
S'DT'
p1230
S'B-NP'
p1231
g5
tp1232
a(S'rate'
p1233
S'rate'
p1234
S'NN'
p1235
S'I-NP'
p1236
g5
tp1237
a(S'and'
p1238
S'and'
p1239
S'CC'
p1240
S'I-NP'
p1241
g5
tp1242
a(S'extent'
p1243
S'extent'
p1244
S'NN'
p1245
S'I-NP'
p1246
g5
tp1247
a(S'of'
p1248
S'of'
p1249
S'IN'
p1250
S'B-PP'
p1251
g5
tp1252
a(S'absorption'
p1253
S'absorption'
p1254
S'NN'
p1255
S'B-NP'
p1256
g5
tp1257
a(g86
g86
g86
g5
g5
tp1258
a.