(lp0
(S'Efficacy'
p1
S'Efficacy'
p2
S'NN'
p3
S'B-NP'
p4
S'O'
p5
tp6
a(S'and'
p7
S'and'
p8
S'CC'
p9
S'I-NP'
p10
g5
tp11
a(S'long-term'
p12
S'long-term'
p13
S'JJ'
p14
S'I-NP'
p15
g5
tp16
a(S'tolerability'
p17
S'tolerability'
p18
S'NN'
p19
S'I-NP'
p20
g5
tp21
a(S'of'
p22
S'of'
p23
S'IN'
p24
S'B-PP'
p25
g5
tp26
a(S'sublingual'
p27
S'sublingual'
p28
S'JJ'
p29
S'B-NP'
p30
g5
tp31
a(S'fentanyl'
p32
S'fentanyl'
p33
S'NN'
p34
S'I-NP'
p35
g5
tp36
a(S'orally'
p37
S'orally'
p38
S'RB'
p39
S'B-VP'
p40
g5
tp41
a(S'disintegrating'
p42
S'disintegrate'
p43
S'VBG'
p44
S'I-VP'
p45
g5
tp46
a(S'tablet'
p47
S'tablet'
p48
S'NN'
p49
S'B-NP'
p50
g5
tp51
a(S'in'
p52
S'in'
p53
S'IN'
p54
S'B-PP'
p55
g5
tp56
a(S'the'
p57
S'the'
p58
S'DT'
p59
S'B-NP'
p60
g5
tp61
a(S'treatment'
p62
S'treatment'
p63
S'NN'
p64
S'I-NP'
p65
g5
tp66
a(S'of'
p67
S'of'
p68
S'IN'
p69
S'B-PP'
p70
g5
tp71
a(S'breakthrough'
p72
S'breakthrough'
p73
S'NN'
p74
S'B-NP'
p75
g5
tp76
a(S'cancer'
p77
S'cancer'
p78
S'NN'
p79
S'I-NP'
p80
g5
tp81
a(S'pain'
p82
S'pain'
p83
S'NN'
p84
S'I-NP'
p85
g5
tp86
a(S'.'
p87
g87
g87
g5
g5
tp88
a(S'BACKGROUND'
p89
S'BACKGROUND'
p90
S'NN'
p91
S'B-NP'
p92
g5
tp93
a(S'AND'
p94
S'AND'
p95
S'CC'
p96
g5
g5
tp97
a(S'OBJECTIVES'
p98
S'OBJECTIVES'
p99
S'NNP'
p100
S'B-NP'
p101
g5
tp102
a(S'Breakthrough'
p103
S'Breakthrough'
p104
S'NNP'
p105
S'I-NP'
p106
g5
tp107
a(S'cancer'
p108
S'cancer'
p109
S'NN'
p110
S'I-NP'
p111
g5
tp112
a(S'pain'
p113
S'pain'
p114
S'NN'
p115
S'I-NP'
p116
g5
tp117
a(S'('
p118
g118
g118
g5
g5
tp119
a(S'BTcP'
p120
S'BTcP'
p121
S'NN'
p122
S'B-NP'
p123
g5
tp124
a(S')'
p125
g125
g125
g5
g5
tp126
a(S'represents'
p127
S'represent'
p128
S'VBZ'
p129
S'B-VP'
p130
g5
tp131
a(S'an'
p132
S'an'
p133
S'DT'
p134
S'B-NP'
p135
g5
tp136
a(S'important'
p137
S'important'
p138
S'JJ'
p139
S'I-NP'
p140
g5
tp141
a(S'clinical'
p142
S'clinical'
p143
S'JJ'
p144
S'I-NP'
p145
g5
tp146
a(S'challenge'
p147
S'challenge'
p148
S'NN'
p149
S'I-NP'
p150
g5
tp151
a(S'in'
p152
S'in'
p153
S'IN'
p154
S'B-PP'
p155
g5
tp156
a(S'the'
p157
S'the'
p158
S'DT'
p159
S'B-NP'
p160
g5
tp161
a(S'care'
p162
S'care'
p163
S'NN'
p164
S'I-NP'
p165
g5
tp166
a(S'of'
p167
S'of'
p168
S'IN'
p169
S'B-PP'
p170
g5
tp171
a(S'patients'
p172
S'patient'
p173
S'NNS'
p174
S'B-NP'
p175
g5
tp176
a(S'with'
p177
S'with'
p178
S'IN'
p179
S'B-PP'
p180
g5
tp181
a(S'cancer.'
p182
S'cancer.'
p183
S'NN'
p184
S'B-NP'
p185
g5
tp186
a(S'This'
p187
S'This'
p188
S'DT'
p189
S'B-NP'
p190
g5
tp191
a(S'trial'
p192
S'trial'
p193
S'NN'
p194
S'I-NP'
p195
g5
tp196
a(S'evaluated'
p197
S'evaluate'
p198
S'VBD'
p199
S'B-VP'
p200
g5
tp201
a(S'the'
p202
S'the'
p203
S'DT'
p204
S'B-NP'
p205
g5
tp206
a(S'efficacy'
p207
S'efficacy'
p208
S'NN'
p209
S'I-NP'
p210
g5
tp211
a(S'and'
p212
S'and'
p213
S'CC'
p214
g5
g5
tp215
a(S'long-term'
p216
S'long-term'
p217
S'JJ'
p218
S'B-NP'
p219
g5
tp220
a(S'tolerability'
p221
S'tolerability'
p222
S'NN'
p223
S'I-NP'
p224
g5
tp225
a(S'of'
p226
S'of'
p227
S'IN'
p228
S'B-PP'
p229
g5
tp230
a(S'a'
p231
g231
S'DT'
p232
S'B-NP'
p233
g5
tp234
a(S'sublingual'
p235
S'sublingual'
p236
S'JJ'
p237
S'I-NP'
p238
g5
tp239
a(S'formulation'
p240
S'formulation'
p241
S'NN'
p242
S'I-NP'
p243
g5
tp244
a(S'of'
p245
S'of'
p246
S'IN'
p247
S'B-PP'
p248
g5
tp249
a(S'the'
p250
S'the'
p251
S'DT'
p252
S'B-NP'
p253
g5
tp254
a(S'fast-acting'
p255
S'fast-acting'
p256
S'JJ'
p257
S'I-NP'
p258
g5
tp259
a(S'opioid'
p260
S'opioid'
p261
S'JJ'
p262
S'I-NP'
p263
g5
tp264
a(S'fentanyl'
p265
S'fentanyl'
p266
S'NN'
p267
S'I-NP'
p268
g5
tp269
a(S','
p270
g270
g270
g5
g5
tp271
a(S'for'
p272
S'for'
p273
S'IN'
p274
S'B-PP'
p275
g5
tp276
a(S'the'
p277
S'the'
p278
S'DT'
p279
S'B-NP'
p280
g5
tp281
a(S'treatment'
p282
S'treatment'
p283
S'NN'
p284
S'I-NP'
p285
g5
tp286
a(S'of'
p287
S'of'
p288
S'IN'
p289
S'B-PP'
p290
g5
tp291
a(S'BTcP'
p292
S'BTcP'
p293
S'NN'
p294
S'B-NP'
p295
S'B-protein'
p296
tp297
a(S'in'
p298
S'in'
p299
S'IN'
p300
S'B-PP'
p301
g5
tp302
a(S'opioid-tolerant'
p303
S'opioid-tolerant'
p304
S'JJ'
p305
S'B-NP'
p306
g5
tp307
a(S'patients'
p308
S'patient'
p309
S'NNS'
p310
S'I-NP'
p311
g5
tp312
a(S'with'
p313
S'with'
p314
S'IN'
p315
S'B-PP'
p316
g5
tp317
a(S'cancer'
p318
S'cancer'
p319
S'NN'
p320
S'B-NP'
p321
g5
tp322
a(g87
g87
g87
g5
g5
tp323
a(S'RESEARCH'
p324
S'RESEARCH'
p325
S'NN'
p326
S'B-NP'
p327
g5
tp328
a(S'DESIGN'
p329
S'DESIGN'
p330
S'NN'
p331
S'I-NP'
p332
g5
tp333
a(S'AND'
p334
S'AND'
p335
S'CC'
p336
S'B-NP'
p337
g5
tp338
a(S'METHODS'
p339
S'METHODS'
p340
S'NNS'
p341
S'I-NP'
p342
g5
tp343
a(S'This'
p344
S'This'
p345
S'DT'
p346
g5
g5
tp347
a(S'was'
p348
S'be'
p349
S'VBD'
p350
S'B-VP'
p351
g5
tp352
a(g231
g231
S'DT'
p353
S'B-NP'
p354
g5
tp355
a(S'randomized'
p356
S'randomize'
p357
S'VBN'
p358
S'I-NP'
p359
g5
tp360
a(g270
g270
g270
S'I-NP'
p361
g5
tp362
a(S'placebo-controlled'
p363
S'placebo-controlled'
p364
S'JJ'
p365
S'I-NP'
p366
g5
tp367
a(g270
g270
g270
S'I-NP'
p368
g5
tp369
a(S'multi-center'
p370
S'multi-center'
p371
S'JJ'
p372
S'I-NP'
p373
g5
tp374
a(g270
g270
g270
S'I-NP'
p375
g5
tp376
a(S'phase'
p377
S'phase'
p378
S'NN'
p379
S'I-NP'
p380
g5
tp381
a(S'III'
p382
S'III'
p383
S'CD'
p384
S'I-NP'
p385
g5
tp386
a(S'trial'
p387
S'trial'
p388
S'NN'
p389
S'I-NP'
p390
g5
tp391
a(g270
g270
g270
g5
g5
tp392
a(S'conducted'
p393
S'conduct'
p394
S'VBN'
p395
S'B-VP'
p396
g5
tp397
a(S'in'
p398
S'in'
p399
S'IN'
p400
S'B-PP'
p401
g5
tp402
a(S'opioid-tolerant'
p403
S'opioid-tolerant'
p404
S'JJ'
p405
S'B-NP'
p406
g5
tp407
a(S'male'
p408
S'male'
p409
S'JJ'
p410
S'I-NP'
p411
g5
tp412
a(S'and'
p413
S'and'
p414
S'CC'
p415
S'I-NP'
p416
g5
tp417
a(S'female'
p418
S'female'
p419
S'JJ'
p420
S'I-NP'
p421
g5
tp422
a(S'patients'
p423
S'patient'
p424
S'NNS'
p425
S'I-NP'
p426
g5
tp427
a(g118
g118
g118
g5
g5
tp428
a(S'aged'
p429
S'aged'
p430
S'JJ'
p431
S'B-ADJP'
p432
g5
tp433
a(S'>'
p434
g434
S'SYM'
p435
S'B-NP'
p436
g5
tp437
a(S'or'
p438
S'or'
p439
S'CC'
p440
g5
g5
tp441
a(S'=17'
p442
S'=17'
p443
S'CD'
p444
S'B-NP'
p445
g5
tp446
a(S'years'
p447
S'year'
p448
S'NNS'
p449
S'I-NP'
p450
g5
tp451
a(g125
g125
g125
g5
g5
tp452
a(S'with'
p453
S'with'
p454
S'IN'
p455
S'B-PP'
p456
g5
tp457
a(S'BTcP.'
p458
S'BTcP.'
p459
S'NNP'
p460
S'B-NP'
p461
g5
tp462
a(S'The'
p463
S'The'
p464
S'DT'
p465
S'B-NP'
p466
g5
tp467
a(S'study'
p468
S'study'
p469
S'NN'
p470
S'I-NP'
p471
g5
tp472
a(S'was'
p473
S'be'
p474
S'VBD'
p475
S'B-VP'
p476
g5
tp477
a(S'conducted'
p478
S'conduct'
p479
S'VBN'
p480
S'I-VP'
p481
g5
tp482
a(S'at'
p483
S'at'
p484
S'IN'
p485
S'B-PP'
p486
g5
tp487
a(S'36'
p488
S'36'
p489
S'CD'
p490
S'B-NP'
p491
g5
tp492
a(S'centers'
p493
S'center'
p494
S'NNS'
p495
S'I-NP'
p496
g5
tp497
a(S'across'
p498
S'across'
p499
S'IN'
p500
S'B-PP'
p501
g5
tp502
a(S'the'
p503
S'the'
p504
S'DT'
p505
S'B-NP'
p506
g5
tp507
a(S'USA.'
p508
S'USA.'
p509
S'NNP'
p510
S'I-NP'
p511
g5
tp512
a(S'The'
p513
S'The'
p514
S'DT'
p515
S'B-NP'
p516
g5
tp517
a(S'study'
p518
S'study'
p519
S'NN'
p520
S'I-NP'
p521
g5
tp522
a(S'comprised'
p523
S'comprise'
p524
S'VBD'
p525
S'B-VP'
p526
g5
tp527
a(g231
g231
S'DT'
p528
S'B-NP'
p529
g5
tp530
a(S'2-week'
p531
S'2-week'
p532
S'JJ'
p533
S'I-NP'
p534
g5
tp535
a(S'open-label'
p536
S'open-label'
p537
S'JJ'
p538
S'I-NP'
p539
g5
tp540
a(S'titration'
p541
S'titration'
p542
S'NN'
p543
S'I-NP'
p544
g5
tp545
a(S'phase'
p546
S'phase'
p547
S'NN'
p548
S'I-NP'
p549
g5
tp550
a(g270
g270
g270
g5
g5
tp551
a(S'followed'
p552
S'follow'
p553
S'VBN'
p554
S'B-VP'
p555
g5
tp556
a(S'by'
p557
S'by'
p558
S'IN'
p559
S'B-PP'
p560
g5
tp561
a(g231
g231
S'DT'
p562
S'B-NP'
p563
g5
tp564
a(S'double-blind'
p565
S'double-blind'
p566
S'JJ'
p567
S'I-NP'
p568
g5
tp569
a(S'efficacy'
p570
S'efficacy'
p571
S'NN'
p572
S'I-NP'
p573
g5
tp574
a(S'phase'
p575
S'phase'
p576
S'NN'
p577
S'I-NP'
p578
g5
tp579
a(g270
g270
g270
g5
g5
tp580
a(S'during'
p581
S'during'
p582
S'IN'
p583
S'B-PP'
p584
g5
tp585
a(S'which'
p586
S'which'
p587
S'WDT'
p588
S'B-NP'
p589
g5
tp590
a(S'patients'
p591
S'patient'
p592
S'NNS'
p593
S'B-NP'
p594
g5
tp595
a(S'received'
p596
S'receive'
p597
S'VBD'
p598
S'B-VP'
p599
g5
tp600
a(S'sublingual'
p601
S'sublingual'
p602
S'JJ'
p603
S'B-NP'
p604
g5
tp605
a(S'fentanyl'
p606
S'fentanyl'
p607
S'NN'
p608
S'I-NP'
p609
g5
tp610
a(S'citrate'
p611
S'citrate'
p612
S'NN'
p613
S'I-NP'
p614
g5
tp615
a(S'orally'
p616
S'orally'
p617
S'RB'
p618
S'B-VP'
p619
g5
tp620
a(S'disintegrating'
p621
S'disintegrate'
p622
S'VBG'
p623
S'I-VP'
p624
g5
tp625
a(S'tablet'
p626
S'tablet'
p627
S'NN'
p628
S'B-NP'
p629
g5
tp630
a(g118
g118
g118
g5
g5
tp631
a(S'sublingual'
p632
S'sublingual'
p633
S'JJ'
p634
S'B-NP'
p635
g5
tp636
a(S'fentanyl'
p637
S'fentanyl'
p638
S'NN'
p639
S'I-NP'
p640
g5
tp641
a(S'ODT'
p642
S'ODT'
p643
S'NN'
p644
S'I-NP'
p645
g5
tp646
a(g125
g125
g125
g5
g5
tp647
a(S'or'
p648
S'or'
p649
S'CC'
p650
g5
g5
tp651
a(S'placebo'
p652
S'placebo'
p653
S'NN'
p654
S'B-NP'
p655
g5
tp656
a(g270
g270
g270
g5
g5
tp657
a(S'in'
p658
S'in'
p659
S'IN'
p660
S'B-PP'
p661
g5
tp662
a(g231
g231
S'DT'
p663
S'B-NP'
p664
g5
tp665
a(S'random'
p666
S'random'
p667
S'JJ'
p668
S'I-NP'
p669
g5
tp670
a(S'order.'
p671
S'order.'
p672
S'NN'
p673
S'I-NP'
p674
g5
tp675
a(S'The'
p676
S'The'
p677
S'DT'
p678
S'B-NP'
p679
g5
tp680
a(S'primary'
p681
S'primary'
p682
S'JJ'
p683
S'I-NP'
p684
g5
tp685
a(S'efficacy'
p686
S'efficacy'
p687
S'NN'
p688
S'I-NP'
p689
g5
tp690
a(S'endpoint'
p691
S'endpoint'
p692
S'NN'
p693
S'I-NP'
p694
g5
tp695
a(S'was'
p696
S'be'
p697
S'VBD'
p698
S'B-VP'
p699
g5
tp700
a(S'the'
p701
S'the'
p702
S'DT'
p703
S'B-NP'
p704
g5
tp705
a(S'sum'
p706
S'sum'
p707
S'NN'
p708
S'I-NP'
p709
g5
tp710
a(S'of'
p711
S'of'
p712
S'IN'
p713
S'B-PP'
p714
g5
tp715
a(S'pain'
p716
S'pain'
p717
S'NN'
p718
S'B-NP'
p719
g5
tp720
a(S'intensity'
p721
S'intensity'
p722
S'NN'
p723
S'I-NP'
p724
g5
tp725
a(S'difference'
p726
S'difference'
p727
S'NN'
p728
S'I-NP'
p729
g5
tp730
a(g118
g118
g118
g5
g5
tp731
a(S'SPID'
p732
S'SPID'
p733
S'NN'
p734
S'B-NP'
p735
g5
tp736
a(g125
g125
g125
g5
g5
tp737
a(S'over'
p738
S'over'
p739
S'IN'
p740
S'B-NP'
p741
g5
tp742
a(S'30'
p743
S'30'
p744
S'CD'
p745
S'I-NP'
p746
g5
tp747
a(S'min'
p748
S'min'
p749
S'NN'
p750
S'I-NP'
p751
g5
tp752
a(S'post-administration.'
p753
S'post-administration.'
p754
S'JJ'
p755
S'I-NP'
p756
g5
tp757
a(S'Secondary'
p758
S'Secondary'
p759
S'JJ'
p760
S'I-NP'
p761
g5
tp762
a(S'efficacy'
p763
S'efficacy'
p764
S'NN'
p765
S'I-NP'
p766
g5
tp767
a(S'endpoints'
p768
S'endpoint'
p769
S'NNS'
p770
S'I-NP'
p771
g5
tp772
a(S'included'
p773
S'include'
p774
S'VBD'
p775
S'B-VP'
p776
g5
tp777
a(S'pain'
p778
S'pain'
p779
S'NN'
p780
S'B-NP'
p781
g5
tp782
a(S'intensity'
p783
S'intensity'
p784
S'NN'
p785
S'I-NP'
p786
g5
tp787
a(S'difference'
p788
S'difference'
p789
S'NN'
p790
S'I-NP'
p791
g5
tp792
a(g118
g118
g118
g5
g5
tp793
a(S'PID'
p794
S'PID'
p795
S'NN'
p796
S'B-NP'
p797
g5
tp798
a(g125
g125
g125
g5
g5
tp799
a(S'and'
p800
S'and'
p801
S'CC'
p802
g5
g5
tp803
a(S'pain'
p804
S'pain'
p805
S'NN'
p806
S'B-NP'
p807
g5
tp808
a(S'relief'
p809
S'relief'
p810
S'NN'
p811
S'I-NP'
p812
g5
tp813
a(g118
g118
g118
g5
g5
tp814
a(S'PR'
p815
S'PR'
p816
S'NN'
p817
S'B-NP'
p818
S'B-protein'
p819
tp820
a(g125
g125
g125
g5
g5
tp821
a(S'throughout'
p822
S'throughout'
p823
S'IN'
p824
S'B-PP'
p825
g5
tp826
a(S'the'
p827
S'the'
p828
S'DT'
p829
S'B-NP'
p830
g5
tp831
a(S'60-min'
p832
S'60-min'
p833
S'JJ'
p834
S'I-NP'
p835
g5
tp836
a(S'post-dose'
p837
S'post-dose'
p838
S'JJ'
p839
S'I-NP'
p840
g5
tp841
a(S'assessment'
p842
S'assessment'
p843
S'NN'
p844
S'I-NP'
p845
g5
tp846
a(S'period.'
p847
S'period.'
p848
S'NN'
p849
S'I-NP'
p850
g5
tp851
a(S'Following'
p852
S'Follow'
p853
S'VBG'
p854
S'B-VP'
p855
g5
tp856
a(S'efficacy'
p857
S'efficacy'
p858
S'NN'
p859
S'B-NP'
p860
g5
tp861
a(S'evaluation'
p862
S'evaluation'
p863
S'NN'
p864
S'I-NP'
p865
g5
tp866
a(g270
g270
g270
g5
g5
tp867
a(S'patients'
p868
S'patient'
p869
S'NNS'
p870
S'B-NP'
p871
g5
tp872
a(S'entered'
p873
S'enter'
p874
S'VBD'
p875
S'B-VP'
p876
g5
tp877
a(g231
g231
S'DT'
p878
S'B-NP'
p879
g5
tp880
a(S'long-term'
p881
S'long-term'
p882
S'JJ'
p883
S'I-NP'
p884
g5
tp885
a(S'safety'
p886
S'safety'
p887
S'NN'
p888
S'I-NP'
p889
g5
tp890
a(S'phase'
p891
S'phase'
p892
S'NN'
p893
S'I-NP'
p894
g5
tp895
a(S'of'
p896
S'of'
p897
S'IN'
p898
S'B-PP'
p899
g5
tp900
a(S'up'
p901
S'up'
p902
S'IN'
p903
S'B-NP'
p904
g5
tp905
a(S'to'
p906
S'to'
p907
S'TO'
p908
S'I-NP'
p909
g5
tp910
a(S'12'
p911
S'12'
p912
S'CD'
p913
S'I-NP'
p914
g5
tp915
a(S'months.'
p916
S'months.'
p917
S'NN'
p918
S'I-NP'
p919
g5
tp920
a(S'Adverse'
p921
S'Adverse'
p922
S'JJ'
p923
S'I-NP'
p924
g5
tp925
a(S'events'
p926
S'event'
p927
S'NNS'
p928
S'I-NP'
p929
g5
tp930
a(S'were'
p931
S'be'
p932
S'VBD'
p933
S'B-VP'
p934
g5
tp935
a(S'recorded'
p936
S'record'
p937
S'VBN'
p938
S'I-VP'
p939
g5
tp940
a(S'throughout'
p941
S'throughout'
p942
S'IN'
p943
S'B-PP'
p944
g5
tp945
a(S'the'
p946
S'the'
p947
S'DT'
p948
S'B-NP'
p949
g5
tp950
a(S'study.'
p951
S'study.'
p952
S'NN'
p953
S'I-NP'
p954
g5
tp955
a(S'['
p956
g956
g118
g5
g5
tp957
a(S'CLINICAL'
p958
S'CLINICAL'
p959
S'JJ'
p960
S'B-NP'
p961
g5
tp962
a(S'TRIAL'
p963
S'TRIAL'
p964
S'NN'
p965
S'I-NP'
p966
g5
tp967
a(S'REGISTRATION'
p968
S'REGISTRATION'
p969
S'NN'
p970
S'I-NP'
p971
g5
tp972
a(S'NCT00262678'
p973
S'NCT00262678'
p974
S'NN'
p975
S'I-NP'
p976
g5
tp977
a(S']'
p978
g978
g125
g5
g5
tp979
a(S'RESULTS'
p980
S'RESULTS'
p981
S'NNS'
p982
S'B-NP'
p983
g5
tp984
a(S'A'
p985
g985
S'DT'
p986
S'B-NP'
p987
g5
tp988
a(S'total'
p989
S'total'
p990
S'NN'
p991
S'I-NP'
p992
g5
tp993
a(S'of'
p994
S'of'
p995
S'IN'
p996
S'B-PP'
p997
g5
tp998
a(S'131'
p999
S'131'
p1000
S'CD'
p1001
S'B-NP'
p1002
g5
tp1003
a(S'patients'
p1004
S'patient'
p1005
S'NNS'
p1006
S'I-NP'
p1007
g5
tp1008
a(S'entered'
p1009
S'enter'
p1010
S'VBD'
p1011
S'B-VP'
p1012
g5
tp1013
a(S'the'
p1014
S'the'
p1015
S'DT'
p1016
S'B-NP'
p1017
g5
tp1018
a(S'titration'
p1019
S'titration'
p1020
S'NN'
p1021
S'I-NP'
p1022
g5
tp1023
a(S'phase'
p1024
S'phase'
p1025
S'NN'
p1026
S'I-NP'
p1027
g5
tp1028
a(g270
g270
g270
g5
g5
tp1029
a(S'of'
p1030
S'of'
p1031
S'IN'
p1032
S'B-PP'
p1033
g5
tp1034
a(S'whom'
p1035
S'whom'
p1036
S'WP'
p1037
S'B-NP'
p1038
g5
tp1039
a(S'61'
p1040
S'61'
p1041
S'CD'
p1042
S'B-NP'
p1043
g5
tp1044
a(S'were'
p1045
S'be'
p1046
S'VBD'
p1047
S'B-VP'
p1048
g5
tp1049
a(S'included'
p1050
S'include'
p1051
S'VBN'
p1052
S'I-VP'
p1053
g5
tp1054
a(S'in'
p1055
S'in'
p1056
S'IN'
p1057
S'B-PP'
p1058
g5
tp1059
a(S'the'
p1060
S'the'
p1061
S'DT'
p1062
S'B-NP'
p1063
g5
tp1064
a(S'primary'
p1065
S'primary'
p1066
S'JJ'
p1067
S'I-NP'
p1068
g5
tp1069
a(S'efficacy'
p1070
S'efficacy'
p1071
S'NN'
p1072
S'I-NP'
p1073
g5
tp1074
a(S'analysis.'
p1075
S'analysis.'
p1076
S'NN'
p1077
S'I-NP'
p1078
g5
tp1079
a(S'Sublingual'
p1080
S'Sublingual'
p1081
S'JJ'
p1082
S'I-NP'
p1083
g5
tp1084
a(S'fentanyl'
p1085
S'fentanyl'
p1086
S'NN'
p1087
S'I-NP'
p1088
g5
tp1089
a(S'ODT'
p1090
S'ODT'
p1091
S'NN'
p1092
S'I-NP'
p1093
g5
tp1094
a(S'provided'
p1095
S'provide'
p1096
S'VBD'
p1097
S'B-VP'
p1098
g5
tp1099
a(S'significant'
p1100
S'significant'
p1101
S'JJ'
p1102
S'B-NP'
p1103
g5
tp1104
a(S'improvements'
p1105
S'improvement'
p1106
S'NNS'
p1107
S'I-NP'
p1108
g5
tp1109
a(S'in'
p1110
S'in'
p1111
S'IN'
p1112
S'B-PP'
p1113
g5
tp1114
a(S'SPID'
p1115
S'SPID'
p1116
S'NN'
p1117
S'B-NP'
p1118
g5
tp1119
a(S'relative'
p1120
S'relative'
p1121
S'JJ'
p1122
S'B-ADJP'
p1123
g5
tp1124
a(S'to'
p1125
S'to'
p1126
S'TO'
p1127
S'B-PP'
p1128
g5
tp1129
a(S'placebo'
p1130
S'placebo'
p1131
S'NN'
p1132
S'B-NP'
p1133
g5
tp1134
a(S'at'
p1135
S'at'
p1136
S'IN'
p1137
S'B-PP'
p1138
g5
tp1139
a(S'30'
p1140
S'30'
p1141
S'CD'
p1142
S'B-NP'
p1143
g5
tp1144
a(S'min'
p1145
S'min'
p1146
S'NN'
p1147
S'I-NP'
p1148
g5
tp1149
a(g118
g118
g118
g5
g5
tp1150
a(S'49.5'
p1151
S'49.5'
p1152
S'CD'
p1153
S'B-NP'
p1154
g5
tp1155
a(S'vs.'
p1156
S'vs.'
p1157
S'IN'
p1158
S'B-PP'
p1159
g5
tp1160
a(S'36.6'
p1161
S'36.6'
p1162
S'CD'
p1163
S'B-NP'
p1164
g5
tp1165
a(g270
g270
g270
g5
g5
tp1166
a(S'p'
p1167
g1167
S'NN'
p1168
S'B-NP'
p1169
g5
tp1170
a(S'='
p1171
g1171
S'SYM'
p1172
S'B-VP'
p1173
g5
tp1174
a(S'0.0004'
p1175
S'0.0004'
p1176
S'CD'
p1177
S'B-NP'
p1178
g5
tp1179
a(g125
g125
g125
g5
g5
tp1180
a(S'and'
p1181
S'and'
p1182
S'CC'
p1183
g5
g5
tp1184
a(S'60'
p1185
S'60'
p1186
S'CD'
p1187
S'B-NP'
p1188
g5
tp1189
a(S'min'
p1190
S'min'
p1191
S'NN'
p1192
S'I-NP'
p1193
g5
tp1194
a(S'post-administration'
p1195
S'post-administration'
p1196
S'JJ'
p1197
S'B-ADJP'
p1198
g5
tp1199
a(g118
g118
g118
g5
g5
tp1200
a(S'143.0'
p1201
S'143.0'
p1202
S'CD'
p1203
S'B-NP'
p1204
g5
tp1205
a(S'vs.'
p1206
S'vs.'
p1207
S'IN'
p1208
S'B-PP'
p1209
g5
tp1210
a(S'104.5'
p1211
S'104.5'
p1212
S'CD'
p1213
S'B-NP'
p1214
g5
tp1215
a(g270
g270
g270
g5
g5
tp1216
a(g1167
g1167
S'NN'
p1217
S'B-NP'
p1218
g5
tp1219
a(g1171
g1171
S'SYM'
p1220
S'B-VP'
p1221
g5
tp1222
a(S'0.0002'
p1223
S'0.0002'
p1224
S'CD'
p1225
S'B-NP'
p1226
g5
tp1227
a(g125
g125
g125
g5
g5
tp1228
a(g87
g87
g87
g5
g5
tp1229
a(S'Furthermore'
p1230
S'Furthermore'
p1231
S'RB'
p1232
S'B-ADVP'
p1233
g5
tp1234
a(g270
g270
g270
g5
g5
tp1235
a(S'sublingual'
p1236
S'sublingual'
p1237
S'JJ'
p1238
S'B-NP'
p1239
g5
tp1240
a(S'fentanyl'
p1241
S'fentanyl'
p1242
S'NN'
p1243
S'I-NP'
p1244
g5
tp1245
a(S'ODT'
p1246
S'ODT'
p1247
S'NN'
p1248
S'I-NP'
p1249
g5
tp1250
a(S'provided'
p1251
S'provide'
p1252
S'VBD'
p1253
S'B-VP'
p1254
g5
tp1255
a(S'significant'
p1256
S'significant'
p1257
S'JJ'
p1258
S'B-NP'
p1259
g5
tp1260
a(S'improvements'
p1261
S'improvement'
p1262
S'NNS'
p1263
S'I-NP'
p1264
g5
tp1265
a(S'in'
p1266
S'in'
p1267
S'IN'
p1268
S'B-PP'
p1269
g5
tp1270
a(S'PID'
p1271
S'PID'
p1272
S'NN'
p1273
S'B-NP'
p1274
g5
tp1275
a(S'and'
p1276
S'and'
p1277
S'CC'
p1278
g5
g5
tp1279
a(S'PR'
p1280
S'PR'
p1281
S'NN'
p1282
S'B-NP'
p1283
S'B-protein'
p1284
tp1285
a(S'compared'
p1286
S'compare'
p1287
S'VBN'
p1288
S'B-VP'
p1289
g5
tp1290
a(S'to'
p1291
S'to'
p1292
S'TO'
p1293
S'B-PP'
p1294
g5
tp1295
a(S'placebo'
p1296
S'placebo'
p1297
S'NN'
p1298
S'B-NP'
p1299
g5
tp1300
a(g270
g270
g270
g5
g5
tp1301
a(S'from'
p1302
S'from'
p1303
S'IN'
p1304
S'B-PP'
p1305
g5
tp1306
a(S'10'
p1307
S'10'
p1308
S'CD'
p1309
S'B-NP'
p1310
g5
tp1311
a(S'min'
p1312
S'min'
p1313
S'NN'
p1314
S'I-NP'
p1315
g5
tp1316
a(S'post-dose'
p1317
S'post-dose'
p1318
S'JJ'
p1319
S'B-ADJP'
p1320
g5
tp1321
a(g118
g118
g118
g5
g5
tp1322
a(g1167
g1167
S'NN'
p1323
S'B-NP'
p1324
g5
tp1325
a(g1171
g1171
S'SYM'
p1326
S'B-VP'
p1327
g5
tp1328
a(S'0.0055'
p1329
S'0.0055'
p1330
S'CD'
p1331
S'B-NP'
p1332
g5
tp1333
a(S'and'
p1334
S'and'
p1335
S'CC'
p1336
g5
g5
tp1337
a(g1167
g1167
S'NN'
p1338
S'B-NP'
p1339
g5
tp1340
a(g1171
g1171
S'SYM'
p1341
S'B-VP'
p1342
g5
tp1343
a(S'0.049'
p1344
S'0.049'
p1345
S'CD'
p1346
S'B-NP'
p1347
g5
tp1348
a(S'for'
p1349
S'for'
p1350
S'IN'
p1351
S'B-PP'
p1352
g5
tp1353
a(S'PID'
p1354
S'PID'
p1355
S'NN'
p1356
S'B-NP'
p1357
g5
tp1358
a(S'and'
p1359
S'and'
p1360
S'CC'
p1361
S'I-NP'
p1362
g5
tp1363
a(S'PR'
p1364
S'PR'
p1365
S'NN'
p1366
S'I-NP'
p1367
S'B-protein'
p1368
tp1369
a(g270
g270
g270
g5
g5
tp1370
a(S'respectively'
p1371
S'respectively'
p1372
S'RB'
p1373
S'B-ADVP'
p1374
g5
tp1375
a(g125
g125
g125
g5
g5
tp1376
a(g87
g87
g87
g5
g5
tp1377
a(S'Patient'
p1378
S'Patient'
p1379
S'NN'
p1380
S'B-NP'
p1381
g5
tp1382
a(S'recruitment'
p1383
S'recruitment'
p1384
S'NN'
p1385
S'I-NP'
p1386
g5
tp1387
a(S'was'
p1388
S'be'
p1389
S'VBD'
p1390
S'B-VP'
p1391
g5
tp1392
a(S'stopped'
p1393
S'stop'
p1394
S'VBN'
p1395
S'I-VP'
p1396
g5
tp1397
a(S'early'
p1398
S'early'
p1399
S'JJ'
p1400
S'B-NP'
p1401
g5
tp1402
a(g270
g270
g270
S'I-NP'
p1403
g5
tp1404
a(S'due'
p1405
S'due'
p1406
S'JJ'
p1407
S'B-PP'
p1408
g5
tp1409
a(S'to'
p1410
S'to'
p1411
S'TO'
p1412
S'B-PP'
p1413
g5
tp1414
a(S'positive'
p1415
S'positive'
p1416
S'JJ'
p1417
S'B-NP'
p1418
g5
tp1419
a(S'interim'
p1420
S'interim'
p1421
S'JJ'
p1422
S'I-NP'
p1423
g5
tp1424
a(S'analysis'
p1425
S'analysis'
p1426
S'NN'
p1427
S'I-NP'
p1428
g5
tp1429
a(S'results'
p1430
S'result'
p1431
S'NNS'
p1432
S'I-NP'
p1433
g5
tp1434
a(g118
g118
g118
g5
g5
tp1435
a(S'significant'
p1436
S'significant'
p1437
S'JJ'
p1438
S'B-ADJP'
p1439
g5
tp1440
a(S'at'
p1441
S'at'
p1442
S'IN'
p1443
S'B-PP'
p1444
g5
tp1445
a(S'prespecified'
p1446
S'prespecifie'
p1447
S'VBN'
p1448
S'B-NP'
p1449
g5
tp1450
a(S'level'
p1451
S'level'
p1452
S'NN'
p1453
S'I-NP'
p1454
g5
tp1455
a(g270
g270
g270
g5
g5
tp1456
a(g1167
g1167
S'NN'
p1457
S'B-NP'
p1458
g5
tp1459
a(S'<'
p1460
g1460
S'SYM'
p1461
S'B-VP'
p1462
g5
tp1463
a(S'or'
p1464
S'or'
p1465
S'CC'
p1466
g5
g5
tp1467
a(g1171
g1171
S'SYM'
p1468
S'B-VP'
p1469
g5
tp1470
a(S'0.0414'
p1471
S'0.0414'
p1472
S'CD'
p1473
S'B-NP'
p1474
g5
tp1475
a(g125
g125
g125
g5
g5
tp1476
a(g87
g87
g87
g5
g5
tp1477
a(S'Overall'
p1478
S'Overall'
p1479
S'JJ'
p1480
S'B-NP'
p1481
g5
tp1482
a(g270
g270
g270
S'I-NP'
p1483
g5
tp1484
a(S'sublingual'
p1485
S'sublingual'
p1486
S'JJ'
p1487
S'I-NP'
p1488
g5
tp1489
a(S'fentanyl'
p1490
S'fentanyl'
p1491
S'NN'
p1492
S'I-NP'
p1493
g5
tp1494
a(S'ODT'
p1495
S'ODT'
p1496
S'NN'
p1497
S'I-NP'
p1498
g5
tp1499
a(S'was'
p1500
S'be'
p1501
S'VBD'
p1502
S'B-VP'
p1503
g5
tp1504
a(S'well-tolerated'
p1505
S'well-tolerated'
p1506
S'JJ'
p1507
S'B-ADJP'
p1508
g5
tp1509
a(S'both'
p1510
S'both'
p1511
S'CC'
p1512
g5
g5
tp1513
a(S'systemically'
p1514
S'systemically'
p1515
S'RB'
p1516
S'B-ADVP'
p1517
g5
tp1518
a(S'and'
p1519
S'and'
p1520
S'CC'
p1521
S'I-ADVP'
p1522
g5
tp1523
a(S'sublingually'
p1524
S'sublingually'
p1525
S'RB'
p1526
S'I-ADVP'
p1527
g5
tp1528
a(g270
g270
g270
g5
g5
tp1529
a(S'with'
p1530
S'with'
p1531
S'IN'
p1532
S'B-PP'
p1533
g5
tp1534
a(S'41'
p1535
S'41'
p1536
S'CD'
p1537
S'B-NP'
p1538
g5
tp1539
a(S'patients'
p1540
S'patient'
p1541
S'NNS'
p1542
S'I-NP'
p1543
g5
tp1544
a(S'experiencing'
p1545
S'experience'
p1546
S'VBG'
p1547
S'B-VP'
p1548
g5
tp1549
a(g434
g434
S'SYM'
p1550
S'B-NP'
p1551
g5
tp1552
a(S'or'
p1553
S'or'
p1554
S'CC'
p1555
g5
g5
tp1556
a(S'=1'
p1557
S'=1'
p1558
S'CD'
p1559
S'B-NP'
p1560
g5
tp1561
a(S'study'
p1562
S'study'
p1563
S'NN'
p1564
S'I-NP'
p1565
g5
tp1566
a(S'drug-related'
p1567
S'drug-related'
p1568
S'JJ'
p1569
S'I-NP'
p1570
g5
tp1571
a(S'adverse'
p1572
S'adverse'
p1573
S'JJ'
p1574
S'I-NP'
p1575
g5
tp1576
a(S'event'
p1577
S'event'
p1578
S'NN'
p1579
S'I-NP'
p1580
g5
tp1581
a(g118
g118
g118
g5
g5
tp1582
a(S'AE'
p1583
S'AE'
p1584
S'NN'
p1585
S'B-NP'
p1586
g5
tp1587
a(g125
g125
g125
g5
g5
tp1588
a(g87
g87
g87
g5
g5
tp1589
a(S'The'
p1590
S'The'
p1591
S'DT'
p1592
S'B-NP'
p1593
g5
tp1594
a(S'most'
p1595
S'most'
p1596
S'RBS'
p1597
S'I-NP'
p1598
g5
tp1599
a(S'common'
p1600
S'common'
p1601
S'JJ'
p1602
S'I-NP'
p1603
g5
tp1604
a(S'AEs'
p1605
S'AE'
p1606
S'NNS'
p1607
S'I-NP'
p1608
g5
tp1609
a(S'included'
p1610
S'include'
p1611
S'VBD'
p1612
S'B-VP'
p1613
g5
tp1614
a(S'nausea'
p1615
S'nausea'
p1616
S'NN'
p1617
S'B-NP'
p1618
g5
tp1619
a(g118
g118
g118
g5
g5
tp1620
a(S'12.2'
p1621
S'12.2'
p1622
S'CD'
p1623
S'B-NP'
p1624
g5
tp1625
a(S'%'
p1626
g1626
S'NN'
p1627
S'I-NP'
p1628
g5
tp1629
a(g125
g125
g125
g5
g5
tp1630
a(g270
g270
g270
g5
g5
tp1631
a(S'vomiting'
p1632
S'vomit'
p1633
S'VBG'
p1634
S'B-VP'
p1635
g5
tp1636
a(g118
g118
g118
g5
g5
tp1637
a(S'5.3'
p1638
S'5.3'
p1639
S'CD'
p1640
S'B-NP'
p1641
g5
tp1642
a(g1626
g1626
S'NN'
p1643
S'I-NP'
p1644
g5
tp1645
a(g125
g125
g125
g5
g5
tp1646
a(S'and'
p1647
S'and'
p1648
S'CC'
p1649
g5
g5
tp1650
a(S'somnolence'
p1651
S'somnolence'
p1652
S'NN'
p1653
S'B-NP'
p1654
g5
tp1655
a(g118
g118
g118
g5
g5
tp1656
a(S'4.6'
p1657
S'4.6'
p1658
S'CD'
p1659
S'B-NP'
p1660
g5
tp1661
a(g1626
g1626
S'NN'
p1662
S'I-NP'
p1663
g5
tp1664
a(g125
g125
g125
g5
g5
tp1665
a(g87
g87
g87
g5
g5
tp1666
a(S'One'
p1667
S'One'
p1668
S'CD'
p1669
S'B-NP'
p1670
g5
tp1671
a(S'serious'
p1672
S'serious'
p1673
S'JJ'
p1674
S'I-NP'
p1675
g5
tp1676
a(S'AE'
p1677
S'AE'
p1678
S'NN'
p1679
S'I-NP'
p1680
g5
tp1681
a(g118
g118
g118
g5
g5
tp1682
a(S'mild'
p1683
S'mild'
p1684
S'JJ'
p1685
S'B-NP'
p1686
g5
tp1687
a(S'affect'
p1688
S'affect'
p1689
S'NN'
p1690
S'I-NP'
p1691
g5
tp1692
a(S'lability'
p1693
S'lability'
p1694
S'NN'
p1695
S'I-NP'
p1696
g5
tp1697
a(g125
g125
g125
g5
g5
tp1698
a(S'was'
p1699
S'be'
p1700
S'VBD'
p1701
S'B-VP'
p1702
g5
tp1703
a(S'considered'
p1704
S'consider'
p1705
S'VBN'
p1706
S'I-VP'
p1707
g5
tp1708
a(S'possibly'
p1709
S'possibly'
p1710
S'RB'
p1711
S'B-ADJP'
p1712
g5
tp1713
a(S'related'
p1714
S'relate'
p1715
S'VBN'
p1716
S'I-ADJP'
p1717
g5
tp1718
a(S'to'
p1719
S'to'
p1720
S'TO'
p1721
S'B-VP'
p1722
g5
tp1723
a(S'study'
p1724
S'study'
p1725
S'VB'
p1726
S'I-VP'
p1727
g5
tp1728
a(S'medication.'
p1729
S'medication.'
p1730
S'NN'
p1731
S'B-NP'
p1732
g5
tp1733
a(S'The'
p1734
S'The'
p1735
S'DT'
p1736
S'B-NP'
p1737
g5
tp1738
a(S'observed'
p1739
S'observe'
p1740
S'VBN'
p1741
S'I-NP'
p1742
g5
tp1743
a(S'pattern'
p1744
S'pattern'
p1745
S'NN'
p1746
S'I-NP'
p1747
g5
tp1748
a(S'of'
p1749
S'of'
p1750
S'IN'
p1751
S'B-PP'
p1752
g5
tp1753
a(S'AEs'
p1754
S'AE'
p1755
S'NNS'
p1756
S'B-NP'
p1757
S'B-protein'
p1758
tp1759
a(S'was'
p1760
S'be'
p1761
S'VBD'
p1762
S'B-VP'
p1763
g5
tp1764
a(S'consistent'
p1765
S'consistent'
p1766
S'JJ'
p1767
S'B-ADJP'
p1768
g5
tp1769
a(S'with'
p1770
S'with'
p1771
S'IN'
p1772
S'B-PP'
p1773
g5
tp1774
a(S'that'
p1775
S'that'
p1776
S'DT'
p1777
S'B-NP'
p1778
g5
tp1779
a(S'previously'
p1780
S'previously'
p1781
S'RB'
p1782
S'B-VP'
p1783
g5
tp1784
a(S'observed'
p1785
S'observe'
p1786
S'VBN'
p1787
S'I-VP'
p1788
g5
tp1789
a(S'with'
p1790
S'with'
p1791
S'IN'
p1792
S'B-PP'
p1793
g5
tp1794
a(S'fentanyl'
p1795
S'fentanyl'
p1796
S'NN'
p1797
S'B-NP'
p1798
g5
tp1799
a(g87
g87
g87
g5
g5
tp1800
a(S'CONCLUSIONS'
p1801
S'CONCLUSIONS'
p1802
S'NNS'
p1803
S'B-NP'
p1804
g5
tp1805
a(S'Sublingual'
p1806
S'Sublingual'
p1807
S'JJ'
p1808
S'I-NP'
p1809
g5
tp1810
a(S'fentanyl'
p1811
S'fentanyl'
p1812
S'NN'
p1813
S'I-NP'
p1814
g5
tp1815
a(S'ODT'
p1816
S'ODT'
p1817
S'NN'
p1818
S'I-NP'
p1819
g5
tp1820
a(S'was'
p1821
S'be'
p1822
S'VBD'
p1823
S'B-VP'
p1824
g5
tp1825
a(S'efficacious'
p1826
S'efficacious'
p1827
S'JJ'
p1828
S'B-ADJP'
p1829
g5
tp1830
a(S'and'
p1831
S'and'
p1832
S'CC'
p1833
S'I-ADJP'
p1834
g5
tp1835
a(S'well-tolerated'
p1836
S'well-tolerated'
p1837
S'JJ'
p1838
S'I-ADJP'
p1839
g5
tp1840
a(S'for'
p1841
S'for'
p1842
S'IN'
p1843
S'B-PP'
p1844
g5
tp1845
a(S'the'
p1846
S'the'
p1847
S'DT'
p1848
S'B-NP'
p1849
g5
tp1850
a(S'treatment'
p1851
S'treatment'
p1852
S'NN'
p1853
S'I-NP'
p1854
g5
tp1855
a(S'of'
p1856
S'of'
p1857
S'IN'
p1858
S'B-PP'
p1859
g5
tp1860
a(S'BTcP'
p1861
S'BTcP'
p1862
S'NN'
p1863
S'B-NP'
p1864
S'B-protein'
p1865
tp1866
a(S'in'
p1867
S'in'
p1868
S'IN'
p1869
S'B-PP'
p1870
g5
tp1871
a(S'opioid-tolerant'
p1872
S'opioid-tolerant'
p1873
S'JJ'
p1874
S'B-NP'
p1875
g5
tp1876
a(S'patients'
p1877
S'patient'
p1878
S'NNS'
p1879
S'I-NP'
p1880
g5
tp1881
a(S'with'
p1882
S'with'
p1883
S'IN'
p1884
S'B-PP'
p1885
g5
tp1886
a(S'cancer.'
p1887
S'cancer.'
p1888
S'NN'
p1889
S'B-NP'
p1890
g5
tp1891
a(S'Sublingual'
p1892
S'Sublingual'
p1893
S'JJ'
p1894
S'I-NP'
p1895
g5
tp1896
a(S'fentanyl'
p1897
S'fentanyl'
p1898
S'NN'
p1899
S'I-NP'
p1900
g5
tp1901
a(S'ODT'
p1902
S'ODT'
p1903
S'NN'
p1904
S'I-NP'
p1905
g5
tp1906
a(S'provided'
p1907
S'provide'
p1908
S'VBD'
p1909
S'B-VP'
p1910
g5
tp1911
a(S'significant'
p1912
S'significant'
p1913
S'JJ'
p1914
S'B-NP'
p1915
g5
tp1916
a(S'improvements'
p1917
S'improvement'
p1918
S'NNS'
p1919
S'I-NP'
p1920
g5
tp1921
a(S'in'
p1922
S'in'
p1923
S'IN'
p1924
S'B-PP'
p1925
g5
tp1926
a(S'pain'
p1927
S'pain'
p1928
S'NN'
p1929
S'B-NP'
p1930
g5
tp1931
a(S'intensity'
p1932
S'intensity'
p1933
S'NN'
p1934
S'I-NP'
p1935
g5
tp1936
a(S'compared'
p1937
S'compare'
p1938
S'VBN'
p1939
S'B-VP'
p1940
g5
tp1941
a(S'to'
p1942
S'to'
p1943
S'TO'
p1944
S'B-PP'
p1945
g5
tp1946
a(S'placebo'
p1947
S'placebo'
p1948
S'NN'
p1949
S'B-NP'
p1950
g5
tp1951
a(g270
g270
g270
g5
g5
tp1952
a(S'from'
p1953
S'from'
p1954
S'IN'
p1955
S'B-PP'
p1956
g5
tp1957
a(S'10'
p1958
S'10'
p1959
S'CD'
p1960
S'B-NP'
p1961
g5
tp1962
a(S'min'
p1963
S'min'
p1964
S'NN'
p1965
S'I-NP'
p1966
g5
tp1967
a(S'post-administration'
p1968
S'post-administration'
p1969
S'JJ'
p1970
S'B-ADJP'
p1971
g5
tp1972
a(S'and'
p1973
S'and'
p1974
S'CC'
p1975
g5
g5
tp1976
a(S'throughout'
p1977
S'throughout'
p1978
S'IN'
p1979
S'B-PP'
p1980
g5
tp1981
a(S'the'
p1982
S'the'
p1983
S'DT'
p1984
S'B-NP'
p1985
g5
tp1986
a(S'60-min'
p1987
S'60-min'
p1988
S'JJ'
p1989
S'I-NP'
p1990
g5
tp1991
a(S'post-dose'
p1992
S'post-dose'
p1993
S'JJ'
p1994
S'I-NP'
p1995
g5
tp1996
a(S'assessment'
p1997
S'assessment'
p1998
S'NN'
p1999
S'I-NP'
p2000
g5
tp2001
a(S'period.'
p2002
S'period.'
p2003
S'NN'
p2004
S'I-NP'
p2005
g5
tp2006
a(S'Sublingual'
p2007
S'Sublingual'
p2008
S'JJ'
p2009
S'I-NP'
p2010
g5
tp2011
a(S'fentanyl'
p2012
S'fentanyl'
p2013
S'NN'
p2014
S'I-NP'
p2015
g5
tp2016
a(S'ODT'
p2017
S'ODT'
p2018
S'NN'
p2019
S'I-NP'
p2020
g5
tp2021
a(S'was'
p2022
S'be'
p2023
S'VBD'
p2024
S'B-VP'
p2025
g5
tp2026
a(S'well'
p2027
S'well'
p2028
S'RB'
p2029
S'I-VP'
p2030
g5
tp2031
a(S'tolerated'
p2032
S'tolerate'
p2033
S'VBN'
p2034
S'I-VP'
p2035
g5
tp2036
a(S'over'
p2037
S'over'
p2038
S'IN'
p2039
S'B-NP'
p2040
g5
tp2041
a(S'12'
p2042
S'12'
p2043
S'CD'
p2044
S'I-NP'
p2045
g5
tp2046
a(S'months'
p2047
S'month'
p2048
S'NNS'
p2049
S'I-NP'
p2050
g5
tp2051
a(S'of'
p2052
S'of'
p2053
S'IN'
p2054
S'B-PP'
p2055
g5
tp2056
a(S'treatment'
p2057
S'treatment'
p2058
S'NN'
p2059
S'B-NP'
p2060
g5
tp2061
a(g87
g87
g87
g5
g5
tp2062
a.