(lp0
(S'The'
p1
S'The'
p2
S'DT'
p3
S'B-NP'
p4
S'O'
p5
tp6
a(S'IDvIP'
p7
S'IDvIP'
p8
S'NN'
p9
S'I-NP'
p10
g5
tp11
a(S'trial'
p12
S'trial'
p13
S'NN'
p14
S'I-NP'
p15
g5
tp16
a(S':'
p17
g17
g17
g5
g5
tp18
a(S'a'
p19
g19
S'DT'
p20
S'B-NP'
p21
g5
tp22
a(S'two-centre'
p23
S'two-centre'
p24
S'JJ'
p25
S'I-NP'
p26
g5
tp27
a(S'randomised'
p28
S'randomise'
p29
S'VBN'
p30
S'I-NP'
p31
g5
tp32
a(S'double-blind'
p33
S'double-blind'
p34
S'JJ'
p35
S'I-NP'
p36
g5
tp37
a(S'controlled'
p38
S'control'
p39
S'VBN'
p40
S'I-NP'
p41
g5
tp42
a(S'trial'
p43
S'trial'
p44
S'NN'
p45
S'I-NP'
p46
g5
tp47
a(S'comparing'
p48
S'compare'
p49
S'VBG'
p50
S'B-VP'
p51
g5
tp52
a(S'intramuscular'
p53
S'intramuscular'
p54
S'JJ'
p55
S'B-NP'
p56
g5
tp57
a(S'diamorphine'
p58
S'diamorphine'
p59
S'NN'
p60
S'I-NP'
p61
g5
tp62
a(S'and'
p63
S'and'
p64
S'CC'
p65
g5
g5
tp66
a(S'intramuscular'
p67
S'intramuscular'
p68
S'JJ'
p69
S'B-NP'
p70
g5
tp71
a(S'pethidine'
p72
S'pethidine'
p73
S'NN'
p74
S'I-NP'
p75
g5
tp76
a(S'for'
p77
S'for'
p78
S'IN'
p79
S'B-PP'
p80
g5
tp81
a(S'labour'
p82
S'labour'
p83
S'NN'
p84
S'B-NP'
p85
g5
tp86
a(S'analgesia'
p87
S'analgesia'
p88
S'NN'
p89
S'I-NP'
p90
g5
tp91
a(S'.'
p92
g92
g92
g5
g5
tp93
a(S'BACKGROUND'
p94
S'BACKGROUND'
p95
S'NN'
p96
S'B-NP'
p97
g5
tp98
a(S'Intramuscular'
p99
S'Intramuscular'
p100
S'JJ'
p101
S'I-NP'
p102
g5
tp103
a(S'pethidine'
p104
S'pethidine'
p105
S'NN'
p106
S'I-NP'
p107
g5
tp108
a(S'is'
p109
S'be'
p110
S'VBZ'
p111
S'B-VP'
p112
g5
tp113
a(S'routinely'
p114
S'routinely'
p115
S'RB'
p116
S'I-VP'
p117
g5
tp118
a(S'used'
p119
S'use'
p120
S'VBN'
p121
S'I-VP'
p122
g5
tp123
a(S'throughout'
p124
S'throughout'
p125
S'IN'
p126
S'B-PP'
p127
g5
tp128
a(S'the'
p129
S'the'
p130
S'DT'
p131
S'B-NP'
p132
g5
tp133
a(S'UK'
p134
S'UK'
p135
S'NNP'
p136
S'I-NP'
p137
g5
tp138
a(S'for'
p139
S'for'
p140
S'IN'
p141
S'B-PP'
p142
g5
tp143
a(S'labour'
p144
S'labour'
p145
S'PRP$'
p146
S'B-NP'
p147
g5
tp148
a(S'analgesia.'
p149
S'analgesia.'
p150
S'NN'
p151
S'I-NP'
p152
g5
tp153
a(S'Studies'
p154
S'Study'
p155
S'NNS'
p156
S'I-NP'
p157
g5
tp158
a(S'have'
p159
S'have'
p160
S'VBP'
p161
S'B-VP'
p162
g5
tp163
a(S'suggested'
p164
S'suggest'
p165
S'VBN'
p166
S'I-VP'
p167
g5
tp168
a(S'that'
p169
S'that'
p170
S'IN'
p171
S'B-SBAR'
p172
g5
tp173
a(S'pethidine'
p174
S'pethidine'
p175
S'NN'
p176
S'B-NP'
p177
g5
tp178
a(S'provides'
p179
S'provide'
p180
S'VBZ'
p181
S'B-VP'
p182
g5
tp183
a(S'little'
p184
S'little'
p185
S'JJ'
p186
S'B-NP'
p187
g5
tp188
a(S'pain'
p189
S'pain'
p190
S'NN'
p191
S'I-NP'
p192
g5
tp193
a(S'relief'
p194
S'relief'
p195
S'NN'
p196
S'I-NP'
p197
g5
tp198
a(S'in'
p199
S'in'
p200
S'IN'
p201
S'B-PP'
p202
g5
tp203
a(S'labour'
p204
S'labour'
p205
S'NN'
p206
S'B-NP'
p207
g5
tp208
a(S'and'
p209
S'and'
p210
S'CC'
p211
g5
g5
tp212
a(S'has'
p213
S'have'
p214
S'VBZ'
p215
S'B-VP'
p216
g5
tp217
a(g19
g19
S'DT'
p218
S'B-NP'
p219
g5
tp220
a(S'number'
p221
S'number'
p222
S'NN'
p223
S'I-NP'
p224
g5
tp225
a(S'of'
p226
S'of'
p227
S'IN'
p228
S'B-PP'
p229
g5
tp230
a(S'side'
p231
S'side'
p232
S'NN'
p233
S'B-NP'
p234
g5
tp235
a(S'effects'
p236
S'effect'
p237
S'NNS'
p238
S'I-NP'
p239
g5
tp240
a(S'affecting'
p241
S'affect'
p242
S'VBG'
p243
S'B-VP'
p244
g5
tp245
a(S'mother'
p246
S'mother'
p247
S'NN'
p248
S'B-NP'
p249
g5
tp250
a(S'and'
p251
S'and'
p252
S'CC'
p253
S'I-NP'
p254
g5
tp255
a(S'neonate.'
p256
S'neonate.'
p257
S'NN'
p258
S'I-NP'
p259
g5
tp260
a(S'It'
p261
S'It'
p262
S'PRP'
p263
S'B-NP'
p264
g5
tp265
a(S'can'
p266
S'can'
p267
S'MD'
p268
S'B-VP'
p269
g5
tp270
a(S'cause'
p271
S'cause'
p272
S'VB'
p273
S'I-VP'
p274
g5
tp275
a(S'nausea'
p276
S'nausea'
p277
S'NN'
p278
S'B-NP'
p279
g5
tp280
a(S','
p281
g281
g281
S'I-NP'
p282
g5
tp283
a(S'vomiting'
p284
S'vomiting'
p285
S'NN'
p286
S'I-NP'
p287
g5
tp288
a(S'and'
p289
S'and'
p290
S'CC'
p291
S'I-NP'
p292
g5
tp293
a(S'dysphoria'
p294
S'dysphoria'
p295
S'NN'
p296
S'I-NP'
p297
g5
tp298
a(S'in'
p299
S'in'
p300
S'IN'
p301
S'B-PP'
p302
g5
tp303
a(S'mothers'
p304
S'mother'
p305
S'NNS'
p306
S'B-NP'
p307
g5
tp308
a(S'and'
p309
S'and'
p310
S'CC'
p311
g5
g5
tp312
a(S'can'
p313
S'can'
p314
S'MD'
p315
S'B-VP'
p316
g5
tp317
a(S'cause'
p318
S'cause'
p319
S'VB'
p320
S'I-VP'
p321
g5
tp322
a(S'reduced'
p323
S'reduce'
p324
S'VBN'
p325
S'I-VP'
p326
g5
tp327
a(S'fetal'
p328
S'fetal'
p329
S'JJ'
p330
S'B-NP'
p331
g5
tp332
a(S'heart'
p333
S'heart'
p334
S'NN'
p335
S'I-NP'
p336
g5
tp337
a(S'rate'
p338
S'rate'
p339
S'NN'
p340
S'I-NP'
p341
g5
tp342
a(S'variability'
p343
S'variability'
p344
S'NN'
p345
S'I-NP'
p346
g5
tp347
a(S'and'
p348
S'and'
p349
S'CC'
p350
g5
g5
tp351
a(S'accelerations.'
p352
S'accelerations.'
p353
S'VB'
p354
S'B-VP'
p355
g5
tp356
a(S'Neonatal'
p357
S'Neonatal'
p358
S'JJ'
p359
S'B-NP'
p360
g5
tp361
a(S'effects'
p362
S'effect'
p363
S'NNS'
p364
S'I-NP'
p365
g5
tp366
a(S'include'
p367
S'include'
p368
S'VBP'
p369
S'B-VP'
p370
g5
tp371
a(S'respiratory'
p372
S'respiratory'
p373
S'JJ'
p374
S'B-NP'
p375
g5
tp376
a(S'depression'
p377
S'depression'
p378
S'NN'
p379
S'I-NP'
p380
g5
tp381
a(S'and'
p382
S'and'
p383
S'CC'
p384
g5
g5
tp385
a(S'impaired'
p386
S'impaired'
p387
S'JJ'
p388
S'B-NP'
p389
g5
tp390
a(S'feeding.'
p391
S'feeding.'
p392
S'NN'
p393
S'I-NP'
p394
g5
tp395
a(S'There'
p396
S'There'
p397
S'EX'
p398
S'B-NP'
p399
g5
tp400
a(S'are'
p401
S'be'
p402
S'VBP'
p403
S'B-VP'
p404
g5
tp405
a(S'few'
p406
S'few'
p407
S'JJ'
p408
S'B-NP'
p409
g5
tp410
a(S'large'
p411
S'large'
p412
S'JJ'
p413
S'I-NP'
p414
g5
tp415
a(S'studies'
p416
S'study'
p417
S'NNS'
p418
S'I-NP'
p419
g5
tp420
a(S'comparing'
p421
S'compare'
p422
S'VBG'
p423
S'B-VP'
p424
g5
tp425
a(S'the'
p426
S'the'
p427
S'DT'
p428
S'B-NP'
p429
g5
tp430
a(S'relative'
p431
S'relative'
p432
S'JJ'
p433
S'I-NP'
p434
g5
tp435
a(S'side'
p436
S'side'
p437
S'NN'
p438
S'I-NP'
p439
g5
tp440
a(S'effects'
p441
S'effect'
p442
S'NNS'
p443
S'I-NP'
p444
g5
tp445
a(S'and'
p446
S'and'
p447
S'CC'
p448
g5
g5
tp449
a(S'efficacy'
p450
S'efficacy'
p451
S'NN'
p452
S'B-NP'
p453
g5
tp454
a(S'of'
p455
S'of'
p456
S'IN'
p457
S'B-PP'
p458
g5
tp459
a(S'different'
p460
S'different'
p461
S'JJ'
p462
S'B-NP'
p463
g5
tp464
a(S'opioids'
p465
S'opioid'
p466
S'NNS'
p467
S'I-NP'
p468
g5
tp469
a(S'in'
p470
S'in'
p471
S'IN'
p472
S'B-PP'
p473
g5
tp474
a(S'labour.'
p475
S'labour.'
p476
S'NN'
p477
S'B-NP'
p478
g5
tp479
a(S'A'
p480
g480
S'NN'
p481
S'I-NP'
p482
g5
tp483
a(S'small'
p484
S'small'
p485
S'JJ'
p486
S'I-NP'
p487
g5
tp488
a(S'trial'
p489
S'trial'
p490
S'NN'
p491
S'I-NP'
p492
g5
tp493
a(S'comparing'
p494
S'compare'
p495
S'VBG'
p496
S'B-VP'
p497
g5
tp498
a(S'intramuscular'
p499
S'intramuscular'
p500
S'JJ'
p501
S'B-NP'
p502
g5
tp503
a(S'pethidine'
p504
S'pethidine'
p505
S'NN'
p506
S'I-NP'
p507
g5
tp508
a(S'with'
p509
S'with'
p510
S'IN'
p511
S'B-PP'
p512
g5
tp513
a(S'diamorphine'
p514
S'diamorphine'
p515
S'NN'
p516
S'B-NP'
p517
g5
tp518
a(g281
g281
g281
g5
g5
tp519
a(S'showed'
p520
S'show'
p521
S'VBD'
p522
S'B-VP'
p523
g5
tp524
a(S'diamorphine'
p525
S'diamorphine'
p526
S'NN'
p527
S'B-NP'
p528
g5
tp529
a(S'to'
p530
S'to'
p531
S'TO'
p532
S'B-VP'
p533
g5
tp534
a(S'have'
p535
S'have'
p536
S'VB'
p537
S'I-VP'
p538
g5
tp539
a(S'some'
p540
S'some'
p541
S'DT'
p542
S'B-NP'
p543
g5
tp544
a(S'benefits'
p545
S'benefit'
p546
S'NNS'
p547
S'I-NP'
p548
g5
tp549
a(S'over'
p550
S'over'
p551
S'IN'
p552
S'B-PP'
p553
g5
tp554
a(S'pethidine'
p555
S'pethidine'
p556
S'NN'
p557
S'B-NP'
p558
g5
tp559
a(S'when'
p560
S'when'
p561
S'WRB'
p562
S'B-ADVP'
p563
g5
tp564
a(S'used'
p565
S'use'
p566
S'VBN'
p567
S'B-VP'
p568
g5
tp569
a(S'for'
p570
S'for'
p571
S'IN'
p572
S'B-PP'
p573
g5
tp574
a(S'labour'
p575
S'labour'
p576
S'NN'
p577
S'B-NP'
p578
g5
tp579
a(S'analgesia'
p580
S'analgesia'
p581
S'NN'
p582
S'I-NP'
p583
g5
tp584
a(S'but'
p585
S'but'
p586
S'CC'
p587
g5
g5
tp588
a(S'the'
p589
S'the'
p590
S'DT'
p591
S'B-NP'
p592
g5
tp593
a(S'study'
p594
S'study'
p595
S'NN'
p596
S'I-NP'
p597
g5
tp598
a(S'did'
p599
S'do'
p600
S'VBD'
p601
S'B-VP'
p602
g5
tp603
a(S'not'
p604
S'not'
p605
S'RB'
p606
S'I-VP'
p607
g5
tp608
a(S'investigate'
p609
S'investigate'
p610
S'VB'
p611
S'I-VP'
p612
g5
tp613
a(S'the'
p614
S'the'
p615
S'DT'
p616
S'B-NP'
p617
g5
tp618
a(S'adverse'
p619
S'adverse'
p620
S'JJ'
p621
S'I-NP'
p622
g5
tp623
a(S'effects'
p624
S'effect'
p625
S'NNS'
p626
S'I-NP'
p627
g5
tp628
a(S'of'
p629
S'of'
p630
S'IN'
p631
S'B-PP'
p632
g5
tp633
a(S'either'
p634
S'either'
p635
S'DT'
p636
S'B-NP'
p637
g5
tp638
a(S'opioid'
p639
S'opioid'
p640
S'NN'
p641
S'I-NP'
p642
g5
tp643
a(g92
g92
g92
g5
g5
tp644
a(S'METHODS'
p645
S'METHODS'
p646
S'NNS'
p647
S'B-NP'
p648
g5
tp649
a(S'The'
p650
S'The'
p651
S'DT'
p652
S'B-NP'
p653
g5
tp654
a(S'Intramuscular'
p655
S'Intramuscular'
p656
S'JJ'
p657
S'I-NP'
p658
g5
tp659
a(S'Diamorphine'
p660
S'Diamorphine'
p661
S'NN'
p662
S'I-NP'
p663
g5
tp664
a(S'versus'
p665
S'versus'
p666
S'IN'
p667
S'B-PP'
p668
g5
tp669
a(S'Intramuscular'
p670
S'Intramuscular'
p671
S'JJ'
p672
S'B-NP'
p673
g5
tp674
a(S'Pethidine'
p675
S'Pethidine'
p676
S'NN'
p677
S'I-NP'
p678
g5
tp679
a(S'('
p680
g680
g680
g5
g5
tp681
a(S'IDvIP'
p682
S'IDvIP'
p683
S'NN'
p684
S'B-NP'
p685
g5
tp686
a(S')'
p687
g687
g687
g5
g5
tp688
a(S'trial'
p689
S'trial'
p690
S'NN'
p691
S'B-NP'
p692
g5
tp693
a(S'is'
p694
S'be'
p695
S'VBZ'
p696
S'B-VP'
p697
g5
tp698
a(g19
g19
S'DT'
p699
S'B-NP'
p700
g5
tp701
a(S'randomised'
p702
S'randomise'
p703
S'VBN'
p704
S'I-NP'
p705
g5
tp706
a(S'double-blind'
p707
S'double-blind'
p708
S'JJ'
p709
S'I-NP'
p710
g5
tp711
a(S'two'
p712
S'two'
p713
S'CD'
p714
S'I-NP'
p715
g5
tp716
a(S'centre'
p717
S'centre'
p718
S'NN'
p719
S'I-NP'
p720
g5
tp721
a(S'controlled'
p722
S'control'
p723
S'VBN'
p724
S'I-NP'
p725
g5
tp726
a(S'trial'
p727
S'trial'
p728
S'NN'
p729
S'I-NP'
p730
g5
tp731
a(S'comparing'
p732
S'compare'
p733
S'VBG'
p734
S'B-VP'
p735
g5
tp736
a(S'intramuscular'
p737
S'intramuscular'
p738
S'JJ'
p739
S'B-NP'
p740
g5
tp741
a(S'diamorphine'
p742
S'diamorphine'
p743
S'NN'
p744
S'I-NP'
p745
g5
tp746
a(S'and'
p747
S'and'
p748
S'CC'
p749
S'I-NP'
p750
g5
tp751
a(S'pethidine'
p752
S'pethidine'
p753
S'NN'
p754
S'I-NP'
p755
g5
tp756
a(S'regarding'
p757
S'regard'
p758
S'VBG'
p759
S'B-VP'
p760
g5
tp761
a(S'their'
p762
S'their'
p763
S'PRP$'
p764
S'B-NP'
p765
g5
tp766
a(S'analgesic'
p767
S'analgesic'
p768
S'JJ'
p769
S'I-NP'
p770
g5
tp771
a(S'efficacy'
p772
S'efficacy'
p773
S'NN'
p774
S'I-NP'
p775
g5
tp776
a(S'in'
p777
S'in'
p778
S'IN'
p779
S'B-PP'
p780
g5
tp781
a(S'labour'
p782
S'labour'
p783
S'NN'
p784
S'B-NP'
p785
g5
tp786
a(S'and'
p787
S'and'
p788
S'CC'
p789
g5
g5
tp790
a(S'their'
p791
S'their'
p792
S'PRP$'
p793
S'B-NP'
p794
g5
tp795
a(S'side'
p796
S'side'
p797
S'NN'
p798
S'I-NP'
p799
g5
tp800
a(S'effects'
p801
S'effect'
p802
S'NNS'
p803
S'I-NP'
p804
g5
tp805
a(S'in'
p806
S'in'
p807
S'IN'
p808
S'B-PP'
p809
g5
tp810
a(S'mother'
p811
S'mother'
p812
S'NN'
p813
S'B-NP'
p814
g5
tp815
a(g281
g281
g281
S'I-NP'
p816
g5
tp817
a(S'fetus'
p818
S'fetus'
p819
S'NN'
p820
S'I-NP'
p821
g5
tp822
a(S'and'
p823
S'and'
p824
S'CC'
p825
S'I-NP'
p826
g5
tp827
a(S'neonate.'
p828
S'neonate.'
p829
S'NN'
p830
S'I-NP'
p831
g5
tp832
a(S'Information'
p833
S'Information'
p834
S'NN'
p835
S'I-NP'
p836
g5
tp837
a(S'about'
p838
S'about'
p839
S'IN'
p840
S'B-PP'
p841
g5
tp842
a(S'the'
p843
S'the'
p844
S'DT'
p845
S'B-NP'
p846
g5
tp847
a(S'trial'
p848
S'trial'
p849
S'NN'
p850
S'I-NP'
p851
g5
tp852
a(S'will'
p853
S'will'
p854
S'MD'
p855
S'B-VP'
p856
g5
tp857
a(S'be'
p858
S'be'
p859
S'VB'
p860
S'I-VP'
p861
g5
tp862
a(S'provided'
p863
S'provide'
p864
S'VBN'
p865
S'I-VP'
p866
g5
tp867
a(S'to'
p868
S'to'
p869
S'TO'
p870
S'B-PP'
p871
g5
tp872
a(S'women'
p873
S'woman'
p874
S'NNS'
p875
S'B-NP'
p876
g5
tp877
a(S'in'
p878
S'in'
p879
S'IN'
p880
S'B-PP'
p881
g5
tp882
a(S'the'
p883
S'the'
p884
S'DT'
p885
S'B-NP'
p886
g5
tp887
a(S'antenatal'
p888
S'antenatal'
p889
S'JJ'
p890
S'I-NP'
p891
g5
tp892
a(S'period'
p893
S'period'
p894
S'NN'
p895
S'I-NP'
p896
g5
tp897
a(S'or'
p898
S'or'
p899
S'CC'
p900
S'B-PP'
p901
g5
tp902
a(S'in'
p903
S'in'
p904
S'IN'
p905
S'B-PP'
p906
g5
tp907
a(S'early'
p908
S'early'
p909
S'JJ'
p910
S'B-NP'
p911
g5
tp912
a(S'labour.'
p913
S'labour.'
p914
S'NN'
p915
S'I-NP'
p916
g5
tp917
a(S'Consent'
p918
S'Consent'
p919
S'NN'
p920
S'I-NP'
p921
g5
tp922
a(S'and'
p923
S'and'
p924
S'CC'
p925
g5
g5
tp926
a(S'recruitment'
p927
S'recruitment'
p928
S'NN'
p929
S'B-NP'
p930
g5
tp931
a(S'to'
p932
S'to'
p933
S'TO'
p934
S'B-PP'
p935
g5
tp936
a(S'the'
p937
S'the'
p938
S'DT'
p939
S'B-NP'
p940
g5
tp941
a(S'trial'
p942
S'trial'
p943
S'NN'
p944
S'I-NP'
p945
g5
tp946
a(S'will'
p947
S'will'
p948
S'MD'
p949
S'B-VP'
p950
g5
tp951
a(S'be'
p952
S'be'
p953
S'VB'
p954
S'I-VP'
p955
g5
tp956
a(S'obtained'
p957
S'obtain'
p958
S'VBN'
p959
S'I-VP'
p960
g5
tp961
a(S'when'
p962
S'when'
p963
S'WRB'
p964
S'B-ADVP'
p965
g5
tp966
a(S'the'
p967
S'the'
p968
S'DT'
p969
S'B-NP'
p970
g5
tp971
a(S'mother'
p972
S'mother'
p973
S'NN'
p974
S'I-NP'
p975
g5
tp976
a(S'requests'
p977
S'request'
p978
S'VBZ'
p979
S'B-VP'
p980
g5
tp981
a(S'opioid'
p982
S'opioid'
p983
S'JJ'
p984
S'B-NP'
p985
g5
tp986
a(S'analgesia.'
p987
S'analgesia.'
p988
S'NN'
p989
S'I-NP'
p990
g5
tp991
a(S'The'
p992
S'The'
p993
S'DT'
p994
S'B-NP'
p995
g5
tp996
a(S'sample'
p997
S'sample'
p998
S'NN'
p999
S'I-NP'
p1000
g5
tp1001
a(S'size'
p1002
S'size'
p1003
S'NN'
p1004
S'I-NP'
p1005
g5
tp1006
a(S'requirement'
p1007
S'requirement'
p1008
S'NN'
p1009
S'I-NP'
p1010
g5
tp1011
a(S'is'
p1012
S'be'
p1013
S'VBZ'
p1014
S'B-VP'
p1015
g5
tp1016
a(S'406'
p1017
S'406'
p1018
S'CD'
p1019
S'B-NP'
p1020
g5
tp1021
a(S'women'
p1022
S'woman'
p1023
S'NNS'
p1024
S'I-NP'
p1025
g5
tp1026
a(S'with'
p1027
S'with'
p1028
S'IN'
p1029
S'B-PP'
p1030
g5
tp1031
a(S'data'
p1032
S'data'
p1033
S'NN'
p1034
S'B-NP'
p1035
g5
tp1036
a(S'on'
p1037
S'on'
p1038
S'IN'
p1039
S'B-PP'
p1040
g5
tp1041
a(S'primary'
p1042
S'primary'
p1043
S'JJ'
p1044
S'B-NP'
p1045
g5
tp1046
a(S'outcomes.'
p1047
S'outcomes.'
p1048
S'NN'
p1049
S'I-NP'
p1050
g5
tp1051
a(S'The'
p1052
S'The'
p1053
S'DT'
p1054
S'B-NP'
p1055
g5
tp1056
a(S'maternal'
p1057
S'maternal'
p1058
S'JJ'
p1059
S'I-NP'
p1060
g5
tp1061
a(S'primary'
p1062
S'primary'
p1063
S'JJ'
p1064
S'I-NP'
p1065
g5
tp1066
a(S'outcomes'
p1067
S'outcome'
p1068
S'NNS'
p1069
S'I-NP'
p1070
g5
tp1071
a(S'are'
p1072
S'be'
p1073
S'VBP'
p1074
S'B-VP'
p1075
g5
tp1076
a(S'pain'
p1077
S'pain'
p1078
S'JJ'
p1079
S'B-NP'
p1080
g5
tp1081
a(S'relief'
p1082
S'relief'
p1083
S'NN'
p1084
S'I-NP'
p1085
g5
tp1086
a(S'during'
p1087
S'during'
p1088
S'IN'
p1089
S'B-PP'
p1090
g5
tp1091
a(S'the'
p1092
S'the'
p1093
S'DT'
p1094
S'B-NP'
p1095
g5
tp1096
a(S'first'
p1097
S'first'
p1098
S'JJ'
p1099
S'I-NP'
p1100
g5
tp1101
a(S'3'
p1102
g1102
S'CD'
p1103
S'I-NP'
p1104
g5
tp1105
a(S'hours'
p1106
S'hour'
p1107
S'NNS'
p1108
S'I-NP'
p1109
g5
tp1110
a(S'after'
p1111
S'after'
p1112
S'IN'
p1113
S'B-PP'
p1114
g5
tp1115
a(S'trial'
p1116
S'trial'
p1117
S'NN'
p1118
S'B-NP'
p1119
g5
tp1120
a(S'analgesia'
p1121
S'analgesia'
p1122
S'NN'
p1123
S'I-NP'
p1124
g5
tp1125
a(S'and'
p1126
S'and'
p1127
S'CC'
p1128
g5
g5
tp1129
a(S'specifically'
p1130
S'specifically'
p1131
S'RB'
p1132
S'B-ADVP'
p1133
g5
tp1134
a(S'pain'
p1135
S'pain'
p1136
S'NN'
p1137
S'B-NP'
p1138
g5
tp1139
a(S'relief'
p1140
S'relief'
p1141
S'NN'
p1142
S'I-NP'
p1143
g5
tp1144
a(S'after'
p1145
S'after'
p1146
S'IN'
p1147
S'B-PP'
p1148
g5
tp1149
a(S'60'
p1150
S'60'
p1151
S'CD'
p1152
S'B-NP'
p1153
g5
tp1154
a(S'minutes.'
p1155
S'minutes.'
p1156
S'NNS'
p1157
S'I-NP'
p1158
g5
tp1159
a(S'The'
p1160
S'The'
p1161
S'DT'
p1162
S'B-NP'
p1163
g5
tp1164
a(S'neonatal'
p1165
S'neonatal'
p1166
S'JJ'
p1167
S'I-NP'
p1168
g5
tp1169
a(S'primary'
p1170
S'primary'
p1171
S'JJ'
p1172
S'I-NP'
p1173
g5
tp1174
a(S'outcomes'
p1175
S'outcome'
p1176
S'NNS'
p1177
S'I-NP'
p1178
g5
tp1179
a(S'are'
p1180
S'be'
p1181
S'VBP'
p1182
S'B-VP'
p1183
g5
tp1184
a(S'need'
p1185
S'need'
p1186
S'VBN'
p1187
S'I-VP'
p1188
g5
tp1189
a(S'for'
p1190
S'for'
p1191
S'IN'
p1192
S'B-PP'
p1193
g5
tp1194
a(S'resuscitation'
p1195
S'resuscitation'
p1196
S'NN'
p1197
S'B-NP'
p1198
g5
tp1199
a(S'and'
p1200
S'and'
p1201
S'CC'
p1202
S'I-NP'
p1203
g5
tp1204
a(S'Apgar'
p1205
S'Apgar'
p1206
S'NN'
p1207
S'I-NP'
p1208
g5
tp1209
a(S'Score'
p1210
S'Score'
p1211
S'NN'
p1212
S'I-NP'
p1213
g5
tp1214
a(S'<'
p1215
g1215
S'SYM'
p1216
S'B-NP'
p1217
g5
tp1218
a(S'7'
p1219
g1219
S'CD'
p1220
S'I-NP'
p1221
g5
tp1222
a(S'at'
p1223
S'at'
p1224
S'IN'
p1225
S'B-PP'
p1226
g5
tp1227
a(S'1'
p1228
g1228
S'CD'
p1229
S'B-NP'
p1230
g5
tp1231
a(S'minute.'
p1232
S'minute.'
p1233
S'NN'
p1234
S'I-NP'
p1235
g5
tp1236
a(S'The'
p1237
S'The'
p1238
S'DT'
p1239
S'B-NP'
p1240
g5
tp1241
a(S'secondary'
p1242
S'secondary'
p1243
S'JJ'
p1244
S'I-NP'
p1245
g5
tp1246
a(S'outcomes'
p1247
S'outcome'
p1248
S'NNS'
p1249
S'I-NP'
p1250
g5
tp1251
a(S'are'
p1252
S'be'
p1253
S'VBP'
p1254
S'B-VP'
p1255
g5
tp1256
a(S'an'
p1257
S'an'
p1258
S'DT'
p1259
S'B-NP'
p1260
g5
tp1261
a(S'additional'
p1262
S'additional'
p1263
S'JJ'
p1264
S'I-NP'
p1265
g5
tp1266
a(S'measure'
p1267
S'measure'
p1268
S'NN'
p1269
S'I-NP'
p1270
g5
tp1271
a(S'of'
p1272
S'of'
p1273
S'IN'
p1274
S'B-PP'
p1275
g5
tp1276
a(S'pain'
p1277
S'pain'
p1278
S'NN'
p1279
S'B-NP'
p1280
g5
tp1281
a(S'relief'
p1282
S'relief'
p1283
S'NN'
p1284
S'I-NP'
p1285
g5
tp1286
a(g281
g281
g281
g5
g5
tp1287
a(S'maternal'
p1288
S'maternal'
p1289
S'JJ'
p1290
S'B-NP'
p1291
g5
tp1292
a(S'sedation'
p1293
S'sedation'
p1294
S'NN'
p1295
S'I-NP'
p1296
g5
tp1297
a(g281
g281
g281
g5
g5
tp1298
a(S'nausea'
p1299
S'nausea'
p1300
S'NN'
p1301
S'B-NP'
p1302
g5
tp1303
a(S'and'
p1304
S'and'
p1305
S'CC'
p1306
S'I-NP'
p1307
g5
tp1308
a(S'vomiting'
p1309
S'vomiting'
p1310
S'NN'
p1311
S'I-NP'
p1312
g5
tp1313
a(g281
g281
g281
g5
g5
tp1314
a(S'maternal'
p1315
S'maternal'
p1316
S'JJ'
p1317
S'B-NP'
p1318
g5
tp1319
a(S'oxygen'
p1320
S'oxygen'
p1321
S'NN'
p1322
S'I-NP'
p1323
g5
tp1324
a(S'saturation'
p1325
S'saturation'
p1326
S'NN'
p1327
S'I-NP'
p1328
g5
tp1329
a(g281
g281
g281
g5
g5
tp1330
a(S'satisfaction'
p1331
S'satisfaction'
p1332
S'NN'
p1333
S'B-NP'
p1334
g5
tp1335
a(S'with'
p1336
S'with'
p1337
S'IN'
p1338
S'B-PP'
p1339
g5
tp1340
a(S'analgesia'
p1341
S'analgesia'
p1342
S'NN'
p1343
S'B-NP'
p1344
g5
tp1345
a(g281
g281
g281
g5
g5
tp1346
a(S'whether'
p1347
S'whether'
p1348
S'IN'
p1349
S'B-SBAR'
p1350
g5
tp1351
a(S'method'
p1352
S'method'
p1353
S'NN'
p1354
S'B-NP'
p1355
g5
tp1356
a(S'of'
p1357
S'of'
p1358
S'IN'
p1359
S'B-PP'
p1360
g5
tp1361
a(S'analgesia'
p1362
S'analgesia'
p1363
S'NN'
p1364
S'B-NP'
p1365
g5
tp1366
a(S'would'
p1367
S'would'
p1368
S'MD'
p1369
S'B-VP'
p1370
g5
tp1371
a(S'be'
p1372
S'be'
p1373
S'VB'
p1374
S'I-VP'
p1375
g5
tp1376
a(S'used'
p1377
S'use'
p1378
S'VBN'
p1379
S'I-VP'
p1380
g5
tp1381
a(S'again'
p1382
S'again'
p1383
S'RB'
p1384
S'B-ADVP'
p1385
g5
tp1386
a(g281
g281
g281
g5
g5
tp1387
a(S'use'
p1388
S'use'
p1389
S'NN'
p1390
S'B-NP'
p1391
g5
tp1392
a(S'of'
p1393
S'of'
p1394
S'IN'
p1395
S'B-PP'
p1396
g5
tp1397
a(S'Entonox'
p1398
S'Entonox'
p1399
S'NNP'
p1400
S'B-NP'
p1401
g5
tp1402
a(g281
g281
g281
g5
g5
tp1403
a(S'umbilical'
p1404
S'umbilical'
p1405
S'JJ'
p1406
S'B-NP'
p1407
g5
tp1408
a(S'arterial'
p1409
S'arterial'
p1410
S'JJ'
p1411
S'I-NP'
p1412
g5
tp1413
a(S'and'
p1414
S'and'
p1415
S'CC'
p1416
S'I-NP'
p1417
g5
tp1418
a(S'venous'
p1419
S'venous'
p1420
S'JJ'
p1421
S'I-NP'
p1422
g5
tp1423
a(S'pH'
p1424
S'pH'
p1425
S'NN'
p1426
S'I-NP'
p1427
g5
tp1428
a(g281
g281
g281
g5
g5
tp1429
a(S'fetal'
p1430
S'fetal'
p1431
S'JJ'
p1432
S'B-NP'
p1433
g5
tp1434
a(S'heart'
p1435
S'heart'
p1436
S'NN'
p1437
S'I-NP'
p1438
g5
tp1439
a(S'rate'
p1440
S'rate'
p1441
S'NN'
p1442
S'I-NP'
p1443
g5
tp1444
a(g281
g281
g281
g5
g5
tp1445
a(S'meconium'
p1446
S'meconium'
p1447
S'NN'
p1448
S'B-NP'
p1449
g5
tp1450
a(S'staining'
p1451
S'staining'
p1452
S'NN'
p1453
S'I-NP'
p1454
g5
tp1455
a(g281
g281
g281
g5
g5
tp1456
a(S'time'
p1457
S'time'
p1458
S'NN'
p1459
S'B-NP'
p1460
g5
tp1461
a(S'from'
p1462
S'from'
p1463
S'IN'
p1464
S'B-PP'
p1465
g5
tp1466
a(S'delivery'
p1467
S'delivery'
p1468
S'NN'
p1469
S'B-NP'
p1470
g5
tp1471
a(S'to'
p1472
S'to'
p1473
S'TO'
p1474
S'B-PP'
p1475
g5
tp1476
a(S'first'
p1477
S'first'
p1478
S'JJ'
p1479
S'B-NP'
p1480
g5
tp1481
a(S'breath'
p1482
S'breath'
p1483
S'NN'
p1484
S'I-NP'
p1485
g5
tp1486
a(g281
g281
g281
g5
g5
tp1487
a(S'Apgar'
p1488
S'Apgar'
p1489
S'NN'
p1490
S'B-NP'
p1491
g5
tp1492
a(S'scores'
p1493
S'score'
p1494
S'NNS'
p1495
S'I-NP'
p1496
g5
tp1497
a(S'at'
p1498
S'at'
p1499
S'IN'
p1500
S'B-PP'
p1501
g5
tp1502
a(S'5'
p1503
g1503
S'CD'
p1504
S'B-NP'
p1505
g5
tp1506
a(S'mins'
p1507
S'min'
p1508
S'NNS'
p1509
S'I-NP'
p1510
g5
tp1511
a(g281
g281
g281
g5
g5
tp1512
a(S'naloxone'
p1513
S'naloxone'
p1514
S'NN'
p1515
S'B-NP'
p1516
g5
tp1517
a(S'requirement'
p1518
S'requirement'
p1519
S'NN'
p1520
S'I-NP'
p1521
g5
tp1522
a(g281
g281
g281
g5
g5
tp1523
a(S'transfer'
p1524
S'transfer'
p1525
S'VBP'
p1526
S'B-VP'
p1527
g5
tp1528
a(S'to'
p1529
S'to'
p1530
S'TO'
p1531
S'B-PP'
p1532
g5
tp1533
a(S'neonatal'
p1534
S'neonatal'
p1535
S'JJ'
p1536
S'B-NP'
p1537
S'B-protein'
p1538
tp1539
a(S'intensive'
p1540
S'intensive'
p1541
S'JJ'
p1542
S'I-NP'
p1543
S'I-protein'
p1544
tp1545
a(S'care'
p1546
S'care'
p1547
S'NN'
p1548
S'I-NP'
p1549
S'I-protein'
p1550
tp1551
a(S'unit'
p1552
S'unit'
p1553
S'NN'
p1554
S'I-NP'
p1555
S'I-protein'
p1556
tp1557
a(g281
g281
g281
g5
g5
tp1558
a(S'neonatal'
p1559
S'neonatal'
p1560
S'JJ'
p1561
S'B-NP'
p1562
g5
tp1563
a(S'haemoglobin'
p1564
S'haemoglobin'
p1565
S'NN'
p1566
S'I-NP'
p1567
g5
tp1568
a(S'oxygen'
p1569
S'oxygen'
p1570
S'NN'
p1571
S'I-NP'
p1572
g5
tp1573
a(S'saturation'
p1574
S'saturation'
p1575
S'NN'
p1576
S'I-NP'
p1577
g5
tp1578
a(S'at'
p1579
S'at'
p1580
S'IN'
p1581
S'B-PP'
p1582
g5
tp1583
a(S'30'
p1584
S'30'
p1585
S'CD'
p1586
S'B-NP'
p1587
g5
tp1588
a(g281
g281
g281
S'I-NP'
p1589
g5
tp1590
a(S'60'
p1591
S'60'
p1592
S'CD'
p1593
S'I-NP'
p1594
g5
tp1595
a(g281
g281
g281
S'I-NP'
p1596
g5
tp1597
a(S'90'
p1598
S'90'
p1599
S'CD'
p1600
S'I-NP'
p1601
g5
tp1602
a(g281
g281
g281
g5
g5
tp1603
a(S'and'
p1604
S'and'
p1605
S'CC'
p1606
g5
g5
tp1607
a(S'120'
p1608
S'120'
p1609
S'CD'
p1610
S'B-NP'
p1611
g5
tp1612
a(S'mins'
p1613
S'min'
p1614
S'NNS'
p1615
S'I-NP'
p1616
g5
tp1617
a(S'after'
p1618
S'after'
p1619
S'IN'
p1620
S'B-PP'
p1621
g5
tp1622
a(S'delivery'
p1623
S'delivery'
p1624
S'NN'
p1625
S'B-NP'
p1626
g5
tp1627
a(g281
g281
g281
g5
g5
tp1628
a(S'and'
p1629
S'and'
p1630
S'CC'
p1631
g5
g5
tp1632
a(S'neonatal'
p1633
S'neonatal'
p1634
S'JJ'
p1635
S'B-NP'
p1636
g5
tp1637
a(S'sedation'
p1638
S'sedation'
p1639
S'NN'
p1640
S'I-NP'
p1641
g5
tp1642
a(S'and'
p1643
S'and'
p1644
S'CC'
p1645
S'I-NP'
p1646
g5
tp1647
a(S'feeding'
p1648
S'feeding'
p1649
S'NN'
p1650
S'I-NP'
p1651
g5
tp1652
a(S'behaviour'
p1653
S'behaviour'
p1654
S'NN'
p1655
S'I-NP'
p1656
g5
tp1657
a(S'during'
p1658
S'during'
p1659
S'IN'
p1660
S'B-PP'
p1661
g5
tp1662
a(S'first'
p1663
S'first'
p1664
S'JJ'
p1665
S'B-NP'
p1666
g5
tp1667
a(S'2'
p1668
g1668
S'CD'
p1669
S'I-NP'
p1670
g5
tp1671
a(S'hours'
p1672
S'hour'
p1673
S'NNS'
p1674
S'I-NP'
p1675
g5
tp1676
a(g92
g92
g92
g5
g5
tp1677
a(S'DISCUSSION'
p1678
S'DISCUSSION'
p1679
S'NN'
p1680
S'B-NP'
p1681
g5
tp1682
a(S'If'
p1683
S'If'
p1684
S'IN'
p1685
S'B-SBAR'
p1686
g5
tp1687
a(S'the'
p1688
S'the'
p1689
S'DT'
p1690
S'B-NP'
p1691
g5
tp1692
a(S'trial'
p1693
S'trial'
p1694
S'NN'
p1695
S'I-NP'
p1696
g5
tp1697
a(S'demonstrates'
p1698
S'demonstrate'
p1699
S'VBZ'
p1700
S'B-VP'
p1701
g5
tp1702
a(S'that'
p1703
S'that'
p1704
S'IN'
p1705
S'B-SBAR'
p1706
g5
tp1707
a(S'diamorphine'
p1708
S'diamorphine'
p1709
S'NN'
p1710
S'B-NP'
p1711
g5
tp1712
a(S'provides'
p1713
S'provide'
p1714
S'VBZ'
p1715
S'B-VP'
p1716
g5
tp1717
a(S'better'
p1718
S'good'
p1719
S'JJR'
p1720
S'B-NP'
p1721
g5
tp1722
a(S'analgesia'
p1723
S'analgesia'
p1724
S'NN'
p1725
S'I-NP'
p1726
g5
tp1727
a(S'with'
p1728
S'with'
p1729
S'IN'
p1730
S'B-PP'
p1731
g5
tp1732
a(S'fewer'
p1733
S'few'
p1734
S'JJR'
p1735
S'B-NP'
p1736
g5
tp1737
a(S'side'
p1738
S'side'
p1739
S'NN'
p1740
S'I-NP'
p1741
g5
tp1742
a(S'effects'
p1743
S'effect'
p1744
S'NNS'
p1745
S'I-NP'
p1746
g5
tp1747
a(S'in'
p1748
S'in'
p1749
S'IN'
p1750
S'B-PP'
p1751
g5
tp1752
a(S'mother'
p1753
S'mother'
p1754
S'NN'
p1755
S'B-NP'
p1756
g5
tp1757
a(S'and'
p1758
S'and'
p1759
S'CC'
p1760
S'I-NP'
p1761
g5
tp1762
a(S'neonate'
p1763
S'neonate'
p1764
S'NN'
p1765
S'I-NP'
p1766
g5
tp1767
a(S'this'
p1768
S'this'
p1769
S'DT'
p1770
S'B-NP'
p1771
g5
tp1772
a(S'could'
p1773
S'could'
p1774
S'MD'
p1775
S'B-VP'
p1776
g5
tp1777
a(S'lead'
p1778
S'lead'
p1779
S'VB'
p1780
S'I-VP'
p1781
g5
tp1782
a(S'to'
p1783
S'to'
p1784
S'TO'
p1785
S'B-PP'
p1786
g5
tp1787
a(g19
g19
S'DT'
p1788
S'B-NP'
p1789
g5
tp1790
a(S'change'
p1791
S'change'
p1792
S'NN'
p1793
S'I-NP'
p1794
g5
tp1795
a(S'in'
p1796
S'in'
p1797
S'IN'
p1798
S'B-PP'
p1799
g5
tp1800
a(S'national'
p1801
S'national'
p1802
S'JJ'
p1803
S'B-NP'
p1804
g5
tp1805
a(S'practice'
p1806
S'practice'
p1807
S'NN'
p1808
S'I-NP'
p1809
g5
tp1810
a(S'and'
p1811
S'and'
p1812
S'CC'
p1813
g5
g5
tp1814
a(S'result'
p1815
S'result'
p1816
S'VBP'
p1817
S'B-VP'
p1818
g5
tp1819
a(S'in'
p1820
S'in'
p1821
S'IN'
p1822
S'B-PP'
p1823
g5
tp1824
a(S'diamorphine'
p1825
S'diamorphine'
p1826
S'NN'
p1827
S'B-NP'
p1828
g5
tp1829
a(S'becoming'
p1830
S'become'
p1831
S'VBG'
p1832
S'B-VP'
p1833
g5
tp1834
a(S'the'
p1835
S'the'
p1836
S'DT'
p1837
S'B-NP'
p1838
g5
tp1839
a(S'preferred'
p1840
S'preferred'
p1841
S'JJ'
p1842
S'I-NP'
p1843
g5
tp1844
a(S'intramuscular'
p1845
S'intramuscular'
p1846
S'JJ'
p1847
S'I-NP'
p1848
g5
tp1849
a(S'opioid'
p1850
S'opioid'
p1851
S'NN'
p1852
S'I-NP'
p1853
g5
tp1854
a(S'for'
p1855
S'for'
p1856
S'IN'
p1857
S'B-PP'
p1858
g5
tp1859
a(S'analgesia'
p1860
S'analgesia'
p1861
S'NN'
p1862
S'B-NP'
p1863
g5
tp1864
a(S'in'
p1865
S'in'
p1866
S'IN'
p1867
S'B-PP'
p1868
g5
tp1869
a(S'labour'
p1870
S'labour'
p1871
S'NN'
p1872
S'B-NP'
p1873
g5
tp1874
a(g92
g92
g92
g5
g5
tp1875
a(S'TRIAL'
p1876
S'TRIAL'
p1877
S'NN'
p1878
S'B-NP'
p1879
g5
tp1880
a(S'REGISTRATION'
p1881
S'REGISTRATION'
p1882
S'NN'
p1883
S'I-NP'
p1884
g5
tp1885
a(S'ISRCTN14898678Eudra'
p1886
S'ISRCTN14898678Eudra'
p1887
S'NN'
p1888
S'I-NP'
p1889
g5
tp1890
a(S'No'
p1891
S'No'
p1892
S'NN'
p1893
S'I-NP'
p1894
g5
tp1895
a(g17
g17
g17
g5
g5
tp1896
a(S'2006-003250-18'
p1897
S'2006-003250-18'
p1898
S'CD'
p1899
S'B-NP'
p1900
g5
tp1901
a(g281
g281
g281
g5
g5
tp1902
a(S'REC'
p1903
S'REC'
p1904
S'NNP'
p1905
S'B-NP'
p1906
g5
tp1907
a(S'Reference'
p1908
S'Reference'
p1909
S'NNP'
p1910
S'I-NP'
p1911
g5
tp1912
a(S'No'
p1913
S'No'
p1914
S'NNP'
p1915
S'I-NP'
p1916
g5
tp1917
a(g17
g17
g17
g5
g5
tp1918
a(S'06/Q1702/95'
p1919
S'06/Q1702/95'
p1920
S'CD'
p1921
S'B-NP'
p1922
g5
tp1923
a(g281
g281
g281
g5
g5
tp1924
a(S'MHRA'
p1925
S'MHRA'
p1926
S'NN'
p1927
S'B-NP'
p1928
S'B-protein'
p1929
tp1930
a(S'Authorisation'
p1931
S'Authorisation'
p1932
S'NNP'
p1933
S'I-NP'
p1934
g5
tp1935
a(S'No'
p1936
S'No'
p1937
S'NNP'
p1938
S'I-NP'
p1939
g5
tp1940
a(g17
g17
g17
g5
g5
tp1941
a(S'1443/0001/001-0001'
p1942
S'1443/0001/001-0001'
p1943
S'CD'
p1944
S'B-NP'
p1945
g5
tp1946
a(g281
g281
g281
g5
g5
tp1947
a(S'NIHR'
p1948
S'NIHR'
p1949
S'NN'
p1950
S'B-NP'
p1951
S'B-protein'
p1952
tp1953
a(S'UKCRN'
p1954
S'UKCRN'
p1955
S'NN'
p1956
S'I-NP'
p1957
g5
tp1958
a(S'reference'
p1959
S'reference'
p1960
S'NN'
p1961
S'I-NP'
p1962
g5
tp1963
a(S'6895'
p1964
S'6895'
p1965
S'CD'
p1966
S'I-NP'
p1967
g5
tp1968
a(g281
g281
g281
g5
g5
tp1969
a(S'RfPB'
p1970
S'RfPB'
p1971
S'NN'
p1972
S'B-NP'
p1973
S'B-protein'
p1974
tp1975
a(S'grant'
p1976
S'grant'
p1977
S'NN'
p1978
S'I-NP'
p1979
S'I-protein'
p1980
tp1981
a(S'PB-PG-0407-13170_IR5'
p1982
S'PB-PG-0407-13170_IR5'
p1983
S'NN'
p1984
S'I-NP'
p1985
S'I-protein'
p1986
tp1987
a(g92
g92
g92
g5
g5
tp1988
a.