(lp0
(S'Cardiovascular'
p1
S'Cardiovascular'
p2
S'JJ'
p3
S'B-NP'
p4
S'O'
p5
tp6
a(S'safety'
p7
S'safety'
p8
S'NN'
p9
S'I-NP'
p10
g5
tp11
a(S'and'
p12
S'and'
p13
S'CC'
p14
g5
g5
tp15
a(S'gastrointestinal'
p16
S'gastrointestinal'
p17
S'JJ'
p18
S'B-NP'
p19
g5
tp20
a(S'tolerability'
p21
S'tolerability'
p22
S'NN'
p23
S'I-NP'
p24
g5
tp25
a(S'of'
p26
S'of'
p27
S'IN'
p28
S'B-PP'
p29
g5
tp30
a(S'etoricoxib'
p31
S'etoricoxib'
p32
S'NN'
p33
S'B-NP'
p34
g5
tp35
a(S'vs'
p36
S'vs'
p37
S'CC'
p38
S'I-NP'
p39
g5
tp40
a(S'diclofenac'
p41
S'diclofenac'
p42
S'NN'
p43
S'I-NP'
p44
g5
tp45
a(S'in'
p46
S'in'
p47
S'IN'
p48
S'B-PP'
p49
g5
tp50
a(S'a'
p51
g51
S'DT'
p52
S'B-NP'
p53
g5
tp54
a(S'randomized'
p55
S'randomize'
p56
S'VBN'
p57
S'I-NP'
p58
g5
tp59
a(S'controlled'
p60
S'control'
p61
S'VBN'
p62
S'I-NP'
p63
g5
tp64
a(S'clinical'
p65
S'clinical'
p66
S'JJ'
p67
S'I-NP'
p68
g5
tp69
a(S'trial'
p70
S'trial'
p71
S'NN'
p72
S'I-NP'
p73
g5
tp74
a(S'('
p75
g75
g75
g5
g5
tp76
a(S'The'
p77
S'The'
p78
S'DT'
p79
S'B-NP'
p80
g5
tp81
a(S'MEDAL'
p82
S'MEDAL'
p83
S'NN'
p84
S'I-NP'
p85
g5
tp86
a(S'study'
p87
S'study'
p88
S'NN'
p89
S'I-NP'
p90
g5
tp91
a(S')'
p92
g92
g92
g5
g5
tp93
a(S'.'
p94
g94
g94
g5
g5
tp95
a(S'OBJECTIVE'
p96
S'OBJECTIVE'
p97
S'NN'
p98
S'B-NP'
p99
g5
tp100
a(S'To'
p101
S'To'
p102
S'TO'
p103
S'B-VP'
p104
g5
tp105
a(S'compare'
p106
S'compare'
p107
S'VB'
p108
S'I-VP'
p109
g5
tp110
a(S'cardiovascular'
p111
S'cardiovascular'
p112
S'JJ'
p113
S'B-ADJP'
p114
g5
tp115
a(g75
g75
g75
g5
g5
tp116
a(S'CV'
p117
S'CV'
p118
S'NN'
p119
S'B-NP'
p120
g5
tp121
a(g92
g92
g92
g5
g5
tp122
a(S'and'
p123
S'and'
p124
S'CC'
p125
g5
g5
tp126
a(S'other'
p127
S'other'
p128
S'JJ'
p129
S'B-NP'
p130
g5
tp131
a(S'safety'
p132
S'safety'
p133
S'NN'
p134
S'I-NP'
p135
g5
tp136
a(S'and'
p137
S'and'
p138
S'CC'
p139
S'I-NP'
p140
g5
tp141
a(S'efficacy'
p142
S'efficacy'
p143
S'NN'
p144
S'I-NP'
p145
g5
tp146
a(S'parameters'
p147
S'parameter'
p148
S'NNS'
p149
S'I-NP'
p150
g5
tp151
a(S'of'
p152
S'of'
p153
S'IN'
p154
S'B-PP'
p155
g5
tp156
a(S'etoricoxib'
p157
S'etoricoxib'
p158
S'NN'
p159
S'B-NP'
p160
g5
tp161
a(S'60'
p162
S'60'
p163
S'CD'
p164
S'I-NP'
p165
g5
tp166
a(S'and'
p167
S'and'
p168
S'CC'
p169
S'I-NP'
p170
g5
tp171
a(S'90'
p172
S'90'
p173
S'CD'
p174
S'I-NP'
p175
g5
tp176
a(S'mg'
p177
S'mg'
p178
S'NN'
p179
S'I-NP'
p180
g5
tp181
a(S','
p182
g182
g182
g5
g5
tp183
a(S'and'
p184
S'and'
p185
S'CC'
p186
g5
g5
tp187
a(S'diclofenac'
p188
S'diclofenac'
p189
S'NN'
p190
S'B-NP'
p191
g5
tp192
a(S'150'
p193
S'150'
p194
S'CD'
p195
S'I-NP'
p196
g5
tp197
a(S'mg'
p198
S'mg'
p199
S'NN'
p200
S'I-NP'
p201
g5
tp202
a(g94
g94
g94
g5
g5
tp203
a(S'METHODS'
p204
S'METHODS'
p205
S'NNS'
p206
S'B-NP'
p207
g5
tp208
a(S'This'
p209
S'This'
p210
S'DT'
p211
S'B-NP'
p212
g5
tp213
a(S'double-blind'
p214
S'double-blind'
p215
S'JJ'
p216
S'I-NP'
p217
g5
tp218
a(S'study'
p219
S'study'
p220
S'NN'
p221
S'I-NP'
p222
g5
tp223
a(S'randomized'
p224
S'randomize'
p225
S'VBD'
p226
S'B-VP'
p227
g5
tp228
a(S'OA'
p229
S'OA'
p230
S'NN'
p231
S'B-NP'
p232
g5
tp233
a(S'patients'
p234
S'patient'
p235
S'NNS'
p236
S'I-NP'
p237
g5
tp238
a(S'to'
p239
S'to'
p240
S'TO'
p241
S'B-VP'
p242
g5
tp243
a(S'etoricoxib'
p244
S'etoricoxib'
p245
S'VB'
p246
S'I-VP'
p247
g5
tp248
a(S'90'
p249
S'90'
p250
S'CD'
p251
S'B-NP'
p252
g5
tp253
a(S'mg'
p254
S'mg'
p255
S'NN'
p256
S'I-NP'
p257
g5
tp258
a(g182
g182
g182
g5
g5
tp259
a(S'then'
p260
S'then'
p261
S'RB'
p262
S'B-ADVP'
p263
g5
tp264
a(S'to'
p265
S'to'
p266
S'TO'
p267
S'B-PP'
p268
g5
tp269
a(S'60'
p270
S'60'
p271
S'CD'
p272
S'B-NP'
p273
g5
tp274
a(S'mg'
p275
S'mg'
p276
S'NN'
p277
S'I-NP'
p278
g5
tp279
a(S'once'
p280
S'once'
p281
S'RB'
p282
S'B-ADVP'
p283
g5
tp284
a(S'daily'
p285
S'daily'
p286
S'RB'
p287
S'I-ADVP'
p288
g5
tp289
a(S'vs'
p290
S'vs'
p291
S'IN'
p292
S'B-PP'
p293
g5
tp294
a(S'diclofenac'
p295
S'diclofenac'
p296
S'NN'
p297
S'B-NP'
p298
g5
tp299
a(S'75'
p300
S'75'
p301
S'CD'
p302
S'I-NP'
p303
g5
tp304
a(S'mg'
p305
S'mg'
p306
S'NN'
p307
S'I-NP'
p308
g5
tp309
a(S'twice'
p310
S'twice'
p311
S'RB'
p312
S'B-ADVP'
p313
g5
tp314
a(S'daily'
p315
S'daily'
p316
S'RB'
p317
S'I-ADVP'
p318
g5
tp319
a(S';'
p320
g320
S':'
p321
g5
g5
tp322
a(S'RA'
p323
S'RA'
p324
S'NN'
p325
S'B-NP'
p326
g5
tp327
a(S'patients'
p328
S'patient'
p329
S'NNS'
p330
S'I-NP'
p331
g5
tp332
a(S'were'
p333
S'be'
p334
S'VBD'
p335
S'B-VP'
p336
g5
tp337
a(S'randomized'
p338
S'randomize'
p339
S'VBN'
p340
S'I-VP'
p341
g5
tp342
a(S'to'
p343
S'to'
p344
S'TO'
p345
S'I-VP'
p346
g5
tp347
a(S'etoricoxib'
p348
S'etoricoxib'
p349
S'VB'
p350
S'I-VP'
p351
g5
tp352
a(S'90'
p353
S'90'
p354
S'CD'
p355
S'B-NP'
p356
g5
tp357
a(S'mg'
p358
S'mg'
p359
S'NN'
p360
S'I-NP'
p361
g5
tp362
a(S'once'
p363
S'once'
p364
S'RB'
p365
S'B-ADVP'
p366
g5
tp367
a(S'daily'
p368
S'daily'
p369
S'RB'
p370
S'I-ADVP'
p371
g5
tp372
a(S'or'
p373
S'or'
p374
S'CC'
p375
g5
g5
tp376
a(S'diclofenac'
p377
S'diclofenac'
p378
S'NN'
p379
S'B-NP'
p380
g5
tp381
a(S'75'
p382
S'75'
p383
S'CD'
p384
S'I-NP'
p385
g5
tp386
a(S'mg'
p387
S'mg'
p388
S'NN'
p389
S'I-NP'
p390
g5
tp391
a(S'twice'
p392
S'twice'
p393
S'RB'
p394
S'B-NP'
p395
g5
tp396
a(S'daily.'
p397
S'daily.'
p398
S'RB'
p399
S'I-NP'
p400
g5
tp401
a(S'The'
p402
S'The'
p403
S'DT'
p404
S'I-NP'
p405
g5
tp406
a(S'primary'
p407
S'primary'
p408
S'JJ'
p409
S'I-NP'
p410
g5
tp411
a(S'endpoint'
p412
S'endpoint'
p413
S'NN'
p414
S'I-NP'
p415
g5
tp416
a(S'was'
p417
S'be'
p418
S'VBD'
p419
S'B-VP'
p420
g5
tp421
a(S'non-inferiority'
p422
S'non-inferiority'
p423
S'JJ'
p424
S'B-ADJP'
p425
g5
tp426
a(S'of'
p427
S'of'
p428
S'IN'
p429
S'B-PP'
p430
g5
tp431
a(S'etoricoxib'
p432
S'etoricoxib'
p433
S'NN'
p434
S'B-NP'
p435
g5
tp436
a(S'vs'
p437
S'vs'
p438
S'CC'
p439
S'I-NP'
p440
g5
tp441
a(S'diclofenac'
p442
S'diclofenac'
p443
S'NN'
p444
S'I-NP'
p445
g5
tp446
a(S'for'
p447
S'for'
p448
S'IN'
p449
S'B-PP'
p450
g5
tp451
a(S'thrombotic'
p452
S'thrombotic'
p453
S'JJ'
p454
S'B-NP'
p455
g5
tp456
a(S'CV'
p457
S'CV'
p458
S'NN'
p459
S'I-NP'
p460
g5
tp461
a(S'events'
p462
S'event'
p463
S'NNS'
p464
S'I-NP'
p465
g5
tp466
a(g75
g75
g75
g5
g5
tp467
a(S'95'
p468
S'95'
p469
S'CD'
p470
S'B-NP'
p471
g5
tp472
a(S'%'
p473
g473
S'NN'
p474
S'I-NP'
p475
g5
tp476
a(S'CI'
p477
S'CI'
p478
S'NN'
p479
S'I-NP'
p480
g5
tp481
a(S'upper'
p482
S'upper'
p483
S'JJ'
p484
S'I-NP'
p485
g5
tp486
a(S'bound'
p487
S'bound'
p488
S'NN'
p489
S'I-NP'
p490
g5
tp491
a(S'of'
p492
S'of'
p493
S'IN'
p494
S'B-PP'
p495
g5
tp496
a(S'hazard'
p497
S'hazard'
p498
S'NN'
p499
S'B-NP'
p500
g5
tp501
a(S'ratio'
p502
S'ratio'
p503
S'NN'
p504
S'I-NP'
p505
g5
tp506
a(S'<'
p507
g507
S'SYM'
p508
S'B-NP'
p509
g5
tp510
a(S'1.30'
p511
S'1.30'
p512
S'CD'
p513
S'I-NP'
p514
g5
tp515
a(g92
g92
g92
g5
g5
tp516
a(g94
g94
g94
g5
g5
tp517
a(S'Other'
p518
S'Other'
p519
S'JJ'
p520
S'B-NP'
p521
g5
tp522
a(S'safety'
p523
S'safety'
p524
S'NN'
p525
S'I-NP'
p526
g5
tp527
a(S'and'
p528
S'and'
p529
S'CC'
p530
S'I-NP'
p531
g5
tp532
a(S'efficacy'
p533
S'efficacy'
p534
S'NN'
p535
S'I-NP'
p536
g5
tp537
a(S'parameters'
p538
S'parameter'
p539
S'NNS'
p540
S'I-NP'
p541
g5
tp542
a(S'were'
p543
S'be'
p544
S'VBD'
p545
S'B-VP'
p546
g5
tp547
a(S'evaluated'
p548
S'evaluate'
p549
S'VBN'
p550
S'I-VP'
p551
g5
tp552
a(S'in'
p553
S'in'
p554
S'IN'
p555
S'B-PP'
p556
g5
tp557
a(S'cohorts'
p558
S'cohort'
p559
S'NNS'
p560
S'B-NP'
p561
g5
tp562
a(S'of'
p563
S'of'
p564
S'IN'
p565
S'B-PP'
p566
g5
tp567
a(S'patients'
p568
S'patient'
p569
S'NNS'
p570
S'B-NP'
p571
g5
tp572
a(S'based'
p573
S'base'
p574
S'VBN'
p575
S'B-VP'
p576
g5
tp577
a(S'on'
p578
S'on'
p579
S'IN'
p580
S'B-PP'
p581
g5
tp582
a(S'etoricoxib'
p583
S'etoricoxib'
p584
S'NN'
p585
S'B-NP'
p586
g5
tp587
a(S'dose'
p588
S'dose'
p589
S'NN'
p590
S'I-NP'
p591
g5
tp592
a(S'and'
p593
S'and'
p594
S'CC'
p595
S'I-NP'
p596
g5
tp597
a(S'disease'
p598
S'disease'
p599
S'NN'
p600
S'I-NP'
p601
g5
tp602
a(g94
g94
g94
g5
g5
tp603
a(S'RESULTS'
p604
S'RESULTS'
p605
S'NNS'
p606
S'B-NP'
p607
g5
tp608
a(S'A'
p609
g609
S'DT'
p610
S'B-NP'
p611
g5
tp612
a(S'total'
p613
S'total'
p614
S'NN'
p615
S'I-NP'
p616
g5
tp617
a(S'of'
p618
S'of'
p619
S'IN'
p620
S'B-PP'
p621
g5
tp622
a(S'23'
p623
S'23'
p624
S'CD'
p625
S'B-NP'
p626
g5
tp627
a(S'504'
p628
S'504'
p629
S'CD'
p630
S'I-NP'
p631
g5
tp632
a(S'patients'
p633
S'patient'
p634
S'NNS'
p635
S'I-NP'
p636
g5
tp637
a(S'were'
p638
S'be'
p639
S'VBD'
p640
S'B-VP'
p641
g5
tp642
a(S'randomized'
p643
S'randomize'
p644
S'VBN'
p645
S'I-VP'
p646
g5
tp647
a(S'with'
p648
S'with'
p649
S'IN'
p650
S'B-PP'
p651
g5
tp652
a(S'mean'
p653
S'mean'
p654
S'JJ'
p655
S'B-NP'
p656
g5
tp657
a(S'treatment'
p658
S'treatment'
p659
S'NN'
p660
S'I-NP'
p661
g5
tp662
a(S'duration'
p663
S'duration'
p664
S'NN'
p665
S'I-NP'
p666
g5
tp667
a(S'from'
p668
S'from'
p669
S'IN'
p670
S'B-PP'
p671
g5
tp672
a(S'19.4'
p673
S'19.4'
p674
S'CD'
p675
S'B-NP'
p676
g5
tp677
a(S'to'
p678
S'to'
p679
S'TO'
p680
S'I-NP'
p681
g5
tp682
a(S'20.8'
p683
S'20.8'
p684
S'CD'
p685
S'I-NP'
p686
g5
tp687
a(S'months.'
p688
S'months.'
p689
S'NNS'
p690
S'I-NP'
p691
g5
tp692
a(S'The'
p693
S'The'
p694
S'DT'
p695
S'B-NP'
p696
g5
tp697
a(S'thrombotic'
p698
S'thrombotic'
p699
S'JJ'
p700
S'I-NP'
p701
g5
tp702
a(S'CV'
p703
S'CV'
p704
S'NN'
p705
S'I-NP'
p706
g5
tp707
a(S'risk'
p708
S'risk'
p709
S'NN'
p710
S'I-NP'
p711
g5
tp712
a(S'hazard'
p713
S'hazard'
p714
S'NN'
p715
S'I-NP'
p716
g5
tp717
a(S'ratio'
p718
S'ratio'
p719
S'NN'
p720
S'I-NP'
p721
g5
tp722
a(g75
g75
g75
g5
g5
tp723
a(S'HR'
p724
S'HR'
p725
S'NN'
p726
S'B-NP'
p727
g5
tp728
a(g92
g92
g92
g5
g5
tp729
a(g75
g75
g75
g5
g5
tp730
a(S'etoricoxib'
p731
S'etoricoxib'
p732
S'NN'
p733
S'B-NP'
p734
g5
tp735
a(S'to'
p736
S'to'
p737
S'TO'
p738
S'B-PP'
p739
g5
tp740
a(S'diclofenac'
p741
S'diclofenac'
p742
S'NN'
p743
S'B-NP'
p744
g5
tp745
a(g92
g92
g92
g5
g5
tp746
a(S'was'
p747
S'be'
p748
S'VBD'
p749
S'B-VP'
p750
g5
tp751
a(S'0.96'
p752
S'0.96'
p753
S'CD'
p754
S'B-NP'
p755
g5
tp756
a(g75
g75
g75
g5
g5
tp757
a(S'95'
p758
S'95'
p759
S'CD'
p760
S'B-NP'
p761
g5
tp762
a(g473
g473
S'NN'
p763
S'I-NP'
p764
g5
tp765
a(S'CI'
p766
S'CI'
p767
S'NN'
p768
S'I-NP'
p769
g5
tp770
a(S'0.81'
p771
S'0.81'
p772
S'CD'
p773
S'I-NP'
p774
g5
tp775
a(g182
g182
g182
S'I-NP'
p776
g5
tp777
a(S'1.15'
p778
S'1.15'
p779
S'CD'
p780
S'I-NP'
p781
g5
tp782
a(g92
g92
g92
g5
g5
tp783
a(g182
g182
g182
g5
g5
tp784
a(S'consistent'
p785
S'consistent'
p786
S'JJ'
p787
S'B-ADJP'
p788
g5
tp789
a(S'with'
p790
S'with'
p791
S'IN'
p792
S'B-PP'
p793
g5
tp794
a(S'non-inferiority'
p795
S'non-inferiority'
p796
S'NN'
p797
S'B-NP'
p798
g5
tp799
a(S'of'
p800
S'of'
p801
S'IN'
p802
S'B-PP'
p803
g5
tp804
a(S'etoricoxib'
p805
S'etoricoxib'
p806
S'NN'
p807
S'B-NP'
p808
g5
tp809
a(S'to'
p810
S'to'
p811
S'TO'
p812
S'B-VP'
p813
g5
tp814
a(S'diclofenac.'
p815
S'diclofenac.'
p816
S'VB'
p817
S'I-VP'
p818
g5
tp819
a(S'The'
p820
S'The'
p821
S'DT'
p822
S'B-NP'
p823
g5
tp824
a(S'cumulative'
p825
S'cumulative'
p826
S'JJ'
p827
S'I-NP'
p828
g5
tp829
a(S'gastrointestinal'
p830
S'gastrointestinal'
p831
S'JJ'
p832
S'I-NP'
p833
g5
tp834
a(g75
g75
g75
g5
g5
tp835
a(S'GI'
p836
S'GI'
p837
S'NN'
p838
S'B-NP'
p839
g5
tp840
a(g92
g92
g92
g5
g5
tp841
a(S'/liver'
p842
S'/liver'
p843
S'VBP'
p844
S'B-VP'
p845
g5
tp846
a(S'adverse'
p847
S'adverse'
p848
S'JJ'
p849
S'B-NP'
p850
g5
tp851
a(S'events'
p852
S'event'
p853
S'NNS'
p854
S'I-NP'
p855
g5
tp856
a(g75
g75
g75
g5
g5
tp857
a(S'AEs'
p858
S'AE'
p859
S'NNS'
p860
S'B-NP'
p861
g5
tp862
a(g92
g92
g92
g5
g5
tp863
a(S'discontinuation'
p864
S'discontinuation'
p865
S'NN'
p866
S'B-NP'
p867
g5
tp868
a(S'rate'
p869
S'rate'
p870
S'NN'
p871
S'I-NP'
p872
g5
tp873
a(S'was'
p874
S'be'
p875
S'VBD'
p876
S'B-VP'
p877
g5
tp878
a(S'significantly'
p879
S'significantly'
p880
S'RB'
p881
S'B-ADJP'
p882
g5
tp883
a(S'lower'
p884
S'low'
p885
S'JJR'
p886
S'I-ADJP'
p887
g5
tp888
a(S'for'
p889
S'for'
p890
S'IN'
p891
S'B-PP'
p892
g5
tp893
a(S'etoricoxib'
p894
S'etoricoxib'
p895
S'NN'
p896
S'B-NP'
p897
g5
tp898
a(S'than'
p899
S'than'
p900
S'IN'
p901
S'B-PP'
p902
g5
tp903
a(S'diclofenac'
p904
S'diclofenac'
p905
S'NN'
p906
S'B-NP'
p907
g5
tp908
a(S'in'
p909
S'in'
p910
S'IN'
p911
S'B-PP'
p912
g5
tp913
a(S'each'
p914
S'each'
p915
S'DT'
p916
S'B-NP'
p917
g5
tp918
a(S'patient'
p919
S'patient'
p920
S'NN'
p921
S'I-NP'
p922
g5
tp923
a(S'cohort'
p924
S'cohort'
p925
S'NN'
p926
S'I-NP'
p927
g5
tp928
a(g320
g320
g321
g5
g5
tp929
a(S'HR'
p930
S'HR'
p931
S'NN'
p932
S'B-NP'
p933
g5
tp934
a(g75
g75
g75
g5
g5
tp935
a(S'95'
p936
S'95'
p937
S'CD'
p938
S'B-NP'
p939
g5
tp940
a(g473
g473
S'NN'
p941
S'I-NP'
p942
g5
tp943
a(S'CI'
p944
S'CI'
p945
S'NN'
p946
S'I-NP'
p947
g5
tp948
a(g92
g92
g92
g5
g5
tp949
a(S'of'
p950
S'of'
p951
S'IN'
p952
S'B-PP'
p953
g5
tp954
a(S'0.46'
p955
S'0.46'
p956
S'CD'
p957
S'B-NP'
p958
g5
tp959
a(g75
g75
g75
g5
g5
tp960
a(S'0.39'
p961
S'0.39'
p962
S'CD'
p963
S'B-NP'
p964
g5
tp965
a(g182
g182
g182
S'I-NP'
p966
g5
tp967
a(S'0.54'
p968
S'0.54'
p969
S'CD'
p970
S'I-NP'
p971
g5
tp972
a(g92
g92
g92
g5
g5
tp973
a(g182
g182
g182
g5
g5
tp974
a(S'0.52'
p975
S'0.52'
p976
S'CD'
p977
S'B-NP'
p978
g5
tp979
a(g75
g75
g75
g5
g5
tp980
a(S'0.42'
p981
S'0.42'
p982
S'CD'
p983
S'B-NP'
p984
g5
tp985
a(g182
g182
g182
S'I-NP'
p986
g5
tp987
a(S'0.63'
p988
S'0.63'
p989
S'CD'
p990
S'I-NP'
p991
g5
tp992
a(g92
g92
g92
g5
g5
tp993
a(S'and'
p994
S'and'
p995
S'CC'
p996
g5
g5
tp997
a(S'0.49'
p998
S'0.49'
p999
S'CD'
p1000
S'B-NP'
p1001
g5
tp1002
a(g75
g75
g75
g5
g5
tp1003
a(S'0.39'
p1004
S'0.39'
p1005
S'CD'
p1006
S'B-NP'
p1007
g5
tp1008
a(g182
g182
g182
S'I-NP'
p1009
g5
tp1010
a(S'0.62'
p1011
S'0.62'
p1012
S'CD'
p1013
S'I-NP'
p1014
g5
tp1015
a(g92
g92
g92
g5
g5
tp1016
a(S'for'
p1017
S'for'
p1018
S'IN'
p1019
S'B-PP'
p1020
g5
tp1021
a(S'the'
p1022
S'the'
p1023
S'DT'
p1024
S'B-NP'
p1025
g5
tp1026
a(S'60'
p1027
S'60'
p1028
S'CD'
p1029
S'I-NP'
p1030
g5
tp1031
a(S'mg'
p1032
S'mg'
p1033
S'NN'
p1034
S'I-NP'
p1035
g5
tp1036
a(S'OA'
p1037
S'OA'
p1038
S'NN'
p1039
S'I-NP'
p1040
g5
tp1041
a(g182
g182
g182
g5
g5
tp1042
a(S'90'
p1043
S'90'
p1044
S'CD'
p1045
S'B-NP'
p1046
g5
tp1047
a(S'mg'
p1048
S'mg'
p1049
S'NN'
p1050
S'I-NP'
p1051
g5
tp1052
a(S'OA'
p1053
S'OA'
p1054
S'NN'
p1055
S'I-NP'
p1056
g5
tp1057
a(S'and'
p1058
S'and'
p1059
S'CC'
p1060
S'I-NP'
p1061
g5
tp1062
a(S'RA'
p1063
S'RA'
p1064
S'NN'
p1065
S'I-NP'
p1066
g5
tp1067
a(S'cohorts.'
p1068
S'cohorts.'
p1069
S'VBP'
p1070
S'B-VP'
p1071
g5
tp1072
a(S'The'
p1073
S'The'
p1074
S'DT'
p1075
S'B-NP'
p1076
g5
tp1077
a(S'maximum'
p1078
S'maximum'
p1079
S'JJ'
p1080
S'I-NP'
p1081
g5
tp1082
a(S'average'
p1083
S'average'
p1084
S'JJ'
p1085
S'I-NP'
p1086
g5
tp1087
a(S'change'
p1088
S'change'
p1089
S'NN'
p1090
S'I-NP'
p1091
g5
tp1092
a(S'in'
p1093
S'in'
p1094
S'IN'
p1095
S'B-PP'
p1096
g5
tp1097
a(S'systolic'
p1098
S'systolic'
p1099
S'JJ'
p1100
S'B-NP'
p1101
g5
tp1102
a(S'blood'
p1103
S'blood'
p1104
S'NN'
p1105
S'I-NP'
p1106
g5
tp1107
a(S'pressure'
p1108
S'pressure'
p1109
S'NN'
p1110
S'I-NP'
p1111
g5
tp1112
a(g75
g75
g75
g5
g5
tp1113
a(S'BP'
p1114
S'BP'
p1115
S'NN'
p1116
S'B-NP'
p1117
g5
tp1118
a(g92
g92
g92
g5
g5
tp1119
a(S'with'
p1120
S'with'
p1121
S'IN'
p1122
S'B-PP'
p1123
g5
tp1124
a(S'etoricoxib'
p1125
S'etoricoxib'
p1126
S'NN'
p1127
S'B-NP'
p1128
g5
tp1129
a(S'was'
p1130
S'be'
p1131
S'VBD'
p1132
S'B-VP'
p1133
g5
tp1134
a(S'3.4-3.6'
p1135
S'3.4-3.6'
p1136
S'CD'
p1137
S'B-NP'
p1138
g5
tp1139
a(S'mmHg'
p1140
S'mmHg'
p1141
S'NN'
p1142
S'I-NP'
p1143
g5
tp1144
a(g75
g75
g75
g5
g5
tp1145
a(S'diastolic'
p1146
S'diastolic'
p1147
S'JJ'
p1148
S'B-NP'
p1149
g5
tp1150
a(S'BP'
p1151
S'BP'
p1152
S'NN'
p1153
S'I-NP'
p1154
g5
tp1155
a(g321
g321
g321
g5
g5
tp1156
a(S'1.0-1.5'
p1157
S'1.0-1.5'
p1158
S'CD'
p1159
S'B-NP'
p1160
g5
tp1161
a(S'mmHg'
p1162
S'mmHg'
p1163
S'NN'
p1164
S'I-NP'
p1165
g5
tp1166
a(g92
g92
g92
g5
g5
tp1167
a(g182
g182
g182
g5
g5
tp1168
a(S'while'
p1169
S'while'
p1170
S'IN'
p1171
S'B-SBAR'
p1172
g5
tp1173
a(S'diclofenac'
p1174
S'diclofenac'
p1175
S'NN'
p1176
S'B-NP'
p1177
g5
tp1178
a(S'produced'
p1179
S'produce'
p1180
S'VBD'
p1181
S'B-VP'
p1182
g5
tp1183
a(g51
g51
S'DT'
p1184
S'B-NP'
p1185
g5
tp1186
a(S'maximum'
p1187
S'maximum'
p1188
S'NN'
p1189
S'I-NP'
p1190
g5
tp1191
a(S'average'
p1192
S'average'
p1193
S'JJ'
p1194
S'I-NP'
p1195
g5
tp1196
a(S'change'
p1197
S'change'
p1198
S'NN'
p1199
S'I-NP'
p1200
g5
tp1201
a(S'of'
p1202
S'of'
p1203
S'IN'
p1204
S'B-PP'
p1205
g5
tp1206
a(S'0.9-1.9'
p1207
S'0.9-1.9'
p1208
S'CD'
p1209
S'B-NP'
p1210
g5
tp1211
a(S'mmHg'
p1212
S'mmHg'
p1213
S'NN'
p1214
S'I-NP'
p1215
g5
tp1216
a(g75
g75
g75
g5
g5
tp1217
a(S'diastolic'
p1218
S'diastolic'
p1219
S'JJ'
p1220
S'B-NP'
p1221
g5
tp1222
a(S'BP'
p1223
S'BP'
p1224
S'NN'
p1225
S'I-NP'
p1226
g5
tp1227
a(g321
g321
g321
g5
g5
tp1228
a(S'0.0-0.5'
p1229
S'0.0-0.5'
p1230
S'CD'
p1231
S'B-NP'
p1232
g5
tp1233
a(S'mmHg'
p1234
S'mmHg'
p1235
S'NN'
p1236
S'I-NP'
p1237
g5
tp1238
a(g92
g92
g92
g5
g5
tp1239
a(g94
g94
g94
g5
g5
tp1240
a(S'Both'
p1241
S'Both'
p1242
S'DT'
p1243
S'B-NP'
p1244
g5
tp1245
a(S'agents'
p1246
S'agent'
p1247
S'NNS'
p1248
S'I-NP'
p1249
g5
tp1250
a(S'resulted'
p1251
S'result'
p1252
S'VBD'
p1253
S'B-VP'
p1254
g5
tp1255
a(S'in'
p1256
S'in'
p1257
S'IN'
p1258
S'B-PP'
p1259
g5
tp1260
a(S'similar'
p1261
S'similar'
p1262
S'JJ'
p1263
S'B-NP'
p1264
g5
tp1265
a(S'efficacy'
p1266
S'efficacy'
p1267
S'NN'
p1268
S'I-NP'
p1269
g5
tp1270
a(S'regardless'
p1271
S'regardless'
p1272
S'RB'
p1273
S'B-ADVP'
p1274
g5
tp1275
a(S'of'
p1276
S'of'
p1277
S'IN'
p1278
S'B-PP'
p1279
g5
tp1280
a(S'etoricoxib'
p1281
S'etoricoxib'
p1282
S'NN'
p1283
S'B-NP'
p1284
g5
tp1285
a(S'dose'
p1286
S'dose'
p1287
S'NN'
p1288
S'I-NP'
p1289
g5
tp1290
a(g94
g94
g94
g5
g5
tp1291
a(S'CONCLUSION'
p1292
S'CONCLUSION'
p1293
S'NN'
p1294
S'B-NP'
p1295
g5
tp1296
a(S'Long-term'
p1297
S'Long-term'
p1298
S'JJ'
p1299
S'I-NP'
p1300
g5
tp1301
a(S'etoricoxib'
p1302
S'etoricoxib'
p1303
S'NN'
p1304
S'I-NP'
p1305
g5
tp1306
a(S'use'
p1307
S'use'
p1308
S'NN'
p1309
S'I-NP'
p1310
g5
tp1311
a(S'is'
p1312
S'be'
p1313
S'VBZ'
p1314
S'B-VP'
p1315
g5
tp1316
a(S'associated'
p1317
S'associate'
p1318
S'VBN'
p1319
S'I-VP'
p1320
g5
tp1321
a(S'with'
p1322
S'with'
p1323
S'IN'
p1324
S'B-PP'
p1325
g5
tp1326
a(g51
g51
S'DT'
p1327
S'B-NP'
p1328
g5
tp1329
a(S'risk'
p1330
S'risk'
p1331
S'NN'
p1332
S'I-NP'
p1333
g5
tp1334
a(S'of'
p1335
S'of'
p1336
S'IN'
p1337
S'B-PP'
p1338
g5
tp1339
a(S'thrombotic'
p1340
S'thrombotic'
p1341
S'JJ'
p1342
S'B-NP'
p1343
g5
tp1344
a(S'CV'
p1345
S'CV'
p1346
S'NN'
p1347
S'I-NP'
p1348
g5
tp1349
a(S'events'
p1350
S'event'
p1351
S'NNS'
p1352
S'I-NP'
p1353
g5
tp1354
a(S'comparable'
p1355
S'comparable'
p1356
S'JJ'
p1357
S'B-ADJP'
p1358
g5
tp1359
a(S'with'
p1360
S'with'
p1361
S'IN'
p1362
S'B-PP'
p1363
g5
tp1364
a(S'that'
p1365
S'that'
p1366
S'DT'
p1367
S'B-NP'
p1368
g5
tp1369
a(S'of'
p1370
S'of'
p1371
S'IN'
p1372
S'B-PP'
p1373
g5
tp1374
a(S'diclofenac.'
p1375
S'diclofenac.'
p1376
S'NN'
p1377
S'B-NP'
p1378
g5
tp1379
a(S'Compared'
p1380
S'Compare'
p1381
S'VBN'
p1382
S'B-VP'
p1383
g5
tp1384
a(S'with'
p1385
S'with'
p1386
S'IN'
p1387
S'B-PP'
p1388
g5
tp1389
a(S'diclofenac'
p1390
S'diclofenac'
p1391
S'NN'
p1392
S'B-NP'
p1393
g5
tp1394
a(g182
g182
g182
g5
g5
tp1395
a(S'etoricoxib'
p1396
S'etoricoxib'
p1397
S'NN'
p1398
S'B-NP'
p1399
g5
tp1400
a(S'demonstrated'
p1401
S'demonstrate'
p1402
S'VBD'
p1403
S'B-VP'
p1404
g5
tp1405
a(g51
g51
S'DT'
p1406
S'B-NP'
p1407
g5
tp1408
a(S'greater'
p1409
S'great'
p1410
S'JJR'
p1411
S'I-NP'
p1412
g5
tp1413
a(S'risk'
p1414
S'risk'
p1415
S'NN'
p1416
S'I-NP'
p1417
g5
tp1418
a(S'of'
p1419
S'of'
p1420
S'IN'
p1421
S'B-PP'
p1422
g5
tp1423
a(S'renovascular'
p1424
S'renovascular'
p1425
S'JJ'
p1426
S'B-NP'
p1427
g5
tp1428
a(S'AEs'
p1429
S'AE'
p1430
S'NNS'
p1431
S'I-NP'
p1432
g5
tp1433
a(g182
g182
g182
g5
g5
tp1434
a(S'but'
p1435
S'but'
p1436
S'CC'
p1437
g5
g5
tp1438
a(g51
g51
S'DT'
p1439
S'B-NP'
p1440
g5
tp1441
a(S'more'
p1442
S'more'
p1443
S'RBR'
p1444
S'I-NP'
p1445
g5
tp1446
a(S'favourable'
p1447
S'favourable'
p1448
S'JJ'
p1449
S'I-NP'
p1450
g5
tp1451
a(S'GI/liver'
p1452
S'GI/liver'
p1453
S'NN'
p1454
S'I-NP'
p1455
g5
tp1456
a(S'tolerability'
p1457
S'tolerability'
p1458
S'NN'
p1459
S'I-NP'
p1460
g5
tp1461
a(S'profile'
p1462
S'profile'
p1463
S'NN'
p1464
S'I-NP'
p1465
g5
tp1466
a(g94
g94
g94
g5
g5
tp1467
a.