(lp0
(S'Dacarbazine'
p1
S'Dacarbazine'
p2
S'NN'
p3
S'B-NP'
p4
S'O'
p5
tp6
a(S'versus'
p7
S'versus'
p8
S'CC'
p9
S'I-NP'
p10
g5
tp11
a(S'dacarbazine-vindesine'
p12
S'dacarbazine-vindesine'
p13
S'NN'
p14
S'I-NP'
p15
g5
tp16
a(S'in'
p17
S'in'
p18
S'IN'
p19
S'B-PP'
p20
g5
tp21
a(S'disseminated'
p22
S'disseminate'
p23
S'VBN'
p24
S'B-NP'
p25
g5
tp26
a(S'malignant'
p27
S'malignant'
p28
S'JJ'
p29
S'I-NP'
p30
g5
tp31
a(S'melanoma'
p32
S'melanoma'
p33
S'NN'
p34
S'I-NP'
p35
g5
tp36
a(S':'
p37
g37
g37
g5
g5
tp38
a(S'a'
p39
g39
S'DT'
p40
S'B-NP'
p41
g5
tp42
a(S'randomized'
p43
S'randomize'
p44
S'VBN'
p45
S'I-NP'
p46
g5
tp47
a(S'phase'
p48
S'phase'
p49
S'NN'
p50
S'I-NP'
p51
g5
tp52
a(S'II'
p53
S'II'
p54
S'CD'
p55
S'I-NP'
p56
g5
tp57
a(S'study'
p58
S'study'
p59
S'NN'
p60
S'I-NP'
p61
g5
tp62
a(S'.'
p63
g63
g63
g5
g5
tp64
a(S'In'
p65
S'In'
p66
S'IN'
p67
S'B-PP'
p68
g5
tp69
a(g39
g39
S'DT'
p70
S'B-NP'
p71
g5
tp72
a(S'phase'
p73
S'phase'
p74
S'NN'
p75
S'I-NP'
p76
g5
tp77
a(S'II'
p78
S'II'
p79
S'CD'
p80
S'I-NP'
p81
g5
tp82
a(S'study'
p83
S'study'
p84
S'NN'
p85
S'I-NP'
p86
g5
tp87
a(S'119'
p88
S'119'
p89
S'CD'
p90
S'B-NP'
p91
g5
tp92
a(S'patients'
p93
S'patient'
p94
S'NNS'
p95
S'I-NP'
p96
g5
tp97
a(S'with'
p98
S'with'
p99
S'IN'
p100
S'B-PP'
p101
g5
tp102
a(S'disseminated'
p103
S'disseminate'
p104
S'VBN'
p105
S'B-NP'
p106
g5
tp107
a(S'malignant'
p108
S'malignant'
p109
S'JJ'
p110
S'I-NP'
p111
g5
tp112
a(S'melanoma'
p113
S'melanoma'
p114
S'NN'
p115
S'I-NP'
p116
g5
tp117
a(S'were'
p118
S'be'
p119
S'VBD'
p120
S'B-VP'
p121
g5
tp122
a(S'randomized'
p123
S'randomize'
p124
S'VBN'
p125
S'I-VP'
p126
g5
tp127
a(S'to'
p128
S'to'
p129
S'TO'
p130
S'I-VP'
p131
g5
tp132
a(S'receive'
p133
S'receive'
p134
S'VB'
p135
S'I-VP'
p136
g5
tp137
a(S'treatment'
p138
S'treatment'
p139
S'NN'
p140
S'B-NP'
p141
g5
tp142
a(S'with'
p143
S'with'
p144
S'IN'
p145
S'B-PP'
p146
g5
tp147
a(S'dacarbazine'
p148
S'dacarbazine'
p149
S'NN'
p150
S'B-NP'
p151
g5
tp152
a(S'alone'
p153
S'alone'
p154
S'RB'
p155
S'B-ADVP'
p156
g5
tp157
a(S'or'
p158
S'or'
p159
S'CC'
p160
g5
g5
tp161
a(S'in'
p162
S'in'
p163
S'IN'
p164
S'B-PP'
p165
g5
tp166
a(S'combination'
p167
S'combination'
p168
S'NN'
p169
S'B-NP'
p170
g5
tp171
a(S'with'
p172
S'with'
p173
S'IN'
p174
S'B-PP'
p175
g5
tp176
a(S'vindesine.'
p177
S'vindesine.'
p178
S'FW'
p179
S'B-NP'
p180
g5
tp181
a(S'The'
p182
S'The'
p183
S'DT'
p184
S'B-NP'
p185
g5
tp186
a(S'study'
p187
S'study'
p188
S'NN'
p189
S'I-NP'
p190
g5
tp191
a(S'was'
p192
S'be'
p193
S'VBD'
p194
S'B-VP'
p195
g5
tp196
a(S'designed'
p197
S'design'
p198
S'VBN'
p199
S'I-VP'
p200
g5
tp201
a(S'to'
p202
S'to'
p203
S'TO'
p204
S'B-VP'
p205
g5
tp206
a(S'reveal'
p207
S'reveal'
p208
S'VB'
p209
S'I-VP'
p210
g5
tp211
a(S'an'
p212
S'an'
p213
S'DT'
p214
S'B-NP'
p215
g5
tp216
a(S'additive'
p217
S'additive'
p218
S'JJ'
p219
S'I-NP'
p220
g5
tp221
a(S'response'
p222
S'response'
p223
S'NN'
p224
S'I-NP'
p225
g5
tp226
a(S'rate'
p227
S'rate'
p228
S'NN'
p229
S'I-NP'
p230
g5
tp231
a(S'when'
p232
S'when'
p233
S'WRB'
p234
S'B-ADVP'
p235
g5
tp236
a(S'the'
p237
S'the'
p238
S'DT'
p239
S'B-NP'
p240
g5
tp241
a(S'drugs'
p242
S'drug'
p243
S'NNS'
p244
S'I-NP'
p245
g5
tp246
a(S'were'
p247
S'be'
p248
S'VBD'
p249
S'B-VP'
p250
g5
tp251
a(S'combined.'
p252
S'combined.'
p253
S'VBN'
p254
S'I-VP'
p255
g5
tp256
a(S'Dacarbazine'
p257
S'Dacarbazine'
p258
S'NN'
p259
S'B-NP'
p260
g5
tp261
a(S'was'
p262
S'be'
p263
S'VBD'
p264
S'B-VP'
p265
g5
tp266
a(S'given'
p267
S'give'
p268
S'VBN'
p269
S'I-VP'
p270
g5
tp271
a(S'i.v.'
p272
S'i.v.'
p273
S'RB'
p274
S'B-ADVP'
p275
g5
tp276
a(S'at'
p277
S'at'
p278
S'IN'
p279
S'B-PP'
p280
g5
tp281
a(S'250'
p282
S'250'
p283
S'CD'
p284
S'B-NP'
p285
g5
tp286
a(S'mg'
p287
S'mg'
p288
S'NN'
p289
S'I-NP'
p290
g5
tp291
a(S'm-2'
p292
S'm-2'
p293
S'NN'
p294
S'I-NP'
p295
g5
tp296
a(S'per'
p297
S'per'
p298
S'IN'
p299
S'B-PP'
p300
g5
tp301
a(S'day'
p302
S'day'
p303
S'NN'
p304
S'B-NP'
p305
g5
tp306
a(S'X'
p307
g307
S'SYM'
p308
S'B-NP'
p309
g5
tp310
a(S'V'
p311
g311
S'NN'
p312
S'I-NP'
p313
g5
tp314
a(S'every'
p315
S'every'
p316
S'DT'
p317
S'B-NP'
p318
g5
tp319
a(S'4'
p320
g320
S'CD'
p321
S'I-NP'
p322
g5
tp323
a(S'weeks.'
p324
S'weeks.'
p325
S'NN'
p326
S'I-NP'
p327
g5
tp328
a(S'In'
p329
S'In'
p330
S'IN'
p331
S'B-PP'
p332
g5
tp333
a(S'the'
p334
S'the'
p335
S'DT'
p336
S'B-NP'
p337
g5
tp338
a(S'combination'
p339
S'combination'
p340
S'NN'
p341
S'I-NP'
p342
g5
tp343
a(S'regimen'
p344
S'regimen'
p345
S'NN'
p346
S'I-NP'
p347
g5
tp348
a(S'vindesine'
p349
S'vindesine'
p350
S'NN'
p351
S'I-NP'
p352
g5
tp353
a(S'given'
p354
S'give'
p355
S'VBN'
p356
S'B-VP'
p357
g5
tp358
a(S'at'
p359
S'at'
p360
S'IN'
p361
S'B-PP'
p362
g5
tp363
a(S'3'
p364
g364
S'CD'
p365
S'B-NP'
p366
g5
tp367
a(S'mg'
p368
S'mg'
p369
S'NN'
p370
S'I-NP'
p371
g5
tp372
a(S'm-2'
p373
S'm-2'
p374
S'NN'
p375
S'I-NP'
p376
g5
tp377
a(S'per'
p378
S'per'
p379
S'IN'
p380
S'B-PP'
p381
g5
tp382
a(S'week'
p383
S'week'
p384
S'NN'
p385
S'B-NP'
p386
g5
tp387
a(S'was'
p388
S'be'
p389
S'VBD'
p390
S'B-VP'
p391
g5
tp392
a(S'included.'
p393
S'included.'
p394
S'VBN'
p395
S'I-VP'
p396
g5
tp397
a(S'One'
p398
S'One'
p399
S'CD'
p400
S'B-NP'
p401
g5
tp402
a(S'hundred'
p403
S'hundred'
p404
S'CD'
p405
S'I-NP'
p406
g5
tp407
a(S'and'
p408
S'and'
p409
S'CC'
p410
S'I-NP'
p411
g5
tp412
a(S'ten'
p413
S'ten'
p414
S'CD'
p415
S'I-NP'
p416
g5
tp417
a(S'patients'
p418
S'patient'
p419
S'NNS'
p420
S'I-NP'
p421
g5
tp422
a(S'were'
p423
S'be'
p424
S'VBD'
p425
S'B-VP'
p426
g5
tp427
a(S'available'
p428
S'available'
p429
S'JJ'
p430
S'B-ADJP'
p431
g5
tp432
a(S'for'
p433
S'for'
p434
S'IN'
p435
S'B-PP'
p436
g5
tp437
a(S'evaluation'
p438
S'evaluation'
p439
S'NN'
p440
S'B-NP'
p441
g5
tp442
a(S'of'
p443
S'of'
p444
S'IN'
p445
S'B-PP'
p446
g5
tp447
a(S'response.'
p448
S'response.'
p449
S'NN'
p450
S'B-NP'
p451
g5
tp452
a(S'With'
p453
S'With'
p454
S'IN'
p455
S'B-PP'
p456
g5
tp457
a(S'dacarbazine'
p458
S'dacarbazine'
p459
S'NN'
p460
S'B-NP'
p461
g5
tp462
a(S'4/51'
p463
S'4/51'
p464
S'CD'
p465
S'B-NP'
p466
g5
tp467
a(S'patients'
p468
S'patient'
p469
S'NNS'
p470
S'I-NP'
p471
g5
tp472
a(S'obtained'
p473
S'obtain'
p474
S'VBD'
p475
S'B-VP'
p476
g5
tp477
a(g39
g39
S'DT'
p478
S'B-NP'
p479
g5
tp480
a(S'complete'
p481
S'complete'
p482
S'JJ'
p483
S'I-NP'
p484
g5
tp485
a(S'remission'
p486
S'remission'
p487
S'NN'
p488
S'I-NP'
p489
g5
tp490
a(S'('
p491
g491
g491
g5
g5
tp492
a(S'8'
p493
g493
S'CD'
p494
S'B-NP'
p495
g5
tp496
a(S'%'
p497
g497
S'NN'
p498
S'I-NP'
p499
g5
tp500
a(S')'
p501
g501
g501
g5
g5
tp502
a(S'and'
p503
S'and'
p504
S'CC'
p505
g5
g5
tp506
a(S'5/51'
p507
S'5/51'
p508
S'CD'
p509
S'B-NP'
p510
g5
tp511
a(S'patients'
p512
S'patient'
p513
S'NNS'
p514
S'I-NP'
p515
g5
tp516
a(g39
g39
S'DT'
p517
S'B-NP'
p518
g5
tp519
a(S'partial'
p520
S'partial'
p521
S'JJ'
p522
S'I-NP'
p523
g5
tp524
a(S'remission'
p525
S'remission'
p526
S'NN'
p527
S'I-NP'
p528
g5
tp529
a(g491
g491
g491
g5
g5
tp530
a(S'10'
p531
S'10'
p532
S'CD'
p533
S'B-NP'
p534
g5
tp535
a(g497
g497
S'NN'
p536
S'I-NP'
p537
g5
tp538
a(g501
g501
g501
g5
g5
tp539
a(g63
g63
g63
g5
g5
tp540
a(S'Overall'
p541
S'Overall'
p542
S'JJ'
p543
S'B-NP'
p544
g5
tp545
a(S'response'
p546
S'response'
p547
S'NN'
p548
S'I-NP'
p549
g5
tp550
a(S'rate'
p551
S'rate'
p552
S'NN'
p553
S'I-NP'
p554
g5
tp555
a(S'was'
p556
S'be'
p557
S'VBD'
p558
S'B-VP'
p559
g5
tp560
a(S'18'
p561
S'18'
p562
S'CD'
p563
S'B-NP'
p564
g5
tp565
a(g497
g497
S'NN'
p566
S'I-NP'
p567
g5
tp568
a(g63
g63
g63
g5
g5
tp569
a(S'With'
p570
S'With'
p571
S'IN'
p572
S'B-PP'
p573
g5
tp574
a(S'dacarbazine-vindesine'
p575
S'dacarbazine-vindesine'
p576
S'NN'
p577
S'B-NP'
p578
g5
tp579
a(S'8/59'
p580
S'8/59'
p581
S'CD'
p582
S'B-NP'
p583
g5
tp584
a(S'patients'
p585
S'patient'
p586
S'NNS'
p587
S'I-NP'
p588
g5
tp589
a(S'obtained'
p590
S'obtain'
p591
S'VBD'
p592
S'B-VP'
p593
g5
tp594
a(g39
g39
S'DT'
p595
S'B-NP'
p596
g5
tp597
a(S'complete'
p598
S'complete'
p599
S'JJ'
p600
S'I-NP'
p601
g5
tp602
a(S'remission'
p603
S'remission'
p604
S'NN'
p605
S'I-NP'
p606
g5
tp607
a(g491
g491
g491
g5
g5
tp608
a(S'13'
p609
S'13'
p610
S'CD'
p611
S'B-NP'
p612
g5
tp613
a(g497
g497
S'NN'
p614
S'I-NP'
p615
g5
tp616
a(g501
g501
g501
g5
g5
tp617
a(S'and'
p618
S'and'
p619
S'CC'
p620
g5
g5
tp621
a(S'7/59'
p622
S'7/59'
p623
S'CD'
p624
S'B-NP'
p625
g5
tp626
a(S'patients'
p627
S'patient'
p628
S'NNS'
p629
S'I-NP'
p630
g5
tp631
a(g39
g39
S'DT'
p632
S'B-NP'
p633
g5
tp634
a(S'partial'
p635
S'partial'
p636
S'JJ'
p637
S'I-NP'
p638
g5
tp639
a(S'remission'
p640
S'remission'
p641
S'NN'
p642
S'I-NP'
p643
g5
tp644
a(g491
g491
g491
g5
g5
tp645
a(S'12'
p646
S'12'
p647
S'CD'
p648
S'B-NP'
p649
g5
tp650
a(g497
g497
S'NN'
p651
S'I-NP'
p652
g5
tp653
a(g501
g501
g501
g5
g5
tp654
a(g63
g63
g63
g5
g5
tp655
a(S'Overall'
p656
S'Overall'
p657
S'JJ'
p658
S'B-NP'
p659
g5
tp660
a(S'response'
p661
S'response'
p662
S'NN'
p663
S'I-NP'
p664
g5
tp665
a(S'rate'
p666
S'rate'
p667
S'NN'
p668
S'I-NP'
p669
g5
tp670
a(S'was'
p671
S'be'
p672
S'VBD'
p673
S'B-VP'
p674
g5
tp675
a(S'25'
p676
S'25'
p677
S'CD'
p678
S'B-NP'
p679
g5
tp680
a(g497
g497
S'NN'
p681
S'I-NP'
p682
g5
tp683
a(g63
g63
g63
g5
g5
tp684
a(S'The'
p685
S'The'
p686
S'DT'
p687
S'B-NP'
p688
g5
tp689
a(S'difference'
p690
S'difference'
p691
S'NN'
p692
S'I-NP'
p693
g5
tp694
a(S'in'
p695
S'in'
p696
S'IN'
p697
S'B-PP'
p698
g5
tp699
a(S'response'
p700
S'response'
p701
S'NN'
p702
S'B-NP'
p703
g5
tp704
a(S'rates'
p705
S'rate'
p706
S'NNS'
p707
S'I-NP'
p708
g5
tp709
a(S'observed'
p710
S'observe'
p711
S'VBN'
p712
S'B-VP'
p713
g5
tp714
a(S'between'
p715
S'between'
p716
S'IN'
p717
S'B-PP'
p718
g5
tp719
a(S'the'
p720
S'the'
p721
S'DT'
p722
S'B-NP'
p723
g5
tp724
a(S'treatment'
p725
S'treatment'
p726
S'NN'
p727
S'I-NP'
p728
g5
tp729
a(S'arms'
p730
S'arm'
p731
S'NNS'
p732
S'I-NP'
p733
g5
tp734
a(S'is'
p735
S'be'
p736
S'VBZ'
p737
S'B-VP'
p738
g5
tp739
a(S'not'
p740
S'not'
p741
S'RB'
p742
S'I-VP'
p743
g5
tp744
a(S'statistically'
p745
S'statistically'
p746
S'RB'
p747
S'I-VP'
p748
g5
tp749
a(S'significant.'
p750
S'significant.'
p751
S'VB'
p752
S'I-VP'
p753
g5
tp754
a(S'Median'
p755
S'Median'
p756
S'JJ'
p757
S'B-NP'
p758
g5
tp759
a(S'response'
p760
S'response'
p761
S'NN'
p762
S'I-NP'
p763
g5
tp764
a(S'duration'
p765
S'duration'
p766
S'NN'
p767
S'I-NP'
p768
g5
tp769
a(S'was'
p770
S'be'
p771
S'VBD'
p772
S'B-VP'
p773
g5
tp774
a(S'123'
p775
S'123'
p776
S'CD'
p777
S'B-NP'
p778
g5
tp779
a(S'days'
p780
S'day'
p781
S'NNS'
p782
S'I-NP'
p783
g5
tp784
a(S'for'
p785
S'for'
p786
S'IN'
p787
S'B-PP'
p788
g5
tp789
a(S'dacarbazine'
p790
S'dacarbazine'
p791
S'NN'
p792
S'B-NP'
p793
g5
tp794
a(S'patients'
p795
S'patient'
p796
S'NNS'
p797
S'I-NP'
p798
g5
tp799
a(S'and'
p800
S'and'
p801
S'CC'
p802
g5
g5
tp803
a(S'171'
p804
S'171'
p805
S'CD'
p806
S'B-NP'
p807
g5
tp808
a(S'days'
p809
S'day'
p810
S'NNS'
p811
S'I-NP'
p812
g5
tp813
a(S'for'
p814
S'for'
p815
S'IN'
p816
S'B-PP'
p817
g5
tp818
a(S'patients'
p819
S'patient'
p820
S'NNS'
p821
S'B-NP'
p822
g5
tp823
a(S'receiving'
p824
S'receive'
p825
S'VBG'
p826
S'B-VP'
p827
g5
tp828
a(S'dacarbazine-vindesine'
p829
S'dacarbazine-vindesine'
p830
S'NN'
p831
S'B-NP'
p832
g5
tp833
a(g491
g491
g491
g5
g5
tp834
a(S'difference'
p835
S'difference'
p836
S'NN'
p837
S'B-NP'
p838
g5
tp839
a(S'not'
p840
S'not'
p841
S'RB'
p842
g5
g5
tp843
a(S'statistically'
p844
S'statistically'
p845
S'RB'
p846
S'B-ADJP'
p847
g5
tp848
a(S'significant'
p849
S'significant'
p850
S'JJ'
p851
S'I-ADJP'
p852
g5
tp853
a(g501
g501
g501
g5
g5
tp854
a(g63
g63
g63
g5
g5
tp855
a.