(lp0
(S'A'
p1
g1
S'DT'
p2
S'B-NP'
p3
S'O'
p4
tp5
a(S'prospective'
p6
S'prospective'
p7
S'JJ'
p8
S'I-NP'
p9
g4
tp10
a(S'randomized'
p11
S'randomize'
p12
S'VBN'
p13
S'I-NP'
p14
g4
tp15
a(S'trial'
p16
S'trial'
p17
S'NN'
p18
S'I-NP'
p19
g4
tp20
a(S'of'
p21
S'of'
p22
S'IN'
p23
S'B-PP'
p24
g4
tp25
a(S'Duraflo'
p26
S'Duraflo'
p27
S'NN'
p28
S'B-NP'
p29
g4
tp30
a(S'II'
p31
S'II'
p32
S'CD'
p33
S'I-NP'
p34
g4
tp35
a(S'heparin-coated'
p36
S'heparin-coated'
p37
S'JJ'
p38
S'I-NP'
p39
g4
tp40
a(S'circuits'
p41
S'circuit'
p42
S'NNS'
p43
S'I-NP'
p44
g4
tp45
a(S'in'
p46
S'in'
p47
S'IN'
p48
S'B-PP'
p49
g4
tp50
a(S'cardiac'
p51
S'cardiac'
p52
S'JJ'
p53
S'B-NP'
p54
g4
tp55
a(S'reoperations'
p56
S'reoperation'
p57
S'NNS'
p58
S'I-NP'
p59
g4
tp60
a(S'.'
p61
g61
g61
g4
g4
tp62
a(S'BACKGROUND'
p63
S'BACKGROUND'
p64
S'NN'
p65
S'B-NP'
p66
g4
tp67
a(S'Heparin-coated'
p68
S'Heparin-coated'
p69
S'JJ'
p70
S'I-NP'
p71
g4
tp72
a(S'circuits'
p73
S'circuit'
p74
S'NNS'
p75
S'I-NP'
p76
g4
tp77
a(S'in'
p78
S'in'
p79
S'IN'
p80
S'B-PP'
p81
g4
tp82
a(S'cardiopulmonary'
p83
S'cardiopulmonary'
p84
S'JJ'
p85
S'B-NP'
p86
g4
tp87
a(S'bypass'
p88
S'bypass'
p89
S'NN'
p90
S'I-NP'
p91
g4
tp92
a(S'have'
p93
S'have'
p94
S'VBP'
p95
S'B-VP'
p96
g4
tp97
a(S'been'
p98
S'be'
p99
S'VBN'
p100
S'I-VP'
p101
g4
tp102
a(S'shown'
p103
S'show'
p104
S'VBN'
p105
S'I-VP'
p106
g4
tp107
a(S'to'
p108
S'to'
p109
S'TO'
p110
S'I-VP'
p111
g4
tp112
a(S'decrease'
p113
S'decrease'
p114
S'VB'
p115
S'I-VP'
p116
g4
tp117
a(S'the'
p118
S'the'
p119
S'DT'
p120
S'B-NP'
p121
g4
tp122
a(S'systemic'
p123
S'systemic'
p124
S'JJ'
p125
S'I-NP'
p126
g4
tp127
a(S'inflammatory'
p128
S'inflammatory'
p129
S'JJ'
p130
S'I-NP'
p131
g4
tp132
a(S'responses'
p133
S'response'
p134
S'NNS'
p135
S'I-NP'
p136
g4
tp137
a(S'associated'
p138
S'associate'
p139
S'VBN'
p140
S'B-VP'
p141
g4
tp142
a(S'with'
p143
S'with'
p144
S'IN'
p145
S'B-PP'
p146
g4
tp147
a(S'cardiopulmonary'
p148
S'cardiopulmonary'
p149
S'JJ'
p150
S'B-NP'
p151
g4
tp152
a(S'bypass.'
p153
S'bypass.'
p154
S'IN'
p155
S'B-PP'
p156
g4
tp157
a(S'Previous'
p158
S'Previous'
p159
S'JJ'
p160
S'B-NP'
p161
g4
tp162
a(S'clinical'
p163
S'clinical'
p164
S'JJ'
p165
S'I-NP'
p166
g4
tp167
a(S'studies'
p168
S'study'
p169
S'NNS'
p170
S'I-NP'
p171
g4
tp172
a(S'on'
p173
S'on'
p174
S'IN'
p175
S'B-PP'
p176
g4
tp177
a(S'low-risk'
p178
S'low-risk'
p179
S'JJ'
p180
S'B-NP'
p181
g4
tp182
a(S'patients'
p183
S'patient'
p184
S'NNS'
p185
S'I-NP'
p186
g4
tp187
a(S'who'
p188
S'who'
p189
S'WP'
p190
S'B-NP'
p191
g4
tp192
a(S'had'
p193
S'have'
p194
S'VBD'
p195
S'B-VP'
p196
g4
tp197
a(S'coronary'
p198
S'coronary'
p199
S'JJ'
p200
S'B-NP'
p201
g4
tp202
a(S'artery'
p203
S'artery'
p204
S'NN'
p205
S'I-NP'
p206
g4
tp207
a(S'bypass'
p208
S'bypass'
p209
S'NN'
p210
S'I-NP'
p211
g4
tp212
a(S'grafting'
p213
S'grafting'
p214
S'NN'
p215
S'I-NP'
p216
g4
tp217
a(S'('
p218
g218
g218
g4
g4
tp219
a(S'CABG'
p220
S'CABG'
p221
S'NN'
p222
S'B-NP'
p223
S'B-protein'
p224
tp225
a(S')'
p226
g226
g226
g4
g4
tp227
a(S'and'
p228
S'and'
p229
S'CC'
p230
g4
g4
tp231
a(S'received'
p232
S'receive'
p233
S'VBD'
p234
S'B-VP'
p235
g4
tp236
a(S'full-dose'
p237
S'full-dose'
p238
S'JJ'
p239
S'B-NP'
p240
g4
tp241
a(S'systemic'
p242
S'systemic'
p243
S'JJ'
p244
S'I-NP'
p245
g4
tp246
a(S'heparin'
p247
S'heparin'
p248
S'NN'
p249
S'I-NP'
p250
g4
tp251
a(S'did'
p252
S'do'
p253
S'VBD'
p254
S'B-VP'
p255
g4
tp256
a(S'not'
p257
S'not'
p258
S'RB'
p259
S'I-VP'
p260
g4
tp261
a(S'have'
p262
S'have'
p263
S'VB'
p264
S'I-VP'
p265
g4
tp266
a(S'clearly'
p267
S'clearly'
p268
S'RB'
p269
S'B-NP'
p270
g4
tp271
a(S'improved'
p272
S'improve'
p273
S'VBN'
p274
S'I-NP'
p275
g4
tp276
a(S'clinical'
p277
S'clinical'
p278
S'JJ'
p279
S'I-NP'
p280
g4
tp281
a(S'outcomes.'
p282
S'outcomes.'
p283
S'NN'
p284
S'I-NP'
p285
g4
tp286
a(S'We'
p287
S'We'
p288
S'PRP'
p289
S'B-NP'
p290
g4
tp291
a(S'hypothesized'
p292
S'hypothesize'
p293
S'VBD'
p294
S'B-VP'
p295
g4
tp296
a(S'that'
p297
S'that'
p298
S'IN'
p299
S'B-SBAR'
p300
g4
tp301
a(S'the'
p302
S'the'
p303
S'DT'
p304
S'B-NP'
p305
g4
tp306
a(S'beneficial'
p307
S'beneficial'
p308
S'JJ'
p309
S'I-NP'
p310
g4
tp311
a(S'effects'
p312
S'effect'
p313
S'NNS'
p314
S'I-NP'
p315
g4
tp316
a(S'of'
p317
S'of'
p318
S'IN'
p319
S'B-PP'
p320
g4
tp321
a(S'heparin-coated'
p322
S'heparin-coated'
p323
S'JJ'
p324
S'B-NP'
p325
g4
tp326
a(S'circuits'
p327
S'circuit'
p328
S'NNS'
p329
S'I-NP'
p330
g4
tp331
a(S'might'
p332
S'might'
p333
S'MD'
p334
S'B-VP'
p335
g4
tp336
a(S'be'
p337
S'be'
p338
S'VB'
p339
S'I-VP'
p340
g4
tp341
a(S'seen'
p342
S'see'
p343
S'VBN'
p344
S'I-VP'
p345
g4
tp346
a(S'in'
p347
S'in'
p348
S'IN'
p349
S'B-PP'
p350
g4
tp351
a(S'patients'
p352
S'patient'
p353
S'NNS'
p354
S'B-NP'
p355
g4
tp356
a(S'who'
p357
S'who'
p358
S'WP'
p359
S'B-NP'
p360
g4
tp361
a(S'had'
p362
S'have'
p363
S'VBD'
p364
S'B-VP'
p365
g4
tp366
a(S'cardiac'
p367
S'cardiac'
p368
S'JJ'
p369
S'B-NP'
p370
g4
tp371
a(S'reoperations'
p372
S'reoperation'
p373
S'NNS'
p374
S'I-NP'
p375
g4
tp376
a(g61
g61
g61
g4
g4
tp377
a(S'METHODS'
p378
S'METHODS'
p379
S'NNS'
p380
S'B-NP'
p381
g4
tp382
a(S'Three'
p383
S'Three'
p384
S'CD'
p385
S'B-NP'
p386
g4
tp387
a(S'hundred'
p388
S'hundred'
p389
S'CD'
p390
S'I-NP'
p391
g4
tp392
a(S'fifty'
p393
S'fifty'
p394
S'CD'
p395
S'I-NP'
p396
g4
tp397
a(S'patients'
p398
S'patient'
p399
S'NNS'
p400
S'I-NP'
p401
g4
tp402
a(S'who'
p403
S'who'
p404
S'WP'
p405
S'B-NP'
p406
g4
tp407
a(S'had'
p408
S'have'
p409
S'VBD'
p410
S'B-VP'
p411
g4
tp412
a(S'reoperation'
p413
S'reoperation'
p414
S'NN'
p415
S'B-NP'
p416
g4
tp417
a(S'with'
p418
S'with'
p419
S'IN'
p420
S'B-PP'
p421
g4
tp422
a(S'CABG'
p423
S'CABG'
p424
S'NN'
p425
S'B-NP'
p426
S'B-protein'
p427
tp428
a(S'only'
p429
S'only'
p430
S'RB'
p431
S'B-ADVP'
p432
g4
tp433
a(g218
g218
g218
g4
g4
tp434
a(S'58'
p435
S'58'
p436
S'CD'
p437
S'B-NP'
p438
g4
tp439
a(S'%'
p440
g440
S'NN'
p441
S'I-NP'
p442
g4
tp443
a(g226
g226
g226
g4
g4
tp444
a(S','
p445
g445
g445
g4
g4
tp446
a(S'or'
p447
S'or'
p448
S'CC'
p449
g4
g4
tp450
a(S'with'
p451
S'with'
p452
S'IN'
p453
S'B-PP'
p454
g4
tp455
a(S'valve'
p456
S'valve'
p457
S'NN'
p458
S'B-NP'
p459
g4
tp460
a(S'operations'
p461
S'operation'
p462
S'NNS'
p463
S'I-NP'
p464
g4
tp465
a(g218
g218
g218
g4
g4
tp466
a(S'42'
p467
S'42'
p468
S'CD'
p469
S'B-NP'
p470
g4
tp471
a(g440
g440
S'NN'
p472
S'I-NP'
p473
g4
tp474
a(g226
g226
g226
g4
g4
tp475
a(S'were'
p476
S'be'
p477
S'VBD'
p478
S'B-VP'
p479
g4
tp480
a(S'randomly'
p481
S'randomly'
p482
S'RB'
p483
S'I-VP'
p484
g4
tp485
a(S'assigned'
p486
S'assign'
p487
S'VBN'
p488
S'I-VP'
p489
g4
tp490
a(S'to'
p491
S'to'
p492
S'TO'
p493
S'I-VP'
p494
g4
tp495
a(S'receive'
p496
S'receive'
p497
S'VB'
p498
S'I-VP'
p499
g4
tp500
a(S'either'
p501
S'either'
p502
S'CC'
p503
g4
g4
tp504
a(S'a'
p505
g505
S'DT'
p506
S'B-NP'
p507
g4
tp508
a(S'heparin-coated'
p509
S'heparin-coated'
p510
S'JJ'
p511
S'I-NP'
p512
g4
tp513
a(g218
g218
g218
g4
g4
tp514
a(S'Duraflo'
p515
S'Duraflo'
p516
S'NN'
p517
S'B-NP'
p518
g4
tp519
a(S'II'
p520
S'II'
p521
S'CD'
p522
S'I-NP'
p523
g4
tp524
a(S';'
p525
g525
S':'
p526
g4
g4
tp527
a(S'study'
p528
S'study'
p529
S'NN'
p530
S'B-NP'
p531
g4
tp532
a(S'group'
p533
S'group'
p534
S'NN'
p535
S'I-NP'
p536
g4
tp537
a(g226
g226
g226
g4
g4
tp538
a(S'or'
p539
S'or'
p540
S'CC'
p541
g4
g4
tp542
a(S'uncoated'
p543
S'uncoated'
p544
S'JJ'
p545
S'B-NP'
p546
g4
tp547
a(g218
g218
g218
g4
g4
tp548
a(S'control'
p549
S'control'
p550
S'NN'
p551
S'B-NP'
p552
g4
tp553
a(S'group'
p554
S'group'
p555
S'NN'
p556
S'I-NP'
p557
g4
tp558
a(g226
g226
g226
g4
g4
tp559
a(S'circuit.'
p560
S'circuit.'
p561
S'NN'
p562
S'B-NP'
p563
g4
tp564
a(S'Clinical'
p565
S'Clinical'
p566
S'JJ'
p567
S'I-NP'
p568
g4
tp569
a(S'outcomes'
p570
S'outcome'
p571
S'NNS'
p572
S'I-NP'
p573
g4
tp574
a(S'were'
p575
S'be'
p576
S'VBD'
p577
S'B-VP'
p578
g4
tp579
a(S'compared'
p580
S'compare'
p581
S'VBN'
p582
S'I-VP'
p583
g4
tp584
a(S'and'
p585
S'and'
p586
S'CC'
p587
g4
g4
tp588
a(S'the'
p589
S'the'
p590
S'DT'
p591
S'B-NP'
p592
g4
tp593
a(S'variables'
p594
S'variable'
p595
S'NNS'
p596
S'I-NP'
p597
g4
tp598
a(S'were'
p599
S'be'
p600
S'VBD'
p601
S'B-VP'
p602
g4
tp603
a(S'analyzed'
p604
S'analyze'
p605
S'VBN'
p606
S'I-VP'
p607
g4
tp608
a(S'using'
p609
S'use'
p610
S'VBG'
p611
S'B-VP'
p612
g4
tp613
a(S'the'
p614
S'the'
p615
S'DT'
p616
S'B-NP'
p617
g4
tp618
a(S'following'
p619
S'follow'
p620
S'VBG'
p621
S'I-NP'
p622
g4
tp623
a(S'three'
p624
S'three'
p625
S'CD'
p626
S'I-NP'
p627
g4
tp628
a(S'groups'
p629
S'group'
p630
S'NNS'
p631
S'I-NP'
p632
g4
tp633
a(g526
g526
g526
g4
g4
tp634
a(S'entire'
p635
S'entire'
p636
S'JJ'
p637
S'B-NP'
p638
g4
tp639
a(S'populations'
p640
S'population'
p641
S'NNS'
p642
S'I-NP'
p643
g4
tp644
a(S'of'
p645
S'of'
p646
S'IN'
p647
S'B-PP'
p648
g4
tp649
a(S'study'
p650
S'study'
p651
S'NN'
p652
S'B-NP'
p653
g4
tp654
a(S'group'
p655
S'group'
p656
S'NN'
p657
S'I-NP'
p658
g4
tp659
a(S'and'
p660
S'and'
p661
S'CC'
p662
g4
g4
tp663
a(S'control'
p664
S'control'
p665
S'NN'
p666
S'B-NP'
p667
g4
tp668
a(S'group'
p669
S'group'
p670
S'NN'
p671
S'I-NP'
p672
g4
tp673
a(g445
g445
g445
g4
g4
tp674
a(S'subgroup'
p675
S'subgroup'
p676
S'NN'
p677
S'B-NP'
p678
g4
tp679
a(S'of'
p680
S'of'
p681
S'IN'
p682
S'B-PP'
p683
g4
tp684
a(S'patients'
p685
S'patient'
p686
S'NNS'
p687
S'B-NP'
p688
g4
tp689
a(S'who'
p690
S'who'
p691
S'WP'
p692
S'B-NP'
p693
g4
tp694
a(S'had'
p695
S'have'
p696
S'VBD'
p697
S'B-VP'
p698
g4
tp699
a(S'CABG'
p700
S'CABG'
p701
S'NN'
p702
S'B-NP'
p703
g4
tp704
a(S'reoperation'
p705
S'reoperation'
p706
S'NN'
p707
S'I-NP'
p708
g4
tp709
a(S'only'
p710
S'only'
p711
S'RB'
p712
S'B-ADVP'
p713
g4
tp714
a(g445
g445
g445
g4
g4
tp715
a(S'and'
p716
S'and'
p717
S'CC'
p718
g4
g4
tp719
a(g505
g505
S'DT'
p720
S'B-NP'
p721
g4
tp722
a(S'subgroup'
p723
S'subgroup'
p724
S'NN'
p725
S'I-NP'
p726
g4
tp727
a(S'who'
p728
S'who'
p729
S'WP'
p730
S'B-NP'
p731
g4
tp732
a(S'had'
p733
S'have'
p734
S'VBD'
p735
S'B-VP'
p736
g4
tp737
a(S'valve'
p738
S'valve'
p739
S'NN'
p740
S'B-NP'
p741
g4
tp742
a(S'reoperation'
p743
S'reoperation'
p744
S'NN'
p745
S'I-NP'
p746
g4
tp747
a(S'or'
p748
S'or'
p749
S'CC'
p750
g4
g4
tp751
a(S'combined'
p752
S'combined'
p753
S'JJ'
p754
S'B-NP'
p755
g4
tp756
a(S'valve'
p757
S'valve'
p758
S'NN'
p759
S'I-NP'
p760
g4
tp761
a(S'and'
p762
S'and'
p763
S'CC'
p764
S'I-NP'
p765
g4
tp766
a(S'CABG'
p767
S'CABG'
p768
S'NN'
p769
S'I-NP'
p770
g4
tp771
a(S'reoperation'
p772
S'reoperation'
p773
S'NN'
p774
S'I-NP'
p775
g4
tp776
a(g61
g61
g61
g4
g4
tp777
a(S'RESULTS'
p778
S'RESULTS'
p779
S'NNS'
p780
S'B-NP'
p781
g4
tp782
a(S'Preoperative'
p783
S'Preoperative'
p784
S'JJ'
p785
S'I-NP'
p786
g4
tp787
a(S'variables'
p788
S'variable'
p789
S'NNS'
p790
S'I-NP'
p791
g4
tp792
a(S'were'
p793
S'be'
p794
S'VBD'
p795
S'B-VP'
p796
g4
tp797
a(S'the'
p798
S'the'
p799
S'DT'
p800
S'B-NP'
p801
g4
tp802
a(S'same'
p803
S'same'
p804
S'JJ'
p805
S'I-NP'
p806
g4
tp807
a(S'in'
p808
S'in'
p809
S'IN'
p810
S'B-PP'
p811
g4
tp812
a(S'both'
p813
S'both'
p814
S'DT'
p815
S'B-NP'
p816
g4
tp817
a(S'groups.'
p818
S'groups.'
p819
S'NNS'
p820
S'I-NP'
p821
g4
tp822
a(S'No'
p823
S'No'
p824
S'DT'
p825
S'B-NP'
p826
g4
tp827
a(S'difference'
p828
S'difference'
p829
S'NN'
p830
S'I-NP'
p831
g4
tp832
a(S'in'
p833
S'in'
p834
S'IN'
p835
S'B-PP'
p836
g4
tp837
a(S'clinical'
p838
S'clinical'
p839
S'JJ'
p840
S'B-NP'
p841
g4
tp842
a(S'outcomes'
p843
S'outcome'
p844
S'NNS'
p845
S'I-NP'
p846
g4
tp847
a(S'could'
p848
S'could'
p849
S'MD'
p850
S'B-VP'
p851
g4
tp852
a(S'be'
p853
S'be'
p854
S'VB'
p855
S'I-VP'
p856
g4
tp857
a(S'demonstrated'
p858
S'demonstrate'
p859
S'VBN'
p860
S'I-VP'
p861
g4
tp862
a(S'except'
p863
S'except'
p864
S'IN'
p865
S'B-ADVP'
p866
g4
tp867
a(S'that'
p868
S'that'
p869
S'IN'
p870
S'B-SBAR'
p871
g4
tp872
a(S'the'
p873
S'the'
p874
S'DT'
p875
S'B-NP'
p876
g4
tp877
a(S'percentage'
p878
S'percentage'
p879
S'NN'
p880
S'I-NP'
p881
g4
tp882
a(S'of'
p883
S'of'
p884
S'IN'
p885
S'B-PP'
p886
g4
tp887
a(S'patients'
p888
S'patient'
p889
S'NNS'
p890
S'B-NP'
p891
g4
tp892
a(S'with'
p893
S'with'
p894
S'IN'
p895
S'B-PP'
p896
g4
tp897
a(S'major'
p898
S'major'
p899
S'JJ'
p900
S'B-NP'
p901
g4
tp902
a(S'bleeding'
p903
S'bleeding'
p904
S'NN'
p905
S'I-NP'
p906
g4
tp907
a(S'episodes'
p908
S'episode'
p909
S'NNS'
p910
S'I-NP'
p911
g4
tp912
a(S'was'
p913
S'be'
p914
S'VBD'
p915
S'B-VP'
p916
g4
tp917
a(S'significantly'
p918
S'significantly'
p919
S'RB'
p920
S'B-ADJP'
p921
g4
tp922
a(S'lower'
p923
S'low'
p924
S'JJR'
p925
S'I-ADJP'
p926
g4
tp927
a(S'in'
p928
S'in'
p929
S'IN'
p930
S'B-PP'
p931
g4
tp932
a(S'the'
p933
S'the'
p934
S'DT'
p935
S'B-NP'
p936
g4
tp937
a(S'study'
p938
S'study'
p939
S'NN'
p940
S'I-NP'
p941
g4
tp942
a(S'group'
p943
S'group'
p944
S'NN'
p945
S'I-NP'
p946
g4
tp947
a(g218
g218
g218
g4
g4
tp948
a(S'1.2'
p949
S'1.2'
p950
S'CD'
p951
S'B-NP'
p952
g4
tp953
a(g440
g440
S'NN'
p954
S'I-NP'
p955
g4
tp956
a(S'versus'
p957
S'versus'
p958
S'IN'
p959
S'B-PP'
p960
g4
tp961
a(S'5.4'
p962
S'5.4'
p963
S'CD'
p964
S'B-NP'
p965
g4
tp966
a(g440
g440
S'NN'
p967
S'I-NP'
p968
g4
tp969
a(g445
g445
g445
g4
g4
tp970
a(S'p'
p971
g971
S'NN'
p972
S'B-NP'
p973
g4
tp974
a(S'='
p975
g975
S'SYM'
p976
S'B-VP'
p977
g4
tp978
a(S'0.035'
p979
S'0.035'
p980
S'CD'
p981
S'B-NP'
p982
g4
tp983
a(g226
g226
g226
g4
g4
tp984
a(g61
g61
g61
g4
g4
tp985
a(S'In'
p986
S'In'
p987
S'IN'
p988
S'B-PP'
p989
g4
tp990
a(S'the'
p991
S'the'
p992
S'DT'
p993
S'B-NP'
p994
g4
tp995
a(S'subgroup'
p996
S'subgroup'
p997
S'NN'
p998
S'I-NP'
p999
g4
tp1000
a(S'analysis'
p1001
S'analysis'
p1002
S'NN'
p1003
S'I-NP'
p1004
g4
tp1005
a(S'of'
p1006
S'of'
p1007
S'IN'
p1008
S'B-PP'
p1009
g4
tp1010
a(S'patients'
p1011
S'patient'
p1012
S'NNS'
p1013
S'B-NP'
p1014
g4
tp1015
a(S'who'
p1016
S'who'
p1017
S'WP'
p1018
S'B-NP'
p1019
g4
tp1020
a(S'had'
p1021
S'have'
p1022
S'VBD'
p1023
S'B-VP'
p1024
g4
tp1025
a(S'valve'
p1026
S'valve'
p1027
S'NN'
p1028
S'B-NP'
p1029
g4
tp1030
a(S'reoperations'
p1031
S'reoperation'
p1032
S'NNS'
p1033
S'I-NP'
p1034
g4
tp1035
a(g445
g445
g445
g4
g4
tp1036
a(S'lower'
p1037
S'low'
p1038
S'JJR'
p1039
S'B-NP'
p1040
g4
tp1041
a(S'blood'
p1042
S'blood'
p1043
S'NN'
p1044
S'I-NP'
p1045
g4
tp1046
a(S'transfusion'
p1047
S'transfusion'
p1048
S'NN'
p1049
S'I-NP'
p1050
g4
tp1051
a(S'requirements'
p1052
S'requirement'
p1053
S'NNS'
p1054
S'I-NP'
p1055
g4
tp1056
a(S'in'
p1057
S'in'
p1058
S'IN'
p1059
S'B-PP'
p1060
g4
tp1061
a(S'the'
p1062
S'the'
p1063
S'DT'
p1064
S'B-NP'
p1065
g4
tp1066
a(S'intensive'
p1067
S'intensive'
p1068
S'JJ'
p1069
S'I-NP'
p1070
g4
tp1071
a(S'care'
p1072
S'care'
p1073
S'NN'
p1074
S'I-NP'
p1075
g4
tp1076
a(S'unit'
p1077
S'unit'
p1078
S'NN'
p1079
S'I-NP'
p1080
g4
tp1081
a(g218
g218
g218
g4
g4
tp1082
a(g971
g971
S'NN'
p1083
S'B-NP'
p1084
g4
tp1085
a(g975
g975
S'SYM'
p1086
S'B-VP'
p1087
g4
tp1088
a(S'0.013'
p1089
S'0.013'
p1090
S'CD'
p1091
S'B-NP'
p1092
g4
tp1093
a(g226
g226
g226
g4
g4
tp1094
a(S'were'
p1095
S'be'
p1096
S'VBD'
p1097
S'B-VP'
p1098
g4
tp1099
a(S'found'
p1100
S'find'
p1101
S'VBN'
p1102
S'I-VP'
p1103
g4
tp1104
a(S'in'
p1105
S'in'
p1106
S'IN'
p1107
S'B-PP'
p1108
g4
tp1109
a(S'the'
p1110
S'the'
p1111
S'DT'
p1112
S'B-NP'
p1113
g4
tp1114
a(S'study'
p1115
S'study'
p1116
S'NN'
p1117
S'I-NP'
p1118
g4
tp1119
a(S'group.'
p1120
S'group.'
p1121
S'NN'
p1122
S'I-NP'
p1123
g4
tp1124
a(S'When'
p1125
S'When'
p1126
S'WRB'
p1127
S'B-ADVP'
p1128
g4
tp1129
a(S'the'
p1130
S'the'
p1131
S'DT'
p1132
S'B-NP'
p1133
g4
tp1134
a(S'subgroup'
p1135
S'subgroup'
p1136
S'NN'
p1137
S'I-NP'
p1138
g4
tp1139
a(S'of'
p1140
S'of'
p1141
S'IN'
p1142
S'B-PP'
p1143
g4
tp1144
a(S'patients'
p1145
S'patient'
p1146
S'NNS'
p1147
S'B-NP'
p1148
g4
tp1149
a(S'who'
p1150
S'who'
p1151
S'WP'
p1152
S'B-NP'
p1153
g4
tp1154
a(S'had'
p1155
S'have'
p1156
S'VBD'
p1157
S'B-VP'
p1158
g4
tp1159
a(S'CABG'
p1160
S'CABG'
p1161
S'NN'
p1162
S'B-NP'
p1163
g4
tp1164
a(S'reoperations'
p1165
S'reoperation'
p1166
S'NNS'
p1167
S'I-NP'
p1168
g4
tp1169
a(S'was'
p1170
S'be'
p1171
S'VBD'
p1172
S'B-VP'
p1173
g4
tp1174
a(S'analyzed'
p1175
S'analyze'
p1176
S'VBN'
p1177
S'I-VP'
p1178
g4
tp1179
a(S'separately'
p1180
S'separately'
p1181
S'RB'
p1182
S'B-ADVP'
p1183
g4
tp1184
a(g445
g445
g445
g4
g4
tp1185
a(S'there'
p1186
S'there'
p1187
S'EX'
p1188
S'B-NP'
p1189
g4
tp1190
a(S'was'
p1191
S'be'
p1192
S'VBD'
p1193
S'B-VP'
p1194
g4
tp1195
a(g505
g505
S'DT'
p1196
S'B-NP'
p1197
g4
tp1198
a(S'trend'
p1199
S'trend'
p1200
S'NN'
p1201
S'I-NP'
p1202
g4
tp1203
a(S'toward'
p1204
S'toward'
p1205
S'IN'
p1206
S'B-PP'
p1207
g4
tp1208
a(S'less'
p1209
S'less'
p1210
S'JJR'
p1211
S'B-NP'
p1212
g4
tp1213
a(S'reoperation'
p1214
S'reoperation'
p1215
S'NN'
p1216
S'I-NP'
p1217
g4
tp1218
a(S'for'
p1219
S'for'
p1220
S'IN'
p1221
S'B-PP'
p1222
g4
tp1223
a(S'bleeding'
p1224
S'bleed'
p1225
S'VBG'
p1226
S'B-VP'
p1227
g4
tp1228
a(S'in'
p1229
S'in'
p1230
S'IN'
p1231
S'B-PP'
p1232
g4
tp1233
a(S'the'
p1234
S'the'
p1235
S'DT'
p1236
S'B-NP'
p1237
g4
tp1238
a(S'study'
p1239
S'study'
p1240
S'NN'
p1241
S'I-NP'
p1242
g4
tp1243
a(S'group'
p1244
S'group'
p1245
S'NN'
p1246
S'I-NP'
p1247
g4
tp1248
a(g218
g218
g218
g4
g4
tp1249
a(S'0'
p1250
g1250
S'CD'
p1251
S'B-NP'
p1252
g4
tp1253
a(g440
g440
S'NN'
p1254
S'I-NP'
p1255
g4
tp1256
a(S'versus'
p1257
S'versus'
p1258
S'IN'
p1259
S'B-PP'
p1260
g4
tp1261
a(S'4.0'
p1262
S'4.0'
p1263
S'CD'
p1264
S'B-NP'
p1265
g4
tp1266
a(g440
g440
S'NN'
p1267
S'I-NP'
p1268
g4
tp1269
a(g445
g445
g445
g4
g4
tp1270
a(g971
g971
S'NN'
p1271
S'B-NP'
p1272
g4
tp1273
a(g975
g975
S'SYM'
p1274
S'B-VP'
p1275
g4
tp1276
a(S'0.058'
p1277
S'0.058'
p1278
S'CD'
p1279
S'B-NP'
p1280
g4
tp1281
a(g226
g226
g226
g4
g4
tp1282
a(g61
g61
g61
g4
g4
tp1283
a(S'CONCLUSIONS'
p1284
S'CONCLUSIONS'
p1285
S'NNS'
p1286
S'B-NP'
p1287
g4
tp1288
a(S'We'
p1289
S'We'
p1290
S'PRP'
p1291
S'B-NP'
p1292
g4
tp1293
a(S'conclude'
p1294
S'conclude'
p1295
S'VBP'
p1296
S'B-VP'
p1297
g4
tp1298
a(S'that'
p1299
S'that'
p1300
S'IN'
p1301
S'B-SBAR'
p1302
g4
tp1303
a(S'the'
p1304
S'the'
p1305
S'DT'
p1306
S'B-NP'
p1307
g4
tp1308
a(S'use'
p1309
S'use'
p1310
S'NN'
p1311
S'I-NP'
p1312
g4
tp1313
a(S'of'
p1314
S'of'
p1315
S'IN'
p1316
S'B-PP'
p1317
g4
tp1318
a(S'heparin-coated'
p1319
S'heparin-coated'
p1320
S'JJ'
p1321
S'B-NP'
p1322
S'B-protein'
p1323
tp1324
a(S'circuits'
p1325
S'circuit'
p1326
S'NNS'
p1327
S'I-NP'
p1328
S'I-protein'
p1329
tp1330
a(S'was'
p1331
S'be'
p1332
S'VBD'
p1333
S'B-VP'
p1334
g4
tp1335
a(S'safe'
p1336
S'safe'
p1337
S'JJ'
p1338
S'B-ADJP'
p1339
g4
tp1340
a(S'and'
p1341
S'and'
p1342
S'CC'
p1343
g4
g4
tp1344
a(S'imparted'
p1345
S'impart'
p1346
S'VBN'
p1347
S'B-VP'
p1348
g4
tp1349
a(S'protection'
p1350
S'protection'
p1351
S'NN'
p1352
S'B-NP'
p1353
g4
tp1354
a(S'from'
p1355
S'from'
p1356
S'IN'
p1357
S'B-PP'
p1358
g4
tp1359
a(S'reoperations'
p1360
S'reoperation'
p1361
S'NNS'
p1362
S'B-NP'
p1363
g4
tp1364
a(S'for'
p1365
S'for'
p1366
S'IN'
p1367
S'B-PP'
p1368
g4
tp1369
a(S'bleeding'
p1370
S'bleed'
p1371
S'VBG'
p1372
S'B-NP'
p1373
g4
tp1374
a(S'and'
p1375
S'and'
p1376
S'CC'
p1377
g4
g4
tp1378
a(S'major'
p1379
S'major'
p1380
S'JJ'
p1381
S'B-NP'
p1382
g4
tp1383
a(S'bleeding'
p1384
S'bleed'
p1385
S'VBG'
p1386
S'I-NP'
p1387
g4
tp1388
a(S'episodes.'
p1389
S'episodes.'
p1390
S'NN'
p1391
S'I-NP'
p1392
g4
tp1393
a(S'Material-independent'
p1394
S'Material-independent'
p1395
S'JJ'
p1396
S'I-NP'
p1397
g4
tp1398
a(S'blood'
p1399
S'blood'
p1400
S'NN'
p1401
S'I-NP'
p1402
g4
tp1403
a(S'activation'
p1404
S'activation'
p1405
S'NN'
p1406
S'I-NP'
p1407
g4
tp1408
a(g218
g218
g218
g4
g4
tp1409
a(S'eg'
p1410
S'eg'
p1411
S'FW'
p1412
S'B-NP'
p1413
g4
tp1414
a(g445
g445
g445
g4
g4
tp1415
a(S'blood-air'
p1416
S'blood-air'
p1417
S'JJ'
p1418
S'B-NP'
p1419
g4
tp1420
a(S'interface'
p1421
S'interface'
p1422
S'NN'
p1423
S'I-NP'
p1424
g4
tp1425
a(S'and'
p1426
S'and'
p1427
S'CC'
p1428
S'I-NP'
p1429
g4
tp1430
a(S'cardiotomy'
p1431
S'cardiotomy'
p1432
S'NN'
p1433
S'I-NP'
p1434
g4
tp1435
a(S'suction'
p1436
S'suction'
p1437
S'NN'
p1438
S'I-NP'
p1439
g4
tp1440
a(g226
g226
g226
g4
g4
tp1441
a(S'blunted'
p1442
S'blunt'
p1443
S'VBD'
p1444
S'B-VP'
p1445
g4
tp1446
a(S'the'
p1447
S'the'
p1448
S'DT'
p1449
S'B-NP'
p1450
g4
tp1451
a(S'total'
p1452
S'total'
p1453
S'JJ'
p1454
S'I-NP'
p1455
g4
tp1456
a(S'effect'
p1457
S'effect'
p1458
S'NN'
p1459
S'I-NP'
p1460
g4
tp1461
a(S'of'
p1462
S'of'
p1463
S'IN'
p1464
S'B-PP'
p1465
g4
tp1466
a(S'the'
p1467
S'the'
p1468
S'DT'
p1469
S'B-NP'
p1470
g4
tp1471
a(S'heparin-coated'
p1472
S'heparin-coated'
p1473
S'JJ'
p1474
S'I-NP'
p1475
g4
tp1476
a(S'surface'
p1477
S'surface'
p1478
S'NN'
p1479
S'I-NP'
p1480
g4
tp1481
a(g61
g61
g61
g4
g4
tp1482
a.