(lp0
(S'Atypical'
p1
S'Atypical'
p2
S'JJ'
p3
S'B-NP'
p4
S'O'
p5
tp6
a(S'social'
p7
S'social'
p8
S'JJ'
p9
S'I-NP'
p10
g5
tp11
a(S'modulation'
p12
S'modulation'
p13
S'NN'
p14
S'I-NP'
p15
g5
tp16
a(S'of'
p17
S'of'
p18
S'IN'
p19
S'B-PP'
p20
g5
tp21
a(S'imitation'
p22
S'imitation'
p23
S'NN'
p24
S'B-NP'
p25
g5
tp26
a(S'in'
p27
S'in'
p28
S'IN'
p29
S'B-PP'
p30
g5
tp31
a(S'autism'
p32
S'autism'
p33
S'NN'
p34
S'B-NP'
p35
g5
tp36
a(S'spectrum'
p37
S'spectrum'
p38
S'NN'
p39
S'I-NP'
p40
g5
tp41
a(S'conditions'
p42
S'condition'
p43
S'NNS'
p44
S'I-NP'
p45
g5
tp46
a(S'.'
p47
g47
g47
g5
g5
tp48
a(S'Appropriate'
p49
S'Appropriate'
p50
S'JJ'
p51
S'B-NP'
p52
g5
tp53
a(S'modulation'
p54
S'modulation'
p55
S'NN'
p56
S'I-NP'
p57
g5
tp58
a(S'of'
p59
S'of'
p60
S'IN'
p61
S'B-PP'
p62
g5
tp63
a(S'imitation'
p64
S'imitation'
p65
S'NN'
p66
S'B-NP'
p67
g5
tp68
a(S'according'
p69
S'accord'
p70
S'VBG'
p71
S'B-PP'
p72
g5
tp73
a(S'to'
p74
S'to'
p75
S'TO'
p76
S'B-PP'
p77
g5
tp78
a(S'social'
p79
S'social'
p80
S'JJ'
p81
S'B-NP'
p82
g5
tp83
a(S'context'
p84
S'context'
p85
S'NN'
p86
S'I-NP'
p87
g5
tp88
a(S'is'
p89
S'be'
p90
S'VBZ'
p91
S'B-VP'
p92
g5
tp93
a(S'important'
p94
S'important'
p95
S'JJ'
p96
S'B-ADJP'
p97
g5
tp98
a(S'for'
p99
S'for'
p100
S'IN'
p101
S'B-PP'
p102
g5
tp103
a(S'successful'
p104
S'successful'
p105
S'JJ'
p106
S'B-NP'
p107
g5
tp108
a(S'social'
p109
S'social'
p110
S'JJ'
p111
S'I-NP'
p112
g5
tp113
a(S'interaction.'
p114
S'interaction.'
p115
S'NN'
p116
S'I-NP'
p117
g5
tp118
a(S'In'
p119
S'In'
p120
S'IN'
p121
S'B-PP'
p122
g5
tp123
a(S'the'
p124
S'the'
p125
S'DT'
p126
S'B-NP'
p127
g5
tp128
a(S'present'
p129
S'present'
p130
S'JJ'
p131
S'I-NP'
p132
g5
tp133
a(S'study'
p134
S'study'
p135
S'NN'
p136
S'I-NP'
p137
g5
tp138
a(S'we'
p139
S'we'
p140
S'PRP'
p141
S'B-NP'
p142
g5
tp143
a(S'subliminally'
p144
S'subliminally'
p145
S'RB'
p146
S'B-ADVP'
p147
g5
tp148
a(S'primed'
p149
S'prim'
p150
S'VBD'
p151
S'B-VP'
p152
g5
tp153
a(S'high-functioning'
p154
S'high-functioning'
p155
S'JJ'
p156
S'B-NP'
p157
g5
tp158
a(S'adults'
p159
S'adult'
p160
S'NNS'
p161
S'I-NP'
p162
g5
tp163
a(S'with'
p164
S'with'
p165
S'IN'
p166
S'B-PP'
p167
g5
tp168
a(S'ASC'
p169
S'ASC'
p170
S'NN'
p171
S'B-NP'
p172
S'B-protein'
p173
tp174
a(S'and'
p175
S'and'
p176
S'CC'
p177
S'I-NP'
p178
g5
tp179
a(S'age-'
p180
S'age-'
p181
S'NN'
p182
S'I-NP'
p183
g5
tp184
a(S'and'
p185
S'and'
p186
S'CC'
p187
g5
g5
tp188
a(S'IQ-matched'
p189
S'IQ-matched'
p190
S'JJ'
p191
S'B-NP'
p192
g5
tp193
a(S'controls'
p194
S'control'
p195
S'NNS'
p196
S'I-NP'
p197
g5
tp198
a(S'with'
p199
S'with'
p200
S'IN'
p201
S'B-PP'
p202
g5
tp203
a(S'either'
p204
S'either'
p205
S'CC'
p206
S'B-NP'
p207
g5
tp208
a(S'a'
p209
g209
S'DT'
p210
S'I-NP'
p211
g5
tp212
a(S'pro-'
p213
S'pro-'
p214
S'JJ'
p215
S'I-NP'
p216
g5
tp217
a(S'or'
p218
S'or'
p219
S'CC'
p220
S'I-NP'
p221
g5
tp222
a(S'non-'
p223
S'non-'
p224
S'JJ'
p225
S'I-NP'
p226
g5
tp227
a(S'social'
p228
S'social'
p229
S'JJ'
p230
S'I-NP'
p231
g5
tp232
a(S'attitude.'
p233
S'attitude.'
p234
S'NN'
p235
S'I-NP'
p236
g5
tp237
a(S'Following'
p238
S'Follow'
p239
S'VBG'
p240
S'B-VP'
p241
g5
tp242
a(S'priming'
p243
S'priming'
p244
S'NN'
p245
S'B-NP'
p246
g5
tp247
a(S','
p248
g248
g248
g5
g5
tp249
a(S'an'
p250
S'an'
p251
S'DT'
p252
S'B-NP'
p253
g5
tp254
a(S'automatic'
p255
S'automatic'
p256
S'JJ'
p257
S'I-NP'
p258
g5
tp259
a(S'imitation'
p260
S'imitation'
p261
S'NN'
p262
S'I-NP'
p263
g5
tp264
a(S'paradigm'
p265
S'paradigm'
p266
S'NN'
p267
S'I-NP'
p268
g5
tp269
a(S'was'
p270
S'be'
p271
S'VBD'
p272
S'B-VP'
p273
g5
tp274
a(S'used'
p275
S'use'
p276
S'VBN'
p277
S'I-VP'
p278
g5
tp279
a(S'to'
p280
S'to'
p281
S'TO'
p282
S'B-VP'
p283
g5
tp284
a(S'acquire'
p285
S'acquire'
p286
S'VB'
p287
S'I-VP'
p288
g5
tp289
a(S'an'
p290
S'an'
p291
S'DT'
p292
S'B-NP'
p293
g5
tp294
a(S'index'
p295
S'index'
p296
S'NN'
p297
S'I-NP'
p298
g5
tp299
a(S'of'
p300
S'of'
p301
S'IN'
p302
S'B-PP'
p303
g5
tp304
a(S'imitation.'
p305
S'imitation.'
p306
S'NN'
p307
S'B-NP'
p308
g5
tp309
a(S'Whereas'
p310
S'Whereas'
p311
S'IN'
p312
S'B-PP'
p313
g5
tp314
a(S'imitation'
p315
S'imitation'
p316
S'NN'
p317
S'B-NP'
p318
g5
tp319
a(S'levels'
p320
S'level'
p321
S'NNS'
p322
S'I-NP'
p323
g5
tp324
a(S'were'
p325
S'be'
p326
S'VBD'
p327
S'B-VP'
p328
g5
tp329
a(S'higher'
p330
S'high'
p331
S'JJR'
p332
S'B-ADJP'
p333
g5
tp334
a(S'for'
p335
S'for'
p336
S'IN'
p337
S'B-PP'
p338
g5
tp339
a(S'pro-socially'
p340
S'pro-socially'
p341
S'RB'
p342
S'B-NP'
p343
g5
tp344
a(S'primed'
p345
S'prim'
p346
S'VBN'
p347
S'I-NP'
p348
g5
tp349
a(S'relative'
p350
S'relative'
p351
S'JJ'
p352
S'I-NP'
p353
g5
tp354
a(S'to'
p355
S'to'
p356
S'TO'
p357
S'B-VP'
p358
g5
tp359
a(S'non-socially'
p360
S'non-socially'
p361
S'RB'
p362
S'I-VP'
p363
g5
tp364
a(S'primed'
p365
S'prim'
p366
S'VBN'
p367
S'I-VP'
p368
g5
tp369
a(S'control'
p370
S'control'
p371
S'NN'
p372
S'B-NP'
p373
g5
tp374
a(S'participants'
p375
S'participant'
p376
S'NNS'
p377
S'I-NP'
p378
g5
tp379
a(g248
g248
g248
g5
g5
tp380
a(S'there'
p381
S'there'
p382
S'EX'
p383
S'B-NP'
p384
g5
tp385
a(S'was'
p386
S'be'
p387
S'VBD'
p388
S'B-VP'
p389
g5
tp390
a(S'no'
p391
S'no'
p392
S'DT'
p393
S'B-NP'
p394
g5
tp395
a(S'difference'
p396
S'difference'
p397
S'NN'
p398
S'I-NP'
p399
g5
tp400
a(S'between'
p401
S'between'
p402
S'IN'
p403
S'B-PP'
p404
g5
tp405
a(S'pro-'
p406
S'pro-'
p407
S'JJ'
p408
S'B-NP'
p409
g5
tp410
a(S'and'
p411
S'and'
p412
S'CC'
p413
S'I-NP'
p414
g5
tp415
a(S'non-'
p416
S'non-'
p417
S'JJ'
p418
S'I-NP'
p419
g5
tp420
a(S'socially'
p421
S'socially'
p422
S'RB'
p423
S'I-NP'
p424
g5
tp425
a(S'primed'
p426
S'prim'
p427
S'VBN'
p428
S'I-NP'
p429
g5
tp430
a(S'individuals'
p431
S'individual'
p432
S'NNS'
p433
S'I-NP'
p434
g5
tp435
a(S'with'
p436
S'with'
p437
S'IN'
p438
S'B-PP'
p439
g5
tp440
a(S'ASC.'
p441
S'ASC.'
p442
S'NNP'
p443
S'B-NP'
p444
g5
tp445
a(S'We'
p446
S'We'
p447
S'PRP'
p448
S'B-NP'
p449
g5
tp450
a(S'conclude'
p451
S'conclude'
p452
S'VBP'
p453
S'B-VP'
p454
g5
tp455
a(S'that'
p456
S'that'
p457
S'IN'
p458
S'B-SBAR'
p459
g5
tp460
a(S'high-functioning'
p461
S'high-functioning'
p462
S'JJ'
p463
S'B-NP'
p464
g5
tp465
a(S'adults'
p466
S'adult'
p467
S'NNS'
p468
S'I-NP'
p469
g5
tp470
a(S'with'
p471
S'with'
p472
S'IN'
p473
S'B-PP'
p474
g5
tp475
a(S'ASC'
p476
S'ASC'
p477
S'NNP'
p478
S'B-NP'
p479
g5
tp480
a(S'demonstrate'
p481
S'demonstrate'
p482
S'VBP'
p483
S'B-VP'
p484
g5
tp485
a(S'atypical'
p486
S'atypical'
p487
S'JJ'
p488
S'B-NP'
p489
g5
tp490
a(S'social'
p491
S'social'
p492
S'JJ'
p493
S'I-NP'
p494
g5
tp495
a(S'modulation'
p496
S'modulation'
p497
S'NN'
p498
S'I-NP'
p499
g5
tp500
a(S'of'
p501
S'of'
p502
S'IN'
p503
S'B-PP'
p504
g5
tp505
a(S'imitation.'
p506
S'imitation.'
p507
S'NN'
p508
S'B-NP'
p509
g5
tp510
a(S'Given'
p511
S'Give'
p512
S'VBN'
p513
S'B-VP'
p514
g5
tp515
a(S'the'
p516
S'the'
p517
S'DT'
p518
S'B-NP'
p519
g5
tp520
a(S'importance'
p521
S'importance'
p522
S'NN'
p523
S'I-NP'
p524
g5
tp525
a(S'of'
p526
S'of'
p527
S'IN'
p528
S'B-PP'
p529
g5
tp530
a(S'imitation'
p531
S'imitation'
p532
S'NN'
p533
S'B-NP'
p534
g5
tp535
a(S'in'
p536
S'in'
p537
S'IN'
p538
S'B-PP'
p539
g5
tp540
a(S'social'
p541
S'social'
p542
S'JJ'
p543
S'B-NP'
p544
g5
tp545
a(S'interaction'
p546
S'interaction'
p547
S'NN'
p548
S'I-NP'
p549
g5
tp550
a(S'we'
p551
S'we'
p552
S'PRP'
p553
S'B-NP'
p554
g5
tp555
a(S'speculate'
p556
S'speculate'
p557
S'VBP'
p558
S'B-VP'
p559
g5
tp560
a(S'that'
p561
S'that'
p562
S'IN'
p563
S'B-SBAR'
p564
g5
tp565
a(S'difficulties'
p566
S'difficulty'
p567
S'NNS'
p568
S'B-NP'
p569
g5
tp570
a(S'with'
p571
S'with'
p572
S'IN'
p573
S'B-PP'
p574
g5
tp575
a(S'the'
p576
S'the'
p577
S'DT'
p578
S'B-NP'
p579
g5
tp580
a(S'modulation'
p581
S'modulation'
p582
S'NN'
p583
S'I-NP'
p584
g5
tp585
a(S'of'
p586
S'of'
p587
S'IN'
p588
S'B-PP'
p589
g5
tp590
a(S'imitation'
p591
S'imitation'
p592
S'NN'
p593
S'B-NP'
p594
g5
tp595
a(S'may'
p596
S'may'
p597
S'MD'
p598
S'B-VP'
p599
g5
tp600
a(S'contribute'
p601
S'contribute'
p602
S'VB'
p603
S'I-VP'
p604
g5
tp605
a(S'to'
p606
S'to'
p607
S'TO'
p608
S'B-PP'
p609
g5
tp610
a(S'the'
p611
S'the'
p612
S'DT'
p613
S'B-NP'
p614
g5
tp615
a(S'social'
p616
S'social'
p617
S'JJ'
p618
S'I-NP'
p619
g5
tp620
a(S'problems'
p621
S'problem'
p622
S'NNS'
p623
S'I-NP'
p624
g5
tp625
a(S'characteristic'
p626
S'characteristic'
p627
S'JJ'
p628
S'B-ADJP'
p629
g5
tp630
a(S'of'
p631
S'of'
p632
S'IN'
p633
S'B-PP'
p634
g5
tp635
a(S'ASC'
p636
S'ASC'
p637
S'NNP'
p638
S'B-NP'
p639
g5
tp640
a(g47
g47
g47
g5
g5
tp641
a.