(lp0
(S'Can'
p1
S'Can'
p2
S'MD'
p3
S'O'
p4
g4
tp5
a(S'simvastatin'
p6
S'simvastatin'
p7
S'NN'
p8
S'B-NP'
p9
g4
tp10
a(S'improve'
p11
S'improve'
p12
S'VB'
p13
S'B-VP'
p14
g4
tp15
a(S'erectile'
p16
S'erectile'
p17
S'JJ'
p18
S'B-NP'
p19
g4
tp20
a(S'function'
p21
S'function'
p22
S'NN'
p23
S'I-NP'
p24
g4
tp25
a(S'and'
p26
S'and'
p27
S'CC'
p28
g4
g4
tp29
a(S'health-related'
p30
S'health-related'
p31
S'JJ'
p32
S'B-NP'
p33
g4
tp34
a(S'quality'
p35
S'quality'
p36
S'NN'
p37
S'I-NP'
p38
g4
tp39
a(S'of'
p40
S'of'
p41
S'IN'
p42
S'B-PP'
p43
g4
tp44
a(S'life'
p45
S'life'
p46
S'NN'
p47
S'B-NP'
p48
g4
tp49
a(S'in'
p50
S'in'
p51
S'IN'
p52
S'B-PP'
p53
g4
tp54
a(S'men'
p55
S'man'
p56
S'NNS'
p57
S'B-NP'
p58
g4
tp59
a(S'aged'
p60
S'age'
p61
S'VBN'
p62
S'B-VP'
p63
g4
tp64
a(S'\xe2\x89\xa540'
p65
S'\xe2\x89\xa540'
p66
S'CD'
p67
S'B-NP'
p68
g4
tp69
a(S'years'
p70
S'year'
p71
S'NNS'
p72
S'I-NP'
p73
g4
tp74
a(S'with'
p75
S'with'
p76
S'IN'
p77
S'B-PP'
p78
g4
tp79
a(S'erectile'
p80
S'erectile'
p81
S'JJ'
p82
S'B-NP'
p83
g4
tp84
a(S'dysfunction'
p85
S'dysfunction'
p86
S'NN'
p87
S'I-NP'
p88
g4
tp89
a(S'?'
p90
g90
S'.'
p91
g4
g4
tp92
a(S'Results'
p93
S'Result'
p94
S'NNS'
p95
S'B-NP'
p96
g4
tp97
a(S'of'
p98
S'of'
p99
S'IN'
p100
S'B-PP'
p101
g4
tp102
a(S'the'
p103
S'the'
p104
S'DT'
p105
S'B-NP'
p106
g4
tp107
a(S'Erectile'
p108
S'Erectile'
p109
S'JJ'
p110
S'I-NP'
p111
g4
tp112
a(S'Dysfunction'
p113
S'Dysfunction'
p114
S'NN'
p115
S'I-NP'
p116
g4
tp117
a(S'and'
p118
S'and'
p119
S'CC'
p120
g4
g4
tp121
a(S'Statins'
p122
S'Statins'
p123
S'NNP'
p124
S'B-NP'
p125
g4
tp126
a(S'Trial'
p127
S'Trial'
p128
S'NNP'
p129
S'I-NP'
p130
g4
tp131
a(S'['
p132
g132
S'('
p133
g4
g4
tp134
a(S'ISRCTN66772971'
p135
S'ISRCTN66772971'
p136
S'NN'
p137
S'B-NP'
p138
g4
tp139
a(S']'
p140
g140
S')'
p141
g4
g4
tp142
a(g91
g91
g91
g4
g4
tp143
a(S'OBJECTIVE'
p144
S'OBJECTIVE'
p145
S'NN'
p146
S'B-NP'
p147
g4
tp148
a(S'To'
p149
S'To'
p150
S'TO'
p151
S'B-VP'
p152
g4
tp153
a(S'evaluate'
p154
S'evaluate'
p155
S'VB'
p156
S'I-VP'
p157
g4
tp158
a(S'the'
p159
S'the'
p160
S'DT'
p161
S'B-NP'
p162
g4
tp163
a(S'effectiveness'
p164
S'effectiveness'
p165
S'NN'
p166
S'I-NP'
p167
g4
tp168
a(S'and'
p169
S'and'
p170
S'CC'
p171
S'I-NP'
p172
g4
tp173
a(S'cost-effectiveness'
p174
S'cost-effectiveness'
p175
S'NN'
p176
S'I-NP'
p177
g4
tp178
a(S'of'
p179
S'of'
p180
S'IN'
p181
S'B-PP'
p182
g4
tp183
a(S'simvastatin'
p184
S'simvastatin'
p185
S'NN'
p186
S'B-NP'
p187
g4
tp188
a(S'on'
p189
S'on'
p190
S'IN'
p191
S'B-PP'
p192
g4
tp193
a(S'erectile'
p194
S'erectile'
p195
S'JJ'
p196
S'B-NP'
p197
g4
tp198
a(S'function'
p199
S'function'
p200
S'NN'
p201
S'I-NP'
p202
g4
tp203
a(S'and'
p204
S'and'
p205
S'CC'
p206
g4
g4
tp207
a(S'health-related'
p208
S'health-related'
p209
S'JJ'
p210
S'B-NP'
p211
g4
tp212
a(S'quality'
p213
S'quality'
p214
S'NN'
p215
S'I-NP'
p216
g4
tp217
a(S'of'
p218
S'of'
p219
S'IN'
p220
S'B-PP'
p221
g4
tp222
a(S'life'
p223
S'life'
p224
S'NN'
p225
S'B-NP'
p226
g4
tp227
a(S'in'
p228
S'in'
p229
S'IN'
p230
S'B-PP'
p231
g4
tp232
a(S'men'
p233
S'man'
p234
S'NNS'
p235
S'B-NP'
p236
g4
tp237
a(S'aged'
p238
S'age'
p239
S'VBN'
p240
S'B-VP'
p241
g4
tp242
a(S'\xe2\x89\xa540'
p243
S'\xe2\x89\xa540'
p244
S'CD'
p245
S'B-NP'
p246
g4
tp247
a(S'years'
p248
S'year'
p249
S'NNS'
p250
S'I-NP'
p251
g4
tp252
a(S'with'
p253
S'with'
p254
S'IN'
p255
S'B-PP'
p256
g4
tp257
a(S'erectile'
p258
S'erectile'
p259
S'JJ'
p260
S'B-NP'
p261
g4
tp262
a(S'dysfunction'
p263
S'dysfunction'
p264
S'NN'
p265
S'I-NP'
p266
g4
tp267
a(g133
g133
g133
g4
g4
tp268
a(S'ED'
p269
S'ED'
p270
S'NN'
p271
S'B-NP'
p272
g4
tp273
a(g141
g141
g141
g4
g4
tp274
a(g91
g91
g91
g4
g4
tp275
a(S'PATIENTS'
p276
S'PATIENTS'
p277
S'NNS'
p278
S'B-NP'
p279
g4
tp280
a(S'AND'
p281
S'AND'
p282
S'CC'
p283
S'I-NP'
p284
g4
tp285
a(S'METHODS'
p286
S'METHODS'
p287
S'NNS'
p288
S'I-NP'
p289
g4
tp290
a(S'ED'
p291
S'ED'
p292
S'NN'
p293
S'I-NP'
p294
g4
tp295
a(S'is'
p296
S'be'
p297
S'VBZ'
p298
S'B-VP'
p299
g4
tp300
a(S'common'
p301
S'common'
p302
S'JJ'
p303
S'B-ADJP'
p304
g4
tp305
a(S'in'
p306
S'in'
p307
S'IN'
p308
S'B-PP'
p309
g4
tp310
a(S'men'
p311
S'man'
p312
S'NNS'
p313
S'B-NP'
p314
g4
tp315
a(S'aged'
p316
S'age'
p317
S'VBN'
p318
S'B-VP'
p319
g4
tp320
a(S'\xe2\x89\xa540'
p321
S'\xe2\x89\xa540'
p322
S'CD'
p323
S'B-NP'
p324
g4
tp325
a(S'years'
p326
S'year'
p327
S'NNS'
p328
S'I-NP'
p329
g4
tp330
a(S'and'
p331
S'and'
p332
S'CC'
p333
S'I-NP'
p334
g4
tp335
a(S'impacts'
p336
S'impact'
p337
S'NNS'
p338
S'I-NP'
p339
g4
tp340
a(S'upon'
p341
S'upon'
p342
S'IN'
p343
S'B-PP'
p344
g4
tp345
a(S'their'
p346
S'their'
p347
S'PRP$'
p348
S'B-NP'
p349
g4
tp350
a(S'overall'
p351
S'overall'
p352
S'JJ'
p353
S'I-NP'
p354
g4
tp355
a(S'health-related'
p356
S'health-related'
p357
S'JJ'
p358
S'I-NP'
p359
g4
tp360
a(S'quality'
p361
S'quality'
p362
S'NN'
p363
S'I-NP'
p364
g4
tp365
a(S'of'
p366
S'of'
p367
S'IN'
p368
S'B-PP'
p369
g4
tp370
a(S'life'
p371
S'life'
p372
S'NN'
p373
S'B-NP'
p374
g4
tp375
a(S'and'
p376
S'and'
p377
S'CC'
p378
g4
g4
tp379
a(S'that'
p380
S'that'
p381
S'DT'
p382
S'B-NP'
p383
g4
tp384
a(S'of'
p385
S'of'
p386
S'IN'
p387
S'B-PP'
p388
g4
tp389
a(S'their'
p390
S'their'
p391
S'PRP$'
p392
S'B-NP'
p393
g4
tp394
a(S'partners.'
p395
S'partners.'
p396
S'NN'
p397
S'I-NP'
p398
g4
tp399
a(S'Men'
p400
S'Men'
p401
S'NNP'
p402
S'I-NP'
p403
g4
tp404
a(S'aged'
p405
S'age'
p406
S'VBD'
p407
S'B-VP'
p408
g4
tp409
a(S'\xe2\x89\xa540'
p410
S'\xe2\x89\xa540'
p411
S'CD'
p412
S'B-NP'
p413
g4
tp414
a(S'years'
p415
S'year'
p416
S'NNS'
p417
S'I-NP'
p418
g4
tp419
a(S'who'
p420
S'who'
p421
S'WP'
p422
S'B-NP'
p423
g4
tp424
a(S'were'
p425
S'be'
p426
S'VBD'
p427
S'B-VP'
p428
g4
tp429
a(S'not'
p430
S'not'
p431
S'RB'
p432
S'I-VP'
p433
g4
tp434
a(S'receiving'
p435
S'receive'
p436
S'VBG'
p437
S'I-VP'
p438
g4
tp439
a(S'lipid'
p440
S'lipid'
p441
S'NN'
p442
S'B-NP'
p443
g4
tp444
a(S'lowering'
p445
S'lowering'
p446
S'NN'
p447
S'I-NP'
p448
g4
tp449
a(S'or'
p450
S'or'
p451
S'CC'
p452
g4
g4
tp453
a(S'anti-hypertensive'
p454
S'anti-hypertensive'
p455
S'JJ'
p456
S'B-NP'
p457
g4
tp458
a(S'medication'
p459
S'medication'
p460
S'NN'
p461
S'I-NP'
p462
g4
tp463
a(S'and'
p464
S'and'
p465
S'CC'
p466
S'B-PP'
p467
g4
tp468
a(S'not'
p469
S'not'
p470
S'RB'
p471
S'B-PP'
p472
g4
tp473
a(S'at'
p474
S'at'
p475
S'IN'
p476
S'I-PP'
p477
g4
tp478
a(S'high'
p479
S'high'
p480
S'JJ'
p481
S'B-NP'
p482
g4
tp483
a(S'cardiovascular'
p484
S'cardiovascular'
p485
S'JJ'
p486
S'I-NP'
p487
g4
tp488
a(S'risk'
p489
S'risk'
p490
S'NN'
p491
S'I-NP'
p492
g4
tp493
a(S'were'
p494
S'be'
p495
S'VBD'
p496
S'B-VP'
p497
g4
tp498
a(S'recruited'
p499
S'recruit'
p500
S'VBN'
p501
S'I-VP'
p502
g4
tp503
a(S'from'
p504
S'from'
p505
S'IN'
p506
S'B-PP'
p507
g4
tp508
a(S'10'
p509
S'10'
p510
S'CD'
p511
S'B-NP'
p512
g4
tp513
a(S'general'
p514
S'general'
p515
S'JJ'
p516
S'I-NP'
p517
g4
tp518
a(S'practices'
p519
S'practice'
p520
S'NNS'
p521
S'I-NP'
p522
g4
tp523
a(S'in'
p524
S'in'
p525
S'IN'
p526
S'B-PP'
p527
g4
tp528
a(S'the'
p529
S'the'
p530
S'DT'
p531
S'B-NP'
p532
g4
tp533
a(S'East'
p534
S'East'
p535
S'NNP'
p536
S'I-NP'
p537
g4
tp538
a(S'of'
p539
S'of'
p540
S'IN'
p541
S'B-PP'
p542
g4
tp543
a(S'England.'
p544
S'England.'
p545
S'NNP'
p546
S'B-NP'
p547
g4
tp548
a(S'In'
p549
S'In'
p550
S'NNP'
p551
S'I-NP'
p552
g4
tp553
a(S'total'
p554
S'total'
p555
S'NN'
p556
S'I-NP'
p557
g4
tp558
a(S','
p559
g559
g559
g4
g4
tp560
a(S'173'
p561
S'173'
p562
S'CD'
p563
S'B-NP'
p564
g4
tp565
a(S'eligible'
p566
S'eligible'
p567
S'JJ'
p568
S'I-NP'
p569
g4
tp570
a(S'men'
p571
S'man'
p572
S'NNS'
p573
S'I-NP'
p574
g4
tp575
a(S'with'
p576
S'with'
p577
S'IN'
p578
S'B-PP'
p579
g4
tp580
a(S'untreated'
p581
S'untreated'
p582
S'JJ'
p583
S'B-NP'
p584
g4
tp585
a(S'ED'
p586
S'ED'
p587
S'NN'
p588
S'I-NP'
p589
g4
tp590
a(S'were'
p591
S'be'
p592
S'VBD'
p593
S'B-VP'
p594
g4
tp595
a(S'randomized'
p596
S'randomize'
p597
S'VBN'
p598
S'I-VP'
p599
g4
tp600
a(S'to'
p601
S'to'
p602
S'TO'
p603
S'B-PP'
p604
g4
tp605
a(S'double-blind'
p606
S'double-blind'
p607
S'JJ'
p608
S'B-NP'
p609
g4
tp610
a(S'treatment'
p611
S'treatment'
p612
S'NN'
p613
S'I-NP'
p614
g4
tp615
a(S'with'
p616
S'with'
p617
S'IN'
p618
S'B-PP'
p619
g4
tp620
a(S'40'
p621
S'40'
p622
S'CD'
p623
S'B-NP'
p624
g4
tp625
a(S'mg'
p626
S'mg'
p627
S'NN'
p628
S'I-NP'
p629
g4
tp630
a(S'of'
p631
S'of'
p632
S'IN'
p633
S'B-PP'
p634
g4
tp635
a(S'simvastatin'
p636
S'simvastatin'
p637
S'NN'
p638
S'B-NP'
p639
g4
tp640
a(S'or'
p641
S'or'
p642
S'CC'
p643
S'I-NP'
p644
g4
tp645
a(S'placebo'
p646
S'placebo'
p647
S'NN'
p648
S'I-NP'
p649
g4
tp650
a(S'once'
p651
S'once'
p652
S'RB'
p653
S'B-ADVP'
p654
g4
tp655
a(S'daily'
p656
S'daily'
p657
S'RB'
p658
S'I-ADVP'
p659
g4
tp660
a(S'for'
p661
S'for'
p662
S'IN'
p663
S'B-PP'
p664
g4
tp665
a(S'6'
p666
g666
S'CD'
p667
S'B-NP'
p668
g4
tp669
a(S'months.'
p670
S'months.'
p671
S'NN'
p672
S'I-NP'
p673
g4
tp674
a(S'Data'
p675
S'Datum'
p676
S'NNS'
p677
S'I-NP'
p678
g4
tp679
a(S'were'
p680
S'be'
p681
S'VBD'
p682
S'B-VP'
p683
g4
tp684
a(S'collected'
p685
S'collect'
p686
S'VBN'
p687
S'I-VP'
p688
g4
tp689
a(S'at'
p690
S'at'
p691
S'IN'
p692
S'B-PP'
p693
g4
tp694
a(S'three'
p695
S'three'
p696
S'CD'
p697
S'B-NP'
p698
g4
tp699
a(S'points'
p700
S'point'
p701
S'NNS'
p702
S'I-NP'
p703
g4
tp704
a(S'over'
p705
S'over'
p706
S'IN'
p707
S'B-PP'
p708
g4
tp709
a(S'30'
p710
S'30'
p711
S'CD'
p712
S'B-NP'
p713
g4
tp714
a(S'weeks.'
p715
S'weeks.'
p716
S'NN'
p717
S'I-NP'
p718
g4
tp719
a(S'The'
p720
S'The'
p721
S'DT'
p722
S'B-NP'
p723
g4
tp724
a(S'main'
p725
S'main'
p726
S'JJ'
p727
S'I-NP'
p728
g4
tp729
a(S'outcome'
p730
S'outcome'
p731
S'NN'
p732
S'I-NP'
p733
g4
tp734
a(S'was'
p735
S'be'
p736
S'VBD'
p737
S'B-VP'
p738
g4
tp739
a(S'erectile'
p740
S'erectile'
p741
S'JJ'
p742
S'B-NP'
p743
g4
tp744
a(S'function'
p745
S'function'
p746
S'NN'
p747
S'I-NP'
p748
g4
tp749
a(g133
g133
g133
g4
g4
tp750
a(S'International'
p751
S'International'
p752
S'NNP'
p753
S'B-NP'
p754
g4
tp755
a(S'Index'
p756
S'Index'
p757
S'NNP'
p758
S'I-NP'
p759
g4
tp760
a(S'of'
p761
S'of'
p762
S'IN'
p763
S'B-PP'
p764
g4
tp765
a(S'Erectile'
p766
S'Erectile'
p767
S'NNP'
p768
S'B-NP'
p769
g4
tp770
a(S'Function-5'
p771
S'Function-5'
p772
S'NN'
p773
S'I-NP'
p774
g4
tp775
a(S'score'
p776
S'score'
p777
S'NN'
p778
S'I-NP'
p779
g4
tp780
a(g141
g141
g141
g4
g4
tp781
a(g91
g91
g91
g4
g4
tp782
a(S'Secondary'
p783
S'Secondary'
p784
S'JJ'
p785
S'B-NP'
p786
g4
tp787
a(S'outcomes'
p788
S'outcome'
p789
S'NNS'
p790
S'I-NP'
p791
g4
tp792
a(S'included'
p793
S'include'
p794
S'VBD'
p795
S'B-VP'
p796
g4
tp797
a(S'male'
p798
S'male'
p799
S'JJ'
p800
S'B-NP'
p801
g4
tp802
a(S'ED-specific'
p803
S'ED-specific'
p804
S'JJ'
p805
S'I-NP'
p806
g4
tp807
a(S'quality'
p808
S'quality'
p809
S'NN'
p810
S'I-NP'
p811
g4
tp812
a(S'of'
p813
S'of'
p814
S'IN'
p815
S'B-PP'
p816
g4
tp817
a(S'life'
p818
S'life'
p819
S'NN'
p820
S'B-NP'
p821
g4
tp822
a(g133
g133
g133
g4
g4
tp823
a(S'MED-QoL'
p824
S'MED-QoL'
p825
S'NN'
p826
S'B-NP'
p827
g4
tp828
a(g141
g141
g141
g4
g4
tp829
a(g559
g559
g559
g4
g4
tp830
a(S'quality-adjusted'
p831
S'quality-adjusted'
p832
S'JJ'
p833
S'B-NP'
p834
g4
tp835
a(S'life'
p836
S'life'
p837
S'NN'
p838
S'I-NP'
p839
g4
tp840
a(S'years'
p841
S'year'
p842
S'NNS'
p843
S'I-NP'
p844
g4
tp845
a(g133
g133
g133
g4
g4
tp846
a(S'QALYs'
p847
S'QALY'
p848
S'NNS'
p849
S'B-NP'
p850
g4
tp851
a(g141
g141
g141
g4
g4
tp852
a(S'using'
p853
S'use'
p854
S'VBG'
p855
S'B-VP'
p856
g4
tp857
a(S'the'
p858
S'the'
p859
S'DT'
p860
S'B-NP'
p861
g4
tp862
a(S'generic'
p863
S'generic'
p864
S'JJ'
p865
S'I-NP'
p866
g4
tp867
a(S'Euroqol'
p868
S'Euroqol'
p869
S'NN'
p870
S'I-NP'
p871
g4
tp872
a(S'measure'
p873
S'measure'
p874
S'NN'
p875
S'I-NP'
p876
g4
tp877
a(g133
g133
g133
g4
g4
tp878
a(S'EQ-5D'
p879
S'EQ-5D'
p880
S'NN'
p881
S'B-NP'
p882
g4
tp883
a(g141
g141
g141
g4
g4
tp884
a(g559
g559
g559
g4
g4
tp885
a(S'endothelial'
p886
S'endothelial'
p887
S'JJ'
p888
S'B-NP'
p889
g4
tp890
a(S'function'
p891
S'function'
p892
S'NN'
p893
S'I-NP'
p894
g4
tp895
a(g559
g559
g559
g4
g4
tp896
a(S'cardiovascular'
p897
S'cardiovascular'
p898
S'JJ'
p899
S'B-NP'
p900
g4
tp901
a(S'risk'
p902
S'risk'
p903
S'NN'
p904
S'I-NP'
p905
g4
tp906
a(g559
g559
g559
g4
g4
tp907
a(S'cholesterol'
p908
S'cholesterol'
p909
S'NN'
p910
S'B-NP'
p911
g4
tp912
a(S'and'
p913
S'and'
p914
S'CC'
p915
S'I-NP'
p916
g4
tp917
a(S'health'
p918
S'health'
p919
S'NN'
p920
S'I-NP'
p921
g4
tp922
a(S'service'
p923
S'service'
p924
S'NN'
p925
S'I-NP'
p926
g4
tp927
a(S'costs'
p928
S'cost'
p929
S'NNS'
p930
S'I-NP'
p931
g4
tp932
a(g91
g91
g91
g4
g4
tp933
a(S'RESULTS'
p934
S'RESULTS'
p935
S'NNS'
p936
S'B-NP'
p937
g4
tp938
a(S'There'
p939
S'There'
p940
S'EX'
p941
S'B-NP'
p942
g4
tp943
a(S'was'
p944
S'be'
p945
S'VBD'
p946
S'B-VP'
p947
g4
tp948
a(S'no'
p949
S'no'
p950
S'DT'
p951
S'B-NP'
p952
g4
tp953
a(S'significant'
p954
S'significant'
p955
S'JJ'
p956
S'I-NP'
p957
g4
tp958
a(S'difference'
p959
S'difference'
p960
S'NN'
p961
S'I-NP'
p962
g4
tp963
a(S'in'
p964
S'in'
p965
S'IN'
p966
S'B-PP'
p967
g4
tp968
a(S'erectile'
p969
S'erectile'
p970
S'JJ'
p971
S'B-NP'
p972
g4
tp973
a(S'function'
p974
S'function'
p975
S'NN'
p976
S'I-NP'
p977
g4
tp978
a(S'between'
p979
S'between'
p980
S'IN'
p981
S'B-PP'
p982
g4
tp983
a(S'the'
p984
S'the'
p985
S'DT'
p986
S'B-NP'
p987
g4
tp988
a(S'simvastatin'
p989
S'simvastatin'
p990
S'NN'
p991
S'I-NP'
p992
g4
tp993
a(S'and'
p994
S'and'
p995
S'CC'
p996
S'I-NP'
p997
g4
tp998
a(S'placebo'
p999
S'placebo'
p1000
S'NN'
p1001
S'I-NP'
p1002
g4
tp1003
a(S'groups'
p1004
S'group'
p1005
S'NNS'
p1006
S'I-NP'
p1007
g4
tp1008
a(g133
g133
g133
g4
g4
tp1009
a(S'mean'
p1010
S'mean'
p1011
S'JJ'
p1012
S'B-NP'
p1013
g4
tp1014
a(S'change'
p1015
S'change'
p1016
S'NN'
p1017
S'I-NP'
p1018
g4
tp1019
a(g559
g559
g559
g4
g4
tp1020
a(S'1.28'
p1021
S'1.28'
p1022
S'CD'
p1023
S'B-NP'
p1024
g4
tp1025
a(S'vs'
p1026
S'vs'
p1027
S'IN'
p1028
S'B-PP'
p1029
g4
tp1030
a(S'0.07'
p1031
S'0.07'
p1032
S'CD'
p1033
S'B-NP'
p1034
g4
tp1035
a(g559
g559
g559
g4
g4
tp1036
a(S'z'
p1037
g1037
S'NN'
p1038
S'B-NP'
p1039
S'B-protein'
p1040
tp1041
a(S'='
p1042
g1042
S'SYM'
p1043
S'B-VP'
p1044
S'I-protein'
p1045
tp1046
a(S'1.1'
p1047
S'1.1'
p1048
S'CD'
p1049
S'B-NP'
p1050
S'I-protein'
p1051
tp1052
a(g559
g559
g559
g4
g4
tp1053
a(S'p'
p1054
g1054
S'NN'
p1055
S'B-NP'
p1056
g4
tp1057
a(g1042
g1042
S'SYM'
p1058
S'B-VP'
p1059
g4
tp1060
a(S'0.27'
p1061
S'0.27'
p1062
S'CD'
p1063
S'B-NP'
p1064
g4
tp1065
a(g141
g141
g141
g4
g4
tp1066
a(g559
g559
g559
g4
g4
tp1067
a(S'although'
p1068
S'although'
p1069
S'IN'
p1070
S'B-SBAR'
p1071
g4
tp1072
a(S'a'
p1073
g1073
S'DT'
p1074
S'B-NP'
p1075
g4
tp1076
a(S'significant'
p1077
S'significant'
p1078
S'JJ'
p1079
S'I-NP'
p1080
g4
tp1081
a(S'improvement'
p1082
S'improvement'
p1083
S'NN'
p1084
S'I-NP'
p1085
g4
tp1086
a(S'in'
p1087
S'in'
p1088
S'IN'
p1089
S'B-PP'
p1090
g4
tp1091
a(S'MED-QoL'
p1092
S'MED-QoL'
p1093
S'NN'
p1094
S'B-NP'
p1095
g4
tp1096
a(S'was'
p1097
S'be'
p1098
S'VBD'
p1099
S'B-VP'
p1100
g4
tp1101
a(S'observed'
p1102
S'observe'
p1103
S'VBN'
p1104
S'I-VP'
p1105
g4
tp1106
a(g133
g133
g133
g4
g4
tp1107
a(S'5'
p1108
g1108
S'CD'
p1109
S'B-NP'
p1110
g4
tp1111
a(S'%'
p1112
g1112
S'NN'
p1113
S'I-NP'
p1114
g4
tp1115
a(S'vs'
p1116
S'vs'
p1117
S'IN'
p1118
S'B-PP'
p1119
g4
tp1120
a(S'2'
p1121
g1121
S'CD'
p1122
S'B-NP'
p1123
g4
tp1124
a(g1112
g1112
S'NN'
p1125
S'I-NP'
p1126
g4
tp1127
a(g559
g559
g559
g4
g4
tp1128
a(g1037
g1037
S'NN'
p1129
S'B-NP'
p1130
S'B-protein'
p1131
tp1132
a(g1042
g1042
S'SYM'
p1133
S'B-VP'
p1134
S'I-protein'
p1135
tp1136
a(S'2.09'
p1137
S'2.09'
p1138
S'CD'
p1139
S'B-NP'
p1140
S'I-protein'
p1141
tp1142
a(g559
g559
g559
g4
g4
tp1143
a(g1054
g1054
S'NN'
p1144
S'B-NP'
p1145
g4
tp1146
a(g1042
g1042
S'SYM'
p1147
S'B-VP'
p1148
g4
tp1149
a(S'0.04'
p1150
S'0.04'
p1151
S'CD'
p1152
S'B-NP'
p1153
g4
tp1154
a(g141
g141
g141
g4
g4
tp1155
a(g91
g91
g91
g4
g4
tp1156
a(S'Both'
p1157
S'Both'
p1158
S'CC'
p1159
g4
g4
tp1160
a(S'10-year'
p1161
S'10-year'
p1162
S'JJ'
p1163
S'B-NP'
p1164
g4
tp1165
a(S'cardiovascular'
p1166
S'cardiovascular'
p1167
S'JJ'
p1168
S'I-NP'
p1169
g4
tp1170
a(S'risk'
p1171
S'risk'
p1172
S'NN'
p1173
S'I-NP'
p1174
g4
tp1175
a(S'and'
p1176
S'and'
p1177
S'CC'
p1178
g4
g4
tp1179
a(S'low-density'
p1180
S'low-density'
p1181
S'JJ'
p1182
S'B-NP'
p1183
S'B-protein'
p1184
tp1185
a(S'lipoprotein'
p1186
S'lipoprotein'
p1187
S'NN'
p1188
S'I-NP'
p1189
S'I-protein'
p1190
tp1191
a(S'were'
p1192
S'be'
p1193
S'VBD'
p1194
S'B-VP'
p1195
g4
tp1196
a(S'reduced'
p1197
S'reduce'
p1198
S'VBN'
p1199
S'I-VP'
p1200
g4
tp1201
a(g133
g133
g133
g4
g4
tp1202
a(S'cardiovascular'
p1203
S'cardiovascular'
p1204
S'JJ'
p1205
S'B-NP'
p1206
g4
tp1207
a(S'risk'
p1208
S'risk'
p1209
S'NN'
p1210
S'I-NP'
p1211
g4
tp1212
a(g559
g559
g559
g4
g4
tp1213
a(g1037
g1037
S'NN'
p1214
S'B-NP'
p1215
S'B-protein'
p1216
tp1217
a(g1042
g1042
S'SYM'
p1218
S'B-VP'
p1219
S'I-protein'
p1220
tp1221
a(S'-3.67'
p1222
S'-3.67'
p1223
S'CD'
p1224
S'B-NP'
p1225
S'I-protein'
p1226
tp1227
a(g559
g559
g559
g4
g4
tp1228
a(g1054
g1054
S'NN'
p1229
S'B-NP'
p1230
g4
tp1231
a(S'<'
p1232
g1232
S'SYM'
p1233
g4
g4
tp1234
a(S'0.001'
p1235
S'0.001'
p1236
S'CD'
p1237
S'B-NP'
p1238
g4
tp1239
a(S';'
p1240
g1240
S':'
p1241
g4
g4
tp1242
a(S'low-density'
p1243
S'low-density'
p1244
S'NN'
p1245
S'B-NP'
p1246
S'B-protein'
p1247
tp1248
a(S'lipoprotein'
p1249
S'lipoprotein'
p1250
S'NN'
p1251
S'I-NP'
p1252
S'I-protein'
p1253
tp1254
a(g559
g559
g559
g4
g4
tp1255
a(g1037
g1037
S'NN'
p1256
S'B-NP'
p1257
S'B-protein'
p1258
tp1259
a(g1042
g1042
S'SYM'
p1260
S'B-VP'
p1261
g4
tp1262
a(S'-5.46'
p1263
S'-5.46'
p1264
S'CD'
p1265
S'B-NP'
p1266
g4
tp1267
a(g559
g559
g559
g4
g4
tp1268
a(g1054
g1054
S'NN'
p1269
S'B-NP'
p1270
g4
tp1271
a(g1232
g1232
S'SYM'
p1272
S'B-NP'
p1273
g4
tp1274
a(S'0.001'
p1275
S'0.001'
p1276
S'CD'
p1277
S'I-NP'
p1278
g4
tp1279
a(g141
g141
g141
g4
g4
tp1280
a(g559
g559
g559
g4
g4
tp1281
a(S'with'
p1282
S'with'
p1283
S'IN'
p1284
S'B-PP'
p1285
g4
tp1286
a(S'no'
p1287
S'no'
p1288
S'DT'
p1289
S'B-NP'
p1290
g4
tp1291
a(S'consistent'
p1292
S'consistent'
p1293
S'JJ'
p1294
S'I-NP'
p1295
g4
tp1296
a(S'change'
p1297
S'change'
p1298
S'NN'
p1299
S'I-NP'
p1300
g4
tp1301
a(S'in'
p1302
S'in'
p1303
S'IN'
p1304
S'B-PP'
p1305
g4
tp1306
a(S'endothelial'
p1307
S'endothelial'
p1308
S'JJ'
p1309
S'B-NP'
p1310
g4
tp1311
a(S'function.'
p1312
S'function.'
p1313
S'NN'
p1314
S'I-NP'
p1315
g4
tp1316
a(S'The'
p1317
S'The'
p1318
S'DT'
p1319
S'B-NP'
p1320
g4
tp1321
a(S'frequency'
p1322
S'frequency'
p1323
S'NN'
p1324
S'I-NP'
p1325
g4
tp1326
a(S'of'
p1327
S'of'
p1328
S'IN'
p1329
S'B-PP'
p1330
g4
tp1331
a(S'sexual'
p1332
S'sexual'
p1333
S'JJ'
p1334
S'B-NP'
p1335
g4
tp1336
a(S'encounters'
p1337
S'encounter'
p1338
S'NNS'
p1339
S'I-NP'
p1340
g4
tp1341
a(S'is'
p1342
S'be'
p1343
S'VBZ'
p1344
S'B-VP'
p1345
g4
tp1346
a(S'correlated'
p1347
S'correlate'
p1348
S'VBN'
p1349
S'I-VP'
p1350
g4
tp1351
a(S'with'
p1352
S'with'
p1353
S'IN'
p1354
S'B-PP'
p1355
g4
tp1356
a(S'improved'
p1357
S'improve'
p1358
S'VBN'
p1359
S'B-NP'
p1360
g4
tp1361
a(S'erectile'
p1362
S'erectile'
p1363
S'JJ'
p1364
S'I-NP'
p1365
g4
tp1366
a(S'function.'
p1367
S'function.'
p1368
S'NN'
p1369
S'I-NP'
p1370
g4
tp1371
a(S'The'
p1372
S'The'
p1373
S'DT'
p1374
S'B-NP'
p1375
g4
tp1376
a(S'joint'
p1377
S'joint'
p1378
S'JJ'
p1379
S'I-NP'
p1380
g4
tp1381
a(S'distribution'
p1382
S'distribution'
p1383
S'NN'
p1384
S'I-NP'
p1385
g4
tp1386
a(S'of'
p1387
S'of'
p1388
S'IN'
p1389
S'B-PP'
p1390
g4
tp1391
a(S'costs'
p1392
S'cost'
p1393
S'NNS'
p1394
S'B-NP'
p1395
g4
tp1396
a(S'and'
p1397
S'and'
p1398
S'CC'
p1399
g4
g4
tp1400
a(S'QALY'
p1401
S'QALY'
p1402
S'NNP'
p1403
S'B-NP'
p1404
g4
tp1405
a(S'benefits'
p1406
S'benefit'
p1407
S'NNS'
p1408
S'I-NP'
p1409
g4
tp1410
a(S'indicates'
p1411
S'indicate'
p1412
S'VBZ'
p1413
S'B-VP'
p1414
g4
tp1415
a(S'that'
p1416
S'that'
p1417
S'IN'
p1418
S'B-SBAR'
p1419
g4
tp1420
a(S'the'
p1421
S'the'
p1422
S'DT'
p1423
S'B-NP'
p1424
g4
tp1425
a(S'probability'
p1426
S'probability'
p1427
S'NN'
p1428
S'I-NP'
p1429
g4
tp1430
a(S'of'
p1431
S'of'
p1432
S'IN'
p1433
S'B-PP'
p1434
g4
tp1435
a(S'simvastatin'
p1436
S'simvastatin'
p1437
S'NN'
p1438
S'B-NP'
p1439
g4
tp1440
a(S'being'
p1441
S'be'
p1442
S'VBG'
p1443
S'B-VP'
p1444
g4
tp1445
a(S'cost-effective'
p1446
S'cost-effective'
p1447
S'JJ'
p1448
S'B-ADJP'
p1449
g4
tp1450
a(S'for'
p1451
S'for'
p1452
S'IN'
p1453
S'B-PP'
p1454
g4
tp1455
a(S'willingness-to-pay'
p1456
S'willingness-to-pay'
p1457
S'JJ'
p1458
S'B-NP'
p1459
g4
tp1460
a(S'thresholds'
p1461
S'threshold'
p1462
S'NNS'
p1463
S'I-NP'
p1464
g4
tp1465
a(S'of'
p1466
S'of'
p1467
S'IN'
p1468
S'B-PP'
p1469
g4
tp1470
a(S'\xc2\xa320'
p1471
S'\xc2\xa320'
p1472
S'CD'
p1473
S'B-NP'
p1474
g4
tp1475
a(g559
g559
g559
S'I-NP'
p1476
g4
tp1477
a(S'000'
p1478
S'000'
p1479
S'CD'
p1480
S'I-NP'
p1481
g4
tp1482
a(S'and'
p1483
S'and'
p1484
S'CC'
p1485
S'I-NP'
p1486
g4
tp1487
a(S'\xc2\xa330'
p1488
S'\xc2\xa330'
p1489
S'CD'
p1490
S'I-NP'
p1491
g4
tp1492
a(g559
g559
g559
S'I-NP'
p1493
g4
tp1494
a(S'000'
p1495
S'000'
p1496
S'CD'
p1497
S'I-NP'
p1498
g4
tp1499
a(S'is'
p1500
S'be'
p1501
S'VBZ'
p1502
S'B-VP'
p1503
g4
tp1504
a(S'86'
p1505
S'86'
p1506
S'CD'
p1507
S'B-NP'
p1508
g4
tp1509
a(g1112
g1112
S'NN'
p1510
S'I-NP'
p1511
g4
tp1512
a(S'and'
p1513
S'and'
p1514
S'CC'
p1515
g4
g4
tp1516
a(S'83'
p1517
S'83'
p1518
S'CD'
p1519
S'B-NP'
p1520
g4
tp1521
a(g1112
g1112
S'NN'
p1522
S'I-NP'
p1523
g4
tp1524
a(g559
g559
g559
g4
g4
tp1525
a(S'respectively'
p1526
S'respectively'
p1527
S'RB'
p1528
S'B-ADVP'
p1529
g4
tp1530
a(g91
g91
g91
g4
g4
tp1531
a(S'CONCLUSIONS'
p1532
S'CONCLUSIONS'
p1533
S'NNS'
p1534
S'B-NP'
p1535
g4
tp1536
a(S'Identifying'
p1537
S'Identify'
p1538
S'VBG'
p1539
S'B-VP'
p1540
g4
tp1541
a(S'men'
p1542
S'man'
p1543
S'NNS'
p1544
S'B-NP'
p1545
g4
tp1546
a(S'with'
p1547
S'with'
p1548
S'IN'
p1549
S'B-PP'
p1550
g4
tp1551
a(S'ED'
p1552
S'ED'
p1553
S'NN'
p1554
S'B-NP'
p1555
g4
tp1556
a(S'provides'
p1557
S'provide'
p1558
S'VBZ'
p1559
S'B-VP'
p1560
g4
tp1561
a(S'an'
p1562
S'an'
p1563
S'DT'
p1564
S'B-NP'
p1565
g4
tp1566
a(S'opportunity'
p1567
S'opportunity'
p1568
S'NN'
p1569
S'I-NP'
p1570
g4
tp1571
a(S'to'
p1572
S'to'
p1573
S'TO'
p1574
S'B-VP'
p1575
g4
tp1576
a(S'modify'
p1577
S'modify'
p1578
S'VB'
p1579
S'I-VP'
p1580
g4
tp1581
a(S'future'
p1582
S'future'
p1583
S'JJ'
p1584
S'B-NP'
p1585
g4
tp1586
a(S'cardiovascular'
p1587
S'cardiovascular'
p1588
S'JJ'
p1589
S'I-NP'
p1590
g4
tp1591
a(S'risk'
p1592
S'risk'
p1593
S'NN'
p1594
S'I-NP'
p1595
g4
tp1596
a(S'and'
p1597
S'and'
p1598
S'CC'
p1599
g4
g4
tp1600
a(S'to'
p1601
S'to'
p1602
S'TO'
p1603
S'B-VP'
p1604
g4
tp1605
a(S'improve'
p1606
S'improve'
p1607
S'VB'
p1608
S'I-VP'
p1609
g4
tp1610
a(S'MED-QoL'
p1611
S'MED-QoL'
p1612
S'NN'
p1613
S'B-NP'
p1614
g4
tp1615
a(S'by'
p1616
S'by'
p1617
S'IN'
p1618
S'B-PP'
p1619
g4
tp1620
a(S'treating'
p1621
S'treat'
p1622
S'VBG'
p1623
S'B-VP'
p1624
g4
tp1625
a(S'them'
p1626
S'them'
p1627
S'PRP'
p1628
S'B-NP'
p1629
g4
tp1630
a(S'with'
p1631
S'with'
p1632
S'IN'
p1633
S'B-PP'
p1634
g4
tp1635
a(S'40'
p1636
S'40'
p1637
S'CD'
p1638
S'B-NP'
p1639
g4
tp1640
a(S'mg'
p1641
S'mg'
p1642
S'NN'
p1643
S'I-NP'
p1644
g4
tp1645
a(S'of'
p1646
S'of'
p1647
S'IN'
p1648
S'B-PP'
p1649
g4
tp1650
a(S'simvastatin.'
p1651
S'simvastatin.'
p1652
S'NN'
p1653
S'B-NP'
p1654
g4
tp1655
a(S'The'
p1656
S'The'
p1657
S'DT'
p1658
S'B-NP'
p1659
g4
tp1660
a(S'joint'
p1661
S'joint'
p1662
S'JJ'
p1663
S'I-NP'
p1664
g4
tp1665
a(S'analysis'
p1666
S'analysis'
p1667
S'NN'
p1668
S'I-NP'
p1669
g4
tp1670
a(S'of'
p1671
S'of'
p1672
S'IN'
p1673
S'B-PP'
p1674
g4
tp1675
a(S'costs'
p1676
S'cost'
p1677
S'NNS'
p1678
S'B-NP'
p1679
g4
tp1680
a(S'and'
p1681
S'and'
p1682
S'CC'
p1683
g4
g4
tp1684
a(S'QALY'
p1685
S'QALY'
p1686
S'NNP'
p1687
S'B-NP'
p1688
g4
tp1689
a(S'benefits'
p1690
S'benefit'
p1691
S'NNS'
p1692
S'I-NP'
p1693
g4
tp1694
a(S'suggests'
p1695
S'suggest'
p1696
S'VBZ'
p1697
S'B-VP'
p1698
g4
tp1699
a(S'that'
p1700
S'that'
p1701
S'IN'
p1702
S'B-SBAR'
p1703
g4
tp1704
a(S'there'
p1705
S'there'
p1706
S'EX'
p1707
S'B-NP'
p1708
g4
tp1709
a(S'is'
p1710
S'be'
p1711
S'VBZ'
p1712
S'B-VP'
p1713
g4
tp1714
a(S'high'
p1715
S'high'
p1716
S'JJ'
p1717
S'B-NP'
p1718
g4
tp1719
a(S'probability'
p1720
S'probability'
p1721
S'NN'
p1722
S'I-NP'
p1723
g4
tp1724
a(S'that'
p1725
S'that'
p1726
S'IN'
p1727
S'B-SBAR'
p1728
g4
tp1729
a(S'simvastatin'
p1730
S'simvastatin'
p1731
S'NN'
p1732
S'B-NP'
p1733
S'B-protein'
p1734
tp1735
a(S'is'
p1736
S'be'
p1737
S'VBZ'
p1738
S'B-VP'
p1739
g4
tp1740
a(g1073
g1073
S'DT'
p1741
S'B-NP'
p1742
g4
tp1743
a(S'cost-effective'
p1744
S'cost-effective'
p1745
S'JJ'
p1746
S'I-NP'
p1747
g4
tp1748
a(S'strategy'
p1749
S'strategy'
p1750
S'NN'
p1751
S'I-NP'
p1752
g4
tp1753
a(S'in'
p1754
S'in'
p1755
S'IN'
p1756
S'B-PP'
p1757
g4
tp1758
a(S'men'
p1759
S'man'
p1760
S'NNS'
p1761
S'B-NP'
p1762
g4
tp1763
a(S'with'
p1764
S'with'
p1765
S'IN'
p1766
S'B-PP'
p1767
g4
tp1768
a(S'ED.'
p1769
S'ED.'
p1770
S'NNP'
p1771
S'B-NP'
p1772
g4
tp1773
a(S'The'
p1774
S'The'
p1775
S'DT'
p1776
S'B-NP'
p1777
g4
tp1778
a(S'findings'
p1779
S'finding'
p1780
S'NNS'
p1781
S'I-NP'
p1782
g4
tp1783
a(S'could'
p1784
S'could'
p1785
S'MD'
p1786
S'B-VP'
p1787
g4
tp1788
a(S'influence'
p1789
S'influence'
p1790
S'VB'
p1791
S'I-VP'
p1792
g4
tp1793
a(S'urological'
p1794
S'urological'
p1795
S'JJ'
p1796
S'B-NP'
p1797
g4
tp1798
a(S'and'
p1799
S'and'
p1800
S'CC'
p1801
S'I-NP'
p1802
g4
tp1803
a(S'primary'
p1804
S'primary'
p1805
S'JJ'
p1806
S'I-NP'
p1807
g4
tp1808
a(S'care'
p1809
S'care'
p1810
S'NN'
p1811
S'I-NP'
p1812
g4
tp1813
a(S'practice'
p1814
S'practice'
p1815
S'NN'
p1816
S'I-NP'
p1817
g4
tp1818
a(S'by'
p1819
S'by'
p1820
S'IN'
p1821
S'B-PP'
p1822
g4
tp1823
a(S'including'
p1824
S'include'
p1825
S'VBG'
p1826
S'B-VP'
p1827
g4
tp1828
a(S'questions'
p1829
S'question'
p1830
S'NNS'
p1831
S'B-NP'
p1832
g4
tp1833
a(S'on'
p1834
S'on'
p1835
S'IN'
p1836
S'B-PP'
p1837
g4
tp1838
a(S'ED'
p1839
S'ED'
p1840
S'NN'
p1841
S'B-NP'
p1842
g4
tp1843
a(S'during'
p1844
S'during'
p1845
S'IN'
p1846
S'B-PP'
p1847
g4
tp1848
a(S'routine'
p1849
S'routine'
p1850
S'JJ'
p1851
S'B-NP'
p1852
g4
tp1853
a(S'consultations'
p1854
S'consultation'
p1855
S'NNS'
p1856
S'I-NP'
p1857
g4
tp1858
a(S'and'
p1859
S'and'
p1860
S'CC'
p1861
g4
g4
tp1862
a(S'relevant'
p1863
S'relevant'
p1864
S'JJ'
p1865
S'B-NP'
p1866
g4
tp1867
a(S'clinical'
p1868
S'clinical'
p1869
S'JJ'
p1870
S'I-NP'
p1871
g4
tp1872
a(S'protocols.'
p1873
S'protocols.'
p1874
S'NN'
p1875
S'I-NP'
p1876
g4
tp1877
a(S'This'
p1878
S'This'
p1879
S'DT'
p1880
S'B-NP'
p1881
g4
tp1882
a(S'provides'
p1883
S'provide'
p1884
S'VBZ'
p1885
S'B-VP'
p1886
g4
tp1887
a(S'an'
p1888
S'an'
p1889
S'DT'
p1890
S'B-NP'
p1891
g4
tp1892
a(S'opportunity'
p1893
S'opportunity'
p1894
S'NN'
p1895
S'I-NP'
p1896
g4
tp1897
a(S'to'
p1898
S'to'
p1899
S'TO'
p1900
S'B-VP'
p1901
g4
tp1902
a(S'impart'
p1903
S'impart'
p1904
S'VB'
p1905
S'I-VP'
p1906
g4
tp1907
a(S'lifestyle'
p1908
S'lifestyle'
p1909
S'NN'
p1910
S'B-NP'
p1911
g4
tp1912
a(S'advice'
p1913
S'advice'
p1914
S'NN'
p1915
S'I-NP'
p1916
g4
tp1917
a(g91
g91
g91
g4
g4
tp1918
a.