(lp0
(S'Efficacy'
p1
S'Efficacy'
p2
S'NN'
p3
S'B-NP'
p4
S'O'
p5
tp6
a(S'of'
p7
S'of'
p8
S'IN'
p9
S'B-PP'
p10
g5
tp11
a(S'fimasartan/hydrochlorothiazide'
p12
S'fimasartan/hydrochlorothiazide'
p13
S'NN'
p14
S'B-NP'
p15
g5
tp16
a(S'combination'
p17
S'combination'
p18
S'NN'
p19
S'I-NP'
p20
g5
tp21
a(S'in'
p22
S'in'
p23
S'IN'
p24
S'B-PP'
p25
g5
tp26
a(S'hypertensive'
p27
S'hypertensive'
p28
S'JJ'
p29
S'B-NP'
p30
g5
tp31
a(S'patients'
p32
S'patient'
p33
S'NNS'
p34
S'I-NP'
p35
g5
tp36
a(S'inadequately'
p37
S'inadequately'
p38
S'RB'
p39
S'B-VP'
p40
g5
tp41
a(S'controlled'
p42
S'control'
p43
S'VBN'
p44
S'I-VP'
p45
g5
tp46
a(S'by'
p47
S'by'
p48
S'IN'
p49
S'B-PP'
p50
g5
tp51
a(S'fimasartan'
p52
S'fimasartan'
p53
S'NN'
p54
S'B-NP'
p55
g5
tp56
a(S'monotherapy'
p57
S'monotherapy'
p58
S'NN'
p59
S'I-NP'
p60
g5
tp61
a(S'.'
p62
g62
g62
g5
g5
tp63
a(S'BACKGROUND'
p64
S'BACKGROUND'
p65
S'NN'
p66
S'B-NP'
p67
g5
tp68
a(S'The'
p69
S'The'
p70
S'DT'
p71
S'B-NP'
p72
g5
tp73
a(S'study'
p74
S'study'
p75
S'NN'
p76
S'I-NP'
p77
g5
tp78
a(S'reported'
p79
S'report'
p80
S'VBN'
p81
S'B-VP'
p82
g5
tp83
a(S'here'
p84
S'here'
p85
S'RB'
p86
S'B-ADVP'
p87
g5
tp88
a(S'compared'
p89
S'compare'
p90
S'VBD'
p91
S'B-VP'
p92
g5
tp93
a(S'the'
p94
S'the'
p95
S'DT'
p96
S'B-NP'
p97
g5
tp98
a(S'blood'
p99
S'blood'
p100
S'NN'
p101
S'I-NP'
p102
g5
tp103
a(S'pressure'
p104
S'pressure'
p105
S'NN'
p106
S'I-NP'
p107
g5
tp108
a(S'('
p109
g109
g109
g5
g5
tp110
a(S'BP'
p111
S'BP'
p112
S'NN'
p113
S'B-NP'
p114
g5
tp115
a(S')'
p116
g116
g116
g5
g5
tp117
a(S'-lowering'
p118
S'-lowering'
p119
S'JJ'
p120
S'B-NP'
p121
g5
tp122
a(S'efficacy'
p123
S'efficacy'
p124
S'NN'
p125
S'I-NP'
p126
g5
tp127
a(S'of'
p128
S'of'
p129
S'IN'
p130
S'B-PP'
p131
g5
tp132
a(S'fimasartan'
p133
S'fimasartan'
p134
S'NN'
p135
S'B-NP'
p136
g5
tp137
a(S'alone'
p138
S'alone'
p139
S'RB'
p140
S'B-ADVP'
p141
g5
tp142
a(S'with'
p143
S'with'
p144
S'IN'
p145
S'B-PP'
p146
g5
tp147
a(S'that'
p148
S'that'
p149
S'DT'
p150
S'B-NP'
p151
g5
tp152
a(S'of'
p153
S'of'
p154
S'IN'
p155
S'B-PP'
p156
g5
tp157
a(S'fimasartan/hydrochlorothiazide'
p158
S'fimasartan/hydrochlorothiazide'
p159
S'NN'
p160
S'B-NP'
p161
g5
tp162
a(g109
g109
g109
g5
g5
tp163
a(S'HCTZ'
p164
S'HCTZ'
p165
S'NN'
p166
S'B-NP'
p167
S'B-protein'
p168
tp169
a(g116
g116
g116
g5
g5
tp170
a(S'combination'
p171
S'combination'
p172
S'NN'
p173
S'B-NP'
p174
g5
tp175
a(S'in'
p176
S'in'
p177
S'IN'
p178
S'B-PP'
p179
g5
tp180
a(S'patients'
p181
S'patient'
p182
S'NNS'
p183
S'B-NP'
p184
g5
tp185
a(S'whose'
p186
S'whose'
p187
S'WP$'
p188
S'B-NP'
p189
g5
tp190
a(S'BP'
p191
S'BP'
p192
S'NN'
p193
S'I-NP'
p194
g5
tp195
a(S'goal'
p196
S'goal'
p197
S'NN'
p198
S'I-NP'
p199
g5
tp200
a(S'was'
p201
S'be'
p202
S'VBD'
p203
S'B-VP'
p204
g5
tp205
a(S'not'
p206
S'not'
p207
S'RB'
p208
S'I-VP'
p209
g5
tp210
a(S'achieved'
p211
S'achieve'
p212
S'VBN'
p213
S'I-VP'
p214
g5
tp215
a(S'after'
p216
S'after'
p217
S'IN'
p218
S'B-PP'
p219
g5
tp220
a(S'4'
p221
g221
S'CD'
p222
S'B-NP'
p223
g5
tp224
a(S'weeks'
p225
S'week'
p226
S'NNS'
p227
S'I-NP'
p228
g5
tp229
a(S'of'
p230
S'of'
p231
S'IN'
p232
S'B-PP'
p233
g5
tp234
a(S'treatment'
p235
S'treatment'
p236
S'NN'
p237
S'B-NP'
p238
g5
tp239
a(S'with'
p240
S'with'
p241
S'IN'
p242
S'B-PP'
p243
g5
tp244
a(S'once-daily'
p245
S'once-daily'
p246
S'JJ'
p247
S'B-NP'
p248
g5
tp249
a(S'fimasartan'
p250
S'fimasartan'
p251
S'NN'
p252
S'I-NP'
p253
g5
tp254
a(S'60'
p255
S'60'
p256
S'CD'
p257
S'I-NP'
p258
g5
tp259
a(S'mg'
p260
S'mg'
p261
S'NN'
p262
S'I-NP'
p263
g5
tp264
a(g62
g62
g62
g5
g5
tp265
a(S'METHODS'
p266
S'METHODS'
p267
S'NNS'
p268
S'B-NP'
p269
g5
tp270
a(S'Patients'
p271
S'Patient'
p272
S'NNS'
p273
S'I-NP'
p274
g5
tp275
a(S'with'
p276
S'with'
p277
S'IN'
p278
S'B-PP'
p279
g5
tp280
a(S'sitting'
p281
S'sit'
p282
S'VBG'
p283
S'B-VP'
p284
g5
tp285
a(S'diastolic'
p286
S'diastolic'
p287
S'JJ'
p288
S'B-NP'
p289
g5
tp290
a(S'blood'
p291
S'blood'
p292
S'NN'
p293
S'I-NP'
p294
g5
tp295
a(S'pressure'
p296
S'pressure'
p297
S'NN'
p298
S'I-NP'
p299
g5
tp300
a(g109
g109
g109
g5
g5
tp301
a(S'siDBP'
p302
S'siDBP'
p303
S'NN'
p304
S'B-NP'
p305
g5
tp306
a(g116
g116
g116
g5
g5
tp307
a(S'\xe2\x89\xa590'
p308
S'\xe2\x89\xa590'
p309
S'CD'
p310
S'B-NP'
p311
g5
tp312
a(S'mmHg'
p313
S'mmHg'
p314
S'NN'
p315
S'I-NP'
p316
g5
tp317
a(S'with'
p318
S'with'
p319
S'IN'
p320
S'B-PP'
p321
g5
tp322
a(g221
g221
S'CD'
p323
S'B-NP'
p324
g5
tp325
a(S'weeks'
p326
S'week'
p327
S'NNS'
p328
S'I-NP'
p329
g5
tp330
a(S'of'
p331
S'of'
p332
S'IN'
p333
S'B-PP'
p334
g5
tp335
a(S'once-daily'
p336
S'once-daily'
p337
S'JJ'
p338
S'B-NP'
p339
g5
tp340
a(S'fimasartan'
p341
S'fimasartan'
p342
S'NN'
p343
S'I-NP'
p344
g5
tp345
a(S'60'
p346
S'60'
p347
S'CD'
p348
S'I-NP'
p349
g5
tp350
a(S'mg'
p351
S'mg'
p352
S'NN'
p353
S'I-NP'
p354
g5
tp355
a(S'were'
p356
S'be'
p357
S'VBD'
p358
S'B-VP'
p359
g5
tp360
a(S'randomly'
p361
S'randomly'
p362
S'RB'
p363
S'I-VP'
p364
g5
tp365
a(S'assigned'
p366
S'assign'
p367
S'VBN'
p368
S'I-VP'
p369
g5
tp370
a(S'to'
p371
S'to'
p372
S'TO'
p373
S'I-VP'
p374
g5
tp375
a(S'receive'
p376
S'receive'
p377
S'VB'
p378
S'I-VP'
p379
g5
tp380
a(S'either'
p381
S'either'
p382
S'CC'
p383
g5
g5
tp384
a(S'once-daily'
p385
S'once-daily'
p386
S'JJ'
p387
S'B-NP'
p388
g5
tp389
a(S'fimasartan'
p390
S'fimasartan'
p391
S'NN'
p392
S'I-NP'
p393
g5
tp394
a(S'60'
p395
S'60'
p396
S'CD'
p397
S'B-NP'
p398
g5
tp399
a(S'mg/HCTZ'
p400
S'mg/HCTZ'
p401
S'NN'
p402
S'I-NP'
p403
g5
tp404
a(S'12.5'
p405
S'12.5'
p406
S'CD'
p407
S'B-NP'
p408
g5
tp409
a(S'mg'
p410
S'mg'
p411
S'NN'
p412
S'I-NP'
p413
g5
tp414
a(S'or'
p415
S'or'
p416
S'CC'
p417
g5
g5
tp418
a(S'fimasartan'
p419
S'fimasartan'
p420
S'NN'
p421
S'B-NP'
p422
g5
tp423
a(S'60'
p424
S'60'
p425
S'CD'
p426
S'B-NP'
p427
g5
tp428
a(S'mg'
p429
S'mg'
p430
S'NN'
p431
S'I-NP'
p432
g5
tp433
a(S'for'
p434
S'for'
p435
S'IN'
p436
S'B-PP'
p437
g5
tp438
a(g221
g221
S'CD'
p439
S'B-NP'
p440
g5
tp441
a(S'weeks.'
p442
S'weeks.'
p443
S'NN'
p444
S'I-NP'
p445
g5
tp446
a(S'After'
p447
S'After'
p448
S'IN'
p449
S'B-PP'
p450
g5
tp451
a(g221
g221
S'CD'
p452
S'B-NP'
p453
g5
tp454
a(S'weeks'
p455
S'week'
p456
S'NNS'
p457
S'I-NP'
p458
g5
tp459
a(S','
p460
g460
g460
g5
g5
tp461
a(S'the'
p462
S'the'
p463
S'DT'
p464
S'B-NP'
p465
g5
tp466
a(S'dose'
p467
S'dose'
p468
S'NN'
p469
S'I-NP'
p470
g5
tp471
a(S'was'
p472
S'be'
p473
S'VBD'
p474
S'B-VP'
p475
g5
tp476
a(S'increased'
p477
S'increase'
p478
S'VBN'
p479
S'I-VP'
p480
g5
tp481
a(S'from'
p482
S'from'
p483
S'IN'
p484
S'B-PP'
p485
g5
tp486
a(S'fimasartan'
p487
S'fimasartan'
p488
S'NN'
p489
S'B-NP'
p490
g5
tp491
a(S'60'
p492
S'60'
p493
S'CD'
p494
S'I-NP'
p495
g5
tp496
a(S'mg/HCTZ'
p497
S'mg/HCTZ'
p498
S'NN'
p499
S'I-NP'
p500
g5
tp501
a(S'12.5'
p502
S'12.5'
p503
S'CD'
p504
S'B-NP'
p505
g5
tp506
a(S'mg'
p507
S'mg'
p508
S'NN'
p509
S'I-NP'
p510
g5
tp511
a(S'to'
p512
S'to'
p513
S'TO'
p514
S'B-VP'
p515
g5
tp516
a(S'fimasartan'
p517
S'fimasartan'
p518
S'VB'
p519
S'I-VP'
p520
g5
tp521
a(S'120'
p522
S'120'
p523
S'CD'
p524
S'B-NP'
p525
g5
tp526
a(S'mg/HCTZ'
p527
S'mg/HCTZ'
p528
S'NN'
p529
S'I-NP'
p530
g5
tp531
a(S'12.5'
p532
S'12.5'
p533
S'CD'
p534
S'B-NP'
p535
g5
tp536
a(S'mg'
p537
S'mg'
p538
S'NN'
p539
S'I-NP'
p540
g5
tp541
a(S'or'
p542
S'or'
p543
S'CC'
p544
S'B-PP'
p545
g5
tp546
a(S'from'
p547
S'from'
p548
S'IN'
p549
S'B-PP'
p550
g5
tp551
a(S'fimasartan'
p552
S'fimasartan'
p553
S'NN'
p554
S'B-NP'
p555
g5
tp556
a(S'60'
p557
S'60'
p558
S'CD'
p559
S'I-NP'
p560
g5
tp561
a(S'mg'
p562
S'mg'
p563
S'NN'
p564
S'I-NP'
p565
g5
tp566
a(S'to'
p567
S'to'
p568
S'TO'
p569
S'B-VP'
p570
g5
tp571
a(S'fimasartan'
p572
S'fimasartan'
p573
S'VB'
p574
S'I-VP'
p575
g5
tp576
a(S'120'
p577
S'120'
p578
S'CD'
p579
S'B-NP'
p580
g5
tp581
a(S'mg'
p582
S'mg'
p583
S'NN'
p584
S'I-NP'
p585
g5
tp586
a(S'if'
p587
S'if'
p588
S'IN'
p589
S'B-SBAR'
p590
g5
tp591
a(S'siDBP'
p592
S'siDBP'
p593
S'NN'
p594
S'B-NP'
p595
g5
tp596
a(S'was'
p597
S'be'
p598
S'VBD'
p599
S'B-VP'
p600
g5
tp601
a(S'\xe2\x89\xa590'
p602
S'\xe2\x89\xa590'
p603
S'CD'
p604
S'B-NP'
p605
g5
tp606
a(S'mmHg'
p607
S'mmHg'
p608
S'NN'
p609
S'I-NP'
p610
g5
tp611
a(g62
g62
g62
g5
g5
tp612
a(S'RESULTS'
p613
S'RESULTS'
p614
S'NNS'
p615
S'B-NP'
p616
g5
tp617
a(S'Of'
p618
S'Of'
p619
S'IN'
p620
S'B-PP'
p621
g5
tp622
a(S'the'
p623
S'the'
p624
S'DT'
p625
S'B-NP'
p626
g5
tp627
a(S'263'
p628
S'263'
p629
S'CD'
p630
S'I-NP'
p631
g5
tp632
a(S'randomized'
p633
S'randomize'
p634
S'VBN'
p635
S'I-NP'
p636
g5
tp637
a(S'patients'
p638
S'patient'
p639
S'NNS'
p640
S'I-NP'
p641
g5
tp642
a(g460
g460
g460
g5
g5
tp643
a(S'256'
p644
S'256'
p645
S'CD'
p646
S'B-NP'
p647
g5
tp648
a(S'patients'
p649
S'patient'
p650
S'NNS'
p651
S'I-NP'
p652
g5
tp653
a(S'who'
p654
S'who'
p655
S'WP'
p656
S'B-NP'
p657
g5
tp658
a(S'had'
p659
S'have'
p660
S'VBD'
p661
S'B-VP'
p662
g5
tp663
a(S'available'
p664
S'available'
p665
S'JJ'
p666
S'B-NP'
p667
g5
tp668
a(S'efficacy'
p669
S'efficacy'
p670
S'NN'
p671
S'I-NP'
p672
g5
tp673
a(S'data'
p674
S'datum'
p675
S'NNS'
p676
S'I-NP'
p677
g5
tp678
a(S'were'
p679
S'be'
p680
S'VBD'
p681
S'B-VP'
p682
g5
tp683
a(S'analyzed.'
p684
S'analyzed.'
p685
S'VBN'
p686
S'I-VP'
p687
g5
tp688
a(S'The'
p689
S'The'
p690
S'DT'
p691
S'B-NP'
p692
g5
tp693
a(S'fimasartan/HCTZ'
p694
S'fimasartan/HCTZ'
p695
S'NN'
p696
S'I-NP'
p697
g5
tp698
a(S'treatment'
p699
S'treatment'
p700
S'NN'
p701
S'I-NP'
p702
g5
tp703
a(S'group'
p704
S'group'
p705
S'NN'
p706
S'I-NP'
p707
g5
tp708
a(S'showed'
p709
S'show'
p710
S'VBD'
p711
S'B-VP'
p712
g5
tp713
a(S'a'
p714
g714
S'DT'
p715
S'B-NP'
p716
g5
tp717
a(S'greater'
p718
S'great'
p719
S'JJR'
p720
S'I-NP'
p721
g5
tp722
a(S'reduction'
p723
S'reduction'
p724
S'NN'
p725
S'I-NP'
p726
g5
tp727
a(S'of'
p728
S'of'
p729
S'IN'
p730
S'B-PP'
p731
g5
tp732
a(S'siDBP'
p733
S'siDBP'
p734
S'NN'
p735
S'B-NP'
p736
g5
tp737
a(S'compared'
p738
S'compare'
p739
S'VBN'
p740
S'B-VP'
p741
g5
tp742
a(S'to'
p743
S'to'
p744
S'TO'
p745
S'B-PP'
p746
g5
tp747
a(S'the'
p748
S'the'
p749
S'DT'
p750
S'B-NP'
p751
g5
tp752
a(S'fimasartan'
p753
S'fimasartan'
p754
S'NN'
p755
S'I-NP'
p756
g5
tp757
a(S'treatment'
p758
S'treatment'
p759
S'NN'
p760
S'I-NP'
p761
g5
tp762
a(S'group'
p763
S'group'
p764
S'NN'
p765
S'I-NP'
p766
g5
tp767
a(S'at'
p768
S'at'
p769
S'IN'
p770
S'B-PP'
p771
g5
tp772
a(S'Week'
p773
S'Week'
p774
S'NN'
p775
S'B-NP'
p776
S'B-protein'
p777
tp778
a(g221
g221
S'CD'
p779
S'I-NP'
p780
S'I-protein'
p781
tp782
a(g109
g109
g109
g5
g5
tp783
a(S'6.88\xc2\xb18.10'
p784
S'6.88\xc2\xb18.10'
p785
S'CD'
p786
S'B-NP'
p787
g5
tp788
a(S'mmHg'
p789
S'mmHg'
p790
S'NN'
p791
S'I-NP'
p792
g5
tp793
a(S'vs'
p794
S'vs'
p795
S'IN'
p796
S'B-PP'
p797
g5
tp798
a(S'3.38\xc2\xb17.33'
p799
S'3.38\xc2\xb17.33'
p800
S'CD'
p801
S'B-NP'
p802
g5
tp803
a(g460
g460
g460
g5
g5
tp804
a(S'P=0.0008'
p805
S'P=0.0008'
p806
S'NN'
p807
S'B-NP'
p808
g5
tp809
a(g116
g116
g116
g5
g5
tp810
a(g460
g460
g460
g5
g5
tp811
a(S'and'
p812
S'and'
p813
S'CC'
p814
g5
g5
tp815
a(S'the'
p816
S'the'
p817
S'DT'
p818
S'B-NP'
p819
g5
tp820
a(S'effect'
p821
S'effect'
p822
S'NN'
p823
S'I-NP'
p824
g5
tp825
a(S'persisted'
p826
S'persist'
p827
S'VBD'
p828
S'B-VP'
p829
g5
tp830
a(S'at'
p831
S'at'
p832
S'IN'
p833
S'B-PP'
p834
g5
tp835
a(S'Week'
p836
S'Week'
p837
S'NN'
p838
S'B-NP'
p839
S'B-protein'
p840
tp841
a(S'8'
p842
g842
S'CD'
p843
S'I-NP'
p844
S'I-protein'
p845
tp846
a(g109
g109
g109
g5
g5
tp847
a(S'8.67\xc2\xb19.39'
p848
S'8.67\xc2\xb19.39'
p849
S'CD'
p850
S'B-NP'
p851
g5
tp852
a(S'mmHg'
p853
S'mmHg'
p854
S'NN'
p855
S'I-NP'
p856
g5
tp857
a(S'vs'
p858
S'vs'
p859
S'IN'
p860
S'B-PP'
p861
g5
tp862
a(S'5.02\xc2\xb18.27'
p863
S'5.02\xc2\xb18.27'
p864
S'CD'
p865
S'B-NP'
p866
g5
tp867
a(S'mmHg'
p868
S'mmHg'
p869
S'NN'
p870
S'I-NP'
p871
g5
tp872
a(g460
g460
g460
g5
g5
tp873
a(S'P=0.0023'
p874
S'P=0.0023'
p875
S'NN'
p876
S'B-NP'
p877
g5
tp878
a(g116
g116
g116
g5
g5
tp879
a(g62
g62
g62
g5
g5
tp880
a(S'Reduction'
p881
S'Reduction'
p882
S'NN'
p883
S'B-NP'
p884
g5
tp885
a(S'of'
p886
S'of'
p887
S'IN'
p888
S'B-PP'
p889
g5
tp890
a(S'sitting'
p891
S'sit'
p892
S'VBG'
p893
S'B-VP'
p894
g5
tp895
a(S'systolic'
p896
S'systolic'
p897
S'JJ'
p898
S'B-NP'
p899
g5
tp900
a(S'BP'
p901
S'BP'
p902
S'NN'
p903
S'I-NP'
p904
g5
tp905
a(S'in'
p906
S'in'
p907
S'IN'
p908
S'B-PP'
p909
g5
tp910
a(S'the'
p911
S'the'
p912
S'DT'
p913
S'B-NP'
p914
g5
tp915
a(S'fimasartan/HCTZ'
p916
S'fimasartan/HCTZ'
p917
S'NN'
p918
S'I-NP'
p919
g5
tp920
a(S'treatment'
p921
S'treatment'
p922
S'NN'
p923
S'I-NP'
p924
g5
tp925
a(S'group'
p926
S'group'
p927
S'NN'
p928
S'I-NP'
p929
g5
tp930
a(S'was'
p931
S'be'
p932
S'VBD'
p933
S'B-VP'
p934
g5
tp935
a(S'also'
p936
S'also'
p937
S'RB'
p938
S'B-ADVP'
p939
g5
tp940
a(S'greater'
p941
S'great'
p942
S'JJR'
p943
S'B-ADJP'
p944
g5
tp945
a(S'than'
p946
S'than'
p947
S'IN'
p948
S'B-PP'
p949
g5
tp950
a(S'that'
p951
S'that'
p952
S'DT'
p953
S'B-NP'
p954
g5
tp955
a(S'in'
p956
S'in'
p957
S'IN'
p958
S'B-PP'
p959
g5
tp960
a(S'the'
p961
S'the'
p962
S'DT'
p963
S'B-NP'
p964
g5
tp965
a(S'fimasartan'
p966
S'fimasartan'
p967
S'NN'
p968
S'I-NP'
p969
g5
tp970
a(S'treatment'
p971
S'treatment'
p972
S'NN'
p973
S'I-NP'
p974
g5
tp975
a(S'group'
p976
S'group'
p977
S'NN'
p978
S'I-NP'
p979
g5
tp980
a(g109
g109
g109
g5
g5
tp981
a(S'at'
p982
S'at'
p983
S'IN'
p984
S'B-PP'
p985
g5
tp986
a(S'Week'
p987
S'Week'
p988
S'NNP'
p989
S'B-NP'
p990
g5
tp991
a(g221
g221
S'CD'
p992
S'I-NP'
p993
g5
tp994
a(g460
g460
g460
S'I-NP'
p995
g5
tp996
a(S'10.50\xc2\xb113.76'
p997
S'10.50\xc2\xb113.76'
p998
S'CD'
p999
S'I-NP'
p1000
g5
tp1001
a(S'mmHg'
p1002
S'mmHg'
p1003
S'NN'
p1004
S'I-NP'
p1005
g5
tp1006
a(S'vs'
p1007
S'vs'
p1008
S'IN'
p1009
S'B-PP'
p1010
g5
tp1011
a(S'5.75\xc2\xb112.18'
p1012
S'5.75\xc2\xb112.18'
p1013
S'CD'
p1014
S'B-NP'
p1015
g5
tp1016
a(S'mmHg'
p1017
S'mmHg'
p1018
S'NN'
p1019
S'I-NP'
p1020
g5
tp1021
a(g460
g460
g460
g5
g5
tp1022
a(S'P=0.0069'
p1023
S'P=0.0069'
p1024
S'NN'
p1025
S'B-NP'
p1026
g5
tp1027
a(S'and'
p1028
S'and'
p1029
S'CC'
p1030
g5
g5
tp1031
a(g460
g460
g460
g5
g5
tp1032
a(S'at'
p1033
S'at'
p1034
S'IN'
p1035
S'B-PP'
p1036
g5
tp1037
a(S'Week'
p1038
S'Week'
p1039
S'NNP'
p1040
S'B-NP'
p1041
g5
tp1042
a(g842
g842
S'CD'
p1043
S'I-NP'
p1044
g5
tp1045
a(g460
g460
g460
S'I-NP'
p1046
g5
tp1047
a(S'13.45\xc2\xb115.15'
p1048
S'13.45\xc2\xb115.15'
p1049
S'CD'
p1050
S'I-NP'
p1051
g5
tp1052
a(S'mmHg'
p1053
S'mmHg'
p1054
S'NN'
p1055
S'I-NP'
p1056
g5
tp1057
a(S'vs'
p1058
S'vs'
p1059
S'IN'
p1060
S'B-PP'
p1061
g5
tp1062
a(S'6.84\xc2\xb113.57'
p1063
S'6.84\xc2\xb113.57'
p1064
S'CD'
p1065
S'B-NP'
p1066
g5
tp1067
a(S'mmHg'
p1068
S'mmHg'
p1069
S'NN'
p1070
S'I-NP'
p1071
g5
tp1072
a(g460
g460
g460
g5
g5
tp1073
a(S'P=0.0007'
p1074
S'P=0.0007'
p1075
S'NN'
p1076
S'B-NP'
p1077
g5
tp1078
a(g116
g116
g116
g5
g5
tp1079
a(g62
g62
g62
g5
g5
tp1080
a(S'The'
p1081
S'The'
p1082
S'DT'
p1083
S'B-NP'
p1084
g5
tp1085
a(S'proportion'
p1086
S'proportion'
p1087
S'NN'
p1088
S'I-NP'
p1089
g5
tp1090
a(S'of'
p1091
S'of'
p1092
S'IN'
p1093
S'B-PP'
p1094
g5
tp1095
a(S'patients'
p1096
S'patient'
p1097
S'NNS'
p1098
S'B-NP'
p1099
g5
tp1100
a(S'who'
p1101
S'who'
p1102
S'WP'
p1103
S'B-NP'
p1104
g5
tp1105
a(S'achieved'
p1106
S'achieve'
p1107
S'VBD'
p1108
S'B-VP'
p1109
g5
tp1110
a(g714
g714
S'DT'
p1111
S'B-NP'
p1112
g5
tp1113
a(S'reduction'
p1114
S'reduction'
p1115
S'NN'
p1116
S'I-NP'
p1117
g5
tp1118
a(S'of'
p1119
S'of'
p1120
S'IN'
p1121
S'B-PP'
p1122
g5
tp1123
a(S'siDBP'
p1124
S'siDBP'
p1125
S'NN'
p1126
S'B-NP'
p1127
g5
tp1128
a(S'\xe2\x89\xa510'
p1129
S'\xe2\x89\xa510'
p1130
S'CD'
p1131
S'I-NP'
p1132
g5
tp1133
a(S'mmHg'
p1134
S'mmHg'
p1135
S'NN'
p1136
S'I-NP'
p1137
g5
tp1138
a(S'from'
p1139
S'from'
p1140
S'IN'
p1141
S'B-PP'
p1142
g5
tp1143
a(S'baseline'
p1144
S'baseline'
p1145
S'NN'
p1146
S'B-NP'
p1147
g5
tp1148
a(S'and/or'
p1149
S'and/or'
p1150
S'CC'
p1151
S'B-PP'
p1152
g5
tp1153
a(g714
g714
S'DT'
p1154
S'B-NP'
p1155
g5
tp1156
a(S'mean'
p1157
S'mean'
p1158
S'JJ'
p1159
S'I-NP'
p1160
g5
tp1161
a(S'siDBP'
p1162
S'siDBP'
p1163
S'NN'
p1164
S'I-NP'
p1165
g5
tp1166
a(S'<'
p1167
g1167
S'SYM'
p1168
g5
g5
tp1169
a(S'90'
p1170
S'90'
p1171
S'CD'
p1172
S'B-NP'
p1173
g5
tp1174
a(S'mmHg'
p1175
S'mmHg'
p1176
S'NN'
p1177
S'I-NP'
p1178
g5
tp1179
a(S'after'
p1180
S'after'
p1181
S'IN'
p1182
S'B-PP'
p1183
g5
tp1184
a(g221
g221
S'CD'
p1185
S'B-NP'
p1186
g5
tp1187
a(S'weeks'
p1188
S'week'
p1189
S'NNS'
p1190
S'I-NP'
p1191
g5
tp1192
a(S'of'
p1193
S'of'
p1194
S'IN'
p1195
S'B-PP'
p1196
g5
tp1197
a(S'treatment'
p1198
S'treatment'
p1199
S'NN'
p1200
S'B-NP'
p1201
g5
tp1202
a(S'was'
p1203
S'be'
p1204
S'VBD'
p1205
S'B-VP'
p1206
g5
tp1207
a(S'higher'
p1208
S'high'
p1209
S'JJR'
p1210
S'B-ADJP'
p1211
g5
tp1212
a(S'in'
p1213
S'in'
p1214
S'IN'
p1215
S'B-PP'
p1216
g5
tp1217
a(S'the'
p1218
S'the'
p1219
S'DT'
p1220
S'B-NP'
p1221
g5
tp1222
a(S'fimasartan/HCTZ'
p1223
S'fimasartan/HCTZ'
p1224
S'NN'
p1225
S'I-NP'
p1226
g5
tp1227
a(S'treatment'
p1228
S'treatment'
p1229
S'NN'
p1230
S'I-NP'
p1231
g5
tp1232
a(S'group'
p1233
S'group'
p1234
S'NN'
p1235
S'I-NP'
p1236
g5
tp1237
a(S'than'
p1238
S'than'
p1239
S'IN'
p1240
S'B-PP'
p1241
g5
tp1242
a(S'in'
p1243
S'in'
p1244
S'IN'
p1245
S'B-PP'
p1246
g5
tp1247
a(S'the'
p1248
S'the'
p1249
S'DT'
p1250
S'B-NP'
p1251
g5
tp1252
a(S'fimasartan'
p1253
S'fimasartan'
p1254
S'NN'
p1255
S'I-NP'
p1256
g5
tp1257
a(S'treatment'
p1258
S'treatment'
p1259
S'NN'
p1260
S'I-NP'
p1261
g5
tp1262
a(S'group'
p1263
S'group'
p1264
S'NN'
p1265
S'I-NP'
p1266
g5
tp1267
a(g109
g109
g109
g5
g5
tp1268
a(S'53.6'
p1269
S'53.6'
p1270
S'CD'
p1271
S'B-NP'
p1272
g5
tp1273
a(S'%'
p1274
g1274
S'NN'
p1275
S'I-NP'
p1276
g5
tp1277
a(S'vs'
p1278
S'vs'
p1279
S'IN'
p1280
S'B-PP'
p1281
g5
tp1282
a(S'39.8'
p1283
S'39.8'
p1284
S'CD'
p1285
S'B-NP'
p1286
g5
tp1287
a(g1274
g1274
S'NN'
p1288
S'I-NP'
p1289
g5
tp1290
a(g460
g460
g460
g5
g5
tp1291
a(S'P=0.0359'
p1292
S'P=0.0359'
p1293
S'NN'
p1294
S'B-NP'
p1295
g5
tp1296
a(g116
g116
g116
g5
g5
tp1297
a(g62
g62
g62
g5
g5
tp1298
a(S'The'
p1299
S'The'
p1300
S'DT'
p1301
S'B-NP'
p1302
g5
tp1303
a(S'overall'
p1304
S'overall'
p1305
S'JJ'
p1306
S'I-NP'
p1307
g5
tp1308
a(S'incidence'
p1309
S'incidence'
p1310
S'NN'
p1311
S'I-NP'
p1312
g5
tp1313
a(S'of'
p1314
S'of'
p1315
S'IN'
p1316
S'B-PP'
p1317
g5
tp1318
a(S'adverse'
p1319
S'adverse'
p1320
S'JJ'
p1321
S'B-NP'
p1322
g5
tp1323
a(S'drug'
p1324
S'drug'
p1325
S'NN'
p1326
S'I-NP'
p1327
g5
tp1328
a(S'reaction'
p1329
S'reaction'
p1330
S'NN'
p1331
S'I-NP'
p1332
g5
tp1333
a(S'was'
p1334
S'be'
p1335
S'VBD'
p1336
S'B-VP'
p1337
g5
tp1338
a(S'11.79'
p1339
S'11.79'
p1340
S'CD'
p1341
S'B-NP'
p1342
g5
tp1343
a(g1274
g1274
S'NN'
p1344
S'I-NP'
p1345
g5
tp1346
a(S'with'
p1347
S'with'
p1348
S'IN'
p1349
S'B-PP'
p1350
g5
tp1351
a(S'no'
p1352
S'no'
p1353
S'DT'
p1354
S'B-NP'
p1355
g5
tp1356
a(S'significant'
p1357
S'significant'
p1358
S'JJ'
p1359
S'I-NP'
p1360
g5
tp1361
a(S'difference'
p1362
S'difference'
p1363
S'NN'
p1364
S'I-NP'
p1365
g5
tp1366
a(S'between'
p1367
S'between'
p1368
S'IN'
p1369
S'B-PP'
p1370
g5
tp1371
a(S'the'
p1372
S'the'
p1373
S'DT'
p1374
S'B-NP'
p1375
g5
tp1376
a(S'treatment'
p1377
S'treatment'
p1378
S'NN'
p1379
S'I-NP'
p1380
g5
tp1381
a(S'groups'
p1382
S'group'
p1383
S'NNS'
p1384
S'I-NP'
p1385
g5
tp1386
a(g62
g62
g62
g5
g5
tp1387
a(S'CONCLUSION'
p1388
S'CONCLUSION'
p1389
S'NN'
p1390
S'B-NP'
p1391
g5
tp1392
a(S'The'
p1393
S'The'
p1394
S'DT'
p1395
S'B-NP'
p1396
g5
tp1397
a(S'combination'
p1398
S'combination'
p1399
S'NN'
p1400
S'I-NP'
p1401
g5
tp1402
a(S'treatment'
p1403
S'treatment'
p1404
S'NN'
p1405
S'I-NP'
p1406
g5
tp1407
a(S'of'
p1408
S'of'
p1409
S'IN'
p1410
S'B-PP'
p1411
g5
tp1412
a(S'fimasartan'
p1413
S'fimasartan'
p1414
S'NN'
p1415
S'B-NP'
p1416
g5
tp1417
a(S'and'
p1418
S'and'
p1419
S'CC'
p1420
S'I-NP'
p1421
g5
tp1422
a(S'HCTZ'
p1423
S'HCTZ'
p1424
S'NN'
p1425
S'I-NP'
p1426
S'B-protein'
p1427
tp1428
a(S'achieved'
p1429
S'achieve'
p1430
S'VBD'
p1431
S'B-VP'
p1432
g5
tp1433
a(S'better'
p1434
S'good'
p1435
S'JJR'
p1436
S'B-NP'
p1437
g5
tp1438
a(S'BP'
p1439
S'BP'
p1440
S'NN'
p1441
S'I-NP'
p1442
g5
tp1443
a(S'control'
p1444
S'control'
p1445
S'NN'
p1446
S'I-NP'
p1447
g5
tp1448
a(S'than'
p1449
S'than'
p1450
S'IN'
p1451
S'B-PP'
p1452
g5
tp1453
a(S'fimasartan'
p1454
S'fimasartan'
p1455
S'NN'
p1456
S'B-NP'
p1457
g5
tp1458
a(S'monotherapy'
p1459
S'monotherapy'
p1460
S'NN'
p1461
S'I-NP'
p1462
g5
tp1463
a(g460
g460
g460
g5
g5
tp1464
a(S'and'
p1465
S'and'
p1466
S'CC'
p1467
g5
g5
tp1468
a(S'had'
p1469
S'have'
p1470
S'VBD'
p1471
S'B-VP'
p1472
g5
tp1473
a(S'comparable'
p1474
S'comparable'
p1475
S'JJ'
p1476
S'B-NP'
p1477
g5
tp1478
a(S'safety'
p1479
S'safety'
p1480
S'NN'
p1481
S'I-NP'
p1482
g5
tp1483
a(S'and'
p1484
S'and'
p1485
S'CC'
p1486
S'I-NP'
p1487
g5
tp1488
a(S'tolerance'
p1489
S'tolerance'
p1490
S'NN'
p1491
S'I-NP'
p1492
g5
tp1493
a(S'to'
p1494
S'to'
p1495
S'TO'
p1496
S'B-PP'
p1497
g5
tp1498
a(S'fimasartan'
p1499
S'fimasartan'
p1500
S'NN'
p1501
S'B-NP'
p1502
g5
tp1503
a(S'monotherapy'
p1504
S'monotherapy'
p1505
S'NN'
p1506
S'I-NP'
p1507
g5
tp1508
a(g62
g62
g62
g5
g5
tp1509
a.