(lp0
(S'Randomized'
p1
S'Randomize'
p2
S'VBN'
p3
S'B-VP'
p4
S'O'
p5
tp6
a(S'clinical'
p7
S'clinical'
p8
S'JJ'
p9
S'B-NP'
p10
g5
tp11
a(S'trial'
p12
S'trial'
p13
S'NN'
p14
S'I-NP'
p15
g5
tp16
a(S'comparing'
p17
S'compare'
p18
S'VBG'
p19
S'B-VP'
p20
g5
tp21
a(S'mitoxantrone'
p22
S'mitoxantrone'
p23
S'NN'
p24
S'B-NP'
p25
g5
tp26
a(S'with'
p27
S'with'
p28
S'IN'
p29
S'B-PP'
p30
g5
tp31
a(S'doxorubicin'
p32
S'doxorubicin'
p33
S'NN'
p34
S'B-NP'
p35
g5
tp36
a(S'in'
p37
S'in'
p38
S'IN'
p39
S'B-PP'
p40
g5
tp41
a(S'previously'
p42
S'previously'
p43
S'RB'
p44
S'B-NP'
p45
g5
tp46
a(S'treated'
p47
S'treat'
p48
S'VBN'
p49
S'I-NP'
p50
g5
tp51
a(S'patients'
p52
S'patient'
p53
S'NNS'
p54
S'I-NP'
p55
g5
tp56
a(S'with'
p57
S'with'
p58
S'IN'
p59
S'B-PP'
p60
g5
tp61
a(S'metastatic'
p62
S'metastatic'
p63
S'JJ'
p64
S'B-NP'
p65
g5
tp66
a(S'breast'
p67
S'breast'
p68
S'NN'
p69
S'I-NP'
p70
g5
tp71
a(S'cancer'
p72
S'cancer'
p73
S'NN'
p74
S'I-NP'
p75
g5
tp76
a(S'.'
p77
g77
g77
g5
g5
tp78
a(S'Three'
p79
S'Three'
p80
S'CD'
p81
S'B-NP'
p82
g5
tp83
a(S'hundred'
p84
S'hundred'
p85
S'CD'
p86
S'I-NP'
p87
g5
tp88
a(S'twenty-five'
p89
S'twenty-five'
p90
S'CD'
p91
S'I-NP'
p92
g5
tp93
a(S'women'
p94
S'woman'
p95
S'NNS'
p96
S'I-NP'
p97
g5
tp98
a(S'with'
p99
S'with'
p100
S'IN'
p101
S'B-PP'
p102
g5
tp103
a(S'metastatic'
p104
S'metastatic'
p105
S'JJ'
p106
S'B-NP'
p107
g5
tp108
a(S'adenocarcinoma'
p109
S'adenocarcinoma'
p110
S'NN'
p111
S'I-NP'
p112
g5
tp113
a(S'of'
p114
S'of'
p115
S'IN'
p116
S'B-PP'
p117
g5
tp118
a(S'the'
p119
S'the'
p120
S'DT'
p121
S'B-NP'
p122
g5
tp123
a(S'breast'
p124
S'breast'
p125
S'NN'
p126
S'I-NP'
p127
g5
tp128
a(S'who'
p129
S'who'
p130
S'WP'
p131
S'B-NP'
p132
g5
tp133
a(S'had'
p134
S'have'
p135
S'VBD'
p136
S'B-VP'
p137
g5
tp138
a(S'failed'
p139
S'fail'
p140
S'VBN'
p141
S'I-VP'
p142
g5
tp143
a(S'one'
p144
S'one'
p145
S'CD'
p146
S'B-NP'
p147
g5
tp148
a(S'prior'
p149
S'prior'
p150
S'JJ'
p151
S'I-NP'
p152
g5
tp153
a(S'chemotherapeutic'
p154
S'chemotherapeutic'
p155
S'JJ'
p156
S'I-NP'
p157
g5
tp158
a(S'regimen'
p159
S'regimen'
p160
S'NN'
p161
S'I-NP'
p162
g5
tp163
a(S'for'
p164
S'for'
p165
S'IN'
p166
S'B-PP'
p167
g5
tp168
a(S'advanced'
p169
S'advance'
p170
S'VBN'
p171
S'B-NP'
p172
g5
tp173
a(S'disease'
p174
S'disease'
p175
S'NN'
p176
S'I-NP'
p177
g5
tp178
a(S'were'
p179
S'be'
p180
S'VBD'
p181
S'B-VP'
p182
g5
tp183
a(S'randomized'
p184
S'randomize'
p185
S'VBN'
p186
S'I-VP'
p187
g5
tp188
a(S'to'
p189
S'to'
p190
S'TO'
p191
S'I-VP'
p192
g5
tp193
a(S'receive'
p194
S'receive'
p195
S'VB'
p196
S'I-VP'
p197
g5
tp198
a(S'14'
p199
S'14'
p200
S'CD'
p201
S'B-NP'
p202
g5
tp203
a(S'mg/m2'
p204
S'mg/m2'
p205
S'NN'
p206
S'I-NP'
p207
g5
tp208
a(S'of'
p209
S'of'
p210
S'IN'
p211
S'B-PP'
p212
g5
tp213
a(S'mitoxantrone'
p214
S'mitoxantrone'
p215
S'NN'
p216
S'B-NP'
p217
g5
tp218
a(S'or'
p219
S'or'
p220
S'CC'
p221
g5
g5
tp222
a(S'75'
p223
S'75'
p224
S'CD'
p225
S'B-NP'
p226
g5
tp227
a(S'mg/m2'
p228
S'mg/m2'
p229
S'NN'
p230
S'I-NP'
p231
g5
tp232
a(S'of'
p233
S'of'
p234
S'IN'
p235
S'B-PP'
p236
g5
tp237
a(S'doxorubicin'
p238
S'doxorubicin'
p239
S'NN'
p240
S'B-NP'
p241
g5
tp242
a(S'intravenously'
p243
S'intravenously'
p244
S'RB'
p245
S'B-ADVP'
p246
g5
tp247
a(S'('
p248
g248
g248
g5
g5
tp249
a(S'IV'
p250
S'IV'
p251
S'CD'
p252
S'B-NP'
p253
g5
tp254
a(S')'
p255
g255
g255
g5
g5
tp256
a(S'every'
p257
S'every'
p258
S'DT'
p259
S'B-NP'
p260
g5
tp261
a(S'3'
p262
g262
S'CD'
p263
S'I-NP'
p264
g5
tp265
a(S'weeks.'
p266
S'weeks.'
p267
S'NN'
p268
S'I-NP'
p269
g5
tp270
a(S'Enrollment'
p271
S'Enrollment'
p272
S'NN'
p273
S'I-NP'
p274
g5
tp275
a(S'was'
p276
S'be'
p277
S'VBD'
p278
S'B-VP'
p279
g5
tp280
a(S'closed'
p281
S'close'
p282
S'VBN'
p283
S'I-VP'
p284
g5
tp285
a(S'on'
p286
S'on'
p287
S'IN'
p288
S'B-PP'
p289
g5
tp290
a(S'October'
p291
S'October'
p292
S'NNP'
p293
S'B-NP'
p294
g5
tp295
a(S'31'
p296
S'31'
p297
S'CD'
p298
S'I-NP'
p299
g5
tp300
a(S','
p301
g301
g301
S'I-NP'
p302
g5
tp303
a(S'1984'
p304
S'1984'
p305
S'CD'
p306
S'I-NP'
p307
g5
tp308
a(g301
g301
g301
g5
g5
tp309
a(S'after'
p310
S'after'
p311
S'IN'
p312
S'B-PP'
p313
g5
tp314
a(S'165'
p315
S'165'
p316
S'CD'
p317
S'B-NP'
p318
g5
tp319
a(S'patients'
p320
S'patient'
p321
S'NNS'
p322
S'I-NP'
p323
g5
tp324
a(S'were'
p325
S'be'
p326
S'VBD'
p327
S'B-VP'
p328
g5
tp329
a(S'randomized'
p330
S'randomize'
p331
S'VBN'
p332
S'I-VP'
p333
g5
tp334
a(S'to'
p335
S'to'
p336
S'TO'
p337
S'B-PP'
p338
g5
tp339
a(S'mitoxantrone'
p340
S'mitoxantrone'
p341
S'NN'
p342
S'B-NP'
p343
g5
tp344
a(S'and'
p345
S'and'
p346
S'CC'
p347
g5
g5
tp348
a(S'160'
p349
S'160'
p350
S'CD'
p351
S'B-NP'
p352
g5
tp353
a(S'patients'
p354
S'patient'
p355
S'NNS'
p356
S'I-NP'
p357
g5
tp358
a(S'to'
p359
S'to'
p360
S'TO'
p361
S'B-VP'
p362
g5
tp363
a(S'doxorubicin.'
p364
S'doxorubicin.'
p365
S'VB'
p366
S'I-VP'
p367
g5
tp368
a(S'Patients'
p369
S'Patient'
p370
S'NNS'
p371
S'B-NP'
p372
g5
tp373
a(S'randomized'
p374
S'randomize'
p375
S'VBN'
p376
S'B-VP'
p377
g5
tp378
a(S'to'
p379
S'to'
p380
S'TO'
p381
S'B-PP'
p382
g5
tp383
a(S'the'
p384
S'the'
p385
S'DT'
p386
S'B-NP'
p387
g5
tp388
a(S'two'
p389
S'two'
p390
S'CD'
p391
S'I-NP'
p392
g5
tp393
a(S'treatment'
p394
S'treatment'
p395
S'NN'
p396
S'I-NP'
p397
g5
tp398
a(S'groups'
p399
S'group'
p400
S'NNS'
p401
S'I-NP'
p402
g5
tp403
a(S'were'
p404
S'be'
p405
S'VBD'
p406
S'B-VP'
p407
g5
tp408
a(S'compared'
p409
S'compare'
p410
S'VBN'
p411
S'I-VP'
p412
g5
tp413
a(S'for'
p414
S'for'
p415
S'IN'
p416
S'B-PP'
p417
g5
tp418
a(S'response'
p419
S'response'
p420
S'NN'
p421
S'B-NP'
p422
g5
tp423
a(S'rate'
p424
S'rate'
p425
S'NN'
p426
S'I-NP'
p427
g5
tp428
a(g301
g301
g301
g5
g5
tp429
a(S'duration'
p430
S'duration'
p431
S'NN'
p432
S'B-NP'
p433
g5
tp434
a(S'of'
p435
S'of'
p436
S'IN'
p437
S'B-PP'
p438
g5
tp439
a(S'response'
p440
S'response'
p441
S'NN'
p442
S'B-NP'
p443
g5
tp444
a(g301
g301
g301
g5
g5
tp445
a(S'time'
p446
S'time'
p447
S'NN'
p448
S'B-NP'
p449
g5
tp450
a(S'to'
p451
S'to'
p452
S'TO'
p453
S'B-PP'
p454
g5
tp455
a(S'progression'
p456
S'progression'
p457
S'NN'
p458
S'B-NP'
p459
g5
tp460
a(S'or'
p461
S'or'
p462
S'CC'
p463
S'I-NP'
p464
g5
tp465
a(S'death'
p466
S'death'
p467
S'NN'
p468
S'I-NP'
p469
g5
tp470
a(g301
g301
g301
g5
g5
tp471
a(S'time'
p472
S'time'
p473
S'NN'
p474
S'B-NP'
p475
g5
tp476
a(S'to'
p477
S'to'
p478
S'TO'
p479
S'B-PP'
p480
g5
tp481
a(S'treatment'
p482
S'treatment'
p483
S'NN'
p484
S'B-NP'
p485
g5
tp486
a(S'failure'
p487
S'failure'
p488
S'NN'
p489
S'I-NP'
p490
g5
tp491
a(g248
g248
g248
g5
g5
tp492
a(S'TTF'
p493
S'TTF'
p494
S'NN'
p495
S'B-NP'
p496
S'B-protein'
p497
tp498
a(g255
g255
g255
g5
g5
tp499
a(g301
g301
g301
g5
g5
tp500
a(S'and'
p501
S'and'
p502
S'CC'
p503
g5
g5
tp504
a(S'survival.'
p505
S'survival.'
p506
S'RB'
p507
S'B-ADVP'
p508
g5
tp509
a(S'The'
p510
S'The'
p511
S'DT'
p512
S'B-NP'
p513
g5
tp514
a(S'response'
p515
S'response'
p516
S'NN'
p517
S'I-NP'
p518
g5
tp519
a(S'rate'
p520
S'rate'
p521
S'NN'
p522
S'I-NP'
p523
g5
tp524
a(S'to'
p525
S'to'
p526
S'TO'
p527
S'B-PP'
p528
g5
tp529
a(S'mitoxantrone'
p530
S'mitoxantrone'
p531
S'NN'
p532
S'B-NP'
p533
g5
tp534
a(S'was'
p535
S'be'
p536
S'VBD'
p537
S'B-VP'
p538
g5
tp539
a(S'20.6'
p540
S'20.6'
p541
S'CD'
p542
S'B-NP'
p543
g5
tp544
a(S'%'
p545
g545
S'NN'
p546
S'I-NP'
p547
g5
tp548
a(g301
g301
g301
g5
g5
tp549
a(S'to'
p550
S'to'
p551
S'TO'
p552
S'B-PP'
p553
g5
tp554
a(S'doxorubicin'
p555
S'doxorubicin'
p556
S'NN'
p557
S'B-NP'
p558
g5
tp559
a(S'29.3'
p560
S'29.3'
p561
S'CD'
p562
S'I-NP'
p563
g5
tp564
a(g545
g545
S'NN'
p565
S'I-NP'
p566
g5
tp567
a(g248
g248
g248
g5
g5
tp568
a(S'P'
p569
g569
S'NN'
p570
S'B-NP'
p571
g5
tp572
a(S'='
p573
g573
S'SYM'
p574
S'B-VP'
p575
g5
tp576
a(S'.07'
p577
S'.07'
p578
S'CD'
p579
S'B-NP'
p580
g5
tp581
a(g255
g255
g255
g5
g5
tp582
a(g77
g77
g77
g5
g5
tp583
a(S'The'
p584
S'The'
p585
S'DT'
p586
S'B-NP'
p587
g5
tp588
a(S'median'
p589
S'median'
p590
S'JJ'
p591
S'I-NP'
p592
g5
tp593
a(S'response'
p594
S'response'
p595
S'NN'
p596
S'I-NP'
p597
g5
tp598
a(S'duration'
p599
S'duration'
p600
S'NN'
p601
S'I-NP'
p602
g5
tp603
a(S'was'
p604
S'be'
p605
S'VBD'
p606
S'B-VP'
p607
g5
tp608
a(S'151'
p609
S'151'
p610
S'CD'
p611
S'B-NP'
p612
g5
tp613
a(S'days'
p614
S'day'
p615
S'NNS'
p616
S'I-NP'
p617
g5
tp618
a(S'for'
p619
S'for'
p620
S'IN'
p621
S'B-PP'
p622
g5
tp623
a(S'the'
p624
S'the'
p625
S'DT'
p626
S'B-NP'
p627
g5
tp628
a(S'mitoxantrone'
p629
S'mitoxantrone'
p630
S'NN'
p631
S'I-NP'
p632
g5
tp633
a(S'group'
p634
S'group'
p635
S'NN'
p636
S'I-NP'
p637
g5
tp638
a(S'and'
p639
S'and'
p640
S'CC'
p641
g5
g5
tp642
a(S'126'
p643
S'126'
p644
S'CD'
p645
S'B-NP'
p646
g5
tp647
a(S'days'
p648
S'day'
p649
S'NNS'
p650
S'I-NP'
p651
g5
tp652
a(S'for'
p653
S'for'
p654
S'IN'
p655
S'B-PP'
p656
g5
tp657
a(S'the'
p658
S'the'
p659
S'DT'
p660
S'B-NP'
p661
g5
tp662
a(S'doxorubicin'
p663
S'doxorubicin'
p664
S'NN'
p665
S'I-NP'
p666
g5
tp667
a(S'group'
p668
S'group'
p669
S'NN'
p670
S'I-NP'
p671
g5
tp672
a(g248
g248
g248
g5
g5
tp673
a(g569
g569
S'NN'
p674
S'B-NP'
p675
g5
tp676
a(g573
g573
S'SYM'
p677
S'B-VP'
p678
g5
tp679
a(S'.16'
p680
S'.16'
p681
S'CD'
p682
S'B-NP'
p683
g5
tp684
a(g255
g255
g255
g5
g5
tp685
a(g77
g77
g77
g5
g5
tp686
a(S'The'
p687
S'The'
p688
S'DT'
p689
S'B-NP'
p690
g5
tp691
a(S'median'
p692
S'median'
p693
S'JJ'
p694
S'I-NP'
p695
g5
tp696
a(S'TTF'
p697
S'TTF'
p698
S'NN'
p699
S'I-NP'
p700
g5
tp701
a(S'was'
p702
S'be'
p703
S'VBD'
p704
S'B-VP'
p705
g5
tp706
a(S'70'
p707
S'70'
p708
S'CD'
p709
S'B-NP'
p710
g5
tp711
a(S'days'
p712
S'day'
p713
S'NNS'
p714
S'I-NP'
p715
g5
tp716
a(S'in'
p717
S'in'
p718
S'IN'
p719
S'B-PP'
p720
g5
tp721
a(S'the'
p722
S'the'
p723
S'DT'
p724
S'B-NP'
p725
g5
tp726
a(S'mitoxantrone'
p727
S'mitoxantrone'
p728
S'NN'
p729
S'I-NP'
p730
g5
tp731
a(S'group'
p732
S'group'
p733
S'NN'
p734
S'I-NP'
p735
g5
tp736
a(S'and'
p737
S'and'
p738
S'CC'
p739
g5
g5
tp740
a(S'104'
p741
S'104'
p742
S'CD'
p743
S'B-NP'
p744
g5
tp745
a(S'days'
p746
S'day'
p747
S'NNS'
p748
S'I-NP'
p749
g5
tp750
a(S'in'
p751
S'in'
p752
S'IN'
p753
S'B-PP'
p754
g5
tp755
a(S'the'
p756
S'the'
p757
S'DT'
p758
S'B-NP'
p759
g5
tp760
a(S'doxorubicin'
p761
S'doxorubicin'
p762
S'NN'
p763
S'I-NP'
p764
g5
tp765
a(S'group'
p766
S'group'
p767
S'NN'
p768
S'I-NP'
p769
g5
tp770
a(g248
g248
g248
g5
g5
tp771
a(g569
g569
S'NN'
p772
S'B-NP'
p773
g5
tp774
a(g573
g573
S'SYM'
p775
S'B-VP'
p776
g5
tp777
a(S'.36'
p778
S'.36'
p779
S'CD'
p780
S'B-NP'
p781
g5
tp782
a(g255
g255
g255
g5
g5
tp783
a(g77
g77
g77
g5
g5
tp784
a(S'The'
p785
S'The'
p786
S'DT'
p787
S'B-NP'
p788
g5
tp789
a(S'median'
p790
S'median'
p791
S'JJ'
p792
S'I-NP'
p793
g5
tp794
a(S'survival'
p795
S'survival'
p796
S'NN'
p797
S'I-NP'
p798
g5
tp799
a(S'of'
p800
S'of'
p801
S'IN'
p802
S'B-PP'
p803
g5
tp804
a(S'patients'
p805
S'patient'
p806
S'NNS'
p807
S'B-NP'
p808
g5
tp809
a(S'initially'
p810
S'initially'
p811
S'RB'
p812
S'B-ADVP'
p813
g5
tp814
a(S'randomized'
p815
S'randomize'
p816
S'VBD'
p817
S'B-VP'
p818
g5
tp819
a(S'to'
p820
S'to'
p821
S'TO'
p822
S'I-VP'
p823
g5
tp824
a(S'receive'
p825
S'receive'
p826
S'VB'
p827
S'I-VP'
p828
g5
tp829
a(S'mitoxantrone'
p830
S'mitoxantrone'
p831
S'NN'
p832
S'B-NP'
p833
g5
tp834
a(S'was'
p835
S'be'
p836
S'VBD'
p837
S'B-VP'
p838
g5
tp839
a(S'273'
p840
S'273'
p841
S'CD'
p842
S'B-NP'
p843
g5
tp844
a(S'days'
p845
S'day'
p846
S'NNS'
p847
S'I-NP'
p848
g5
tp849
a(S';'
p850
g850
S':'
p851
g5
g5
tp852
a(S'for'
p853
S'for'
p854
S'IN'
p855
S'B-PP'
p856
g5
tp857
a(S'doxorubicin'
p858
S'doxorubicin'
p859
S'NN'
p860
S'B-NP'
p861
g5
tp862
a(S'268'
p863
S'268'
p864
S'CD'
p865
S'B-NP'
p866
g5
tp867
a(S'days'
p868
S'day'
p869
S'NNS'
p870
S'I-NP'
p871
g5
tp872
a(g248
g248
g248
g5
g5
tp873
a(g569
g569
S'NN'
p874
S'B-NP'
p875
g5
tp876
a(g573
g573
S'SYM'
p877
S'B-VP'
p878
g5
tp879
a(S'.40'
p880
S'.40'
p881
S'CD'
p882
S'B-NP'
p883
g5
tp884
a(g255
g255
g255
g5
g5
tp885
a(g77
g77
g77
g5
g5
tp886
a(S'There'
p887
S'There'
p888
S'EX'
p889
S'B-NP'
p890
g5
tp891
a(S'were'
p892
S'be'
p893
S'VBD'
p894
S'B-VP'
p895
g5
tp896
a(S'three'
p897
S'three'
p898
S'CD'
p899
S'B-NP'
p900
g5
tp901
a(S'responses'
p902
S'response'
p903
S'NNS'
p904
S'I-NP'
p905
g5
tp906
a(S'among'
p907
S'among'
p908
S'IN'
p909
S'B-PP'
p910
g5
tp911
a(S'77'
p912
S'77'
p913
S'CD'
p914
S'B-NP'
p915
g5
tp916
a(S'patients'
p917
S'patient'
p918
S'NNS'
p919
S'I-NP'
p920
g5
tp921
a(S'crossed'
p922
S'cross'
p923
S'VBD'
p924
S'B-VP'
p925
g5
tp926
a(S'over'
p927
S'over'
p928
S'RP'
p929
S'B-PRT'
p930
g5
tp931
a(S'to'
p932
S'to'
p933
S'TO'
p934
S'B-PP'
p935
g5
tp936
a(S'mitoxantrone'
p937
S'mitoxantrone'
p938
S'NN'
p939
S'B-NP'
p940
g5
tp941
a(S'after'
p942
S'after'
p943
S'IN'
p944
S'B-PP'
p945
g5
tp946
a(S'initial'
p947
S'initial'
p948
S'JJ'
p949
S'B-NP'
p950
g5
tp951
a(S'treatment'
p952
S'treatment'
p953
S'NN'
p954
S'I-NP'
p955
g5
tp956
a(S'with'
p957
S'with'
p958
S'IN'
p959
S'B-PP'
p960
g5
tp961
a(S'doxorubicin.'
p962
S'doxorubicin.'
p963
S'NN'
p964
S'B-NP'
p965
g5
tp966
a(S'The'
p967
S'The'
p968
S'DT'
p969
S'B-NP'
p970
g5
tp971
a(S'major'
p972
S'major'
p973
S'JJ'
p974
S'I-NP'
p975
g5
tp976
a(S'dose-limiting'
p977
S'dose-limiting'
p978
S'NN'
p979
S'I-NP'
p980
g5
tp981
a(S'toxicity'
p982
S'toxicity'
p983
S'NN'
p984
S'I-NP'
p985
g5
tp986
a(S'for'
p987
S'for'
p988
S'IN'
p989
S'B-PP'
p990
g5
tp991
a(S'both'
p992
S'both'
p993
S'DT'
p994
S'B-NP'
p995
g5
tp996
a(S'drugs'
p997
S'drug'
p998
S'NNS'
p999
S'I-NP'
p1000
g5
tp1001
a(S'was'
p1002
S'be'
p1003
S'VBD'
p1004
S'B-VP'
p1005
g5
tp1006
a(S'leukopenia.'
p1007
S'leukopenia.'
p1008
S'FW'
p1009
S'B-ADJP'
p1010
g5
tp1011
a(S'There'
p1012
S'There'
p1013
S'EX'
p1014
S'B-NP'
p1015
g5
tp1016
a(S'was'
p1017
S'be'
p1018
S'VBD'
p1019
S'B-VP'
p1020
g5
tp1021
a(S'significantly'
p1022
S'significantly'
p1023
S'RB'
p1024
S'B-ADJP'
p1025
g5
tp1026
a(S'less'
p1027
S'less'
p1028
S'RBR'
p1029
S'I-ADJP'
p1030
g5
tp1031
a(S'severe'
p1032
S'severe'
p1033
S'JJ'
p1034
S'I-ADJP'
p1035
g5
tp1036
a(S'and'
p1037
S'and'
p1038
S'CC'
p1039
g5
g5
tp1040
a(S'less'
p1041
S'less'
p1042
S'RBR'
p1043
S'B-NP'
p1044
g5
tp1045
a(S'frequent'
p1046
S'frequent'
p1047
S'JJ'
p1048
S'I-NP'
p1049
g5
tp1050
a(S'toxicity'
p1051
S'toxicity'
p1052
S'NN'
p1053
S'I-NP'
p1054
g5
tp1055
a(S'with'
p1056
S'with'
p1057
S'IN'
p1058
S'B-PP'
p1059
g5
tp1060
a(S'mitoxantrone'
p1061
S'mitoxantrone'
p1062
S'NN'
p1063
S'B-NP'
p1064
g5
tp1065
a(S'administration.'
p1066
S'administration.'
p1067
S'NN'
p1068
S'I-NP'
p1069
g5
tp1070
a(S'Severe'
p1071
S'Severe'
p1072
S'JJ'
p1073
S'I-NP'
p1074
g5
tp1075
a(S'nausea'
p1076
S'nausea'
p1077
S'NN'
p1078
S'I-NP'
p1079
g5
tp1080
a(S'and'
p1081
S'and'
p1082
S'CC'
p1083
S'I-NP'
p1084
g5
tp1085
a(S'vomiting'
p1086
S'vomiting'
p1087
S'NN'
p1088
S'I-NP'
p1089
g5
tp1090
a(S'occurred'
p1091
S'occur'
p1092
S'VBD'
p1093
S'B-VP'
p1094
g5
tp1095
a(S'in'
p1096
S'in'
p1097
S'IN'
p1098
S'B-PP'
p1099
g5
tp1100
a(S'9.5'
p1101
S'9.5'
p1102
S'CD'
p1103
S'B-NP'
p1104
g5
tp1105
a(g545
g545
S'NN'
p1106
S'I-NP'
p1107
g5
tp1108
a(S'of'
p1109
S'of'
p1110
S'IN'
p1111
S'B-PP'
p1112
g5
tp1113
a(S'mitoxantrone'
p1114
S'mitoxantrone'
p1115
S'NN'
p1116
S'B-NP'
p1117
g5
tp1118
a(S'patients'
p1119
S'patient'
p1120
S'NNS'
p1121
S'I-NP'
p1122
g5
tp1123
a(S'and'
p1124
S'and'
p1125
S'CC'
p1126
g5
g5
tp1127
a(S'25.3'
p1128
S'25.3'
p1129
S'CD'
p1130
S'B-NP'
p1131
g5
tp1132
a(g545
g545
S'NN'
p1133
S'I-NP'
p1134
g5
tp1135
a(S'of'
p1136
S'of'
p1137
S'IN'
p1138
S'B-PP'
p1139
g5
tp1140
a(S'doxorubicin'
p1141
S'doxorubicin'
p1142
S'NN'
p1143
S'B-NP'
p1144
g5
tp1145
a(S'patients'
p1146
S'patient'
p1147
S'NNS'
p1148
S'I-NP'
p1149
g5
tp1150
a(g248
g248
g248
g5
g5
tp1151
a(g569
g569
S'NN'
p1152
S'B-NP'
p1153
g5
tp1154
a(S'less'
p1155
S'less'
p1156
S'JJR'
p1157
S'B-ADJP'
p1158
g5
tp1159
a(S'than'
p1160
S'than'
p1161
S'IN'
p1162
S'B-PP'
p1163
g5
tp1164
a(S'.001'
p1165
S'.001'
p1166
S'CD'
p1167
S'B-NP'
p1168
g5
tp1169
a(g255
g255
g255
g5
g5
tp1170
a(g77
g77
g77
g5
g5
tp1171
a(S'The'
p1172
S'The'
p1173
S'DT'
p1174
S'B-NP'
p1175
g5
tp1176
a(S'incidence'
p1177
S'incidence'
p1178
S'NN'
p1179
S'I-NP'
p1180
g5
tp1181
a(S'of'
p1182
S'of'
p1183
S'IN'
p1184
S'B-PP'
p1185
g5
tp1186
a(S'severe'
p1187
S'severe'
p1188
S'JJ'
p1189
S'B-NP'
p1190
g5
tp1191
a(S'stomatitis'
p1192
S'stomatitis'
p1193
S'NN'
p1194
S'I-NP'
p1195
g5
tp1196
a(S'and'
p1197
S'and'
p1198
S'CC'
p1199
S'I-NP'
p1200
g5
tp1201
a(S'mucositis'
p1202
S'mucositis'
p1203
S'NN'
p1204
S'I-NP'
p1205
g5
tp1206
a(S'was'
p1207
S'be'
p1208
S'VBD'
p1209
S'B-VP'
p1210
g5
tp1211
a(S'0.6'
p1212
S'0.6'
p1213
S'CD'
p1214
S'B-NP'
p1215
g5
tp1216
a(g545
g545
S'NN'
p1217
S'I-NP'
p1218
g5
tp1219
a(S'in'
p1220
S'in'
p1221
S'IN'
p1222
S'B-PP'
p1223
g5
tp1224
a(S'the'
p1225
S'the'
p1226
S'DT'
p1227
S'B-NP'
p1228
g5
tp1229
a(S'mitoxantrone'
p1230
S'mitoxantrone'
p1231
S'NN'
p1232
S'I-NP'
p1233
g5
tp1234
a(S'group'
p1235
S'group'
p1236
S'NN'
p1237
S'I-NP'
p1238
g5
tp1239
a(S'and'
p1240
S'and'
p1241
S'CC'
p1242
g5
g5
tp1243
a(S'8.4'
p1244
S'8.4'
p1245
S'CD'
p1246
S'B-NP'
p1247
g5
tp1248
a(g545
g545
S'NN'
p1249
S'I-NP'
p1250
g5
tp1251
a(S'in'
p1252
S'in'
p1253
S'IN'
p1254
S'B-PP'
p1255
g5
tp1256
a(S'the'
p1257
S'the'
p1258
S'DT'
p1259
S'B-NP'
p1260
g5
tp1261
a(S'doxorubicin'
p1262
S'doxorubicin'
p1263
S'NN'
p1264
S'I-NP'
p1265
g5
tp1266
a(S'group'
p1267
S'group'
p1268
S'NN'
p1269
S'I-NP'
p1270
g5
tp1271
a(g248
g248
g248
g5
g5
tp1272
a(g569
g569
S'NN'
p1273
S'B-NP'
p1274
g5
tp1275
a(g573
g573
S'SYM'
p1276
S'B-VP'
p1277
g5
tp1278
a(S'.001'
p1279
S'.001'
p1280
S'CD'
p1281
S'B-NP'
p1282
g5
tp1283
a(g255
g255
g255
g5
g5
tp1284
a(g77
g77
g77
g5
g5
tp1285
a(S'Severe'
p1286
S'Severe'
p1287
S'JJ'
p1288
S'B-NP'
p1289
g5
tp1290
a(S'alopecia'
p1291
S'alopecia'
p1292
S'NN'
p1293
S'I-NP'
p1294
g5
tp1295
a(S'occurred'
p1296
S'occur'
p1297
S'VBD'
p1298
S'B-VP'
p1299
g5
tp1300
a(S'in'
p1301
S'in'
p1302
S'IN'
p1303
S'B-PP'
p1304
g5
tp1305
a(S'5.1'
p1306
S'5.1'
p1307
S'CD'
p1308
S'B-NP'
p1309
g5
tp1310
a(g545
g545
S'NN'
p1311
S'I-NP'
p1312
g5
tp1313
a(S'of'
p1314
S'of'
p1315
S'IN'
p1316
S'B-PP'
p1317
g5
tp1318
a(S'mitoxantrone'
p1319
S'mitoxantrone'
p1320
S'NN'
p1321
S'B-NP'
p1322
g5
tp1323
a(S'patients'
p1324
S'patient'
p1325
S'NNS'
p1326
S'I-NP'
p1327
g5
tp1328
a(S'and'
p1329
S'and'
p1330
S'CC'
p1331
g5
g5
tp1332
a(S'61.0'
p1333
S'61.0'
p1334
S'CD'
p1335
S'B-NP'
p1336
g5
tp1337
a(g545
g545
S'NN'
p1338
S'I-NP'
p1339
g5
tp1340
a(S'of'
p1341
S'of'
p1342
S'IN'
p1343
S'B-PP'
p1344
g5
tp1345
a(S'doxorubicin'
p1346
S'doxorubicin'
p1347
S'NN'
p1348
S'B-NP'
p1349
g5
tp1350
a(S'patients'
p1351
S'patient'
p1352
S'NNS'
p1353
S'I-NP'
p1354
g5
tp1355
a(g248
g248
g248
g5
g5
tp1356
a(g569
g569
S'NN'
p1357
S'B-NP'
p1358
g5
tp1359
a(S'less'
p1360
S'less'
p1361
S'JJR'
p1362
S'B-ADJP'
p1363
g5
tp1364
a(S'than'
p1365
S'than'
p1366
S'IN'
p1367
S'B-PP'
p1368
g5
tp1369
a(S'.001'
p1370
S'.001'
p1371
S'CD'
p1372
S'B-NP'
p1373
g5
tp1374
a(g255
g255
g255
g5
g5
tp1375
a(g77
g77
g77
g5
g5
tp1376
a(S'A'
p1377
g1377
S'DT'
p1378
S'B-NP'
p1379
g5
tp1380
a(S'life-table'
p1381
S'life-table'
p1382
S'JJ'
p1383
S'I-NP'
p1384
g5
tp1385
a(S'comparison'
p1386
S'comparison'
p1387
S'NN'
p1388
S'I-NP'
p1389
g5
tp1390
a(S'of'
p1391
S'of'
p1392
S'IN'
p1393
S'B-PP'
p1394
g5
tp1395
a(S'the'
p1396
S'the'
p1397
S'DT'
p1398
S'B-NP'
p1399
g5
tp1400
a(S'cumulative'
p1401
S'cumulative'
p1402
S'JJ'
p1403
S'I-NP'
p1404
g5
tp1405
a(S'dose'
p1406
S'dose'
p1407
S'NN'
p1408
S'I-NP'
p1409
g5
tp1410
a(S'to'
p1411
S'to'
p1412
S'TO'
p1413
S'B-PP'
p1414
g5
tp1415
a(S'the'
p1416
S'the'
p1417
S'DT'
p1418
S'B-NP'
p1419
g5
tp1420
a(S'development'
p1421
S'development'
p1422
S'NN'
p1423
S'I-NP'
p1424
g5
tp1425
a(S'of'
p1426
S'of'
p1427
S'IN'
p1428
S'B-PP'
p1429
g5
tp1430
a(S'a'
p1431
g1431
S'DT'
p1432
S'B-NP'
p1433
g5
tp1434
a(S'cardiac'
p1435
S'cardiac'
p1436
S'JJ'
p1437
S'I-NP'
p1438
g5
tp1439
a(S'event'
p1440
S'event'
p1441
S'NN'
p1442
S'I-NP'
p1443
g5
tp1444
a(S'showed'
p1445
S'show'
p1446
S'VBD'
p1447
S'B-VP'
p1448
g5
tp1449
a(S'that'
p1450
S'that'
p1451
S'IN'
p1452
S'B-SBAR'
p1453
g5
tp1454
a(S'mitoxantrone'
p1455
S'mitoxantrone'
p1456
S'NN'
p1457
S'B-NP'
p1458
g5
tp1459
a(S'had'
p1460
S'have'
p1461
S'VBD'
p1462
S'B-VP'
p1463
g5
tp1464
a(S'significantly'
p1465
S'significantly'
p1466
S'RB'
p1467
S'B-NP'
p1468
g5
tp1469
a(S'less'
p1470
S'less'
p1471
S'JJR'
p1472
S'I-NP'
p1473
g5
tp1474
a(S'cardiotoxicity'
p1475
S'cardiotoxicity'
p1476
S'NN'
p1477
S'I-NP'
p1478
g5
tp1479
a(S'than'
p1480
S'than'
p1481
S'IN'
p1482
S'B-PP'
p1483
g5
tp1484
a(S'doxorubicin'
p1485
S'doxorubicin'
p1486
S'NN'
p1487
S'B-NP'
p1488
g5
tp1489
a(g248
g248
g248
g5
g5
tp1490
a(g569
g569
S'NN'
p1491
S'B-NP'
p1492
g5
tp1493
a(g573
g573
S'SYM'
p1494
S'B-VP'
p1495
g5
tp1496
a(S'.0005'
p1497
S'.0005'
p1498
S'CD'
p1499
S'B-NP'
p1500
g5
tp1501
a(g255
g255
g255
g5
g5
tp1502
a(g77
g77
g77
g5
g5
tp1503
a(S'This'
p1504
S'This'
p1505
S'DT'
p1506
S'B-NP'
p1507
g5
tp1508
a(S'study'
p1509
S'study'
p1510
S'NN'
p1511
S'I-NP'
p1512
g5
tp1513
a(S'demonstrates'
p1514
S'demonstrate'
p1515
S'VBZ'
p1516
S'B-VP'
p1517
g5
tp1518
a(S'that'
p1519
S'that'
p1520
S'IN'
p1521
S'B-SBAR'
p1522
g5
tp1523
a(S'mitoxantrone'
p1524
S'mitoxantrone'
p1525
S'NN'
p1526
S'B-NP'
p1527
g5
tp1528
a(S'is'
p1529
S'be'
p1530
S'VBZ'
p1531
S'B-VP'
p1532
g5
tp1533
a(S'active'
p1534
S'active'
p1535
S'JJ'
p1536
S'B-ADJP'
p1537
g5
tp1538
a(S'as'
p1539
S'as'
p1540
S'IN'
p1541
S'B-PP'
p1542
g5
tp1543
a(g1431
g1431
S'DT'
p1544
S'B-NP'
p1545
g5
tp1546
a(S'single'
p1547
S'single'
p1548
S'JJ'
p1549
S'I-NP'
p1550
g5
tp1551
a(S'agent'
p1552
S'agent'
p1553
S'NN'
p1554
S'I-NP'
p1555
g5
tp1556
a(S'in'
p1557
S'in'
p1558
S'IN'
p1559
S'B-PP'
p1560
g5
tp1561
a(S'the'
p1562
S'the'
p1563
S'DT'
p1564
S'B-NP'
p1565
g5
tp1566
a(S'treatment'
p1567
S'treatment'
p1568
S'NN'
p1569
S'I-NP'
p1570
g5
tp1571
a(S'of'
p1572
S'of'
p1573
S'IN'
p1574
S'B-PP'
p1575
g5
tp1576
a(S'metastatic'
p1577
S'metastatic'
p1578
S'JJ'
p1579
S'B-NP'
p1580
g5
tp1581
a(S'breast'
p1582
S'breast'
p1583
S'NN'
p1584
S'I-NP'
p1585
g5
tp1586
a(S'cancer.'
p1587
S'cancer.'
p1588
S'NN'
p1589
S'I-NP'
p1590
g5
tp1591
a(S'Compared'
p1592
S'Compare'
p1593
S'VBN'
p1594
S'B-VP'
p1595
g5
tp1596
a(S'with'
p1597
S'with'
p1598
S'IN'
p1599
S'B-PP'
p1600
g5
tp1601
a(S'doxorubicin'
p1602
S'doxorubicin'
p1603
S'NN'
p1604
S'B-NP'
p1605
g5
tp1606
a(S'it'
p1607
S'it'
p1608
S'PRP'
p1609
S'B-NP'
p1610
g5
tp1611
a(S'appears'
p1612
S'appear'
p1613
S'VBZ'
p1614
S'B-VP'
p1615
g5
tp1616
a(S'to'
p1617
S'to'
p1618
S'TO'
p1619
S'I-VP'
p1620
g5
tp1621
a(S'be'
p1622
S'be'
p1623
S'VB'
p1624
S'I-VP'
p1625
g5
tp1626
a(S'marginally'
p1627
S'marginally'
p1628
S'RB'
p1629
S'B-ADJP'
p1630
g5
tp1631
a(S'less'
p1632
S'less'
p1633
S'RBR'
p1634
S'I-ADJP'
p1635
g5
tp1636
a(S'active'
p1637
S'active'
p1638
S'JJ'
p1639
S'I-ADJP'
p1640
g5
tp1641
a(S'and'
p1642
S'and'
p1643
S'CC'
p1644
g5
g5
tp1645
a(S'significantly'
p1646
S'significantly'
p1647
S'RB'
p1648
S'B-VP'
p1649
g5
tp1650
a(S'less'
p1651
S'less'
p1652
S'RBR'
p1653
S'I-VP'
p1654
g5
tp1655
a(S'toxic.'
p1656
S'toxic.'
p1657
S'VB'
p1658
S'I-VP'
p1659
g5
tp1660
a(S'We'
p1661
S'We'
p1662
S'PRP'
p1663
S'B-NP'
p1664
g5
tp1665
a(S'conclude'
p1666
S'conclude'
p1667
S'VBP'
p1668
S'B-VP'
p1669
g5
tp1670
a(S'that'
p1671
S'that'
p1672
S'IN'
p1673
S'B-SBAR'
p1674
g5
tp1675
a(S'mitoxantrone'
p1676
S'mitoxantrone'
p1677
S'NN'
p1678
S'B-NP'
p1679
g5
tp1680
a(S'can'
p1681
S'can'
p1682
S'MD'
p1683
S'B-VP'
p1684
g5
tp1685
a(S'be'
p1686
S'be'
p1687
S'VB'
p1688
S'I-VP'
p1689
g5
tp1690
a(S'used'
p1691
S'use'
p1692
S'VBN'
p1693
S'I-VP'
p1694
g5
tp1695
a(S'alone'
p1696
S'alone'
p1697
S'RB'
p1698
S'B-ADVP'
p1699
g5
tp1700
a(S'or'
p1701
S'or'
p1702
S'CC'
p1703
g5
g5
tp1704
a(S'with'
p1705
S'with'
p1706
S'IN'
p1707
S'B-PP'
p1708
g5
tp1709
a(S'other'
p1710
S'other'
p1711
S'JJ'
p1712
S'B-NP'
p1713
g5
tp1714
a(S'standard'
p1715
S'standard'
p1716
S'JJ'
p1717
S'I-NP'
p1718
g5
tp1719
a(S'drugs'
p1720
S'drug'
p1721
S'NNS'
p1722
S'I-NP'
p1723
g5
tp1724
a(S'to'
p1725
S'to'
p1726
S'TO'
p1727
S'B-VP'
p1728
g5
tp1729
a(S'palliate'
p1730
S'palliate'
p1731
S'VB'
p1732
S'I-VP'
p1733
g5
tp1734
a(S'the'
p1735
S'the'
p1736
S'DT'
p1737
S'B-NP'
p1738
g5
tp1739
a(S'symptoms'
p1740
S'symptom'
p1741
S'NNS'
p1742
S'I-NP'
p1743
g5
tp1744
a(S'of'
p1745
S'of'
p1746
S'IN'
p1747
S'B-PP'
p1748
g5
tp1749
a(S'metastatic'
p1750
S'metastatic'
p1751
S'JJ'
p1752
S'B-NP'
p1753
g5
tp1754
a(S'breast'
p1755
S'breast'
p1756
S'NN'
p1757
S'I-NP'
p1758
g5
tp1759
a(S'cancer'
p1760
S'cancer'
p1761
S'NN'
p1762
S'I-NP'
p1763
g5
tp1764
a(g301
g301
g301
g5
g5
tp1765
a(S'especially'
p1766
S'especially'
p1767
S'RB'
p1768
S'B-ADVP'
p1769
g5
tp1770
a(S'in'
p1771
S'in'
p1772
S'IN'
p1773
S'B-PP'
p1774
g5
tp1775
a(S'settings'
p1776
S'setting'
p1777
S'NNS'
p1778
S'B-NP'
p1779
g5
tp1780
a(S'where'
p1781
S'where'
p1782
S'WRB'
p1783
S'B-ADVP'
p1784
g5
tp1785
a(S'drug'
p1786
S'drug'
p1787
S'NN'
p1788
S'B-NP'
p1789
g5
tp1790
a(S'toxicity'
p1791
S'toxicity'
p1792
S'NN'
p1793
S'I-NP'
p1794
g5
tp1795
a(S'is'
p1796
S'be'
p1797
S'VBZ'
p1798
S'B-VP'
p1799
g5
tp1800
a(S'an'
p1801
S'an'
p1802
S'DT'
p1803
S'B-NP'
p1804
g5
tp1805
a(S'important'
p1806
S'important'
p1807
S'JJ'
p1808
S'I-NP'
p1809
g5
tp1810
a(S'consideration'
p1811
S'consideration'
p1812
S'NN'
p1813
S'I-NP'
p1814
g5
tp1815
a(g77
g77
g77
g5
g5
tp1816
a.