(lp0
(S'The'
p1
S'The'
p2
S'DT'
p3
S'B-NP'
p4
S'O'
p5
tp6
a(S'memory'
p7
S'memory'
p8
S'NN'
p9
S'I-NP'
p10
g5
tp11
a(S'support'
p12
S'support'
p13
S'NN'
p14
S'I-NP'
p15
g5
tp16
a(S'system'
p17
S'system'
p18
S'NN'
p19
S'I-NP'
p20
g5
tp21
a(S'for'
p22
S'for'
p23
S'IN'
p24
S'B-PP'
p25
g5
tp26
a(S'mild'
p27
S'mild'
p28
S'JJ'
p29
S'B-NP'
p30
g5
tp31
a(S'cognitive'
p32
S'cognitive'
p33
S'JJ'
p34
S'I-NP'
p35
g5
tp36
a(S'impairment'
p37
S'impairment'
p38
S'NN'
p39
S'I-NP'
p40
g5
tp41
a(S':'
p42
g42
g42
g5
g5
tp43
a(S'randomized'
p44
S'randomize'
p45
S'VBN'
p46
S'B-NP'
p47
g5
tp48
a(S'trial'
p49
S'trial'
p50
S'NN'
p51
S'I-NP'
p52
g5
tp53
a(S'of'
p54
S'of'
p55
S'IN'
p56
S'B-PP'
p57
g5
tp58
a(S'a'
p59
g59
S'DT'
p60
S'B-NP'
p61
g5
tp62
a(S'cognitive'
p63
S'cognitive'
p64
S'JJ'
p65
S'I-NP'
p66
g5
tp67
a(S'rehabilitation'
p68
S'rehabilitation'
p69
S'NN'
p70
S'I-NP'
p71
g5
tp72
a(S'intervention'
p73
S'intervention'
p74
S'NN'
p75
S'I-NP'
p76
g5
tp77
a(S'.'
p78
g78
g78
g5
g5
tp79
a(S'OBJECTIVE'
p80
S'OBJECTIVE'
p81
S'NN'
p82
S'B-NP'
p83
g5
tp84
a(S'Individuals'
p85
S'Individual'
p86
S'NNS'
p87
S'I-NP'
p88
g5
tp89
a(S'with'
p90
S'with'
p91
S'IN'
p92
S'B-PP'
p93
g5
tp94
a(S'amnestic'
p95
S'amnestic'
p96
S'JJ'
p97
S'B-NP'
p98
g5
tp99
a(S'mild'
p100
S'mild'
p101
S'JJ'
p102
S'I-NP'
p103
g5
tp104
a(S'cognitive'
p105
S'cognitive'
p106
S'JJ'
p107
S'I-NP'
p108
g5
tp109
a(S'impairment'
p110
S'impairment'
p111
S'NN'
p112
S'I-NP'
p113
g5
tp114
a(S'('
p115
g115
g115
g5
g5
tp116
a(S'MCI'
p117
S'MCI'
p118
S'NN'
p119
S'B-NP'
p120
g5
tp121
a(S')'
p122
g122
g122
g5
g5
tp123
a(S'have'
p124
S'have'
p125
S'VBP'
p126
S'B-VP'
p127
g5
tp128
a(S'few'
p129
S'few'
p130
S'JJ'
p131
S'B-NP'
p132
g5
tp133
a(S'empirically'
p134
S'empirically'
p135
S'RB'
p136
S'I-NP'
p137
g5
tp138
a(S'based'
p139
S'base'
p140
S'VBN'
p141
S'I-NP'
p142
g5
tp143
a(S'treatment'
p144
S'treatment'
p145
S'NN'
p146
S'I-NP'
p147
g5
tp148
a(S'options'
p149
S'option'
p150
S'NNS'
p151
S'I-NP'
p152
g5
tp153
a(S'for'
p154
S'for'
p155
S'IN'
p156
S'B-PP'
p157
g5
tp158
a(S'combating'
p159
S'combat'
p160
S'VBG'
p161
S'B-VP'
p162
g5
tp163
a(S'their'
p164
S'their'
p165
S'PRP$'
p166
S'B-NP'
p167
g5
tp168
a(S'memory'
p169
S'memory'
p170
S'NN'
p171
S'I-NP'
p172
g5
tp173
a(S'loss.'
p174
S'loss.'
p175
S'NN'
p176
S'I-NP'
p177
g5
tp178
a(S'This'
p179
S'This'
p180
S'DT'
p181
S'B-NP'
p182
g5
tp183
a(S'study'
p184
S'study'
p185
S'NN'
p186
S'I-NP'
p187
g5
tp188
a(S'sought'
p189
S'seek'
p190
S'VBD'
p191
S'B-VP'
p192
g5
tp193
a(S'to'
p194
S'to'
p195
S'TO'
p196
S'I-VP'
p197
g5
tp198
a(S'examine'
p199
S'examine'
p200
S'VB'
p201
S'I-VP'
p202
g5
tp203
a(S'the'
p204
S'the'
p205
S'DT'
p206
S'B-NP'
p207
g5
tp208
a(S'efficacy'
p209
S'efficacy'
p210
S'NN'
p211
S'I-NP'
p212
g5
tp213
a(S'of'
p214
S'of'
p215
S'IN'
p216
S'B-PP'
p217
g5
tp218
a(g59
g59
S'DT'
p219
S'B-NP'
p220
g5
tp221
a(S'calendar/notebook'
p222
S'calendar/notebook'
p223
S'NN'
p224
S'I-NP'
p225
g5
tp226
a(S'rehabilitation'
p227
S'rehabilitation'
p228
S'NN'
p229
S'I-NP'
p230
g5
tp231
a(S'intervention'
p232
S'intervention'
p233
S'NN'
p234
S'I-NP'
p235
g5
tp236
a(S','
p237
g237
g237
g5
g5
tp238
a(S'the'
p239
S'the'
p240
S'DT'
p241
S'B-NP'
p242
g5
tp243
a(S'memory'
p244
S'memory'
p245
S'NN'
p246
S'I-NP'
p247
g5
tp248
a(S'support'
p249
S'support'
p250
S'NN'
p251
S'I-NP'
p252
g5
tp253
a(S'system'
p254
S'system'
p255
S'NN'
p256
S'I-NP'
p257
g5
tp258
a(g115
g115
g115
g5
g5
tp259
a(S'MSS'
p260
S'MSS'
p261
S'NN'
p262
S'B-NP'
p263
S'B-protein'
p264
tp265
a(g122
g122
g122
g5
g5
tp266
a(g237
g237
g237
g5
g5
tp267
a(S'for'
p268
S'for'
p269
S'IN'
p270
S'B-PP'
p271
g5
tp272
a(S'individuals'
p273
S'individual'
p274
S'NNS'
p275
S'B-NP'
p276
g5
tp277
a(S'with'
p278
S'with'
p279
S'IN'
p280
S'B-PP'
p281
g5
tp282
a(S'amnestic'
p283
S'amnestic'
p284
S'JJ'
p285
S'B-NP'
p286
g5
tp287
a(S'MCI'
p288
S'MCI'
p289
S'NNP'
p290
S'I-NP'
p291
g5
tp292
a(g78
g78
g78
g5
g5
tp293
a(S'METHODS'
p294
S'METHODS'
p295
S'NNS'
p296
S'B-NP'
p297
g5
tp298
a(S'Forty'
p299
S'Forty'
p300
S'CD'
p301
S'B-NP'
p302
g5
tp303
a(S'individuals'
p304
S'individual'
p305
S'NNS'
p306
S'I-NP'
p307
g5
tp308
a(S'with'
p309
S'with'
p310
S'IN'
p311
S'B-PP'
p312
g5
tp313
a(S'single'
p314
S'single'
p315
S'JJ'
p316
S'B-NP'
p317
g5
tp318
a(S'domain'
p319
S'domain'
p320
S'NN'
p321
S'I-NP'
p322
g5
tp323
a(S'amnestic'
p324
S'amnestic'
p325
S'JJ'
p326
S'I-NP'
p327
g5
tp328
a(S'MCI'
p329
S'MCI'
p330
S'NN'
p331
S'I-NP'
p332
g5
tp333
a(S'and'
p334
S'and'
p335
S'CC'
p336
g5
g5
tp337
a(S'their'
p338
S'their'
p339
S'PRP$'
p340
S'B-NP'
p341
g5
tp342
a(S'program'
p343
S'program'
p344
S'NN'
p345
S'I-NP'
p346
g5
tp347
a(S'partners'
p348
S'partner'
p349
S'NNS'
p350
S'I-NP'
p351
g5
tp352
a(S'were'
p353
S'be'
p354
S'VBD'
p355
S'B-VP'
p356
g5
tp357
a(S'randomized'
p358
S'randomize'
p359
S'VBN'
p360
S'I-VP'
p361
g5
tp362
a(S'to'
p363
S'to'
p364
S'TO'
p365
S'I-VP'
p366
g5
tp367
a(S'receive'
p368
S'receive'
p369
S'VB'
p370
S'I-VP'
p371
g5
tp372
a(S'the'
p373
S'the'
p374
S'DT'
p375
S'B-NP'
p376
g5
tp377
a(S'MSS'
p378
S'MSS'
p379
S'NN'
p380
S'I-NP'
p381
S'B-protein'
p382
tp383
a(g237
g237
g237
g5
g5
tp384
a(S'either'
p385
S'either'
p386
S'CC'
p387
S'B-PP'
p388
g5
tp389
a(S'with'
p390
S'with'
p391
S'IN'
p392
S'I-PP'
p393
g5
tp394
a(S'training'
p395
S'training'
p396
S'NN'
p397
S'B-NP'
p398
g5
tp399
a(S'or'
p400
S'or'
p401
S'CC'
p402
g5
g5
tp403
a(S'without'
p404
S'without'
p405
S'IN'
p406
S'B-PP'
p407
g5
tp408
a(g115
g115
g115
g5
g5
tp409
a(S'controls'
p410
S'control'
p411
S'NNS'
p412
S'B-NP'
p413
g5
tp414
a(g122
g122
g122
g5
g5
tp415
a(g78
g78
g78
g5
g5
tp416
a(S'Measures'
p417
S'Measure'
p418
S'NNS'
p419
S'B-NP'
p420
g5
tp421
a(S'of'
p422
S'of'
p423
S'IN'
p424
S'B-PP'
p425
g5
tp426
a(S'adherence'
p427
S'adherence'
p428
S'NN'
p429
S'B-NP'
p430
g5
tp431
a(g237
g237
g237
g5
g5
tp432
a(S'activities'
p433
S'activity'
p434
S'NNS'
p435
S'B-NP'
p436
g5
tp437
a(S'of'
p438
S'of'
p439
S'IN'
p440
S'B-PP'
p441
g5
tp442
a(S'daily'
p443
S'daily'
p444
S'JJ'
p445
S'B-NP'
p446
g5
tp447
a(S'living'
p448
S'living'
p449
S'NN'
p450
S'I-NP'
p451
g5
tp452
a(g237
g237
g237
g5
g5
tp453
a(S'and'
p454
S'and'
p455
S'CC'
p456
g5
g5
tp457
a(S'emotional'
p458
S'emotional'
p459
S'JJ'
p460
S'B-NP'
p461
g5
tp462
a(S'impact'
p463
S'impact'
p464
S'NN'
p465
S'I-NP'
p466
g5
tp467
a(S'were'
p468
S'be'
p469
S'VBD'
p470
S'B-VP'
p471
g5
tp472
a(S'completed'
p473
S'complete'
p474
S'VBN'
p475
S'I-VP'
p476
g5
tp477
a(S'at'
p478
S'at'
p479
S'IN'
p480
S'B-PP'
p481
g5
tp482
a(S'the'
p483
S'the'
p484
S'DT'
p485
S'B-NP'
p486
g5
tp487
a(S'first'
p488
S'first'
p489
S'JJ'
p490
S'I-NP'
p491
g5
tp492
a(S'and'
p493
S'and'
p494
S'CC'
p495
S'I-NP'
p496
g5
tp497
a(S'last'
p498
S'last'
p499
S'JJ'
p500
S'I-NP'
p501
g5
tp502
a(S'intervention'
p503
S'intervention'
p504
S'NN'
p505
S'I-NP'
p506
g5
tp507
a(S'sessions'
p508
S'session'
p509
S'NNS'
p510
S'I-NP'
p511
g5
tp512
a(S'and'
p513
S'and'
p514
S'CC'
p515
g5
g5
tp516
a(S'again'
p517
S'again'
p518
S'RB'
p519
S'B-ADVP'
p520
g5
tp521
a(S'at'
p522
S'at'
p523
S'IN'
p524
S'B-PP'
p525
g5
tp526
a(S'8'
p527
g527
S'CD'
p528
S'B-NP'
p529
g5
tp530
a(S'weeks'
p531
S'week'
p532
S'NNS'
p533
S'I-NP'
p534
g5
tp535
a(S'and'
p536
S'and'
p537
S'CC'
p538
g5
g5
tp539
a(S'6'
p540
g540
S'CD'
p541
S'B-NP'
p542
g5
tp543
a(S'months'
p544
S'month'
p545
S'NNS'
p546
S'I-NP'
p547
g5
tp548
a(S'post'
p549
S'post'
p550
S'JJ'
p551
S'B-NP'
p552
g5
tp553
a(S'intervention'
p554
S'intervention'
p555
S'NN'
p556
S'I-NP'
p557
g5
tp558
a(g78
g78
g78
g5
g5
tp559
a(S'RESULTS'
p560
S'RESULTS'
p561
S'NNS'
p562
S'B-NP'
p563
g5
tp564
a(S'Training'
p565
S'Train'
p566
S'VBG'
p567
S'B-VP'
p568
g5
tp569
a(S'in'
p570
S'in'
p571
S'IN'
p572
S'B-PP'
p573
g5
tp574
a(S'use'
p575
S'use'
p576
S'NN'
p577
S'B-NP'
p578
g5
tp579
a(S'of'
p580
S'of'
p581
S'IN'
p582
S'B-PP'
p583
g5
tp584
a(g59
g59
S'DT'
p585
S'B-NP'
p586
g5
tp587
a(S'notebook/calendar'
p588
S'notebook/calendar'
p589
S'NN'
p590
S'I-NP'
p591
g5
tp592
a(S'system'
p593
S'system'
p594
S'NN'
p595
S'I-NP'
p596
g5
tp597
a(S'significantly'
p598
S'significantly'
p599
S'RB'
p600
S'B-ADVP'
p601
g5
tp602
a(S'improved'
p603
S'improve'
p604
S'VBD'
p605
S'B-VP'
p606
g5
tp607
a(S'adherence'
p608
S'adherence'
p609
S'NN'
p610
S'B-NP'
p611
g5
tp612
a(S'over'
p613
S'over'
p614
S'IN'
p615
S'B-PP'
p616
g5
tp617
a(S'those'
p618
S'those'
p619
S'DT'
p620
S'B-NP'
p621
g5
tp622
a(S'who'
p623
S'who'
p624
S'WP'
p625
S'B-NP'
p626
g5
tp627
a(S'received'
p628
S'receive'
p629
S'VBD'
p630
S'B-VP'
p631
g5
tp632
a(S'the'
p633
S'the'
p634
S'DT'
p635
S'B-NP'
p636
g5
tp637
a(S'calendars'
p638
S'calendar'
p639
S'NNS'
p640
S'I-NP'
p641
g5
tp642
a(S'but'
p643
S'but'
p644
S'CC'
p645
g5
g5
tp646
a(S'no'
p647
S'no'
p648
S'DT'
p649
S'B-NP'
p650
g5
tp651
a(S'training.'
p652
S'training.'
p653
S'NN'
p654
S'I-NP'
p655
g5
tp656
a(S'Functional'
p657
S'Functional'
p658
S'JJ'
p659
S'I-NP'
p660
g5
tp661
a(S'ability'
p662
S'ability'
p663
S'NN'
p664
S'I-NP'
p665
g5
tp666
a(S'and'
p667
S'and'
p668
S'CC'
p669
S'I-NP'
p670
g5
tp671
a(S'memory'
p672
S'memory'
p673
S'NN'
p674
S'I-NP'
p675
g5
tp676
a(S'self-efficacy'
p677
S'self-efficacy'
p678
S'NN'
p679
S'I-NP'
p680
g5
tp681
a(S'significantly'
p682
S'significantly'
p683
S'RB'
p684
S'B-ADVP'
p685
g5
tp686
a(S'improved'
p687
S'improve'
p688
S'VBD'
p689
S'B-VP'
p690
g5
tp691
a(S'for'
p692
S'for'
p693
S'IN'
p694
S'B-PP'
p695
g5
tp696
a(S'those'
p697
S'those'
p698
S'DT'
p699
S'B-NP'
p700
g5
tp701
a(S'who'
p702
S'who'
p703
S'WP'
p704
S'B-NP'
p705
g5
tp706
a(S'received'
p707
S'receive'
p708
S'VBD'
p709
S'B-VP'
p710
g5
tp711
a(S'MSS'
p712
S'MSS'
p713
S'NNP'
p714
S'B-NP'
p715
g5
tp716
a(S'training.'
p717
S'training.'
p718
S'NNP'
p719
S'I-NP'
p720
g5
tp721
a(S'Change'
p722
S'Change'
p723
S'NNP'
p724
S'I-NP'
p725
g5
tp726
a(S'in'
p727
S'in'
p728
S'IN'
p729
S'B-PP'
p730
g5
tp731
a(S'functional'
p732
S'functional'
p733
S'JJ'
p734
S'B-NP'
p735
g5
tp736
a(S'ability'
p737
S'ability'
p738
S'NN'
p739
S'I-NP'
p740
g5
tp741
a(S'remained'
p742
S'remain'
p743
S'VBD'
p744
S'B-VP'
p745
g5
tp746
a(S'significantly'
p747
S'significantly'
p748
S'RB'
p749
S'B-ADJP'
p750
g5
tp751
a(S'better'
p752
S'good'
p753
S'JJR'
p754
S'I-ADJP'
p755
g5
tp756
a(S'in'
p757
S'in'
p758
S'IN'
p759
S'B-PP'
p760
g5
tp761
a(S'the'
p762
S'the'
p763
S'DT'
p764
S'B-NP'
p765
g5
tp766
a(S'intervention'
p767
S'intervention'
p768
S'NN'
p769
S'I-NP'
p770
g5
tp771
a(S'group'
p772
S'group'
p773
S'NN'
p774
S'I-NP'
p775
g5
tp776
a(S'than'
p777
S'than'
p778
S'IN'
p779
S'B-PP'
p780
g5
tp781
a(S'in'
p782
S'in'
p783
S'IN'
p784
S'B-PP'
p785
g5
tp786
a(S'the'
p787
S'the'
p788
S'DT'
p789
S'B-NP'
p790
g5
tp791
a(S'control'
p792
S'control'
p793
S'NN'
p794
S'I-NP'
p795
g5
tp796
a(S'group'
p797
S'group'
p798
S'NN'
p799
S'I-NP'
p800
g5
tp801
a(S'out'
p802
S'out'
p803
S'IN'
p804
S'B-PP'
p805
g5
tp806
a(S'to'
p807
S'to'
p808
S'TO'
p809
S'B-PP'
p810
g5
tp811
a(S'8-week'
p812
S'8-week'
p813
S'JJ'
p814
S'B-NP'
p815
g5
tp816
a(S'follow-up.'
p817
S'follow-up.'
p818
S'JJ'
p819
S'I-NP'
p820
g5
tp821
a(S'Care'
p822
S'Care'
p823
S'NNP'
p824
S'I-NP'
p825
g5
tp826
a(S'partners'
p827
S'partner'
p828
S'NNS'
p829
S'I-NP'
p830
g5
tp831
a(S'in'
p832
S'in'
p833
S'IN'
p834
S'B-PP'
p835
g5
tp836
a(S'the'
p837
S'the'
p838
S'DT'
p839
S'B-NP'
p840
g5
tp841
a(S'intervention'
p842
S'intervention'
p843
S'NN'
p844
S'I-NP'
p845
g5
tp846
a(S'group'
p847
S'group'
p848
S'NN'
p849
S'I-NP'
p850
g5
tp851
a(S'demonstrated'
p852
S'demonstrate'
p853
S'VBD'
p854
S'B-VP'
p855
g5
tp856
a(S'improved'
p857
S'improve'
p858
S'VBN'
p859
S'B-NP'
p860
g5
tp861
a(S'mood'
p862
S'mood'
p863
S'NN'
p864
S'I-NP'
p865
g5
tp866
a(S'by'
p867
S'by'
p868
S'IN'
p869
S'B-PP'
p870
g5
tp871
a(S'8-week'
p872
S'8-week'
p873
S'JJ'
p874
S'B-NP'
p875
g5
tp876
a(S'and'
p877
S'and'
p878
S'CC'
p879
S'I-NP'
p880
g5
tp881
a(S'6-month'
p882
S'6-month'
p883
S'JJ'
p884
S'I-NP'
p885
g5
tp886
a(S'follow-ups'
p887
S'follow-up'
p888
S'NNS'
p889
S'I-NP'
p890
g5
tp891
a(g237
g237
g237
g5
g5
tp892
a(S'whereas'
p893
S'whereas'
p894
S'IN'
p895
g5
g5
tp896
a(S'control'
p897
S'control'
p898
S'NN'
p899
S'B-NP'
p900
g5
tp901
a(S'care'
p902
S'care'
p903
S'NN'
p904
S'I-NP'
p905
g5
tp906
a(S'partners'
p907
S'partner'
p908
S'NNS'
p909
S'I-NP'
p910
g5
tp911
a(S'reported'
p912
S'report'
p913
S'VBD'
p914
S'B-VP'
p915
g5
tp916
a(S'worse'
p917
S'worse'
p918
S'JJR'
p919
S'B-NP'
p920
g5
tp921
a(S'caregiver'
p922
S'caregiver'
p923
S'NN'
p924
S'I-NP'
p925
g5
tp926
a(S'burden'
p927
S'burden'
p928
S'NN'
p929
S'I-NP'
p930
g5
tp931
a(S'by'
p932
S'by'
p933
S'IN'
p934
S'B-PP'
p935
g5
tp936
a(S'6-month'
p937
S'6-month'
p938
S'JJ'
p939
S'B-NP'
p940
g5
tp941
a(S'follow-up'
p942
S'follow-up'
p943
S'NN'
p944
S'I-NP'
p945
g5
tp946
a(g78
g78
g78
g5
g5
tp947
a(S'CONCLUSIONS'
p948
S'CONCLUSIONS'
p949
S'NNS'
p950
S'B-NP'
p951
g5
tp952
a(S'Memory'
p953
S'Memory'
p954
S'VBP'
p955
S'B-VP'
p956
g5
tp957
a(S'support'
p958
S'support'
p959
S'NN'
p960
S'B-NP'
p961
g5
tp962
a(S'system'
p963
S'system'
p964
S'NN'
p965
S'I-NP'
p966
g5
tp967
a(S'training'
p968
S'training'
p969
S'NN'
p970
S'I-NP'
p971
g5
tp972
a(S'resulted'
p973
S'result'
p974
S'VBD'
p975
S'B-VP'
p976
g5
tp977
a(S'in'
p978
S'in'
p979
S'IN'
p980
S'B-PP'
p981
g5
tp982
a(S'improvement'
p983
S'improvement'
p984
S'NN'
p985
S'B-NP'
p986
g5
tp987
a(S'in'
p988
S'in'
p989
S'IN'
p990
S'B-PP'
p991
g5
tp992
a(S'activities'
p993
S'activity'
p994
S'NNS'
p995
S'B-NP'
p996
g5
tp997
a(S'of'
p998
S'of'
p999
S'IN'
p1000
S'B-PP'
p1001
g5
tp1002
a(S'daily'
p1003
S'daily'
p1004
S'JJ'
p1005
S'B-NP'
p1006
g5
tp1007
a(S'living'
p1008
S'living'
p1009
S'NN'
p1010
S'I-NP'
p1011
g5
tp1012
a(S'and'
p1013
S'and'
p1014
S'CC'
p1015
S'I-NP'
p1016
g5
tp1017
a(S'sense'
p1018
S'sense'
p1019
S'NN'
p1020
S'I-NP'
p1021
g5
tp1022
a(S'of'
p1023
S'of'
p1024
S'IN'
p1025
S'B-PP'
p1026
g5
tp1027
a(S'memory'
p1028
S'memory'
p1029
S'NN'
p1030
S'B-NP'
p1031
g5
tp1032
a(S'self-efficacy'
p1033
S'self-efficacy'
p1034
S'NN'
p1035
S'I-NP'
p1036
g5
tp1037
a(S'for'
p1038
S'for'
p1039
S'IN'
p1040
S'B-PP'
p1041
g5
tp1042
a(S'individuals'
p1043
S'individual'
p1044
S'NNS'
p1045
S'B-NP'
p1046
g5
tp1047
a(S'with'
p1048
S'with'
p1049
S'IN'
p1050
S'B-PP'
p1051
g5
tp1052
a(S'MCI.'
p1053
S'MCI.'
p1054
S'NNP'
p1055
S'B-NP'
p1056
g5
tp1057
a(S'Although'
p1058
S'Although'
p1059
S'IN'
p1060
S'B-SBAR'
p1061
g5
tp1062
a(S'activities'
p1063
S'activity'
p1064
S'NNS'
p1065
S'B-NP'
p1066
g5
tp1067
a(S'of'
p1068
S'of'
p1069
S'IN'
p1070
S'B-PP'
p1071
g5
tp1072
a(S'daily'
p1073
S'daily'
p1074
S'JJ'
p1075
S'B-NP'
p1076
g5
tp1077
a(S'living'
p1078
S'living'
p1079
S'NN'
p1080
S'I-NP'
p1081
g5
tp1082
a(S'benefits'
p1083
S'benefit'
p1084
S'NNS'
p1085
S'I-NP'
p1086
g5
tp1087
a(S'were'
p1088
S'be'
p1089
S'VBD'
p1090
S'B-VP'
p1091
g5
tp1092
a(S'maintained'
p1093
S'maintain'
p1094
S'VBN'
p1095
S'I-VP'
p1096
g5
tp1097
a(S'out'
p1098
S'out'
p1099
S'RB'
p1100
S'B-ADVP'
p1101
g5
tp1102
a(S'to'
p1103
S'to'
p1104
S'TO'
p1105
S'B-PP'
p1106
g5
tp1107
a(g527
g527
S'CD'
p1108
S'B-NP'
p1109
g5
tp1110
a(S'weeks'
p1111
S'week'
p1112
S'NNS'
p1113
S'I-NP'
p1114
g5
tp1115
a(S'post'
p1116
S'post'
p1117
S'IN'
p1118
S'B-PP'
p1119
g5
tp1120
a(S'intervention'
p1121
S'intervention'
p1122
S'NN'
p1123
S'B-NP'
p1124
g5
tp1125
a(g237
g237
g237
g5
g5
tp1126
a(S'future'
p1127
S'future'
p1128
S'JJ'
p1129
S'B-NP'
p1130
g5
tp1131
a(S'inclusion'
p1132
S'inclusion'
p1133
S'NN'
p1134
S'I-NP'
p1135
g5
tp1136
a(S'of'
p1137
S'of'
p1138
S'IN'
p1139
S'B-PP'
p1140
g5
tp1141
a(S'booster'
p1142
S'booster'
p1143
S'NN'
p1144
S'B-NP'
p1145
g5
tp1146
a(S'sessions'
p1147
S'session'
p1148
S'NNS'
p1149
S'I-NP'
p1150
g5
tp1151
a(S'may'
p1152
S'may'
p1153
S'MD'
p1154
S'B-VP'
p1155
g5
tp1156
a(S'help'
p1157
S'help'
p1158
S'VB'
p1159
S'I-VP'
p1160
g5
tp1161
a(S'extend'
p1162
S'extend'
p1163
S'VB'
p1164
S'I-VP'
p1165
g5
tp1166
a(S'the'
p1167
S'the'
p1168
S'DT'
p1169
S'B-NP'
p1170
g5
tp1171
a(S'therapeutic'
p1172
S'therapeutic'
p1173
S'JJ'
p1174
S'I-NP'
p1175
g5
tp1176
a(S'effect'
p1177
S'effect'
p1178
S'NN'
p1179
S'I-NP'
p1180
g5
tp1181
a(S'out'
p1182
S'out'
p1183
S'IN'
p1184
S'B-PP'
p1185
g5
tp1186
a(S'even'
p1187
S'even'
p1188
S'RB'
p1189
S'B-NP'
p1190
g5
tp1191
a(S'further.'
p1192
S'further.'
p1193
S'RB'
p1194
S'I-NP'
p1195
g5
tp1196
a(S'Improved'
p1197
S'Improved'
p1198
S'JJ'
p1199
S'I-NP'
p1200
g5
tp1201
a(S'mood'
p1202
S'mood'
p1203
S'NN'
p1204
S'I-NP'
p1205
g5
tp1206
a(S'of'
p1207
S'of'
p1208
S'IN'
p1209
S'B-PP'
p1210
g5
tp1211
a(S'care'
p1212
S'care'
p1213
S'NN'
p1214
S'B-NP'
p1215
g5
tp1216
a(S'partners'
p1217
S'partner'
p1218
S'NNS'
p1219
S'I-NP'
p1220
g5
tp1221
a(S'of'
p1222
S'of'
p1223
S'IN'
p1224
S'B-PP'
p1225
g5
tp1226
a(S'trained'
p1227
S'trained'
p1228
S'JJ'
p1229
S'B-NP'
p1230
g5
tp1231
a(S'individuals'
p1232
S'individual'
p1233
S'NNS'
p1234
S'I-NP'
p1235
g5
tp1236
a(S'and'
p1237
S'and'
p1238
S'CC'
p1239
g5
g5
tp1240
a(S'worsening'
p1241
S'worsen'
p1242
S'VBG'
p1243
S'B-VP'
p1244
g5
tp1245
a(S'sense'
p1246
S'sense'
p1247
S'NN'
p1248
S'B-NP'
p1249
g5
tp1250
a(S'of'
p1251
S'of'
p1252
S'IN'
p1253
S'B-PP'
p1254
g5
tp1255
a(S'caregiver'
p1256
S'caregiver'
p1257
S'NN'
p1258
S'B-NP'
p1259
g5
tp1260
a(S'burden'
p1261
S'burden'
p1262
S'NN'
p1263
S'I-NP'
p1264
g5
tp1265
a(S'over'
p1266
S'over'
p1267
S'IN'
p1268
S'B-PP'
p1269
g5
tp1270
a(S'time'
p1271
S'time'
p1272
S'NN'
p1273
S'B-NP'
p1274
g5
tp1275
a(S'for'
p1276
S'for'
p1277
S'IN'
p1278
S'B-PP'
p1279
g5
tp1280
a(S'partners'
p1281
S'partner'
p1282
S'NNS'
p1283
S'B-NP'
p1284
g5
tp1285
a(S'of'
p1286
S'of'
p1287
S'IN'
p1288
S'B-PP'
p1289
g5
tp1290
a(S'untrained'
p1291
S'untrained'
p1292
S'JJ'
p1293
S'B-NP'
p1294
g5
tp1295
a(S'individuals'
p1296
S'individual'
p1297
S'NNS'
p1298
S'I-NP'
p1299
g5
tp1300
a(S'further'
p1301
S'further'
p1302
S'RB'
p1303
S'B-ADVP'
p1304
g5
tp1305
a(S'support'
p1306
S'support'
p1307
S'VBP'
p1308
S'B-VP'
p1309
g5
tp1310
a(S'the'
p1311
S'the'
p1312
S'DT'
p1313
S'B-NP'
p1314
g5
tp1315
a(S'efficacy'
p1316
S'efficacy'
p1317
S'NN'
p1318
S'I-NP'
p1319
g5
tp1320
a(S'of'
p1321
S'of'
p1322
S'IN'
p1323
S'B-PP'
p1324
g5
tp1325
a(S'the'
p1326
S'the'
p1327
S'DT'
p1328
S'B-NP'
p1329
g5
tp1330
a(S'MSS'
p1331
S'MSS'
p1332
S'NN'
p1333
S'I-NP'
p1334
g5
tp1335
a(S'for'
p1336
S'for'
p1337
S'IN'
p1338
S'B-PP'
p1339
g5
tp1340
a(S'MCI'
p1341
S'MCI'
p1342
S'NNP'
p1343
S'B-NP'
p1344
g5
tp1345
a(g78
g78
g78
g5
g5
tp1346
a.