(lp0
(S'OBJECTIVE'
p1
S'OBJECTIVE'
p2
S'NN'
p3
S'B-NP'
p4
S'O'
p5
tp6
a(S':'
p7
g7
g7
g5
g5
tp8
a(S'To'
p9
S'To'
p10
S'TO'
p11
S'B-VP'
p12
g5
tp13
a(S'quantify'
p14
S'quantify'
p15
S'VB'
p16
S'I-VP'
p17
g5
tp18
a(S'the'
p19
S'the'
p20
S'DT'
p21
S'B-NP'
p22
g5
tp23
a(S'psychological'
p24
S'psychological'
p25
S'JJ'
p26
S'I-NP'
p27
g5
tp28
a(S'impact'
p29
S'impact'
p30
S'NN'
p31
S'I-NP'
p32
g5
tp33
a(S'of'
p34
S'of'
p35
S'IN'
p36
S'B-PP'
p37
g5
tp38
a(S'primary'
p39
S'primary'
p40
S'JJ'
p41
S'B-NP'
p42
g5
tp43
a(S'care'
p44
S'care'
p45
S'NN'
p46
S'I-NP'
p47
g5
tp48
a(S'based'
p49
S'based'
p50
S'JJ'
p51
S'I-NP'
p52
g5
tp53
a(S'stepwise'
p54
S'stepwise'
p55
S'JJ'
p56
S'I-NP'
p57
g5
tp58
a(S'screening'
p59
S'screening'
p60
S'NN'
p61
S'I-NP'
p62
g5
tp63
a(S'for'
p64
S'for'
p65
S'IN'
p66
S'B-PP'
p67
g5
tp68
a(S'type'
p69
S'type'
p70
S'NN'
p71
S'B-NP'
p72
g5
tp73
a(S'2'
p74
g74
S'CD'
p75
S'I-NP'
p76
g5
tp77
a(S'diabetes.'
p78
S'diabetes.'
p79
S'NN'
p80
S'I-NP'
p81
g5
tp82
a(S'DESIGN'
p83
S'DESIGN'
p84
S'NN'
p85
S'B-NP'
p86
g5
tp87
a(g7
g7
g7
g5
g5
tp88
a(S'Controlled'
p89
S'Control'
p90
S'VBN'
p91
S'B-NP'
p92
g5
tp93
a(S'trial'
p94
S'trial'
p95
S'NN'
p96
S'I-NP'
p97
g5
tp98
a(S'and'
p99
S'and'
p100
S'CC'
p101
g5
g5
tp102
a(S'comparative'
p103
S'comparative'
p104
S'JJ'
p105
S'B-NP'
p106
g5
tp107
a(S'study'
p108
S'study'
p109
S'NN'
p110
S'I-NP'
p111
g5
tp112
a(S'embedded'
p113
S'embed'
p114
S'VBN'
p115
S'B-VP'
p116
g5
tp117
a(S'in'
p118
S'in'
p119
S'IN'
p120
S'B-PP'
p121
g5
tp122
a(S'a'
p123
g123
S'DT'
p124
S'B-NP'
p125
g5
tp126
a(S'randomised'
p127
S'randomise'
p128
S'VBN'
p129
S'I-NP'
p130
g5
tp131
a(S'controlled'
p132
S'control'
p133
S'VBN'
p134
S'I-NP'
p135
g5
tp136
a(S'trial.'
p137
S'trial.'
p138
S'NN'
p139
S'I-NP'
p140
g5
tp141
a(S'SETTING'
p142
S'SETTING'
p143
S'NN'
p144
S'B-NP'
p145
g5
tp146
a(g7
g7
g7
g5
g5
tp147
a(S'15'
p148
S'15'
p149
S'CD'
p150
S'B-NP'
p151
g5
tp152
a(S'practices'
p153
S'practice'
p154
S'NNS'
p155
S'I-NP'
p156
g5
tp157
a(S'('
p158
g158
g158
g5
g5
tp159
a(S'10'
p160
S'10'
p161
S'CD'
p162
S'B-NP'
p163
g5
tp164
a(S'screening'
p165
S'screening'
p166
S'NN'
p167
S'I-NP'
p168
g5
tp169
a(S','
p170
g170
g170
g5
g5
tp171
a(S'five'
p172
S'five'
p173
S'CD'
p174
S'B-NP'
p175
g5
tp176
a(S'control'
p177
S'control'
p178
S'NN'
p179
S'I-NP'
p180
g5
tp181
a(S')'
p182
g182
g182
g5
g5
tp183
a(S'in'
p184
S'in'
p185
S'IN'
p186
S'B-PP'
p187
g5
tp188
a(S'the'
p189
S'the'
p190
S'DT'
p191
S'B-NP'
p192
g5
tp193
a(S'ADDITION'
p194
S'ADDITION'
p195
S'NN'
p196
S'I-NP'
p197
g5
tp198
a(g158
g158
g158
g5
g5
tp199
a(S'Cambridge'
p200
S'Cambridge'
p201
S'NN'
p202
S'B-NP'
p203
g5
tp204
a(g182
g182
g182
g5
g5
tp205
a(S'trial'
p206
S'trial'
p207
S'NN'
p208
S'B-NP'
p209
g5
tp210
a(S'in'
p211
S'in'
p212
S'IN'
p213
S'B-PP'
p214
g5
tp215
a(S'the'
p216
S'the'
p217
S'DT'
p218
S'B-NP'
p219
g5
tp220
a(S'east'
p221
S'east'
p222
S'NN'
p223
S'I-NP'
p224
g5
tp225
a(S'of'
p226
S'of'
p227
S'IN'
p228
S'B-PP'
p229
g5
tp230
a(S'England.'
p231
S'England.'
p232
S'NNP'
p233
S'B-NP'
p234
g5
tp235
a(S'PARTICIPANTS'
p236
S'PARTICIPANTS'
p237
S'NNS'
p238
S'B-NP'
p239
g5
tp240
a(g7
g7
g7
g5
g5
tp241
a(S'7380'
p242
S'7380'
p243
S'CD'
p244
S'B-NP'
p245
g5
tp246
a(S'adults'
p247
S'adult'
p248
S'NNS'
p249
S'I-NP'
p250
g5
tp251
a(g158
g158
g158
g5
g5
tp252
a(S'aged'
p253
S'age'
p254
S'VBN'
p255
S'B-VP'
p256
g5
tp257
a(S'40-69'
p258
S'40-69'
p259
S'CD'
p260
S'B-NP'
p261
g5
tp262
a(g182
g182
g182
g5
g5
tp263
a(S'in'
p264
S'in'
p265
S'IN'
p266
S'B-PP'
p267
g5
tp268
a(S'the'
p269
S'the'
p270
S'DT'
p271
S'B-NP'
p272
g5
tp273
a(S'top'
p274
S'top'
p275
S'JJ'
p276
S'I-NP'
p277
g5
tp278
a(S'fourth'
p279
S'fourth'
p280
S'NN'
p281
S'I-NP'
p282
g5
tp283
a(S'for'
p284
S'for'
p285
S'IN'
p286
S'B-PP'
p287
g5
tp288
a(S'risk'
p289
S'risk'
p290
S'NN'
p291
S'B-NP'
p292
g5
tp293
a(S'of'
p294
S'of'
p295
S'IN'
p296
S'B-PP'
p297
g5
tp298
a(S'having'
p299
S'have'
p300
S'VBG'
p301
S'B-VP'
p302
g5
tp303
a(S'undiagnosed'
p304
S'undiagnosed'
p305
S'JJ'
p306
S'B-NP'
p307
g5
tp308
a(S'type'
p309
S'type'
p310
S'NN'
p311
S'I-NP'
p312
g5
tp313
a(g74
g74
S'CD'
p314
S'I-NP'
p315
g5
tp316
a(S'diabetes'
p317
S'diabete'
p318
S'NNS'
p319
S'I-NP'
p320
g5
tp321
a(g158
g158
g158
g5
g5
tp322
a(S'6416'
p323
S'6416'
p324
S'CD'
p325
S'B-NP'
p326
g5
tp327
a(S'invited'
p328
S'invite'
p329
S'VBN'
p330
S'B-VP'
p331
g5
tp332
a(S'for'
p333
S'for'
p334
S'IN'
p335
S'B-PP'
p336
g5
tp337
a(S'screening'
p338
S'screening'
p339
S'NN'
p340
S'B-NP'
p341
g5
tp342
a(g170
g170
g170
g5
g5
tp343
a(S'964'
p344
S'964'
p345
S'CD'
p346
S'B-NP'
p347
g5
tp348
a(S'controls'
p349
S'control'
p350
S'NNS'
p351
S'I-NP'
p352
g5
tp353
a(g182
g182
g182
g5
g5
tp354
a(S'.'
p355
g355
g355
g5
g5
tp356
a(S'INTERVENTIONS'
p357
S'INTERVENTIONS'
p358
S'NNS'
p359
S'B-NP'
p360
g5
tp361
a(g7
g7
g7
g5
g5
tp362
a(S'Invited'
p363
S'Invite'
p364
S'VBN'
p365
S'B-VP'
p366
g5
tp367
a(S'for'
p368
S'for'
p369
S'IN'
p370
S'B-PP'
p371
g5
tp372
a(S'screening'
p373
S'screening'
p374
S'NN'
p375
S'B-NP'
p376
g5
tp377
a(S'for'
p378
S'for'
p379
S'IN'
p380
S'B-PP'
p381
g5
tp382
a(S'type'
p383
S'type'
p384
S'NN'
p385
S'B-NP'
p386
g5
tp387
a(g74
g74
S'CD'
p388
S'I-NP'
p389
g5
tp390
a(S'diabetes'
p391
S'diabete'
p392
S'NNS'
p393
S'I-NP'
p394
g5
tp395
a(S'or'
p396
S'or'
p397
S'CC'
p398
g5
g5
tp399
a(S'not'
p400
S'not'
p401
S'RB'
p402
S'B-VP'
p403
g5
tp404
a(S'invited'
p405
S'invite'
p406
S'VBN'
p407
S'I-VP'
p408
g5
tp409
a(g158
g158
g158
g5
g5
tp410
a(S'controls'
p411
S'control'
p412
S'NNS'
p413
S'B-NP'
p414
g5
tp415
a(g182
g182
g182
g5
g5
tp416
a(g170
g170
g170
g5
g5
tp417
a(S'incorporating'
p418
S'incorporate'
p419
S'VBG'
p420
S'B-VP'
p421
g5
tp422
a(g123
g123
S'DT'
p423
S'B-NP'
p424
g5
tp425
a(S'comparative'
p426
S'comparative'
p427
S'JJ'
p428
S'I-NP'
p429
g5
tp430
a(S'study'
p431
S'study'
p432
S'NN'
p433
S'I-NP'
p434
g5
tp435
a(S'of'
p436
S'of'
p437
S'IN'
p438
S'B-PP'
p439
g5
tp440
a(S'subgroups'
p441
S'subgroup'
p442
S'NNS'
p443
S'B-NP'
p444
g5
tp445
a(S'of'
p446
S'of'
p447
S'IN'
p448
S'B-PP'
p449
g5
tp450
a(S'screening'
p451
S'screening'
p452
S'NN'
p453
S'B-NP'
p454
g5
tp455
a(S'attenders.'
p456
S'attenders.'
p457
S'NN'
p458
S'I-NP'
p459
g5
tp460
a(S'Attenders'
p461
S'Attender'
p462
S'NNS'
p463
S'B-NP'
p464
g5
tp465
a(S'completed'
p466
S'complete'
p467
S'VBD'
p468
S'B-VP'
p469
g5
tp470
a(S'questionnaires'
p471
S'questionnaire'
p472
S'NNS'
p473
S'B-NP'
p474
g5
tp475
a(S'after'
p476
S'after'
p477
S'IN'
p478
S'B-PP'
p479
g5
tp480
a(g123
g123
S'DT'
p481
S'B-NP'
p482
g5
tp483
a(S'random'
p484
S'random'
p485
S'JJ'
p486
S'I-NP'
p487
g5
tp488
a(S'blood'
p489
S'blood'
p490
S'NN'
p491
S'I-NP'
p492
g5
tp493
a(S'glucose'
p494
S'glucose'
p495
S'NN'
p496
S'I-NP'
p497
g5
tp498
a(S'test'
p499
S'test'
p500
S'NN'
p501
S'I-NP'
p502
g5
tp503
a(S'and'
p504
S'and'
p505
S'CC'
p506
S'B-PP'
p507
g5
tp508
a(S'at'
p509
S'at'
p510
S'IN'
p511
S'B-PP'
p512
g5
tp513
a(S'3-6'
p514
S'3-6'
p515
S'CD'
p516
S'B-NP'
p517
g5
tp518
a(S'months'
p519
S'month'
p520
S'NNS'
p521
S'I-NP'
p522
g5
tp523
a(S'and'
p524
S'and'
p525
S'CC'
p526
g5
g5
tp527
a(S'12-15'
p528
S'12-15'
p529
S'CD'
p530
S'B-NP'
p531
g5
tp532
a(S'months'
p533
S'month'
p534
S'NNS'
p535
S'I-NP'
p536
g5
tp537
a(S'later.'
p538
S'later.'
p539
S'RB'
p540
S'B-ADVP'
p541
g5
tp542
a(S'Controls'
p543
S'Control'
p544
S'NNS'
p545
S'B-NP'
p546
g5
tp547
a(S'were'
p548
S'be'
p549
S'VBD'
p550
S'B-VP'
p551
g5
tp552
a(S'sent'
p553
S'send'
p554
S'VBN'
p555
S'I-VP'
p556
g5
tp557
a(S'questionnaires'
p558
S'questionnaire'
p559
S'NNS'
p560
S'B-NP'
p561
g5
tp562
a(S'at'
p563
S'at'
p564
S'IN'
p565
S'B-PP'
p566
g5
tp567
a(S'corresponding'
p568
S'correspond'
p569
S'VBG'
p570
S'B-VP'
p571
g5
tp572
a(S'time'
p573
S'time'
p574
S'NN'
p575
S'B-NP'
p576
g5
tp577
a(S'points.'
p578
S'points.'
p579
S'NNS'
p580
S'I-NP'
p581
g5
tp582
a(S'Non-attenders'
p583
S'Non-attender'
p584
S'NNS'
p585
S'B-NP'
p586
g5
tp587
a(S'were'
p588
S'be'
p589
S'VBD'
p590
S'B-VP'
p591
g5
tp592
a(S'sent'
p593
S'send'
p594
S'VBN'
p595
S'I-VP'
p596
g5
tp597
a(S'questionnaires'
p598
S'questionnaire'
p599
S'NNS'
p600
S'B-NP'
p601
g5
tp602
a(S'at'
p603
S'at'
p604
S'IN'
p605
S'B-PP'
p606
g5
tp607
a(S'3-6'
p608
S'3-6'
p609
S'CD'
p610
S'B-NP'
p611
g5
tp612
a(S'months'
p613
S'month'
p614
S'NNS'
p615
S'I-NP'
p616
g5
tp617
a(S'and'
p618
S'and'
p619
S'CC'
p620
g5
g5
tp621
a(S'12-15'
p622
S'12-15'
p623
S'CD'
p624
S'B-NP'
p625
g5
tp626
a(S'months.'
p627
S'months.'
p628
S'NNS'
p629
S'I-NP'
p630
g5
tp631
a(S'MAIN'
p632
S'MAIN'
p633
S'NNP'
p634
S'B-NP'
p635
g5
tp636
a(S'OUTCOME'
p637
S'OUTCOME'
p638
S'NNP'
p639
S'I-NP'
p640
g5
tp641
a(S'MEASURES'
p642
S'MEASURES'
p643
S'NNP'
p644
S'I-NP'
p645
g5
tp646
a(g7
g7
g7
g5
g5
tp647
a(S'State'
p648
S'State'
p649
S'NN'
p650
S'B-NP'
p651
g5
tp652
a(S'anxiety'
p653
S'anxiety'
p654
S'NN'
p655
S'I-NP'
p656
g5
tp657
a(g158
g158
g158
g5
g5
tp658
a(S'Spielberger'
p659
S'Spielberger'
p660
S'NN'
p661
S'B-NP'
p662
g5
tp663
a(S'state'
p664
S'state'
p665
S'NN'
p666
S'I-NP'
p667
g5
tp668
a(S'anxiety'
p669
S'anxiety'
p670
S'NN'
p671
S'I-NP'
p672
g5
tp673
a(S'inventory'
p674
S'inventory'
p675
S'NN'
p676
S'I-NP'
p677
g5
tp678
a(g182
g182
g182
g5
g5
tp679
a(g170
g170
g170
g5
g5
tp680
a(S'anxiety'
p681
S'anxiety'
p682
S'NN'
p683
S'B-NP'
p684
g5
tp685
a(S'and'
p686
S'and'
p687
S'CC'
p688
g5
g5
tp689
a(S'depression'
p690
S'depression'
p691
S'NN'
p692
S'B-NP'
p693
g5
tp694
a(g158
g158
g158
g5
g5
tp695
a(S'hospital'
p696
S'hospital'
p697
S'NN'
p698
S'B-NP'
p699
g5
tp700
a(S'anxiety'
p701
S'anxiety'
p702
S'NN'
p703
S'I-NP'
p704
g5
tp705
a(S'and'
p706
S'and'
p707
S'CC'
p708
g5
g5
tp709
a(S'depression'
p710
S'depression'
p711
S'NN'
p712
S'B-NP'
p713
g5
tp714
a(S'scale'
p715
S'scale'
p716
S'NN'
p717
S'I-NP'
p718
g5
tp719
a(g182
g182
g182
g5
g5
tp720
a(g170
g170
g170
g5
g5
tp721
a(S'worry'
p722
S'worry'
p723
S'VBP'
p724
S'B-VP'
p725
g5
tp726
a(S'about'
p727
S'about'
p728
S'IN'
p729
S'B-PP'
p730
g5
tp731
a(S'diabetes'
p732
S'diabete'
p733
S'NNS'
p734
S'B-NP'
p735
g5
tp736
a(g170
g170
g170
g5
g5
tp737
a(S'and'
p738
S'and'
p739
S'CC'
p740
g5
g5
tp741
a(S'self'
p742
S'self'
p743
S'PRP'
p744
S'B-NP'
p745
g5
tp746
a(S'rated'
p747
S'rat'
p748
S'VBN'
p749
S'B-VP'
p750
g5
tp751
a(S'health.'
p752
S'health.'
p753
S'NN'
p754
S'B-NP'
p755
g5
tp756
a(S'RESULTS'
p757
S'RESULTS'
p758
S'NNS'
p759
S'B-NP'
p760
g5
tp761
a(g7
g7
g7
g5
g5
tp762
a(S'No'
p763
S'No'
p764
S'DT'
p765
S'B-NP'
p766
g5
tp767
a(S'significant'
p768
S'significant'
p769
S'JJ'
p770
S'I-NP'
p771
g5
tp772
a(S'differences'
p773
S'difference'
p774
S'NNS'
p775
S'I-NP'
p776
g5
tp777
a(S'were'
p778
S'be'
p779
S'VBD'
p780
S'B-VP'
p781
g5
tp782
a(S'found'
p783
S'find'
p784
S'VBN'
p785
S'I-VP'
p786
g5
tp787
a(S'between'
p788
S'between'
p789
S'IN'
p790
S'B-PP'
p791
g5
tp792
a(S'the'
p793
S'the'
p794
S'DT'
p795
S'B-NP'
p796
g5
tp797
a(S'screening'
p798
S'screening'
p799
S'NN'
p800
S'I-NP'
p801
g5
tp802
a(S'and'
p803
S'and'
p804
S'CC'
p805
S'I-NP'
p806
g5
tp807
a(S'control'
p808
S'control'
p809
S'NN'
p810
S'I-NP'
p811
g5
tp812
a(S'participants'
p813
S'participant'
p814
S'NNS'
p815
S'I-NP'
p816
g5
tp817
a(S'at'
p818
S'at'
p819
S'IN'
p820
S'B-PP'
p821
g5
tp822
a(S'any'
p823
S'any'
p824
S'DT'
p825
S'B-NP'
p826
g5
tp827
a(S'time-for'
p828
S'time-for'
p829
S'JJ'
p830
S'I-NP'
p831
g5
tp832
a(S'example'
p833
S'example'
p834
S'NN'
p835
S'I-NP'
p836
g5
tp837
a(g170
g170
g170
g5
g5
tp838
a(S'difference'
p839
S'difference'
p840
S'NN'
p841
S'B-NP'
p842
g5
tp843
a(S'in'
p844
S'in'
p845
S'IN'
p846
S'B-PP'
p847
g5
tp848
a(S'means'
p849
S'mean'
p850
S'NNS'
p851
S'B-NP'
p852
g5
tp853
a(g158
g158
g158
g5
g5
tp854
a(S'95'
p855
S'95'
p856
S'CD'
p857
S'B-NP'
p858
g5
tp859
a(S'%'
p860
g860
S'NN'
p861
S'I-NP'
p862
g5
tp863
a(S'confidence'
p864
S'confidence'
p865
S'NN'
p866
S'I-NP'
p867
g5
tp868
a(S'intervals'
p869
S'interval'
p870
S'NNS'
p871
S'I-NP'
p872
g5
tp873
a(g182
g182
g182
g5
g5
tp874
a(S'for'
p875
S'for'
p876
S'IN'
p877
S'B-PP'
p878
g5
tp879
a(S'state'
p880
S'state'
p881
S'NN'
p882
S'B-NP'
p883
g5
tp884
a(S'anxiety'
p885
S'anxiety'
p886
S'NN'
p887
S'I-NP'
p888
g5
tp889
a(S'after'
p890
S'after'
p891
S'IN'
p892
S'B-PP'
p893
g5
tp894
a(S'the'
p895
S'the'
p896
S'DT'
p897
S'B-NP'
p898
g5
tp899
a(S'initial'
p900
S'initial'
p901
S'JJ'
p902
S'I-NP'
p903
g5
tp904
a(S'blood'
p905
S'blood'
p906
S'NN'
p907
S'I-NP'
p908
g5
tp909
a(S'glucose'
p910
S'glucose'
p911
S'NN'
p912
S'I-NP'
p913
g5
tp914
a(S'test'
p915
S'test'
p916
S'NN'
p917
S'I-NP'
p918
g5
tp919
a(S'was'
p920
S'be'
p921
S'VBD'
p922
S'B-VP'
p923
g5
tp924
a(S'-0.53'
p925
S'-0.53'
p926
S'CD'
p927
S'B-NP'
p928
g5
tp929
a(g170
g170
g170
g5
g5
tp930
a(S'-2.60'
p931
S'-2.60'
p932
S'CD'
p933
S'B-NP'
p934
g5
tp935
a(S'to'
p936
S'to'
p937
S'TO'
p938
S'B-PP'
p939
g5
tp940
a(S'1.54'
p941
S'1.54'
p942
S'CD'
p943
S'B-NP'
p944
g5
tp945
a(g170
g170
g170
g5
g5
tp946
a(S'at'
p947
S'at'
p948
S'IN'
p949
S'B-PP'
p950
g5
tp951
a(S'3-6'
p952
S'3-6'
p953
S'CD'
p954
S'B-NP'
p955
g5
tp956
a(S'months'
p957
S'month'
p958
S'NNS'
p959
S'I-NP'
p960
g5
tp961
a(S'was'
p962
S'be'
p963
S'VBD'
p964
S'B-VP'
p965
g5
tp966
a(S'1.51'
p967
S'1.51'
p968
S'CD'
p969
S'B-NP'
p970
g5
tp971
a(g158
g158
g158
g5
g5
tp972
a(S'-0.17'
p973
S'-0.17'
p974
S'CD'
p975
S'B-NP'
p976
g5
tp977
a(S'to'
p978
S'to'
p979
S'TO'
p980
g5
g5
tp981
a(S'3.20'
p982
S'3.20'
p983
S'CD'
p984
S'B-NP'
p985
g5
tp986
a(g182
g182
g182
g5
g5
tp987
a(g170
g170
g170
g5
g5
tp988
a(S'and'
p989
S'and'
p990
S'CC'
p991
g5
g5
tp992
a(S'at'
p993
S'at'
p994
S'IN'
p995
S'B-PP'
p996
g5
tp997
a(S'12-15'
p998
S'12-15'
p999
S'CD'
p1000
S'B-NP'
p1001
g5
tp1002
a(S'months'
p1003
S'month'
p1004
S'NNS'
p1005
S'I-NP'
p1006
g5
tp1007
a(S'was'
p1008
S'be'
p1009
S'VBD'
p1010
S'B-VP'
p1011
g5
tp1012
a(S'0.57'
p1013
S'0.57'
p1014
S'CD'
p1015
S'B-NP'
p1016
g5
tp1017
a(g170
g170
g170
g5
g5
tp1018
a(S'-1.11'
p1019
S'-1.11'
p1020
S'CD'
p1021
S'B-NP'
p1022
g5
tp1023
a(S'to'
p1024
S'to'
p1025
S'TO'
p1026
S'B-PP'
p1027
g5
tp1028
a(S'2.24.'
p1029
S'2.24.'
p1030
S'CD'
p1031
S'B-NP'
p1032
g5
tp1033
a(S'After'
p1034
S'After'
p1035
S'IN'
p1036
S'B-PP'
p1037
g5
tp1038
a(S'the'
p1039
S'the'
p1040
S'DT'
p1041
S'B-NP'
p1042
g5
tp1043
a(S'initial'
p1044
S'initial'
p1045
S'JJ'
p1046
S'I-NP'
p1047
g5
tp1048
a(S'test'
p1049
S'test'
p1050
S'NN'
p1051
S'I-NP'
p1052
g5
tp1053
a(g170
g170
g170
g5
g5
tp1054
a(S'compared'
p1055
S'compare'
p1056
S'VBN'
p1057
S'B-PP'
p1058
g5
tp1059
a(S'with'
p1060
S'with'
p1061
S'IN'
p1062
S'B-PP'
p1063
g5
tp1064
a(S'participants'
p1065
S'participant'
p1066
S'NNS'
p1067
S'B-NP'
p1068
g5
tp1069
a(S'who'
p1070
S'who'
p1071
S'WP'
p1072
S'B-NP'
p1073
g5
tp1074
a(S'screened'
p1075
S'screen'
p1076
S'VBD'
p1077
S'B-VP'
p1078
g5
tp1079
a(S'negative'
p1080
S'negative'
p1081
S'JJ'
p1082
S'B-ADJP'
p1083
g5
tp1084
a(g170
g170
g170
g5
g5
tp1085
a(S'those'
p1086
S'those'
p1087
S'DT'
p1088
S'B-NP'
p1089
g5
tp1090
a(S'who'
p1091
S'who'
p1092
S'WP'
p1093
S'B-NP'
p1094
g5
tp1095
a(S'screened'
p1096
S'screen'
p1097
S'VBD'
p1098
S'B-VP'
p1099
g5
tp1100
a(S'positive'
p1101
S'positive'
p1102
S'JJ'
p1103
S'B-ADJP'
p1104
g5
tp1105
a(S'reported'
p1106
S'report'
p1107
S'VBD'
p1108
S'B-VP'
p1109
g5
tp1110
a(S'significantly'
p1111
S'significantly'
p1112
S'RB'
p1113
S'B-NP'
p1114
g5
tp1115
a(S'poorer'
p1116
S'poor'
p1117
S'JJR'
p1118
S'I-NP'
p1119
g5
tp1120
a(S'general'
p1121
S'general'
p1122
S'JJ'
p1123
S'I-NP'
p1124
g5
tp1125
a(S'health'
p1126
S'health'
p1127
S'NN'
p1128
S'I-NP'
p1129
g5
tp1130
a(g158
g158
g158
g5
g5
tp1131
a(S'difference'
p1132
S'difference'
p1133
S'NN'
p1134
S'B-NP'
p1135
g5
tp1136
a(S'in'
p1137
S'in'
p1138
S'IN'
p1139
S'B-PP'
p1140
g5
tp1141
a(S'means'
p1142
S'mean'
p1143
S'NNS'
p1144
S'B-NP'
p1145
g5
tp1146
a(S'-0.19'
p1147
S'-0.19'
p1148
S'CD'
p1149
S'B-NP'
p1150
g5
tp1151
a(g170
g170
g170
g5
g5
tp1152
a(S'-0.25'
p1153
S'-0.25'
p1154
S'CD'
p1155
S'B-NP'
p1156
g5
tp1157
a(S'to'
p1158
S'to'
p1159
S'TO'
p1160
S'B-PP'
p1161
g5
tp1162
a(S'-0.13'
p1163
S'-0.13'
p1164
S'CD'
p1165
S'B-NP'
p1166
g5
tp1167
a(g182
g182
g182
g5
g5
tp1168
a(g170
g170
g170
g5
g5
tp1169
a(S'higher'
p1170
S'high'
p1171
S'JJR'
p1172
S'B-NP'
p1173
g5
tp1174
a(S'state'
p1175
S'state'
p1176
S'NN'
p1177
S'I-NP'
p1178
g5
tp1179
a(S'anxiety'
p1180
S'anxiety'
p1181
S'NN'
p1182
S'I-NP'
p1183
g5
tp1184
a(g158
g158
g158
g5
g5
tp1185
a(S'0.93'
p1186
S'0.93'
p1187
S'CD'
p1188
S'B-NP'
p1189
g5
tp1190
a(g170
g170
g170
g5
g5
tp1191
a(S'-0.02'
p1192
S'-0.02'
p1193
S'CD'
p1194
S'B-NP'
p1195
g5
tp1196
a(S'to'
p1197
S'to'
p1198
S'TO'
p1199
S'B-PP'
p1200
g5
tp1201
a(S'1.88'
p1202
S'1.88'
p1203
S'CD'
p1204
S'B-NP'
p1205
g5
tp1206
a(g182
g182
g182
g5
g5
tp1207
a(g170
g170
g170
g5
g5
tp1208
a(S'higher'
p1209
S'high'
p1210
S'JJR'
p1211
S'B-NP'
p1212
g5
tp1213
a(S'depression'
p1214
S'depression'
p1215
S'NN'
p1216
S'I-NP'
p1217
g5
tp1218
a(g158
g158
g158
g5
g5
tp1219
a(S'0.32'
p1220
S'0.32'
p1221
S'CD'
p1222
S'B-NP'
p1223
g5
tp1224
a(g170
g170
g170
g5
g5
tp1225
a(S'0.08'
p1226
S'0.08'
p1227
S'CD'
p1228
S'B-NP'
p1229
g5
tp1230
a(S'to'
p1231
S'to'
p1232
S'TO'
p1233
S'B-PP'
p1234
g5
tp1235
a(S'0.56'
p1236
S'0.56'
p1237
S'CD'
p1238
S'B-NP'
p1239
g5
tp1240
a(g182
g182
g182
g5
g5
tp1241
a(g170
g170
g170
g5
g5
tp1242
a(S'and'
p1243
S'and'
p1244
S'CC'
p1245
g5
g5
tp1246
a(S'higher'
p1247
S'high'
p1248
S'JJR'
p1249
S'B-NP'
p1250
g5
tp1251
a(S'worry'
p1252
S'worry'
p1253
S'NN'
p1254
S'I-NP'
p1255
g5
tp1256
a(S'about'
p1257
S'about'
p1258
S'IN'
p1259
S'B-PP'
p1260
g5
tp1261
a(S'diabetes'
p1262
S'diabetes'
p1263
S'NN'
p1264
S'B-NP'
p1265
g5
tp1266
a(g158
g158
g158
g5
g5
tp1267
a(S'0.25'
p1268
S'0.25'
p1269
S'CD'
p1270
S'B-NP'
p1271
g5
tp1272
a(g170
g170
g170
g5
g5
tp1273
a(S'0.09'
p1274
S'0.09'
p1275
S'CD'
p1276
S'B-NP'
p1277
g5
tp1278
a(S'to'
p1279
S'to'
p1280
S'TO'
p1281
S'B-PP'
p1282
g5
tp1283
a(S'0.41'
p1284
S'0.41'
p1285
S'CD'
p1286
S'B-NP'
p1287
g5
tp1288
a(g182
g182
g182
g5
g5
tp1289
a(g170
g170
g170
g5
g5
tp1290
a(S'although'
p1291
S'although'
p1292
S'IN'
p1293
S'B-SBAR'
p1294
g5
tp1295
a(S'effect'
p1296
S'effect'
p1297
S'NN'
p1298
S'B-NP'
p1299
g5
tp1300
a(S'sizes'
p1301
S'size'
p1302
S'NNS'
p1303
S'I-NP'
p1304
g5
tp1305
a(S'were'
p1306
S'be'
p1307
S'VBD'
p1308
S'B-VP'
p1309
g5
tp1310
a(S'small.'
p1311
S'small.'
p1312
S'JJ'
p1313
S'B-ADJP'
p1314
g5
tp1315
a(S'Small'
p1316
S'Small'
p1317
S'JJ'
p1318
S'B-NP'
p1319
g5
tp1320
a(S'but'
p1321
S'but'
p1322
S'CC'
p1323
S'I-NP'
p1324
g5
tp1325
a(S'significant'
p1326
S'significant'
p1327
S'JJ'
p1328
S'I-NP'
p1329
g5
tp1330
a(S'trends'
p1331
S'trend'
p1332
S'NNS'
p1333
S'I-NP'
p1334
g5
tp1335
a(S'were'
p1336
S'be'
p1337
S'VBD'
p1338
S'B-VP'
p1339
g5
tp1340
a(S'found'
p1341
S'find'
p1342
S'VBN'
p1343
S'I-VP'
p1344
g5
tp1345
a(S'for'
p1346
S'for'
p1347
S'IN'
p1348
S'B-PP'
p1349
g5
tp1350
a(S'self'
p1351
S'self'
p1352
S'PRP'
p1353
S'B-NP'
p1354
g5
tp1355
a(S'rated'
p1356
S'rat'
p1357
S'VBN'
p1358
S'B-VP'
p1359
g5
tp1360
a(S'health'
p1361
S'health'
p1362
S'NN'
p1363
S'B-NP'
p1364
g5
tp1365
a(S'across'
p1366
S'across'
p1367
S'IN'
p1368
S'B-PP'
p1369
g5
tp1370
a(S'the'
p1371
S'the'
p1372
S'DT'
p1373
S'B-NP'
p1374
g5
tp1375
a(S'screening'
p1376
S'screening'
p1377
S'NN'
p1378
S'I-NP'
p1379
g5
tp1380
a(S'subgroups'
p1381
S'subgroup'
p1382
S'NNS'
p1383
S'I-NP'
p1384
g5
tp1385
a(S'at'
p1386
S'at'
p1387
S'IN'
p1388
S'B-PP'
p1389
g5
tp1390
a(S'3-6'
p1391
S'3-6'
p1392
S'CD'
p1393
S'B-NP'
p1394
g5
tp1395
a(S'months'
p1396
S'month'
p1397
S'NNS'
p1398
S'I-NP'
p1399
g5
tp1400
a(g158
g158
g158
g5
g5
tp1401
a(S'P=0.047'
p1402
S'P=0.047'
p1403
S'NN'
p1404
S'B-NP'
p1405
g5
tp1406
a(g182
g182
g182
g5
g5
tp1407
a(S'and'
p1408
S'and'
p1409
S'CC'
p1410
g5
g5
tp1411
a(S'for'
p1412
S'for'
p1413
S'IN'
p1414
S'B-PP'
p1415
g5
tp1416
a(S'worry'
p1417
S'worry'
p1418
S'NN'
p1419
S'B-NP'
p1420
g5
tp1421
a(S'about'
p1422
S'about'
p1423
S'IN'
p1424
S'B-PP'
p1425
g5
tp1426
a(S'diabetes'
p1427
S'diabete'
p1428
S'NNS'
p1429
S'B-NP'
p1430
g5
tp1431
a(S'across'
p1432
S'across'
p1433
S'IN'
p1434
S'B-PP'
p1435
g5
tp1436
a(S'the'
p1437
S'the'
p1438
S'DT'
p1439
S'B-NP'
p1440
g5
tp1441
a(S'screen'
p1442
S'screen'
p1443
S'NN'
p1444
S'I-NP'
p1445
g5
tp1446
a(S'negative'
p1447
S'negative'
p1448
S'JJ'
p1449
S'I-NP'
p1450
g5
tp1451
a(S'groups'
p1452
S'group'
p1453
S'NNS'
p1454
S'I-NP'
p1455
g5
tp1456
a(S'at'
p1457
S'at'
p1458
S'IN'
p1459
S'B-PP'
p1460
g5
tp1461
a(S'3-6'
p1462
S'3-6'
p1463
S'CD'
p1464
S'B-NP'
p1465
g5
tp1466
a(S'months'
p1467
S'month'
p1468
S'NNS'
p1469
S'I-NP'
p1470
g5
tp1471
a(S'and'
p1472
S'and'
p1473
S'CC'
p1474
g5
g5
tp1475
a(S'12-15'
p1476
S'12-15'
p1477
S'CD'
p1478
S'B-NP'
p1479
g5
tp1480
a(S'months'
p1481
S'month'
p1482
S'NNS'
p1483
S'I-NP'
p1484
g5
tp1485
a(g158
g158
g158
g5
g5
tp1486
a(S'P=0.001'
p1487
S'P=0.001'
p1488
S'NN'
p1489
S'B-NP'
p1490
g5
tp1491
a(g182
g182
g182
g5
g5
tp1492
a(g355
g355
g355
g5
g5
tp1493
a(S'CONCLUSIONS'
p1494
S'CONCLUSIONS'
p1495
S'NNS'
p1496
S'B-NP'
p1497
g5
tp1498
a(g7
g7
g7
g5
g5
tp1499
a(S'Screening'
p1500
S'Screening'
p1501
S'NN'
p1502
S'B-NP'
p1503
g5
tp1504
a(S'for'
p1505
S'for'
p1506
S'IN'
p1507
S'B-PP'
p1508
g5
tp1509
a(S'type'
p1510
S'type'
p1511
S'NN'
p1512
S'B-NP'
p1513
g5
tp1514
a(g74
g74
S'CD'
p1515
S'I-NP'
p1516
g5
tp1517
a(S'diabetes'
p1518
S'diabetes'
p1519
S'NN'
p1520
S'I-NP'
p1521
g5
tp1522
a(S'has'
p1523
S'have'
p1524
S'VBZ'
p1525
S'B-VP'
p1526
g5
tp1527
a(S'limited'
p1528
S'limit'
p1529
S'VBN'
p1530
S'I-VP'
p1531
g5
tp1532
a(S'psychological'
p1533
S'psychological'
p1534
S'JJ'
p1535
S'B-NP'
p1536
g5
tp1537
a(S'impact'
p1538
S'impact'
p1539
S'NN'
p1540
S'I-NP'
p1541
g5
tp1542
a(S'on'
p1543
S'on'
p1544
S'IN'
p1545
S'B-PP'
p1546
g5
tp1547
a(S'patients.'
p1548
S'patients.'
p1549
S'NN'
p1550
S'B-NP'
p1551
g5
tp1552
a(S'Implementing'
p1553
S'Implement'
p1554
S'VBG'
p1555
S'B-VP'
p1556
g5
tp1557
a(g123
g123
S'DT'
p1558
S'B-NP'
p1559
g5
tp1560
a(S'national'
p1561
S'national'
p1562
S'JJ'
p1563
S'I-NP'
p1564
g5
tp1565
a(S'screening'
p1566
S'screening'
p1567
S'NN'
p1568
S'I-NP'
p1569
g5
tp1570
a(S'programme'
p1571
S'programme'
p1572
S'NN'
p1573
S'I-NP'
p1574
g5
tp1575
a(S'based'
p1576
S'base'
p1577
S'VBN'
p1578
S'B-VP'
p1579
g5
tp1580
a(S'on'
p1581
S'on'
p1582
S'IN'
p1583
S'B-PP'
p1584
g5
tp1585
a(S'the'
p1586
S'the'
p1587
S'DT'
p1588
S'B-NP'
p1589
g5
tp1590
a(S'stepwise'
p1591
S'stepwise'
p1592
S'JJ'
p1593
S'I-NP'
p1594
g5
tp1595
a(S'screening'
p1596
S'screening'
p1597
S'NN'
p1598
S'I-NP'
p1599
g5
tp1600
a(S'procedure'
p1601
S'procedure'
p1602
S'NN'
p1603
S'I-NP'
p1604
g5
tp1605
a(S'used'
p1606
S'use'
p1607
S'VBN'
p1608
S'B-VP'
p1609
g5
tp1610
a(S'in'
p1611
S'in'
p1612
S'IN'
p1613
S'B-PP'
p1614
g5
tp1615
a(S'the'
p1616
S'the'
p1617
S'DT'
p1618
S'B-NP'
p1619
g5
tp1620
a(S'ADDITION'
p1621
S'ADDITION'
p1622
S'NN'
p1623
S'I-NP'
p1624
g5
tp1625
a(g158
g158
g158
g5
g5
tp1626
a(S'Cambridge'
p1627
S'Cambridge'
p1628
S'NN'
p1629
S'B-NP'
p1630
g5
tp1631
a(g182
g182
g182
g5
g5
tp1632
a(S'trial'
p1633
S'trial'
p1634
S'NN'
p1635
S'B-NP'
p1636
g5
tp1637
a(S'is'
p1638
S'be'
p1639
S'VBZ'
p1640
S'B-VP'
p1641
g5
tp1642
a(S'unlikely'
p1643
S'unlikely'
p1644
S'JJ'
p1645
S'B-ADJP'
p1646
g5
tp1647
a(S'to'
p1648
S'to'
p1649
S'TO'
p1650
S'B-VP'
p1651
g5
tp1652
a(S'have'
p1653
S'have'
p1654
S'VB'
p1655
S'I-VP'
p1656
g5
tp1657
a(S'significant'
p1658
S'significant'
p1659
S'JJ'
p1660
S'B-NP'
p1661
g5
tp1662
a(S'consequences'
p1663
S'consequence'
p1664
S'NNS'
p1665
S'I-NP'
p1666
g5
tp1667
a(S'for'
p1668
S'for'
p1669
S'IN'
p1670
S'B-PP'
p1671
g5
tp1672
a(S'patients'
p1673
S'patient'
p1674
S'NNS'
p1675
S'B-NP'
p1676
g5
tp1677
a(S"'"
p1678
g1678
S'POS'
p1679
S'B-NP'
p1680
g5
tp1681
a(S'psychological'
p1682
S'psychological'
p1683
S'JJ'
p1684
S'I-NP'
p1685
g5
tp1686
a(S'health.'
p1687
S'health.'
p1688
S'NN'
p1689
S'I-NP'
p1690
g5
tp1691
a(S'TRIAL'
p1692
S'TRIAL'
p1693
S'NN'
p1694
S'B-NP'
p1695
g5
tp1696
a(S'REGISTRATION'
p1697
S'REGISTRATION'
p1698
S'NN'
p1699
S'I-NP'
p1700
g5
tp1701
a(g7
g7
g7
g5
g5
tp1702
a(S'Current'
p1703
S'Current'
p1704
S'NNP'
p1705
S'B-NP'
p1706
g5
tp1707
a(S'Controlled'
p1708
S'Controlled'
p1709
S'NNP'
p1710
S'I-NP'
p1711
g5
tp1712
a(S'Trials'
p1713
S'Trial'
p1714
S'NNPS'
p1715
S'I-NP'
p1716
g5
tp1717
a(S'ISRCTN99175498'
p1718
S'ISRCTN99175498'
p1719
S'NN'
p1720
S'I-NP'
p1721
g5
tp1722
a(S'['
p1723
g1723
g158
g5
g5
tp1724
a(S'controlled-trials.com'
p1725
S'controlled-trials.com'
p1726
S'NN'
p1727
S'B-NP'
p1728
g5
tp1729
a(S']'
p1730
g1730
g182
g5
g5
tp1731
a(g355
g355
g355
g5
g5
tp1732
a.