(lp0
(S'Gastric'
p1
S'Gastric'
p2
S'JJ'
p3
S'B-NP'
p4
S'O'
p5
tp6
a(S'contents'
p7
S'content'
p8
S'NNS'
p9
S'I-NP'
p10
g5
tp11
a(S'and'
p12
S'and'
p13
S'CC'
p14
g5
g5
tp15
a(S'pH'
p16
S'pH'
p17
S'NN'
p18
S'B-NP'
p19
g5
tp20
a(S'after'
p21
S'after'
p22
S'IN'
p23
S'B-PP'
p24
g5
tp25
a(S'oral'
p26
S'oral'
p27
S'JJ'
p28
S'B-NP'
p29
g5
tp30
a(S'premedication'
p31
S'premedication'
p32
S'NN'
p33
S'I-NP'
p34
g5
tp35
a(S'.'
p36
g36
g36
g5
g5
tp37
a(S'Forty'
p38
S'Forty'
p39
S'CD'
p40
S'B-NP'
p41
g5
tp42
a(S'women'
p43
S'woman'
p44
S'NNS'
p45
S'I-NP'
p46
g5
tp47
a(S','
p48
g48
g48
g5
g5
tp49
a(S'aged'
p50
S'age'
p51
S'VBN'
p52
S'B-VP'
p53
g5
tp54
a(S'26-40'
p55
S'26-40'
p56
S'CD'
p57
S'B-NP'
p58
g5
tp59
a(S'years'
p60
S'year'
p61
S'NNS'
p62
S'I-NP'
p63
g5
tp64
a(g48
g48
g48
g5
g5
tp65
a(S'were'
p66
S'be'
p67
S'VBD'
p68
S'B-VP'
p69
g5
tp70
a(S'investigated'
p71
S'investigate'
p72
S'VBN'
p73
S'I-VP'
p74
g5
tp75
a(S'with'
p76
S'with'
p77
S'IN'
p78
S'B-PP'
p79
g5
tp80
a(S'regard'
p81
S'regard'
p82
S'NN'
p83
S'B-NP'
p84
g5
tp85
a(S'to'
p86
S'to'
p87
S'TO'
p88
S'B-PP'
p89
g5
tp90
a(S'gastric'
p91
S'gastric'
p92
S'JJ'
p93
S'B-NP'
p94
g5
tp95
a(S'contents'
p96
S'content'
p97
S'NNS'
p98
S'I-NP'
p99
g5
tp100
a(S'and'
p101
S'and'
p102
S'CC'
p103
g5
g5
tp104
a(S'pH'
p105
S'pH'
p106
S'NN'
p107
S'B-NP'
p108
g5
tp109
a(S'before'
p110
S'before'
p111
S'IN'
p112
S'B-PP'
p113
g5
tp114
a(S'general'
p115
S'general'
p116
S'JJ'
p117
S'B-NP'
p118
g5
tp119
a(S'anaesthesia.'
p120
S'anaesthesia.'
p121
S'NN'
p122
S'I-NP'
p123
g5
tp124
a(S'The'
p125
S'The'
p126
S'DT'
p127
S'B-NP'
p128
g5
tp129
a(S'patients'
p130
S'patient'
p131
S'NNS'
p132
S'I-NP'
p133
g5
tp134
a(S'were'
p135
S'be'
p136
S'VBD'
p137
S'B-VP'
p138
g5
tp139
a(S'divided'
p140
S'divide'
p141
S'VBN'
p142
S'I-VP'
p143
g5
tp144
a(S'into'
p145
S'into'
p146
S'IN'
p147
S'B-PP'
p148
g5
tp149
a(S'two'
p150
S'two'
p151
S'CD'
p152
S'B-NP'
p153
g5
tp154
a(S'groups'
p155
S'group'
p156
S'NNS'
p157
S'I-NP'
p158
g5
tp159
a(S'('
p160
g160
g160
g5
g5
tp161
a(S'20'
p162
S'20'
p163
S'CD'
p164
S'B-NP'
p165
g5
tp166
a(S'in'
p167
S'in'
p168
S'IN'
p169
S'B-PP'
p170
g5
tp171
a(S'each'
p172
S'each'
p173
S'DT'
p174
S'B-NP'
p175
g5
tp176
a(S')'
p177
g177
g177
g5
g5
tp178
a(g36
g36
g36
g5
g5
tp179
a(S'Group'
p180
S'Group'
p181
S'NN'
p182
S'B-NP'
p183
S'B-protein'
p184
tp185
a(S'100'
p186
S'100'
p187
S'CD'
p188
S'I-NP'
p189
S'I-protein'
p190
tp191
a(S'received'
p192
S'receive'
p193
S'VBD'
p194
S'B-VP'
p195
g5
tp196
a(S'0.3'
p197
S'0.3'
p198
S'CD'
p199
S'B-NP'
p200
g5
tp201
a(S'mg'
p202
S'mg'
p203
S'NN'
p204
S'I-NP'
p205
g5
tp206
a(S'kg-1'
p207
S'kg-1'
p208
S'NN'
p209
S'I-NP'
p210
g5
tp211
a(S'diazepam'
p212
S'diazepam'
p213
S'NN'
p214
S'I-NP'
p215
g5
tp216
a(S'orally'
p217
S'orally'
p218
S'RB'
p219
S'B-ADVP'
p220
g5
tp221
a(S'with'
p222
S'with'
p223
S'IN'
p224
S'B-PP'
p225
g5
tp226
a(S'100'
p227
S'100'
p228
S'CD'
p229
S'B-NP'
p230
g5
tp231
a(S'ml'
p232
S'ml'
p233
S'NN'
p234
S'I-NP'
p235
g5
tp236
a(S'of'
p237
S'of'
p238
S'IN'
p239
S'B-PP'
p240
g5
tp241
a(S'water'
p242
S'water'
p243
S'NN'
p244
S'B-NP'
p245
g5
tp246
a(S'2'
p247
g247
S'CD'
p248
S'I-NP'
p249
g5
tp250
a(S'h'
p251
g251
S'NN'
p252
S'I-NP'
p253
g5
tp254
a(S'before'
p255
S'before'
p256
S'IN'
p257
S'B-PP'
p258
g5
tp259
a(S'surgery.'
p260
S'surgery.'
p261
S'NN'
p262
S'B-NP'
p263
g5
tp264
a(S'Group'
p265
S'Group'
p266
S'NN'
p267
S'I-NP'
p268
g5
tp269
a(S'50'
p270
S'50'
p271
S'CD'
p272
S'I-NP'
p273
g5
tp274
a(S'received'
p275
S'receive'
p276
S'VBD'
p277
S'B-VP'
p278
g5
tp279
a(S'0.3'
p280
S'0.3'
p281
S'CD'
p282
S'B-NP'
p283
g5
tp284
a(S'mg'
p285
S'mg'
p286
S'NN'
p287
S'I-NP'
p288
g5
tp289
a(S'kg-1'
p290
S'kg-1'
p291
S'NN'
p292
S'I-NP'
p293
g5
tp294
a(S'diazepam'
p295
S'diazepam'
p296
S'NN'
p297
S'I-NP'
p298
g5
tp299
a(S'with'
p300
S'with'
p301
S'IN'
p302
S'B-PP'
p303
g5
tp304
a(S'50'
p305
S'50'
p306
S'CD'
p307
S'B-NP'
p308
g5
tp309
a(S'ml'
p310
S'ml'
p311
S'NN'
p312
S'I-NP'
p313
g5
tp314
a(S'of'
p315
S'of'
p316
S'IN'
p317
S'B-PP'
p318
g5
tp319
a(S'water'
p320
S'water'
p321
S'NN'
p322
S'B-NP'
p323
g5
tp324
a(g247
g247
S'CD'
p325
S'I-NP'
p326
g5
tp327
a(g251
g251
S'NN'
p328
S'I-NP'
p329
g5
tp330
a(S'before'
p331
S'before'
p332
S'IN'
p333
S'B-PP'
p334
g5
tp335
a(S'surgery.'
p336
S'surgery.'
p337
S'NN'
p338
S'B-NP'
p339
g5
tp340
a(S'The'
p341
S'The'
p342
S'DT'
p343
S'B-NP'
p344
g5
tp345
a(S'amount'
p346
S'amount'
p347
S'NN'
p348
S'I-NP'
p349
g5
tp350
a(S'of'
p351
S'of'
p352
S'IN'
p353
S'B-PP'
p354
g5
tp355
a(S'gastric'
p356
S'gastric'
p357
S'JJ'
p358
S'B-NP'
p359
g5
tp360
a(S'content'
p361
S'content'
p362
S'NN'
p363
S'I-NP'
p364
g5
tp365
a(S'was'
p366
S'be'
p367
S'VBD'
p368
S'B-VP'
p369
g5
tp370
a(S'significantly'
p371
S'significantly'
p372
S'RB'
p373
S'B-ADJP'
p374
g5
tp375
a(S'greater'
p376
S'great'
p377
S'JJR'
p378
S'I-ADJP'
p379
g5
tp380
a(S'in'
p381
S'in'
p382
S'IN'
p383
S'B-PP'
p384
g5
tp385
a(S'Group'
p386
S'Group'
p387
S'NN'
p388
S'B-NP'
p389
g5
tp390
a(S'100'
p391
S'100'
p392
S'CD'
p393
S'I-NP'
p394
g5
tp395
a(S'than'
p396
S'than'
p397
S'IN'
p398
S'B-PP'
p399
g5
tp400
a(S'in'
p401
S'in'
p402
S'IN'
p403
S'B-PP'
p404
g5
tp405
a(S'Group'
p406
S'Group'
p407
S'NN'
p408
S'B-NP'
p409
g5
tp410
a(S'50'
p411
S'50'
p412
S'CD'
p413
S'I-NP'
p414
g5
tp415
a(g160
g160
g160
g5
g5
tp416
a(S'P'
p417
g417
S'NN'
p418
S'B-NP'
p419
g5
tp420
a(S'less'
p421
S'less'
p422
S'JJR'
p423
S'B-ADJP'
p424
g5
tp425
a(S'than'
p426
S'than'
p427
S'IN'
p428
S'B-PP'
p429
g5
tp430
a(S'0.05'
p431
S'0.05'
p432
S'CD'
p433
S'B-NP'
p434
g5
tp435
a(g177
g177
g177
g5
g5
tp436
a(g36
g36
g36
g5
g5
tp437
a(S'There'
p438
S'There'
p439
S'EX'
p440
S'B-NP'
p441
g5
tp442
a(S'was'
p443
S'be'
p444
S'VBD'
p445
S'B-VP'
p446
g5
tp447
a(S'no'
p448
S'no'
p449
S'DT'
p450
S'B-NP'
p451
g5
tp452
a(S'statistical'
p453
S'statistical'
p454
S'JJ'
p455
S'I-NP'
p456
g5
tp457
a(S'difference'
p458
S'difference'
p459
S'NN'
p460
S'I-NP'
p461
g5
tp462
a(S'in'
p463
S'in'
p464
S'IN'
p465
S'B-PP'
p466
g5
tp467
a(S'pH'
p468
S'pH'
p469
S'NN'
p470
S'B-NP'
p471
g5
tp472
a(S'values'
p473
S'value'
p474
S'NNS'
p475
S'I-NP'
p476
g5
tp477
a(S'between'
p478
S'between'
p479
S'IN'
p480
S'B-PP'
p481
g5
tp482
a(S'the'
p483
S'the'
p484
S'DT'
p485
S'B-NP'
p486
g5
tp487
a(S'groups.'
p488
S'groups.'
p489
S'NN'
p490
S'I-NP'
p491
g5
tp492
a(S'The'
p493
S'The'
p494
S'DT'
p495
S'B-NP'
p496
g5
tp497
a(S'number'
p498
S'number'
p499
S'NN'
p500
S'I-NP'
p501
g5
tp502
a(S'of'
p503
S'of'
p504
S'IN'
p505
S'B-PP'
p506
g5
tp507
a(S'patients'
p508
S'patient'
p509
S'NNS'
p510
S'B-NP'
p511
g5
tp512
a(S'with'
p513
S'with'
p514
S'IN'
p515
S'B-PP'
p516
g5
tp517
a(S'both'
p518
S'both'
p519
S'DT'
p520
S'B-NP'
p521
g5
tp522
a(S'gastric'
p523
S'gastric'
p524
S'JJ'
p525
S'I-NP'
p526
g5
tp527
a(S'pH'
p528
S'pH'
p529
S'NN'
p530
S'I-NP'
p531
g5
tp532
a(S'less'
p533
S'less'
p534
S'JJR'
p535
S'B-NP'
p536
g5
tp537
a(S'than'
p538
S'than'
p539
S'IN'
p540
S'I-NP'
p541
g5
tp542
a(S'2.5'
p543
S'2.5'
p544
S'CD'
p545
S'I-NP'
p546
g5
tp547
a(S'and'
p548
S'and'
p549
S'CC'
p550
g5
g5
tp551
a(S'gastric'
p552
S'gastric'
p553
S'JJ'
p554
S'B-NP'
p555
g5
tp556
a(S'volume'
p557
S'volume'
p558
S'NN'
p559
S'I-NP'
p560
g5
tp561
a(S'greater'
p562
S'great'
p563
S'JJR'
p564
S'B-NP'
p565
g5
tp566
a(S'than'
p567
S'than'
p568
S'IN'
p569
S'I-NP'
p570
g5
tp571
a(S'25'
p572
S'25'
p573
S'CD'
p574
S'I-NP'
p575
g5
tp576
a(S'ml'
p577
S'ml'
p578
S'NN'
p579
S'I-NP'
p580
g5
tp581
a(S'was'
p582
S'be'
p583
S'VBD'
p584
S'B-VP'
p585
g5
tp586
a(S'significantly'
p587
S'significantly'
p588
S'RB'
p589
S'B-ADJP'
p590
g5
tp591
a(S'higher'
p592
S'high'
p593
S'JJR'
p594
S'I-ADJP'
p595
g5
tp596
a(S'in'
p597
S'in'
p598
S'IN'
p599
S'B-PP'
p600
g5
tp601
a(S'Group'
p602
S'Group'
p603
S'NN'
p604
S'B-NP'
p605
g5
tp606
a(S'100'
p607
S'100'
p608
S'CD'
p609
S'I-NP'
p610
g5
tp611
a(S'compared'
p612
S'compare'
p613
S'VBN'
p614
S'B-VP'
p615
g5
tp616
a(S'to'
p617
S'to'
p618
S'TO'
p619
S'B-PP'
p620
g5
tp621
a(S'Group'
p622
S'Group'
p623
S'NN'
p624
S'B-NP'
p625
g5
tp626
a(S'50'
p627
S'50'
p628
S'CD'
p629
S'I-NP'
p630
g5
tp631
a(g160
g160
g160
g5
g5
tp632
a(g417
g417
S'NN'
p633
S'B-NP'
p634
g5
tp635
a(S'less'
p636
S'less'
p637
S'JJR'
p638
S'B-ADJP'
p639
g5
tp640
a(S'than'
p641
S'than'
p642
S'IN'
p643
S'B-PP'
p644
g5
tp645
a(S'0.05'
p646
S'0.05'
p647
S'CD'
p648
S'B-NP'
p649
g5
tp650
a(g177
g177
g177
g5
g5
tp651
a(g36
g36
g36
g5
g5
tp652
a(S'We'
p653
S'We'
p654
S'PRP'
p655
S'B-NP'
p656
g5
tp657
a(S'can'
p658
S'can'
p659
S'MD'
p660
S'B-VP'
p661
g5
tp662
a(S'not'
p663
S'not'
p664
S'RB'
p665
S'I-VP'
p666
g5
tp667
a(S'recommend'
p668
S'recommend'
p669
S'VB'
p670
S'I-VP'
p671
g5
tp672
a(S'the'
p673
S'the'
p674
S'DT'
p675
S'B-NP'
p676
g5
tp677
a(S'use'
p678
S'use'
p679
S'NN'
p680
S'I-NP'
p681
g5
tp682
a(S'of'
p683
S'of'
p684
S'IN'
p685
S'B-PP'
p686
g5
tp687
a(S'oral'
p688
S'oral'
p689
S'JJ'
p690
S'B-NP'
p691
g5
tp692
a(S'premedication'
p693
S'premedication'
p694
S'NN'
p695
S'I-NP'
p696
g5
tp697
a(S'using'
p698
S'use'
p699
S'VBG'
p700
S'B-VP'
p701
g5
tp702
a(S'these'
p703
S'these'
p704
S'DT'
p705
S'B-NP'
p706
g5
tp707
a(S'amounts'
p708
S'amount'
p709
S'NNS'
p710
S'I-NP'
p711
g5
tp712
a(S'of'
p713
S'of'
p714
S'IN'
p715
S'B-PP'
p716
g5
tp717
a(S'water'
p718
S'water'
p719
S'NN'
p720
S'B-NP'
p721
g5
tp722
a(g48
g48
g48
g5
g5
tp723
a(S'considering'
p724
S'consider'
p725
S'VBG'
p726
S'B-PP'
p727
g5
tp728
a(S'the'
p729
S'the'
p730
S'DT'
p731
S'B-NP'
p732
g5
tp733
a(S'increased'
p734
S'increase'
p735
S'VBN'
p736
S'I-NP'
p737
g5
tp738
a(S'risk'
p739
S'risk'
p740
S'NN'
p741
S'I-NP'
p742
g5
tp743
a(S'of'
p744
S'of'
p745
S'IN'
p746
S'B-PP'
p747
g5
tp748
a(S'aspiration'
p749
S'aspiration'
p750
S'NN'
p751
S'B-NP'
p752
g5
tp753
a(S'of'
p754
S'of'
p755
S'IN'
p756
S'B-PP'
p757
g5
tp758
a(S'gastric'
p759
S'gastric'
p760
S'JJ'
p761
S'B-NP'
p762
g5
tp763
a(S'contents'
p764
S'content'
p765
S'NNS'
p766
S'I-NP'
p767
g5
tp768
a(g36
g36
g36
g5
g5
tp769
a.