(lp0
(S'['
p1
g1
S'('
p2
S'O'
p3
g3
tp4
a(S'Limbal'
p5
S'Limbal'
p6
S'JJ'
p7
S'B-NP'
p8
g3
tp9
a(S'epithelial'
p10
S'epithelial'
p11
S'JJ'
p12
S'I-NP'
p13
g3
tp14
a(S'autograft'
p15
S'autograft'
p16
S'NN'
p17
S'I-NP'
p18
g3
tp19
a(S'transplantation'
p20
S'transplantation'
p21
S'NN'
p22
S'I-NP'
p23
g3
tp24
a(S'in'
p25
S'in'
p26
S'IN'
p27
S'B-PP'
p28
g3
tp29
a(S'treatment'
p30
S'treatment'
p31
S'NN'
p32
S'B-NP'
p33
g3
tp34
a(S'of'
p35
S'of'
p36
S'IN'
p37
S'B-PP'
p38
g3
tp39
a(S'pterygium'
p40
S'pterygium'
p41
S'NN'
p42
S'B-NP'
p43
g3
tp44
a(S']'
p45
g45
S')'
p46
g3
g3
tp47
a(S'.'
p48
g48
g48
g3
g3
tp49
a(S'OBJECTIVE'
p50
S'OBJECTIVE'
p51
S'NN'
p52
S'B-NP'
p53
g3
tp54
a(S'To'
p55
S'To'
p56
S'TO'
p57
S'B-VP'
p58
g3
tp59
a(S'observe'
p60
S'observe'
p61
S'VB'
p62
S'I-VP'
p63
g3
tp64
a(S'the'
p65
S'the'
p66
S'DT'
p67
S'B-NP'
p68
g3
tp69
a(S'therapeutic'
p70
S'therapeutic'
p71
S'JJ'
p72
S'I-NP'
p73
g3
tp74
a(S'effects'
p75
S'effect'
p76
S'NNS'
p77
S'I-NP'
p78
g3
tp79
a(S'of'
p80
S'of'
p81
S'IN'
p82
S'B-PP'
p83
g3
tp84
a(S'limbal'
p85
S'limbal'
p86
S'JJ'
p87
S'B-NP'
p88
g3
tp89
a(S'epithelial'
p90
S'epithelial'
p91
S'JJ'
p92
S'I-NP'
p93
g3
tp94
a(S'autograft'
p95
S'autograft'
p96
S'NN'
p97
S'I-NP'
p98
g3
tp99
a(S'transplantation'
p100
S'transplantation'
p101
S'NN'
p102
S'I-NP'
p103
g3
tp104
a(S'and'
p105
S'and'
p106
S'CC'
p107
g3
g3
tp108
a(S'pterygium'
p109
S'pterygium'
p110
S'NN'
p111
S'B-NP'
p112
g3
tp113
a(S'excision'
p114
S'excision'
p115
S'NN'
p116
S'I-NP'
p117
g3
tp118
a(S'in'
p119
S'in'
p120
S'IN'
p121
S'B-PP'
p122
g3
tp123
a(S'the'
p124
S'the'
p125
S'DT'
p126
S'B-NP'
p127
g3
tp128
a(S'treatment'
p129
S'treatment'
p130
S'NN'
p131
S'I-NP'
p132
g3
tp133
a(S'of'
p134
S'of'
p135
S'IN'
p136
S'B-PP'
p137
g3
tp138
a(S'pterygium'
p139
S'pterygium'
p140
S'NN'
p141
S'B-NP'
p142
g3
tp143
a(g48
g48
g48
g3
g3
tp144
a(S'METHODS'
p145
S'METHODS'
p146
S'NNS'
p147
S'B-NP'
p148
g3
tp149
a(S'A'
p150
g150
S'DT'
p151
S'B-NP'
p152
g3
tp153
a(S'prospective'
p154
S'prospective'
p155
S'JJ'
p156
S'I-NP'
p157
g3
tp158
a(S'randomized'
p159
S'randomize'
p160
S'VBN'
p161
S'I-NP'
p162
g3
tp163
a(S'paired-eye'
p164
S'paired-eye'
p165
S'NN'
p166
S'I-NP'
p167
g3
tp168
a(S'trial'
p169
S'trial'
p170
S'NN'
p171
S'I-NP'
p172
g3
tp173
a(S'was'
p174
S'be'
p175
S'VBD'
p176
S'B-VP'
p177
g3
tp178
a(S'studied.'
p179
S'studied.'
p180
S'VBN'
p181
S'I-VP'
p182
g3
tp183
a(S'There'
p184
S'There'
p185
S'EX'
p186
S'B-NP'
p187
g3
tp188
a(S'were'
p189
S'be'
p190
S'VBD'
p191
S'B-VP'
p192
g3
tp193
a(S'208'
p194
S'208'
p195
S'CD'
p196
S'B-NP'
p197
g3
tp198
a(S'patients'
p199
S'patient'
p200
S'NNS'
p201
S'I-NP'
p202
g3
tp203
a(g2
g2
g2
g3
g3
tp204
a(S'229'
p205
S'229'
p206
S'CD'
p207
S'B-NP'
p208
g3
tp209
a(S'eyes'
p210
S'eye'
p211
S'NNS'
p212
S'I-NP'
p213
g3
tp214
a(g46
g46
g46
g3
g3
tp215
a(S'with'
p216
S'with'
p217
S'IN'
p218
S'B-PP'
p219
g3
tp220
a(S'initial'
p221
S'initial'
p222
S'JJ'
p223
S'B-NP'
p224
g3
tp225
a(S'pterygium'
p226
S'pterygium'
p227
S'NN'
p228
S'I-NP'
p229
g3
tp230
a(S','
p231
g231
g231
g3
g3
tp232
a(S'and'
p233
S'and'
p234
S'CC'
p235
g3
g3
tp236
a(S'they'
p237
S'they'
p238
S'PRP'
p239
S'B-NP'
p240
g3
tp241
a(S'were'
p242
S'be'
p243
S'VBD'
p244
S'B-VP'
p245
g3
tp246
a(S'allocated'
p247
S'allocate'
p248
S'VBN'
p249
S'I-VP'
p250
g3
tp251
a(S'to'
p252
S'to'
p253
S'TO'
p254
S'B-PP'
p255
g3
tp256
a(S'two'
p257
S'two'
p258
S'CD'
p259
S'B-NP'
p260
g3
tp261
a(S'groups'
p262
S'group'
p263
S'NNS'
p264
S'I-NP'
p265
g3
tp266
a(S':'
p267
g267
g267
g3
g3
tp268
a(S'excision'
p269
S'excision'
p270
S'NN'
p271
S'B-NP'
p272
g3
tp273
a(S'of'
p274
S'of'
p275
S'IN'
p276
S'B-PP'
p277
g3
tp278
a(S'pterygium'
p279
S'pterygium'
p280
S'NN'
p281
S'B-NP'
p282
g3
tp283
a(S'with'
p284
S'with'
p285
S'IN'
p286
S'B-PP'
p287
g3
tp288
a(S'limbal'
p289
S'limbal'
p290
S'JJ'
p291
S'B-NP'
p292
g3
tp293
a(S'epithelial'
p294
S'epithelial'
p295
S'JJ'
p296
S'I-NP'
p297
g3
tp298
a(S'autograft'
p299
S'autograft'
p300
S'NN'
p301
S'I-NP'
p302
g3
tp303
a(S'transplantation'
p304
S'transplantation'
p305
S'NN'
p306
S'I-NP'
p307
g3
tp308
a(S'surgery'
p309
S'surgery'
p310
S'NN'
p311
S'I-NP'
p312
g3
tp313
a(g2
g2
g2
S'I-NP'
p314
g3
tp315
a(g150
g150
S'NN'
p316
S'I-NP'
p317
g3
tp318
a(S'group'
p319
S'group'
p320
S'NN'
p321
S'I-NP'
p322
g3
tp323
a(g231
g231
g231
g3
g3
tp324
a(S'106'
p325
S'106'
p326
S'CD'
p327
S'B-NP'
p328
g3
tp329
a(S'cases'
p330
S'case'
p331
S'NNS'
p332
S'I-NP'
p333
g3
tp334
a(S'and'
p335
S'and'
p336
S'CC'
p337
g3
g3
tp338
a(S'124'
p339
S'124'
p340
S'CD'
p341
S'B-NP'
p342
g3
tp343
a(S'eyes'
p344
S'eye'
p345
S'NNS'
p346
S'I-NP'
p347
g3
tp348
a(g46
g46
g46
g3
g3
tp349
a(S'and'
p350
S'and'
p351
S'CC'
p352
g3
g3
tp353
a(S'simple'
p354
S'simple'
p355
S'JJ'
p356
S'B-NP'
p357
g3
tp358
a(S'pterygium'
p359
S'pterygium'
p360
S'NN'
p361
S'I-NP'
p362
g3
tp363
a(S'excision'
p364
S'excision'
p365
S'NN'
p366
S'I-NP'
p367
g3
tp368
a(g2
g2
g2
g3
g3
tp369
a(S'B'
p370
g370
S'NN'
p371
S'B-NP'
p372
g3
tp373
a(S'group'
p374
S'group'
p375
S'NN'
p376
S'I-NP'
p377
g3
tp378
a(g231
g231
g231
g3
g3
tp379
a(S'102'
p380
S'102'
p381
S'CD'
p382
S'B-NP'
p383
g3
tp384
a(S'cases'
p385
S'case'
p386
S'NNS'
p387
S'I-NP'
p388
g3
tp389
a(S'and'
p390
S'and'
p391
S'CC'
p392
g3
g3
tp393
a(S'105'
p394
S'105'
p395
S'CD'
p396
S'B-NP'
p397
g3
tp398
a(S'eyes'
p399
S'eye'
p400
S'NNS'
p401
S'I-NP'
p402
g3
tp403
a(g46
g46
g46
g3
g3
tp404
a(g48
g48
g48
g3
g3
tp405
a(S'The'
p406
S'The'
p407
S'DT'
p408
S'B-NP'
p409
g3
tp410
a(S'criteria'
p411
S'criterion'
p412
S'NNS'
p413
S'I-NP'
p414
g3
tp415
a(S'for'
p416
S'for'
p417
S'IN'
p418
S'B-PP'
p419
g3
tp420
a(S'recovery'
p421
S'recovery'
p422
S'NN'
p423
S'B-NP'
p424
g3
tp425
a(S'were'
p426
S'be'
p427
S'VBD'
p428
S'B-VP'
p429
g3
tp430
a(S'corneal'
p431
S'corneal'
p432
S'JJ'
p433
S'B-NP'
p434
g3
tp435
a(S'transparency'
p436
S'transparency'
p437
S'NN'
p438
S'I-NP'
p439
g3
tp440
a(S'with'
p441
S'with'
p442
S'IN'
p443
S'B-PP'
p444
g3
tp445
a(S'stable'
p446
S'stable'
p447
S'JJ'
p448
S'B-NP'
p449
g3
tp450
a(S'epithelial'
p451
S'epithelial'
p452
S'JJ'
p453
S'I-NP'
p454
g3
tp455
a(S'healing'
p456
S'healing'
p457
S'NN'
p458
S'I-NP'
p459
g3
tp460
a(S'and'
p461
S'and'
p462
S'CC'
p463
g3
g3
tp464
a(S'no'
p465
S'no'
p466
S'DT'
p467
S'B-NP'
p468
g3
tp469
a(S'abnormal'
p470
S'abnormal'
p471
S'JJ'
p472
S'I-NP'
p473
g3
tp474
a(S'proliferation'
p475
S'proliferation'
p476
S'NN'
p477
S'I-NP'
p478
g3
tp479
a(S'of'
p480
S'of'
p481
S'IN'
p482
S'B-PP'
p483
g3
tp484
a(S'pterygium-like'
p485
S'pterygium-like'
p486
S'JJ'
p487
S'B-NP'
p488
g3
tp489
a(S'tissue.'
p490
S'tissue.'
p491
S'NN'
p492
S'I-NP'
p493
g3
tp494
a(S'The'
p495
S'The'
p496
S'DT'
p497
S'B-NP'
p498
g3
tp499
a(S'post-operative'
p500
S'post-operative'
p501
S'JJ'
p502
S'I-NP'
p503
g3
tp504
a(S'follow-up'
p505
S'follow-up'
p506
S'JJ'
p507
S'I-NP'
p508
g3
tp509
a(S'periods'
p510
S'period'
p511
S'NNS'
p512
S'I-NP'
p513
g3
tp514
a(S'ranged'
p515
S'range'
p516
S'VBD'
p517
S'B-VP'
p518
g3
tp519
a(S'from'
p520
S'from'
p521
S'IN'
p522
S'B-PP'
p523
g3
tp524
a(S'18'
p525
S'18'
p526
S'CD'
p527
S'B-NP'
p528
g3
tp529
a(S'approximately'
p530
S'approximately'
p531
S'RB'
p532
S'I-NP'
p533
g3
tp534
a(S'28'
p535
S'28'
p536
S'CD'
p537
S'I-NP'
p538
g3
tp539
a(g2
g2
g2
g3
g3
tp540
a(S'22.4'
p541
S'22.4'
p542
S'CD'
p543
S'B-NP'
p544
g3
tp545
a(S'+/-'
p546
S'+/-'
p547
S'CC'
p548
S'I-NP'
p549
g3
tp550
a(S'4.9'
p551
S'4.9'
p552
S'CD'
p553
S'I-NP'
p554
g3
tp555
a(g46
g46
g46
g3
g3
tp556
a(S'months'
p557
S'month'
p558
S'NNS'
p559
S'B-NP'
p560
g3
tp561
a(g48
g48
g48
g3
g3
tp562
a(S'RESULTS'
p563
S'RESULTS'
p564
S'NNS'
p565
S'B-NP'
p566
g3
tp567
a(S'Some'
p568
S'Some'
p569
S'DT'
p570
S'B-NP'
p571
g3
tp572
a(S'of'
p573
S'of'
p574
S'IN'
p575
S'B-PP'
p576
g3
tp577
a(S'the'
p578
S'the'
p579
S'DT'
p580
S'B-NP'
p581
g3
tp582
a(S'patients'
p583
S'patient'
p584
S'NNS'
p585
S'I-NP'
p586
g3
tp587
a(S'lost'
p588
S'lose'
p589
S'VBD'
p590
S'B-VP'
p591
g3
tp592
a(S'follow-up.'
p593
S'follow-up.'
p594
S'JJ'
p595
S'B-ADJP'
p596
g3
tp597
a(S'In'
p598
S'In'
p599
S'IN'
p600
S'B-PP'
p601
g3
tp602
a(S'the'
p603
S'the'
p604
S'DT'
p605
S'B-NP'
p606
g3
tp607
a(S'eyes'
p608
S'eye'
p609
S'NNS'
p610
S'I-NP'
p611
g3
tp612
a(S'followed'
p613
S'follow'
p614
S'VBD'
p615
S'B-VP'
p616
g3
tp617
a(S'up'
p618
S'up'
p619
S'RP'
p620
S'B-PRT'
p621
g3
tp622
a(g231
g231
g231
g3
g3
tp623
a(S'5'
p624
g624
S'CD'
p625
S'B-NP'
p626
g3
tp627
a(S'of'
p628
S'of'
p629
S'IN'
p630
S'B-PP'
p631
g3
tp632
a(S'11'
p633
S'11'
p634
S'CD'
p635
S'B-NP'
p636
g3
tp637
a(S'2'
p638
g638
S'CD'
p639
S'I-NP'
p640
g3
tp641
a(S'eyes'
p642
S'eye'
p643
S'NNS'
p644
S'I-NP'
p645
g3
tp646
a(g2
g2
g2
g3
g3
tp647
a(S'4.5'
p648
S'4.5'
p649
S'CD'
p650
S'B-NP'
p651
g3
tp652
a(S'%'
p653
g653
S'NN'
p654
S'I-NP'
p655
g3
tp656
a(g46
g46
g46
g3
g3
tp657
a(S'in'
p658
S'in'
p659
S'IN'
p660
S'B-PP'
p661
g3
tp662
a(g150
g150
S'NN'
p663
S'B-NP'
p664
g3
tp665
a(S'group'
p666
S'group'
p667
S'NN'
p668
S'I-NP'
p669
g3
tp670
a(S'and'
p671
S'and'
p672
S'CC'
p673
g3
g3
tp674
a(S'41'
p675
S'41'
p676
S'CD'
p677
S'B-NP'
p678
g3
tp679
a(S'of'
p680
S'of'
p681
S'IN'
p682
S'B-PP'
p683
g3
tp684
a(S'96'
p685
S'96'
p686
S'CD'
p687
S'B-NP'
p688
g3
tp689
a(S'eyes'
p690
S'eye'
p691
S'NNS'
p692
S'I-NP'
p693
g3
tp694
a(g2
g2
g2
g3
g3
tp695
a(S'42.7'
p696
S'42.7'
p697
S'CD'
p698
S'B-NP'
p699
g3
tp700
a(g653
g653
S'NN'
p701
S'I-NP'
p702
g3
tp703
a(g46
g46
g46
g3
g3
tp704
a(S'in'
p705
S'in'
p706
S'IN'
p707
S'B-PP'
p708
g3
tp709
a(g370
g370
S'NN'
p710
S'B-NP'
p711
g3
tp712
a(S'group'
p713
S'group'
p714
S'NN'
p715
S'I-NP'
p716
g3
tp717
a(S'were'
p718
S'be'
p719
S'VBD'
p720
S'B-VP'
p721
g3
tp722
a(S'recurred'
p723
S'recur'
p724
S'VBN'
p725
S'I-VP'
p726
g3
tp727
a(g231
g231
g231
g3
g3
tp728
a(S'the'
p729
S'the'
p730
S'DT'
p731
S'B-NP'
p732
g3
tp733
a(S'difference'
p734
S'difference'
p735
S'NN'
p736
S'I-NP'
p737
g3
tp738
a(S'being'
p739
S'be'
p740
S'VBG'
p741
S'B-VP'
p742
g3
tp743
a(S'very'
p744
S'very'
p745
S'RB'
p746
S'B-ADJP'
p747
g3
tp748
a(S'significant'
p749
S'significant'
p750
S'JJ'
p751
S'I-ADJP'
p752
g3
tp753
a(g2
g2
g2
g3
g3
tp754
a(S'P'
p755
g755
S'NN'
p756
S'B-NP'
p757
g3
tp758
a(S'<'
p759
g759
S'SYM'
p760
g3
g3
tp761
a(S'0.001'
p762
S'0.001'
p763
S'CD'
p764
S'B-NP'
p765
g3
tp766
a(g46
g46
g46
g3
g3
tp767
a(g48
g48
g48
g3
g3
tp768
a(S'CONCLUSION'
p769
S'CONCLUSION'
p770
S'NN'
p771
S'B-NP'
p772
g3
tp773
a(S'To'
p774
S'To'
p775
S'TO'
p776
S'B-VP'
p777
g3
tp778
a(S'provide'
p779
S'provide'
p780
S'VB'
p781
S'I-VP'
p782
g3
tp783
a(S'a'
p784
g784
S'DT'
p785
S'B-NP'
p786
g3
tp787
a(S'new'
p788
S'new'
p789
S'JJ'
p790
S'I-NP'
p791
g3
tp792
a(S'stem'
p793
S'stem'
p794
S'NN'
p795
S'I-NP'
p796
g3
tp797
a(S'cell'
p798
S'cell'
p799
S'NN'
p800
S'I-NP'
p801
g3
tp802
a(S'source'
p803
S'source'
p804
S'NN'
p805
S'I-NP'
p806
g3
tp807
a(g231
g231
g231
g3
g3
tp808
a(S'limbal'
p809
S'limbal'
p810
S'JJ'
p811
S'B-NP'
p812
g3
tp813
a(S'epithelial'
p814
S'epithelial'
p815
S'JJ'
p816
S'I-NP'
p817
g3
tp818
a(S'autograft'
p819
S'autograft'
p820
S'NN'
p821
S'I-NP'
p822
g3
tp823
a(S'transplantation'
p824
S'transplantation'
p825
S'NN'
p826
S'I-NP'
p827
g3
tp828
a(g231
g231
g231
g3
g3
tp829
a(S'for'
p830
S'for'
p831
S'IN'
p832
S'B-PP'
p833
g3
tp834
a(S'an'
p835
S'an'
p836
S'DT'
p837
S'B-NP'
p838
g3
tp839
a(S'injured'
p840
S'injured'
p841
S'JJ'
p842
S'I-NP'
p843
g3
tp844
a(S'limb'
p845
S'limb'
p846
S'NN'
p847
S'I-NP'
p848
g3
tp849
a(S'us'
p850
S'us'
p851
S'PRP'
p852
S'B-NP'
p853
g3
tp854
a(S'is'
p855
S'be'
p856
S'VBZ'
p857
S'B-VP'
p858
g3
tp859
a(g784
g784
S'DT'
p860
S'B-NP'
p861
g3
tp862
a(S'reasonable'
p863
S'reasonable'
p864
S'JJ'
p865
S'I-NP'
p866
g3
tp867
a(S'therapeutic'
p868
S'therapeutic'
p869
S'JJ'
p870
S'I-NP'
p871
g3
tp872
a(S'method'
p873
S'method'
p874
S'NN'
p875
S'I-NP'
p876
g3
tp877
a(S'for'
p878
S'for'
p879
S'IN'
p880
S'B-PP'
p881
g3
tp882
a(S'the'
p883
S'the'
p884
S'DT'
p885
S'B-NP'
p886
g3
tp887
a(S'treatment'
p888
S'treatment'
p889
S'NN'
p890
S'I-NP'
p891
g3
tp892
a(S'of'
p893
S'of'
p894
S'IN'
p895
S'B-PP'
p896
g3
tp897
a(S'pterygium'
p898
S'pterygium'
p899
S'NN'
p900
S'B-NP'
p901
g3
tp902
a(g48
g48
g48
g3
g3
tp903
a.