(lp0
(S'Effects'
p1
S'Effect'
p2
S'NNS'
p3
S'B-NP'
p4
S'O'
p5
tp6
a(S'of'
p7
S'of'
p8
S'IN'
p9
S'B-PP'
p10
g5
tp11
a(S'two'
p12
S'two'
p13
S'CD'
p14
S'B-NP'
p15
g5
tp16
a(S'types'
p17
S'type'
p18
S'NNS'
p19
S'I-NP'
p20
g5
tp21
a(S'of'
p22
S'of'
p23
S'IN'
p24
S'B-PP'
p25
g5
tp26
a(S'social'
p27
S'social'
p28
S'JJ'
p29
S'B-NP'
p30
g5
tp31
a(S'support'
p32
S'support'
p33
S'NN'
p34
S'I-NP'
p35
g5
tp36
a(S'and'
p37
S'and'
p38
S'CC'
p39
S'I-NP'
p40
g5
tp41
a(S'education'
p42
S'education'
p43
S'NN'
p44
S'I-NP'
p45
g5
tp46
a(S'on'
p47
S'on'
p48
S'IN'
p49
S'B-PP'
p50
g5
tp51
a(S'adaptation'
p52
S'adaptation'
p53
S'NN'
p54
S'B-NP'
p55
g5
tp56
a(S'to'
p57
S'to'
p58
S'TO'
p59
S'B-PP'
p60
g5
tp61
a(S'early-stage'
p62
S'early-stage'
p63
S'JJ'
p64
S'B-NP'
p65
g5
tp66
a(S'breast'
p67
S'breast'
p68
S'NN'
p69
S'I-NP'
p70
g5
tp71
a(S'cancer'
p72
S'cancer'
p73
S'NN'
p74
S'I-NP'
p75
g5
tp76
a(S'.'
p77
g77
g77
g5
g5
tp78
a(S'A'
p79
g79
S'DT'
p80
S'B-NP'
p81
g5
tp82
a(S'Roy'
p83
S'Roy'
p84
S'NNP'
p85
S'I-NP'
p86
g5
tp87
a(S'adaptation'
p88
S'adaptation'
p89
S'NN'
p90
S'I-NP'
p91
g5
tp92
a(S'model-based'
p93
S'model-based'
p94
S'JJ'
p95
S'I-NP'
p96
g5
tp97
a(S'support'
p98
S'support'
p99
S'NN'
p100
S'I-NP'
p101
g5
tp102
a(S'and'
p103
S'and'
p104
S'CC'
p105
S'I-NP'
p106
g5
tp107
a(S'education'
p108
S'education'
p109
S'NN'
p110
S'I-NP'
p111
g5
tp112
a(S'intervention'
p113
S'intervention'
p114
S'NN'
p115
S'I-NP'
p116
g5
tp117
a(S'for'
p118
S'for'
p119
S'IN'
p120
S'B-PP'
p121
g5
tp122
a(S'women'
p123
S'woman'
p124
S'NNS'
p125
S'B-NP'
p126
g5
tp127
a(S'with'
p128
S'with'
p129
S'IN'
p130
S'B-PP'
p131
g5
tp132
a(S'early-stage'
p133
S'early-stage'
p134
S'JJ'
p135
S'B-NP'
p136
g5
tp137
a(S'breast'
p138
S'breast'
p139
S'NN'
p140
S'I-NP'
p141
g5
tp142
a(S'cancer'
p143
S'cancer'
p144
S'NN'
p145
S'I-NP'
p146
g5
tp147
a(S'was'
p148
S'be'
p149
S'VBD'
p150
S'B-VP'
p151
g5
tp152
a(S'tested'
p153
S'test'
p154
S'VBN'
p155
S'I-VP'
p156
g5
tp157
a(S'in'
p158
S'in'
p159
S'IN'
p160
S'B-PP'
p161
g5
tp162
a(S'a'
p163
g163
S'DT'
p164
S'B-NP'
p165
g5
tp166
a(S'three-group'
p167
S'three-group'
p168
S'JJ'
p169
S'I-NP'
p170
g5
tp171
a(S','
p172
g172
g172
S'I-NP'
p173
g5
tp174
a(S'three-phase'
p175
S'three-phase'
p176
S'JJ'
p177
S'I-NP'
p178
g5
tp179
a(S'randomized'
p180
S'randomize'
p181
S'VBN'
p182
S'I-NP'
p183
g5
tp184
a(S'clinical'
p185
S'clinical'
p186
S'JJ'
p187
S'I-NP'
p188
g5
tp189
a(S'trial'
p190
S'trial'
p191
S'NN'
p192
S'I-NP'
p193
g5
tp194
a(S'of'
p195
S'of'
p196
S'IN'
p197
S'B-PP'
p198
g5
tp199
a(g163
g163
S'DT'
p200
S'B-NP'
p201
g5
tp202
a(S'sample'
p203
S'sample'
p204
S'NN'
p205
S'I-NP'
p206
g5
tp207
a(S'of'
p208
S'of'
p209
S'IN'
p210
S'B-PP'
p211
g5
tp212
a(S'125'
p213
S'125'
p214
S'CD'
p215
S'B-NP'
p216
g5
tp217
a(S'women.'
p218
S'women.'
p219
S'NN'
p220
S'I-NP'
p221
g5
tp222
a(S'The'
p223
S'The'
p224
S'DT'
p225
S'B-NP'
p226
g5
tp227
a(S'experimental'
p228
S'experimental'
p229
S'JJ'
p230
S'I-NP'
p231
g5
tp232
a(S'group'
p233
S'group'
p234
S'NN'
p235
S'I-NP'
p236
g5
tp237
a(S'received'
p238
S'receive'
p239
S'VBD'
p240
S'B-VP'
p241
g5
tp242
a(S'13'
p243
S'13'
p244
S'CD'
p245
S'B-NP'
p246
g5
tp247
a(S'months'
p248
S'month'
p249
S'NNS'
p250
S'I-NP'
p251
g5
tp252
a(S'of'
p253
S'of'
p254
S'IN'
p255
S'B-PP'
p256
g5
tp257
a(S'combined'
p258
S'combined'
p259
S'JJ'
p260
S'B-NP'
p261
g5
tp262
a(S'individual'
p263
S'individual'
p264
S'JJ'
p265
S'I-NP'
p266
g5
tp267
a(S'telephone'
p268
S'telephone'
p269
S'NN'
p270
S'I-NP'
p271
g5
tp272
a(S'and'
p273
S'and'
p274
S'CC'
p275
S'I-NP'
p276
g5
tp277
a(S'in-person'
p278
S'in-person'
p279
S'JJ'
p280
S'I-NP'
p281
g5
tp282
a(S'group'
p283
S'group'
p284
S'NN'
p285
S'I-NP'
p286
g5
tp287
a(S'support'
p288
S'support'
p289
S'NN'
p290
S'I-NP'
p291
g5
tp292
a(S'and'
p293
S'and'
p294
S'CC'
p295
S'I-NP'
p296
g5
tp297
a(S'education'
p298
S'education'
p299
S'NN'
p300
S'I-NP'
p301
g5
tp302
a(g172
g172
g172
g5
g5
tp303
a(S'Control'
p304
S'Control'
p305
S'NNP'
p306
S'B-NP'
p307
g5
tp308
a(S'Group'
p309
S'Group'
p310
S'NNP'
p311
S'I-NP'
p312
g5
tp313
a(S'1'
p314
g314
S'CD'
p315
S'I-NP'
p316
g5
tp317
a(S'received'
p318
S'receive'
p319
S'VBD'
p320
S'B-VP'
p321
g5
tp322
a(S'13'
p323
S'13'
p324
S'CD'
p325
S'B-NP'
p326
g5
tp327
a(S'months'
p328
S'month'
p329
S'NNS'
p330
S'I-NP'
p331
g5
tp332
a(S'of'
p333
S'of'
p334
S'IN'
p335
S'B-PP'
p336
g5
tp337
a(S'telephone-only'
p338
S'telephone-only'
p339
S'JJ'
p340
S'B-NP'
p341
g5
tp342
a(S'individual'
p343
S'individual'
p344
S'JJ'
p345
S'I-NP'
p346
g5
tp347
a(S'support'
p348
S'support'
p349
S'NN'
p350
S'I-NP'
p351
g5
tp352
a(S'and'
p353
S'and'
p354
S'CC'
p355
S'I-NP'
p356
g5
tp357
a(S'education'
p358
S'education'
p359
S'NN'
p360
S'I-NP'
p361
g5
tp362
a(g172
g172
g172
g5
g5
tp363
a(S'and'
p364
S'and'
p365
S'CC'
p366
g5
g5
tp367
a(S'Control'
p368
S'Control'
p369
S'NNP'
p370
S'B-NP'
p371
g5
tp372
a(S'Group'
p373
S'Group'
p374
S'NNP'
p375
S'I-NP'
p376
g5
tp377
a(S'2'
p378
g378
S'CD'
p379
S'I-NP'
p380
g5
tp381
a(S'received'
p382
S'receive'
p383
S'VBD'
p384
S'B-VP'
p385
g5
tp386
a(S'one-time'
p387
S'one-time'
p388
S'JJ'
p389
S'B-NP'
p390
g5
tp391
a(S'mailed'
p392
S'mailed'
p393
S'JJ'
p394
S'I-NP'
p395
g5
tp396
a(S'educational'
p397
S'educational'
p398
S'JJ'
p399
S'I-NP'
p400
g5
tp401
a(S'information.'
p402
S'information.'
p403
S'NN'
p404
S'I-NP'
p405
g5
tp406
a(S'The'
p407
S'The'
p408
S'DT'
p409
S'B-NP'
p410
g5
tp411
a(S'experimental'
p412
S'experimental'
p413
S'JJ'
p414
S'I-NP'
p415
g5
tp416
a(S'group'
p417
S'group'
p418
S'NN'
p419
S'I-NP'
p420
g5
tp421
a(S'and'
p422
S'and'
p423
S'CC'
p424
g5
g5
tp425
a(S'Control'
p426
S'Control'
p427
S'NNP'
p428
S'B-NP'
p429
g5
tp430
a(S'Group'
p431
S'Group'
p432
S'NNP'
p433
S'I-NP'
p434
g5
tp435
a(g314
g314
S'CD'
p436
S'I-NP'
p437
g5
tp438
a(S'reported'
p439
S'report'
p440
S'VBD'
p441
S'B-VP'
p442
g5
tp443
a(S'less'
p444
S'less'
p445
S'RBR'
p446
S'B-NP'
p447
g5
tp448
a(S'mood'
p449
S'mood'
p450
S'JJ'
p451
S'I-NP'
p452
g5
tp453
a(S'disturbance'
p454
S'disturbance'
p455
S'NN'
p456
S'I-NP'
p457
g5
tp458
a(S'at'
p459
S'at'
p460
S'IN'
p461
S'B-PP'
p462
g5
tp463
a(S'the'
p464
S'the'
p465
S'DT'
p466
S'B-NP'
p467
g5
tp468
a(S'end'
p469
S'end'
p470
S'NN'
p471
S'I-NP'
p472
g5
tp473
a(S'of'
p474
S'of'
p475
S'IN'
p476
S'B-PP'
p477
g5
tp478
a(S'all'
p479
S'all'
p480
S'DT'
p481
S'B-NP'
p482
g5
tp483
a(S'three'
p484
S'three'
p485
S'CD'
p486
S'I-NP'
p487
g5
tp488
a(S'phases'
p489
S'phase'
p490
S'NNS'
p491
S'I-NP'
p492
g5
tp493
a(g172
g172
g172
g5
g5
tp494
a(S'less'
p495
S'less'
p496
S'JJR'
p497
S'B-NP'
p498
g5
tp499
a(S'loneliness'
p500
S'loneliness'
p501
S'NN'
p502
S'I-NP'
p503
g5
tp504
a(S'at'
p505
S'at'
p506
S'IN'
p507
S'B-PP'
p508
g5
tp509
a(S'the'
p510
S'the'
p511
S'DT'
p512
S'B-NP'
p513
g5
tp514
a(S'end'
p515
S'end'
p516
S'NN'
p517
S'I-NP'
p518
g5
tp519
a(S'of'
p520
S'of'
p521
S'IN'
p522
S'B-PP'
p523
g5
tp524
a(S'Phases'
p525
S'Phase'
p526
S'NNS'
p527
S'B-NP'
p528
S'B-protein'
p529
tp530
a(S'II'
p531
S'II'
p532
S'CD'
p533
S'B-NP'
p534
S'I-protein'
p535
tp536
a(S'and'
p537
S'and'
p538
S'CC'
p539
S'I-NP'
p540
g5
tp541
a(S'III'
p542
S'III'
p543
S'CD'
p544
S'I-NP'
p545
g5
tp546
a(g172
g172
g172
g5
g5
tp547
a(S'and'
p548
S'and'
p549
S'CC'
p550
g5
g5
tp551
a(g163
g163
S'DT'
p552
S'B-NP'
p553
g5
tp554
a(S'higher-quality'
p555
S'higher-quality'
p556
S'JJ'
p557
S'I-NP'
p558
g5
tp559
a(S'relationship'
p560
S'relationship'
p561
S'NN'
p562
S'I-NP'
p563
g5
tp564
a(S'with'
p565
S'with'
p566
S'IN'
p567
S'B-PP'
p568
g5
tp569
a(g163
g163
S'DT'
p570
S'B-NP'
p571
g5
tp572
a(S'significant'
p573
S'significant'
p574
S'JJ'
p575
S'I-NP'
p576
g5
tp577
a(S'other'
p578
S'other'
p579
S'JJ'
p580
S'I-NP'
p581
g5
tp582
a(S'at'
p583
S'at'
p584
S'IN'
p585
S'B-PP'
p586
g5
tp587
a(S'the'
p588
S'the'
p589
S'DT'
p590
S'B-NP'
p591
g5
tp592
a(S'end'
p593
S'end'
p594
S'NN'
p595
S'I-NP'
p596
g5
tp597
a(S'of'
p598
S'of'
p599
S'IN'
p600
S'B-PP'
p601
g5
tp602
a(S'Phase'
p603
S'Phase'
p604
S'NN'
p605
S'B-NP'
p606
S'B-protein'
p607
tp608
a(S'II'
p609
S'II'
p610
S'CD'
p611
S'I-NP'
p612
S'I-protein'
p613
tp614
a(S'than'
p615
S'than'
p616
S'IN'
p617
S'B-SBAR'
p618
g5
tp619
a(S'did'
p620
S'do'
p621
S'VBD'
p622
g5
g5
tp623
a(S'Control'
p624
S'Control'
p625
S'NNP'
p626
S'B-NP'
p627
g5
tp628
a(S'Group'
p629
S'Group'
p630
S'NNP'
p631
S'I-NP'
p632
g5
tp633
a(S'2.'
p634
S'2.'
p635
S'NNP'
p636
S'I-NP'
p637
g5
tp638
a(S'No'
p639
S'No'
p640
S'NNP'
p641
S'I-NP'
p642
g5
tp643
a(S'group'
p644
S'group'
p645
S'NN'
p646
S'I-NP'
p647
g5
tp648
a(S'differences'
p649
S'difference'
p650
S'NNS'
p651
S'I-NP'
p652
g5
tp653
a(S'were'
p654
S'be'
p655
S'VBD'
p656
S'B-VP'
p657
g5
tp658
a(S'found'
p659
S'find'
p660
S'VBN'
p661
S'I-VP'
p662
g5
tp663
a(S'for'
p664
S'for'
p665
S'IN'
p666
S'B-PP'
p667
g5
tp668
a(S'cancer-related'
p669
S'cancer-related'
p670
S'JJ'
p671
S'B-NP'
p672
g5
tp673
a(S'worry'
p674
S'worry'
p675
S'NN'
p676
S'I-NP'
p677
g5
tp678
a(S'or'
p679
S'or'
p680
S'CC'
p681
g5
g5
tp682
a(S'well-being.'
p683
S'well-being.'
p684
S'RB'
p685
S'B-ADVP'
p686
g5
tp687
a(S'The'
p688
S'The'
p689
S'DT'
p690
S'B-NP'
p691
g5
tp692
a(S'findings'
p693
S'finding'
p694
S'NNS'
p695
S'I-NP'
p696
g5
tp697
a(S'suggest'
p698
S'suggest'
p699
S'VBP'
p700
S'B-VP'
p701
g5
tp702
a(S'that'
p703
S'that'
p704
S'IN'
p705
S'B-SBAR'
p706
g5
tp707
a(S'individual'
p708
S'individual'
p709
S'JJ'
p710
S'B-NP'
p711
g5
tp712
a(S'telephone'
p713
S'telephone'
p714
S'NN'
p715
S'I-NP'
p716
g5
tp717
a(S'support'
p718
S'support'
p719
S'NN'
p720
S'I-NP'
p721
g5
tp722
a(S'may'
p723
S'may'
p724
S'MD'
p725
S'B-VP'
p726
g5
tp727
a(S'provide'
p728
S'provide'
p729
S'VB'
p730
S'I-VP'
p731
g5
tp732
a(S'an'
p733
S'an'
p734
S'DT'
p735
S'B-NP'
p736
g5
tp737
a(S'effective'
p738
S'effective'
p739
S'JJ'
p740
S'I-NP'
p741
g5
tp742
a(S'alternative'
p743
S'alternative'
p744
S'NN'
p745
S'I-NP'
p746
g5
tp747
a(S'to'
p748
S'to'
p749
S'TO'
p750
S'B-PP'
p751
g5
tp752
a(S'in-person'
p753
S'in-person'
p754
S'JJ'
p755
S'B-NP'
p756
g5
tp757
a(S'support'
p758
S'support'
p759
S'NN'
p760
S'I-NP'
p761
g5
tp762
a(S'groups.'
p763
S'groups.'
p764
S'NN'
p765
S'I-NP'
p766
g5
tp767
a(S'Further'
p768
S'Further'
p769
S'JJ'
p770
S'I-NP'
p771
g5
tp772
a(S'study'
p773
S'study'
p774
S'NN'
p775
S'I-NP'
p776
g5
tp777
a(S'of'
p778
S'of'
p779
S'IN'
p780
S'B-PP'
p781
g5
tp782
a(S'telephone'
p783
S'telephone'
p784
S'NN'
p785
S'B-NP'
p786
g5
tp787
a(S'interventions'
p788
S'intervention'
p789
S'NNS'
p790
S'I-NP'
p791
g5
tp792
a(S'is'
p793
S'be'
p794
S'VBZ'
p795
S'B-VP'
p796
g5
tp797
a(S'recommended'
p798
S'recommend'
p799
S'VBN'
p800
S'I-VP'
p801
g5
tp802
a(S'using'
p803
S'use'
p804
S'VBG'
p805
S'I-VP'
p806
g5
tp807
a(S'ethnically'
p808
S'ethnically'
p809
S'RB'
p810
S'B-ADVP'
p811
g5
tp812
a(S'and'
p813
S'and'
p814
S'CC'
p815
S'I-ADVP'
p816
g5
tp817
a(S'economically'
p818
S'economically'
p819
S'RB'
p820
S'B-NP'
p821
g5
tp822
a(S'heterogeneous'
p823
S'heterogeneous'
p824
S'JJ'
p825
S'I-NP'
p826
g5
tp827
a(S'samples'
p828
S'sample'
p829
S'NNS'
p830
S'I-NP'
p831
g5
tp832
a(g77
g77
g77
g5
g5
tp833
a.