(lp0
(S'Long-term'
p1
S'Long-term'
p2
S'JJ'
p3
S'B-NP'
p4
S'O'
p5
tp6
a(S'anticoagulant'
p7
S'anticoagulant'
p8
S'JJ'
p9
S'I-NP'
p10
g5
tp11
a(S'treatment'
p12
S'treatment'
p13
S'NN'
p14
S'I-NP'
p15
g5
tp16
a(S'after'
p17
S'after'
p18
S'IN'
p19
S'B-PP'
p20
g5
tp21
a(S'acute'
p22
S'acute'
p23
S'JJ'
p24
S'B-NP'
p25
g5
tp26
a(S'myocardial'
p27
S'myocardial'
p28
S'JJ'
p29
S'I-NP'
p30
g5
tp31
a(S'infarction.'
p32
S'infarction.'
p33
S'NN'
p34
S'I-NP'
p35
g5
tp36
a(S'The'
p37
S'The'
p38
S'DT'
p39
S'B-NP'
p40
g5
tp41
a(S'Warfarin'
p42
S'Warfarin'
p43
S'NNP'
p44
S'I-NP'
p45
g5
tp46
a(S'Re-Infarction'
p47
S'Re-Infarction'
p48
S'NNP'
p49
S'I-NP'
p50
g5
tp51
a(S'Study'
p52
S'Study'
p53
S'NNP'
p54
S'I-NP'
p55
g5
tp56
a(S'.'
p57
g57
g57
g5
g5
tp58
a(S'High'
p59
S'High'
p60
S'JJ'
p61
S'B-NP'
p62
g5
tp63
a(S'levels'
p64
S'level'
p65
S'NNS'
p66
S'I-NP'
p67
g5
tp68
a(S'of'
p69
S'of'
p70
S'IN'
p71
S'B-PP'
p72
g5
tp73
a(S'fibrinogen'
p74
S'fibrinogen'
p75
S'NN'
p76
S'B-NP'
p77
S'B-protein'
p78
tp79
a(S'and'
p80
S'and'
p81
S'CC'
p82
S'I-NP'
p83
g5
tp84
a(S'clotting'
p85
S'clotting'
p86
S'NN'
p87
S'I-NP'
p88
g5
tp89
a(S'factor'
p90
S'factor'
p91
S'NN'
p92
S'I-NP'
p93
g5
tp94
a(S'VII'
p95
S'VII'
p96
S'CD'
p97
S'I-NP'
p98
g5
tp99
a(S'are'
p100
S'be'
p101
S'VBP'
p102
S'B-VP'
p103
g5
tp104
a(S'associated'
p105
S'associate'
p106
S'VBN'
p107
S'I-VP'
p108
g5
tp109
a(S'with'
p110
S'with'
p111
S'IN'
p112
S'B-PP'
p113
g5
tp114
a(S'an'
p115
S'an'
p116
S'DT'
p117
S'B-NP'
p118
g5
tp119
a(S'increased'
p120
S'increase'
p121
S'VBN'
p122
S'I-NP'
p123
g5
tp124
a(S'risk'
p125
S'risk'
p126
S'NN'
p127
S'I-NP'
p128
g5
tp129
a(S'for'
p130
S'for'
p131
S'IN'
p132
S'B-PP'
p133
g5
tp134
a(S'subsequent'
p135
S'subsequent'
p136
S'JJ'
p137
S'B-NP'
p138
g5
tp139
a(S'death'
p140
S'death'
p141
S'NN'
p142
S'I-NP'
p143
g5
tp144
a(S'and'
p145
S'and'
p146
S'CC'
p147
g5
g5
tp148
a(S'cardiovascular'
p149
S'cardiovascular'
p150
S'JJ'
p151
S'B-NP'
p152
g5
tp153
a(S'disease'
p154
S'disease'
p155
S'NN'
p156
S'I-NP'
p157
g5
tp158
a(S'in'
p159
S'in'
p160
S'IN'
p161
S'B-PP'
p162
g5
tp163
a(S'apparently'
p164
S'apparently'
p165
S'RB'
p166
S'B-NP'
p167
g5
tp168
a(S'healthy'
p169
S'healthy'
p170
S'JJ'
p171
S'I-NP'
p172
g5
tp173
a(S'individuals.'
p174
S'individuals.'
p175
S'NN'
p176
S'I-NP'
p177
g5
tp178
a(S'Furthermore'
p179
S'Furthermore'
p180
S'RB'
p181
S'B-ADVP'
p182
g5
tp183
a(S','
p184
g184
g184
g5
g5
tp185
a(S'pathoanatomic'
p186
S'pathoanatomic'
p187
S'JJ'
p188
S'B-NP'
p189
g5
tp190
a(S'studies'
p191
S'study'
p192
S'NNS'
p193
S'I-NP'
p194
g5
tp195
a(S'and'
p196
S'and'
p197
S'CC'
p198
g5
g5
tp199
a(S'coronary'
p200
S'coronary'
p201
S'JJ'
p202
S'B-NP'
p203
g5
tp204
a(S'angiography'
p205
S'angiography'
p206
S'NN'
p207
S'I-NP'
p208
g5
tp209
a(S'have'
p210
S'have'
p211
S'VBP'
p212
S'B-VP'
p213
g5
tp214
a(S'confirmed'
p215
S'confirm'
p216
S'VBN'
p217
S'I-VP'
p218
g5
tp219
a(S'a'
p220
g220
S'DT'
p221
S'B-NP'
p222
g5
tp223
a(S'relationship'
p224
S'relationship'
p225
S'NN'
p226
S'I-NP'
p227
g5
tp228
a(S'between'
p229
S'between'
p230
S'IN'
p231
S'B-PP'
p232
g5
tp233
a(S'coronary'
p234
S'coronary'
p235
S'JJ'
p236
S'B-NP'
p237
g5
tp238
a(S'thrombus'
p239
S'thrombus'
p240
S'NN'
p241
S'I-NP'
p242
g5
tp243
a(S'formation'
p244
S'formation'
p245
S'NN'
p246
S'I-NP'
p247
g5
tp248
a(S'and'
p249
S'and'
p250
S'CC'
p251
g5
g5
tp252
a(S'acute'
p253
S'acute'
p254
S'JJ'
p255
S'B-NP'
p256
g5
tp257
a(S'Q-wave'
p258
S'Q-wave'
p259
S'JJ'
p260
S'I-NP'
p261
g5
tp262
a(S'infarction.'
p263
S'infarction.'
p264
S'NN'
p265
S'I-NP'
p266
g5
tp267
a(S'Effective'
p268
S'Effective'
p269
S'JJ'
p270
S'I-NP'
p271
g5
tp272
a(S'antithrombotic'
p273
S'antithrombotic'
p274
S'JJ'
p275
S'I-NP'
p276
g5
tp277
a(S'agents'
p278
S'agent'
p279
S'NNS'
p280
S'I-NP'
p281
g5
tp282
a(S'may'
p283
S'may'
p284
S'MD'
p285
S'B-VP'
p286
g5
tp287
a(S'prevent'
p288
S'prevent'
p289
S'VB'
p290
S'I-VP'
p291
g5
tp292
a(S'or'
p293
S'or'
p294
S'CC'
p295
S'I-VP'
p296
g5
tp297
a(S'limit'
p298
S'limit'
p299
S'VB'
p300
S'I-VP'
p301
g5
tp302
a(S'thrombus'
p303
S'thrombus'
p304
S'NN'
p305
S'B-NP'
p306
g5
tp307
a(S'formation'
p308
S'formation'
p309
S'NN'
p310
S'I-NP'
p311
g5
tp312
a(S'and'
p313
S'and'
p314
S'CC'
p315
g5
g5
tp316
a(S'events'
p317
S'event'
p318
S'NNS'
p319
S'B-NP'
p320
g5
tp321
a(S'related'
p322
S'relate'
p323
S'VBN'
p324
S'B-VP'
p325
g5
tp326
a(S'to'
p327
S'to'
p328
S'TO'
p329
S'B-VP'
p330
g5
tp331
a(S'thrombosis.'
p332
S'thrombosis.'
p333
S'VB'
p334
S'I-VP'
p335
g5
tp336
a(S'The'
p337
S'The'
p338
S'DT'
p339
S'B-NP'
p340
g5
tp341
a(S'Warfarin'
p342
S'Warfarin'
p343
S'NNP'
p344
S'I-NP'
p345
g5
tp346
a(S'Re-Infarction'
p347
S'Re-Infarction'
p348
S'NNP'
p349
S'I-NP'
p350
g5
tp351
a(S'Study'
p352
S'Study'
p353
S'NNP'
p354
S'I-NP'
p355
g5
tp356
a(S'('
p357
g357
g357
g5
g5
tp358
a(S'WARIS'
p359
S'WARIS'
p360
S'NNP'
p361
S'B-NP'
p362
g5
tp363
a(S')'
p364
g364
g364
g5
g5
tp365
a(S'studied'
p366
S'study'
p367
S'VBD'
p368
S'B-VP'
p369
g5
tp370
a(S'the'
p371
S'the'
p372
S'DT'
p373
S'B-NP'
p374
g5
tp375
a(S'effect'
p376
S'effect'
p377
S'NN'
p378
S'I-NP'
p379
g5
tp380
a(S'of'
p381
S'of'
p382
S'IN'
p383
S'B-PP'
p384
g5
tp385
a(S'warfarin'
p386
S'warfarin'
p387
S'NN'
p388
S'B-NP'
p389
g5
tp390
a(S'in'
p391
S'in'
p392
S'IN'
p393
S'B-PP'
p394
g5
tp395
a(S'survivors'
p396
S'survivor'
p397
S'NNS'
p398
S'B-NP'
p399
g5
tp400
a(S'of'
p401
S'of'
p402
S'IN'
p403
S'B-PP'
p404
g5
tp405
a(S'acute'
p406
S'acute'
p407
S'JJ'
p408
S'B-NP'
p409
g5
tp410
a(S'myocardial'
p411
S'myocardial'
p412
S'JJ'
p413
S'I-NP'
p414
g5
tp415
a(S'infarction.'
p416
S'infarction.'
p417
S'NN'
p418
S'I-NP'
p419
g5
tp420
a(S'Patients'
p421
S'Patient'
p422
S'NNS'
p423
S'I-NP'
p424
g5
tp425
a(S'aged'
p426
S'age'
p427
S'VBN'
p428
S'B-VP'
p429
g5
tp430
a(S'75'
p431
S'75'
p432
S'CD'
p433
S'B-NP'
p434
g5
tp435
a(S'years'
p436
S'year'
p437
S'NNS'
p438
S'I-NP'
p439
g5
tp440
a(S'or'
p441
S'or'
p442
S'CC'
p443
g5
g5
tp444
a(S'less'
p445
S'less'
p446
S'JJR'
p447
S'B-NP'
p448
g5
tp449
a(S'were'
p450
S'be'
p451
S'VBD'
p452
S'B-VP'
p453
g5
tp454
a(S'randomized'
p455
S'randomize'
p456
S'VBN'
p457
S'I-VP'
p458
g5
tp459
a(S'in'
p460
S'in'
p461
S'IN'
p462
S'B-PP'
p463
g5
tp464
a(g220
g220
S'DT'
p465
S'B-NP'
p466
g5
tp467
a(S'double-blind'
p468
S'double-blind'
p469
S'JJ'
p470
S'I-NP'
p471
g5
tp472
a(g184
g184
g184
S'I-NP'
p473
g5
tp474
a(S'placebo-controlled'
p475
S'placebo-controlled'
p476
S'JJ'
p477
S'I-NP'
p478
g5
tp479
a(S'study'
p480
S'study'
p481
S'NN'
p482
S'I-NP'
p483
g5
tp484
a(S'to'
p485
S'to'
p486
S'TO'
p487
S'B-VP'
p488
g5
tp489
a(S'test'
p490
S'test'
p491
S'VB'
p492
S'I-VP'
p493
g5
tp494
a(S'whether'
p495
S'whether'
p496
S'IN'
p497
S'B-SBAR'
p498
g5
tp499
a(S'long-term'
p500
S'long-term'
p501
S'JJ'
p502
S'B-NP'
p503
g5
tp504
a(S'treatment'
p505
S'treatment'
p506
S'NN'
p507
S'I-NP'
p508
g5
tp509
a(S'with'
p510
S'with'
p511
S'IN'
p512
S'B-PP'
p513
g5
tp514
a(S'warfarin'
p515
S'warfarin'
p516
S'NN'
p517
S'B-NP'
p518
g5
tp519
a(S'reduces'
p520
S'reduce'
p521
S'VBZ'
p522
S'B-VP'
p523
g5
tp524
a(S'the'
p525
S'the'
p526
S'DT'
p527
S'B-NP'
p528
g5
tp529
a(S'risk'
p530
S'risk'
p531
S'NN'
p532
S'I-NP'
p533
g5
tp534
a(S'of'
p535
S'of'
p536
S'IN'
p537
S'B-PP'
p538
g5
tp539
a(S'death'
p540
S'death'
p541
S'NN'
p542
S'B-NP'
p543
g5
tp544
a(g184
g184
g184
g5
g5
tp545
a(S'reinfarction'
p546
S'reinfarction'
p547
S'NN'
p548
S'B-NP'
p549
g5
tp550
a(g184
g184
g184
g5
g5
tp551
a(S'and'
p552
S'and'
p553
S'CC'
p554
g5
g5
tp555
a(S'thromboembolic'
p556
S'thromboembolic'
p557
S'JJ'
p558
S'B-NP'
p559
g5
tp560
a(S'morbidity.'
p561
S'morbidity.'
p562
S'NN'
p563
S'I-NP'
p564
g5
tp565
a(S'A'
p566
g566
S'NN'
p567
S'I-NP'
p568
g5
tp569
a(S'total'
p570
S'total'
p571
S'NN'
p572
S'I-NP'
p573
g5
tp574
a(S'of'
p575
S'of'
p576
S'IN'
p577
S'B-PP'
p578
g5
tp579
a(S'1918'
p580
S'1918'
p581
S'CD'
p582
S'B-NP'
p583
g5
tp584
a(S'patients'
p585
S'patient'
p586
S'NNS'
p587
S'I-NP'
p588
g5
tp589
a(S'were'
p590
S'be'
p591
S'VBD'
p592
S'B-VP'
p593
g5
tp594
a(S'screened'
p595
S'screen'
p596
S'VBN'
p597
S'I-VP'
p598
g5
tp599
a(S'for'
p600
S'for'
p601
S'IN'
p602
S'B-PP'
p603
g5
tp604
a(S'participation'
p605
S'participation'
p606
S'NN'
p607
S'B-NP'
p608
g5
tp609
a(S';'
p610
g610
S':'
p611
g5
g5
tp612
a(S'1214'
p613
S'1214'
p614
S'CD'
p615
S'B-NP'
p616
g5
tp617
a(S'were'
p618
S'be'
p619
S'VBD'
p620
S'B-VP'
p621
g5
tp622
a(S'recruited.'
p623
S'recruited.'
p624
S'VBN'
p625
S'I-VP'
p626
g5
tp627
a(S'The'
p628
S'The'
p629
S'DT'
p630
S'B-NP'
p631
g5
tp632
a(S'mean'
p633
S'mean'
p634
S'JJ'
p635
S'I-NP'
p636
g5
tp637
a(S'follow-up'
p638
S'follow-up'
p639
S'NN'
p640
S'I-NP'
p641
g5
tp642
a(S'was'
p643
S'be'
p644
S'VBD'
p645
S'B-VP'
p646
g5
tp647
a(S'37'
p648
S'37'
p649
S'CD'
p650
S'B-NP'
p651
g5
tp652
a(S'months.'
p653
S'months.'
p654
S'NN'
p655
S'I-NP'
p656
g5
tp657
a(S'Analyzed'
p658
S'Analyze'
p659
S'VBN'
p660
S'B-VP'
p661
g5
tp662
a(S'on'
p663
S'on'
p664
S'IN'
p665
S'B-PP'
p666
g5
tp667
a(S'an'
p668
S'an'
p669
S'DT'
p670
S'B-NP'
p671
g5
tp672
a(S'intention-to-treat'
p673
S'intention-to-treat'
p674
S'JJ'
p675
S'I-NP'
p676
g5
tp677
a(S'basis'
p678
S'basis'
p679
S'NN'
p680
S'I-NP'
p681
g5
tp682
a(g184
g184
g184
g5
g5
tp683
a(S'123'
p684
S'123'
p685
S'CD'
p686
S'B-NP'
p687
g5
tp688
a(g357
g357
g357
g5
g5
tp689
a(S'20'
p690
S'20'
p691
S'CD'
p692
S'B-NP'
p693
g5
tp694
a(S'%'
p695
g695
S'NN'
p696
S'I-NP'
p697
g5
tp698
a(g364
g364
g364
g5
g5
tp699
a(S'in'
p700
S'in'
p701
S'IN'
p702
S'B-PP'
p703
g5
tp704
a(S'the'
p705
S'the'
p706
S'DT'
p707
S'B-NP'
p708
g5
tp709
a(S'placebo'
p710
S'placebo'
p711
S'NN'
p712
S'I-NP'
p713
g5
tp714
a(S'group'
p715
S'group'
p716
S'NN'
p717
S'I-NP'
p718
g5
tp719
a(S'died'
p720
S'die'
p721
S'VBD'
p722
S'B-VP'
p723
g5
tp724
a(g184
g184
g184
g5
g5
tp725
a(S'versus'
p726
S'versus'
p727
S'IN'
p728
S'B-ADVP'
p729
g5
tp730
a(S'94'
p731
S'94'
p732
S'CD'
p733
S'B-NP'
p734
g5
tp735
a(g357
g357
g357
g5
g5
tp736
a(S'15'
p737
S'15'
p738
S'CD'
p739
S'B-NP'
p740
g5
tp741
a(g695
g695
S'NN'
p742
S'I-NP'
p743
g5
tp744
a(g364
g364
g364
g5
g5
tp745
a(S'in'
p746
S'in'
p747
S'IN'
p748
S'B-PP'
p749
g5
tp750
a(S'the'
p751
S'the'
p752
S'DT'
p753
S'B-NP'
p754
g5
tp755
a(S'warfarin'
p756
S'warfarin'
p757
S'NN'
p758
S'I-NP'
p759
g5
tp760
a(S'group'
p761
S'group'
p762
S'NN'
p763
S'I-NP'
p764
g5
tp765
a(g184
g184
g184
g5
g5
tp766
a(g220
g220
S'DT'
p767
S'B-NP'
p768
g5
tp769
a(S'risk'
p770
S'risk'
p771
S'NN'
p772
S'I-NP'
p773
g5
tp774
a(S'reduction'
p775
S'reduction'
p776
S'NN'
p777
S'I-NP'
p778
g5
tp779
a(S'of'
p780
S'of'
p781
S'IN'
p782
S'B-PP'
p783
g5
tp784
a(S'24'
p785
S'24'
p786
S'CD'
p787
S'B-NP'
p788
g5
tp789
a(g695
g695
S'NN'
p790
S'I-NP'
p791
g5
tp792
a(g357
g357
g357
g5
g5
tp793
a(S'P'
p794
g794
S'NN'
p795
S'B-NP'
p796
g5
tp797
a(S'='
p798
g798
S'SYM'
p799
S'B-VP'
p800
g5
tp801
a(S'0.026'
p802
S'0.026'
p803
S'CD'
p804
S'B-NP'
p805
g5
tp806
a(g364
g364
g364
g5
g5
tp807
a(g57
g57
g57
g5
g5
tp808
a(S'Considering'
p809
S'Consider'
p810
S'VBG'
p811
S'B-VP'
p812
g5
tp813
a(S'patients'
p814
S'patient'
p815
S'NNS'
p816
S'B-NP'
p817
g5
tp818
a(S'on'
p819
S'on'
p820
S'IN'
p821
S'B-PP'
p822
g5
tp823
a(S'treatment'
p824
S'treatment'
p825
S'NN'
p826
S'B-NP'
p827
g5
tp828
a(S'or'
p829
S'or'
p830
S'CC'
p831
S'B-PP'
p832
g5
tp833
a(S'within'
p834
S'within'
p835
S'IN'
p836
S'B-PP'
p837
g5
tp838
a(S'28'
p839
S'28'
p840
S'CD'
p841
S'B-NP'
p842
g5
tp843
a(S'days'
p844
S'day'
p845
S'NNS'
p846
S'I-NP'
p847
g5
tp848
a(S'after'
p849
S'after'
p850
S'IN'
p851
S'B-PP'
p852
g5
tp853
a(S'discontinuing'
p854
S'discontinue'
p855
S'VBG'
p856
S'B-VP'
p857
g5
tp858
a(S'the'
p859
S'the'
p860
S'DT'
p861
S'B-NP'
p862
g5
tp863
a(S'test'
p864
S'test'
p865
S'NN'
p866
S'I-NP'
p867
g5
tp868
a(S'medication'
p869
S'medication'
p870
S'NN'
p871
S'I-NP'
p872
g5
tp873
a(g184
g184
g184
g5
g5
tp874
a(S'92'
p875
S'92'
p876
S'CD'
p877
S'B-NP'
p878
g5
tp879
a(S'in'
p880
S'in'
p881
S'IN'
p882
S'B-PP'
p883
g5
tp884
a(S'the'
p885
S'the'
p886
S'DT'
p887
S'B-NP'
p888
g5
tp889
a(S'placebo'
p890
S'placebo'
p891
S'NN'
p892
S'I-NP'
p893
g5
tp894
a(S'group'
p895
S'group'
p896
S'NN'
p897
S'I-NP'
p898
g5
tp899
a(S'died'
p900
S'die'
p901
S'VBD'
p902
S'B-VP'
p903
g5
tp904
a(g184
g184
g184
g5
g5
tp905
a(S'as'
p906
S'as'
p907
S'IN'
p908
S'B-SBAR'
p909
g5
tp910
a(S'compared'
p911
S'compare'
p912
S'VBN'
p913
S'B-PP'
p914
g5
tp915
a(S'with'
p916
S'with'
p917
S'IN'
p918
S'B-PP'
p919
g5
tp920
a(S'60'
p921
S'60'
p922
S'CD'
p923
S'B-NP'
p924
g5
tp925
a(S'of'
p926
S'of'
p927
S'IN'
p928
S'B-PP'
p929
g5
tp930
a(S'the'
p931
S'the'
p932
S'DT'
p933
S'B-NP'
p934
g5
tp935
a(S'warfarin-treated'
p936
S'warfarin-treated'
p937
S'JJ'
p938
S'I-NP'
p939
g5
tp940
a(S'patients'
p941
S'patient'
p942
S'NNS'
p943
S'I-NP'
p944
g5
tp945
a(g184
g184
g184
g5
g5
tp946
a(g220
g220
S'DT'
p947
S'B-NP'
p948
g5
tp949
a(S'risk'
p950
S'risk'
p951
S'NN'
p952
S'I-NP'
p953
g5
tp954
a(S'reduction'
p955
S'reduction'
p956
S'NN'
p957
S'I-NP'
p958
g5
tp959
a(S'of'
p960
S'of'
p961
S'IN'
p962
S'B-PP'
p963
g5
tp964
a(S'35'
p965
S'35'
p966
S'CD'
p967
S'B-NP'
p968
g5
tp969
a(g695
g695
S'NN'
p970
S'I-NP'
p971
g5
tp972
a(g357
g357
g357
g5
g5
tp973
a(g794
g794
S'NN'
p974
S'B-NP'
p975
g5
tp976
a(g798
g798
S'SYM'
p977
S'B-VP'
p978
g5
tp979
a(S'0.005'
p980
S'0.005'
p981
S'CD'
p982
S'B-NP'
p983
g5
tp984
a(g364
g364
g364
g5
g5
tp985
a(g57
g57
g57
g5
g5
tp986
a(S'Relapsing'
p987
S'Relapse'
p988
S'VBG'
p989
S'B-VP'
p990
g5
tp991
a(S'myocardial'
p992
S'myocardial'
p993
S'JJ'
p994
S'B-NP'
p995
g5
tp996
a(S'infarction'
p997
S'infarction'
p998
S'NN'
p999
S'I-NP'
p1000
g5
tp1001
a(g357
g357
g357
g5
g5
tp1002
a(S'fatal'
p1003
S'fatal'
p1004
S'JJ'
p1005
S'B-ADJP'
p1006
g5
tp1007
a(S'and'
p1008
S'and'
p1009
S'CC'
p1010
g5
g5
tp1011
a(S'nonfatal'
p1012
S'nonfatal'
p1013
S'JJ'
p1014
S'B-ADJP'
p1015
g5
tp1016
a(g364
g364
g364
g5
g5
tp1017
a(S'was'
p1018
S'be'
p1019
S'VBD'
p1020
S'B-VP'
p1021
g5
tp1022
a(S'reduced'
p1023
S'reduce'
p1024
S'VBN'
p1025
S'I-VP'
p1026
g5
tp1027
a(S'by'
p1028
S'by'
p1029
S'IN'
p1030
S'B-PP'
p1031
g5
tp1032
a(S'43'
p1033
S'43'
p1034
S'CD'
p1035
S'B-NP'
p1036
g5
tp1037
a(g695
g695
S'NN'
p1038
S'I-NP'
p1039
g5
tp1040
a(g357
g357
g357
g5
g5
tp1041
a(g794
g794
S'NN'
p1042
S'B-NP'
p1043
g5
tp1044
a(g798
g798
S'SYM'
p1045
S'B-VP'
p1046
g5
tp1047
a(S'0.0001'
p1048
S'0.0001'
p1049
S'CD'
p1050
S'B-NP'
p1051
g5
tp1052
a(g364
g364
g364
g5
g5
tp1053
a(g57
g57
g57
g5
g5
tp1054
a(S'The'
p1055
S'The'
p1056
S'DT'
p1057
S'B-NP'
p1058
g5
tp1059
a(S'incidence'
p1060
S'incidence'
p1061
S'NN'
p1062
S'I-NP'
p1063
g5
tp1064
a(S'of'
p1065
S'of'
p1066
S'IN'
p1067
S'B-PP'
p1068
g5
tp1069
a(S'cerebrovascular'
p1070
S'cerebrovascular'
p1071
S'JJ'
p1072
S'B-NP'
p1073
g5
tp1074
a(S'attacks'
p1075
S'attack'
p1076
S'NNS'
p1077
S'I-NP'
p1078
g5
tp1079
a(S'was'
p1080
S'be'
p1081
S'VBD'
p1082
S'B-VP'
p1083
g5
tp1084
a(S'lower'
p1085
S'low'
p1086
S'JJR'
p1087
S'B-ADJP'
p1088
g5
tp1089
a(S'in'
p1090
S'in'
p1091
S'IN'
p1092
S'B-PP'
p1093
g5
tp1094
a(S'the'
p1095
S'the'
p1096
S'DT'
p1097
S'B-NP'
p1098
g5
tp1099
a(S'warfarin'
p1100
S'warfarin'
p1101
S'NN'
p1102
S'I-NP'
p1103
g5
tp1104
a(S'group'
p1105
S'group'
p1106
S'NN'
p1107
S'I-NP'
p1108
g5
tp1109
a(g357
g357
g357
g5
g5
tp1110
a(S'16'
p1111
S'16'
p1112
S'CD'
p1113
S'B-NP'
p1114
g5
tp1115
a(S'patients'
p1116
S'patient'
p1117
S'NNS'
p1118
S'I-NP'
p1119
g5
tp1120
a(g364
g364
g364
g5
g5
tp1121
a(S'than'
p1122
S'than'
p1123
S'IN'
p1124
S'B-PP'
p1125
g5
tp1126
a(S'the'
p1127
S'the'
p1128
S'DT'
p1129
S'B-NP'
p1130
g5
tp1131
a(S'placebo'
p1132
S'placebo'
p1133
S'NN'
p1134
S'I-NP'
p1135
g5
tp1136
a(S'group'
p1137
S'group'
p1138
S'NN'
p1139
S'I-NP'
p1140
g5
tp1141
a(g357
g357
g357
g5
g5
tp1142
a(S'41'
p1143
S'41'
p1144
S'CD'
p1145
S'B-NP'
p1146
g5
tp1147
a(S'patients'
p1148
S'patient'
p1149
S'NNS'
p1150
S'I-NP'
p1151
g5
tp1152
a(g364
g364
g364
g5
g5
tp1153
a(g184
g184
g184
g5
g5
tp1154
a(g220
g220
S'DT'
p1155
S'B-NP'
p1156
g5
tp1157
a(S'highly'
p1158
S'highly'
p1159
S'RB'
p1160
S'I-NP'
p1161
g5
tp1162
a(S'significant'
p1163
S'significant'
p1164
S'JJ'
p1165
S'I-NP'
p1166
g5
tp1167
a(S'reduction'
p1168
S'reduction'
p1169
S'NN'
p1170
S'I-NP'
p1171
g5
tp1172
a(S'of'
p1173
S'of'
p1174
S'IN'
p1175
S'B-PP'
p1176
g5
tp1177
a(S'61'
p1178
S'61'
p1179
S'CD'
p1180
S'B-NP'
p1181
g5
tp1182
a(g695
g695
S'NN'
p1183
S'I-NP'
p1184
g5
tp1185
a(g357
g357
g357
g5
g5
tp1186
a(g794
g794
S'NN'
p1187
S'B-NP'
p1188
g5
tp1189
a(g798
g798
S'SYM'
p1190
S'B-VP'
p1191
g5
tp1192
a(S'0.0003'
p1193
S'0.0003'
p1194
S'CD'
p1195
S'B-NP'
p1196
g5
tp1197
a(g364
g364
g364
g5
g5
tp1198
a(g57
g57
g57
g5
g5
tp1199
a(S'Serious'
p1200
S'Serious'
p1201
S'JJ'
p1202
S'B-NP'
p1203
g5
tp1204
a(S'bleeding'
p1205
S'bleeding'
p1206
S'NN'
p1207
S'I-NP'
p1208
g5
tp1209
a(S'occurred'
p1210
S'occur'
p1211
S'VBD'
p1212
S'B-VP'
p1213
g5
tp1214
a(S'in'
p1215
S'in'
p1216
S'IN'
p1217
S'B-PP'
p1218
g5
tp1219
a(S'11'
p1220
S'11'
p1221
S'CD'
p1222
S'B-NP'
p1223
g5
tp1224
a(S'patients'
p1225
S'patient'
p1226
S'NNS'
p1227
S'I-NP'
p1228
g5
tp1229
a(S'taking'
p1230
S'take'
p1231
S'VBG'
p1232
S'B-VP'
p1233
g5
tp1234
a(S'warfarin'
p1235
S'warfarin'
p1236
S'NN'
p1237
S'B-NP'
p1238
g5
tp1239
a(g184
g184
g184
g5
g5
tp1240
a(S'an'
p1241
S'an'
p1242
S'DT'
p1243
S'B-NP'
p1244
g5
tp1245
a(S'incidence'
p1246
S'incidence'
p1247
S'NN'
p1248
S'I-NP'
p1249
g5
tp1250
a(S'of'
p1251
S'of'
p1252
S'IN'
p1253
S'B-PP'
p1254
g5
tp1255
a(S'0.6'
p1256
S'0.6'
p1257
S'CD'
p1258
S'B-NP'
p1259
g5
tp1260
a(g695
g695
S'NN'
p1261
S'I-NP'
p1262
g5
tp1263
a(S'per'
p1264
S'per'
p1265
S'IN'
p1266
S'B-PP'
p1267
g5
tp1268
a(S'year.'
p1269
S'year.'
p1270
S'NN'
p1271
S'B-NP'
p1272
g5
tp1273
a(S'In'
p1274
S'In'
p1275
S'IN'
p1276
S'B-PP'
p1277
g5
tp1278
a(S'conclusion'
p1279
S'conclusion'
p1280
S'NN'
p1281
S'B-NP'
p1282
g5
tp1283
a(g184
g184
g184
g5
g5
tp1284
a(S'long-term'
p1285
S'long-term'
p1286
S'JJ'
p1287
S'B-NP'
p1288
g5
tp1289
a(S'anticoagulant'
p1290
S'anticoagulant'
p1291
S'JJ'
p1292
S'I-NP'
p1293
g5
tp1294
a(S'therapy'
p1295
S'therapy'
p1296
S'NN'
p1297
S'I-NP'
p1298
g5
tp1299
a(S'may'
p1300
S'may'
p1301
S'MD'
p1302
S'B-VP'
p1303
g5
tp1304
a(S'be'
p1305
S'be'
p1306
S'VB'
p1307
S'I-VP'
p1308
g5
tp1309
a(S'recommended'
p1310
S'recommend'
p1311
S'VBN'
p1312
S'I-VP'
p1313
g5
tp1314
a(S'after'
p1315
S'after'
p1316
S'IN'
p1317
S'B-PP'
p1318
g5
tp1319
a(S'acute'
p1320
S'acute'
p1321
S'JJ'
p1322
S'B-NP'
p1323
g5
tp1324
a(S'myocardial'
p1325
S'myocardial'
p1326
S'JJ'
p1327
S'I-NP'
p1328
g5
tp1329
a(S'infarction'
p1330
S'infarction'
p1331
S'NN'
p1332
S'I-NP'
p1333
g5
tp1334
a(g57
g57
g57
g5
g5
tp1335
a.