(lp0
(S'Dietary'
p1
S'Dietary'
p2
S'JJ'
p3
S'B-NP'
p4
S'O'
p5
tp6
a(S'patterns'
p7
S'pattern'
p8
S'NNS'
p9
S'I-NP'
p10
g5
tp11
a(S'differ'
p12
S'differ'
p13
S'VBP'
p14
S'B-VP'
p15
g5
tp16
a(S'between'
p17
S'between'
p18
S'IN'
p19
S'B-PP'
p20
g5
tp21
a(S'urban'
p22
S'urban'
p23
S'JJ'
p24
S'B-NP'
p25
g5
tp26
a(S'and'
p27
S'and'
p28
S'CC'
p29
S'I-NP'
p30
g5
tp31
a(S'rural'
p32
S'rural'
p33
S'JJ'
p34
S'I-NP'
p35
g5
tp36
a(S'older'
p37
S'old'
p38
S'JJR'
p39
S'I-NP'
p40
g5
tp41
a(S','
p42
g42
g42
S'I-NP'
p43
g5
tp44
a(S'long-term'
p45
S'long-term'
p46
S'JJ'
p47
S'I-NP'
p48
g5
tp49
a(S'survivors'
p50
S'survivor'
p51
S'NNS'
p52
S'I-NP'
p53
g5
tp54
a(S'of'
p55
S'of'
p56
S'IN'
p57
S'B-PP'
p58
g5
tp59
a(S'breast'
p60
S'breast'
p61
S'NN'
p62
S'B-NP'
p63
g5
tp64
a(g42
g42
g42
g5
g5
tp65
a(S'prostate'
p66
S'prostate'
p67
S'NN'
p68
S'B-NP'
p69
g5
tp70
a(g42
g42
g42
g5
g5
tp71
a(S'and'
p72
S'and'
p73
S'CC'
p74
g5
g5
tp75
a(S'colorectal'
p76
S'colorectal'
p77
S'JJ'
p78
S'B-NP'
p79
g5
tp80
a(S'cancer'
p81
S'cancer'
p82
S'NN'
p83
S'I-NP'
p84
g5
tp85
a(S'and'
p86
S'and'
p87
S'CC'
p88
g5
g5
tp89
a(S'are'
p90
S'be'
p91
S'VBP'
p92
S'B-VP'
p93
g5
tp94
a(S'associated'
p95
S'associate'
p96
S'VBN'
p97
S'I-VP'
p98
g5
tp99
a(S'with'
p100
S'with'
p101
S'IN'
p102
S'B-PP'
p103
g5
tp104
a(S'body'
p105
S'body'
p106
S'NN'
p107
S'B-NP'
p108
g5
tp109
a(S'mass'
p110
S'mass'
p111
S'NN'
p112
S'I-NP'
p113
g5
tp114
a(S'index'
p115
S'index'
p116
S'NN'
p117
S'I-NP'
p118
g5
tp119
a(S'.'
p120
g120
g120
g5
g5
tp121
a(S'BACKGROUND'
p122
S'BACKGROUND'
p123
S'NN'
p124
S'B-NP'
p125
g5
tp126
a(S'Older'
p127
S'Old'
p128
S'JJR'
p129
S'I-NP'
p130
g5
tp131
a(S'adult'
p132
S'adult'
p133
S'JJ'
p134
S'I-NP'
p135
g5
tp136
a(S'cancer'
p137
S'cancer'
p138
S'NN'
p139
S'I-NP'
p140
g5
tp141
a(S'survivors'
p142
S'survivor'
p143
S'NNS'
p144
S'I-NP'
p145
g5
tp146
a(S'are'
p147
S'be'
p148
S'VBP'
p149
S'B-VP'
p150
g5
tp151
a(S'at'
p152
S'at'
p153
S'IN'
p154
S'B-PP'
p155
g5
tp156
a(S'greater'
p157
S'great'
p158
S'JJR'
p159
S'B-NP'
p160
g5
tp161
a(S'risk'
p162
S'risk'
p163
S'NN'
p164
S'I-NP'
p165
g5
tp166
a(S'of'
p167
S'of'
p168
S'IN'
p169
S'B-PP'
p170
g5
tp171
a(S'cancer'
p172
S'cancer'
p173
S'NN'
p174
S'B-NP'
p175
g5
tp176
a(S'recurrence'
p177
S'recurrence'
p178
S'NN'
p179
S'I-NP'
p180
g5
tp181
a(S'and'
p182
S'and'
p183
S'CC'
p184
g5
g5
tp185
a(S'other'
p186
S'other'
p187
S'JJ'
p188
S'B-NP'
p189
g5
tp190
a(S'comorbidities'
p191
S'comorbidity'
p192
S'NNS'
p193
S'I-NP'
p194
g5
tp195
a(S'that'
p196
S'that'
p197
S'WDT'
p198
S'B-NP'
p199
g5
tp200
a(S'can'
p201
S'can'
p202
S'MD'
p203
S'B-VP'
p204
g5
tp205
a(S'be'
p206
S'be'
p207
S'VB'
p208
S'I-VP'
p209
g5
tp210
a(S'prevented'
p211
S'prevent'
p212
S'VBN'
p213
S'I-VP'
p214
g5
tp215
a(S'through'
p216
S'through'
p217
S'IN'
p218
S'B-PP'
p219
g5
tp220
a(S'improved'
p221
S'improve'
p222
S'VBN'
p223
S'B-NP'
p224
g5
tp225
a(S'diet'
p226
S'diet'
p227
S'NN'
p228
S'I-NP'
p229
g5
tp230
a(S'and'
p231
S'and'
p232
S'CC'
p233
S'I-NP'
p234
g5
tp235
a(S'weight'
p236
S'weight'
p237
S'NN'
p238
S'I-NP'
p239
g5
tp240
a(S'management.'
p241
S'management.'
p242
S'NN'
p243
S'I-NP'
p244
g5
tp245
a(S'The'
p246
S'The'
p247
S'DT'
p248
S'B-NP'
p249
g5
tp250
a(S'tertiary'
p251
S'tertiary'
p252
S'JJ'
p253
S'I-NP'
p254
g5
tp255
a(S'prevention'
p256
S'prevention'
p257
S'NN'
p258
S'I-NP'
p259
g5
tp260
a(S'needs'
p261
S'need'
p262
S'NNS'
p263
S'I-NP'
p264
g5
tp265
a(S'of'
p266
S'of'
p267
S'IN'
p268
S'B-PP'
p269
g5
tp270
a(S'rural-dwelling'
p271
S'rural-dwelling'
p272
S'JJ'
p273
S'B-NP'
p274
S'B-protein'
p275
tp276
a(S'survivors'
p277
S'survivor'
p278
S'NNS'
p279
S'I-NP'
p280
S'I-protein'
p281
tp282
a(S'can'
p283
S'can'
p284
S'MD'
p285
S'B-VP'
p286
g5
tp287
a(S'be'
p288
S'be'
p289
S'VB'
p290
S'I-VP'
p291
g5
tp292
a(S'even'
p293
S'even'
p294
S'RB'
p295
S'B-ADJP'
p296
g5
tp297
a(S'greater'
p298
S'great'
p299
S'JJR'
p300
S'I-ADJP'
p301
g5
tp302
a(g42
g42
g42
g5
g5
tp303
a(S'yet'
p304
S'yet'
p305
S'RB'
p306
S'B-NP'
p307
g5
tp308
a(S'little'
p309
S'little'
p310
S'JJ'
p311
S'I-NP'
p312
g5
tp313
a(S'is'
p314
S'be'
p315
S'VBZ'
p316
S'B-VP'
p317
g5
tp318
a(S'known'
p319
S'know'
p320
S'VBN'
p321
S'I-VP'
p322
g5
tp323
a(S'about'
p324
S'about'
p325
S'IN'
p326
S'B-PP'
p327
g5
tp328
a(S'rural'
p329
S'rural'
p330
S'JJ'
p331
S'B-NP'
p332
g5
tp333
a(S'and'
p334
S'and'
p335
S'CC'
p336
S'I-NP'
p337
g5
tp338
a(S'urban'
p339
S'urban'
p340
S'JJ'
p341
S'I-NP'
p342
g5
tp343
a(S'differences'
p344
S'difference'
p345
S'NNS'
p346
S'I-NP'
p347
g5
tp348
a(S'in'
p349
S'in'
p350
S'IN'
p351
S'B-PP'
p352
g5
tp353
a(S'lifestyle'
p354
S'lifestyle'
p355
S'NN'
p356
S'B-NP'
p357
S'B-protein'
p358
tp359
a(S'factors'
p360
S'factor'
p361
S'NNS'
p362
S'I-NP'
p363
S'I-protein'
p364
tp365
a(S'among'
p366
S'among'
p367
S'IN'
p368
S'B-PP'
p369
g5
tp370
a(S'this'
p371
S'this'
p372
S'DT'
p373
S'B-NP'
p374
g5
tp375
a(S'high-risk'
p376
S'high-risk'
p377
S'JJ'
p378
S'I-NP'
p379
g5
tp380
a(S'population'
p381
S'population'
p382
S'NN'
p383
S'I-NP'
p384
g5
tp385
a(g120
g120
g120
g5
g5
tp386
a(S'OBJECTIVES'
p387
S'OBJECTIVES'
p388
S'NNS'
p389
S'B-NP'
p390
g5
tp391
a(S'To'
p392
S'To'
p393
S'TO'
p394
S'B-VP'
p395
g5
tp396
a(S'compare'
p397
S'compare'
p398
S'VB'
p399
S'I-VP'
p400
g5
tp401
a(S'dietary'
p402
S'dietary'
p403
S'JJ'
p404
S'B-NP'
p405
g5
tp406
a(S'patterns'
p407
S'pattern'
p408
S'NNS'
p409
S'I-NP'
p410
g5
tp411
a(S'of'
p412
S'of'
p413
S'IN'
p414
S'B-PP'
p415
g5
tp416
a(S'urban'
p417
S'urban'
p418
S'JJ'
p419
S'B-NP'
p420
g5
tp421
a(S'and'
p422
S'and'
p423
S'CC'
p424
S'I-NP'
p425
g5
tp426
a(S'rural'
p427
S'rural'
p428
S'JJ'
p429
S'I-NP'
p430
g5
tp431
a(S'cancer'
p432
S'cancer'
p433
S'NN'
p434
S'I-NP'
p435
g5
tp436
a(S'survivors'
p437
S'survivor'
p438
S'NNS'
p439
S'I-NP'
p440
g5
tp441
a(S'and'
p442
S'and'
p443
S'CC'
p444
g5
g5
tp445
a(S'to'
p446
S'to'
p447
S'TO'
p448
S'B-VP'
p449
g5
tp450
a(S'examine'
p451
S'examine'
p452
S'VB'
p453
S'I-VP'
p454
g5
tp455
a(S'associations'
p456
S'association'
p457
S'NNS'
p458
S'B-NP'
p459
g5
tp460
a(S'of'
p461
S'of'
p462
S'IN'
p463
S'B-PP'
p464
g5
tp465
a(S'dietary'
p466
S'dietary'
p467
S'JJ'
p468
S'B-NP'
p469
g5
tp470
a(S'patterns'
p471
S'pattern'
p472
S'NNS'
p473
S'I-NP'
p474
g5
tp475
a(S'with'
p476
S'with'
p477
S'IN'
p478
S'B-PP'
p479
g5
tp480
a(S'body'
p481
S'body'
p482
S'NN'
p483
S'B-NP'
p484
g5
tp485
a(S'mass'
p486
S'mass'
p487
S'NN'
p488
S'I-NP'
p489
g5
tp490
a(S'index'
p491
S'index'
p492
S'NN'
p493
S'I-NP'
p494
g5
tp495
a(S'('
p496
g496
g496
g5
g5
tp497
a(S'BMI'
p498
S'BMI'
p499
S'NN'
p500
S'B-NP'
p501
S'B-protein'
p502
tp503
a(S')'
p504
g504
g504
g5
g5
tp505
a(g120
g120
g120
g5
g5
tp506
a(S'DESIGN'
p507
S'DESIGN'
p508
S'NN'
p509
S'B-NP'
p510
g5
tp511
a(S'A'
p512
g512
S'DT'
p513
S'B-NP'
p514
g5
tp515
a(S'secondary'
p516
S'secondary'
p517
S'JJ'
p518
S'I-NP'
p519
g5
tp520
a(S'analysis'
p521
S'analysis'
p522
S'NN'
p523
S'I-NP'
p524
g5
tp525
a(S'was'
p526
S'be'
p527
S'VBD'
p528
S'B-VP'
p529
g5
tp530
a(S'performed'
p531
S'perform'
p532
S'VBN'
p533
S'I-VP'
p534
g5
tp535
a(S'of'
p536
S'of'
p537
S'IN'
p538
S'B-PP'
p539
g5
tp540
a(S'baseline'
p541
S'baseline'
p542
S'NN'
p543
S'B-NP'
p544
g5
tp545
a(S'data'
p546
S'datum'
p547
S'NNS'
p548
S'I-NP'
p549
g5
tp550
a(S'from'
p551
S'from'
p552
S'IN'
p553
S'B-PP'
p554
g5
tp555
a(S'the'
p556
S'the'
p557
S'DT'
p558
S'B-NP'
p559
g5
tp560
a(S'Reach'
p561
S'Reach'
p562
S'NNP'
p563
S'I-NP'
p564
g5
tp565
a(S'Out'
p566
S'Out'
p567
S'NNP'
p568
S'I-NP'
p569
g5
tp570
a(S'to'
p571
S'to'
p572
S'TO'
p573
S'B-VP'
p574
g5
tp575
a(S'Enhance'
p576
S'Enhance'
p577
S'VB'
p578
S'I-VP'
p579
g5
tp580
a(S'Wellness'
p581
S'Wellness'
p582
S'NN'
p583
S'B-NP'
p584
g5
tp585
a(g496
g496
g496
g5
g5
tp586
a(S'RENEW'
p587
S'RENEW'
p588
S'NN'
p589
S'B-NP'
p590
g5
tp591
a(g504
g504
g504
g5
g5
tp592
a(S'trial'
p593
S'trial'
p594
S'NN'
p595
S'B-NP'
p596
g5
tp597
a(g42
g42
g42
g5
g5
tp598
a(S'a'
p599
g599
S'DT'
p600
S'B-NP'
p601
g5
tp602
a(S'diet'
p603
S'diet'
p604
S'NN'
p605
S'I-NP'
p606
g5
tp607
a(S'and'
p608
S'and'
p609
S'CC'
p610
S'I-NP'
p611
g5
tp612
a(S'exercise'
p613
S'exercise'
p614
S'NN'
p615
S'I-NP'
p616
g5
tp617
a(S'intervention'
p618
S'intervention'
p619
S'NN'
p620
S'I-NP'
p621
g5
tp622
a(S'among'
p623
S'among'
p624
S'IN'
p625
S'B-PP'
p626
g5
tp627
a(S'overweight'
p628
S'overweight'
p629
S'JJ'
p630
S'B-NP'
p631
g5
tp632
a(g42
g42
g42
S'I-NP'
p633
g5
tp634
a(S'long-term'
p635
S'long-term'
p636
S'JJ'
p637
S'I-NP'
p638
g5
tp639
a(g496
g496
g496
g5
g5
tp640
a(S'\xe2\x89\xa55'
p641
S'\xe2\x89\xa55'
p642
S'CD'
p643
S'B-NP'
p644
g5
tp645
a(S'years'
p646
S'year'
p647
S'NNS'
p648
S'I-NP'
p649
g5
tp650
a(g504
g504
g504
g5
g5
tp651
a(g42
g42
g42
g5
g5
tp652
a(S'older'
p653
S'old'
p654
S'JJR'
p655
S'B-NP'
p656
g5
tp657
a(S'survivors'
p658
S'survivor'
p659
S'NNS'
p660
S'I-NP'
p661
g5
tp662
a(S'of'
p663
S'of'
p664
S'IN'
p665
S'B-PP'
p666
g5
tp667
a(S'colorectal'
p668
S'colorectal'
p669
S'JJ'
p670
S'B-NP'
p671
g5
tp672
a(g42
g42
g42
S'I-NP'
p673
g5
tp674
a(S'breast'
p675
S'breast'
p676
S'NN'
p677
S'I-NP'
p678
g5
tp679
a(g42
g42
g42
g5
g5
tp680
a(S'and'
p681
S'and'
p682
S'CC'
p683
g5
g5
tp684
a(S'prostate'
p685
S'prostate'
p686
S'NN'
p687
S'B-NP'
p688
g5
tp689
a(S'cancer.'
p690
S'cancer.'
p691
S'NN'
p692
S'I-NP'
p693
g5
tp694
a(S'Survivors'
p695
S'Survivor'
p696
S'NNS'
p697
S'I-NP'
p698
g5
tp699
a(S'in'
p700
S'in'
p701
S'IN'
p702
S'B-PP'
p703
g5
tp704
a(S'the'
p705
S'the'
p706
S'DT'
p707
S'B-NP'
p708
g5
tp709
a(S'present'
p710
S'present'
p711
S'JJ'
p712
S'I-NP'
p713
g5
tp714
a(S'analysis'
p715
S'analysis'
p716
S'NN'
p717
S'I-NP'
p718
g5
tp719
a(g496
g496
g496
g5
g5
tp720
a(S'n=729'
p721
S'n=729'
p722
S'NN'
p723
S'B-NP'
p724
g5
tp725
a(g504
g504
g504
g5
g5
tp726
a(S'underwent'
p727
S'undergo'
p728
S'VBD'
p729
S'B-VP'
p730
g5
tp731
a(S'two'
p732
S'two'
p733
S'CD'
p734
S'B-NP'
p735
g5
tp736
a(S'45-'
p737
S'45-'
p738
S'CD'
p739
S'I-NP'
p740
g5
tp741
a(S'to'
p742
S'to'
p743
S'TO'
p744
S'B-PP'
p745
g5
tp746
a(S'60-minute'
p747
S'60-minute'
p748
S'JJ'
p749
S'B-NP'
p750
g5
tp751
a(S'telephone'
p752
S'telephone'
p753
S'NN'
p754
S'I-NP'
p755
g5
tp756
a(S'surveys'
p757
S'survey'
p758
S'NNS'
p759
S'I-NP'
p760
g5
tp761
a(g42
g42
g42
g5
g5
tp762
a(S'which'
p763
S'which'
p764
S'WDT'
p765
S'B-NP'
p766
g5
tp767
a(S'included'
p768
S'include'
p769
S'VBD'
p770
S'B-VP'
p771
g5
tp772
a(S'two'
p773
S'two'
p774
S'CD'
p775
S'B-NP'
p776
g5
tp777
a(S'24-hour'
p778
S'24-hour'
p779
S'JJ'
p780
S'I-NP'
p781
g5
tp782
a(S'dietary'
p783
S'dietary'
p784
S'JJ'
p785
S'I-NP'
p786
g5
tp787
a(S'recalls.'
p788
S'recalls.'
p789
S'NN'
p790
S'I-NP'
p791
g5
tp792
a(S'Principal'
p793
S'Principal'
p794
S'NNP'
p795
S'I-NP'
p796
g5
tp797
a(S'components'
p798
S'component'
p799
S'NNS'
p800
S'I-NP'
p801
g5
tp802
a(S'analysis'
p803
S'analysis'
p804
S'NN'
p805
S'I-NP'
p806
g5
tp807
a(S'and'
p808
S'and'
p809
S'CC'
p810
g5
g5
tp811
a(S'multivariable'
p812
S'multivariable'
p813
S'JJ'
p814
S'B-NP'
p815
g5
tp816
a(S'general'
p817
S'general'
p818
S'JJ'
p819
S'I-NP'
p820
g5
tp821
a(S'linear'
p822
S'linear'
p823
S'JJ'
p824
S'I-NP'
p825
g5
tp826
a(S'models'
p827
S'model'
p828
S'NNS'
p829
S'I-NP'
p830
g5
tp831
a(S'were'
p832
S'be'
p833
S'VBD'
p834
S'B-VP'
p835
g5
tp836
a(S'used'
p837
S'use'
p838
S'VBN'
p839
S'I-VP'
p840
g5
tp841
a(S'to'
p842
S'to'
p843
S'TO'
p844
S'B-VP'
p845
g5
tp846
a(S'derive'
p847
S'derive'
p848
S'VB'
p849
S'I-VP'
p850
g5
tp851
a(S'dietary'
p852
S'dietary'
p853
S'JJ'
p854
S'B-NP'
p855
g5
tp856
a(S'patterns'
p857
S'pattern'
p858
S'NNS'
p859
S'I-NP'
p860
g5
tp861
a(S'and'
p862
S'and'
p863
S'CC'
p864
g5
g5
tp865
a(S'to'
p866
S'to'
p867
S'TO'
p868
S'B-VP'
p869
g5
tp870
a(S'evaluate'
p871
S'evaluate'
p872
S'VB'
p873
S'I-VP'
p874
g5
tp875
a(S'associations'
p876
S'association'
p877
S'NNS'
p878
S'B-NP'
p879
g5
tp880
a(S'between'
p881
S'between'
p882
S'IN'
p883
S'B-PP'
p884
g5
tp885
a(S'dietary'
p886
S'dietary'
p887
S'JJ'
p888
S'B-NP'
p889
g5
tp890
a(S'patterns'
p891
S'pattern'
p892
S'NNS'
p893
S'I-NP'
p894
g5
tp895
a(S'and'
p896
S'and'
p897
S'CC'
p898
g5
g5
tp899
a(S'BMI'
p900
S'BMI'
p901
S'NN'
p902
S'B-NP'
p903
g5
tp904
a(g42
g42
g42
g5
g5
tp905
a(S'respectively'
p906
S'respectively'
p907
S'RB'
p908
S'B-ADVP'
p909
g5
tp910
a(g120
g120
g120
g5
g5
tp911
a(S'RESULTS'
p912
S'RESULTS'
p913
S'NNS'
p914
S'B-NP'
p915
g5
tp916
a(S'Principal'
p917
S'Principal'
p918
S'NNP'
p919
S'I-NP'
p920
g5
tp921
a(S'components'
p922
S'component'
p923
S'NNS'
p924
S'I-NP'
p925
g5
tp926
a(S'analysis'
p927
S'analysis'
p928
S'NN'
p929
S'I-NP'
p930
g5
tp931
a(S'identified'
p932
S'identify'
p933
S'VBD'
p934
S'B-VP'
p935
g5
tp936
a(S'three'
p937
S'three'
p938
S'CD'
p939
S'B-NP'
p940
g5
tp941
a(S'primary'
p942
S'primary'
p943
S'JJ'
p944
S'I-NP'
p945
g5
tp946
a(S'dietary'
p947
S'dietary'
p948
S'JJ'
p949
S'I-NP'
p950
g5
tp951
a(S'patterns'
p952
S'pattern'
p953
S'NNS'
p954
S'I-NP'
p955
g5
tp956
a(S'among'
p957
S'among'
p958
S'IN'
p959
S'B-PP'
p960
g5
tp961
a(S'rural'
p962
S'rural'
p963
S'JJ'
p964
S'B-NP'
p965
g5
tp966
a(S'dwellers'
p967
S'dweller'
p968
S'NNS'
p969
S'I-NP'
p970
g5
tp971
a(g496
g496
g496
g5
g5
tp972
a(S'high'
p973
S'high'
p974
S'JJ'
p975
S'B-NP'
p976
g5
tp977
a(S'sweets'
p978
S'sweet'
p979
S'NNS'
p980
S'I-NP'
p981
g5
tp982
a(S'and'
p983
S'and'
p984
S'CC'
p985
S'I-NP'
p986
g5
tp987
a(S'starches'
p988
S'starch'
p989
S'NNS'
p990
S'I-NP'
p991
g5
tp992
a(g42
g42
g42
g5
g5
tp993
a(S'high'
p994
S'high'
p995
S'JJ'
p996
S'B-NP'
p997
g5
tp998
a(S'reduced-fat'
p999
S'reduced-fat'
p1000
S'NN'
p1001
S'I-NP'
p1002
g5
tp1003
a(S'dairy'
p1004
S'dairy'
p1005
S'NN'
p1006
S'I-NP'
p1007
g5
tp1008
a(g42
g42
g42
g5
g5
tp1009
a(S'cereal'
p1010
S'cereal'
p1011
S'NN'
p1012
S'B-NP'
p1013
g5
tp1014
a(g42
g42
g42
g5
g5
tp1015
a(S'nuts'
p1016
S'nut'
p1017
S'NNS'
p1018
S'B-NP'
p1019
g5
tp1020
a(g42
g42
g42
g5
g5
tp1021
a(S'and'
p1022
S'and'
p1023
S'CC'
p1024
g5
g5
tp1025
a(S'fruits'
p1026
S'fruit'
p1027
S'NNS'
p1028
S'B-NP'
p1029
g5
tp1030
a(g42
g42
g42
g5
g5
tp1031
a(S'and'
p1032
S'and'
p1033
S'CC'
p1034
g5
g5
tp1035
a(S'mixed'
p1036
S'mix'
p1037
S'VBN'
p1038
S'B-VP'
p1039
g5
tp1040
a(g504
g504
g504
g5
g5
tp1041
a(S'and'
p1042
S'and'
p1043
S'CC'
p1044
g5
g5
tp1045
a(S'three'
p1046
S'three'
p1047
S'CD'
p1048
S'B-NP'
p1049
g5
tp1050
a(S'among'
p1051
S'among'
p1052
S'IN'
p1053
S'B-PP'
p1054
g5
tp1055
a(S'urban'
p1056
S'urban'
p1057
S'JJ'
p1058
S'B-NP'
p1059
g5
tp1060
a(S'dwellers'
p1061
S'dweller'
p1062
S'NNS'
p1063
S'I-NP'
p1064
g5
tp1065
a(g496
g496
g496
g5
g5
tp1066
a(S'high'
p1067
S'high'
p1068
S'JJ'
p1069
S'B-NP'
p1070
g5
tp1071
a(S'fruits'
p1072
S'fruit'
p1073
S'NNS'
p1074
S'I-NP'
p1075
g5
tp1076
a(S'and'
p1077
S'and'
p1078
S'CC'
p1079
S'I-NP'
p1080
g5
tp1081
a(S'vegetables'
p1082
S'vegetable'
p1083
S'NNS'
p1084
S'I-NP'
p1085
g5
tp1086
a(g42
g42
g42
g5
g5
tp1087
a(S'high'
p1088
S'high'
p1089
S'JJ'
p1090
S'B-NP'
p1091
g5
tp1092
a(S'meat'
p1093
S'meat'
p1094
S'NN'
p1095
S'I-NP'
p1096
g5
tp1097
a(S'and'
p1098
S'and'
p1099
S'CC'
p1100
g5
g5
tp1101
a(S'refined'
p1102
S'refined'
p1103
S'JJ'
p1104
S'B-NP'
p1105
g5
tp1106
a(S'grains'
p1107
S'grain'
p1108
S'NNS'
p1109
S'I-NP'
p1110
g5
tp1111
a(g42
g42
g42
g5
g5
tp1112
a(S'and'
p1113
S'and'
p1114
S'CC'
p1115
g5
g5
tp1116
a(S'high'
p1117
S'high'
p1118
S'JJ'
p1119
S'B-NP'
p1120
g5
tp1121
a(S'sugar-sweetened'
p1122
S'sugar-sweetened'
p1123
S'JJ'
p1124
S'I-NP'
p1125
g5
tp1126
a(S'beverages'
p1127
S'beverage'
p1128
S'NNS'
p1129
S'I-NP'
p1130
g5
tp1131
a(g504
g504
g504
g5
g5
tp1132
a(g120
g120
g120
g5
g5
tp1133
a(S'Among'
p1134
S'Among'
p1135
S'IN'
p1136
S'B-PP'
p1137
g5
tp1138
a(S'rural'
p1139
S'rural'
p1140
S'JJ'
p1141
S'B-NP'
p1142
g5
tp1143
a(S'survivors'
p1144
S'survivor'
p1145
S'NNS'
p1146
S'I-NP'
p1147
g5
tp1148
a(g42
g42
g42
g5
g5
tp1149
a(S'greater'
p1150
S'great'
p1151
S'JJR'
p1152
S'B-NP'
p1153
g5
tp1154
a(S'adherence'
p1155
S'adherence'
p1156
S'NN'
p1157
S'I-NP'
p1158
g5
tp1159
a(S'to'
p1160
S'to'
p1161
S'TO'
p1162
S'B-PP'
p1163
g5
tp1164
a(S'the'
p1165
S'the'
p1166
S'DT'
p1167
S'B-NP'
p1168
g5
tp1169
a(S'high'
p1170
S'high'
p1171
S'JJ'
p1172
S'I-NP'
p1173
g5
tp1174
a(S'reduced-fat'
p1175
S'reduced-fat'
p1176
S'JJ'
p1177
S'I-NP'
p1178
g5
tp1179
a(S'dairy'
p1180
S'dairy'
p1181
S'NN'
p1182
S'I-NP'
p1183
g5
tp1184
a(g42
g42
g42
g5
g5
tp1185
a(S'cereal'
p1186
S'cereal'
p1187
S'NN'
p1188
S'B-NP'
p1189
g5
tp1190
a(g42
g42
g42
g5
g5
tp1191
a(S'nuts'
p1192
S'nut'
p1193
S'NNS'
p1194
S'B-NP'
p1195
g5
tp1196
a(g42
g42
g42
g5
g5
tp1197
a(S'and'
p1198
S'and'
p1199
S'CC'
p1200
g5
g5
tp1201
a(S'fruits'
p1202
S'fruit'
p1203
S'NNS'
p1204
S'B-NP'
p1205
g5
tp1206
a(S'pattern'
p1207
S'pattern'
p1208
S'NN'
p1209
S'I-NP'
p1210
g5
tp1211
a(S'was'
p1212
S'be'
p1213
S'VBD'
p1214
S'B-VP'
p1215
g5
tp1216
a(S'positively'
p1217
S'positively'
p1218
S'RB'
p1219
S'I-VP'
p1220
g5
tp1221
a(S'associated'
p1222
S'associate'
p1223
S'VBN'
p1224
S'I-VP'
p1225
g5
tp1226
a(S'with'
p1227
S'with'
p1228
S'IN'
p1229
S'B-PP'
p1230
g5
tp1231
a(S'lower'
p1232
S'low'
p1233
S'JJR'
p1234
S'B-NP'
p1235
g5
tp1236
a(S'BMI'
p1237
S'BMI'
p1238
S'NN'
p1239
S'I-NP'
p1240
g5
tp1241
a(g496
g496
g496
g5
g5
tp1242
a(S'P'
p1243
g1243
S'NN'
p1244
S'B-NP'
p1245
g5
tp1246
a(S'trend'
p1247
S'trend'
p1248
S'NN'
p1249
S'I-NP'
p1250
g5
tp1251
a(S'<'
p1252
g1252
S'SYM'
p1253
S'B-NP'
p1254
g5
tp1255
a(S'0.05'
p1256
S'0.05'
p1257
S'CD'
p1258
S'I-NP'
p1259
g5
tp1260
a(g504
g504
g504
g5
g5
tp1261
a(g42
g42
g42
g5
g5
tp1262
a(S'whereas'
p1263
S'whereas'
p1264
S'IN'
p1265
g5
g5
tp1266
a(S'higher'
p1267
S'high'
p1268
S'JJR'
p1269
S'B-NP'
p1270
g5
tp1271
a(S'scores'
p1272
S'score'
p1273
S'NNS'
p1274
S'I-NP'
p1275
g5
tp1276
a(S'on'
p1277
S'on'
p1278
S'IN'
p1279
S'B-PP'
p1280
g5
tp1281
a(S'the'
p1282
S'the'
p1283
S'DT'
p1284
S'B-NP'
p1285
g5
tp1286
a(S'mixed'
p1287
S'mixed'
p1288
S'JJ'
p1289
S'I-NP'
p1290
g5
tp1291
a(S'pattern'
p1292
S'pattern'
p1293
S'NN'
p1294
S'I-NP'
p1295
g5
tp1296
a(S'was'
p1297
S'be'
p1298
S'VBD'
p1299
S'B-VP'
p1300
g5
tp1301
a(S'associated'
p1302
S'associate'
p1303
S'VBN'
p1304
S'I-VP'
p1305
g5
tp1306
a(S'with'
p1307
S'with'
p1308
S'IN'
p1309
S'B-PP'
p1310
g5
tp1311
a(S'greater'
p1312
S'great'
p1313
S'JJR'
p1314
S'B-NP'
p1315
g5
tp1316
a(S'BMI'
p1317
S'BMI'
p1318
S'NN'
p1319
S'I-NP'
p1320
g5
tp1321
a(g496
g496
g496
g5
g5
tp1322
a(g1243
g1243
S'NN'
p1323
S'B-NP'
p1324
g5
tp1325
a(S'trend'
p1326
S'trend'
p1327
S'NN'
p1328
S'I-NP'
p1329
g5
tp1330
a(g1252
g1252
S'SYM'
p1331
S'B-NP'
p1332
g5
tp1333
a(S'0.05'
p1334
S'0.05'
p1335
S'CD'
p1336
S'I-NP'
p1337
g5
tp1338
a(g504
g504
g504
g5
g5
tp1339
a(g120
g120
g120
g5
g5
tp1340
a(S'Greater'
p1341
S'Greater'
p1342
S'JJ'
p1343
S'B-NP'
p1344
g5
tp1345
a(S'adherence'
p1346
S'adherence'
p1347
S'NN'
p1348
S'I-NP'
p1349
g5
tp1350
a(S'to'
p1351
S'to'
p1352
S'TO'
p1353
S'B-PP'
p1354
g5
tp1355
a(S'the'
p1356
S'the'
p1357
S'DT'
p1358
S'B-NP'
p1359
g5
tp1360
a(S'high'
p1361
S'high'
p1362
S'JJ'
p1363
S'I-NP'
p1364
g5
tp1365
a(S'fruits'
p1366
S'fruit'
p1367
S'NNS'
p1368
S'I-NP'
p1369
g5
tp1370
a(S'and'
p1371
S'and'
p1372
S'CC'
p1373
S'I-NP'
p1374
g5
tp1375
a(S'vegetables'
p1376
S'vegetable'
p1377
S'NNS'
p1378
S'I-NP'
p1379
g5
tp1380
a(S'pattern'
p1381
S'pattern'
p1382
S'NN'
p1383
S'I-NP'
p1384
g5
tp1385
a(S'among'
p1386
S'among'
p1387
S'IN'
p1388
S'B-PP'
p1389
g5
tp1390
a(S'urban'
p1391
S'urban'
p1392
S'JJ'
p1393
S'B-NP'
p1394
g5
tp1395
a(S'survivors'
p1396
S'survivor'
p1397
S'NNS'
p1398
S'I-NP'
p1399
g5
tp1400
a(S'was'
p1401
S'be'
p1402
S'VBD'
p1403
S'B-VP'
p1404
g5
tp1405
a(S'inversely'
p1406
S'inversely'
p1407
S'RB'
p1408
S'I-VP'
p1409
g5
tp1410
a(S'associated'
p1411
S'associate'
p1412
S'VBN'
p1413
S'I-VP'
p1414
g5
tp1415
a(S'with'
p1416
S'with'
p1417
S'IN'
p1418
S'B-PP'
p1419
g5
tp1420
a(S'BMI'
p1421
S'BMI'
p1422
S'NN'
p1423
S'B-NP'
p1424
S'B-protein'
p1425
tp1426
a(g496
g496
g496
g5
g5
tp1427
a(g1243
g1243
S'NN'
p1428
S'B-NP'
p1429
g5
tp1430
a(S'trend'
p1431
S'trend'
p1432
S'NN'
p1433
S'I-NP'
p1434
g5
tp1435
a(g1252
g1252
S'SYM'
p1436
S'B-NP'
p1437
g5
tp1438
a(S'0.05'
p1439
S'0.05'
p1440
S'CD'
p1441
S'I-NP'
p1442
g5
tp1443
a(g504
g504
g504
g5
g5
tp1444
a(g120
g120
g120
g5
g5
tp1445
a(S'CONCLUSIONS'
p1446
S'CONCLUSIONS'
p1447
S'NNS'
p1448
S'B-NP'
p1449
g5
tp1450
a(S'Urban'
p1451
S'Urban'
p1452
S'JJ'
p1453
S'I-NP'
p1454
g5
tp1455
a(S'and'
p1456
S'and'
p1457
S'CC'
p1458
S'I-NP'
p1459
g5
tp1460
a(S'rural'
p1461
S'rural'
p1462
S'JJ'
p1463
S'I-NP'
p1464
g5
tp1465
a(S'differences'
p1466
S'difference'
p1467
S'NNS'
p1468
S'I-NP'
p1469
g5
tp1470
a(S'in'
p1471
S'in'
p1472
S'IN'
p1473
S'B-PP'
p1474
g5
tp1475
a(S'dietary'
p1476
S'dietary'
p1477
S'JJ'
p1478
S'B-NP'
p1479
g5
tp1480
a(S'intake'
p1481
S'intake'
p1482
S'NN'
p1483
S'I-NP'
p1484
g5
tp1485
a(S'behavior'
p1486
S'behavior'
p1487
S'NN'
p1488
S'I-NP'
p1489
g5
tp1490
a(S'should'
p1491
S'should'
p1492
S'MD'
p1493
S'B-VP'
p1494
g5
tp1495
a(S'be'
p1496
S'be'
p1497
S'VB'
p1498
S'I-VP'
p1499
g5
tp1500
a(S'considered'
p1501
S'consider'
p1502
S'VBN'
p1503
S'I-VP'
p1504
g5
tp1505
a(S'in'
p1506
S'in'
p1507
S'IN'
p1508
S'B-PP'
p1509
g5
tp1510
a(S'designing'
p1511
S'design'
p1512
S'VBG'
p1513
S'B-VP'
p1514
g5
tp1515
a(S'public'
p1516
S'public'
p1517
S'JJ'
p1518
S'B-NP'
p1519
g5
tp1520
a(S'health'
p1521
S'health'
p1522
S'NN'
p1523
S'I-NP'
p1524
g5
tp1525
a(S'interventions'
p1526
S'intervention'
p1527
S'NNS'
p1528
S'I-NP'
p1529
g5
tp1530
a(S'among'
p1531
S'among'
p1532
S'IN'
p1533
S'B-PP'
p1534
g5
tp1535
a(S'the'
p1536
S'the'
p1537
S'DT'
p1538
S'B-NP'
p1539
g5
tp1540
a(S'increasing'
p1541
S'increase'
p1542
S'VBG'
p1543
S'I-NP'
p1544
g5
tp1545
a(S'population'
p1546
S'population'
p1547
S'NN'
p1548
S'I-NP'
p1549
g5
tp1550
a(S'of'
p1551
S'of'
p1552
S'IN'
p1553
S'B-PP'
p1554
g5
tp1555
a(S'older'
p1556
S'old'
p1557
S'JJR'
p1558
S'B-NP'
p1559
g5
tp1560
a(S'cancer'
p1561
S'cancer'
p1562
S'NN'
p1563
S'I-NP'
p1564
g5
tp1565
a(S'survivors.'
p1566
S'survivors.'
p1567
S'NN'
p1568
S'I-NP'
p1569
g5
tp1570
a(S'In'
p1571
S'In'
p1572
S'IN'
p1573
S'B-PP'
p1574
g5
tp1575
a(S'addition'
p1576
S'addition'
p1577
S'NN'
p1578
S'B-NP'
p1579
g5
tp1580
a(g42
g42
g42
g5
g5
tp1581
a(S'targeting'
p1582
S'target'
p1583
S'VBG'
p1584
S'B-VP'
p1585
g5
tp1586
a(S'overall'
p1587
S'overall'
p1588
S'JJ'
p1589
S'B-NP'
p1590
g5
tp1591
a(S'dietary'
p1592
S'dietary'
p1593
S'JJ'
p1594
S'I-NP'
p1595
g5
tp1596
a(S'patterns'
p1597
S'pattern'
p1598
S'NNS'
p1599
S'I-NP'
p1600
g5
tp1601
a(S'might'
p1602
S'might'
p1603
S'MD'
p1604
S'B-VP'
p1605
g5
tp1606
a(S'be'
p1607
S'be'
p1608
S'VB'
p1609
S'I-VP'
p1610
g5
tp1611
a(S'one'
p1612
S'one'
p1613
S'CD'
p1614
S'B-NP'
p1615
g5
tp1616
a(S'approach'
p1617
S'approach'
p1618
S'NN'
p1619
S'I-NP'
p1620
g5
tp1621
a(S'to'
p1622
S'to'
p1623
S'TO'
p1624
S'B-VP'
p1625
g5
tp1626
a(S'help'
p1627
S'help'
p1628
S'VB'
p1629
S'I-VP'
p1630
g5
tp1631
a(S'reduce'
p1632
S'reduce'
p1633
S'VB'
p1634
S'I-VP'
p1635
g5
tp1636
a(S'the'
p1637
S'the'
p1638
S'DT'
p1639
S'B-NP'
p1640
g5
tp1641
a(S'burden'
p1642
S'burden'
p1643
S'NN'
p1644
S'I-NP'
p1645
g5
tp1646
a(S'of'
p1647
S'of'
p1648
S'IN'
p1649
S'B-PP'
p1650
g5
tp1651
a(S'obesity'
p1652
S'obesity'
p1653
S'NN'
p1654
S'B-NP'
p1655
g5
tp1656
a(S'among'
p1657
S'among'
p1658
S'IN'
p1659
S'B-PP'
p1660
g5
tp1661
a(S'this'
p1662
S'this'
p1663
S'DT'
p1664
S'B-NP'
p1665
g5
tp1666
a(S'population'
p1667
S'population'
p1668
S'NN'
p1669
S'I-NP'
p1670
g5
tp1671
a(g120
g120
g120
g5
g5
tp1672
a.