(lp0
(S'Comparison'
p1
S'Comparison'
p2
S'NN'
p3
S'B-NP'
p4
S'O'
p5
tp6
a(S'of'
p7
S'of'
p8
S'IN'
p9
S'B-PP'
p10
g5
tp11
a(S'the'
p12
S'the'
p13
S'DT'
p14
S'B-NP'
p15
g5
tp16
a(S'relative'
p17
S'relative'
p18
S'JJ'
p19
S'I-NP'
p20
g5
tp21
a(S'efficacy'
p22
S'efficacy'
p23
S'NN'
p24
S'I-NP'
p25
g5
tp26
a(S'of'
p27
S'of'
p28
S'IN'
p29
S'B-PP'
p30
g5
tp31
a(S'formoterol'
p32
S'formoterol'
p33
S'NN'
p34
S'B-NP'
p35
g5
tp36
a(S'and'
p37
S'and'
p38
S'CC'
p39
S'I-NP'
p40
g5
tp41
a(S'salmeterol'
p42
S'salmeterol'
p43
S'NN'
p44
S'I-NP'
p45
g5
tp46
a(S'in'
p47
S'in'
p48
S'IN'
p49
S'B-PP'
p50
g5
tp51
a(S'asthmatic'
p52
S'asthmatic'
p53
S'JJ'
p54
S'B-NP'
p55
g5
tp56
a(S'patients'
p57
S'patient'
p58
S'NNS'
p59
S'I-NP'
p60
g5
tp61
a(S'.'
p62
g62
g62
g5
g5
tp63
a(S'Studies'
p64
S'Study'
p65
S'NNS'
p66
S'B-NP'
p67
g5
tp68
a(S'performed'
p69
S'perform'
p70
S'VBN'
p71
S'B-VP'
p72
g5
tp73
a(S'on'
p74
S'on'
p75
S'IN'
p76
S'B-PP'
p77
g5
tp78
a(S'airway'
p79
S'airway'
p80
S'NN'
p81
S'B-NP'
p82
g5
tp83
a(S'smooth'
p84
S'smooth'
p85
S'JJ'
p86
S'I-NP'
p87
g5
tp88
a(S'muscle'
p89
S'muscle'
p90
S'NN'
p91
S'I-NP'
p92
g5
tp93
a(S'in'
p94
S'in'
p95
S'FW'
p96
S'B-ADVP'
p97
g5
tp98
a(S'vitro'
p99
S'vitro'
p100
S'FW'
p101
S'I-ADVP'
p102
g5
tp103
a(S'have'
p104
S'have'
p105
S'VBP'
p106
S'B-VP'
p107
g5
tp108
a(S'indicated'
p109
S'indicate'
p110
S'VBN'
p111
S'I-VP'
p112
g5
tp113
a(S'that'
p114
S'that'
p115
S'IN'
p116
S'B-SBAR'
p117
g5
tp118
a(S'salmeterol'
p119
S'salmeterol'
p120
S'NN'
p121
S'B-NP'
p122
g5
tp123
a(S'is'
p124
S'be'
p125
S'VBZ'
p126
S'B-VP'
p127
g5
tp128
a(S'a'
p129
g129
S'DT'
p130
S'B-NP'
p131
g5
tp132
a(S'partial'
p133
S'partial'
p134
S'JJ'
p135
S'I-NP'
p136
g5
tp137
a(S'agonist'
p138
S'agonist'
p139
S'NN'
p140
S'I-NP'
p141
g5
tp142
a(S'on'
p143
S'on'
p144
S'IN'
p145
S'B-PP'
p146
g5
tp147
a(S'the'
p148
S'the'
p149
S'DT'
p150
S'B-NP'
p151
g5
tp152
a(S'beta2-receptor'
p153
S'beta2-receptor'
p154
S'NN'
p155
S'I-NP'
p156
S'B-protein'
p157
tp158
a(S'in'
p159
S'in'
p160
S'IN'
p161
S'B-PP'
p162
g5
tp163
a(S'comparison'
p164
S'comparison'
p165
S'NN'
p166
S'B-NP'
p167
g5
tp168
a(S'to'
p169
S'to'
p170
S'TO'
p171
S'B-VP'
p172
g5
tp173
a(S'formoterol.'
p174
S'formoterol.'
p175
S'VB'
p176
S'I-VP'
p177
g5
tp178
a(S'In'
p179
S'In'
p180
S'IN'
p181
S'B-PP'
p182
g5
tp183
a(S'the'
p184
S'the'
p185
S'DT'
p186
S'B-NP'
p187
g5
tp188
a(S'present'
p189
S'present'
p190
S'JJ'
p191
S'I-NP'
p192
g5
tp193
a(S'study'
p194
S'study'
p195
S'NN'
p196
S'I-NP'
p197
g5
tp198
a(S'we'
p199
S'we'
p200
S'PRP'
p201
S'B-NP'
p202
g5
tp203
a(S'evaluated'
p204
S'evaluate'
p205
S'VBD'
p206
S'B-VP'
p207
g5
tp208
a(S'whether'
p209
S'whether'
p210
S'IN'
p211
S'B-SBAR'
p212
g5
tp213
a(S'these'
p214
S'these'
p215
S'DT'
p216
S'B-NP'
p217
g5
tp218
a(S'pharmacological'
p219
S'pharmacological'
p220
S'JJ'
p221
S'I-NP'
p222
g5
tp223
a(S'differences'
p224
S'difference'
p225
S'NNS'
p226
S'I-NP'
p227
g5
tp228
a(S'between'
p229
S'between'
p230
S'IN'
p231
S'B-PP'
p232
g5
tp233
a(S'salmeterol'
p234
S'salmeterol'
p235
S'NN'
p236
S'B-NP'
p237
g5
tp238
a(S'and'
p239
S'and'
p240
S'CC'
p241
S'I-NP'
p242
g5
tp243
a(S'formoterol'
p244
S'formoterol'
p245
S'NN'
p246
S'I-NP'
p247
g5
tp248
a(S'also'
p249
S'also'
p250
S'RB'
p251
S'B-ADVP'
p252
g5
tp253
a(S'are'
p254
S'be'
p255
S'VBP'
p256
S'B-VP'
p257
g5
tp258
a(S'applicable'
p259
S'applicable'
p260
S'JJ'
p261
S'B-ADJP'
p262
g5
tp263
a(S'to'
p264
S'to'
p265
S'TO'
p266
S'B-PP'
p267
g5
tp268
a(S'asthmatic'
p269
S'asthmatic'
p270
S'JJ'
p271
S'B-NP'
p272
g5
tp273
a(S'patients.'
p274
S'patients.'
p275
S'NNS'
p276
S'I-NP'
p277
g5
tp278
a(S'The'
p279
S'The'
p280
S'DT'
p281
S'B-NP'
p282
g5
tp283
a(S'protective'
p284
S'protective'
p285
S'JJ'
p286
S'I-NP'
p287
g5
tp288
a(S'effects'
p289
S'effect'
p290
S'NNS'
p291
S'I-NP'
p292
g5
tp293
a(S'by'
p294
S'by'
p295
S'IN'
p296
S'B-PP'
p297
g5
tp298
a(S'increasing'
p299
S'increase'
p300
S'VBG'
p301
S'B-VP'
p302
g5
tp303
a(S'cumulative'
p304
S'cumulative'
p305
S'JJ'
p306
S'B-NP'
p307
g5
tp308
a(S'doses'
p309
S'dose'
p310
S'NNS'
p311
S'I-NP'
p312
g5
tp313
a(S'of'
p314
S'of'
p315
S'IN'
p316
S'B-PP'
p317
g5
tp318
a(S'formoterol'
p319
S'formoterol'
p320
S'NN'
p321
S'B-NP'
p322
g5
tp323
a(S'('
p324
g324
g324
g5
g5
tp325
a(S'12'
p326
S'12'
p327
S'CD'
p328
S'B-NP'
p329
g5
tp330
a(S','
p331
g331
g331
S'I-NP'
p332
g5
tp333
a(S'60'
p334
S'60'
p335
S'CD'
p336
S'I-NP'
p337
g5
tp338
a(g331
g331
g331
S'I-NP'
p339
g5
tp340
a(S'120'
p341
S'120'
p342
S'CD'
p343
S'I-NP'
p344
g5
tp345
a(S'micrograms'
p346
S'microgram'
p347
S'NNS'
p348
S'I-NP'
p349
g5
tp350
a(S')'
p351
g351
g351
g5
g5
tp352
a(S'and'
p353
S'and'
p354
S'CC'
p355
g5
g5
tp356
a(S'salmeterol'
p357
S'salmeterol'
p358
S'NN'
p359
S'B-NP'
p360
g5
tp361
a(g324
g324
g324
g5
g5
tp362
a(S'50'
p363
S'50'
p364
S'CD'
p365
S'B-NP'
p366
g5
tp367
a(g331
g331
g331
S'I-NP'
p368
g5
tp369
a(S'250'
p370
S'250'
p371
S'CD'
p372
S'I-NP'
p373
g5
tp374
a(g331
g331
g331
S'I-NP'
p375
g5
tp376
a(S'500'
p377
S'500'
p378
S'CD'
p379
S'I-NP'
p380
g5
tp381
a(S'micrograms'
p382
S'microgram'
p383
S'NNS'
p384
S'I-NP'
p385
g5
tp386
a(g351
g351
g351
g5
g5
tp387
a(S'on'
p388
S'on'
p389
S'IN'
p390
S'B-PP'
p391
g5
tp392
a(S'methacholine-induced'
p393
S'methacholine-induced'
p394
S'JJ'
p395
S'B-NP'
p396
g5
tp397
a(S'bronchoconstriction'
p398
S'bronchoconstriction'
p399
S'NN'
p400
S'I-NP'
p401
g5
tp402
a(S'were'
p403
S'be'
p404
S'VBD'
p405
S'B-VP'
p406
g5
tp407
a(S'evaluated'
p408
S'evaluate'
p409
S'VBN'
p410
S'I-VP'
p411
g5
tp412
a(S'in'
p413
S'in'
p414
S'IN'
p415
S'B-PP'
p416
g5
tp417
a(g129
g129
S'DT'
p418
S'B-NP'
p419
g5
tp420
a(S'double-blind'
p421
S'double-blind'
p422
S'JJ'
p423
S'I-NP'
p424
g5
tp425
a(g331
g331
g331
S'I-NP'
p426
g5
tp427
a(S'crossover'
p428
S'crossover'
p429
S'JJ'
p430
S'I-NP'
p431
g5
tp432
a(g331
g331
g331
S'I-NP'
p433
g5
tp434
a(S'placebo-controlled'
p435
S'placebo-controlled'
p436
S'JJ'
p437
S'I-NP'
p438
g5
tp439
a(S'design.'
p440
S'design.'
p441
S'NN'
p442
S'I-NP'
p443
g5
tp444
a(S'Patients'
p445
S'Patient'
p446
S'NNS'
p447
S'I-NP'
p448
g5
tp449
a(S'were'
p450
S'be'
p451
S'VBD'
p452
S'B-VP'
p453
g5
tp454
a(S'regularly'
p455
S'regularly'
p456
S'RB'
p457
S'I-VP'
p458
g5
tp459
a(S'treated'
p460
S'treat'
p461
S'VBN'
p462
S'I-VP'
p463
g5
tp464
a(S'with'
p465
S'with'
p466
S'IN'
p467
S'B-PP'
p468
g5
tp469
a(S'salbutamol'
p470
S'salbutamol'
p471
S'NN'
p472
S'B-NP'
p473
g5
tp474
a(S'200'
p475
S'200'
p476
S'CD'
p477
S'B-NP'
p478
g5
tp479
a(S'micrograms'
p480
S'microgram'
p481
S'NNS'
p482
S'I-NP'
p483
g5
tp484
a(S'twice'
p485
S'twice'
p486
S'RB'
p487
S'B-ADVP'
p488
g5
tp489
a(S'daily'
p490
S'daily'
p491
S'RB'
p492
S'I-ADVP'
p493
g5
tp494
a(S'during'
p495
S'during'
p496
S'IN'
p497
S'B-PP'
p498
g5
tp499
a(S'the'
p500
S'the'
p501
S'DT'
p502
S'B-NP'
p503
g5
tp504
a(S'study'
p505
S'study'
p506
S'NN'
p507
S'I-NP'
p508
g5
tp509
a(S'period'
p510
S'period'
p511
S'NN'
p512
S'I-NP'
p513
g5
tp514
a(g331
g331
g331
g5
g5
tp515
a(S'to'
p516
S'to'
p517
S'TO'
p518
S'B-VP'
p519
g5
tp520
a(S'avoid'
p521
S'avoid'
p522
S'VB'
p523
S'I-VP'
p524
g5
tp525
a(S'variability'
p526
S'variability'
p527
S'NN'
p528
S'B-NP'
p529
g5
tp530
a(S'in'
p531
S'in'
p532
S'IN'
p533
S'B-PP'
p534
g5
tp535
a(S'beta2-adrenoceptor'
p536
S'beta2-adrenoceptor'
p537
S'NN'
p538
S'B-NP'
p539
g5
tp540
a(S'tolerance.'
p541
S'tolerance.'
p542
S'NN'
p543
S'I-NP'
p544
g5
tp545
a(S'S-potassium'
p546
S'S-potassium'
p547
S'NN'
p548
S'I-NP'
p549
g5
tp550
a(g331
g331
g331
g5
g5
tp551
a(S'heart'
p552
S'heart'
p553
S'NN'
p554
S'B-NP'
p555
g5
tp556
a(S'rate'
p557
S'rate'
p558
S'NN'
p559
S'I-NP'
p560
g5
tp561
a(S'corrected'
p562
S'correct'
p563
S'VBD'
p564
S'B-VP'
p565
g5
tp566
a(S'Q-T'
p567
S'Q-T'
p568
S'NN'
p569
S'B-NP'
p570
g5
tp571
a(S'interval'
p572
S'interval'
p573
S'NN'
p574
S'I-NP'
p575
g5
tp576
a(g324
g324
g324
g5
g5
tp577
a(S'Q-Tc'
p578
S'Q-Tc'
p579
S'NN'
p580
S'B-NP'
p581
g5
tp582
a(g351
g351
g351
g5
g5
tp583
a(g331
g331
g331
g5
g5
tp584
a(S'and'
p585
S'and'
p586
S'CC'
p587
g5
g5
tp588
a(S'tremor'
p589
S'tremor'
p590
S'NN'
p591
S'B-NP'
p592
g5
tp593
a(S'score'
p594
S'score'
p595
S'NN'
p596
S'I-NP'
p597
g5
tp598
a(S'were'
p599
S'be'
p600
S'VBD'
p601
S'B-VP'
p602
g5
tp603
a(S'followed'
p604
S'follow'
p605
S'VBN'
p606
S'I-VP'
p607
g5
tp608
a(S'as'
p609
S'as'
p610
S'IN'
p611
S'B-PP'
p612
g5
tp613
a(S'measures'
p614
S'measure'
p615
S'NNS'
p616
S'B-NP'
p617
g5
tp618
a(S'of'
p619
S'of'
p620
S'IN'
p621
S'B-PP'
p622
g5
tp623
a(S'systemic'
p624
S'systemic'
p625
S'JJ'
p626
S'B-NP'
p627
g5
tp628
a(S'effects.'
p629
S'effects.'
p630
S'NN'
p631
S'I-NP'
p632
g5
tp633
a(S'Formoterol'
p634
S'Formoterol'
p635
S'NN'
p636
S'I-NP'
p637
g5
tp638
a(S'dose-dependently'
p639
S'dose-dependently'
p640
S'RB'
p641
S'B-ADVP'
p642
g5
tp643
a(S'protected'
p644
S'protect'
p645
S'VBD'
p646
S'B-VP'
p647
g5
tp648
a(S'against'
p649
S'against'
p650
S'IN'
p651
S'B-PP'
p652
g5
tp653
a(S'methacholine'
p654
S'methacholine'
p655
S'NN'
p656
S'B-NP'
p657
g5
tp658
a(S'responsiveness'
p659
S'responsiveness'
p660
S'NN'
p661
S'I-NP'
p662
g5
tp663
a(g324
g324
g324
g5
g5
tp664
a(S'4.6'
p665
S'4.6'
p666
S'CD'
p667
S'B-NP'
p668
g5
tp669
a(S'doubling'
p670
S'double'
p671
S'VBG'
p672
S'B-VP'
p673
g5
tp674
a(S'doses'
p675
S'dose'
p676
S'NNS'
p677
S'B-NP'
p678
g5
tp679
a(S'after'
p680
S'after'
p681
S'IN'
p682
S'B-PP'
p683
g5
tp684
a(S'120'
p685
S'120'
p686
S'CD'
p687
S'B-NP'
p688
g5
tp689
a(S'micrograms'
p690
S'microgram'
p691
S'NNS'
p692
S'I-NP'
p693
g5
tp694
a(g351
g351
g351
g5
g5
tp695
a(g62
g62
g62
g5
g5
tp696
a(S'Salmeterol'
p697
S'Salmeterol'
p698
S'NNP'
p699
S'B-NP'
p700
g5
tp701
a(g331
g331
g331
g5
g5
tp702
a(S'however'
p703
S'however'
p704
S'RB'
p705
S'B-ADVP'
p706
g5
tp707
a(g331
g331
g331
g5
g5
tp708
a(S'showed'
p709
S'show'
p710
S'VBD'
p711
S'B-VP'
p712
g5
tp713
a(g129
g129
S'DT'
p714
S'B-NP'
p715
g5
tp716
a(S'flatter'
p717
S'flatter'
p718
S'JJ'
p719
S'I-NP'
p720
g5
tp721
a(S'dose-response'
p722
S'dose-response'
p723
S'JJ'
p724
S'I-NP'
p725
g5
tp726
a(S'curve'
p727
S'curve'
p728
S'NN'
p729
S'I-NP'
p730
g5
tp731
a(g331
g331
g331
g5
g5
tp732
a(S'and'
p733
S'and'
p734
S'CC'
p735
g5
g5
tp736
a(g129
g129
S'DT'
p737
S'B-NP'
p738
g5
tp739
a(S'significantly'
p740
S'significantly'
p741
S'RB'
p742
S'I-NP'
p743
g5
tp744
a(S'weaker'
p745
S'weak'
p746
S'JJR'
p747
S'I-NP'
p748
g5
tp749
a(S'maximal'
p750
S'maximal'
p751
S'JJ'
p752
S'I-NP'
p753
g5
tp754
a(S'protective'
p755
S'protective'
p756
S'NN'
p757
S'I-NP'
p758
g5
tp759
a(S'effect'
p760
S'effect'
p761
S'NN'
p762
S'I-NP'
p763
g5
tp764
a(g324
g324
g324
g5
g5
tp765
a(S'2.8'
p766
S'2.8'
p767
S'CD'
p768
S'B-NP'
p769
g5
tp770
a(S'doubling'
p771
S'double'
p772
S'VBG'
p773
S'B-VP'
p774
g5
tp775
a(S'doses'
p776
S'dose'
p777
S'NNS'
p778
S'B-NP'
p779
g5
tp780
a(S'after'
p781
S'after'
p782
S'IN'
p783
S'B-PP'
p784
g5
tp785
a(S'250'
p786
S'250'
p787
S'CD'
p788
S'B-NP'
p789
g5
tp790
a(S'micrograms'
p791
S'microgram'
p792
S'NNS'
p793
S'I-NP'
p794
g5
tp795
a(g351
g351
g351
g5
g5
tp796
a(g62
g62
g62
g5
g5
tp797
a(S'Formoterol'
p798
S'Formoterol'
p799
S'NN'
p800
S'B-NP'
p801
g5
tp802
a(S'caused'
p803
S'cause'
p804
S'VBD'
p805
S'B-VP'
p806
g5
tp807
a(g129
g129
S'DT'
p808
S'B-NP'
p809
g5
tp810
a(S'significantly'
p811
S'significantly'
p812
S'RB'
p813
S'I-NP'
p814
g5
tp815
a(S'higher'
p816
S'high'
p817
S'JJR'
p818
S'I-NP'
p819
g5
tp820
a(S'tremor'
p821
S'tremor'
p822
S'NN'
p823
S'I-NP'
p824
g5
tp825
a(S'score'
p826
S'score'
p827
S'NN'
p828
S'I-NP'
p829
g5
tp830
a(S'and'
p831
S'and'
p832
S'CC'
p833
g5
g5
tp834
a(g129
g129
S'DT'
p835
S'B-NP'
p836
g5
tp837
a(S'larger'
p838
S'large'
p839
S'JJR'
p840
S'I-NP'
p841
g5
tp842
a(S'drop'
p843
S'drop'
p844
S'NN'
p845
S'I-NP'
p846
g5
tp847
a(S'in'
p848
S'in'
p849
S'IN'
p850
S'B-PP'
p851
g5
tp852
a(S'S-potassium'
p853
S'S-potassium'
p854
S'NN'
p855
S'B-NP'
p856
g5
tp857
a(S'than'
p858
S'than'
p859
S'IN'
p860
S'B-PP'
p861
g5
tp862
a(S'salmeterol'
p863
S'salmeterol'
p864
S'NN'
p865
S'B-NP'
p866
g5
tp867
a(S'at'
p868
S'at'
p869
S'IN'
p870
S'B-PP'
p871
g5
tp872
a(S'the'
p873
S'the'
p874
S'DT'
p875
S'B-NP'
p876
g5
tp877
a(S'highest'
p878
S'high'
p879
S'JJS'
p880
S'I-NP'
p881
g5
tp882
a(S'doses.'
p883
S'doses.'
p884
S'NN'
p885
S'I-NP'
p886
g5
tp887
a(S'These'
p888
S'These'
p889
S'DT'
p890
S'B-NP'
p891
g5
tp892
a(S'data'
p893
S'datum'
p894
S'NNS'
p895
S'I-NP'
p896
g5
tp897
a(S'show'
p898
S'show'
p899
S'VBP'
p900
S'B-VP'
p901
g5
tp902
a(S'that'
p903
S'that'
p904
S'IN'
p905
S'B-SBAR'
p906
g5
tp907
a(S'salmeterol'
p908
S'salmeterol'
p909
S'NN'
p910
S'B-NP'
p911
g5
tp912
a(S'is'
p913
S'be'
p914
S'VBZ'
p915
S'B-VP'
p916
g5
tp917
a(g129
g129
S'DT'
p918
S'B-NP'
p919
g5
tp920
a(S'partial'
p921
S'partial'
p922
S'JJ'
p923
S'I-NP'
p924
g5
tp925
a(S'agonist'
p926
S'agonist'
p927
S'NN'
p928
S'I-NP'
p929
g5
tp930
a(S'on'
p931
S'on'
p932
S'IN'
p933
S'B-PP'
p934
g5
tp935
a(S'the'
p936
S'the'
p937
S'DT'
p938
S'B-NP'
p939
g5
tp940
a(S'beta2-receptor'
p941
S'beta2-receptor'
p942
S'NN'
p943
S'I-NP'
p944
S'B-protein'
p945
tp946
a(S'in'
p947
S'in'
p948
S'IN'
p949
S'B-PP'
p950
g5
tp951
a(S'relation'
p952
S'relation'
p953
S'NN'
p954
S'B-NP'
p955
g5
tp956
a(S'to'
p957
S'to'
p958
S'TO'
p959
S'B-PP'
p960
g5
tp961
a(S'formoterol'
p962
S'formoterol'
p963
S'NN'
p964
S'B-NP'
p965
g5
tp966
a(S'in'
p967
S'in'
p968
S'IN'
p969
S'B-PP'
p970
g5
tp971
a(S'human'
p972
S'human'
p973
S'JJ'
p974
S'B-NP'
p975
g5
tp976
a(S'airways'
p977
S'airway'
p978
S'NNS'
p979
S'I-NP'
p980
g5
tp981
a(S'in'
p982
S'in'
p983
S'IN'
p984
S'B-PP'
p985
g5
tp986
a(S'vivo.'
p987
S'vivo.'
p988
S'FW'
p989
S'B-NP'
p990
g5
tp991
a(S'Further'
p992
S'Further'
p993
S'JJ'
p994
S'I-NP'
p995
g5
tp996
a(S'studies'
p997
S'study'
p998
S'NNS'
p999
S'I-NP'
p1000
g5
tp1001
a(S'are'
p1002
S'be'
p1003
S'VBP'
p1004
S'B-VP'
p1005
g5
tp1006
a(S'required'
p1007
S'require'
p1008
S'VBN'
p1009
S'I-VP'
p1010
g5
tp1011
a(S'to'
p1012
S'to'
p1013
S'TO'
p1014
S'I-VP'
p1015
g5
tp1016
a(S'document'
p1017
S'document'
p1018
S'VB'
p1019
S'I-VP'
p1020
g5
tp1021
a(S'the'
p1022
S'the'
p1023
S'DT'
p1024
S'B-NP'
p1025
g5
tp1026
a(S'clinical'
p1027
S'clinical'
p1028
S'JJ'
p1029
S'I-NP'
p1030
g5
tp1031
a(S'consequences'
p1032
S'consequence'
p1033
S'NNS'
p1034
S'I-NP'
p1035
g5
tp1036
a(S'of'
p1037
S'of'
p1038
S'IN'
p1039
S'B-PP'
p1040
g5
tp1041
a(S'this'
p1042
S'this'
p1043
S'DT'
p1044
S'B-NP'
p1045
g5
tp1046
a(S'finding'
p1047
S'finding'
p1048
S'NN'
p1049
S'I-NP'
p1050
g5
tp1051
a(g331
g331
g331
g5
g5
tp1052
a(S'for'
p1053
S'for'
p1054
S'IN'
p1055
S'B-PP'
p1056
g5
tp1057
a(S'example'
p1058
S'example'
p1059
S'NN'
p1060
S'B-NP'
p1061
g5
tp1062
a(S'in'
p1063
S'in'
p1064
S'IN'
p1065
S'B-PP'
p1066
g5
tp1067
a(S'severe'
p1068
S'severe'
p1069
S'JJ'
p1070
S'B-NP'
p1071
g5
tp1072
a(S'asthmatic'
p1073
S'asthmatic'
p1074
S'JJ'
p1075
S'I-NP'
p1076
g5
tp1077
a(S'patients'
p1078
S'patient'
p1079
S'NNS'
p1080
S'I-NP'
p1081
g5
tp1082
a(g62
g62
g62
g5
g5
tp1083
a.