(lp0
(S'Impact'
p1
S'Impact'
p2
S'NN'
p3
S'B-NP'
p4
S'O'
p5
tp6
a(S'of'
p7
S'of'
p8
S'IN'
p9
S'B-PP'
p10
g5
tp11
a(S'early'
p12
S'early'
p13
S'JJ'
p14
S'B-NP'
p15
g5
tp16
a(S'parenteral'
p17
S'parenteral'
p18
S'JJ'
p19
S'I-NP'
p20
g5
tp21
a(S'nutrition'
p22
S'nutrition'
p23
S'NN'
p24
S'I-NP'
p25
g5
tp26
a(S'completing'
p27
S'complete'
p28
S'VBG'
p29
S'B-VP'
p30
g5
tp31
a(S'enteral'
p32
S'enteral'
p33
S'JJ'
p34
S'B-NP'
p35
g5
tp36
a(S'nutrition'
p37
S'nutrition'
p38
S'NN'
p39
S'I-NP'
p40
g5
tp41
a(S'in'
p42
S'in'
p43
S'IN'
p44
S'B-PP'
p45
g5
tp46
a(S'adult'
p47
S'adult'
p48
S'JJ'
p49
S'B-NP'
p50
g5
tp51
a(S'critically'
p52
S'critically'
p53
S'RB'
p54
S'I-NP'
p55
g5
tp56
a(S'ill'
p57
S'ill'
p58
S'JJ'
p59
S'I-NP'
p60
g5
tp61
a(S'patients'
p62
S'patient'
p63
S'NNS'
p64
S'I-NP'
p65
g5
tp66
a(S'('
p67
g67
g67
g5
g5
tp68
a(S'EPaNIC'
p69
S'EPaNIC'
p70
S'NN'
p71
S'B-NP'
p72
g5
tp73
a(S'trial'
p74
S'trial'
p75
S'NN'
p76
S'I-NP'
p77
g5
tp78
a(S')'
p79
g79
g79
g5
g5
tp80
a(S':'
p81
g81
g81
g5
g5
tp82
a(S'a'
p83
g83
S'DT'
p84
S'B-NP'
p85
g5
tp86
a(S'study'
p87
S'study'
p88
S'NN'
p89
S'I-NP'
p90
g5
tp91
a(S'protocol'
p92
S'protocol'
p93
S'NN'
p94
S'I-NP'
p95
g5
tp96
a(S'and'
p97
S'and'
p98
S'CC'
p99
g5
g5
tp100
a(S'statistical'
p101
S'statistical'
p102
S'JJ'
p103
S'B-NP'
p104
g5
tp105
a(S'analysis'
p106
S'analysis'
p107
S'NN'
p108
S'I-NP'
p109
g5
tp110
a(S'plan'
p111
S'plan'
p112
S'NN'
p113
S'I-NP'
p114
g5
tp115
a(S'for'
p116
S'for'
p117
S'IN'
p118
S'B-PP'
p119
g5
tp120
a(g83
g83
S'DT'
p121
S'B-NP'
p122
g5
tp123
a(S'randomized'
p124
S'randomize'
p125
S'VBN'
p126
S'I-NP'
p127
g5
tp128
a(S'controlled'
p129
S'control'
p130
S'VBN'
p131
S'I-NP'
p132
g5
tp133
a(S'trial'
p134
S'trial'
p135
S'NN'
p136
S'I-NP'
p137
g5
tp138
a(S'.'
p139
g139
g139
g5
g5
tp140
a(S'BACKGROUND'
p141
S'BACKGROUND'
p142
S'NN'
p143
S'B-NP'
p144
g5
tp145
a(S'For'
p146
S'For'
p147
S'IN'
p148
S'B-PP'
p149
g5
tp150
a(S'critically'
p151
S'critically'
p152
S'RB'
p153
S'B-NP'
p154
g5
tp155
a(S'ill'
p156
S'ill'
p157
S'JJ'
p158
S'I-NP'
p159
g5
tp160
a(S'patients'
p161
S'patient'
p162
S'NNS'
p163
S'I-NP'
p164
g5
tp165
a(S'treated'
p166
S'treat'
p167
S'VBN'
p168
S'B-VP'
p169
g5
tp170
a(S'in'
p171
S'in'
p172
S'IN'
p173
S'B-PP'
p174
g5
tp175
a(S'intensive'
p176
S'intensive'
p177
S'JJ'
p178
S'B-NP'
p179
g5
tp180
a(S'care'
p181
S'care'
p182
S'NN'
p183
S'I-NP'
p184
g5
tp185
a(S'units'
p186
S'unit'
p187
S'NNS'
p188
S'I-NP'
p189
g5
tp190
a(g67
g67
g67
g5
g5
tp191
a(S'ICU'
p192
S'ICU'
p193
S'NN'
p194
S'B-NP'
p195
S'B-protein'
p196
tp197
a(g79
g79
g79
g5
g5
tp198
a(S','
p199
g199
g199
g5
g5
tp200
a(S'two'
p201
S'two'
p202
S'CD'
p203
S'B-NP'
p204
g5
tp205
a(S'feeding'
p206
S'feeding'
p207
S'NN'
p208
S'I-NP'
p209
g5
tp210
a(S'strategies'
p211
S'strategy'
p212
S'NNS'
p213
S'I-NP'
p214
g5
tp215
a(S'are'
p216
S'be'
p217
S'VBP'
p218
S'B-VP'
p219
g5
tp220
a(S'currently'
p221
S'currently'
p222
S'RB'
p223
S'I-VP'
p224
g5
tp225
a(S'being'
p226
S'be'
p227
S'VBG'
p228
S'I-VP'
p229
g5
tp230
a(S'advocated'
p231
S'advocate'
p232
S'VBN'
p233
S'I-VP'
p234
g5
tp235
a(g199
g199
g199
g5
g5
tp236
a(S'one'
p237
S'one'
p238
S'CD'
p239
S'B-NP'
p240
g5
tp241
a(S'by'
p242
S'by'
p243
S'IN'
p244
S'B-PP'
p245
g5
tp246
a(S'American/Canadian'
p247
S'American/Canadian'
p248
S'JJ'
p249
g5
g5
tp250
a(S'and'
p251
S'and'
p252
S'CC'
p253
g5
g5
tp254
a(S'the'
p255
S'the'
p256
S'DT'
p257
S'B-NP'
p258
g5
tp259
a(S'other'
p260
S'other'
p261
S'JJ'
p262
S'I-NP'
p263
g5
tp264
a(S'by'
p265
S'by'
p266
S'IN'
p267
S'B-PP'
p268
g5
tp269
a(S'European'
p270
S'European'
p271
S'JJ'
p272
S'B-NP'
p273
g5
tp274
a(S'expert'
p275
S'expert'
p276
S'NN'
p277
S'I-NP'
p278
g5
tp279
a(S'guidelines.'
p280
S'guidelines.'
p281
S'NNS'
p282
S'I-NP'
p283
g5
tp284
a(S'These'
p285
S'These'
p286
S'DT'
p287
S'B-NP'
p288
g5
tp289
a(S'guidelines'
p290
S'guideline'
p291
S'NNS'
p292
S'I-NP'
p293
g5
tp294
a(S'differ'
p295
S'differ'
p296
S'VBP'
p297
S'B-VP'
p298
g5
tp299
a(S'particularly'
p300
S'particularly'
p301
S'RB'
p302
S'B-ADVP'
p303
g5
tp304
a(S'in'
p305
S'in'
p306
S'IN'
p307
S'B-PP'
p308
g5
tp309
a(S'the'
p310
S'the'
p311
S'DT'
p312
S'B-NP'
p313
g5
tp314
a(S'timing'
p315
S'timing'
p316
S'NN'
p317
S'I-NP'
p318
g5
tp319
a(S'of'
p320
S'of'
p321
S'IN'
p322
S'B-PP'
p323
g5
tp324
a(S'initiating'
p325
S'initiate'
p326
S'VBG'
p327
S'B-VP'
p328
g5
tp329
a(S'parenteral'
p330
S'parenteral'
p331
S'JJ'
p332
S'B-NP'
p333
g5
tp334
a(S'nutrition'
p335
S'nutrition'
p336
S'NN'
p337
S'I-NP'
p338
g5
tp339
a(g67
g67
g67
g5
g5
tp340
a(S'PN'
p341
S'PN'
p342
S'NN'
p343
S'B-NP'
p344
g5
tp345
a(g79
g79
g79
g5
g5
tp346
a(S'in'
p347
S'in'
p348
S'IN'
p349
S'B-PP'
p350
g5
tp351
a(S'patients'
p352
S'patient'
p353
S'NNS'
p354
S'B-NP'
p355
g5
tp356
a(S'for'
p357
S'for'
p358
S'IN'
p359
S'B-PP'
p360
g5
tp361
a(S'whom'
p362
S'whom'
p363
S'WP'
p364
S'B-NP'
p365
g5
tp366
a(S'enteral'
p367
S'enteral'
p368
S'JJ'
p369
S'B-NP'
p370
g5
tp371
a(S'nutrition'
p372
S'nutrition'
p373
S'NN'
p374
S'I-NP'
p375
g5
tp376
a(g67
g67
g67
g5
g5
tp377
a(S'EN'
p378
S'EN'
p379
S'NN'
p380
S'B-NP'
p381
g5
tp382
a(g79
g79
g79
g5
g5
tp383
a(S'does'
p384
S'do'
p385
S'VBZ'
p386
S'B-VP'
p387
g5
tp388
a(S'not'
p389
S'not'
p390
S'RB'
p391
S'I-VP'
p392
g5
tp393
a(S'reach'
p394
S'reach'
p395
S'VB'
p396
S'I-VP'
p397
g5
tp398
a(S'caloric'
p399
S'caloric'
p400
S'JJ'
p401
S'B-NP'
p402
g5
tp403
a(S'targets'
p404
S'target'
p405
S'NNS'
p406
S'I-NP'
p407
g5
tp408
a(g139
g139
g139
g5
g5
tp409
a(S'METHODS/DESIGN'
p410
S'METHODS/DESIGN'
p411
S'PDT'
p412
S'B-NP'
p413
g5
tp414
a(S'The'
p415
S'The'
p416
S'DT'
p417
S'I-NP'
p418
g5
tp419
a(S'EPaNIC'
p420
S'EPaNIC'
p421
S'NN'
p422
S'I-NP'
p423
g5
tp424
a(S'trial'
p425
S'trial'
p426
S'NN'
p427
S'I-NP'
p428
g5
tp429
a(S'is'
p430
S'be'
p431
S'VBZ'
p432
S'B-VP'
p433
g5
tp434
a(S'an'
p435
S'an'
p436
S'DT'
p437
S'B-NP'
p438
g5
tp439
a(S'investigator-initiated'
p440
S'investigator-initiated'
p441
S'JJ'
p442
S'I-NP'
p443
g5
tp444
a(g199
g199
g199
S'I-NP'
p445
g5
tp446
a(S'non-commercial'
p447
S'non-commercial'
p448
S'JJ'
p449
S'I-NP'
p450
g5
tp451
a(g199
g199
g199
S'I-NP'
p452
g5
tp453
a(S'multi-center'
p454
S'multi-center'
p455
S'JJ'
p456
S'I-NP'
p457
g5
tp458
a(g199
g199
g199
S'I-NP'
p459
g5
tp460
a(S'randomized'
p461
S'randomize'
p462
S'VBN'
p463
S'I-NP'
p464
g5
tp465
a(g199
g199
g199
S'I-NP'
p466
g5
tp467
a(S'controlled'
p468
S'control'
p469
S'VBN'
p470
S'I-NP'
p471
g5
tp472
a(g199
g199
g199
S'I-NP'
p473
g5
tp474
a(S'clinical'
p475
S'clinical'
p476
S'JJ'
p477
S'I-NP'
p478
g5
tp479
a(S'trial'
p480
S'trial'
p481
S'NN'
p482
S'I-NP'
p483
g5
tp484
a(S'with'
p485
S'with'
p486
S'IN'
p487
S'B-PP'
p488
g5
tp489
a(g83
g83
S'DT'
p490
S'B-NP'
p491
g5
tp492
a(S'parallel'
p493
S'parallel'
p494
S'JJ'
p495
S'I-NP'
p496
g5
tp497
a(S'group'
p498
S'group'
p499
S'NN'
p500
S'I-NP'
p501
g5
tp502
a(S'design.'
p503
S'design.'
p504
S'NN'
p505
S'I-NP'
p506
g5
tp507
a(S'This'
p508
S'This'
p509
S'DT'
p510
S'B-NP'
p511
g5
tp512
a(S'study'
p513
S'study'
p514
S'NN'
p515
S'I-NP'
p516
g5
tp517
a(S'compares'
p518
S'compare'
p519
S'VBZ'
p520
S'B-VP'
p521
g5
tp522
a(S'early'
p523
S'early'
p524
S'JJ'
p525
S'B-ADVP'
p526
g5
tp527
a(g67
g67
g67
g5
g5
tp528
a(S'European'
p529
S'European'
p530
S'JJ'
p531
S'B-NP'
p532
g5
tp533
a(S'guideline'
p534
S'guideline'
p535
S'NN'
p536
S'I-NP'
p537
g5
tp538
a(g79
g79
g79
g5
g5
tp539
a(S'versus'
p540
S'versus'
p541
S'IN'
p542
S'B-PP'
p543
g5
tp544
a(S'late'
p545
S'late'
p546
S'JJ'
p547
S'B-NP'
p548
g5
tp549
a(g67
g67
g67
S'I-NP'
p550
g5
tp551
a(S'American/Canadian'
p552
S'American/Canadian'
p553
S'JJ'
p554
S'I-NP'
p555
g5
tp556
a(S'guideline'
p557
S'guideline'
p558
S'NN'
p559
S'I-NP'
p560
g5
tp561
a(g79
g79
g79
g5
g5
tp562
a(S'initiation'
p563
S'initiation'
p564
S'NN'
p565
S'B-NP'
p566
g5
tp567
a(S'of'
p568
S'of'
p569
S'IN'
p570
S'B-PP'
p571
g5
tp572
a(S'PN'
p573
S'PN'
p574
S'NN'
p575
S'B-NP'
p576
g5
tp577
a(S'when'
p578
S'when'
p579
S'WRB'
p580
S'B-ADVP'
p581
g5
tp582
a(S'EN'
p583
S'EN'
p584
S'NN'
p585
S'B-NP'
p586
g5
tp587
a(S'fails'
p588
S'fail'
p589
S'VBZ'
p590
S'B-VP'
p591
g5
tp592
a(S'to'
p593
S'to'
p594
S'TO'
p595
S'I-VP'
p596
g5
tp597
a(S'reach'
p598
S'reach'
p599
S'VB'
p600
S'I-VP'
p601
g5
tp602
a(g83
g83
S'DT'
p603
S'B-NP'
p604
g5
tp605
a(S'caloric'
p606
S'caloric'
p607
S'JJ'
p608
S'I-NP'
p609
g5
tp610
a(S'target.'
p611
S'target.'
p612
S'NN'
p613
S'I-NP'
p614
g5
tp615
a(S'In'
p616
S'In'
p617
S'IN'
p618
S'B-PP'
p619
g5
tp620
a(S'the'
p621
S'the'
p622
S'DT'
p623
S'B-NP'
p624
g5
tp625
a(S'early'
p626
S'early'
p627
S'JJ'
p628
S'I-NP'
p629
g5
tp630
a(S'PN'
p631
S'PN'
p632
S'NN'
p633
S'I-NP'
p634
g5
tp635
a(S'group'
p636
S'group'
p637
S'NN'
p638
S'I-NP'
p639
g5
tp640
a(g199
g199
g199
g5
g5
tp641
a(S'PN'
p642
S'PN'
p643
S'NN'
p644
S'B-NP'
p645
S'B-protein'
p646
tp647
a(S'is'
p648
S'be'
p649
S'VBZ'
p650
S'B-VP'
p651
g5
tp652
a(S'initiated'
p653
S'initiate'
p654
S'VBN'
p655
S'I-VP'
p656
g5
tp657
a(S'within'
p658
S'within'
p659
S'IN'
p660
S'B-PP'
p661
g5
tp662
a(S'24-48'
p663
S'24-48'
p664
S'CD'
p665
S'B-NP'
p666
g5
tp667
a(S'hours'
p668
S'hour'
p669
S'NNS'
p670
S'I-NP'
p671
g5
tp672
a(S'after'
p673
S'after'
p674
S'IN'
p675
S'B-PP'
p676
g5
tp677
a(S'ICU'
p678
S'ICU'
p679
S'NN'
p680
S'B-NP'
p681
g5
tp682
a(S'admission'
p683
S'admission'
p684
S'NN'
p685
S'I-NP'
p686
g5
tp687
a(S'to'
p688
S'to'
p689
S'TO'
p690
S'B-VP'
p691
g5
tp692
a(S'complete'
p693
S'complete'
p694
S'VB'
p695
S'I-VP'
p696
g5
tp697
a(S'early'
p698
S'early'
p699
S'JJ'
p700
S'B-NP'
p701
g5
tp702
a(S'enteral'
p703
S'enteral'
p704
S'JJ'
p705
S'I-NP'
p706
g5
tp707
a(S'nutrition'
p708
S'nutrition'
p709
S'NN'
p710
S'I-NP'
p711
g5
tp712
a(g67
g67
g67
g5
g5
tp713
a(S'EN'
p714
S'EN'
p715
S'NN'
p716
S'B-NP'
p717
g5
tp718
a(g79
g79
g79
g5
g5
tp719
a(S'up'
p720
S'up'
p721
S'IN'
p722
S'B-PP'
p723
g5
tp724
a(S'to'
p725
S'to'
p726
S'TO'
p727
S'B-PP'
p728
g5
tp729
a(g83
g83
S'DT'
p730
S'B-NP'
p731
g5
tp732
a(S'calculated'
p733
S'calculate'
p734
S'VBN'
p735
S'I-NP'
p736
g5
tp737
a(S'nutritional'
p738
S'nutritional'
p739
S'JJ'
p740
S'I-NP'
p741
g5
tp742
a(S'target.'
p743
S'target.'
p744
S'NN'
p745
S'I-NP'
p746
g5
tp747
a(S'In'
p748
S'In'
p749
S'IN'
p750
S'B-PP'
p751
g5
tp752
a(S'the'
p753
S'the'
p754
S'DT'
p755
S'B-NP'
p756
g5
tp757
a(S'late'
p758
S'late'
p759
S'JJ'
p760
S'I-NP'
p761
g5
tp762
a(S'PN'
p763
S'PN'
p764
S'NN'
p765
S'I-NP'
p766
g5
tp767
a(S'group'
p768
S'group'
p769
S'NN'
p770
S'I-NP'
p771
g5
tp772
a(g199
g199
g199
g5
g5
tp773
a(S'PN'
p774
S'PN'
p775
S'NN'
p776
S'B-NP'
p777
S'B-protein'
p778
tp779
a(S'completing'
p780
S'complete'
p781
S'VBG'
p782
S'B-VP'
p783
S'I-protein'
p784
tp785
a(S'EN'
p786
S'EN'
p787
S'NN'
p788
S'B-NP'
p789
S'I-protein'
p790
tp791
a(S'is'
p792
S'be'
p793
S'VBZ'
p794
S'B-VP'
p795
g5
tp796
a(S'initiated'
p797
S'initiate'
p798
S'VBN'
p799
S'I-VP'
p800
g5
tp801
a(S'when'
p802
S'when'
p803
S'WRB'
p804
S'B-ADVP'
p805
g5
tp806
a(S'the'
p807
S'the'
p808
S'DT'
p809
S'B-NP'
p810
g5
tp811
a(S'target'
p812
S'target'
p813
S'NN'
p814
S'I-NP'
p815
g5
tp816
a(S'is'
p817
S'be'
p818
S'VBZ'
p819
S'B-VP'
p820
g5
tp821
a(S'not'
p822
S'not'
p823
S'RB'
p824
S'I-VP'
p825
g5
tp826
a(S'reached'
p827
S'reach'
p828
S'VBN'
p829
S'I-VP'
p830
g5
tp831
a(S'on'
p832
S'on'
p833
S'IN'
p834
S'B-PP'
p835
g5
tp836
a(S'day'
p837
S'day'
p838
S'NN'
p839
S'B-NP'
p840
g5
tp841
a(S'8.'
p842
S'8.'
p843
S'CD'
p844
S'I-NP'
p845
g5
tp846
a(S'In'
p847
S'In'
p848
S'IN'
p849
S'B-PP'
p850
g5
tp851
a(S'both'
p852
S'both'
p853
S'DT'
p854
S'B-NP'
p855
g5
tp856
a(S'groups'
p857
S'group'
p858
S'NNS'
p859
S'I-NP'
p860
g5
tp861
a(g199
g199
g199
g5
g5
tp862
a(S'the'
p863
S'the'
p864
S'DT'
p865
S'B-NP'
p866
g5
tp867
a(S'same'
p868
S'same'
p869
S'JJ'
p870
S'I-NP'
p871
g5
tp872
a(S'early'
p873
S'early'
p874
S'JJ'
p875
S'I-NP'
p876
g5
tp877
a(S'EN'
p878
S'EN'
p879
S'NN'
p880
S'I-NP'
p881
g5
tp882
a(S'protocol'
p883
S'protocol'
p884
S'NN'
p885
S'I-NP'
p886
g5
tp887
a(S'is'
p888
S'be'
p889
S'VBZ'
p890
S'B-VP'
p891
g5
tp892
a(S'applied.'
p893
S'applied.'
p894
S'VBN'
p895
S'I-VP'
p896
g5
tp897
a(S'The'
p898
S'The'
p899
S'DT'
p900
S'B-NP'
p901
g5
tp902
a(S'study'
p903
S'study'
p904
S'NN'
p905
S'I-NP'
p906
g5
tp907
a(S'is'
p908
S'be'
p909
S'VBZ'
p910
S'B-VP'
p911
g5
tp912
a(S'designed'
p913
S'design'
p914
S'VBN'
p915
S'I-VP'
p916
g5
tp917
a(S'to'
p918
S'to'
p919
S'TO'
p920
S'I-VP'
p921
g5
tp922
a(S'compare'
p923
S'compare'
p924
S'VB'
p925
S'I-VP'
p926
g5
tp927
a(S'clinical'
p928
S'clinical'
p929
S'JJ'
p930
S'B-NP'
p931
g5
tp932
a(S'outcome'
p933
S'outcome'
p934
S'NN'
p935
S'I-NP'
p936
g5
tp937
a(g67
g67
g67
g5
g5
tp938
a(S'morbidity'
p939
S'morbidity'
p940
S'NN'
p941
S'B-NP'
p942
g5
tp943
a(S'and'
p944
S'and'
p945
S'CC'
p946
g5
g5
tp947
a(S'mortality'
p948
S'mortality'
p949
S'NN'
p950
S'B-NP'
p951
g5
tp952
a(g79
g79
g79
g5
g5
tp953
a(S'in'
p954
S'in'
p955
S'IN'
p956
S'B-PP'
p957
g5
tp958
a(S'the'
p959
S'the'
p960
S'DT'
p961
S'B-NP'
p962
g5
tp963
a(S'2'
p964
g964
S'CD'
p965
S'I-NP'
p966
g5
tp967
a(S'study'
p968
S'study'
p969
S'NN'
p970
S'I-NP'
p971
g5
tp972
a(S'arms'
p973
S'arm'
p974
S'NNS'
p975
S'I-NP'
p976
g5
tp977
a(S'as'
p978
S'as'
p979
S'RB'
p980
S'B-CONJP'
p981
g5
tp982
a(S'well'
p983
S'well'
p984
S'RB'
p985
S'I-CONJP'
p986
g5
tp987
a(S'as'
p988
S'as'
p989
S'IN'
p990
S'I-CONJP'
p991
g5
tp992
a(S'to'
p993
S'to'
p994
S'TO'
p995
S'B-VP'
p996
g5
tp997
a(S'address'
p998
S'address'
p999
S'VB'
p1000
S'I-VP'
p1001
g5
tp1002
a(S'several'
p1003
S'several'
p1004
S'JJ'
p1005
S'B-NP'
p1006
g5
tp1007
a(S'mechanistical'
p1008
S'mechanistical'
p1009
S'JJ'
p1010
S'I-NP'
p1011
g5
tp1012
a(S'questions.'
p1013
S'questions.'
p1014
S'NNS'
p1015
S'I-NP'
p1016
g5
tp1017
a(S'We'
p1018
S'We'
p1019
S'PRP'
p1020
S'B-NP'
p1021
g5
tp1022
a(S'here'
p1023
S'here'
p1024
S'RB'
p1025
S'B-ADVP'
p1026
g5
tp1027
a(S'describe'
p1028
S'describe'
p1029
S'VBP'
p1030
S'B-VP'
p1031
g5
tp1032
a(S'the'
p1033
S'the'
p1034
S'DT'
p1035
S'B-NP'
p1036
g5
tp1037
a(S'EPaNIC'
p1038
S'EPaNIC'
p1039
S'NN'
p1040
S'I-NP'
p1041
g5
tp1042
a(S'study'
p1043
S'study'
p1044
S'NN'
p1045
S'I-NP'
p1046
g5
tp1047
a(S'protocol'
p1048
S'protocol'
p1049
S'NN'
p1050
S'I-NP'
p1051
g5
tp1052
a(S'and'
p1053
S'and'
p1054
S'CC'
p1055
g5
g5
tp1056
a(S'the'
p1057
S'the'
p1058
S'DT'
p1059
S'B-NP'
p1060
g5
tp1061
a(S'statistical'
p1062
S'statistical'
p1063
S'JJ'
p1064
S'I-NP'
p1065
g5
tp1066
a(S'analysis'
p1067
S'analysis'
p1068
S'NN'
p1069
S'I-NP'
p1070
g5
tp1071
a(S'plan'
p1072
S'plan'
p1073
S'NN'
p1074
S'I-NP'
p1075
g5
tp1076
a(S'for'
p1077
S'for'
p1078
S'IN'
p1079
S'B-PP'
p1080
g5
tp1081
a(S'the'
p1082
S'the'
p1083
S'DT'
p1084
S'B-NP'
p1085
g5
tp1086
a(S'primary'
p1087
S'primary'
p1088
S'JJ'
p1089
S'I-NP'
p1090
g5
tp1091
a(S'report'
p1092
S'report'
p1093
S'NN'
p1094
S'I-NP'
p1095
g5
tp1096
a(S'of'
p1097
S'of'
p1098
S'IN'
p1099
S'B-PP'
p1100
g5
tp1101
a(S'the'
p1102
S'the'
p1103
S'DT'
p1104
S'B-NP'
p1105
g5
tp1106
a(S'clinical'
p1107
S'clinical'
p1108
S'JJ'
p1109
S'I-NP'
p1110
g5
tp1111
a(S'results'
p1112
S'result'
p1113
S'NNS'
p1114
S'I-NP'
p1115
g5
tp1116
a(g139
g139
g139
g5
g5
tp1117
a(S'DISCUSSION'
p1118
S'DISCUSSION'
p1119
S'NN'
p1120
S'B-NP'
p1121
g5
tp1122
a(S'The'
p1123
S'The'
p1124
S'DT'
p1125
S'B-NP'
p1126
g5
tp1127
a(S'study'
p1128
S'study'
p1129
S'NN'
p1130
S'I-NP'
p1131
g5
tp1132
a(S'has'
p1133
S'have'
p1134
S'VBZ'
p1135
S'B-VP'
p1136
g5
tp1137
a(S'been'
p1138
S'be'
p1139
S'VBN'
p1140
S'I-VP'
p1141
g5
tp1142
a(S'initiated'
p1143
S'initiate'
p1144
S'VBN'
p1145
S'I-VP'
p1146
g5
tp1147
a(S'as'
p1148
S'as'
p1149
S'IN'
p1150
S'B-SBAR'
p1151
g5
tp1152
a(S'planned'
p1153
S'plan'
p1154
S'VBN'
p1155
S'B-VP'
p1156
g5
tp1157
a(S'on'
p1158
S'on'
p1159
S'IN'
p1160
S'B-PP'
p1161
g5
tp1162
a(S'august'
p1163
S'august'
p1164
S'JJ'
p1165
S'B-NP'
p1166
g5
tp1167
a(S'01'
p1168
S'01'
p1169
S'CD'
p1170
S'I-NP'
p1171
g5
tp1172
a(S'2007.'
p1173
S'2007.'
p1174
S'CD'
p1175
S'I-NP'
p1176
g5
tp1177
a(S'One'
p1178
S'One'
p1179
S'CD'
p1180
S'I-NP'
p1181
g5
tp1182
a(S'interim'
p1183
S'interim'
p1184
S'JJ'
p1185
S'I-NP'
p1186
g5
tp1187
a(S'analysis'
p1188
S'analysis'
p1189
S'NN'
p1190
S'I-NP'
p1191
g5
tp1192
a(S'advised'
p1193
S'advise'
p1194
S'VBD'
p1195
S'B-VP'
p1196
g5
tp1197
a(S'continuation'
p1198
S'continuation'
p1199
S'NN'
p1200
S'B-NP'
p1201
g5
tp1202
a(S'of'
p1203
S'of'
p1204
S'IN'
p1205
S'B-PP'
p1206
g5
tp1207
a(S'the'
p1208
S'the'
p1209
S'DT'
p1210
S'B-NP'
p1211
g5
tp1212
a(S'trial.'
p1213
S'trial.'
p1214
S'NN'
p1215
S'I-NP'
p1216
g5
tp1217
a(S'The'
p1218
S'The'
p1219
S'DT'
p1220
S'B-NP'
p1221
g5
tp1222
a(S'study'
p1223
S'study'
p1224
S'NN'
p1225
S'I-NP'
p1226
g5
tp1227
a(S'will'
p1228
S'will'
p1229
S'MD'
p1230
S'B-VP'
p1231
g5
tp1232
a(S'be'
p1233
S'be'
p1234
S'VB'
p1235
S'I-VP'
p1236
g5
tp1237
a(S'completed'
p1238
S'complete'
p1239
S'VBN'
p1240
S'I-VP'
p1241
g5
tp1242
a(S'in'
p1243
S'in'
p1244
S'IN'
p1245
S'B-PP'
p1246
g5
tp1247
a(S'February'
p1248
S'February'
p1249
S'NNP'
p1250
S'B-NP'
p1251
g5
tp1252
a(S'2011'
p1253
S'2011'
p1254
S'CD'
p1255
S'I-NP'
p1256
g5
tp1257
a(g139
g139
g139
g5
g5
tp1258
a(S'TRIAL'
p1259
S'TRIAL'
p1260
S'NN'
p1261
S'B-NP'
p1262
g5
tp1263
a(S'REGISTRATION'
p1264
S'REGISTRATION'
p1265
S'NN'
p1266
S'I-NP'
p1267
g5
tp1268
a(S'ClinicalTrials'
p1269
S'ClinicalTrial'
p1270
S'NNS'
p1271
S'I-NP'
p1272
g5
tp1273
a(g67
g67
g67
g5
g5
tp1274
a(S'NCT'
p1275
S'NCT'
p1276
S'NN'
p1277
S'B-NP'
p1278
g5
tp1279
a(g79
g79
g79
g5
g5
tp1280
a(g81
g81
g81
g5
g5
tp1281
a(S'NCT00512122'
p1282
S'NCT00512122'
p1283
S'NN'
p1284
S'B-NP'
p1285
g5
tp1286
a(g139
g139
g139
g5
g5
tp1287
a.