(lp0
(S'The'
p1
S'The'
p2
S'DT'
p3
S'B-NP'
p4
S'O'
p5
tp6
a(S'cardiovascular'
p7
S'cardiovascular'
p8
S'JJ'
p9
S'I-NP'
p10
g5
tp11
a(S'effects'
p12
S'effect'
p13
S'NNS'
p14
S'I-NP'
p15
g5
tp16
a(S'of'
p17
S'of'
p18
S'IN'
p19
S'B-PP'
p20
g5
tp21
a(S'sevoflurane'
p22
S'sevoflurane'
p23
S'NN'
p24
S'B-NP'
p25
g5
tp26
a(S'and'
p27
S'and'
p28
S'CC'
p29
S'I-NP'
p30
g5
tp31
a(S'isoflurane'
p32
S'isoflurane'
p33
S'NN'
p34
S'I-NP'
p35
g5
tp36
a(S'after'
p37
S'after'
p38
S'IN'
p39
S'B-PP'
p40
g5
tp41
a(S'premedication'
p42
S'premedication'
p43
S'NN'
p44
S'B-NP'
p45
g5
tp46
a(S'of'
p47
S'of'
p48
S'IN'
p49
S'B-PP'
p50
g5
tp51
a(S'healthy'
p52
S'healthy'
p53
S'JJ'
p54
S'B-NP'
p55
g5
tp56
a(S'dogs'
p57
S'dog'
p58
S'NNS'
p59
S'I-NP'
p60
g5
tp61
a(S'undergoing'
p62
S'undergo'
p63
S'VBG'
p64
S'B-VP'
p65
g5
tp66
a(S'elective'
p67
S'elective'
p68
S'JJ'
p69
S'B-NP'
p70
g5
tp71
a(S'surgery'
p72
S'surgery'
p73
S'NN'
p74
S'I-NP'
p75
g5
tp76
a(S'.'
p77
g77
g77
g5
g5
tp78
a(S'Sevoflurane'
p79
S'Sevoflurane'
p80
S'NN'
p81
S'B-NP'
p82
g5
tp83
a(S'and'
p84
S'and'
p85
S'CC'
p86
S'I-NP'
p87
g5
tp88
a(S'isoflurane'
p89
S'isoflurane'
p90
S'NN'
p91
S'I-NP'
p92
g5
tp93
a(S'are'
p94
S'be'
p95
S'VBP'
p96
S'B-VP'
p97
g5
tp98
a(S'commonly'
p99
S'commonly'
p100
S'RB'
p101
S'I-VP'
p102
g5
tp103
a(S'used'
p104
S'use'
p105
S'VBN'
p106
S'I-VP'
p107
g5
tp108
a(S'in'
p109
S'in'
p110
S'IN'
p111
S'B-PP'
p112
g5
tp113
a(S'veterinary'
p114
S'veterinary'
p115
S'JJ'
p116
S'B-NP'
p117
g5
tp118
a(S'anesthesia.'
p119
S'anesthesia.'
p120
S'NN'
p121
S'I-NP'
p122
g5
tp123
a(S'The'
p124
S'The'
p125
S'DT'
p126
S'B-NP'
p127
g5
tp128
a(S'objective'
p129
S'objective'
p130
S'NN'
p131
S'I-NP'
p132
g5
tp133
a(S'of'
p134
S'of'
p135
S'IN'
p136
S'B-PP'
p137
g5
tp138
a(S'this'
p139
S'this'
p140
S'DT'
p141
S'B-NP'
p142
g5
tp143
a(S'prospective'
p144
S'prospective'
p145
S'JJ'
p146
S'I-NP'
p147
g5
tp148
a(S','
p149
g149
g149
S'I-NP'
p150
g5
tp151
a(S'randomized'
p152
S'randomize'
p153
S'VBN'
p154
S'I-NP'
p155
g5
tp156
a(g149
g149
g149
S'I-NP'
p157
g5
tp158
a(S'open-label'
p159
S'open-label'
p160
S'JJ'
p161
S'I-NP'
p162
g5
tp163
a(S'clinical'
p164
S'clinical'
p165
S'JJ'
p166
S'I-NP'
p167
g5
tp168
a(S'study'
p169
S'study'
p170
S'NN'
p171
S'I-NP'
p172
g5
tp173
a(S'was'
p174
S'be'
p175
S'VBD'
p176
S'B-VP'
p177
g5
tp178
a(S'to'
p179
S'to'
p180
S'TO'
p181
S'B-VP'
p182
g5
tp183
a(S'compare'
p184
S'compare'
p185
S'VB'
p186
S'I-VP'
p187
g5
tp188
a(S'the'
p189
S'the'
p190
S'DT'
p191
S'B-NP'
p192
g5
tp193
a(S'cardiovascular'
p194
S'cardiovascular'
p195
S'JJ'
p196
S'I-NP'
p197
g5
tp198
a(S'effects'
p199
S'effect'
p200
S'NNS'
p201
S'I-NP'
p202
g5
tp203
a(S'of'
p204
S'of'
p205
S'IN'
p206
S'B-PP'
p207
g5
tp208
a(S'sevoflurane'
p209
S'sevoflurane'
p210
S'NN'
p211
S'B-NP'
p212
g5
tp213
a(S'and'
p214
S'and'
p215
S'CC'
p216
S'I-NP'
p217
g5
tp218
a(S'isoflurane'
p219
S'isoflurane'
p220
S'NN'
p221
S'I-NP'
p222
g5
tp223
a(S'via'
p224
S'via'
p225
S'IN'
p226
S'B-PP'
p227
g5
tp228
a(S'direct'
p229
S'direct'
p230
S'JJ'
p231
S'B-NP'
p232
g5
tp233
a(S'arterial'
p234
S'arterial'
p235
S'JJ'
p236
S'I-NP'
p237
g5
tp238
a(S'blood'
p239
S'blood'
p240
S'NN'
p241
S'I-NP'
p242
g5
tp243
a(S'pressure'
p244
S'pressure'
p245
S'NN'
p246
S'I-NP'
p247
g5
tp248
a(S'measurements'
p249
S'measurement'
p250
S'NNS'
p251
S'I-NP'
p252
g5
tp253
a(S'and'
p254
S'and'
p255
S'CC'
p256
g5
g5
tp257
a(S'the'
p258
S'the'
p259
S'DT'
p260
S'B-NP'
p261
g5
tp262
a(S'lithium'
p263
S'lithium'
p264
S'NN'
p265
S'I-NP'
p266
g5
tp267
a(S'dilution'
p268
S'dilution'
p269
S'NN'
p270
S'I-NP'
p271
g5
tp272
a(S'cardiac'
p273
S'cardiac'
p274
S'JJ'
p275
S'I-NP'
p276
g5
tp277
a(S'output'
p278
S'output'
p279
S'NN'
p280
S'I-NP'
p281
g5
tp282
a(S'('
p283
g283
g283
g5
g5
tp284
a(S'LDCO'
p285
S'LDCO'
p286
S'NN'
p287
S'B-NP'
p288
S'B-protein'
p289
tp290
a(S')'
p291
g291
g291
g5
g5
tp292
a(S'on'
p293
S'on'
p294
S'IN'
p295
S'B-PP'
p296
g5
tp297
a(S'premedicated'
p298
S'premedicate'
p299
S'VBN'
p300
S'B-NP'
p301
g5
tp302
a(S'healthy'
p303
S'healthy'
p304
S'JJ'
p305
S'I-NP'
p306
g5
tp307
a(S'dogs'
p308
S'dog'
p309
S'NNS'
p310
S'I-NP'
p311
g5
tp312
a(S'undergoing'
p313
S'undergo'
p314
S'VBG'
p315
S'B-VP'
p316
g5
tp317
a(S'elective'
p318
S'elective'
p319
S'JJ'
p320
S'B-NP'
p321
g5
tp322
a(S'tibial'
p323
S'tibial'
p324
S'JJ'
p325
S'I-NP'
p326
g5
tp327
a(S'plateau'
p328
S'plateau'
p329
S'NN'
p330
S'I-NP'
p331
g5
tp332
a(S'leveling'
p333
S'leveling'
p334
S'NN'
p335
S'I-NP'
p336
g5
tp337
a(S'osteotomy'
p338
S'osteotomy'
p339
S'NN'
p340
S'I-NP'
p341
g5
tp342
a(g283
g283
g283
g5
g5
tp343
a(S'TPLO'
p344
S'TPLO'
p345
S'NN'
p346
S'B-NP'
p347
S'B-protein'
p348
tp349
a(g291
g291
g291
g5
g5
tp350
a(g77
g77
g77
g5
g5
tp351
a(S'Nineteen'
p352
S'Nineteen'
p353
S'CD'
p354
S'B-NP'
p355
g5
tp356
a(S'client-owned'
p357
S'client-owned'
p358
S'JJ'
p359
S'I-NP'
p360
g5
tp361
a(S'dogs'
p362
S'dog'
p363
S'NNS'
p364
S'I-NP'
p365
g5
tp366
a(S'were'
p367
S'be'
p368
S'VBD'
p369
S'B-VP'
p370
g5
tp371
a(S'included.'
p372
S'included.'
p373
S'VBN'
p374
S'I-VP'
p375
g5
tp376
a(S'All'
p377
S'All'
p378
S'DT'
p379
S'B-NP'
p380
g5
tp381
a(S'dogs'
p382
S'dog'
p383
S'NNS'
p384
S'I-NP'
p385
g5
tp386
a(S'were'
p387
S'be'
p388
S'VBD'
p389
S'B-VP'
p390
g5
tp391
a(S'premedicated'
p392
S'premedicate'
p393
S'VBN'
p394
S'I-VP'
p395
g5
tp396
a(S'with'
p397
S'with'
p398
S'IN'
p399
S'B-PP'
p400
g5
tp401
a(S'hydromorphone'
p402
S'hydromorphone'
p403
S'NN'
p404
S'B-NP'
p405
g5
tp406
a(g283
g283
g283
g5
g5
tp407
a(S'0.05'
p408
S'0.05'
p409
S'CD'
p410
S'B-NP'
p411
g5
tp412
a(S'mg/kg'
p413
S'mg/kg'
p414
S'NN'
p415
S'I-NP'
p416
g5
tp417
a(S'IV'
p418
S'IV'
p419
S'CD'
p420
S'B-NP'
p421
g5
tp422
a(S'and'
p423
S'and'
p424
S'CC'
p425
S'I-NP'
p426
g5
tp427
a(S'glycopyrrolate'
p428
S'glycopyrrolate'
p429
S'NN'
p430
S'I-NP'
p431
g5
tp432
a(S'0.01'
p433
S'0.01'
p434
S'CD'
p435
S'I-NP'
p436
g5
tp437
a(S'mg/kg'
p438
S'mg/kg'
p439
S'NN'
p440
S'I-NP'
p441
g5
tp442
a(S'subcutaneously'
p443
S'subcutaneously'
p444
S'RB'
p445
S'B-ADVP'
p446
g5
tp447
a(g291
g291
g291
g5
g5
tp448
a(g77
g77
g77
g5
g5
tp449
a(S'Ten'
p450
S'Ten'
p451
S'CD'
p452
S'B-NP'
p453
g5
tp454
a(S'dogs'
p455
S'dog'
p456
S'NNS'
p457
S'I-NP'
p458
g5
tp459
a(S'were'
p460
S'be'
p461
S'VBD'
p462
S'B-VP'
p463
g5
tp464
a(S'anesthetized'
p465
S'anesthetize'
p466
S'VBN'
p467
S'I-VP'
p468
g5
tp469
a(S'with'
p470
S'with'
p471
S'IN'
p472
S'B-PP'
p473
g5
tp474
a(S'sevoflurane'
p475
S'sevoflurane'
p476
S'NN'
p477
S'B-NP'
p478
g5
tp479
a(S'and'
p480
S'and'
p481
S'CC'
p482
g5
g5
tp483
a(S'nine'
p484
S'nine'
p485
S'CD'
p486
S'B-NP'
p487
g5
tp488
a(S'dogs'
p489
S'dog'
p490
S'NNS'
p491
S'I-NP'
p492
g5
tp493
a(S'were'
p494
S'be'
p495
S'VBD'
p496
S'B-VP'
p497
g5
tp498
a(S'anesthetized'
p499
S'anesthetize'
p500
S'VBN'
p501
S'I-VP'
p502
g5
tp503
a(S'with'
p504
S'with'
p505
S'IN'
p506
S'B-PP'
p507
g5
tp508
a(S'isoflurane.'
p509
S'isoflurane.'
p510
S'NN'
p511
S'B-NP'
p512
g5
tp513
a(S'Eighteen'
p514
S'Eighteen'
p515
S'CD'
p516
S'I-NP'
p517
g5
tp518
a(S'dogs'
p519
S'dog'
p520
S'NNS'
p521
S'I-NP'
p522
g5
tp523
a(S'were'
p524
S'be'
p525
S'VBD'
p526
S'B-VP'
p527
g5
tp528
a(S'instrumented'
p529
S'instrument'
p530
S'VBN'
p531
S'I-VP'
p532
g5
tp533
a(S'with'
p534
S'with'
p535
S'IN'
p536
S'B-PP'
p537
g5
tp538
a(S'a'
p539
g539
S'DT'
p540
S'B-NP'
p541
g5
tp542
a(S'dorsal'
p543
S'dorsal'
p544
S'JJ'
p545
S'I-NP'
p546
g5
tp547
a(S'pedal'
p548
S'pedal'
p549
S'JJ'
p550
S'I-NP'
p551
g5
tp552
a(S'arterial'
p553
S'arterial'
p554
S'JJ'
p555
S'I-NP'
p556
g5
tp557
a(S'catheter'
p558
S'catheter'
p559
S'NN'
p560
S'I-NP'
p561
g5
tp562
a(g149
g149
g149
g5
g5
tp563
a(S'and'
p564
S'and'
p565
S'CC'
p566
g5
g5
tp567
a(S'one'
p568
S'one'
p569
S'CD'
p570
S'B-NP'
p571
g5
tp572
a(S'dog'
p573
S'dog'
p574
S'NN'
p575
S'I-NP'
p576
g5
tp577
a(S'had'
p578
S'have'
p579
S'VBD'
p580
S'B-VP'
p581
g5
tp582
a(g539
g539
S'DT'
p583
S'B-NP'
p584
g5
tp585
a(S'femoral'
p586
S'femoral'
p587
S'JJ'
p588
S'I-NP'
p589
g5
tp590
a(S'arterial'
p591
S'arterial'
p592
S'JJ'
p593
S'I-NP'
p594
g5
tp595
a(S'catheter.'
p596
S'catheter.'
p597
S'NN'
p598
S'I-NP'
p599
g5
tp600
a(S'All'
p601
S'All'
p602
S'DT'
p603
S'B-NP'
p604
g5
tp605
a(S'dogs'
p606
S'dog'
p607
S'NNS'
p608
S'I-NP'
p609
g5
tp610
a(S'had'
p611
S'have'
p612
S'VBD'
p613
S'B-VP'
p614
g5
tp615
a(S'continuous'
p616
S'continuous'
p617
S'JJ'
p618
S'B-NP'
p619
g5
tp620
a(g149
g149
g149
S'I-NP'
p621
g5
tp622
a(S'direct'
p623
S'direct'
p624
S'JJ'
p625
S'I-NP'
p626
g5
tp627
a(S'systolic'
p628
S'systolic'
p629
S'JJ'
p630
S'I-NP'
p631
g5
tp632
a(g283
g283
g283
g5
g5
tp633
a(S'SAP'
p634
S'SAP'
p635
S'NN'
p636
S'B-NP'
p637
S'B-protein'
p638
tp639
a(g291
g291
g291
g5
g5
tp640
a(g149
g149
g149
g5
g5
tp641
a(S'diastolic'
p642
S'diastolic'
p643
S'JJ'
p644
S'B-ADJP'
p645
g5
tp646
a(g283
g283
g283
g5
g5
tp647
a(S'DAP'
p648
S'DAP'
p649
S'NN'
p650
S'B-NP'
p651
S'B-protein'
p652
tp653
a(g291
g291
g291
g5
g5
tp654
a(g149
g149
g149
g5
g5
tp655
a(S'and'
p656
S'and'
p657
S'CC'
p658
g5
g5
tp659
a(S'mean'
p660
S'mean'
p661
S'VB'
p662
S'B-VP'
p663
g5
tp664
a(S'arterial'
p665
S'arterial'
p666
S'JJ'
p667
S'B-ADJP'
p668
g5
tp669
a(g283
g283
g283
g5
g5
tp670
a(S'MAP'
p671
S'MAP'
p672
S'NN'
p673
S'B-NP'
p674
g5
tp675
a(g291
g291
g291
g5
g5
tp676
a(S'blood'
p677
S'blood'
p678
S'NN'
p679
S'B-NP'
p680
g5
tp681
a(S'pressure'
p682
S'pressure'
p683
S'NN'
p684
S'I-NP'
p685
g5
tp686
a(S'readings'
p687
S'reading'
p688
S'NNS'
p689
S'I-NP'
p690
g5
tp691
a(S'as'
p692
S'as'
p693
S'RB'
p694
S'B-CONJP'
p695
g5
tp696
a(S'well'
p697
S'well'
p698
S'RB'
p699
S'I-CONJP'
p700
g5
tp701
a(S'as'
p702
S'as'
p703
S'IN'
p704
S'I-CONJP'
p705
g5
tp706
a(S'heart'
p707
S'heart'
p708
S'NN'
p709
S'B-NP'
p710
g5
tp711
a(S'rate'
p712
S'rate'
p713
S'NN'
p714
S'I-NP'
p715
g5
tp716
a(g283
g283
g283
g5
g5
tp717
a(S'HR'
p718
S'HR'
p719
S'NN'
p720
S'B-NP'
p721
S'B-protein'
p722
tp723
a(g291
g291
g291
g5
g5
tp724
a(g149
g149
g149
g5
g5
tp725
a(S'cardiac'
p726
S'cardiac'
p727
S'JJ'
p728
S'B-NP'
p729
g5
tp730
a(S'output'
p731
S'output'
p732
S'NN'
p733
S'I-NP'
p734
g5
tp735
a(g283
g283
g283
g5
g5
tp736
a(S'CO'
p737
S'CO'
p738
S'NN'
p739
S'B-NP'
p740
g5
tp741
a(g291
g291
g291
g5
g5
tp742
a(g149
g149
g149
g5
g5
tp743
a(S'cardiac'
p744
S'cardiac'
p745
S'JJ'
p746
S'B-NP'
p747
g5
tp748
a(S'index'
p749
S'index'
p750
S'NN'
p751
S'I-NP'
p752
g5
tp753
a(g283
g283
g283
g5
g5
tp754
a(S'CI'
p755
S'CI'
p756
S'NN'
p757
S'B-NP'
p758
S'B-protein'
p759
tp760
a(g291
g291
g291
g5
g5
tp761
a(g149
g149
g149
g5
g5
tp762
a(S'systemic'
p763
S'systemic'
p764
S'JJ'
p765
S'B-NP'
p766
g5
tp767
a(S'vascular'
p768
S'vascular'
p769
S'JJ'
p770
S'I-NP'
p771
g5
tp772
a(S'resistance'
p773
S'resistance'
p774
S'NN'
p775
S'I-NP'
p776
g5
tp777
a(g283
g283
g283
g5
g5
tp778
a(S'SVR'
p779
S'SVR'
p780
S'NN'
p781
S'B-NP'
p782
S'B-protein'
p783
tp784
a(g291
g291
g291
g5
g5
tp785
a(g149
g149
g149
g5
g5
tp786
a(S'systemic'
p787
S'systemic'
p788
S'JJ'
p789
S'B-NP'
p790
g5
tp791
a(S'vascular'
p792
S'vascular'
p793
S'JJ'
p794
S'I-NP'
p795
g5
tp796
a(S'resistance'
p797
S'resistance'
p798
S'NN'
p799
S'I-NP'
p800
g5
tp801
a(S'index'
p802
S'index'
p803
S'NN'
p804
S'I-NP'
p805
g5
tp806
a(g283
g283
g283
g5
g5
tp807
a(S'SVRI'
p808
S'SVRI'
p809
S'NN'
p810
S'B-NP'
p811
S'B-protein'
p812
tp813
a(g291
g291
g291
g5
g5
tp814
a(g149
g149
g149
g5
g5
tp815
a(S'stroke'
p816
S'stroke'
p817
S'VBD'
p818
S'B-VP'
p819
g5
tp820
a(S'volume'
p821
S'volume'
p822
S'NN'
p823
S'B-NP'
p824
g5
tp825
a(S'variation'
p826
S'variation'
p827
S'NN'
p828
S'I-NP'
p829
g5
tp830
a(g283
g283
g283
g5
g5
tp831
a(S'SVV'
p832
S'SVV'
p833
S'NN'
p834
S'B-NP'
p835
S'B-protein'
p836
tp837
a(g291
g291
g291
g5
g5
tp838
a(g149
g149
g149
g5
g5
tp839
a(S'and'
p840
S'and'
p841
S'CC'
p842
g5
g5
tp843
a(S'pulse'
p844
S'pulse'
p845
S'NN'
p846
S'B-NP'
p847
g5
tp848
a(S'pressure'
p849
S'pressure'
p850
S'NN'
p851
S'I-NP'
p852
g5
tp853
a(S'variation'
p854
S'variation'
p855
S'NN'
p856
S'I-NP'
p857
g5
tp858
a(g283
g283
g283
g5
g5
tp859
a(S'PPV'
p860
S'PPV'
p861
S'NN'
p862
S'B-NP'
p863
g5
tp864
a(g291
g291
g291
g5
g5
tp865
a(S'recorded'
p866
S'record'
p867
S'VBD'
p868
S'B-VP'
p869
g5
tp870
a(S'q'
p871
g871
S'NN'
p872
S'B-NP'
p873
g5
tp874
a(S'5'
p875
g875
S'CD'
p876
S'I-NP'
p877
g5
tp878
a(S'min'
p879
S'min'
p880
S'NN'
p881
S'I-NP'
p882
g5
tp883
a(S'during'
p884
S'during'
p885
S'IN'
p886
S'B-PP'
p887
g5
tp888
a(S'the'
p889
S'the'
p890
S'DT'
p891
S'B-NP'
p892
g5
tp893
a(S'surgical'
p894
S'surgical'
p895
S'JJ'
p896
S'I-NP'
p897
g5
tp898
a(S'procedure.'
p899
S'procedure.'
p900
S'NN'
p901
S'I-NP'
p902
g5
tp903
a(S'There'
p904
S'There'
p905
S'EX'
p906
S'B-NP'
p907
g5
tp908
a(S'was'
p909
S'be'
p910
S'VBD'
p911
S'B-VP'
p912
g5
tp913
a(S'no'
p914
S'no'
p915
S'DT'
p916
S'B-NP'
p917
g5
tp918
a(S'significant'
p919
S'significant'
p920
S'JJ'
p921
S'I-NP'
p922
g5
tp923
a(S'statistical'
p924
S'statistical'
p925
S'JJ'
p926
S'I-NP'
p927
g5
tp928
a(S'difference'
p929
S'difference'
p930
S'NN'
p931
S'I-NP'
p932
g5
tp933
a(S'in'
p934
S'in'
p935
S'IN'
p936
S'B-PP'
p937
g5
tp938
a(S'all'
p939
S'all'
p940
S'DT'
p941
S'B-NP'
p942
g5
tp943
a(S'parameters'
p944
S'parameter'
p945
S'NNS'
p946
S'I-NP'
p947
g5
tp948
a(S'between'
p949
S'between'
p950
S'IN'
p951
S'B-PP'
p952
g5
tp953
a(S'the'
p954
S'the'
p955
S'DT'
p956
S'B-NP'
p957
g5
tp958
a(S'sevoflurane'
p959
S'sevoflurane'
p960
S'NN'
p961
S'I-NP'
p962
g5
tp963
a(S'and'
p964
S'and'
p965
S'CC'
p966
S'I-NP'
p967
g5
tp968
a(S'isoflurane'
p969
S'isoflurane'
p970
S'NN'
p971
S'I-NP'
p972
g5
tp973
a(S'treatment'
p974
S'treatment'
p975
S'NN'
p976
S'I-NP'
p977
g5
tp978
a(S'groups.'
p979
S'groups.'
p980
S'NN'
p981
S'I-NP'
p982
g5
tp983
a(S'Both'
p984
S'Both'
p985
S'CC'
p986
g5
g5
tp987
a(S'sevoflurane'
p988
S'sevoflurane'
p989
S'NN'
p990
S'B-NP'
p991
g5
tp992
a(S'and'
p993
S'and'
p994
S'CC'
p995
g5
g5
tp996
a(S'isoflurane'
p997
S'isoflurane'
p998
S'NN'
p999
S'B-NP'
p1000
g5
tp1001
a(S'inhalant'
p1002
S'inhalant'
p1003
S'JJ'
p1004
S'I-NP'
p1005
g5
tp1006
a(S'anesthetics'
p1007
S'anesthetic'
p1008
S'NNS'
p1009
S'I-NP'
p1010
g5
tp1011
a(S'appear'
p1012
S'appear'
p1013
S'VBP'
p1014
S'B-VP'
p1015
g5
tp1016
a(S'to'
p1017
S'to'
p1018
S'TO'
p1019
S'I-VP'
p1020
g5
tp1021
a(S'have'
p1022
S'have'
p1023
S'VB'
p1024
S'I-VP'
p1025
g5
tp1026
a(S'similar'
p1027
S'similar'
p1028
S'JJ'
p1029
S'B-NP'
p1030
g5
tp1031
a(S'hemodynamic'
p1032
S'hemodynamic'
p1033
S'JJ'
p1034
S'I-NP'
p1035
g5
tp1036
a(S'effects'
p1037
S'effect'
p1038
S'NNS'
p1039
S'I-NP'
p1040
g5
tp1041
a(S'when'
p1042
S'when'
p1043
S'WRB'
p1044
S'B-ADVP'
p1045
g5
tp1046
a(S'used'
p1047
S'use'
p1048
S'VBN'
p1049
S'B-VP'
p1050
g5
tp1051
a(S'as'
p1052
S'as'
p1053
S'IN'
p1054
S'B-PP'
p1055
g5
tp1056
a(S'part'
p1057
S'part'
p1058
S'NN'
p1059
S'B-NP'
p1060
g5
tp1061
a(S'of'
p1062
S'of'
p1063
S'IN'
p1064
S'B-PP'
p1065
g5
tp1066
a(g539
g539
S'DT'
p1067
S'B-NP'
p1068
g5
tp1069
a(S'multimodal'
p1070
S'multimodal'
p1071
S'JJ'
p1072
S'I-NP'
p1073
g5
tp1074
a(S'anesthetic'
p1075
S'anesthetic'
p1076
S'JJ'
p1077
S'I-NP'
p1078
g5
tp1079
a(S'protocol'
p1080
S'protocol'
p1081
S'NN'
p1082
S'I-NP'
p1083
g5
tp1084
a(S'in'
p1085
S'in'
p1086
S'IN'
p1087
S'B-PP'
p1088
g5
tp1089
a(S'premedicated'
p1090
S'premedicated'
p1091
S'JJ'
p1092
S'B-NP'
p1093
g5
tp1094
a(S'healthy'
p1095
S'healthy'
p1096
S'JJ'
p1097
S'I-NP'
p1098
g5
tp1099
a(S'dogs'
p1100
S'dog'
p1101
S'NNS'
p1102
S'I-NP'
p1103
g5
tp1104
a(S'undergoing'
p1105
S'undergo'
p1106
S'VBG'
p1107
S'B-VP'
p1108
g5
tp1109
a(S'an'
p1110
S'an'
p1111
S'DT'
p1112
S'B-NP'
p1113
g5
tp1114
a(S'elective'
p1115
S'elective'
p1116
S'JJ'
p1117
S'I-NP'
p1118
g5
tp1119
a(S'surgical'
p1120
S'surgical'
p1121
S'JJ'
p1122
S'I-NP'
p1123
g5
tp1124
a(S'procedure'
p1125
S'procedure'
p1126
S'NN'
p1127
S'I-NP'
p1128
g5
tp1129
a(g77
g77
g77
g5
g5
tp1130
a.