(lp0
(S'Randomized'
p1
S'Randomize'
p2
S'VBN'
p3
S'B-NP'
p4
S'O'
p5
tp6
a(S'controlled'
p7
S'control'
p8
S'VBN'
p9
S'I-NP'
p10
g5
tp11
a(S'trial'
p12
S'trial'
p13
S'NN'
p14
S'I-NP'
p15
g5
tp16
a(S'of'
p17
S'of'
p18
S'IN'
p19
S'B-PP'
p20
g5
tp21
a(S'acellular'
p22
S'acellular'
p23
S'JJ'
p24
S'B-NP'
p25
g5
tp26
a(S'diphtheria'
p27
S'diphtheria'
p28
S'NN'
p29
S'I-NP'
p30
g5
tp31
a(S','
p32
g32
g32
g5
g5
tp33
a(S'pertussis'
p34
S'pertussis'
p35
S'NN'
p36
S'B-NP'
p37
g5
tp38
a(S'and'
p39
S'and'
p40
S'CC'
p41
S'I-NP'
p42
g5
tp43
a(S'tetanus'
p44
S'tetanus'
p45
S'NN'
p46
S'I-NP'
p47
g5
tp48
a(S'vaccines'
p49
S'vaccine'
p50
S'NNS'
p51
S'I-NP'
p52
g5
tp53
a(S'in'
p54
S'in'
p55
S'IN'
p56
S'B-PP'
p57
g5
tp58
a(S'southern'
p59
S'southern'
p60
S'JJ'
p61
S'B-NP'
p62
g5
tp63
a(S'Ghana'
p64
S'Ghana'
p65
S'NNP'
p66
S'I-NP'
p67
g5
tp68
a(S'.'
p69
g69
g69
g5
g5
tp70
a(S'A'
p71
g71
S'DT'
p72
S'B-NP'
p73
g5
tp74
a(S'randomized'
p75
S'randomize'
p76
S'VBN'
p77
S'I-NP'
p78
g5
tp79
a(S'controlled'
p80
S'control'
p81
S'VBN'
p82
S'I-NP'
p83
g5
tp84
a(S'trial'
p85
S'trial'
p86
S'NN'
p87
S'I-NP'
p88
g5
tp89
a(S'of'
p90
S'of'
p91
S'IN'
p92
S'B-PP'
p93
g5
tp94
a(S'acellular'
p95
S'acellular'
p96
S'JJ'
p97
S'B-NP'
p98
g5
tp99
a(S'diphtheria/pertussis/tetanus'
p100
S'diphtheria/pertussis/tetanus'
p101
S'NN'
p102
S'I-NP'
p103
g5
tp104
a(S'('
p105
g105
g105
g5
g5
tp106
a(S'ADPT'
p107
S'ADPT'
p108
S'NN'
p109
S'B-NP'
p110
g5
tp111
a(S')'
p112
g112
g112
g5
g5
tp113
a(S'freeze-dried'
p114
S'freeze-dried'
p115
S'JJ'
p116
S'B-NP'
p117
g5
tp118
a(S'and'
p119
S'and'
p120
S'CC'
p121
S'I-NP'
p122
g5
tp123
a(S'liquid'
p124
S'liquid'
p125
S'JJ'
p126
S'I-NP'
p127
g5
tp128
a(S'vaccines'
p129
S'vaccine'
p130
S'NNS'
p131
S'I-NP'
p132
g5
tp133
a(S'in'
p134
S'in'
p135
S'IN'
p136
S'B-PP'
p137
g5
tp138
a(S'infants'
p139
S'infant'
p140
S'NNS'
p141
S'B-NP'
p142
g5
tp143
a(S'was'
p144
S'be'
p145
S'VBD'
p146
S'B-VP'
p147
g5
tp148
a(S'conducted'
p149
S'conduct'
p150
S'VBN'
p151
S'I-VP'
p152
g5
tp153
a(S'in'
p154
S'in'
p155
S'IN'
p156
S'B-PP'
p157
g5
tp158
a(S'a'
p159
g159
S'DT'
p160
S'B-NP'
p161
g5
tp162
a(S'peri-urban'
p163
S'peri-urban'
p164
S'JJ'
p165
S'I-NP'
p166
g5
tp167
a(S'community'
p168
S'community'
p169
S'NN'
p170
S'I-NP'
p171
g5
tp172
a(g105
g105
g105
g5
g5
tp173
a(S'Ashaiman'
p174
S'Ashaiman'
p175
S'NN'
p176
S'B-NP'
p177
g5
tp178
a(g112
g112
g112
g5
g5
tp179
a(S'in'
p180
S'in'
p181
S'IN'
p182
S'B-PP'
p183
g5
tp184
a(S'southern'
p185
S'southern'
p186
S'JJ'
p187
S'B-NP'
p188
g5
tp189
a(S'Ghana.'
p190
S'Ghana.'
p191
S'NNP'
p192
S'I-NP'
p193
g5
tp194
a(S'Immunogenicity'
p195
S'Immunogenicity'
p196
S'NN'
p197
S'I-NP'
p198
g5
tp199
a(S'of'
p200
S'of'
p201
S'IN'
p202
S'B-PP'
p203
g5
tp204
a(S'the'
p205
S'the'
p206
S'DT'
p207
S'B-NP'
p208
g5
tp209
a(S'acellular'
p210
S'acellular'
p211
S'JJ'
p212
S'I-NP'
p213
g5
tp214
a(S'vaccines'
p215
S'vaccine'
p216
S'NNS'
p217
S'I-NP'
p218
g5
tp219
a(g32
g32
g32
g5
g5
tp220
a(S'persistence'
p221
S'persistence'
p222
S'NN'
p223
S'B-NP'
p224
g5
tp225
a(S'of'
p226
S'of'
p227
S'IN'
p228
S'B-PP'
p229
g5
tp230
a(S'antibodies'
p231
S'antibody'
p232
S'NNS'
p233
S'B-NP'
p234
S'B-protein'
p235
tp236
a(S'and'
p237
S'and'
p238
S'CC'
p239
g5
g5
tp240
a(S'adverse'
p241
S'adverse'
p242
S'JJ'
p243
S'B-NP'
p244
g5
tp245
a(S'reactions'
p246
S'reaction'
p247
S'NNS'
p248
S'I-NP'
p249
g5
tp250
a(S'were'
p251
S'be'
p252
S'VBD'
p253
S'B-VP'
p254
g5
tp255
a(S'compared'
p256
S'compare'
p257
S'VBN'
p258
S'I-VP'
p259
g5
tp260
a(S'with'
p261
S'with'
p262
S'IN'
p263
S'B-PP'
p264
g5
tp265
a(S'those'
p266
S'those'
p267
S'DT'
p268
S'B-NP'
p269
g5
tp270
a(S'achieved'
p271
S'achieve'
p272
S'VBN'
p273
S'B-VP'
p274
g5
tp275
a(S'with'
p276
S'with'
p277
S'IN'
p278
S'B-PP'
p279
g5
tp280
a(g159
g159
S'DT'
p281
S'B-NP'
p282
g5
tp283
a(S'whole-cell'
p284
S'whole-cell'
p285
S'JJ'
p286
S'I-NP'
p287
g5
tp288
a(S'diphtheria-pertussis-tetanus'
p289
S'diphtheria-pertussis-tetanus'
p290
S'NN'
p291
S'I-NP'
p292
g5
tp293
a(g105
g105
g105
g5
g5
tp294
a(S'DPT'
p295
S'DPT'
p296
S'NN'
p297
S'B-NP'
p298
g5
tp299
a(g112
g112
g112
g5
g5
tp300
a(S'vaccine.'
p301
S'vaccine.'
p302
S'FW'
p303
S'B-PP'
p304
g5
tp305
a(S'The'
p306
S'The'
p307
S'DT'
p308
S'B-NP'
p309
g5
tp310
a(S'incidence'
p311
S'incidence'
p312
S'NN'
p313
S'I-NP'
p314
g5
tp315
a(S'of'
p316
S'of'
p317
S'IN'
p318
S'B-PP'
p319
g5
tp320
a(S'pertussis'
p321
S'pertussis'
p322
S'NN'
p323
S'B-NP'
p324
g5
tp325
a(S'in'
p326
S'in'
p327
S'IN'
p328
S'B-PP'
p329
g5
tp330
a(S'the'
p331
S'the'
p332
S'DT'
p333
S'B-NP'
p334
g5
tp335
a(S'vaccine'
p336
S'vaccine'
p337
S'NN'
p338
S'I-NP'
p339
g5
tp340
a(S'groups'
p341
S'group'
p342
S'NNS'
p343
S'I-NP'
p344
g5
tp345
a(S'and'
p346
S'and'
p347
S'CC'
p348
g5
g5
tp349
a(S'prevalence'
p350
S'prevalence'
p351
S'NN'
p352
S'B-NP'
p353
g5
tp354
a(S'of'
p355
S'of'
p356
S'IN'
p357
S'B-PP'
p358
g5
tp359
a(S'pertussis'
p360
S'pertussis'
p361
S'NN'
p362
S'B-NP'
p363
g5
tp364
a(S'in'
p365
S'in'
p366
S'IN'
p367
S'B-PP'
p368
g5
tp369
a(S'children'
p370
S'child'
p371
S'NNS'
p372
S'B-NP'
p373
g5
tp374
a(S'under'
p375
S'under'
p376
S'IN'
p377
S'B-PP'
p378
g5
tp379
a(S'5'
p380
g380
S'CD'
p381
S'B-NP'
p382
g5
tp383
a(S'years'
p384
S'year'
p385
S'NNS'
p386
S'I-NP'
p387
g5
tp388
a(S'of'
p389
S'of'
p390
S'IN'
p391
S'B-PP'
p392
g5
tp393
a(S'age'
p394
S'age'
p395
S'NN'
p396
S'B-NP'
p397
g5
tp398
a(S'in'
p399
S'in'
p400
S'IN'
p401
S'B-PP'
p402
g5
tp403
a(S'the'
p404
S'the'
p405
S'DT'
p406
S'B-NP'
p407
g5
tp408
a(S'study'
p409
S'study'
p410
S'NN'
p411
S'I-NP'
p412
g5
tp413
a(S'area'
p414
S'area'
p415
S'NN'
p416
S'I-NP'
p417
g5
tp418
a(S'were'
p419
S'be'
p420
S'VBD'
p421
S'B-VP'
p422
g5
tp423
a(S'also'
p424
S'also'
p425
S'RB'
p426
S'I-VP'
p427
g5
tp428
a(S'determined.'
p429
S'determined.'
p430
S'VB'
p431
S'I-VP'
p432
g5
tp433
a(S'The'
p434
S'The'
p435
S'DT'
p436
S'B-NP'
p437
g5
tp438
a(S'acellular'
p439
S'acellular'
p440
S'JJ'
p441
S'I-NP'
p442
g5
tp443
a(S'vaccines'
p444
S'vaccine'
p445
S'NNS'
p446
S'I-NP'
p447
g5
tp448
a(S'produced'
p449
S'produce'
p450
S'VBD'
p451
S'B-VP'
p452
g5
tp453
a(S'significantly'
p454
S'significantly'
p455
S'RB'
p456
S'B-NP'
p457
g5
tp458
a(S'fewer'
p459
S'few'
p460
S'JJR'
p461
S'I-NP'
p462
g5
tp463
a(S'local'
p464
S'local'
p465
S'JJ'
p466
S'I-NP'
p467
g5
tp468
a(S'and'
p469
S'and'
p470
S'CC'
p471
S'I-NP'
p472
g5
tp473
a(S'systemic'
p474
S'systemic'
p475
S'JJ'
p476
S'I-NP'
p477
g5
tp478
a(S'reactions.'
p479
S'reactions.'
p480
S'NN'
p481
S'I-NP'
p482
g5
tp483
a(S'Local'
p484
S'Local'
p485
S'JJ'
p486
S'I-NP'
p487
g5
tp488
a(S'reactions'
p489
S'reaction'
p490
S'NNS'
p491
S'I-NP'
p492
g5
tp493
a(S'such'
p494
S'such'
p495
S'JJ'
p496
S'B-PP'
p497
g5
tp498
a(S'as'
p499
S'as'
p500
S'IN'
p501
S'I-PP'
p502
g5
tp503
a(S'swelling'
p504
S'swelling'
p505
S'NN'
p506
S'B-NP'
p507
g5
tp508
a(S'and'
p509
S'and'
p510
S'CC'
p511
S'I-NP'
p512
g5
tp513
a(S'redness'
p514
S'redness'
p515
S'NN'
p516
S'I-NP'
p517
g5
tp518
a(S'were'
p519
S'be'
p520
S'VBD'
p521
S'B-VP'
p522
g5
tp523
a(S'observed'
p524
S'observe'
p525
S'VBN'
p526
S'I-VP'
p527
g5
tp528
a(S'in'
p529
S'in'
p530
S'IN'
p531
S'B-PP'
p532
g5
tp533
a(S'2'
p534
g534
S'CD'
p535
S'B-NP'
p536
g5
tp537
a(S'%'
p538
g538
S'NN'
p539
S'I-NP'
p540
g5
tp541
a(g105
g105
g105
g5
g5
tp542
a(S'8/399'
p543
S'8/399'
p544
S'CD'
p545
S'B-NP'
p546
g5
tp547
a(g112
g112
g112
g5
g5
tp548
a(S'to'
p549
S'to'
p550
S'TO'
p551
S'B-PP'
p552
g5
tp553
a(S'2.3'
p554
S'2.3'
p555
S'CD'
p556
S'B-NP'
p557
g5
tp558
a(g538
g538
S'NN'
p559
S'I-NP'
p560
g5
tp561
a(g105
g105
g105
g5
g5
tp562
a(S'9/385'
p563
S'9/385'
p564
S'CD'
p565
S'B-NP'
p566
g5
tp567
a(g112
g112
g112
g5
g5
tp568
a(S'of'
p569
S'of'
p570
S'IN'
p571
S'B-PP'
p572
g5
tp573
a(S'the'
p574
S'the'
p575
S'DT'
p576
S'B-NP'
p577
g5
tp578
a(S'acellular'
p579
S'acellular'
p580
S'JJ'
p581
S'I-NP'
p582
g5
tp583
a(S'vaccine'
p584
S'vaccine'
p585
S'NN'
p586
S'I-NP'
p587
g5
tp588
a(S'recipients'
p589
S'recipient'
p590
S'NNS'
p591
S'I-NP'
p592
g5
tp593
a(S'as'
p594
S'as'
p595
S'IN'
p596
S'B-PP'
p597
g5
tp598
a(S'against'
p599
S'against'
p600
S'IN'
p601
S'B-PP'
p602
g5
tp603
a(S'31'
p604
S'31'
p605
S'CD'
p606
S'B-NP'
p607
g5
tp608
a(g538
g538
S'NN'
p609
S'I-NP'
p610
g5
tp611
a(g105
g105
g105
g5
g5
tp612
a(S'122/394'
p613
S'122/394'
p614
S'CD'
p615
S'B-NP'
p616
g5
tp617
a(g112
g112
g112
g5
g5
tp618
a(S'in'
p619
S'in'
p620
S'IN'
p621
S'B-PP'
p622
g5
tp623
a(S'the'
p624
S'the'
p625
S'DT'
p626
S'B-NP'
p627
g5
tp628
a(S'whole-cell'
p629
S'whole-cell'
p630
S'JJ'
p631
S'I-NP'
p632
g5
tp633
a(S'vaccine'
p634
S'vaccine'
p635
S'NN'
p636
S'I-NP'
p637
g5
tp638
a(S'group.'
p639
S'group.'
p640
S'NN'
p641
S'I-NP'
p642
g5
tp643
a(S'Fever'
p644
S'Fever'
p645
S'NN'
p646
S'I-NP'
p647
g5
tp648
a(g105
g105
g105
g5
g5
tp649
a(S'>'
p650
g650
S'SYM'
p651
S'B-NP'
p652
g5
tp653
a(S'or'
p654
S'or'
p655
S'CC'
p656
g5
g5
tp657
a(S'='
p658
g658
S'SYM'
p659
S'B-VP'
p660
g5
tp661
a(S'37.5'
p662
S'37.5'
p663
S'CD'
p664
S'B-NP'
p665
g5
tp666
a(S'degrees'
p667
S'degree'
p668
S'NNS'
p669
S'I-NP'
p670
g5
tp671
a(S'C'
p672
g672
S'NN'
p673
S'I-NP'
p674
g5
tp675
a(g112
g112
g112
g5
g5
tp676
a(S'occurred'
p677
S'occur'
p678
S'VBD'
p679
S'B-VP'
p680
g5
tp681
a(S'in'
p682
S'in'
p683
S'IN'
p684
S'B-PP'
p685
g5
tp686
a(S'7.27'
p687
S'7.27'
p688
S'CD'
p689
S'B-NP'
p690
g5
tp691
a(g538
g538
S'NN'
p692
S'I-NP'
p693
g5
tp694
a(g105
g105
g105
g5
g5
tp695
a(S'29/399'
p696
S'29/399'
p697
S'CD'
p698
S'B-NP'
p699
g5
tp700
a(g112
g112
g112
g5
g5
tp701
a(S'to'
p702
S'to'
p703
S'TO'
p704
S'B-PP'
p705
g5
tp706
a(S'9.8'
p707
S'9.8'
p708
S'CD'
p709
S'B-NP'
p710
g5
tp711
a(g538
g538
S'NN'
p712
S'I-NP'
p713
g5
tp714
a(g105
g105
g105
g5
g5
tp715
a(S'38/385'
p716
S'38/385'
p717
S'CD'
p718
S'B-NP'
p719
g5
tp720
a(g112
g112
g112
g5
g5
tp721
a(S'in'
p722
S'in'
p723
S'IN'
p724
S'B-PP'
p725
g5
tp726
a(S'the'
p727
S'the'
p728
S'DT'
p729
S'B-NP'
p730
g5
tp731
a(S'acellular'
p732
S'acellular'
p733
S'JJ'
p734
S'I-NP'
p735
g5
tp736
a(S'vaccine'
p737
S'vaccine'
p738
S'NN'
p739
S'I-NP'
p740
g5
tp741
a(S'groups'
p742
S'group'
p743
S'NNS'
p744
S'I-NP'
p745
g5
tp746
a(S'compared'
p747
S'compare'
p748
S'VBN'
p749
S'B-PP'
p750
g5
tp751
a(S'with'
p752
S'with'
p753
S'IN'
p754
S'B-PP'
p755
g5
tp756
a(S'36.6'
p757
S'36.6'
p758
S'CD'
p759
S'B-NP'
p760
g5
tp761
a(g538
g538
S'NN'
p762
S'I-NP'
p763
g5
tp764
a(g105
g105
g105
g5
g5
tp765
a(S'145/394'
p766
S'145/394'
p767
S'CD'
p768
S'B-NP'
p769
g5
tp770
a(g112
g112
g112
g5
g5
tp771
a(S'in'
p772
S'in'
p773
S'IN'
p774
S'B-PP'
p775
g5
tp776
a(S'the'
p777
S'the'
p778
S'DT'
p779
S'B-NP'
p780
g5
tp781
a(S'whole-cell'
p782
S'whole-cell'
p783
S'JJ'
p784
S'I-NP'
p785
g5
tp786
a(S'vaccine'
p787
S'vaccine'
p788
S'NN'
p789
S'I-NP'
p790
g5
tp791
a(S'group.'
p792
S'group.'
p793
S'NN'
p794
S'I-NP'
p795
g5
tp796
a(S'Geometric'
p797
S'Geometric'
p798
S'JJ'
p799
S'I-NP'
p800
g5
tp801
a(S'mean'
p802
S'mean'
p803
S'JJ'
p804
S'I-NP'
p805
g5
tp806
a(S'titres'
p807
S'titre'
p808
S'NNS'
p809
S'I-NP'
p810
g5
tp811
a(g105
g105
g105
g5
g5
tp812
a(S'GMTs'
p813
S'GMT'
p814
S'NNS'
p815
S'B-NP'
p816
S'B-protein'
p817
tp818
a(g112
g112
g112
g5
g5
tp819
a(g32
g32
g32
g5
g5
tp820
a(S'measured'
p821
S'measure'
p822
S'VBN'
p823
S'B-VP'
p824
g5
tp825
a(S'by'
p826
S'by'
p827
S'IN'
p828
S'B-PP'
p829
g5
tp830
a(S'ELISA'
p831
S'ELISA'
p832
S'NN'
p833
S'B-NP'
p834
g5
tp835
a(g32
g32
g32
g5
g5
tp836
a(S'to'
p837
S'to'
p838
S'TO'
p839
S'B-PP'
p840
g5
tp841
a(S'pertussis'
p842
S'pertussis'
p843
S'NN'
p844
S'B-NP'
p845
S'B-protein'
p846
tp847
a(S'toxin'
p848
S'toxin'
p849
S'NN'
p850
S'I-NP'
p851
S'I-protein'
p852
tp853
a(g105
g105
g105
g5
g5
tp854
a(S'PT'
p855
S'PT'
p856
S'NN'
p857
S'B-NP'
p858
g5
tp859
a(g112
g112
g112
g5
g5
tp860
a(S'and'
p861
S'and'
p862
S'CC'
p863
g5
g5
tp864
a(S'filamentous'
p865
S'filamentous'
p866
S'JJ'
p867
S'B-NP'
p868
S'B-protein'
p869
tp870
a(S'haemagglutinin'
p871
S'haemagglutinin'
p872
S'NN'
p873
S'I-NP'
p874
S'I-protein'
p875
tp876
a(g105
g105
g105
g5
g5
tp877
a(S'FHA'
p878
S'FHA'
p879
S'NN'
p880
S'B-NP'
p881
g5
tp882
a(g112
g112
g112
g5
g5
tp883
a(S'were'
p884
S'be'
p885
S'VBD'
p886
S'B-VP'
p887
g5
tp888
a(S'significantly'
p889
S'significantly'
p890
S'RB'
p891
S'B-ADJP'
p892
g5
tp893
a(S'higher'
p894
S'high'
p895
S'JJR'
p896
S'I-ADJP'
p897
g5
tp898
a(S'in'
p899
S'in'
p900
S'IN'
p901
S'B-PP'
p902
g5
tp903
a(S'the'
p904
S'the'
p905
S'DT'
p906
S'B-NP'
p907
g5
tp908
a(S'acellular'
p909
S'acellular'
p910
S'JJ'
p911
S'I-NP'
p912
g5
tp913
a(S'vaccine'
p914
S'vaccine'
p915
S'NN'
p916
S'I-NP'
p917
g5
tp918
a(S'groups'
p919
S'group'
p920
S'NNS'
p921
S'I-NP'
p922
g5
tp923
a(S'than'
p924
S'than'
p925
S'IN'
p926
S'B-PP'
p927
g5
tp928
a(S'in'
p929
S'in'
p930
S'IN'
p931
S'B-PP'
p932
g5
tp933
a(S'the'
p934
S'the'
p935
S'DT'
p936
S'B-NP'
p937
g5
tp938
a(S'whole-cell'
p939
S'whole-cell'
p940
S'JJ'
p941
S'I-NP'
p942
g5
tp943
a(S'DPT'
p944
S'DPT'
p945
S'NN'
p946
S'I-NP'
p947
g5
tp948
a(g105
g105
g105
g5
g5
tp949
a(S'WCDPT'
p950
S'WCDPT'
p951
S'NN'
p952
S'B-NP'
p953
g5
tp954
a(g112
g112
g112
g5
g5
tp955
a(S'group.'
p956
S'group.'
p957
S'NN'
p958
S'B-NP'
p959
g5
tp960
a(S'There'
p961
S'There'
p962
S'EX'
p963
S'B-NP'
p964
g5
tp965
a(S'were'
p966
S'be'
p967
S'VBD'
p968
S'B-VP'
p969
g5
tp970
a(S'no'
p971
S'no'
p972
S'DT'
p973
S'B-NP'
p974
g5
tp975
a(S'significant'
p976
S'significant'
p977
S'JJ'
p978
S'I-NP'
p979
g5
tp980
a(S'differences'
p981
S'difference'
p982
S'NNS'
p983
S'I-NP'
p984
g5
tp985
a(S'in'
p986
S'in'
p987
S'IN'
p988
S'B-PP'
p989
g5
tp990
a(S'the'
p991
S'the'
p992
S'DT'
p993
S'B-NP'
p994
g5
tp995
a(S'GMTs'
p996
S'GMT'
p997
S'NNS'
p998
S'I-NP'
p999
g5
tp1000
a(S'of'
p1001
S'of'
p1002
S'IN'
p1003
S'B-PP'
p1004
g5
tp1005
a(S'tetanus'
p1006
S'tetanus'
p1007
S'NN'
p1008
S'B-NP'
p1009
g5
tp1010
a(S'and'
p1011
S'and'
p1012
S'CC'
p1013
S'I-NP'
p1014
g5
tp1015
a(S'diphtheria'
p1016
S'diphtheria'
p1017
S'NN'
p1018
S'I-NP'
p1019
g5
tp1020
a(S'antitoxins'
p1021
S'antitoxin'
p1022
S'NNS'
p1023
S'I-NP'
p1024
g5
tp1025
a(S'between'
p1026
S'between'
p1027
S'IN'
p1028
S'B-PP'
p1029
g5
tp1030
a(S'the'
p1031
S'the'
p1032
S'DT'
p1033
S'B-NP'
p1034
g5
tp1035
a(S'two'
p1036
S'two'
p1037
S'CD'
p1038
S'I-NP'
p1039
g5
tp1040
a(S'groups'
p1041
S'group'
p1042
S'NNS'
p1043
S'I-NP'
p1044
g5
tp1045
a(S'after'
p1046
S'after'
p1047
S'IN'
p1048
S'B-PP'
p1049
g5
tp1050
a(S'each'
p1051
S'each'
p1052
S'DT'
p1053
S'B-NP'
p1054
g5
tp1055
a(S'vaccination.'
p1056
S'vaccination.'
p1057
S'NN'
p1058
S'I-NP'
p1059
g5
tp1060
a(S'Twelve'
p1061
S'Twelve'
p1062
S'CD'
p1063
S'B-NP'
p1064
g5
tp1065
a(S'months'
p1066
S'month'
p1067
S'NNS'
p1068
S'I-NP'
p1069
g5
tp1070
a(S'after'
p1071
S'after'
p1072
S'IN'
p1073
S'B-SBAR'
p1074
g5
tp1075
a(S'primary'
p1076
S'primary'
p1077
S'JJ'
p1078
S'B-NP'
p1079
g5
tp1080
a(S'vaccination'
p1081
S'vaccination'
p1082
S'NN'
p1083
S'I-NP'
p1084
g5
tp1085
a(g32
g32
g32
g5
g5
tp1086
a(S'GMTs'
p1087
S'GMT'
p1088
S'NNS'
p1089
S'B-NP'
p1090
g5
tp1091
a(S'to'
p1092
S'to'
p1093
S'TO'
p1094
S'B-PP'
p1095
g5
tp1096
a(S'PT'
p1097
S'PT'
p1098
S'NN'
p1099
S'B-NP'
p1100
g5
tp1101
a(S'in'
p1102
S'in'
p1103
S'IN'
p1104
S'B-PP'
p1105
g5
tp1106
a(S'the'
p1107
S'the'
p1108
S'DT'
p1109
S'B-NP'
p1110
g5
tp1111
a(S'freeze-dried'
p1112
S'freeze-dried'
p1113
S'JJ'
p1114
S'I-NP'
p1115
g5
tp1116
a(g32
g32
g32
S'I-NP'
p1117
g5
tp1118
a(S'liquid'
p1119
S'liquid'
p1120
S'JJ'
p1121
S'I-NP'
p1122
g5
tp1123
a(S'ADPT'
p1124
S'ADPT'
p1125
S'NN'
p1126
S'I-NP'
p1127
g5
tp1128
a(S'groups'
p1129
S'group'
p1130
S'NNS'
p1131
S'I-NP'
p1132
g5
tp1133
a(S'and'
p1134
S'and'
p1135
S'CC'
p1136
g5
g5
tp1137
a(S'the'
p1138
S'the'
p1139
S'DT'
p1140
S'B-NP'
p1141
g5
tp1142
a(S'WCDPT'
p1143
S'WCDPT'
p1144
S'NNP'
p1145
S'I-NP'
p1146
g5
tp1147
a(S'group'
p1148
S'group'
p1149
S'NN'
p1150
S'I-NP'
p1151
g5
tp1152
a(S'have'
p1153
S'have'
p1154
S'VBP'
p1155
S'B-VP'
p1156
g5
tp1157
a(S'fallen'
p1158
S'fall'
p1159
S'VBN'
p1160
S'I-VP'
p1161
g5
tp1162
a(S'from'
p1163
S'from'
p1164
S'IN'
p1165
S'B-PP'
p1166
g5
tp1167
a(S'56.23'
p1168
S'56.23'
p1169
S'CD'
p1170
S'B-NP'
p1171
g5
tp1172
a(g32
g32
g32
S'I-NP'
p1173
g5
tp1174
a(S'62.63'
p1175
S'62.63'
p1176
S'CD'
p1177
S'I-NP'
p1178
g5
tp1179
a(S'and'
p1180
S'and'
p1181
S'CC'
p1182
S'I-NP'
p1183
g5
tp1184
a(S'44.97'
p1185
S'44.97'
p1186
S'CD'
p1187
S'I-NP'
p1188
g5
tp1189
a(S'ELISA'
p1190
S'ELISA'
p1191
S'NN'
p1192
S'I-NP'
p1193
g5
tp1194
a(S'U/ml'
p1195
S'U/ml'
p1196
S'NN'
p1197
S'I-NP'
p1198
g5
tp1199
a(S'to'
p1200
S'to'
p1201
S'TO'
p1202
S'B-PP'
p1203
g5
tp1204
a(S'6.08'
p1205
S'6.08'
p1206
S'CD'
p1207
S'B-NP'
p1208
g5
tp1209
a(g32
g32
g32
S'I-NP'
p1210
g5
tp1211
a(S'6.18'
p1212
S'6.18'
p1213
S'CD'
p1214
S'I-NP'
p1215
g5
tp1216
a(S'and'
p1217
S'and'
p1218
S'CC'
p1219
S'I-NP'
p1220
g5
tp1221
a(S'11.30'
p1222
S'11.30'
p1223
S'CD'
p1224
S'I-NP'
p1225
g5
tp1226
a(S'ELISA'
p1227
S'ELISA'
p1228
S'NN'
p1229
S'I-NP'
p1230
g5
tp1231
a(S'U/ml'
p1232
S'U/ml'
p1233
S'NN'
p1234
S'I-NP'
p1235
g5
tp1236
a(g32
g32
g32
g5
g5
tp1237
a(S'respectively.'
p1238
S'respectively.'
p1239
S'NN'
p1240
S'B-NP'
p1241
g5
tp1242
a(S'GMTs'
p1243
S'GMT'
p1244
S'NNS'
p1245
S'I-NP'
p1246
g5
tp1247
a(S'to'
p1248
S'to'
p1249
S'TO'
p1250
S'B-PP'
p1251
g5
tp1252
a(S'FHA'
p1253
S'FHA'
p1254
S'NNP'
p1255
S'B-NP'
p1256
g5
tp1257
a(S'in'
p1258
S'in'
p1259
S'IN'
p1260
S'B-PP'
p1261
g5
tp1262
a(S'all'
p1263
S'all'
p1264
S'PDT'
p1265
S'B-NP'
p1266
g5
tp1267
a(S'the'
p1268
S'the'
p1269
S'DT'
p1270
S'I-NP'
p1271
g5
tp1272
a(S'vaccine'
p1273
S'vaccine'
p1274
S'NN'
p1275
S'I-NP'
p1276
g5
tp1277
a(S'groups'
p1278
S'group'
p1279
S'NNS'
p1280
S'I-NP'
p1281
g5
tp1282
a(S'also'
p1283
S'also'
p1284
S'RB'
p1285
S'B-ADVP'
p1286
g5
tp1287
a(S'dropped'
p1288
S'drop'
p1289
S'VBD'
p1290
S'B-VP'
p1291
g5
tp1292
a(S'during'
p1293
S'during'
p1294
S'IN'
p1295
S'B-PP'
p1296
g5
tp1297
a(S'the'
p1298
S'the'
p1299
S'DT'
p1300
S'B-NP'
p1301
g5
tp1302
a(S'same'
p1303
S'same'
p1304
S'JJ'
p1305
S'I-NP'
p1306
g5
tp1307
a(S'period'
p1308
S'period'
p1309
S'NN'
p1310
S'I-NP'
p1311
g5
tp1312
a(S'from'
p1313
S'from'
p1314
S'IN'
p1315
S'B-PP'
p1316
g5
tp1317
a(S'49.94'
p1318
S'49.94'
p1319
S'CD'
p1320
S'B-NP'
p1321
g5
tp1322
a(g32
g32
g32
S'I-NP'
p1323
g5
tp1324
a(S'41.73'
p1325
S'41.73'
p1326
S'CD'
p1327
S'I-NP'
p1328
g5
tp1329
a(S'and'
p1330
S'and'
p1331
S'CC'
p1332
S'I-NP'
p1333
g5
tp1334
a(S'20.74'
p1335
S'20.74'
p1336
S'CD'
p1337
S'I-NP'
p1338
g5
tp1339
a(S'ELISA'
p1340
S'ELISA'
p1341
S'NN'
p1342
S'I-NP'
p1343
g5
tp1344
a(S'U/ml'
p1345
S'U/ml'
p1346
S'NN'
p1347
S'I-NP'
p1348
g5
tp1349
a(S'to'
p1350
S'to'
p1351
S'TO'
p1352
S'B-PP'
p1353
g5
tp1354
a(S'7.26'
p1355
S'7.26'
p1356
S'CD'
p1357
S'B-NP'
p1358
g5
tp1359
a(g32
g32
g32
S'I-NP'
p1360
g5
tp1361
a(S'7.72'
p1362
S'7.72'
p1363
S'CD'
p1364
S'I-NP'
p1365
g5
tp1366
a(S'and'
p1367
S'and'
p1368
S'CC'
p1369
S'I-NP'
p1370
g5
tp1371
a(S'5.91'
p1372
S'5.91'
p1373
S'CD'
p1374
S'I-NP'
p1375
g5
tp1376
a(S'ELISA'
p1377
S'ELISA'
p1378
S'NN'
p1379
S'I-NP'
p1380
g5
tp1381
a(S'U/ml'
p1382
S'U/ml'
p1383
S'NN'
p1384
S'I-NP'
p1385
g5
tp1386
a(g32
g32
g32
g5
g5
tp1387
a(S'respectively.'
p1388
S'respectively.'
p1389
S'NN'
p1390
S'B-NP'
p1391
g5
tp1392
a(S'In'
p1393
S'In'
p1394
S'IN'
p1395
S'B-PP'
p1396
g5
tp1397
a(S'this'
p1398
S'this'
p1399
S'DT'
p1400
S'B-NP'
p1401
g5
tp1402
a(S'comparative'
p1403
S'comparative'
p1404
S'JJ'
p1405
S'I-NP'
p1406
g5
tp1407
a(S'controlled'
p1408
S'control'
p1409
S'VBN'
p1410
S'I-NP'
p1411
g5
tp1412
a(S'trial'
p1413
S'trial'
p1414
S'NN'
p1415
S'I-NP'
p1416
g5
tp1417
a(g32
g32
g32
g5
g5
tp1418
a(S'the'
p1419
S'the'
p1420
S'DT'
p1421
S'B-NP'
p1422
g5
tp1423
a(S'ADPT'
p1424
S'ADPT'
p1425
S'NN'
p1426
S'I-NP'
p1427
g5
tp1428
a(S'vaccines'
p1429
S'vaccine'
p1430
S'NNS'
p1431
S'I-NP'
p1432
g5
tp1433
a(S'were'
p1434
S'be'
p1435
S'VBD'
p1436
S'B-VP'
p1437
g5
tp1438
a(S'more'
p1439
S'more'
p1440
S'RBR'
p1441
S'B-ADJP'
p1442
g5
tp1443
a(S'immunogenic'
p1444
S'immunogenic'
p1445
S'JJ'
p1446
S'I-ADJP'
p1447
g5
tp1448
a(g32
g32
g32
g5
g5
tp1449
a(S'with'
p1450
S'with'
p1451
S'IN'
p1452
S'B-PP'
p1453
g5
tp1454
a(S'less'
p1455
S'less'
p1456
S'RBR'
p1457
S'B-NP'
p1458
g5
tp1459
a(S'local'
p1460
S'local'
p1461
S'JJ'
p1462
S'I-NP'
p1463
g5
tp1464
a(S'and'
p1465
S'and'
p1466
S'CC'
p1467
S'I-NP'
p1468
g5
tp1469
a(S'systemic'
p1470
S'systemic'
p1471
S'JJ'
p1472
S'I-NP'
p1473
g5
tp1474
a(S'reactions'
p1475
S'reaction'
p1476
S'NNS'
p1477
S'I-NP'
p1478
g5
tp1479
a(g32
g32
g32
g5
g5
tp1480
a(S'than'
p1481
S'than'
p1482
S'IN'
p1483
S'B-PP'
p1484
g5
tp1485
a(S'the'
p1486
S'the'
p1487
S'DT'
p1488
S'B-NP'
p1489
g5
tp1490
a(S'WCDPT'
p1491
S'WCDPT'
p1492
S'NN'
p1493
S'I-NP'
p1494
g5
tp1495
a(S'vaccine'
p1496
S'vaccine'
p1497
S'NN'
p1498
S'I-NP'
p1499
g5
tp1500
a(S'but'
p1501
S'but'
p1502
S'CC'
p1503
g5
g5
tp1504
a(S'there'
p1505
S'there'
p1506
S'EX'
p1507
S'B-NP'
p1508
g5
tp1509
a(S'was'
p1510
S'be'
p1511
S'VBD'
p1512
S'B-VP'
p1513
g5
tp1514
a(g159
g159
S'DT'
p1515
S'B-NP'
p1516
g5
tp1517
a(S'considerable'
p1518
S'considerable'
p1519
S'JJ'
p1520
S'I-NP'
p1521
g5
tp1522
a(S'drop'
p1523
S'drop'
p1524
S'NN'
p1525
S'I-NP'
p1526
g5
tp1527
a(S'in'
p1528
S'in'
p1529
S'IN'
p1530
S'B-PP'
p1531
g5
tp1532
a(S'antibody'
p1533
S'antibody'
p1534
S'NN'
p1535
S'B-NP'
p1536
g5
tp1537
a(S'titres'
p1538
S'titre'
p1539
S'NNS'
p1540
S'I-NP'
p1541
g5
tp1542
a(S'in'
p1543
S'in'
p1544
S'IN'
p1545
S'B-PP'
p1546
g5
tp1547
a(S'all'
p1548
S'all'
p1549
S'PDT'
p1550
S'B-NP'
p1551
g5
tp1552
a(S'the'
p1553
S'the'
p1554
S'DT'
p1555
S'I-NP'
p1556
g5
tp1557
a(S'vaccine'
p1558
S'vaccine'
p1559
S'NN'
p1560
S'I-NP'
p1561
g5
tp1562
a(S'groups'
p1563
S'group'
p1564
S'NNS'
p1565
S'I-NP'
p1566
g5
tp1567
a(S'12'
p1568
S'12'
p1569
S'CD'
p1570
S'B-NP'
p1571
g5
tp1572
a(S'months'
p1573
S'month'
p1574
S'NNS'
p1575
S'I-NP'
p1576
g5
tp1577
a(S'after'
p1578
S'after'
p1579
S'IN'
p1580
S'B-SBAR'
p1581
g5
tp1582
a(S'primary'
p1583
S'primary'
p1584
S'JJ'
p1585
S'B-NP'
p1586
g5
tp1587
a(S'vaccination.'
p1588
S'vaccination.'
p1589
S'NN'
p1590
S'I-NP'
p1591
g5
tp1592
a(S'However'
p1593
S'However'
p1594
S'RB'
p1595
S'B-ADVP'
p1596
g5
tp1597
a(g32
g32
g32
g5
g5
tp1598
a(S'the'
p1599
S'the'
p1600
S'DT'
p1601
S'B-NP'
p1602
g5
tp1603
a(S'levels'
p1604
S'level'
p1605
S'NNS'
p1606
S'I-NP'
p1607
g5
tp1608
a(S'of'
p1609
S'of'
p1610
S'IN'
p1611
S'B-PP'
p1612
g5
tp1613
a(S'titres'
p1614
S'titre'
p1615
S'NNS'
p1616
S'B-NP'
p1617
g5
tp1618
a(S'of'
p1619
S'of'
p1620
S'IN'
p1621
S'B-PP'
p1622
g5
tp1623
a(S'anti-PT'
p1624
S'anti-PT'
p1625
S'JJ'
p1626
S'B-NP'
p1627
g5
tp1628
a(S'and'
p1629
S'and'
p1630
S'CC'
p1631
S'I-NP'
p1632
g5
tp1633
a(S'anti-FHA'
p1634
S'anti-FHA'
p1635
S'JJ'
p1636
S'I-NP'
p1637
S'B-protein'
p1638
tp1639
a(S'antibodies'
p1640
S'antibody'
p1641
S'NNS'
p1642
S'I-NP'
p1643
S'I-protein'
p1644
tp1645
a(S'in'
p1646
S'in'
p1647
S'IN'
p1648
S'B-PP'
p1649
g5
tp1650
a(S'all'
p1651
S'all'
p1652
S'PDT'
p1653
S'B-NP'
p1654
g5
tp1655
a(S'the'
p1656
S'the'
p1657
S'DT'
p1658
S'I-NP'
p1659
g5
tp1660
a(S'three'
p1661
S'three'
p1662
S'CD'
p1663
S'I-NP'
p1664
g5
tp1665
a(S'vaccines'
p1666
S'vaccine'
p1667
S'NNS'
p1668
S'I-NP'
p1669
g5
tp1670
a(S'that'
p1671
S'that'
p1672
S'WDT'
p1673
S'B-NP'
p1674
g5
tp1675
a(S'confer'
p1676
S'confer'
p1677
S'VBP'
p1678
S'B-VP'
p1679
g5
tp1680
a(S'protection'
p1681
S'protection'
p1682
S'NN'
p1683
S'B-NP'
p1684
g5
tp1685
a(S'are'
p1686
S'be'
p1687
S'VBP'
p1688
S'B-VP'
p1689
g5
tp1690
a(S'not'
p1691
S'not'
p1692
S'RB'
p1693
g5
g5
tp1694
a(S'known.'
p1695
S'known.'
p1696
S'JJ'
p1697
S'B-NP'
p1698
g5
tp1699
a(S'Further'
p1700
S'Further'
p1701
S'JJ'
p1702
S'I-NP'
p1703
g5
tp1704
a(S'studies'
p1705
S'study'
p1706
S'NNS'
p1707
S'I-NP'
p1708
g5
tp1709
a(S'are'
p1710
S'be'
p1711
S'VBP'
p1712
S'B-VP'
p1713
g5
tp1714
a(S'necessary'
p1715
S'necessary'
p1716
S'JJ'
p1717
S'B-ADJP'
p1718
g5
tp1719
a(S'to'
p1720
S'to'
p1721
S'TO'
p1722
S'B-VP'
p1723
g5
tp1724
a(S'provide'
p1725
S'provide'
p1726
S'VB'
p1727
S'I-VP'
p1728
g5
tp1729
a(S'this'
p1730
S'this'
p1731
S'DT'
p1732
S'B-NP'
p1733
g5
tp1734
a(S'information'
p1735
S'information'
p1736
S'NN'
p1737
S'I-NP'
p1738
g5
tp1739
a(S'in'
p1740
S'in'
p1741
S'IN'
p1742
S'B-SBAR'
p1743
g5
tp1744
a(S'order'
p1745
S'order'
p1746
S'NN'
p1747
g5
g5
tp1748
a(S'to'
p1749
S'to'
p1750
S'TO'
p1751
S'B-VP'
p1752
g5
tp1753
a(S'assess'
p1754
S'assess'
p1755
S'VB'
p1756
S'I-VP'
p1757
g5
tp1758
a(S'the'
p1759
S'the'
p1760
S'DT'
p1761
S'B-NP'
p1762
g5
tp1763
a(S'need'
p1764
S'need'
p1765
S'NN'
p1766
S'I-NP'
p1767
g5
tp1768
a(S'for'
p1769
S'for'
p1770
S'IN'
p1771
S'B-PP'
p1772
g5
tp1773
a(S'subsequent'
p1774
S'subsequent'
p1775
S'JJ'
p1776
S'B-NP'
p1777
g5
tp1778
a(S'booster'
p1779
S'booster'
p1780
S'NN'
p1781
S'I-NP'
p1782
g5
tp1783
a(S'doses'
p1784
S'dose'
p1785
S'NNS'
p1786
S'I-NP'
p1787
g5
tp1788
a(S'after'
p1789
S'after'
p1790
S'IN'
p1791
S'B-PP'
p1792
g5
tp1793
a(S'primary'
p1794
S'primary'
p1795
S'JJ'
p1796
S'B-NP'
p1797
g5
tp1798
a(S'immunization'
p1799
S'immunization'
p1800
S'NN'
p1801
S'I-NP'
p1802
g5
tp1803
a(S'with'
p1804
S'with'
p1805
S'IN'
p1806
S'B-PP'
p1807
g5
tp1808
a(S'both'
p1809
S'both'
p1810
S'CC'
p1811
g5
g5
tp1812
a(S'ADPT'
p1813
S'ADPT'
p1814
S'NN'
p1815
S'B-NP'
p1816
S'B-protein'
p1817
tp1818
a(S'and'
p1819
S'and'
p1820
S'CC'
p1821
S'I-NP'
p1822
g5
tp1823
a(S'WCDPT'
p1824
S'WCDPT'
p1825
S'NN'
p1826
S'I-NP'
p1827
g5
tp1828
a(S'vaccines'
p1829
S'vaccine'
p1830
S'NNS'
p1831
S'I-NP'
p1832
g5
tp1833
a(g69
g69
g69
g5
g5
tp1834
a.