(lp0
(S'A'
p1
g1
S'DT'
p2
S'B-NP'
p3
S'O'
p4
tp5
a(S'randomized'
p6
S'randomize'
p7
S'VBN'
p8
S'I-NP'
p9
g4
tp10
a(S'controlled'
p11
S'control'
p12
S'VBN'
p13
S'I-NP'
p14
g4
tp15
a(S'study'
p16
S'study'
p17
S'NN'
p18
S'I-NP'
p19
g4
tp20
a(S'of'
p21
S'of'
p22
S'IN'
p23
S'B-PP'
p24
g4
tp25
a(S'a'
p26
g26
S'DT'
p27
S'B-NP'
p28
g4
tp29
a(S'social'
p30
S'social'
p31
S'JJ'
p32
S'I-NP'
p33
g4
tp34
a(S'skills'
p35
S'skill'
p36
S'NNS'
p37
S'I-NP'
p38
g4
tp39
a(S'training'
p40
S'train'
p41
S'VBG'
p42
S'B-VP'
p43
g4
tp44
a(S'for'
p45
S'for'
p46
S'IN'
p47
S'B-PP'
p48
g4
tp49
a(S'preadolescent'
p50
S'preadolescent'
p51
S'JJ'
p52
S'B-NP'
p53
g4
tp54
a(S'children'
p55
S'child'
p56
S'NNS'
p57
S'I-NP'
p58
g4
tp59
a(S'with'
p60
S'with'
p61
S'IN'
p62
S'B-PP'
p63
g4
tp64
a(S'autism'
p65
S'autism'
p66
S'NN'
p67
S'B-NP'
p68
g4
tp69
a(S'spectrum'
p70
S'spectrum'
p71
S'NN'
p72
S'I-NP'
p73
g4
tp74
a(S'disorders'
p75
S'disorder'
p76
S'NNS'
p77
S'I-NP'
p78
g4
tp79
a(S':'
p80
g80
g80
g4
g4
tp81
a(S'generalization'
p82
S'generalization'
p83
S'NN'
p84
S'B-NP'
p85
g4
tp86
a(S'of'
p87
S'of'
p88
S'IN'
p89
S'B-PP'
p90
g4
tp91
a(S'skills'
p92
S'skill'
p93
S'NNS'
p94
S'B-NP'
p95
g4
tp96
a(S'by'
p97
S'by'
p98
S'IN'
p99
S'B-PP'
p100
g4
tp101
a(S'training'
p102
S'training'
p103
S'NN'
p104
S'B-NP'
p105
g4
tp106
a(S'parents'
p107
S'parent'
p108
S'NNS'
p109
S'I-NP'
p110
g4
tp111
a(S'and'
p112
S'and'
p113
S'CC'
p114
S'I-NP'
p115
g4
tp116
a(S'teachers'
p117
S'teacher'
p118
S'NNS'
p119
S'I-NP'
p120
g4
tp121
a(S'?'
p122
g122
S'.'
p123
g4
g4
tp124
a(S'BACKGROUND'
p125
S'BACKGROUND'
p126
S'NN'
p127
S'B-NP'
p128
g4
tp129
a(S'Social'
p130
S'Social'
p131
S'NNP'
p132
S'I-NP'
p133
g4
tp134
a(S'skills'
p135
S'skill'
p136
S'NNS'
p137
S'I-NP'
p138
g4
tp139
a(S'training'
p140
S'training'
p141
S'NN'
p142
S'I-NP'
p143
g4
tp144
a(S'('
p145
g145
g145
g4
g4
tp146
a(S'SST'
p147
S'SST'
p148
S'NN'
p149
S'B-NP'
p150
g4
tp151
a(S')'
p152
g152
g152
g4
g4
tp153
a(S'is'
p154
S'be'
p155
S'VBZ'
p156
S'B-VP'
p157
g4
tp158
a(g26
g26
S'DT'
p159
S'B-NP'
p160
g4
tp161
a(S'common'
p162
S'common'
p163
S'JJ'
p164
S'I-NP'
p165
g4
tp166
a(S'intervention'
p167
S'intervention'
p168
S'NN'
p169
S'I-NP'
p170
g4
tp171
a(S'for'
p172
S'for'
p173
S'IN'
p174
S'B-PP'
p175
g4
tp176
a(S'children'
p177
S'child'
p178
S'NNS'
p179
S'B-NP'
p180
g4
tp181
a(S'with'
p182
S'with'
p183
S'IN'
p184
S'B-PP'
p185
g4
tp186
a(S'autism'
p187
S'autism'
p188
S'NN'
p189
S'B-NP'
p190
g4
tp191
a(S'spectrum'
p192
S'spectrum'
p193
S'NN'
p194
S'I-NP'
p195
g4
tp196
a(S'disorders'
p197
S'disorder'
p198
S'NNS'
p199
S'I-NP'
p200
g4
tp201
a(g145
g145
g145
g4
g4
tp202
a(S'ASDs'
p203
S'ASD'
p204
S'NNS'
p205
S'B-NP'
p206
g4
tp207
a(g152
g152
g152
g4
g4
tp208
a(S'to'
p209
S'to'
p210
S'TO'
p211
S'B-VP'
p212
g4
tp213
a(S'improve'
p214
S'improve'
p215
S'VB'
p216
S'I-VP'
p217
g4
tp218
a(S'their'
p219
S'their'
p220
S'PRP$'
p221
S'B-NP'
p222
g4
tp223
a(S'social'
p224
S'social'
p225
S'JJ'
p226
S'I-NP'
p227
g4
tp228
a(S'and'
p229
S'and'
p230
S'CC'
p231
S'I-NP'
p232
g4
tp233
a(S'communication'
p234
S'communication'
p235
S'NN'
p236
S'I-NP'
p237
g4
tp238
a(S'skills.'
p239
S'skills.'
p240
S'NN'
p241
S'I-NP'
p242
g4
tp243
a(S'Despite'
p244
S'Despite'
p245
S'IN'
p246
S'B-PP'
p247
g4
tp248
a(S'the'
p249
S'the'
p250
S'DT'
p251
S'B-NP'
p252
g4
tp253
a(S'fact'
p254
S'fact'
p255
S'NN'
p256
S'I-NP'
p257
g4
tp258
a(S'that'
p259
S'that'
p260
S'IN'
p261
S'B-SBAR'
p262
g4
tp263
a(S'SSTs'
p264
S'SST'
p265
S'NNS'
p266
S'B-NP'
p267
S'B-protein'
p268
tp269
a(S'are'
p270
S'be'
p271
S'VBP'
p272
S'B-VP'
p273
g4
tp274
a(S'often'
p275
S'often'
p276
S'RB'
p277
S'I-VP'
p278
g4
tp279
a(S'applied'
p280
S'apply'
p281
S'VBN'
p282
S'I-VP'
p283
g4
tp284
a(S'in'
p285
S'in'
p286
S'IN'
p287
S'B-PP'
p288
g4
tp289
a(S'clinical'
p290
S'clinical'
p291
S'JJ'
p292
S'B-NP'
p293
g4
tp294
a(S'practice'
p295
S'practice'
p296
S'NN'
p297
S'I-NP'
p298
g4
tp299
a(S','
p300
g300
g300
g4
g4
tp301
a(S'the'
p302
S'the'
p303
S'DT'
p304
S'B-NP'
p305
g4
tp306
a(S'evidence'
p307
S'evidence'
p308
S'NN'
p309
S'I-NP'
p310
g4
tp311
a(S'for'
p312
S'for'
p313
S'IN'
p314
S'B-PP'
p315
g4
tp316
a(S'the'
p317
S'the'
p318
S'DT'
p319
S'B-NP'
p320
g4
tp321
a(S'effectiveness'
p322
S'effectiveness'
p323
S'NN'
p324
S'I-NP'
p325
g4
tp326
a(S'of'
p327
S'of'
p328
S'IN'
p329
S'B-PP'
p330
g4
tp331
a(S'these'
p332
S'these'
p333
S'DT'
p334
S'B-NP'
p335
g4
tp336
a(S'trainings'
p337
S'training'
p338
S'NNS'
p339
S'I-NP'
p340
g4
tp341
a(S'for'
p342
S'for'
p343
S'IN'
p344
S'B-PP'
p345
g4
tp346
a(S'children'
p347
S'child'
p348
S'NNS'
p349
S'B-NP'
p350
g4
tp351
a(S'with'
p352
S'with'
p353
S'IN'
p354
S'B-PP'
p355
g4
tp356
a(S'ASD'
p357
S'ASD'
p358
S'NN'
p359
S'B-NP'
p360
g4
tp361
a(S'is'
p362
S'be'
p363
S'VBZ'
p364
S'B-VP'
p365
g4
tp366
a(S'inconclusive.'
p367
S'inconclusive.'
p368
S'RB'
p369
S'B-ADVP'
p370
g4
tp371
a(S'Moreover'
p372
S'Moreover'
p373
S'RB'
p374
S'B-ADVP'
p375
g4
tp376
a(g300
g300
g300
g4
g4
tp377
a(S'long'
p378
S'long'
p379
S'JJ'
p380
S'B-NP'
p381
g4
tp382
a(S'term'
p383
S'term'
p384
S'NN'
p385
S'I-NP'
p386
g4
tp387
a(S'outcome'
p388
S'outcome'
p389
S'NN'
p390
S'I-NP'
p391
g4
tp392
a(S'and'
p393
S'and'
p394
S'CC'
p395
S'I-NP'
p396
g4
tp397
a(S'generalization'
p398
S'generalization'
p399
S'NN'
p400
S'I-NP'
p401
g4
tp402
a(S'of'
p403
S'of'
p404
S'IN'
p405
S'B-PP'
p406
g4
tp407
a(S'learned'
p408
S'learn'
p409
S'VBN'
p410
S'B-NP'
p411
g4
tp412
a(S'skills'
p413
S'skill'
p414
S'NNS'
p415
S'I-NP'
p416
g4
tp417
a(S'are'
p418
S'be'
p419
S'VBP'
p420
S'B-VP'
p421
g4
tp422
a(S'little'
p423
S'little'
p424
S'JJ'
p425
S'B-NP'
p426
g4
tp427
a(S'evaluated.'
p428
S'evaluated.'
p429
S'NN'
p430
S'I-NP'
p431
g4
tp432
a(S'Additionally'
p433
S'Additionally'
p434
S'RB'
p435
S'B-ADVP'
p436
g4
tp437
a(g300
g300
g300
g4
g4
tp438
a(S'there'
p439
S'there'
p440
S'EX'
p441
S'B-NP'
p442
g4
tp443
a(S'is'
p444
S'be'
p445
S'VBZ'
p446
S'B-VP'
p447
g4
tp448
a(S'no'
p449
S'no'
p450
S'DT'
p451
S'B-NP'
p452
g4
tp453
a(S'research'
p454
S'research'
p455
S'NN'
p456
S'I-NP'
p457
g4
tp458
a(S'on'
p459
S'on'
p460
S'IN'
p461
S'B-PP'
p462
g4
tp463
a(S'the'
p464
S'the'
p465
S'DT'
p466
S'B-NP'
p467
g4
tp468
a(S'influence'
p469
S'influence'
p470
S'NN'
p471
S'I-NP'
p472
g4
tp473
a(S'of'
p474
S'of'
p475
S'IN'
p476
S'B-PP'
p477
g4
tp478
a(S'involvement'
p479
S'involvement'
p480
S'NN'
p481
S'B-NP'
p482
g4
tp483
a(S'of'
p484
S'of'
p485
S'IN'
p486
S'B-PP'
p487
g4
tp488
a(S'parents'
p489
S'parent'
p490
S'NNS'
p491
S'B-NP'
p492
g4
tp493
a(S'and'
p494
S'and'
p495
S'CC'
p496
S'I-NP'
p497
g4
tp498
a(S'teachers'
p499
S'teacher'
p500
S'NNS'
p501
S'I-NP'
p502
g4
tp503
a(S'on'
p504
S'on'
p505
S'IN'
p506
S'B-PP'
p507
g4
tp508
a(S'effectiveness'
p509
S'effectiveness'
p510
S'NN'
p511
S'B-NP'
p512
g4
tp513
a(S'of'
p514
S'of'
p515
S'IN'
p516
S'B-PP'
p517
g4
tp518
a(S'SST'
p519
S'SST'
p520
S'NN'
p521
S'B-NP'
p522
g4
tp523
a(S'and'
p524
S'and'
p525
S'CC'
p526
S'B-PP'
p527
g4
tp528
a(S'on'
p529
S'on'
p530
S'IN'
p531
S'B-PP'
p532
g4
tp533
a(S'the'
p534
S'the'
p535
S'DT'
p536
S'B-NP'
p537
g4
tp538
a(S'generalization'
p539
S'generalization'
p540
S'NN'
p541
S'I-NP'
p542
g4
tp543
a(S'of'
p544
S'of'
p545
S'IN'
p546
S'B-PP'
p547
g4
tp548
a(S'learned'
p549
S'learn'
p550
S'VBN'
p551
S'B-NP'
p552
g4
tp553
a(S'social'
p554
S'social'
p555
S'JJ'
p556
S'I-NP'
p557
g4
tp558
a(S'skills'
p559
S'skill'
p560
S'NNS'
p561
S'I-NP'
p562
g4
tp563
a(S'to'
p564
S'to'
p565
S'TO'
p566
S'B-PP'
p567
g4
tp568
a(S'daily'
p569
S'daily'
p570
S'JJ'
p571
S'B-NP'
p572
g4
tp573
a(S'life.'
p574
S'life.'
p575
S'NN'
p576
S'I-NP'
p577
g4
tp578
a(S'We'
p579
S'We'
p580
S'PRP'
p581
S'B-NP'
p582
g4
tp583
a(S'expect'
p584
S'expect'
p585
S'VBP'
p586
S'B-VP'
p587
g4
tp588
a(S'parent'
p589
S'parent'
p590
S'NN'
p591
S'B-NP'
p592
g4
tp593
a(S'and'
p594
S'and'
p595
S'CC'
p596
S'I-NP'
p597
g4
tp598
a(S'teacher'
p599
S'teacher'
p600
S'NN'
p601
S'I-NP'
p602
g4
tp603
a(S'involvement'
p604
S'involvement'
p605
S'NN'
p606
S'I-NP'
p607
g4
tp608
a(S'in'
p609
S'in'
p610
S'IN'
p611
S'B-PP'
p612
g4
tp613
a(S'SST'
p614
S'SST'
p615
S'NN'
p616
S'B-NP'
p617
g4
tp618
a(S'to'
p619
S'to'
p620
S'TO'
p621
S'B-VP'
p622
g4
tp623
a(S'enhance'
p624
S'enhance'
p625
S'VB'
p626
S'I-VP'
p627
g4
tp628
a(S'treatment'
p629
S'treatment'
p630
S'NN'
p631
S'B-NP'
p632
g4
tp633
a(S'efficacy'
p634
S'efficacy'
p635
S'NN'
p636
S'I-NP'
p637
g4
tp638
a(S'and'
p639
S'and'
p640
S'CC'
p641
g4
g4
tp642
a(S'to'
p643
S'to'
p644
S'TO'
p645
S'B-VP'
p646
g4
tp647
a(S'facilitate'
p648
S'facilitate'
p649
S'VB'
p650
S'I-VP'
p651
g4
tp652
a(S'generalization'
p653
S'generalization'
p654
S'NN'
p655
S'B-NP'
p656
g4
tp657
a(S'of'
p658
S'of'
p659
S'IN'
p660
S'B-PP'
p661
g4
tp662
a(S'learned'
p663
S'learn'
p664
S'VBN'
p665
S'B-NP'
p666
g4
tp667
a(S'skills'
p668
S'skill'
p669
S'NNS'
p670
S'I-NP'
p671
g4
tp672
a(S'to'
p673
S'to'
p674
S'TO'
p675
S'B-PP'
p676
g4
tp677
a(S'daily'
p678
S'daily'
p679
S'JJ'
p680
S'B-NP'
p681
g4
tp682
a(S'life'
p683
S'life'
p684
S'NN'
p685
S'I-NP'
p686
g4
tp687
a(g123
g123
g123
g4
g4
tp688
a(S'METHOD/DESIGN'
p689
S'METHOD/DESIGN'
p690
S'NN'
p691
S'B-NP'
p692
g4
tp693
a(S'In'
p694
S'In'
p695
S'IN'
p696
S'B-PP'
p697
g4
tp698
a(g26
g26
S'DT'
p699
S'B-NP'
p700
g4
tp701
a(S'randomized'
p702
S'randomize'
p703
S'VBN'
p704
S'I-NP'
p705
g4
tp706
a(S'controlled'
p707
S'control'
p708
S'VBN'
p709
S'I-NP'
p710
g4
tp711
a(S'trial'
p712
S'trial'
p713
S'NN'
p714
S'I-NP'
p715
g4
tp716
a(g145
g145
g145
g4
g4
tp717
a(S'RCT'
p718
S'RCT'
p719
S'NN'
p720
S'B-NP'
p721
g4
tp722
a(g152
g152
g152
g4
g4
tp723
a(S'with'
p724
S'with'
p725
S'IN'
p726
S'B-PP'
p727
g4
tp728
a(S'three'
p729
S'three'
p730
S'CD'
p731
S'B-NP'
p732
g4
tp733
a(S'conditions'
p734
S'condition'
p735
S'NNS'
p736
S'I-NP'
p737
g4
tp738
a(g300
g300
g300
g4
g4
tp739
a(S'120'
p740
S'120'
p741
S'CD'
p742
S'B-NP'
p743
g4
tp744
a(S'participants'
p745
S'participant'
p746
S'NNS'
p747
S'I-NP'
p748
g4
tp749
a(S'with'
p750
S'with'
p751
S'IN'
p752
S'B-PP'
p753
g4
tp754
a(S'ASD'
p755
S'ASD'
p756
S'NN'
p757
S'B-NP'
p758
g4
tp759
a(S'at'
p760
S'at'
p761
S'IN'
p762
S'B-PP'
p763
g4
tp764
a(S'the'
p765
S'the'
p766
S'DT'
p767
S'B-NP'
p768
g4
tp769
a(S'end'
p770
S'end'
p771
S'NN'
p772
S'I-NP'
p773
g4
tp774
a(S'of'
p775
S'of'
p776
S'IN'
p777
S'B-PP'
p778
g4
tp779
a(S'primary'
p780
S'primary'
p781
S'JJ'
p782
S'B-NP'
p783
g4
tp784
a(S'school'
p785
S'school'
p786
S'NN'
p787
S'I-NP'
p788
g4
tp789
a(g145
g145
g145
g4
g4
tp790
a(S'10-12'
p791
S'10-12'
p792
S'CD'
p793
S'B-NP'
p794
g4
tp795
a(S'years'
p796
S'year'
p797
S'NNS'
p798
S'I-NP'
p799
g4
tp800
a(S'of'
p801
S'of'
p802
S'IN'
p803
S'B-PP'
p804
g4
tp805
a(S'calendar'
p806
S'calendar'
p807
S'NN'
p808
S'B-NP'
p809
g4
tp810
a(S'age'
p811
S'age'
p812
S'NN'
p813
S'I-NP'
p814
g4
tp815
a(g152
g152
g152
g4
g4
tp816
a(S'have'
p817
S'have'
p818
S'VBP'
p819
S'B-VP'
p820
g4
tp821
a(S'been'
p822
S'be'
p823
S'VBN'
p824
S'I-VP'
p825
g4
tp826
a(S'randomized'
p827
S'randomize'
p828
S'VBN'
p829
S'I-VP'
p830
g4
tp831
a(S'to'
p832
S'to'
p833
S'TO'
p834
S'B-PP'
p835
g4
tp836
a(S'SST'
p837
S'SST'
p838
S'NN'
p839
S'B-NP'
p840
g4
tp841
a(g300
g300
g300
g4
g4
tp842
a(S'SST-PTI'
p843
S'SST-PTI'
p844
S'NN'
p845
S'B-NP'
p846
g4
tp847
a(g145
g145
g145
g4
g4
tp848
a(S'SST'
p849
S'SST'
p850
S'NN'
p851
S'B-NP'
p852
g4
tp853
a(S'with'
p854
S'with'
p855
S'IN'
p856
S'B-PP'
p857
g4
tp858
a(S'Parent'
p859
S'Parent'
p860
S'NNP'
p861
S'B-NP'
p862
g4
tp863
a(S'&'
p864
g864
S'CC'
p865
S'I-NP'
p866
g4
tp867
a(S'Teacher'
p868
S'Teacher'
p869
S'NNP'
p870
S'I-NP'
p871
g4
tp872
a(S'Involvement'
p873
S'Involvement'
p874
S'NNP'
p875
S'I-NP'
p876
g4
tp877
a(g152
g152
g152
g4
g4
tp878
a(g300
g300
g300
g4
g4
tp879
a(S'or'
p880
S'or'
p881
S'CC'
p882
g4
g4
tp883
a(S'care-as-usual.'
p884
S'care-as-usual.'
p885
S'NN'
p886
S'B-NP'
p887
g4
tp888
a(S'The'
p889
S'The'
p890
S'DT'
p891
S'B-NP'
p892
g4
tp893
a(S'SST'
p894
S'SST'
p895
S'NN'
p896
S'I-NP'
p897
g4
tp898
a(S'consists'
p899
S'consist'
p900
S'VBZ'
p901
S'B-VP'
p902
g4
tp903
a(S'of'
p904
S'of'
p905
S'IN'
p906
S'B-PP'
p907
g4
tp908
a(S'18'
p909
S'18'
p910
S'CD'
p911
S'B-NP'
p912
g4
tp913
a(S'group'
p914
S'group'
p915
S'NN'
p916
S'I-NP'
p917
g4
tp918
a(S'sessions'
p919
S'session'
p920
S'NNS'
p921
S'I-NP'
p922
g4
tp923
a(S'of'
p924
S'of'
p925
S'IN'
p926
S'B-PP'
p927
g4
tp928
a(S'1.5'
p929
S'1.5'
p930
S'CD'
p931
S'B-NP'
p932
g4
tp933
a(S'hours'
p934
S'hour'
p935
S'NNS'
p936
S'I-NP'
p937
g4
tp938
a(S'for'
p939
S'for'
p940
S'IN'
p941
S'B-PP'
p942
g4
tp943
a(S'the'
p944
S'the'
p945
S'DT'
p946
S'B-NP'
p947
g4
tp948
a(S'children.'
p949
S'children.'
p950
S'NN'
p951
S'I-NP'
p952
g4
tp953
a(S'In'
p954
S'In'
p955
S'IN'
p956
S'B-PP'
p957
g4
tp958
a(S'the'
p959
S'the'
p960
S'DT'
p961
S'B-NP'
p962
g4
tp963
a(S'SST-PTI'
p964
S'SST-PTI'
p965
S'NN'
p966
S'I-NP'
p967
g4
tp968
a(S'condition'
p969
S'condition'
p970
S'NN'
p971
S'I-NP'
p972
g4
tp973
a(g300
g300
g300
g4
g4
tp974
a(S'parents'
p975
S'parent'
p976
S'NNS'
p977
S'B-NP'
p978
g4
tp979
a(S'additionally'
p980
S'additionally'
p981
S'RB'
p982
S'B-ADVP'
p983
g4
tp984
a(S'participate'
p985
S'participate'
p986
S'VBP'
p987
S'B-VP'
p988
g4
tp989
a(S'in'
p990
S'in'
p991
S'IN'
p992
S'B-PP'
p993
g4
tp994
a(S'8'
p995
g995
S'CD'
p996
S'B-NP'
p997
g4
tp998
a(S'parent'
p999
S'parent'
p1000
S'NN'
p1001
S'I-NP'
p1002
g4
tp1003
a(S'sessions'
p1004
S'session'
p1005
S'NNS'
p1006
S'I-NP'
p1007
g4
tp1008
a(S'and'
p1009
S'and'
p1010
S'CC'
p1011
S'I-NP'
p1012
g4
tp1013
a(S'parents'
p1014
S'parent'
p1015
S'NNS'
p1016
S'I-NP'
p1017
g4
tp1018
a(S'and'
p1019
S'and'
p1020
S'CC'
p1021
S'I-NP'
p1022
g4
tp1023
a(S'teachers'
p1024
S'teacher'
p1025
S'NNS'
p1026
S'I-NP'
p1027
g4
tp1028
a(S'are'
p1029
S'be'
p1030
S'VBP'
p1031
S'B-VP'
p1032
g4
tp1033
a(S'actively'
p1034
S'actively'
p1035
S'RB'
p1036
S'I-VP'
p1037
g4
tp1038
a(S'involved'
p1039
S'involve'
p1040
S'VBN'
p1041
S'I-VP'
p1042
g4
tp1043
a(S'in'
p1044
S'in'
p1045
S'IN'
p1046
S'B-PP'
p1047
g4
tp1048
a(S'homework'
p1049
S'homework'
p1050
S'NN'
p1051
S'B-NP'
p1052
g4
tp1053
a(S'assignments.'
p1054
S'assignments.'
p1055
S'NN'
p1056
S'I-NP'
p1057
g4
tp1058
a(S'Assessment'
p1059
S'Assessment'
p1060
S'NN'
p1061
S'I-NP'
p1062
g4
tp1063
a(S'takes'
p1064
S'take'
p1065
S'VBZ'
p1066
S'B-VP'
p1067
g4
tp1068
a(S'place'
p1069
S'place'
p1070
S'NN'
p1071
S'B-NP'
p1072
g4
tp1073
a(S'at'
p1074
S'at'
p1075
S'IN'
p1076
S'B-PP'
p1077
g4
tp1078
a(S'three'
p1079
S'three'
p1080
S'CD'
p1081
S'B-NP'
p1082
g4
tp1083
a(S'moments'
p1084
S'moment'
p1085
S'NNS'
p1086
S'I-NP'
p1087
g4
tp1088
a(g80
g80
g80
g4
g4
tp1089
a(S'before'
p1090
S'before'
p1091
S'RB'
p1092
S'B-ADVP'
p1093
g4
tp1094
a(S'and'
p1095
S'and'
p1096
S'CC'
p1097
S'I-ADVP'
p1098
g4
tp1099
a(S'immediately'
p1100
S'immediately'
p1101
S'RB'
p1102
S'I-ADVP'
p1103
g4
tp1104
a(S'after'
p1105
S'after'
p1106
S'IN'
p1107
S'B-SBAR'
p1108
g4
tp1109
a(S'the'
p1110
S'the'
p1111
S'DT'
p1112
S'B-NP'
p1113
g4
tp1114
a(S'intervention'
p1115
S'intervention'
p1116
S'NN'
p1117
S'I-NP'
p1118
g4
tp1119
a(S'period'
p1120
S'period'
p1121
S'NN'
p1122
S'I-NP'
p1123
g4
tp1124
a(S'and'
p1125
S'and'
p1126
S'CC'
p1127
S'B-PP'
p1128
g4
tp1129
a(S'at'
p1130
S'at'
p1131
S'IN'
p1132
S'B-PP'
p1133
g4
tp1134
a(S'6'
p1135
g1135
S'CD'
p1136
S'B-NP'
p1137
g4
tp1138
a(S'months'
p1139
S'month'
p1140
S'NNS'
p1141
S'I-NP'
p1142
g4
tp1143
a(S'follow-up.'
p1144
S'follow-up.'
p1145
S'JJ'
p1146
S'B-NP'
p1147
g4
tp1148
a(S'Primary'
p1149
S'Primary'
p1150
S'JJ'
p1151
S'I-NP'
p1152
g4
tp1153
a(S'outcome'
p1154
S'outcome'
p1155
S'NN'
p1156
S'I-NP'
p1157
g4
tp1158
a(S'is'
p1159
S'be'
p1160
S'VBZ'
p1161
S'B-VP'
p1162
g4
tp1163
a(S'socialization'
p1164
S'socialization'
p1165
S'NN'
p1166
S'B-NP'
p1167
g4
tp1168
a(g300
g300
g300
g4
g4
tp1169
a(S'as'
p1170
S'as'
p1171
S'IN'
p1172
S'B-PP'
p1173
g4
tp1174
a(S'an'
p1175
S'an'
p1176
S'DT'
p1177
S'B-NP'
p1178
g4
tp1179
a(S'aspect'
p1180
S'aspect'
p1181
S'NN'
p1182
S'I-NP'
p1183
g4
tp1184
a(S'of'
p1185
S'of'
p1186
S'IN'
p1187
S'B-PP'
p1188
g4
tp1189
a(S'adaptive'
p1190
S'adaptive'
p1191
S'JJ'
p1192
S'B-NP'
p1193
g4
tp1194
a(S'functioning.'
p1195
S'functioning.'
p1196
S'NN'
p1197
S'I-NP'
p1198
g4
tp1199
a(S'Secondary'
p1200
S'Secondary'
p1201
S'NNP'
p1202
S'B-NP'
p1203
g4
tp1204
a(S'outcomes'
p1205
S'outcome'
p1206
S'VBZ'
p1207
S'B-VP'
p1208
g4
tp1209
a(S'focus'
p1210
S'focus'
p1211
S'NN'
p1212
S'B-NP'
p1213
g4
tp1214
a(S'on'
p1215
S'on'
p1216
S'IN'
p1217
S'B-PP'
p1218
g4
tp1219
a(S'specific'
p1220
S'specific'
p1221
S'JJ'
p1222
S'B-NP'
p1223
g4
tp1224
a(S'social'
p1225
S'social'
p1226
S'JJ'
p1227
S'I-NP'
p1228
g4
tp1229
a(S'skills'
p1230
S'skill'
p1231
S'NNS'
p1232
S'I-NP'
p1233
g4
tp1234
a(S'children'
p1235
S'child'
p1236
S'NNS'
p1237
S'I-NP'
p1238
g4
tp1239
a(S'learn'
p1240
S'learn'
p1241
S'VBP'
p1242
S'B-VP'
p1243
g4
tp1244
a(S'during'
p1245
S'during'
p1246
S'IN'
p1247
S'B-PP'
p1248
g4
tp1249
a(S'SST'
p1250
S'SST'
p1251
S'NN'
p1252
S'B-NP'
p1253
g4
tp1254
a(S'and'
p1255
S'and'
p1256
S'CC'
p1257
S'B-PP'
p1258
g4
tp1259
a(S'on'
p1260
S'on'
p1261
S'IN'
p1262
S'B-PP'
p1263
g4
tp1264
a(S'more'
p1265
S'more'
p1266
S'RBR'
p1267
S'B-NP'
p1268
g4
tp1269
a(S'general'
p1270
S'general'
p1271
S'JJ'
p1272
S'I-NP'
p1273
g4
tp1274
a(S'social'
p1275
S'social'
p1276
S'JJ'
p1277
S'I-NP'
p1278
g4
tp1279
a(S'skills'
p1280
S'skill'
p1281
S'NNS'
p1282
S'I-NP'
p1283
g4
tp1284
a(S'pertaining'
p1285
S'pertain'
p1286
S'VBG'
p1287
S'B-VP'
p1288
g4
tp1289
a(S'to'
p1290
S'to'
p1291
S'TO'
p1292
S'B-PP'
p1293
g4
tp1294
a(S'home'
p1295
S'home'
p1296
S'NN'
p1297
S'B-NP'
p1298
g4
tp1299
a(S'and'
p1300
S'and'
p1301
S'CC'
p1302
S'I-NP'
p1303
g4
tp1304
a(S'community'
p1305
S'community'
p1306
S'NN'
p1307
S'I-NP'
p1308
g4
tp1309
a(S'settings'
p1310
S'setting'
p1311
S'NNS'
p1312
S'I-NP'
p1313
g4
tp1314
a(S'from'
p1315
S'from'
p1316
S'IN'
p1317
S'B-PP'
p1318
g4
tp1319
a(g26
g26
S'DT'
p1320
S'B-NP'
p1321
g4
tp1322
a(S'multi-informant'
p1323
S'multi-informant'
p1324
S'JJ'
p1325
S'I-NP'
p1326
g4
tp1327
a(S'perspective.'
p1328
S'perspective.'
p1329
S'NN'
p1330
S'I-NP'
p1331
g4
tp1332
a(S'Additionally'
p1333
S'Additionally'
p1334
S'RB'
p1335
S'B-ADVP'
p1336
g4
tp1337
a(g300
g300
g300
g4
g4
tp1338
a(S'possible'
p1339
S'possible'
p1340
S'JJ'
p1341
S'B-NP'
p1342
g4
tp1343
a(S'predictors'
p1344
S'predictor'
p1345
S'NNS'
p1346
S'I-NP'
p1347
g4
tp1348
a(S'of'
p1349
S'of'
p1350
S'IN'
p1351
S'B-PP'
p1352
g4
tp1353
a(S'treatment'
p1354
S'treatment'
p1355
S'NN'
p1356
S'B-NP'
p1357
g4
tp1358
a(S'outcome'
p1359
S'outcome'
p1360
S'NN'
p1361
S'I-NP'
p1362
g4
tp1363
a(S'will'
p1364
S'will'
p1365
S'MD'
p1366
S'B-VP'
p1367
g4
tp1368
a(S'be'
p1369
S'be'
p1370
S'VB'
p1371
S'I-VP'
p1372
g4
tp1373
a(S'assessed'
p1374
S'assess'
p1375
S'VBN'
p1376
S'I-VP'
p1377
g4
tp1378
a(g123
g123
g123
g4
g4
tp1379
a(S'DISCUSSION'
p1380
S'DISCUSSION'
p1381
S'NN'
p1382
S'B-NP'
p1383
g4
tp1384
a(S'The'
p1385
S'The'
p1386
S'DT'
p1387
S'B-NP'
p1388
g4
tp1389
a(S'current'
p1390
S'current'
p1391
S'JJ'
p1392
S'I-NP'
p1393
g4
tp1394
a(S'study'
p1395
S'study'
p1396
S'NN'
p1397
S'I-NP'
p1398
g4
tp1399
a(S'is'
p1400
S'be'
p1401
S'VBZ'
p1402
S'B-VP'
p1403
g4
tp1404
a(S'an'
p1405
S'an'
p1406
S'DT'
p1407
S'B-NP'
p1408
g4
tp1409
a(S'RCT'
p1410
S'RCT'
p1411
S'NN'
p1412
S'I-NP'
p1413
g4
tp1414
a(S'study'
p1415
S'study'
p1416
S'NN'
p1417
S'I-NP'
p1418
g4
tp1419
a(S'evaluating'
p1420
S'evaluate'
p1421
S'VBG'
p1422
S'B-VP'
p1423
g4
tp1424
a(S'SST'
p1425
S'SST'
p1426
S'NN'
p1427
S'B-NP'
p1428
g4
tp1429
a(S'in'
p1430
S'in'
p1431
S'IN'
p1432
S'B-PP'
p1433
g4
tp1434
a(g26
g26
S'DT'
p1435
S'B-NP'
p1436
g4
tp1437
a(S'large'
p1438
S'large'
p1439
S'JJ'
p1440
S'I-NP'
p1441
g4
tp1442
a(S'sample'
p1443
S'sample'
p1444
S'NN'
p1445
S'I-NP'
p1446
g4
tp1447
a(S'of'
p1448
S'of'
p1449
S'IN'
p1450
S'B-PP'
p1451
g4
tp1452
a(S'Dutch'
p1453
S'Dutch'
p1454
S'JJ'
p1455
S'B-NP'
p1456
g4
tp1457
a(S'children'
p1458
S'child'
p1459
S'NNS'
p1460
S'I-NP'
p1461
g4
tp1462
a(S'with'
p1463
S'with'
p1464
S'IN'
p1465
S'B-PP'
p1466
g4
tp1467
a(S'ASD'
p1468
S'ASD'
p1469
S'NN'
p1470
S'B-NP'
p1471
g4
tp1472
a(S'in'
p1473
S'in'
p1474
S'IN'
p1475
S'B-PP'
p1476
g4
tp1477
a(g26
g26
S'DT'
p1478
S'B-NP'
p1479
g4
tp1480
a(S'specific'
p1481
S'specific'
p1482
S'JJ'
p1483
S'I-NP'
p1484
g4
tp1485
a(S'age'
p1486
S'age'
p1487
S'NN'
p1488
S'I-NP'
p1489
g4
tp1490
a(S'range'
p1491
S'range'
p1492
S'NN'
p1493
S'I-NP'
p1494
g4
tp1495
a(g145
g145
g145
g4
g4
tp1496
a(S'10-12'
p1497
S'10-12'
p1498
S'CD'
p1499
S'B-NP'
p1500
g4
tp1501
a(S'years'
p1502
S'year'
p1503
S'NNS'
p1504
S'I-NP'
p1505
g4
tp1506
a(g152
g152
g152
g4
g4
tp1507
a(g123
g123
g123
g4
g4
tp1508
a(S'Strengths'
p1509
S'Strength'
p1510
S'NNS'
p1511
S'B-NP'
p1512
g4
tp1513
a(S'of'
p1514
S'of'
p1515
S'IN'
p1516
S'B-PP'
p1517
g4
tp1518
a(S'the'
p1519
S'the'
p1520
S'DT'
p1521
S'B-NP'
p1522
g4
tp1523
a(S'study'
p1524
S'study'
p1525
S'NN'
p1526
S'I-NP'
p1527
g4
tp1528
a(S'are'
p1529
S'be'
p1530
S'VBP'
p1531
S'B-VP'
p1532
g4
tp1533
a(S'the'
p1534
S'the'
p1535
S'DT'
p1536
S'B-NP'
p1537
g4
tp1538
a(S'use'
p1539
S'use'
p1540
S'NN'
p1541
S'I-NP'
p1542
g4
tp1543
a(S'of'
p1544
S'of'
p1545
S'IN'
p1546
S'B-PP'
p1547
g4
tp1548
a(S'one'
p1549
S'one'
p1550
S'CD'
p1551
S'B-NP'
p1552
g4
tp1553
a(S'manualized'
p1554
S'manualize'
p1555
S'VBN'
p1556
S'I-NP'
p1557
g4
tp1558
a(S'protocol'
p1559
S'protocol'
p1560
S'NN'
p1561
S'I-NP'
p1562
g4
tp1563
a(g300
g300
g300
g4
g4
tp1564
a(S'application'
p1565
S'application'
p1566
S'NN'
p1567
S'B-NP'
p1568
g4
tp1569
a(S'of'
p1570
S'of'
p1571
S'IN'
p1572
S'B-PP'
p1573
g4
tp1574
a(S'standardized'
p1575
S'standardized'
p1576
S'JJ'
p1577
S'B-NP'
p1578
g4
tp1579
a(S'and'
p1580
S'and'
p1581
S'CC'
p1582
S'I-NP'
p1583
g4
tp1584
a(S'internationally'
p1585
S'internationally'
p1586
S'RB'
p1587
S'I-NP'
p1588
g4
tp1589
a(S'used'
p1590
S'use'
p1591
S'VBN'
p1592
S'I-NP'
p1593
g4
tp1594
a(S'rating'
p1595
S'rating'
p1596
S'NN'
p1597
S'I-NP'
p1598
g4
tp1599
a(S'instruments'
p1600
S'instrument'
p1601
S'NNS'
p1602
S'I-NP'
p1603
g4
tp1604
a(g300
g300
g300
g4
g4
tp1605
a(S'use'
p1606
S'use'
p1607
S'NN'
p1608
S'B-NP'
p1609
g4
tp1610
a(S'of'
p1611
S'of'
p1612
S'IN'
p1613
S'B-PP'
p1614
g4
tp1615
a(S'multiple'
p1616
S'multiple'
p1617
S'JJ'
p1618
S'B-NP'
p1619
g4
tp1620
a(S'raters'
p1621
S'rater'
p1622
S'NNS'
p1623
S'I-NP'
p1624
g4
tp1625
a(g300
g300
g300
g4
g4
tp1626
a(S'investigation'
p1627
S'investigation'
p1628
S'NN'
p1629
S'B-NP'
p1630
g4
tp1631
a(S'of'
p1632
S'of'
p1633
S'IN'
p1634
S'B-PP'
p1635
g4
tp1636
a(S'generalization'
p1637
S'generalization'
p1638
S'NN'
p1639
S'B-NP'
p1640
g4
tp1641
a(S'of'
p1642
S'of'
p1643
S'IN'
p1644
S'B-PP'
p1645
g4
tp1646
a(S'learned'
p1647
S'learn'
p1648
S'VBN'
p1649
S'B-NP'
p1650
g4
tp1651
a(S'skills'
p1652
S'skill'
p1653
S'NNS'
p1654
S'I-NP'
p1655
g4
tp1656
a(S'to'
p1657
S'to'
p1658
S'TO'
p1659
S'B-PP'
p1660
g4
tp1661
a(S'daily'
p1662
S'daily'
p1663
S'JJ'
p1664
S'B-NP'
p1665
g4
tp1666
a(S'life'
p1667
S'life'
p1668
S'NN'
p1669
S'I-NP'
p1670
g4
tp1671
a(g300
g300
g300
g4
g4
tp1672
a(S'and'
p1673
S'and'
p1674
S'CC'
p1675
g4
g4
tp1676
a(S'the'
p1677
S'the'
p1678
S'DT'
p1679
S'B-NP'
p1680
g4
tp1681
a(S'evaluation'
p1682
S'evaluation'
p1683
S'NN'
p1684
S'I-NP'
p1685
g4
tp1686
a(S'of'
p1687
S'of'
p1688
S'IN'
p1689
S'B-PP'
p1690
g4
tp1691
a(S'efficacy'
p1692
S'efficacy'
p1693
S'NN'
p1694
S'B-NP'
p1695
g4
tp1696
a(S'in'
p1697
S'in'
p1698
S'IN'
p1699
S'B-PP'
p1700
g4
tp1701
a(S'the'
p1702
S'the'
p1703
S'DT'
p1704
S'B-NP'
p1705
g4
tp1706
a(S'longer'
p1707
S'long'
p1708
S'JJR'
p1709
S'I-NP'
p1710
g4
tp1711
a(S'term'
p1712
S'term'
p1713
S'NN'
p1714
S'I-NP'
p1715
g4
tp1716
a(S'by'
p1717
S'by'
p1718
S'IN'
p1719
S'B-PP'
p1720
g4
tp1721
a(S'follow-up'
p1722
S'follow-up'
p1723
S'JJ'
p1724
S'B-NP'
p1725
g4
tp1726
a(S'measures'
p1727
S'measure'
p1728
S'NNS'
p1729
S'I-NP'
p1730
g4
tp1731
a(S'at'
p1732
S'at'
p1733
S'IN'
p1734
S'B-PP'
p1735
g4
tp1736
a(g1135
g1135
S'CD'
p1737
S'B-NP'
p1738
g4
tp1739
a(S'months'
p1740
S'month'
p1741
S'NNS'
p1742
S'I-NP'
p1743
g4
tp1744
a(S'after'
p1745
S'after'
p1746
S'IN'
p1747
S'B-PP'
p1748
g4
tp1749
a(S'the'
p1750
S'the'
p1751
S'DT'
p1752
S'B-NP'
p1753
g4
tp1754
a(S'end'
p1755
S'end'
p1756
S'NN'
p1757
S'I-NP'
p1758
g4
tp1759
a(S'of'
p1760
S'of'
p1761
S'IN'
p1762
S'B-PP'
p1763
g4
tp1764
a(S'training'
p1765
S'training'
p1766
S'NN'
p1767
S'B-NP'
p1768
g4
tp1769
a(g123
g123
g123
g4
g4
tp1770
a(S'TRIAL'
p1771
S'TRIAL'
p1772
S'NN'
p1773
S'B-NP'
p1774
g4
tp1775
a(S'REGISTRATION'
p1776
S'REGISTRATION'
p1777
S'NN'
p1778
S'I-NP'
p1779
g4
tp1780
a(S'NTR2405'
p1781
S'NTR2405'
p1782
S'NN'
p1783
S'I-NP'
p1784
g4
tp1785
a(g123
g123
g123
g4
g4
tp1786
a.