(lp0
(S'Single'
p1
S'Single'
p2
S'JJ'
p3
S'B-NP'
p4
S'O'
p5
tp6
a(S'negative'
p7
S'negative'
p8
S'JJ'
p9
S'I-NP'
p10
g5
tp11
a(S'colposcopy'
p12
S'colposcopy'
p13
S'NN'
p14
S'I-NP'
p15
g5
tp16
a(S':'
p17
g17
g17
g5
g5
tp18
a(S'is'
p19
S'be'
p20
S'VBZ'
p21
S'B-VP'
p22
g5
tp23
a(S'it'
p24
S'it'
p25
S'PRP'
p26
S'B-NP'
p27
g5
tp28
a(S'enough'
p29
S'enough'
p30
S'JJ'
p31
S'B-ADJP'
p32
g5
tp33
a(S'to'
p34
S'to'
p35
S'TO'
p36
S'B-VP'
p37
g5
tp38
a(S'rule'
p39
S'rule'
p40
S'VB'
p41
S'I-VP'
p42
g5
tp43
a(S'out'
p44
S'out'
p45
S'RP'
p46
S'B-PRT'
p47
g5
tp48
a(S'high-grade'
p49
S'high-grade'
p50
S'JJ'
p51
S'B-NP'
p52
g5
tp53
a(S'disease'
p54
S'disease'
p55
S'NN'
p56
S'I-NP'
p57
g5
tp58
a(S'?'
p59
g59
S'.'
p60
g5
g5
tp61
a(S'It'
p62
S'It'
p63
S'PRP'
p64
S'B-NP'
p65
g5
tp66
a(S'has'
p67
S'have'
p68
S'VBZ'
p69
S'B-VP'
p70
g5
tp71
a(S'been'
p72
S'be'
p73
S'VBN'
p74
S'I-VP'
p75
g5
tp76
a(S'proposed'
p77
S'propose'
p78
S'VBN'
p79
S'I-VP'
p80
g5
tp81
a(S'that'
p82
S'that'
p83
S'IN'
p84
S'B-SBAR'
p85
g5
tp86
a(S'women'
p87
S'woman'
p88
S'NNS'
p89
S'B-NP'
p90
g5
tp91
a(S'who'
p92
S'who'
p93
S'WP'
p94
S'B-NP'
p95
g5
tp96
a(S'have'
p97
S'have'
p98
S'VBP'
p99
S'B-VP'
p100
g5
tp101
a(S'a'
p102
g102
S'DT'
p103
S'B-NP'
p104
g5
tp105
a(S'negative'
p106
S'negative'
p107
S'JJ'
p108
S'I-NP'
p109
g5
tp110
a(S'colposcopic'
p111
S'colposcopic'
p112
S'JJ'
p113
S'I-NP'
p114
g5
tp115
a(S'examination'
p116
S'examination'
p117
S'NN'
p118
S'I-NP'
p119
g5
tp120
a(S'or'
p121
S'or'
p122
S'CC'
p123
g5
g5
tp124
a(S'who'
p125
S'who'
p126
S'WP'
p127
S'B-NP'
p128
g5
tp129
a(S'have'
p130
S'have'
p131
S'VBP'
p132
S'B-VP'
p133
g5
tp134
a(S'no'
p135
S'no'
p136
S'DT'
p137
S'B-NP'
p138
g5
tp139
a(S'cervical'
p140
S'cervical'
p141
S'JJ'
p142
S'I-NP'
p143
g5
tp144
a(S'intraepithelial'
p145
S'intraepithelial'
p146
S'JJ'
p147
S'I-NP'
p148
g5
tp149
a(S'neoplasia'
p150
S'neoplasia'
p151
S'NN'
p152
S'I-NP'
p153
g5
tp154
a(S'('
p155
g155
g155
g5
g5
tp156
a(S'CIN'
p157
S'CIN'
p158
S'NN'
p159
S'B-NP'
p160
S'B-protein'
p161
tp162
a(S')'
p163
g163
g163
g5
g5
tp164
a(S'on'
p165
S'on'
p166
S'IN'
p167
S'B-PP'
p168
g5
tp169
a(S'colposcopic'
p170
S'colposcopic'
p171
S'JJ'
p172
S'B-NP'
p173
g5
tp174
a(S'biopsy'
p175
S'biopsy'
p176
S'NN'
p177
S'I-NP'
p178
g5
tp179
a(S'can'
p180
S'can'
p181
S'MD'
p182
S'B-VP'
p183
g5
tp184
a(S'be'
p185
S'be'
p186
S'VB'
p187
S'I-VP'
p188
g5
tp189
a(S'safely'
p190
S'safely'
p191
S'RB'
p192
S'I-VP'
p193
g5
tp194
a(S'returned'
p195
S'return'
p196
S'VBN'
p197
S'I-VP'
p198
g5
tp199
a(S'to'
p200
S'to'
p201
S'TO'
p202
S'B-PP'
p203
g5
tp204
a(S'routine'
p205
S'routine'
p206
S'JJ'
p207
S'B-NP'
p208
g5
tp209
a(S'screening'
p210
S'screening'
p211
S'NN'
p212
S'I-NP'
p213
g5
tp214
a(S'with'
p215
S'with'
p216
S'IN'
p217
S'B-PP'
p218
g5
tp219
a(S'the'
p220
S'the'
p221
S'DT'
p222
S'B-NP'
p223
g5
tp224
a(S'next'
p225
S'next'
p226
S'JJ'
p227
S'I-NP'
p228
g5
tp229
a(S'visit'
p230
S'visit'
p231
S'NN'
p232
S'I-NP'
p233
g5
tp234
a(S'being'
p235
S'be'
p236
S'VBG'
p237
S'B-VP'
p238
g5
tp239
a(S'three'
p240
S'three'
p241
S'CD'
p242
S'B-NP'
p243
g5
tp244
a(S'or'
p245
S'or'
p246
S'CC'
p247
S'I-NP'
p248
g5
tp249
a(S'five'
p250
S'five'
p251
S'CD'
p252
S'I-NP'
p253
g5
tp254
a(S'years'
p255
S'year'
p256
S'NNS'
p257
S'I-NP'
p258
g5
tp259
a(S'later.'
p260
S'later.'
p261
S'RB'
p262
S'B-ADVP'
p263
g5
tp264
a(S'We'
p265
S'We'
p266
S'PRP'
p267
S'B-NP'
p268
g5
tp269
a(S'present'
p270
S'present'
p271
S'VBP'
p272
S'B-VP'
p273
g5
tp274
a(S'data'
p275
S'datum'
p276
S'NNS'
p277
S'B-NP'
p278
g5
tp279
a(S'regarding'
p280
S'regard'
p281
S'VBG'
p282
S'B-VP'
p283
g5
tp284
a(S'551'
p285
S'551'
p286
S'CD'
p287
S'B-NP'
p288
g5
tp289
a(S'women'
p290
S'woman'
p291
S'NNS'
p292
S'I-NP'
p293
g5
tp294
a(S'who'
p295
S'who'
p296
S'WP'
p297
S'B-NP'
p298
g5
tp299
a(S'had'
p300
S'have'
p301
S'VBD'
p302
S'B-VP'
p303
g5
tp304
a(S'colposcopy'
p305
S'colposcopy'
p306
S'NN'
p307
S'B-NP'
p308
g5
tp309
a(S'in'
p310
S'in'
p311
S'IN'
p312
S'B-PP'
p313
g5
tp314
a(S'Wales'
p315
S'Wales'
p316
S'NNP'
p317
S'B-NP'
p318
g5
tp319
a(S'for'
p320
S'for'
p321
S'IN'
p322
S'B-PP'
p323
g5
tp324
a(g102
g102
S'DT'
p325
S'B-NP'
p326
g5
tp327
a(S'low-grade'
p328
S'low-grade'
p329
S'JJ'
p330
S'I-NP'
p331
g5
tp332
a(S'cytological'
p333
S'cytological'
p334
S'JJ'
p335
S'I-NP'
p336
g5
tp337
a(S'abnormality'
p338
S'abnormality'
p339
S'NN'
p340
S'I-NP'
p341
g5
tp342
a(S'and'
p343
S'and'
p344
S'CC'
p345
g5
g5
tp346
a(S'who'
p347
S'who'
p348
S'WP'
p349
S'B-NP'
p350
g5
tp351
a(S'were'
p352
S'be'
p353
S'VBD'
p354
S'B-VP'
p355
g5
tp356
a(S'followed'
p357
S'follow'
p358
S'VBN'
p359
S'I-VP'
p360
g5
tp361
a(S'through'
p362
S'through'
p363
S'IN'
p364
S'B-PP'
p365
g5
tp366
a(S'Cervical'
p367
S'Cervical'
p368
S'JJ'
p369
S'B-NP'
p370
g5
tp371
a(S'Screening'
p372
S'Screening'
p373
S'NN'
p374
S'I-NP'
p375
g5
tp376
a(S'Wales'
p377
S'Wale'
p378
S'NNS'
p379
S'I-NP'
p380
g5
tp381
a(S'for'
p382
S'for'
p383
S'IN'
p384
S'B-PP'
p385
g5
tp386
a(S'subsequent'
p387
S'subsequent'
p388
S'JJ'
p389
S'B-NP'
p390
g5
tp391
a(S'CIN.'
p392
S'CIN.'
p393
S'NNP'
p394
S'I-NP'
p395
g5
tp396
a(S'Of'
p397
S'Of'
p398
S'IN'
p399
S'B-PP'
p400
g5
tp401
a(S'436'
p402
S'436'
p403
S'CD'
p404
S'B-NP'
p405
g5
tp406
a(S'women'
p407
S'woman'
p408
S'NNS'
p409
S'I-NP'
p410
g5
tp411
a(S'declared'
p412
S'declare'
p413
S'VBD'
p414
S'B-VP'
p415
g5
tp416
a(S'CIN'
p417
S'CIN'
p418
S'NN'
p419
S'B-NP'
p420
S'B-protein'
p421
tp422
a(S'free'
p423
S'free'
p424
S'JJ'
p425
S'B-ADJP'
p426
g5
tp427
a(S'initially'
p428
S'initially'
p429
S'RB'
p430
S'B-ADVP'
p431
g5
tp432
a(S','
p433
g433
g433
g5
g5
tp434
a(S'26'
p435
S'26'
p436
S'CD'
p437
S'B-NP'
p438
g5
tp439
a(g155
g155
g155
g5
g5
tp440
a(S'6.0'
p441
S'6.0'
p442
S'CD'
p443
S'B-NP'
p444
g5
tp445
a(S'%'
p446
g446
S'NN'
p447
S'I-NP'
p448
g5
tp449
a(g163
g163
g163
g5
g5
tp450
a(S'had'
p451
S'have'
p452
S'VBD'
p453
S'B-VP'
p454
g5
tp455
a(S'high-grade'
p456
S'high-grade'
p457
S'JJ'
p458
S'B-NP'
p459
g5
tp460
a(S'CIN'
p461
S'CIN'
p462
S'NN'
p463
S'I-NP'
p464
g5
tp465
a(S'diagnosed'
p466
S'diagnose'
p467
S'VBN'
p468
S'B-VP'
p469
g5
tp470
a(S'on'
p471
S'on'
p472
S'IN'
p473
S'B-PP'
p474
g5
tp475
a(S'follow-up.'
p476
S'follow-up.'
p477
S'JJ'
p478
S'B-NP'
p479
g5
tp480
a(S'We'
p481
S'We'
p482
S'PRP'
p483
S'B-NP'
p484
g5
tp485
a(S'suggest'
p486
S'suggest'
p487
S'VBP'
p488
S'B-VP'
p489
g5
tp490
a(S'that'
p491
S'that'
p492
S'IN'
p493
S'B-SBAR'
p494
g5
tp495
a(S'additional'
p496
S'additional'
p497
S'JJ'
p498
S'B-NP'
p499
g5
tp500
a(S'screening'
p501
S'screening'
p502
S'NN'
p503
S'I-NP'
p504
g5
tp505
a(S'at'
p506
S'at'
p507
S'IN'
p508
S'B-PP'
p509
g5
tp510
a(S'an'
p511
S'an'
p512
S'DT'
p513
S'B-NP'
p514
g5
tp515
a(S'interval'
p516
S'interval'
p517
S'NN'
p518
S'I-NP'
p519
g5
tp520
a(S'of'
p521
S'of'
p522
S'IN'
p523
S'B-PP'
p524
g5
tp525
a(S'less'
p526
S'less'
p527
S'JJR'
p528
S'B-NP'
p529
g5
tp530
a(S'than'
p531
S'than'
p532
S'IN'
p533
S'I-NP'
p534
g5
tp535
a(S'three'
p536
S'three'
p537
S'CD'
p538
S'I-NP'
p539
g5
tp540
a(S'years'
p541
S'year'
p542
S'NNS'
p543
S'I-NP'
p544
g5
tp545
a(S'should'
p546
S'should'
p547
S'MD'
p548
S'B-VP'
p549
g5
tp550
a(S'be'
p551
S'be'
p552
S'VB'
p553
S'I-VP'
p554
g5
tp555
a(S'offered'
p556
S'offer'
p557
S'VBN'
p558
S'I-VP'
p559
g5
tp560
a(S'to'
p561
S'to'
p562
S'TO'
p563
S'B-PP'
p564
g5
tp565
a(S'women'
p566
S'woman'
p567
S'NNS'
p568
S'B-NP'
p569
g5
tp570
a(S'with'
p571
S'with'
p572
S'IN'
p573
S'B-PP'
p574
g5
tp575
a(g102
g102
S'DT'
p576
S'B-NP'
p577
g5
tp578
a(S'negative'
p579
S'negative'
p580
S'JJ'
p581
S'I-NP'
p582
g5
tp583
a(S'colposcopy'
p584
S'colposcopy'
p585
S'NN'
p586
S'I-NP'
p587
g5
tp588
a(S'or'
p589
S'or'
p590
S'CC'
p591
g5
g5
tp592
a(g102
g102
S'DT'
p593
S'B-NP'
p594
g5
tp595
a(S'biopsy'
p596
S'biopsy'
p597
S'NN'
p598
S'I-NP'
p599
g5
tp600
a(S'without'
p601
S'without'
p602
S'IN'
p603
S'B-PP'
p604
g5
tp605
a(S'CIN'
p606
S'CIN'
p607
S'NN'
p608
S'B-NP'
p609
S'B-protein'
p610
tp611
a(g60
g60
g60
g5
g5
tp612
a.