(lp0
(S'Long-term'
p1
S'Long-term'
p2
S'JJ'
p3
S'B-NP'
p4
S'O'
p5
tp6
a(S'growth'
p7
S'growth'
p8
S'NN'
p9
S'I-NP'
p10
g5
tp11
a(S'hormone'
p12
S'hormone'
p13
S'NN'
p14
S'I-NP'
p15
g5
tp16
a(S'treatment'
p17
S'treatment'
p18
S'NN'
p19
S'I-NP'
p20
g5
tp21
a(S'in'
p22
S'in'
p23
S'IN'
p24
S'B-PP'
p25
g5
tp26
a(S'growth'
p27
S'growth'
p28
S'NN'
p29
S'B-NP'
p30
g5
tp31
a(S'hormone'
p32
S'hormone'
p33
S'NN'
p34
S'I-NP'
p35
g5
tp36
a(S'deficient'
p37
S'deficient'
p38
S'JJ'
p39
S'I-NP'
p40
g5
tp41
a(S'adults'
p42
S'adult'
p43
S'NNS'
p44
S'I-NP'
p45
g5
tp46
a(S'.'
p47
g47
g47
g5
g5
tp48
a(S'Growth'
p49
S'Growth'
p50
S'NN'
p51
S'B-NP'
p52
g5
tp53
a(S'hormone'
p54
S'hormone'
p55
S'NN'
p56
S'I-NP'
p57
g5
tp58
a(S'treatment'
p59
S'treatment'
p60
S'NN'
p61
S'I-NP'
p62
g5
tp63
a(S'in'
p64
S'in'
p65
S'IN'
p66
S'B-PP'
p67
g5
tp68
a(S'GH-deficient'
p69
S'GH-deficient'
p70
S'JJ'
p71
S'B-NP'
p72
g5
tp73
a(S'adults'
p74
S'adult'
p75
S'NNS'
p76
S'I-NP'
p77
g5
tp78
a(S'has'
p79
S'have'
p80
S'VBZ'
p81
S'B-VP'
p82
g5
tp83
a(S'proved'
p84
S'prove'
p85
S'VBN'
p86
S'I-VP'
p87
g5
tp88
a(S'beneficial'
p89
S'beneficial'
p90
S'JJ'
p91
S'B-ADJP'
p92
g5
tp93
a(S'in'
p94
S'in'
p95
S'IN'
p96
S'B-PP'
p97
g5
tp98
a(S'recent'
p99
S'recent'
p100
S'JJ'
p101
S'B-NP'
p102
g5
tp103
a(S'short-term'
p104
S'short-term'
p105
S'JJ'
p106
S'I-NP'
p107
g5
tp108
a(S'trials'
p109
S'trial'
p110
S'NNS'
p111
S'I-NP'
p112
g5
tp113
a(S','
p114
g114
g114
g5
g5
tp115
a(S'but'
p116
S'but'
p117
S'CC'
p118
g5
g5
tp119
a(S'long-term'
p120
S'long-term'
p121
S'JJ'
p122
S'B-NP'
p123
g5
tp124
a(S'results'
p125
S'result'
p126
S'NNS'
p127
S'I-NP'
p128
g5
tp129
a(S'have'
p130
S'have'
p131
S'VBP'
p132
S'B-VP'
p133
g5
tp134
a(S'not'
p135
S'not'
p136
S'RB'
p137
S'I-VP'
p138
g5
tp139
a(S'yet'
p140
S'yet'
p141
S'RB'
p142
S'I-VP'
p143
g5
tp144
a(S'been'
p145
S'be'
p146
S'VBN'
p147
S'I-VP'
p148
g5
tp149
a(S'reported.'
p150
S'reported.'
p151
S'VBN'
p152
S'I-VP'
p153
g5
tp154
a(S'Thirteen'
p155
S'Thirteen'
p156
S'CD'
p157
S'B-NP'
p158
g5
tp159
a(S'GH-deficient'
p160
S'GH-deficient'
p161
S'JJ'
p162
S'I-NP'
p163
g5
tp164
a(S'adults'
p165
S'adult'
p166
S'NNS'
p167
S'I-NP'
p168
g5
tp169
a(S'('
p170
g170
g170
g5
g5
tp171
a(S'4'
p172
g172
S'CD'
p173
S'B-NP'
p174
g5
tp175
a(S'females'
p176
S'female'
p177
S'NNS'
p178
S'I-NP'
p179
g5
tp180
a(g114
g114
g114
g5
g5
tp181
a(S'9'
p182
g182
S'CD'
p183
S'B-NP'
p184
g5
tp185
a(S'males'
p186
S'male'
p187
S'NNS'
p188
S'I-NP'
p189
g5
tp190
a(S';'
p191
g191
S':'
p192
g5
g5
tp193
a(S'mean'
p194
S'mean'
p195
S'JJ'
p196
g5
g5
tp197
a(g170
g170
g170
g5
g5
tp198
a(S'SEM'
p199
S'SEM'
p200
S'NN'
p201
S'B-NP'
p202
g5
tp203
a(S')'
p204
g204
g204
g5
g5
tp205
a(S'age'
p206
S'age'
p207
S'NN'
p208
S'B-NP'
p209
g5
tp210
a(S'26.4'
p211
S'26.4'
p212
S'CD'
p213
S'I-NP'
p214
g5
tp215
a(g170
g170
g170
g5
g5
tp216
a(S'1.7'
p217
S'1.7'
p218
S'CD'
p219
S'B-NP'
p220
g5
tp221
a(g204
g204
g204
g5
g5
tp222
a(S'years'
p223
S'year'
p224
S'NNS'
p225
S'B-NP'
p226
g5
tp227
a(g204
g204
g204
g5
g5
tp228
a(g114
g114
g114
g5
g5
tp229
a(S'who'
p230
S'who'
p231
S'WP'
p232
S'B-NP'
p233
g5
tp234
a(S'had'
p235
S'have'
p236
S'VBD'
p237
S'B-VP'
p238
g5
tp239
a(S'completed'
p240
S'complete'
p241
S'VBN'
p242
S'I-VP'
p243
g5
tp244
a(g172
g172
S'CD'
p245
S'B-NP'
p246
g5
tp247
a(S'months'
p248
S'month'
p249
S'NNS'
p250
S'I-NP'
p251
g5
tp252
a(S'of'
p253
S'of'
p254
S'IN'
p255
S'B-PP'
p256
g5
tp257
a(S'GH'
p258
S'GH'
p259
S'NN'
p260
S'B-NP'
p261
g5
tp262
a(S'therapy'
p263
S'therapy'
p264
S'NN'
p265
S'I-NP'
p266
g5
tp267
a(S'in'
p268
S'in'
p269
S'IN'
p270
S'B-PP'
p271
g5
tp272
a(S'a'
p273
g273
S'DT'
p274
S'B-NP'
p275
g5
tp276
a(S'double-blind'
p277
S'double-blind'
p278
S'JJ'
p279
S'I-NP'
p280
g5
tp281
a(S'placebo-controlled'
p282
S'placebo-controlled'
p283
S'JJ'
p284
S'I-NP'
p285
g5
tp286
a(S'cross-over'
p287
S'cross-over'
p288
S'JJ'
p289
S'I-NP'
p290
g5
tp291
a(S'study'
p292
S'study'
p293
S'NN'
p294
S'I-NP'
p295
g5
tp296
a(S'were'
p297
S'be'
p298
S'VBD'
p299
S'B-VP'
p300
g5
tp301
a(S'followed'
p302
S'follow'
p303
S'VBN'
p304
S'I-VP'
p305
g5
tp306
a(g114
g114
g114
g5
g5
tp307
a(S'for'
p308
S'for'
p309
S'IN'
p310
S'B-PP'
p311
g5
tp312
a(S'further'
p313
S'further'
p314
S'JJ'
p315
S'B-NP'
p316
g5
tp317
a(S'16.1'
p318
S'16.1'
p319
S'CD'
p320
S'I-NP'
p321
g5
tp322
a(g170
g170
g170
g5
g5
tp323
a(S'0.8'
p324
S'0.8'
p325
S'CD'
p326
S'B-NP'
p327
g5
tp328
a(g204
g204
g204
g5
g5
tp329
a(S'months'
p330
S'month'
p331
S'NNS'
p332
S'B-NP'
p333
g5
tp334
a(S'of'
p335
S'of'
p336
S'IN'
p337
S'B-PP'
p338
g5
tp339
a(S'uninterrupted'
p340
S'uninterrupted'
p341
S'JJ'
p342
S'B-NP'
p343
g5
tp344
a(S'GH'
p345
S'GH'
p346
S'NN'
p347
S'I-NP'
p348
g5
tp349
a(S'therapy'
p350
S'therapy'
p351
S'NN'
p352
S'I-NP'
p353
g5
tp354
a(S'in'
p355
S'in'
p356
S'IN'
p357
S'B-PP'
p358
g5
tp359
a(S'an'
p360
S'an'
p361
S'DT'
p362
S'B-NP'
p363
g5
tp364
a(S'open'
p365
S'open'
p366
S'JJ'
p367
S'I-NP'
p368
g5
tp369
a(S'design.'
p370
S'design.'
p371
S'NN'
p372
S'I-NP'
p373
g5
tp374
a(S'A'
p375
g375
S'NN'
p376
S'I-NP'
p377
g5
tp378
a(S'significant'
p379
S'significant'
p380
S'JJ'
p381
S'I-NP'
p382
g5
tp383
a(S'mean'
p384
S'mean'
p385
S'JJ'
p386
S'I-NP'
p387
g5
tp388
a(S'increase'
p389
S'increase'
p390
S'NN'
p391
S'I-NP'
p392
g5
tp393
a(S'of'
p394
S'of'
p395
S'IN'
p396
S'B-PP'
p397
g5
tp398
a(S'1.3'
p399
S'1.3'
p400
S'CD'
p401
S'B-NP'
p402
g5
tp403
a(S'cm'
p404
S'cm'
p405
S'NN'
p406
S'I-NP'
p407
g5
tp408
a(S'in'
p409
S'in'
p410
S'IN'
p411
S'B-PP'
p412
g5
tp413
a(S'linear'
p414
S'linear'
p415
S'JJ'
p416
S'B-NP'
p417
g5
tp418
a(S'height'
p419
S'height'
p420
S'NN'
p421
S'I-NP'
p422
g5
tp423
a(S'was'
p424
S'be'
p425
S'VBD'
p426
S'B-VP'
p427
g5
tp428
a(S'recorded'
p429
S'record'
p430
S'VBN'
p431
S'I-VP'
p432
g5
tp433
a(g114
g114
g114
g5
g5
tp434
a(S'whereas'
p435
S'whereas'
p436
S'IN'
p437
g5
g5
tp438
a(S'body'
p439
S'body'
p440
S'NN'
p441
S'B-NP'
p442
g5
tp443
a(S'mass'
p444
S'mass'
p445
S'NN'
p446
S'I-NP'
p447
g5
tp448
a(S'index'
p449
S'index'
p450
S'NN'
p451
S'I-NP'
p452
g5
tp453
a(S'remained'
p454
S'remain'
p455
S'VBD'
p456
S'B-VP'
p457
g5
tp458
a(S'unchanged.'
p459
S'unchanged.'
p460
S'JJ'
p461
S'B-NP'
p462
g5
tp463
a(S'Mean'
p464
S'Mean'
p465
S'NN'
p466
S'I-NP'
p467
g5
tp468
a(S'muscle'
p469
S'muscle'
p470
S'NN'
p471
S'I-NP'
p472
g5
tp473
a(S'volume'
p474
S'volume'
p475
S'NN'
p476
S'I-NP'
p477
g5
tp478
a(S'of'
p479
S'of'
p480
S'IN'
p481
S'B-PP'
p482
g5
tp483
a(S'the'
p484
S'the'
p485
S'DT'
p486
S'B-NP'
p487
g5
tp488
a(S'thigh'
p489
S'thigh'
p490
S'NN'
p491
S'I-NP'
p492
g5
tp493
a(g114
g114
g114
g5
g5
tp494
a(S'estimated'
p495
S'estimate'
p496
S'VBN'
p497
S'B-VP'
p498
g5
tp499
a(S'by'
p500
S'by'
p501
S'IN'
p502
S'B-PP'
p503
g5
tp504
a(S'computerised'
p505
S'computerise'
p506
S'VBN'
p507
S'B-NP'
p508
g5
tp509
a(S'tomography'
p510
S'tomography'
p511
S'NN'
p512
S'I-NP'
p513
g5
tp514
a(g114
g114
g114
g5
g5
tp515
a(S'increased'
p516
S'increase'
p517
S'VBD'
p518
S'B-VP'
p519
g5
tp520
a(S'significantly'
p521
S'significantly'
p522
S'RB'
p523
S'B-ADVP'
p524
g5
tp525
a(S'compared'
p526
S'compare'
p527
S'VBN'
p528
S'B-PP'
p529
g5
tp530
a(S'with'
p531
S'with'
p532
S'IN'
p533
S'B-PP'
p534
g5
tp535
a(S'that'
p536
S'that'
p537
S'DT'
p538
S'B-NP'
p539
g5
tp540
a(S'of'
p541
S'of'
p542
S'IN'
p543
S'B-PP'
p544
g5
tp545
a(S'the'
p546
S'the'
p547
S'DT'
p548
S'B-NP'
p549
g5
tp550
a(S'initial'
p551
S'initial'
p552
S'JJ'
p553
S'I-NP'
p554
g5
tp555
a(S'placebo'
p556
S'placebo'
p557
S'NN'
p558
S'I-NP'
p559
g5
tp560
a(S'period'
p561
S'period'
p562
S'NN'
p563
S'I-NP'
p564
g5
tp565
a(g170
g170
g170
g5
g5
tp566
a(S'p'
p567
g567
S'NN'
p568
S'B-NP'
p569
g5
tp570
a(S'='
p571
g571
S'SYM'
p572
S'B-VP'
p573
g5
tp574
a(S'0.01'
p575
S'0.01'
p576
S'CD'
p577
S'B-NP'
p578
g5
tp579
a(g204
g204
g204
g5
g5
tp580
a(g114
g114
g114
g5
g5
tp581
a(S'and'
p582
S'and'
p583
S'CC'
p584
g5
g5
tp585
a(g273
g273
S'DT'
p586
S'B-NP'
p587
g5
tp588
a(S'slight'
p589
S'slight'
p590
S'JJ'
p591
S'I-NP'
p592
g5
tp593
a(S'decrease'
p594
S'decrease'
p595
S'NN'
p596
S'I-NP'
p597
g5
tp598
a(S'was'
p599
S'be'
p600
S'VBD'
p601
S'B-VP'
p602
g5
tp603
a(S'recorded'
p604
S'record'
p605
S'VBN'
p606
S'I-VP'
p607
g5
tp608
a(S'in'
p609
S'in'
p610
S'IN'
p611
S'B-PP'
p612
g5
tp613
a(S'adipose'
p614
S'adipose'
p615
S'NN'
p616
S'B-NP'
p617
g5
tp618
a(S'tissue'
p619
S'tissue'
p620
S'NN'
p621
S'I-NP'
p622
g5
tp623
a(S'volume'
p624
S'volume'
p625
S'NN'
p626
S'I-NP'
p627
g5
tp628
a(S'of'
p629
S'of'
p630
S'IN'
p631
S'B-PP'
p632
g5
tp633
a(S'the'
p634
S'the'
p635
S'DT'
p636
S'B-NP'
p637
g5
tp638
a(S'thigh'
p639
S'thigh'
p640
S'NN'
p641
S'I-NP'
p642
g5
tp643
a(g170
g170
g170
g5
g5
tp644
a(g567
g567
S'NN'
p645
S'B-NP'
p646
g5
tp647
a(g571
g571
S'SYM'
p648
S'B-VP'
p649
g5
tp650
a(S'0.10'
p651
S'0.10'
p652
S'CD'
p653
S'B-NP'
p654
g5
tp655
a(g204
g204
g204
g5
g5
tp656
a(S'and'
p657
S'and'
p658
S'CC'
p659
g5
g5
tp660
a(S'subscapular'
p661
S'subscapular'
p662
S'JJ'
p663
S'B-NP'
p664
g5
tp665
a(S'skinfold'
p666
S'skinfold'
p667
S'NN'
p668
S'I-NP'
p669
g5
tp670
a(S'thickness'
p671
S'thickness'
p672
S'NN'
p673
S'I-NP'
p674
g5
tp675
a(g170
g170
g170
g5
g5
tp676
a(g567
g567
S'NN'
p677
S'B-NP'
p678
g5
tp679
a(g571
g571
S'SYM'
p680
S'B-VP'
p681
g5
tp682
a(S'0.10'
p683
S'0.10'
p684
S'CD'
p685
S'B-NP'
p686
g5
tp687
a(g204
g204
g204
g5
g5
tp688
a(g47
g47
g47
g5
g5
tp689
a(S'Still'
p690
S'Still'
p691
S'RB'
p692
S'B-ADVP'
p693
g5
tp694
a(g114
g114
g114
g5
g5
tp695
a(S'the'
p696
S'the'
p697
S'DT'
p698
S'B-NP'
p699
g5
tp700
a(S'muscle'
p701
S'muscle'
p702
S'NN'
p703
S'I-NP'
p704
g5
tp705
a(S'to'
p706
S'to'
p707
S'TO'
p708
S'B-VP'
p709
g5
tp710
a(S'fat'
p711
S'fat'
p712
S'VB'
p713
S'I-VP'
p714
g5
tp715
a(S'ratio'
p716
S'ratio'
p717
S'NN'
p718
S'B-NP'
p719
g5
tp720
a(S'of'
p721
S'of'
p722
S'IN'
p723
S'B-PP'
p724
g5
tp725
a(S'the'
p726
S'the'
p727
S'DT'
p728
S'B-NP'
p729
g5
tp730
a(S'thigh'
p731
S'thigh'
p732
S'NN'
p733
S'I-NP'
p734
g5
tp735
a(S'was'
p736
S'be'
p737
S'VBD'
p738
S'B-VP'
p739
g5
tp740
a(S'significantly'
p741
S'significantly'
p742
S'RB'
p743
S'B-ADJP'
p744
g5
tp745
a(S'lower'
p746
S'low'
p747
S'JJR'
p748
S'I-ADJP'
p749
g5
tp750
a(S'compared'
p751
S'compare'
p752
S'VBN'
p753
S'B-PP'
p754
g5
tp755
a(S'with'
p756
S'with'
p757
S'IN'
p758
S'B-PP'
p759
g5
tp760
a(S'that'
p761
S'that'
p762
S'DT'
p763
S'B-NP'
p764
g5
tp765
a(S'of'
p766
S'of'
p767
S'IN'
p768
S'B-PP'
p769
g5
tp770
a(S'normal'
p771
S'normal'
p772
S'JJ'
p773
S'B-NP'
p774
g5
tp775
a(S'subjects'
p776
S'subject'
p777
S'NNS'
p778
S'I-NP'
p779
g5
tp780
a(g170
g170
g170
g5
g5
tp781
a(S'72.6/27.4'
p782
S'72.6/27.4'
p783
S'CD'
p784
S'B-NP'
p785
g5
tp786
a(S'vs'
p787
S'vs'
p788
S'CC'
p789
S'I-NP'
p790
g5
tp791
a(S'77.9/22.1'
p792
S'77.9/22.1'
p793
S'CD'
p794
S'I-NP'
p795
g5
tp796
a(g204
g204
g204
g5
g5
tp797
a(g170
g170
g170
g5
g5
tp798
a(g567
g567
S'NN'
p799
S'B-NP'
p800
g5
tp801
a(S'less'
p802
S'less'
p803
S'JJR'
p804
S'B-ADJP'
p805
g5
tp806
a(S'than'
p807
S'than'
p808
S'IN'
p809
S'B-PP'
p810
g5
tp811
a(S'0.01'
p812
S'0.01'
p813
S'CD'
p814
S'B-NP'
p815
g5
tp816
a(g204
g204
g204
g5
g5
tp817
a(g47
g47
g47
g5
g5
tp818
a(S'The'
p819
S'The'
p820
S'DT'
p821
S'B-NP'
p822
g5
tp823
a(S'mean'
p824
S'mean'
p825
S'JJ'
p826
S'I-NP'
p827
g5
tp828
a(S'isometric'
p829
S'isometric'
p830
S'JJ'
p831
S'I-NP'
p832
g5
tp833
a(S'strength'
p834
S'strength'
p835
S'NN'
p836
S'I-NP'
p837
g5
tp838
a(S'of'
p839
S'of'
p840
S'IN'
p841
S'B-PP'
p842
g5
tp843
a(S'the'
p844
S'the'
p845
S'DT'
p846
S'B-NP'
p847
g5
tp848
a(S'quadriceps'
p849
S'quadricep'
p850
S'NNS'
p851
S'I-NP'
p852
g5
tp853
a(S'muscles'
p854
S'muscle'
p855
S'NNS'
p856
S'I-NP'
p857
g5
tp858
a(S'increased'
p859
S'increase'
p860
S'VBD'
p861
S'B-VP'
p862
g5
tp863
a(S'significantly'
p864
S'significantly'
p865
S'RB'
p866
S'B-ADVP'
p867
g5
tp868
a(S'during'
p869
S'during'
p870
S'IN'
p871
S'B-PP'
p872
g5
tp873
a(S'long-term'
p874
S'long-term'
p875
S'JJ'
p876
S'B-NP'
p877
g5
tp878
a(S'GH'
p879
S'GH'
p880
S'NN'
p881
S'I-NP'
p882
g5
tp883
a(S'therapy'
p884
S'therapy'
p885
S'NN'
p886
S'I-NP'
p887
g5
tp888
a(g170
g170
g170
g5
g5
tp889
a(g567
g567
S'NN'
p890
S'B-NP'
p891
g5
tp892
a(S'less'
p893
S'less'
p894
S'JJR'
p895
S'B-ADJP'
p896
g5
tp897
a(S'than'
p898
S'than'
p899
S'IN'
p900
S'B-PP'
p901
g5
tp902
a(S'0.01'
p903
S'0.01'
p904
S'CD'
p905
S'B-NP'
p906
g5
tp907
a(g204
g204
g204
g5
g5
tp908
a(g114
g114
g114
g5
g5
tp909
a(S'but'
p910
S'but'
p911
S'CC'
p912
g5
g5
tp913
a(S'remained'
p914
S'remain'
p915
S'VBD'
p916
S'B-VP'
p917
g5
tp918
a(S'lower'
p919
S'low'
p920
S'JJR'
p921
S'B-ADJP'
p922
g5
tp923
a(S'compared'
p924
S'compare'
p925
S'VBN'
p926
S'B-PP'
p927
g5
tp928
a(S'with'
p929
S'with'
p930
S'IN'
p931
S'B-PP'
p932
g5
tp933
a(S'that'
p934
S'that'
p935
S'DT'
p936
S'B-NP'
p937
g5
tp938
a(S'of'
p939
S'of'
p940
S'IN'
p941
S'B-PP'
p942
g5
tp943
a(S'normal'
p944
S'normal'
p945
S'JJ'
p946
S'B-NP'
p947
g5
tp948
a(S'subjects'
p949
S'subject'
p950
S'NNS'
p951
S'I-NP'
p952
g5
tp953
a(g170
g170
g170
g5
g5
tp954
a(S'1.66'
p955
S'1.66'
p956
S'CD'
p957
S'B-NP'
p958
g5
tp959
a(g170
g170
g170
g5
g5
tp960
a(S'0.10'
p961
S'0.10'
p962
S'CD'
p963
S'B-NP'
p964
g5
tp965
a(g204
g204
g204
g5
g5
tp966
a(S'vs'
p967
S'vs'
p968
S'IN'
p969
S'B-PP'
p970
g5
tp971
a(S'2.13'
p972
S'2.13'
p973
S'CD'
p974
S'B-NP'
p975
g5
tp976
a(g170
g170
g170
g5
g5
tp977
a(S'0.11'
p978
S'0.11'
p979
S'CD'
p980
S'B-NP'
p981
g5
tp982
a(g204
g204
g204
g5
g5
tp983
a(S'Nm/kg'
p984
S'Nm/kg'
p985
S'NN'
p986
S'B-NP'
p987
g5
tp988
a(S'body'
p989
S'body'
p990
S'NN'
p991
S'I-NP'
p992
g5
tp993
a(S'weight'
p994
S'weight'
p995
S'NN'
p996
S'I-NP'
p997
g5
tp998
a(g204
g204
g204
g5
g5
tp999
a(g47
g47
g47
g5
g5
tp1000
a(S'Exercise'
p1001
S'Exercise'
p1002
S'NN'
p1003
S'B-NP'
p1004
g5
tp1005
a(S'capacity'
p1006
S'capacity'
p1007
S'NN'
p1008
S'I-NP'
p1009
g5
tp1010
a(S'performed'
p1011
S'perform'
p1012
S'VBN'
p1013
S'B-VP'
p1014
g5
tp1015
a(S'on'
p1016
S'on'
p1017
S'IN'
p1018
S'B-PP'
p1019
g5
tp1020
a(g273
g273
S'DT'
p1021
S'B-NP'
p1022
g5
tp1023
a(S'bicycle'
p1024
S'bicycle'
p1025
S'NN'
p1026
S'I-NP'
p1027
g5
tp1028
a(S'ergometer'
p1029
S'ergometer'
p1030
S'NN'
p1031
S'I-NP'
p1032
g5
tp1033
a(S'increased'
p1034
S'increase'
p1035
S'VBD'
p1036
S'B-VP'
p1037
g5
tp1038
a(S'significantly'
p1039
S'significantly'
p1040
S'RB'
p1041
S'B-ADVP'
p1042
g5
tp1043
a(S'after'
p1044
S'after'
p1045
S'IN'
p1046
S'B-PP'
p1047
g5
tp1048
a(S'long-term'
p1049
S'long-term'
p1050
S'JJ'
p1051
S'B-NP'
p1052
g5
tp1053
a(S'therapy'
p1054
S'therapy'
p1055
S'NN'
p1056
S'I-NP'
p1057
g5
tp1058
a(g170
g170
g170
g5
g5
tp1059
a(g567
g567
S'NN'
p1060
S'B-NP'
p1061
g5
tp1062
a(S'less'
p1063
S'less'
p1064
S'JJR'
p1065
S'B-ADJP'
p1066
g5
tp1067
a(S'than'
p1068
S'than'
p1069
S'IN'
p1070
S'B-PP'
p1071
g5
tp1072
a(S'0.05'
p1073
S'0.05'
p1074
S'CD'
p1075
S'B-NP'
p1076
g5
tp1077
a(g204
g204
g204
g5
g5
tp1078
a(g114
g114
g114
g5
g5
tp1079
a(S'but'
p1080
S'but'
p1081
S'CC'
p1082
g5
g5
tp1083
a(S'still'
p1084
S'still'
p1085
S'RB'
p1086
S'B-VP'
p1087
g5
tp1088
a(S'did'
p1089
S'do'
p1090
S'VBD'
p1091
S'I-VP'
p1092
g5
tp1093
a(S'not'
p1094
S'not'
p1095
S'RB'
p1096
S'I-VP'
p1097
g5
tp1098
a(S'reach'
p1099
S'reach'
p1100
S'VB'
p1101
S'I-VP'
p1102
g5
tp1103
a(S'the'
p1104
S'the'
p1105
S'DT'
p1106
S'B-NP'
p1107
g5
tp1108
a(S'values'
p1109
S'value'
p1110
S'NNS'
p1111
S'I-NP'
p1112
g5
tp1113
a(S'seen'
p1114
S'see'
p1115
S'VBN'
p1116
S'B-VP'
p1117
g5
tp1118
a(S'in'
p1119
S'in'
p1120
S'IN'
p1121
S'B-PP'
p1122
g5
tp1123
a(S'normal'
p1124
S'normal'
p1125
S'JJ'
p1126
S'B-NP'
p1127
g5
tp1128
a(S'subjects'
p1129
S'subject'
p1130
S'NNS'
p1131
S'I-NP'
p1132
g5
tp1133
a(g170
g170
g170
g5
g5
tp1134
a(S'22.5'
p1135
S'22.5'
p1136
S'CD'
p1137
S'B-NP'
p1138
g5
tp1139
a(g170
g170
g170
g5
g5
tp1140
a(S'3.4'
p1141
S'3.4'
p1142
S'CD'
p1143
S'B-NP'
p1144
g5
tp1145
a(g204
g204
g204
g5
g5
tp1146
a(S'vs'
p1147
S'vs'
p1148
S'IN'
p1149
S'B-PP'
p1150
g5
tp1151
a(S'37.4'
p1152
S'37.4'
p1153
S'CD'
p1154
S'B-NP'
p1155
g5
tp1156
a(g170
g170
g170
g5
g5
tp1157
a(S'4.2'
p1158
S'4.2'
p1159
S'CD'
p1160
S'B-NP'
p1161
g5
tp1162
a(g204
g204
g204
g5
g5
tp1163
a(S'watt.min.kg-1.'
p1164
S'watt.min.kg-1.'
p1165
S'NN'
p1166
S'B-NP'
p1167
g5
tp1168
a(S'No'
p1169
S'No'
p1170
S'DT'
p1171
S'B-NP'
p1172
g5
tp1173
a(S'adverse'
p1174
S'adverse'
p1175
S'JJ'
p1176
S'I-NP'
p1177
g5
tp1178
a(S'reactions'
p1179
S'reaction'
p1180
S'NNS'
p1181
S'I-NP'
p1182
g5
tp1183
a(S'were'
p1184
S'be'
p1185
S'VBD'
p1186
S'B-VP'
p1187
g5
tp1188
a(S'recorded'
p1189
S'record'
p1190
S'VBN'
p1191
S'I-VP'
p1192
g5
tp1193
a(S'during'
p1194
S'during'
p1195
S'IN'
p1196
S'B-PP'
p1197
g5
tp1198
a(S'long-term'
p1199
S'long-term'
p1200
S'JJ'
p1201
S'B-NP'
p1202
g5
tp1203
a(S'therapy'
p1204
S'therapy'
p1205
S'NN'
p1206
S'I-NP'
p1207
g5
tp1208
a(S'and'
p1209
S'and'
p1210
S'CC'
p1211
S'I-NP'
p1212
g5
tp1213
a(S'hemoglobin'
p1214
S'hemoglobin'
p1215
S'NN'
p1216
S'I-NP'
p1217
S'B-protein'
p1218
tp1219
a(S'A1c'
p1220
S'A1c'
p1221
S'NN'
p1222
S'I-NP'
p1223
g5
tp1224
a(S'remained'
p1225
S'remain'
p1226
S'VBD'
p1227
S'B-VP'
p1228
g5
tp1229
a(S'unchanged.'
p1230
S'unchanged.'
p1231
S'JJ'
p1232
S'B-ADJP'
p1233
g5
tp1234
a(S'These'
p1235
S'These'
p1236
S'DT'
p1237
S'B-NP'
p1238
g5
tp1239
a(S'data'
p1240
S'datum'
p1241
S'NNS'
p1242
S'I-NP'
p1243
g5
tp1244
a(S'suggest'
p1245
S'suggest'
p1246
S'VBP'
p1247
S'B-VP'
p1248
g5
tp1249
a(S'that'
p1250
S'that'
p1251
S'IN'
p1252
S'B-SBAR'
p1253
g5
tp1254
a(S'long-term'
p1255
S'long-term'
p1256
S'JJ'
p1257
S'B-NP'
p1258
g5
tp1259
a(S'GH'
p1260
S'GH'
p1261
S'NN'
p1262
S'I-NP'
p1263
g5
tp1264
a(S'replacement'
p1265
S'replacement'
p1266
S'NN'
p1267
S'I-NP'
p1268
g5
tp1269
a(S'therapy'
p1270
S'therapy'
p1271
S'NN'
p1272
S'I-NP'
p1273
g5
tp1274
a(S'in'
p1275
S'in'
p1276
S'IN'
p1277
S'B-PP'
p1278
g5
tp1279
a(S'GH-deficient'
p1280
S'GH-deficient'
p1281
S'JJ'
p1282
S'B-NP'
p1283
g5
tp1284
a(S'adults'
p1285
S'adult'
p1286
S'NNS'
p1287
S'I-NP'
p1288
g5
tp1289
a(S'has'
p1290
S'have'
p1291
S'VBZ'
p1292
S'B-VP'
p1293
g5
tp1294
a(S'beneficial'
p1295
S'beneficial'
p1296
S'JJ'
p1297
S'B-NP'
p1298
g5
tp1299
a(S'effects'
p1300
S'effect'
p1301
S'NNS'
p1302
S'I-NP'
p1303
g5
tp1304
a(S'on'
p1305
S'on'
p1306
S'IN'
p1307
S'B-PP'
p1308
g5
tp1309
a(S'several'
p1310
S'several'
p1311
S'JJ'
p1312
S'B-NP'
p1313
g5
tp1314
a(S'physiological'
p1315
S'physiological'
p1316
S'JJ'
p1317
S'I-NP'
p1318
g5
tp1319
a(S'features'
p1320
S'feature'
p1321
S'NNS'
p1322
S'I-NP'
p1323
g5
tp1324
a(S'which'
p1325
S'which'
p1326
S'WDT'
p1327
S'B-NP'
p1328
g5
tp1329
a(S'are'
p1330
S'be'
p1331
S'VBP'
p1332
S'B-VP'
p1333
g5
tp1334
a(S'subnormal'
p1335
S'subnormal'
p1336
S'JJ'
p1337
S'B-ADJP'
p1338
g5
tp1339
a(S'in'
p1340
S'in'
p1341
S'IN'
p1342
S'B-PP'
p1343
g5
tp1344
a(S'these'
p1345
S'these'
p1346
S'DT'
p1347
S'B-NP'
p1348
g5
tp1349
a(S'patients'
p1350
S'patient'
p1351
S'NNS'
p1352
S'I-NP'
p1353
g5
tp1354
a(g47
g47
g47
g5
g5
tp1355
a.