(lp0
(S'Esophageal'
p1
S'Esophageal'
p2
S'JJ'
p3
S'B-NP'
p4
S'O'
p5
tp6
a(S'damage'
p7
S'damage'
p8
S'NN'
p9
S'I-NP'
p10
g5
tp11
a(S'during'
p12
S'during'
p13
S'IN'
p14
S'B-PP'
p15
g5
tp16
a(S'radiofrequency'
p17
S'radiofrequency'
p18
S'NN'
p19
S'B-NP'
p20
g5
tp21
a(S'ablation'
p22
S'ablation'
p23
S'NN'
p24
S'I-NP'
p25
g5
tp26
a(S'of'
p27
S'of'
p28
S'IN'
p29
S'B-PP'
p30
g5
tp31
a(S'atrial'
p32
S'atrial'
p33
S'JJ'
p34
S'B-NP'
p35
g5
tp36
a(S'fibrillation'
p37
S'fibrillation'
p38
S'NN'
p39
S'I-NP'
p40
g5
tp41
a(S':'
p42
g42
g42
g5
g5
tp43
a(S'impact'
p44
S'impact'
p45
S'NN'
p46
S'B-NP'
p47
g5
tp48
a(S'of'
p49
S'of'
p50
S'IN'
p51
S'B-PP'
p52
g5
tp53
a(S'energy'
p54
S'energy'
p55
S'NN'
p56
S'B-NP'
p57
g5
tp58
a(S'settings'
p59
S'setting'
p60
S'NNS'
p61
S'I-NP'
p62
g5
tp63
a(S','
p64
g64
g64
g5
g5
tp65
a(S'lesion'
p66
S'lesion'
p67
S'NN'
p68
S'B-NP'
p69
g5
tp70
a(S'sets'
p71
S'set'
p72
S'NNS'
p73
S'I-NP'
p74
g5
tp75
a(g64
g64
g64
g5
g5
tp76
a(S'and'
p77
S'and'
p78
S'CC'
p79
g5
g5
tp80
a(S'esophageal'
p81
S'esophageal'
p82
S'JJ'
p83
S'B-NP'
p84
g5
tp85
a(S'visualization'
p86
S'visualization'
p87
S'NN'
p88
S'I-NP'
p89
g5
tp90
a(S'.'
p91
g91
g91
g5
g5
tp92
a(S'INTRODUCTION'
p93
S'INTRODUCTION'
p94
S'NN'
p95
S'B-NP'
p96
g5
tp97
a(S'Atrioesophageal'
p98
S'Atrioesophageal'
p99
S'JJ'
p100
S'I-NP'
p101
g5
tp102
a(S'fistula'
p103
S'fistula'
p104
S'NN'
p105
S'I-NP'
p106
g5
tp107
a(S'is'
p108
S'be'
p109
S'VBZ'
p110
S'B-VP'
p111
g5
tp112
a(S'an'
p113
S'an'
p114
S'DT'
p115
S'B-NP'
p116
g5
tp117
a(S'uncommon'
p118
S'uncommon'
p119
S'JJ'
p120
S'I-NP'
p121
g5
tp122
a(S'but'
p123
S'but'
p124
S'CC'
p125
S'I-NP'
p126
g5
tp127
a(S'often'
p128
S'often'
p129
S'RB'
p130
S'I-NP'
p131
g5
tp132
a(S'lethal'
p133
S'lethal'
p134
S'JJ'
p135
S'I-NP'
p136
g5
tp137
a(S'complication'
p138
S'complication'
p139
S'NN'
p140
S'I-NP'
p141
g5
tp142
a(S'of'
p143
S'of'
p144
S'IN'
p145
S'B-PP'
p146
g5
tp147
a(S'atrial'
p148
S'atrial'
p149
S'JJ'
p150
S'B-NP'
p151
g5
tp152
a(S'fibrillation'
p153
S'fibrillation'
p154
S'NN'
p155
S'I-NP'
p156
g5
tp157
a(S'('
p158
g158
g158
g5
g5
tp159
a(S'AF'
p160
S'AF'
p161
S'NN'
p162
S'B-NP'
p163
g5
tp164
a(S')'
p165
g165
g165
g5
g5
tp166
a(S'ablation.'
p167
S'ablation.'
p168
S'VBP'
p169
S'B-VP'
p170
g5
tp171
a(S'The'
p172
S'The'
p173
S'DT'
p174
S'B-NP'
p175
g5
tp176
a(S'purpose'
p177
S'purpose'
p178
S'NN'
p179
S'I-NP'
p180
g5
tp181
a(S'of'
p182
S'of'
p183
S'IN'
p184
S'B-PP'
p185
g5
tp186
a(S'our'
p187
S'our'
p188
S'PRP$'
p189
S'B-NP'
p190
g5
tp191
a(S'study'
p192
S'study'
p193
S'NN'
p194
S'I-NP'
p195
g5
tp196
a(S'was'
p197
S'be'
p198
S'VBD'
p199
S'B-VP'
p200
g5
tp201
a(S'to'
p202
S'to'
p203
S'TO'
p204
S'B-VP'
p205
g5
tp206
a(S'prospectively'
p207
S'prospectively'
p208
S'RB'
p209
S'I-VP'
p210
g5
tp211
a(S'investigate'
p212
S'investigate'
p213
S'VB'
p214
S'I-VP'
p215
g5
tp216
a(S'the'
p217
S'the'
p218
S'DT'
p219
S'B-NP'
p220
g5
tp221
a(S'incidence'
p222
S'incidence'
p223
S'NN'
p224
S'I-NP'
p225
g5
tp226
a(S'of'
p227
S'of'
p228
S'IN'
p229
S'B-PP'
p230
g5
tp231
a(S'esophageal'
p232
S'esophageal'
p233
S'JJ'
p234
S'B-NP'
p235
g5
tp236
a(S'ulcerations'
p237
S'ulceration'
p238
S'NNS'
p239
S'I-NP'
p240
g5
tp241
a(g158
g158
g158
g5
g5
tp242
a(S'ESUL'
p243
S'ESUL'
p244
S'NN'
p245
S'B-NP'
p246
g5
tp247
a(g165
g165
g165
g5
g5
tp248
a(S'as'
p249
S'as'
p250
S'RB'
p251
S'B-CONJP'
p252
g5
tp253
a(S'well'
p254
S'well'
p255
S'RB'
p256
S'I-CONJP'
p257
g5
tp258
a(S'as'
p259
S'as'
p260
S'IN'
p261
S'I-CONJP'
p262
g5
tp263
a(S'the'
p264
S'the'
p265
S'DT'
p266
S'B-NP'
p267
g5
tp268
a(S'impact'
p269
S'impact'
p270
S'NN'
p271
S'I-NP'
p272
g5
tp273
a(S'of'
p274
S'of'
p275
S'IN'
p276
S'B-PP'
p277
g5
tp278
a(S'energy'
p279
S'energy'
p280
S'NN'
p281
S'B-NP'
p282
g5
tp283
a(S'settings'
p284
S'setting'
p285
S'NNS'
p286
S'I-NP'
p287
g5
tp288
a(g64
g64
g64
g5
g5
tp289
a(S'radiofrequency'
p290
S'radiofrequency'
p291
S'NN'
p292
S'B-NP'
p293
g5
tp294
a(S'lesion'
p295
S'lesion'
p296
S'NN'
p297
S'I-NP'
p298
g5
tp299
a(S'sets'
p300
S'set'
p301
S'NNS'
p302
S'I-NP'
p303
g5
tp304
a(g64
g64
g64
g5
g5
tp305
a(S'and'
p306
S'and'
p307
S'CC'
p308
g5
g5
tp309
a(S'direct'
p310
S'direct'
p311
S'JJ'
p312
S'B-NP'
p313
g5
tp314
a(S'visualization'
p315
S'visualization'
p316
S'NN'
p317
S'I-NP'
p318
g5
tp319
a(S'of'
p320
S'of'
p321
S'IN'
p322
S'B-PP'
p323
g5
tp324
a(S'the'
p325
S'the'
p326
S'DT'
p327
S'B-NP'
p328
g5
tp329
a(S'esophagus'
p330
S'esophagus'
p331
S'NN'
p332
S'I-NP'
p333
g5
tp334
a(S'on'
p335
S'on'
p336
S'IN'
p337
S'B-PP'
p338
g5
tp339
a(S'esophageal'
p340
S'esophageal'
p341
S'JJ'
p342
S'B-NP'
p343
g5
tp344
a(S'wall'
p345
S'wall'
p346
S'NN'
p347
S'I-NP'
p348
g5
tp349
a(S'injury'
p350
S'injury'
p351
S'NN'
p352
S'I-NP'
p353
g5
tp354
a(g91
g91
g91
g5
g5
tp355
a(S'METHODS'
p356
S'METHODS'
p357
S'NNS'
p358
S'B-NP'
p359
g5
tp360
a(S'AND'
p361
S'AND'
p362
S'CC'
p363
S'I-NP'
p364
g5
tp365
a(S'RESULTS'
p366
S'RESULTS'
p367
S'NNS'
p368
S'I-NP'
p369
g5
tp370
a(S'One'
p371
S'One'
p372
S'CD'
p373
S'B-NP'
p374
g5
tp375
a(S'hundred'
p376
S'hundred'
p377
S'CD'
p378
S'I-NP'
p379
g5
tp380
a(S'seventy-five'
p381
S'seventy-five'
p382
S'CD'
p383
S'B-NP'
p384
g5
tp385
a(S'patients'
p386
S'patient'
p387
S'NNS'
p388
S'I-NP'
p389
g5
tp390
a(g64
g64
g64
g5
g5
tp391
a(S'57.1'
p392
S'57.1'
p393
S'CD'
p394
S'B-NP'
p395
g5
tp396
a(S'%'
p397
g397
S'NN'
p398
S'I-NP'
p399
g5
tp400
a(S'paroxysmal'
p401
S'paroxysmal'
p402
S'JJ'
p403
S'I-NP'
p404
g5
tp405
a(S'AF'
p406
S'AF'
p407
S'NN'
p408
S'I-NP'
p409
g5
tp410
a(g64
g64
g64
g5
g5
tp411
a(S'78.5'
p412
S'78.5'
p413
S'CD'
p414
S'B-NP'
p415
g5
tp416
a(g397
g397
S'NN'
p417
S'I-NP'
p418
g5
tp419
a(S'male'
p420
S'male'
p421
S'NN'
p422
S'I-NP'
p423
g5
tp424
a(g64
g64
g64
g5
g5
tp425
a(S'underwent'
p426
S'undergo'
p427
S'VBD'
p428
S'B-VP'
p429
g5
tp430
a(S'AF'
p431
S'AF'
p432
S'NN'
p433
S'B-NP'
p434
g5
tp435
a(S'ablation'
p436
S'ablation'
p437
S'NN'
p438
S'I-NP'
p439
g5
tp440
a(S'and'
p441
S'and'
p442
S'CC'
p443
g5
g5
tp444
a(S'esophagoscopy'
p445
S'esophagoscopy'
p446
S'NN'
p447
S'B-NP'
p448
g5
tp449
a(S'24'
p450
S'24'
p451
S'CD'
p452
S'B-NP'
p453
g5
tp454
a(S'hours'
p455
S'hour'
p456
S'NNS'
p457
S'I-NP'
p458
g5
tp459
a(S'thereafter.'
p460
S'thereafter.'
p461
S'RB'
p462
S'B-ADVP'
p463
g5
tp464
a(S'We'
p465
S'We'
p466
S'PRP'
p467
S'B-NP'
p468
g5
tp469
a(S'performed'
p470
S'perform'
p471
S'VBD'
p472
S'B-VP'
p473
g5
tp474
a(S'a'
p475
g475
S'DT'
p476
S'B-NP'
p477
g5
tp478
a(S'2'
p479
g479
S'CD'
p480
S'I-NP'
p481
g5
tp482
a(g42
g42
g42
g5
g5
tp483
a(S'1'
p484
g484
S'CD'
p485
S'B-NP'
p486
g5
tp487
a(g42
g42
g42
g5
g5
tp488
a(S'1-randomization'
p489
S'1-randomization'
p490
S'NN'
p491
S'B-NP'
p492
g5
tp493
a(S'as'
p494
S'as'
p495
S'IN'
p496
S'B-SBAR'
p497
g5
tp498
a(S'follows'
p499
S'follow'
p500
S'VBZ'
p501
S'B-VP'
p502
g5
tp503
a(g42
g42
g42
g5
g5
tp504
a(S'CONTROL'
p505
S'CONTROL'
p506
S'NN'
p507
S'B-NP'
p508
g5
tp509
a(S'GROUP'
p510
S'GROUP'
p511
S'NN'
p512
S'I-NP'
p513
g5
tp514
a(S'Ablation'
p515
S'Ablation'
p516
S'NN'
p517
S'I-NP'
p518
g5
tp519
a(S'without'
p520
S'without'
p521
S'IN'
p522
S'B-PP'
p523
g5
tp524
a(S'visualization'
p525
S'visualization'
p526
S'NN'
p527
S'B-NP'
p528
g5
tp529
a(S'of'
p530
S'of'
p531
S'IN'
p532
S'B-PP'
p533
g5
tp534
a(S'the'
p535
S'the'
p536
S'DT'
p537
S'B-NP'
p538
g5
tp539
a(S'esophagus'
p540
S'esophagus'
p541
S'NN'
p542
S'I-NP'
p543
g5
tp544
a(S'using'
p545
S'use'
p546
S'VBG'
p547
S'B-VP'
p548
g5
tp549
a(S'25'
p550
S'25'
p551
S'CD'
p552
S'B-NP'
p553
g5
tp554
a(S'Watt'
p555
S'Watt'
p556
S'NNP'
p557
S'I-NP'
p558
g5
tp559
a(g158
g158
g158
g5
g5
tp560
a(S'W'
p561
g561
S'NNP'
p562
g5
g5
tp563
a(g165
g165
g165
g5
g5
tp564
a(S'power'
p565
S'power'
p566
S'NN'
p567
S'B-NP'
p568
g5
tp569
a(S'limit'
p570
S'limit'
p571
S'NN'
p572
S'I-NP'
p573
g5
tp574
a(S'on'
p575
S'on'
p576
S'IN'
p577
S'B-PP'
p578
g5
tp579
a(S'the'
p580
S'the'
p581
S'DT'
p582
S'B-NP'
p583
g5
tp584
a(S'posterior'
p585
S'posterior'
p586
S'JJ'
p587
S'I-NP'
p588
g5
tp589
a(S'wall'
p590
S'wall'
p591
S'NN'
p592
S'I-NP'
p593
g5
tp594
a(g64
g64
g64
g5
g5
tp595
a(S'n'
p596
g596
S'NN'
p597
S'B-NP'
p598
g5
tp599
a(S'='
p600
g600
S'SYM'
p601
S'B-VP'
p602
g5
tp603
a(S'70.'
p604
S'70.'
p605
S'CD'
p606
S'B-NP'
p607
g5
tp608
a(S'Visualization'
p609
S'Visualization'
p610
S'NN'
p611
S'I-NP'
p612
g5
tp613
a(S'and'
p614
S'and'
p615
S'CC'
p616
g5
g5
tp617
a(S'15'
p618
S'15'
p619
S'CD'
p620
S'B-NP'
p621
g5
tp622
a(g561
g561
S'NNP'
p623
S'I-NP'
p624
g5
tp625
a(S'maximum'
p626
S'maximum'
p627
S'NN'
p628
S'I-NP'
p629
g5
tp630
a(g42
g42
g42
g5
g5
tp631
a(S'Ablation'
p632
S'Ablation'
p633
S'NN'
p634
S'B-NP'
p635
g5
tp636
a(S'guided'
p637
S'guide'
p638
S'VBN'
p639
S'B-VP'
p640
g5
tp641
a(S'by'
p642
S'by'
p643
S'IN'
p644
S'B-PP'
p645
g5
tp646
a(S'barium'
p647
S'barium'
p648
S'NN'
p649
S'B-NP'
p650
g5
tp651
a(S'visualization'
p652
S'visualization'
p653
S'NN'
p654
S'I-NP'
p655
g5
tp656
a(S'of'
p657
S'of'
p658
S'IN'
p659
S'B-PP'
p660
g5
tp661
a(S'the'
p662
S'the'
p663
S'DT'
p664
S'B-NP'
p665
g5
tp666
a(S'esophageal'
p667
S'esophageal'
p668
S'JJ'
p669
S'I-NP'
p670
g5
tp671
a(S'course'
p672
S'course'
p673
S'NN'
p674
S'I-NP'
p675
g5
tp676
a(S'using'
p677
S'use'
p678
S'VBG'
p679
S'B-VP'
p680
g5
tp681
a(g475
g475
S'DT'
p682
S'B-NP'
p683
g5
tp684
a(S'limit'
p685
S'limit'
p686
S'NN'
p687
S'I-NP'
p688
g5
tp689
a(S'of'
p690
S'of'
p691
S'IN'
p692
S'B-PP'
p693
g5
tp694
a(S'15'
p695
S'15'
p696
S'CD'
p697
S'B-NP'
p698
g5
tp699
a(g561
g561
S'NN'
p700
S'I-NP'
p701
g5
tp702
a(g64
g64
g64
g5
g5
tp703
a(g596
g596
S'NN'
p704
S'B-NP'
p705
g5
tp706
a(g600
g600
S'SYM'
p707
S'B-VP'
p708
g5
tp709
a(S'35.'
p710
S'35.'
p711
S'CD'
p712
S'B-NP'
p713
g5
tp714
a(S'Visualization'
p715
S'Visualization'
p716
S'NN'
p717
S'I-NP'
p718
g5
tp719
a(S'and'
p720
S'and'
p721
S'CC'
p722
g5
g5
tp723
a(S'25'
p724
S'25'
p725
S'CD'
p726
S'B-NP'
p727
g5
tp728
a(g561
g561
S'NNP'
p729
S'I-NP'
p730
g5
tp731
a(S'``'
p732
S'``'
p733
S'``'
p734
S'I-NP'
p735
g5
tp736
a(S'short'
p737
S'short'
p738
S'JJ'
p739
S'I-NP'
p740
g5
tp741
a(S'burns'
p742
S'burn'
p743
S'NNS'
p744
S'I-NP'
p745
g5
tp746
a(S"''"
p747
S"''"
p748
S"''"
p749
g5
g5
tp750
a(g42
g42
g42
g5
g5
tp751
a(S'Ablation'
p752
S'Ablation'
p753
S'NN'
p754
S'B-NP'
p755
g5
tp756
a(S'guided'
p757
S'guide'
p758
S'VBN'
p759
S'B-VP'
p760
g5
tp761
a(S'by'
p762
S'by'
p763
S'IN'
p764
S'B-PP'
p765
g5
tp766
a(S'barium'
p767
S'barium'
p768
S'NN'
p769
S'B-NP'
p770
g5
tp771
a(S'visualization'
p772
S'visualization'
p773
S'NN'
p774
S'I-NP'
p775
g5
tp776
a(S'using'
p777
S'use'
p778
S'VBG'
p779
S'B-VP'
p780
g5
tp781
a(S'25'
p782
S'25'
p783
S'CD'
p784
S'B-NP'
p785
g5
tp786
a(g561
g561
S'NNP'
p787
S'I-NP'
p788
g5
tp789
a(S'and'
p790
S'and'
p791
S'CC'
p792
g5
g5
tp793
a(S'``'
p794
S'``'
p795
S'``'
p796
g5
g5
tp797
a(S'short'
p798
S'short'
p799
S'JJ'
p800
S'B-NP'
p801
g5
tp802
a(S'burns'
p803
S'burn'
p804
S'NNS'
p805
S'I-NP'
p806
g5
tp807
a(S"''"
p808
S"''"
p809
S"''"
p810
g5
g5
tp811
a(g158
g158
g158
g5
g5
tp812
a(S'max.'
p813
S'max.'
p814
S'NN'
p815
S'B-NP'
p816
g5
tp817
a(S'5'
p818
g818
S'CD'
p819
S'I-NP'
p820
g5
tp821
a(S'sec'
p822
S'sec'
p823
S'NN'
p824
S'I-NP'
p825
g5
tp826
a(g165
g165
g165
g5
g5
tp827
a(g64
g64
g64
g5
g5
tp828
a(g596
g596
S'NN'
p829
S'B-NP'
p830
g5
tp831
a(g600
g600
S'SYM'
p832
S'B-VP'
p833
g5
tp834
a(S'35.'
p835
S'35.'
p836
S'CD'
p837
S'B-NP'
p838
g5
tp839
a(S'Patients'
p840
S'Patient'
p841
S'NNS'
p842
S'I-NP'
p843
g5
tp844
a(S'performed'
p845
S'perform'
p846
S'VBN'
p847
S'B-VP'
p848
g5
tp849
a(S'under'
p850
S'under'
p851
S'IN'
p852
S'B-PP'
p853
g5
tp854
a(S'general'
p855
S'general'
p856
S'JJ'
p857
S'B-NP'
p858
g5
tp859
a(S'anesthesia'
p860
S'anesthesia'
p861
S'NN'
p862
S'I-NP'
p863
g5
tp864
a(g158
g158
g158
g5
g5
tp865
a(g596
g596
S'NN'
p866
S'B-NP'
p867
g5
tp868
a(g600
g600
S'SYM'
p869
S'B-VP'
p870
g5
tp871
a(S'35'
p872
S'35'
p873
S'CD'
p874
S'B-NP'
p875
g5
tp876
a(g165
g165
g165
g5
g5
tp877
a(S'were'
p878
S'be'
p879
S'VBD'
p880
S'B-VP'
p881
g5
tp882
a(S'separated'
p883
S'separate'
p884
S'VBN'
p885
S'I-VP'
p886
g5
tp887
a(S'as'
p888
S'as'
p889
S'IN'
p890
S'B-PP'
p891
g5
tp892
a(g475
g475
S'DT'
p893
S'B-NP'
p894
g5
tp895
a(S'nasogastric'
p896
S'nasogastric'
p897
S'JJ'
p898
S'I-NP'
p899
g5
tp900
a(S'tube'
p901
S'tube'
p902
S'NN'
p903
S'I-NP'
p904
g5
tp905
a(S'for'
p906
S'for'
p907
S'IN'
p908
S'B-PP'
p909
g5
tp910
a(S'visualization'
p911
S'visualization'
p912
S'NN'
p913
S'B-NP'
p914
g5
tp915
a(S'of'
p916
S'of'
p917
S'IN'
p918
S'B-PP'
p919
g5
tp920
a(S'the'
p921
S'the'
p922
S'DT'
p923
S'B-NP'
p924
g5
tp925
a(S'esophagus'
p926
S'esophagus'
p927
S'NN'
p928
S'I-NP'
p929
g5
tp930
a(S'was'
p931
S'be'
p932
S'VBD'
p933
S'B-VP'
p934
g5
tp935
a(S'used.'
p936
S'used.'
p937
S'VBN'
p938
S'I-VP'
p939
g5
tp940
a(S'In'
p941
S'In'
p942
S'IN'
p943
S'B-PP'
p944
g5
tp945
a(S'total'
p946
S'total'
p947
S'NN'
p948
S'B-NP'
p949
g5
tp950
a(g64
g64
g64
g5
g5
tp951
a(S'we'
p952
S'we'
p953
S'PRP'
p954
S'B-NP'
p955
g5
tp956
a(S'found'
p957
S'find'
p958
S'VBD'
p959
S'B-VP'
p960
g5
tp961
a(S'2.9'
p962
S'2.9'
p963
S'CD'
p964
S'B-NP'
p965
g5
tp966
a(g397
g397
S'NN'
p967
S'I-NP'
p968
g5
tp969
a(S'of'
p970
S'of'
p971
S'IN'
p972
S'B-PP'
p973
g5
tp974
a(S'patients'
p975
S'patient'
p976
S'NNS'
p977
S'B-NP'
p978
g5
tp979
a(g158
g158
g158
g5
g5
tp980
a(S'5/175'
p981
S'5/175'
p982
S'CD'
p983
S'B-NP'
p984
g5
tp985
a(g165
g165
g165
g5
g5
tp986
a(S'presenting'
p987
S'present'
p988
S'VBG'
p989
S'B-VP'
p990
g5
tp991
a(S'ESUL.'
p992
S'ESUL.'
p993
S'NNP'
p994
S'B-NP'
p995
g5
tp996
a(S'Parameters'
p997
S'Parameter'
p998
S'NNPS'
p999
S'I-NP'
p1000
g5
tp1001
a(S'discriminating'
p1002
S'discriminate'
p1003
S'VBG'
p1004
S'B-VP'
p1005
g5
tp1006
a(S'the'
p1007
S'the'
p1008
S'DT'
p1009
S'B-NP'
p1010
g5
tp1011
a(S'development'
p1012
S'development'
p1013
S'NN'
p1014
S'I-NP'
p1015
g5
tp1016
a(S'of'
p1017
S'of'
p1018
S'IN'
p1019
S'B-PP'
p1020
g5
tp1021
a(S'ESUL'
p1022
S'ESUL'
p1023
S'NN'
p1024
S'B-NP'
p1025
S'B-protein'
p1026
tp1027
a(S'in'
p1028
S'in'
p1029
S'IN'
p1030
S'B-PP'
p1031
g5
tp1032
a(g475
g475
S'DT'
p1033
S'B-NP'
p1034
g5
tp1035
a(S'specific'
p1036
S'specific'
p1037
S'JJ'
p1038
S'I-NP'
p1039
g5
tp1040
a(S'patient'
p1041
S'patient'
p1042
S'NN'
p1043
S'I-NP'
p1044
g5
tp1045
a(S'were'
p1046
S'be'
p1047
S'VBD'
p1048
S'B-VP'
p1049
g5
tp1050
a(S'type'
p1051
S'type'
p1052
S'NN'
p1053
S'B-NP'
p1054
g5
tp1055
a(S'of'
p1056
S'of'
p1057
S'IN'
p1058
S'B-PP'
p1059
g5
tp1060
a(S'AF'
p1061
S'AF'
p1062
S'NN'
p1063
S'B-NP'
p1064
g5
tp1065
a(g64
g64
g64
g5
g5
tp1066
a(S'maximum'
p1067
S'maximum'
p1068
S'JJ'
p1069
S'B-NP'
p1070
g5
tp1071
a(S'energy'
p1072
S'energy'
p1073
S'NN'
p1074
S'I-NP'
p1075
g5
tp1076
a(S'delivered'
p1077
S'deliver'
p1078
S'VBN'
p1079
S'B-VP'
p1080
g5
tp1081
a(g64
g64
g64
g5
g5
tp1082
a(S'usage'
p1083
S'usage'
p1084
S'NN'
p1085
S'B-NP'
p1086
g5
tp1087
a(S'of'
p1088
S'of'
p1089
S'IN'
p1090
S'B-PP'
p1091
g5
tp1092
a(g475
g475
S'DT'
p1093
S'B-NP'
p1094
g5
tp1095
a(S'nasogastric'
p1096
S'nasogastric'
p1097
S'JJ'
p1098
S'I-NP'
p1099
g5
tp1100
a(S'tube'
p1101
S'tube'
p1102
S'NN'
p1103
S'I-NP'
p1104
g5
tp1105
a(g64
g64
g64
g5
g5
tp1106
a(S'and'
p1107
S'and'
p1108
S'CC'
p1109
g5
g5
tp1110
a(S'additional'
p1111
S'additional'
p1112
S'JJ'
p1113
S'B-NP'
p1114
g5
tp1115
a(S'left'
p1116
S'left'
p1117
S'JJ'
p1118
S'I-NP'
p1119
g5
tp1120
a(S'atrial'
p1121
S'atrial'
p1122
S'JJ'
p1123
S'I-NP'
p1124
g5
tp1125
a(S'lines.'
p1126
S'lines.'
p1127
S'NN'
p1128
S'I-NP'
p1129
g5
tp1130
a(S'Visualization'
p1131
S'Visualization'
p1132
S'NN'
p1133
S'I-NP'
p1134
g5
tp1135
a(S'of'
p1136
S'of'
p1137
S'IN'
p1138
S'B-PP'
p1139
g5
tp1140
a(S'the'
p1141
S'the'
p1142
S'DT'
p1143
S'B-NP'
p1144
g5
tp1145
a(S'esophageal'
p1146
S'esophageal'
p1147
S'JJ'
p1148
S'I-NP'
p1149
g5
tp1150
a(S'course'
p1151
S'course'
p1152
S'NN'
p1153
S'I-NP'
p1154
g5
tp1155
a(S'by'
p1156
S'by'
p1157
S'IN'
p1158
S'B-PP'
p1159
g5
tp1160
a(S'barium'
p1161
S'barium'
p1162
S'NN'
p1163
S'B-NP'
p1164
g5
tp1165
a(S'contrast'
p1166
S'contrast'
p1167
S'NN'
p1168
S'I-NP'
p1169
g5
tp1170
a(S'was'
p1171
S'be'
p1172
S'VBD'
p1173
S'B-VP'
p1174
g5
tp1175
a(S'not'
p1176
S'not'
p1177
S'RB'
p1178
g5
g5
tp1179
a(S'able'
p1180
S'able'
p1181
S'JJ'
p1182
S'B-ADJP'
p1183
g5
tp1184
a(S'to'
p1185
S'to'
p1186
S'TO'
p1187
S'B-VP'
p1188
g5
tp1189
a(S'prevent'
p1190
S'prevent'
p1191
S'VB'
p1192
S'I-VP'
p1193
g5
tp1194
a(S'ESUL'
p1195
S'ESUL'
p1196
S'NNP'
p1197
S'B-NP'
p1198
g5
tp1199
a(g91
g91
g91
g5
g5
tp1200
a(S'CONCLUSION'
p1201
S'CONCLUSION'
p1202
S'NN'
p1203
S'B-NP'
p1204
g5
tp1205
a(S'ESUL'
p1206
S'ESUL'
p1207
S'NN'
p1208
S'I-NP'
p1209
g5
tp1210
a(S'is'
p1211
S'be'
p1212
S'VBZ'
p1213
S'B-VP'
p1214
g5
tp1215
a(g475
g475
S'DT'
p1216
S'B-NP'
p1217
g5
tp1218
a(S'rare'
p1219
S'rare'
p1220
S'JJ'
p1221
S'I-NP'
p1222
g5
tp1223
a(S'finding'
p1224
S'finding'
p1225
S'NN'
p1226
S'I-NP'
p1227
g5
tp1228
a(S'when'
p1229
S'when'
p1230
S'WRB'
p1231
S'B-ADVP'
p1232
g5
tp1233
a(S'using'
p1234
S'use'
p1235
S'VBG'
p1236
S'B-VP'
p1237
g5
tp1238
a(g475
g475
S'DT'
p1239
S'B-NP'
p1240
g5
tp1241
a(S'reasonable'
p1242
S'reasonable'
p1243
S'JJ'
p1244
S'I-NP'
p1245
g5
tp1246
a(S'energy'
p1247
S'energy'
p1248
S'NN'
p1249
S'I-NP'
p1250
g5
tp1251
a(S'maximum'
p1252
S'maximum'
p1253
S'NN'
p1254
S'I-NP'
p1255
g5
tp1256
a(S'of'
p1257
S'of'
p1258
S'IN'
p1259
S'B-PP'
p1260
g5
tp1261
a(S'25'
p1262
S'25'
p1263
S'CD'
p1264
S'B-NP'
p1265
g5
tp1266
a(g561
g561
S'NN'
p1267
S'I-NP'
p1268
g5
tp1269
a(S'with'
p1270
S'with'
p1271
S'IN'
p1272
S'B-PP'
p1273
g5
tp1274
a(S'open-irrigated'
p1275
S'open-irrigated'
p1276
S'JJ'
p1277
S'B-NP'
p1278
g5
tp1279
a(S'tip'
p1280
S'tip'
p1281
S'NN'
p1282
S'I-NP'
p1283
g5
tp1284
a(S'catheters'
p1285
S'catheter'
p1286
S'NNS'
p1287
S'I-NP'
p1288
g5
tp1289
a(S'at'
p1290
S'at'
p1291
S'IN'
p1292
S'B-PP'
p1293
g5
tp1294
a(S'the'
p1295
S'the'
p1296
S'DT'
p1297
S'B-NP'
p1298
g5
tp1299
a(S'posterior'
p1300
S'posterior'
p1301
S'JJ'
p1302
S'I-NP'
p1303
g5
tp1304
a(S'wall.'
p1305
S'wall.'
p1306
S'NN'
p1307
S'I-NP'
p1308
g5
tp1309
a(S'Lower'
p1310
S'Lower'
p1311
S'NN'
p1312
S'I-NP'
p1313
g5
tp1314
a(S'energy'
p1315
S'energy'
p1316
S'NN'
p1317
S'I-NP'
p1318
g5
tp1319
a(S'settings'
p1320
S'setting'
p1321
S'NNS'
p1322
S'I-NP'
p1323
g5
tp1324
a(S'may'
p1325
S'may'
p1326
S'MD'
p1327
S'B-VP'
p1328
g5
tp1329
a(S'increase'
p1330
S'increase'
p1331
S'VB'
p1332
S'I-VP'
p1333
g5
tp1334
a(S'safety'
p1335
S'safety'
p1336
S'NN'
p1337
S'B-NP'
p1338
g5
tp1339
a(S'without'
p1340
S'without'
p1341
S'IN'
p1342
S'B-PP'
p1343
g5
tp1344
a(S'losing'
p1345
S'lose'
p1346
S'VBG'
p1347
S'B-VP'
p1348
g5
tp1349
a(S'efficacy.'
p1350
S'efficacy.'
p1351
S'NN'
p1352
S'B-NP'
p1353
g5
tp1354
a(S'Additional'
p1355
S'Additional'
p1356
S'JJ'
p1357
S'I-NP'
p1358
g5
tp1359
a(S'linear'
p1360
S'linear'
p1361
S'JJ'
p1362
S'I-NP'
p1363
g5
tp1364
a(S'radiofrequency'
p1365
S'radiofrequency'
p1366
S'NN'
p1367
S'I-NP'
p1368
g5
tp1369
a(S'lesions'
p1370
S'lesion'
p1371
S'NNS'
p1372
S'I-NP'
p1373
g5
tp1374
a(S'increase'
p1375
S'increase'
p1376
S'VBP'
p1377
S'B-VP'
p1378
g5
tp1379
a(S'the'
p1380
S'the'
p1381
S'DT'
p1382
S'B-NP'
p1383
g5
tp1384
a(S'risk'
p1385
S'risk'
p1386
S'NN'
p1387
S'I-NP'
p1388
g5
tp1389
a(S'of'
p1390
S'of'
p1391
S'IN'
p1392
S'B-PP'
p1393
g5
tp1394
a(S'ESUL'
p1395
S'ESUL'
p1396
S'NN'
p1397
S'B-NP'
p1398
g5
tp1399
a(S'development'
p1400
S'development'
p1401
S'NN'
p1402
S'I-NP'
p1403
g5
tp1404
a(g91
g91
g91
g5
g5
tp1405
a.