(lp0
(S'A'
p1
g1
S'DT'
p2
S'B-NP'
p3
S'O'
p4
tp5
a(S'controlled'
p6
S'control'
p7
S'VBN'
p8
S'I-NP'
p9
g4
tp10
a(S'study'
p11
S'study'
p12
S'NN'
p13
S'I-NP'
p14
g4
tp15
a(S'of'
p16
S'of'
p17
S'IN'
p18
S'B-PP'
p19
g4
tp20
a(S'early'
p21
S'early'
p22
S'JJ'
p23
S'B-NP'
p24
g4
tp25
a(S'discharge'
p26
S'discharge'
p27
S'NN'
p28
S'I-NP'
p29
g4
tp30
a(S'after'
p31
S'after'
p32
S'IN'
p33
S'B-PP'
p34
g4
tp35
a(S'uncomplicated'
p36
S'uncomplicated'
p37
S'JJ'
p38
S'B-NP'
p39
g4
tp40
a(S'myocardial'
p41
S'myocardial'
p42
S'JJ'
p43
S'I-NP'
p44
g4
tp45
a(S'infarction'
p46
S'infarction'
p47
S'NN'
p48
S'I-NP'
p49
g4
tp50
a(S'.'
p51
g51
g51
g4
g4
tp52
a(S'Out'
p53
S'Out'
p54
S'IN'
p55
S'B-PP'
p56
g4
tp57
a(S'of'
p58
S'of'
p59
S'IN'
p60
S'B-PP'
p61
g4
tp62
a(S'383'
p63
S'383'
p64
S'CD'
p65
S'B-NP'
p66
g4
tp67
a(S'myocardial'
p68
S'myocardial'
p69
S'JJ'
p70
S'I-NP'
p71
g4
tp72
a(S'infarction'
p73
S'infarction'
p74
S'NN'
p75
S'I-NP'
p76
g4
tp77
a(S'('
p78
g78
g78
g4
g4
tp79
a(S'MI'
p80
S'MI'
p81
S'NN'
p82
S'B-NP'
p83
g4
tp84
a(S')'
p85
g85
g85
g4
g4
tp86
a(S'patients'
p87
S'patient'
p88
S'NNS'
p89
S'B-NP'
p90
g4
tp91
a(S'aged'
p92
S'age'
p93
S'VBN'
p94
S'B-VP'
p95
g4
tp96
a(S'below'
p97
S'below'
p98
S'IN'
p99
S'B-PP'
p100
g4
tp101
a(S'70'
p102
S'70'
p103
S'CD'
p104
S'B-NP'
p105
g4
tp106
a(S'years'
p107
S'year'
p108
S'NNS'
p109
S'I-NP'
p110
g4
tp111
a(S','
p112
g112
g112
g4
g4
tp113
a(S'252'
p114
S'252'
p115
S'CD'
p116
S'B-NP'
p117
g4
tp118
a(g78
g78
g78
g4
g4
tp119
a(S'66'
p120
S'66'
p121
S'CD'
p122
S'B-NP'
p123
g4
tp124
a(S'%'
p125
g125
S'NN'
p126
S'I-NP'
p127
g4
tp128
a(g85
g85
g85
g4
g4
tp129
a(S'were'
p130
S'be'
p131
S'VBD'
p132
S'B-VP'
p133
g4
tp134
a(S'judged'
p135
S'judge'
p136
S'VBN'
p137
S'I-VP'
p138
g4
tp139
a(S'after'
p140
S'after'
p141
S'IN'
p142
S'B-PP'
p143
g4
tp144
a(S'the'
p145
S'the'
p146
S'DT'
p147
S'B-NP'
p148
g4
tp149
a(S'third'
p150
S'third'
p151
S'JJ'
p152
S'I-NP'
p153
g4
tp154
a(S'day'
p155
S'day'
p156
S'NN'
p157
S'I-NP'
p158
g4
tp159
a(S'in'
p160
S'in'
p161
S'IN'
p162
S'B-PP'
p163
g4
tp164
a(S'hospital'
p165
S'hospital'
p166
S'NN'
p167
S'B-NP'
p168
g4
tp169
a(S'to'
p170
S'to'
p171
S'TO'
p172
S'B-VP'
p173
g4
tp174
a(S'have'
p175
S'have'
p176
S'VB'
p177
S'I-VP'
p178
g4
tp179
a(S'had'
p180
S'have'
p181
S'VBN'
p182
S'I-VP'
p183
g4
tp184
a(S'uncomplicated'
p185
S'uncomplicated'
p186
S'JJ'
p187
S'B-NP'
p188
g4
tp189
a(S'infarctions.'
p190
S'infarctions.'
p191
S'NN'
p192
S'I-NP'
p193
g4
tp194
a(S'These'
p195
S'These'
p196
S'DT'
p197
S'B-NP'
p198
g4
tp199
a(S'patients'
p200
S'patient'
p201
S'NNS'
p202
S'I-NP'
p203
g4
tp204
a(S'were'
p205
S'be'
p206
S'VBD'
p207
S'B-VP'
p208
g4
tp209
a(S'allocated'
p210
S'allocate'
p211
S'VBN'
p212
S'I-VP'
p213
g4
tp214
a(S'at'
p215
S'at'
p216
S'IN'
p217
S'B-PP'
p218
g4
tp219
a(S'random'
p220
S'random'
p221
S'NN'
p222
S'B-NP'
p223
g4
tp224
a(S'to'
p225
S'to'
p226
S'TO'
p227
S'B-PP'
p228
g4
tp229
a(S'two'
p230
S'two'
p231
S'CD'
p232
S'B-NP'
p233
g4
tp234
a(S'groups'
p235
S'group'
p236
S'NNS'
p237
S'I-NP'
p238
g4
tp239
a(g112
g112
g112
g4
g4
tp240
a(S'one'
p241
S'one'
p242
S'CD'
p243
S'B-NP'
p244
g4
tp245
a(S'of'
p246
S'of'
p247
S'IN'
p248
S'B-PP'
p249
g4
tp250
a(S'which'
p251
S'which'
p252
S'WDT'
p253
S'B-NP'
p254
g4
tp255
a(S'was'
p256
S'be'
p257
S'VBD'
p258
S'B-VP'
p259
g4
tp260
a(S'given'
p261
S'give'
p262
S'VBN'
p263
S'I-VP'
p264
g4
tp265
a(S'treatment'
p266
S'treatment'
p267
S'NN'
p268
S'B-NP'
p269
g4
tp270
a(S'for'
p271
S'for'
p272
S'IN'
p273
S'B-PP'
p274
g4
tp275
a(S'8'
p276
g276
S'CD'
p277
S'B-NP'
p278
g4
tp279
a(S'days'
p280
S'day'
p281
S'NNS'
p282
S'I-NP'
p283
g4
tp284
a(S'and'
p285
S'and'
p286
S'CC'
p287
g4
g4
tp288
a(S'the'
p289
S'the'
p290
S'DT'
p291
S'B-NP'
p292
g4
tp293
a(S'other'
p294
S'other'
p295
S'JJ'
p296
S'I-NP'
p297
g4
tp298
a(S'for'
p299
S'for'
p300
S'IN'
p301
S'B-PP'
p302
g4
tp303
a(S'15'
p304
S'15'
p305
S'CD'
p306
S'B-NP'
p307
g4
tp308
a(S'days.'
p309
S'days.'
p310
S'NN'
p311
S'I-NP'
p312
g4
tp313
a(S'No'
p314
S'No'
p315
S'DT'
p316
S'B-NP'
p317
g4
tp318
a(S'significant'
p319
S'significant'
p320
S'JJ'
p321
S'I-NP'
p322
g4
tp323
a(S'differences'
p324
S'difference'
p325
S'NNS'
p326
S'I-NP'
p327
g4
tp328
a(S'in'
p329
S'in'
p330
S'IN'
p331
S'B-PP'
p332
g4
tp333
a(S'mortality'
p334
S'mortality'
p335
S'NN'
p336
S'B-NP'
p337
g4
tp338
a(g112
g112
g112
S'I-NP'
p339
g4
tp340
a(S'morbidity'
p341
S'morbidity'
p342
S'NN'
p343
S'I-NP'
p344
g4
tp345
a(S'or'
p346
S'or'
p347
S'CC'
p348
S'I-NP'
p349
g4
tp350
a(S'incapacity'
p351
S'incapacity'
p352
S'NN'
p353
S'I-NP'
p354
g4
tp355
a(S'for'
p356
S'for'
p357
S'IN'
p358
S'B-PP'
p359
g4
tp360
a(S'work'
p361
S'work'
p362
S'NN'
p363
S'B-NP'
p364
g4
tp365
a(S'could'
p366
S'could'
p367
S'MD'
p368
S'B-VP'
p369
g4
tp370
a(S'be'
p371
S'be'
p372
S'VB'
p373
S'I-VP'
p374
g4
tp375
a(S'detected'
p376
S'detect'
p377
S'VBN'
p378
S'I-VP'
p379
g4
tp380
a(S'during'
p381
S'during'
p382
S'IN'
p383
S'B-PP'
p384
g4
tp385
a(S'the'
p386
S'the'
p387
S'DT'
p388
S'B-NP'
p389
g4
tp390
a(S'three-month'
p391
S'three-month'
p392
S'JJ'
p393
S'I-NP'
p394
g4
tp395
a(S'period'
p396
S'period'
p397
S'NN'
p398
S'I-NP'
p399
g4
tp400
a(S'of'
p401
S'of'
p402
S'IN'
p403
S'B-PP'
p404
g4
tp405
a(S'follow-up.'
p406
S'follow-up.'
p407
S'JJ'
p408
S'B-NP'
p409
g4
tp410
a(S'The'
p411
S'The'
p412
S'DT'
p413
S'I-NP'
p414
g4
tp415
a(S'findings'
p416
S'finding'
p417
S'NNS'
p418
S'I-NP'
p419
g4
tp420
a(S'thus'
p421
S'thus'
p422
S'RB'
p423
S'B-ADVP'
p424
g4
tp425
a(S'support'
p426
S'support'
p427
S'VBP'
p428
S'B-VP'
p429
g4
tp430
a(S'previous'
p431
S'previous'
p432
S'JJ'
p433
S'B-NP'
p434
g4
tp435
a(S'conclusions'
p436
S'conclusion'
p437
S'NNS'
p438
S'I-NP'
p439
g4
tp440
a(S'that'
p441
S'that'
p442
S'IN'
p443
S'B-NP'
p444
g4
tp445
a(S'early'
p446
S'early'
p447
S'JJ'
p448
S'B-NP'
p449
g4
tp450
a(S'discharge'
p451
S'discharge'
p452
S'NN'
p453
S'I-NP'
p454
g4
tp455
a(S'from'
p456
S'from'
p457
S'IN'
p458
S'B-PP'
p459
g4
tp460
a(S'hospital'
p461
S'hospital'
p462
S'NN'
p463
S'B-NP'
p464
g4
tp465
a(S'after'
p466
S'after'
p467
S'IN'
p468
S'B-PP'
p469
g4
tp470
a(S'uncomplicated'
p471
S'uncomplicated'
p472
S'JJ'
p473
S'B-NP'
p474
g4
tp475
a(S'MI'
p476
S'MI'
p477
S'NN'
p478
S'I-NP'
p479
g4
tp480
a(S'is'
p481
S'be'
p482
S'VBZ'
p483
S'B-VP'
p484
g4
tp485
a(S'not'
p486
S'not'
p487
S'RB'
p488
S'I-VP'
p489
g4
tp490
a(S'associated'
p491
S'associate'
p492
S'VBN'
p493
S'I-VP'
p494
g4
tp495
a(S'with'
p496
S'with'
p497
S'IN'
p498
S'B-PP'
p499
g4
tp500
a(S'greater'
p501
S'great'
p502
S'JJR'
p503
S'B-NP'
p504
g4
tp505
a(S'risk'
p506
S'risk'
p507
S'NN'
p508
S'I-NP'
p509
g4
tp510
a(S'for'
p511
S'for'
p512
S'IN'
p513
S'B-PP'
p514
g4
tp515
a(S'the'
p516
S'the'
p517
S'DT'
p518
S'B-NP'
p519
g4
tp520
a(S'patient'
p521
S'patient'
p522
S'NN'
p523
S'I-NP'
p524
g4
tp525
a(S'than'
p526
S'than'
p527
S'IN'
p528
S'B-PP'
p529
g4
tp530
a(S'later'
p531
S'later'
p532
S'JJ'
p533
S'B-NP'
p534
g4
tp535
a(S'discharge'
p536
S'discharge'
p537
S'NN'
p538
S'I-NP'
p539
g4
tp540
a(g51
g51
g51
g4
g4
tp541
a.