(lp0
(S'Double-blind'
p1
S'Double-blind'
p2
S'JJ'
p3
S'B-NP'
p4
S'O'
p5
tp6
a(S','
p7
g7
g7
S'I-NP'
p8
g5
tp9
a(S'placebo-controlled'
p10
S'placebo-controlled'
p11
S'JJ'
p12
S'I-NP'
p13
g5
tp14
a(g7
g7
g7
S'I-NP'
p15
g5
tp16
a(S'dose-ranging'
p17
S'dose-ranging'
p18
S'JJ'
p19
S'I-NP'
p20
g5
tp21
a(S'study'
p22
S'study'
p23
S'NN'
p24
S'I-NP'
p25
g5
tp26
a(S'of'
p27
S'of'
p28
S'IN'
p29
S'B-PP'
p30
g5
tp31
a(S'new'
p32
S'new'
p33
S'JJ'
p34
S'B-NP'
p35
g5
tp36
a(S'recombinant'
p37
S'recombinant'
p38
S'JJ'
p39
S'I-NP'
p40
g5
tp41
a(S'hypoallergenic'
p42
S'hypoallergenic'
p43
S'JJ'
p44
S'I-NP'
p45
g5
tp46
a(S'Bet'
p47
S'Bet'
p48
S'NNP'
p49
S'I-NP'
p50
g5
tp51
a(S'v'
p52
g52
S'NN'
p53
S'I-NP'
p54
g5
tp55
a(S'1'
p56
g56
S'CD'
p57
S'I-NP'
p58
g5
tp59
a(S'in'
p60
S'in'
p61
S'IN'
p62
S'B-PP'
p63
g5
tp64
a(S'an'
p65
S'an'
p66
S'DT'
p67
S'B-NP'
p68
g5
tp69
a(S'environmental'
p70
S'environmental'
p71
S'JJ'
p72
S'I-NP'
p73
g5
tp74
a(S'exposure'
p75
S'exposure'
p76
S'NN'
p77
S'I-NP'
p78
g5
tp79
a(S'chamber'
p80
S'chamber'
p81
S'NN'
p82
S'I-NP'
p83
g5
tp84
a(S'.'
p85
g85
g85
g5
g5
tp86
a(S'BACKGROUND'
p87
S'BACKGROUND'
p88
S'NN'
p89
S'B-NP'
p90
g5
tp91
a(S'Recombinant'
p92
S'Recombinant'
p93
S'JJ'
p94
S'I-NP'
p95
g5
tp96
a(S'allergens'
p97
S'allergen'
p98
S'NNS'
p99
S'I-NP'
p100
g5
tp101
a(S'offer'
p102
S'offer'
p103
S'VBP'
p104
S'B-VP'
p105
g5
tp106
a(S'a'
p107
g107
S'DT'
p108
S'B-NP'
p109
g5
tp110
a(S'tool'
p111
S'tool'
p112
S'NN'
p113
S'I-NP'
p114
g5
tp115
a(S'for'
p116
S'for'
p117
S'IN'
p118
S'B-PP'
p119
g5
tp120
a(S'improving'
p121
S'improve'
p122
S'VBG'
p123
S'B-VP'
p124
g5
tp125
a(S'specific'
p126
S'specific'
p127
S'JJ'
p128
S'B-NP'
p129
g5
tp130
a(S'immunotherapy'
p131
S'immunotherapy'
p132
S'NN'
p133
S'I-NP'
p134
g5
tp135
a(S'('
p136
g136
g136
g5
g5
tp137
a(S'SIT'
p138
S'SIT'
p139
S'NN'
p140
S'B-NP'
p141
S'B-protein'
p142
tp143
a(S')'
p144
g144
g144
g5
g5
tp145
a(g85
g85
g85
g5
g5
tp146
a(S'OBJECTIVE'
p147
S'OBJECTIVE'
p148
S'NN'
p149
S'B-NP'
p150
g5
tp151
a(S'To'
p152
S'To'
p153
S'TO'
p154
S'B-VP'
p155
g5
tp156
a(S'find'
p157
S'find'
p158
S'VB'
p159
S'I-VP'
p160
g5
tp161
a(S'the'
p162
S'the'
p163
S'DT'
p164
S'B-NP'
p165
g5
tp166
a(S'optimal'
p167
S'optimal'
p168
S'JJ'
p169
S'I-NP'
p170
g5
tp171
a(S'dose'
p172
S'dose'
p173
S'NN'
p174
S'I-NP'
p175
g5
tp176
a(S'of'
p177
S'of'
p178
S'IN'
p179
S'B-PP'
p180
g5
tp181
a(g107
g107
S'DT'
p182
S'B-NP'
p183
g5
tp184
a(S'new'
p185
S'new'
p186
S'JJ'
p187
S'I-NP'
p188
g5
tp189
a(S'hypoallergenic'
p190
S'hypoallergenic'
p191
S'JJ'
p192
S'I-NP'
p193
g5
tp194
a(S'folding'
p195
S'folding'
p196
S'NN'
p197
S'I-NP'
p198
g5
tp199
a(S'variant'
p200
S'variant'
p201
S'NN'
p202
S'I-NP'
p203
g5
tp204
a(S'of'
p205
S'of'
p206
S'IN'
p207
S'B-PP'
p208
g5
tp209
a(S'recombinant'
p210
S'recombinant'
p211
S'JJ'
p212
S'B-NP'
p213
g5
tp214
a(S'Bet'
p215
S'Bet'
p216
S'NNP'
p217
S'I-NP'
p218
g5
tp219
a(g52
g52
S'NN'
p220
S'I-NP'
p221
g5
tp222
a(g56
g56
S'CD'
p223
S'I-NP'
p224
g5
tp225
a(g136
g136
g136
g5
g5
tp226
a(S'rBet'
p227
S'rBet'
p228
S'NN'
p229
S'B-NP'
p230
g5
tp231
a(g52
g52
S'NN'
p232
S'I-NP'
p233
g5
tp234
a(S'1-FV'
p235
S'1-FV'
p236
S'NN'
p237
S'I-NP'
p238
g5
tp239
a(g144
g144
g144
g5
g5
tp240
a(S'as'
p241
S'as'
p242
S'IN'
p243
S'B-PP'
p244
g5
tp245
a(S'SIT'
p246
S'SIT'
p247
S'NN'
p248
S'B-NP'
p249
S'B-protein'
p250
tp251
a(S'for'
p252
S'for'
p253
S'IN'
p254
S'B-PP'
p255
g5
tp256
a(S'patients'
p257
S'patient'
p258
S'NNS'
p259
S'B-NP'
p260
g5
tp261
a(S'with'
p262
S'with'
p263
S'IN'
p264
S'B-PP'
p265
g5
tp266
a(S'birch'
p267
S'birch'
p268
S'NN'
p269
S'B-NP'
p270
g5
tp271
a(S'pollen'
p272
S'pollen'
p273
S'NN'
p274
S'I-NP'
p275
g5
tp276
a(S'allergy'
p277
S'allergy'
p278
S'NN'
p279
S'I-NP'
p280
g5
tp281
a(g85
g85
g85
g5
g5
tp282
a(S'METHODS'
p283
S'METHODS'
p284
S'NNS'
p285
S'B-NP'
p286
g5
tp287
a(S'Before'
p288
S'Before'
p289
S'IN'
p290
S'B-PP'
p291
g5
tp292
a(S'SIT'
p293
S'SIT'
p294
S'NN'
p295
S'B-NP'
p296
S'B-protein'
p297
tp298
a(g7
g7
g7
g5
g5
tp299
a(S'thirty-seven'
p300
S'thirty-seven'
p301
S'CD'
p302
S'B-NP'
p303
g5
tp304
a(S'adult'
p305
S'adult'
p306
S'JJ'
p307
S'I-NP'
p308
g5
tp309
a(S'patients'
p310
S'patient'
p311
S'NNS'
p312
S'I-NP'
p313
g5
tp314
a(S'were'
p315
S'be'
p316
S'VBD'
p317
S'B-VP'
p318
g5
tp319
a(S'exposed'
p320
S'expose'
p321
S'VBN'
p322
S'I-VP'
p323
g5
tp324
a(S'for'
p325
S'for'
p326
S'IN'
p327
S'B-PP'
p328
g5
tp329
a(S'eight'
p330
S'eight'
p331
S'CD'
p332
S'B-NP'
p333
g5
tp334
a(S'hours'
p335
S'hour'
p336
S'NNS'
p337
S'I-NP'
p338
g5
tp339
a(S'in'
p340
S'in'
p341
S'IN'
p342
S'B-PP'
p343
g5
tp344
a(S'an'
p345
S'an'
p346
S'DT'
p347
S'B-NP'
p348
g5
tp349
a(S'environmental'
p350
S'environmental'
p351
S'JJ'
p352
S'I-NP'
p353
g5
tp354
a(S'exposure'
p355
S'exposure'
p356
S'NN'
p357
S'I-NP'
p358
g5
tp359
a(S'chamber'
p360
S'chamber'
p361
S'NN'
p362
S'I-NP'
p363
g5
tp364
a(g136
g136
g136
g5
g5
tp365
a(S'EEC'
p366
S'EEC'
p367
S'NN'
p368
S'B-NP'
p369
S'B-protein'
p370
tp371
a(g144
g144
g144
g5
g5
tp372
a(S'to'
p373
S'to'
p374
S'TO'
p375
S'B-VP'
p376
g5
tp377
a(S'birch'
p378
S'birch'
p379
S'VB'
p380
S'I-VP'
p381
g5
tp382
a(S'pollen'
p383
S'pollen'
p384
S'NN'
p385
S'B-NP'
p386
g5
tp387
a(S'at'
p388
S'at'
p389
S'IN'
p390
S'B-PP'
p391
g5
tp392
a(S'an'
p393
S'an'
p394
S'DT'
p395
S'B-NP'
p396
g5
tp397
a(S'average'
p398
S'average'
p399
S'JJ'
p400
S'I-NP'
p401
g5
tp402
a(S'concentration'
p403
S'concentration'
p404
S'NN'
p405
S'I-NP'
p406
g5
tp407
a(S'of'
p408
S'of'
p409
S'IN'
p410
S'B-PP'
p411
g5
tp412
a(S'3500'
p413
S'3500'
p414
S'CD'
p415
S'B-NP'
p416
g5
tp417
a(S'\xc2\xb1'
p418
S'\xc2\xb1'
p419
S'HYPH'
p420
S'I-NP'
p421
g5
tp422
a(S'500'
p423
S'500'
p424
S'CD'
p425
S'I-NP'
p426
g5
tp427
a(S'grains/m'
p428
S'grains/m'
p429
S'NN'
p430
S'I-NP'
p431
g5
tp432
a(g136
g136
g136
g5
g5
tp433
a(S'3'
p434
g434
S'CD'
p435
S'B-NP'
p436
g5
tp437
a(g144
g144
g144
g5
g5
tp438
a(g7
g7
g7
g5
g5
tp439
a(S'then'
p440
S'then'
p441
S'RB'
p442
S'B-ADVP'
p443
g5
tp444
a(S'randomized'
p445
S'randomize'
p446
S'VBD'
p447
S'B-VP'
p448
g5
tp449
a(S'to'
p450
S'to'
p451
S'TO'
p452
S'B-PP'
p453
g5
tp454
a(S'four'
p455
S'four'
p456
S'CD'
p457
S'B-NP'
p458
g5
tp459
a(S'maintenance'
p460
S'maintenance'
p461
S'NN'
p462
S'I-NP'
p463
g5
tp464
a(S'dose'
p465
S'dose'
p466
S'NN'
p467
S'I-NP'
p468
g5
tp469
a(S'groups'
p470
S'group'
p471
S'NNS'
p472
S'I-NP'
p473
g5
tp474
a(S'of'
p475
S'of'
p476
S'IN'
p477
S'B-PP'
p478
g5
tp479
a(S'rBet'
p480
S'rBet'
p481
S'NN'
p482
S'B-NP'
p483
S'B-protein'
p484
tp485
a(g52
g52
S'NN'
p486
S'I-NP'
p487
S'I-protein'
p488
tp489
a(S'1-FV'
p490
S'1-FV'
p491
S'NN'
p492
S'I-NP'
p493
S'I-protein'
p494
tp495
a(S'and'
p496
S'and'
p497
S'CC'
p498
g5
g5
tp499
a(S'one'
p500
S'one'
p501
S'CD'
p502
S'B-NP'
p503
g5
tp504
a(S'placebo'
p505
S'placebo'
p506
S'NN'
p507
S'I-NP'
p508
g5
tp509
a(S'group'
p510
S'group'
p511
S'NN'
p512
S'I-NP'
p513
g5
tp514
a(S':'
p515
g515
g515
g5
g5
tp516
a(S'20'
p517
S'20'
p518
S'CD'
p519
S'B-NP'
p520
g5
tp521
a(S'\xce\xbcg'
p522
S'\xce\xbcg'
p523
S'NN'
p524
S'I-NP'
p525
g5
tp526
a(g136
g136
g136
g5
g5
tp527
a(S'n'
p528
g528
S'NN'
p529
S'B-NP'
p530
g5
tp531
a(S'='
p532
g532
S'SYM'
p533
S'B-VP'
p534
g5
tp535
a(S'7'
p536
g536
S'CD'
p537
S'B-NP'
p538
g5
tp539
a(g144
g144
g144
g5
g5
tp540
a(g7
g7
g7
g5
g5
tp541
a(S'80'
p542
S'80'
p543
S'CD'
p544
S'B-NP'
p545
g5
tp546
a(S'\xce\xbcg'
p547
S'\xce\xbcg'
p548
S'NN'
p549
S'I-NP'
p550
g5
tp551
a(g136
g136
g136
g5
g5
tp552
a(g528
g528
S'NN'
p553
S'B-NP'
p554
g5
tp555
a(g532
g532
S'SYM'
p556
S'B-VP'
p557
g5
tp558
a(S'8'
p559
g559
S'CD'
p560
S'B-NP'
p561
g5
tp562
a(g144
g144
g144
g5
g5
tp563
a(g7
g7
g7
g5
g5
tp564
a(S'160'
p565
S'160'
p566
S'CD'
p567
S'B-NP'
p568
g5
tp569
a(S'\xce\xbcg'
p570
S'\xce\xbcg'
p571
S'NN'
p572
S'I-NP'
p573
g5
tp574
a(g136
g136
g136
g5
g5
tp575
a(g528
g528
S'NN'
p576
S'B-NP'
p577
g5
tp578
a(g532
g532
S'SYM'
p579
S'B-VP'
p580
g5
tp581
a(g536
g536
S'CD'
p582
S'B-NP'
p583
g5
tp584
a(g144
g144
g144
g5
g5
tp585
a(g7
g7
g7
g5
g5
tp586
a(S'320'
p587
S'320'
p588
S'CD'
p589
S'B-NP'
p590
g5
tp591
a(S'\xce\xbcg'
p592
S'\xce\xbcg'
p593
S'NN'
p594
S'I-NP'
p595
g5
tp596
a(g136
g136
g136
g5
g5
tp597
a(g528
g528
S'NN'
p598
S'B-NP'
p599
g5
tp600
a(g532
g532
S'SYM'
p601
S'B-VP'
p602
g5
tp603
a(g559
g559
S'CD'
p604
S'B-NP'
p605
g5
tp606
a(g144
g144
g144
g5
g5
tp607
a(g7
g7
g7
g5
g5
tp608
a(S'and'
p609
S'and'
p610
S'CC'
p611
g5
g5
tp612
a(S'placebo'
p613
S'placebo'
p614
S'NN'
p615
S'B-NP'
p616
g5
tp617
a(g136
g136
g136
g5
g5
tp618
a(g528
g528
S'NN'
p619
S'B-NP'
p620
g5
tp621
a(g532
g532
S'SYM'
p622
S'B-VP'
p623
g5
tp624
a(g536
g536
S'CD'
p625
S'B-NP'
p626
g5
tp627
a(g144
g144
g144
g5
g5
tp628
a(g85
g85
g85
g5
g5
tp629
a(S'Patients'
p630
S'Patient'
p631
S'NNS'
p632
S'B-NP'
p633
g5
tp634
a(S'were'
p635
S'be'
p636
S'VBD'
p637
S'B-VP'
p638
g5
tp639
a(S'treated'
p640
S'treat'
p641
S'VBN'
p642
S'I-VP'
p643
g5
tp644
a(S'for'
p645
S'for'
p646
S'IN'
p647
S'B-PP'
p648
g5
tp649
a(S'10'
p650
S'10'
p651
S'CD'
p652
S'B-NP'
p653
g5
tp654
a(S'weeks'
p655
S'week'
p656
S'NNS'
p657
S'I-NP'
p658
g5
tp659
a(S'with'
p660
S'with'
p661
S'IN'
p662
S'B-PP'
p663
g5
tp664
a(S'weekly'
p665
S'weekly'
p666
S'JJ'
p667
S'B-NP'
p668
g5
tp669
a(S'injections'
p670
S'injection'
p671
S'NNS'
p672
S'I-NP'
p673
g5
tp674
a(S'and'
p675
S'and'
p676
S'CC'
p677
g5
g5
tp678
a(S'then'
p679
S'then'
p680
S'RB'
p681
S'B-ADJP'
p682
g5
tp683
a(S're-exposed'
p684
S're-exposed'
p685
S'JJ'
p686
S'I-ADJP'
p687
g5
tp688
a(S'in'
p689
S'in'
p690
S'IN'
p691
S'B-PP'
p692
g5
tp693
a(S'the'
p694
S'the'
p695
S'DT'
p696
S'B-NP'
p697
g5
tp698
a(S'EEC.'
p699
S'EEC.'
p700
S'NNP'
p701
S'I-NP'
p702
g5
tp703
a(S'The'
p704
S'The'
p705
S'DT'
p706
S'B-NP'
p707
g5
tp708
a(S'optimal'
p709
S'optimal'
p710
S'JJ'
p711
S'I-NP'
p712
g5
tp713
a(S'dose'
p714
S'dose'
p715
S'NN'
p716
S'I-NP'
p717
g5
tp718
a(S'for'
p719
S'for'
p720
S'IN'
p721
S'B-PP'
p722
g5
tp723
a(S'SIT'
p724
S'SIT'
p725
S'NN'
p726
S'B-NP'
p727
S'B-protein'
p728
tp729
a(S'was'
p730
S'be'
p731
S'VBD'
p732
S'B-VP'
p733
g5
tp734
a(S'assessed'
p735
S'assess'
p736
S'VBN'
p737
S'I-VP'
p738
g5
tp739
a(S'using'
p740
S'use'
p741
S'VBG'
p742
S'B-VP'
p743
g5
tp744
a(S'efficacy'
p745
S'efficacy'
p746
S'NN'
p747
S'B-NP'
p748
g5
tp749
a(S'results'
p750
S'result'
p751
S'NNS'
p752
S'I-NP'
p753
g5
tp754
a(S'from'
p755
S'from'
p756
S'IN'
p757
S'B-PP'
p758
g5
tp759
a(S'the'
p760
S'the'
p761
S'DT'
p762
S'B-NP'
p763
g5
tp764
a(S'EEC'
p765
S'EEC'
p766
S'NN'
p767
S'I-NP'
p768
S'B-cell_type'
p769
tp770
a(g7
g7
g7
g5
g5
tp771
a(S'IgG'
p772
S'IgG'
p773
S'NN'
p774
S'B-NP'
p775
S'B-protein'
p776
tp777
a(S'responses'
p778
S'response'
p779
S'NNS'
p780
S'I-NP'
p781
g5
tp782
a(g7
g7
g7
g5
g5
tp783
a(S'and'
p784
S'and'
p785
S'CC'
p786
g5
g5
tp787
a(S'tolerability'
p788
S'tolerability'
p789
S'NN'
p790
S'B-NP'
p791
g5
tp792
a(g85
g85
g85
g5
g5
tp793
a(S'RESULTS'
p794
S'RESULTS'
p795
S'NNS'
p796
S'B-NP'
p797
g5
tp798
a(S'Thirty-six'
p799
S'Thirty-six'
p800
S'CD'
p801
S'B-NP'
p802
g5
tp803
a(S'patients'
p804
S'patient'
p805
S'NNS'
p806
S'I-NP'
p807
g5
tp808
a(S'were'
p809
S'be'
p810
S'VBD'
p811
S'B-VP'
p812
g5
tp813
a(S'evaluable'
p814
S'evaluable'
p815
S'JJ'
p816
S'B-ADJP'
p817
g5
tp818
a(S'for'
p819
S'for'
p820
S'IN'
p821
S'B-PP'
p822
g5
tp823
a(S'efficacy'
p824
S'efficacy'
p825
S'NN'
p826
S'B-NP'
p827
g5
tp828
a(S'assessment.'
p829
S'assessment.'
p830
S'NN'
p831
S'I-NP'
p832
g5
tp833
a(S'The'
p834
S'The'
p835
S'DT'
p836
S'B-NP'
p837
g5
tp838
a(S'total'
p839
S'total'
p840
S'JJ'
p841
S'I-NP'
p842
g5
tp843
a(S'symptom'
p844
S'symptom'
p845
S'NN'
p846
S'I-NP'
p847
g5
tp848
a(S'score'
p849
S'score'
p850
S'NN'
p851
S'I-NP'
p852
g5
tp853
a(S'significantly'
p854
S'significantly'
p855
S'RB'
p856
S'B-VP'
p857
g5
tp858
a(S'decreased'
p859
S'decrease'
p860
S'VBN'
p861
S'I-VP'
p862
g5
tp863
a(S'in'
p864
S'in'
p865
S'IN'
p866
S'B-PP'
p867
g5
tp868
a(S'all'
p869
S'all'
p870
S'DT'
p871
S'B-NP'
p872
g5
tp873
a(S'active'
p874
S'active'
p875
S'JJ'
p876
S'I-NP'
p877
g5
tp878
a(S'groups'
p879
S'group'
p880
S'NNS'
p881
S'I-NP'
p882
g5
tp883
a(S'compared'
p884
S'compare'
p885
S'VBN'
p886
S'B-PP'
p887
g5
tp888
a(S'with'
p889
S'with'
p890
S'IN'
p891
S'B-PP'
p892
g5
tp893
a(S'placebo'
p894
S'placebo'
p895
S'NN'
p896
S'B-NP'
p897
g5
tp898
a(g136
g136
g136
g5
g5
tp899
a(S'-18.8'
p900
S'-18.8'
p901
S'CD'
p902
S'B-NP'
p903
g5
tp904
a(S'%'
p905
g905
S'NN'
p906
S'I-NP'
p907
g5
tp908
a(S'for'
p909
S'for'
p910
S'IN'
p911
S'B-PP'
p912
g5
tp913
a(S'placebo'
p914
S'placebo'
p915
S'NN'
p916
S'B-NP'
p917
g5
tp918
a(S'patients'
p919
S'patient'
p920
S'NNS'
p921
S'I-NP'
p922
g5
tp923
a(S';'
p924
g924
g515
g5
g5
tp925
a(S'-71.9'
p926
S'-71.9'
p927
S'CD'
p928
S'B-NP'
p929
g5
tp930
a(g905
g905
S'NN'
p931
S'I-NP'
p932
g5
tp933
a(g7
g7
g7
g5
g5
tp934
a(S'P'
p935
g935
S'NN'
p936
S'B-NP'
p937
g5
tp938
a(g532
g532
S'SYM'
p939
S'B-VP'
p940
g5
tp941
a(S'0.0022'
p942
S'0.0022'
p943
S'CD'
p944
S'B-NP'
p945
g5
tp946
a(S'for'
p947
S'for'
p948
S'IN'
p949
S'B-PP'
p950
g5
tp951
a(S'20'
p952
S'20'
p953
S'CD'
p954
S'B-NP'
p955
g5
tp956
a(S'\xce\xbcg'
p957
S'\xce\xbcg'
p958
S'CD'
p959
S'I-NP'
p960
g5
tp961
a(g924
g924
g515
g5
g5
tp962
a(S'-75.6'
p963
S'-75.6'
p964
S'CD'
p965
S'B-NP'
p966
g5
tp967
a(g905
g905
S'NN'
p968
S'I-NP'
p969
g5
tp970
a(g7
g7
g7
g5
g5
tp971
a(g935
g935
S'NN'
p972
S'B-NP'
p973
g5
tp974
a(g532
g532
S'SYM'
p975
S'B-VP'
p976
g5
tp977
a(S'0.0007'
p978
S'0.0007'
p979
S'CD'
p980
S'B-NP'
p981
g5
tp982
a(S'for'
p983
S'for'
p984
S'IN'
p985
S'B-PP'
p986
g5
tp987
a(S'80'
p988
S'80'
p989
S'CD'
p990
S'B-NP'
p991
g5
tp992
a(S'\xce\xbcg'
p993
S'\xce\xbcg'
p994
S'NN'
p995
S'I-NP'
p996
g5
tp997
a(g924
g924
g515
g5
g5
tp998
a(S'-81.8'
p999
S'-81.8'
p1000
S'CD'
p1001
S'B-NP'
p1002
g5
tp1003
a(g905
g905
S'NN'
p1004
S'I-NP'
p1005
g5
tp1006
a(g7
g7
g7
g5
g5
tp1007
a(g935
g935
S'NN'
p1008
S'B-NP'
p1009
g5
tp1010
a(g532
g532
S'SYM'
p1011
S'B-VP'
p1012
g5
tp1013
a(S'0.0009'
p1014
S'0.0009'
p1015
S'CD'
p1016
S'B-NP'
p1017
g5
tp1018
a(S'for'
p1019
S'for'
p1020
S'IN'
p1021
S'B-PP'
p1022
g5
tp1023
a(S'160'
p1024
S'160'
p1025
S'CD'
p1026
S'B-NP'
p1027
g5
tp1028
a(S'\xce\xbcg'
p1029
S'\xce\xbcg'
p1030
S'NN'
p1031
S'I-NP'
p1032
g5
tp1033
a(g924
g924
g515
g5
g5
tp1034
a(S'-78.3'
p1035
S'-78.3'
p1036
S'CD'
p1037
S'B-NP'
p1038
g5
tp1039
a(g905
g905
S'NN'
p1040
S'I-NP'
p1041
g5
tp1042
a(g7
g7
g7
g5
g5
tp1043
a(g935
g935
S'NN'
p1044
S'B-NP'
p1045
g5
tp1046
a(g532
g532
S'SYM'
p1047
S'B-VP'
p1048
g5
tp1049
a(S'0.0003'
p1050
S'0.0003'
p1051
S'CD'
p1052
S'B-NP'
p1053
g5
tp1054
a(S'for'
p1055
S'for'
p1056
S'IN'
p1057
S'B-PP'
p1058
g5
tp1059
a(S'320'
p1060
S'320'
p1061
S'CD'
p1062
S'B-NP'
p1063
g5
tp1064
a(S'\xce\xbcg'
p1065
S'\xce\xbcg'
p1066
S'NN'
p1067
S'I-NP'
p1068
g5
tp1069
a(g144
g144
g144
g5
g5
tp1070
a(g85
g85
g85
g5
g5
tp1071
a(S'IgG1'
p1072
S'IgG1'
p1073
S'NN'
p1074
S'B-NP'
p1075
S'B-protein'
p1076
tp1077
a(S'increased'
p1078
S'increase'
p1079
S'VBD'
p1080
S'B-VP'
p1081
g5
tp1082
a(S'significantly'
p1083
S'significantly'
p1084
S'RB'
p1085
S'B-ADVP'
p1086
g5
tp1087
a(S'in'
p1088
S'in'
p1089
S'IN'
p1090
S'B-PP'
p1091
g5
tp1092
a(S'all'
p1093
S'all'
p1094
S'DT'
p1095
S'B-NP'
p1096
g5
tp1097
a(S'active'
p1098
S'active'
p1099
S'JJ'
p1100
S'I-NP'
p1101
g5
tp1102
a(S'groups'
p1103
S'group'
p1104
S'NNS'
p1105
S'I-NP'
p1106
g5
tp1107
a(S'compared'
p1108
S'compare'
p1109
S'VBN'
p1110
S'B-VP'
p1111
g5
tp1112
a(S'to'
p1113
S'to'
p1114
S'TO'
p1115
S'B-VP'
p1116
g5
tp1117
a(S'placebo.'
p1118
S'placebo.'
p1119
S'VB'
p1120
S'I-VP'
p1121
g5
tp1122
a(S'All'
p1123
S'All'
p1124
S'DT'
p1125
S'B-NP'
p1126
g5
tp1127
a(S'four'
p1128
S'four'
p1129
S'CD'
p1130
S'I-NP'
p1131
g5
tp1132
a(S'active'
p1133
S'active'
p1134
S'JJ'
p1135
S'I-NP'
p1136
g5
tp1137
a(S'doses'
p1138
S'dose'
p1139
S'NNS'
p1140
S'I-NP'
p1141
g5
tp1142
a(S'were'
p1143
S'be'
p1144
S'VBD'
p1145
S'B-VP'
p1146
g5
tp1147
a(S'well'
p1148
S'well'
p1149
S'RB'
p1150
S'I-VP'
p1151
g5
tp1152
a(S'tolerated'
p1153
S'tolerate'
p1154
S'VBN'
p1155
S'I-VP'
p1156
g5
tp1157
a(g7
g7
g7
g5
g5
tp1158
a(S'no'
p1159
S'no'
p1160
S'DT'
p1161
S'B-NP'
p1162
g5
tp1163
a(S'serious'
p1164
S'serious'
p1165
S'JJ'
p1166
S'I-NP'
p1167
g5
tp1168
a(S'adverse'
p1169
S'adverse'
p1170
S'JJ'
p1171
S'I-NP'
p1172
g5
tp1173
a(S'event'
p1174
S'event'
p1175
S'NN'
p1176
S'I-NP'
p1177
g5
tp1178
a(S'occurred'
p1179
S'occur'
p1180
S'VBD'
p1181
S'B-VP'
p1182
g5
tp1183
a(g924
g924
g515
g5
g5
tp1184
a(S'two'
p1185
S'two'
p1186
S'CD'
p1187
S'B-NP'
p1188
g5
tp1189
a(S'Grade'
p1190
S'Grade'
p1191
S'NN'
p1192
S'I-NP'
p1193
g5
tp1194
a(S'II'
p1195
S'II'
p1196
S'CD'
p1197
S'B-NP'
p1198
g5
tp1199
a(S'reactions'
p1200
S'reaction'
p1201
S'NNS'
p1202
S'I-NP'
p1203
g5
tp1204
a(g7
g7
g7
g5
g5
tp1205
a(S'according'
p1206
S'accord'
p1207
S'VBG'
p1208
S'B-PP'
p1209
g5
tp1210
a(S'to'
p1211
S'to'
p1212
S'TO'
p1213
S'B-PP'
p1214
g5
tp1215
a(S'EAACI'
p1216
S'EAACI'
p1217
S'NN'
p1218
S'B-NP'
p1219
g5
tp1220
a(S'classification'
p1221
S'classification'
p1222
S'NN'
p1223
S'I-NP'
p1224
g5
tp1225
a(g7
g7
g7
g5
g5
tp1226
a(S'were'
p1227
S'be'
p1228
S'VBD'
p1229
S'B-VP'
p1230
g5
tp1231
a(S'observed'
p1232
S'observe'
p1233
S'VBN'
p1234
S'I-VP'
p1235
g5
tp1236
a(g7
g7
g7
g5
g5
tp1237
a(S'one'
p1238
S'one'
p1239
S'CD'
p1240
S'B-NP'
p1241
g5
tp1242
a(S'in'
p1243
S'in'
p1244
S'IN'
p1245
S'B-PP'
p1246
g5
tp1247
a(S'each'
p1248
S'each'
p1249
S'DT'
p1250
S'B-NP'
p1251
g5
tp1252
a(S'of'
p1253
S'of'
p1254
S'IN'
p1255
S'B-PP'
p1256
g5
tp1257
a(S'the'
p1258
S'the'
p1259
S'DT'
p1260
S'B-NP'
p1261
g5
tp1262
a(S'160-'
p1263
S'160-'
p1264
S'CD'
p1265
S'I-NP'
p1266
g5
tp1267
a(S'and'
p1268
S'and'
p1269
S'CC'
p1270
S'I-NP'
p1271
g5
tp1272
a(S'320-\xce\xbcg'
p1273
S'320-\xce\xbcg'
p1274
S'JJ'
p1275
S'I-NP'
p1276
g5
tp1277
a(S'groups'
p1278
S'group'
p1279
S'NNS'
p1280
S'I-NP'
p1281
g5
tp1282
a(g85
g85
g85
g5
g5
tp1283
a(S'CONCLUSIONS'
p1284
S'CONCLUSIONS'
p1285
S'NNS'
p1286
S'B-NP'
p1287
g5
tp1288
a(S'Considering'
p1289
S'Consider'
p1290
S'VBG'
p1291
S'B-VP'
p1292
g5
tp1293
a(S'efficacy'
p1294
S'efficacy'
p1295
S'NN'
p1296
S'B-NP'
p1297
g5
tp1298
a(g7
g7
g7
g5
g5
tp1299
a(S'immunological'
p1300
S'immunological'
p1301
S'JJ'
p1302
S'B-NP'
p1303
g5
tp1304
a(S'response'
p1305
S'response'
p1306
S'NN'
p1307
S'I-NP'
p1308
g5
tp1309
a(g7
g7
g7
g5
g5
tp1310
a(S'and'
p1311
S'and'
p1312
S'CC'
p1313
g5
g5
tp1314
a(S'tolerability'
p1315
S'tolerability'
p1316
S'NN'
p1317
S'B-NP'
p1318
g5
tp1319
a(g7
g7
g7
g5
g5
tp1320
a(g107
g107
S'DT'
p1321
S'B-NP'
p1322
g5
tp1323
a(S'maintenance'
p1324
S'maintenance'
p1325
S'NN'
p1326
S'I-NP'
p1327
g5
tp1328
a(S'dose'
p1329
S'dose'
p1330
S'NN'
p1331
S'I-NP'
p1332
g5
tp1333
a(S'of'
p1334
S'of'
p1335
S'IN'
p1336
S'B-PP'
p1337
g5
tp1338
a(S'80'
p1339
S'80'
p1340
S'CD'
p1341
S'B-NP'
p1342
g5
tp1343
a(S'\xce\xbcg'
p1344
S'\xce\xbcg'
p1345
S'NN'
p1346
S'I-NP'
p1347
g5
tp1348
a(S'of'
p1349
S'of'
p1350
S'IN'
p1351
S'B-PP'
p1352
g5
tp1353
a(S'rBet'
p1354
S'rBet'
p1355
S'NN'
p1356
S'B-NP'
p1357
S'B-protein'
p1358
tp1359
a(g52
g52
S'NN'
p1360
S'I-NP'
p1361
S'I-protein'
p1362
tp1363
a(S'1-FV'
p1364
S'1-FV'
p1365
S'NN'
p1366
S'I-NP'
p1367
S'I-protein'
p1368
tp1369
a(S'appears'
p1370
S'appear'
p1371
S'VBZ'
p1372
S'B-VP'
p1373
g5
tp1374
a(S'to'
p1375
S'to'
p1376
S'TO'
p1377
S'I-VP'
p1378
g5
tp1379
a(S'be'
p1380
S'be'
p1381
S'VB'
p1382
S'I-VP'
p1383
g5
tp1384
a(S'the'
p1385
S'the'
p1386
S'DT'
p1387
S'B-NP'
p1388
g5
tp1389
a(S'ideal'
p1390
S'ideal'
p1391
S'JJ'
p1392
S'I-NP'
p1393
g5
tp1394
a(S'dose'
p1395
S'dose'
p1396
S'NN'
p1397
S'I-NP'
p1398
g5
tp1399
a(S'for'
p1400
S'for'
p1401
S'IN'
p1402
S'B-PP'
p1403
g5
tp1404
a(S'allergen'
p1405
S'allergen'
p1406
S'NN'
p1407
S'B-NP'
p1408
g5
tp1409
a(S'immunotherapy'
p1410
S'immunotherapy'
p1411
S'NN'
p1412
S'I-NP'
p1413
g5
tp1414
a(S'in'
p1415
S'in'
p1416
S'IN'
p1417
S'B-PP'
p1418
g5
tp1419
a(S'birch'
p1420
S'birch'
p1421
S'NN'
p1422
S'B-NP'
p1423
g5
tp1424
a(S'pollen'
p1425
S'pollen'
p1426
S'NN'
p1427
S'I-NP'
p1428
g5
tp1429
a(S'allergic'
p1430
S'allergic'
p1431
S'JJ'
p1432
S'B-NP'
p1433
g5
tp1434
a(S'patients'
p1435
S'patient'
p1436
S'NNS'
p1437
S'I-NP'
p1438
g5
tp1439
a(g85
g85
g85
g5
g5
tp1440
a.