(lp0
(S'['
p1
g1
S'('
p2
S'O'
p3
g3
tp4
a(S'Rilmenidine'
p5
S'Rilmenidine'
p6
S'NN'
p7
S'B-NP'
p8
g3
tp9
a(S'sympatholytic'
p10
S'sympatholytic'
p11
S'JJ'
p12
S'I-NP'
p13
g3
tp14
a(S'activity'
p15
S'activity'
p16
S'NN'
p17
S'I-NP'
p18
g3
tp19
a(S'preserves'
p20
S'preserve'
p21
S'VBZ'
p22
S'B-VP'
p23
g3
tp24
a(S'mental'
p25
S'mental'
p26
S'JJ'
p27
S'B-NP'
p28
g3
tp29
a(S'and'
p30
S'and'
p31
S'CC'
p32
S'I-NP'
p33
g3
tp34
a(S'orthostatic'
p35
S'orthostatic'
p36
S'JJ'
p37
S'I-NP'
p38
g3
tp39
a(S'sympathetic'
p40
S'sympathetic'
p41
S'JJ'
p42
S'I-NP'
p43
g3
tp44
a(S'response'
p45
S'response'
p46
S'NN'
p47
S'I-NP'
p48
g3
tp49
a(S'and'
p50
S'and'
p51
S'CC'
p52
S'I-NP'
p53
g3
tp54
a(S'epinephrine'
p55
S'epinephrine'
p56
S'NN'
p57
S'I-NP'
p58
g3
tp59
a(S'secretion'
p60
S'secretion'
p61
S'NN'
p62
S'I-NP'
p63
g3
tp64
a(S']'
p65
g65
S')'
p66
g3
g3
tp67
a(S'.'
p68
g68
g68
g3
g3
tp69
a(S'BACKGROUND'
p70
S'BACKGROUND'
p71
S'NN'
p72
S'B-NP'
p73
g3
tp74
a(S'Heightened'
p75
S'Heighten'
p76
S'VBD'
p77
S'B-VP'
p78
g3
tp79
a(S'central'
p80
S'central'
p81
S'JJ'
p82
S'B-NP'
p83
g3
tp84
a(S'sympathetic'
p85
S'sympathetic'
p86
S'JJ'
p87
S'I-NP'
p88
g3
tp89
a(S'nervous'
p90
S'nervous'
p91
S'JJ'
p92
S'I-NP'
p93
g3
tp94
a(S'outflow'
p95
S'outflow'
p96
S'NN'
p97
S'I-NP'
p98
g3
tp99
a(S'is'
p100
S'be'
p101
S'VBZ'
p102
S'B-VP'
p103
g3
tp104
a(S'common'
p105
S'common'
p106
S'JJ'
p107
S'B-ADJP'
p108
g3
tp109
a(S'in'
p110
S'in'
p111
S'IN'
p112
S'B-PP'
p113
g3
tp114
a(S'essential'
p115
S'essential'
p116
S'JJ'
p117
S'B-NP'
p118
g3
tp119
a(S'hypertension'
p120
S'hypertension'
p121
S'NN'
p122
S'I-NP'
p123
g3
tp124
a(S','
p125
g125
g125
g3
g3
tp126
a(S'contributing'
p127
S'contribute'
p128
S'VBG'
p129
S'B-VP'
p130
g3
tp131
a(S'to'
p132
S'to'
p133
S'TO'
p134
S'B-PP'
p135
g3
tp136
a(S'hypertension'
p137
S'hypertension'
p138
S'NN'
p139
S'B-NP'
p140
g3
tp141
a(S'development'
p142
S'development'
p143
S'NN'
p144
S'I-NP'
p145
g3
tp146
a(S'and'
p147
S'and'
p148
S'CC'
p149
g3
g3
tp150
a(S'perhaps'
p151
S'perhaps'
p152
S'RB'
p153
S'B-ADVP'
p154
g3
tp155
a(S'also'
p156
S'also'
p157
S'RB'
p158
S'B-ADVP'
p159
g3
tp160
a(S'to'
p161
S'to'
p162
S'TO'
p163
S'B-VP'
p164
g3
tp165
a(S'complications.'
p166
S'complications.'
p167
S'VB'
p168
S'I-VP'
p169
g3
tp170
a(S'Acute'
p171
S'Acute'
p172
S'JJ'
p173
S'B-NP'
p174
g3
tp175
a(S'sympathetic'
p176
S'sympathetic'
p177
S'JJ'
p178
S'I-NP'
p179
g3
tp180
a(S'nervous'
p181
S'nervous'
p182
S'JJ'
p183
S'I-NP'
p184
g3
tp185
a(S'activation'
p186
S'activation'
p187
S'NN'
p188
S'I-NP'
p189
g3
tp190
a(S'is'
p191
S'be'
p192
S'VBZ'
p193
S'B-VP'
p194
g3
tp195
a(S'a'
p196
g196
S'DT'
p197
S'B-NP'
p198
g3
tp199
a(S'proven'
p200
S'proven'
p201
S'JJ'
p202
S'I-NP'
p203
g3
tp204
a(S'trigger'
p205
S'trigger'
p206
S'NN'
p207
S'I-NP'
p208
g3
tp209
a(S'for'
p210
S'for'
p211
S'IN'
p212
S'B-PP'
p213
g3
tp214
a(S'adverse'
p215
S'adverse'
p216
S'JJ'
p217
S'B-NP'
p218
g3
tp219
a(S'cardiovascular'
p220
S'cardiovascular'
p221
S'JJ'
p222
S'I-NP'
p223
g3
tp224
a(S'events.'
p225
S'events.'
p226
S'NN'
p227
S'I-NP'
p228
g3
tp229
a(S'Accordingly'
p230
S'Accordingly'
p231
S'RB'
p232
S'B-ADVP'
p233
g3
tp234
a(g125
g125
g125
g3
g3
tp235
a(S'antihypertensive'
p236
S'antihypertensive'
p237
S'JJ'
p238
S'B-NP'
p239
g3
tp240
a(S'drugs'
p241
S'drug'
p242
S'NNS'
p243
S'I-NP'
p244
g3
tp245
a(S'inhibiting'
p246
S'inhibit'
p247
S'VBG'
p248
S'B-VP'
p249
g3
tp250
a(S'sympathetic'
p251
S'sympathetic'
p252
S'JJ'
p253
S'B-NP'
p254
g3
tp255
a(S'outflow'
p256
S'outflow'
p257
S'NN'
p258
S'I-NP'
p259
g3
tp260
a(S'represent'
p261
S'represent'
p262
S'VBP'
p263
S'B-VP'
p264
g3
tp265
a(g196
g196
S'DT'
p266
S'B-NP'
p267
g3
tp268
a(S'theoretically'
p269
S'theoretically'
p270
S'RB'
p271
S'I-NP'
p272
g3
tp273
a(S'attractive'
p274
S'attractive'
p275
S'JJ'
p276
S'I-NP'
p277
g3
tp278
a(S'therapeutic'
p279
S'therapeutic'
p280
S'JJ'
p281
S'I-NP'
p282
g3
tp283
a(S'option'
p284
S'option'
p285
S'NN'
p286
S'I-NP'
p287
g3
tp288
a(g68
g68
g68
g3
g3
tp289
a(S'OBJECTIVES'
p290
S'OBJECTIVES'
p291
S'NNS'
p292
S'B-NP'
p293
g3
tp294
a(S'To'
p295
S'To'
p296
S'TO'
p297
S'B-VP'
p298
g3
tp299
a(S'study'
p300
S'study'
p301
S'VB'
p302
S'I-VP'
p303
g3
tp304
a(S'the'
p305
S'the'
p306
S'DT'
p307
S'B-NP'
p308
g3
tp309
a(S'sympatholytic'
p310
S'sympatholytic'
p311
S'JJ'
p312
S'I-NP'
p313
g3
tp314
a(S'and'
p315
S'and'
p316
S'CC'
p317
S'I-NP'
p318
g3
tp319
a(S'blood'
p320
S'blood'
p321
S'NN'
p322
S'I-NP'
p323
g3
tp324
a(S'pressure'
p325
S'pressure'
p326
S'NN'
p327
S'I-NP'
p328
g3
tp329
a(S'lowering'
p330
S'lower'
p331
S'VBG'
p332
S'B-VP'
p333
g3
tp334
a(S'activity'
p335
S'activity'
p336
S'NN'
p337
S'B-NP'
p338
g3
tp339
a(S'of'
p340
S'of'
p341
S'IN'
p342
S'B-PP'
p343
g3
tp344
a(S'the'
p345
S'the'
p346
S'DT'
p347
S'B-NP'
p348
g3
tp349
a(S'imidazoline'
p350
S'imidazoline'
p351
S'NN'
p352
S'I-NP'
p353
g3
tp354
a(S'binding'
p355
S'binding'
p356
S'NN'
p357
S'I-NP'
p358
g3
tp359
a(S'agent'
p360
S'agent'
p361
S'NN'
p362
S'I-NP'
p363
g3
tp364
a(S'rilmenidine'
p365
S'rilmenidine'
p366
S'NN'
p367
S'I-NP'
p368
g3
tp369
a(S'at'
p370
S'at'
p371
S'IN'
p372
S'B-PP'
p373
g3
tp374
a(S'rest'
p375
S'rest'
p376
S'NN'
p377
S'B-NP'
p378
g3
tp379
a(S'and'
p380
S'and'
p381
S'CC'
p382
g3
g3
tp383
a(S'during'
p384
S'during'
p385
S'IN'
p386
S'B-PP'
p387
g3
tp388
a(S'reflex'
p389
S'reflex'
p390
S'NN'
p391
S'B-NP'
p392
g3
tp393
a(S'sympathetic'
p394
S'sympathetic'
p395
S'JJ'
p396
S'I-NP'
p397
g3
tp398
a(S'activation'
p399
S'activation'
p400
S'NN'
p401
S'I-NP'
p402
g3
tp403
a(g68
g68
g68
g3
g3
tp404
a(S'DESIGN'
p405
S'DESIGN'
p406
S'NN'
p407
S'B-NP'
p408
g3
tp409
a(S'AND'
p410
S'AND'
p411
S'CC'
p412
S'I-NP'
p413
g3
tp414
a(S'METHODS'
p415
S'METHODS'
p416
S'NNS'
p417
S'I-NP'
p418
g3
tp419
a(S'The'
p420
S'The'
p421
S'DT'
p422
S'B-NP'
p423
g3
tp424
a(S'HERA'
p425
S'HERA'
p426
S'NN'
p427
S'I-NP'
p428
g3
tp429
a(S'study'
p430
S'study'
p431
S'NN'
p432
S'I-NP'
p433
g3
tp434
a(g2
g2
g2
g3
g3
tp435
a(S'Hyperium'
p436
S'Hyperium'
p437
S'NN'
p438
S'B-NP'
p439
g3
tp440
a(S'Effect'
p441
S'Effect'
p442
S'NN'
p443
S'I-NP'
p444
g3
tp445
a(S'on'
p446
S'on'
p447
S'IN'
p448
S'B-PP'
p449
g3
tp450
a(S'the'
p451
S'the'
p452
S'DT'
p453
S'B-NP'
p454
g3
tp455
a(S'sympathetic'
p456
S'sympathetic'
p457
S'JJ'
p458
S'I-NP'
p459
g3
tp460
a(S'Reflex'
p461
S'Reflex'
p462
S'NNP'
p463
S'I-NP'
p464
g3
tp465
a(S'activation'
p466
S'activation'
p467
S'NN'
p468
S'I-NP'
p469
g3
tp470
a(S'and'
p471
S'and'
p472
S'CC'
p473
g3
g3
tp474
a(S'Adrenaline'
p475
S'Adrenaline'
p476
S'NN'
p477
S'B-NP'
p478
g3
tp479
a(g66
g66
g66
g3
g3
tp480
a(S'is'
p481
S'be'
p482
S'VBZ'
p483
S'B-VP'
p484
g3
tp485
a(g196
g196
S'DT'
p486
S'B-NP'
p487
g3
tp488
a(S'randomised'
p489
S'randomise'
p490
S'VBN'
p491
S'I-NP'
p492
g3
tp493
a(g125
g125
g125
S'I-NP'
p494
g3
tp495
a(S'double-blind'
p496
S'double-blind'
p497
S'JJ'
p498
S'I-NP'
p499
g3
tp500
a(g125
g125
g125
S'I-NP'
p501
g3
tp502
a(S'6-week'
p503
S'6-week'
p504
S'JJ'
p505
S'I-NP'
p506
g3
tp507
a(S'cross-over'
p508
S'cross-over'
p509
S'JJ'
p510
S'I-NP'
p511
g3
tp512
a(S'trial'
p513
S'trial'
p514
S'NN'
p515
S'I-NP'
p516
g3
tp517
a(g125
g125
g125
g3
g3
tp518
a(S'with'
p519
S'with'
p520
S'IN'
p521
S'B-PP'
p522
g3
tp523
a(g196
g196
S'DT'
p524
S'B-NP'
p525
g3
tp526
a(S'1-week'
p527
S'1-week'
p528
S'JJ'
p529
S'I-NP'
p530
g3
tp531
a(S'placebo'
p532
S'placebo'
p533
S'NN'
p534
S'I-NP'
p535
g3
tp536
a(S'run-in'
p537
S'run-in'
p538
S'JJ'
p539
S'I-NP'
p540
g3
tp541
a(S'period'
p542
S'period'
p543
S'NN'
p544
S'I-NP'
p545
g3
tp546
a(g125
g125
g125
g3
g3
tp547
a(S'two'
p548
S'two'
p549
S'CD'
p550
S'B-NP'
p551
g3
tp552
a(S'2-week'
p553
S'2-week'
p554
S'JJ'
p555
S'I-NP'
p556
g3
tp557
a(S'active'
p558
S'active'
p559
S'JJ'
p560
S'I-NP'
p561
g3
tp562
a(S'treatment'
p563
S'treatment'
p564
S'NN'
p565
S'I-NP'
p566
g3
tp567
a(S'intervals'
p568
S'interval'
p569
S'NNS'
p570
S'I-NP'
p571
g3
tp572
a(g2
g2
g2
g3
g3
tp573
a(S'rilmenidine'
p574
S'rilmenidine'
p575
S'NN'
p576
S'B-NP'
p577
g3
tp578
a(S'1'
p579
g579
S'CD'
p580
S'I-NP'
p581
g3
tp582
a(S'mg'
p583
S'mg'
p584
S'NN'
p585
S'I-NP'
p586
g3
tp587
a(S'bid'
p588
S'bid'
p589
S'RB'
p590
S'B-ADVP'
p591
g3
tp592
a(g125
g125
g125
g3
g3
tp593
a(S'placebo'
p594
S'placebo'
p595
S'NN'
p596
S'B-NP'
p597
g3
tp598
a(g66
g66
g66
g3
g3
tp599
a(S'and'
p600
S'and'
p601
S'CC'
p602
g3
g3
tp603
a(S'intervening'
p604
S'intervene'
p605
S'VBG'
p606
S'B-VP'
p607
g3
tp608
a(S'one'
p609
S'one'
p610
S'CD'
p611
S'B-NP'
p612
g3
tp613
a(S'week'
p614
S'week'
p615
S'NN'
p616
S'I-NP'
p617
g3
tp618
a(S'placebo'
p619
S'placebo'
p620
S'NN'
p621
S'I-NP'
p622
g3
tp623
a(S'wash-out.'
p624
S'wash-out.'
p625
S'NN'
p626
S'I-NP'
p627
g3
tp628
a(S'In'
p629
S'In'
p630
S'IN'
p631
S'B-PP'
p632
g3
tp633
a(S'15'
p634
S'15'
p635
S'CD'
p636
S'B-NP'
p637
g3
tp638
a(S'hypertensive'
p639
S'hypertensive'
p640
S'JJ'
p641
S'I-NP'
p642
g3
tp643
a(S'patients'
p644
S'patient'
p645
S'NNS'
p646
S'I-NP'
p647
g3
tp648
a(g125
g125
g125
g3
g3
tp649
a(S'noradrenaline'
p650
S'noradrenaline'
p651
S'NN'
p652
S'B-NP'
p653
g3
tp654
a(S'and'
p655
S'and'
p656
S'CC'
p657
S'I-NP'
p658
g3
tp659
a(S'adrenaline'
p660
S'adrenaline'
p661
S'NN'
p662
S'I-NP'
p663
g3
tp664
a(S'plasma'
p665
S'plasma'
p666
S'NN'
p667
S'I-NP'
p668
g3
tp669
a(S'kinetics'
p670
S'kinetic'
p671
S'NNS'
p672
S'I-NP'
p673
g3
tp674
a(S'and'
p675
S'and'
p676
S'CC'
p677
g3
g3
tp678
a(S'intra-arterial'
p679
S'intra-arterial'
p680
S'JJ'
p681
S'B-NP'
p682
g3
tp683
a(S'blood'
p684
S'blood'
p685
S'NN'
p686
S'I-NP'
p687
g3
tp688
a(S'pressure'
p689
S'pressure'
p690
S'NN'
p691
S'I-NP'
p692
g3
tp693
a(S'measurements'
p694
S'measurement'
p695
S'NNS'
p696
S'I-NP'
p697
g3
tp698
a(S'were'
p699
S'be'
p700
S'VBD'
p701
S'B-VP'
p702
g3
tp703
a(S'performed'
p704
S'perform'
p705
S'VBN'
p706
S'I-VP'
p707
g3
tp708
a(S'at'
p709
S'at'
p710
S'IN'
p711
S'B-PP'
p712
g3
tp713
a(S'rest'
p714
S'rest'
p715
S'NN'
p716
S'B-NP'
p717
g3
tp718
a(g125
g125
g125
g3
g3
tp719
a(S'after'
p720
S'after'
p721
S'IN'
p722
S'B-PP'
p723
g3
tp724
a(S'mental'
p725
S'mental'
p726
S'JJ'
p727
S'B-NP'
p728
g3
tp729
a(S'stress'
p730
S'stress'
p731
S'NN'
p732
S'I-NP'
p733
g3
tp734
a(g2
g2
g2
g3
g3
tp735
a(S'difficult'
p736
S'difficult'
p737
S'JJ'
p738
S'B-NP'
p739
g3
tp740
a(S'mental'
p741
S'mental'
p742
S'JJ'
p743
S'I-NP'
p744
g3
tp745
a(S'arithmetic'
p746
S'arithmetic'
p747
S'JJ'
p748
S'I-NP'
p749
g3
tp750
a(g66
g66
g66
g3
g3
tp751
a(S'and'
p752
S'and'
p753
S'CC'
p754
g3
g3
tp755
a(S'during'
p756
S'during'
p757
S'IN'
p758
S'B-PP'
p759
g3
tp760
a(S'head-up'
p761
S'head-up'
p762
S'JJ'
p763
S'B-NP'
p764
g3
tp765
a(S'tilting'
p766
S'tilting'
p767
S'NN'
p768
S'I-NP'
p769
g3
tp770
a(g125
g125
g125
g3
g3
tp771
a(S'at'
p772
S'at'
p773
S'IN'
p774
S'B-PP'
p775
g3
tp776
a(S'the'
p777
S'the'
p778
S'DT'
p779
S'B-NP'
p780
g3
tp781
a(S'end'
p782
S'end'
p783
S'NN'
p784
S'I-NP'
p785
g3
tp786
a(S'of'
p787
S'of'
p788
S'IN'
p789
S'B-PP'
p790
g3
tp791
a(S'the'
p792
S'the'
p793
S'DT'
p794
S'B-NP'
p795
g3
tp796
a(S'2-week'
p797
S'2-week'
p798
S'JJ'
p799
S'I-NP'
p800
g3
tp801
a(S'dosing'
p802
S'dosing'
p803
S'NN'
p804
S'I-NP'
p805
g3
tp806
a(S'periods'
p807
S'period'
p808
S'NNS'
p809
S'I-NP'
p810
g3
tp811
a(g68
g68
g68
g3
g3
tp812
a(S'RESULTS'
p813
S'RESULTS'
p814
S'NNS'
p815
S'B-NP'
p816
g3
tp817
a(S'The'
p818
S'The'
p819
S'DT'
p820
S'B-NP'
p821
g3
tp822
a(S'noradrenaline'
p823
S'noradrenaline'
p824
S'NN'
p825
S'I-NP'
p826
g3
tp827
a(S'spillover'
p828
S'spillover'
p829
S'NN'
p830
S'I-NP'
p831
g3
tp832
a(S'rate'
p833
S'rate'
p834
S'NN'
p835
S'I-NP'
p836
g3
tp837
a(g125
g125
g125
g3
g3
tp838
a(S'indicative'
p839
S'indicative'
p840
S'JJ'
p841
S'B-ADJP'
p842
g3
tp843
a(S'of'
p844
S'of'
p845
S'IN'
p846
S'B-PP'
p847
g3
tp848
a(S'whole'
p849
S'whole'
p850
S'JJ'
p851
S'B-NP'
p852
g3
tp853
a(S'body'
p854
S'body'
p855
S'NN'
p856
S'I-NP'
p857
g3
tp858
a(S'sympathetic'
p859
S'sympathetic'
p860
S'JJ'
p861
S'I-NP'
p862
g3
tp863
a(S'activity'
p864
S'activity'
p865
S'NN'
p866
S'I-NP'
p867
g3
tp868
a(g125
g125
g125
g3
g3
tp869
a(S'was'
p870
S'be'
p871
S'VBD'
p872
S'B-VP'
p873
g3
tp874
a(S'reduced'
p875
S'reduce'
p876
S'VBN'
p877
S'I-VP'
p878
g3
tp879
a(S'35'
p880
S'35'
p881
S'CD'
p882
S'B-NP'
p883
g3
tp884
a(S'%'
p885
g885
S'NN'
p886
S'I-NP'
p887
g3
tp888
a(S'by'
p889
S'by'
p890
S'IN'
p891
S'B-PP'
p892
g3
tp893
a(S'rilmenidine'
p894
S'rilmenidine'
p895
S'NN'
p896
S'B-NP'
p897
g3
tp898
a(S'at'
p899
S'at'
p900
S'IN'
p901
S'B-PP'
p902
g3
tp903
a(S'rest'
p904
S'rest'
p905
S'NN'
p906
S'B-NP'
p907
g3
tp908
a(g2
g2
g2
g3
g3
tp909
a(S'p'
p910
g910
S'NN'
p911
S'B-NP'
p912
g3
tp913
a(S'<'
p914
g914
S'SYM'
p915
g3
g3
tp916
a(S'0.01'
p917
S'0.01'
p918
S'CD'
p919
S'B-NP'
p920
g3
tp921
a(g66
g66
g66
g3
g3
tp922
a(S'and'
p923
S'and'
p924
S'CC'
p925
g3
g3
tp926
a(S'remained'
p927
S'remain'
p928
S'VBD'
p929
S'B-VP'
p930
g3
tp931
a(S'significantly'
p932
S'significantly'
p933
S'RB'
p934
S'B-ADJP'
p935
g3
tp936
a(S'lower'
p937
S'low'
p938
S'JJR'
p939
S'I-ADJP'
p940
g3
tp941
a(S'during'
p942
S'during'
p943
S'IN'
p944
S'B-PP'
p945
g3
tp946
a(S'mental'
p947
S'mental'
p948
S'JJ'
p949
S'B-NP'
p950
g3
tp951
a(S'stress'
p952
S'stress'
p953
S'NN'
p954
S'I-NP'
p955
g3
tp956
a(S'and'
p957
S'and'
p958
S'CC'
p959
S'I-NP'
p960
g3
tp961
a(S'tilting'
p962
S'tilting'
p963
S'NN'
p964
S'I-NP'
p965
g3
tp966
a(g125
g125
g125
g3
g3
tp967
a(S'although'
p968
S'although'
p969
S'IN'
p970
S'B-SBAR'
p971
g3
tp972
a(S'the'
p973
S'the'
p974
S'DT'
p975
S'B-NP'
p976
g3
tp977
a(S'increases'
p978
S'increase'
p979
S'NNS'
p980
S'I-NP'
p981
g3
tp982
a(S'in'
p983
S'in'
p984
S'IN'
p985
S'B-PP'
p986
g3
tp987
a(S'noradrenaline'
p988
S'noradrenaline'
p989
S'NN'
p990
S'B-NP'
p991
g3
tp992
a(S'spillover'
p993
S'spillover'
p994
S'NN'
p995
S'I-NP'
p996
g3
tp997
a(S'with'
p998
S'with'
p999
S'IN'
p1000
S'B-PP'
p1001
g3
tp1002
a(S'both'
p1003
S'both'
p1004
S'DT'
p1005
S'B-NP'
p1006
g3
tp1007
a(S'stimuli'
p1008
S'stimulus'
p1009
S'NNS'
p1010
S'I-NP'
p1011
g3
tp1012
a(S'were'
p1013
S'be'
p1014
S'VBD'
p1015
S'B-VP'
p1016
g3
tp1017
a(S'preserved.'
p1018
S'preserved.'
p1019
S'RB'
p1020
S'B-ADVP'
p1021
g3
tp1022
a(S'The'
p1023
S'The'
p1024
S'DT'
p1025
S'B-NP'
p1026
g3
tp1027
a(S'effects'
p1028
S'effect'
p1029
S'NNS'
p1030
S'I-NP'
p1031
g3
tp1032
a(S'on'
p1033
S'on'
p1034
S'IN'
p1035
S'B-PP'
p1036
g3
tp1037
a(S'intraarterial'
p1038
S'intraarterial'
p1039
S'JJ'
p1040
S'B-NP'
p1041
g3
tp1042
a(S'blood'
p1043
S'blood'
p1044
S'NN'
p1045
S'I-NP'
p1046
g3
tp1047
a(S'pressure'
p1048
S'pressure'
p1049
S'NN'
p1050
S'I-NP'
p1051
g3
tp1052
a(S'ran'
p1053
S'run'
p1054
S'VBD'
p1055
S'B-VP'
p1056
g3
tp1057
a(S'in'
p1058
S'in'
p1059
S'IN'
p1060
S'B-PP'
p1061
g3
tp1062
a(S'parallel'
p1063
S'parallel'
p1064
S'NN'
p1065
S'B-NP'
p1066
g3
tp1067
a(g125
g125
g125
g3
g3
tp1068
a(g196
g196
S'DT'
p1069
S'B-NP'
p1070
g3
tp1071
a(S'fall'
p1072
S'fall'
p1073
S'NN'
p1074
S'I-NP'
p1075
g3
tp1076
a(S'in'
p1077
S'in'
p1078
S'IN'
p1079
S'B-PP'
p1080
g3
tp1081
a(S'supine'
p1082
S'supine'
p1083
S'NN'
p1084
S'B-NP'
p1085
g3
tp1086
a(S'resting'
p1087
S'rest'
p1088
S'VBG'
p1089
S'B-NP'
p1090
g3
tp1091
a(S'pressure'
p1092
S'pressure'
p1093
S'NN'
p1094
S'I-NP'
p1095
g3
tp1096
a(g125
g125
g125
g3
g3
tp1097
a(S'but'
p1098
S'but'
p1099
S'CC'
p1100
g3
g3
tp1101
a(S'no'
p1102
S'no'
p1103
S'DT'
p1104
S'B-NP'
p1105
g3
tp1106
a(S'reduction'
p1107
S'reduction'
p1108
S'NN'
p1109
S'I-NP'
p1110
g3
tp1111
a(S'in'
p1112
S'in'
p1113
S'IN'
p1114
S'B-PP'
p1115
g3
tp1116
a(S'BP'
p1117
S'BP'
p1118
S'NN'
p1119
S'B-NP'
p1120
g3
tp1121
a(S'rise'
p1122
S'rise'
p1123
S'NN'
p1124
S'I-NP'
p1125
g3
tp1126
a(S'during'
p1127
S'during'
p1128
S'IN'
p1129
S'B-PP'
p1130
g3
tp1131
a(S'mental'
p1132
S'mental'
p1133
S'JJ'
p1134
S'B-NP'
p1135
g3
tp1136
a(S'stress'
p1137
S'stress'
p1138
S'NN'
p1139
S'I-NP'
p1140
g3
tp1141
a(S'and'
p1142
S'and'
p1143
S'CC'
p1144
g3
g3
tp1145
a(g196
g196
S'DT'
p1146
S'B-NP'
p1147
g3
tp1148
a(S'lack'
p1149
S'lack'
p1150
S'NN'
p1151
S'I-NP'
p1152
g3
tp1153
a(S'of'
p1154
S'of'
p1155
S'IN'
p1156
S'B-PP'
p1157
g3
tp1158
a(S'fall'
p1159
S'fall'
p1160
S'NN'
p1161
S'B-NP'
p1162
g3
tp1163
a(S'in'
p1164
S'in'
p1165
S'IN'
p1166
S'B-PP'
p1167
g3
tp1168
a(S'BP'
p1169
S'BP'
p1170
S'NN'
p1171
S'B-NP'
p1172
g3
tp1173
a(S'with'
p1174
S'with'
p1175
S'IN'
p1176
S'B-PP'
p1177
g3
tp1178
a(S'tilting.'
p1179
S'tilting.'
p1180
S'NN'
p1181
S'B-NP'
p1182
g3
tp1183
a(S'On'
p1184
S'On'
p1185
S'IN'
p1186
S'B-PP'
p1187
g3
tp1188
a(S'placebo'
p1189
S'placebo'
p1190
S'NN'
p1191
S'B-NP'
p1192
g3
tp1193
a(g125
g125
g125
g3
g3
tp1194
a(S'adrenaline'
p1195
S'adrenaline'
p1196
S'NN'
p1197
S'B-NP'
p1198
g3
tp1199
a(S'secretion'
p1200
S'secretion'
p1201
S'NN'
p1202
S'I-NP'
p1203
g3
tp1204
a(S'was'
p1205
S'be'
p1206
S'VBD'
p1207
S'B-VP'
p1208
g3
tp1209
a(S'162'
p1210
S'162'
p1211
S'CD'
p1212
S'B-NP'
p1213
g3
tp1214
a(S'+/-'
p1215
S'+/-'
p1216
S'SYM'
p1217
S'I-NP'
p1218
g3
tp1219
a(S'27'
p1220
S'27'
p1221
S'CD'
p1222
S'I-NP'
p1223
g3
tp1224
a(S'ng/min'
p1225
S'ng/min'
p1226
S'NN'
p1227
S'I-NP'
p1228
g3
tp1229
a(g2
g2
g2
g3
g3
tp1230
a(S'mean'
p1231
S'mean'
p1232
S'NN'
p1233
S'B-NP'
p1234
g3
tp1235
a(g125
g125
g125
g3
g3
tp1236
a(S'SE'
p1237
S'SE'
p1238
S'NN'
p1239
S'B-NP'
p1240
S'B-protein'
p1241
tp1242
a(g66
g66
g66
g3
g3
tp1243
a(S'at'
p1244
S'at'
p1245
S'IN'
p1246
S'B-PP'
p1247
g3
tp1248
a(S'rest'
p1249
S'rest'
p1250
S'NN'
p1251
S'B-NP'
p1252
g3
tp1253
a(g125
g125
g125
g3
g3
tp1254
a(S'increased'
p1255
S'increase'
p1256
S'VBN'
p1257
S'B-VP'
p1258
g3
tp1259
a(S'by'
p1260
S'by'
p1261
S'IN'
p1262
S'B-PP'
p1263
g3
tp1264
a(S'77'
p1265
S'77'
p1266
S'CD'
p1267
S'B-NP'
p1268
g3
tp1269
a(S'+/-'
p1270
S'+/-'
p1271
S'SYM'
p1272
S'I-NP'
p1273
g3
tp1274
a(S'42'
p1275
S'42'
p1276
S'CD'
p1277
S'I-NP'
p1278
g3
tp1279
a(S'ng/min'
p1280
S'ng/min'
p1281
S'NN'
p1282
S'I-NP'
p1283
g3
tp1284
a(S'with'
p1285
S'with'
p1286
S'IN'
p1287
S'B-PP'
p1288
g3
tp1289
a(S'mental'
p1290
S'mental'
p1291
S'JJ'
p1292
S'B-NP'
p1293
g3
tp1294
a(S'stress'
p1295
S'stress'
p1296
S'NN'
p1297
S'I-NP'
p1298
g3
tp1299
a(g2
g2
g2
g3
g3
tp1300
a(S'p=0.019'
p1301
S'p=0.019'
p1302
S'NN'
p1303
S'B-NP'
p1304
g3
tp1305
a(g66
g66
g66
g3
g3
tp1306
a(S'and'
p1307
S'and'
p1308
S'CC'
p1309
g3
g3
tp1310
a(S'was'
p1311
S'be'
p1312
S'VBD'
p1313
S'B-VP'
p1314
g3
tp1315
a(S'unchanged'
p1316
S'unchanged'
p1317
S'JJ'
p1318
S'B-ADJP'
p1319
g3
tp1320
a(S'with'
p1321
S'with'
p1322
S'IN'
p1323
S'B-PP'
p1324
g3
tp1325
a(S'tilting.'
p1326
S'tilting.'
p1327
S'NN'
p1328
S'B-NP'
p1329
g3
tp1330
a(S'Rilmenidine'
p1331
S'Rilmenidine'
p1332
S'NN'
p1333
S'I-NP'
p1334
g3
tp1335
a(S'left'
p1336
S'leave'
p1337
S'VBD'
p1338
S'B-VP'
p1339
g3
tp1340
a(S'adrenaline'
p1341
S'adrenaline'
p1342
S'NN'
p1343
S'B-NP'
p1344
g3
tp1345
a(S'secretion'
p1346
S'secretion'
p1347
S'NN'
p1348
S'I-NP'
p1349
g3
tp1350
a(S'untouched'
p1351
S'untouched'
p1352
S'JJ'
p1353
S'B-ADJP'
p1354
g3
tp1355
a(S'under'
p1356
S'under'
p1357
S'IN'
p1358
S'B-PP'
p1359
g3
tp1360
a(S'all'
p1361
S'all'
p1362
S'DT'
p1363
S'B-NP'
p1364
g3
tp1365
a(S'conditions'
p1366
S'condition'
p1367
S'NNS'
p1368
S'I-NP'
p1369
g3
tp1370
a(g68
g68
g68
g3
g3
tp1371
a(S'CONCLUSIONS'
p1372
S'CONCLUSIONS'
p1373
S'NNS'
p1374
S'B-NP'
p1375
g3
tp1376
a(S'This'
p1377
S'This'
p1378
S'DT'
p1379
S'B-NP'
p1380
g3
tp1381
a(S'study'
p1382
S'study'
p1383
S'NN'
p1384
S'I-NP'
p1385
g3
tp1386
a(S'confirms'
p1387
S'confirm'
p1388
S'VBZ'
p1389
S'B-VP'
p1390
g3
tp1391
a(g196
g196
S'DT'
p1392
S'B-NP'
p1393
g3
tp1394
a(S'sympatholytic'
p1395
S'sympatholytic'
p1396
S'JJ'
p1397
S'I-NP'
p1398
g3
tp1399
a(S'effect'
p1400
S'effect'
p1401
S'NN'
p1402
S'I-NP'
p1403
g3
tp1404
a(S'of'
p1405
S'of'
p1406
S'IN'
p1407
S'B-PP'
p1408
g3
tp1409
a(S'rilmenidine'
p1410
S'rilmenidine'
p1411
S'NN'
p1412
S'B-NP'
p1413
g3
tp1414
a(S'during'
p1415
S'during'
p1416
S'IN'
p1417
S'B-PP'
p1418
g3
tp1419
a(S'supine'
p1420
S'supine'
p1421
S'NN'
p1422
S'B-NP'
p1423
g3
tp1424
a(S'rest'
p1425
S'rest'
p1426
S'NN'
p1427
S'I-NP'
p1428
g3
tp1429
a(S'but'
p1430
S'but'
p1431
S'CC'
p1432
g3
g3
tp1433
a(S'demonstrates'
p1434
S'demonstrate'
p1435
S'VBZ'
p1436
S'B-VP'
p1437
g3
tp1438
a(S'that'
p1439
S'that'
p1440
S'IN'
p1441
S'B-SBAR'
p1442
g3
tp1443
a(S'sympathetic'
p1444
S'sympathetic'
p1445
S'JJ'
p1446
S'B-NP'
p1447
g3
tp1448
a(S'responses'
p1449
S'response'
p1450
S'NNS'
p1451
S'I-NP'
p1452
g3
tp1453
a(S'during'
p1454
S'during'
p1455
S'IN'
p1456
S'B-PP'
p1457
g3
tp1458
a(S'mental'
p1459
S'mental'
p1460
S'JJ'
p1461
S'B-NP'
p1462
g3
tp1463
a(S'stress'
p1464
S'stress'
p1465
S'NN'
p1466
S'I-NP'
p1467
g3
tp1468
a(S'and'
p1469
S'and'
p1470
S'CC'
p1471
S'I-NP'
p1472
g3
tp1473
a(S'tilting'
p1474
S'tilting'
p1475
S'NN'
p1476
S'I-NP'
p1477
g3
tp1478
a(S'are'
p1479
S'be'
p1480
S'VBP'
p1481
S'B-VP'
p1482
g3
tp1483
a(S'preserved'
p1484
S'preserve'
p1485
S'VBN'
p1486
S'I-VP'
p1487
g3
tp1488
a(g125
g125
g125
g3
g3
tp1489
a(S'the'
p1490
S'the'
p1491
S'DT'
p1492
S'B-NP'
p1493
g3
tp1494
a(S'latter'
p1495
S'latter'
p1496
S'JJ'
p1497
S'I-NP'
p1498
g3
tp1499
a(S'underlying'
p1500
S'underlie'
p1501
S'VBG'
p1502
S'B-VP'
p1503
g3
tp1504
a(g196
g196
S'DT'
p1505
S'B-NP'
p1506
g3
tp1507
a(S'perhaps'
p1508
S'perhaps'
p1509
S'RB'
p1510
S'I-NP'
p1511
g3
tp1512
a(S'surprising'
p1513
S'surprising'
p1514
S'JJ'
p1515
S'I-NP'
p1516
g3
tp1517
a(S'absence'
p1518
S'absence'
p1519
S'NN'
p1520
S'I-NP'
p1521
g3
tp1522
a(S'of'
p1523
S'of'
p1524
S'IN'
p1525
S'B-PP'
p1526
g3
tp1527
a(S'postural'
p1528
S'postural'
p1529
S'JJ'
p1530
S'B-NP'
p1531
g3
tp1532
a(S'hypotension'
p1533
S'hypotension'
p1534
S'NN'
p1535
S'I-NP'
p1536
g3
tp1537
a(S'on'
p1538
S'on'
p1539
S'IN'
p1540
S'B-PP'
p1541
g3
tp1542
a(S'the'
p1543
S'the'
p1544
S'DT'
p1545
S'B-NP'
p1546
g3
tp1547
a(S'drug.'
p1548
S'drug.'
p1549
S'NN'
p1550
S'I-NP'
p1551
g3
tp1552
a(S'The'
p1553
S'The'
p1554
S'DT'
p1555
S'B-NP'
p1556
g3
tp1557
a(S'absence'
p1558
S'absence'
p1559
S'NN'
p1560
S'I-NP'
p1561
g3
tp1562
a(S'of'
p1563
S'of'
p1564
S'IN'
p1565
S'B-PP'
p1566
g3
tp1567
a(S'suppression'
p1568
S'suppression'
p1569
S'NN'
p1570
S'B-NP'
p1571
g3
tp1572
a(S'of'
p1573
S'of'
p1574
S'IN'
p1575
S'B-PP'
p1576
g3
tp1577
a(S'reflexive'
p1578
S'reflexive'
p1579
S'JJ'
p1580
S'B-NP'
p1581
g3
tp1582
a(S'sympathetic'
p1583
S'sympathetic'
p1584
S'JJ'
p1585
S'I-NP'
p1586
g3
tp1587
a(S'responses'
p1588
S'response'
p1589
S'NNS'
p1590
S'I-NP'
p1591
g3
tp1592
a(S'contrasts'
p1593
S'contrast'
p1594
S'VBZ'
p1595
S'B-VP'
p1596
g3
tp1597
a(S'with'
p1598
S'with'
p1599
S'IN'
p1600
S'B-PP'
p1601
g3
tp1602
a(S'the'
p1603
S'the'
p1604
S'DT'
p1605
S'B-NP'
p1606
g3
tp1607
a(S'effects'
p1608
S'effect'
p1609
S'NNS'
p1610
S'I-NP'
p1611
g3
tp1612
a(S'of'
p1613
S'of'
p1614
S'IN'
p1615
S'B-PP'
p1616
g3
tp1617
a(S'rilmenidine'
p1618
S'rilmenidine'
p1619
S'NN'
p1620
S'B-NP'
p1621
g3
tp1622
a(S'in'
p1623
S'in'
p1624
S'IN'
p1625
S'B-PP'
p1626
g3
tp1627
a(S'experimental'
p1628
S'experimental'
p1629
S'JJ'
p1630
S'B-NP'
p1631
g3
tp1632
a(S'animals'
p1633
S'animal'
p1634
S'NNS'
p1635
S'I-NP'
p1636
g3
tp1637
a(g125
g125
g125
g3
g3
tp1638
a(S'and'
p1639
S'and'
p1640
S'CC'
p1641
g3
g3
tp1642
a(S'emphasises'
p1643
S'emphasise'
p1644
S'VBZ'
p1645
S'B-VP'
p1646
g3
tp1647
a(S'the'
p1648
S'the'
p1649
S'DT'
p1650
S'B-NP'
p1651
g3
tp1652
a(S'previously'
p1653
S'previously'
p1654
S'RB'
p1655
S'I-NP'
p1656
g3
tp1657
a(S'demonstrated'
p1658
S'demonstrate'
p1659
S'VBN'
p1660
S'I-NP'
p1661
g3
tp1662
a(S'unique'
p1663
S'unique'
p1664
S'JJ'
p1665
S'I-NP'
p1666
g3
tp1667
a(S'importance'
p1668
S'importance'
p1669
S'NN'
p1670
S'I-NP'
p1671
g3
tp1672
a(S'in'
p1673
S'in'
p1674
S'IN'
p1675
S'B-PP'
p1676
g3
tp1677
a(S'humans'
p1678
S'human'
p1679
S'NNS'
p1680
S'B-NP'
p1681
g3
tp1682
a(S'of'
p1683
S'of'
p1684
S'IN'
p1685
S'B-PP'
p1686
g3
tp1687
a(S'suprabulbar'
p1688
S'suprabulbar'
p1689
S'JJ'
p1690
S'B-NP'
p1691
g3
tp1692
a(S'noradrenergic'
p1693
S'noradrenergic'
p1694
S'JJ'
p1695
S'I-NP'
p1696
g3
tp1697
a(S'neuronal'
p1698
S'neuronal'
p1699
S'JJ'
p1700
S'I-NP'
p1701
g3
tp1702
a(S'projections'
p1703
S'projection'
p1704
S'NNS'
p1705
S'I-NP'
p1706
g3
tp1707
a(S'from'
p1708
S'from'
p1709
S'IN'
p1710
S'B-PP'
p1711
g3
tp1712
a(S'the'
p1713
S'the'
p1714
S'DT'
p1715
S'B-NP'
p1716
g3
tp1717
a(S'brainstem'
p1718
S'brainstem'
p1719
S'NN'
p1720
S'I-NP'
p1721
g3
tp1722
a(g125
g125
g125
g3
g3
tp1723
a(S'which'
p1724
S'which'
p1725
S'WDT'
p1726
S'B-NP'
p1727
g3
tp1728
a(S'are'
p1729
S'be'
p1730
S'VBP'
p1731
S'B-VP'
p1732
g3
tp1733
a(S'inhibited'
p1734
S'inhibit'
p1735
S'VBN'
p1736
S'I-VP'
p1737
g3
tp1738
a(S'by'
p1739
S'by'
p1740
S'IN'
p1741
S'B-PP'
p1742
g3
tp1743
a(S'imidazoline'
p1744
S'imidazoline'
p1745
S'NN'
p1746
S'B-NP'
p1747
g3
tp1748
a(S'binding'
p1749
S'binding'
p1750
S'NN'
p1751
S'I-NP'
p1752
g3
tp1753
a(S'agents'
p1754
S'agent'
p1755
S'NNS'
p1756
S'I-NP'
p1757
g3
tp1758
a(g125
g125
g125
g3
g3
tp1759
a(S'in'
p1760
S'in'
p1761
S'IN'
p1762
S'B-PP'
p1763
g3
tp1764
a(S'regulating'
p1765
S'regulate'
p1766
S'VBG'
p1767
S'B-VP'
p1768
g3
tp1769
a(S'tonic'
p1770
S'tonic'
p1771
S'JJ'
p1772
S'B-NP'
p1773
g3
tp1774
a(S'sympathetic'
p1775
S'sympathetic'
p1776
S'JJ'
p1777
S'I-NP'
p1778
g3
tp1779
a(S'activity'
p1780
S'activity'
p1781
S'NN'
p1782
S'I-NP'
p1783
g3
tp1784
a(S'in'
p1785
S'in'
p1786
S'IN'
p1787
S'B-PP'
p1788
g3
tp1789
a(S'essential'
p1790
S'essential'
p1791
S'JJ'
p1792
S'B-NP'
p1793
g3
tp1794
a(S'hypertension.'
p1795
S'hypertension.'
p1796
S'NN'
p1797
S'I-NP'
p1798
g3
tp1799
a(S'Sympathetic'
p1800
S'Sympathetic'
p1801
S'JJ'
p1802
S'I-NP'
p1803
g3
tp1804
a(S'nervous'
p1805
S'nervous'
p1806
S'JJ'
p1807
S'I-NP'
p1808
g3
tp1809
a(S'inhibition'
p1810
S'inhibition'
p1811
S'NN'
p1812
S'I-NP'
p1813
g3
tp1814
a(S'with'
p1815
S'with'
p1816
S'IN'
p1817
S'B-PP'
p1818
g3
tp1819
a(S'rilmenidine'
p1820
S'rilmenidine'
p1821
S'NN'
p1822
S'B-NP'
p1823
g3
tp1824
a(S'contrasted'
p1825
S'contrast'
p1826
S'VBN'
p1827
S'B-VP'
p1828
g3
tp1829
a(S'with'
p1830
S'with'
p1831
S'IN'
p1832
S'B-PP'
p1833
g3
tp1834
a(S'an'
p1835
S'an'
p1836
S'DT'
p1837
S'B-NP'
p1838
g3
tp1839
a(S'absence'
p1840
S'absence'
p1841
S'NN'
p1842
S'I-NP'
p1843
g3
tp1844
a(S'of'
p1845
S'of'
p1846
S'IN'
p1847
S'B-PP'
p1848
g3
tp1849
a(S'suppression'
p1850
S'suppression'
p1851
S'NN'
p1852
S'B-NP'
p1853
g3
tp1854
a(S'of'
p1855
S'of'
p1856
S'IN'
p1857
S'B-PP'
p1858
g3
tp1859
a(S'the'
p1860
S'the'
p1861
S'DT'
p1862
S'B-NP'
p1863
g3
tp1864
a(S'secretion'
p1865
S'secretion'
p1866
S'NN'
p1867
S'I-NP'
p1868
g3
tp1869
a(S'of'
p1870
S'of'
p1871
S'IN'
p1872
S'B-PP'
p1873
g3
tp1874
a(S'adrenaline'
p1875
S'adrenaline'
p1876
S'NN'
p1877
S'B-NP'
p1878
g3
tp1879
a(S'affirming'
p1880
S'affirm'
p1881
S'VBG'
p1882
S'B-VP'
p1883
g3
tp1884
a(S'that'
p1885
S'that'
p1886
S'IN'
p1887
S'B-SBAR'
p1888
g3
tp1889
a(S'here'
p1890
S'here'
p1891
S'RB'
p1892
S'B-ADVP'
p1893
g3
tp1894
a(g125
g125
g125
g3
g3
tp1895
a(S'as'
p1896
S'as'
p1897
S'IN'
p1898
S'B-SBAR'
p1899
g3
tp1900
a(S'elsewhere'
p1901
S'elsewhere'
p1902
S'RB'
p1903
S'B-ADVP'
p1904
g3
tp1905
a(g125
g125
g125
g3
g3
tp1906
a(S'sympathetic'
p1907
S'sympathetic'
p1908
S'JJ'
p1909
S'B-NP'
p1910
g3
tp1911
a(S'nervous'
p1912
S'nervous'
p1913
S'JJ'
p1914
S'I-NP'
p1915
g3
tp1916
a(S'and'
p1917
S'and'
p1918
S'CC'
p1919
S'I-NP'
p1920
g3
tp1921
a(S'adrenal'
p1922
S'adrenal'
p1923
S'JJ'
p1924
S'I-NP'
p1925
g3
tp1926
a(S'medullary'
p1927
S'medullary'
p1928
S'JJ'
p1929
S'I-NP'
p1930
g3
tp1931
a(S'function'
p1932
S'function'
p1933
S'NN'
p1934
S'I-NP'
p1935
g3
tp1936
a(S'can'
p1937
S'can'
p1938
S'MD'
p1939
S'B-VP'
p1940
g3
tp1941
a(S'be'
p1942
S'be'
p1943
S'VB'
p1944
S'I-VP'
p1945
g3
tp1946
a(S'disconnected'
p1947
S'disconnect'
p1948
S'VBN'
p1949
S'I-VP'
p1950
g3
tp1951
a(g68
g68
g68
g3
g3
tp1952
a.