(lp0
(S'Comparison'
p1
S'Comparison'
p2
S'NN'
p3
S'B-NP'
p4
S'O'
p5
tp6
a(S'of'
p7
S'of'
p8
S'IN'
p9
S'B-PP'
p10
g5
tp11
a(S'the'
p12
S'the'
p13
S'DT'
p14
S'B-NP'
p15
g5
tp16
a(S'impact'
p17
S'impact'
p18
S'NN'
p19
S'I-NP'
p20
g5
tp21
a(S'of'
p22
S'of'
p23
S'IN'
p24
S'B-PP'
p25
g5
tp26
a(S'vaginal'
p27
S'vaginal'
p28
S'JJ'
p29
S'B-NP'
p30
g5
tp31
a(S'and'
p32
S'and'
p33
S'CC'
p34
S'I-NP'
p35
g5
tp36
a(S'oral'
p37
S'oral'
p38
S'JJ'
p39
S'I-NP'
p40
g5
tp41
a(S'administration'
p42
S'administration'
p43
S'NN'
p44
S'I-NP'
p45
g5
tp46
a(S'of'
p47
S'of'
p48
S'IN'
p49
S'B-PP'
p50
g5
tp51
a(S'combined'
p52
S'combined'
p53
S'JJ'
p54
S'B-NP'
p55
g5
tp56
a(S'hormonal'
p57
S'hormonal'
p58
S'JJ'
p59
S'I-NP'
p60
g5
tp61
a(S'contraceptives'
p62
S'contraceptive'
p63
S'NNS'
p64
S'I-NP'
p65
g5
tp66
a(S'on'
p67
S'on'
p68
S'IN'
p69
S'B-PP'
p70
g5
tp71
a(S'hepatic'
p72
S'hepatic'
p73
S'JJ'
p74
S'B-NP'
p75
S'B-protein'
p76
tp77
a(S'proteins'
p78
S'protein'
p79
S'NNS'
p80
S'I-NP'
p81
S'I-protein'
p82
tp83
a(S'sensitive'
p84
S'sensitive'
p85
S'JJ'
p86
S'B-ADJP'
p87
g5
tp88
a(S'to'
p89
S'to'
p90
S'TO'
p91
S'B-PP'
p92
g5
tp93
a(S'estrogen'
p94
S'estrogen'
p95
S'NN'
p96
S'B-NP'
p97
g5
tp98
a(S'.'
p99
g99
g99
g5
g5
tp100
a(S'OBJECTIVE'
p101
S'OBJECTIVE'
p102
S'NN'
p103
S'B-NP'
p104
g5
tp105
a(S'We'
p106
S'We'
p107
S'PRP'
p108
S'B-NP'
p109
g5
tp110
a(S'evaluated'
p111
S'evaluate'
p112
S'VBD'
p113
S'B-VP'
p114
g5
tp115
a(S'the'
p116
S'the'
p117
S'DT'
p118
S'B-NP'
p119
g5
tp120
a(S'effects'
p121
S'effect'
p122
S'NNS'
p123
S'I-NP'
p124
g5
tp125
a(S'of'
p126
S'of'
p127
S'IN'
p128
S'B-PP'
p129
g5
tp130
a(S'a'
p131
g131
S'DT'
p132
S'B-NP'
p133
g5
tp134
a(S'new'
p135
S'new'
p136
S'JJ'
p137
S'I-NP'
p138
g5
tp139
a(S'combined'
p140
S'combined'
p141
S'JJ'
p142
S'I-NP'
p143
g5
tp144
a(S'hormonal'
p145
S'hormonal'
p146
S'JJ'
p147
S'I-NP'
p148
g5
tp149
a(S'contraceptive'
p150
S'contraceptive'
p151
S'JJ'
p152
S'I-NP'
p153
g5
tp154
a(S'vaginal'
p155
S'vaginal'
p156
S'JJ'
p157
S'I-NP'
p158
g5
tp159
a(S'ring'
p160
S'ring'
p161
S'NN'
p162
S'I-NP'
p163
g5
tp164
a(S'('
p165
g165
g165
g5
g5
tp166
a(S'CVR'
p167
S'CVR'
p168
S'NN'
p169
S'B-NP'
p170
S'B-protein'
p171
tp172
a(S')'
p173
g173
g173
g5
g5
tp174
a(S'delivering'
p175
S'deliver'
p176
S'VBG'
p177
S'B-VP'
p178
g5
tp179
a(S'the'
p180
S'the'
p181
S'DT'
p182
S'B-NP'
p183
g5
tp184
a(S'nonandrogenic'
p185
S'nonandrogenic'
p186
S'JJ'
p187
S'I-NP'
p188
g5
tp189
a(S'progestin'
p190
S'progestin'
p191
S'NN'
p192
S'I-NP'
p193
g5
tp194
a(S'Nestorone'
p195
S'Nestorone'
p196
S'NN'
p197
S'I-NP'
p198
g5
tp199
a(g165
g165
g165
g5
g5
tp200
a(S'NES'
p201
S'NES'
p202
S'NN'
p203
S'B-NP'
p204
S'B-protein'
p205
tp206
a(g173
g173
g173
g5
g5
tp207
a(S'and'
p208
S'and'
p209
S'CC'
p210
g5
g5
tp211
a(S'ethinyl'
p212
S'ethinyl'
p213
S'NN'
p214
S'B-NP'
p215
g5
tp216
a(S'estradiol'
p217
S'estradiol'
p218
S'NN'
p219
S'I-NP'
p220
g5
tp221
a(g165
g165
g165
g5
g5
tp222
a(S'EE'
p223
S'EE'
p224
S'NN'
p225
S'B-NP'
p226
g5
tp227
a(g173
g173
g173
g5
g5
tp228
a(S'on'
p229
S'on'
p230
S'IN'
p231
S'B-PP'
p232
g5
tp233
a(S'several'
p234
S'several'
p235
S'JJ'
p236
S'B-NP'
p237
g5
tp238
a(S'key'
p239
S'key'
p240
S'JJ'
p241
S'I-NP'
p242
S'B-protein'
p243
tp244
a(S'estrogen-sensitive'
p245
S'estrogen-sensitive'
p246
S'JJ'
p247
S'I-NP'
p248
S'I-protein'
p249
tp250
a(S'hepatic'
p251
S'hepatic'
p252
S'JJ'
p253
S'I-NP'
p254
S'I-protein'
p255
tp256
a(S'proteins'
p257
S'protein'
p258
S'NNS'
p259
S'I-NP'
p260
S'I-protein'
p261
tp262
a(S'that'
p263
S'that'
p264
S'WDT'
p265
S'B-NP'
p266
g5
tp267
a(S'may'
p268
S'may'
p269
S'MD'
p270
S'B-VP'
p271
g5
tp272
a(S'be'
p273
S'be'
p274
S'VB'
p275
S'I-VP'
p276
g5
tp277
a(S'markers'
p278
S'marker'
p279
S'NNS'
p280
S'B-NP'
p281
g5
tp282
a(S'for'
p283
S'for'
p284
S'IN'
p285
S'B-PP'
p286
g5
tp287
a(S'the'
p288
S'the'
p289
S'DT'
p290
S'B-NP'
p291
g5
tp292
a(S'risk'
p293
S'risk'
p294
S'NN'
p295
S'I-NP'
p296
g5
tp297
a(S'of'
p298
S'of'
p299
S'IN'
p300
S'B-PP'
p301
g5
tp302
a(S'arterial'
p303
S'arterial'
p304
S'JJ'
p305
S'B-NP'
p306
g5
tp307
a(S'or'
p308
S'or'
p309
S'CC'
p310
S'I-NP'
p311
g5
tp312
a(S'venous'
p313
S'venous'
p314
S'JJ'
p315
S'I-NP'
p316
g5
tp317
a(S'disease'
p318
S'disease'
p319
S'NN'
p320
S'I-NP'
p321
g5
tp322
a(S'events'
p323
S'event'
p324
S'NNS'
p325
S'I-NP'
p326
g5
tp327
a(S'and'
p328
S'and'
p329
S'CC'
p330
S'B-PP'
p331
g5
tp332
a(S'on'
p333
S'on'
p334
S'IN'
p335
S'B-PP'
p336
g5
tp337
a(S'blood'
p338
S'blood'
p339
S'NN'
p340
S'B-NP'
p341
g5
tp342
a(S'pressure'
p343
S'pressure'
p344
S'NN'
p345
S'I-NP'
p346
g5
tp347
a(g165
g165
g165
g5
g5
tp348
a(S'BP'
p349
S'BP'
p350
S'NN'
p351
S'B-NP'
p352
S'B-protein'
p353
tp354
a(g173
g173
g173
g5
g5
tp355
a(g99
g99
g99
g5
g5
tp356
a(S'Because'
p357
S'Because'
p358
S'IN'
p359
S'B-SBAR'
p360
g5
tp361
a(S'the'
p362
S'the'
p363
S'DT'
p364
S'B-NP'
p365
g5
tp366
a(S'pharmacologic'
p367
S'pharmacologic'
p368
S'JJ'
p369
S'I-NP'
p370
g5
tp371
a(S'androgenicity'
p372
S'androgenicity'
p373
S'NN'
p374
S'I-NP'
p375
g5
tp376
a(S'of'
p377
S'of'
p378
S'IN'
p379
S'B-PP'
p380
g5
tp381
a(S'the'
p382
S'the'
p383
S'DT'
p384
S'B-NP'
p385
g5
tp386
a(S'progestin'
p387
S'progestin'
p388
S'NN'
p389
S'I-NP'
p390
g5
tp391
a(S'in'
p392
S'in'
p393
S'IN'
p394
S'B-PP'
p395
g5
tp396
a(S'these'
p397
S'these'
p398
S'DT'
p399
S'B-NP'
p400
g5
tp401
a(S'formulations'
p402
S'formulation'
p403
S'NNS'
p404
S'I-NP'
p405
g5
tp406
a(S'influences'
p407
S'influence'
p408
S'VBZ'
p409
S'B-VP'
p410
g5
tp411
a(S'the'
p412
S'the'
p413
S'DT'
p414
S'B-NP'
p415
g5
tp416
a(S'hepatic'
p417
S'hepatic'
p418
S'JJ'
p419
S'I-NP'
p420
g5
tp421
a(S'impact'
p422
S'impact'
p423
S'NN'
p424
S'I-NP'
p425
g5
tp426
a(S'of'
p427
S'of'
p428
S'IN'
p429
S'B-PP'
p430
g5
tp431
a(S'EE'
p432
S'EE'
p433
S'NN'
p434
S'B-NP'
p435
g5
tp436
a(S','
p437
g437
g437
g5
g5
tp438
a(S'we'
p439
S'we'
p440
S'PRP'
p441
S'B-NP'
p442
g5
tp443
a(S'selected'
p444
S'select'
p445
S'VBD'
p446
S'B-VP'
p447
g5
tp448
a(S'an'
p449
S'an'
p450
S'DT'
p451
S'B-NP'
p452
g5
tp453
a(S'oral'
p454
S'oral'
p455
S'JJ'
p456
S'I-NP'
p457
g5
tp458
a(S'contraceptive'
p459
S'contraceptive'
p460
S'NN'
p461
S'I-NP'
p462
g5
tp463
a(g165
g165
g165
g5
g5
tp464
a(S'OC'
p465
S'OC'
p466
S'NN'
p467
S'B-NP'
p468
g5
tp469
a(g173
g173
g173
g5
g5
tp470
a(S'delivering'
p471
S'deliver'
p472
S'VBG'
p473
S'B-VP'
p474
g5
tp475
a(S'the'
p476
S'the'
p477
S'DT'
p478
S'B-NP'
p479
g5
tp480
a(S'androgenic'
p481
S'androgenic'
p482
S'JJ'
p483
S'I-NP'
p484
g5
tp485
a(S'progestin'
p486
S'progestin'
p487
S'NN'
p488
S'I-NP'
p489
g5
tp490
a(S'levonorgestrel'
p491
S'levonorgestrel'
p492
S'NN'
p493
S'I-NP'
p494
g5
tp495
a(g165
g165
g165
g5
g5
tp496
a(S'LNG'
p497
S'LNG'
p498
S'NN'
p499
S'B-NP'
p500
g5
tp501
a(g173
g173
g173
g5
g5
tp502
a(S'and'
p503
S'and'
p504
S'CC'
p505
g5
g5
tp506
a(S'EE'
p507
S'EE'
p508
S'NN'
p509
S'B-NP'
p510
g5
tp511
a(S'as'
p512
S'as'
p513
S'IN'
p514
S'B-PP'
p515
g5
tp516
a(S'the'
p517
S'the'
p518
S'DT'
p519
S'B-NP'
p520
g5
tp521
a(S'comparator.'
p522
S'comparator.'
p523
S'NN'
p524
S'I-NP'
p525
g5
tp526
a(S'We'
p527
S'We'
p528
S'PRP'
p529
S'B-NP'
p530
g5
tp531
a(S'also'
p532
S'also'
p533
S'RB'
p534
S'B-ADVP'
p535
g5
tp536
a(S'investigated'
p537
S'investigate'
p538
S'VBD'
p539
S'B-VP'
p540
g5
tp541
a(S'the'
p542
S'the'
p543
S'DT'
p544
S'B-NP'
p545
g5
tp546
a(S'effect'
p547
S'effect'
p548
S'NN'
p549
S'I-NP'
p550
g5
tp551
a(S'of'
p552
S'of'
p553
S'IN'
p554
S'B-PP'
p555
g5
tp556
a(S'delivery'
p557
S'delivery'
p558
S'NN'
p559
S'B-NP'
p560
g5
tp561
a(S'route'
p562
S'route'
p563
S'NN'
p564
S'I-NP'
p565
g5
tp566
a(g437
g437
g437
g5
g5
tp567
a(S'which'
p568
S'which'
p569
S'WDT'
p570
S'B-NP'
p571
g5
tp572
a(S'is'
p573
S'be'
p574
S'VBZ'
p575
S'B-VP'
p576
g5
tp577
a(S'known'
p578
S'know'
p579
S'VBN'
p580
S'I-VP'
p581
g5
tp582
a(S'to'
p583
S'to'
p584
S'TO'
p585
S'I-VP'
p586
g5
tp587
a(S'modify'
p588
S'modify'
p589
S'VB'
p590
S'I-VP'
p591
g5
tp592
a(S'the'
p593
S'the'
p594
S'DT'
p595
S'B-NP'
p596
g5
tp597
a(S'hepatic'
p598
S'hepatic'
p599
S'JJ'
p600
S'I-NP'
p601
g5
tp602
a(S'effects'
p603
S'effect'
p604
S'NNS'
p605
S'I-NP'
p606
g5
tp607
a(S'of'
p608
S'of'
p609
S'IN'
p610
S'B-PP'
p611
g5
tp612
a(S'estradiol'
p613
S'estradiol'
p614
S'NN'
p615
S'B-NP'
p616
g5
tp617
a(g437
g437
g437
g5
g5
tp618
a(S'but'
p619
S'but'
p620
S'CC'
p621
g5
g5
tp622
a(S'has'
p623
S'have'
p624
S'VBZ'
p625
S'B-VP'
p626
g5
tp627
a(S'not'
p628
S'not'
p629
S'RB'
p630
S'I-VP'
p631
g5
tp632
a(S'been'
p633
S'be'
p634
S'VBN'
p635
S'I-VP'
p636
g5
tp637
a(S'widely'
p638
S'widely'
p639
S'RB'
p640
S'I-VP'
p641
g5
tp642
a(S'studied'
p643
S'study'
p644
S'VBN'
p645
S'I-VP'
p646
g5
tp647
a(S'with'
p648
S'with'
p649
S'IN'
p650
S'B-PP'
p651
g5
tp652
a(S'EE'
p653
S'EE'
p654
S'NN'
p655
S'B-NP'
p656
g5
tp657
a(g99
g99
g99
g5
g5
tp658
a(S'STUDY'
p659
S'STUDY'
p660
S'NN'
p661
S'B-NP'
p662
g5
tp663
a(S'METHODS'
p664
S'METHODS'
p665
S'NNS'
p666
S'I-NP'
p667
g5
tp668
a(S'Women'
p669
S'Women'
p670
S'NNP'
p671
S'I-NP'
p672
g5
tp673
a(g437
g437
g437
g5
g5
tp674
a(S'aged'
p675
S'age'
p676
S'VBD'
p677
S'B-VP'
p678
g5
tp679
a(S'18-34'
p680
S'18-34'
p681
S'CD'
p682
S'B-NP'
p683
g5
tp684
a(S'years'
p685
S'year'
p686
S'NNS'
p687
S'I-NP'
p688
g5
tp689
a(g437
g437
g437
g5
g5
tp690
a(S'with'
p691
S'with'
p692
S'IN'
p693
S'B-PP'
p694
g5
tp695
a(S'no'
p696
S'no'
p697
S'DT'
p698
S'B-NP'
p699
g5
tp700
a(S'contraindications'
p701
S'contraindication'
p702
S'NNS'
p703
S'I-NP'
p704
g5
tp705
a(S'to'
p706
S'to'
p707
S'TO'
p708
S'B-PP'
p709
g5
tp710
a(S'the'
p711
S'the'
p712
S'DT'
p713
S'B-NP'
p714
g5
tp715
a(S'use'
p716
S'use'
p717
S'NN'
p718
S'I-NP'
p719
g5
tp720
a(S'of'
p721
S'of'
p722
S'IN'
p723
S'B-PP'
p724
g5
tp725
a(S'combined'
p726
S'combined'
p727
S'JJ'
p728
S'B-NP'
p729
g5
tp730
a(S'OCs'
p731
S'OC'
p732
S'NNS'
p733
S'I-NP'
p734
g5
tp735
a(g437
g437
g437
g5
g5
tp736
a(S'were'
p737
S'be'
p738
S'VBD'
p739
S'B-VP'
p740
g5
tp741
a(S'randomized'
p742
S'randomize'
p743
S'VBN'
p744
S'I-VP'
p745
g5
tp746
a(S'to'
p747
S'to'
p748
S'TO'
p749
S'B-PP'
p750
g5
tp751
a(S'three'
p752
S'three'
p753
S'CD'
p754
S'B-NP'
p755
g5
tp756
a(S'cycles'
p757
S'cycle'
p758
S'NNS'
p759
S'I-NP'
p760
g5
tp761
a(S'of'
p762
S'of'
p763
S'IN'
p764
S'B-PP'
p765
g5
tp766
a(S'treatment'
p767
S'treatment'
p768
S'NN'
p769
S'B-NP'
p770
g5
tp771
a(S'with'
p772
S'with'
p773
S'IN'
p774
S'B-PP'
p775
g5
tp776
a(g131
g131
S'DT'
p777
S'B-NP'
p778
g5
tp779
a(S'CVR'
p780
S'CVR'
p781
S'NN'
p782
S'I-NP'
p783
S'B-protein'
p784
tp785
a(S'delivering'
p786
S'deliver'
p787
S'VBG'
p788
S'B-VP'
p789
g5
tp790
a(S'NES/EE'
p791
S'NES/EE'
p792
S'NN'
p793
S'B-NP'
p794
g5
tp795
a(g165
g165
g165
g5
g5
tp796
a(S'150/15'
p797
S'150/15'
p798
S'CD'
p799
S'B-NP'
p800
g5
tp801
a(S'microg/day'
p802
S'microg/day'
p803
S'NN'
p804
S'I-NP'
p805
g5
tp806
a(g173
g173
g173
g5
g5
tp807
a(S'or'
p808
S'or'
p809
S'CC'
p810
g5
g5
tp811
a(g131
g131
S'DT'
p812
S'B-NP'
p813
g5
tp814
a(S'combined'
p815
S'combined'
p816
S'JJ'
p817
S'I-NP'
p818
g5
tp819
a(S'OC'
p820
S'OC'
p821
S'NN'
p822
S'I-NP'
p823
g5
tp824
a(S'providing'
p825
S'provide'
p826
S'VBG'
p827
S'B-VP'
p828
g5
tp829
a(S'LNG'
p830
S'LNG'
p831
S'NN'
p832
S'B-NP'
p833
g5
tp834
a(S'and'
p835
S'and'
p836
S'CC'
p837
S'I-NP'
p838
g5
tp839
a(S'EE'
p840
S'EE'
p841
S'NN'
p842
S'I-NP'
p843
g5
tp844
a(g165
g165
g165
g5
g5
tp845
a(S'150/30'
p846
S'150/30'
p847
S'CD'
p848
S'B-NP'
p849
g5
tp850
a(S'microg'
p851
S'microg'
p852
S'NN'
p853
S'I-NP'
p854
g5
tp855
a(S'per'
p856
S'per'
p857
S'IN'
p858
S'B-PP'
p859
g5
tp860
a(S'tablet'
p861
S'tablet'
p862
S'NN'
p863
S'B-NP'
p864
g5
tp865
a(g173
g173
g173
g5
g5
tp866
a(g99
g99
g99
g5
g5
tp867
a(S'Each'
p868
S'Each'
p869
S'DT'
p870
S'B-NP'
p871
g5
tp872
a(S'cycle'
p873
S'cycle'
p874
S'NN'
p875
S'I-NP'
p876
g5
tp877
a(S'consisted'
p878
S'consist'
p879
S'VBD'
p880
S'B-VP'
p881
g5
tp882
a(S'of'
p883
S'of'
p884
S'IN'
p885
S'B-PP'
p886
g5
tp887
a(S'21'
p888
S'21'
p889
S'CD'
p890
S'B-NP'
p891
g5
tp892
a(S'days'
p893
S'day'
p894
S'NNS'
p895
S'I-NP'
p896
g5
tp897
a(S'of'
p898
S'of'
p899
S'IN'
p900
S'B-PP'
p901
g5
tp902
a(S'active'
p903
S'active'
p904
S'JJ'
p905
S'B-NP'
p906
g5
tp907
a(S'treatment'
p908
S'treatment'
p909
S'NN'
p910
S'I-NP'
p911
g5
tp912
a(g437
g437
g437
g5
g5
tp913
a(S'followed'
p914
S'follow'
p915
S'VBN'
p916
S'B-VP'
p917
g5
tp918
a(S'by'
p919
S'by'
p920
S'IN'
p921
S'B-PP'
p922
g5
tp923
a(S'7'
p924
g924
S'CD'
p925
S'B-NP'
p926
g5
tp927
a(S'days'
p928
S'day'
p929
S'NNS'
p930
S'I-NP'
p931
g5
tp932
a(S'without'
p933
S'without'
p934
S'IN'
p935
S'B-PP'
p936
g5
tp937
a(S'treatment.'
p938
S'treatment.'
p939
S'NN'
p940
S'B-NP'
p941
g5
tp942
a(S'During'
p943
S'During'
p944
S'IN'
p945
S'B-PP'
p946
g5
tp947
a(S'the'
p948
S'the'
p949
S'DT'
p950
S'B-NP'
p951
g5
tp952
a(S'last'
p953
S'last'
p954
S'JJ'
p955
S'I-NP'
p956
g5
tp957
a(S'weeks'
p958
S'week'
p959
S'NNS'
p960
S'I-NP'
p961
g5
tp962
a(S'of'
p963
S'of'
p964
S'IN'
p965
S'B-PP'
p966
g5
tp967
a(S'the'
p968
S'the'
p969
S'DT'
p970
S'B-NP'
p971
g5
tp972
a(S'pretreatment'
p973
S'pretreatment'
p974
S'NN'
p975
S'I-NP'
p976
g5
tp977
a(S'and'
p978
S'and'
p979
S'CC'
p980
g5
g5
tp981
a(S'third'
p982
S'third'
p983
S'JJ'
p984
S'B-NP'
p985
g5
tp986
a(S'treatment'
p987
S'treatment'
p988
S'NN'
p989
S'I-NP'
p990
g5
tp991
a(S'cycles'
p992
S'cycle'
p993
S'NNS'
p994
S'I-NP'
p995
g5
tp996
a(g437
g437
g437
g5
g5
tp997
a(S'blood'
p998
S'blood'
p999
S'NN'
p1000
S'B-NP'
p1001
g5
tp1002
a(S'samples'
p1003
S'sample'
p1004
S'NNS'
p1005
S'I-NP'
p1006
g5
tp1007
a(S'were'
p1008
S'be'
p1009
S'VBD'
p1010
S'B-VP'
p1011
g5
tp1012
a(S'obtained'
p1013
S'obtain'
p1014
S'VBN'
p1015
S'I-VP'
p1016
g5
tp1017
a(S'for'
p1018
S'for'
p1019
S'IN'
p1020
S'B-PP'
p1021
g5
tp1022
a(S'determinations'
p1023
S'determination'
p1024
S'NNS'
p1025
S'B-NP'
p1026
g5
tp1027
a(S'of'
p1028
S'of'
p1029
S'IN'
p1030
S'B-PP'
p1031
g5
tp1032
a(S'plasma'
p1033
S'plasma'
p1034
S'NN'
p1035
S'B-NP'
p1036
g5
tp1037
a(S'concentrations'
p1038
S'concentration'
p1039
S'NNS'
p1040
S'I-NP'
p1041
g5
tp1042
a(S'of'
p1043
S'of'
p1044
S'IN'
p1045
S'B-PP'
p1046
g5
tp1047
a(S'angiotensinogen'
p1048
S'angiotensinogen'
p1049
S'NN'
p1050
S'B-NP'
p1051
g5
tp1052
a(g437
g437
g437
g5
g5
tp1053
a(S'an'
p1054
S'an'
p1055
S'DT'
p1056
S'B-NP'
p1057
g5
tp1058
a(S'estrogen-sensitive'
p1059
S'estrogen-sensitive'
p1060
S'JJ'
p1061
S'I-NP'
p1062
S'B-protein'
p1063
tp1064
a(S'hepatic'
p1065
S'hepatic'
p1066
S'JJ'
p1067
S'I-NP'
p1068
S'I-protein'
p1069
tp1070
a(S'protein'
p1071
S'protein'
p1072
S'NN'
p1073
S'I-NP'
p1074
S'I-protein'
p1075
tp1076
a(g437
g437
g437
g5
g5
tp1077
a(S'and'
p1078
S'and'
p1079
S'CC'
p1080
g5
g5
tp1081
a(S'serum'
p1082
S'serum'
p1083
S'NN'
p1084
S'B-NP'
p1085
g5
tp1086
a(S'concentrations'
p1087
S'concentration'
p1088
S'NNS'
p1089
S'I-NP'
p1090
g5
tp1091
a(S'of'
p1092
S'of'
p1093
S'IN'
p1094
S'B-PP'
p1095
g5
tp1096
a(S'sex'
p1097
S'sex'
p1098
S'NN'
p1099
S'B-NP'
p1100
S'B-protein'
p1101
tp1102
a(S'hormone-binding'
p1103
S'hormone-binding'
p1104
S'JJ'
p1105
S'I-NP'
p1106
S'I-protein'
p1107
tp1108
a(S'globulin'
p1109
S'globulin'
p1110
S'NN'
p1111
S'I-NP'
p1112
S'I-protein'
p1113
tp1114
a(g165
g165
g165
g5
g5
tp1115
a(S'SHBG'
p1116
S'SHBG'
p1117
S'NN'
p1118
S'B-NP'
p1119
S'B-protein'
p1120
tp1121
a(g173
g173
g173
g5
g5
tp1122
a(g437
g437
g437
g5
g5
tp1123
a(S'total'
p1124
S'total'
p1125
S'JJ'
p1126
S'B-NP'
p1127
g5
tp1128
a(S'cholesterol'
p1129
S'cholesterol'
p1130
S'NN'
p1131
S'I-NP'
p1132
g5
tp1133
a(g165
g165
g165
g5
g5
tp1134
a(S'TC'
p1135
S'TC'
p1136
S'NN'
p1137
S'B-NP'
p1138
g5
tp1139
a(g173
g173
g173
g5
g5
tp1140
a(g437
g437
g437
g5
g5
tp1141
a(S'high-density'
p1142
S'high-density'
p1143
S'JJ'
p1144
S'B-NP'
p1145
g5
tp1146
a(S'lipoprotein'
p1147
S'lipoprotein'
p1148
S'NN'
p1149
S'I-NP'
p1150
g5
tp1151
a(S'cholesterol'
p1152
S'cholesterol'
p1153
S'NN'
p1154
S'I-NP'
p1155
g5
tp1156
a(g165
g165
g165
g5
g5
tp1157
a(S'HDL-C'
p1158
S'HDL-C'
p1159
S'NN'
p1160
S'B-NP'
p1161
S'B-protein'
p1162
tp1163
a(g173
g173
g173
g5
g5
tp1164
a(g437
g437
g437
g5
g5
tp1165
a(S'low-density'
p1166
S'low-density'
p1167
S'JJ'
p1168
S'B-NP'
p1169
S'B-protein'
p1170
tp1171
a(S'lipoprotein'
p1172
S'lipoprotein'
p1173
S'NN'
p1174
S'I-NP'
p1175
S'I-protein'
p1176
tp1177
a(S'cholesterol'
p1178
S'cholesterol'
p1179
S'NN'
p1180
S'I-NP'
p1181
g5
tp1182
a(g165
g165
g165
g5
g5
tp1183
a(S'LDL-C'
p1184
S'LDL-C'
p1185
S'NN'
p1186
S'B-NP'
p1187
S'B-protein'
p1188
tp1189
a(g173
g173
g173
g5
g5
tp1190
a(g437
g437
g437
g5
g5
tp1191
a(S'triglycerides'
p1192
S'triglyceride'
p1193
S'NNS'
p1194
S'B-NP'
p1195
g5
tp1196
a(g165
g165
g165
g5
g5
tp1197
a(S'TG'
p1198
S'TG'
p1199
S'NN'
p1200
S'B-NP'
p1201
S'B-protein'
p1202
tp1203
a(g173
g173
g173
g5
g5
tp1204
a(S'and'
p1205
S'and'
p1206
S'CC'
p1207
g5
g5
tp1208
a(S'estrogen-'
p1209
S'estrogen-'
p1210
S'NN'
p1211
S'B-NP'
p1212
g5
tp1213
a(S'and'
p1214
S'and'
p1215
S'CC'
p1216
g5
g5
tp1217
a(S'androgen-sensitive'
p1218
S'androgen-sensitive'
p1219
S'JJ'
p1220
S'B-NP'
p1221
S'B-protein'
p1222
tp1223
a(S'proteins.'
p1224
S'proteins.'
p1225
S'NN'
p1226
S'I-NP'
p1227
S'I-protein'
p1228
tp1229
a(S'BP'
p1230
S'BP'
p1231
S'NN'
p1232
S'I-NP'
p1233
S'I-protein'
p1234
tp1235
a(S'was'
p1236
S'be'
p1237
S'VBD'
p1238
S'B-VP'
p1239
g5
tp1240
a(S'also'
p1241
S'also'
p1242
S'RB'
p1243
S'I-VP'
p1244
g5
tp1245
a(S'measured'
p1246
S'measure'
p1247
S'VBN'
p1248
S'I-VP'
p1249
g5
tp1250
a(g99
g99
g99
g5
g5
tp1251
a(S'RESULTS'
p1252
S'RESULTS'
p1253
S'NNS'
p1254
S'B-NP'
p1255
g5
tp1256
a(S'Of'
p1257
S'Of'
p1258
S'IN'
p1259
S'B-PP'
p1260
g5
tp1261
a(S'47'
p1262
S'47'
p1263
S'CD'
p1264
S'B-NP'
p1265
g5
tp1266
a(S'women'
p1267
S'woman'
p1268
S'NNS'
p1269
S'I-NP'
p1270
g5
tp1271
a(S'randomized'
p1272
S'randomize'
p1273
S'VBN'
p1274
S'B-VP'
p1275
g5
tp1276
a(g437
g437
g437
g5
g5
tp1277
a(S'45'
p1278
S'45'
p1279
S'CD'
p1280
S'B-NP'
p1281
g5
tp1282
a(S'completed'
p1283
S'complete'
p1284
S'VBD'
p1285
S'B-VP'
p1286
g5
tp1287
a(S'the'
p1288
S'the'
p1289
S'DT'
p1290
S'B-NP'
p1291
g5
tp1292
a(S'study'
p1293
S'study'
p1294
S'NN'
p1295
S'I-NP'
p1296
g5
tp1297
a(g165
g165
g165
g5
g5
tp1298
a(S'CVR'
p1299
S'CVR'
p1300
S'NN'
p1301
S'B-NP'
p1302
g5
tp1303
a(S':'
p1304
g1304
g1304
g5
g5
tp1305
a(S'23'
p1306
S'23'
p1307
S'CD'
p1308
S'B-NP'
p1309
g5
tp1310
a(S';'
p1311
g1311
g1304
g5
g5
tp1312
a(S'OC'
p1313
S'OC'
p1314
S'NN'
p1315
S'B-NP'
p1316
g5
tp1317
a(g1304
g1304
g1304
g5
g5
tp1318
a(S'22'
p1319
S'22'
p1320
S'CD'
p1321
S'B-NP'
p1322
g5
tp1323
a(g173
g173
g173
g5
g5
tp1324
a(g99
g99
g99
g5
g5
tp1325
a(S'Within-group'
p1326
S'Within-group'
p1327
S'JJ'
p1328
S'B-NP'
p1329
g5
tp1330
a(S'comparisons'
p1331
S'comparison'
p1332
S'NNS'
p1333
S'I-NP'
p1334
g5
tp1335
a(S'over'
p1336
S'over'
p1337
S'IN'
p1338
S'B-PP'
p1339
g5
tp1340
a(S'time'
p1341
S'time'
p1342
S'NN'
p1343
S'B-NP'
p1344
g5
tp1345
a(S'by'
p1346
S'by'
p1347
S'IN'
p1348
S'B-PP'
p1349
g5
tp1350
a(S'repeated-measure'
p1351
S'repeated-measure'
p1352
S'JJ'
p1353
S'B-NP'
p1354
g5
tp1355
a(S'analysis'
p1356
S'analysis'
p1357
S'NN'
p1358
S'I-NP'
p1359
g5
tp1360
a(S'of'
p1361
S'of'
p1362
S'IN'
p1363
S'B-PP'
p1364
g5
tp1365
a(S'variance'
p1366
S'variance'
p1367
S'NN'
p1368
S'B-NP'
p1369
g5
tp1370
a(S'demonstrated'
p1371
S'demonstrate'
p1372
S'VBD'
p1373
S'B-VP'
p1374
g5
tp1375
a(S'statistically'
p1376
S'statistically'
p1377
S'RB'
p1378
S'B-NP'
p1379
g5
tp1380
a(S'significant'
p1381
S'significant'
p1382
S'JJ'
p1383
S'I-NP'
p1384
g5
tp1385
a(S'changes'
p1386
S'change'
p1387
S'NNS'
p1388
S'I-NP'
p1389
g5
tp1390
a(S'over'
p1391
S'over'
p1392
S'IN'
p1393
S'B-PP'
p1394
g5
tp1395
a(S'time'
p1396
S'time'
p1397
S'NN'
p1398
S'B-NP'
p1399
g5
tp1400
a(S'with'
p1401
S'with'
p1402
S'IN'
p1403
S'B-PP'
p1404
g5
tp1405
a(S'both'
p1406
S'both'
p1407
S'DT'
p1408
S'B-NP'
p1409
g5
tp1410
a(S'treatments'
p1411
S'treatment'
p1412
S'NNS'
p1413
S'I-NP'
p1414
g5
tp1415
a(S'for'
p1416
S'for'
p1417
S'IN'
p1418
S'B-PP'
p1419
g5
tp1420
a(S'all'
p1421
S'all'
p1422
S'DT'
p1423
S'B-NP'
p1424
g5
tp1425
a(S'hepatic'
p1426
S'hepatic'
p1427
S'JJ'
p1428
S'I-NP'
p1429
S'B-protein'
p1430
tp1431
a(S'proteins'
p1432
S'protein'
p1433
S'NNS'
p1434
S'I-NP'
p1435
S'I-protein'
p1436
tp1437
a(g165
g165
g165
g5
g5
tp1438
a(S'p'
p1439
g1439
S'NN'
p1440
S'B-NP'
p1441
g5
tp1442
a(S'<'
p1443
g1443
S'JJR'
p1444
S'B-NP'
p1445
g5
tp1446
a(S'.02'
p1447
S'.02'
p1448
S'CD'
p1449
S'I-NP'
p1450
g5
tp1451
a(g173
g173
g173
g5
g5
tp1452
a(S'but'
p1453
S'but'
p1454
S'CC'
p1455
S'B-PP'
p1456
g5
tp1457
a(S'not'
p1458
S'not'
p1459
S'RB'
p1460
S'B-PP'
p1461
g5
tp1462
a(S'for'
p1463
S'for'
p1464
S'IN'
p1465
S'I-PP'
p1466
g5
tp1467
a(S'TC.'
p1468
S'TC.'
p1469
S'NNP'
p1470
S'B-NP'
p1471
g5
tp1472
a(S'The'
p1473
S'The'
p1474
S'DT'
p1475
S'B-NP'
p1476
g5
tp1477
a(S'within-group'
p1478
S'within-group'
p1479
S'JJ'
p1480
S'I-NP'
p1481
g5
tp1482
a(S'effects'
p1483
S'effect'
p1484
S'NNS'
p1485
S'I-NP'
p1486
g5
tp1487
a(g437
g437
g437
g5
g5
tp1488
a(S'presented'
p1489
S'present'
p1490
S'VBN'
p1491
S'B-VP'
p1492
g5
tp1493
a(S'as'
p1494
S'as'
p1495
S'IN'
p1496
S'B-PP'
p1497
g5
tp1498
a(S'relative'
p1499
S'relative'
p1500
S'JJ'
p1501
S'B-NP'
p1502
g5
tp1503
a(S'percent'
p1504
S'percent'
p1505
S'NN'
p1506
S'I-NP'
p1507
g5
tp1508
a(S'difference'
p1509
S'difference'
p1510
S'NN'
p1511
S'I-NP'
p1512
g5
tp1513
a(S'['
p1514
g1514
g165
g5
g5
tp1515
a(S'95'
p1516
S'95'
p1517
S'CD'
p1518
S'B-NP'
p1519
g5
tp1520
a(S'%'
p1521
g1521
S'NN'
p1522
S'I-NP'
p1523
g5
tp1524
a(S'confidence'
p1525
S'confidence'
p1526
S'NN'
p1527
S'I-NP'
p1528
g5
tp1529
a(S'interval'
p1530
S'interval'
p1531
S'NN'
p1532
S'I-NP'
p1533
g5
tp1534
a(g165
g165
g165
g5
g5
tp1535
a(S'CI'
p1536
S'CI'
p1537
S'NN'
p1538
S'B-NP'
p1539
g5
tp1540
a(g173
g173
g173
g5
g5
tp1541
a(S']'
p1542
g1542
g173
g5
g5
tp1543
a(g437
g437
g437
g5
g5
tp1544
a(S'were'
p1545
S'be'
p1546
S'VBD'
p1547
S'B-VP'
p1548
g5
tp1549
a(S'greatest'
p1550
S'great'
p1551
S'JJS'
p1552
S'B-ADJP'
p1553
g5
tp1554
a(S'for'
p1555
S'for'
p1556
S'IN'
p1557
S'B-PP'
p1558
g5
tp1559
a(S'angiotensinogen'
p1560
S'angiotensinogen'
p1561
S'NN'
p1562
S'B-NP'
p1563
g5
tp1564
a(g1514
g1514
g165
g5
g5
tp1565
a(S'CVR'
p1566
S'CVR'
p1567
S'NN'
p1568
S'B-NP'
p1569
S'B-protein'
p1570
tp1571
a(g1304
g1304
g1304
g5
g5
tp1572
a(S'227'
p1573
S'227'
p1574
S'CD'
p1575
S'B-NP'
p1576
g5
tp1577
a(g1521
g1521
S'NN'
p1578
S'I-NP'
p1579
g5
tp1580
a(g165
g165
g165
g5
g5
tp1581
a(S'195-262'
p1582
S'195-262'
p1583
S'CD'
p1584
S'B-NP'
p1585
g5
tp1586
a(g1521
g1521
S'NN'
p1587
S'I-NP'
p1588
g5
tp1589
a(g173
g173
g173
g5
g5
tp1590
a(g1311
g1311
g1304
g5
g5
tp1591
a(S'OC'
p1592
S'OC'
p1593
S'NN'
p1594
S'B-NP'
p1595
g5
tp1596
a(g1304
g1304
g1304
g5
g5
tp1597
a(S'251.3'
p1598
S'251.3'
p1599
S'CD'
p1600
S'B-NP'
p1601
g5
tp1602
a(g1521
g1521
S'NN'
p1603
S'I-NP'
p1604
g5
tp1605
a(g165
g165
g165
g5
g5
tp1606
a(S'218-288'
p1607
S'218-288'
p1608
S'CD'
p1609
S'B-NP'
p1610
g5
tp1611
a(g1521
g1521
S'NN'
p1612
S'I-NP'
p1613
g5
tp1614
a(g173
g173
g173
g5
g5
tp1615
a(g1542
g1542
g173
g5
g5
tp1616
a(S'and'
p1617
S'and'
p1618
S'CC'
p1619
g5
g5
tp1620
a(S'SHBG'
p1621
S'SHBG'
p1622
S'NN'
p1623
S'B-NP'
p1624
S'B-protein'
p1625
tp1626
a(g1514
g1514
g165
g5
g5
tp1627
a(S'CVR'
p1628
S'CVR'
p1629
S'NN'
p1630
S'B-NP'
p1631
S'B-protein'
p1632
tp1633
a(g1304
g1304
g1304
g5
g5
tp1634
a(S'306'
p1635
S'306'
p1636
S'CD'
p1637
S'B-NP'
p1638
g5
tp1639
a(g1521
g1521
S'NN'
p1640
S'I-NP'
p1641
g5
tp1642
a(g165
g165
g165
g5
g5
tp1643
a(S'237-389'
p1644
S'237-389'
p1645
S'CD'
p1646
S'B-NP'
p1647
g5
tp1648
a(g1521
g1521
S'NN'
p1649
S'I-NP'
p1650
g5
tp1651
a(g173
g173
g173
g5
g5
tp1652
a(g1311
g1311
g1304
g5
g5
tp1653
a(S'OC'
p1654
S'OC'
p1655
S'NN'
p1656
S'B-NP'
p1657
g5
tp1658
a(g1304
g1304
g1304
g5
g5
tp1659
a(S'55'
p1660
S'55'
p1661
S'CD'
p1662
S'B-NP'
p1663
g5
tp1664
a(g1521
g1521
S'NN'
p1665
S'I-NP'
p1666
g5
tp1667
a(g165
g165
g165
g5
g5
tp1668
a(S'30-86'
p1669
S'30-86'
p1670
S'CD'
p1671
S'B-NP'
p1672
g5
tp1673
a(g173
g173
g173
g5
g5
tp1674
a(g1542
g1542
g173
g5
g5
tp1675
a(g99
g99
g99
g5
g5
tp1676
a(S'Both'
p1677
S'Both'
p1678
S'DT'
p1679
S'B-NP'
p1680
g5
tp1681
a(S'treatments'
p1682
S'treatment'
p1683
S'NNS'
p1684
S'I-NP'
p1685
g5
tp1686
a(S'were'
p1687
S'be'
p1688
S'VBD'
p1689
S'B-VP'
p1690
g5
tp1691
a(S'associated'
p1692
S'associate'
p1693
S'VBN'
p1694
S'I-VP'
p1695
g5
tp1696
a(S'with'
p1697
S'with'
p1698
S'IN'
p1699
S'B-PP'
p1700
g5
tp1701
a(S'small'
p1702
S'small'
p1703
S'JJ'
p1704
S'B-NP'
p1705
g5
tp1706
a(S'changes'
p1707
S'change'
p1708
S'NNS'
p1709
S'I-NP'
p1710
g5
tp1711
a(S'in'
p1712
S'in'
p1713
S'IN'
p1714
S'B-PP'
p1715
g5
tp1716
a(S'systolic'
p1717
S'systolic'
p1718
S'JJ'
p1719
S'B-NP'
p1720
g5
tp1721
a(S'BP'
p1722
S'BP'
p1723
S'NN'
p1724
S'I-NP'
p1725
g5
tp1726
a(S'and'
p1727
S'and'
p1728
S'CC'
p1729
g5
g5
tp1730
a(S'diastolic'
p1731
S'diastolic'
p1732
S'JJ'
p1733
S'B-NP'
p1734
g5
tp1735
a(S'BP'
p1736
S'BP'
p1737
S'NN'
p1738
S'I-NP'
p1739
g5
tp1740
a(g165
g165
g165
g5
g5
tp1741
a(S'DBP'
p1742
S'DBP'
p1743
S'NN'
p1744
S'B-NP'
p1745
S'B-protein'
p1746
tp1747
a(g173
g173
g173
g5
g5
tp1748
a(g437
g437
g437
g5
g5
tp1749
a(S'but'
p1750
S'but'
p1751
S'CC'
p1752
g5
g5
tp1753
a(S'only'
p1754
S'only'
p1755
S'RB'
p1756
S'B-NP'
p1757
g5
tp1758
a(S'the'
p1759
S'the'
p1760
S'DT'
p1761
S'I-NP'
p1762
g5
tp1763
a(S'within-group'
p1764
S'within-group'
p1765
S'JJ'
p1766
S'I-NP'
p1767
g5
tp1768
a(S'change'
p1769
S'change'
p1770
S'NN'
p1771
S'I-NP'
p1772
g5
tp1773
a(S'in'
p1774
S'in'
p1775
S'IN'
p1776
S'B-PP'
p1777
g5
tp1778
a(S'DBP'
p1779
S'DBP'
p1780
S'NN'
p1781
S'B-NP'
p1782
S'B-protein'
p1783
tp1784
a(S'for'
p1785
S'for'
p1786
S'IN'
p1787
S'B-PP'
p1788
g5
tp1789
a(S'the'
p1790
S'the'
p1791
S'DT'
p1792
S'B-NP'
p1793
g5
tp1794
a(S'OC'
p1795
S'OC'
p1796
S'NN'
p1797
S'I-NP'
p1798
g5
tp1799
a(S'group'
p1800
S'group'
p1801
S'NN'
p1802
S'I-NP'
p1803
g5
tp1804
a(S'was'
p1805
S'be'
p1806
S'VBD'
p1807
S'B-VP'
p1808
g5
tp1809
a(S'statistically'
p1810
S'statistically'
p1811
S'RB'
p1812
S'B-ADJP'
p1813
g5
tp1814
a(S'significant'
p1815
S'significant'
p1816
S'JJ'
p1817
S'I-ADJP'
p1818
g5
tp1819
a(g165
g165
g165
g5
g5
tp1820
a(g1439
g1439
S'NN'
p1821
S'B-NP'
p1822
g5
tp1823
a(S'='
p1824
g1824
S'SYM'
p1825
S'B-VP'
p1826
g5
tp1827
a(S'.04'
p1828
S'.04'
p1829
S'CD'
p1830
S'B-NP'
p1831
g5
tp1832
a(g173
g173
g173
g5
g5
tp1833
a(g99
g99
g99
g5
g5
tp1834
a(S'Between-treatment'
p1835
S'Between-treatment'
p1836
S'JJ'
p1837
S'B-NP'
p1838
g5
tp1839
a(S'comparisons'
p1840
S'comparison'
p1841
S'NNS'
p1842
S'I-NP'
p1843
g5
tp1844
a(S'of'
p1845
S'of'
p1846
S'IN'
p1847
S'B-PP'
p1848
g5
tp1849
a(S'third'
p1850
S'third'
p1851
S'JJ'
p1852
S'B-NP'
p1853
g5
tp1854
a(S'treatment'
p1855
S'treatment'
p1856
S'NN'
p1857
S'I-NP'
p1858
g5
tp1859
a(S'cycle'
p1860
S'cycle'
p1861
S'NN'
p1862
S'I-NP'
p1863
g5
tp1864
a(S'mean'
p1865
S'mean'
p1866
S'NN'
p1867
S'I-NP'
p1868
g5
tp1869
a(S'values'
p1870
S'value'
p1871
S'NNS'
p1872
S'I-NP'
p1873
g5
tp1874
a(S'were'
p1875
S'be'
p1876
S'VBD'
p1877
S'B-VP'
p1878
g5
tp1879
a(S'performed'
p1880
S'perform'
p1881
S'VBN'
p1882
S'I-VP'
p1883
g5
tp1884
a(S'by'
p1885
S'by'
p1886
S'IN'
p1887
S'B-PP'
p1888
g5
tp1889
a(S'analysis'
p1890
S'analysis'
p1891
S'NN'
p1892
S'B-NP'
p1893
g5
tp1894
a(S'of'
p1895
S'of'
p1896
S'IN'
p1897
S'B-PP'
p1898
g5
tp1899
a(S'covariance'
p1900
S'covariance'
p1901
S'NN'
p1902
S'B-NP'
p1903
g5
tp1904
a(g165
g165
g165
g5
g5
tp1905
a(S'baseline'
p1906
S'baseline'
p1907
S'NN'
p1908
S'B-NP'
p1909
g5
tp1910
a(S'values'
p1911
S'value'
p1912
S'NNS'
p1913
S'I-NP'
p1914
g5
tp1915
a(S'as'
p1916
S'as'
p1917
S'IN'
p1918
S'B-PP'
p1919
g5
tp1920
a(S'covariate'
p1921
S'covariate'
p1922
S'NN'
p1923
S'B-NP'
p1924
g5
tp1925
a(g173
g173
g173
g5
g5
tp1926
a(g99
g99
g99
g5
g5
tp1927
a(S'No'
p1928
S'No'
p1929
S'DT'
p1930
S'B-NP'
p1931
g5
tp1932
a(S'statistically'
p1933
S'statistically'
p1934
S'RB'
p1935
S'I-NP'
p1936
g5
tp1937
a(S'significant'
p1938
S'significant'
p1939
S'JJ'
p1940
S'I-NP'
p1941
g5
tp1942
a(S'between-treatment'
p1943
S'between-treatment'
p1944
S'JJ'
p1945
S'I-NP'
p1946
g5
tp1947
a(S'differences'
p1948
S'difference'
p1949
S'NNS'
p1950
S'I-NP'
p1951
g5
tp1952
a(S'were'
p1953
S'be'
p1954
S'VBD'
p1955
S'B-VP'
p1956
g5
tp1957
a(S'found'
p1958
S'find'
p1959
S'VBN'
p1960
S'I-VP'
p1961
g5
tp1962
a(S'for'
p1963
S'for'
p1964
S'IN'
p1965
S'B-PP'
p1966
g5
tp1967
a(S'angiotensinogen'
p1968
S'angiotensinogen'
p1969
S'NN'
p1970
S'B-NP'
p1971
g5
tp1972
a(g437
g437
g437
g5
g5
tp1973
a(S'sensitive'
p1974
S'sensitive'
p1975
S'JJ'
p1976
S'B-ADJP'
p1977
g5
tp1978
a(S'only'
p1979
S'only'
p1980
S'RB'
p1981
S'I-ADJP'
p1982
g5
tp1983
a(S'to'
p1984
S'to'
p1985
S'TO'
p1986
S'B-PP'
p1987
g5
tp1988
a(S'estrogen'
p1989
S'estrogen'
p1990
S'NN'
p1991
S'B-NP'
p1992
g5
tp1993
a(g437
g437
g437
g5
g5
tp1994
a(S'or'
p1995
S'or'
p1996
S'CC'
p1997
g5
g5
tp1998
a(S'BP.'
p1999
S'BP.'
p2000
S'NNP'
p2001
S'B-NP'
p2002
g5
tp2003
a(S'Statistically'
p2004
S'Statistically'
p2005
S'RB'
p2006
S'B-NP'
p2007
g5
tp2008
a(S'significant'
p2009
S'significant'
p2010
S'JJ'
p2011
S'I-NP'
p2012
g5
tp2013
a(S'treatment'
p2014
S'treatment'
p2015
S'NN'
p2016
S'I-NP'
p2017
g5
tp2018
a(S'differences'
p2019
S'difference'
p2020
S'NNS'
p2021
S'I-NP'
p2022
g5
tp2023
a(S'were'
p2024
S'be'
p2025
S'VBD'
p2026
S'B-VP'
p2027
g5
tp2028
a(S'found'
p2029
S'find'
p2030
S'VBN'
p2031
S'I-VP'
p2032
g5
tp2033
a(S'for'
p2034
S'for'
p2035
S'IN'
p2036
S'B-PP'
p2037
g5
tp2038
a(S'all'
p2039
S'all'
p2040
S'DT'
p2041
S'B-NP'
p2042
g5
tp2043
a(S'estrogen-'
p2044
S'estrogen-'
p2045
S'NN'
p2046
S'I-NP'
p2047
g5
tp2048
a(S'and'
p2049
S'and'
p2050
S'CC'
p2051
S'I-NP'
p2052
g5
tp2053
a(S'androgen-sensitive'
p2054
S'androgen-sensitive'
p2055
S'JJ'
p2056
S'I-NP'
p2057
S'B-protein'
p2058
tp2059
a(S'proteins'
p2060
S'protein'
p2061
S'NNS'
p2062
S'I-NP'
p2063
S'I-protein'
p2064
tp2065
a(g165
g165
g165
g5
g5
tp2066
a(g1439
g1439
S'NN'
p2067
S'B-NP'
p2068
g5
tp2069
a(g1443
g1443
S'SYM'
p2070
S'B-VP'
p2071
g5
tp2072
a(S'or'
p2073
S'or'
p2074
S'CC'
p2075
g5
g5
tp2076
a(g1824
g1824
S'SYM'
p2077
S'B-VP'
p2078
g5
tp2079
a(S'.002'
p2080
S'.002'
p2081
S'CD'
p2082
S'B-NP'
p2083
g5
tp2084
a(g173
g173
g173
g5
g5
tp2085
a(S'but'
p2086
S'but'
p2087
S'CC'
p2088
S'B-PP'
p2089
g5
tp2090
a(S'not'
p2091
S'not'
p2092
S'RB'
p2093
S'B-PP'
p2094
g5
tp2095
a(S'for'
p2096
S'for'
p2097
S'IN'
p2098
S'I-PP'
p2099
g5
tp2100
a(S'TC.'
p2101
S'TC.'
p2102
S'NNP'
p2103
S'B-NP'
p2104
g5
tp2105
a(S'When'
p2106
S'When'
p2107
S'WRB'
p2108
S'B-ADVP'
p2109
g5
tp2110
a(S'presented'
p2111
S'present'
p2112
S'VBN'
p2113
S'B-VP'
p2114
g5
tp2115
a(S'as'
p2116
S'as'
p2117
S'IN'
p2118
S'B-PP'
p2119
g5
tp2120
a(S'relative'
p2121
S'relative'
p2122
S'JJ'
p2123
S'B-NP'
p2124
g5
tp2125
a(S'percent'
p2126
S'percent'
p2127
S'NN'
p2128
S'I-NP'
p2129
g5
tp2130
a(S'difference'
p2131
S'difference'
p2132
S'NN'
p2133
S'I-NP'
p2134
g5
tp2135
a(S'between'
p2136
S'between'
p2137
S'IN'
p2138
S'B-PP'
p2139
g5
tp2140
a(S'the'
p2141
S'the'
p2142
S'DT'
p2143
S'B-NP'
p2144
g5
tp2145
a(S'effects'
p2146
S'effect'
p2147
S'NNS'
p2148
S'I-NP'
p2149
g5
tp2150
a(S'of'
p2151
S'of'
p2152
S'IN'
p2153
S'B-PP'
p2154
g5
tp2155
a(S'treatment'
p2156
S'treatment'
p2157
S'NN'
p2158
S'B-NP'
p2159
g5
tp2160
a(g165
g165
g165
g5
g5
tp2161
a(S'CVR-OC/OC'
p2162
S'CVR-OC/OC'
p2163
S'NN'
p2164
S'B-NP'
p2165
g5
tp2166
a(g1311
g1311
g1304
g5
g5
tp2167
a(S'95'
p2168
S'95'
p2169
S'CD'
p2170
S'B-NP'
p2171
g5
tp2172
a(g1521
g1521
S'NN'
p2173
S'I-NP'
p2174
g5
tp2175
a(S'CI'
p2176
S'CI'
p2177
S'NN'
p2178
S'I-NP'
p2179
g5
tp2180
a(S'of'
p2181
S'of'
p2182
S'IN'
p2183
S'B-PP'
p2184
g5
tp2185
a(S'percent'
p2186
S'percent'
p2187
S'NN'
p2188
S'B-NP'
p2189
g5
tp2190
a(S'difference'
p2191
S'difference'
p2192
S'NN'
p2193
S'I-NP'
p2194
g5
tp2195
a(g173
g173
g173
g5
g5
tp2196
a(g437
g437
g437
g5
g5
tp2197
a(S'the'
p2198
S'the'
p2199
S'DT'
p2200
S'B-NP'
p2201
g5
tp2202
a(S'difference'
p2203
S'difference'
p2204
S'NN'
p2205
S'I-NP'
p2206
g5
tp2207
a(S'was'
p2208
S'be'
p2209
S'VBD'
p2210
S'B-VP'
p2211
g5
tp2212
a(S'largest'
p2213
S'large'
p2214
S'JJS'
p2215
S'B-ADJP'
p2216
g5
tp2217
a(S'for'
p2218
S'for'
p2219
S'IN'
p2220
S'B-PP'
p2221
g5
tp2222
a(S'SHBG'
p2223
S'SHBG'
p2224
S'NN'
p2225
S'B-NP'
p2226
S'B-protein'
p2227
tp2228
a(g165
g165
g165
g5
g5
tp2229
a(S'159'
p2230
S'159'
p2231
S'CD'
p2232
S'B-NP'
p2233
g5
tp2234
a(g1521
g1521
S'NN'
p2235
S'I-NP'
p2236
g5
tp2237
a(g1514
g1514
g165
g5
g5
tp2238
a(S'117-210'
p2239
S'117-210'
p2240
S'CD'
p2241
S'B-NP'
p2242
g5
tp2243
a(g1521
g1521
S'NN'
p2244
S'I-NP'
p2245
g5
tp2246
a(g1542
g1542
g173
g5
g5
tp2247
a(g173
g173
g173
g5
g5
tp2248
a(g1311
g1311
g1304
g5
g5
tp2249
a(S'smaller'
p2250
S'small'
p2251
S'JJR'
p2252
S'B-NP'
p2253
g5
tp2254
a(S'relative'
p2255
S'relative'
p2256
S'JJ'
p2257
S'I-NP'
p2258
g5
tp2259
a(S'percent'
p2260
S'percent'
p2261
S'NN'
p2262
S'I-NP'
p2263
g5
tp2264
a(S'differences'
p2265
S'difference'
p2266
S'NNS'
p2267
S'I-NP'
p2268
g5
tp2269
a(S'were'
p2270
S'be'
p2271
S'VBD'
p2272
S'B-VP'
p2273
g5
tp2274
a(S'found'
p2275
S'find'
p2276
S'VBN'
p2277
S'I-VP'
p2278
g5
tp2279
a(S'for'
p2280
S'for'
p2281
S'IN'
p2282
S'B-PP'
p2283
g5
tp2284
a(S'HDL-C'
p2285
S'HDL-C'
p2286
S'NN'
p2287
S'B-NP'
p2288
S'B-protein'
p2289
tp2290
a(g1514
g1514
g165
g5
g5
tp2291
a(S'31.9'
p2292
S'31.9'
p2293
S'CD'
p2294
S'B-NP'
p2295
g5
tp2296
a(g1521
g1521
S'NN'
p2297
S'I-NP'
p2298
g5
tp2299
a(g165
g165
g165
g5
g5
tp2300
a(S'18.5-46.8'
p2301
S'18.5-46.8'
p2302
S'CD'
p2303
S'B-NP'
p2304
g5
tp2305
a(g1521
g1521
S'NN'
p2306
S'I-NP'
p2307
g5
tp2308
a(g173
g173
g173
g5
g5
tp2309
a(g1542
g1542
g173
g5
g5
tp2310
a(g437
g437
g437
g5
g5
tp2311
a(S'LDL-C'
p2312
S'LDL-C'
p2313
S'NN'
p2314
S'B-NP'
p2315
S'B-protein'
p2316
tp2317
a(g1514
g1514
g165
g5
g5
tp2318
a(S'23.6'
p2319
S'23.6'
p2320
S'CD'
p2321
S'B-NP'
p2322
g5
tp2323
a(g1521
g1521
S'NN'
p2324
S'I-NP'
p2325
g5
tp2326
a(g165
g165
g165
g5
g5
tp2327
a(S'33.4'
p2328
S'33.4'
p2329
S'CD'
p2330
S'B-NP'
p2331
g5
tp2332
a(g1521
g1521
S'NN'
p2333
S'I-NP'
p2334
g5
tp2335
a(S'to'
p2336
S'to'
p2337
S'TO'
p2338
S'B-PP'
p2339
g5
tp2340
a(S'-2.4'
p2341
S'-2.4'
p2342
S'CD'
p2343
S'B-NP'
p2344
g5
tp2345
a(g1521
g1521
S'NN'
p2346
S'I-NP'
p2347
g5
tp2348
a(g173
g173
g173
g5
g5
tp2349
a(g1542
g1542
g173
g5
g5
tp2350
a(S'and'
p2351
S'and'
p2352
S'CC'
p2353
g5
g5
tp2354
a(S'TG'
p2355
S'TG'
p2356
S'NN'
p2357
S'B-NP'
p2358
S'B-protein'
p2359
tp2360
a(g1514
g1514
g165
g5
g5
tp2361
a(S'39.0'
p2362
S'39.0'
p2363
S'CD'
p2364
S'B-NP'
p2365
g5
tp2366
a(g1521
g1521
S'NN'
p2367
S'I-NP'
p2368
g5
tp2369
a(g165
g165
g165
g5
g5
tp2370
a(S'14.0-69.4'
p2371
S'14.0-69.4'
p2372
S'CD'
p2373
S'B-NP'
p2374
g5
tp2375
a(g1521
g1521
S'NN'
p2376
S'I-NP'
p2377
g5
tp2378
a(g173
g173
g173
g5
g5
tp2379
a(g1542
g1542
g173
g5
g5
tp2380
a(g437
g437
g437
g5
g5
tp2381
a(S'but'
p2382
S'but'
p2383
S'CC'
p2384
g5
g5
tp2385
a(S'not'
p2386
S'not'
p2387
S'RB'
p2388
g5
g5
tp2389
a(S'TC'
p2390
S'TC'
p2391
S'NN'
p2392
S'B-NP'
p2393
g5
tp2394
a(g99
g99
g99
g5
g5
tp2395
a(S'CONCLUSION'
p2396
S'CONCLUSION'
p2397
S'NN'
p2398
S'B-NP'
p2399
g5
tp2400
a(S'Vaginal'
p2401
S'Vaginal'
p2402
S'JJ'
p2403
S'I-NP'
p2404
g5
tp2405
a(S'delivery'
p2406
S'delivery'
p2407
S'NN'
p2408
S'I-NP'
p2409
g5
tp2410
a(S'of'
p2411
S'of'
p2412
S'IN'
p2413
S'B-PP'
p2414
g5
tp2415
a(g131
g131
S'DT'
p2416
S'B-NP'
p2417
g5
tp2418
a(S'combined'
p2419
S'combined'
p2420
S'JJ'
p2421
S'I-NP'
p2422
g5
tp2423
a(S'hormonal'
p2424
S'hormonal'
p2425
S'JJ'
p2426
S'I-NP'
p2427
g5
tp2428
a(S'contraceptive'
p2429
S'contraceptive'
p2430
S'NN'
p2431
S'I-NP'
p2432
g5
tp2433
a(S'did'
p2434
S'do'
p2435
S'VBD'
p2436
S'B-VP'
p2437
g5
tp2438
a(S'not'
p2439
S'not'
p2440
S'RB'
p2441
S'I-VP'
p2442
g5
tp2443
a(S'reduce'
p2444
S'reduce'
p2445
S'VB'
p2446
S'I-VP'
p2447
g5
tp2448
a(S'the'
p2449
S'the'
p2450
S'DT'
p2451
S'B-NP'
p2452
g5
tp2453
a(S'EE-associated'
p2454
S'EE-associated'
p2455
S'JJ'
p2456
S'I-NP'
p2457
g5
tp2458
a(S'changes'
p2459
S'change'
p2460
S'NNS'
p2461
S'I-NP'
p2462
g5
tp2463
a(S'in'
p2464
S'in'
p2465
S'IN'
p2466
S'B-PP'
p2467
g5
tp2468
a(S'estrogen-sensitive'
p2469
S'estrogen-sensitive'
p2470
S'JJ'
p2471
S'B-NP'
p2472
S'B-protein'
p2473
tp2474
a(S'hepatic'
p2475
S'hepatic'
p2476
S'JJ'
p2477
S'I-NP'
p2478
S'I-protein'
p2479
tp2480
a(S'proteins'
p2481
S'protein'
p2482
S'NNS'
p2483
S'I-NP'
p2484
S'I-protein'
p2485
tp2486
a(S'observed'
p2487
S'observe'
p2488
S'VBN'
p2489
S'B-VP'
p2490
g5
tp2491
a(S'after'
p2492
S'after'
p2493
S'IN'
p2494
S'B-PP'
p2495
g5
tp2496
a(S'use'
p2497
S'use'
p2498
S'NN'
p2499
S'B-NP'
p2500
g5
tp2501
a(S'of'
p2502
S'of'
p2503
S'IN'
p2504
S'B-PP'
p2505
g5
tp2506
a(g131
g131
S'DT'
p2507
S'B-NP'
p2508
g5
tp2509
a(S'combined'
p2510
S'combine'
p2511
S'VBN'
p2512
S'I-NP'
p2513
g5
tp2514
a(S'OC.'
p2515
S'OC.'
p2516
S'NNP'
p2517
S'I-NP'
p2518
g5
tp2519
a(S'Significant'
p2520
S'Significant'
p2521
S'JJ'
p2522
S'I-NP'
p2523
g5
tp2524
a(S'treatment'
p2525
S'treatment'
p2526
S'NN'
p2527
S'I-NP'
p2528
g5
tp2529
a(S'differences'
p2530
S'difference'
p2531
S'NNS'
p2532
S'I-NP'
p2533
g5
tp2534
a(S'between'
p2535
S'between'
p2536
S'IN'
p2537
S'B-PP'
p2538
g5
tp2539
a(S'the'
p2540
S'the'
p2541
S'DT'
p2542
S'B-NP'
p2543
g5
tp2544
a(S'NES/EE'
p2545
S'NES/EE'
p2546
S'NN'
p2547
S'I-NP'
p2548
g5
tp2549
a(S'CVR'
p2550
S'CVR'
p2551
S'NN'
p2552
S'I-NP'
p2553
g5
tp2554
a(S'and'
p2555
S'and'
p2556
S'CC'
p2557
g5
g5
tp2558
a(S'the'
p2559
S'the'
p2560
S'DT'
p2561
S'B-NP'
p2562
g5
tp2563
a(S'LNG/EE'
p2564
S'LNG/EE'
p2565
S'NN'
p2566
S'I-NP'
p2567
g5
tp2568
a(S'OC'
p2569
S'OC'
p2570
S'NN'
p2571
S'I-NP'
p2572
g5
tp2573
a(S'were'
p2574
S'be'
p2575
S'VBD'
p2576
S'B-VP'
p2577
g5
tp2578
a(S'found'
p2579
S'find'
p2580
S'VBN'
p2581
S'I-VP'
p2582
g5
tp2583
a(S'for'
p2584
S'for'
p2585
S'IN'
p2586
S'B-PP'
p2587
g5
tp2588
a(S'SHBG'
p2589
S'SHBG'
p2590
S'NN'
p2591
S'B-NP'
p2592
S'B-protein'
p2593
tp2594
a(g437
g437
g437
g5
g5
tp2595
a(S'HDL-C'
p2596
S'HDL-C'
p2597
S'NN'
p2598
S'B-NP'
p2599
S'B-protein'
p2600
tp2601
a(g437
g437
g437
g5
g5
tp2602
a(S'LDL-C'
p2603
S'LDL-C'
p2604
S'NN'
p2605
S'B-NP'
p2606
S'B-protein'
p2607
tp2608
a(g437
g437
g437
g5
g5
tp2609
a(S'and'
p2610
S'and'
p2611
S'CC'
p2612
g5
g5
tp2613
a(S'TG'
p2614
S'TG'
p2615
S'NN'
p2616
S'B-NP'
p2617
S'B-protein'
p2618
tp2619
a(g437
g437
g437
g5
g5
tp2620
a(S'proteins'
p2621
S'protein'
p2622
S'NNS'
p2623
S'B-NP'
p2624
g5
tp2625
a(S'sensitive'
p2626
S'sensitive'
p2627
S'JJ'
p2628
S'B-ADJP'
p2629
g5
tp2630
a(S'to'
p2631
S'to'
p2632
S'TO'
p2633
S'B-PP'
p2634
g5
tp2635
a(S'androgen'
p2636
S'androgen'
p2637
S'NN'
p2638
S'B-NP'
p2639
g5
tp2640
a(S'as'
p2641
S'as'
p2642
S'RB'
p2643
S'B-CONJP'
p2644
g5
tp2645
a(S'well'
p2646
S'well'
p2647
S'RB'
p2648
S'I-CONJP'
p2649
g5
tp2650
a(S'as'
p2651
S'as'
p2652
S'IN'
p2653
S'I-CONJP'
p2654
g5
tp2655
a(S'estrogen.'
p2656
S'estrogen.'
p2657
S'NN'
p2658
S'B-NP'
p2659
g5
tp2660
a(S'No'
p2661
S'No'
p2662
S'NN'
p2663
S'I-NP'
p2664
g5
tp2665
a(S'treatment'
p2666
S'treatment'
p2667
S'NN'
p2668
S'I-NP'
p2669
g5
tp2670
a(S'difference'
p2671
S'difference'
p2672
S'NN'
p2673
S'I-NP'
p2674
g5
tp2675
a(S'was'
p2676
S'be'
p2677
S'VBD'
p2678
S'B-VP'
p2679
g5
tp2680
a(S'observed'
p2681
S'observe'
p2682
S'VBN'
p2683
S'I-VP'
p2684
g5
tp2685
a(S'for'
p2686
S'for'
p2687
S'IN'
p2688
S'B-PP'
p2689
g5
tp2690
a(S'angiotensinogen'
p2691
S'angiotensinogen'
p2692
S'NN'
p2693
S'B-NP'
p2694
S'B-protein'
p2695
tp2696
a(g437
g437
g437
g5
g5
tp2697
a(S'which'
p2698
S'which'
p2699
S'WDT'
p2700
S'B-NP'
p2701
g5
tp2702
a(S'is'
p2703
S'be'
p2704
S'VBZ'
p2705
S'B-VP'
p2706
g5
tp2707
a(S'sensitive'
p2708
S'sensitive'
p2709
S'JJ'
p2710
S'B-ADJP'
p2711
g5
tp2712
a(S'only'
p2713
S'only'
p2714
S'RB'
p2715
S'I-ADJP'
p2716
g5
tp2717
a(S'to'
p2718
S'to'
p2719
S'TO'
p2720
S'B-VP'
p2721
g5
tp2722
a(S'estrogen.'
p2723
S'estrogen.'
p2724
S'VB'
p2725
S'I-VP'
p2726
g5
tp2727
a(S'The'
p2728
S'The'
p2729
S'DT'
p2730
S'B-NP'
p2731
g5
tp2732
a(S'observed'
p2733
S'observe'
p2734
S'VBN'
p2735
S'I-NP'
p2736
g5
tp2737
a(S'treatment'
p2738
S'treatment'
p2739
S'NN'
p2740
S'I-NP'
p2741
g5
tp2742
a(S'differences'
p2743
S'difference'
p2744
S'NNS'
p2745
S'I-NP'
p2746
g5
tp2747
a(S'were'
p2748
S'be'
p2749
S'VBD'
p2750
S'B-VP'
p2751
g5
tp2752
a(S'therefore'
p2753
S'therefore'
p2754
S'RB'
p2755
S'B-ADVP'
p2756
g5
tp2757
a(S'most'
p2758
S'most'
p2759
S'RBS'
p2760
S'B-ADVP'
p2761
g5
tp2762
a(S'likely'
p2763
S'likely'
p2764
S'RB'
p2765
S'I-ADVP'
p2766
g5
tp2767
a(S'due'
p2768
S'due'
p2769
S'IN'
p2770
S'B-PP'
p2771
g5
tp2772
a(S'to'
p2773
S'to'
p2774
S'TO'
p2775
S'B-PP'
p2776
g5
tp2777
a(S'the'
p2778
S'the'
p2779
S'DT'
p2780
S'B-NP'
p2781
g5
tp2782
a(S'difference'
p2783
S'difference'
p2784
S'NN'
p2785
S'I-NP'
p2786
g5
tp2787
a(S'in'
p2788
S'in'
p2789
S'IN'
p2790
S'B-PP'
p2791
g5
tp2792
a(S'androgenicity'
p2793
S'androgenicity'
p2794
S'NN'
p2795
S'B-NP'
p2796
g5
tp2797
a(S'between'
p2798
S'between'
p2799
S'IN'
p2800
S'B-PP'
p2801
g5
tp2802
a(S'NES'
p2803
S'NES'
p2804
S'NN'
p2805
S'B-NP'
p2806
S'B-protein'
p2807
tp2808
a(S'and'
p2809
S'and'
p2810
S'CC'
p2811
S'I-NP'
p2812
g5
tp2813
a(S'LNG'
p2814
S'LNG'
p2815
S'NN'
p2816
S'I-NP'
p2817
g5
tp2818
a(g99
g99
g99
g5
g5
tp2819
a.