(lp0
(S'OBJECTIVE'
p1
S'OBJECTIVE'
p2
S'NN'
p3
S'B-NP'
p4
S'O'
p5
tp6
a(S':'
p7
g7
g7
g5
g5
tp8
a(S'To'
p9
S'To'
p10
S'TO'
p11
S'B-VP'
p12
g5
tp13
a(S'examine'
p14
S'examine'
p15
S'VB'
p16
S'I-VP'
p17
g5
tp18
a(S'the'
p19
S'the'
p20
S'DT'
p21
S'B-NP'
p22
g5
tp23
a(S'effectiveness'
p24
S'effectiveness'
p25
S'NN'
p26
S'I-NP'
p27
g5
tp28
a(S'of'
p29
S'of'
p30
S'IN'
p31
S'B-PP'
p32
g5
tp33
a(S'pH'
p34
S'pH'
p35
S'NN'
p36
S'B-NP'
p37
g5
tp38
a(S'analysis'
p39
S'analysis'
p40
S'NN'
p41
S'I-NP'
p42
g5
tp43
a(S'of'
p44
S'of'
p45
S'IN'
p46
S'B-PP'
p47
g5
tp48
a(S'fetal'
p49
S'fetal'
p50
S'JJ'
p51
S'B-NP'
p52
g5
tp53
a(S'scalp'
p54
S'scalp'
p55
S'NN'
p56
S'I-NP'
p57
g5
tp58
a(S'blood'
p59
S'blood'
p60
S'NN'
p61
S'I-NP'
p62
g5
tp63
a(S'compared'
p64
S'compare'
p65
S'VBN'
p66
S'B-PP'
p67
g5
tp68
a(S'with'
p69
S'with'
p70
S'IN'
p71
S'B-PP'
p72
g5
tp73
a(S'lactate'
p74
S'lactate'
p75
S'NN'
p76
S'B-NP'
p77
g5
tp78
a(S'analysis'
p79
S'analysis'
p80
S'NN'
p81
S'I-NP'
p82
g5
tp83
a(S'in'
p84
S'in'
p85
S'IN'
p86
S'B-PP'
p87
g5
tp88
a(S'identifying'
p89
S'identify'
p90
S'VBG'
p91
S'B-VP'
p92
g5
tp93
a(S'hypoxia'
p94
S'hypoxia'
p95
S'NN'
p96
S'B-NP'
p97
g5
tp98
a(S'in'
p99
S'in'
p100
S'IN'
p101
S'B-PP'
p102
g5
tp103
a(S'labour'
p104
S'labour'
p105
S'NN'
p106
S'B-NP'
p107
g5
tp108
a(S'to'
p109
S'to'
p110
S'TO'
p111
S'B-VP'
p112
g5
tp113
a(S'prevent'
p114
S'prevent'
p115
S'VB'
p116
S'I-VP'
p117
g5
tp118
a(S'acidaemia'
p119
S'acidaemia'
p120
S'NN'
p121
S'B-NP'
p122
g5
tp123
a(S'at'
p124
S'at'
p125
S'IN'
p126
S'B-PP'
p127
g5
tp128
a(S'birth.'
p129
S'birth.'
p130
S'NN'
p131
S'B-NP'
p132
g5
tp133
a(S'DESIGN'
p134
S'DESIGN'
p135
S'NN'
p136
S'B-NP'
p137
g5
tp138
a(g7
g7
g7
g5
g5
tp139
a(S'Randomised'
p140
S'Randomised'
p141
S'NNP'
p142
S'B-NP'
p143
g5
tp144
a(S'controlled'
p145
S'control'
p146
S'VBD'
p147
S'B-VP'
p148
g5
tp149
a(S'multicentre'
p150
S'multicentre'
p151
S'JJ'
p152
S'B-NP'
p153
g5
tp154
a(S'trial.'
p155
S'trial.'
p156
S'NN'
p157
S'I-NP'
p158
g5
tp159
a(S'SETTING'
p160
S'SETTING'
p161
S'NN'
p162
S'B-NP'
p163
g5
tp164
a(g7
g7
g7
g5
g5
tp165
a(S'Labour'
p166
S'Labour'
p167
S'NNP'
p168
S'B-NP'
p169
g5
tp170
a(S'wards.'
p171
S'wards.'
p172
S'.'
p173
g5
g5
tp174
a(S'PARTICIPANTS'
p175
S'PARTICIPANTS'
p176
S'NNS'
p177
S'B-NP'
p178
g5
tp179
a(g7
g7
g7
g5
g5
tp180
a(S'Women'
p181
S'Woman'
p182
S'NNS'
p183
S'B-NP'
p184
g5
tp185
a(S'with'
p186
S'with'
p187
S'IN'
p188
S'B-PP'
p189
g5
tp190
a(S'a'
p191
g191
S'DT'
p192
S'B-NP'
p193
g5
tp194
a(S'singleton'
p195
S'singleton'
p196
S'JJ'
p197
S'I-NP'
p198
g5
tp199
a(S'pregnancy'
p200
S'pregnancy'
p201
S'NN'
p202
S'I-NP'
p203
g5
tp204
a(S','
p205
g205
g205
g5
g5
tp206
a(S'cephalic'
p207
S'cephalic'
p208
S'JJ'
p209
S'B-NP'
p210
g5
tp211
a(S'presentation'
p212
S'presentation'
p213
S'NN'
p214
S'I-NP'
p215
g5
tp216
a(g205
g205
g205
g5
g5
tp217
a(S'gestational'
p218
S'gestational'
p219
S'JJ'
p220
S'B-NP'
p221
g5
tp222
a(S'age'
p223
S'age'
p224
S'NN'
p225
S'I-NP'
p226
g5
tp227
a(S'>'
p228
g228
S'SYM'
p229
S'B-NP'
p230
g5
tp231
a(S'or=34'
p232
S'or=34'
p233
S'NN'
p234
S'I-NP'
p235
g5
tp236
a(S'weeks'
p237
S'week'
p238
S'NNS'
p239
S'I-NP'
p240
g5
tp241
a(g205
g205
g205
g5
g5
tp242
a(S'and'
p243
S'and'
p244
S'CC'
p245
g5
g5
tp246
a(S'clinical'
p247
S'clinical'
p248
S'JJ'
p249
S'B-NP'
p250
g5
tp251
a(S'indication'
p252
S'indication'
p253
S'NN'
p254
S'I-NP'
p255
g5
tp256
a(S'for'
p257
S'for'
p258
S'IN'
p259
S'B-PP'
p260
g5
tp261
a(S'fetal'
p262
S'fetal'
p263
S'JJ'
p264
S'B-NP'
p265
g5
tp266
a(S'scalp'
p267
S'scalp'
p268
S'NN'
p269
S'I-NP'
p270
g5
tp271
a(S'blood'
p272
S'blood'
p273
S'NN'
p274
S'I-NP'
p275
g5
tp276
a(S'sampling.'
p277
S'sampling.'
p278
S'NN'
p279
S'I-NP'
p280
g5
tp281
a(S'INTERVENTIONS'
p282
S'INTERVENTIONS'
p283
S'NNS'
p284
S'B-NP'
p285
g5
tp286
a(g7
g7
g7
g5
g5
tp287
a(S'Standard'
p288
S'Standard'
p289
S'JJ'
p290
S'B-NP'
p291
g5
tp292
a(S'pH'
p293
S'pH'
p294
S'NN'
p295
S'I-NP'
p296
g5
tp297
a(S'analysis'
p298
S'analysis'
p299
S'NN'
p300
S'I-NP'
p301
g5
tp302
a(S'('
p303
g303
g303
g5
g5
tp304
a(S'n=1496'
p305
S'n=1496'
p306
S'NN'
p307
S'B-NP'
p308
g5
tp309
a(S')'
p310
g310
g310
g5
g5
tp311
a(S'or'
p312
S'or'
p313
S'CC'
p314
g5
g5
tp315
a(S'lactate'
p316
S'lactate'
p317
S'NN'
p318
S'B-NP'
p319
g5
tp320
a(S'analysis'
p321
S'analysis'
p322
S'NN'
p323
S'I-NP'
p324
g5
tp325
a(g303
g303
g303
g5
g5
tp326
a(S'n=1496'
p327
S'n=1496'
p328
S'NN'
p329
S'B-NP'
p330
g5
tp331
a(g310
g310
g310
g5
g5
tp332
a(S'with'
p333
S'with'
p334
S'IN'
p335
S'B-PP'
p336
g5
tp337
a(S'an'
p338
S'an'
p339
S'DT'
p340
S'B-NP'
p341
g5
tp342
a(S'electrochemical'
p343
S'electrochemical'
p344
S'JJ'
p345
S'I-NP'
p346
g5
tp347
a(S'microvolume'
p348
S'microvolume'
p349
S'NN'
p350
S'I-NP'
p351
g5
tp352
a(g303
g303
g303
g5
g5
tp353
a(S'5'
p354
g354
S'CD'
p355
S'B-NP'
p356
g5
tp357
a(S'mul'
p358
S'mul'
p359
S'NN'
p360
S'I-NP'
p361
g5
tp362
a(g310
g310
g310
g5
g5
tp363
a(S'test'
p364
S'test'
p365
S'NN'
p366
S'B-NP'
p367
g5
tp368
a(S'strip'
p369
S'strip'
p370
S'NN'
p371
S'I-NP'
p372
g5
tp373
a(S'device.'
p374
S'device.'
p375
S'NN'
p376
S'I-NP'
p377
g5
tp378
a(S'The'
p379
S'The'
p380
S'DT'
p381
S'B-NP'
p382
g5
tp383
a(S'cut-off'
p384
S'cut-off'
p385
S'JJ'
p386
S'I-NP'
p387
g5
tp388
a(S'levels'
p389
S'level'
p390
S'NNS'
p391
S'I-NP'
p392
g5
tp393
a(S'for'
p394
S'for'
p395
S'IN'
p396
S'B-PP'
p397
g5
tp398
a(S'intervention'
p399
S'intervention'
p400
S'NN'
p401
S'B-NP'
p402
g5
tp403
a(S'were'
p404
S'be'
p405
S'VBD'
p406
S'B-VP'
p407
g5
tp408
a(S'pH'
p409
S'pH'
p410
S'NN'
p411
S'B-NP'
p412
g5
tp413
a(S'<'
p414
g414
S'JJR'
p415
S'B-NP'
p416
g5
tp417
a(S'7.21'
p418
S'7.21'
p419
S'CD'
p420
S'I-NP'
p421
g5
tp422
a(S'and'
p423
S'and'
p424
S'CC'
p425
g5
g5
tp426
a(S'lactate'
p427
S'lactate'
p428
S'NN'
p429
S'B-NP'
p430
g5
tp431
a(g228
g228
S'SYM'
p432
g5
g5
tp433
a(S'4.8'
p434
S'4.8'
p435
S'CD'
p436
S'B-NP'
p437
g5
tp438
a(S'mmol/l'
p439
S'mmol/l'
p440
S'NN'
p441
S'I-NP'
p442
g5
tp443
a(g205
g205
g205
g5
g5
tp444
a(S'respectively.'
p445
S'respectively.'
p446
S'NN'
p447
S'B-NP'
p448
g5
tp449
a(S'MAIN'
p450
S'MAIN'
p451
S'NN'
p452
S'B-NP'
p453
g5
tp454
a(S'OUTCOME'
p455
S'OUTCOME'
p456
S'NN'
p457
S'I-NP'
p458
g5
tp459
a(S'MEASURE'
p460
S'MEASURE'
p461
S'NN'
p462
S'I-NP'
p463
g5
tp464
a(g7
g7
g7
g5
g5
tp465
a(S'Metabolic'
p466
S'Metabolic'
p467
S'JJ'
p468
S'B-NP'
p469
g5
tp470
a(S'acidaemia'
p471
S'acidaemia'
p472
S'NN'
p473
S'I-NP'
p474
g5
tp475
a(g303
g303
g303
g5
g5
tp476
a(S'pH'
p477
S'pH'
p478
S'NN'
p479
S'B-NP'
p480
g5
tp481
a(g414
g414
S'JJR'
p482
S'B-ADJP'
p483
g5
tp484
a(S'7.05'
p485
S'7.05'
p486
S'CD'
p487
S'B-NP'
p488
g5
tp489
a(S'and'
p490
S'and'
p491
S'CC'
p492
g5
g5
tp493
a(S'base'
p494
S'base'
p495
S'NN'
p496
S'B-NP'
p497
g5
tp498
a(S'deficit'
p499
S'deficit'
p500
S'NN'
p501
S'I-NP'
p502
g5
tp503
a(g228
g228
S'SYM'
p504
g5
g5
tp505
a(S'12'
p506
S'12'
p507
S'CD'
p508
S'B-NP'
p509
g5
tp510
a(S'mmol/l'
p511
S'mmol/l'
p512
S'NN'
p513
S'I-NP'
p514
g5
tp515
a(g310
g310
g310
g5
g5
tp516
a(S'or'
p517
S'or'
p518
S'CC'
p519
g5
g5
tp520
a(S'pH'
p521
S'pH'
p522
S'NN'
p523
S'B-NP'
p524
g5
tp525
a(g414
g414
S'SYM'
p526
S'B-NP'
p527
g5
tp528
a(S'7.00'
p529
S'7.00'
p530
S'CD'
p531
S'B-NP'
p532
g5
tp533
a(S'in'
p534
S'in'
p535
S'IN'
p536
S'B-PP'
p537
g5
tp538
a(S'cord'
p539
S'cord'
p540
S'NN'
p541
S'B-NP'
p542
g5
tp543
a(S'artery'
p544
S'artery'
p545
S'NN'
p546
S'I-NP'
p547
g5
tp548
a(S'blood.'
p549
S'blood.'
p550
S'NN'
p551
S'I-NP'
p552
g5
tp553
a(S'RESULTS'
p554
S'RESULTS'
p555
S'NNS'
p556
S'B-NP'
p557
g5
tp558
a(g7
g7
g7
g5
g5
tp559
a(S'Metabolic'
p560
S'Metabolic'
p561
S'JJ'
p562
S'B-NP'
p563
g5
tp564
a(S'acidaemia'
p565
S'acidaemia'
p566
S'NN'
p567
S'I-NP'
p568
g5
tp569
a(S'occurred'
p570
S'occur'
p571
S'VBD'
p572
S'B-VP'
p573
g5
tp574
a(S'in'
p575
S'in'
p576
S'IN'
p577
S'B-PP'
p578
g5
tp579
a(S'3.2'
p580
S'3.2'
p581
S'CD'
p582
S'B-NP'
p583
g5
tp584
a(S'%'
p585
g585
S'NN'
p586
S'I-NP'
p587
g5
tp588
a(S'in'
p589
S'in'
p590
S'IN'
p591
S'B-PP'
p592
g5
tp593
a(S'the'
p594
S'the'
p595
S'DT'
p596
S'B-NP'
p597
g5
tp598
a(S'lactate'
p599
S'lactate'
p600
S'NN'
p601
S'I-NP'
p602
g5
tp603
a(S'group'
p604
S'group'
p605
S'NN'
p606
S'I-NP'
p607
g5
tp608
a(S'and'
p609
S'and'
p610
S'CC'
p611
S'B-PP'
p612
g5
tp613
a(S'in'
p614
S'in'
p615
S'IN'
p616
S'B-PP'
p617
g5
tp618
a(S'3.6'
p619
S'3.6'
p620
S'CD'
p621
S'B-NP'
p622
g5
tp623
a(g585
g585
S'NN'
p624
S'I-NP'
p625
g5
tp626
a(S'in'
p627
S'in'
p628
S'IN'
p629
S'B-PP'
p630
g5
tp631
a(S'the'
p632
S'the'
p633
S'DT'
p634
S'B-NP'
p635
g5
tp636
a(S'pH'
p637
S'pH'
p638
S'NN'
p639
S'I-NP'
p640
g5
tp641
a(S'group'
p642
S'group'
p643
S'NN'
p644
S'I-NP'
p645
g5
tp646
a(g303
g303
g303
g5
g5
tp647
a(S'relative'
p648
S'relative'
p649
S'JJ'
p650
S'B-NP'
p651
g5
tp652
a(S'risk'
p653
S'risk'
p654
S'NN'
p655
S'I-NP'
p656
g5
tp657
a(S'0.91'
p658
S'0.91'
p659
S'CD'
p660
S'I-NP'
p661
g5
tp662
a(g205
g205
g205
S'I-NP'
p663
g5
tp664
a(S'95'
p665
S'95'
p666
S'CD'
p667
S'I-NP'
p668
g5
tp669
a(g585
g585
S'NN'
p670
S'I-NP'
p671
g5
tp672
a(S'confidence'
p673
S'confidence'
p674
S'NN'
p675
S'I-NP'
p676
g5
tp677
a(S'interval'
p678
S'interval'
p679
S'NN'
p680
S'I-NP'
p681
g5
tp682
a(S'0.61'
p683
S'0.61'
p684
S'CD'
p685
S'B-NP'
p686
g5
tp687
a(S'to'
p688
S'to'
p689
S'TO'
p690
S'I-NP'
p691
g5
tp692
a(S'1.36'
p693
S'1.36'
p694
S'CD'
p695
S'I-NP'
p696
g5
tp697
a(g310
g310
g310
g5
g5
tp698
a(g173
g173
g173
g5
g5
tp699
a(S'pH'
p700
S'pH'
p701
S'NN'
p702
S'B-NP'
p703
g5
tp704
a(g414
g414
S'SYM'
p705
S'I-NP'
p706
g5
tp707
a(S'7.00'
p708
S'7.00'
p709
S'CD'
p710
S'I-NP'
p711
g5
tp712
a(S'occurred'
p713
S'occur'
p714
S'VBD'
p715
S'B-VP'
p716
g5
tp717
a(S'in'
p718
S'in'
p719
S'IN'
p720
S'B-PP'
p721
g5
tp722
a(S'1.5'
p723
S'1.5'
p724
S'CD'
p725
S'B-NP'
p726
g5
tp727
a(g585
g585
S'NN'
p728
S'I-NP'
p729
g5
tp730
a(S'in'
p731
S'in'
p732
S'IN'
p733
S'B-PP'
p734
g5
tp735
a(S'the'
p736
S'the'
p737
S'DT'
p738
S'B-NP'
p739
g5
tp740
a(S'lactate'
p741
S'lactate'
p742
S'NN'
p743
S'I-NP'
p744
g5
tp745
a(S'group'
p746
S'group'
p747
S'NN'
p748
S'I-NP'
p749
g5
tp750
a(S'and'
p751
S'and'
p752
S'CC'
p753
S'B-PP'
p754
g5
tp755
a(S'in'
p756
S'in'
p757
S'IN'
p758
S'B-PP'
p759
g5
tp760
a(S'1.8'
p761
S'1.8'
p762
S'CD'
p763
S'B-NP'
p764
g5
tp765
a(g585
g585
S'NN'
p766
S'I-NP'
p767
g5
tp768
a(S'in'
p769
S'in'
p770
S'IN'
p771
S'B-PP'
p772
g5
tp773
a(S'the'
p774
S'the'
p775
S'DT'
p776
S'B-NP'
p777
g5
tp778
a(S'pH'
p779
S'pH'
p780
S'NN'
p781
S'I-NP'
p782
g5
tp783
a(S'group'
p784
S'group'
p785
S'NN'
p786
S'I-NP'
p787
g5
tp788
a(g303
g303
g303
g5
g5
tp789
a(S'0.84'
p790
S'0.84'
p791
S'CD'
p792
S'B-NP'
p793
g5
tp794
a(g205
g205
g205
g5
g5
tp795
a(S'0.47'
p796
S'0.47'
p797
S'CD'
p798
S'B-NP'
p799
g5
tp800
a(S'to'
p801
S'to'
p802
S'TO'
p803
S'B-PP'
p804
g5
tp805
a(S'1.50'
p806
S'1.50'
p807
S'CD'
p808
S'B-NP'
p809
g5
tp810
a(g310
g310
g310
g5
g5
tp811
a(g173
g173
g173
g5
g5
tp812
a(S'There'
p813
S'There'
p814
S'EX'
p815
S'B-NP'
p816
g5
tp817
a(S'was'
p818
S'be'
p819
S'VBD'
p820
S'B-VP'
p821
g5
tp822
a(S'no'
p823
S'no'
p824
S'DT'
p825
S'B-NP'
p826
g5
tp827
a(S'significant'
p828
S'significant'
p829
S'JJ'
p830
S'I-NP'
p831
g5
tp832
a(S'difference'
p833
S'difference'
p834
S'NN'
p835
S'I-NP'
p836
g5
tp837
a(S'in'
p838
S'in'
p839
S'IN'
p840
S'B-PP'
p841
g5
tp842
a(S'Apgar'
p843
S'Apgar'
p844
S'NN'
p845
S'B-NP'
p846
g5
tp847
a(S'scores'
p848
S'score'
p849
S'NNS'
p850
S'I-NP'
p851
g5
tp852
a(g414
g414
S'SYM'
p853
g5
g5
tp854
a(S'7'
p855
g855
S'CD'
p856
S'B-NP'
p857
g5
tp858
a(S'at'
p859
S'at'
p860
S'IN'
p861
S'B-PP'
p862
g5
tp863
a(g354
g354
S'CD'
p864
S'B-NP'
p865
g5
tp866
a(S'minutes'
p867
S'minute'
p868
S'NNS'
p869
S'I-NP'
p870
g5
tp871
a(g303
g303
g303
g5
g5
tp872
a(S'1.15'
p873
S'1.15'
p874
S'CD'
p875
S'B-NP'
p876
g5
tp877
a(g205
g205
g205
g5
g5
tp878
a(S'0.76'
p879
S'0.76'
p880
S'CD'
p881
S'B-NP'
p882
g5
tp883
a(S'to'
p884
S'to'
p885
S'TO'
p886
S'B-PP'
p887
g5
tp888
a(S'1.75'
p889
S'1.75'
p890
S'CD'
p891
S'B-NP'
p892
g5
tp893
a(g310
g310
g310
g5
g5
tp894
a(S'or'
p895
S'or'
p896
S'CC'
p897
g5
g5
tp898
a(S'operative'
p899
S'operative'
p900
S'JJ'
p901
S'B-NP'
p902
g5
tp903
a(S'deliveries'
p904
S'delivery'
p905
S'NNS'
p906
S'I-NP'
p907
g5
tp908
a(S'for'
p909
S'for'
p910
S'IN'
p911
S'B-PP'
p912
g5
tp913
a(S'fetal'
p914
S'fetal'
p915
S'JJ'
p916
S'B-NP'
p917
g5
tp918
a(S'distress'
p919
S'distress'
p920
S'NN'
p921
S'I-NP'
p922
g5
tp923
a(g303
g303
g303
g5
g5
tp924
a(S'1.02'
p925
S'1.02'
p926
S'CD'
p927
S'B-NP'
p928
g5
tp929
a(g205
g205
g205
g5
g5
tp930
a(S'0.93'
p931
S'0.93'
p932
S'CD'
p933
S'B-NP'
p934
g5
tp935
a(S'to'
p936
S'to'
p937
S'TO'
p938
S'B-PP'
p939
g5
tp940
a(S'1.11'
p941
S'1.11'
p942
S'CD'
p943
S'B-NP'
p944
g5
tp945
a(g310
g310
g310
g5
g5
tp946
a(g173
g173
g173
g5
g5
tp947
a(S'CONCLUSION'
p948
S'CONCLUSION'
p949
S'NN'
p950
S'B-NP'
p951
g5
tp952
a(g7
g7
g7
g5
g5
tp953
a(S'There'
p954
S'There'
p955
S'EX'
p956
S'B-NP'
p957
g5
tp958
a(S'were'
p959
S'be'
p960
S'VBD'
p961
S'B-VP'
p962
g5
tp963
a(S'no'
p964
S'no'
p965
S'DT'
p966
S'B-NP'
p967
g5
tp968
a(S'significant'
p969
S'significant'
p970
S'JJ'
p971
S'I-NP'
p972
g5
tp973
a(S'differences'
p974
S'difference'
p975
S'NNS'
p976
S'I-NP'
p977
g5
tp978
a(S'in'
p979
S'in'
p980
S'IN'
p981
S'B-PP'
p982
g5
tp983
a(S'rate'
p984
S'rate'
p985
S'NN'
p986
S'B-NP'
p987
g5
tp988
a(S'of'
p989
S'of'
p990
S'IN'
p991
S'B-PP'
p992
g5
tp993
a(S'acidaemia'
p994
S'acidaemia'
p995
S'NN'
p996
S'B-NP'
p997
g5
tp998
a(S'at'
p999
S'at'
p1000
S'IN'
p1001
S'B-PP'
p1002
g5
tp1003
a(S'birth'
p1004
S'birth'
p1005
S'NN'
p1006
S'B-NP'
p1007
g5
tp1008
a(S'after'
p1009
S'after'
p1010
S'IN'
p1011
S'B-PP'
p1012
g5
tp1013
a(S'use'
p1014
S'use'
p1015
S'NN'
p1016
S'B-NP'
p1017
g5
tp1018
a(S'of'
p1019
S'of'
p1020
S'IN'
p1021
S'B-PP'
p1022
g5
tp1023
a(S'lactate'
p1024
S'lactate'
p1025
S'NN'
p1026
S'B-NP'
p1027
g5
tp1028
a(S'analysis'
p1029
S'analysis'
p1030
S'NN'
p1031
S'I-NP'
p1032
g5
tp1033
a(S'or'
p1034
S'or'
p1035
S'CC'
p1036
S'I-NP'
p1037
g5
tp1038
a(S'pH'
p1039
S'pH'
p1040
S'NN'
p1041
S'I-NP'
p1042
g5
tp1043
a(S'analysis'
p1044
S'analysis'
p1045
S'NN'
p1046
S'I-NP'
p1047
g5
tp1048
a(S'of'
p1049
S'of'
p1050
S'IN'
p1051
S'B-PP'
p1052
g5
tp1053
a(S'fetal'
p1054
S'fetal'
p1055
S'JJ'
p1056
S'B-NP'
p1057
S'B-cell_type'
p1058
tp1059
a(S'scalp'
p1060
S'scalp'
p1061
S'NN'
p1062
S'I-NP'
p1063
S'I-cell_type'
p1064
tp1065
a(S'blood'
p1066
S'blood'
p1067
S'NN'
p1068
S'I-NP'
p1069
S'I-cell_type'
p1070
tp1071
a(S'samples'
p1072
S'sample'
p1073
S'NNS'
p1074
S'I-NP'
p1075
S'I-cell_type'
p1076
tp1077
a(S'to'
p1078
S'to'
p1079
S'TO'
p1080
S'B-VP'
p1081
g5
tp1082
a(S'determine'
p1083
S'determine'
p1084
S'VB'
p1085
S'I-VP'
p1086
g5
tp1087
a(S'hypoxia'
p1088
S'hypoxia'
p1089
S'NN'
p1090
S'B-NP'
p1091
g5
tp1092
a(S'during'
p1093
S'during'
p1094
S'IN'
p1095
S'B-PP'
p1096
g5
tp1097
a(S'labour.'
p1098
S'labour.'
p1099
S'NN'
p1100
S'B-NP'
p1101
g5
tp1102
a(S'TRIAL'
p1103
S'TRIAL'
p1104
S'NN'
p1105
S'B-NP'
p1106
g5
tp1107
a(S'REGISTRATION'
p1108
S'REGISTRATION'
p1109
S'NN'
p1110
S'I-NP'
p1111
g5
tp1112
a(g7
g7
g7
g5
g5
tp1113
a(S'ISRCT'
p1114
S'ISRCT'
p1115
S'NN'
p1116
S'B-NP'
p1117
g5
tp1118
a(S'No'
p1119
S'No'
p1120
S'NNP'
p1121
S'B-NP'
p1122
g5
tp1123
a(S'1606064'
p1124
S'1606064'
p1125
S'CD'
p1126
S'I-NP'
p1127
g5
tp1128
a(g173
g173
g173
g5
g5
tp1129
a.