(lp0
(S'OBJECTIVE'
p1
S'OBJECTIVE'
p2
S'NN'
p3
S'B-NP'
p4
S'O'
p5
tp6
a(S':'
p7
g7
g7
g5
g5
tp8
a(S'To'
p9
S'To'
p10
S'TO'
p11
S'B-VP'
p12
g5
tp13
a(S'assess'
p14
S'assess'
p15
S'VB'
p16
S'I-VP'
p17
g5
tp18
a(S'the'
p19
S'the'
p20
S'DT'
p21
S'B-NP'
p22
g5
tp23
a(S'effect'
p24
S'effect'
p25
S'NN'
p26
S'I-NP'
p27
g5
tp28
a(S'of'
p29
S'of'
p30
S'IN'
p31
S'B-PP'
p32
g5
tp33
a(S'combined'
p34
S'combine'
p35
S'VBN'
p36
S'B-NP'
p37
g5
tp38
a(S'hormone'
p39
S'hormone'
p40
S'NN'
p41
S'I-NP'
p42
g5
tp43
a(S'replacement'
p44
S'replacement'
p45
S'NN'
p46
S'I-NP'
p47
g5
tp48
a(S'therapy'
p49
S'therapy'
p50
S'NN'
p51
S'I-NP'
p52
g5
tp53
a(S'('
p54
g54
g54
g5
g5
tp55
a(S'HRT'
p56
S'HRT'
p57
S'NN'
p58
S'B-NP'
p59
S'B-protein'
p60
tp61
a(S')'
p62
g62
g62
g5
g5
tp63
a(S'on'
p64
S'on'
p65
S'IN'
p66
S'B-PP'
p67
g5
tp68
a(S'health'
p69
S'health'
p70
S'NN'
p71
S'B-NP'
p72
g5
tp73
a(S'related'
p74
S'related'
p75
S'JJ'
p76
S'I-NP'
p77
g5
tp78
a(S'quality'
p79
S'quality'
p80
S'NN'
p81
S'I-NP'
p82
g5
tp83
a(S'of'
p84
S'of'
p85
S'IN'
p86
S'B-PP'
p87
g5
tp88
a(S'life.'
p89
S'life.'
p90
S'NN'
p91
S'B-NP'
p92
g5
tp93
a(S'DESIGN'
p94
S'DESIGN'
p95
S'NN'
p96
S'B-NP'
p97
g5
tp98
a(g7
g7
g7
g5
g5
tp99
a(S'Randomised'
p100
S'Randomise'
p101
S'VBN'
p102
S'B-NP'
p103
g5
tp104
a(S'placebo'
p105
S'placebo'
p106
S'NN'
p107
S'I-NP'
p108
g5
tp109
a(S'controlled'
p110
S'control'
p111
S'VBD'
p112
S'B-VP'
p113
g5
tp114
a(S'double'
p115
S'double'
p116
S'JJ'
p117
S'B-NP'
p118
g5
tp119
a(S'blind'
p120
S'blind'
p121
S'JJ'
p122
S'I-NP'
p123
g5
tp124
a(S'trial.'
p125
S'trial.'
p126
S'NN'
p127
S'I-NP'
p128
g5
tp129
a(S'SETTING'
p130
S'SETTING'
p131
S'NN'
p132
S'B-NP'
p133
g5
tp134
a(g7
g7
g7
g5
g5
tp135
a(S'General'
p136
S'General'
p137
S'JJ'
p138
S'B-NP'
p139
g5
tp140
a(S'practices'
p141
S'practice'
p142
S'NNS'
p143
S'I-NP'
p144
g5
tp145
a(S'in'
p146
S'in'
p147
S'IN'
p148
S'B-PP'
p149
g5
tp150
a(S'United'
p151
S'United'
p152
S'NNP'
p153
S'B-NP'
p154
g5
tp155
a(S'Kingdom'
p156
S'Kingdom'
p157
S'NNP'
p158
S'I-NP'
p159
g5
tp160
a(g54
g54
g54
g5
g5
tp161
a(S'384'
p162
S'384'
p163
S'CD'
p164
S'B-NP'
p165
g5
tp166
a(g62
g62
g62
g5
g5
tp167
a(S','
p168
g168
g168
g5
g5
tp169
a(S'Australia'
p170
S'Australia'
p171
S'NNP'
p172
S'B-NP'
p173
g5
tp174
a(g54
g54
g54
g5
g5
tp175
a(S'94'
p176
S'94'
p177
S'CD'
p178
S'B-NP'
p179
g5
tp180
a(g62
g62
g62
g5
g5
tp181
a(g168
g168
g168
g5
g5
tp182
a(S'and'
p183
S'and'
p184
S'CC'
p185
g5
g5
tp186
a(S'New'
p187
S'New'
p188
S'NNP'
p189
S'B-NP'
p190
g5
tp191
a(S'Zealand'
p192
S'Zealand'
p193
S'NNP'
p194
S'I-NP'
p195
g5
tp196
a(g54
g54
g54
g5
g5
tp197
a(S'24'
p198
S'24'
p199
S'CD'
p200
S'B-NP'
p201
g5
tp202
a(g62
g62
g62
g5
g5
tp203
a(S'.'
p204
g204
g204
g5
g5
tp205
a(S'PARTICIPANTS'
p206
S'PARTICIPANTS'
p207
S'NNS'
p208
S'B-NP'
p209
g5
tp210
a(g7
g7
g7
g5
g5
tp211
a(S'Postmenopausal'
p212
S'Postmenopausal'
p213
S'JJ'
p214
S'B-NP'
p215
g5
tp216
a(S'women'
p217
S'woman'
p218
S'NNS'
p219
S'I-NP'
p220
g5
tp221
a(S'aged'
p222
S'age'
p223
S'VBN'
p224
S'B-VP'
p225
g5
tp226
a(S'50-69'
p227
S'50-69'
p228
S'CD'
p229
S'B-NP'
p230
g5
tp231
a(S'at'
p232
S'at'
p233
S'IN'
p234
S'B-PP'
p235
g5
tp236
a(S'randomisation'
p237
S'randomisation'
p238
S'NN'
p239
S'B-NP'
p240
g5
tp241
a(S';'
p242
g242
g7
g5
g5
tp243
a(S'3721'
p244
S'3721'
p245
S'CD'
p246
S'B-NP'
p247
g5
tp248
a(S'women'
p249
S'woman'
p250
S'NNS'
p251
S'I-NP'
p252
g5
tp253
a(S'with'
p254
S'with'
p255
S'IN'
p256
S'B-PP'
p257
g5
tp258
a(S'a'
p259
g259
S'DT'
p260
S'B-NP'
p261
g5
tp262
a(S'uterus'
p263
S'uterus'
p264
S'NN'
p265
S'I-NP'
p266
g5
tp267
a(S'were'
p268
S'be'
p269
S'VBD'
p270
S'B-VP'
p271
g5
tp272
a(S'randomised'
p273
S'randomise'
p274
S'VBN'
p275
S'I-VP'
p276
g5
tp277
a(S'to'
p278
S'to'
p279
S'TO'
p280
S'B-PP'
p281
g5
tp282
a(S'combined'
p283
S'combine'
p284
S'VBN'
p285
S'B-NP'
p286
g5
tp287
a(S'oestrogen'
p288
S'oestrogen'
p289
S'NN'
p290
S'I-NP'
p291
g5
tp292
a(S'and'
p293
S'and'
p294
S'CC'
p295
S'I-NP'
p296
g5
tp297
a(S'progestogen'
p298
S'progestogen'
p299
S'NN'
p300
S'I-NP'
p301
g5
tp302
a(g54
g54
g54
g5
g5
tp303
a(S'n=1862'
p304
S'n=1862'
p305
S'NN'
p306
S'B-NP'
p307
g5
tp308
a(g62
g62
g62
g5
g5
tp309
a(S'or'
p310
S'or'
p311
S'CC'
p312
g5
g5
tp313
a(S'placebo'
p314
S'placebo'
p315
S'NN'
p316
S'B-NP'
p317
g5
tp318
a(g54
g54
g54
g5
g5
tp319
a(S'n=1859'
p320
S'n=1859'
p321
S'NN'
p322
S'B-NP'
p323
g5
tp324
a(g62
g62
g62
g5
g5
tp325
a(g204
g204
g204
g5
g5
tp326
a(S'Data'
p327
S'Datum'
p328
S'NNS'
p329
S'B-NP'
p330
g5
tp331
a(S'on'
p332
S'on'
p333
S'IN'
p334
S'B-PP'
p335
g5
tp336
a(S'health'
p337
S'health'
p338
S'NN'
p339
S'B-NP'
p340
g5
tp341
a(S'related'
p342
S'related'
p343
S'JJ'
p344
S'I-NP'
p345
g5
tp346
a(S'quality'
p347
S'quality'
p348
S'NN'
p349
S'I-NP'
p350
g5
tp351
a(S'of'
p352
S'of'
p353
S'IN'
p354
S'B-PP'
p355
g5
tp356
a(S'life'
p357
S'life'
p358
S'NN'
p359
S'B-NP'
p360
g5
tp361
a(S'at'
p362
S'at'
p363
S'IN'
p364
S'B-PP'
p365
g5
tp366
a(S'one'
p367
S'one'
p368
S'CD'
p369
S'B-NP'
p370
g5
tp371
a(S'year'
p372
S'year'
p373
S'NN'
p374
S'I-NP'
p375
g5
tp376
a(S'were'
p377
S'be'
p378
S'VBD'
p379
S'B-VP'
p380
g5
tp381
a(S'available'
p382
S'available'
p383
S'JJ'
p384
S'B-ADJP'
p385
g5
tp386
a(S'from'
p387
S'from'
p388
S'IN'
p389
S'B-PP'
p390
g5
tp391
a(S'1043'
p392
S'1043'
p393
S'CD'
p394
S'B-NP'
p395
g5
tp396
a(S'and'
p397
S'and'
p398
S'CC'
p399
S'I-NP'
p400
g5
tp401
a(S'1087'
p402
S'1087'
p403
S'CD'
p404
S'I-NP'
p405
g5
tp406
a(S'women'
p407
S'woman'
p408
S'NNS'
p409
S'I-NP'
p410
g5
tp411
a(g168
g168
g168
g5
g5
tp412
a(S'respectively.'
p413
S'respectively.'
p414
S'NN'
p415
S'B-NP'
p416
g5
tp417
a(S'INTERVENTIONS'
p418
S'INTERVENTIONS'
p419
S'NNS'
p420
S'B-NP'
p421
g5
tp422
a(g7
g7
g7
g5
g5
tp423
a(S'Conjugated'
p424
S'Conjugate'
p425
S'VBN'
p426
S'B-VP'
p427
g5
tp428
a(S'equine'
p429
S'equine'
p430
S'JJ'
p431
S'B-NP'
p432
g5
tp433
a(S'oestrogen'
p434
S'oestrogen'
p435
S'NN'
p436
S'I-NP'
p437
g5
tp438
a(S'0.625'
p439
S'0.625'
p440
S'CD'
p441
S'I-NP'
p442
g5
tp443
a(S'mg'
p444
S'mg'
p445
S'NN'
p446
S'I-NP'
p447
g5
tp448
a(S'plus'
p449
S'plus'
p450
S'CC'
p451
g5
g5
tp452
a(S'medroxyprogesterone'
p453
S'medroxyprogesterone'
p454
S'NN'
p455
S'B-NP'
p456
g5
tp457
a(S'acetate'
p458
S'acetate'
p459
S'NN'
p460
S'I-NP'
p461
g5
tp462
a(S'2.5/5.0'
p463
S'2.5/5.0'
p464
S'CD'
p465
S'B-NP'
p466
g5
tp467
a(S'mg'
p468
S'mg'
p469
S'NN'
p470
S'I-NP'
p471
g5
tp472
a(S'or'
p473
S'or'
p474
S'CC'
p475
g5
g5
tp476
a(S'matched'
p477
S'match'
p478
S'VBN'
p479
S'B-NP'
p480
g5
tp481
a(S'placebo'
p482
S'placebo'
p483
S'NN'
p484
S'I-NP'
p485
g5
tp486
a(S'orally'
p487
S'orally'
p488
S'RB'
p489
S'B-ADVP'
p490
g5
tp491
a(S'daily'
p492
S'daily'
p493
S'RB'
p494
S'I-ADVP'
p495
g5
tp496
a(S'for'
p497
S'for'
p498
S'IN'
p499
S'B-PP'
p500
g5
tp501
a(S'one'
p502
S'one'
p503
S'CD'
p504
S'B-NP'
p505
g5
tp506
a(S'year.'
p507
S'year.'
p508
S'NN'
p509
S'I-NP'
p510
g5
tp511
a(S'MAIN'
p512
S'MAIN'
p513
S'NNP'
p514
S'B-NP'
p515
g5
tp516
a(S'OUTCOME'
p517
S'OUTCOME'
p518
S'NNP'
p519
S'I-NP'
p520
g5
tp521
a(S'MEASURES'
p522
S'MEASURES'
p523
S'NNP'
p524
S'I-NP'
p525
g5
tp526
a(g7
g7
g7
g5
g5
tp527
a(S'Health'
p528
S'Health'
p529
S'NNP'
p530
S'B-NP'
p531
g5
tp532
a(S'related'
p533
S'related'
p534
S'JJ'
p535
S'I-NP'
p536
g5
tp537
a(S'quality'
p538
S'quality'
p539
S'NN'
p540
S'I-NP'
p541
g5
tp542
a(S'of'
p543
S'of'
p544
S'IN'
p545
S'B-PP'
p546
g5
tp547
a(S'life'
p548
S'life'
p549
S'NN'
p550
S'B-NP'
p551
g5
tp552
a(S'and'
p553
S'and'
p554
S'CC'
p555
g5
g5
tp556
a(S'psychological'
p557
S'psychological'
p558
S'JJ'
p559
S'B-NP'
p560
g5
tp561
a(S'wellbeing'
p562
S'wellbeing'
p563
S'NN'
p564
S'I-NP'
p565
g5
tp566
a(S'as'
p567
S'as'
p568
S'IN'
p569
S'B-SBAR'
p570
g5
tp571
a(S'measured'
p572
S'measure'
p573
S'VBN'
p574
S'B-VP'
p575
g5
tp576
a(S'by'
p577
S'by'
p578
S'IN'
p579
S'B-PP'
p580
g5
tp581
a(S'the'
p582
S'the'
p583
S'DT'
p584
S'B-NP'
p585
g5
tp586
a(S'women'
p587
S'woman'
p588
S'NNS'
p589
S'I-NP'
p590
g5
tp591
a(S"'s"
p592
S"'s"
p593
S'POS'
p594
S'B-NP'
p595
g5
tp596
a(S'health'
p597
S'health'
p598
S'NN'
p599
S'I-NP'
p600
g5
tp601
a(S'questionnaire.'
p602
S'questionnaire.'
p603
g204
g5
g5
tp604
a(S'Changes'
p605
S'Change'
p606
S'NNS'
p607
S'B-NP'
p608
g5
tp609
a(S'in'
p610
S'in'
p611
S'IN'
p612
S'B-PP'
p613
g5
tp614
a(S'emotional'
p615
S'emotional'
p616
S'JJ'
p617
S'B-NP'
p618
g5
tp619
a(S'and'
p620
S'and'
p621
S'CC'
p622
S'I-NP'
p623
g5
tp624
a(S'physical'
p625
S'physical'
p626
S'JJ'
p627
S'I-NP'
p628
g5
tp629
a(S'menopausal'
p630
S'menopausal'
p631
S'JJ'
p632
S'I-NP'
p633
g5
tp634
a(S'symptoms'
p635
S'symptom'
p636
S'NNS'
p637
S'I-NP'
p638
g5
tp639
a(S'as'
p640
S'as'
p641
S'IN'
p642
S'B-SBAR'
p643
g5
tp644
a(S'measured'
p645
S'measure'
p646
S'VBN'
p647
S'B-VP'
p648
g5
tp649
a(S'by'
p650
S'by'
p651
S'IN'
p652
S'B-PP'
p653
g5
tp654
a(g259
g259
S'DT'
p655
S'B-NP'
p656
g5
tp657
a(S'symptoms'
p658
S'symptom'
p659
S'NNS'
p660
S'I-NP'
p661
g5
tp662
a(S'questionnaire'
p663
S'questionnaire'
p664
S'NN'
p665
S'I-NP'
p666
g5
tp667
a(S'and'
p668
S'and'
p669
S'CC'
p670
S'I-NP'
p671
g5
tp672
a(S'depression'
p673
S'depression'
p674
S'NN'
p675
S'I-NP'
p676
g5
tp677
a(S'by'
p678
S'by'
p679
S'IN'
p680
S'B-PP'
p681
g5
tp682
a(S'the'
p683
S'the'
p684
S'DT'
p685
S'B-NP'
p686
g5
tp687
a(S'Centre'
p688
S'Centre'
p689
S'NNP'
p690
S'I-NP'
p691
g5
tp692
a(S'for'
p693
S'for'
p694
S'IN'
p695
S'B-PP'
p696
g5
tp697
a(S'Epidemiological'
p698
S'Epidemiological'
p699
S'NNP'
p700
S'B-NP'
p701
g5
tp702
a(S'Studies'
p703
S'Studies'
p704
S'NNP'
p705
S'I-NP'
p706
g5
tp707
a(S'depression'
p708
S'depression'
p709
S'NN'
p710
S'I-NP'
p711
g5
tp712
a(S'scale'
p713
S'scale'
p714
S'NN'
p715
S'I-NP'
p716
g5
tp717
a(g54
g54
g54
g5
g5
tp718
a(S'CES-D'
p719
S'CES-D'
p720
S'NN'
p721
S'B-NP'
p722
S'B-protein'
p723
tp724
a(g62
g62
g62
g5
g5
tp725
a(g204
g204
g204
g5
g5
tp726
a(S'Overall'
p727
S'Overall'
p728
S'JJ'
p729
S'B-NP'
p730
g5
tp731
a(S'health'
p732
S'health'
p733
S'NN'
p734
S'I-NP'
p735
g5
tp736
a(S'related'
p737
S'relate'
p738
S'VBN'
p739
S'I-NP'
p740
g5
tp741
a(S'quality'
p742
S'quality'
p743
S'NN'
p744
S'I-NP'
p745
g5
tp746
a(S'of'
p747
S'of'
p748
S'IN'
p749
S'B-PP'
p750
g5
tp751
a(S'life'
p752
S'life'
p753
S'NN'
p754
S'B-NP'
p755
g5
tp756
a(S'and'
p757
S'and'
p758
S'CC'
p759
g5
g5
tp760
a(S'overall'
p761
S'overall'
p762
S'JJ'
p763
S'B-NP'
p764
g5
tp765
a(S'quality'
p766
S'quality'
p767
S'NN'
p768
S'I-NP'
p769
g5
tp770
a(S'of'
p771
S'of'
p772
S'IN'
p773
S'B-PP'
p774
g5
tp775
a(S'life'
p776
S'life'
p777
S'NN'
p778
S'B-NP'
p779
g5
tp780
a(S'as'
p781
S'as'
p782
S'IN'
p783
S'B-SBAR'
p784
g5
tp785
a(S'measured'
p786
S'measure'
p787
S'VBN'
p788
S'B-VP'
p789
g5
tp790
a(S'by'
p791
S'by'
p792
S'IN'
p793
S'B-PP'
p794
g5
tp795
a(S'the'
p796
S'the'
p797
S'DT'
p798
S'B-NP'
p799
g5
tp800
a(S'European'
p801
S'European'
p802
S'JJ'
p803
S'I-NP'
p804
g5
tp805
a(S'quality'
p806
S'quality'
p807
S'NN'
p808
S'I-NP'
p809
g5
tp810
a(S'of'
p811
S'of'
p812
S'IN'
p813
S'B-PP'
p814
g5
tp815
a(S'life'
p816
S'life'
p817
S'NN'
p818
S'B-NP'
p819
g5
tp820
a(S'instrument'
p821
S'instrument'
p822
S'NN'
p823
S'I-NP'
p824
g5
tp825
a(g54
g54
g54
g5
g5
tp826
a(S'EuroQol'
p827
S'EuroQol'
p828
S'NN'
p829
S'B-NP'
p830
g5
tp831
a(g62
g62
g62
g5
g5
tp832
a(S'and'
p833
S'and'
p834
S'CC'
p835
g5
g5
tp836
a(S'visual'
p837
S'visual'
p838
S'JJ'
p839
S'B-NP'
p840
g5
tp841
a(S'analogue'
p842
S'analogue'
p843
S'NN'
p844
S'I-NP'
p845
g5
tp846
a(S'scale'
p847
S'scale'
p848
S'NN'
p849
S'I-NP'
p850
g5
tp851
a(g168
g168
g168
g5
g5
tp852
a(S'respectively.'
p853
S'respectively.'
p854
S'NN'
p855
S'B-NP'
p856
g5
tp857
a(S'RESULTS'
p858
S'RESULTS'
p859
S'NNS'
p860
S'B-NP'
p861
g5
tp862
a(g7
g7
g7
g5
g5
tp863
a(S'After'
p864
S'After'
p865
S'IN'
p866
S'B-PP'
p867
g5
tp868
a(S'one'
p869
S'one'
p870
S'CD'
p871
S'B-NP'
p872
g5
tp873
a(S'year'
p874
S'year'
p875
S'NN'
p876
S'I-NP'
p877
g5
tp878
a(S'small'
p879
S'small'
p880
S'JJ'
p881
S'B-NP'
p882
g5
tp883
a(S'but'
p884
S'but'
p885
S'CC'
p886
S'I-NP'
p887
g5
tp888
a(S'significant'
p889
S'significant'
p890
S'JJ'
p891
S'I-NP'
p892
g5
tp893
a(S'improvements'
p894
S'improvement'
p895
S'NNS'
p896
S'I-NP'
p897
g5
tp898
a(S'were'
p899
S'be'
p900
S'VBD'
p901
S'B-VP'
p902
g5
tp903
a(S'observed'
p904
S'observe'
p905
S'VBN'
p906
S'I-VP'
p907
g5
tp908
a(S'in'
p909
S'in'
p910
S'IN'
p911
S'B-PP'
p912
g5
tp913
a(S'three'
p914
S'three'
p915
S'CD'
p916
S'B-NP'
p917
g5
tp918
a(S'of'
p919
S'of'
p920
S'IN'
p921
S'I-NP'
p922
g5
tp923
a(S'nine'
p924
S'nine'
p925
S'CD'
p926
S'I-NP'
p927
g5
tp928
a(S'components'
p929
S'component'
p930
S'NNS'
p931
S'I-NP'
p932
g5
tp933
a(S'of'
p934
S'of'
p935
S'IN'
p936
S'B-PP'
p937
g5
tp938
a(S'the'
p939
S'the'
p940
S'DT'
p941
S'B-NP'
p942
g5
tp943
a(S'women'
p944
S'woman'
p945
S'NNS'
p946
S'I-NP'
p947
g5
tp948
a(S"'s"
p949
S"'s"
p950
S'POS'
p951
S'B-NP'
p952
g5
tp953
a(S'health'
p954
S'health'
p955
S'NN'
p956
S'I-NP'
p957
g5
tp958
a(S'questionnaire'
p959
S'questionnaire'
p960
S'NN'
p961
S'I-NP'
p962
g5
tp963
a(S'for'
p964
S'for'
p965
S'IN'
p966
S'B-PP'
p967
g5
tp968
a(S'those'
p969
S'those'
p970
S'DT'
p971
S'B-NP'
p972
g5
tp973
a(S'taking'
p974
S'take'
p975
S'VBG'
p976
S'I-NP'
p977
g5
tp978
a(S'combined'
p979
S'combine'
p980
S'VBN'
p981
S'I-NP'
p982
g5
tp983
a(S'HRT'
p984
S'HRT'
p985
S'NN'
p986
S'I-NP'
p987
g5
tp988
a(S'compared'
p989
S'compare'
p990
S'VBN'
p991
S'B-PP'
p992
g5
tp993
a(S'with'
p994
S'with'
p995
S'IN'
p996
S'B-PP'
p997
g5
tp998
a(S'those'
p999
S'those'
p1000
S'DT'
p1001
S'B-NP'
p1002
g5
tp1003
a(S'taking'
p1004
S'take'
p1005
S'VBG'
p1006
S'I-NP'
p1007
g5
tp1008
a(S'placebo'
p1009
S'placebo'
p1010
S'NN'
p1011
S'I-NP'
p1012
g5
tp1013
a(g7
g7
g7
g5
g5
tp1014
a(S'vasomotor'
p1015
S'vasomotor'
p1016
S'NN'
p1017
S'B-NP'
p1018
g5
tp1019
a(S'symptoms'
p1020
S'symptom'
p1021
S'NNS'
p1022
S'I-NP'
p1023
g5
tp1024
a(g54
g54
g54
g5
g5
tp1025
a(S'P'
p1026
g1026
S'NN'
p1027
S'B-NP'
p1028
g5
tp1029
a(S'<'
p1030
g1030
S'SYM'
p1031
g5
g5
tp1032
a(S'0.001'
p1033
S'0.001'
p1034
S'CD'
p1035
S'B-NP'
p1036
g5
tp1037
a(g62
g62
g62
g5
g5
tp1038
a(g168
g168
g168
g5
g5
tp1039
a(S'sexual'
p1040
S'sexual'
p1041
S'JJ'
p1042
S'B-NP'
p1043
g5
tp1044
a(S'functioning'
p1045
S'functioning'
p1046
S'NN'
p1047
S'I-NP'
p1048
g5
tp1049
a(g54
g54
g54
g5
g5
tp1050
a(g1026
g1026
S'NN'
p1051
S'B-NP'
p1052
g5
tp1053
a(g1030
g1030
S'SYM'
p1054
g5
g5
tp1055
a(S'0.001'
p1056
S'0.001'
p1057
S'CD'
p1058
S'B-NP'
p1059
g5
tp1060
a(g62
g62
g62
g5
g5
tp1061
a(g168
g168
g168
g5
g5
tp1062
a(S'and'
p1063
S'and'
p1064
S'CC'
p1065
g5
g5
tp1066
a(S'sleep'
p1067
S'sleep'
p1068
S'VB'
p1069
S'B-VP'
p1070
g5
tp1071
a(S'problems'
p1072
S'problem'
p1073
S'NNS'
p1074
S'B-NP'
p1075
g5
tp1076
a(g54
g54
g54
g5
g5
tp1077
a(g1026
g1026
S'NN'
p1078
S'B-NP'
p1079
g5
tp1080
a(g1030
g1030
S'SYM'
p1081
g5
g5
tp1082
a(S'0.001'
p1083
S'0.001'
p1084
S'CD'
p1085
S'B-NP'
p1086
g5
tp1087
a(g62
g62
g62
g5
g5
tp1088
a(g204
g204
g204
g5
g5
tp1089
a(S'Significantly'
p1090
S'Significantly'
p1091
S'RB'
p1092
S'B-NP'
p1093
g5
tp1094
a(S'fewer'
p1095
S'few'
p1096
S'JJR'
p1097
S'I-NP'
p1098
g5
tp1099
a(S'women'
p1100
S'woman'
p1101
S'NNS'
p1102
S'I-NP'
p1103
g5
tp1104
a(S'in'
p1105
S'in'
p1106
S'IN'
p1107
S'B-PP'
p1108
g5
tp1109
a(S'the'
p1110
S'the'
p1111
S'DT'
p1112
S'B-NP'
p1113
g5
tp1114
a(S'combined'
p1115
S'combined'
p1116
S'JJ'
p1117
S'I-NP'
p1118
g5
tp1119
a(S'HRT'
p1120
S'HRT'
p1121
S'NN'
p1122
S'I-NP'
p1123
g5
tp1124
a(S'group'
p1125
S'group'
p1126
S'NN'
p1127
S'I-NP'
p1128
g5
tp1129
a(S'reported'
p1130
S'report'
p1131
S'VBD'
p1132
S'B-VP'
p1133
g5
tp1134
a(S'hot'
p1135
S'hot'
p1136
S'JJ'
p1137
S'B-NP'
p1138
g5
tp1139
a(S'flushes'
p1140
S'flush'
p1141
S'NNS'
p1142
S'I-NP'
p1143
g5
tp1144
a(g54
g54
g54
g5
g5
tp1145
a(g1026
g1026
S'NN'
p1146
S'B-NP'
p1147
g5
tp1148
a(g1030
g1030
S'SYM'
p1149
g5
g5
tp1150
a(S'0.001'
p1151
S'0.001'
p1152
S'CD'
p1153
S'B-NP'
p1154
g5
tp1155
a(g62
g62
g62
g5
g5
tp1156
a(g168
g168
g168
g5
g5
tp1157
a(S'night'
p1158
S'night'
p1159
S'NN'
p1160
S'B-NP'
p1161
g5
tp1162
a(S'sweats'
p1163
S'sweat'
p1164
S'NNS'
p1165
S'I-NP'
p1166
g5
tp1167
a(g54
g54
g54
g5
g5
tp1168
a(g1026
g1026
S'NN'
p1169
S'B-NP'
p1170
g5
tp1171
a(g1030
g1030
S'SYM'
p1172
g5
g5
tp1173
a(S'0.001'
p1174
S'0.001'
p1175
S'CD'
p1176
S'B-NP'
p1177
g5
tp1178
a(g62
g62
g62
g5
g5
tp1179
a(g168
g168
g168
g5
g5
tp1180
a(S'aching'
p1181
S'ache'
p1182
S'VBG'
p1183
S'B-VP'
p1184
g5
tp1185
a(S'joints'
p1186
S'joint'
p1187
S'NNS'
p1188
S'B-NP'
p1189
g5
tp1190
a(S'and'
p1191
S'and'
p1192
S'CC'
p1193
S'I-NP'
p1194
g5
tp1195
a(S'muscles'
p1196
S'muscle'
p1197
S'NNS'
p1198
S'I-NP'
p1199
g5
tp1200
a(g54
g54
g54
g5
g5
tp1201
a(S'P=0.001'
p1202
S'P=0.001'
p1203
S'NN'
p1204
S'B-NP'
p1205
g5
tp1206
a(g62
g62
g62
g5
g5
tp1207
a(g168
g168
g168
g5
g5
tp1208
a(S'insomnia'
p1209
S'insomnia'
p1210
S'NN'
p1211
S'B-NP'
p1212
g5
tp1213
a(g54
g54
g54
g5
g5
tp1214
a(g1026
g1026
S'NN'
p1215
S'B-NP'
p1216
g5
tp1217
a(g1030
g1030
S'SYM'
p1218
g5
g5
tp1219
a(S'0.001'
p1220
S'0.001'
p1221
S'CD'
p1222
S'B-NP'
p1223
g5
tp1224
a(g62
g62
g62
g5
g5
tp1225
a(g168
g168
g168
g5
g5
tp1226
a(S'and'
p1227
S'and'
p1228
S'CC'
p1229
g5
g5
tp1230
a(S'vaginal'
p1231
S'vaginal'
p1232
S'JJ'
p1233
S'B-NP'
p1234
g5
tp1235
a(S'dryness'
p1236
S'dryness'
p1237
S'NN'
p1238
S'I-NP'
p1239
g5
tp1240
a(g54
g54
g54
g5
g5
tp1241
a(g1026
g1026
S'NN'
p1242
S'B-NP'
p1243
g5
tp1244
a(g1030
g1030
S'SYM'
p1245
S'B-NP'
p1246
g5
tp1247
a(S'0.001'
p1248
S'0.001'
p1249
S'CD'
p1250
S'I-NP'
p1251
g5
tp1252
a(g62
g62
g62
g5
g5
tp1253
a(S'than'
p1254
S'than'
p1255
S'IN'
p1256
S'B-PP'
p1257
g5
tp1258
a(S'in'
p1259
S'in'
p1260
S'IN'
p1261
S'B-PP'
p1262
g5
tp1263
a(S'the'
p1264
S'the'
p1265
S'DT'
p1266
S'B-NP'
p1267
g5
tp1268
a(S'placebo'
p1269
S'placebo'
p1270
S'NN'
p1271
S'I-NP'
p1272
g5
tp1273
a(S'group'
p1274
S'group'
p1275
S'NN'
p1276
S'I-NP'
p1277
g5
tp1278
a(g168
g168
g168
g5
g5
tp1279
a(S'but'
p1280
S'but'
p1281
S'CC'
p1282
g5
g5
tp1283
a(S'greater'
p1284
S'great'
p1285
S'JJR'
p1286
S'B-NP'
p1287
g5
tp1288
a(S'proportions'
p1289
S'proportion'
p1290
S'NNS'
p1291
S'I-NP'
p1292
g5
tp1293
a(S'reported'
p1294
S'report'
p1295
S'VBD'
p1296
S'B-VP'
p1297
g5
tp1298
a(S'breast'
p1299
S'breast'
p1300
S'NN'
p1301
S'B-NP'
p1302
g5
tp1303
a(S'tenderness'
p1304
S'tenderness'
p1305
S'NN'
p1306
S'I-NP'
p1307
g5
tp1308
a(g54
g54
g54
g5
g5
tp1309
a(g1026
g1026
S'NN'
p1310
S'B-NP'
p1311
g5
tp1312
a(g1030
g1030
S'SYM'
p1313
g5
g5
tp1314
a(S'0.001'
p1315
S'0.001'
p1316
S'CD'
p1317
S'B-NP'
p1318
g5
tp1319
a(g62
g62
g62
g5
g5
tp1320
a(S'or'
p1321
S'or'
p1322
S'CC'
p1323
g5
g5
tp1324
a(S'vaginal'
p1325
S'vaginal'
p1326
S'JJ'
p1327
S'B-NP'
p1328
g5
tp1329
a(S'discharge'
p1330
S'discharge'
p1331
S'NN'
p1332
S'I-NP'
p1333
g5
tp1334
a(g54
g54
g54
g5
g5
tp1335
a(g1026
g1026
S'NN'
p1336
S'B-NP'
p1337
g5
tp1338
a(g1030
g1030
S'SYM'
p1339
g5
g5
tp1340
a(S'0.001'
p1341
S'0.001'
p1342
S'CD'
p1343
S'B-NP'
p1344
g5
tp1345
a(g62
g62
g62
g5
g5
tp1346
a(g204
g204
g204
g5
g5
tp1347
a(S'Hot'
p1348
S'Hot'
p1349
S'NN'
p1350
S'B-NP'
p1351
g5
tp1352
a(S'flushes'
p1353
S'flush'
p1354
S'NNS'
p1355
S'I-NP'
p1356
g5
tp1357
a(S'were'
p1358
S'be'
p1359
S'VBD'
p1360
S'B-VP'
p1361
g5
tp1362
a(S'experienced'
p1363
S'experience'
p1364
S'VBN'
p1365
S'I-VP'
p1366
g5
tp1367
a(S'in'
p1368
S'in'
p1369
S'IN'
p1370
S'B-PP'
p1371
g5
tp1372
a(S'the'
p1373
S'the'
p1374
S'DT'
p1375
S'B-NP'
p1376
g5
tp1377
a(S'combined'
p1378
S'combine'
p1379
S'VBN'
p1380
S'I-NP'
p1381
g5
tp1382
a(S'HRT'
p1383
S'HRT'
p1384
S'NN'
p1385
S'I-NP'
p1386
g5
tp1387
a(S'and'
p1388
S'and'
p1389
S'CC'
p1390
S'I-NP'
p1391
g5
tp1392
a(S'placebo'
p1393
S'placebo'
p1394
S'NN'
p1395
S'I-NP'
p1396
g5
tp1397
a(S'groups'
p1398
S'group'
p1399
S'NNS'
p1400
S'I-NP'
p1401
g5
tp1402
a(S'by'
p1403
S'by'
p1404
S'IN'
p1405
S'B-PP'
p1406
g5
tp1407
a(S'30'
p1408
S'30'
p1409
S'CD'
p1410
S'B-NP'
p1411
g5
tp1412
a(S'%'
p1413
g1413
S'NN'
p1414
S'I-NP'
p1415
g5
tp1416
a(S'and'
p1417
S'and'
p1418
S'CC'
p1419
g5
g5
tp1420
a(S'29'
p1421
S'29'
p1422
S'CD'
p1423
S'B-NP'
p1424
g5
tp1425
a(g1413
g1413
S'NN'
p1426
S'I-NP'
p1427
g5
tp1428
a(S'at'
p1429
S'at'
p1430
S'IN'
p1431
S'B-PP'
p1432
g5
tp1433
a(S'trial'
p1434
S'trial'
p1435
S'NN'
p1436
S'B-NP'
p1437
g5
tp1438
a(S'entry'
p1439
S'entry'
p1440
S'NN'
p1441
S'I-NP'
p1442
g5
tp1443
a(S'and'
p1444
S'and'
p1445
S'CC'
p1446
g5
g5
tp1447
a(S'9'
p1448
g1448
S'CD'
p1449
S'B-NP'
p1450
g5
tp1451
a(g1413
g1413
S'NN'
p1452
S'I-NP'
p1453
g5
tp1454
a(S'and'
p1455
S'and'
p1456
S'CC'
p1457
g5
g5
tp1458
a(S'25'
p1459
S'25'
p1460
S'CD'
p1461
S'B-NP'
p1462
g5
tp1463
a(g1413
g1413
S'NN'
p1464
S'I-NP'
p1465
g5
tp1466
a(S'at'
p1467
S'at'
p1468
S'IN'
p1469
S'B-PP'
p1470
g5
tp1471
a(S'one'
p1472
S'one'
p1473
S'CD'
p1474
S'B-NP'
p1475
g5
tp1476
a(S'year'
p1477
S'year'
p1478
S'NN'
p1479
S'I-NP'
p1480
g5
tp1481
a(g168
g168
g168
g5
g5
tp1482
a(S'respectively.'
p1483
S'respectively.'
p1484
S'NN'
p1485
S'B-NP'
p1486
g5
tp1487
a(S'No'
p1488
S'No'
p1489
S'DT'
p1490
S'B-NP'
p1491
g5
tp1492
a(S'significant'
p1493
S'significant'
p1494
S'JJ'
p1495
S'I-NP'
p1496
g5
tp1497
a(S'differences'
p1498
S'difference'
p1499
S'NNS'
p1500
S'I-NP'
p1501
g5
tp1502
a(S'in'
p1503
S'in'
p1504
S'IN'
p1505
S'B-PP'
p1506
g5
tp1507
a(S'other'
p1508
S'other'
p1509
S'JJ'
p1510
S'B-NP'
p1511
g5
tp1512
a(S'menopausal'
p1513
S'menopausal'
p1514
S'JJ'
p1515
S'I-NP'
p1516
g5
tp1517
a(S'symptoms'
p1518
S'symptom'
p1519
S'NNS'
p1520
S'I-NP'
p1521
g5
tp1522
a(g168
g168
g168
g5
g5
tp1523
a(S'depression'
p1524
S'depression'
p1525
S'NN'
p1526
S'B-NP'
p1527
g5
tp1528
a(g168
g168
g168
g5
g5
tp1529
a(S'or'
p1530
S'or'
p1531
S'CC'
p1532
g5
g5
tp1533
a(S'overall'
p1534
S'overall'
p1535
S'JJ'
p1536
S'B-NP'
p1537
g5
tp1538
a(S'quality'
p1539
S'quality'
p1540
S'NN'
p1541
S'I-NP'
p1542
g5
tp1543
a(S'of'
p1544
S'of'
p1545
S'IN'
p1546
S'B-PP'
p1547
g5
tp1548
a(S'life'
p1549
S'life'
p1550
S'NN'
p1551
S'B-NP'
p1552
g5
tp1553
a(S'were'
p1554
S'be'
p1555
S'VBD'
p1556
S'B-VP'
p1557
g5
tp1558
a(S'observed'
p1559
S'observe'
p1560
S'VBN'
p1561
S'I-VP'
p1562
g5
tp1563
a(S'at'
p1564
S'at'
p1565
S'IN'
p1566
S'B-PP'
p1567
g5
tp1568
a(S'one'
p1569
S'one'
p1570
S'CD'
p1571
S'B-NP'
p1572
g5
tp1573
a(S'year.'
p1574
S'year.'
p1575
S'NN'
p1576
S'I-NP'
p1577
g5
tp1578
a(S'CONCLUSIONS'
p1579
S'CONCLUSIONS'
p1580
S'NNS'
p1581
S'B-NP'
p1582
g5
tp1583
a(g7
g7
g7
g5
g5
tp1584
a(S'Combined'
p1585
S'Combine'
p1586
S'VBN'
p1587
S'B-NP'
p1588
g5
tp1589
a(S'HRT'
p1590
S'HRT'
p1591
S'NN'
p1592
S'I-NP'
p1593
g5
tp1594
a(S'started'
p1595
S'start'
p1596
S'VBD'
p1597
S'B-VP'
p1598
g5
tp1599
a(S'many'
p1600
S'many'
p1601
S'JJ'
p1602
S'B-NP'
p1603
g5
tp1604
a(S'years'
p1605
S'year'
p1606
S'NNS'
p1607
S'I-NP'
p1608
g5
tp1609
a(S'after'
p1610
S'after'
p1611
S'IN'
p1612
S'B-SBAR'
p1613
g5
tp1614
a(S'the'
p1615
S'the'
p1616
S'DT'
p1617
S'B-NP'
p1618
g5
tp1619
a(S'menopause'
p1620
S'menopause'
p1621
S'NN'
p1622
S'I-NP'
p1623
g5
tp1624
a(S'can'
p1625
S'can'
p1626
S'MD'
p1627
S'B-VP'
p1628
g5
tp1629
a(S'improve'
p1630
S'improve'
p1631
S'VB'
p1632
S'I-VP'
p1633
g5
tp1634
a(S'health'
p1635
S'health'
p1636
S'NN'
p1637
S'B-NP'
p1638
g5
tp1639
a(S'related'
p1640
S'related'
p1641
S'JJ'
p1642
S'I-NP'
p1643
g5
tp1644
a(S'quality'
p1645
S'quality'
p1646
S'NN'
p1647
S'I-NP'
p1648
g5
tp1649
a(S'of'
p1650
S'of'
p1651
S'IN'
p1652
S'B-PP'
p1653
g5
tp1654
a(S'life.'
p1655
S'life.'
p1656
S'NN'
p1657
S'B-NP'
p1658
g5
tp1659
a(S'TRIAL'
p1660
S'TRIAL'
p1661
S'NN'
p1662
S'B-NP'
p1663
g5
tp1664
a(S'REGISTRATION'
p1665
S'REGISTRATION'
p1666
S'NN'
p1667
S'I-NP'
p1668
g5
tp1669
a(g7
g7
g7
g5
g5
tp1670
a(S'ISRCTN'
p1671
S'ISRCTN'
p1672
S'NN'
p1673
S'B-NP'
p1674
g5
tp1675
a(S'63718836'
p1676
S'63718836'
p1677
S'CD'
p1678
S'I-NP'
p1679
g5
tp1680
a(g204
g204
g204
g5
g5
tp1681
a.