(lp0
(S'OBJECTIVE'
p1
S'OBJECTIVE'
p2
S'NN'
p3
S'B-NP'
p4
S'O'
p5
tp6
a(S':'
p7
g7
g7
g5
g5
tp8
a(S'To'
p9
S'To'
p10
S'TO'
p11
S'B-VP'
p12
g5
tp13
a(S'estimate'
p14
S'estimate'
p15
S'VB'
p16
S'I-VP'
p17
g5
tp18
a(S'the'
p19
S'the'
p20
S'DT'
p21
S'B-NP'
p22
g5
tp23
a(S'cost'
p24
S'cost'
p25
S'NN'
p26
S'I-NP'
p27
g5
tp28
a(S'to'
p29
S'to'
p30
S'TO'
p31
S'B-PP'
p32
g5
tp33
a(S'the'
p34
S'the'
p35
S'DT'
p36
S'B-NP'
p37
g5
tp38
a(S'NHS'
p39
S'NHS'
p40
S'NN'
p41
S'I-NP'
p42
g5
tp43
a(S'and'
p44
S'and'
p45
S'CC'
p46
S'B-PP'
p47
g5
tp48
a(S'to'
p49
S'to'
p50
S'TO'
p51
S'B-PP'
p52
g5
tp53
a(S'parents'
p54
S'parent'
p55
S'NNS'
p56
S'B-NP'
p57
g5
tp58
a(S'and'
p59
S'and'
p60
S'CC'
p61
S'I-NP'
p62
g5
tp63
a(S'carers'
p64
S'carer'
p65
S'NNS'
p66
S'I-NP'
p67
g5
tp68
a(S'of'
p69
S'of'
p70
S'IN'
p71
S'B-PP'
p72
g5
tp73
a(S'treating'
p74
S'treat'
p75
S'VBG'
p76
S'B-VP'
p77
g5
tp78
a(S'febrile'
p79
S'febrile'
p80
S'JJ'
p81
S'B-NP'
p82
g5
tp83
a(S'preschool'
p84
S'preschool'
p85
S'NN'
p86
S'I-NP'
p87
g5
tp88
a(S'children'
p89
S'child'
p90
S'NNS'
p91
S'I-NP'
p92
g5
tp93
a(S'with'
p94
S'with'
p95
S'IN'
p96
S'B-PP'
p97
g5
tp98
a(S'paracetamol'
p99
S'paracetamol'
p100
S'NN'
p101
S'B-NP'
p102
g5
tp103
a(S','
p104
g104
g104
g5
g5
tp105
a(S'ibuprofen'
p106
S'ibuprofen'
p107
S'NN'
p108
S'B-NP'
p109
g5
tp110
a(g104
g104
g104
g5
g5
tp111
a(S'or'
p112
S'or'
p113
S'CC'
p114
g5
g5
tp115
a(S'both'
p116
S'both'
p117
S'CC'
p118
g5
g5
tp119
a(g104
g104
g104
g5
g5
tp120
a(S'and'
p121
S'and'
p122
S'CC'
p123
g5
g5
tp124
a(S'to'
p125
S'to'
p126
S'TO'
p127
S'B-VP'
p128
g5
tp129
a(S'compare'
p130
S'compare'
p131
S'VB'
p132
S'I-VP'
p133
g5
tp134
a(S'these'
p135
S'these'
p136
S'DT'
p137
S'B-NP'
p138
g5
tp139
a(S'costs'
p140
S'cost'
p141
S'NNS'
p142
S'I-NP'
p143
g5
tp144
a(S'with'
p145
S'with'
p146
S'IN'
p147
S'B-PP'
p148
g5
tp149
a(S'the'
p150
S'the'
p151
S'DT'
p152
S'B-NP'
p153
g5
tp154
a(S'benefits'
p155
S'benefit'
p156
S'NNS'
p157
S'I-NP'
p158
g5
tp159
a(S'of'
p160
S'of'
p161
S'IN'
p162
S'B-PP'
p163
g5
tp164
a(S'each'
p165
S'each'
p166
S'DT'
p167
S'B-NP'
p168
g5
tp169
a(S'treatment'
p170
S'treatment'
p171
S'NN'
p172
S'I-NP'
p173
g5
tp174
a(S'regimen.'
p175
S'regimen.'
p176
S'NN'
p177
S'I-NP'
p178
g5
tp179
a(S'DESIGN'
p180
S'DESIGN'
p181
S'NN'
p182
S'B-NP'
p183
g5
tp184
a(g7
g7
g7
g5
g5
tp185
a(S'Cost'
p186
S'Cost'
p187
S'NN'
p188
S'B-NP'
p189
g5
tp190
a(S'consequences'
p191
S'consequence'
p192
S'NNS'
p193
S'I-NP'
p194
g5
tp195
a(S'analysis'
p196
S'analysis'
p197
S'NN'
p198
S'I-NP'
p199
g5
tp200
a(S'and'
p201
S'and'
p202
S'CC'
p203
S'I-NP'
p204
g5
tp205
a(S'cost'
p206
S'cost'
p207
S'NN'
p208
S'I-NP'
p209
g5
tp210
a(S'effectiveness'
p211
S'effectiveness'
p212
S'NN'
p213
S'I-NP'
p214
g5
tp215
a(S'analysis'
p216
S'analysis'
p217
S'NN'
p218
S'I-NP'
p219
g5
tp220
a(S'conducted'
p221
S'conduct'
p222
S'VBN'
p223
S'B-VP'
p224
g5
tp225
a(S'as'
p226
S'as'
p227
S'IN'
p228
S'B-PP'
p229
g5
tp230
a(S'part'
p231
S'part'
p232
S'NN'
p233
S'B-NP'
p234
g5
tp235
a(S'of'
p236
S'of'
p237
S'IN'
p238
S'B-PP'
p239
g5
tp240
a(S'a'
p241
g241
S'DT'
p242
S'B-NP'
p243
g5
tp244
a(S'three'
p245
S'three'
p246
S'CD'
p247
S'I-NP'
p248
g5
tp249
a(S'arm'
p250
S'arm'
p251
S'NN'
p252
S'I-NP'
p253
g5
tp254
a(g104
g104
g104
g5
g5
tp255
a(S'randomised'
p256
S'randomise'
p257
S'VBD'
p258
S'B-VP'
p259
g5
tp260
a(S'controlled'
p261
S'control'
p262
S'VBN'
p263
S'I-VP'
p264
g5
tp265
a(S'trial.'
p266
S'trial.'
p267
S'NN'
p268
S'B-NP'
p269
g5
tp270
a(S'PARTICIPANTS'
p271
S'PARTICIPANTS'
p272
S'NNS'
p273
S'B-NP'
p274
g5
tp275
a(g7
g7
g7
g5
g5
tp276
a(S'Children'
p277
S'Child'
p278
S'NNS'
p279
S'B-NP'
p280
g5
tp281
a(S'between'
p282
S'between'
p283
S'IN'
p284
S'B-PP'
p285
g5
tp286
a(S'the'
p287
S'the'
p288
S'DT'
p289
S'B-NP'
p290
g5
tp291
a(S'ages'
p292
S'age'
p293
S'NNS'
p294
S'I-NP'
p295
g5
tp296
a(S'of'
p297
S'of'
p298
S'IN'
p299
S'B-PP'
p300
g5
tp301
a(S'6'
p302
g302
S'CD'
p303
S'B-NP'
p304
g5
tp305
a(S'months'
p306
S'month'
p307
S'NNS'
p308
S'I-NP'
p309
g5
tp310
a(S'and'
p311
S'and'
p312
S'CC'
p313
g5
g5
tp314
a(g302
g302
S'CD'
p315
S'B-NP'
p316
g5
tp317
a(S'years'
p318
S'year'
p319
S'NNS'
p320
S'I-NP'
p321
g5
tp322
a(S'recruited'
p323
S'recruit'
p324
S'VBN'
p325
S'B-VP'
p326
g5
tp327
a(S'from'
p328
S'from'
p329
S'IN'
p330
S'B-PP'
p331
g5
tp332
a(S'primary'
p333
S'primary'
p334
S'JJ'
p335
S'B-NP'
p336
g5
tp337
a(S'care'
p338
S'care'
p339
S'NN'
p340
S'I-NP'
p341
g5
tp342
a(S'and'
p343
S'and'
p344
S'CC'
p345
g5
g5
tp346
a(S'the'
p347
S'the'
p348
S'DT'
p349
S'B-NP'
p350
g5
tp351
a(S'community'
p352
S'community'
p353
S'NN'
p354
S'I-NP'
p355
g5
tp356
a(S'with'
p357
S'with'
p358
S'IN'
p359
S'B-PP'
p360
g5
tp361
a(S'axillary'
p362
S'axillary'
p363
S'JJ'
p364
S'B-NP'
p365
g5
tp366
a(S'temperatures'
p367
S'temperature'
p368
S'NNS'
p369
S'I-NP'
p370
g5
tp371
a(S'>'
p372
g372
S'SYM'
p373
g5
g5
tp374
a(S'or=37.8'
p375
S'or=37.8'
p376
S'NN'
p377
S'B-NP'
p378
g5
tp379
a(S'degrees'
p380
S'degree'
p381
S'NNS'
p382
S'B-NP'
p383
g5
tp384
a(S'C'
p385
g385
S'JJ'
p386
S'I-NP'
p387
g5
tp388
a(S'and'
p389
S'and'
p390
S'CC'
p391
S'I-NP'
p392
g5
tp393
a(S'<'
p394
g394
S'JJR'
p395
S'I-NP'
p396
g5
tp397
a(S'or=41'
p398
S'or=41'
p399
S'CD'
p400
S'I-NP'
p401
g5
tp402
a(S'degrees'
p403
S'degree'
p404
S'NNS'
p405
S'I-NP'
p406
g5
tp407
a(S'C.'
p408
S'C.'
p409
S'NNP'
p410
S'B-NP'
p411
g5
tp412
a(S'INTERVENTIONS'
p413
S'INTERVENTIONS'
p414
S'NNP'
p415
S'I-NP'
p416
g5
tp417
a(g7
g7
g7
g5
g5
tp418
a(S'Paracetamol'
p419
S'Paracetamol'
p420
S'NN'
p421
S'B-NP'
p422
g5
tp423
a(g104
g104
g104
g5
g5
tp424
a(S'ibuprofen'
p425
S'ibuprofen'
p426
S'NN'
p427
S'B-NP'
p428
g5
tp429
a(g104
g104
g104
g5
g5
tp430
a(S'or'
p431
S'or'
p432
S'CC'
p433
g5
g5
tp434
a(S'both'
p435
S'both'
p436
S'DT'
p437
S'B-NP'
p438
g5
tp439
a(S'drugs.'
p440
S'drugs.'
p441
S'NNS'
p442
S'I-NP'
p443
g5
tp444
a(S'MAIN'
p445
S'MAIN'
p446
S'NNP'
p447
S'B-NP'
p448
g5
tp449
a(S'OUTCOME'
p450
S'OUTCOME'
p451
S'NNP'
p452
S'I-NP'
p453
g5
tp454
a(S'MEASURES'
p455
S'MEASURES'
p456
S'NNP'
p457
S'I-NP'
p458
g5
tp459
a(g7
g7
g7
g5
g5
tp460
a(S'Costs'
p461
S'Cost'
p462
S'NNS'
p463
S'B-NP'
p464
g5
tp465
a(S'to'
p466
S'to'
p467
S'TO'
p468
S'B-PP'
p469
g5
tp470
a(S'the'
p471
S'the'
p472
S'DT'
p473
S'B-NP'
p474
g5
tp475
a(S'NHS'
p476
S'NHS'
p477
S'NN'
p478
S'I-NP'
p479
g5
tp480
a(S'and'
p481
S'and'
p482
S'CC'
p483
S'B-PP'
p484
g5
tp485
a(S'to'
p486
S'to'
p487
S'TO'
p488
S'B-PP'
p489
g5
tp490
a(S'parents'
p491
S'parent'
p492
S'NNS'
p493
S'B-NP'
p494
g5
tp495
a(S'and'
p496
S'and'
p497
S'CC'
p498
S'I-NP'
p499
g5
tp500
a(S'carers.'
p501
S'carers.'
p502
S'NNS'
p503
S'I-NP'
p504
g5
tp505
a(S'Cost'
p506
S'Cost'
p507
S'NN'
p508
S'B-NP'
p509
g5
tp510
a(S'consequences'
p511
S'consequence'
p512
S'VBZ'
p513
S'B-VP'
p514
g5
tp515
a(S'analysis'
p516
S'analysis'
p517
S'NN'
p518
S'B-NP'
p519
g5
tp520
a(S'at'
p521
S'at'
p522
S'IN'
p523
S'B-PP'
p524
g5
tp525
a(S'48'
p526
S'48'
p527
S'CD'
p528
S'B-NP'
p529
g5
tp530
a(S'hours'
p531
S'hour'
p532
S'NNS'
p533
S'I-NP'
p534
g5
tp535
a(S'and'
p536
S'and'
p537
S'CC'
p538
g5
g5
tp539
a(S'5'
p540
g540
S'CD'
p541
S'B-NP'
p542
g5
tp543
a(S'days'
p544
S'day'
p545
S'NNS'
p546
S'I-NP'
p547
g5
tp548
a(S'comparing'
p549
S'compare'
p550
S'VBG'
p551
S'B-VP'
p552
g5
tp553
a(S'cost'
p554
S'cost'
p555
S'NN'
p556
S'B-NP'
p557
g5
tp558
a(S'with'
p559
S'with'
p560
S'IN'
p561
S'B-PP'
p562
g5
tp563
a(S'children'
p564
S'child'
p565
S'NNS'
p566
S'B-NP'
p567
g5
tp568
a(S"'s"
p569
S"'s"
p570
S'POS'
p571
S'B-NP'
p572
g5
tp573
a(S'temperature'
p574
S'temperature'
p575
S'NN'
p576
S'I-NP'
p577
g5
tp578
a(g104
g104
g104
g5
g5
tp579
a(S'discomfort'
p580
S'discomfort'
p581
S'NN'
p582
S'B-NP'
p583
g5
tp584
a(g104
g104
g104
g5
g5
tp585
a(S'activity'
p586
S'activity'
p587
S'NN'
p588
S'B-NP'
p589
g5
tp590
a(g104
g104
g104
g5
g5
tp591
a(S'appetite'
p592
S'appetite'
p593
S'NN'
p594
S'B-NP'
p595
g5
tp596
a(g104
g104
g104
g5
g5
tp597
a(S'and'
p598
S'and'
p599
S'CC'
p600
g5
g5
tp601
a(S'sleep'
p602
S'sleep'
p603
S'NN'
p604
S'B-NP'
p605
g5
tp606
a(S';'
p607
g607
g7
g5
g5
tp608
a(S'cost'
p609
S'cost'
p610
S'NN'
p611
S'B-NP'
p612
g5
tp613
a(S'effectiveness'
p614
S'effectiveness'
p615
S'NN'
p616
S'I-NP'
p617
g5
tp618
a(S'analysis'
p619
S'analysis'
p620
S'NN'
p621
S'I-NP'
p622
g5
tp623
a(S'at'
p624
S'at'
p625
S'IN'
p626
S'B-PP'
p627
g5
tp628
a(S'48'
p629
S'48'
p630
S'CD'
p631
S'B-NP'
p632
g5
tp633
a(S'hours'
p634
S'hour'
p635
S'NNS'
p636
S'I-NP'
p637
g5
tp638
a(S'comparing'
p639
S'compare'
p640
S'VBG'
p641
S'B-VP'
p642
g5
tp643
a(S'cost'
p644
S'cost'
p645
S'NN'
p646
S'B-NP'
p647
g5
tp648
a(S'with'
p649
S'with'
p650
S'IN'
p651
S'B-PP'
p652
g5
tp653
a(S'percentage'
p654
S'percentage'
p655
S'NN'
p656
S'B-NP'
p657
g5
tp658
a(S'of'
p659
S'of'
p660
S'IN'
p661
S'B-PP'
p662
g5
tp663
a(S'children'
p664
S'child'
p665
S'NNS'
p666
S'B-NP'
p667
g5
tp668
a(S'``'
p669
S'``'
p670
S'``'
p671
S'B-NP'
p672
g5
tp673
a(S'recovered.'
p674
S'recovered.'
p675
S'FW'
p676
S'I-NP'
p677
g5
tp678
a(S"''"
p679
S"''"
p680
S"''"
p681
g5
g5
tp682
a(S'RESULTS'
p683
S'RESULTS'
p684
S'NNS'
p685
S'B-NP'
p686
g5
tp687
a(g7
g7
g7
g5
g5
tp688
a(S'Difficulties'
p689
S'Difficulty'
p690
S'NNS'
p691
S'B-NP'
p692
g5
tp693
a(S'in'
p694
S'in'
p695
S'IN'
p696
S'B-PP'
p697
g5
tp698
a(S'recruiting'
p699
S'recruit'
p700
S'VBG'
p701
S'B-VP'
p702
g5
tp703
a(S'children'
p704
S'child'
p705
S'NNS'
p706
S'B-NP'
p707
g5
tp708
a(S'to'
p709
S'to'
p710
S'TO'
p711
S'B-PP'
p712
g5
tp713
a(S'the'
p714
S'the'
p715
S'DT'
p716
S'B-NP'
p717
g5
tp718
a(S'trial'
p719
S'trial'
p720
S'NN'
p721
S'I-NP'
p722
g5
tp723
a(S'lowered'
p724
S'lower'
p725
S'VBD'
p726
S'B-VP'
p727
g5
tp728
a(S'the'
p729
S'the'
p730
S'DT'
p731
S'B-NP'
p732
g5
tp733
a(S'precision'
p734
S'precision'
p735
S'NN'
p736
S'I-NP'
p737
g5
tp738
a(S'of'
p739
S'of'
p740
S'IN'
p741
S'B-PP'
p742
g5
tp743
a(S'the'
p744
S'the'
p745
S'DT'
p746
S'B-NP'
p747
g5
tp748
a(S'estimates'
p749
S'estimate'
p750
S'NNS'
p751
S'I-NP'
p752
g5
tp753
a(S'of'
p754
S'of'
p755
S'IN'
p756
S'B-PP'
p757
g5
tp758
a(S'cost'
p759
S'cost'
p760
S'NN'
p761
S'B-NP'
p762
g5
tp763
a(S'and'
p764
S'and'
p765
S'CC'
p766
g5
g5
tp767
a(S'some'
p768
S'some'
p769
S'DT'
p770
S'B-NP'
p771
g5
tp772
a(S'outcomes.'
p773
S'outcomes.'
p774
S'NN'
p775
S'I-NP'
p776
g5
tp777
a(S'At'
p778
S'At'
p779
S'IN'
p780
S'B-PP'
p781
g5
tp782
a(S'48'
p783
S'48'
p784
S'CD'
p785
S'B-NP'
p786
g5
tp787
a(S'hours'
p788
S'hour'
p789
S'NNS'
p790
S'I-NP'
p791
g5
tp792
a(g104
g104
g104
g5
g5
tp793
a(S'cost'
p794
S'cost'
p795
S'NN'
p796
S'B-NP'
p797
g5
tp798
a(S'to'
p799
S'to'
p800
S'TO'
p801
S'B-PP'
p802
g5
tp803
a(S'the'
p804
S'the'
p805
S'DT'
p806
S'B-NP'
p807
g5
tp808
a(S'NHS'
p809
S'NHS'
p810
S'NN'
p811
S'I-NP'
p812
S'B-protein'
p813
tp814
a(S'was'
p815
S'be'
p816
S'VBD'
p817
S'B-VP'
p818
g5
tp819
a(S'pound11.33'
p820
S'pound11.33'
p821
S'NN'
p822
S'B-NP'
p823
g5
tp824
a(S'for'
p825
S'for'
p826
S'IN'
p827
S'B-PP'
p828
g5
tp829
a(S'paracetamol'
p830
S'paracetamol'
p831
S'NN'
p832
S'B-NP'
p833
g5
tp834
a(g104
g104
g104
g5
g5
tp835
a(S'pound8.49'
p836
S'pound8.49'
p837
S'NN'
p838
S'B-NP'
p839
g5
tp840
a(S'for'
p841
S'for'
p842
S'IN'
p843
S'B-PP'
p844
g5
tp845
a(S'ibuprofen'
p846
S'ibuprofen'
p847
S'NN'
p848
S'B-NP'
p849
g5
tp850
a(g104
g104
g104
g5
g5
tp851
a(S'and'
p852
S'and'
p853
S'CC'
p854
g5
g5
tp855
a(S'pound8.16'
p856
S'pound8.16'
p857
S'NN'
p858
S'B-NP'
p859
S'B-protein'
p860
tp861
a(S'for'
p862
S'for'
p863
S'IN'
p864
S'B-PP'
p865
g5
tp866
a(S'both'
p867
S'both'
p868
S'DT'
p869
S'B-NP'
p870
g5
tp871
a(S'drugs.'
p872
S'drugs.'
p873
S'NNS'
p874
S'I-NP'
p875
g5
tp876
a(S'By'
p877
S'By'
p878
S'IN'
p879
S'B-PP'
p880
g5
tp881
a(S'day'
p882
S'day'
p883
S'NN'
p884
S'B-NP'
p885
g5
tp886
a(g540
g540
S'CD'
p887
S'I-NP'
p888
g5
tp889
a(S'these'
p890
S'these'
p891
S'DT'
p892
S'B-NP'
p893
g5
tp894
a(S'costs'
p895
S'cost'
p896
S'NNS'
p897
S'I-NP'
p898
g5
tp899
a(S'rose'
p900
S'rise'
p901
S'VBD'
p902
S'B-VP'
p903
g5
tp904
a(S'to'
p905
S'to'
p906
S'TO'
p907
S'B-PP'
p908
g5
tp909
a(S'pound19.63'
p910
S'pound19.63'
p911
S'NN'
p912
S'B-NP'
p913
g5
tp914
a(g104
g104
g104
g5
g5
tp915
a(S'pound18.36'
p916
S'pound18.36'
p917
S'NN'
p918
S'B-NP'
p919
g5
tp920
a(g104
g104
g104
g5
g5
tp921
a(S'and'
p922
S'and'
p923
S'CC'
p924
g5
g5
tp925
a(S'pound13.92'
p926
S'pound13.92'
p927
S'NN'
p928
S'B-NP'
p929
g5
tp930
a(S'respectively.'
p931
S'respectively.'
p932
S'NN'
p933
S'I-NP'
p934
g5
tp935
a(S'For'
p936
S'For'
p937
S'IN'
p938
S'B-PP'
p939
g5
tp940
a(S'parents'
p941
S'parent'
p942
S'NNS'
p943
S'B-NP'
p944
g5
tp945
a(S'and'
p946
S'and'
p947
S'CC'
p948
S'I-NP'
p949
g5
tp950
a(S'carers'
p951
S'carer'
p952
S'NNS'
p953
S'I-NP'
p954
g5
tp955
a(g104
g104
g104
g5
g5
tp956
a(S'the'
p957
S'the'
p958
S'DT'
p959
S'B-NP'
p960
g5
tp961
a(S'48'
p962
S'48'
p963
S'CD'
p964
S'I-NP'
p965
g5
tp966
a(S'hour'
p967
S'hour'
p968
S'NN'
p969
S'I-NP'
p970
g5
tp971
a(S'costs'
p972
S'cost'
p973
S'NNS'
p974
S'I-NP'
p975
g5
tp976
a(S'were'
p977
S'be'
p978
S'VBD'
p979
S'B-VP'
p980
g5
tp981
a(S'pound23.86'
p982
S'pound23.86'
p983
S'NN'
p984
S'B-NP'
p985
g5
tp986
a(S'for'
p987
S'for'
p988
S'IN'
p989
S'B-PP'
p990
g5
tp991
a(S'paracetamol'
p992
S'paracetamol'
p993
S'NN'
p994
S'B-NP'
p995
g5
tp996
a(g104
g104
g104
g5
g5
tp997
a(S'pound20.60'
p998
S'pound20.60'
p999
S'NN'
p1000
S'B-NP'
p1001
g5
tp1002
a(S'for'
p1003
S'for'
p1004
S'IN'
p1005
S'B-PP'
p1006
g5
tp1007
a(S'ibuprofen'
p1008
S'ibuprofen'
p1009
S'NN'
p1010
S'B-NP'
p1011
g5
tp1012
a(g104
g104
g104
g5
g5
tp1013
a(S'and'
p1014
S'and'
p1015
S'CC'
p1016
g5
g5
tp1017
a(S'pound25.07'
p1018
S'pound25.07'
p1019
S'NN'
p1020
S'B-NP'
p1021
S'B-protein'
p1022
tp1023
a(S'for'
p1024
S'for'
p1025
S'IN'
p1026
S'B-PP'
p1027
g5
tp1028
a(S'both'
p1029
S'both'
p1030
S'CC'
p1031
g5
g5
tp1032
a(g104
g104
g104
g5
g5
tp1033
a(S'and'
p1034
S'and'
p1035
S'CC'
p1036
g5
g5
tp1037
a(S'the'
p1038
S'the'
p1039
S'DT'
p1040
S'B-NP'
p1041
g5
tp1042
a(S'day'
p1043
S'day'
p1044
S'NN'
p1045
S'I-NP'
p1046
g5
tp1047
a(g540
g540
S'CD'
p1048
S'B-NP'
p1049
g5
tp1050
a(S'costs'
p1051
S'cost'
p1052
S'NNS'
p1053
S'I-NP'
p1054
g5
tp1055
a(S'were'
p1056
S'be'
p1057
S'VBD'
p1058
S'B-VP'
p1059
g5
tp1060
a(S'pound26.35'
p1061
S'pound26.35'
p1062
S'NN'
p1063
S'B-NP'
p1064
g5
tp1065
a(g104
g104
g104
g5
g5
tp1066
a(S'pound29.90'
p1067
S'pound29.90'
p1068
S'NN'
p1069
S'B-NP'
p1070
g5
tp1071
a(g104
g104
g104
g5
g5
tp1072
a(S'and'
p1073
S'and'
p1074
S'CC'
p1075
g5
g5
tp1076
a(S'pound24.02'
p1077
S'pound24.02'
p1078
S'NN'
p1079
S'B-NP'
p1080
g5
tp1081
a(S'respectively.'
p1082
S'respectively.'
p1083
S'LS'
p1084
S'B-LST'
p1085
g5
tp1086
a(S'Outcomes'
p1087
S'Outcome'
p1088
S'NNS'
p1089
S'B-NP'
p1090
g5
tp1091
a(S'measured'
p1092
S'measure'
p1093
S'VBN'
p1094
S'B-VP'
p1095
g5
tp1096
a(S'at'
p1097
S'at'
p1098
S'IN'
p1099
S'B-PP'
p1100
g5
tp1101
a(S'48'
p1102
S'48'
p1103
S'CD'
p1104
S'B-NP'
p1105
g5
tp1106
a(S'hours'
p1107
S'hour'
p1108
S'NNS'
p1109
S'I-NP'
p1110
g5
tp1111
a(S'and'
p1112
S'and'
p1113
S'CC'
p1114
g5
g5
tp1115
a(g540
g540
S'CD'
p1116
S'B-NP'
p1117
g5
tp1118
a(S'days'
p1119
S'day'
p1120
S'NNS'
p1121
S'I-NP'
p1122
g5
tp1123
a(S'were'
p1124
S'be'
p1125
S'VBD'
p1126
S'B-VP'
p1127
g5
tp1128
a(S'inconclusive'
p1129
S'inconclusive'
p1130
S'JJ'
p1131
S'B-ADJP'
p1132
g5
tp1133
a(S'because'
p1134
S'because'
p1135
S'IN'
p1136
S'B-PP'
p1137
g5
tp1138
a(S'of'
p1139
S'of'
p1140
S'IN'
p1141
S'I-PP'
p1142
g5
tp1143
a(S'lack'
p1144
S'lack'
p1145
S'NN'
p1146
S'B-NP'
p1147
g5
tp1148
a(S'of'
p1149
S'of'
p1150
S'IN'
p1151
S'B-PP'
p1152
g5
tp1153
a(S'power'
p1154
S'power'
p1155
S'NN'
p1156
S'B-NP'
p1157
g5
tp1158
a(g607
g607
g7
g5
g5
tp1159
a(S'the'
p1160
S'the'
p1161
S'DT'
p1162
S'B-NP'
p1163
g5
tp1164
a(S'cost'
p1165
S'cost'
p1166
S'NN'
p1167
S'I-NP'
p1168
g5
tp1169
a(S'effectiveness'
p1170
S'effectiveness'
p1171
S'NN'
p1172
S'I-NP'
p1173
g5
tp1174
a(S'analysis'
p1175
S'analysis'
p1176
S'NN'
p1177
S'I-NP'
p1178
g5
tp1179
a(S'at'
p1180
S'at'
p1181
S'IN'
p1182
S'B-PP'
p1183
g5
tp1184
a(S'48'
p1185
S'48'
p1186
S'CD'
p1187
S'B-NP'
p1188
g5
tp1189
a(S'hours'
p1190
S'hour'
p1191
S'NNS'
p1192
S'I-NP'
p1193
g5
tp1194
a(S'provided'
p1195
S'provide'
p1196
S'VBD'
p1197
S'B-VP'
p1198
g5
tp1199
a(S'little'
p1200
S'little'
p1201
S'JJ'
p1202
S'B-NP'
p1203
g5
tp1204
a(S'evidence'
p1205
S'evidence'
p1206
S'NN'
p1207
S'I-NP'
p1208
g5
tp1209
a(S'that'
p1210
S'that'
p1211
S'IN'
p1212
S'B-SBAR'
p1213
g5
tp1214
a(S'one'
p1215
S'one'
p1216
S'CD'
p1217
S'B-NP'
p1218
g5
tp1219
a(S'treatment'
p1220
S'treatment'
p1221
S'NN'
p1222
S'I-NP'
p1223
g5
tp1224
a(S'choice'
p1225
S'choice'
p1226
S'NN'
p1227
S'I-NP'
p1228
g5
tp1229
a(S'was'
p1230
S'be'
p1231
S'VBD'
p1232
S'B-VP'
p1233
g5
tp1234
a(S'significantly'
p1235
S'significantly'
p1236
S'RB'
p1237
S'B-ADJP'
p1238
g5
tp1239
a(S'more'
p1240
S'more'
p1241
S'JJR'
p1242
S'B-NP'
p1243
g5
tp1244
a(S'cost'
p1245
S'cost'
p1246
S'NN'
p1247
S'I-NP'
p1248
g5
tp1249
a(S'effective'
p1250
S'effective'
p1251
S'JJ'
p1252
S'B-ADJP'
p1253
g5
tp1254
a(S'than'
p1255
S'than'
p1256
S'IN'
p1257
S'B-PP'
p1258
g5
tp1259
a(S'another.'
p1260
S'another.'
p1261
S'NN'
p1262
S'B-NP'
p1263
g5
tp1264
a(S'At'
p1265
S'At'
p1266
S'IN'
p1267
S'B-PP'
p1268
g5
tp1269
a(S'4'
p1270
g1270
S'CD'
p1271
S'B-NP'
p1272
g5
tp1273
a(S'hours'
p1274
S'hour'
p1275
S'NNS'
p1276
S'I-NP'
p1277
g5
tp1278
a(S'ibuprofen'
p1279
S'ibuprofen'
p1280
S'NN'
p1281
S'I-NP'
p1282
g5
tp1283
a(S'and'
p1284
S'and'
p1285
S'CC'
p1286
g5
g5
tp1287
a(S'the'
p1288
S'the'
p1289
S'DT'
p1290
S'B-NP'
p1291
g5
tp1292
a(S'combined'
p1293
S'combined'
p1294
S'JJ'
p1295
S'I-NP'
p1296
g5
tp1297
a(S'treatment'
p1298
S'treatment'
p1299
S'NN'
p1300
S'I-NP'
p1301
g5
tp1302
a(S'were'
p1303
S'be'
p1304
S'VBD'
p1305
S'B-VP'
p1306
g5
tp1307
a(S'superior'
p1308
S'superior'
p1309
S'JJ'
p1310
S'B-ADJP'
p1311
g5
tp1312
a(S'to'
p1313
S'to'
p1314
S'TO'
p1315
S'B-PP'
p1316
g5
tp1317
a(S'paracetamol'
p1318
S'paracetamol'
p1319
S'NN'
p1320
S'B-NP'
p1321
g5
tp1322
a(S'in'
p1323
S'in'
p1324
S'IN'
p1325
S'B-PP'
p1326
g5
tp1327
a(S'terms'
p1328
S'term'
p1329
S'NNS'
p1330
S'B-NP'
p1331
g5
tp1332
a(S'of'
p1333
S'of'
p1334
S'IN'
p1335
S'B-PP'
p1336
g5
tp1337
a(S'the'
p1338
S'the'
p1339
S'DT'
p1340
S'B-NP'
p1341
g5
tp1342
a(S'trial'
p1343
S'trial'
p1344
S'NN'
p1345
S'I-NP'
p1346
g5
tp1347
a(S'primary'
p1348
S'primary'
p1349
S'JJ'
p1350
S'I-NP'
p1351
g5
tp1352
a(S'outcome'
p1353
S'outcome'
p1354
S'NN'
p1355
S'I-NP'
p1356
g5
tp1357
a(S'of'
p1358
S'of'
p1359
S'IN'
p1360
S'B-PP'
p1361
g5
tp1362
a(S'time'
p1363
S'time'
p1364
S'NN'
p1365
S'B-NP'
p1366
g5
tp1367
a(S'without'
p1368
S'without'
p1369
S'IN'
p1370
S'B-PP'
p1371
g5
tp1372
a(S'fever'
p1373
S'fever'
p1374
S'NN'
p1375
S'B-NP'
p1376
g5
tp1377
a(g607
g607
g7
g5
g5
tp1378
a(S'at'
p1379
S'at'
p1380
S'IN'
p1381
S'B-PP'
p1382
g5
tp1383
a(S'24'
p1384
S'24'
p1385
S'CD'
p1386
S'B-NP'
p1387
g5
tp1388
a(S'hours'
p1389
S'hour'
p1390
S'NNS'
p1391
S'I-NP'
p1392
g5
tp1393
a(S'the'
p1394
S'the'
p1395
S'DT'
p1396
S'B-NP'
p1397
g5
tp1398
a(S'combined'
p1399
S'combined'
p1400
S'JJ'
p1401
S'I-NP'
p1402
g5
tp1403
a(S'treatment'
p1404
S'treatment'
p1405
S'NN'
p1406
S'I-NP'
p1407
g5
tp1408
a(S'performed'
p1409
S'perform'
p1410
S'VBD'
p1411
S'B-VP'
p1412
g5
tp1413
a(S'best'
p1414
S'well'
p1415
S'RBS'
p1416
S'B-ADVP'
p1417
g5
tp1418
a(S'on'
p1419
S'on'
p1420
S'IN'
p1421
S'B-PP'
p1422
g5
tp1423
a(S'this'
p1424
S'this'
p1425
S'DT'
p1426
S'B-NP'
p1427
g5
tp1428
a(S'outcome.'
p1429
S'outcome.'
p1430
S'NN'
p1431
S'I-NP'
p1432
g5
tp1433
a(S'CONCLUSIONS'
p1434
S'CONCLUSIONS'
p1435
S'NNS'
p1436
S'B-NP'
p1437
g5
tp1438
a(g7
g7
g7
g5
g5
tp1439
a(S'There'
p1440
S'There'
p1441
S'EX'
p1442
S'B-NP'
p1443
g5
tp1444
a(S'is'
p1445
S'be'
p1446
S'VBZ'
p1447
S'B-VP'
p1448
g5
tp1449
a(S'no'
p1450
S'no'
p1451
S'DT'
p1452
S'B-NP'
p1453
g5
tp1454
a(S'strong'
p1455
S'strong'
p1456
S'JJ'
p1457
S'I-NP'
p1458
g5
tp1459
a(S'evidence'
p1460
S'evidence'
p1461
S'NN'
p1462
S'I-NP'
p1463
g5
tp1464
a(S'of'
p1465
S'of'
p1466
S'IN'
p1467
S'B-PP'
p1468
g5
tp1469
a(g241
g241
S'DT'
p1470
S'B-NP'
p1471
g5
tp1472
a(S'difference'
p1473
S'difference'
p1474
S'NN'
p1475
S'I-NP'
p1476
g5
tp1477
a(S'in'
p1478
S'in'
p1479
S'IN'
p1480
S'B-PP'
p1481
g5
tp1482
a(S'cost'
p1483
S'cost'
p1484
S'NN'
p1485
S'B-NP'
p1486
g5
tp1487
a(S'between'
p1488
S'between'
p1489
S'IN'
p1490
S'B-PP'
p1491
g5
tp1492
a(S'the'
p1493
S'the'
p1494
S'DT'
p1495
S'B-NP'
p1496
g5
tp1497
a(S'treatments'
p1498
S'treatment'
p1499
S'NNS'
p1500
S'I-NP'
p1501
g5
tp1502
a(g104
g104
g104
g5
g5
tp1503
a(S'but'
p1504
S'but'
p1505
S'CC'
p1506
g5
g5
tp1507
a(S'clinical'
p1508
S'clinical'
p1509
S'JJ'
p1510
S'B-NP'
p1511
g5
tp1512
a(S'and'
p1513
S'and'
p1514
S'CC'
p1515
S'I-NP'
p1516
g5
tp1517
a(S'cost'
p1518
S'cost'
p1519
S'NN'
p1520
S'I-NP'
p1521
g5
tp1522
a(S'data'
p1523
S'datum'
p1524
S'NNS'
p1525
S'I-NP'
p1526
g5
tp1527
a(S'together'
p1528
S'together'
p1529
S'RB'
p1530
S'B-ADVP'
p1531
g5
tp1532
a(S'indicate'
p1533
S'indicate'
p1534
S'VBP'
p1535
S'B-VP'
p1536
g5
tp1537
a(S'that'
p1538
S'that'
p1539
S'IN'
p1540
S'B-SBAR'
p1541
g5
tp1542
a(S'using'
p1543
S'use'
p1544
S'VBG'
p1545
S'B-VP'
p1546
g5
tp1547
a(S'both'
p1548
S'both'
p1549
S'DT'
p1550
S'B-NP'
p1551
g5
tp1552
a(S'drugs'
p1553
S'drug'
p1554
S'NNS'
p1555
S'I-NP'
p1556
g5
tp1557
a(S'together'
p1558
S'together'
p1559
S'RB'
p1560
S'B-ADVP'
p1561
g5
tp1562
a(S'may'
p1563
S'may'
p1564
S'MD'
p1565
S'B-VP'
p1566
g5
tp1567
a(S'be'
p1568
S'be'
p1569
S'VB'
p1570
S'I-VP'
p1571
g5
tp1572
a(S'most'
p1573
S'most'
p1574
S'RBS'
p1575
S'B-NP'
p1576
g5
tp1577
a(S'cost'
p1578
S'cost'
p1579
S'NN'
p1580
S'I-NP'
p1581
g5
tp1582
a(S'effective'
p1583
S'effective'
p1584
S'JJ'
p1585
S'B-ADJP'
p1586
g5
tp1587
a(S'over'
p1588
S'over'
p1589
S'IN'
p1590
S'B-PP'
p1591
g5
tp1592
a(S'the'
p1593
S'the'
p1594
S'DT'
p1595
S'B-NP'
p1596
g5
tp1597
a(S'course'
p1598
S'course'
p1599
S'NN'
p1600
S'I-NP'
p1601
g5
tp1602
a(S'of'
p1603
S'of'
p1604
S'IN'
p1605
S'B-PP'
p1606
g5
tp1607
a(S'the'
p1608
S'the'
p1609
S'DT'
p1610
S'B-NP'
p1611
g5
tp1612
a(S'illness.'
p1613
S'illness.'
p1614
S'NN'
p1615
S'I-NP'
p1616
g5
tp1617
a(S'This'
p1618
S'This'
p1619
S'DT'
p1620
S'B-NP'
p1621
g5
tp1622
a(S'treatment'
p1623
S'treatment'
p1624
S'NN'
p1625
S'I-NP'
p1626
g5
tp1627
a(S'option'
p1628
S'option'
p1629
S'NN'
p1630
S'I-NP'
p1631
g5
tp1632
a(S'performs'
p1633
S'perform'
p1634
S'NNS'
p1635
S'I-NP'
p1636
g5
tp1637
a(S'best'
p1638
S'good'
p1639
S'JJS'
p1640
S'B-ADJP'
p1641
g5
tp1642
a(S'and'
p1643
S'and'
p1644
S'CC'
p1645
g5
g5
tp1646
a(S'is'
p1647
S'be'
p1648
S'VBZ'
p1649
S'B-VP'
p1650
g5
tp1651
a(S'no'
p1652
S'no'
p1653
S'DT'
p1654
S'B-NP'
p1655
g5
tp1656
a(S'more'
p1657
S'more'
p1658
S'RBR'
p1659
S'I-NP'
p1660
g5
tp1661
a(S'expensive'
p1662
S'expensive'
p1663
S'JJ'
p1664
S'I-ADJP'
p1665
g5
tp1666
a(S'because'
p1667
S'because'
p1668
S'IN'
p1669
S'B-PP'
p1670
g5
tp1671
a(S'of'
p1672
S'of'
p1673
S'IN'
p1674
S'I-PP'
p1675
g5
tp1676
a(S'less'
p1677
S'less'
p1678
S'JJR'
p1679
S'B-NP'
p1680
g5
tp1681
a(S'use'
p1682
S'use'
p1683
S'NN'
p1684
S'I-NP'
p1685
g5
tp1686
a(S'of'
p1687
S'of'
p1688
S'IN'
p1689
S'B-PP'
p1690
g5
tp1691
a(S'healthcare'
p1692
S'healthcare'
p1693
S'NN'
p1694
S'B-NP'
p1695
g5
tp1696
a(S'resources'
p1697
S'resource'
p1698
S'NNS'
p1699
S'I-NP'
p1700
g5
tp1701
a(g104
g104
g104
g5
g5
tp1702
a(S'resulting'
p1703
S'result'
p1704
S'VBG'
p1705
S'B-VP'
p1706
g5
tp1707
a(S'in'
p1708
S'in'
p1709
S'IN'
p1710
S'B-PP'
p1711
g5
tp1712
a(S'lower'
p1713
S'low'
p1714
S'JJR'
p1715
S'B-NP'
p1716
g5
tp1717
a(S'costs'
p1718
S'cost'
p1719
S'NNS'
p1720
S'I-NP'
p1721
g5
tp1722
a(S'to'
p1723
S'to'
p1724
S'TO'
p1725
S'B-PP'
p1726
g5
tp1727
a(S'the'
p1728
S'the'
p1729
S'DT'
p1730
S'B-NP'
p1731
g5
tp1732
a(S'NHS'
p1733
S'NHS'
p1734
S'NN'
p1735
S'I-NP'
p1736
g5
tp1737
a(S'and'
p1738
S'and'
p1739
S'CC'
p1740
S'B-PP'
p1741
g5
tp1742
a(S'to'
p1743
S'to'
p1744
S'TO'
p1745
S'B-PP'
p1746
g5
tp1747
a(S'parents'
p1748
S'parent'
p1749
S'NNS'
p1750
S'B-NP'
p1751
g5
tp1752
a(S'.'
p1753
g1753
g1753
g5
g5
tp1754
a.