(lp0
(S'Vascular'
p1
S'Vascular'
p2
S'JJ'
p3
S'B-NP'
p4
S'O'
p5
tp6
a(S'pedicle'
p7
S'pedicle'
p8
S'NN'
p9
S'I-NP'
p10
g5
tp11
a(S'width'
p12
S'width'
p13
S'NN'
p14
S'I-NP'
p15
g5
tp16
a(S'in'
p17
S'in'
p18
S'IN'
p19
S'B-PP'
p20
g5
tp21
a(S'acute'
p22
S'acute'
p23
S'JJ'
p24
S'B-NP'
p25
g5
tp26
a(S'lung'
p27
S'lung'
p28
S'NN'
p29
S'I-NP'
p30
g5
tp31
a(S'injury'
p32
S'injury'
p33
S'NN'
p34
S'I-NP'
p35
g5
tp36
a(S':'
p37
g37
g37
g5
g5
tp38
a(S'correlation'
p39
S'correlation'
p40
S'NN'
p41
S'B-NP'
p42
g5
tp43
a(S'with'
p44
S'with'
p45
S'IN'
p46
S'B-PP'
p47
g5
tp48
a(S'intravascular'
p49
S'intravascular'
p50
S'JJ'
p51
S'B-NP'
p52
g5
tp53
a(S'pressures'
p54
S'pressure'
p55
S'NNS'
p56
S'I-NP'
p57
g5
tp58
a(S'and'
p59
S'and'
p60
S'CC'
p61
g5
g5
tp62
a(S'ability'
p63
S'ability'
p64
S'NN'
p65
S'B-NP'
p66
g5
tp67
a(S'to'
p68
S'to'
p69
S'TO'
p70
S'B-VP'
p71
g5
tp72
a(S'discriminate'
p73
S'discriminate'
p74
S'VB'
p75
S'I-VP'
p76
g5
tp77
a(S'fluid'
p78
S'fluid'
p79
S'NN'
p80
S'B-NP'
p81
g5
tp82
a(S'status'
p83
S'status'
p84
S'NN'
p85
S'I-NP'
p86
g5
tp87
a(S'.'
p88
g88
g88
g5
g5
tp89
a(S'INTRODUCTION'
p90
S'INTRODUCTION'
p91
S'NN'
p92
S'B-NP'
p93
g5
tp94
a(S'Conservative'
p95
S'Conservative'
p96
S'JJ'
p97
S'I-NP'
p98
g5
tp99
a(S'fluid'
p100
S'fluid'
p101
S'NN'
p102
S'I-NP'
p103
g5
tp104
a(S'management'
p105
S'management'
p106
S'NN'
p107
S'I-NP'
p108
g5
tp109
a(S'in'
p110
S'in'
p111
S'IN'
p112
S'B-PP'
p113
g5
tp114
a(S'patients'
p115
S'patient'
p116
S'NNS'
p117
S'B-NP'
p118
g5
tp119
a(S'with'
p120
S'with'
p121
S'IN'
p122
S'B-PP'
p123
g5
tp124
a(S'acute'
p125
S'acute'
p126
S'JJ'
p127
S'B-NP'
p128
g5
tp129
a(S'lung'
p130
S'lung'
p131
S'NN'
p132
S'I-NP'
p133
g5
tp134
a(S'injury'
p135
S'injury'
p136
S'NN'
p137
S'I-NP'
p138
g5
tp139
a(S'('
p140
g140
g140
g5
g5
tp141
a(S'ALI'
p142
S'ALI'
p143
S'NN'
p144
S'B-NP'
p145
g5
tp146
a(S')'
p147
g147
g147
g5
g5
tp148
a(S'increases'
p149
S'increase'
p150
S'VBZ'
p151
S'B-VP'
p152
g5
tp153
a(S'time'
p154
S'time'
p155
S'NN'
p156
S'B-NP'
p157
g5
tp158
a(S'alive'
p159
S'alive'
p160
S'JJ'
p161
S'I-NP'
p162
g5
tp163
a(S'and'
p164
S'and'
p165
S'CC'
p166
S'I-NP'
p167
g5
tp168
a(S'free'
p169
S'free'
p170
S'JJ'
p171
S'I-NP'
p172
g5
tp173
a(S'from'
p174
S'from'
p175
S'IN'
p176
S'B-PP'
p177
g5
tp178
a(S'mechanical'
p179
S'mechanical'
p180
S'JJ'
p181
S'B-NP'
p182
g5
tp183
a(S'ventilation.'
p184
S'ventilation.'
p185
S'NN'
p186
S'I-NP'
p187
g5
tp188
a(S'Vascular'
p189
S'Vascular'
p190
S'JJ'
p191
S'I-NP'
p192
g5
tp193
a(S'pedicle'
p194
S'pedicle'
p195
S'NN'
p196
S'I-NP'
p197
g5
tp198
a(S'width'
p199
S'width'
p200
S'NN'
p201
S'I-NP'
p202
g5
tp203
a(g140
g140
g140
g5
g5
tp204
a(S'VPW'
p205
S'VPW'
p206
S'NN'
p207
S'B-NP'
p208
S'B-protein'
p209
tp210
a(g147
g147
g147
g5
g5
tp211
a(S'is'
p212
S'be'
p213
S'VBZ'
p214
S'B-VP'
p215
g5
tp216
a(S'a'
p217
g217
S'DT'
p218
S'B-NP'
p219
g5
tp220
a(S'non-invasive'
p221
S'non-invasive'
p222
S'JJ'
p223
S'I-NP'
p224
g5
tp225
a(S'measurement'
p226
S'measurement'
p227
S'NN'
p228
S'I-NP'
p229
g5
tp230
a(S'of'
p231
S'of'
p232
S'IN'
p233
S'B-PP'
p234
g5
tp235
a(S'intravascular'
p236
S'intravascular'
p237
S'JJ'
p238
S'B-NP'
p239
g5
tp240
a(S'volume'
p241
S'volume'
p242
S'NN'
p243
S'I-NP'
p244
g5
tp245
a(S'status.'
p246
S'status.'
p247
S'NN'
p248
S'I-NP'
p249
g5
tp250
a(S'The'
p251
S'The'
p252
S'DT'
p253
S'B-NP'
p254
g5
tp255
a(S'VPW'
p256
S'VPW'
p257
S'NN'
p258
S'I-NP'
p259
S'B-protein'
p260
tp261
a(S'was'
p262
S'be'
p263
S'VBD'
p264
S'B-VP'
p265
g5
tp266
a(S'studied'
p267
S'study'
p268
S'VBN'
p269
S'I-VP'
p270
g5
tp271
a(S'in'
p272
S'in'
p273
S'IN'
p274
S'B-PP'
p275
g5
tp276
a(S'ALI'
p277
S'ALI'
p278
S'NN'
p279
S'B-NP'
p280
g5
tp281
a(S'patients'
p282
S'patient'
p283
S'NNS'
p284
S'I-NP'
p285
g5
tp286
a(S'to'
p287
S'to'
p288
S'TO'
p289
S'B-VP'
p290
g5
tp291
a(S'determine'
p292
S'determine'
p293
S'VB'
p294
S'I-VP'
p295
g5
tp296
a(S'the'
p297
S'the'
p298
S'DT'
p299
S'B-NP'
p300
g5
tp301
a(S'correlation'
p302
S'correlation'
p303
S'NN'
p304
S'I-NP'
p305
g5
tp306
a(S'between'
p307
S'between'
p308
S'IN'
p309
S'B-PP'
p310
g5
tp311
a(S'VPW'
p312
S'VPW'
p313
S'NN'
p314
S'B-NP'
p315
S'B-protein'
p316
tp317
a(S'and'
p318
S'and'
p319
S'CC'
p320
g5
g5
tp321
a(S'intravascular'
p322
S'intravascular'
p323
S'JJ'
p324
S'B-NP'
p325
g5
tp326
a(S'pressure'
p327
S'pressure'
p328
S'NN'
p329
S'I-NP'
p330
g5
tp331
a(S'measurements'
p332
S'measurement'
p333
S'NNS'
p334
S'I-NP'
p335
g5
tp336
a(S'and'
p337
S'and'
p338
S'CC'
p339
g5
g5
tp340
a(S'whether'
p341
S'whether'
p342
S'IN'
p343
S'B-SBAR'
p344
g5
tp345
a(S'VPW'
p346
S'VPW'
p347
S'NN'
p348
S'B-NP'
p349
S'B-protein'
p350
tp351
a(S'could'
p352
S'could'
p353
S'MD'
p354
S'B-VP'
p355
g5
tp356
a(S'predict'
p357
S'predict'
p358
S'VB'
p359
S'I-VP'
p360
g5
tp361
a(S'fluid'
p362
S'fluid'
p363
S'NN'
p364
S'B-NP'
p365
g5
tp366
a(S'status'
p367
S'status'
p368
S'NN'
p369
S'I-NP'
p370
g5
tp371
a(g88
g88
g88
g5
g5
tp372
a(S'METHODS'
p373
S'METHODS'
p374
S'NNS'
p375
S'B-NP'
p376
g5
tp377
a(S'This'
p378
S'This'
p379
S'DT'
p380
S'B-NP'
p381
g5
tp382
a(S'retrospective'
p383
S'retrospective'
p384
S'JJ'
p385
S'I-NP'
p386
g5
tp387
a(S'cohort'
p388
S'cohort'
p389
S'JJ'
p390
S'I-NP'
p391
g5
tp392
a(S'study'
p393
S'study'
p394
S'NN'
p395
S'I-NP'
p396
g5
tp397
a(S'involved'
p398
S'involve'
p399
S'VBD'
p400
S'B-VP'
p401
g5
tp402
a(S'152'
p403
S'152'
p404
S'CD'
p405
S'B-NP'
p406
g5
tp407
a(S'patients'
p408
S'patient'
p409
S'NNS'
p410
S'I-NP'
p411
g5
tp412
a(S'with'
p413
S'with'
p414
S'IN'
p415
S'B-PP'
p416
g5
tp417
a(S'ALI'
p418
S'ALI'
p419
S'NN'
p420
S'B-NP'
p421
g5
tp422
a(S'enrolled'
p423
S'enrol'
p424
S'VBN'
p425
S'B-VP'
p426
g5
tp427
a(S'in'
p428
S'in'
p429
S'IN'
p430
S'B-PP'
p431
g5
tp432
a(S'the'
p433
S'the'
p434
S'DT'
p435
S'B-NP'
p436
g5
tp437
a(S'Fluid'
p438
S'Fluid'
p439
S'NNP'
p440
S'I-NP'
p441
g5
tp442
a(S'and'
p443
S'and'
p444
S'CC'
p445
S'I-NP'
p446
g5
tp447
a(S'Catheter'
p448
S'Catheter'
p449
S'NNP'
p450
S'I-NP'
p451
g5
tp452
a(S'Treatment'
p453
S'Treatment'
p454
S'NNP'
p455
S'I-NP'
p456
g5
tp457
a(S'Trial'
p458
S'Trial'
p459
S'NNP'
p460
S'I-NP'
p461
g5
tp462
a(g140
g140
g140
g5
g5
tp463
a(S'FACTT'
p464
S'FACTT'
p465
S'NN'
p466
S'B-NP'
p467
g5
tp468
a(g147
g147
g147
g5
g5
tp469
a(S'from'
p470
S'from'
p471
S'IN'
p472
S'B-PP'
p473
g5
tp474
a(S'five'
p475
S'five'
p476
S'CD'
p477
S'B-NP'
p478
g5
tp479
a(S'NHLBI'
p480
S'NHLBI'
p481
S'NNP'
p482
S'I-NP'
p483
g5
tp484
a(S'ARDS'
p485
S'ARDS'
p486
S'NN'
p487
S'I-NP'
p488
g5
tp489
a(g140
g140
g140
g5
g5
tp490
a(S'Acute'
p491
S'Acute'
p492
S'JJ'
p493
S'B-NP'
p494
g5
tp495
a(S'Respiratory'
p496
S'Respiratory'
p497
S'JJ'
p498
S'I-NP'
p499
g5
tp500
a(S'Distress'
p501
S'Distress'
p502
S'NN'
p503
S'I-NP'
p504
g5
tp505
a(S'Syndrome'
p506
S'Syndrome'
p507
S'NN'
p508
S'I-NP'
p509
g5
tp510
a(g147
g147
g147
g5
g5
tp511
a(S'Network'
p512
S'Network'
p513
S'NN'
p514
S'B-NP'
p515
g5
tp516
a(S'sites.'
p517
S'sites.'
p518
S'NNS'
p519
S'I-NP'
p520
g5
tp521
a(S'VPW'
p522
S'VPW'
p523
S'NN'
p524
S'I-NP'
p525
S'B-protein'
p526
tp527
a(S'and'
p528
S'and'
p529
S'CC'
p530
S'I-NP'
p531
g5
tp532
a(S'central'
p533
S'central'
p534
S'JJ'
p535
S'I-NP'
p536
g5
tp537
a(S'venous'
p538
S'venous'
p539
S'JJ'
p540
S'I-NP'
p541
g5
tp542
a(S'pressure'
p543
S'pressure'
p544
S'NN'
p545
S'I-NP'
p546
g5
tp547
a(g140
g140
g140
g5
g5
tp548
a(S'CVP'
p549
S'CVP'
p550
S'NN'
p551
S'B-NP'
p552
S'B-protein'
p553
tp554
a(g147
g147
g147
g5
g5
tp555
a(S'or'
p556
S'or'
p557
S'CC'
p558
g5
g5
tp559
a(S'pulmonary'
p560
S'pulmonary'
p561
S'JJ'
p562
S'B-NP'
p563
g5
tp564
a(S'artery'
p565
S'artery'
p566
S'NN'
p567
S'I-NP'
p568
g5
tp569
a(S'occlusion'
p570
S'occlusion'
p571
S'NN'
p572
S'I-NP'
p573
g5
tp574
a(S'pressure'
p575
S'pressure'
p576
S'NN'
p577
S'I-NP'
p578
g5
tp579
a(g140
g140
g140
g5
g5
tp580
a(S'PAOP'
p581
S'PAOP'
p582
S'NN'
p583
S'B-NP'
p584
g5
tp585
a(g147
g147
g147
g5
g5
tp586
a(S'from'
p587
S'from'
p588
S'IN'
p589
S'B-PP'
p590
g5
tp591
a(S'the'
p592
S'the'
p593
S'DT'
p594
S'B-NP'
p595
g5
tp596
a(S'first'
p597
S'first'
p598
S'JJ'
p599
S'I-NP'
p600
g5
tp601
a(S'four'
p602
S'four'
p603
S'CD'
p604
S'I-NP'
p605
g5
tp606
a(S'study'
p607
S'study'
p608
S'NN'
p609
S'I-NP'
p610
g5
tp611
a(S'days'
p612
S'day'
p613
S'NNS'
p614
S'I-NP'
p615
g5
tp616
a(S'were'
p617
S'be'
p618
S'VBD'
p619
S'B-VP'
p620
g5
tp621
a(S'correlated.'
p622
S'correlated.'
p623
S'VBN'
p624
S'I-VP'
p625
g5
tp626
a(S'The'
p627
S'The'
p628
S'DT'
p629
S'B-NP'
p630
g5
tp631
a(S'relationships'
p632
S'relationship'
p633
S'NNS'
p634
S'I-NP'
p635
g5
tp636
a(S'between'
p637
S'between'
p638
S'IN'
p639
S'B-PP'
p640
g5
tp641
a(S'VPW'
p642
S'VPW'
p643
S'NN'
p644
S'B-NP'
p645
S'B-protein'
p646
tp647
a(S','
p648
g648
g648
g5
g5
tp649
a(S'positive'
p650
S'positive'
p651
S'JJ'
p652
S'B-NP'
p653
g5
tp654
a(S'end-expiratory'
p655
S'end-expiratory'
p656
S'JJ'
p657
S'I-NP'
p658
g5
tp659
a(S'pressure'
p660
S'pressure'
p661
S'NN'
p662
S'I-NP'
p663
g5
tp664
a(g140
g140
g140
g5
g5
tp665
a(S'PEEP'
p666
S'PEEP'
p667
S'NN'
p668
S'B-NP'
p669
S'B-protein'
p670
tp671
a(g147
g147
g147
g5
g5
tp672
a(g648
g648
g648
g5
g5
tp673
a(S'cumulative'
p674
S'cumulative'
p675
S'JJ'
p676
S'B-NP'
p677
g5
tp678
a(S'fluid'
p679
S'fluid'
p680
S'NN'
p681
S'I-NP'
p682
g5
tp683
a(S'balance'
p684
S'balance'
p685
S'NN'
p686
S'I-NP'
p687
g5
tp688
a(g648
g648
g648
g5
g5
tp689
a(S'and'
p690
S'and'
p691
S'CC'
p692
g5
g5
tp693
a(S'PAOP'
p694
S'PAOP'
p695
S'NN'
p696
S'B-NP'
p697
S'B-protein'
p698
tp699
a(S'were'
p700
S'be'
p701
S'VBD'
p702
S'B-VP'
p703
g5
tp704
a(S'also'
p705
S'also'
p706
S'RB'
p707
S'I-VP'
p708
g5
tp709
a(S'evaluated.'
p710
S'evaluated.'
p711
S'VB'
p712
S'I-VP'
p713
g5
tp714
a(S'Receiver'
p715
S'Receiver'
p716
S'NN'
p717
S'B-NP'
p718
g5
tp719
a(S'operator'
p720
S'operator'
p721
S'NN'
p722
S'I-NP'
p723
g5
tp724
a(S'characteristic'
p725
S'characteristic'
p726
S'JJ'
p727
S'B-ADJP'
p728
g5
tp729
a(g140
g140
g140
g5
g5
tp730
a(S'ROC'
p731
S'ROC'
p732
S'NN'
p733
S'B-NP'
p734
g5
tp735
a(g147
g147
g147
g5
g5
tp736
a(S'curves'
p737
S'curve'
p738
S'NNS'
p739
S'B-NP'
p740
g5
tp741
a(S'were'
p742
S'be'
p743
S'VBD'
p744
S'B-VP'
p745
g5
tp746
a(S'used'
p747
S'use'
p748
S'VBN'
p749
S'I-VP'
p750
g5
tp751
a(S'to'
p752
S'to'
p753
S'TO'
p754
S'B-VP'
p755
g5
tp756
a(S'determine'
p757
S'determine'
p758
S'VB'
p759
S'I-VP'
p760
g5
tp761
a(S'the'
p762
S'the'
p763
S'DT'
p764
S'B-NP'
p765
g5
tp766
a(S'ability'
p767
S'ability'
p768
S'NN'
p769
S'I-NP'
p770
g5
tp771
a(S'of'
p772
S'of'
p773
S'IN'
p774
S'B-PP'
p775
g5
tp776
a(S'VPW'
p777
S'VPW'
p778
S'NN'
p779
S'B-NP'
p780
S'B-protein'
p781
tp782
a(S'to'
p783
S'to'
p784
S'TO'
p785
S'B-VP'
p786
g5
tp787
a(S'detect'
p788
S'detect'
p789
S'VB'
p790
S'I-VP'
p791
g5
tp792
a(S'PAOP'
p793
S'PAOP'
p794
S'NN'
p795
S'B-NP'
p796
S'B-protein'
p797
tp798
a(S'<'
p799
g799
S'SYM'
p800
g5
g5
tp801
a(S'8'
p802
g802
S'CD'
p803
S'B-NP'
p804
g5
tp805
a(S'mmHg'
p806
S'mmHg'
p807
S'NN'
p808
S'I-NP'
p809
g5
tp810
a(S'and'
p811
S'and'
p812
S'CC'
p813
S'I-NP'
p814
g5
tp815
a(S'PAOP'
p816
S'PAOP'
p817
S'NN'
p818
S'I-NP'
p819
g5
tp820
a(S'\xe2\x89\xa5'
p821
S'\xe2\x89\xa5'
p822
S'NN'
p823
S'I-NP'
p824
g5
tp825
a(S'18'
p826
S'18'
p827
S'CD'
p828
S'I-NP'
p829
g5
tp830
a(S'mm'
p831
S'mm'
p832
S'NN'
p833
S'I-NP'
p834
g5
tp835
a(S'Hg'
p836
S'Hg'
p837
S'NN'
p838
S'I-NP'
p839
g5
tp840
a(g88
g88
g88
g5
g5
tp841
a(S'RESULTS'
p842
S'RESULTS'
p843
S'NNS'
p844
S'B-NP'
p845
g5
tp846
a(S'A'
p847
g847
S'DT'
p848
S'B-NP'
p849
g5
tp850
a(S'total'
p851
S'total'
p852
S'NN'
p853
S'I-NP'
p854
g5
tp855
a(S'of'
p856
S'of'
p857
S'IN'
p858
S'B-PP'
p859
g5
tp860
a(S'71'
p861
S'71'
p862
S'CD'
p863
S'B-NP'
p864
g5
tp865
a(S'and'
p866
S'and'
p867
S'CC'
p868
S'I-NP'
p869
g5
tp870
a(S'152'
p871
S'152'
p872
S'CD'
p873
S'I-NP'
p874
g5
tp875
a(S'patients'
p876
S'patient'
p877
S'NNS'
p878
S'I-NP'
p879
g5
tp880
a(S'provided'
p881
S'provide'
p882
S'VBD'
p883
S'B-VP'
p884
g5
tp885
a(S'118'
p886
S'118'
p887
S'CD'
p888
S'B-NP'
p889
g5
tp890
a(S'and'
p891
S'and'
p892
S'CC'
p893
S'I-NP'
p894
g5
tp895
a(S'276'
p896
S'276'
p897
S'CD'
p898
S'I-NP'
p899
g5
tp900
a(S'paired'
p901
S'paired'
p902
S'JJ'
p903
S'I-NP'
p904
g5
tp905
a(S'VPW/PAOP'
p906
S'VPW/PAOP'
p907
S'NN'
p908
S'I-NP'
p909
g5
tp910
a(S'and'
p911
S'and'
p912
S'CC'
p913
S'I-NP'
p914
g5
tp915
a(S'VPW/CVP'
p916
S'VPW/CVP'
p917
S'NN'
p918
S'I-NP'
p919
g5
tp920
a(S'measurements'
p921
S'measurement'
p922
S'NNS'
p923
S'I-NP'
p924
g5
tp925
a(g648
g648
g648
g5
g5
tp926
a(S'respectively.'
p927
S'respectively.'
p928
S'NN'
p929
S'B-NP'
p930
g5
tp931
a(S'VPW'
p932
S'VPW'
p933
S'NNP'
p934
S'I-NP'
p935
g5
tp936
a(S'correlated'
p937
S'correlate'
p938
S'VBD'
p939
S'B-VP'
p940
g5
tp941
a(S'with'
p942
S'with'
p943
S'IN'
p944
S'B-PP'
p945
g5
tp946
a(S'PAOP'
p947
S'PAOP'
p948
S'NN'
p949
S'B-NP'
p950
S'B-protein'
p951
tp952
a(g140
g140
g140
g5
g5
tp953
a(S'r'
p954
g954
S'NN'
p955
S'B-NP'
p956
g5
tp957
a(S'='
p958
g958
S'SYM'
p959
S'B-VP'
p960
g5
tp961
a(S'0.41'
p962
S'0.41'
p963
S'CD'
p964
S'B-NP'
p965
g5
tp966
a(S';'
p967
g967
g37
g5
g5
tp968
a(S'P'
p969
g969
S'NN'
p970
S'B-NP'
p971
g5
tp972
a(g799
g799
S'SYM'
p973
S'B-NP'
p974
g5
tp975
a(S'0.001'
p976
S'0.001'
p977
S'CD'
p978
S'I-NP'
p979
g5
tp980
a(g147
g147
g147
g5
g5
tp981
a(S'and'
p982
S'and'
p983
S'CC'
p984
g5
g5
tp985
a(S'less'
p986
S'less'
p987
S'RBR'
p988
S'B-ADVP'
p989
g5
tp990
a(S'well'
p991
S'well'
p992
S'RB'
p993
S'I-ADVP'
p994
g5
tp995
a(S'with'
p996
S'with'
p997
S'IN'
p998
S'B-PP'
p999
g5
tp1000
a(S'CVP'
p1001
S'CVP'
p1002
S'NN'
p1003
S'B-NP'
p1004
S'B-protein'
p1005
tp1006
a(g140
g140
g140
g5
g5
tp1007
a(g954
g954
S'NN'
p1008
S'B-NP'
p1009
g5
tp1010
a(g958
g958
S'SYM'
p1011
S'B-VP'
p1012
g5
tp1013
a(S'0.21'
p1014
S'0.21'
p1015
S'CD'
p1016
S'B-NP'
p1017
g5
tp1018
a(g967
g967
g37
g5
g5
tp1019
a(g969
g969
S'NN'
p1020
S'B-NP'
p1021
g5
tp1022
a(g958
g958
S'SYM'
p1023
S'B-VP'
p1024
g5
tp1025
a(S'0.001'
p1026
S'0.001'
p1027
S'CD'
p1028
S'B-NP'
p1029
g5
tp1030
a(g147
g147
g147
g5
g5
tp1031
a(g88
g88
g88
g5
g5
tp1032
a(S'In'
p1033
S'In'
p1034
S'IN'
p1035
S'B-PP'
p1036
g5
tp1037
a(S'linear'
p1038
S'linear'
p1039
S'JJ'
p1040
S'B-NP'
p1041
g5
tp1042
a(S'regression'
p1043
S'regression'
p1044
S'NN'
p1045
S'I-NP'
p1046
g5
tp1047
a(g648
g648
g648
g5
g5
tp1048
a(S'VPW'
p1049
S'VPW'
p1050
S'NN'
p1051
S'B-NP'
p1052
S'B-protein'
p1053
tp1054
a(S'correlated'
p1055
S'correlate'
p1056
S'VBD'
p1057
S'B-VP'
p1058
g5
tp1059
a(S'with'
p1060
S'with'
p1061
S'IN'
p1062
S'B-PP'
p1063
g5
tp1064
a(S'PAOP'
p1065
S'PAOP'
p1066
S'NN'
p1067
S'B-NP'
p1068
S'B-protein'
p1069
tp1070
a(S'1.5-fold'
p1071
S'1.5-fold'
p1072
S'RB'
p1073
S'B-ADVP'
p1074
g5
tp1075
a(S'better'
p1076
S'well'
p1077
S'RBR'
p1078
S'I-ADVP'
p1079
g5
tp1080
a(S'than'
p1081
S'than'
p1082
S'IN'
p1083
S'B-PP'
p1084
g5
tp1085
a(S'cumulative'
p1086
S'cumulative'
p1087
S'JJ'
p1088
S'B-NP'
p1089
g5
tp1090
a(S'fluid'
p1091
S'fluid'
p1092
S'NN'
p1093
S'I-NP'
p1094
g5
tp1095
a(S'balance'
p1096
S'balance'
p1097
S'NN'
p1098
S'I-NP'
p1099
g5
tp1100
a(S'and'
p1101
S'and'
p1102
S'CC'
p1103
g5
g5
tp1104
a(S'2.5-fold'
p1105
S'2.5-fold'
p1106
S'RB'
p1107
S'B-ADJP'
p1108
g5
tp1109
a(S'better'
p1110
S'good'
p1111
S'JJR'
p1112
S'I-ADJP'
p1113
g5
tp1114
a(S'than'
p1115
S'than'
p1116
S'IN'
p1117
S'B-PP'
p1118
g5
tp1119
a(S'PEEP.'
p1120
S'PEEP.'
p1121
S'NNP'
p1122
S'B-NP'
p1123
g5
tp1124
a(S'VPW'
p1125
S'VPW'
p1126
S'NNP'
p1127
S'I-NP'
p1128
g5
tp1129
a(S'discriminated'
p1130
S'discriminate'
p1131
S'VBD'
p1132
S'B-VP'
p1133
g5
tp1134
a(S'achievement'
p1135
S'achievement'
p1136
S'NN'
p1137
S'B-NP'
p1138
g5
tp1139
a(S'of'
p1140
S'of'
p1141
S'IN'
p1142
S'B-PP'
p1143
g5
tp1144
a(S'PAOP'
p1145
S'PAOP'
p1146
S'NN'
p1147
S'B-NP'
p1148
S'B-protein'
p1149
tp1150
a(g799
g799
S'SYM'
p1151
g5
g5
tp1152
a(g802
g802
S'CD'
p1153
S'B-NP'
p1154
g5
tp1155
a(S'mm'
p1156
S'mm'
p1157
S'NN'
p1158
S'I-NP'
p1159
g5
tp1160
a(S'Hg'
p1161
S'Hg'
p1162
S'NN'
p1163
S'I-NP'
p1164
g5
tp1165
a(g140
g140
g140
g5
g5
tp1166
a(S'AUC'
p1167
S'AUC'
p1168
S'NN'
p1169
S'B-NP'
p1170
g5
tp1171
a(g958
g958
S'SYM'
p1172
S'B-VP'
p1173
g5
tp1174
a(S'0.73'
p1175
S'0.73'
p1176
S'CD'
p1177
S'B-NP'
p1178
g5
tp1179
a(g967
g967
g37
g5
g5
tp1180
a(g969
g969
S'NN'
p1181
S'B-NP'
p1182
g5
tp1183
a(g958
g958
S'SYM'
p1184
S'B-VP'
p1185
g5
tp1186
a(S'0.04'
p1187
S'0.04'
p1188
S'CD'
p1189
S'B-NP'
p1190
g5
tp1191
a(g147
g147
g147
g5
g5
tp1192
a(S'with'
p1193
S'with'
p1194
S'IN'
p1195
S'B-PP'
p1196
g5
tp1197
a(S'VPW'
p1198
S'VPW'
p1199
S'NN'
p1200
S'B-NP'
p1201
S'B-protein'
p1202
tp1203
a(S'\xe2\x89\xa467'
p1204
S'\xe2\x89\xa467'
p1205
S'CD'
p1206
S'I-NP'
p1207
S'I-protein'
p1208
tp1209
a(S'mm'
p1210
S'mm'
p1211
S'NN'
p1212
S'I-NP'
p1213
g5
tp1214
a(S'demonstrating'
p1215
S'demonstrate'
p1216
S'VBG'
p1217
S'B-VP'
p1218
g5
tp1219
a(S'71'
p1220
S'71'
p1221
S'CD'
p1222
S'B-NP'
p1223
g5
tp1224
a(S'%'
p1225
g1225
S'NN'
p1226
S'I-NP'
p1227
g5
tp1228
a(S'sensitivity'
p1229
S'sensitivity'
p1230
S'NN'
p1231
S'I-NP'
p1232
g5
tp1233
a(g140
g140
g140
g5
g5
tp1234
a(S'95'
p1235
S'95'
p1236
S'CD'
p1237
S'B-NP'
p1238
g5
tp1239
a(g1225
g1225
S'NN'
p1240
S'I-NP'
p1241
g5
tp1242
a(S'CI'
p1243
S'CI'
p1244
S'NN'
p1245
S'I-NP'
p1246
g5
tp1247
a(S'30'
p1248
S'30'
p1249
S'CD'
p1250
S'B-NP'
p1251
g5
tp1252
a(S'to'
p1253
S'to'
p1254
S'TO'
p1255
S'I-NP'
p1256
g5
tp1257
a(S'95'
p1258
S'95'
p1259
S'CD'
p1260
S'I-NP'
p1261
g5
tp1262
a(g1225
g1225
S'NN'
p1263
S'I-NP'
p1264
g5
tp1265
a(g147
g147
g147
g5
g5
tp1266
a(S'and'
p1267
S'and'
p1268
S'CC'
p1269
g5
g5
tp1270
a(S'68'
p1271
S'68'
p1272
S'CD'
p1273
S'B-NP'
p1274
g5
tp1275
a(g1225
g1225
S'NN'
p1276
S'I-NP'
p1277
g5
tp1278
a(S'specificity'
p1279
S'specificity'
p1280
S'NN'
p1281
S'I-NP'
p1282
g5
tp1283
a(g140
g140
g140
g5
g5
tp1284
a(S'95'
p1285
S'95'
p1286
S'CD'
p1287
S'B-NP'
p1288
g5
tp1289
a(g1225
g1225
S'NN'
p1290
S'I-NP'
p1291
g5
tp1292
a(S'CI'
p1293
S'CI'
p1294
S'NN'
p1295
S'I-NP'
p1296
g5
tp1297
a(S'59'
p1298
S'59'
p1299
S'CD'
p1300
S'B-NP'
p1301
g5
tp1302
a(S'to'
p1303
S'to'
p1304
S'TO'
p1305
S'I-NP'
p1306
g5
tp1307
a(S'75'
p1308
S'75'
p1309
S'CD'
p1310
S'I-NP'
p1311
g5
tp1312
a(g1225
g1225
S'NN'
p1313
S'I-NP'
p1314
g5
tp1315
a(g147
g147
g147
g5
g5
tp1316
a(g88
g88
g88
g5
g5
tp1317
a(S'For'
p1318
S'For'
p1319
S'IN'
p1320
S'B-PP'
p1321
g5
tp1322
a(S'discriminating'
p1323
S'discriminate'
p1324
S'VBG'
p1325
S'B-VP'
p1326
g5
tp1327
a(g217
g217
S'DT'
p1328
S'B-NP'
p1329
g5
tp1330
a(S'hydrostatic'
p1331
S'hydrostatic'
p1332
S'JJ'
p1333
S'I-NP'
p1334
g5
tp1335
a(S'component'
p1336
S'component'
p1337
S'NN'
p1338
S'I-NP'
p1339
g5
tp1340
a(S'of'
p1341
S'of'
p1342
S'IN'
p1343
S'B-PP'
p1344
g5
tp1345
a(S'the'
p1346
S'the'
p1347
S'DT'
p1348
S'B-NP'
p1349
g5
tp1350
a(S'edema'
p1351
S'edema'
p1352
S'NN'
p1353
S'I-NP'
p1354
g5
tp1355
a(g140
g140
g140
g5
g5
tp1356
a(S'that'
p1357
S'that'
p1358
S'DT'
p1359
S'B-NP'
p1360
g5
tp1361
a(S'is'
p1362
S'be'
p1363
S'VBZ'
p1364
S'B-VP'
p1365
g5
tp1366
a(g648
g648
g648
g5
g5
tp1367
a(S'PAOP'
p1368
S'PAOP'
p1369
S'NNP'
p1370
S'B-NP'
p1371
g5
tp1372
a(S'\xe2\x89\xa5'
p1373
S'\xe2\x89\xa5'
p1374
S'VBD'
p1375
S'B-VP'
p1376
g5
tp1377
a(S'18'
p1378
S'18'
p1379
S'CD'
p1380
S'B-NP'
p1381
g5
tp1382
a(S'mm'
p1383
S'mm'
p1384
S'NN'
p1385
S'I-NP'
p1386
g5
tp1387
a(S'Hg'
p1388
S'Hg'
p1389
S'NN'
p1390
S'I-NP'
p1391
g5
tp1392
a(g147
g147
g147
g5
g5
tp1393
a(g648
g648
g648
g5
g5
tp1394
a(S'VPW'
p1395
S'VPW'
p1396
S'NN'
p1397
S'B-NP'
p1398
S'B-protein'
p1399
tp1400
a(S'\xe2\x89\xa5'
p1401
S'\xe2\x89\xa5'
p1402
S'HYPH'
p1403
g5
g5
tp1404
a(S'72'
p1405
S'72'
p1406
S'CD'
p1407
S'B-NP'
p1408
g5
tp1409
a(S'mm'
p1410
S'mm'
p1411
S'NN'
p1412
S'I-NP'
p1413
g5
tp1414
a(S'demonstrated'
p1415
S'demonstrate'
p1416
S'VBD'
p1417
S'B-VP'
p1418
g5
tp1419
a(S'61.4'
p1420
S'61.4'
p1421
S'CD'
p1422
S'B-NP'
p1423
g5
tp1424
a(g1225
g1225
S'NN'
p1425
S'I-NP'
p1426
g5
tp1427
a(S'sensitivity'
p1428
S'sensitivity'
p1429
S'NN'
p1430
S'I-NP'
p1431
g5
tp1432
a(g140
g140
g140
g5
g5
tp1433
a(S'95'
p1434
S'95'
p1435
S'CD'
p1436
S'B-NP'
p1437
g5
tp1438
a(g1225
g1225
S'NN'
p1439
S'I-NP'
p1440
g5
tp1441
a(S'CI'
p1442
S'CI'
p1443
S'NN'
p1444
S'I-NP'
p1445
g5
tp1446
a(S'47'
p1447
S'47'
p1448
S'CD'
p1449
S'B-NP'
p1450
g5
tp1451
a(S'to'
p1452
S'to'
p1453
S'TO'
p1454
S'I-NP'
p1455
g5
tp1456
a(S'74'
p1457
S'74'
p1458
S'CD'
p1459
S'I-NP'
p1460
g5
tp1461
a(g1225
g1225
S'NN'
p1462
S'I-NP'
p1463
g5
tp1464
a(g147
g147
g147
g5
g5
tp1465
a(S'and'
p1466
S'and'
p1467
S'CC'
p1468
g5
g5
tp1469
a(S'61'
p1470
S'61'
p1471
S'CD'
p1472
S'B-NP'
p1473
g5
tp1474
a(g1225
g1225
S'NN'
p1475
S'I-NP'
p1476
g5
tp1477
a(S'specificity'
p1478
S'specificity'
p1479
S'NN'
p1480
S'I-NP'
p1481
g5
tp1482
a(g140
g140
g140
g5
g5
tp1483
a(S'49'
p1484
S'49'
p1485
S'CD'
p1486
S'B-NP'
p1487
g5
tp1488
a(S'to'
p1489
S'to'
p1490
S'TO'
p1491
g5
g5
tp1492
a(S'71'
p1493
S'71'
p1494
S'CD'
p1495
S'B-NP'
p1496
g5
tp1497
a(g1225
g1225
S'NN'
p1498
S'I-NP'
p1499
g5
tp1500
a(g147
g147
g147
g5
g5
tp1501
a(g140
g140
g140
g5
g5
tp1502
a(S'area'
p1503
S'area'
p1504
S'NN'
p1505
S'B-NP'
p1506
g5
tp1507
a(S'under'
p1508
S'under'
p1509
S'IN'
p1510
S'B-PP'
p1511
g5
tp1512
a(S'the'
p1513
S'the'
p1514
S'DT'
p1515
S'B-NP'
p1516
g5
tp1517
a(S'curve'
p1518
S'curve'
p1519
S'NN'
p1520
S'I-NP'
p1521
g5
tp1522
a(g140
g140
g140
g5
g5
tp1523
a(S'AUC'
p1524
S'AUC'
p1525
S'NN'
p1526
S'B-NP'
p1527
g5
tp1528
a(g147
g147
g147
g5
g5
tp1529
a(S'0.69'
p1530
S'0.69'
p1531
S'CD'
p1532
S'B-NP'
p1533
g5
tp1534
a(g967
g967
g37
g5
g5
tp1535
a(g969
g969
S'NN'
p1536
S'B-NP'
p1537
g5
tp1538
a(g958
g958
S'SYM'
p1539
S'B-VP'
p1540
g5
tp1541
a(S'0.001'
p1542
S'0.001'
p1543
S'CD'
p1544
S'B-NP'
p1545
g5
tp1546
a(g147
g147
g147
g5
g5
tp1547
a(g88
g88
g88
g5
g5
tp1548
a(S'CONCLUSIONS'
p1549
S'CONCLUSIONS'
p1550
S'NNS'
p1551
S'B-NP'
p1552
g5
tp1553
a(S'VPW'
p1554
S'VPW'
p1555
S'NN'
p1556
S'I-NP'
p1557
S'B-protein'
p1558
tp1559
a(S'correlates'
p1560
S'correlate'
p1561
S'VBZ'
p1562
S'B-VP'
p1563
g5
tp1564
a(S'with'
p1565
S'with'
p1566
S'IN'
p1567
S'B-PP'
p1568
g5
tp1569
a(S'PAOP'
p1570
S'PAOP'
p1571
S'NN'
p1572
S'B-NP'
p1573
S'B-protein'
p1574
tp1575
a(S'better'
p1576
S'well'
p1577
S'RBR'
p1578
S'B-ADVP'
p1579
g5
tp1580
a(S'than'
p1581
S'than'
p1582
S'IN'
p1583
S'B-PP'
p1584
g5
tp1585
a(S'CVP'
p1586
S'CVP'
p1587
S'NN'
p1588
S'B-NP'
p1589
S'B-protein'
p1590
tp1591
a(S'in'
p1592
S'in'
p1593
S'IN'
p1594
S'B-PP'
p1595
g5
tp1596
a(S'patients'
p1597
S'patient'
p1598
S'NNS'
p1599
S'B-NP'
p1600
g5
tp1601
a(S'with'
p1602
S'with'
p1603
S'IN'
p1604
S'B-PP'
p1605
g5
tp1606
a(S'ALI.'
p1607
S'ALI.'
p1608
S'NNP'
p1609
S'B-NP'
p1610
g5
tp1611
a(S'Due'
p1612
S'Due'
p1613
S'NNP'
p1614
S'I-NP'
p1615
g5
tp1616
a(S'to'
p1617
S'to'
p1618
S'TO'
p1619
S'B-PP'
p1620
g5
tp1621
a(S'its'
p1622
S'its'
p1623
S'PRP$'
p1624
S'B-NP'
p1625
g5
tp1626
a(S'only'
p1627
S'only'
p1628
S'JJ'
p1629
S'I-NP'
p1630
g5
tp1631
a(S'moderate'
p1632
S'moderate'
p1633
S'JJ'
p1634
S'I-NP'
p1635
g5
tp1636
a(S'sensitivity'
p1637
S'sensitivity'
p1638
S'NN'
p1639
S'I-NP'
p1640
g5
tp1641
a(S'and'
p1642
S'and'
p1643
S'CC'
p1644
S'I-NP'
p1645
g5
tp1646
a(S'specificity'
p1647
S'specificity'
p1648
S'NN'
p1649
S'I-NP'
p1650
g5
tp1651
a(g648
g648
g648
g5
g5
tp1652
a(S'the'
p1653
S'the'
p1654
S'DT'
p1655
S'B-NP'
p1656
g5
tp1657
a(S'ability'
p1658
S'ability'
p1659
S'NN'
p1660
S'I-NP'
p1661
g5
tp1662
a(S'of'
p1663
S'of'
p1664
S'IN'
p1665
S'B-PP'
p1666
g5
tp1667
a(S'VPW'
p1668
S'VPW'
p1669
S'NN'
p1670
S'B-NP'
p1671
S'B-protein'
p1672
tp1673
a(S'to'
p1674
S'to'
p1675
S'TO'
p1676
S'B-VP'
p1677
g5
tp1678
a(S'discriminate'
p1679
S'discriminate'
p1680
S'VB'
p1681
S'I-VP'
p1682
g5
tp1683
a(S'fluid'
p1684
S'fluid'
p1685
S'NN'
p1686
S'B-NP'
p1687
g5
tp1688
a(S'status'
p1689
S'status'
p1690
S'NN'
p1691
S'I-NP'
p1692
g5
tp1693
a(S'in'
p1694
S'in'
p1695
S'IN'
p1696
S'B-PP'
p1697
g5
tp1698
a(S'patients'
p1699
S'patient'
p1700
S'NNS'
p1701
S'B-NP'
p1702
g5
tp1703
a(S'with'
p1704
S'with'
p1705
S'IN'
p1706
S'B-PP'
p1707
g5
tp1708
a(S'acute'
p1709
S'acute'
p1710
S'JJ'
p1711
S'B-NP'
p1712
g5
tp1713
a(S'lung'
p1714
S'lung'
p1715
S'NN'
p1716
S'I-NP'
p1717
g5
tp1718
a(S'injury'
p1719
S'injury'
p1720
S'NN'
p1721
S'I-NP'
p1722
g5
tp1723
a(S'is'
p1724
S'be'
p1725
S'VBZ'
p1726
S'B-VP'
p1727
g5
tp1728
a(S'limited'
p1729
S'limit'
p1730
S'VBN'
p1731
S'I-VP'
p1732
g5
tp1733
a(S'and'
p1734
S'and'
p1735
S'CC'
p1736
g5
g5
tp1737
a(S'should'
p1738
S'should'
p1739
S'MD'
p1740
S'B-VP'
p1741
g5
tp1742
a(S'only'
p1743
S'only'
p1744
S'RB'
p1745
S'I-VP'
p1746
g5
tp1747
a(S'be'
p1748
S'be'
p1749
S'VB'
p1750
S'I-VP'
p1751
g5
tp1752
a(S'considered'
p1753
S'consider'
p1754
S'VBN'
p1755
S'I-VP'
p1756
g5
tp1757
a(S'when'
p1758
S'when'
p1759
S'WRB'
p1760
S'B-ADVP'
p1761
g5
tp1762
a(S'intravascular'
p1763
S'intravascular'
p1764
S'JJ'
p1765
S'B-NP'
p1766
g5
tp1767
a(S'pressures'
p1768
S'pressure'
p1769
S'NNS'
p1770
S'I-NP'
p1771
g5
tp1772
a(S'are'
p1773
S'be'
p1774
S'VBP'
p1775
S'B-VP'
p1776
g5
tp1777
a(S'unavailable'
p1778
S'unavailable'
p1779
S'JJ'
p1780
S'B-ADJP'
p1781
g5
tp1782
a(g88
g88
g88
g5
g5
tp1783
a.