(lp0
(S'The'
p1
S'The'
p2
S'DT'
p3
S'B-NP'
p4
S'O'
p5
tp6
a(S'relationship'
p7
S'relationship'
p8
S'NN'
p9
S'I-NP'
p10
g5
tp11
a(S'of'
p12
S'of'
p13
S'IN'
p14
S'B-PP'
p15
g5
tp16
a(S'alexithymia'
p17
S'alexithymia'
p18
S'NN'
p19
S'B-NP'
p20
g5
tp21
a(S'to'
p22
S'to'
p23
S'TO'
p24
S'B-PP'
p25
g5
tp26
a(S'emotional'
p27
S'emotional'
p28
S'JJ'
p29
S'B-NP'
p30
g5
tp31
a(S'dysregulation'
p32
S'dysregulation'
p33
S'NN'
p34
S'I-NP'
p35
g5
tp36
a(S'within'
p37
S'within'
p38
S'IN'
p39
S'B-PP'
p40
g5
tp41
a(S'an'
p42
S'an'
p43
S'DT'
p44
S'B-NP'
p45
g5
tp46
a(S'alcohol'
p47
S'alcohol'
p48
S'NN'
p49
S'I-NP'
p50
g5
tp51
a(S'dependent'
p52
S'dependent'
p53
S'JJ'
p54
S'I-NP'
p55
g5
tp56
a(S'treatment'
p57
S'treatment'
p58
S'NN'
p59
S'I-NP'
p60
g5
tp61
a(S'sample'
p62
S'sample'
p63
S'NN'
p64
S'I-NP'
p65
g5
tp66
a(S'.'
p67
g67
g67
g5
g5
tp68
a(S'Difficulties'
p69
S'Difficulty'
p70
S'NNS'
p71
S'B-NP'
p72
g5
tp73
a(S'regulating'
p74
S'regulate'
p75
S'VBG'
p76
S'B-VP'
p77
g5
tp78
a(S'emotions'
p79
S'emotion'
p80
S'NNS'
p81
S'B-NP'
p82
g5
tp83
a(S'have'
p84
S'have'
p85
S'VBP'
p86
S'B-VP'
p87
g5
tp88
a(S'implications'
p89
S'implication'
p90
S'NNS'
p91
S'B-NP'
p92
g5
tp93
a(S'for'
p94
S'for'
p95
S'IN'
p96
S'B-PP'
p97
g5
tp98
a(S'the'
p99
S'the'
p100
S'DT'
p101
S'B-NP'
p102
g5
tp103
a(S'development'
p104
S'development'
p105
S'NN'
p106
S'I-NP'
p107
g5
tp108
a(S','
p109
g109
g109
g5
g5
tp110
a(S'maintenance'
p111
S'maintenance'
p112
S'NN'
p113
S'B-NP'
p114
g5
tp115
a(g109
g109
g109
g5
g5
tp116
a(S'and'
p117
S'and'
p118
S'CC'
p119
g5
g5
tp120
a(S'recovery'
p121
S'recovery'
p122
S'NN'
p123
S'B-NP'
p124
g5
tp125
a(S'from'
p126
S'from'
p127
S'IN'
p128
S'B-PP'
p129
g5
tp130
a(S'alcohol'
p131
S'alcohol'
p132
S'NN'
p133
S'B-NP'
p134
S'B-DNA'
p135
tp136
a(S'problems.'
p137
S'problems.'
p138
S'NN'
p139
S'I-NP'
p140
S'I-DNA'
p141
tp142
a(S'One'
p143
S'One'
p144
S'CD'
p145
S'I-NP'
p146
S'I-DNA'
p147
tp148
a(S'construct'
p149
S'construct'
p150
S'NN'
p151
S'I-NP'
p152
S'I-DNA'
p153
tp154
a(S'thought'
p155
S'think'
p156
S'VBN'
p157
S'B-VP'
p158
g5
tp159
a(S'to'
p160
S'to'
p161
S'TO'
p162
S'I-VP'
p163
g5
tp164
a(S'impede'
p165
S'impede'
p166
S'VB'
p167
S'I-VP'
p168
g5
tp169
a(S'the'
p170
S'the'
p171
S'DT'
p172
S'B-NP'
p173
g5
tp174
a(S'regulation'
p175
S'regulation'
p176
S'NN'
p177
S'I-NP'
p178
g5
tp179
a(S'of'
p180
S'of'
p181
S'IN'
p182
S'B-PP'
p183
g5
tp184
a(S'emotion'
p185
S'emotion'
p186
S'NN'
p187
S'B-NP'
p188
g5
tp189
a(S'is'
p190
S'be'
p191
S'VBZ'
p192
S'B-VP'
p193
g5
tp194
a(S'alexithymia.'
p195
S'alexithymia.'
p196
S'FW'
p197
S'B-NP'
p198
g5
tp199
a(S'Alexithymia'
p200
S'Alexithymia'
p201
S'NNP'
p202
S'I-NP'
p203
g5
tp204
a(S'is'
p205
S'be'
p206
S'VBZ'
p207
S'B-VP'
p208
g5
tp209
a(S'characterized'
p210
S'characterize'
p211
S'VBN'
p212
S'I-VP'
p213
g5
tp214
a(S'by'
p215
S'by'
p216
S'IN'
p217
S'B-PP'
p218
g5
tp219
a(S'difficulties'
p220
S'difficulty'
p221
S'NNS'
p222
S'B-NP'
p223
g5
tp224
a(S'identifying'
p225
S'identify'
p226
S'VBG'
p227
S'B-VP'
p228
g5
tp229
a(g109
g109
g109
g5
g5
tp230
a(S'differentiating'
p231
S'differentiate'
p232
S'VBG'
p233
S'B-VP'
p234
g5
tp235
a(S'and'
p236
S'and'
p237
S'CC'
p238
S'I-VP'
p239
g5
tp240
a(S'expressing'
p241
S'express'
p242
S'VBG'
p243
S'I-VP'
p244
g5
tp245
a(S'feelings'
p246
S'feeling'
p247
S'NNS'
p248
S'B-NP'
p249
g5
tp250
a(g109
g109
g109
g5
g5
tp251
a(S'a'
p252
g252
S'DT'
p253
S'B-NP'
p254
g5
tp255
a(S'limited'
p256
S'limited'
p257
S'JJ'
p258
S'I-NP'
p259
g5
tp260
a(S'imagination'
p261
S'imagination'
p262
S'NN'
p263
S'I-NP'
p264
g5
tp265
a(S'and'
p266
S'and'
p267
S'CC'
p268
S'I-NP'
p269
g5
tp270
a(S'fantasy'
p271
S'fantasy'
p272
S'NN'
p273
S'I-NP'
p274
g5
tp275
a(S'life'
p276
S'life'
p277
S'NN'
p278
S'I-NP'
p279
g5
tp280
a(g109
g109
g109
g5
g5
tp281
a(S'and'
p282
S'and'
p283
S'CC'
p284
g5
g5
tp285
a(S'an'
p286
S'an'
p287
S'DT'
p288
S'B-NP'
p289
g5
tp290
a(S'externally-oriented'
p291
S'externally-oriented'
p292
S'JJ'
p293
S'I-NP'
p294
g5
tp295
a(S'thinking'
p296
S'thinking'
p297
S'NN'
p298
S'I-NP'
p299
g5
tp300
a(S'style'
p301
S'style'
p302
S'NN'
p303
S'I-NP'
p304
g5
tp305
a(S'('
p306
g306
g306
g5
g5
tp307
a(S'e.g.'
p308
S'e.g.'
p309
S'FW'
p310
S'B-NP'
p311
g5
tp312
a(g109
g109
g109
g5
g5
tp313
a(S'prefer'
p314
S'prefer'
p315
S'VBP'
p316
S'B-VP'
p317
g5
tp318
a(S'talking'
p319
S'talk'
p320
S'VBG'
p321
S'I-VP'
p322
g5
tp323
a(S'about'
p324
S'about'
p325
S'IN'
p326
S'B-PP'
p327
g5
tp328
a(S'daily'
p329
S'daily'
p330
S'JJ'
p331
S'B-NP'
p332
g5
tp333
a(S'activities'
p334
S'activity'
p335
S'NNS'
p336
S'I-NP'
p337
g5
tp338
a(S'rather'
p339
S'rather'
p340
S'RB'
p341
S'B-CONJP'
p342
g5
tp343
a(S'than'
p344
S'than'
p345
S'IN'
p346
S'I-CONJP'
p347
g5
tp348
a(S'feelings'
p349
S'feeling'
p350
S'NNS'
p351
S'B-NP'
p352
g5
tp353
a(S')'
p354
g354
g354
g5
g5
tp355
a(g67
g67
g67
g5
g5
tp356
a(S'Given'
p357
S'Give'
p358
S'VBN'
p359
S'B-VP'
p360
g5
tp361
a(S'that'
p362
S'that'
p363
S'IN'
p364
S'B-SBAR'
p365
g5
tp366
a(S'poor'
p367
S'poor'
p368
S'JJ'
p369
S'B-NP'
p370
g5
tp371
a(S'emotion'
p372
S'emotion'
p373
S'NN'
p374
S'I-NP'
p375
g5
tp376
a(S'regulation'
p377
S'regulation'
p378
S'NN'
p379
S'I-NP'
p380
g5
tp381
a(S'skills'
p382
S'skill'
p383
S'NNS'
p384
S'I-NP'
p385
g5
tp386
a(S'have'
p387
S'have'
p388
S'VBP'
p389
S'B-VP'
p390
g5
tp391
a(S'been'
p392
S'be'
p393
S'VBN'
p394
S'I-VP'
p395
g5
tp396
a(S'found'
p397
S'find'
p398
S'VBN'
p399
S'I-VP'
p400
g5
tp401
a(S'to'
p402
S'to'
p403
S'TO'
p404
S'I-VP'
p405
g5
tp406
a(S'predict'
p407
S'predict'
p408
S'VB'
p409
S'I-VP'
p410
g5
tp411
a(S'posttreatment'
p412
S'posttreatment'
p413
S'NN'
p414
S'B-NP'
p415
g5
tp416
a(S'levels'
p417
S'level'
p418
S'NNS'
p419
S'I-NP'
p420
g5
tp421
a(S'of'
p422
S'of'
p423
S'IN'
p424
S'B-PP'
p425
g5
tp426
a(S'alcohol'
p427
S'alcohol'
p428
S'NN'
p429
S'B-NP'
p430
g5
tp431
a(S'use'
p432
S'use'
p433
S'NN'
p434
S'I-NP'
p435
g5
tp436
a(g109
g109
g109
g5
g5
tp437
a(S'and'
p438
S'and'
p439
S'CC'
p440
g5
g5
tp441
a(S'that'
p442
S'that'
p443
S'IN'
p444
S'B-SBAR'
p445
g5
tp446
a(S'several'
p447
S'several'
p448
S'JJ'
p449
S'B-NP'
p450
g5
tp451
a(S'defining'
p452
S'define'
p453
S'VBG'
p454
S'I-NP'
p455
g5
tp456
a(S'characteristics'
p457
S'characteristic'
p458
S'NNS'
p459
S'I-NP'
p460
g5
tp461
a(S'of'
p462
S'of'
p463
S'IN'
p464
S'B-PP'
p465
g5
tp466
a(S'alexithymia'
p467
S'alexithymia'
p468
S'NN'
p469
S'B-NP'
p470
g5
tp471
a(S'bear'
p472
S'bear'
p473
S'NN'
p474
S'I-NP'
p475
g5
tp476
a(S'similarity'
p477
S'similarity'
p478
S'NN'
p479
S'I-NP'
p480
g5
tp481
a(S'to'
p482
S'to'
p483
S'TO'
p484
S'B-PP'
p485
g5
tp486
a(S'deficits'
p487
S'deficit'
p488
S'NNS'
p489
S'B-NP'
p490
g5
tp491
a(S'in'
p492
S'in'
p493
S'IN'
p494
S'B-PP'
p495
g5
tp496
a(S'emotion'
p497
S'emotion'
p498
S'NN'
p499
S'B-NP'
p500
g5
tp501
a(S'regulation'
p502
S'regulation'
p503
S'NN'
p504
S'I-NP'
p505
g5
tp506
a(S'skills'
p507
S'skill'
p508
S'NNS'
p509
S'I-NP'
p510
g5
tp511
a(g109
g109
g109
g5
g5
tp512
a(S'it'
p513
S'it'
p514
S'PRP'
p515
S'B-NP'
p516
g5
tp517
a(S'is'
p518
S'be'
p519
S'VBZ'
p520
S'B-VP'
p521
g5
tp522
a(S'possible'
p523
S'possible'
p524
S'JJ'
p525
S'B-ADJP'
p526
g5
tp527
a(S'that'
p528
S'that'
p529
S'IN'
p530
S'B-SBAR'
p531
g5
tp532
a(S'alexithymia'
p533
S'alexithymia'
p534
S'NN'
p535
S'B-NP'
p536
g5
tp537
a(S'may'
p538
S'may'
p539
S'MD'
p540
S'B-VP'
p541
g5
tp542
a(S'predict'
p543
S'predict'
p544
S'VB'
p545
S'I-VP'
p546
g5
tp547
a(S'poorer'
p548
S'poor'
p549
S'JJR'
p550
S'B-NP'
p551
g5
tp552
a(S'alcohol'
p553
S'alcohol'
p554
S'NN'
p555
S'I-NP'
p556
g5
tp557
a(S'treatment'
p558
S'treatment'
p559
S'NN'
p560
S'I-NP'
p561
g5
tp562
a(S'outcomes.'
p563
S'outcomes.'
p564
S'NN'
p565
S'I-NP'
p566
g5
tp567
a(S'Thus'
p568
S'Thus'
p569
S'RB'
p570
S'B-ADVP'
p571
g5
tp572
a(g109
g109
g109
g5
g5
tp573
a(S'the'
p574
S'the'
p575
S'DT'
p576
S'B-NP'
p577
g5
tp578
a(S'present'
p579
S'present'
p580
S'JJ'
p581
S'I-NP'
p582
g5
tp583
a(S'study'
p584
S'study'
p585
S'NN'
p586
S'I-NP'
p587
g5
tp588
a(S'first'
p589
S'first'
p590
S'RB'
p591
S'B-ADVP'
p592
g5
tp593
a(S'examined'
p594
S'examine'
p595
S'VBD'
p596
S'B-VP'
p597
g5
tp598
a(S'the'
p599
S'the'
p600
S'DT'
p601
S'B-NP'
p602
g5
tp603
a(S'relationship'
p604
S'relationship'
p605
S'NN'
p606
S'I-NP'
p607
g5
tp608
a(S'of'
p609
S'of'
p610
S'IN'
p611
S'B-PP'
p612
g5
tp613
a(S'alexithymia'
p614
S'alexithymia'
p615
S'NN'
p616
S'B-NP'
p617
g5
tp618
a(S'to'
p619
S'to'
p620
S'TO'
p621
S'B-PP'
p622
g5
tp623
a(S'several'
p624
S'several'
p625
S'JJ'
p626
S'B-NP'
p627
g5
tp628
a(S'other'
p629
S'other'
p630
S'JJ'
p631
S'I-NP'
p632
g5
tp633
a(S'emotion'
p634
S'emotion'
p635
S'NN'
p636
S'I-NP'
p637
g5
tp638
a(S'regulation'
p639
S'regulation'
p640
S'NN'
p641
S'I-NP'
p642
g5
tp643
a(S'measures'
p644
S'measure'
p645
S'NNS'
p646
S'I-NP'
p647
g5
tp648
a(S'and'
p649
S'and'
p650
S'CC'
p651
g5
g5
tp652
a(S'then'
p653
S'then'
p654
S'RB'
p655
S'B-VP'
p656
g5
tp657
a(S'investigated'
p658
S'investigate'
p659
S'VBD'
p660
S'I-VP'
p661
g5
tp662
a(S'the'
p663
S'the'
p664
S'DT'
p665
S'B-NP'
p666
g5
tp667
a(S'impact'
p668
S'impact'
p669
S'NN'
p670
S'I-NP'
p671
g5
tp672
a(S'of'
p673
S'of'
p674
S'IN'
p675
S'B-PP'
p676
g5
tp677
a(S'alexithymia'
p678
S'alexithymia'
p679
S'NN'
p680
S'B-NP'
p681
g5
tp682
a(S'on'
p683
S'on'
p684
S'IN'
p685
S'B-PP'
p686
g5
tp687
a(S'attrition'
p688
S'attrition'
p689
S'NN'
p690
S'B-NP'
p691
g5
tp692
a(S'and'
p693
S'and'
p694
S'CC'
p695
S'I-NP'
p696
g5
tp697
a(S'alcohol'
p698
S'alcohol'
p699
S'NN'
p700
S'I-NP'
p701
g5
tp702
a(S'treatment'
p703
S'treatment'
p704
S'NN'
p705
S'I-NP'
p706
g5
tp707
a(S'outcomes'
p708
S'outcome'
p709
S'VBZ'
p710
S'B-VP'
p711
g5
tp712
a(S'in'
p713
S'in'
p714
S'IN'
p715
S'B-PP'
p716
g5
tp717
a(S'men'
p718
S'man'
p719
S'NNS'
p720
S'B-NP'
p721
g5
tp722
a(S'and'
p723
S'and'
p724
S'CC'
p725
S'I-NP'
p726
g5
tp727
a(S'women'
p728
S'woman'
p729
S'NNS'
p730
S'I-NP'
p731
g5
tp732
a(g306
g306
g306
g5
g5
tp733
a(S'N=77'
p734
S'N=77'
p735
S'NN'
p736
S'B-NP'
p737
g5
tp738
a(g354
g354
g354
g5
g5
tp739
a(S'enrolled'
p740
S'enrol'
p741
S'VBN'
p742
S'B-VP'
p743
g5
tp744
a(S'in'
p745
S'in'
p746
S'IN'
p747
S'B-PP'
p748
g5
tp749
a(g252
g252
S'DT'
p750
S'B-NP'
p751
g5
tp752
a(S'12-week'
p753
S'12-week'
p754
S'JJ'
p755
S'I-NP'
p756
g5
tp757
a(S'cognitive-behavioral'
p758
S'cognitive-behavioral'
p759
S'JJ'
p760
S'I-NP'
p761
g5
tp762
a(S'intervention'
p763
S'intervention'
p764
S'NN'
p765
S'I-NP'
p766
g5
tp767
a(S'for'
p768
S'for'
p769
S'IN'
p770
S'B-PP'
p771
g5
tp772
a(S'alcohol'
p773
S'alcohol'
p774
S'NN'
p775
S'B-NP'
p776
g5
tp777
a(S'dependence.'
p778
S'dependence.'
p779
S'NN'
p780
S'I-NP'
p781
g5
tp782
a(S'At'
p783
S'At'
p784
S'IN'
p785
S'B-PP'
p786
g5
tp787
a(S'baseline'
p788
S'baseline'
p789
S'NN'
p790
S'B-NP'
p791
g5
tp792
a(g109
g109
g109
g5
g5
tp793
a(S'higher'
p794
S'high'
p795
S'JJR'
p796
S'B-NP'
p797
g5
tp798
a(S'scores'
p799
S'score'
p800
S'NNS'
p801
S'I-NP'
p802
g5
tp803
a(S'on'
p804
S'on'
p805
S'IN'
p806
S'B-PP'
p807
g5
tp808
a(S'alexithymia'
p809
S'alexithymia'
p810
S'NN'
p811
S'B-NP'
p812
g5
tp813
a(S'were'
p814
S'be'
p815
S'VBD'
p816
S'B-VP'
p817
g5
tp818
a(S'associated'
p819
S'associate'
p820
S'VBN'
p821
S'I-VP'
p822
g5
tp823
a(S'poorer'
p824
S'poor'
p825
S'JJR'
p826
S'B-NP'
p827
g5
tp828
a(S'emotion'
p829
S'emotion'
p830
S'NN'
p831
S'I-NP'
p832
g5
tp833
a(S'regulation'
p834
S'regulation'
p835
S'NN'
p836
S'I-NP'
p837
g5
tp838
a(S'skills'
p839
S'skill'
p840
S'NNS'
p841
S'I-NP'
p842
g5
tp843
a(g109
g109
g109
g5
g5
tp844
a(S'fewer'
p845
S'few'
p846
S'JJR'
p847
S'B-NP'
p848
g5
tp849
a(S'percent'
p850
S'percent'
p851
S'NN'
p852
S'I-NP'
p853
g5
tp854
a(S'days'
p855
S'day'
p856
S'NNS'
p857
S'I-NP'
p858
g5
tp859
a(S'abstinent'
p860
S'abstinent'
p861
S'JJ'
p862
S'B-ADJP'
p863
g5
tp864
a(g109
g109
g109
g5
g5
tp865
a(S'greater'
p866
S'great'
p867
S'JJR'
p868
S'B-NP'
p869
g5
tp870
a(S'alcohol'
p871
S'alcohol'
p872
S'NN'
p873
S'I-NP'
p874
g5
tp875
a(S'dependence'
p876
S'dependence'
p877
S'NN'
p878
S'I-NP'
p879
g5
tp880
a(S'severity'
p881
S'severity'
p882
S'NN'
p883
S'I-NP'
p884
g5
tp885
a(g109
g109
g109
g5
g5
tp886
a(S'and'
p887
S'and'
p888
S'CC'
p889
g5
g5
tp890
a(S'several'
p891
S'several'
p892
S'JJ'
p893
S'B-NP'
p894
g5
tp895
a(S'high-risk'
p896
S'high-risk'
p897
S'JJ'
p898
S'I-NP'
p899
g5
tp900
a(S'drinking'
p901
S'drinking'
p902
S'NN'
p903
S'I-NP'
p904
g5
tp905
a(S'situations.'
p906
S'situations.'
p907
S'NN'
p908
S'I-NP'
p909
g5
tp910
a(S'Alexithymia'
p911
S'Alexithymia'
p912
S'NNP'
p913
S'I-NP'
p914
g5
tp915
a(S'was'
p916
S'be'
p917
S'VBD'
p918
S'B-VP'
p919
g5
tp920
a(S'unrelated'
p921
S'unrelated'
p922
S'JJ'
p923
S'B-ADJP'
p924
g5
tp925
a(S'to'
p926
S'to'
p927
S'TO'
p928
S'B-PP'
p929
g5
tp930
a(S'attrition'
p931
S'attrition'
p932
S'NN'
p933
S'B-NP'
p934
g5
tp935
a(S'and'
p936
S'and'
p937
S'CC'
p938
S'B-PP'
p939
g5
tp940
a(S'to'
p941
S'to'
p942
S'TO'
p943
S'B-PP'
p944
g5
tp945
a(S'level'
p946
S'level'
p947
S'NN'
p948
S'B-NP'
p949
g5
tp950
a(S'of'
p951
S'of'
p952
S'IN'
p953
S'B-PP'
p954
g5
tp955
a(S'alcohol'
p956
S'alcohol'
p957
S'NN'
p958
S'B-NP'
p959
g5
tp960
a(S'consumption'
p961
S'consumption'
p962
S'NN'
p963
S'I-NP'
p964
g5
tp965
a(S'at'
p966
S'at'
p967
S'IN'
p968
S'B-PP'
p969
g5
tp970
a(S'posttreatment.'
p971
S'posttreatment.'
p972
S'NNP'
p973
S'B-NP'
p974
g5
tp975
a(S'Overall'
p976
S'Overall'
p977
S'NNP'
p978
S'I-NP'
p979
g5
tp980
a(g109
g109
g109
g5
g5
tp981
a(S'the'
p982
S'the'
p983
S'DT'
p984
S'B-NP'
p985
g5
tp986
a(S'construct'
p987
S'construct'
p988
S'NN'
p989
S'I-NP'
p990
g5
tp991
a(S'of'
p992
S'of'
p993
S'IN'
p994
S'B-PP'
p995
g5
tp996
a(S'alexithymia'
p997
S'alexithymia'
p998
S'NN'
p999
S'B-NP'
p1000
g5
tp1001
a(S'is'
p1002
S'be'
p1003
S'VBZ'
p1004
S'B-VP'
p1005
g5
tp1006
a(S'shown'
p1007
S'show'
p1008
S'VBN'
p1009
S'I-VP'
p1010
g5
tp1011
a(S'to'
p1012
S'to'
p1013
S'TO'
p1014
S'I-VP'
p1015
g5
tp1016
a(S'be'
p1017
S'be'
p1018
S'VB'
p1019
S'I-VP'
p1020
g5
tp1021
a(S'related'
p1022
S'related'
p1023
S'JJ'
p1024
S'B-ADJP'
p1025
g5
tp1026
a(S'to'
p1027
S'to'
p1028
S'TO'
p1029
S'B-PP'
p1030
g5
tp1031
a(S'several'
p1032
S'several'
p1033
S'JJ'
p1034
S'B-NP'
p1035
g5
tp1036
a(S'theoretically-related'
p1037
S'theoretically-related'
p1038
S'JJ'
p1039
S'I-NP'
p1040
g5
tp1041
a(S'constructs'
p1042
S'construct'
p1043
S'NNS'
p1044
S'I-NP'
p1045
g5
tp1046
a(g306
g306
g306
g5
g5
tp1047
a(S'e.g.'
p1048
S'e.g.'
p1049
S'FW'
p1050
S'B-NP'
p1051
g5
tp1052
a(g109
g109
g109
g5
g5
tp1053
a(S'emotion'
p1054
S'emotion'
p1055
S'NN'
p1056
S'B-NP'
p1057
g5
tp1058
a(S'regulation'
p1059
S'regulation'
p1060
S'NN'
p1061
S'I-NP'
p1062
g5
tp1063
a(g109
g109
g109
g5
g5
tp1064
a(S'mindfulness'
p1065
S'mindfulness'
p1066
S'NN'
p1067
S'B-NP'
p1068
g5
tp1069
a(g354
g354
g354
g5
g5
tp1070
a(S'but'
p1071
S'but'
p1072
S'CC'
p1073
g5
g5
tp1074
a(S'demonstrated'
p1075
S'demonstrate'
p1076
S'VBD'
p1077
S'B-VP'
p1078
g5
tp1079
a(g252
g252
S'DT'
p1080
S'B-NP'
p1081
g5
tp1082
a(S'limited'
p1083
S'limited'
p1084
S'JJ'
p1085
S'I-NP'
p1086
g5
tp1087
a(S'relationship'
p1088
S'relationship'
p1089
S'NN'
p1090
S'I-NP'
p1091
g5
tp1092
a(S'to'
p1093
S'to'
p1094
S'TO'
p1095
S'B-PP'
p1096
g5
tp1097
a(S'drinking'
p1098
S'drink'
p1099
S'VBG'
p1100
S'B-VP'
p1101
g5
tp1102
a(S'outcomes'
p1103
S'outcome'
p1104
S'NNS'
p1105
S'B-NP'
p1106
g5
tp1107
a(S'in'
p1108
S'in'
p1109
S'IN'
p1110
S'B-PP'
p1111
g5
tp1112
a(S'those'
p1113
S'those'
p1114
S'DT'
p1115
S'B-NP'
p1116
g5
tp1117
a(S'seeking'
p1118
S'seek'
p1119
S'VBG'
p1120
S'I-NP'
p1121
g5
tp1122
a(S'treatment'
p1123
S'treatment'
p1124
S'NN'
p1125
S'I-NP'
p1126
g5
tp1127
a(S'for'
p1128
S'for'
p1129
S'IN'
p1130
S'B-PP'
p1131
g5
tp1132
a(S'alcohol'
p1133
S'alcohol'
p1134
S'NN'
p1135
S'B-NP'
p1136
g5
tp1137
a(S'dependence'
p1138
S'dependence'
p1139
S'NN'
p1140
S'I-NP'
p1141
g5
tp1142
a(g67
g67
g67
g5
g5
tp1143
a.