(lp0
(S'Evidence'
p1
S'Evidence'
p2
S'NN'
p3
S'B-NP'
p4
S'O'
p5
tp6
a(S'of'
p7
S'of'
p8
S'IN'
p9
S'B-PP'
p10
g5
tp11
a(S'radiographic'
p12
S'radiographic'
p13
S'JJ'
p14
S'B-NP'
p15
g5
tp16
a(S'benefit'
p17
S'benefit'
p18
S'NN'
p19
S'I-NP'
p20
g5
tp21
a(S'of'
p22
S'of'
p23
S'IN'
p24
S'B-PP'
p25
g5
tp26
a(S'treatment'
p27
S'treatment'
p28
S'NN'
p29
S'B-NP'
p30
g5
tp31
a(S'with'
p32
S'with'
p33
S'IN'
p34
S'B-PP'
p35
g5
tp36
a(S'infliximab'
p37
S'infliximab'
p38
S'NN'
p39
S'B-NP'
p40
g5
tp41
a(S'plus'
p42
S'plus'
p43
S'CC'
p44
S'I-NP'
p45
g5
tp46
a(S'methotrexate'
p47
S'methotrexate'
p48
S'NN'
p49
S'I-NP'
p50
g5
tp51
a(S'in'
p52
S'in'
p53
S'IN'
p54
S'B-PP'
p55
g5
tp56
a(S'rheumatoid'
p57
S'rheumatoid'
p58
S'JJ'
p59
S'B-NP'
p60
g5
tp61
a(S'arthritis'
p62
S'arthritis'
p63
S'NN'
p64
S'I-NP'
p65
g5
tp66
a(S'patients'
p67
S'patient'
p68
S'NNS'
p69
S'I-NP'
p70
g5
tp71
a(S'who'
p72
S'who'
p73
S'WP'
p74
S'B-NP'
p75
g5
tp76
a(S'had'
p77
S'have'
p78
S'VBD'
p79
S'B-VP'
p80
g5
tp81
a(S'no'
p82
S'no'
p83
S'DT'
p84
S'B-NP'
p85
g5
tp86
a(S'clinical'
p87
S'clinical'
p88
S'JJ'
p89
S'I-NP'
p90
g5
tp91
a(S'improvement'
p92
S'improvement'
p93
S'NN'
p94
S'I-NP'
p95
g5
tp96
a(S':'
p97
g97
g97
g5
g5
tp98
a(S'a'
p99
g99
S'DT'
p100
S'B-NP'
p101
g5
tp102
a(S'detailed'
p103
S'detailed'
p104
S'JJ'
p105
S'I-NP'
p106
g5
tp107
a(S'subanalysis'
p108
S'subanalysis'
p109
S'NN'
p110
S'I-NP'
p111
g5
tp112
a(S'of'
p113
S'of'
p114
S'IN'
p115
S'B-PP'
p116
g5
tp117
a(S'data'
p118
S'datum'
p119
S'NNS'
p120
S'B-NP'
p121
g5
tp122
a(S'from'
p123
S'from'
p124
S'IN'
p125
S'B-PP'
p126
g5
tp127
a(S'the'
p128
S'the'
p129
S'DT'
p130
S'B-NP'
p131
g5
tp132
a(S'anti-tumor'
p133
S'anti-tumor'
p134
S'JJ'
p135
S'I-NP'
p136
S'B-protein'
p137
tp138
a(S'necrosis'
p139
S'necrosis'
p140
S'NN'
p141
S'I-NP'
p142
S'I-protein'
p143
tp144
a(S'factor'
p145
S'factor'
p146
S'NN'
p147
S'I-NP'
p148
S'I-protein'
p149
tp150
a(S'trial'
p151
S'trial'
p152
S'NN'
p153
S'I-NP'
p154
g5
tp155
a(S'in'
p156
S'in'
p157
S'IN'
p158
S'B-PP'
p159
g5
tp160
a(S'rheumatoid'
p161
S'rheumatoid'
p162
S'JJ'
p163
S'B-NP'
p164
g5
tp165
a(S'arthritis'
p166
S'arthritis'
p167
S'NN'
p168
S'I-NP'
p169
g5
tp170
a(S'with'
p171
S'with'
p172
S'IN'
p173
S'B-PP'
p174
g5
tp175
a(S'concomitant'
p176
S'concomitant'
p177
S'JJ'
p178
S'B-NP'
p179
g5
tp180
a(S'therapy'
p181
S'therapy'
p182
S'NN'
p183
S'I-NP'
p184
g5
tp185
a(S'study'
p186
S'study'
p187
S'NN'
p188
S'I-NP'
p189
g5
tp190
a(S'.'
p191
g191
g191
g5
g5
tp192
a(S'OBJECTIVE'
p193
S'OBJECTIVE'
p194
S'NN'
p195
S'B-NP'
p196
g5
tp197
a(S'To'
p198
S'To'
p199
S'TO'
p200
S'B-VP'
p201
g5
tp202
a(S'assess'
p203
S'assess'
p204
S'VB'
p205
S'I-VP'
p206
g5
tp207
a(S'the'
p208
S'the'
p209
S'DT'
p210
S'B-NP'
p211
g5
tp212
a(S'relationship'
p213
S'relationship'
p214
S'NN'
p215
S'I-NP'
p216
g5
tp217
a(S'between'
p218
S'between'
p219
S'IN'
p220
S'B-PP'
p221
g5
tp222
a(S'inflammation'
p223
S'inflammation'
p224
S'NN'
p225
S'B-NP'
p226
g5
tp227
a(S'and'
p228
S'and'
p229
S'CC'
p230
g5
g5
tp231
a(S'joint'
p232
S'joint'
p233
S'JJ'
p234
S'B-NP'
p235
g5
tp236
a(S'destruction'
p237
S'destruction'
p238
S'NN'
p239
S'I-NP'
p240
g5
tp241
a(S'in'
p242
S'in'
p243
S'IN'
p244
S'B-PP'
p245
g5
tp246
a(S'rheumatoid'
p247
S'rheumatoid'
p248
S'JJ'
p249
S'B-NP'
p250
g5
tp251
a(S'arthritis'
p252
S'arthritis'
p253
S'NN'
p254
S'I-NP'
p255
g5
tp256
a(S'('
p257
g257
g257
g5
g5
tp258
a(S'RA'
p259
S'RA'
p260
S'NN'
p261
S'B-NP'
p262
g5
tp263
a(S')'
p264
g264
g264
g5
g5
tp265
a(S'patients'
p266
S'patient'
p267
S'NNS'
p268
S'B-NP'
p269
g5
tp270
a(S'who'
p271
S'who'
p272
S'WP'
p273
S'B-NP'
p274
g5
tp275
a(S'have'
p276
S'have'
p277
S'VBP'
p278
S'B-VP'
p279
g5
tp280
a(S'not'
p281
S'not'
p282
S'RB'
p283
S'I-VP'
p284
g5
tp285
a(S'responded'
p286
S'respond'
p287
S'VBN'
p288
S'I-VP'
p289
g5
tp290
a(S'clinically'
p291
S'clinically'
p292
S'RB'
p293
S'B-ADVP'
p294
g5
tp295
a(S'to'
p296
S'to'
p297
S'TO'
p298
S'B-PP'
p299
g5
tp300
a(S'treatment'
p301
S'treatment'
p302
S'NN'
p303
S'B-NP'
p304
g5
tp305
a(g191
g191
g191
g5
g5
tp306
a(S'METHODS'
p307
S'METHODS'
p308
S'NNS'
p309
S'B-NP'
p310
g5
tp311
a(S'Changes'
p312
S'Change'
p313
S'NNS'
p314
S'I-NP'
p315
g5
tp316
a(S'from'
p317
S'from'
p318
S'IN'
p319
S'B-PP'
p320
g5
tp321
a(S'baseline'
p322
S'baseline'
p323
S'NN'
p324
S'B-NP'
p325
g5
tp326
a(S'to'
p327
S'to'
p328
S'TO'
p329
S'B-PP'
p330
g5
tp331
a(S'week'
p332
S'week'
p333
S'NN'
p334
S'B-NP'
p335
g5
tp336
a(S'54'
p337
S'54'
p338
S'CD'
p339
S'I-NP'
p340
g5
tp341
a(S'in'
p342
S'in'
p343
S'IN'
p344
S'B-PP'
p345
g5
tp346
a(S'clinical'
p347
S'clinical'
p348
S'JJ'
p349
S'B-NP'
p350
g5
tp351
a(S'variables'
p352
S'variable'
p353
S'NNS'
p354
S'I-NP'
p355
g5
tp356
a(S'and'
p357
S'and'
p358
S'CC'
p359
S'I-NP'
p360
g5
tp361
a(S'measures'
p362
S'measure'
p363
S'NNS'
p364
S'I-NP'
p365
g5
tp366
a(S'of'
p367
S'of'
p368
S'IN'
p369
S'B-PP'
p370
g5
tp371
a(S'radiographic'
p372
S'radiographic'
p373
S'JJ'
p374
S'B-NP'
p375
g5
tp376
a(S'progression'
p377
S'progression'
p378
S'NN'
p379
S'I-NP'
p380
g5
tp381
a(S'were'
p382
S'be'
p383
S'VBD'
p384
S'B-VP'
p385
g5
tp386
a(S'compared'
p387
S'compare'
p388
S'VBN'
p389
S'I-VP'
p390
g5
tp391
a(S'between'
p392
S'between'
p393
S'IN'
p394
S'B-PP'
p395
g5
tp396
a(S'patients'
p397
S'patient'
p398
S'NNS'
p399
S'B-NP'
p400
g5
tp401
a(S'who'
p402
S'who'
p403
S'WP'
p404
S'B-NP'
p405
g5
tp406
a(S'received'
p407
S'receive'
p408
S'VBD'
p409
S'B-VP'
p410
g5
tp411
a(S'infliximab'
p412
S'infliximab'
p413
S'NN'
p414
S'B-NP'
p415
g5
tp416
a(g257
g257
g257
g5
g5
tp417
a(S'3'
p418
g418
S'CD'
p419
S'B-NP'
p420
g5
tp421
a(S'mg/kg'
p422
S'mg/kg'
p423
S'NN'
p424
S'I-NP'
p425
g5
tp426
a(S'or'
p427
S'or'
p428
S'CC'
p429
g5
g5
tp430
a(S'10'
p431
S'10'
p432
S'CD'
p433
S'B-NP'
p434
g5
tp435
a(S'mg/kg'
p436
S'mg/kg'
p437
S'NN'
p438
S'I-NP'
p439
g5
tp440
a(S'every'
p441
S'every'
p442
S'DT'
p443
S'B-NP'
p444
g5
tp445
a(S'4'
p446
g446
S'CD'
p447
S'I-NP'
p448
g5
tp449
a(S'or'
p450
S'or'
p451
S'CC'
p452
S'I-NP'
p453
g5
tp454
a(S'8'
p455
g455
S'CD'
p456
S'I-NP'
p457
g5
tp458
a(S'weeks'
p459
S'week'
p460
S'NNS'
p461
S'I-NP'
p462
g5
tp463
a(g264
g264
g264
g5
g5
tp464
a(S'plus'
p465
S'plus'
p466
S'CC'
p467
g5
g5
tp468
a(S'methotrexate'
p469
S'methotrexate'
p470
S'NN'
p471
S'B-NP'
p472
g5
tp473
a(g257
g257
g257
g5
g5
tp474
a(S'MTX'
p475
S'MTX'
p476
S'NN'
p477
S'B-NP'
p478
S'B-protein'
p479
tp480
a(g264
g264
g264
g5
g5
tp481
a(S'and'
p482
S'and'
p483
S'CC'
p484
g5
g5
tp485
a(S'those'
p486
S'those'
p487
S'DT'
p488
S'B-NP'
p489
g5
tp490
a(S'who'
p491
S'who'
p492
S'WP'
p493
S'B-NP'
p494
g5
tp495
a(S'received'
p496
S'receive'
p497
S'VBD'
p498
S'B-VP'
p499
g5
tp500
a(S'MTX'
p501
S'MTX'
p502
S'NN'
p503
S'B-NP'
p504
S'B-protein'
p505
tp506
a(S'plus'
p507
S'plus'
p508
S'CC'
p509
g5
g5
tp510
a(S'placebo'
p511
S'placebo'
p512
S'NN'
p513
S'B-NP'
p514
g5
tp515
a(S'in'
p516
S'in'
p517
S'IN'
p518
S'B-PP'
p519
g5
tp520
a(S'the'
p521
S'the'
p522
S'DT'
p523
S'B-NP'
p524
g5
tp525
a(S'Anti-Tumor'
p526
S'Anti-Tumor'
p527
S'JJ'
p528
S'I-NP'
p529
g5
tp530
a(S'Necrosis'
p531
S'Necrosis'
p532
S'NN'
p533
S'I-NP'
p534
g5
tp535
a(S'Factor'
p536
S'Factor'
p537
S'NN'
p538
S'I-NP'
p539
g5
tp540
a(S'Trial'
p541
S'Trial'
p542
S'NN'
p543
S'I-NP'
p544
g5
tp545
a(S'in'
p546
S'in'
p547
S'IN'
p548
S'B-PP'
p549
g5
tp550
a(S'RA'
p551
S'RA'
p552
S'NN'
p553
S'B-NP'
p554
g5
tp555
a(S'with'
p556
S'with'
p557
S'IN'
p558
S'B-PP'
p559
g5
tp560
a(S'Concomitant'
p561
S'Concomitant'
p562
S'JJ'
p563
S'B-NP'
p564
g5
tp565
a(S'Therapy'
p566
S'Therapy'
p567
S'NN'
p568
S'I-NP'
p569
g5
tp570
a(S'trial'
p571
S'trial'
p572
S'NN'
p573
S'I-NP'
p574
g5
tp575
a(g191
g191
g191
g5
g5
tp576
a(S'RESULTS'
p577
S'RESULTS'
p578
S'NNS'
p579
S'B-NP'
p580
g5
tp581
a(S'At'
p582
S'At'
p583
S'IN'
p584
S'B-PP'
p585
g5
tp586
a(S'week'
p587
S'week'
p588
S'NN'
p589
S'B-NP'
p590
g5
tp591
a(S'54'
p592
S'54'
p593
S'CD'
p594
S'I-NP'
p595
g5
tp596
a(S','
p597
g597
g597
g5
g5
tp598
a(S'patients'
p599
S'patient'
p600
S'NNS'
p601
S'B-NP'
p602
g5
tp603
a(S'who'
p604
S'who'
p605
S'WP'
p606
S'B-NP'
p607
g5
tp608
a(S'did'
p609
S'do'
p610
S'VBD'
p611
S'B-VP'
p612
g5
tp613
a(S'not'
p614
S'not'
p615
S'RB'
p616
S'I-VP'
p617
g5
tp618
a(S'show'
p619
S'show'
p620
S'VB'
p621
S'I-VP'
p622
g5
tp623
a(S'20'
p624
S'20'
p625
S'CD'
p626
S'B-NP'
p627
g5
tp628
a(S'%'
p629
g629
S'NN'
p630
S'I-NP'
p631
g5
tp632
a(S'improvement'
p633
S'improvement'
p634
S'NN'
p635
S'I-NP'
p636
g5
tp637
a(S'by'
p638
S'by'
p639
S'IN'
p640
S'B-PP'
p641
g5
tp642
a(S'American'
p643
S'American'
p644
S'NNP'
p645
S'B-NP'
p646
g5
tp647
a(S'College'
p648
S'College'
p649
S'NNP'
p650
S'I-NP'
p651
g5
tp652
a(S'of'
p653
S'of'
p654
S'IN'
p655
S'B-PP'
p656
g5
tp657
a(S'Rheumatology'
p658
S'Rheumatology'
p659
S'NNP'
p660
S'B-NP'
p661
g5
tp662
a(S'criteria'
p663
S'criterion'
p664
S'NNS'
p665
S'I-NP'
p666
g5
tp667
a(g257
g257
g257
g5
g5
tp668
a(S'ACR20'
p669
S'ACR20'
p670
S'NN'
p671
S'B-NP'
p672
g5
tp673
a(S'nonresponders'
p674
S'nonresponder'
p675
S'NNS'
p676
S'I-NP'
p677
g5
tp678
a(g264
g264
g264
g5
g5
tp679
a(S'while'
p680
S'while'
p681
S'IN'
p682
S'B-SBAR'
p683
g5
tp684
a(S'receiving'
p685
S'receive'
p686
S'VBG'
p687
S'B-VP'
p688
g5
tp689
a(S'infliximab'
p690
S'infliximab'
p691
S'NN'
p692
S'B-NP'
p693
g5
tp694
a(S'plus'
p695
S'plus'
p696
S'CC'
p697
g5
g5
tp698
a(S'MTX'
p699
S'MTX'
p700
S'NN'
p701
S'B-NP'
p702
S'B-protein'
p703
tp704
a(S'exhibited'
p705
S'exhibit'
p706
S'VBD'
p707
S'B-VP'
p708
g5
tp709
a(S'mild'
p710
S'mild'
p711
S'JJ'
p712
S'B-ADJP'
p713
g5
tp714
a(S'but'
p715
S'but'
p716
S'CC'
p717
g5
g5
tp718
a(S'statistically'
p719
S'statistically'
p720
S'RB'
p721
S'B-ADJP'
p722
g5
tp723
a(S'significant'
p724
S'significant'
p725
S'JJ'
p726
S'B-NP'
p727
g5
tp728
a(S'improvement'
p729
S'improvement'
p730
S'NN'
p731
S'I-NP'
p732
g5
tp733
a(S'in'
p734
S'in'
p735
S'IN'
p736
S'B-PP'
p737
g5
tp738
a(S'clinical'
p739
S'clinical'
p740
S'JJ'
p741
S'B-NP'
p742
g5
tp743
a(S'variables'
p744
S'variable'
p745
S'NNS'
p746
S'I-NP'
p747
g5
tp748
a(g597
g597
g597
g5
g5
tp749
a(S'including'
p750
S'include'
p751
S'VBG'
p752
S'B-PP'
p753
g5
tp754
a(S'the'
p755
S'the'
p756
S'DT'
p757
S'B-NP'
p758
g5
tp759
a(S'28-joint'
p760
S'28-joint'
p761
S'JJ'
p762
S'I-NP'
p763
g5
tp764
a(S'Disease'
p765
S'Disease'
p766
S'NN'
p767
S'I-NP'
p768
g5
tp769
a(S'Activity'
p770
S'Activity'
p771
S'NN'
p772
S'I-NP'
p773
g5
tp774
a(S'Score'
p775
S'Score'
p776
S'NN'
p777
S'I-NP'
p778
g5
tp779
a(g257
g257
g257
g5
g5
tp780
a(S'DAS28'
p781
S'DAS28'
p782
S'NN'
p783
S'B-NP'
p784
S'B-DNA'
p785
tp786
a(g264
g264
g264
g5
g5
tp787
a(g257
g257
g257
g5
g5
tp788
a(S'P'
p789
g789
S'NN'
p790
S'B-NP'
p791
g5
tp792
a(S'<'
p793
g793
S'SYM'
p794
g5
g5
tp795
a(S'0.001'
p796
S'0.001'
p797
S'CD'
p798
S'B-NP'
p799
g5
tp800
a(g264
g264
g264
g5
g5
tp801
a(g597
g597
g597
g5
g5
tp802
a(S'tender'
p803
S'tender'
p804
S'NN'
p805
S'B-NP'
p806
g5
tp807
a(S'joint'
p808
S'joint'
p809
S'NN'
p810
S'I-NP'
p811
g5
tp812
a(S'count'
p813
S'count'
p814
S'NN'
p815
S'I-NP'
p816
g5
tp817
a(g257
g257
g257
g5
g5
tp818
a(g789
g789
S'NN'
p819
S'B-NP'
p820
g5
tp821
a(S'='
p822
g822
S'SYM'
p823
S'B-VP'
p824
g5
tp825
a(S'0.014'
p826
S'0.014'
p827
S'CD'
p828
S'B-NP'
p829
g5
tp830
a(g264
g264
g264
g5
g5
tp831
a(g597
g597
g597
g5
g5
tp832
a(S'swollen'
p833
S'swell'
p834
S'VBN'
p835
S'B-VP'
p836
g5
tp837
a(S'joint'
p838
S'joint'
p839
S'JJ'
p840
S'B-NP'
p841
g5
tp842
a(S'count'
p843
S'count'
p844
S'NN'
p845
S'I-NP'
p846
g5
tp847
a(g257
g257
g257
g5
g5
tp848
a(g789
g789
S'NN'
p849
S'B-NP'
p850
g5
tp851
a(g793
g793
S'SYM'
p852
g5
g5
tp853
a(S'0.001'
p854
S'0.001'
p855
S'CD'
p856
S'B-NP'
p857
g5
tp858
a(g264
g264
g264
g5
g5
tp859
a(g597
g597
g597
g5
g5
tp860
a(S'and'
p861
S'and'
p862
S'CC'
p863
g5
g5
tp864
a(S'C-reactive'
p865
S'C-reactive'
p866
S'JJ'
p867
S'B-NP'
p868
S'B-protein'
p869
tp870
a(S'protein'
p871
S'protein'
p872
S'NN'
p873
S'I-NP'
p874
S'I-protein'
p875
tp876
a(g257
g257
g257
g5
g5
tp877
a(S'CRP'
p878
S'CRP'
p879
S'NN'
p880
S'B-NP'
p881
S'B-protein'
p882
tp883
a(g264
g264
g264
g5
g5
tp884
a(S'level'
p885
S'level'
p886
S'NN'
p887
S'B-NP'
p888
g5
tp889
a(g257
g257
g257
g5
g5
tp890
a(g789
g789
S'NN'
p891
S'B-NP'
p892
g5
tp893
a(g793
g793
S'SYM'
p894
g5
g5
tp895
a(S'0.001'
p896
S'0.001'
p897
S'CD'
p898
S'B-NP'
p899
g5
tp900
a(g264
g264
g264
g5
g5
tp901
a(g191
g191
g191
g5
g5
tp902
a(S'Whereas'
p903
S'Whereas'
p904
S'IN'
p905
S'B-PP'
p906
g5
tp907
a(S'the'
p908
S'the'
p909
S'DT'
p910
S'B-NP'
p911
g5
tp912
a(S'clinical'
p913
S'clinical'
p914
S'JJ'
p915
S'I-NP'
p916
g5
tp917
a(S'and'
p918
S'and'
p919
S'CC'
p920
S'I-NP'
p921
g5
tp922
a(S'CRP'
p923
S'CRP'
p924
S'NN'
p925
S'I-NP'
p926
g5
tp927
a(S'changes'
p928
S'change'
p929
S'NNS'
p930
S'I-NP'
p931
g5
tp932
a(S'among'
p933
S'among'
p934
S'IN'
p935
S'B-PP'
p936
g5
tp937
a(S'ACR20'
p938
S'ACR20'
p939
S'NN'
p940
S'B-NP'
p941
g5
tp942
a(S'nonresponders'
p943
S'nonresponder'
p944
S'NNS'
p945
S'I-NP'
p946
g5
tp947
a(S'to'
p948
S'to'
p949
S'TO'
p950
S'B-VP'
p951
g5
tp952
a(S'infliximab'
p953
S'infliximab'
p954
S'VB'
p955
S'I-VP'
p956
g5
tp957
a(S'plus'
p958
S'plus'
p959
S'CC'
p960
g5
g5
tp961
a(S'MTX'
p962
S'MTX'
p963
S'NN'
p964
S'B-NP'
p965
S'B-protein'
p966
tp967
a(S'were'
p968
S'be'
p969
S'VBD'
p970
S'B-VP'
p971
g5
tp972
a(S'small'
p973
S'small'
p974
S'JJ'
p975
S'B-ADJP'
p976
g5
tp977
a(S'and'
p978
S'and'
p979
S'CC'
p980
g5
g5
tp981
a(S'much'
p982
S'much'
p983
S'RB'
p984
S'B-ADJP'
p985
g5
tp986
a(S'lower'
p987
S'low'
p988
S'JJR'
p989
S'I-ADJP'
p990
g5
tp991
a(S'than'
p992
S'than'
p993
S'IN'
p994
S'B-PP'
p995
g5
tp996
a(S'among'
p997
S'among'
p998
S'IN'
p999
S'B-PP'
p1000
g5
tp1001
a(S'ACR20'
p1002
S'ACR20'
p1003
S'NN'
p1004
S'B-NP'
p1005
g5
tp1006
a(S'responders'
p1007
S'responder'
p1008
S'NNS'
p1009
S'I-NP'
p1010
g5
tp1011
a(S'to'
p1012
S'to'
p1013
S'TO'
p1014
S'B-PP'
p1015
g5
tp1016
a(S'this'
p1017
S'this'
p1018
S'DT'
p1019
S'B-NP'
p1020
g5
tp1021
a(S'treatment'
p1022
S'treatment'
p1023
S'NN'
p1024
S'I-NP'
p1025
g5
tp1026
a(g597
g597
g597
g5
g5
tp1027
a(S'radiographic'
p1028
S'radiographic'
p1029
S'JJ'
p1030
S'B-NP'
p1031
g5
tp1032
a(S'progression'
p1033
S'progression'
p1034
S'NN'
p1035
S'I-NP'
p1036
g5
tp1037
a(S'among'
p1038
S'among'
p1039
S'IN'
p1040
S'B-PP'
p1041
g5
tp1042
a(S'ACR20'
p1043
S'ACR20'
p1044
S'NN'
p1045
S'B-NP'
p1046
g5
tp1047
a(S'nonresponders'
p1048
S'nonresponder'
p1049
S'NNS'
p1050
S'I-NP'
p1051
g5
tp1052
a(S'to'
p1053
S'to'
p1054
S'TO'
p1055
S'B-VP'
p1056
g5
tp1057
a(S'infliximab'
p1058
S'infliximab'
p1059
S'VB'
p1060
S'I-VP'
p1061
g5
tp1062
a(S'plus'
p1063
S'plus'
p1064
S'CC'
p1065
g5
g5
tp1066
a(S'MTX'
p1067
S'MTX'
p1068
S'NN'
p1069
S'B-NP'
p1070
S'B-protein'
p1071
tp1072
a(S'was'
p1073
S'be'
p1074
S'VBD'
p1075
S'B-VP'
p1076
g5
tp1077
a(S'significantly'
p1078
S'significantly'
p1079
S'RB'
p1080
S'I-VP'
p1081
g5
tp1082
a(S'inhibited'
p1083
S'inhibit'
p1084
S'VBN'
p1085
S'I-VP'
p1086
g5
tp1087
a(g257
g257
g257
g5
g5
tp1088
a(g789
g789
S'NN'
p1089
S'B-NP'
p1090
g5
tp1091
a(g793
g793
S'SYM'
p1092
g5
g5
tp1093
a(S'0.001'
p1094
S'0.001'
p1095
S'CD'
p1096
S'B-NP'
p1097
g5
tp1098
a(g264
g264
g264
g5
g5
tp1099
a(S'compared'
p1100
S'compare'
p1101
S'VBN'
p1102
S'B-PP'
p1103
g5
tp1104
a(S'with'
p1105
S'with'
p1106
S'IN'
p1107
S'B-PP'
p1108
g5
tp1109
a(S'ACR20'
p1110
S'ACR20'
p1111
S'NN'
p1112
S'B-NP'
p1113
g5
tp1114
a(S'nonresponders'
p1115
S'nonresponder'
p1116
S'NNS'
p1117
S'I-NP'
p1118
g5
tp1119
a(S'to'
p1120
S'to'
p1121
S'TO'
p1122
S'B-PP'
p1123
g5
tp1124
a(S'MTX'
p1125
S'MTX'
p1126
S'NN'
p1127
S'B-NP'
p1128
S'B-protein'
p1129
tp1130
a(S'plus'
p1131
S'plus'
p1132
S'CC'
p1133
g5
g5
tp1134
a(S'placebo.'
p1135
S'placebo.'
p1136
S'NN'
p1137
S'B-NP'
p1138
g5
tp1139
a(S'Radiographic'
p1140
S'Radiographic'
p1141
S'JJ'
p1142
S'I-NP'
p1143
g5
tp1144
a(S'progression'
p1145
S'progression'
p1146
S'NN'
p1147
S'I-NP'
p1148
g5
tp1149
a(S'was'
p1150
S'be'
p1151
S'VBD'
p1152
S'B-VP'
p1153
g5
tp1154
a(S'much'
p1155
S'much'
p1156
S'RB'
p1157
S'B-ADJP'
p1158
g5
tp1159
a(S'greater'
p1160
S'great'
p1161
S'JJR'
p1162
S'I-ADJP'
p1163
g5
tp1164
a(S'in'
p1165
S'in'
p1166
S'IN'
p1167
S'B-PP'
p1168
g5
tp1169
a(S'patients'
p1170
S'patient'
p1171
S'NNS'
p1172
S'B-NP'
p1173
g5
tp1174
a(S'receiving'
p1175
S'receive'
p1176
S'VBG'
p1177
S'B-VP'
p1178
g5
tp1179
a(S'MTX'
p1180
S'MTX'
p1181
S'NN'
p1182
S'B-NP'
p1183
S'B-protein'
p1184
tp1185
a(S'plus'
p1186
S'plus'
p1187
S'CC'
p1188
S'I-NP'
p1189
g5
tp1190
a(S'placebo'
p1191
S'placebo'
p1192
S'NN'
p1193
S'I-NP'
p1194
g5
tp1195
a(S'than'
p1196
S'than'
p1197
S'IN'
p1198
S'B-PP'
p1199
g5
tp1200
a(S'in'
p1201
S'in'
p1202
S'IN'
p1203
S'B-PP'
p1204
g5
tp1205
a(S'patients'
p1206
S'patient'
p1207
S'NNS'
p1208
S'B-NP'
p1209
g5
tp1210
a(S'receiving'
p1211
S'receive'
p1212
S'VBG'
p1213
S'B-VP'
p1214
g5
tp1215
a(S'infliximab'
p1216
S'infliximab'
p1217
S'NN'
p1218
S'B-NP'
p1219
g5
tp1220
a(S'plus'
p1221
S'plus'
p1222
S'CC'
p1223
S'I-NP'
p1224
g5
tp1225
a(S'MTX'
p1226
S'MTX'
p1227
S'NN'
p1228
S'I-NP'
p1229
S'B-protein'
p1230
tp1231
a(g597
g597
g597
g5
g5
tp1232
a(S'irrespective'
p1233
S'irrespective'
p1234
S'JJ'
p1235
S'B-ADJP'
p1236
g5
tp1237
a(S'of'
p1238
S'of'
p1239
S'IN'
p1240
S'B-PP'
p1241
g5
tp1242
a(S'ACR'
p1243
S'ACR'
p1244
S'NN'
p1245
S'B-NP'
p1246
g5
tp1247
a(S'response'
p1248
S'response'
p1249
S'NN'
p1250
S'I-NP'
p1251
g5
tp1252
a(S'status'
p1253
S'status'
p1254
S'NN'
p1255
S'I-NP'
p1256
g5
tp1257
a(g257
g257
g257
g5
g5
tp1258
a(S'mean'
p1259
S'mean'
p1260
S'JJ'
p1261
S'B-NP'
p1262
g5
tp1263
a(S'change'
p1264
S'change'
p1265
S'NN'
p1266
S'I-NP'
p1267
g5
tp1268
a(S'in'
p1269
S'in'
p1270
S'IN'
p1271
S'B-PP'
p1272
g5
tp1273
a(S'modified'
p1274
S'modify'
p1275
S'VBN'
p1276
S'B-NP'
p1277
g5
tp1278
a(S'Sharp/van'
p1279
S'Sharp/van'
p1280
S'NNP'
p1281
S'I-NP'
p1282
g5
tp1283
a(S'der'
p1284
S'der'
p1285
S'NNP'
p1286
S'I-NP'
p1287
g5
tp1288
a(S'Heijde'
p1289
S'Heijde'
p1290
S'NNP'
p1291
S'I-NP'
p1292
g5
tp1293
a(S'score'
p1294
S'score'
p1295
S'NN'
p1296
S'I-NP'
p1297
g5
tp1298
a(S'6.0'
p1299
S'6.0'
p1300
S'CD'
p1301
S'I-NP'
p1302
g5
tp1303
a(S'in'
p1304
S'in'
p1305
S'IN'
p1306
S'B-PP'
p1307
g5
tp1308
a(S'ACR20'
p1309
S'ACR20'
p1310
S'NN'
p1311
S'B-NP'
p1312
g5
tp1313
a(S'responders'
p1314
S'responder'
p1315
S'NNS'
p1316
S'I-NP'
p1317
g5
tp1318
a(S'and'
p1319
S'and'
p1320
S'CC'
p1321
g5
g5
tp1322
a(S'7.2'
p1323
S'7.2'
p1324
S'CD'
p1325
S'B-NP'
p1326
g5
tp1327
a(S'in'
p1328
S'in'
p1329
S'IN'
p1330
S'B-PP'
p1331
g5
tp1332
a(S'ACR20'
p1333
S'ACR20'
p1334
S'NN'
p1335
S'B-NP'
p1336
g5
tp1337
a(S'nonresponders'
p1338
S'nonresponder'
p1339
S'NNS'
p1340
S'I-NP'
p1341
g5
tp1342
a(S'in'
p1343
S'in'
p1344
S'IN'
p1345
S'B-PP'
p1346
g5
tp1347
a(S'the'
p1348
S'the'
p1349
S'DT'
p1350
S'B-NP'
p1351
g5
tp1352
a(S'MTX'
p1353
S'MTX'
p1354
S'NN'
p1355
S'I-NP'
p1356
S'B-protein'
p1357
tp1358
a(S'plus'
p1359
S'plus'
p1360
S'CC'
p1361
g5
g5
tp1362
a(S'placebo-treated'
p1363
S'placebo-treated'
p1364
S'JJ'
p1365
S'B-NP'
p1366
g5
tp1367
a(S'group'
p1368
S'group'
p1369
S'NN'
p1370
S'I-NP'
p1371
g5
tp1372
a(g597
g597
g597
g5
g5
tp1373
a(S'versus'
p1374
S'versus'
p1375
S'IN'
p1376
S'B-ADVP'
p1377
g5
tp1378
a(S'0.1'
p1379
S'0.1'
p1380
S'CD'
p1381
S'B-NP'
p1382
g5
tp1383
a(S'in'
p1384
S'in'
p1385
S'IN'
p1386
S'B-PP'
p1387
g5
tp1388
a(S'ACR20'
p1389
S'ACR20'
p1390
S'NN'
p1391
S'B-NP'
p1392
g5
tp1393
a(S'responders'
p1394
S'responder'
p1395
S'NNS'
p1396
S'I-NP'
p1397
g5
tp1398
a(S'and'
p1399
S'and'
p1400
S'CC'
p1401
g5
g5
tp1402
a(S'1.2'
p1403
S'1.2'
p1404
S'CD'
p1405
S'B-NP'
p1406
g5
tp1407
a(S'in'
p1408
S'in'
p1409
S'IN'
p1410
S'B-PP'
p1411
g5
tp1412
a(S'ACR20'
p1413
S'ACR20'
p1414
S'NN'
p1415
S'B-NP'
p1416
g5
tp1417
a(S'nonresponders'
p1418
S'nonresponder'
p1419
S'NNS'
p1420
S'I-NP'
p1421
g5
tp1422
a(S'in'
p1423
S'in'
p1424
S'IN'
p1425
S'B-PP'
p1426
g5
tp1427
a(S'the'
p1428
S'the'
p1429
S'DT'
p1430
S'B-NP'
p1431
g5
tp1432
a(S'infliximab'
p1433
S'infliximab'
p1434
S'NN'
p1435
S'I-NP'
p1436
g5
tp1437
a(S'plus'
p1438
S'plus'
p1439
S'CC'
p1440
g5
g5
tp1441
a(S'MTX-treated'
p1442
S'MTX-treated'
p1443
S'JJ'
p1444
S'B-NP'
p1445
g5
tp1446
a(S'group'
p1447
S'group'
p1448
S'NN'
p1449
S'I-NP'
p1450
g5
tp1451
a(g264
g264
g264
g5
g5
tp1452
a(g191
g191
g191
g5
g5
tp1453
a(S'Furthermore'
p1454
S'Furthermore'
p1455
S'RB'
p1456
S'B-ADVP'
p1457
g5
tp1458
a(g597
g597
g597
g5
g5
tp1459
a(S'among'
p1460
S'among'
p1461
S'IN'
p1462
S'B-PP'
p1463
g5
tp1464
a(S'patients'
p1465
S'patient'
p1466
S'NNS'
p1467
S'B-NP'
p1468
g5
tp1469
a(S'who'
p1470
S'who'
p1471
S'WP'
p1472
S'B-NP'
p1473
g5
tp1474
a(S'were'
p1475
S'be'
p1476
S'VBD'
p1477
S'B-VP'
p1478
g5
tp1479
a(S'ACR20'
p1480
S'ACR20'
p1481
S'NN'
p1482
S'B-NP'
p1483
g5
tp1484
a(S'nonresponders'
p1485
S'nonresponder'
p1486
S'NNS'
p1487
S'I-NP'
p1488
g5
tp1489
a(S'through'
p1490
S'through'
p1491
S'IN'
p1492
S'B-PP'
p1493
g5
tp1494
a(S'week'
p1495
S'week'
p1496
S'NN'
p1497
S'B-NP'
p1498
g5
tp1499
a(S'54'
p1500
S'54'
p1501
S'CD'
p1502
S'I-NP'
p1503
g5
tp1504
a(g597
g597
g597
g5
g5
tp1505
a(S'patients'
p1506
S'patient'
p1507
S'NNS'
p1508
S'B-NP'
p1509
g5
tp1510
a(S'who'
p1511
S'who'
p1512
S'WP'
p1513
S'B-NP'
p1514
g5
tp1515
a(S'were'
p1516
S'be'
p1517
S'VBD'
p1518
S'B-VP'
p1519
g5
tp1520
a(S'DAS'
p1521
S'DAS'
p1522
S'NNP'
p1523
S'B-NP'
p1524
g5
tp1525
a(S'nonresponders'
p1526
S'nonresponder'
p1527
S'NNS'
p1528
S'I-NP'
p1529
g5
tp1530
a(S'at'
p1531
S'at'
p1532
S'IN'
p1533
S'B-PP'
p1534
g5
tp1535
a(S'weeks'
p1536
S'week'
p1537
S'NNS'
p1538
S'B-NP'
p1539
g5
tp1540
a(S'30'
p1541
S'30'
p1542
S'CD'
p1543
S'B-NP'
p1544
g5
tp1545
a(S'and'
p1546
S'and'
p1547
S'CC'
p1548
S'I-NP'
p1549
g5
tp1550
a(S'54'
p1551
S'54'
p1552
S'CD'
p1553
S'I-NP'
p1554
g5
tp1555
a(g597
g597
g597
g5
g5
tp1556
a(S'and'
p1557
S'and'
p1558
S'CC'
p1559
g5
g5
tp1560
a(S'patients'
p1561
S'patient'
p1562
S'NNS'
p1563
S'B-NP'
p1564
g5
tp1565
a(S'without'
p1566
S'without'
p1567
S'IN'
p1568
S'B-PP'
p1569
g5
tp1570
a(S'any'
p1571
S'any'
p1572
S'DT'
p1573
S'B-NP'
p1574
g5
tp1575
a(S'improvement'
p1576
S'improvement'
p1577
S'NN'
p1578
S'I-NP'
p1579
g5
tp1580
a(S'in'
p1581
S'in'
p1582
S'IN'
p1583
S'B-PP'
p1584
g5
tp1585
a(S'individual'
p1586
S'individual'
p1587
S'JJ'
p1588
S'B-NP'
p1589
g5
tp1590
a(S'clinical'
p1591
S'clinical'
p1592
S'JJ'
p1593
S'I-NP'
p1594
g5
tp1595
a(S'variables'
p1596
S'variable'
p1597
S'NNS'
p1598
S'I-NP'
p1599
g5
tp1600
a(g597
g597
g597
g5
g5
tp1601
a(S'those'
p1602
S'those'
p1603
S'DT'
p1604
S'B-NP'
p1605
g5
tp1606
a(S'receiving'
p1607
S'receive'
p1608
S'VBG'
p1609
S'I-NP'
p1610
g5
tp1611
a(S'infliximab'
p1612
S'infliximab'
p1613
S'NN'
p1614
S'I-NP'
p1615
g5
tp1616
a(S'plus'
p1617
S'plus'
p1618
S'CC'
p1619
g5
g5
tp1620
a(S'MTX'
p1621
S'MTX'
p1622
S'NN'
p1623
S'B-NP'
p1624
S'B-protein'
p1625
tp1626
a(S'still'
p1627
S'still'
p1628
S'RB'
p1629
S'B-ADVP'
p1630
g5
tp1631
a(S'demonstrated'
p1632
S'demonstrate'
p1633
S'VBD'
p1634
S'B-VP'
p1635
g5
tp1636
a(S'inhibition'
p1637
S'inhibition'
p1638
S'NN'
p1639
S'B-NP'
p1640
g5
tp1641
a(S'of'
p1642
S'of'
p1643
S'IN'
p1644
S'B-PP'
p1645
g5
tp1646
a(S'structural'
p1647
S'structural'
p1648
S'JJ'
p1649
S'B-NP'
p1650
g5
tp1651
a(S'damage'
p1652
S'damage'
p1653
S'NN'
p1654
S'I-NP'
p1655
g5
tp1656
a(S'that'
p1657
S'that'
p1658
S'WDT'
p1659
S'B-NP'
p1660
g5
tp1661
a(S'was'
p1662
S'be'
p1663
S'VBD'
p1664
S'B-VP'
p1665
g5
tp1666
a(S'statistically'
p1667
S'statistically'
p1668
S'RB'
p1669
S'B-ADJP'
p1670
g5
tp1671
a(S'significant'
p1672
S'significant'
p1673
S'JJ'
p1674
S'I-ADJP'
p1675
g5
tp1676
a(S'compared'
p1677
S'compare'
p1678
S'VBN'
p1679
S'B-PP'
p1680
g5
tp1681
a(S'with'
p1682
S'with'
p1683
S'IN'
p1684
S'B-PP'
p1685
g5
tp1686
a(S'inhibition'
p1687
S'inhibition'
p1688
S'NN'
p1689
S'B-NP'
p1690
g5
tp1691
a(S'in'
p1692
S'in'
p1693
S'IN'
p1694
S'B-PP'
p1695
g5
tp1696
a(S'patients'
p1697
S'patient'
p1698
S'NNS'
p1699
S'B-NP'
p1700
g5
tp1701
a(S'who'
p1702
S'who'
p1703
S'WP'
p1704
S'B-NP'
p1705
g5
tp1706
a(S'received'
p1707
S'receive'
p1708
S'VBD'
p1709
S'B-VP'
p1710
g5
tp1711
a(S'MTX'
p1712
S'MTX'
p1713
S'NN'
p1714
S'B-NP'
p1715
S'B-protein'
p1716
tp1717
a(S'plus'
p1718
S'plus'
p1719
S'CC'
p1720
g5
g5
tp1721
a(S'placebo'
p1722
S'placebo'
p1723
S'NN'
p1724
S'B-NP'
p1725
g5
tp1726
a(g257
g257
g257
g5
g5
tp1727
a(g789
g789
S'NN'
p1728
S'B-NP'
p1729
g5
tp1730
a(g793
g793
S'SYM'
p1731
g5
g5
tp1732
a(S'0.05'
p1733
S'0.05'
p1734
S'CD'
p1735
S'B-NP'
p1736
g5
tp1737
a(S'to'
p1738
S'to'
p1739
S'TO'
p1740
S'B-PP'
p1741
g5
tp1742
a(g789
g789
S'NN'
p1743
S'B-NP'
p1744
g5
tp1745
a(g793
g793
S'SYM'
p1746
S'B-NP'
p1747
g5
tp1748
a(S'0.001'
p1749
S'0.001'
p1750
S'CD'
p1751
S'I-NP'
p1752
g5
tp1753
a(g264
g264
g264
g5
g5
tp1754
a(g191
g191
g191
g5
g5
tp1755
a(S'CONCLUSION'
p1756
S'CONCLUSION'
p1757
S'NN'
p1758
S'B-NP'
p1759
g5
tp1760
a(S'Even'
p1761
S'Even'
p1762
S'RB'
p1763
S'B-ADVP'
p1764
g5
tp1765
a(S'in'
p1766
S'in'
p1767
S'IN'
p1768
S'B-PP'
p1769
g5
tp1770
a(S'patients'
p1771
S'patient'
p1772
S'NNS'
p1773
S'B-NP'
p1774
g5
tp1775
a(S'without'
p1776
S'without'
p1777
S'IN'
p1778
S'B-PP'
p1779
g5
tp1780
a(S'clinical'
p1781
S'clinical'
p1782
S'JJ'
p1783
S'B-NP'
p1784
g5
tp1785
a(S'improvement'
p1786
S'improvement'
p1787
S'NN'
p1788
S'I-NP'
p1789
g5
tp1790
a(g597
g597
g597
g5
g5
tp1791
a(S'treatment'
p1792
S'treatment'
p1793
S'NN'
p1794
S'B-NP'
p1795
g5
tp1796
a(S'with'
p1797
S'with'
p1798
S'IN'
p1799
S'B-PP'
p1800
g5
tp1801
a(S'infliximab'
p1802
S'infliximab'
p1803
S'NN'
p1804
S'B-NP'
p1805
g5
tp1806
a(S'plus'
p1807
S'plus'
p1808
S'CC'
p1809
g5
g5
tp1810
a(S'MTX'
p1811
S'MTX'
p1812
S'NN'
p1813
S'B-NP'
p1814
S'B-protein'
p1815
tp1816
a(S'provided'
p1817
S'provide'
p1818
S'VBD'
p1819
S'B-VP'
p1820
g5
tp1821
a(S'significant'
p1822
S'significant'
p1823
S'JJ'
p1824
S'B-NP'
p1825
g5
tp1826
a(S'benefit'
p1827
S'benefit'
p1828
S'NN'
p1829
S'I-NP'
p1830
g5
tp1831
a(S'with'
p1832
S'with'
p1833
S'IN'
p1834
S'B-PP'
p1835
g5
tp1836
a(S'regard'
p1837
S'regard'
p1838
S'NN'
p1839
S'B-NP'
p1840
g5
tp1841
a(S'to'
p1842
S'to'
p1843
S'TO'
p1844
S'B-PP'
p1845
g5
tp1846
a(S'the'
p1847
S'the'
p1848
S'DT'
p1849
S'B-NP'
p1850
g5
tp1851
a(S'destructive'
p1852
S'destructive'
p1853
S'JJ'
p1854
S'I-NP'
p1855
g5
tp1856
a(S'process'
p1857
S'process'
p1858
S'NN'
p1859
S'I-NP'
p1860
g5
tp1861
a(g597
g597
g597
g5
g5
tp1862
a(S'suggesting'
p1863
S'suggest'
p1864
S'VBG'
p1865
S'B-VP'
p1866
g5
tp1867
a(S'that'
p1868
S'that'
p1869
S'IN'
p1870
S'B-SBAR'
p1871
g5
tp1872
a(S'in'
p1873
S'in'
p1874
S'IN'
p1875
S'B-PP'
p1876
g5
tp1877
a(S'such'
p1878
S'such'
p1879
S'JJ'
p1880
S'B-NP'
p1881
g5
tp1882
a(S'patients'
p1883
S'patient'
p1884
S'NNS'
p1885
S'I-NP'
p1886
g5
tp1887
a(S'these'
p1888
S'these'
p1889
S'DT'
p1890
S'B-NP'
p1891
g5
tp1892
a(S'2'
p1893
g1893
S'CD'
p1894
S'I-NP'
p1895
g5
tp1896
a(S'measures'
p1897
S'measure'
p1898
S'NNS'
p1899
S'I-NP'
p1900
g5
tp1901
a(S'of'
p1902
S'of'
p1903
S'IN'
p1904
S'B-PP'
p1905
g5
tp1906
a(S'disease'
p1907
S'disease'
p1908
S'NN'
p1909
S'B-NP'
p1910
g5
tp1911
a(S'are'
p1912
S'be'
p1913
S'VBP'
p1914
S'B-VP'
p1915
g5
tp1916
a(S'dissociated'
p1917
S'dissociate'
p1918
S'VBN'
p1919
S'I-VP'
p1920
g5
tp1921
a(g191
g191
g191
g5
g5
tp1922
a.