(lp0
(S'Tofacitinib'
p1
S'Tofacitinib'
p2
S'NN'
p3
S'B-NP'
p4
S'O'
p5
tp6
a(S'with'
p7
S'with'
p8
S'IN'
p9
S'B-PP'
p10
g5
tp11
a(S'methotrexate'
p12
S'methotrexate'
p13
S'NN'
p14
S'B-NP'
p15
g5
tp16
a(S'in'
p17
S'in'
p18
S'IN'
p19
S'B-PP'
p20
g5
tp21
a(S'third-line'
p22
S'third-line'
p23
S'JJ'
p24
S'B-NP'
p25
g5
tp26
a(S'treatment'
p27
S'treatment'
p28
S'NN'
p29
S'I-NP'
p30
g5
tp31
a(S'of'
p32
S'of'
p33
S'IN'
p34
S'B-PP'
p35
g5
tp36
a(S'patients'
p37
S'patient'
p38
S'NNS'
p39
S'B-NP'
p40
g5
tp41
a(S'with'
p42
S'with'
p43
S'IN'
p44
S'B-PP'
p45
g5
tp46
a(S'active'
p47
S'active'
p48
S'JJ'
p49
S'B-NP'
p50
g5
tp51
a(S'rheumatoid'
p52
S'rheumatoid'
p53
S'JJ'
p54
S'I-NP'
p55
g5
tp56
a(S'arthritis'
p57
S'arthritis'
p58
S'NN'
p59
S'I-NP'
p60
g5
tp61
a(S':'
p62
g62
g62
g5
g5
tp63
a(S'patient-reported'
p64
S'patient-reported'
p65
S'JJ'
p66
S'B-NP'
p67
g5
tp68
a(S'outcomes'
p69
S'outcome'
p70
S'NNS'
p71
S'I-NP'
p72
g5
tp73
a(S'from'
p74
S'from'
p75
S'IN'
p76
S'B-PP'
p77
g5
tp78
a(S'a'
p79
g79
S'DT'
p80
S'B-NP'
p81
g5
tp82
a(S'phase'
p83
S'phase'
p84
S'NN'
p85
S'I-NP'
p86
g5
tp87
a(S'III'
p88
S'III'
p89
S'CD'
p90
S'I-NP'
p91
g5
tp92
a(S'trial'
p93
S'trial'
p94
S'NN'
p95
S'I-NP'
p96
g5
tp97
a(S'.'
p98
g98
g98
g5
g5
tp99
a(S'OBJECTIVE'
p100
S'OBJECTIVE'
p101
S'NN'
p102
S'B-NP'
p103
g5
tp104
a(S'To'
p105
S'To'
p106
S'TO'
p107
S'B-VP'
p108
g5
tp109
a(S'assess'
p110
S'assess'
p111
S'VB'
p112
S'I-VP'
p113
g5
tp114
a(S'patient-reported'
p115
S'patient-reported'
p116
S'JJ'
p117
S'B-NP'
p118
g5
tp119
a(S'outcomes'
p120
S'outcome'
p121
S'NNS'
p122
S'I-NP'
p123
g5
tp124
a(S'('
p125
g125
g125
g5
g5
tp126
a(S'PROs'
p127
S'PRO'
p128
S'NNS'
p129
S'B-NP'
p130
g5
tp131
a(S')'
p132
g132
g132
g5
g5
tp133
a(S'for'
p134
S'for'
p135
S'IN'
p136
S'B-PP'
p137
g5
tp138
a(S'tofacitinib'
p139
S'tofacitinib'
p140
S'NN'
p141
S'B-NP'
p142
S'B-protein'
p143
tp144
a(S','
p145
g145
g145
g5
g5
tp146
a(S'an'
p147
S'an'
p148
S'DT'
p149
S'B-NP'
p150
g5
tp151
a(S'oral'
p152
S'oral'
p153
S'JJ'
p154
S'I-NP'
p155
g5
tp156
a(S'JAK'
p157
S'JAK'
p158
S'NN'
p159
S'I-NP'
p160
S'B-protein'
p161
tp162
a(S'inhibitor'
p163
S'inhibitor'
p164
S'NN'
p165
S'I-NP'
p166
g5
tp167
a(S'for'
p168
S'for'
p169
S'IN'
p170
S'B-PP'
p171
g5
tp172
a(S'the'
p173
S'the'
p174
S'DT'
p175
S'B-NP'
p176
g5
tp177
a(S'treatment'
p178
S'treatment'
p179
S'NN'
p180
S'I-NP'
p181
g5
tp182
a(S'of'
p183
S'of'
p184
S'IN'
p185
S'B-PP'
p186
g5
tp187
a(S'rheumatoid'
p188
S'rheumatoid'
p189
S'JJ'
p190
S'B-NP'
p191
g5
tp192
a(S'arthritis'
p193
S'arthritis'
p194
S'NN'
p195
S'I-NP'
p196
g5
tp197
a(g125
g125
g125
g5
g5
tp198
a(S'RA'
p199
S'RA'
p200
S'NN'
p201
S'B-NP'
p202
g5
tp203
a(g132
g132
g132
g5
g5
tp204
a(g145
g145
g145
g5
g5
tp205
a(S'in'
p206
S'in'
p207
S'IN'
p208
S'B-PP'
p209
g5
tp210
a(g79
g79
S'DT'
p211
S'B-NP'
p212
g5
tp213
a(S'6-month'
p214
S'6-month'
p215
S'NN'
p216
S'I-NP'
p217
g5
tp218
a(g145
g145
g145
g5
g5
tp219
a(S'phase'
p220
S'phase'
p221
S'NN'
p222
S'B-NP'
p223
S'B-DNA'
p224
tp225
a(S'III'
p226
S'III'
p227
S'CD'
p228
S'I-NP'
p229
S'I-DNA'
p230
tp231
a(g145
g145
g145
g5
g5
tp232
a(S'randomized'
p233
S'randomize'
p234
S'VBN'
p235
S'B-VP'
p236
g5
tp237
a(S'controlled'
p238
S'control'
p239
S'VBN'
p240
S'B-NP'
p241
g5
tp242
a(S'trial'
p243
S'trial'
p244
S'NN'
p245
S'I-NP'
p246
g5
tp247
a(g98
g98
g98
g5
g5
tp248
a(S'METHODS'
p249
S'METHODS'
p250
S'NNS'
p251
S'B-NP'
p252
g5
tp253
a(S'Patients'
p254
S'Patient'
p255
S'NNS'
p256
S'I-NP'
p257
g5
tp258
a(S'ages'
p259
S'age'
p260
S'NNS'
p261
S'I-NP'
p262
g5
tp263
a(S'\xe2\x89\xa518'
p264
S'\xe2\x89\xa518'
p265
S'CD'
p266
S'B-NP'
p267
g5
tp268
a(S'years'
p269
S'year'
p270
S'NNS'
p271
S'I-NP'
p272
g5
tp273
a(S'with'
p274
S'with'
p275
S'IN'
p276
S'B-PP'
p277
g5
tp278
a(S'active'
p279
S'active'
p280
S'JJ'
p281
S'B-NP'
p282
g5
tp283
a(S'RA'
p284
S'RA'
p285
S'NN'
p286
S'I-NP'
p287
g5
tp288
a(S'with'
p289
S'with'
p290
S'IN'
p291
S'B-PP'
p292
g5
tp293
a(S'an'
p294
S'an'
p295
S'DT'
p296
S'B-NP'
p297
g5
tp298
a(S'inadequate'
p299
S'inadequate'
p300
S'JJ'
p301
S'I-NP'
p302
g5
tp303
a(S'response'
p304
S'response'
p305
S'NN'
p306
S'I-NP'
p307
g5
tp308
a(S'to'
p309
S'to'
p310
S'TO'
p311
S'B-PP'
p312
g5
tp313
a(S'\xe2\x89\xa51'
p314
S'\xe2\x89\xa51'
p315
S'CD'
p316
S'B-NP'
p317
g5
tp318
a(S'tumor'
p319
S'tumor'
p320
S'NN'
p321
S'I-NP'
p322
g5
tp323
a(S'necrosis'
p324
S'necrosis'
p325
S'NN'
p326
S'I-NP'
p327
g5
tp328
a(S'factor'
p329
S'factor'
p330
S'NN'
p331
S'I-NP'
p332
g5
tp333
a(S'inhibitor'
p334
S'inhibitor'
p335
S'NN'
p336
S'I-NP'
p337
g5
tp338
a(g125
g125
g125
g5
g5
tp339
a(S'TNFi'
p340
S'TNFi'
p341
S'NN'
p342
S'B-NP'
p343
S'B-protein'
p344
tp345
a(g132
g132
g132
g5
g5
tp346
a(S'and'
p347
S'and'
p348
S'CC'
p349
g5
g5
tp350
a(S'receiving'
p351
S'receive'
p352
S'VBG'
p353
S'B-VP'
p354
g5
tp355
a(S'stable'
p356
S'stable'
p357
S'JJ'
p358
S'B-NP'
p359
g5
tp360
a(S'background'
p361
S'background'
p362
S'NN'
p363
S'I-NP'
p364
g5
tp365
a(S'methotrexate'
p366
S'methotrexate'
p367
S'NN'
p368
S'I-NP'
p369
g5
tp370
a(S'were'
p371
S'be'
p372
S'VBD'
p373
S'B-VP'
p374
g5
tp375
a(S'randomized'
p376
S'randomize'
p377
S'VBN'
p378
S'I-VP'
p379
g5
tp380
a(S'2'
p381
g381
S'CD'
p382
S'B-NP'
p383
g5
tp384
a(g62
g62
S'SYM'
p385
S'I-NP'
p386
g5
tp387
a(g381
g381
S'CD'
p388
S'I-NP'
p389
g5
tp390
a(g62
g62
S'SYM'
p391
S'I-NP'
p392
g5
tp393
a(S'1'
p394
g394
S'CD'
p395
S'I-NP'
p396
g5
tp397
a(g62
g62
S'SYM'
p398
S'I-NP'
p399
g5
tp400
a(g394
g394
S'CD'
p401
S'I-NP'
p402
g5
tp403
a(S'to'
p404
S'to'
p405
S'TO'
p406
S'B-VP'
p407
g5
tp408
a(S'tofacitinib'
p409
S'tofacitinib'
p410
S'VB'
p411
S'I-VP'
p412
g5
tp413
a(S'5'
p414
g414
S'CD'
p415
S'B-NP'
p416
g5
tp417
a(S'mg'
p418
S'mg'
p419
S'NN'
p420
S'I-NP'
p421
g5
tp422
a(S'or'
p423
S'or'
p424
S'CC'
p425
g5
g5
tp426
a(S'10'
p427
S'10'
p428
S'CD'
p429
S'B-NP'
p430
g5
tp431
a(S'mg'
p432
S'mg'
p433
S'NN'
p434
S'I-NP'
p435
g5
tp436
a(S'twice'
p437
S'twice'
p438
S'RB'
p439
S'B-ADVP'
p440
g5
tp441
a(S'daily'
p442
S'daily'
p443
S'RB'
p444
S'I-ADVP'
p445
g5
tp446
a(g145
g145
g145
g5
g5
tp447
a(S'or'
p448
S'or'
p449
S'CC'
p450
g5
g5
tp451
a(S'placebo'
p452
S'placebo'
p453
S'NN'
p454
S'B-NP'
p455
g5
tp456
a(S'advanced'
p457
S'advance'
p458
S'VBN'
p459
S'B-VP'
p460
g5
tp461
a(S'to'
p462
S'to'
p463
S'TO'
p464
S'I-VP'
p465
g5
tp466
a(S'tofacitinib'
p467
S'tofacitinib'
p468
S'VB'
p469
S'I-VP'
p470
g5
tp471
a(g414
g414
S'CD'
p472
S'B-NP'
p473
g5
tp474
a(S'mg'
p475
S'mg'
p476
S'NN'
p477
S'I-NP'
p478
g5
tp479
a(S'or'
p480
S'or'
p481
S'CC'
p482
g5
g5
tp483
a(S'10'
p484
S'10'
p485
S'CD'
p486
S'B-NP'
p487
g5
tp488
a(S'mg'
p489
S'mg'
p490
S'NN'
p491
S'I-NP'
p492
g5
tp493
a(S'twice'
p494
S'twice'
p495
S'RB'
p496
S'B-ADVP'
p497
g5
tp498
a(S'daily'
p499
S'daily'
p500
S'RB'
p501
S'I-ADVP'
p502
g5
tp503
a(S'at'
p504
S'at'
p505
S'IN'
p506
S'B-PP'
p507
g5
tp508
a(S'month'
p509
S'month'
p510
S'NN'
p511
S'B-NP'
p512
g5
tp513
a(S'3.'
p514
S'3.'
p515
S'CD'
p516
S'B-NP'
p517
g5
tp518
a(S'PROs'
p519
S'PRO'
p520
S'NNS'
p521
S'I-NP'
p522
g5
tp523
a(S'measured'
p524
S'measure'
p525
S'VBN'
p526
S'B-VP'
p527
g5
tp528
a(S'at'
p529
S'at'
p530
S'IN'
p531
S'B-PP'
p532
g5
tp533
a(S'month'
p534
S'month'
p535
S'NN'
p536
S'B-NP'
p537
g5
tp538
a(S'3'
p539
g539
S'CD'
p540
S'I-NP'
p541
g5
tp542
a(S'included'
p543
S'include'
p544
S'VBD'
p545
S'B-VP'
p546
g5
tp547
a(S'patient'
p548
S'patient'
p549
S'NN'
p550
S'B-NP'
p551
g5
tp552
a(S'global'
p553
S'global'
p554
S'JJ'
p555
S'I-NP'
p556
g5
tp557
a(S'assessment'
p558
S'assessment'
p559
S'NN'
p560
S'I-NP'
p561
g5
tp562
a(S'of'
p563
S'of'
p564
S'IN'
p565
S'B-PP'
p566
g5
tp567
a(S'disease'
p568
S'disease'
p569
S'NN'
p570
S'B-NP'
p571
g5
tp572
a(S'activity'
p573
S'activity'
p574
S'NN'
p575
S'I-NP'
p576
g5
tp577
a(g125
g125
g125
g5
g5
tp578
a(S'PtGA'
p579
S'PtGA'
p580
S'NN'
p581
S'B-NP'
p582
S'B-protein'
p583
tp584
a(g132
g132
g132
g5
g5
tp585
a(g145
g145
g145
g5
g5
tp586
a(S'pain'
p587
S'pain'
p588
S'NN'
p589
S'B-NP'
p590
g5
tp591
a(g145
g145
g145
g5
g5
tp592
a(S'Health'
p593
S'Health'
p594
S'NNP'
p595
S'B-NP'
p596
g5
tp597
a(S'Assessment'
p598
S'Assessment'
p599
S'NNP'
p600
S'I-NP'
p601
g5
tp602
a(S'Questionnaire'
p603
S'Questionnaire'
p604
S'NNP'
p605
S'I-NP'
p606
g5
tp607
a(g125
g125
g125
g5
g5
tp608
a(S'HAQ'
p609
S'HAQ'
p610
S'NN'
p611
S'B-NP'
p612
g5
tp613
a(g132
g132
g132
g5
g5
tp614
a(S'disability'
p615
S'disability'
p616
S'NN'
p617
S'B-NP'
p618
g5
tp619
a(S'index'
p620
S'index'
p621
S'NN'
p622
S'I-NP'
p623
g5
tp624
a(g125
g125
g125
g5
g5
tp625
a(S'DI'
p626
S'DI'
p627
S'NN'
p628
S'B-NP'
p629
g5
tp630
a(g132
g132
g132
g5
g5
tp631
a(g145
g145
g145
g5
g5
tp632
a(S'Medical'
p633
S'Medical'
p634
S'NNP'
p635
S'B-NP'
p636
g5
tp637
a(S'Outcomes'
p638
S'Outcomes'
p639
S'NNP'
p640
S'I-NP'
p641
g5
tp642
a(S'Study'
p643
S'Study'
p644
S'NNP'
p645
S'I-NP'
p646
g5
tp647
a(g125
g125
g125
g5
g5
tp648
a(S'MOS'
p649
S'MOS'
p650
S'NN'
p651
S'B-NP'
p652
S'B-cell_type'
p653
tp654
a(g132
g132
g132
S'I-NP'
p655
g5
tp656
a(S'Short'
p657
S'Short'
p658
S'JJ'
p659
S'I-NP'
p660
g5
tp661
a(S'Form'
p662
S'Form'
p663
S'NN'
p664
S'I-NP'
p665
g5
tp666
a(S'36'
p667
S'36'
p668
S'CD'
p669
S'I-NP'
p670
g5
tp671
a(S'Health'
p672
S'Health'
p673
S'NNP'
p674
S'I-NP'
p675
g5
tp676
a(S'Survey'
p677
S'Survey'
p678
S'NNP'
p679
S'I-NP'
p680
g5
tp681
a(S'version'
p682
S'version'
p683
S'NN'
p684
S'I-NP'
p685
g5
tp686
a(g381
g381
S'CD'
p687
S'I-NP'
p688
g5
tp689
a(g125
g125
g125
g5
g5
tp690
a(S'SF-36v2'
p691
S'SF-36v2'
p692
S'NN'
p693
S'B-NP'
p694
g5
tp695
a(S';'
p696
g696
g62
g5
g5
tp697
a(S'acute'
p698
S'acute'
p699
S'JJ'
p700
S'B-ADVP'
p701
g5
tp702
a(g132
g132
g132
g5
g5
tp703
a(g145
g145
g145
g5
g5
tp704
a(S'Functional'
p705
S'Functional'
p706
S'JJ'
p707
S'B-NP'
p708
g5
tp709
a(S'Assessment'
p710
S'Assessment'
p711
S'NN'
p712
S'I-NP'
p713
g5
tp714
a(S'of'
p715
S'of'
p716
S'IN'
p717
S'B-PP'
p718
g5
tp719
a(S'Chronic'
p720
S'Chronic'
p721
S'NNP'
p722
S'B-NP'
p723
g5
tp724
a(S'Illness'
p725
S'Illness'
p726
S'NNP'
p727
S'I-NP'
p728
g5
tp729
a(S'Therapy-Fatigue'
p730
S'Therapy-Fatigue'
p731
S'NNP'
p732
S'I-NP'
p733
g5
tp734
a(g125
g125
g125
g5
g5
tp735
a(S'FACIT-F'
p736
S'FACIT-F'
p737
S'NN'
p738
S'B-NP'
p739
S'B-protein'
p740
tp741
a(g132
g132
g132
g5
g5
tp742
a(g145
g145
g145
g5
g5
tp743
a(S'and'
p744
S'and'
p745
S'CC'
p746
g5
g5
tp747
a(S'MOS'
p748
S'MOS'
p749
S'NNP'
p750
S'B-NP'
p751
S'B-cell_type'
p752
tp753
a(S'Sleep'
p754
S'Sleep'
p755
S'NNP'
p756
S'I-NP'
p757
g5
tp758
a(S'Scale'
p759
S'Scale'
p760
S'NNP'
p761
S'I-NP'
p762
g5
tp763
a(g98
g98
g98
g5
g5
tp764
a(S'RESULTS'
p765
S'RESULTS'
p766
S'NNS'
p767
S'B-NP'
p768
g5
tp769
a(S'Patients'
p770
S'Patient'
p771
S'NNS'
p772
S'I-NP'
p773
g5
tp774
a(S'received'
p775
S'receive'
p776
S'VBD'
p777
S'B-VP'
p778
g5
tp779
a(S'tofacitinib'
p780
S'tofacitinib'
p781
S'NN'
p782
S'B-NP'
p783
g5
tp784
a(g414
g414
S'CD'
p785
S'I-NP'
p786
g5
tp787
a(S'mg'
p788
S'mg'
p789
S'NN'
p790
S'I-NP'
p791
g5
tp792
a(g125
g125
g125
g5
g5
tp793
a(S'n'
p794
g794
S'NN'
p795
S'B-NP'
p796
g5
tp797
a(S'='
p798
g798
S'SYM'
p799
S'B-VP'
p800
g5
tp801
a(S'133'
p802
S'133'
p803
S'CD'
p804
S'B-NP'
p805
g5
tp806
a(g132
g132
g132
g5
g5
tp807
a(S'or'
p808
S'or'
p809
S'CC'
p810
g5
g5
tp811
a(S'10'
p812
S'10'
p813
S'CD'
p814
S'B-NP'
p815
g5
tp816
a(S'mg'
p817
S'mg'
p818
S'NN'
p819
S'I-NP'
p820
g5
tp821
a(g125
g125
g125
g5
g5
tp822
a(g794
g794
S'NN'
p823
S'B-NP'
p824
g5
tp825
a(g798
g798
S'SYM'
p826
S'B-VP'
p827
g5
tp828
a(S'134'
p829
S'134'
p830
S'CD'
p831
S'B-NP'
p832
g5
tp833
a(g132
g132
g132
g5
g5
tp834
a(S'or'
p835
S'or'
p836
S'CC'
p837
g5
g5
tp838
a(S'placebo'
p839
S'placebo'
p840
S'NN'
p841
S'B-NP'
p842
g5
tp843
a(S'advanced'
p844
S'advance'
p845
S'VBN'
p846
S'B-VP'
p847
g5
tp848
a(S'to'
p849
S'to'
p850
S'TO'
p851
S'I-VP'
p852
g5
tp853
a(S'tofacitinib'
p854
S'tofacitinib'
p855
S'VB'
p856
S'I-VP'
p857
g5
tp858
a(g414
g414
S'CD'
p859
S'B-NP'
p860
g5
tp861
a(S'mg'
p862
S'mg'
p863
S'NN'
p864
S'I-NP'
p865
g5
tp866
a(g125
g125
g125
g5
g5
tp867
a(g794
g794
S'NN'
p868
S'B-NP'
p869
g5
tp870
a(g798
g798
S'SYM'
p871
S'B-VP'
p872
g5
tp873
a(S'66'
p874
S'66'
p875
S'CD'
p876
S'B-NP'
p877
g5
tp878
a(g132
g132
g132
g5
g5
tp879
a(S'or'
p880
S'or'
p881
S'CC'
p882
g5
g5
tp883
a(S'10'
p884
S'10'
p885
S'CD'
p886
S'B-NP'
p887
g5
tp888
a(S'mg'
p889
S'mg'
p890
S'NN'
p891
S'I-NP'
p892
g5
tp893
a(g125
g125
g125
g5
g5
tp894
a(g794
g794
S'NN'
p895
S'B-NP'
p896
g5
tp897
a(g798
g798
S'SYM'
p898
S'B-VP'
p899
g5
tp900
a(S'66'
p901
S'66'
p902
S'CD'
p903
S'B-NP'
p904
g5
tp905
a(g132
g132
g132
g5
g5
tp906
a(g98
g98
g98
g5
g5
tp907
a(S'HAQ'
p908
S'HAQ'
p909
S'NNP'
p910
S'B-NP'
p911
g5
tp912
a(S'DI'
p913
S'DI'
p914
S'NNP'
p915
S'I-NP'
p916
g5
tp917
a(g125
g125
g125
g5
g5
tp918
a(S'reported'
p919
S'report'
p920
S'VBN'
p921
S'B-VP'
p922
g5
tp923
a(S'previously'
p924
S'previously'
p925
S'RB'
p926
S'B-ADVP'
p927
g5
tp928
a(g132
g132
g132
g5
g5
tp929
a(g145
g145
g145
g5
g5
tp930
a(S'PtGA'
p931
S'PtGA'
p932
S'NN'
p933
S'B-NP'
p934
S'B-protein'
p935
tp936
a(g125
g125
g125
g5
g5
tp937
a(S'P'
p938
g938
S'NN'
p939
S'B-NP'
p940
g5
tp941
a(S'<'
p942
g942
S'SYM'
p943
g5
g5
tp944
a(S'0.0001'
p945
S'0.0001'
p946
S'CD'
p947
S'B-NP'
p948
g5
tp949
a(g132
g132
g132
g5
g5
tp950
a(g145
g145
g145
g5
g5
tp951
a(S'and'
p952
S'and'
p953
S'CC'
p954
g5
g5
tp955
a(S'SF-36v2'
p956
S'SF-36v2'
p957
S'NN'
p958
S'B-NP'
p959
g5
tp960
a(S'physical'
p961
S'physical'
p962
S'JJ'
p963
S'I-NP'
p964
g5
tp965
a(S'and'
p966
S'and'
p967
S'CC'
p968
S'I-NP'
p969
g5
tp970
a(S'mental'
p971
S'mental'
p972
S'JJ'
p973
S'I-NP'
p974
g5
tp975
a(S'component'
p976
S'component'
p977
S'NN'
p978
S'I-NP'
p979
g5
tp980
a(S'summary'
p981
S'summary'
p982
S'NN'
p983
S'I-NP'
p984
g5
tp985
a(g125
g125
g125
g5
g5
tp986
a(g938
g938
S'NN'
p987
S'B-NP'
p988
g5
tp989
a(g942
g942
S'SYM'
p990
g5
g5
tp991
a(S'0.05'
p992
S'0.05'
p993
S'CD'
p994
g5
g5
tp995
a(g132
g132
g132
g5
g5
tp996
a(S'scores'
p997
S'score'
p998
S'NNS'
p999
S'B-NP'
p1000
g5
tp1001
a(S'were'
p1002
S'be'
p1003
S'VBD'
p1004
S'B-VP'
p1005
g5
tp1006
a(S'improved'
p1007
S'improve'
p1008
S'VBN'
p1009
S'I-VP'
p1010
g5
tp1011
a(S'for'
p1012
S'for'
p1013
S'IN'
p1014
S'B-PP'
p1015
g5
tp1016
a(S'both'
p1017
S'both'
p1018
S'DT'
p1019
S'B-NP'
p1020
g5
tp1021
a(S'tofacitinib'
p1022
S'tofacitinib'
p1023
S'NN'
p1024
S'I-NP'
p1025
g5
tp1026
a(S'doses'
p1027
S'dose'
p1028
S'NNS'
p1029
S'I-NP'
p1030
g5
tp1031
a(S'versus'
p1032
S'versus'
p1033
S'CC'
p1034
g5
g5
tp1035
a(S'placebo.'
p1036
S'placebo.'
p1037
S'NN'
p1038
S'B-NP'
p1039
g5
tp1040
a(S'Furthermore'
p1041
S'Furthermore'
p1042
S'RB'
p1043
S'B-ADVP'
p1044
g5
tp1045
a(g145
g145
g145
g5
g5
tp1046
a(S'improvements'
p1047
S'improvement'
p1048
S'NNS'
p1049
S'B-NP'
p1050
g5
tp1051
a(S'greater'
p1052
S'great'
p1053
S'JJR'
p1054
S'B-ADJP'
p1055
g5
tp1056
a(S'than'
p1057
S'than'
p1058
S'IN'
p1059
S'B-PP'
p1060
g5
tp1061
a(S'or'
p1062
S'or'
p1063
S'CC'
p1064
g5
g5
tp1065
a(S'equal'
p1066
S'equal'
p1067
S'JJ'
p1068
S'B-ADJP'
p1069
g5
tp1070
a(S'to'
p1071
S'to'
p1072
S'TO'
p1073
S'B-PP'
p1074
g5
tp1075
a(S'the'
p1076
S'the'
p1077
S'DT'
p1078
S'B-NP'
p1079
g5
tp1080
a(S'minimum'
p1081
S'minimum'
p1082
S'NN'
p1083
S'I-NP'
p1084
g5
tp1085
a(S'clinically'
p1086
S'clinically'
p1087
S'RB'
p1088
S'B-NP'
p1089
g5
tp1090
a(S'important'
p1091
S'important'
p1092
S'JJ'
p1093
S'I-NP'
p1094
g5
tp1095
a(S'difference'
p1096
S'difference'
p1097
S'NN'
p1098
S'I-NP'
p1099
g5
tp1100
a(S'were'
p1101
S'be'
p1102
S'VBD'
p1103
S'B-VP'
p1104
g5
tp1105
a(S'more'
p1106
S'more'
p1107
S'RBR'
p1108
S'B-VP'
p1109
g5
tp1110
a(S'frequently'
p1111
S'frequently'
p1112
S'RB'
p1113
S'I-VP'
p1114
g5
tp1115
a(S'reported'
p1116
S'report'
p1117
S'VBN'
p1118
S'I-VP'
p1119
g5
tp1120
a(S'by'
p1121
S'by'
p1122
S'IN'
p1123
S'B-PP'
p1124
g5
tp1125
a(S'tofacitinib-treated'
p1126
S'tofacitinib-treated'
p1127
S'JJ'
p1128
S'B-NP'
p1129
g5
tp1130
a(S'patients'
p1131
S'patient'
p1132
S'NNS'
p1133
S'I-NP'
p1134
g5
tp1135
a(S'versus'
p1136
S'versus'
p1137
S'CC'
p1138
g5
g5
tp1139
a(S'placebo'
p1140
S'placebo'
p1141
S'NN'
p1142
S'B-NP'
p1143
g5
tp1144
a(S'for'
p1145
S'for'
p1146
S'IN'
p1147
S'B-PP'
p1148
g5
tp1149
a(S'PtGA'
p1150
S'PtGA'
p1151
S'NN'
p1152
S'B-NP'
p1153
g5
tp1154
a(g125
g125
g125
g5
g5
tp1155
a(g938
g938
S'NN'
p1156
S'B-NP'
p1157
g5
tp1158
a(g942
g942
S'SYM'
p1159
g5
g5
tp1160
a(S'0.05'
p1161
S'0.05'
p1162
S'CD'
p1163
S'B-NP'
p1164
g5
tp1165
a(g132
g132
g132
g5
g5
tp1166
a(g145
g145
g145
g5
g5
tp1167
a(S'pain'
p1168
S'pain'
p1169
S'NN'
p1170
S'B-NP'
p1171
g5
tp1172
a(g125
g125
g125
g5
g5
tp1173
a(g938
g938
S'NN'
p1174
S'B-NP'
p1175
g5
tp1176
a(g942
g942
S'SYM'
p1177
g5
g5
tp1178
a(S'0.0001'
p1179
S'0.0001'
p1180
S'CD'
p1181
S'B-NP'
p1182
g5
tp1183
a(g132
g132
g132
g5
g5
tp1184
a(g145
g145
g145
g5
g5
tp1185
a(S'HAQ'
p1186
S'HAQ'
p1187
S'NN'
p1188
S'B-NP'
p1189
S'B-protein'
p1190
tp1191
a(S'DI'
p1192
S'DI'
p1193
S'NN'
p1194
S'I-NP'
p1195
S'I-protein'
p1196
tp1197
a(g125
g125
g125
g5
g5
tp1198
a(g938
g938
S'NN'
p1199
S'B-NP'
p1200
g5
tp1201
a(g942
g942
S'SYM'
p1202
g5
g5
tp1203
a(S'0.05'
p1204
S'0.05'
p1205
S'CD'
p1206
S'B-NP'
p1207
g5
tp1208
a(g132
g132
g132
g5
g5
tp1209
a(g145
g145
g145
g5
g5
tp1210
a(S'SF-36v2'
p1211
S'SF-36v2'
p1212
S'NN'
p1213
S'B-NP'
p1214
g5
tp1215
a(S'physical'
p1216
S'physical'
p1217
S'JJ'
p1218
S'I-NP'
p1219
g5
tp1220
a(S'and'
p1221
S'and'
p1222
S'CC'
p1223
S'I-NP'
p1224
g5
tp1225
a(S'mental'
p1226
S'mental'
p1227
S'JJ'
p1228
S'I-NP'
p1229
g5
tp1230
a(S'component'
p1231
S'component'
p1232
S'NN'
p1233
S'I-NP'
p1234
g5
tp1235
a(S'summary'
p1236
S'summary'
p1237
S'NN'
p1238
S'I-NP'
p1239
g5
tp1240
a(S'scores'
p1241
S'score'
p1242
S'NNS'
p1243
S'I-NP'
p1244
g5
tp1245
a(g125
g125
g125
g5
g5
tp1246
a(g938
g938
S'NN'
p1247
S'B-NP'
p1248
g5
tp1249
a(g942
g942
S'SYM'
p1250
g5
g5
tp1251
a(S'0.05'
p1252
S'0.05'
p1253
S'CD'
p1254
S'B-NP'
p1255
g5
tp1256
a(g132
g132
g132
g5
g5
tp1257
a(g145
g145
g145
g5
g5
tp1258
a(S'and'
p1259
S'and'
p1260
S'CC'
p1261
g5
g5
tp1262
a(S'FACIT-F'
p1263
S'FACIT-F'
p1264
S'NN'
p1265
S'B-NP'
p1266
S'B-protein'
p1267
tp1268
a(g125
g125
g125
g5
g5
tp1269
a(g938
g938
S'NN'
p1270
S'B-NP'
p1271
g5
tp1272
a(g942
g942
S'JJR'
p1273
S'B-NP'
p1274
g5
tp1275
a(S'0.001'
p1276
S'0.001'
p1277
S'CD'
p1278
S'I-NP'
p1279
g5
tp1280
a(S'for'
p1281
S'for'
p1282
S'IN'
p1283
S'B-PP'
p1284
g5
tp1285
a(g414
g414
S'CD'
p1286
S'B-NP'
p1287
g5
tp1288
a(S'mg'
p1289
S'mg'
p1290
S'NN'
p1291
S'I-NP'
p1292
g5
tp1293
a(S'twice'
p1294
S'twice'
p1295
S'RB'
p1296
S'B-ADVP'
p1297
g5
tp1298
a(S'daily'
p1299
S'daily'
p1300
S'RB'
p1301
S'I-ADVP'
p1302
g5
tp1303
a(g132
g132
g132
g5
g5
tp1304
a(g98
g98
g98
g5
g5
tp1305
a(S'No'
p1306
S'No'
p1307
S'DT'
p1308
S'B-NP'
p1309
g5
tp1310
a(S'statistical'
p1311
S'statistical'
p1312
S'JJ'
p1313
S'I-NP'
p1314
g5
tp1315
a(S'differences'
p1316
S'difference'
p1317
S'NNS'
p1318
S'I-NP'
p1319
g5
tp1320
a(S'were'
p1321
S'be'
p1322
S'VBD'
p1323
S'B-VP'
p1324
g5
tp1325
a(S'observed'
p1326
S'observe'
p1327
S'VBN'
p1328
S'I-VP'
p1329
g5
tp1330
a(S'in'
p1331
S'in'
p1332
S'IN'
p1333
S'B-PP'
p1334
g5
tp1335
a(S'the'
p1336
S'the'
p1337
S'DT'
p1338
S'B-NP'
p1339
g5
tp1340
a(S'MOS'
p1341
S'MOS'
p1342
S'NNP'
p1343
S'I-NP'
p1344
S'B-cell_type'
p1345
tp1346
a(S'Sleep'
p1347
S'Sleep'
p1348
S'NNP'
p1349
S'I-NP'
p1350
g5
tp1351
a(S'Scale'
p1352
S'Scale'
p1353
S'NNP'
p1354
S'I-NP'
p1355
g5
tp1356
a(g98
g98
g98
g5
g5
tp1357
a(S'CONCLUSION'
p1358
S'CONCLUSION'
p1359
S'NN'
p1360
S'B-NP'
p1361
g5
tp1362
a(S'Tofacitinib'
p1363
S'Tofacitinib'
p1364
S'NN'
p1365
S'I-NP'
p1366
g5
tp1367
a(S'treatment'
p1368
S'treatment'
p1369
S'NN'
p1370
S'I-NP'
p1371
g5
tp1372
a(S'resulted'
p1373
S'result'
p1374
S'VBD'
p1375
S'B-VP'
p1376
g5
tp1377
a(S'in'
p1378
S'in'
p1379
S'IN'
p1380
S'B-PP'
p1381
g5
tp1382
a(S'significant'
p1383
S'significant'
p1384
S'JJ'
p1385
S'B-NP'
p1386
g5
tp1387
a(g145
g145
g145
S'I-NP'
p1388
g5
tp1389
a(S'clinically'
p1390
S'clinically'
p1391
S'RB'
p1392
S'I-NP'
p1393
g5
tp1394
a(S'meaningful'
p1395
S'meaningful'
p1396
S'JJ'
p1397
S'I-NP'
p1398
g5
tp1399
a(S'improvements'
p1400
S'improvement'
p1401
S'NNS'
p1402
S'I-NP'
p1403
g5
tp1404
a(S'in'
p1405
S'in'
p1406
S'IN'
p1407
S'B-PP'
p1408
g5
tp1409
a(S'multiple'
p1410
S'multiple'
p1411
S'JJ'
p1412
S'B-NP'
p1413
g5
tp1414
a(S'PROs'
p1415
S'PRO'
p1416
S'NNS'
p1417
S'I-NP'
p1418
g5
tp1419
a(S'versus'
p1420
S'versus'
p1421
S'CC'
p1422
g5
g5
tp1423
a(S'placebo'
p1424
S'placebo'
p1425
S'NN'
p1426
S'B-NP'
p1427
g5
tp1428
a(S'over'
p1429
S'over'
p1430
S'IN'
p1431
S'B-PP'
p1432
g5
tp1433
a(g539
g539
S'CD'
p1434
S'B-NP'
p1435
g5
tp1436
a(S'months'
p1437
S'month'
p1438
S'NNS'
p1439
S'I-NP'
p1440
g5
tp1441
a(S'of'
p1442
S'of'
p1443
S'IN'
p1444
S'B-PP'
p1445
g5
tp1446
a(S'treatment'
p1447
S'treatment'
p1448
S'NN'
p1449
S'B-NP'
p1450
g5
tp1451
a(S'in'
p1452
S'in'
p1453
S'IN'
p1454
S'B-PP'
p1455
g5
tp1456
a(S'patients'
p1457
S'patient'
p1458
S'NNS'
p1459
S'B-NP'
p1460
g5
tp1461
a(S'with'
p1462
S'with'
p1463
S'IN'
p1464
S'B-PP'
p1465
g5
tp1466
a(S'active'
p1467
S'active'
p1468
S'JJ'
p1469
S'B-NP'
p1470
g5
tp1471
a(S'RA'
p1472
S'RA'
p1473
S'NN'
p1474
S'I-NP'
p1475
g5
tp1476
a(S'and'
p1477
S'and'
p1478
S'CC'
p1479
g5
g5
tp1480
a(g79
g79
S'DT'
p1481
S'B-NP'
p1482
g5
tp1483
a(S'previous'
p1484
S'previous'
p1485
S'JJ'
p1486
S'I-NP'
p1487
g5
tp1488
a(S'inadequate'
p1489
S'inadequate'
p1490
S'JJ'
p1491
S'I-NP'
p1492
g5
tp1493
a(S'response'
p1494
S'response'
p1495
S'NN'
p1496
S'I-NP'
p1497
g5
tp1498
a(S'to'
p1499
S'to'
p1500
S'TO'
p1501
S'B-PP'
p1502
g5
tp1503
a(S'TNFi'
p1504
S'TNFi'
p1505
S'NN'
p1506
S'B-NP'
p1507
S'B-protein'
p1508
tp1509
a(g98
g98
g98
g5
g5
tp1510
a.