(lp0
(S'Effect'
p1
S'Effect'
p2
S'NN'
p3
S'B-NP'
p4
S'O'
p5
tp6
a(S'of'
p7
S'of'
p8
S'IN'
p9
S'B-PP'
p10
g5
tp11
a(S'laquinimod'
p12
S'laquinimod'
p13
S'NN'
p14
S'B-NP'
p15
g5
tp16
a(S'on'
p17
S'on'
p18
S'IN'
p19
S'B-PP'
p20
g5
tp21
a(S'MRI-monitored'
p22
S'MRI-monitored'
p23
S'JJ'
p24
S'B-NP'
p25
g5
tp26
a(S'disease'
p27
S'disease'
p28
S'NN'
p29
S'I-NP'
p30
g5
tp31
a(S'activity'
p32
S'activity'
p33
S'NN'
p34
S'I-NP'
p35
g5
tp36
a(S'in'
p37
S'in'
p38
S'IN'
p39
S'B-PP'
p40
g5
tp41
a(S'patients'
p42
S'patient'
p43
S'NNS'
p44
S'B-NP'
p45
g5
tp46
a(S'with'
p47
S'with'
p48
S'IN'
p49
S'B-PP'
p50
g5
tp51
a(S'relapsing-remitting'
p52
S'relapsing-remitting'
p53
S'JJ'
p54
S'B-NP'
p55
g5
tp56
a(S'multiple'
p57
S'multiple'
p58
S'JJ'
p59
S'I-NP'
p60
g5
tp61
a(S'sclerosis'
p62
S'sclerosis'
p63
S'NN'
p64
S'I-NP'
p65
g5
tp66
a(S':'
p67
g67
g67
g5
g5
tp68
a(S'a'
p69
g69
S'DT'
p70
S'B-NP'
p71
g5
tp72
a(S'multicentre'
p73
S'multicentre'
p74
S'JJ'
p75
S'I-NP'
p76
g5
tp77
a(S','
p78
g78
g78
S'I-NP'
p79
g5
tp80
a(S'randomised'
p81
S'randomise'
p82
S'VBN'
p83
S'I-NP'
p84
g5
tp85
a(g78
g78
g78
S'I-NP'
p86
g5
tp87
a(S'double-blind'
p88
S'double-blind'
p89
S'JJ'
p90
S'I-NP'
p91
g5
tp92
a(g78
g78
g78
S'I-NP'
p93
g5
tp94
a(S'placebo-controlled'
p95
S'placebo-controlled'
p96
S'JJ'
p97
S'I-NP'
p98
g5
tp99
a(S'phase'
p100
S'phase'
p101
S'NN'
p102
S'I-NP'
p103
g5
tp104
a(S'IIb'
p105
S'IIb'
p106
S'NN'
p107
S'I-NP'
p108
g5
tp109
a(S'study'
p110
S'study'
p111
S'NN'
p112
S'I-NP'
p113
g5
tp114
a(S'.'
p115
g115
g115
g5
g5
tp116
a(S'BACKGROUND'
p117
S'BACKGROUND'
p118
S'NN'
p119
S'B-NP'
p120
g5
tp121
a(S'A'
p122
g122
S'NN'
p123
S'I-NP'
p124
g5
tp125
a(S'24-week'
p126
S'24-week'
p127
S'JJ'
p128
S'I-NP'
p129
g5
tp130
a(S'phase'
p131
S'phase'
p132
S'NN'
p133
S'I-NP'
p134
g5
tp135
a(S'II'
p136
S'II'
p137
S'CD'
p138
S'I-NP'
p139
g5
tp140
a(S'trial'
p141
S'trial'
p142
S'NN'
p143
S'I-NP'
p144
g5
tp145
a(S'has'
p146
S'have'
p147
S'VBZ'
p148
S'B-VP'
p149
g5
tp150
a(S'shown'
p151
S'show'
p152
S'VBN'
p153
S'I-VP'
p154
g5
tp155
a(S'that'
p156
S'that'
p157
S'IN'
p158
S'B-SBAR'
p159
g5
tp160
a(S'0.3'
p161
S'0.3'
p162
S'CD'
p163
S'B-NP'
p164
g5
tp165
a(S'mg'
p166
S'mg'
p167
S'NN'
p168
S'I-NP'
p169
g5
tp170
a(S'of'
p171
S'of'
p172
S'IN'
p173
S'B-PP'
p174
g5
tp175
a(S'laquinimod'
p176
S'laquinimod'
p177
S'NN'
p178
S'B-NP'
p179
g5
tp180
a(S'given'
p181
S'give'
p182
S'VBN'
p183
S'B-VP'
p184
g5
tp185
a(S'daily'
p186
S'daily'
p187
S'RB'
p188
S'B-ADVP'
p189
g5
tp190
a(S'to'
p191
S'to'
p192
S'TO'
p193
S'B-PP'
p194
g5
tp195
a(S'patients'
p196
S'patient'
p197
S'NNS'
p198
S'B-NP'
p199
g5
tp200
a(S'with'
p201
S'with'
p202
S'IN'
p203
S'B-PP'
p204
g5
tp205
a(S'relapsing-remitting'
p206
S'relapsing-remitting'
p207
S'JJ'
p208
S'B-NP'
p209
g5
tp210
a(S'multiple'
p211
S'multiple'
p212
S'JJ'
p213
S'I-NP'
p214
g5
tp215
a(S'sclerosis'
p216
S'sclerosis'
p217
S'NN'
p218
S'I-NP'
p219
g5
tp220
a(S'was'
p221
S'be'
p222
S'VBD'
p223
S'B-VP'
p224
g5
tp225
a(S'well'
p226
S'well'
p227
S'RB'
p228
S'I-VP'
p229
g5
tp230
a(S'tolerated'
p231
S'tolerate'
p232
S'VBN'
p233
S'I-VP'
p234
g5
tp235
a(S'and'
p236
S'and'
p237
S'CC'
p238
g5
g5
tp239
a(S'reduced'
p240
S'reduce'
p241
S'VBN'
p242
S'B-VP'
p243
g5
tp244
a(S'the'
p245
S'the'
p246
S'DT'
p247
S'B-NP'
p248
g5
tp249
a(S'formation'
p250
S'formation'
p251
S'NN'
p252
S'I-NP'
p253
g5
tp254
a(S'of'
p255
S'of'
p256
S'IN'
p257
S'B-PP'
p258
g5
tp259
a(S'active'
p260
S'active'
p261
S'JJ'
p262
S'B-NP'
p263
g5
tp264
a(S'lesions.'
p265
S'lesions.'
p266
S'NN'
p267
S'I-NP'
p268
g5
tp269
a(S'We'
p270
S'We'
p271
S'PRP'
p272
S'B-NP'
p273
g5
tp274
a(S'assessed'
p275
S'assess'
p276
S'VBD'
p277
S'B-VP'
p278
g5
tp279
a(S'the'
p280
S'the'
p281
S'DT'
p282
S'B-NP'
p283
g5
tp284
a(S'effect'
p285
S'effect'
p286
S'NN'
p287
S'I-NP'
p288
g5
tp289
a(S'of'
p290
S'of'
p291
S'IN'
p292
S'B-PP'
p293
g5
tp294
a(S'oral'
p295
S'oral'
p296
S'JJ'
p297
S'B-NP'
p298
g5
tp299
a(S'daily'
p300
S'daily'
p301
S'JJ'
p302
S'I-NP'
p303
g5
tp304
a(S'0.3'
p305
S'0.3'
p306
S'CD'
p307
S'I-NP'
p308
g5
tp309
a(S'and'
p310
S'and'
p311
S'CC'
p312
S'I-NP'
p313
g5
tp314
a(S'0.6'
p315
S'0.6'
p316
S'CD'
p317
S'I-NP'
p318
g5
tp319
a(S'mg'
p320
S'mg'
p321
S'NN'
p322
S'I-NP'
p323
g5
tp324
a(S'laquinimod'
p325
S'laquinimod'
p326
S'NN'
p327
S'I-NP'
p328
g5
tp329
a(S'on'
p330
S'on'
p331
S'IN'
p332
S'B-PP'
p333
g5
tp334
a(S'MRI-monitored'
p335
S'MRI-monitored'
p336
S'JJ'
p337
S'B-NP'
p338
g5
tp339
a(S'disease'
p340
S'disease'
p341
S'NN'
p342
S'I-NP'
p343
g5
tp344
a(S'activity'
p345
S'activity'
p346
S'NN'
p347
S'I-NP'
p348
g5
tp349
a(S'in'
p350
S'in'
p351
S'IN'
p352
S'B-PP'
p353
g5
tp354
a(g69
g69
S'DT'
p355
S'B-NP'
p356
g5
tp357
a(S'36-week'
p358
S'36-week'
p359
S'JJ'
p360
S'I-NP'
p361
g5
tp362
a(S'double-blind'
p363
S'double-blind'
p364
S'JJ'
p365
S'I-NP'
p366
g5
tp367
a(g78
g78
g78
S'I-NP'
p368
g5
tp369
a(S'placebo-controlled'
p370
S'placebo-controlled'
p371
S'JJ'
p372
S'I-NP'
p373
g5
tp374
a(S'phase'
p375
S'phase'
p376
S'NN'
p377
S'I-NP'
p378
g5
tp379
a(S'IIb'
p380
S'IIb'
p381
S'NN'
p382
S'I-NP'
p383
g5
tp384
a(S'study'
p385
S'study'
p386
S'NN'
p387
S'I-NP'
p388
g5
tp389
a(g115
g115
g115
g5
g5
tp390
a(S'METHODS'
p391
S'METHODS'
p392
S'NNS'
p393
S'B-NP'
p394
g5
tp395
a(S'The'
p396
S'The'
p397
S'DT'
p398
S'B-NP'
p399
g5
tp400
a(S'study'
p401
S'study'
p402
S'NN'
p403
S'I-NP'
p404
g5
tp405
a(S'was'
p406
S'be'
p407
S'VBD'
p408
S'B-VP'
p409
g5
tp410
a(S'done'
p411
S'do'
p412
S'VBN'
p413
S'I-VP'
p414
g5
tp415
a(S'in'
p416
S'in'
p417
S'IN'
p418
S'B-PP'
p419
g5
tp420
a(S'51'
p421
S'51'
p422
S'CD'
p423
S'B-NP'
p424
g5
tp425
a(S'centres'
p426
S'centre'
p427
S'NNS'
p428
S'I-NP'
p429
g5
tp430
a(S'in'
p431
S'in'
p432
S'IN'
p433
S'B-PP'
p434
g5
tp435
a(S'nine'
p436
S'nine'
p437
S'CD'
p438
S'B-NP'
p439
g5
tp440
a(S'countries.'
p441
S'countries.'
p442
S'NN'
p443
S'I-NP'
p444
g5
tp445
a(S'Inclusion'
p446
S'Inclusion'
p447
S'NN'
p448
S'I-NP'
p449
g5
tp450
a(S'criteria'
p451
S'criterion'
p452
S'NNS'
p453
S'I-NP'
p454
g5
tp455
a(S'were'
p456
S'be'
p457
S'VBD'
p458
S'B-VP'
p459
g5
tp460
a(S'one'
p461
S'one'
p462
S'CD'
p463
S'B-NP'
p464
g5
tp465
a(S'or'
p466
S'or'
p467
S'CC'
p468
S'I-NP'
p469
g5
tp470
a(S'more'
p471
S'more'
p472
S'JJR'
p473
S'I-NP'
p474
g5
tp475
a(S'relapses'
p476
S'relapse'
p477
S'NNS'
p478
S'I-NP'
p479
g5
tp480
a(S'in'
p481
S'in'
p482
S'IN'
p483
S'B-PP'
p484
g5
tp485
a(S'the'
p486
S'the'
p487
S'DT'
p488
S'B-NP'
p489
g5
tp490
a(S'year'
p491
S'year'
p492
S'NN'
p493
S'I-NP'
p494
g5
tp495
a(S'before'
p496
S'before'
p497
S'IN'
p498
S'B-PP'
p499
g5
tp500
a(S'entry'
p501
S'entry'
p502
S'NN'
p503
S'B-NP'
p504
g5
tp505
a(S'and'
p506
S'and'
p507
S'CC'
p508
g5
g5
tp509
a(S'at'
p510
S'at'
p511
S'IN'
p512
S'B-NP'
p513
g5
tp514
a(S'least'
p515
S'least'
p516
S'JJS'
p517
S'I-NP'
p518
g5
tp519
a(S'one'
p520
S'one'
p521
S'CD'
p522
S'I-NP'
p523
g5
tp524
a(S'gadolinium'
p525
S'gadolinium'
p526
S'NN'
p527
S'I-NP'
p528
g5
tp529
a(S'enhancing'
p530
S'enhancing'
p531
S'NN'
p532
S'I-NP'
p533
g5
tp534
a(S'('
p535
g535
g535
g5
g5
tp536
a(S'GdE'
p537
S'GdE'
p538
S'NN'
p539
S'B-NP'
p540
g5
tp541
a(S')'
p542
g542
g542
g5
g5
tp543
a(S'lesion'
p544
S'lesion'
p545
S'NN'
p546
S'B-NP'
p547
g5
tp548
a(S'on'
p549
S'on'
p550
S'IN'
p551
S'B-PP'
p552
g5
tp553
a(S'screening'
p554
S'screen'
p555
S'VBG'
p556
S'B-VP'
p557
g5
tp558
a(S'MRI.'
p559
S'MRI.'
p560
S'NNP'
p561
S'B-NP'
p562
g5
tp563
a(S'Of'
p564
S'Of'
p565
S'IN'
p566
S'B-PP'
p567
g5
tp568
a(S'720'
p569
S'720'
p570
S'CD'
p571
S'B-NP'
p572
g5
tp573
a(S'patients'
p574
S'patient'
p575
S'NNS'
p576
S'I-NP'
p577
g5
tp578
a(S'screened'
p579
S'screen'
p580
S'VBD'
p581
S'B-VP'
p582
g5
tp583
a(g78
g78
g78
g5
g5
tp584
a(S'306'
p585
S'306'
p586
S'CD'
p587
S'B-NP'
p588
g5
tp589
a(S'eligible'
p590
S'eligible'
p591
S'JJ'
p592
S'I-NP'
p593
g5
tp594
a(S'patients'
p595
S'patient'
p596
S'NNS'
p597
S'I-NP'
p598
g5
tp599
a(S'were'
p600
S'be'
p601
S'VBD'
p602
S'B-VP'
p603
g5
tp604
a(S'enrolled.'
p605
S'enrolled.'
p606
S'JJ'
p607
S'B-NP'
p608
g5
tp609
a(S'Patients'
p610
S'Patient'
p611
S'NNS'
p612
S'I-NP'
p613
g5
tp614
a(g78
g78
g78
g5
g5
tp615
a(S'aged'
p616
S'aged'
p617
S'JJ'
p618
S'B-ADJP'
p619
g5
tp620
a(S'18-50'
p621
S'18-50'
p622
S'CD'
p623
S'B-NP'
p624
g5
tp625
a(S'years'
p626
S'year'
p627
S'NNS'
p628
S'I-NP'
p629
g5
tp630
a(g78
g78
g78
g5
g5
tp631
a(S'were'
p632
S'be'
p633
S'VBD'
p634
S'B-VP'
p635
g5
tp636
a(S'randomly'
p637
S'randomly'
p638
S'RB'
p639
S'I-VP'
p640
g5
tp641
a(S'assigned'
p642
S'assign'
p643
S'VBN'
p644
S'I-VP'
p645
g5
tp646
a(S'to'
p647
S'to'
p648
S'TO'
p649
S'B-PP'
p650
g5
tp651
a(S'placebo'
p652
S'placebo'
p653
S'NN'
p654
S'B-NP'
p655
g5
tp656
a(g535
g535
g535
g5
g5
tp657
a(S'n=102'
p658
S'n=102'
p659
S'NN'
p660
S'B-NP'
p661
S'B-protein'
p662
tp663
a(g542
g542
g542
g5
g5
tp664
a(g78
g78
g78
g5
g5
tp665
a(S'laquinimod'
p666
S'laquinimod'
p667
S'NN'
p668
S'B-NP'
p669
g5
tp670
a(S'0.3'
p671
S'0.3'
p672
S'CD'
p673
S'I-NP'
p674
g5
tp675
a(S'mg'
p676
S'mg'
p677
S'NN'
p678
S'I-NP'
p679
g5
tp680
a(g69
g69
S'DT'
p681
S'B-NP'
p682
g5
tp683
a(S'day'
p684
S'day'
p685
S'NN'
p686
S'I-NP'
p687
g5
tp688
a(g535
g535
g535
g5
g5
tp689
a(S'n=98'
p690
S'n=98'
p691
S'NN'
p692
S'B-NP'
p693
S'B-protein'
p694
tp695
a(g542
g542
g542
g5
g5
tp696
a(g78
g78
g78
g5
g5
tp697
a(S'or'
p698
S'or'
p699
S'CC'
p700
g5
g5
tp701
a(S'0.6'
p702
S'0.6'
p703
S'CD'
p704
S'B-NP'
p705
g5
tp706
a(S'mg'
p707
S'mg'
p708
S'NN'
p709
S'I-NP'
p710
g5
tp711
a(g69
g69
S'DT'
p712
S'B-NP'
p713
g5
tp714
a(S'day'
p715
S'day'
p716
S'NN'
p717
S'I-NP'
p718
g5
tp719
a(g535
g535
g535
g5
g5
tp720
a(S'n=106'
p721
S'n=106'
p722
S'NN'
p723
S'B-NP'
p724
g5
tp725
a(g542
g542
g542
g5
g5
tp726
a(g115
g115
g115
g5
g5
tp727
a(S'Brain'
p728
S'Brain'
p729
S'NNP'
p730
S'B-NP'
p731
g5
tp732
a(S'MRI'
p733
S'MRI'
p734
S'NNP'
p735
S'I-NP'
p736
g5
tp737
a(S'scans'
p738
S'scan'
p739
S'NNS'
p740
S'I-NP'
p741
g5
tp742
a(S'and'
p743
S'and'
p744
S'CC'
p745
g5
g5
tp746
a(S'clinical'
p747
S'clinical'
p748
S'JJ'
p749
S'B-NP'
p750
g5
tp751
a(S'assessments'
p752
S'assessment'
p753
S'NNS'
p754
S'I-NP'
p755
g5
tp756
a(S'were'
p757
S'be'
p758
S'VBD'
p759
S'B-VP'
p760
g5
tp761
a(S'done'
p762
S'do'
p763
S'VBN'
p764
S'I-VP'
p765
g5
tp766
a(S'at'
p767
S'at'
p768
S'IN'
p769
S'B-PP'
p770
g5
tp771
a(S'week'
p772
S'week'
p773
S'NN'
p774
S'B-NP'
p775
g5
tp776
a(S'-4'
p777
S'-4'
p778
S'CD'
p779
S'I-NP'
p780
g5
tp781
a(g78
g78
g78
g5
g5
tp782
a(S'baseline'
p783
S'baseline'
p784
S'NN'
p785
S'B-NP'
p786
g5
tp787
a(g78
g78
g78
g5
g5
tp788
a(S'and'
p789
S'and'
p790
S'CC'
p791
g5
g5
tp792
a(S'monthly'
p793
S'monthly'
p794
S'RB'
p795
S'B-ADVP'
p796
g5
tp797
a(S'from'
p798
S'from'
p799
S'IN'
p800
S'B-PP'
p801
g5
tp802
a(S'week'
p803
S'week'
p804
S'NN'
p805
S'B-NP'
p806
g5
tp807
a(S'12'
p808
S'12'
p809
S'CD'
p810
S'I-NP'
p811
g5
tp812
a(S'to'
p813
S'to'
p814
S'TO'
p815
S'B-PP'
p816
g5
tp817
a(S'week'
p818
S'week'
p819
S'NN'
p820
S'B-NP'
p821
g5
tp822
a(S'36.'
p823
S'36.'
p824
S'LS'
p825
g5
g5
tp826
a(S'The'
p827
S'The'
p828
S'DT'
p829
S'B-NP'
p830
g5
tp831
a(S'primary'
p832
S'primary'
p833
S'JJ'
p834
S'I-NP'
p835
g5
tp836
a(S'outcome'
p837
S'outcome'
p838
S'NN'
p839
S'I-NP'
p840
g5
tp841
a(S'was'
p842
S'be'
p843
S'VBD'
p844
S'B-VP'
p845
g5
tp846
a(S'the'
p847
S'the'
p848
S'DT'
p849
S'B-NP'
p850
g5
tp851
a(S'cumulative'
p852
S'cumulative'
p853
S'JJ'
p854
S'I-NP'
p855
g5
tp856
a(S'number'
p857
S'number'
p858
S'NN'
p859
S'I-NP'
p860
g5
tp861
a(S'of'
p862
S'of'
p863
S'IN'
p864
S'B-PP'
p865
g5
tp866
a(S'GdE'
p867
S'GdE'
p868
S'NN'
p869
S'B-NP'
p870
g5
tp871
a(S'lesions'
p872
S'lesion'
p873
S'NNS'
p874
S'I-NP'
p875
g5
tp876
a(S'at'
p877
S'at'
p878
S'IN'
p879
S'B-PP'
p880
g5
tp881
a(S'weeks'
p882
S'week'
p883
S'NNS'
p884
S'B-NP'
p885
g5
tp886
a(S'24'
p887
S'24'
p888
S'CD'
p889
S'I-NP'
p890
g5
tp891
a(g78
g78
g78
S'I-NP'
p892
g5
tp893
a(S'28'
p894
S'28'
p895
S'CD'
p896
S'I-NP'
p897
g5
tp898
a(g78
g78
g78
S'I-NP'
p899
g5
tp900
a(S'32'
p901
S'32'
p902
S'CD'
p903
S'I-NP'
p904
g5
tp905
a(g78
g78
g78
g5
g5
tp906
a(S'and'
p907
S'and'
p908
S'CC'
p909
g5
g5
tp910
a(S'36.'
p911
S'36.'
p912
S'LS'
p913
S'B-LST'
p914
g5
tp915
a(S'The'
p916
S'The'
p917
S'DT'
p918
S'B-NP'
p919
g5
tp920
a(S'principal'
p921
S'principal'
p922
S'JJ'
p923
S'I-NP'
p924
g5
tp925
a(S'analysis'
p926
S'analysis'
p927
S'NN'
p928
S'I-NP'
p929
g5
tp930
a(S'of'
p931
S'of'
p932
S'IN'
p933
S'B-PP'
p934
g5
tp935
a(S'the'
p936
S'the'
p937
S'DT'
p938
S'B-NP'
p939
g5
tp940
a(S'primary'
p941
S'primary'
p942
S'JJ'
p943
S'I-NP'
p944
g5
tp945
a(S'endpoint'
p946
S'endpoint'
p947
S'NN'
p948
S'I-NP'
p949
g5
tp950
a(S'was'
p951
S'be'
p952
S'VBD'
p953
S'B-VP'
p954
g5
tp955
a(S'done'
p956
S'do'
p957
S'VBN'
p958
S'I-VP'
p959
g5
tp960
a(S'on'
p961
S'on'
p962
S'IN'
p963
S'B-PP'
p964
g5
tp965
a(S'the'
p966
S'the'
p967
S'DT'
p968
S'B-NP'
p969
g5
tp970
a(S'intention-to-treat'
p971
S'intention-to-treat'
p972
S'JJ'
p973
S'I-NP'
p974
g5
tp975
a(S'cohort.'
p976
S'cohort.'
p977
S'NN'
p978
S'I-NP'
p979
g5
tp980
a(S'This'
p981
S'This'
p982
S'DT'
p983
S'B-NP'
p984
g5
tp985
a(S'study'
p986
S'study'
p987
S'NN'
p988
S'I-NP'
p989
g5
tp990
a(S'is'
p991
S'be'
p992
S'VBZ'
p993
S'B-VP'
p994
g5
tp995
a(S'registered'
p996
S'register'
p997
S'VBN'
p998
S'I-VP'
p999
g5
tp1000
a(S'with'
p1001
S'with'
p1002
S'IN'
p1003
S'B-PP'
p1004
g5
tp1005
a(S'ClinicalTrials.gov'
p1006
S'ClinicalTrials.gov'
p1007
S'NN'
p1008
S'B-NP'
p1009
g5
tp1010
a(g78
g78
g78
g5
g5
tp1011
a(S'number'
p1012
S'number'
p1013
S'NN'
p1014
S'B-NP'
p1015
g5
tp1016
a(S'NCT00349193'
p1017
S'NCT00349193'
p1018
S'NN'
p1019
S'I-NP'
p1020
g5
tp1021
a(g115
g115
g115
g5
g5
tp1022
a(S'FINDINGS'
p1023
S'FINDINGS'
p1024
S'NNS'
p1025
S'B-NP'
p1026
g5
tp1027
a(S'Compared'
p1028
S'Compare'
p1029
S'VBN'
p1030
S'B-VP'
p1031
g5
tp1032
a(S'with'
p1033
S'with'
p1034
S'IN'
p1035
S'B-PP'
p1036
g5
tp1037
a(S'placebo'
p1038
S'placebo'
p1039
S'NN'
p1040
S'B-NP'
p1041
g5
tp1042
a(g78
g78
g78
g5
g5
tp1043
a(S'treatment'
p1044
S'treatment'
p1045
S'NN'
p1046
S'B-NP'
p1047
g5
tp1048
a(S'with'
p1049
S'with'
p1050
S'IN'
p1051
S'B-PP'
p1052
g5
tp1053
a(S'laquinimod'
p1054
S'laquinimod'
p1055
S'NN'
p1056
S'B-NP'
p1057
g5
tp1058
a(S'0.6'
p1059
S'0.6'
p1060
S'CD'
p1061
S'I-NP'
p1062
g5
tp1063
a(S'mg'
p1064
S'mg'
p1065
S'NN'
p1066
S'I-NP'
p1067
g5
tp1068
a(S'per'
p1069
S'per'
p1070
S'IN'
p1071
S'B-PP'
p1072
g5
tp1073
a(S'day'
p1074
S'day'
p1075
S'NN'
p1076
S'B-NP'
p1077
g5
tp1078
a(S'showed'
p1079
S'show'
p1080
S'VBD'
p1081
S'B-VP'
p1082
g5
tp1083
a(g69
g69
S'DT'
p1084
S'B-NP'
p1085
g5
tp1086
a(S'40.4'
p1087
S'40.4'
p1088
S'CD'
p1089
S'I-NP'
p1090
g5
tp1091
a(S'%'
p1092
g1092
S'NN'
p1093
S'I-NP'
p1094
g5
tp1095
a(S'reduction'
p1096
S'reduction'
p1097
S'NN'
p1098
S'I-NP'
p1099
g5
tp1100
a(S'of'
p1101
S'of'
p1102
S'IN'
p1103
S'B-PP'
p1104
g5
tp1105
a(S'the'
p1106
S'the'
p1107
S'DT'
p1108
S'B-NP'
p1109
g5
tp1110
a(S'baseline'
p1111
S'baseline'
p1112
S'NN'
p1113
S'I-NP'
p1114
g5
tp1115
a(S'adjusted'
p1116
S'adjust'
p1117
S'VBD'
p1118
S'B-VP'
p1119
g5
tp1120
a(S'mean'
p1121
S'mean'
p1122
S'JJ'
p1123
S'B-NP'
p1124
g5
tp1125
a(S'cumulative'
p1126
S'cumulative'
p1127
S'JJ'
p1128
S'I-NP'
p1129
g5
tp1130
a(S'number'
p1131
S'number'
p1132
S'NN'
p1133
S'I-NP'
p1134
g5
tp1135
a(S'of'
p1136
S'of'
p1137
S'IN'
p1138
S'B-PP'
p1139
g5
tp1140
a(S'GdE'
p1141
S'GdE'
p1142
S'NN'
p1143
S'B-NP'
p1144
g5
tp1145
a(S'lesions'
p1146
S'lesion'
p1147
S'NNS'
p1148
S'I-NP'
p1149
g5
tp1150
a(S'per'
p1151
S'per'
p1152
S'IN'
p1153
S'B-PP'
p1154
g5
tp1155
a(S'scan'
p1156
S'scan'
p1157
S'NN'
p1158
S'B-NP'
p1159
g5
tp1160
a(S'on'
p1161
S'on'
p1162
S'IN'
p1163
S'B-PP'
p1164
g5
tp1165
a(S'the'
p1166
S'the'
p1167
S'DT'
p1168
S'B-NP'
p1169
g5
tp1170
a(S'last'
p1171
S'last'
p1172
S'JJ'
p1173
S'I-NP'
p1174
g5
tp1175
a(S'four'
p1176
S'four'
p1177
S'CD'
p1178
S'I-NP'
p1179
g5
tp1180
a(S'scans'
p1181
S'scan'
p1182
S'NNS'
p1183
S'I-NP'
p1184
g5
tp1185
a(g535
g535
g535
g5
g5
tp1186
a(S'simple'
p1187
S'simple'
p1188
S'JJ'
p1189
S'B-NP'
p1190
g5
tp1191
a(S'means'
p1192
S'mean'
p1193
S'NNS'
p1194
S'I-NP'
p1195
g5
tp1196
a(S'4.2'
p1197
S'4.2'
p1198
S'CD'
p1199
S'B-NP'
p1200
g5
tp1201
a(S'['
p1202
g1202
g535
g5
g5
tp1203
a(S'SD'
p1204
S'SD'
p1205
S'NN'
p1206
S'B-NP'
p1207
g5
tp1208
a(S'9.2'
p1209
S'9.2'
p1210
S'CD'
p1211
S'I-NP'
p1212
g5
tp1213
a(S']'
p1214
g1214
g542
g5
g5
tp1215
a(S'vs'
p1216
S'vs'
p1217
S'IN'
p1218
S'B-PP'
p1219
g5
tp1220
a(S'2.6'
p1221
S'2.6'
p1222
S'CD'
p1223
S'B-NP'
p1224
g5
tp1225
a(g1202
g1202
g535
g5
g5
tp1226
a(S'5.3'
p1227
S'5.3'
p1228
S'CD'
p1229
S'B-NP'
p1230
g5
tp1231
a(g1214
g1214
g542
g5
g5
tp1232
a(g78
g78
g78
g5
g5
tp1233
a(S'p=0.0048'
p1234
S'p=0.0048'
p1235
S'NN'
p1236
S'B-NP'
p1237
g5
tp1238
a(g542
g542
g542
g5
g5
tp1239
a(S';'
p1240
g1240
g67
g5
g5
tp1241
a(S'treatment'
p1242
S'treatment'
p1243
S'NN'
p1244
S'B-NP'
p1245
g5
tp1246
a(S'with'
p1247
S'with'
p1248
S'IN'
p1249
S'B-PP'
p1250
g5
tp1251
a(S'0.3'
p1252
S'0.3'
p1253
S'CD'
p1254
S'B-NP'
p1255
g5
tp1256
a(S'mg'
p1257
S'mg'
p1258
S'NN'
p1259
S'I-NP'
p1260
g5
tp1261
a(S'per'
p1262
S'per'
p1263
S'IN'
p1264
S'B-PP'
p1265
g5
tp1266
a(S'day'
p1267
S'day'
p1268
S'NN'
p1269
S'B-NP'
p1270
g5
tp1271
a(S'showed'
p1272
S'show'
p1273
S'VBD'
p1274
S'B-VP'
p1275
g5
tp1276
a(S'no'
p1277
S'no'
p1278
S'DT'
p1279
S'B-NP'
p1280
g5
tp1281
a(S'significant'
p1282
S'significant'
p1283
S'JJ'
p1284
S'I-NP'
p1285
g5
tp1286
a(S'effects'
p1287
S'effect'
p1288
S'NNS'
p1289
S'I-NP'
p1290
g5
tp1291
a(g535
g535
g535
g5
g5
tp1292
a(S'3.9'
p1293
S'3.9'
p1294
S'CD'
p1295
S'B-NP'
p1296
g5
tp1297
a(g1202
g1202
g535
g5
g5
tp1298
a(S'5.5'
p1299
S'5.5'
p1300
S'CD'
p1301
S'B-NP'
p1302
g5
tp1303
a(g1214
g1214
g542
g5
g5
tp1304
a(S'vs'
p1305
S'vs'
p1306
S'IN'
p1307
S'B-PP'
p1308
g5
tp1309
a(S'placebo'
p1310
S'placebo'
p1311
S'NN'
p1312
S'B-NP'
p1313
g5
tp1314
a(g78
g78
g78
g5
g5
tp1315
a(S'p=0.6740'
p1316
S'p=0.6740'
p1317
S'NN'
p1318
S'B-NP'
p1319
g5
tp1320
a(g542
g542
g542
g5
g5
tp1321
a(g115
g115
g115
g5
g5
tp1322
a(S'Both'
p1323
S'Both'
p1324
S'DT'
p1325
S'B-NP'
p1326
g5
tp1327
a(S'doses'
p1328
S'dose'
p1329
S'NNS'
p1330
S'I-NP'
p1331
g5
tp1332
a(S'of'
p1333
S'of'
p1334
S'IN'
p1335
S'B-PP'
p1336
g5
tp1337
a(S'laquinimod'
p1338
S'laquinimod'
p1339
S'NN'
p1340
S'B-NP'
p1341
g5
tp1342
a(S'were'
p1343
S'be'
p1344
S'VBD'
p1345
S'B-VP'
p1346
g5
tp1347
a(S'well'
p1348
S'well'
p1349
S'RB'
p1350
S'I-VP'
p1351
g5
tp1352
a(S'tolerated'
p1353
S'tolerate'
p1354
S'VBN'
p1355
S'I-VP'
p1356
g5
tp1357
a(g78
g78
g78
g5
g5
tp1358
a(S'with'
p1359
S'with'
p1360
S'IN'
p1361
S'B-PP'
p1362
g5
tp1363
a(S'some'
p1364
S'some'
p1365
S'DT'
p1366
S'B-NP'
p1367
g5
tp1368
a(S'transient'
p1369
S'transient'
p1370
S'JJ'
p1371
S'I-NP'
p1372
g5
tp1373
a(S'and'
p1374
S'and'
p1375
S'CC'
p1376
S'I-NP'
p1377
g5
tp1378
a(S'dose-dependent'
p1379
S'dose-dependent'
p1380
S'JJ'
p1381
S'I-NP'
p1382
g5
tp1383
a(S'increases'
p1384
S'increase'
p1385
S'NNS'
p1386
S'I-NP'
p1387
g5
tp1388
a(S'in'
p1389
S'in'
p1390
S'IN'
p1391
S'B-PP'
p1392
g5
tp1393
a(S'liver'
p1394
S'liver'
p1395
S'NN'
p1396
S'B-NP'
p1397
g5
tp1398
a(S'enzymes.'
p1399
S'enzymes.'
p1400
S'NN'
p1401
S'I-NP'
p1402
g5
tp1403
a(g122
g122
S'NN'
p1404
S'I-NP'
p1405
g5
tp1406
a(S'case'
p1407
S'case'
p1408
S'NN'
p1409
S'I-NP'
p1410
g5
tp1411
a(S'of'
p1412
S'of'
p1413
S'IN'
p1414
S'B-PP'
p1415
g5
tp1416
a(S'Budd-Chiari'
p1417
S'Budd-Chiari'
p1418
S'NNP'
p1419
S'B-NP'
p1420
g5
tp1421
a(S'syndrome-ie'
p1422
S'syndrome-ie'
p1423
S'NN'
p1424
S'I-NP'
p1425
g5
tp1426
a(g78
g78
g78
g5
g5
tp1427
a(g69
g69
S'DT'
p1428
S'B-NP'
p1429
g5
tp1430
a(S'thrombotic'
p1431
S'thrombotic'
p1432
S'JJ'
p1433
S'I-NP'
p1434
g5
tp1435
a(S'venous'
p1436
S'venous'
p1437
S'JJ'
p1438
S'I-NP'
p1439
g5
tp1440
a(S'outflow'
p1441
S'outflow'
p1442
S'NN'
p1443
S'I-NP'
p1444
g5
tp1445
a(S'obstruction'
p1446
S'obstruction'
p1447
S'NN'
p1448
S'I-NP'
p1449
g5
tp1450
a(S'of'
p1451
S'of'
p1452
S'IN'
p1453
S'B-PP'
p1454
g5
tp1455
a(S'the'
p1456
S'the'
p1457
S'DT'
p1458
S'B-NP'
p1459
g5
tp1460
a(S'liver-occurred'
p1461
S'liver-occurred'
p1462
S'JJ'
p1463
S'I-NP'
p1464
g5
tp1465
a(S'after'
p1466
S'after'
p1467
S'IN'
p1468
S'B-PP'
p1469
g5
tp1470
a(S'1'
p1471
g1471
S'CD'
p1472
S'B-NP'
p1473
g5
tp1474
a(S'month'
p1475
S'month'
p1476
S'NN'
p1477
S'I-NP'
p1478
g5
tp1479
a(S'of'
p1480
S'of'
p1481
S'IN'
p1482
S'B-PP'
p1483
g5
tp1484
a(S'exposure'
p1485
S'exposure'
p1486
S'NN'
p1487
S'B-NP'
p1488
g5
tp1489
a(S'in'
p1490
S'in'
p1491
S'IN'
p1492
S'B-PP'
p1493
g5
tp1494
a(g69
g69
S'DT'
p1495
S'B-NP'
p1496
g5
tp1497
a(S'patient'
p1498
S'patient'
p1499
S'NN'
p1500
S'I-NP'
p1501
g5
tp1502
a(S'with'
p1503
S'with'
p1504
S'IN'
p1505
S'B-PP'
p1506
g5
tp1507
a(S'underlying'
p1508
S'underlie'
p1509
S'VBG'
p1510
S'B-VP'
p1511
g5
tp1512
a(S'hypercoagulability'
p1513
S'hypercoagulability'
p1514
S'NN'
p1515
S'B-NP'
p1516
g5
tp1517
a(S'who'
p1518
S'who'
p1519
S'WP'
p1520
S'B-NP'
p1521
g5
tp1522
a(S'received'
p1523
S'receive'
p1524
S'VBD'
p1525
S'B-VP'
p1526
g5
tp1527
a(S'0.6'
p1528
S'0.6'
p1529
S'CD'
p1530
S'B-NP'
p1531
g5
tp1532
a(S'mg'
p1533
S'mg'
p1534
S'NN'
p1535
S'I-NP'
p1536
g5
tp1537
a(S'laquinimod.'
p1538
S'laquinimod.'
p1539
S'RB'
p1540
S'B-NP'
p1541
g5
tp1542
a(S'Anticoagulant'
p1543
S'Anticoagulant'
p1544
S'JJ'
p1545
S'I-NP'
p1546
g5
tp1547
a(S'treatment'
p1548
S'treatment'
p1549
S'NN'
p1550
S'I-NP'
p1551
g5
tp1552
a(S'resulted'
p1553
S'result'
p1554
S'VBD'
p1555
S'B-VP'
p1556
g5
tp1557
a(S'in'
p1558
S'in'
p1559
S'IN'
p1560
S'B-PP'
p1561
g5
tp1562
a(g69
g69
S'DT'
p1563
S'B-NP'
p1564
g5
tp1565
a(S'decline'
p1566
S'decline'
p1567
S'NN'
p1568
S'I-NP'
p1569
g5
tp1570
a(S'of'
p1571
S'of'
p1572
S'IN'
p1573
S'B-PP'
p1574
g5
tp1575
a(S'liver'
p1576
S'liver'
p1577
S'NN'
p1578
S'B-NP'
p1579
S'B-protein'
p1580
tp1581
a(S'enzymes'
p1582
S'enzyme'
p1583
S'NNS'
p1584
S'I-NP'
p1585
S'I-protein'
p1586
tp1587
a(S'to'
p1588
S'to'
p1589
S'TO'
p1590
S'B-PP'
p1591
g5
tp1592
a(S'normal'
p1593
S'normal'
p1594
S'JJ'
p1595
S'B-ADJP'
p1596
g5
tp1597
a(S'without'
p1598
S'without'
p1599
S'IN'
p1600
S'B-PP'
p1601
g5
tp1602
a(S'any'
p1603
S'any'
p1604
S'DT'
p1605
S'B-NP'
p1606
g5
tp1607
a(S'clinical'
p1608
S'clinical'
p1609
S'JJ'
p1610
S'I-NP'
p1611
g5
tp1612
a(S'signs'
p1613
S'sign'
p1614
S'NNS'
p1615
S'I-NP'
p1616
g5
tp1617
a(S'of'
p1618
S'of'
p1619
S'IN'
p1620
S'B-PP'
p1621
g5
tp1622
a(S'hepatic'
p1623
S'hepatic'
p1624
S'JJ'
p1625
S'B-NP'
p1626
g5
tp1627
a(S'decompensation'
p1628
S'decompensation'
p1629
S'NN'
p1630
S'I-NP'
p1631
g5
tp1632
a(g115
g115
g115
g5
g5
tp1633
a(S'INTERPRETATION'
p1634
S'INTERPRETATION'
p1635
S'NN'
p1636
S'B-NP'
p1637
g5
tp1638
a(S'In'
p1639
S'In'
p1640
S'IN'
p1641
S'B-PP'
p1642
g5
tp1643
a(S'patients'
p1644
S'patient'
p1645
S'NNS'
p1646
S'B-NP'
p1647
g5
tp1648
a(S'with'
p1649
S'with'
p1650
S'IN'
p1651
S'B-PP'
p1652
g5
tp1653
a(S'relapsing-remitting'
p1654
S'relapsing-remitting'
p1655
S'JJ'
p1656
S'B-NP'
p1657
g5
tp1658
a(S'multiple'
p1659
S'multiple'
p1660
S'JJ'
p1661
S'I-NP'
p1662
g5
tp1663
a(S'sclerosis'
p1664
S'sclerosis'
p1665
S'NN'
p1666
S'I-NP'
p1667
g5
tp1668
a(g78
g78
g78
g5
g5
tp1669
a(S'0.6'
p1670
S'0.6'
p1671
S'CD'
p1672
S'B-NP'
p1673
g5
tp1674
a(S'mg'
p1675
S'mg'
p1676
S'NN'
p1677
S'I-NP'
p1678
g5
tp1679
a(S'per'
p1680
S'per'
p1681
S'IN'
p1682
S'B-PP'
p1683
g5
tp1684
a(S'day'
p1685
S'day'
p1686
S'NN'
p1687
S'B-NP'
p1688
g5
tp1689
a(S'laquinimod'
p1690
S'laquinimod'
p1691
S'NN'
p1692
S'I-NP'
p1693
g5
tp1694
a(S'significantly'
p1695
S'significantly'
p1696
S'RB'
p1697
S'B-ADVP'
p1698
g5
tp1699
a(S'reduced'
p1700
S'reduce'
p1701
S'VBD'
p1702
S'B-VP'
p1703
g5
tp1704
a(S'MRI-measured'
p1705
S'MRI-measured'
p1706
S'JJ'
p1707
S'B-NP'
p1708
g5
tp1709
a(S'disease'
p1710
S'disease'
p1711
S'NN'
p1712
S'I-NP'
p1713
g5
tp1714
a(S'activity'
p1715
S'activity'
p1716
S'NN'
p1717
S'I-NP'
p1718
g5
tp1719
a(S'and'
p1720
S'and'
p1721
S'CC'
p1722
g5
g5
tp1723
a(S'was'
p1724
S'be'
p1725
S'VBD'
p1726
S'B-VP'
p1727
g5
tp1728
a(S'well'
p1729
S'well'
p1730
S'RB'
p1731
S'I-VP'
p1732
g5
tp1733
a(S'tolerated'
p1734
S'tolerate'
p1735
S'VBN'
p1736
S'I-VP'
p1737
g5
tp1738
a(g115
g115
g115
g5
g5
tp1739
a.