(lp0
(S'Covariation'
p1
S'Covariation'
p2
S'NN'
p3
S'B-NP'
p4
S'O'
p5
tp6
a(S'of'
p7
S'of'
p8
S'IN'
p9
S'B-PP'
p10
g5
tp11
a(S'adolescent'
p12
S'adolescent'
p13
S'JJ'
p14
S'B-NP'
p15
g5
tp16
a(S'physical'
p17
S'physical'
p18
S'JJ'
p19
S'I-NP'
p20
g5
tp21
a(S'activity'
p22
S'activity'
p23
S'NN'
p24
S'I-NP'
p25
g5
tp26
a(S'and'
p27
S'and'
p28
S'CC'
p29
g5
g5
tp30
a(S'dietary'
p31
S'dietary'
p32
S'JJ'
p33
S'B-NP'
p34
g5
tp35
a(S'behaviors'
p36
S'behavior'
p37
S'NNS'
p38
S'I-NP'
p39
g5
tp40
a(S'over'
p41
S'over'
p42
S'IN'
p43
S'B-PP'
p44
g5
tp45
a(S'12'
p46
S'12'
p47
S'CD'
p48
S'B-NP'
p49
g5
tp50
a(S'months'
p51
S'month'
p52
S'NNS'
p53
S'I-NP'
p54
g5
tp55
a(S'.'
p56
g56
g56
g5
g5
tp57
a(S'PURPOSE'
p58
S'PURPOSE'
p59
S'NN'
p60
S'B-NP'
p61
g5
tp62
a(S'This'
p63
S'This'
p64
S'DT'
p65
S'B-NP'
p66
g5
tp67
a(S'study'
p68
S'study'
p69
S'NN'
p70
S'I-NP'
p71
g5
tp72
a(S'examined'
p73
S'examine'
p74
S'VBD'
p75
S'B-VP'
p76
g5
tp77
a(S'covariation'
p78
S'covariation'
p79
S'NN'
p80
S'B-NP'
p81
g5
tp82
a(S'among'
p83
S'among'
p84
S'IN'
p85
S'B-PP'
p86
g5
tp87
a(S'changes'
p88
S'change'
p89
S'NNS'
p90
S'B-NP'
p91
g5
tp92
a(S'in'
p93
S'in'
p94
S'IN'
p95
S'B-PP'
p96
g5
tp97
a(S'dietary'
p98
S'dietary'
p99
S'JJ'
p100
S'B-NP'
p101
g5
tp102
a(S','
p103
g103
g103
S'I-NP'
p104
g5
tp105
a(S'physical'
p106
S'physical'
p107
S'JJ'
p108
S'I-NP'
p109
g5
tp110
a(S'activity'
p111
S'activity'
p112
S'NN'
p113
S'I-NP'
p114
g5
tp115
a(g103
g103
g103
g5
g5
tp116
a(S'and'
p117
S'and'
p118
S'CC'
p119
g5
g5
tp120
a(S'sedentary'
p121
S'sedentary'
p122
S'JJ'
p123
S'B-NP'
p124
g5
tp125
a(S'behaviors'
p126
S'behavior'
p127
S'NNS'
p128
S'I-NP'
p129
g5
tp130
a(S'over'
p131
S'over'
p132
S'IN'
p133
S'B-PP'
p134
g5
tp135
a(S'12'
p136
S'12'
p137
S'CD'
p138
S'B-NP'
p139
g5
tp140
a(S'months'
p141
S'month'
p142
S'NNS'
p143
S'I-NP'
p144
g5
tp145
a(S'among'
p146
S'among'
p147
S'IN'
p148
S'B-PP'
p149
g5
tp150
a(S'adolescents'
p151
S'adolescent'
p152
S'NNS'
p153
S'B-NP'
p154
g5
tp155
a(S'participating'
p156
S'participate'
p157
S'VBG'
p158
S'B-VP'
p159
g5
tp160
a(S'in'
p161
S'in'
p162
S'IN'
p163
S'B-PP'
p164
g5
tp165
a(S'a'
p166
g166
S'DT'
p167
S'B-NP'
p168
g5
tp169
a(S'health'
p170
S'health'
p171
S'NN'
p172
S'I-NP'
p173
g5
tp174
a(S'behavior'
p175
S'behavior'
p176
S'NN'
p177
S'I-NP'
p178
g5
tp179
a(S'intervention.'
p180
S'intervention.'
p181
S'NN'
p182
S'I-NP'
p183
g5
tp184
a(S'Evidence'
p185
S'Evidence'
p186
S'NN'
p187
S'I-NP'
p188
g5
tp189
a(S'of'
p190
S'of'
p191
S'IN'
p192
S'B-PP'
p193
g5
tp194
a(S'covariation'
p195
S'covariation'
p196
S'NN'
p197
S'B-NP'
p198
g5
tp199
a(S'among'
p200
S'among'
p201
S'IN'
p202
S'B-PP'
p203
g5
tp204
a(S'behaviors'
p205
S'behavior'
p206
S'NNS'
p207
S'B-NP'
p208
g5
tp209
a(S'would'
p210
S'would'
p211
S'MD'
p212
S'B-VP'
p213
g5
tp214
a(S'suggest'
p215
S'suggest'
p216
S'VB'
p217
S'I-VP'
p218
g5
tp219
a(S'multi-behavior'
p220
S'multi-behavior'
p221
S'JJ'
p222
S'B-NP'
p223
g5
tp224
a(S'interventions'
p225
S'intervention'
p226
S'NNS'
p227
S'I-NP'
p228
g5
tp229
a(S'could'
p230
S'could'
p231
S'MD'
p232
S'B-VP'
p233
g5
tp234
a(S'have'
p235
S'have'
p236
S'VB'
p237
S'I-VP'
p238
g5
tp239
a(S'synergistic'
p240
S'synergistic'
p241
S'JJ'
p242
S'B-NP'
p243
g5
tp244
a(S'effects'
p245
S'effect'
p246
S'NNS'
p247
S'I-NP'
p248
g5
tp249
a(g56
g56
g56
g5
g5
tp250
a(S'METHODS'
p251
S'METHODS'
p252
S'NNS'
p253
S'B-NP'
p254
g5
tp255
a(S'Prospective'
p256
S'Prospective'
p257
S'JJ'
p258
S'I-NP'
p259
g5
tp260
a(S'analyses'
p261
S'analysis'
p262
S'NNS'
p263
S'I-NP'
p264
g5
tp265
a(S'were'
p266
S'be'
p267
S'VBD'
p268
S'B-VP'
p269
g5
tp270
a(S'conducted'
p271
S'conduct'
p272
S'VBN'
p273
S'I-VP'
p274
g5
tp275
a(S'with'
p276
S'with'
p277
S'IN'
p278
S'B-PP'
p279
g5
tp280
a(S'baseline'
p281
S'baseline'
p282
S'NN'
p283
S'B-NP'
p284
g5
tp285
a(S'and'
p286
S'and'
p287
S'CC'
p288
g5
g5
tp289
a(S'12-month'
p290
S'12-month'
p291
S'JJ'
p292
S'B-NP'
p293
g5
tp294
a(S'assessments'
p295
S'assessment'
p296
S'NNS'
p297
S'I-NP'
p298
g5
tp299
a(S'from'
p300
S'from'
p301
S'IN'
p302
S'B-PP'
p303
g5
tp304
a(g166
g166
S'DT'
p305
S'B-NP'
p306
g5
tp307
a(S'randomized'
p308
S'randomize'
p309
S'VBN'
p310
S'I-NP'
p311
g5
tp312
a(S'controlled'
p313
S'control'
p314
S'VBN'
p315
S'I-NP'
p316
g5
tp317
a(S'trial'
p318
S'trial'
p319
S'NN'
p320
S'I-NP'
p321
g5
tp322
a(S'to'
p323
S'to'
p324
S'TO'
p325
S'B-VP'
p326
g5
tp327
a(S'promote'
p328
S'promote'
p329
S'VB'
p330
S'I-VP'
p331
g5
tp332
a(S'improved'
p333
S'improved'
p334
S'JJ'
p335
S'B-NP'
p336
g5
tp337
a(S'diet'
p338
S'diet'
p339
S'NN'
p340
S'I-NP'
p341
g5
tp342
a(g103
g103
g103
g5
g5
tp343
a(S'physical'
p344
S'physical'
p345
S'JJ'
p346
S'B-NP'
p347
g5
tp348
a(S'activity'
p349
S'activity'
p350
S'NN'
p351
S'I-NP'
p352
g5
tp353
a(g103
g103
g103
g5
g5
tp354
a(S'and'
p355
S'and'
p356
S'CC'
p357
g5
g5
tp358
a(S'sedentary'
p359
S'sedentary'
p360
S'JJ'
p361
S'B-NP'
p362
g5
tp363
a(S'behaviors'
p364
S'behavior'
p365
S'NNS'
p366
S'I-NP'
p367
g5
tp368
a(S'('
p369
g369
g369
g5
g5
tp370
a(S'experimental'
p371
S'experimental'
p372
S'JJ'
p373
S'B-NP'
p374
g5
tp375
a(S'condition'
p376
S'condition'
p377
S'NN'
p378
S'I-NP'
p379
g5
tp380
a(S')'
p381
g381
g381
g5
g5
tp382
a(S'or'
p383
S'or'
p384
S'CC'
p385
g5
g5
tp386
a(S'SUN'
p387
S'SUN'
p388
S'NN'
p389
S'B-NP'
p390
g5
tp391
a(S'protection'
p392
S'protection'
p393
S'NN'
p394
S'I-NP'
p395
g5
tp396
a(S'behaviors'
p397
S'behavior'
p398
S'NNS'
p399
S'I-NP'
p400
g5
tp401
a(g369
g369
g369
g5
g5
tp402
a(S'comparison'
p403
S'comparison'
p404
S'NN'
p405
S'B-NP'
p406
g5
tp407
a(S'condition'
p408
S'condition'
p409
S'NN'
p410
S'I-NP'
p411
g5
tp412
a(g381
g381
g381
g5
g5
tp413
a(g56
g56
g56
g5
g5
tp414
a(S'Participants'
p415
S'Participant'
p416
S'NNPS'
p417
S'B-NP'
p418
g5
tp419
a(S'were'
p420
S'be'
p421
S'VBD'
p422
S'B-VP'
p423
g5
tp424
a(S'adolescent'
p425
S'adolescent'
p426
S'JJ'
p427
S'B-NP'
p428
g5
tp429
a(S'girls'
p430
S'girl'
p431
S'NNS'
p432
S'I-NP'
p433
g5
tp434
a(S'and'
p435
S'and'
p436
S'CC'
p437
g5
g5
tp438
a(S'boys'
p439
S'boy'
p440
S'NNS'
p441
S'B-NP'
p442
g5
tp443
a(g369
g369
g369
g5
g5
tp444
a(S'N'
p445
g445
S'NN'
p446
S'B-NP'
p447
g5
tp448
a(S'='
p449
g449
S'SYM'
p450
S'B-VP'
p451
g5
tp452
a(S'878'
p453
S'878'
p454
S'CD'
p455
S'B-NP'
p456
g5
tp457
a(g381
g381
g381
g5
g5
tp458
a(S'aged'
p459
S'age'
p460
S'VBN'
p461
S'B-VP'
p462
g5
tp463
a(S'11-15'
p464
S'11-15'
p465
S'CD'
p466
S'B-NP'
p467
g5
tp468
a(S'years'
p469
S'year'
p470
S'NNS'
p471
S'I-NP'
p472
g5
tp473
a(S'on'
p474
S'on'
p475
S'IN'
p476
S'B-PP'
p477
g5
tp478
a(S'entry.'
p479
S'entry.'
p480
S'NN'
p481
S'B-NP'
p482
g5
tp483
a(S'The'
p484
S'The'
p485
S'DT'
p486
S'B-NP'
p487
g5
tp488
a(S'main'
p489
S'main'
p490
S'JJ'
p491
S'I-NP'
p492
g5
tp493
a(S'outcomes'
p494
S'outcome'
p495
S'NNS'
p496
S'I-NP'
p497
g5
tp498
a(S'were'
p499
S'be'
p500
S'VBD'
p501
S'B-VP'
p502
g5
tp503
a(S':'
p504
g504
g504
g5
g5
tp505
a(S'diet'
p506
S'diet'
p507
S'NN'
p508
S'B-NP'
p509
g5
tp510
a(g103
g103
g103
g5
g5
tp511
a(S'based'
p512
S'base'
p513
S'VBN'
p514
S'B-PP'
p515
g5
tp516
a(S'on'
p517
S'on'
p518
S'IN'
p519
S'B-PP'
p520
g5
tp521
a(S'multiple'
p522
S'multiple'
p523
S'JJ'
p524
S'B-NP'
p525
g5
tp526
a(S'24-hour'
p527
S'24-hour'
p528
S'JJ'
p529
S'I-NP'
p530
g5
tp531
a(S'recalls'
p532
S'recall'
p533
S'NNS'
p534
S'I-NP'
p535
g5
tp536
a(g369
g369
g369
g5
g5
tp537
a(S'total'
p538
S'total'
p539
S'JJ'
p540
S'B-NP'
p541
g5
tp542
a(S'fat'
p543
S'fat'
p544
S'NN'
p545
S'I-NP'
p546
g5
tp547
a(g103
g103
g103
g5
g5
tp548
a(S'grams'
p549
S'gram'
p550
S'NNS'
p551
S'B-NP'
p552
g5
tp553
a(S'of'
p554
S'of'
p555
S'IN'
p556
S'B-PP'
p557
g5
tp558
a(S'fiber'
p559
S'fiber'
p560
S'NN'
p561
S'B-NP'
p562
g5
tp563
a(g103
g103
g103
g5
g5
tp564
a(S'servings'
p565
S'serving'
p566
S'NNS'
p567
S'B-NP'
p568
g5
tp569
a(S'of'
p570
S'of'
p571
S'IN'
p572
S'B-PP'
p573
g5
tp574
a(S'fruit'
p575
S'fruit'
p576
S'NN'
p577
S'B-NP'
p578
g5
tp579
a(S'and'
p580
S'and'
p581
S'CC'
p582
S'I-NP'
p583
g5
tp584
a(S'vegetables'
p585
S'vegetable'
p586
S'NNS'
p587
S'I-NP'
p588
g5
tp589
a(g103
g103
g103
g5
g5
tp590
a(S'total'
p591
S'total'
p592
S'JJ'
p593
S'B-NP'
p594
g5
tp595
a(S'calories'
p596
S'calorie'
p597
S'NNS'
p598
S'I-NP'
p599
g5
tp600
a(g381
g381
g381
g5
g5
tp601
a(S';'
p602
g602
g504
g5
g5
tp603
a(S'average'
p604
S'average'
p605
S'JJ'
p606
S'B-NP'
p607
g5
tp608
a(S'daily'
p609
S'daily'
p610
S'JJ'
p611
S'I-NP'
p612
g5
tp613
a(S'energy'
p614
S'energy'
p615
S'NN'
p616
S'I-NP'
p617
g5
tp618
a(S'expenditure'
p619
S'expenditure'
p620
S'NN'
p621
S'I-NP'
p622
g5
tp623
a(g369
g369
g369
g5
g5
tp624
a(S'kcals/kg'
p625
S'kcals/kg'
p626
S'NN'
p627
S'B-NP'
p628
g5
tp629
a(g381
g381
g381
g5
g5
tp630
a(S'based'
p631
S'base'
p632
S'VBN'
p633
S'B-PP'
p634
g5
tp635
a(S'on'
p636
S'on'
p637
S'IN'
p638
S'B-PP'
p639
g5
tp640
a(S'7-day'
p641
S'7-day'
p642
S'JJ'
p643
S'B-NP'
p644
g5
tp645
a(S'physical'
p646
S'physical'
p647
S'JJ'
p648
S'I-NP'
p649
g5
tp650
a(S'activity'
p651
S'activity'
p652
S'NN'
p653
S'I-NP'
p654
g5
tp655
a(S'recall'
p656
S'recall'
p657
S'NN'
p658
S'I-NP'
p659
g5
tp660
a(S'interviews'
p661
S'interview'
p662
S'NNS'
p663
S'I-NP'
p664
g5
tp665
a(g602
g602
g504
g5
g5
tp666
a(S'daily'
p667
S'daily'
p668
S'JJ'
p669
S'B-NP'
p670
g5
tp671
a(S'minutes'
p672
S'minute'
p673
S'NNS'
p674
S'I-NP'
p675
g5
tp676
a(S'of'
p677
S'of'
p678
S'IN'
p679
S'B-PP'
p680
g5
tp681
a(S'moderate-vigorous'
p682
S'moderate-vigorous'
p683
S'JJ'
p684
S'B-NP'
p685
g5
tp686
a(S'physical'
p687
S'physical'
p688
S'JJ'
p689
S'I-NP'
p690
g5
tp691
a(S'activity'
p692
S'activity'
p693
S'NN'
p694
S'I-NP'
p695
g5
tp696
a(S'minutes'
p697
S'minute'
p698
S'NNS'
p699
S'I-NP'
p700
g5
tp701
a(S'from'
p702
S'from'
p703
S'IN'
p704
S'B-PP'
p705
g5
tp706
a(S'accelerometery'
p707
S'accelerometery'
p708
S'NN'
p709
S'B-NP'
p710
g5
tp711
a(g602
g602
g504
g5
g5
tp712
a(S'and'
p713
S'and'
p714
S'CC'
p715
g5
g5
tp716
a(S'self-reported'
p717
S'self-reported'
p718
S'JJ'
p719
S'B-NP'
p720
g5
tp721
a(S'daily'
p722
S'daily'
p723
S'JJ'
p724
S'I-NP'
p725
g5
tp726
a(S'hours'
p727
S'hour'
p728
S'NNS'
p729
S'I-NP'
p730
g5
tp731
a(S'of'
p732
S'of'
p733
S'IN'
p734
S'B-PP'
p735
g5
tp736
a(S'sedentary'
p737
S'sedentary'
p738
S'JJ'
p739
S'B-NP'
p740
g5
tp741
a(S'behavior'
p742
S'behavior'
p743
S'NN'
p744
S'I-NP'
p745
g5
tp746
a(g56
g56
g56
g5
g5
tp747
a(S'RESULTS'
p748
S'RESULTS'
p749
S'NNS'
p750
S'B-NP'
p751
g5
tp752
a(S'Covariation'
p753
S'Covariation'
p754
S'NN'
p755
S'I-NP'
p756
g5
tp757
a(S'was'
p758
S'be'
p759
S'VBD'
p760
S'B-VP'
p761
g5
tp762
a(S'found'
p763
S'find'
p764
S'VBN'
p765
S'I-VP'
p766
g5
tp767
a(S'between'
p768
S'between'
p769
S'IN'
p770
S'B-PP'
p771
g5
tp772
a(S'fat'
p773
S'fat'
p774
S'NN'
p775
S'B-NP'
p776
g5
tp777
a(S'and'
p778
S'and'
p779
S'CC'
p780
S'I-NP'
p781
g5
tp782
a(S'calories'
p783
S'calorie'
p784
S'NNS'
p785
S'I-NP'
p786
g5
tp787
a(g369
g369
g369
g5
g5
tp788
a(S'r'
p789
g789
S'NN'
p790
S'B-NP'
p791
g5
tp792
a(g449
g449
S'SYM'
p793
S'B-VP'
p794
g5
tp795
a(S'.16'
p796
S'.16'
p797
S'CD'
p798
S'B-NP'
p799
g5
tp800
a(g381
g381
g381
g5
g5
tp801
a(g103
g103
g103
g5
g5
tp802
a(S'fiber'
p803
S'fiber'
p804
S'NN'
p805
S'B-NP'
p806
g5
tp807
a(S'and'
p808
S'and'
p809
S'CC'
p810
g5
g5
tp811
a(S'calories'
p812
S'calorie'
p813
S'NNS'
p814
S'B-NP'
p815
g5
tp816
a(g369
g369
g369
g5
g5
tp817
a(g789
g789
S'NN'
p818
S'B-NP'
p819
g5
tp820
a(g449
g449
S'SYM'
p821
S'B-VP'
p822
g5
tp823
a(S'.53'
p824
S'.53'
p825
S'CD'
p826
S'B-NP'
p827
g5
tp828
a(g381
g381
g381
g5
g5
tp829
a(g103
g103
g103
g5
g5
tp830
a(S'fiber'
p831
S'fiber'
p832
S'NN'
p833
S'B-NP'
p834
g5
tp835
a(S'and'
p836
S'and'
p837
S'CC'
p838
g5
g5
tp839
a(S'fruit/vegetables'
p840
S'fruit/vegetable'
p841
S'NNS'
p842
S'B-NP'
p843
g5
tp844
a(g369
g369
g369
g5
g5
tp845
a(g789
g789
S'NN'
p846
S'B-NP'
p847
g5
tp848
a(g449
g449
S'SYM'
p849
S'B-VP'
p850
g5
tp851
a(S'.53'
p852
S'.53'
p853
S'CD'
p854
S'B-NP'
p855
g5
tp856
a(g381
g381
g381
g5
g5
tp857
a(g103
g103
g103
g5
g5
tp858
a(S'calories'
p859
S'calorie'
p860
S'NNS'
p861
S'B-NP'
p862
g5
tp863
a(S'and'
p864
S'and'
p865
S'CC'
p866
g5
g5
tp867
a(S'fruit/vegetables'
p868
S'fruit/vegetable'
p869
S'NNS'
p870
S'B-NP'
p871
g5
tp872
a(g369
g369
g369
g5
g5
tp873
a(g789
g789
S'NN'
p874
S'B-NP'
p875
g5
tp876
a(g449
g449
S'SYM'
p877
S'B-VP'
p878
g5
tp879
a(S'.34'
p880
S'.34'
p881
S'CD'
p882
S'B-NP'
p883
g5
tp884
a(g381
g381
g381
g5
g5
tp885
a(g103
g103
g103
g5
g5
tp886
a(S'and'
p887
S'and'
p888
S'CC'
p889
g5
g5
tp890
a(S'fruit'
p891
S'fruit'
p892
S'NN'
p893
S'B-NP'
p894
g5
tp895
a(S'and'
p896
S'and'
p897
S'CC'
p898
S'I-NP'
p899
g5
tp900
a(S'vegetables'
p901
S'vegetable'
p902
S'NNS'
p903
S'I-NP'
p904
g5
tp905
a(S'and'
p906
S'and'
p907
S'CC'
p908
g5
g5
tp909
a(S'sedentary'
p910
S'sedentary'
p911
S'JJ'
p912
S'B-NP'
p913
g5
tp914
a(S'behavior'
p915
S'behavior'
p916
S'NN'
p917
S'I-NP'
p918
g5
tp919
a(g369
g369
g369
g5
g5
tp920
a(g789
g789
S'NN'
p921
S'B-NP'
p922
g5
tp923
a(g449
g449
S'SYM'
p924
S'B-VP'
p925
g5
tp926
a(S'-.12'
p927
S'-.12'
p928
S'CD'
p929
S'B-NP'
p930
g5
tp931
a(g381
g381
g381
g5
g5
tp932
a(S'for'
p933
S'for'
p934
S'IN'
p935
S'B-PP'
p936
g5
tp937
a(S'the'
p938
S'the'
p939
S'DT'
p940
S'B-NP'
p941
g5
tp942
a(S'total'
p943
S'total'
p944
S'JJ'
p945
S'I-NP'
p946
g5
tp947
a(S'sample'
p948
S'sample'
p949
S'NN'
p950
S'I-NP'
p951
g5
tp952
a(g369
g369
g369
g5
g5
tp953
a(S'all'
p954
S'all'
p955
S'DT'
p956
S'B-NP'
p957
g5
tp958
a(S'p'
p959
g959
S'NN'
p960
S'I-NP'
p961
g5
tp962
a(S'values'
p963
S'value'
p964
S'NNS'
p965
S'I-NP'
p966
g5
tp967
a(S'<'
p968
g968
S'SYM'
p969
S'B-NP'
p970
g5
tp971
a(S'.01'
p972
S'.01'
p973
S'CD'
p974
S'I-NP'
p975
g5
tp976
a(g381
g381
g381
g5
g5
tp977
a(g56
g56
g56
g5
g5
tp978
a(S'The'
p979
S'The'
p980
S'DT'
p981
S'B-NP'
p982
g5
tp983
a(S'pattern'
p984
S'pattern'
p985
S'NN'
p986
S'I-NP'
p987
g5
tp988
a(S'of'
p989
S'of'
p990
S'IN'
p991
S'B-PP'
p992
g5
tp993
a(S'findings'
p994
S'finding'
p995
S'NNS'
p996
S'B-NP'
p997
g5
tp998
a(S'was'
p999
S'be'
p1000
S'VBD'
p1001
S'B-VP'
p1002
g5
tp1003
a(S'similar'
p1004
S'similar'
p1005
S'JJ'
p1006
S'B-ADJP'
p1007
g5
tp1008
a(S'for'
p1009
S'for'
p1010
S'IN'
p1011
S'B-PP'
p1012
g5
tp1013
a(S'most'
p1014
S'most'
p1015
S'JJS'
p1016
S'B-NP'
p1017
g5
tp1018
a(S'subgroups'
p1019
S'subgroup'
p1020
S'NNS'
p1021
S'I-NP'
p1022
g5
tp1023
a(S'defined'
p1024
S'define'
p1025
S'VBN'
p1026
S'B-VP'
p1027
g5
tp1028
a(S'by'
p1029
S'by'
p1030
S'IN'
p1031
S'B-PP'
p1032
g5
tp1033
a(S'gender'
p1034
S'gender'
p1035
S'NN'
p1036
S'B-NP'
p1037
g5
tp1038
a(S'and'
p1039
S'and'
p1040
S'CC'
p1041
S'I-NP'
p1042
g5
tp1043
a(S'study'
p1044
S'study'
p1045
S'NN'
p1046
S'I-NP'
p1047
g5
tp1048
a(S'condition'
p1049
S'condition'
p1050
S'NN'
p1051
S'I-NP'
p1052
g5
tp1053
a(g56
g56
g56
g5
g5
tp1054
a(S'CONCLUSIONS'
p1055
S'CONCLUSIONS'
p1056
S'NNS'
p1057
S'B-NP'
p1058
g5
tp1059
a(S'The'
p1060
S'The'
p1061
S'DT'
p1062
S'B-NP'
p1063
g5
tp1064
a(S'strongest'
p1065
S'strong'
p1066
S'JJS'
p1067
S'I-NP'
p1068
g5
tp1069
a(S'covariation'
p1070
S'covariation'
p1071
S'NN'
p1072
S'I-NP'
p1073
g5
tp1074
a(S'was'
p1075
S'be'
p1076
S'VBD'
p1077
S'B-VP'
p1078
g5
tp1079
a(S'observed'
p1080
S'observe'
p1081
S'VBN'
p1082
S'I-VP'
p1083
g5
tp1084
a(S'for'
p1085
S'for'
p1086
S'IN'
p1087
S'B-PP'
p1088
g5
tp1089
a(S'diet'
p1090
S'diet'
p1091
S'NN'
p1092
S'B-NP'
p1093
g5
tp1094
a(S'variables'
p1095
S'variable'
p1096
S'NNS'
p1097
S'I-NP'
p1098
g5
tp1099
a(S'that'
p1100
S'that'
p1101
S'WDT'
p1102
S'B-NP'
p1103
g5
tp1104
a(S'are'
p1105
S'be'
p1106
S'VBP'
p1107
S'B-VP'
p1108
g5
tp1109
a(S'inherently'
p1110
S'inherently'
p1111
S'RB'
p1112
S'I-VP'
p1113
g5
tp1114
a(S'related'
p1115
S'relate'
p1116
S'VBN'
p1117
S'I-VP'
p1118
g5
tp1119
a(g369
g369
g369
g5
g5
tp1120
a(S'calories'
p1121
S'calorie'
p1122
S'NNS'
p1123
S'B-NP'
p1124
g5
tp1125
a(S'and'
p1126
S'and'
p1127
S'CC'
p1128
g5
g5
tp1129
a(S'fat'
p1130
S'fat'
p1131
S'NN'
p1132
S'B-NP'
p1133
g5
tp1134
a(g103
g103
g103
g5
g5
tp1135
a(S'fiber'
p1136
S'fiber'
p1137
S'NN'
p1138
S'B-NP'
p1139
g5
tp1140
a(g103
g103
g103
g5
g5
tp1141
a(S'and'
p1142
S'and'
p1143
S'CC'
p1144
g5
g5
tp1145
a(S'fruit/vegetables'
p1146
S'fruit/vegetable'
p1147
S'NNS'
p1148
S'B-NP'
p1149
g5
tp1150
a(g381
g381
g381
g5
g5
tp1151
a(g56
g56
g56
g5
g5
tp1152
a(S'Little'
p1153
S'Little'
p1154
S'JJ'
p1155
S'B-NP'
p1156
g5
tp1157
a(S'covariation'
p1158
S'covariation'
p1159
S'NN'
p1160
S'I-NP'
p1161
g5
tp1162
a(S'was'
p1163
S'be'
p1164
S'VBD'
p1165
S'B-VP'
p1166
g5
tp1167
a(S'detected'
p1168
S'detect'
p1169
S'VBN'
p1170
S'I-VP'
p1171
g5
tp1172
a(S'within'
p1173
S'within'
p1174
S'IN'
p1175
S'B-PP'
p1176
g5
tp1177
a(S'or'
p1178
S'or'
p1179
S'CC'
p1180
S'I-PP'
p1181
g5
tp1182
a(S'between'
p1183
S'between'
p1184
S'IN'
p1185
S'I-PP'
p1186
g5
tp1187
a(S'other'
p1188
S'other'
p1189
S'JJ'
p1190
S'B-NP'
p1191
g5
tp1192
a(S'diet'
p1193
S'diet'
p1194
S'NN'
p1195
S'I-NP'
p1196
g5
tp1197
a(g103
g103
g103
g5
g5
tp1198
a(S'physical'
p1199
S'physical'
p1200
S'JJ'
p1201
S'B-NP'
p1202
g5
tp1203
a(S'activity'
p1204
S'activity'
p1205
S'NN'
p1206
S'I-NP'
p1207
g5
tp1208
a(S'and'
p1209
S'and'
p1210
S'CC'
p1211
g5
g5
tp1212
a(S'sedentary'
p1213
S'sedentary'
p1214
S'JJ'
p1215
S'B-NP'
p1216
g5
tp1217
a(S'behavior'
p1218
S'behavior'
p1219
S'NN'
p1220
S'I-NP'
p1221
g5
tp1222
a(S'domains'
p1223
S'domain'
p1224
S'NNS'
p1225
S'I-NP'
p1226
g5
tp1227
a(S'suggesting'
p1228
S'suggest'
p1229
S'VBG'
p1230
S'B-VP'
p1231
g5
tp1232
a(S'that'
p1233
S'that'
p1234
S'IN'
p1235
S'B-SBAR'
p1236
g5
tp1237
a(S'interventions'
p1238
S'intervention'
p1239
S'NNS'
p1240
S'B-NP'
p1241
g5
tp1242
a(S'to'
p1243
S'to'
p1244
S'TO'
p1245
S'B-VP'
p1246
g5
tp1247
a(S'improve'
p1248
S'improve'
p1249
S'VB'
p1250
S'I-VP'
p1251
g5
tp1252
a(S'these'
p1253
S'these'
p1254
S'DT'
p1255
S'B-NP'
p1256
g5
tp1257
a(S'behaviors'
p1258
S'behavior'
p1259
S'NNS'
p1260
S'I-NP'
p1261
g5
tp1262
a(S'in'
p1263
S'in'
p1264
S'IN'
p1265
S'B-PP'
p1266
g5
tp1267
a(S'adolescents'
p1268
S'adolescent'
p1269
S'NNS'
p1270
S'B-NP'
p1271
g5
tp1272
a(S'need'
p1273
S'need'
p1274
S'VBP'
p1275
S'B-VP'
p1276
g5
tp1277
a(S'to'
p1278
S'to'
p1279
S'TO'
p1280
S'I-VP'
p1281
g5
tp1282
a(S'include'
p1283
S'include'
p1284
S'VB'
p1285
S'I-VP'
p1286
g5
tp1287
a(S'specific'
p1288
S'specific'
p1289
S'JJ'
p1290
S'B-NP'
p1291
g5
tp1292
a(S'program'
p1293
S'program'
p1294
S'NN'
p1295
S'I-NP'
p1296
g5
tp1297
a(S'components'
p1298
S'component'
p1299
S'NNS'
p1300
S'I-NP'
p1301
g5
tp1302
a(S'for'
p1303
S'for'
p1304
S'IN'
p1305
S'B-PP'
p1306
g5
tp1307
a(S'each'
p1308
S'each'
p1309
S'DT'
p1310
S'B-NP'
p1311
g5
tp1312
a(S'target'
p1313
S'target'
p1314
S'NN'
p1315
S'I-NP'
p1316
g5
tp1317
a(S'behavior'
p1318
S'behavior'
p1319
S'NN'
p1320
S'I-NP'
p1321
g5
tp1322
a(S'of'
p1323
S'of'
p1324
S'IN'
p1325
S'B-PP'
p1326
g5
tp1327
a(S'interest'
p1328
S'interest'
p1329
S'NN'
p1330
S'B-NP'
p1331
g5
tp1332
a(g56
g56
g56
g5
g5
tp1333
a.