(lp0
(S'The'
p1
S'The'
p2
S'DT'
p3
S'B-NP'
p4
S'O'
p5
tp6
a(S'Treatment'
p7
S'Treatment'
p8
S'NN'
p9
S'I-NP'
p10
g5
tp11
a(S'of'
p12
S'of'
p13
S'IN'
p14
S'B-PP'
p15
g5
tp16
a(S'Lead-exposed'
p17
S'Lead-exposed'
p18
S'JJ'
p19
S'B-NP'
p20
g5
tp21
a(S'Children'
p22
S'Child'
p23
S'NNS'
p24
S'I-NP'
p25
g5
tp26
a(S'('
p27
g27
g27
g5
g5
tp28
a(S'TLC'
p29
S'TLC'
p30
S'NN'
p31
S'B-NP'
p32
g5
tp33
a(S')'
p34
g34
g34
g5
g5
tp35
a(S'trial'
p36
S'trial'
p37
S'NN'
p38
S'B-NP'
p39
g5
tp40
a(S':'
p41
g41
g41
g5
g5
tp42
a(S'design'
p43
S'design'
p44
S'NN'
p45
S'B-NP'
p46
g5
tp47
a(S'and'
p48
S'and'
p49
S'CC'
p50
S'I-NP'
p51
g5
tp52
a(S'recruitment'
p53
S'recruitment'
p54
S'NN'
p55
S'I-NP'
p56
g5
tp57
a(S'for'
p58
S'for'
p59
S'IN'
p60
S'B-PP'
p61
g5
tp62
a(S'a'
p63
g63
S'DT'
p64
S'B-NP'
p65
g5
tp66
a(S'study'
p67
S'study'
p68
S'NN'
p69
S'I-NP'
p70
g5
tp71
a(S'of'
p72
S'of'
p73
S'IN'
p74
S'B-PP'
p75
g5
tp76
a(S'the'
p77
S'the'
p78
S'DT'
p79
S'B-NP'
p80
g5
tp81
a(S'effect'
p82
S'effect'
p83
S'NN'
p84
S'I-NP'
p85
g5
tp86
a(S'of'
p87
S'of'
p88
S'IN'
p89
S'B-PP'
p90
g5
tp91
a(S'oral'
p92
S'oral'
p93
S'JJ'
p94
S'B-NP'
p95
g5
tp96
a(S'chelation'
p97
S'chelation'
p98
S'NN'
p99
S'I-NP'
p100
g5
tp101
a(S'on'
p102
S'on'
p103
S'IN'
p104
S'B-PP'
p105
g5
tp106
a(S'growth'
p107
S'growth'
p108
S'NN'
p109
S'B-NP'
p110
g5
tp111
a(S'and'
p112
S'and'
p113
S'CC'
p114
S'I-NP'
p115
g5
tp116
a(S'development'
p117
S'development'
p118
S'NN'
p119
S'I-NP'
p120
g5
tp121
a(S'in'
p122
S'in'
p123
S'IN'
p124
S'B-PP'
p125
g5
tp126
a(S'toddlers'
p127
S'toddler'
p128
S'NNS'
p129
S'B-NP'
p130
g5
tp131
a(S'.'
p132
g132
g132
g5
g5
tp133
a(S'Exposure'
p134
S'Exposure'
p135
S'NN'
p136
S'B-NP'
p137
g5
tp138
a(S'to'
p139
S'to'
p140
S'TO'
p141
S'B-VP'
p142
g5
tp143
a(S'lead'
p144
S'lead'
p145
S'VB'
p146
S'I-VP'
p147
g5
tp148
a(S'impairs'
p149
S'impair'
p150
S'NNS'
p151
S'B-NP'
p152
g5
tp153
a(S'cognitive'
p154
S'cognitive'
p155
S'JJ'
p156
S'B-NP'
p157
g5
tp158
a(S'development'
p159
S'development'
p160
S'NN'
p161
S'I-NP'
p162
g5
tp163
a(S'in'
p164
S'in'
p165
S'IN'
p166
S'B-PP'
p167
g5
tp168
a(S'young'
p169
S'young'
p170
S'JJ'
p171
S'B-NP'
p172
g5
tp173
a(S'children'
p174
S'child'
p175
S'NNS'
p176
S'I-NP'
p177
g5
tp178
a(S','
p179
g179
g179
g5
g5
tp180
a(S'but'
p181
S'but'
p182
S'CC'
p183
g5
g5
tp184
a(S'the'
p185
S'the'
p186
S'DT'
p187
S'B-NP'
p188
g5
tp189
a(S'benefits'
p190
S'benefit'
p191
S'NNS'
p192
S'I-NP'
p193
g5
tp194
a(S'of'
p195
S'of'
p196
S'IN'
p197
S'B-PP'
p198
g5
tp199
a(S'lowering'
p200
S'lower'
p201
S'VBG'
p202
S'B-VP'
p203
g5
tp204
a(S'blood'
p205
S'blood'
p206
S'NN'
p207
S'B-NP'
p208
g5
tp209
a(S'lead'
p210
S'lead'
p211
S'NN'
p212
S'I-NP'
p213
g5
tp214
a(S'pharmacologically'
p215
S'pharmacologically'
p216
S'RB'
p217
S'B-ADVP'
p218
g5
tp219
a(S'are'
p220
S'be'
p221
S'VBP'
p222
S'B-VP'
p223
g5
tp224
a(S'not'
p225
S'not'
p226
S'RB'
p227
S'I-VP'
p228
g5
tp229
a(S'clear.'
p230
S'clear.'
p231
S'VB'
p232
S'I-VP'
p233
g5
tp234
a(S'This'
p235
S'This'
p236
S'DT'
p237
S'B-NP'
p238
g5
tp239
a(S'report'
p240
S'report'
p241
S'NN'
p242
S'I-NP'
p243
g5
tp244
a(S'describes'
p245
S'describe'
p246
S'VBZ'
p247
S'B-VP'
p248
g5
tp249
a(S'the'
p250
S'the'
p251
S'DT'
p252
S'B-NP'
p253
g5
tp254
a(S'design'
p255
S'design'
p256
S'NN'
p257
S'I-NP'
p258
g5
tp259
a(g179
g179
g179
S'I-NP'
p260
g5
tp261
a(S'recruitment'
p262
S'recruitment'
p263
S'NN'
p264
S'I-NP'
p265
g5
tp266
a(g179
g179
g179
S'I-NP'
p267
g5
tp268
a(S'enrolment'
p269
S'enrolment'
p270
S'NN'
p271
S'I-NP'
p272
g5
tp273
a(S'and'
p274
S'and'
p275
S'CC'
p276
S'I-NP'
p277
g5
tp278
a(S'baseline'
p279
S'baseline'
p280
S'NN'
p281
S'I-NP'
p282
g5
tp283
a(S'results'
p284
S'result'
p285
S'NNS'
p286
S'I-NP'
p287
g5
tp288
a(S'of'
p289
S'of'
p290
S'IN'
p291
S'B-PP'
p292
g5
tp293
a(S'the'
p294
S'the'
p295
S'DT'
p296
S'B-NP'
p297
g5
tp298
a(S'Treatment'
p299
S'Treatment'
p300
S'NN'
p301
S'I-NP'
p302
g5
tp303
a(S'of'
p304
S'of'
p305
S'IN'
p306
S'B-PP'
p307
g5
tp308
a(S'Lead-Exposed'
p309
S'Lead-Exposed'
p310
S'JJ'
p311
S'B-NP'
p312
g5
tp313
a(S'Children'
p314
S'Child'
p315
S'NNS'
p316
S'I-NP'
p317
g5
tp318
a(g27
g27
g27
g5
g5
tp319
a(S'TLC'
p320
S'TLC'
p321
S'NN'
p322
S'B-NP'
p323
g5
tp324
a(g34
g34
g34
g5
g5
tp325
a(S'trial'
p326
S'trial'
p327
S'NN'
p328
S'B-NP'
p329
g5
tp330
a(g179
g179
g179
g5
g5
tp331
a(g63
g63
S'DT'
p332
S'B-NP'
p333
g5
tp334
a(S'randomised'
p335
S'randomise'
p336
S'VBN'
p337
S'I-NP'
p338
g5
tp339
a(g179
g179
g179
S'I-NP'
p340
g5
tp341
a(S'multicentre'
p342
S'multicentre'
p343
S'JJ'
p344
S'I-NP'
p345
g5
tp346
a(g179
g179
g179
S'I-NP'
p347
g5
tp348
a(S'placebo-controlled'
p349
S'placebo-controlled'
p350
S'JJ'
p351
S'I-NP'
p352
g5
tp353
a(g179
g179
g179
S'I-NP'
p354
g5
tp355
a(S'double-blind'
p356
S'double-blind'
p357
S'JJ'
p358
S'I-NP'
p359
g5
tp360
a(S'clinical'
p361
S'clinical'
p362
S'JJ'
p363
S'I-NP'
p364
g5
tp365
a(S'trial'
p366
S'trial'
p367
S'NN'
p368
S'I-NP'
p369
g5
tp370
a(S'of'
p371
S'of'
p372
S'IN'
p373
S'B-PP'
p374
g5
tp375
a(S'the'
p376
S'the'
p377
S'DT'
p378
S'B-NP'
p379
g5
tp380
a(S'effects'
p381
S'effect'
p382
S'NNS'
p383
S'I-NP'
p384
g5
tp385
a(S'of'
p386
S'of'
p387
S'IN'
p388
S'B-PP'
p389
g5
tp390
a(S'treating'
p391
S'treat'
p392
S'VBG'
p393
S'B-VP'
p394
g5
tp395
a(S'lead-exposed'
p396
S'lead-exposed'
p397
S'JJ'
p398
S'B-NP'
p399
g5
tp400
a(S'children'
p401
S'child'
p402
S'NNS'
p403
S'I-NP'
p404
g5
tp405
a(S'with'
p406
S'with'
p407
S'IN'
p408
S'B-PP'
p409
g5
tp410
a(S'succimer'
p411
S'succimer'
p412
S'NN'
p413
S'B-NP'
p414
g5
tp415
a(g179
g179
g179
g5
g5
tp416
a(g63
g63
S'DT'
p417
S'B-NP'
p418
g5
tp419
a(S'drug'
p420
S'drug'
p421
S'NN'
p422
S'I-NP'
p423
g5
tp424
a(S'that'
p425
S'that'
p426
S'WDT'
p427
S'B-NP'
p428
g5
tp429
a(S'enhances'
p430
S'enhance'
p431
S'VBZ'
p432
S'B-VP'
p433
g5
tp434
a(S'urinary'
p435
S'urinary'
p436
S'JJ'
p437
S'B-NP'
p438
g5
tp439
a(S'excretion'
p440
S'excretion'
p441
S'NN'
p442
S'I-NP'
p443
g5
tp444
a(S'of'
p445
S'of'
p446
S'IN'
p447
S'B-PP'
p448
g5
tp449
a(S'lead'
p450
S'lead'
p451
S'NN'
p452
S'B-NP'
p453
g5
tp454
a(g179
g179
g179
g5
g5
tp455
a(S'on'
p456
S'on'
p457
S'IN'
p458
S'B-PP'
p459
g5
tp460
a(S'cognitive'
p461
S'cognitive'
p462
S'JJ'
p463
S'B-NP'
p464
g5
tp465
a(g179
g179
g179
S'I-NP'
p466
g5
tp467
a(S'behavioural'
p468
S'behavioural'
p469
S'JJ'
p470
S'I-NP'
p471
g5
tp472
a(S'and'
p473
S'and'
p474
S'CC'
p475
S'I-NP'
p476
g5
tp477
a(S'physical'
p478
S'physical'
p479
S'JJ'
p480
S'I-NP'
p481
g5
tp482
a(S'development.'
p483
S'development.'
p484
S'NN'
p485
S'I-NP'
p486
g5
tp487
a(S'TLC'
p488
S'TLC'
p489
S'NN'
p490
S'I-NP'
p491
g5
tp492
a(S'clinical'
p493
S'clinical'
p494
S'JJ'
p495
S'B-NP'
p496
g5
tp497
a(S'sites'
p498
S'site'
p499
S'NNS'
p500
S'I-NP'
p501
g5
tp502
a(S'were'
p503
S'be'
p504
S'VBD'
p505
S'B-VP'
p506
g5
tp507
a(S'in'
p508
S'in'
p509
S'IN'
p510
S'B-PP'
p511
g5
tp512
a(S'Baltimore'
p513
S'Baltimore'
p514
S'NNP'
p515
S'B-NP'
p516
g5
tp517
a(g179
g179
g179
g5
g5
tp518
a(S'Cincinnati'
p519
S'Cincinnati'
p520
S'NNP'
p521
S'B-NP'
p522
g5
tp523
a(S'and'
p524
S'and'
p525
S'CC'
p526
g5
g5
tp527
a(S'Columbus'
p528
S'Columbus'
p529
S'NNP'
p530
S'B-NP'
p531
g5
tp532
a(g179
g179
g179
g5
g5
tp533
a(S'Newark'
p534
S'Newark'
p535
S'NNP'
p536
S'B-NP'
p537
g5
tp538
a(S'and'
p539
S'and'
p540
S'CC'
p541
g5
g5
tp542
a(S'Philadelphia.'
p543
S'Philadelphia.'
p544
S'NNP'
p545
S'B-NP'
p546
g5
tp547
a(S'Children'
p548
S'Children'
p549
S'NNP'
p550
S'I-NP'
p551
g5
tp552
a(S'were'
p553
S'be'
p554
S'VBD'
p555
S'B-VP'
p556
g5
tp557
a(S'eligible'
p558
S'eligible'
p559
S'JJ'
p560
S'B-ADJP'
p561
g5
tp562
a(S'for'
p563
S'for'
p564
S'IN'
p565
S'B-PP'
p566
g5
tp567
a(S'TLC'
p568
S'TLC'
p569
S'NN'
p570
S'B-NP'
p571
S'B-protein'
p572
tp573
a(S'if'
p574
S'if'
p575
S'IN'
p576
S'B-SBAR'
p577
g5
tp578
a(S'they'
p579
S'they'
p580
S'PRP'
p581
S'B-NP'
p582
g5
tp583
a(S'were'
p584
S'be'
p585
S'VBD'
p586
S'B-VP'
p587
g5
tp588
a(S'between'
p589
S'between'
p590
S'IN'
p591
S'B-PP'
p592
g5
tp593
a(S'12'
p594
S'12'
p595
S'CD'
p596
S'B-NP'
p597
g5
tp598
a(S'and'
p599
S'and'
p600
S'CC'
p601
S'I-NP'
p602
g5
tp603
a(S'33'
p604
S'33'
p605
S'CD'
p606
S'I-NP'
p607
g5
tp608
a(S'months'
p609
S'month'
p610
S'NNS'
p611
S'I-NP'
p612
g5
tp613
a(S'of'
p614
S'of'
p615
S'IN'
p616
S'B-PP'
p617
g5
tp618
a(S'age'
p619
S'age'
p620
S'NN'
p621
S'B-NP'
p622
g5
tp623
a(g179
g179
g179
g5
g5
tp624
a(S'had'
p625
S'have'
p626
S'VBD'
p627
S'B-VP'
p628
g5
tp629
a(g63
g63
S'DT'
p630
S'B-NP'
p631
g5
tp632
a(S'confirmed'
p633
S'confirm'
p634
S'VBN'
p635
S'I-NP'
p636
g5
tp637
a(S'blood'
p638
S'blood'
p639
S'NN'
p640
S'I-NP'
p641
g5
tp642
a(S'lead'
p643
S'lead'
p644
S'NN'
p645
S'I-NP'
p646
g5
tp647
a(S'concentration'
p648
S'concentration'
p649
S'NN'
p650
S'I-NP'
p651
g5
tp652
a(S'between'
p653
S'between'
p654
S'IN'
p655
S'B-PP'
p656
g5
tp657
a(S'20'
p658
S'20'
p659
S'CD'
p660
S'B-NP'
p661
g5
tp662
a(S'and'
p663
S'and'
p664
S'CC'
p665
S'I-NP'
p666
g5
tp667
a(S'44'
p668
S'44'
p669
S'CD'
p670
S'I-NP'
p671
g5
tp672
a(S'micrograms/dL'
p673
S'micrograms/dL'
p674
S'NN'
p675
S'I-NP'
p676
g5
tp677
a(S'and'
p678
S'and'
p679
S'CC'
p680
g5
g5
tp681
a(S'lived'
p682
S'live'
p683
S'VBD'
p684
S'B-VP'
p685
g5
tp686
a(S'in'
p687
S'in'
p688
S'IN'
p689
S'B-PP'
p690
g5
tp691
a(g63
g63
S'DT'
p692
S'B-NP'
p693
g5
tp694
a(S'residence'
p695
S'residence'
p696
S'NN'
p697
S'I-NP'
p698
g5
tp699
a(S'suitable'
p700
S'suitable'
p701
S'JJ'
p702
S'B-ADJP'
p703
g5
tp704
a(S'for'
p705
S'for'
p706
S'IN'
p707
S'B-PP'
p708
g5
tp709
a(S'lead'
p710
S'lead'
p711
S'NN'
p712
S'B-NP'
p713
g5
tp714
a(S'dust'
p715
S'dust'
p716
S'NN'
p717
S'I-NP'
p718
g5
tp719
a(S'reduction.'
p720
S'reduction.'
p721
S'NN'
p722
S'I-NP'
p723
g5
tp724
a(S'Randomised'
p725
S'Randomise'
p726
S'VBN'
p727
S'B-NP'
p728
g5
tp729
a(S'children'
p730
S'child'
p731
S'NNS'
p732
S'I-NP'
p733
g5
tp734
a(S'received'
p735
S'receive'
p736
S'VBD'
p737
S'B-VP'
p738
g5
tp739
a(S'up'
p740
S'up'
p741
S'RB'
p742
S'B-NP'
p743
g5
tp744
a(S'to'
p745
S'to'
p746
S'TO'
p747
S'I-NP'
p748
g5
tp749
a(S'three'
p750
S'three'
p751
S'CD'
p752
S'I-NP'
p753
g5
tp754
a(S'26-day'
p755
S'26-day'
p756
S'JJ'
p757
S'I-NP'
p758
g5
tp759
a(S'courses'
p760
S'course'
p761
S'NNS'
p762
S'I-NP'
p763
g5
tp764
a(S'of'
p765
S'of'
p766
S'IN'
p767
S'B-PP'
p768
g5
tp769
a(S'succimer'
p770
S'succimer'
p771
S'NN'
p772
S'B-NP'
p773
g5
tp774
a(S'or'
p775
S'or'
p776
S'CC'
p777
S'I-NP'
p778
g5
tp779
a(S'placebo'
p780
S'placebo'
p781
S'NN'
p782
S'I-NP'
p783
g5
tp784
a(g179
g179
g179
g5
g5
tp785
a(S'and'
p786
S'and'
p787
S'CC'
p788
g5
g5
tp789
a(S'were'
p790
S'be'
p791
S'VBD'
p792
S'B-VP'
p793
g5
tp794
a(S'then'
p795
S'then'
p796
S'RB'
p797
S'I-VP'
p798
g5
tp799
a(S'followed'
p800
S'follow'
p801
S'VBN'
p802
S'I-VP'
p803
g5
tp804
a(S'for'
p805
S'for'
p806
S'IN'
p807
S'B-PP'
p808
g5
tp809
a(S'3'
p810
g810
S'CD'
p811
S'B-NP'
p812
g5
tp813
a(S'years.'
p814
S'years.'
p815
S'NN'
p816
S'I-NP'
p817
g5
tp818
a(S'The'
p819
S'The'
p820
S'DT'
p821
S'B-NP'
p822
g5
tp823
a(S'study'
p824
S'study'
p825
S'NN'
p826
S'I-NP'
p827
g5
tp828
a(S'can'
p829
S'can'
p830
S'MD'
p831
S'B-VP'
p832
g5
tp833
a(S'detect'
p834
S'detect'
p835
S'VB'
p836
S'I-VP'
p837
g5
tp838
a(g63
g63
S'DT'
p839
S'B-NP'
p840
g5
tp841
a(S'three-point'
p842
S'three-point'
p843
S'JJ'
p844
S'I-NP'
p845
g5
tp846
a(S'difference'
p847
S'difference'
p848
S'NN'
p849
S'I-NP'
p850
g5
tp851
a(S'in'
p852
S'in'
p853
S'IN'
p854
S'B-PP'
p855
g5
tp856
a(S'full-scale'
p857
S'full-scale'
p858
S'JJ'
p859
S'B-NP'
p860
g5
tp861
a(S'IQ'
p862
S'IQ'
p863
S'NN'
p864
S'I-NP'
p865
g5
tp866
a(S'at'
p867
S'at'
p868
S'IN'
p869
S'B-PP'
p870
g5
tp871
a(S'3-year'
p872
S'3-year'
p873
S'JJ'
p874
S'B-NP'
p875
g5
tp876
a(S'follow-up.'
p877
S'follow-up.'
p878
S'JJ'
p879
S'I-NP'
p880
g5
tp881
a(S'Statistical'
p882
S'Statistical'
p883
S'JJ'
p884
S'I-NP'
p885
g5
tp886
a(S'power'
p887
S'power'
p888
S'NN'
p889
S'I-NP'
p890
g5
tp891
a(S'for'
p892
S'for'
p893
S'IN'
p894
S'B-PP'
p895
g5
tp896
a(S'the'
p897
S'the'
p898
S'DT'
p899
S'B-NP'
p900
g5
tp901
a(S'other'
p902
S'other'
p903
S'JJ'
p904
S'I-NP'
p905
g5
tp906
a(S'end'
p907
S'end'
p908
S'NN'
p909
S'I-NP'
p910
g5
tp911
a(S'points'
p912
S'point'
p913
S'NNS'
p914
S'I-NP'
p915
g5
tp916
a(S'is'
p917
S'be'
p918
S'VBZ'
p919
S'B-VP'
p920
g5
tp921
a(S'more'
p922
S'more'
p923
S'RBR'
p924
S'B-ADJP'
p925
g5
tp926
a(S'difficult'
p927
S'difficult'
p928
S'JJ'
p929
S'I-ADJP'
p930
g5
tp931
a(S'to'
p932
S'to'
p933
S'TO'
p934
S'B-VP'
p935
g5
tp936
a(S'estimate.'
p937
S'estimate.'
p938
S'VB'
p939
S'I-VP'
p940
g5
tp941
a(S'A'
p942
g942
S'DT'
p943
S'B-NP'
p944
g5
tp945
a(S'total'
p946
S'total'
p947
S'NN'
p948
S'I-NP'
p949
g5
tp950
a(S'of'
p951
S'of'
p952
S'IN'
p953
S'B-PP'
p954
g5
tp955
a(S'1854'
p956
S'1854'
p957
S'CD'
p958
S'B-NP'
p959
g5
tp960
a(S'children'
p961
S'child'
p962
S'NNS'
p963
S'I-NP'
p964
g5
tp965
a(S'were'
p966
S'be'
p967
S'VBD'
p968
S'B-VP'
p969
g5
tp970
a(S'evaluated'
p971
S'evaluate'
p972
S'VBN'
p973
S'I-VP'
p974
g5
tp975
a(S'and'
p976
S'and'
p977
S'CC'
p978
g5
g5
tp979
a(S'780'
p980
S'780'
p981
S'CD'
p982
S'B-NP'
p983
g5
tp984
a(S'children'
p985
S'child'
p986
S'NNS'
p987
S'I-NP'
p988
g5
tp989
a(S'were'
p990
S'be'
p991
S'VBD'
p992
S'B-VP'
p993
g5
tp994
a(S'randomised'
p995
S'randomise'
p996
S'VBN'
p997
S'I-VP'
p998
g5
tp999
a(S'between'
p1000
S'between'
p1001
S'IN'
p1002
S'B-PP'
p1003
g5
tp1004
a(S'August'
p1005
S'August'
p1006
S'NNP'
p1007
S'B-NP'
p1008
g5
tp1009
a(S'1994'
p1010
S'1994'
p1011
S'CD'
p1012
S'I-NP'
p1013
g5
tp1014
a(S'and'
p1015
S'and'
p1016
S'CC'
p1017
g5
g5
tp1018
a(S'January'
p1019
S'January'
p1020
S'NNP'
p1021
S'B-NP'
p1022
g5
tp1023
a(S'1997.'
p1024
S'1997.'
p1025
S'CD'
p1026
S'I-NP'
p1027
g5
tp1028
a(S'The'
p1029
S'The'
p1030
S'DT'
p1031
S'B-NP'
p1032
g5
tp1033
a(S'mean'
p1034
S'mean'
p1035
S'JJ'
p1036
S'I-NP'
p1037
g5
tp1038
a(S'age'
p1039
S'age'
p1040
S'NN'
p1041
S'I-NP'
p1042
g5
tp1043
a(S'of'
p1044
S'of'
p1045
S'IN'
p1046
S'B-PP'
p1047
g5
tp1048
a(S'randomised'
p1049
S'randomise'
p1050
S'VBN'
p1051
S'B-NP'
p1052
g5
tp1053
a(S'children'
p1054
S'child'
p1055
S'NNS'
p1056
S'I-NP'
p1057
g5
tp1058
a(S'was'
p1059
S'be'
p1060
S'VBD'
p1061
S'B-VP'
p1062
g5
tp1063
a(S'24'
p1064
S'24'
p1065
S'CD'
p1066
S'B-NP'
p1067
g5
tp1068
a(S'months'
p1069
S'month'
p1070
S'NNS'
p1071
S'I-NP'
p1072
g5
tp1073
a(S'and'
p1074
S'and'
p1075
S'CC'
p1076
g5
g5
tp1077
a(S'mean'
p1078
S'mean'
p1079
S'JJ'
p1080
S'B-NP'
p1081
g5
tp1082
a(S'blood'
p1083
S'blood'
p1084
S'NN'
p1085
S'I-NP'
p1086
g5
tp1087
a(S'lead'
p1088
S'lead'
p1089
S'NN'
p1090
S'I-NP'
p1091
g5
tp1092
a(S'level'
p1093
S'level'
p1094
S'NN'
p1095
S'I-NP'
p1096
g5
tp1097
a(S'26'
p1098
S'26'
p1099
S'CD'
p1100
S'I-NP'
p1101
g5
tp1102
a(S'micrograms/dL.'
p1103
S'micrograms/dL.'
p1104
S'NN'
p1105
S'I-NP'
p1106
g5
tp1107
a(S'Three-quarters'
p1108
S'Three-quarter'
p1109
S'NNS'
p1110
S'I-NP'
p1111
g5
tp1112
a(S'were'
p1113
S'be'
p1114
S'VBD'
p1115
S'B-VP'
p1116
g5
tp1117
a(S'African-American.'
p1118
S'African-American.'
p1119
S'JJ'
p1120
S'B-ADJP'
p1121
g5
tp1122
a(S'Most'
p1123
S'Most'
p1124
S'JJS'
p1125
S'B-NP'
p1126
g5
tp1127
a(S'children'
p1128
S'child'
p1129
S'NNS'
p1130
S'I-NP'
p1131
g5
tp1132
a(S'had'
p1133
S'have'
p1134
S'VBD'
p1135
S'B-VP'
p1136
g5
tp1137
a(S'poor'
p1138
S'poor'
p1139
S'JJ'
p1140
S'B-NP'
p1141
g5
tp1142
a(g179
g179
g179
S'I-NP'
p1143
g5
tp1144
a(S'single'
p1145
S'single'
p1146
S'JJ'
p1147
S'I-NP'
p1148
g5
tp1149
a(S'mothers'
p1150
S'mother'
p1151
S'NNS'
p1152
S'I-NP'
p1153
g5
tp1154
a(S'who'
p1155
S'who'
p1156
S'WP'
p1157
S'B-NP'
p1158
g5
tp1159
a(S'had'
p1160
S'have'
p1161
S'VBD'
p1162
S'B-VP'
p1163
g5
tp1164
a(S'completed'
p1165
S'complete'
p1166
S'VBN'
p1167
S'I-VP'
p1168
g5
tp1169
a(S'12'
p1170
S'12'
p1171
S'CD'
p1172
S'B-NP'
p1173
g5
tp1174
a(S'or'
p1175
S'or'
p1176
S'CC'
p1177
g5
g5
tp1178
a(S'fewer'
p1179
S'few'
p1180
S'JJR'
p1181
S'B-NP'
p1182
g5
tp1183
a(S'years'
p1184
S'year'
p1185
S'NNS'
p1186
S'I-NP'
p1187
g5
tp1188
a(S'of'
p1189
S'of'
p1190
S'IN'
p1191
S'B-PP'
p1192
g5
tp1193
a(S'school'
p1194
S'school'
p1195
S'NN'
p1196
S'B-NP'
p1197
g5
tp1198
a(S'and'
p1199
S'and'
p1200
S'CC'
p1201
g5
g5
tp1202
a(S'who'
p1203
S'who'
p1204
S'WP'
p1205
S'B-NP'
p1206
g5
tp1207
a(S'lived'
p1208
S'live'
p1209
S'VBD'
p1210
S'B-VP'
p1211
g5
tp1212
a(S'in'
p1213
S'in'
p1214
S'IN'
p1215
S'B-PP'
p1216
g5
tp1217
a(S'older'
p1218
S'old'
p1219
S'JJR'
p1220
S'B-NP'
p1221
g5
tp1222
a(g179
g179
g179
S'I-NP'
p1223
g5
tp1224
a(S'poorly'
p1225
S'poorly'
p1226
S'RB'
p1227
S'I-NP'
p1228
g5
tp1229
a(S'maintained'
p1230
S'maintain'
p1231
S'VBN'
p1232
S'I-NP'
p1233
g5
tp1234
a(S'residences'
p1235
S'residence'
p1236
S'NNS'
p1237
S'I-NP'
p1238
g5
tp1239
a(g132
g132
g132
g5
g5
tp1240
a.