(lp0
(S'Remote'
p1
S'Remote'
p2
S'JJ'
p3
S'B-NP'
p4
S'O'
p5
tp6
a(S'ischaemic'
p7
S'ischaemic'
p8
S'JJ'
p9
S'I-NP'
p10
g5
tp11
a(S'conditioning'
p12
S'conditioning'
p13
S'NN'
p14
S'I-NP'
p15
g5
tp16
a(S'before'
p17
S'before'
p18
S'IN'
p19
S'B-PP'
p20
g5
tp21
a(S'hospital'
p22
S'hospital'
p23
S'NN'
p24
S'B-NP'
p25
g5
tp26
a(S'admission'
p27
S'admission'
p28
S'NN'
p29
S'I-NP'
p30
g5
tp31
a(S','
p32
g32
g32
g5
g5
tp33
a(S'as'
p34
S'as'
p35
S'IN'
p36
S'B-PP'
p37
g5
tp38
a(S'a'
p39
g39
S'DT'
p40
S'B-NP'
p41
g5
tp42
a(S'complement'
p43
S'complement'
p44
S'NN'
p45
S'I-NP'
p46
g5
tp47
a(S'to'
p48
S'to'
p49
S'TO'
p50
S'B-PP'
p51
g5
tp52
a(S'angioplasty'
p53
S'angioplasty'
p54
S'JJ'
p55
S'B-ADJP'
p56
g5
tp57
a(g32
g32
g32
g5
g5
tp58
a(S'and'
p59
S'and'
p60
S'CC'
p61
g5
g5
tp62
a(S'effect'
p63
S'effect'
p64
S'NN'
p65
S'B-NP'
p66
g5
tp67
a(S'on'
p68
S'on'
p69
S'IN'
p70
S'B-PP'
p71
g5
tp72
a(S'myocardial'
p73
S'myocardial'
p74
S'JJ'
p75
S'B-NP'
p76
g5
tp77
a(S'salvage'
p78
S'salvage'
p79
S'NN'
p80
S'I-NP'
p81
g5
tp82
a(S'in'
p83
S'in'
p84
S'IN'
p85
S'B-PP'
p86
g5
tp87
a(S'patients'
p88
S'patient'
p89
S'NNS'
p90
S'B-NP'
p91
g5
tp92
a(S'with'
p93
S'with'
p94
S'IN'
p95
S'B-PP'
p96
g5
tp97
a(S'acute'
p98
S'acute'
p99
S'JJ'
p100
S'B-NP'
p101
g5
tp102
a(S'myocardial'
p103
S'myocardial'
p104
S'JJ'
p105
S'I-NP'
p106
g5
tp107
a(S'infarction'
p108
S'infarction'
p109
S'NN'
p110
S'I-NP'
p111
g5
tp112
a(S':'
p113
g113
g113
g5
g5
tp114
a(g39
g39
S'DT'
p115
S'B-NP'
p116
g5
tp117
a(S'randomised'
p118
S'randomise'
p119
S'VBN'
p120
S'I-NP'
p121
g5
tp122
a(S'trial'
p123
S'trial'
p124
S'NN'
p125
S'I-NP'
p126
g5
tp127
a(S'.'
p128
g128
g128
g5
g5
tp129
a(S'BACKGROUND'
p130
S'BACKGROUND'
p131
S'NN'
p132
S'B-NP'
p133
g5
tp134
a(S'Remote'
p135
S'Remote'
p136
S'JJ'
p137
S'I-NP'
p138
g5
tp139
a(S'ischaemic'
p140
S'ischaemic'
p141
S'JJ'
p142
S'I-NP'
p143
g5
tp144
a(S'preconditioning'
p145
S'preconditioning'
p146
S'NN'
p147
S'I-NP'
p148
g5
tp149
a(S'attenuates'
p150
S'attenuate'
p151
S'VBZ'
p152
S'B-VP'
p153
g5
tp154
a(S'cardiac'
p155
S'cardiac'
p156
S'JJ'
p157
S'B-NP'
p158
g5
tp159
a(S'injury'
p160
S'injury'
p161
S'NN'
p162
S'I-NP'
p163
g5
tp164
a(S'at'
p165
S'at'
p166
S'IN'
p167
S'B-PP'
p168
g5
tp169
a(S'elective'
p170
S'elective'
p171
S'JJ'
p172
S'B-NP'
p173
g5
tp174
a(S'surgery'
p175
S'surgery'
p176
S'NN'
p177
S'I-NP'
p178
g5
tp179
a(S'and'
p180
S'and'
p181
S'CC'
p182
S'I-NP'
p183
g5
tp184
a(S'angioplasty.'
p185
S'angioplasty.'
p186
S'NN'
p187
S'I-NP'
p188
g5
tp189
a(S'We'
p190
S'We'
p191
S'PRP'
p192
S'B-NP'
p193
g5
tp194
a(S'tested'
p195
S'test'
p196
S'VBD'
p197
S'B-VP'
p198
g5
tp199
a(S'the'
p200
S'the'
p201
S'DT'
p202
S'B-NP'
p203
g5
tp204
a(S'hypothesis'
p205
S'hypothesis'
p206
S'NN'
p207
S'I-NP'
p208
g5
tp209
a(S'that'
p210
S'that'
p211
S'IN'
p212
S'B-SBAR'
p213
g5
tp214
a(S'remote'
p215
S'remote'
p216
S'JJ'
p217
S'B-NP'
p218
g5
tp219
a(S'ischaemic'
p220
S'ischaemic'
p221
S'JJ'
p222
S'I-NP'
p223
g5
tp224
a(S'conditioning'
p225
S'conditioning'
p226
S'NN'
p227
S'I-NP'
p228
g5
tp229
a(S'during'
p230
S'during'
p231
S'IN'
p232
S'B-PP'
p233
g5
tp234
a(S'evolving'
p235
S'evolve'
p236
S'VBG'
p237
S'B-VP'
p238
g5
tp239
a(S'ST-elevation'
p240
S'ST-elevation'
p241
S'NN'
p242
S'B-NP'
p243
g5
tp244
a(S'myocardial'
p245
S'myocardial'
p246
S'JJ'
p247
S'I-NP'
p248
g5
tp249
a(S'infarction'
p250
S'infarction'
p251
S'NN'
p252
S'I-NP'
p253
g5
tp254
a(g32
g32
g32
g5
g5
tp255
a(S'and'
p256
S'and'
p257
S'CC'
p258
g5
g5
tp259
a(S'done'
p260
S'do'
p261
S'VBN'
p262
S'B-VP'
p263
g5
tp264
a(S'before'
p265
S'before'
p266
S'IN'
p267
S'B-PP'
p268
g5
tp269
a(S'primary'
p270
S'primary'
p271
S'JJ'
p272
S'B-NP'
p273
g5
tp274
a(S'percutaneous'
p275
S'percutaneous'
p276
S'JJ'
p277
S'I-NP'
p278
g5
tp279
a(S'coronary'
p280
S'coronary'
p281
S'JJ'
p282
S'I-NP'
p283
g5
tp284
a(S'intervention'
p285
S'intervention'
p286
S'NN'
p287
S'I-NP'
p288
g5
tp289
a(g32
g32
g32
g5
g5
tp290
a(S'increases'
p291
S'increase'
p292
S'VBZ'
p293
S'B-VP'
p294
g5
tp295
a(S'myocardial'
p296
S'myocardial'
p297
S'JJ'
p298
S'B-NP'
p299
g5
tp300
a(S'salvage'
p301
S'salvage'
p302
S'NN'
p303
S'I-NP'
p304
g5
tp305
a(g128
g128
g128
g5
g5
tp306
a(S'METHODS'
p307
S'METHODS'
p308
S'NNS'
p309
S'B-NP'
p310
g5
tp311
a(S'333'
p312
S'333'
p313
S'CD'
p314
S'B-NP'
p315
g5
tp316
a(S'consecutive'
p317
S'consecutive'
p318
S'JJ'
p319
S'I-NP'
p320
g5
tp321
a(S'adult'
p322
S'adult'
p323
S'JJ'
p324
S'I-NP'
p325
g5
tp326
a(S'patients'
p327
S'patient'
p328
S'NNS'
p329
S'I-NP'
p330
g5
tp331
a(S'with'
p332
S'with'
p333
S'IN'
p334
S'B-PP'
p335
g5
tp336
a(g39
g39
S'DT'
p337
S'B-NP'
p338
g5
tp339
a(S'suspected'
p340
S'suspect'
p341
S'VBN'
p342
S'I-NP'
p343
g5
tp344
a(S'first'
p345
S'first'
p346
S'JJ'
p347
S'I-NP'
p348
g5
tp349
a(S'acute'
p350
S'acute'
p351
S'JJ'
p352
S'I-NP'
p353
g5
tp354
a(S'myocardial'
p355
S'myocardial'
p356
S'JJ'
p357
S'I-NP'
p358
g5
tp359
a(S'infarction'
p360
S'infarction'
p361
S'NN'
p362
S'I-NP'
p363
g5
tp364
a(S'were'
p365
S'be'
p366
S'VBD'
p367
S'B-VP'
p368
g5
tp369
a(S'randomly'
p370
S'randomly'
p371
S'RB'
p372
S'I-VP'
p373
g5
tp374
a(S'assigned'
p375
S'assign'
p376
S'VBN'
p377
S'I-VP'
p378
g5
tp379
a(S'in'
p380
S'in'
p381
S'IN'
p382
S'B-PP'
p383
g5
tp384
a(g39
g39
S'DT'
p385
S'B-NP'
p386
g5
tp387
a(S'1'
p388
g388
S'CD'
p389
S'I-NP'
p390
g5
tp391
a(g113
g113
S'SYM'
p392
S'I-NP'
p393
g5
tp394
a(g388
g388
S'CD'
p395
S'I-NP'
p396
g5
tp397
a(S'ratio'
p398
S'ratio'
p399
S'NN'
p400
S'I-NP'
p401
g5
tp402
a(S'by'
p403
S'by'
p404
S'IN'
p405
S'B-PP'
p406
g5
tp407
a(S'computerised'
p408
S'computerised'
p409
S'JJ'
p410
S'B-NP'
p411
g5
tp412
a(S'block'
p413
S'block'
p414
S'NN'
p415
S'I-NP'
p416
g5
tp417
a(S'randomisation'
p418
S'randomisation'
p419
S'NN'
p420
S'I-NP'
p421
g5
tp422
a(S'to'
p423
S'to'
p424
S'TO'
p425
S'B-VP'
p426
g5
tp427
a(S'receive'
p428
S'receive'
p429
S'VB'
p430
S'I-VP'
p431
g5
tp432
a(S'primary'
p433
S'primary'
p434
S'JJ'
p435
S'B-NP'
p436
g5
tp437
a(S'percutaneous'
p438
S'percutaneous'
p439
S'JJ'
p440
S'I-NP'
p441
g5
tp442
a(S'coronary'
p443
S'coronary'
p444
S'JJ'
p445
S'I-NP'
p446
g5
tp447
a(S'intervention'
p448
S'intervention'
p449
S'NN'
p450
S'I-NP'
p451
g5
tp452
a(S'with'
p453
S'with'
p454
S'IN'
p455
S'B-PP'
p456
g5
tp457
a(S'('
p458
g458
g458
g5
g5
tp459
a(S'n=166'
p460
S'n=166'
p461
S'CD'
p462
S'B-NP'
p463
g5
tp464
a(S'patients'
p465
S'patient'
p466
S'NNS'
p467
S'I-NP'
p468
g5
tp469
a(S')'
p470
g470
g470
g5
g5
tp471
a(S'versus'
p472
S'versus'
p473
S'CC'
p474
g5
g5
tp475
a(S'without'
p476
S'without'
p477
S'IN'
p478
S'B-PP'
p479
g5
tp480
a(g458
g458
g458
g5
g5
tp481
a(S'n=167'
p482
S'n=167'
p483
S'NN'
p484
S'B-NP'
p485
g5
tp486
a(g470
g470
g470
g5
g5
tp487
a(S'remote'
p488
S'remote'
p489
S'JJ'
p490
S'B-NP'
p491
g5
tp492
a(S'conditioning'
p493
S'conditioning'
p494
S'NN'
p495
S'I-NP'
p496
g5
tp497
a(g458
g458
g458
g5
g5
tp498
a(S'intermittent'
p499
S'intermittent'
p500
S'JJ'
p501
S'B-NP'
p502
g5
tp503
a(S'arm'
p504
S'arm'
p505
S'NN'
p506
S'I-NP'
p507
g5
tp508
a(S'ischaemia'
p509
S'ischaemia'
p510
S'NN'
p511
S'I-NP'
p512
g5
tp513
a(S'through'
p514
S'through'
p515
S'IN'
p516
S'B-PP'
p517
g5
tp518
a(S'four'
p519
S'four'
p520
S'CD'
p521
S'B-NP'
p522
g5
tp523
a(S'cycles'
p524
S'cycle'
p525
S'NNS'
p526
S'I-NP'
p527
g5
tp528
a(S'of'
p529
S'of'
p530
S'IN'
p531
S'B-PP'
p532
g5
tp533
a(S'5-min'
p534
S'5-min'
p535
S'NN'
p536
S'B-NP'
p537
g5
tp538
a(S'inflation'
p539
S'inflation'
p540
S'NN'
p541
S'I-NP'
p542
g5
tp543
a(S'and'
p544
S'and'
p545
S'CC'
p546
g5
g5
tp547
a(S'5-min'
p548
S'5-min'
p549
S'NN'
p550
S'B-NP'
p551
g5
tp552
a(S'deflation'
p553
S'deflation'
p554
S'NN'
p555
S'I-NP'
p556
g5
tp557
a(S'of'
p558
S'of'
p559
S'IN'
p560
S'B-PP'
p561
g5
tp562
a(g39
g39
S'DT'
p563
S'B-NP'
p564
g5
tp565
a(S'blood-pressure'
p566
S'blood-pressure'
p567
S'JJ'
p568
S'I-NP'
p569
g5
tp570
a(S'cuff'
p571
S'cuff'
p572
S'NN'
p573
S'I-NP'
p574
g5
tp575
a(g470
g470
g470
g5
g5
tp576
a(g128
g128
g128
g5
g5
tp577
a(S'Allocation'
p578
S'Allocation'
p579
S'NN'
p580
S'B-NP'
p581
g5
tp582
a(S'was'
p583
S'be'
p584
S'VBD'
p585
S'B-VP'
p586
g5
tp587
a(S'concealed'
p588
S'conceal'
p589
S'VBN'
p590
S'I-VP'
p591
g5
tp592
a(S'with'
p593
S'with'
p594
S'IN'
p595
S'B-PP'
p596
g5
tp597
a(S'opaque'
p598
S'opaque'
p599
S'JJ'
p600
S'B-NP'
p601
g5
tp602
a(S'sealed'
p603
S'seal'
p604
S'VBD'
p605
S'B-VP'
p606
g5
tp607
a(S'envelopes.'
p608
S'envelopes.'
p609
S'FW'
p610
S'B-NP'
p611
g5
tp612
a(S'Patients'
p613
S'Patient'
p614
S'NNPS'
p615
S'I-NP'
p616
g5
tp617
a(S'received'
p618
S'receive'
p619
S'VBD'
p620
S'B-VP'
p621
g5
tp622
a(S'remote'
p623
S'remote'
p624
S'JJ'
p625
S'B-NP'
p626
g5
tp627
a(S'conditioning'
p628
S'conditioning'
p629
S'NN'
p630
S'I-NP'
p631
g5
tp632
a(S'during'
p633
S'during'
p634
S'IN'
p635
S'B-PP'
p636
g5
tp637
a(S'transport'
p638
S'transport'
p639
S'NN'
p640
S'B-NP'
p641
g5
tp642
a(S'to'
p643
S'to'
p644
S'TO'
p645
S'B-PP'
p646
g5
tp647
a(S'hospital'
p648
S'hospital'
p649
S'NN'
p650
S'B-NP'
p651
g5
tp652
a(g32
g32
g32
g5
g5
tp653
a(S'and'
p654
S'and'
p655
S'CC'
p656
g5
g5
tp657
a(S'primary'
p658
S'primary'
p659
S'JJ'
p660
S'B-NP'
p661
g5
tp662
a(S'percutaneous'
p663
S'percutaneous'
p664
S'JJ'
p665
S'I-NP'
p666
g5
tp667
a(S'coronary'
p668
S'coronary'
p669
S'JJ'
p670
S'I-NP'
p671
g5
tp672
a(S'intervention'
p673
S'intervention'
p674
S'NN'
p675
S'I-NP'
p676
g5
tp677
a(S'in'
p678
S'in'
p679
S'IN'
p680
S'B-PP'
p681
g5
tp682
a(S'hospital.'
p683
S'hospital.'
p684
S'NN'
p685
S'B-NP'
p686
g5
tp687
a(S'The'
p688
S'The'
p689
S'DT'
p690
S'B-NP'
p691
g5
tp692
a(S'primary'
p693
S'primary'
p694
S'JJ'
p695
S'I-NP'
p696
g5
tp697
a(S'endpoint'
p698
S'endpoint'
p699
S'NN'
p700
S'I-NP'
p701
g5
tp702
a(S'was'
p703
S'be'
p704
S'VBD'
p705
S'B-VP'
p706
g5
tp707
a(S'myocardial'
p708
S'myocardial'
p709
S'JJ'
p710
S'B-NP'
p711
g5
tp712
a(S'salvage'
p713
S'salvage'
p714
S'NN'
p715
S'I-NP'
p716
g5
tp717
a(S'index'
p718
S'index'
p719
S'NN'
p720
S'I-NP'
p721
g5
tp722
a(S'at'
p723
S'at'
p724
S'IN'
p725
S'B-PP'
p726
g5
tp727
a(S'30'
p728
S'30'
p729
S'CD'
p730
S'B-NP'
p731
g5
tp732
a(S'days'
p733
S'day'
p734
S'NNS'
p735
S'I-NP'
p736
g5
tp737
a(S'after'
p738
S'after'
p739
S'IN'
p740
S'B-PP'
p741
g5
tp742
a(S'primary'
p743
S'primary'
p744
S'JJ'
p745
S'B-NP'
p746
g5
tp747
a(S'percutaneous'
p748
S'percutaneous'
p749
S'JJ'
p750
S'I-NP'
p751
g5
tp752
a(S'coronary'
p753
S'coronary'
p754
S'JJ'
p755
S'I-NP'
p756
g5
tp757
a(S'intervention'
p758
S'intervention'
p759
S'NN'
p760
S'I-NP'
p761
g5
tp762
a(g32
g32
g32
g5
g5
tp763
a(S'measured'
p764
S'measure'
p765
S'VBN'
p766
S'B-VP'
p767
g5
tp768
a(S'by'
p769
S'by'
p770
S'IN'
p771
S'B-PP'
p772
g5
tp773
a(S'myocardial'
p774
S'myocardial'
p775
S'JJ'
p776
S'B-NP'
p777
g5
tp778
a(S'perfusion'
p779
S'perfusion'
p780
S'NN'
p781
S'I-NP'
p782
g5
tp783
a(S'imaging'
p784
S'imaging'
p785
S'NN'
p786
S'I-NP'
p787
g5
tp788
a(S'as'
p789
S'as'
p790
S'IN'
p791
S'B-PP'
p792
g5
tp793
a(S'the'
p794
S'the'
p795
S'DT'
p796
S'B-NP'
p797
g5
tp798
a(S'proportion'
p799
S'proportion'
p800
S'NN'
p801
S'I-NP'
p802
g5
tp803
a(S'of'
p804
S'of'
p805
S'IN'
p806
S'B-PP'
p807
g5
tp808
a(S'the'
p809
S'the'
p810
S'DT'
p811
S'B-NP'
p812
g5
tp813
a(S'area'
p814
S'area'
p815
S'NN'
p816
S'I-NP'
p817
g5
tp818
a(S'at'
p819
S'at'
p820
S'IN'
p821
S'B-PP'
p822
g5
tp823
a(S'risk'
p824
S'risk'
p825
S'NN'
p826
S'B-NP'
p827
g5
tp828
a(S'salvaged'
p829
S'salvage'
p830
S'VBN'
p831
S'B-VP'
p832
g5
tp833
a(S'by'
p834
S'by'
p835
S'IN'
p836
S'B-PP'
p837
g5
tp838
a(S'treatment'
p839
S'treatment'
p840
S'NN'
p841
S'B-NP'
p842
g5
tp843
a(S';'
p844
g844
g113
g5
g5
tp845
a(S'analysis'
p846
S'analysis'
p847
S'NN'
p848
S'B-NP'
p849
g5
tp850
a(S'was'
p851
S'be'
p852
S'VBD'
p853
S'B-VP'
p854
g5
tp855
a(S'per'
p856
S'per'
p857
S'IN'
p858
S'B-PP'
p859
g5
tp860
a(S'protocol.'
p861
S'protocol.'
p862
S'NN'
p863
S'B-NP'
p864
g5
tp865
a(S'This'
p866
S'This'
p867
S'DT'
p868
S'B-NP'
p869
g5
tp870
a(S'study'
p871
S'study'
p872
S'NN'
p873
S'I-NP'
p874
g5
tp875
a(S'is'
p876
S'be'
p877
S'VBZ'
p878
S'B-VP'
p879
g5
tp880
a(S'registered'
p881
S'register'
p882
S'VBN'
p883
S'I-VP'
p884
g5
tp885
a(S'with'
p886
S'with'
p887
S'IN'
p888
S'B-PP'
p889
g5
tp890
a(S'ClinicalTrials.gov'
p891
S'ClinicalTrials.gov'
p892
S'NN'
p893
S'B-NP'
p894
g5
tp895
a(g32
g32
g32
g5
g5
tp896
a(S'number'
p897
S'number'
p898
S'NN'
p899
S'B-NP'
p900
g5
tp901
a(S'NCT00435266'
p902
S'NCT00435266'
p903
S'NN'
p904
S'I-NP'
p905
g5
tp906
a(g128
g128
g128
g5
g5
tp907
a(S'FINDINGS'
p908
S'FINDINGS'
p909
S'NN'
p910
S'B-NP'
p911
g5
tp912
a(S'82'
p913
S'82'
p914
S'CD'
p915
S'B-NP'
p916
g5
tp917
a(S'patients'
p918
S'patient'
p919
S'NNS'
p920
S'I-NP'
p921
g5
tp922
a(S'were'
p923
S'be'
p924
S'VBD'
p925
S'B-VP'
p926
g5
tp927
a(S'excluded'
p928
S'exclude'
p929
S'VBN'
p930
S'I-VP'
p931
g5
tp932
a(S'on'
p933
S'on'
p934
S'IN'
p935
S'B-PP'
p936
g5
tp937
a(S'arrival'
p938
S'arrival'
p939
S'NN'
p940
S'B-NP'
p941
g5
tp942
a(S'at'
p943
S'at'
p944
S'IN'
p945
S'B-PP'
p946
g5
tp947
a(S'hospital'
p948
S'hospital'
p949
S'NN'
p950
S'B-NP'
p951
g5
tp952
a(S'because'
p953
S'because'
p954
S'IN'
p955
S'B-SBAR'
p956
g5
tp957
a(S'they'
p958
S'they'
p959
S'PRP'
p960
S'B-NP'
p961
g5
tp962
a(S'did'
p963
S'do'
p964
S'VBD'
p965
S'B-VP'
p966
g5
tp967
a(S'not'
p968
S'not'
p969
S'RB'
p970
S'I-VP'
p971
g5
tp972
a(S'meet'
p973
S'meet'
p974
S'VB'
p975
S'I-VP'
p976
g5
tp977
a(S'inclusion'
p978
S'inclusion'
p979
S'NN'
p980
S'B-NP'
p981
g5
tp982
a(S'criteria'
p983
S'criterion'
p984
S'NNS'
p985
S'I-NP'
p986
g5
tp987
a(g32
g32
g32
g5
g5
tp988
a(S'32'
p989
S'32'
p990
S'CD'
p991
S'B-NP'
p992
g5
tp993
a(S'were'
p994
S'be'
p995
S'VBD'
p996
S'B-VP'
p997
g5
tp998
a(S'lost'
p999
S'lose'
p1000
S'VBN'
p1001
S'I-VP'
p1002
g5
tp1003
a(S'to'
p1004
S'to'
p1005
S'TO'
p1006
S'B-PP'
p1007
g5
tp1008
a(S'follow-up'
p1009
S'follow-up'
p1010
S'NN'
p1011
S'B-NP'
p1012
g5
tp1013
a(g32
g32
g32
g5
g5
tp1014
a(S'and'
p1015
S'and'
p1016
S'CC'
p1017
g5
g5
tp1018
a(S'77'
p1019
S'77'
p1020
S'CD'
p1021
S'B-NP'
p1022
g5
tp1023
a(S'did'
p1024
S'do'
p1025
S'VBD'
p1026
S'B-VP'
p1027
g5
tp1028
a(S'not'
p1029
S'not'
p1030
S'RB'
p1031
S'I-VP'
p1032
g5
tp1033
a(S'complete'
p1034
S'complete'
p1035
S'VB'
p1036
S'I-VP'
p1037
g5
tp1038
a(S'the'
p1039
S'the'
p1040
S'DT'
p1041
S'B-NP'
p1042
g5
tp1043
a(S'follow-up'
p1044
S'follow-up'
p1045
S'NN'
p1046
S'I-NP'
p1047
g5
tp1048
a(S'with'
p1049
S'with'
p1050
S'IN'
p1051
S'B-PP'
p1052
g5
tp1053
a(S'data'
p1054
S'datum'
p1055
S'NNS'
p1056
S'B-NP'
p1057
g5
tp1058
a(S'for'
p1059
S'for'
p1060
S'IN'
p1061
S'B-PP'
p1062
g5
tp1063
a(S'salvage'
p1064
S'salvage'
p1065
S'NN'
p1066
S'B-NP'
p1067
g5
tp1068
a(S'index.'
p1069
S'index.'
p1070
S'NN'
p1071
S'I-NP'
p1072
g5
tp1073
a(S'Median'
p1074
S'Median'
p1075
S'JJ'
p1076
S'I-NP'
p1077
g5
tp1078
a(S'salvage'
p1079
S'salvage'
p1080
S'NN'
p1081
S'I-NP'
p1082
g5
tp1083
a(S'index'
p1084
S'index'
p1085
S'NN'
p1086
S'I-NP'
p1087
g5
tp1088
a(S'was'
p1089
S'be'
p1090
S'VBD'
p1091
S'B-VP'
p1092
g5
tp1093
a(S'0.75'
p1094
S'0.75'
p1095
S'CD'
p1096
S'B-NP'
p1097
g5
tp1098
a(g458
g458
g458
g5
g5
tp1099
a(S'IQR'
p1100
S'IQR'
p1101
S'NN'
p1102
S'B-NP'
p1103
g5
tp1104
a(S'0.50-0.93'
p1105
S'0.50-0.93'
p1106
S'CD'
p1107
S'I-NP'
p1108
g5
tp1109
a(g32
g32
g32
S'I-NP'
p1110
g5
tp1111
a(S'n=73'
p1112
S'n=73'
p1113
S'NN'
p1114
S'I-NP'
p1115
S'B-protein'
p1116
tp1117
a(g470
g470
g470
g5
g5
tp1118
a(S'in'
p1119
S'in'
p1120
S'IN'
p1121
S'B-PP'
p1122
g5
tp1123
a(S'the'
p1124
S'the'
p1125
S'DT'
p1126
S'B-NP'
p1127
g5
tp1128
a(S'remote'
p1129
S'remote'
p1130
S'JJ'
p1131
S'I-NP'
p1132
g5
tp1133
a(S'conditioning'
p1134
S'condition'
p1135
S'VBG'
p1136
S'I-NP'
p1137
g5
tp1138
a(S'group'
p1139
S'group'
p1140
S'NN'
p1141
S'I-NP'
p1142
g5
tp1143
a(S'versus'
p1144
S'versus'
p1145
S'IN'
p1146
S'B-PP'
p1147
g5
tp1148
a(S'0.55'
p1149
S'0.55'
p1150
S'CD'
p1151
S'B-NP'
p1152
g5
tp1153
a(g458
g458
g458
g5
g5
tp1154
a(S'0.35-0.88'
p1155
S'0.35-0.88'
p1156
S'CD'
p1157
S'B-NP'
p1158
g5
tp1159
a(g32
g32
g32
g5
g5
tp1160
a(S'n=69'
p1161
S'n=69'
p1162
S'NN'
p1163
S'B-NP'
p1164
S'B-protein'
p1165
tp1166
a(g470
g470
g470
g5
g5
tp1167
a(S'in'
p1168
S'in'
p1169
S'IN'
p1170
S'B-PP'
p1171
g5
tp1172
a(S'the'
p1173
S'the'
p1174
S'DT'
p1175
S'B-NP'
p1176
g5
tp1177
a(S'control'
p1178
S'control'
p1179
S'NN'
p1180
S'I-NP'
p1181
g5
tp1182
a(S'group'
p1183
S'group'
p1184
S'NN'
p1185
S'I-NP'
p1186
g5
tp1187
a(g32
g32
g32
g5
g5
tp1188
a(S'with'
p1189
S'with'
p1190
S'IN'
p1191
S'B-PP'
p1192
g5
tp1193
a(S'median'
p1194
S'median'
p1195
S'JJ'
p1196
S'B-NP'
p1197
g5
tp1198
a(S'difference'
p1199
S'difference'
p1200
S'NN'
p1201
S'I-NP'
p1202
g5
tp1203
a(S'of'
p1204
S'of'
p1205
S'IN'
p1206
S'B-PP'
p1207
g5
tp1208
a(S'0.10'
p1209
S'0.10'
p1210
S'CD'
p1211
S'B-NP'
p1212
g5
tp1213
a(g458
g458
g458
g5
g5
tp1214
a(S'95'
p1215
S'95'
p1216
S'CD'
p1217
S'B-NP'
p1218
g5
tp1219
a(S'%'
p1220
g1220
S'NN'
p1221
S'I-NP'
p1222
g5
tp1223
a(S'CI'
p1224
S'CI'
p1225
S'NN'
p1226
S'I-NP'
p1227
g5
tp1228
a(S'0.01-0.22'
p1229
S'0.01-0.22'
p1230
S'CD'
p1231
S'I-NP'
p1232
g5
tp1233
a(g844
g844
g113
g5
g5
tp1234
a(S'p=0.0333'
p1235
S'p=0.0333'
p1236
S'NN'
p1237
S'B-NP'
p1238
g5
tp1239
a(g470
g470
g470
g5
g5
tp1240
a(g844
g844
g113
g5
g5
tp1241
a(S'mean'
p1242
S'mean'
p1243
S'JJ'
p1244
S'B-NP'
p1245
g5
tp1246
a(S'salvage'
p1247
S'salvage'
p1248
S'NN'
p1249
S'I-NP'
p1250
g5
tp1251
a(S'index'
p1252
S'index'
p1253
S'NN'
p1254
S'I-NP'
p1255
g5
tp1256
a(S'was'
p1257
S'be'
p1258
S'VBD'
p1259
S'B-VP'
p1260
g5
tp1261
a(S'0.69'
p1262
S'0.69'
p1263
S'CD'
p1264
S'B-NP'
p1265
g5
tp1266
a(g458
g458
g458
g5
g5
tp1267
a(S'SD'
p1268
S'SD'
p1269
S'NN'
p1270
S'B-NP'
p1271
g5
tp1272
a(S'0.27'
p1273
S'0.27'
p1274
S'CD'
p1275
S'I-NP'
p1276
g5
tp1277
a(g470
g470
g470
g5
g5
tp1278
a(S'versus'
p1279
S'versus'
p1280
S'IN'
p1281
S'B-PP'
p1282
g5
tp1283
a(S'0.57'
p1284
S'0.57'
p1285
S'CD'
p1286
S'B-NP'
p1287
g5
tp1288
a(g458
g458
g458
g5
g5
tp1289
a(S'0.26'
p1290
S'0.26'
p1291
S'CD'
p1292
S'B-NP'
p1293
g5
tp1294
a(g470
g470
g470
g5
g5
tp1295
a(g32
g32
g32
g5
g5
tp1296
a(S'with'
p1297
S'with'
p1298
S'IN'
p1299
S'B-PP'
p1300
g5
tp1301
a(S'mean'
p1302
S'mean'
p1303
S'JJ'
p1304
S'B-NP'
p1305
g5
tp1306
a(S'difference'
p1307
S'difference'
p1308
S'NN'
p1309
S'I-NP'
p1310
g5
tp1311
a(S'of'
p1312
S'of'
p1313
S'IN'
p1314
S'B-PP'
p1315
g5
tp1316
a(S'0.12'
p1317
S'0.12'
p1318
S'CD'
p1319
S'B-NP'
p1320
g5
tp1321
a(g458
g458
g458
g5
g5
tp1322
a(S'95'
p1323
S'95'
p1324
S'CD'
p1325
S'B-NP'
p1326
g5
tp1327
a(g1220
g1220
S'NN'
p1328
S'I-NP'
p1329
g5
tp1330
a(S'CI'
p1331
S'CI'
p1332
S'NN'
p1333
S'I-NP'
p1334
g5
tp1335
a(S'0.01-0.21'
p1336
S'0.01-0.21'
p1337
S'CD'
p1338
S'I-NP'
p1339
g5
tp1340
a(g844
g844
g113
g5
g5
tp1341
a(S'p=0.0333'
p1342
S'p=0.0333'
p1343
S'NN'
p1344
S'B-NP'
p1345
g5
tp1346
a(g470
g470
g470
g5
g5
tp1347
a(g128
g128
g128
g5
g5
tp1348
a(S'Major'
p1349
S'Major'
p1350
S'JJ'
p1351
S'B-NP'
p1352
g5
tp1353
a(S'adverse'
p1354
S'adverse'
p1355
S'JJ'
p1356
S'I-NP'
p1357
g5
tp1358
a(S'coronary'
p1359
S'coronary'
p1360
S'JJ'
p1361
S'I-NP'
p1362
g5
tp1363
a(S'events'
p1364
S'event'
p1365
S'NNS'
p1366
S'I-NP'
p1367
g5
tp1368
a(S'were'
p1369
S'be'
p1370
S'VBD'
p1371
S'B-VP'
p1372
g5
tp1373
a(S'death'
p1374
S'death'
p1375
S'NN'
p1376
S'B-NP'
p1377
g5
tp1378
a(g458
g458
g458
g5
g5
tp1379
a(S'n=3'
p1380
S'n=3'
p1381
S'NN'
p1382
S'B-NP'
p1383
g5
tp1384
a(S'per'
p1385
S'per'
p1386
S'IN'
p1387
S'B-PP'
p1388
g5
tp1389
a(S'group'
p1390
S'group'
p1391
S'NN'
p1392
S'B-NP'
p1393
g5
tp1394
a(g470
g470
g470
g5
g5
tp1395
a(g32
g32
g32
g5
g5
tp1396
a(S'reinfarction'
p1397
S'reinfarction'
p1398
S'NN'
p1399
S'B-NP'
p1400
g5
tp1401
a(g458
g458
g458
g5
g5
tp1402
a(S'n=1'
p1403
S'n=1'
p1404
S'NN'
p1405
S'B-NP'
p1406
g5
tp1407
a(S'per'
p1408
S'per'
p1409
S'IN'
p1410
S'B-PP'
p1411
g5
tp1412
a(S'group'
p1413
S'group'
p1414
S'NN'
p1415
S'B-NP'
p1416
g5
tp1417
a(g470
g470
g470
g5
g5
tp1418
a(g32
g32
g32
g5
g5
tp1419
a(S'and'
p1420
S'and'
p1421
S'CC'
p1422
g5
g5
tp1423
a(S'heart'
p1424
S'heart'
p1425
S'NN'
p1426
S'B-NP'
p1427
g5
tp1428
a(S'failure'
p1429
S'failure'
p1430
S'NN'
p1431
S'I-NP'
p1432
g5
tp1433
a(g458
g458
g458
g5
g5
tp1434
a(S'n=3'
p1435
S'n=3'
p1436
S'NN'
p1437
S'B-NP'
p1438
g5
tp1439
a(S'per'
p1440
S'per'
p1441
S'IN'
p1442
S'B-PP'
p1443
g5
tp1444
a(S'group'
p1445
S'group'
p1446
S'NN'
p1447
S'B-NP'
p1448
g5
tp1449
a(g470
g470
g470
g5
g5
tp1450
a(g128
g128
g128
g5
g5
tp1451
a(S'INTERPRETATION'
p1452
S'INTERPRETATION'
p1453
S'NN'
p1454
S'B-NP'
p1455
g5
tp1456
a(S'Remote'
p1457
S'Remote'
p1458
S'JJ'
p1459
S'I-NP'
p1460
g5
tp1461
a(S'ischaemic'
p1462
S'ischaemic'
p1463
S'JJ'
p1464
S'I-NP'
p1465
g5
tp1466
a(S'conditioning'
p1467
S'conditioning'
p1468
S'NN'
p1469
S'I-NP'
p1470
g5
tp1471
a(S'before'
p1472
S'before'
p1473
S'IN'
p1474
S'B-PP'
p1475
g5
tp1476
a(S'hospital'
p1477
S'hospital'
p1478
S'NN'
p1479
S'B-NP'
p1480
g5
tp1481
a(S'admission'
p1482
S'admission'
p1483
S'NN'
p1484
S'I-NP'
p1485
g5
tp1486
a(S'increases'
p1487
S'increase'
p1488
S'VBZ'
p1489
S'B-VP'
p1490
g5
tp1491
a(S'myocardial'
p1492
S'myocardial'
p1493
S'JJ'
p1494
S'B-NP'
p1495
g5
tp1496
a(S'salvage'
p1497
S'salvage'
p1498
S'NN'
p1499
S'I-NP'
p1500
g5
tp1501
a(g32
g32
g32
g5
g5
tp1502
a(S'and'
p1503
S'and'
p1504
S'CC'
p1505
g5
g5
tp1506
a(S'has'
p1507
S'have'
p1508
S'VBZ'
p1509
S'B-VP'
p1510
g5
tp1511
a(g39
g39
S'DT'
p1512
S'B-NP'
p1513
g5
tp1514
a(S'favourable'
p1515
S'favourable'
p1516
S'JJ'
p1517
S'I-NP'
p1518
g5
tp1519
a(S'safety'
p1520
S'safety'
p1521
S'NN'
p1522
S'I-NP'
p1523
g5
tp1524
a(S'profile.'
p1525
S'profile.'
p1526
S'NN'
p1527
S'I-NP'
p1528
g5
tp1529
a(S'Our'
p1530
S'Our'
p1531
S'PRP$'
p1532
S'B-NP'
p1533
g5
tp1534
a(S'findings'
p1535
S'finding'
p1536
S'NNS'
p1537
S'I-NP'
p1538
g5
tp1539
a(S'merit'
p1540
S'merit'
p1541
S'VBP'
p1542
S'B-VP'
p1543
g5
tp1544
a(g39
g39
S'DT'
p1545
S'B-NP'
p1546
g5
tp1547
a(S'larger'
p1548
S'large'
p1549
S'JJR'
p1550
S'I-NP'
p1551
g5
tp1552
a(S'trial'
p1553
S'trial'
p1554
S'NN'
p1555
S'I-NP'
p1556
g5
tp1557
a(S'to'
p1558
S'to'
p1559
S'TO'
p1560
S'B-VP'
p1561
g5
tp1562
a(S'establish'
p1563
S'establish'
p1564
S'VB'
p1565
S'I-VP'
p1566
g5
tp1567
a(S'the'
p1568
S'the'
p1569
S'DT'
p1570
S'B-NP'
p1571
g5
tp1572
a(S'effect'
p1573
S'effect'
p1574
S'NN'
p1575
S'I-NP'
p1576
g5
tp1577
a(S'of'
p1578
S'of'
p1579
S'IN'
p1580
S'B-PP'
p1581
g5
tp1582
a(S'remote'
p1583
S'remote'
p1584
S'JJ'
p1585
S'B-NP'
p1586
g5
tp1587
a(S'conditioning'
p1588
S'conditioning'
p1589
S'NN'
p1590
S'I-NP'
p1591
g5
tp1592
a(S'on'
p1593
S'on'
p1594
S'IN'
p1595
S'B-PP'
p1596
g5
tp1597
a(S'clinical'
p1598
S'clinical'
p1599
S'JJ'
p1600
S'B-NP'
p1601
g5
tp1602
a(S'outcomes'
p1603
S'outcome'
p1604
S'NNS'
p1605
S'I-NP'
p1606
g5
tp1607
a(g128
g128
g128
g5
g5
tp1608
a(S'FUNDING'
p1609
S'FUNDING'
p1610
S'VBG'
p1611
S'B-VP'
p1612
g5
tp1613
a(S'Fondation'
p1614
S'Fondation'
p1615
S'NNP'
p1616
S'B-NP'
p1617
g5
tp1618
a(S'Leducq'
p1619
S'Leducq'
p1620
S'NNP'
p1621
S'I-NP'
p1622
g5
tp1623
a(g128
g128
g128
g5
g5
tp1624
a.