(lp0
(S'Topical'
p1
S'Topical'
p2
S'JJ'
p3
S'B-NP'
p4
S'O'
p5
tp6
a(S'adrenaline'
p7
S'adrenaline'
p8
S'NN'
p9
S'I-NP'
p10
g5
tp11
a(S'in'
p12
S'in'
p13
S'IN'
p14
S'B-PP'
p15
g5
tp16
a(S'the'
p17
S'the'
p18
S'DT'
p19
S'B-NP'
p20
g5
tp21
a(S'control'
p22
S'control'
p23
S'NN'
p24
S'I-NP'
p25
g5
tp26
a(S'of'
p27
S'of'
p28
S'IN'
p29
S'B-PP'
p30
g5
tp31
a(S'intraoperative'
p32
S'intraoperative'
p33
S'JJ'
p34
S'B-NP'
p35
g5
tp36
a(S'bleeding'
p37
S'bleeding'
p38
S'NN'
p39
S'I-NP'
p40
g5
tp41
a(S'in'
p42
S'in'
p43
S'IN'
p44
S'B-PP'
p45
g5
tp46
a(S'adenoidectomy'
p47
S'adenoidectomy'
p48
S'NN'
p49
S'B-NP'
p50
g5
tp51
a(S':'
p52
g52
g52
g5
g5
tp53
a(S'a'
p54
g54
S'DT'
p55
S'B-NP'
p56
g5
tp57
a(S'randomised'
p58
S'randomise'
p59
S'VBN'
p60
S'I-NP'
p61
g5
tp62
a(S','
p63
g63
g63
S'I-NP'
p64
g5
tp65
a(S'controlled'
p66
S'control'
p67
S'VBN'
p68
S'I-NP'
p69
g5
tp70
a(S'trial'
p71
S'trial'
p72
S'NN'
p73
S'I-NP'
p74
g5
tp75
a(S'.'
p76
g76
g76
g5
g5
tp77
a(S'OBJECTIVES'
p78
S'OBJECTIVES'
p79
S'NNS'
p80
S'B-NP'
p81
g5
tp82
a(S'To'
p83
S'To'
p84
S'TO'
p85
S'B-VP'
p86
g5
tp87
a(S'evaluate'
p88
S'evaluate'
p89
S'VB'
p90
S'I-VP'
p91
g5
tp92
a(S'the'
p93
S'the'
p94
S'DT'
p95
S'B-NP'
p96
g5
tp97
a(S'efficacy'
p98
S'efficacy'
p99
S'NN'
p100
S'I-NP'
p101
g5
tp102
a(S'of'
p103
S'of'
p104
S'IN'
p105
S'B-PP'
p106
g5
tp107
a(S'topical'
p108
S'topical'
p109
S'JJ'
p110
S'B-NP'
p111
g5
tp112
a(S'racemic'
p113
S'racemic'
p114
S'JJ'
p115
S'I-NP'
p116
g5
tp117
a(S'adrenaline'
p118
S'adrenaline'
p119
S'NN'
p120
S'I-NP'
p121
g5
tp122
a(S'('
p123
g123
g123
g5
g5
tp124
a(S'RA'
p125
S'RA'
p126
S'NN'
p127
S'B-NP'
p128
g5
tp129
a(S')'
p130
g130
g130
g5
g5
tp131
a(g123
g123
g123
g5
g5
tp132
a(S'Micronefrin'
p133
S'Micronefrin'
p134
S'NN'
p135
S'B-NP'
p136
g5
tp137
a(S';'
p138
g138
g52
g5
g5
tp139
a(S'Bird'
p140
S'Bird'
p141
S'NNP'
p142
S'B-NP'
p143
g5
tp144
a(S'Products'
p145
S'Product'
p146
S'NNPS'
p147
S'I-NP'
p148
g5
tp149
a(g63
g63
g63
g5
g5
tp150
a(S'Palm'
p151
S'Palm'
p152
S'NNP'
p153
S'B-NP'
p154
g5
tp155
a(S'Springs'
p156
S'Springs'
p157
S'NNP'
p158
S'I-NP'
p159
g5
tp160
a(g63
g63
g63
g5
g5
tp161
a(S'CA'
p162
S'CA'
p163
S'NNP'
p164
S'B-NP'
p165
g5
tp166
a(g63
g63
g63
g5
g5
tp167
a(S'USA'
p168
S'USA'
p169
S'NNP'
p170
S'B-NP'
p171
g5
tp172
a(g130
g130
g130
g5
g5
tp173
a(S'in'
p174
S'in'
p175
S'IN'
p176
S'B-PP'
p177
g5
tp178
a(S'the'
p179
S'the'
p180
S'DT'
p181
S'B-NP'
p182
g5
tp183
a(S'control'
p184
S'control'
p185
S'NN'
p186
S'I-NP'
p187
g5
tp188
a(S'of'
p189
S'of'
p190
S'IN'
p191
S'B-PP'
p192
g5
tp193
a(S'intraoperative'
p194
S'intraoperative'
p195
S'JJ'
p196
S'B-NP'
p197
g5
tp198
a(S'bleeding'
p199
S'bleeding'
p200
S'NN'
p201
S'I-NP'
p202
g5
tp203
a(S'and'
p204
S'and'
p205
S'CC'
p206
g5
g5
tp207
a(S'the'
p208
S'the'
p209
S'DT'
p210
S'B-NP'
p211
g5
tp212
a(S'prevention'
p213
S'prevention'
p214
S'NN'
p215
S'I-NP'
p216
g5
tp217
a(S'of'
p218
S'of'
p219
S'IN'
p220
S'B-PP'
p221
g5
tp222
a(S'postoperative'
p223
S'postoperative'
p224
S'JJ'
p225
S'B-NP'
p226
g5
tp227
a(S'bleeding'
p228
S'bleeding'
p229
S'NN'
p230
S'I-NP'
p231
g5
tp232
a(g63
g63
g63
g5
g5
tp233
a(S'laryngeal'
p234
S'laryngeal'
p235
S'JJ'
p236
S'B-NP'
p237
g5
tp238
a(S'spasm'
p239
S'spasm'
p240
S'NN'
p241
S'I-NP'
p242
g5
tp243
a(S'and'
p244
S'and'
p245
S'CC'
p246
g5
g5
tp247
a(S'postoperative'
p248
S'postoperative'
p249
S'JJ'
p250
S'B-NP'
p251
g5
tp252
a(S'pain'
p253
S'pain'
p254
S'NN'
p255
S'I-NP'
p256
g5
tp257
a(S'in'
p258
S'in'
p259
S'IN'
p260
S'B-PP'
p261
g5
tp262
a(S'adenoidectomy'
p263
S'adenoidectomy'
p264
S'NN'
p265
S'B-NP'
p266
g5
tp267
a(S'among'
p268
S'among'
p269
S'IN'
p270
S'B-PP'
p271
g5
tp272
a(S'children'
p273
S'child'
p274
S'NNS'
p275
S'B-NP'
p276
g5
tp277
a(S'<'
p278
g278
S'SYM'
p279
g5
g5
tp280
a(S'6'
p281
g281
S'CD'
p282
S'B-NP'
p283
g5
tp284
a(S'years'
p285
S'year'
p286
S'NNS'
p287
S'I-NP'
p288
g5
tp289
a(S'of'
p290
S'of'
p291
S'IN'
p292
S'B-PP'
p293
g5
tp294
a(S'age'
p295
S'age'
p296
S'NN'
p297
S'B-NP'
p298
g5
tp299
a(g76
g76
g76
g5
g5
tp300
a(S'DESIGN'
p301
S'DESIGN'
p302
S'NNP'
p303
S'B-NP'
p304
g5
tp305
a(S'Prospective'
p306
S'Prospective'
p307
S'NNP'
p308
S'I-NP'
p309
g5
tp310
a(g63
g63
g63
g5
g5
tp311
a(S'randomised'
p312
S'randomise'
p313
S'VBN'
p314
S'B-VP'
p315
g5
tp316
a(g63
g63
g63
g5
g5
tp317
a(S'blinded'
p318
S'blind'
p319
S'VBN'
p320
S'B-NP'
p321
g5
tp322
a(S'and'
p323
S'and'
p324
S'CC'
p325
S'I-NP'
p326
g5
tp327
a(S'placebo-controlled'
p328
S'placebo-controlled'
p329
S'JJ'
p330
S'I-NP'
p331
g5
tp332
a(S'trial'
p333
S'trial'
p334
S'NN'
p335
S'I-NP'
p336
g5
tp337
a(g76
g76
g76
g5
g5
tp338
a(S'SETTING'
p339
S'SETTING'
p340
S'VBG'
p341
S'B-VP'
p342
g5
tp343
a(S'Kanta-Hame'
p344
S'Kanta-Hame'
p345
S'NNP'
p346
S'B-NP'
p347
g5
tp348
a(S'Central'
p349
S'Central'
p350
S'NNP'
p351
S'I-NP'
p352
g5
tp353
a(S'Hospital'
p354
S'Hospital'
p355
S'NNP'
p356
S'I-NP'
p357
g5
tp358
a(g63
g63
g63
g5
g5
tp359
a(g54
g54
S'DT'
p360
S'B-NP'
p361
g5
tp362
a(S'district'
p363
S'district'
p364
S'NN'
p365
S'I-NP'
p366
g5
tp367
a(S'referral'
p368
S'referral'
p369
S'JJ'
p370
S'I-NP'
p371
g5
tp372
a(S'center'
p373
S'center'
p374
S'NN'
p375
S'I-NP'
p376
g5
tp377
a(S'in'
p378
S'in'
p379
S'IN'
p380
S'B-PP'
p381
g5
tp382
a(S'Finland'
p383
S'Finland'
p384
S'NNP'
p385
S'B-NP'
p386
g5
tp387
a(g76
g76
g76
g5
g5
tp388
a(S'PATIENTS'
p389
S'PATIENTS'
p390
S'NNS'
p391
S'B-NP'
p392
g5
tp393
a(S'A'
p394
g394
S'DT'
p395
S'B-NP'
p396
g5
tp397
a(S'consecutive'
p398
S'consecutive'
p399
S'JJ'
p400
S'I-NP'
p401
g5
tp402
a(S'sample'
p403
S'sample'
p404
S'NN'
p405
S'I-NP'
p406
g5
tp407
a(S'of'
p408
S'of'
p409
S'IN'
p410
S'B-PP'
p411
g5
tp412
a(S'93'
p413
S'93'
p414
S'CD'
p415
S'B-NP'
p416
g5
tp417
a(S'children'
p418
S'child'
p419
S'NNS'
p420
S'I-NP'
p421
g5
tp422
a(S'undergoing'
p423
S'undergo'
p424
S'VBG'
p425
S'B-VP'
p426
g5
tp427
a(S'outpatient'
p428
S'outpatient'
p429
S'NN'
p430
S'B-NP'
p431
g5
tp432
a(S'adenoidectomy'
p433
S'adenoidectomy'
p434
S'NN'
p435
S'I-NP'
p436
g5
tp437
a(g76
g76
g76
g5
g5
tp438
a(S'INTERVENTION'
p439
S'INTERVENTION'
p440
S'NN'
p441
S'B-NP'
p442
g5
tp443
a(S'Patients'
p444
S'Patient'
p445
S'NNS'
p446
S'I-NP'
p447
g5
tp448
a(S'were'
p449
S'be'
p450
S'VBD'
p451
S'B-VP'
p452
g5
tp453
a(S'randomised'
p454
S'randomise'
p455
S'VBN'
p456
S'I-VP'
p457
g5
tp458
a(S'to'
p459
S'to'
p460
S'TO'
p461
S'I-VP'
p462
g5
tp463
a(S'receive'
p464
S'receive'
p465
S'VB'
p466
S'I-VP'
p467
g5
tp468
a(S'topical'
p469
S'topical'
p470
S'JJ'
p471
S'B-NP'
p472
g5
tp473
a(S'gauze'
p474
S'gauze'
p475
S'NN'
p476
S'I-NP'
p477
g5
tp478
a(S'sponges'
p479
S'sponge'
p480
S'NNS'
p481
S'I-NP'
p482
g5
tp483
a(S'soaked'
p484
S'soak'
p485
S'VBD'
p486
S'B-VP'
p487
g5
tp488
a(S'in'
p489
S'in'
p490
S'IN'
p491
S'B-PP'
p492
g5
tp493
a(S'either'
p494
S'either'
p495
S'CC'
p496
S'B-NP'
p497
g5
tp498
a(S'1'
p499
g499
S'CD'
p500
S'I-NP'
p501
g5
tp502
a(g52
g52
g52
g5
g5
tp503
a(S'500'
p504
S'500'
p505
S'CD'
p506
S'B-NP'
p507
g5
tp508
a(S'RA'
p509
S'RA'
p510
S'NN'
p511
S'I-NP'
p512
g5
tp513
a(S'or'
p514
S'or'
p515
S'CC'
p516
g5
g5
tp517
a(S'0.9'
p518
S'0.9'
p519
S'CD'
p520
S'B-NP'
p521
g5
tp522
a(S'%'
p523
g523
S'NN'
p524
S'I-NP'
p525
g5
tp526
a(S'sodium'
p527
S'sodium'
p528
S'NN'
p529
S'I-NP'
p530
g5
tp531
a(S'chloride'
p532
S'chloride'
p533
S'NN'
p534
S'I-NP'
p535
g5
tp536
a(g123
g123
g123
g5
g5
tp537
a(S'physiological'
p538
S'physiological'
p539
S'JJ'
p540
S'B-NP'
p541
g5
tp542
a(S'saline'
p543
S'saline'
p544
S'NN'
p545
S'I-NP'
p546
g5
tp547
a(g130
g130
g130
g5
g5
tp548
a(S'for'
p549
S'for'
p550
S'IN'
p551
S'B-PP'
p552
g5
tp553
a(S'3'
p554
g554
S'CD'
p555
S'B-NP'
p556
g5
tp557
a(S'min'
p558
S'min'
p559
S'NN'
p560
S'I-NP'
p561
g5
tp562
a(S'after'
p563
S'after'
p564
S'IN'
p565
S'B-PP'
p566
g5
tp567
a(S'adenoidectomy'
p568
S'adenoidectomy'
p569
S'NN'
p570
S'B-NP'
p571
g5
tp572
a(g76
g76
g76
g5
g5
tp573
a(S'MAIN'
p574
S'MAIN'
p575
S'NNP'
p576
S'B-NP'
p577
g5
tp578
a(S'OUTCOME'
p579
S'OUTCOME'
p580
S'NNP'
p581
S'I-NP'
p582
g5
tp583
a(S'MEASURES'
p584
S'MEASURES'
p585
S'NNP'
p586
S'I-NP'
p587
g5
tp588
a(S'Amount'
p589
S'Amount'
p590
S'NNP'
p591
S'I-NP'
p592
g5
tp593
a(S'of'
p594
S'of'
p595
S'IN'
p596
S'B-PP'
p597
g5
tp598
a(S'intraoperative'
p599
S'intraoperative'
p600
S'JJ'
p601
S'B-NP'
p602
g5
tp603
a(S'bleeding'
p604
S'bleeding'
p605
S'NN'
p606
S'I-NP'
p607
g5
tp608
a(g123
g123
g123
g5
g5
tp609
a(S'surgeons'
p610
S'surgeon'
p611
S'NNS'
p612
S'B-NP'
p613
g5
tp614
a(S"'"
p615
g615
S'POS'
p616
S'B-NP'
p617
g5
tp618
a(S'subjective'
p619
S'subjective'
p620
S'JJ'
p621
S'I-NP'
p622
g5
tp623
a(S'estimate'
p624
S'estimate'
p625
S'NN'
p626
S'I-NP'
p627
g5
tp628
a(g130
g130
g130
g5
g5
tp629
a(g63
g63
g63
g5
g5
tp630
a(S'need'
p631
S'need'
p632
S'VBP'
p633
S'B-VP'
p634
g5
tp635
a(S'for'
p636
S'for'
p637
S'IN'
p638
S'B-PP'
p639
g5
tp640
a(S'additional'
p641
S'additional'
p642
S'JJ'
p643
S'B-NP'
p644
g5
tp645
a(S'packings'
p646
S'packing'
p647
S'NNS'
p648
S'I-NP'
p649
g5
tp650
a(g63
g63
g63
g5
g5
tp651
a(S'need'
p652
S'need'
p653
S'VBP'
p654
S'B-VP'
p655
g5
tp656
a(S'for'
p657
S'for'
p658
S'IN'
p659
S'B-PP'
p660
g5
tp661
a(S'electrocautery'
p662
S'electrocautery'
p663
S'NN'
p664
S'B-NP'
p665
g5
tp666
a(g63
g63
g63
g5
g5
tp667
a(S'laryngeal'
p668
S'laryngeal'
p669
S'JJ'
p670
S'B-NP'
p671
g5
tp672
a(S'spasm'
p673
S'spasm'
p674
S'NN'
p675
S'I-NP'
p676
g5
tp677
a(g63
g63
g63
g5
g5
tp678
a(S'postoperative'
p679
S'postoperative'
p680
S'JJ'
p681
S'B-NP'
p682
g5
tp683
a(S'bleeding'
p684
S'bleeding'
p685
S'NN'
p686
S'I-NP'
p687
g5
tp688
a(S'and'
p689
S'and'
p690
S'CC'
p691
S'I-NP'
p692
g5
tp693
a(S'pain'
p694
S'pain'
p695
S'NN'
p696
S'I-NP'
p697
g5
tp698
a(g63
g63
g63
g5
g5
tp699
a(S'duration'
p700
S'duration'
p701
S'NN'
p702
S'B-NP'
p703
g5
tp704
a(S'of'
p705
S'of'
p706
S'IN'
p707
S'B-PP'
p708
g5
tp709
a(S'procedure'
p710
S'procedure'
p711
S'NN'
p712
S'B-NP'
p713
g5
tp714
a(S'and'
p715
S'and'
p716
S'CC'
p717
g5
g5
tp718
a(S'duration'
p719
S'duration'
p720
S'NN'
p721
S'B-NP'
p722
g5
tp723
a(S'of'
p724
S'of'
p725
S'IN'
p726
S'B-PP'
p727
g5
tp728
a(S'patients'
p729
S'patient'
p730
S'NNS'
p731
S'B-NP'
p732
g5
tp733
a(g615
g615
S'POS'
p734
S'B-NP'
p735
g5
tp736
a(S'stay'
p737
S'stay'
p738
S'NN'
p739
S'I-NP'
p740
g5
tp741
a(S'in'
p742
S'in'
p743
S'IN'
p744
S'B-PP'
p745
g5
tp746
a(S'the'
p747
S'the'
p748
S'DT'
p749
S'B-NP'
p750
g5
tp751
a(S'operation'
p752
S'operation'
p753
S'NN'
p754
S'I-NP'
p755
g5
tp756
a(S'room'
p757
S'room'
p758
S'NN'
p759
S'I-NP'
p760
g5
tp761
a(g123
g123
g123
g5
g5
tp762
a(S'OR'
p763
S'OR'
p764
S'NN'
p765
S'B-NP'
p766
S'B-protein'
p767
tp768
a(g130
g130
g130
g5
g5
tp769
a(g76
g76
g76
g5
g5
tp770
a(S'RESULTS'
p771
S'RESULTS'
p772
S'NNS'
p773
S'B-NP'
p774
g5
tp775
a(S'Adrenaline'
p776
S'Adrenaline'
p777
S'VBP'
p778
S'B-VP'
p779
g5
tp780
a(S'significantly'
p781
S'significantly'
p782
S'RB'
p783
S'B-NP'
p784
g5
tp785
a(S'decreased'
p786
S'decrease'
p787
S'VBN'
p788
S'I-NP'
p789
g5
tp790
a(S'surgeons'
p791
S'surgeon'
p792
S'NNS'
p793
S'I-NP'
p794
g5
tp795
a(g615
g615
S'POS'
p796
S'B-NP'
p797
g5
tp798
a(S'subjective'
p799
S'subjective'
p800
S'JJ'
p801
S'I-NP'
p802
g5
tp803
a(S'estimate'
p804
S'estimate'
p805
S'NN'
p806
S'I-NP'
p807
g5
tp808
a(S'of'
p809
S'of'
p810
S'IN'
p811
S'B-PP'
p812
g5
tp813
a(S'the'
p814
S'the'
p815
S'DT'
p816
S'B-NP'
p817
g5
tp818
a(S'amount'
p819
S'amount'
p820
S'NN'
p821
S'I-NP'
p822
g5
tp823
a(S'of'
p824
S'of'
p825
S'IN'
p826
S'B-PP'
p827
g5
tp828
a(S'intraoperative'
p829
S'intraoperative'
p830
S'JJ'
p831
S'B-NP'
p832
g5
tp833
a(S'bleeding'
p834
S'bleeding'
p835
S'NN'
p836
S'I-NP'
p837
g5
tp838
a(g123
g123
g123
g5
g5
tp839
a(S'proportion'
p840
S'proportion'
p841
S'NN'
p842
S'B-NP'
p843
g5
tp844
a(S'of'
p845
S'of'
p846
S'IN'
p847
S'B-PP'
p848
g5
tp849
a(S'patients'
p850
S'patient'
p851
S'NNS'
p852
S'B-NP'
p853
g5
tp854
a(S'with'
p855
S'with'
p856
S'IN'
p857
S'B-PP'
p858
g5
tp859
a(S'significant'
p860
S'significant'
p861
S'JJ'
p862
S'B-NP'
p863
g5
tp864
a(S'decrease'
p865
S'decrease'
p866
S'NN'
p867
S'I-NP'
p868
g5
tp869
a(S'67'
p870
S'67'
p871
S'CD'
p872
S'B-NP'
p873
g5
tp874
a(S'versus'
p875
S'versus'
p876
S'CC'
p877
S'I-NP'
p878
g5
tp879
a(S'21'
p880
S'21'
p881
S'CD'
p882
S'I-NP'
p883
g5
tp884
a(g523
g523
S'NN'
p885
S'I-NP'
p886
g5
tp887
a(g63
g63
g63
g5
g5
tp888
a(S'P'
p889
g889
S'NN'
p890
S'B-NP'
p891
g5
tp892
a(g278
g278
S'SYM'
p893
S'B-NP'
p894
g5
tp895
a(S'0.001'
p896
S'0.001'
p897
S'CD'
p898
S'I-NP'
p899
g5
tp900
a(g130
g130
g130
g5
g5
tp901
a(g63
g63
g63
g5
g5
tp902
a(S'reduced'
p903
S'reduce'
p904
S'VBD'
p905
S'B-VP'
p906
g5
tp907
a(S'the'
p908
S'the'
p909
S'DT'
p910
S'B-NP'
p911
g5
tp912
a(S'mean'
p913
S'mean'
p914
S'JJ'
p915
S'I-NP'
p916
g5
tp917
a(S'number'
p918
S'number'
p919
S'NN'
p920
S'I-NP'
p921
g5
tp922
a(S'of'
p923
S'of'
p924
S'IN'
p925
S'B-PP'
p926
g5
tp927
a(S'packings'
p928
S'packing'
p929
S'NNS'
p930
S'B-NP'
p931
g5
tp932
a(S'needed'
p933
S'need'
p934
S'VBN'
p935
S'B-VP'
p936
g5
tp937
a(g123
g123
g123
g5
g5
tp938
a(S'0.6'
p939
S'0.6'
p940
S'CD'
p941
S'B-NP'
p942
g5
tp943
a(S'versus'
p944
S'versus'
p945
S'IN'
p946
S'B-PP'
p947
g5
tp948
a(S'1.2'
p949
S'1.2'
p950
S'CD'
p951
S'B-NP'
p952
g5
tp953
a(g63
g63
g63
g5
g5
tp954
a(g889
g889
S'NN'
p955
S'B-NP'
p956
g5
tp957
a(g278
g278
S'SYM'
p958
S'B-NP'
p959
g5
tp960
a(S'0.001'
p961
S'0.001'
p962
S'CD'
p963
S'I-NP'
p964
g5
tp965
a(g130
g130
g130
g5
g5
tp966
a(S'and'
p967
S'and'
p968
S'CC'
p969
g5
g5
tp970
a(S'use'
p971
S'use'
p972
S'NN'
p973
S'B-NP'
p974
g5
tp975
a(S'of'
p976
S'of'
p977
S'IN'
p978
S'B-PP'
p979
g5
tp980
a(S'electrocautery'
p981
S'electrocautery'
p982
S'NN'
p983
S'B-NP'
p984
g5
tp985
a(g123
g123
g123
g5
g5
tp986
a(S'22'
p987
S'22'
p988
S'CD'
p989
S'B-NP'
p990
g5
tp991
a(S'versus'
p992
S'versus'
p993
S'IN'
p994
S'I-NP'
p995
g5
tp996
a(S'45'
p997
S'45'
p998
S'CD'
p999
S'I-NP'
p1000
g5
tp1001
a(g523
g523
S'NN'
p1002
S'I-NP'
p1003
g5
tp1004
a(g63
g63
g63
g5
g5
tp1005
a(g889
g889
S'NN'
p1006
S'B-NP'
p1007
g5
tp1008
a(S'='
p1009
g1009
S'SYM'
p1010
S'B-VP'
p1011
g5
tp1012
a(S'0.015'
p1013
S'0.015'
p1014
S'CD'
p1015
S'B-NP'
p1016
g5
tp1017
a(g130
g130
g130
g5
g5
tp1018
a(g63
g63
g63
g5
g5
tp1019
a(S'and'
p1020
S'and'
p1021
S'CC'
p1022
g5
g5
tp1023
a(S'shortened'
p1024
S'shorten'
p1025
S'VBD'
p1026
S'B-VP'
p1027
g5
tp1028
a(S'the'
p1029
S'the'
p1030
S'DT'
p1031
S'B-NP'
p1032
g5
tp1033
a(S'mean'
p1034
S'mean'
p1035
S'JJ'
p1036
S'I-NP'
p1037
g5
tp1038
a(S'duration'
p1039
S'duration'
p1040
S'NN'
p1041
S'I-NP'
p1042
g5
tp1043
a(S'of'
p1044
S'of'
p1045
S'IN'
p1046
S'B-PP'
p1047
g5
tp1048
a(S'the'
p1049
S'the'
p1050
S'DT'
p1051
S'B-NP'
p1052
g5
tp1053
a(S'procedure'
p1054
S'procedure'
p1055
S'NN'
p1056
S'I-NP'
p1057
g5
tp1058
a(g123
g123
g123
g5
g5
tp1059
a(S'13'
p1060
S'13'
p1061
S'CD'
p1062
S'B-NP'
p1063
g5
tp1064
a(S'versus'
p1065
S'versus'
p1066
S'IN'
p1067
S'B-NP'
p1068
g5
tp1069
a(S'18'
p1070
S'18'
p1071
S'CD'
p1072
S'I-NP'
p1073
g5
tp1074
a(S'min'
p1075
S'min'
p1076
S'NN'
p1077
S'I-NP'
p1078
g5
tp1079
a(g63
g63
g63
g5
g5
tp1080
a(g889
g889
S'NN'
p1081
S'B-NP'
p1082
g5
tp1083
a(g1009
g1009
S'SYM'
p1084
S'B-VP'
p1085
g5
tp1086
a(S'0.043'
p1087
S'0.043'
p1088
S'CD'
p1089
S'B-NP'
p1090
g5
tp1091
a(g130
g130
g130
g5
g5
tp1092
a(S'and'
p1093
S'and'
p1094
S'CC'
p1095
g5
g5
tp1096
a(S'the'
p1097
S'the'
p1098
S'DT'
p1099
S'B-NP'
p1100
g5
tp1101
a(S'mean'
p1102
S'mean'
p1103
S'JJ'
p1104
S'I-NP'
p1105
g5
tp1106
a(S'stay'
p1107
S'stay'
p1108
S'NN'
p1109
S'I-NP'
p1110
g5
tp1111
a(S'in'
p1112
S'in'
p1113
S'IN'
p1114
S'B-PP'
p1115
g5
tp1116
a(S'the'
p1117
S'the'
p1118
S'DT'
p1119
S'B-NP'
p1120
g5
tp1121
a(S'OR'
p1122
S'OR'
p1123
S'NN'
p1124
S'I-NP'
p1125
g5
tp1126
a(g123
g123
g123
g5
g5
tp1127
a(S'31'
p1128
S'31'
p1129
S'CD'
p1130
S'B-NP'
p1131
g5
tp1132
a(S'versus'
p1133
S'versus'
p1134
S'IN'
p1135
S'I-NP'
p1136
g5
tp1137
a(S'35'
p1138
S'35'
p1139
S'CD'
p1140
S'I-NP'
p1141
g5
tp1142
a(S'min'
p1143
S'min'
p1144
S'NN'
p1145
S'I-NP'
p1146
g5
tp1147
a(g63
g63
g63
g5
g5
tp1148
a(g889
g889
S'NN'
p1149
S'B-NP'
p1150
g5
tp1151
a(g1009
g1009
S'SYM'
p1152
S'B-VP'
p1153
g5
tp1154
a(S'0.058'
p1155
S'0.058'
p1156
S'CD'
p1157
S'B-NP'
p1158
g5
tp1159
a(g130
g130
g130
g5
g5
tp1160
a(g76
g76
g76
g5
g5
tp1161
a(S'The'
p1162
S'The'
p1163
S'DT'
p1164
S'B-NP'
p1165
g5
tp1166
a(S'impact'
p1167
S'impact'
p1168
S'NN'
p1169
S'I-NP'
p1170
g5
tp1171
a(S'of'
p1172
S'of'
p1173
S'IN'
p1174
S'B-PP'
p1175
g5
tp1176
a(S'adrenaline'
p1177
S'adrenaline'
p1178
S'NN'
p1179
S'B-NP'
p1180
g5
tp1181
a(S'was'
p1182
S'be'
p1183
S'VBD'
p1184
S'B-VP'
p1185
g5
tp1186
a(S'even'
p1187
S'even'
p1188
S'RB'
p1189
S'B-ADJP'
p1190
g5
tp1191
a(S'more'
p1192
S'more'
p1193
S'RBR'
p1194
S'I-ADJP'
p1195
g5
tp1196
a(S'pronounced'
p1197
S'pronounced'
p1198
S'JJ'
p1199
S'I-ADJP'
p1200
g5
tp1201
a(S'among'
p1202
S'among'
p1203
S'IN'
p1204
S'B-PP'
p1205
g5
tp1206
a(S'patients'
p1207
S'patient'
p1208
S'NNS'
p1209
S'B-NP'
p1210
g5
tp1211
a(S'with'
p1212
S'with'
p1213
S'IN'
p1214
S'B-PP'
p1215
g5
tp1216
a(S'extensive'
p1217
S'extensive'
p1218
S'JJ'
p1219
S'B-NP'
p1220
g5
tp1221
a(S'adenoids'
p1222
S'adenoid'
p1223
S'NNS'
p1224
S'I-NP'
p1225
g5
tp1226
a(S'and/or'
p1227
S'and/or'
p1228
S'CC'
p1229
g5
g5
tp1230
a(S'profuse'
p1231
S'profuse'
p1232
S'VB'
p1233
S'B-VP'
p1234
g5
tp1235
a(S'intraoperative'
p1236
S'intraoperative'
p1237
S'JJ'
p1238
S'B-NP'
p1239
g5
tp1240
a(S'bleeding.'
p1241
S'bleeding.'
p1242
S'NN'
p1243
S'I-NP'
p1244
g5
tp1245
a(g394
g394
S'NN'
p1246
S'I-NP'
p1247
g5
tp1248
a(S'slight'
p1249
S'slight'
p1250
S'JJ'
p1251
S'I-NP'
p1252
g5
tp1253
a(S'elevation'
p1254
S'elevation'
p1255
S'NN'
p1256
S'I-NP'
p1257
g5
tp1258
a(S'of'
p1259
S'of'
p1260
S'IN'
p1261
S'B-PP'
p1262
g5
tp1263
a(S'heart'
p1264
S'heart'
p1265
S'NN'
p1266
S'B-NP'
p1267
g5
tp1268
a(S'rate'
p1269
S'rate'
p1270
S'NN'
p1271
S'I-NP'
p1272
g5
tp1273
a(S'was'
p1274
S'be'
p1275
S'VBD'
p1276
S'B-VP'
p1277
g5
tp1278
a(S'observed'
p1279
S'observe'
p1280
S'VBN'
p1281
S'I-VP'
p1282
g5
tp1283
a(S'more'
p1284
S'more'
p1285
S'RBR'
p1286
S'B-ADVP'
p1287
g5
tp1288
a(S'often'
p1289
S'often'
p1290
S'RB'
p1291
S'I-ADVP'
p1292
g5
tp1293
a(S'in'
p1294
S'in'
p1295
S'IN'
p1296
S'B-PP'
p1297
g5
tp1298
a(S'the'
p1299
S'the'
p1300
S'DT'
p1301
S'B-NP'
p1302
g5
tp1303
a(S'adrenaline'
p1304
S'adrenaline'
p1305
S'NN'
p1306
S'I-NP'
p1307
g5
tp1308
a(S'group'
p1309
S'group'
p1310
S'NN'
p1311
S'I-NP'
p1312
g5
tp1313
a(g123
g123
g123
g5
g5
tp1314
a(g889
g889
S'NN'
p1315
S'B-NP'
p1316
g5
tp1317
a(g1009
g1009
S'SYM'
p1318
S'B-VP'
p1319
g5
tp1320
a(S'0.043'
p1321
S'0.043'
p1322
S'CD'
p1323
S'B-NP'
p1324
g5
tp1325
a(g130
g130
g130
g5
g5
tp1326
a(g76
g76
g76
g5
g5
tp1327
a(S'CONCLUSIONS'
p1328
S'CONCLUSIONS'
p1329
S'NNS'
p1330
S'B-NP'
p1331
g5
tp1332
a(S'Use'
p1333
S'Use'
p1334
S'NN'
p1335
S'I-NP'
p1336
g5
tp1337
a(S'of'
p1338
S'of'
p1339
S'IN'
p1340
S'B-PP'
p1341
g5
tp1342
a(S'topical'
p1343
S'topical'
p1344
S'JJ'
p1345
S'B-NP'
p1346
g5
tp1347
a(S'adrenaline'
p1348
S'adrenaline'
p1349
S'NN'
p1350
S'I-NP'
p1351
g5
tp1352
a(S'can'
p1353
S'can'
p1354
S'MD'
p1355
S'B-VP'
p1356
g5
tp1357
a(S'be'
p1358
S'be'
p1359
S'VB'
p1360
S'I-VP'
p1361
g5
tp1362
a(S'recommended'
p1363
S'recommend'
p1364
S'VBN'
p1365
S'I-VP'
p1366
g5
tp1367
a(S'in'
p1368
S'in'
p1369
S'IN'
p1370
S'B-PP'
p1371
g5
tp1372
a(S'adenoidectomy'
p1373
S'adenoidectomy'
p1374
S'NN'
p1375
S'B-NP'
p1376
g5
tp1377
a(S'among'
p1378
S'among'
p1379
S'IN'
p1380
S'B-PP'
p1381
g5
tp1382
a(S'children.'
p1383
S'children.'
p1384
S'NN'
p1385
S'B-NP'
p1386
g5
tp1387
a(S'It'
p1388
S'It'
p1389
S'PRP'
p1390
S'B-NP'
p1391
g5
tp1392
a(S'helps'
p1393
S'help'
p1394
S'VBZ'
p1395
S'B-VP'
p1396
g5
tp1397
a(S'control'
p1398
S'control'
p1399
S'VB'
p1400
S'I-VP'
p1401
g5
tp1402
a(S'the'
p1403
S'the'
p1404
S'DT'
p1405
S'B-NP'
p1406
g5
tp1407
a(S'intraoperative'
p1408
S'intraoperative'
p1409
S'JJ'
p1410
S'I-NP'
p1411
g5
tp1412
a(S'bleeding'
p1413
S'bleeding'
p1414
S'NN'
p1415
S'I-NP'
p1416
g5
tp1417
a(g63
g63
g63
g5
g5
tp1418
a(S'reduces'
p1419
S'reduce'
p1420
S'VBZ'
p1421
S'B-VP'
p1422
g5
tp1423
a(S'the'
p1424
S'the'
p1425
S'DT'
p1426
S'B-NP'
p1427
g5
tp1428
a(S'use'
p1429
S'use'
p1430
S'NN'
p1431
S'I-NP'
p1432
g5
tp1433
a(S'of'
p1434
S'of'
p1435
S'IN'
p1436
S'B-PP'
p1437
g5
tp1438
a(S'electrocautery'
p1439
S'electrocautery'
p1440
S'NN'
p1441
S'B-NP'
p1442
g5
tp1443
a(S'and'
p1444
S'and'
p1445
S'CC'
p1446
g5
g5
tp1447
a(S'shortens'
p1448
S'shorten'
p1449
S'VBZ'
p1450
S'B-VP'
p1451
g5
tp1452
a(S'the'
p1453
S'the'
p1454
S'DT'
p1455
S'B-NP'
p1456
g5
tp1457
a(S'durations'
p1458
S'duration'
p1459
S'NNS'
p1460
S'I-NP'
p1461
g5
tp1462
a(S'of'
p1463
S'of'
p1464
S'IN'
p1465
S'B-PP'
p1466
g5
tp1467
a(S'procedure'
p1468
S'procedure'
p1469
S'NN'
p1470
S'B-NP'
p1471
g5
tp1472
a(S'and'
p1473
S'and'
p1474
S'CC'
p1475
S'I-NP'
p1476
g5
tp1477
a(S'stay'
p1478
S'stay'
p1479
S'NN'
p1480
S'I-NP'
p1481
g5
tp1482
a(S'in'
p1483
S'in'
p1484
S'IN'
p1485
S'B-PP'
p1486
g5
tp1487
a(S'the'
p1488
S'the'
p1489
S'DT'
p1490
S'B-NP'
p1491
g5
tp1492
a(S'OR'
p1493
S'OR'
p1494
S'NN'
p1495
S'I-NP'
p1496
S'B-protein'
p1497
tp1498
a(g76
g76
g76
g5
g5
tp1499
a.