(lp0
(S'Reduction'
p1
S'Reduction'
p2
S'NN'
p3
S'B-NP'
p4
S'O'
p5
tp6
a(S'of'
p7
S'of'
p8
S'IN'
p9
S'B-PP'
p10
g5
tp11
a(S'stimulus'
p12
S'stimulus'
p13
S'NN'
p14
S'B-NP'
p15
g5
tp16
a(S'overselectivity'
p17
S'overselectivity'
p18
S'NN'
p19
S'I-NP'
p20
g5
tp21
a(S'with'
p22
S'with'
p23
S'IN'
p24
S'B-PP'
p25
g5
tp26
a(S'nonverbal'
p27
S'nonverbal'
p28
S'JJ'
p29
S'B-NP'
p30
g5
tp31
a(S'differential'
p32
S'differential'
p33
S'JJ'
p34
S'I-NP'
p35
g5
tp36
a(S'observing'
p37
S'observe'
p38
S'VBG'
p39
S'I-NP'
p40
g5
tp41
a(S'responses'
p42
S'response'
p43
S'NNS'
p44
S'I-NP'
p45
g5
tp46
a(S'.'
p47
g47
g47
g5
g5
tp48
a(S'Three'
p49
S'Three'
p50
S'CD'
p51
S'B-NP'
p52
g5
tp53
a(S'individuals'
p54
S'individual'
p55
S'NNS'
p56
S'I-NP'
p57
g5
tp58
a(S'with'
p59
S'with'
p60
S'IN'
p61
S'B-PP'
p62
g5
tp63
a(S'mental'
p64
S'mental'
p65
S'JJ'
p66
S'B-NP'
p67
g5
tp68
a(S'retardation'
p69
S'retardation'
p70
S'NN'
p71
S'I-NP'
p72
g5
tp73
a(S'exhibited'
p74
S'exhibit'
p75
S'VBD'
p76
S'B-VP'
p77
g5
tp78
a(S'stimulus'
p79
S'stimulus'
p80
S'NN'
p81
S'B-NP'
p82
g5
tp83
a(S'overselectivity'
p84
S'overselectivity'
p85
S'NN'
p86
S'I-NP'
p87
g5
tp88
a(S'in'
p89
S'in'
p90
S'IN'
p91
S'B-PP'
p92
g5
tp93
a(S'a'
p94
g94
S'DT'
p95
S'B-NP'
p96
g5
tp97
a(S'delayed'
p98
S'delay'
p99
S'VBN'
p100
S'I-NP'
p101
g5
tp102
a(S'matching-to-sample'
p103
S'matching-to-sample'
p104
S'NN'
p105
S'I-NP'
p106
g5
tp107
a(S'task'
p108
S'task'
p109
S'NN'
p110
S'I-NP'
p111
g5
tp112
a(S'in'
p113
S'in'
p114
S'IN'
p115
S'B-PP'
p116
g5
tp117
a(S'which'
p118
S'which'
p119
S'WDT'
p120
S'B-NP'
p121
g5
tp122
a(S'two'
p123
S'two'
p124
S'CD'
p125
S'B-NP'
p126
g5
tp127
a(S'sample'
p128
S'sample'
p129
S'NN'
p130
S'I-NP'
p131
g5
tp132
a(S'stimuli'
p133
S'stimulus'
p134
S'NNS'
p135
S'I-NP'
p136
g5
tp137
a(S'were'
p138
S'be'
p139
S'VBD'
p140
S'B-VP'
p141
g5
tp142
a(S'displayed'
p143
S'display'
p144
S'VBN'
p145
S'I-VP'
p146
g5
tp147
a(S'on'
p148
S'on'
p149
S'IN'
p150
S'B-PP'
p151
g5
tp152
a(S'each'
p153
S'each'
p154
S'DT'
p155
S'B-NP'
p156
g5
tp157
a(S'trial.'
p158
S'trial.'
p159
S'NN'
p160
S'I-NP'
p161
g5
tp162
a(S'Intermediate'
p163
S'Intermediate'
p164
S'JJ'
p165
S'I-NP'
p166
g5
tp167
a(S'accuracy'
p168
S'accuracy'
p169
S'NN'
p170
S'I-NP'
p171
g5
tp172
a(S'scores'
p173
S'score'
p174
S'NNS'
p175
S'I-NP'
p176
g5
tp177
a(S'indicated'
p178
S'indicate'
p179
S'VBD'
p180
S'B-VP'
p181
g5
tp182
a(S'that'
p183
S'that'
p184
S'IN'
p185
S'B-SBAR'
p186
g5
tp187
a(S'participants'
p188
S'participant'
p189
S'NNS'
p190
S'B-NP'
p191
g5
tp192
a(S'could'
p193
S'could'
p194
S'MD'
p195
S'B-VP'
p196
g5
tp197
a(S'match'
p198
S'match'
p199
S'VB'
p200
S'I-VP'
p201
g5
tp202
a(S'one'
p203
S'one'
p204
S'CD'
p205
S'B-NP'
p206
g5
tp207
a(S'of'
p208
S'of'
p209
S'IN'
p210
S'B-PP'
p211
g5
tp212
a(S'the'
p213
S'the'
p214
S'DT'
p215
S'B-NP'
p216
g5
tp217
a(S'samples'
p218
S'sample'
p219
S'NNS'
p220
S'I-NP'
p221
g5
tp222
a(S'but'
p223
S'but'
p224
S'CC'
p225
S'B-NP'
p226
g5
tp227
a(S'not'
p228
S'not'
p229
S'RB'
p230
S'I-NP'
p231
g5
tp232
a(S'both'
p233
S'both'
p234
S'DT'
p235
S'B-NP'
p236
g5
tp237
a(S'of'
p238
S'of'
p239
S'IN'
p240
S'B-PP'
p241
g5
tp242
a(S'them.'
p243
S'them.'
p244
S'DT'
p245
S'B-NP'
p246
g5
tp247
a(S'Accuracy'
p248
S'Accuracy'
p249
S'NNP'
p250
S'I-NP'
p251
g5
tp252
a(S'in'
p253
S'in'
p254
S'IN'
p255
S'B-PP'
p256
g5
tp257
a(g94
g94
S'DT'
p258
S'B-NP'
p259
g5
tp260
a(S'baseline'
p261
S'baseline'
p262
S'NN'
p263
S'I-NP'
p264
g5
tp265
a(S'condition'
p266
S'condition'
p267
S'NN'
p268
S'I-NP'
p269
g5
tp270
a(S'was'
p271
S'be'
p272
S'VBD'
p273
S'B-VP'
p274
g5
tp275
a(S'compared'
p276
S'compare'
p277
S'VBN'
p278
S'I-VP'
p279
g5
tp280
a(S'to'
p281
S'to'
p282
S'TO'
p283
S'B-PP'
p284
g5
tp285
a(S'accuracy'
p286
S'accuracy'
p287
S'NN'
p288
S'B-NP'
p289
g5
tp290
a(S'with'
p291
S'with'
p292
S'IN'
p293
S'B-PP'
p294
g5
tp295
a(g94
g94
S'DT'
p296
S'B-NP'
p297
g5
tp298
a(S'differential'
p299
S'differential'
p300
S'JJ'
p301
S'I-NP'
p302
g5
tp303
a(S'observing'
p304
S'observe'
p305
S'VBG'
p306
S'I-NP'
p307
g5
tp308
a(S'response'
p309
S'response'
p310
S'NN'
p311
S'I-NP'
p312
g5
tp313
a(S'procedure.'
p314
S'procedure.'
p315
S'NN'
p316
S'I-NP'
p317
g5
tp318
a(S'This'
p319
S'This'
p320
S'DT'
p321
S'B-NP'
p322
g5
tp323
a(S'procedure'
p324
S'procedure'
p325
S'NN'
p326
S'I-NP'
p327
g5
tp328
a(S'prompted'
p329
S'prompt'
p330
S'VBD'
p331
S'B-VP'
p332
g5
tp333
a(S'participants'
p334
S'participant'
p335
S'NNS'
p336
S'B-NP'
p337
g5
tp338
a(S'to'
p339
S'to'
p340
S'TO'
p341
S'B-VP'
p342
g5
tp343
a(S'make'
p344
S'make'
p345
S'VB'
p346
S'I-VP'
p347
g5
tp348
a(S'simultaneous'
p349
S'simultaneous'
p350
S'JJ'
p351
S'B-NP'
p352
g5
tp353
a(S'identity-matching'
p354
S'identity-matching'
p355
S'JJ'
p356
S'I-NP'
p357
g5
tp358
a(S'responses'
p359
S'response'
p360
S'NNS'
p361
S'I-NP'
p362
g5
tp363
a(S'that'
p364
S'that'
p365
S'WDT'
p366
S'B-NP'
p367
g5
tp368
a(S'required'
p369
S'require'
p370
S'VBD'
p371
S'B-VP'
p372
g5
tp373
a(S'observation'
p374
S'observation'
p375
S'NN'
p376
S'B-NP'
p377
g5
tp378
a(S'and'
p379
S'and'
p380
S'CC'
p381
g5
g5
tp382
a(S'discrimination'
p383
S'discrimination'
p384
S'NN'
p385
S'B-NP'
p386
g5
tp387
a(S'of'
p388
S'of'
p389
S'IN'
p390
S'B-PP'
p391
g5
tp392
a(S'both'
p393
S'both'
p394
S'CC'
p395
g5
g5
tp396
a(S'sample'
p397
S'sample'
p398
S'NN'
p399
S'B-NP'
p400
g5
tp401
a(S'stimuli.'
p402
S'stimuli.'
p403
S'VBP'
p404
S'B-VP'
p405
g5
tp406
a(S'These'
p407
S'These'
p408
S'DT'
p409
S'B-NP'
p410
g5
tp411
a(S'observing'
p412
S'observe'
p413
S'VBG'
p414
S'I-NP'
p415
g5
tp416
a(S'responses'
p417
S'response'
p418
S'NNS'
p419
S'I-NP'
p420
g5
tp421
a(S'were'
p422
S'be'
p423
S'VBD'
p424
S'B-VP'
p425
g5
tp426
a(S'never'
p427
S'never'
p428
S'RB'
p429
S'I-VP'
p430
g5
tp431
a(S'followed'
p432
S'follow'
p433
S'VBN'
p434
S'I-VP'
p435
g5
tp436
a(S'by'
p437
S'by'
p438
S'IN'
p439
S'B-PP'
p440
g5
tp441
a(S'differential'
p442
S'differential'
p443
S'JJ'
p444
S'B-NP'
p445
g5
tp446
a(S'consequences.'
p447
S'consequences.'
p448
S'NN'
p449
S'I-NP'
p450
g5
tp451
a(S'When'
p452
S'When'
p453
S'WRB'
p454
S'B-ADVP'
p455
g5
tp456
a(S'observing'
p457
S'observe'
p458
S'VBG'
p459
S'B-NP'
p460
g5
tp461
a(S'responses'
p462
S'response'
p463
S'NNS'
p464
S'I-NP'
p465
g5
tp466
a(S'were'
p467
S'be'
p468
S'VBD'
p469
S'B-VP'
p470
g5
tp471
a(S'prompted'
p472
S'prompt'
p473
S'VBN'
p474
S'I-VP'
p475
g5
tp476
a(S','
p477
g477
g477
g5
g5
tp478
a(S'participants'
p479
S'participant'
p480
S'NNS'
p481
S'B-NP'
p482
g5
tp483
a(S"'"
p484
g484
S'POS'
p485
S'B-NP'
p486
g5
tp487
a(S'accuracy'
p488
S'accuracy'
p489
S'NN'
p490
S'I-NP'
p491
g5
tp492
a(S'scores'
p493
S'score'
p494
S'NNS'
p495
S'I-NP'
p496
g5
tp497
a(S'improved.'
p498
S'improved.'
p499
S'VBP'
p500
S'B-VP'
p501
g5
tp502
a(S'In'
p503
S'In'
p504
S'IN'
p505
S'B-PP'
p506
g5
tp507
a(g94
g94
S'DT'
p508
S'B-NP'
p509
g5
tp510
a(S'return'
p511
S'return'
p512
S'NN'
p513
S'I-NP'
p514
g5
tp515
a(S'to'
p516
S'to'
p517
S'TO'
p518
S'B-PP'
p519
g5
tp520
a(S'the'
p521
S'the'
p522
S'DT'
p523
S'B-NP'
p524
g5
tp525
a(S'baseline'
p526
S'baseline'
p527
S'NN'
p528
S'I-NP'
p529
g5
tp530
a(S'condition'
p531
S'condition'
p532
S'NN'
p533
S'I-NP'
p534
g5
tp535
a(g477
g477
g477
g5
g5
tp536
a(S'when'
p537
S'when'
p538
S'WRB'
p539
S'B-ADVP'
p540
g5
tp541
a(S'differential'
p542
S'differential'
p543
S'JJ'
p544
S'B-NP'
p545
g5
tp546
a(S'observing'
p547
S'observe'
p548
S'VBG'
p549
S'I-NP'
p550
g5
tp551
a(S'responses'
p552
S'response'
p553
S'NNS'
p554
S'I-NP'
p555
g5
tp556
a(S'were'
p557
S'be'
p558
S'VBD'
p559
S'B-VP'
p560
g5
tp561
a(S'no'
p562
S'no'
p563
S'RB'
p564
S'I-VP'
p565
g5
tp566
a(S'longer'
p567
S'longer'
p568
S'RB'
p569
S'I-VP'
p570
g5
tp571
a(S'prompted'
p572
S'prompt'
p573
S'VBD'
p574
S'I-VP'
p575
g5
tp576
a(g477
g477
g477
g5
g5
tp577
a(S'accuracy'
p578
S'accuracy'
p579
S'NN'
p580
S'B-NP'
p581
g5
tp582
a(S'returned'
p583
S'return'
p584
S'VBD'
p585
S'B-VP'
p586
g5
tp587
a(S'to'
p588
S'to'
p589
S'TO'
p590
S'I-VP'
p591
g5
tp592
a(S'intermediate'
p593
S'intermediate'
p594
S'VB'
p595
S'I-VP'
p596
g5
tp597
a(S'levels.'
p598
S'levels.'
p599
S'NN'
p600
S'B-NP'
p601
g5
tp602
a(S'The'
p603
S'The'
p604
S'DT'
p605
S'B-NP'
p606
g5
tp607
a(S'results'
p608
S'result'
p609
S'NNS'
p610
S'I-NP'
p611
g5
tp612
a(S'show'
p613
S'show'
p614
S'VBP'
p615
S'B-VP'
p616
g5
tp617
a(S'that'
p618
S'that'
p619
S'IN'
p620
S'B-SBAR'
p621
g5
tp622
a(S'stimulus'
p623
S'stimulus'
p624
S'NN'
p625
S'B-NP'
p626
g5
tp627
a(S'overselectivity'
p628
S'overselectivity'
p629
S'NN'
p630
S'I-NP'
p631
g5
tp632
a(S'can'
p633
S'can'
p634
S'MD'
p635
S'B-VP'
p636
g5
tp637
a(S'be'
p638
S'be'
p639
S'VB'
p640
S'I-VP'
p641
g5
tp642
a(S'greatly'
p643
S'greatly'
p644
S'RB'
p645
S'I-VP'
p646
g5
tp647
a(S'reduced'
p648
S'reduce'
p649
S'VBN'
p650
S'I-VP'
p651
g5
tp652
a(S'by'
p653
S'by'
p654
S'IN'
p655
S'B-PP'
p656
g5
tp657
a(g94
g94
S'DT'
p658
S'B-NP'
p659
g5
tp660
a(S'behavioral'
p661
S'behavioral'
p662
S'JJ'
p663
S'I-NP'
p664
g5
tp665
a(S'intervention'
p666
S'intervention'
p667
S'NN'
p668
S'I-NP'
p669
g5
tp670
a(S'that'
p671
S'that'
p672
S'WDT'
p673
S'B-NP'
p674
g5
tp675
a(S'controls'
p676
S'control'
p677
S'VBZ'
p678
S'B-VP'
p679
g5
tp680
a(S'observing'
p681
S'observe'
p682
S'VBG'
p683
S'I-VP'
p684
g5
tp685
a(S'behavior'
p686
S'behavior'
p687
S'NN'
p688
S'B-NP'
p689
g5
tp690
a(S'and'
p691
S'and'
p692
S'CC'
p693
g5
g5
tp694
a(S'verifies'
p695
S'verify'
p696
S'VBZ'
p697
S'B-VP'
p698
g5
tp699
a(S'discrimination'
p700
S'discrimination'
p701
S'NN'
p702
S'B-NP'
p703
g5
tp704
a(g477
g477
g477
g5
g5
tp705
a(S'but'
p706
S'but'
p707
S'CC'
p708
g5
g5
tp709
a(S'that'
p710
S'that'
p711
S'DT'
p712
S'B-NP'
p713
g5
tp714
a(S'exposure'
p715
S'exposure'
p716
S'NN'
p717
S'I-NP'
p718
g5
tp719
a(S'to'
p720
S'to'
p721
S'TO'
p722
S'B-PP'
p723
g5
tp724
a(S'such'
p725
S'such'
p726
S'JJ'
p727
S'B-NP'
p728
g5
tp729
a(S'procedures'
p730
S'procedure'
p731
S'NNS'
p732
S'I-NP'
p733
g5
tp734
a(S'alone'
p735
S'alone'
p736
S'RB'
p737
S'B-ADVP'
p738
g5
tp739
a(S'may'
p740
S'may'
p741
S'MD'
p742
S'B-VP'
p743
g5
tp744
a(S'be'
p745
S'be'
p746
S'VB'
p747
S'I-VP'
p748
g5
tp749
a(S'insufficient'
p750
S'insufficient'
p751
S'JJ'
p752
S'B-ADJP'
p753
g5
tp754
a(S'for'
p755
S'for'
p756
S'IN'
p757
S'B-PP'
p758
g5
tp759
a(S'lasting'
p760
S'last'
p761
S'VBG'
p762
S'B-VP'
p763
g5
tp764
a(S'benefits'
p765
S'benefit'
p766
S'NNS'
p767
S'B-NP'
p768
g5
tp769
a(g47
g47
g47
g5
g5
tp770
a.