(lp0
(S'Dipyridamole'
p1
S'Dipyridamole'
p2
S'NN'
p3
S'B-NP'
p4
S'O'
p5
tp6
a(S'in'
p7
S'in'
p8
S'IN'
p9
S'B-PP'
p10
g5
tp11
a(S'chronic'
p12
S'chronic'
p13
S'JJ'
p14
S'B-NP'
p15
g5
tp16
a(S'stable'
p17
S'stable'
p18
S'JJ'
p19
S'I-NP'
p20
g5
tp21
a(S'angina'
p22
S'angina'
p23
S'NN'
p24
S'I-NP'
p25
g5
tp26
a(S'pectoris'
p27
S'pectoris'
p28
S'NN'
p29
S'I-NP'
p30
g5
tp31
a(S';'
p32
g32
S':'
p33
g5
g5
tp34
a(S'a'
p35
g35
S'DT'
p36
S'B-NP'
p37
g5
tp38
a(S'randomized'
p39
S'randomize'
p40
S'VBN'
p41
S'I-NP'
p42
g5
tp43
a(S','
p44
g44
g44
S'I-NP'
p45
g5
tp46
a(S'double'
p47
S'double'
p48
S'RB'
p49
S'I-NP'
p50
g5
tp51
a(S'blind'
p52
S'blind'
p53
S'JJ'
p54
S'I-NP'
p55
g5
tp56
a(g44
g44
g44
S'I-NP'
p57
g5
tp58
a(S'placebo-controlled'
p59
S'placebo-controlled'
p60
S'JJ'
p61
S'I-NP'
p62
g5
tp63
a(g44
g44
g44
S'I-NP'
p64
g5
tp65
a(S'parallel'
p66
S'parallel'
p67
S'JJ'
p68
S'I-NP'
p69
g5
tp70
a(S'group'
p71
S'group'
p72
S'NN'
p73
S'I-NP'
p74
g5
tp75
a(S'study'
p76
S'study'
p77
S'NN'
p78
S'I-NP'
p79
g5
tp80
a(S'.'
p81
g81
g81
g5
g5
tp82
a(S'BACKGROUND'
p83
S'BACKGROUND'
p84
S'NN'
p85
S'B-NP'
p86
g5
tp87
a(S'Oral'
p88
S'Oral'
p89
S'JJ'
p90
S'I-NP'
p91
g5
tp92
a(S'dipyridamole'
p93
S'dipyridamole'
p94
S'NN'
p95
S'I-NP'
p96
g5
tp97
a(S'induces'
p98
S'induce'
p99
S'VBZ'
p100
S'B-VP'
p101
g5
tp102
a(S'accumulation'
p103
S'accumulation'
p104
S'NN'
p105
S'B-NP'
p106
g5
tp107
a(S'of'
p108
S'of'
p109
S'IN'
p110
S'B-PP'
p111
g5
tp112
a(S'endogenous'
p113
S'endogenous'
p114
S'JJ'
p115
S'B-NP'
p116
g5
tp117
a(S'adenosine'
p118
S'adenosine'
p119
S'NN'
p120
S'I-NP'
p121
g5
tp122
a(g44
g44
g44
g5
g5
tp123
a(S'which'
p124
S'which'
p125
S'WDT'
p126
S'B-NP'
p127
g5
tp128
a(S'in'
p129
S'in'
p130
S'IN'
p131
S'B-PP'
p132
g5
tp133
a(g35
g35
S'DT'
p134
S'B-NP'
p135
g5
tp136
a(S'hypoxic'
p137
S'hypoxic'
p138
S'JJ'
p139
S'I-NP'
p140
g5
tp141
a(S'milieu'
p142
S'milieu'
p143
S'NN'
p144
S'I-NP'
p145
g5
tp146
a(S'exerts'
p147
S'exert'
p148
S'VBZ'
p149
S'B-VP'
p150
g5
tp151
a(S'experimentally'
p152
S'experimentally'
p153
S'RB'
p154
S'B-ADVP'
p155
g5
tp156
a(S'an'
p157
S'an'
p158
S'DT'
p159
S'B-NP'
p160
g5
tp161
a(S'angiogenic'
p162
S'angiogenic'
p163
S'JJ'
p164
S'I-NP'
p165
g5
tp166
a(S'effect'
p167
S'effect'
p168
S'NN'
p169
S'I-NP'
p170
g5
tp171
a(S'on'
p172
S'on'
p173
S'IN'
p174
S'B-PP'
p175
g5
tp176
a(S'coronary'
p177
S'coronary'
p178
S'JJ'
p179
S'B-NP'
p180
g5
tp181
a(S'collateral'
p182
S'collateral'
p183
S'JJ'
p184
S'I-NP'
p185
g5
tp186
a(S'circulation.'
p187
S'circulation.'
p188
S'NN'
p189
S'I-NP'
p190
g5
tp191
a(S'A'
p192
g192
S'NN'
p193
S'I-NP'
p194
g5
tp195
a(S'meta-analysis'
p196
S'meta-analysis'
p197
S'NN'
p198
S'I-NP'
p199
g5
tp200
a(S'of'
p201
S'of'
p202
S'IN'
p203
S'B-PP'
p204
g5
tp205
a(S'13'
p206
S'13'
p207
S'CD'
p208
S'B-NP'
p209
g5
tp210
a(S'randomized'
p211
S'randomize'
p212
S'VBD'
p213
S'B-VP'
p214
g5
tp215
a(S'placebo-controlled'
p216
S'placebo-controlled'
p217
S'JJ'
p218
S'B-NP'
p219
g5
tp220
a(S'trials'
p221
S'trial'
p222
S'NNS'
p223
S'I-NP'
p224
g5
tp225
a(S'published'
p226
S'publish'
p227
S'VBN'
p228
S'B-VP'
p229
g5
tp230
a(S'between'
p231
S'between'
p232
S'IN'
p233
S'B-PP'
p234
g5
tp235
a(S'1960'
p236
S'1960'
p237
S'CD'
p238
S'B-NP'
p239
g5
tp240
a(S'and'
p241
S'and'
p242
S'CC'
p243
S'I-NP'
p244
g5
tp245
a(S'1992'
p246
S'1992'
p247
S'CD'
p248
S'I-NP'
p249
g5
tp250
a(S'showed'
p251
S'show'
p252
S'VBD'
p253
S'B-VP'
p254
g5
tp255
a(S'evidence'
p256
S'evidence'
p257
S'NN'
p258
S'B-NP'
p259
g5
tp260
a(S'of'
p261
S'of'
p262
S'IN'
p263
S'B-PP'
p264
g5
tp265
a(S'benefit'
p266
S'benefit'
p267
S'NN'
p268
S'B-NP'
p269
g5
tp270
a(S'for'
p271
S'for'
p272
S'IN'
p273
S'B-PP'
p274
g5
tp275
a(S'dipyridamole'
p276
S'dipyridamole'
p277
S'NN'
p278
S'B-NP'
p279
g5
tp280
a(S'in'
p281
S'in'
p282
S'IN'
p283
S'B-PP'
p284
g5
tp285
a(S'the'
p286
S'the'
p287
S'DT'
p288
S'B-NP'
p289
g5
tp290
a(S'treatment'
p291
S'treatment'
p292
S'NN'
p293
S'I-NP'
p294
g5
tp295
a(S'of'
p296
S'of'
p297
S'IN'
p298
S'B-PP'
p299
g5
tp300
a(S'angina'
p301
S'angina'
p302
S'NN'
p303
S'B-NP'
p304
g5
tp305
a(S'pectoris'
p306
S'pectoris'
p307
S'NN'
p308
S'I-NP'
p309
g5
tp310
a(g44
g44
g44
g5
g5
tp311
a(S'especially'
p312
S'especially'
p313
S'RB'
p314
S'B-ADVP'
p315
g5
tp316
a(S'with'
p317
S'with'
p318
S'IN'
p319
S'B-PP'
p320
g5
tp321
a(S'longer'
p322
S'long'
p323
S'JJR'
p324
S'B-NP'
p325
g5
tp326
a(S'duration'
p327
S'duration'
p328
S'NN'
p329
S'I-NP'
p330
g5
tp331
a(S'of'
p332
S'of'
p333
S'IN'
p334
S'B-PP'
p335
g5
tp336
a(S'treatment.'
p337
S'treatment.'
p338
S'NN'
p339
S'B-NP'
p340
g5
tp341
a(S'Aim'
p342
S'Aim'
p343
S'NN'
p344
S'I-NP'
p345
g5
tp346
a(S'To'
p347
S'To'
p348
S'TO'
p349
S'B-VP'
p350
g5
tp351
a(S'assess'
p352
S'assess'
p353
S'VB'
p354
S'I-VP'
p355
g5
tp356
a(S'the'
p357
S'the'
p358
S'DT'
p359
S'B-NP'
p360
g5
tp361
a(S'efficacy'
p362
S'efficacy'
p363
S'NN'
p364
S'I-NP'
p365
g5
tp366
a(S'and'
p367
S'and'
p368
S'CC'
p369
S'I-NP'
p370
g5
tp371
a(S'safety'
p372
S'safety'
p373
S'NN'
p374
S'I-NP'
p375
g5
tp376
a(S'of'
p377
S'of'
p378
S'IN'
p379
S'B-PP'
p380
g5
tp381
a(S'dipyridamole'
p382
S'dipyridamole'
p383
S'NN'
p384
S'B-NP'
p385
g5
tp386
a(S'in'
p387
S'in'
p388
S'IN'
p389
S'B-PP'
p390
g5
tp391
a(S'the'
p392
S'the'
p393
S'DT'
p394
S'B-NP'
p395
g5
tp396
a(S'treatment'
p397
S'treatment'
p398
S'NN'
p399
S'I-NP'
p400
g5
tp401
a(S'of'
p402
S'of'
p403
S'IN'
p404
S'B-PP'
p405
g5
tp406
a(S'patients'
p407
S'patient'
p408
S'NNS'
p409
S'B-NP'
p410
g5
tp411
a(S'with'
p412
S'with'
p413
S'IN'
p414
S'B-PP'
p415
g5
tp416
a(S'chronic'
p417
S'chronic'
p418
S'JJ'
p419
S'B-NP'
p420
g5
tp421
a(S'stable'
p422
S'stable'
p423
S'JJ'
p424
S'I-NP'
p425
g5
tp426
a(S'angina'
p427
S'angina'
p428
S'NN'
p429
S'I-NP'
p430
g5
tp431
a(S'in'
p432
S'in'
p433
S'IN'
p434
S'B-PP'
p435
g5
tp436
a(g35
g35
S'DT'
p437
S'B-NP'
p438
g5
tp439
a(S'large'
p440
S'large'
p441
S'JJ'
p442
S'I-NP'
p443
g5
tp444
a(S'scale'
p445
S'scale'
p446
S'NN'
p447
S'I-NP'
p448
g5
tp449
a(g44
g44
g44
g5
g5
tp450
a(S'international'
p451
S'international'
p452
S'JJ'
p453
S'B-NP'
p454
g5
tp455
a(g44
g44
g44
S'I-NP'
p456
g5
tp457
a(S'randomized'
p458
S'randomize'
p459
S'VBN'
p460
S'I-NP'
p461
g5
tp462
a(g44
g44
g44
S'I-NP'
p463
g5
tp464
a(S'placebo-controlled'
p465
S'placebo-controlled'
p466
S'JJ'
p467
S'I-NP'
p468
g5
tp469
a(g44
g44
g44
S'I-NP'
p470
g5
tp471
a(S'parallel'
p472
S'parallel'
p473
S'JJ'
p474
S'I-NP'
p475
g5
tp476
a(S'group'
p477
S'group'
p478
S'NN'
p479
S'I-NP'
p480
g5
tp481
a(S'study'
p482
S'study'
p483
S'NN'
p484
S'I-NP'
p485
g5
tp486
a(g81
g81
g81
g5
g5
tp487
a(S'METHODS'
p488
S'METHODS'
p489
S'NNS'
p490
S'B-NP'
p491
g5
tp492
a(S'Four'
p493
S'Four'
p494
S'CD'
p495
S'B-NP'
p496
g5
tp497
a(S'hundred'
p498
S'hundred'
p499
S'CD'
p500
S'I-NP'
p501
g5
tp502
a(S'patients'
p503
S'patient'
p504
S'NNS'
p505
S'I-NP'
p506
g5
tp507
a(S'with'
p508
S'with'
p509
S'IN'
p510
S'B-PP'
p511
g5
tp512
a(S'chronic'
p513
S'chronic'
p514
S'JJ'
p515
S'B-NP'
p516
g5
tp517
a(S'stable'
p518
S'stable'
p519
S'JJ'
p520
S'I-NP'
p521
g5
tp522
a(S'angina'
p523
S'angina'
p524
S'NN'
p525
S'I-NP'
p526
g5
tp527
a(S'pectoris'
p528
S'pectoris'
p529
S'NN'
p530
S'I-NP'
p531
g5
tp532
a(S'and'
p533
S'and'
p534
S'CC'
p535
g5
g5
tp536
a(g35
g35
S'DT'
p537
S'B-NP'
p538
g5
tp539
a(S'positive'
p540
S'positive'
p541
S'JJ'
p542
S'I-NP'
p543
g5
tp544
a(S'treadmill'
p545
S'treadmill'
p546
S'NN'
p547
S'I-NP'
p548
g5
tp549
a(S'exercise'
p550
S'exercise'
p551
S'NN'
p552
S'I-NP'
p553
g5
tp554
a(S'test'
p555
S'test'
p556
S'NN'
p557
S'I-NP'
p558
g5
tp559
a(S'were'
p560
S'be'
p561
S'VBD'
p562
S'B-VP'
p563
g5
tp564
a(S'randomized'
p565
S'randomize'
p566
S'VBN'
p567
S'I-VP'
p568
g5
tp569
a(S'to'
p570
S'to'
p571
S'TO'
p572
S'B-VP'
p573
g5
tp574
a(S'receive'
p575
S'receive'
p576
S'VB'
p577
S'I-VP'
p578
g5
tp579
a(S'either'
p580
S'either'
p581
S'CC'
p582
S'B-NP'
p583
g5
tp584
a(S'modified'
p585
S'modify'
p586
S'VBN'
p587
S'I-NP'
p588
g5
tp589
a(S'release'
p590
S'release'
p591
S'NN'
p592
S'I-NP'
p593
g5
tp594
a(S'dipyridamole'
p595
S'dipyridamole'
p596
S'NN'
p597
S'I-NP'
p598
g5
tp599
a(S'('
p600
g600
g600
g5
g5
tp601
a(S'200'
p602
S'200'
p603
S'CD'
p604
S'B-NP'
p605
g5
tp606
a(S'mg'
p607
S'mg'
p608
S'NN'
p609
S'I-NP'
p610
g5
tp611
a(S'b.i.d.'
p612
S'b.i.d.'
p613
S'RB'
p614
S'B-NP'
p615
g5
tp616
a(S'p.o.'
p617
S'p.o.'
p618
S'NN'
p619
S'I-NP'
p620
g5
tp621
a(g44
g44
g44
S'I-NP'
p622
g5
tp623
a(S'n=198'
p624
S'n=198'
p625
S'NN'
p626
S'I-NP'
p627
g5
tp628
a(S')'
p629
g629
g629
g5
g5
tp630
a(S'or'
p631
S'or'
p632
S'CC'
p633
g5
g5
tp634
a(S'corresponding'
p635
S'corresponding'
p636
S'JJ'
p637
S'B-NP'
p638
g5
tp639
a(S'placebo'
p640
S'placebo'
p641
S'NN'
p642
S'I-NP'
p643
g5
tp644
a(g600
g600
g600
g5
g5
tp645
a(S'n=202'
p646
S'n=202'
p647
S'NN'
p648
S'B-NP'
p649
S'B-protein'
p650
tp651
a(g629
g629
g629
g5
g5
tp652
a(g44
g44
g44
g5
g5
tp653
a(S'for'
p654
S'for'
p655
S'IN'
p656
S'B-PP'
p657
g5
tp658
a(S'24'
p659
S'24'
p660
S'CD'
p661
S'B-NP'
p662
g5
tp663
a(S'weeks'
p664
S'week'
p665
S'NNS'
p666
S'I-NP'
p667
g5
tp668
a(S'as'
p669
S'as'
p670
S'IN'
p671
S'B-PP'
p672
g5
tp673
a(S'an'
p674
S'an'
p675
S'DT'
p676
S'B-NP'
p677
g5
tp678
a(S'add-on'
p679
S'add-on'
p680
S'JJ'
p681
S'I-NP'
p682
g5
tp683
a(S'to'
p684
S'to'
p685
S'TO'
p686
S'B-PP'
p687
g5
tp688
a(S'conventional'
p689
S'conventional'
p690
S'JJ'
p691
S'B-NP'
p692
g5
tp693
a(S'antianginal'
p694
S'antianginal'
p695
S'JJ'
p696
S'I-NP'
p697
g5
tp698
a(S'therapy'
p699
S'therapy'
p700
S'NN'
p701
S'I-NP'
p702
g5
tp703
a(S'and'
p704
S'and'
p705
S'CC'
p706
g5
g5
tp707
a(S'for'
p708
S'for'
p709
S'IN'
p710
S'B-PP'
p711
g5
tp712
a(S'4'
p713
g713
S'CD'
p714
S'B-NP'
p715
g5
tp716
a(S'additional'
p717
S'additional'
p718
S'JJ'
p719
S'I-NP'
p720
g5
tp721
a(S'weeks'
p722
S'week'
p723
S'NNS'
p724
S'I-NP'
p725
g5
tp726
a(S'as'
p727
S'as'
p728
S'IN'
p729
S'B-PP'
p730
g5
tp731
a(S'monotherapy'
p732
S'monotherapy'
p733
S'NN'
p734
S'B-NP'
p735
g5
tp736
a(S'--'
p737
S'--'
p738
g33
g5
g5
tp739
a(S'the'
p740
S'the'
p741
S'DT'
p742
S'B-NP'
p743
g5
tp744
a(S'latter'
p745
S'latter'
p746
S'JJ'
p747
S'I-NP'
p748
g5
tp749
a(S'after'
p750
S'after'
p751
S'IN'
p752
S'B-PP'
p753
g5
tp754
a(S'withdrawal'
p755
S'withdrawal'
p756
S'NN'
p757
S'B-NP'
p758
g5
tp759
a(S'of'
p760
S'of'
p761
S'IN'
p762
S'B-PP'
p763
g5
tp764
a(S'standard'
p765
S'standard'
p766
S'JJ'
p767
S'B-NP'
p768
g5
tp769
a(S'treatment'
p770
S'treatment'
p771
S'NN'
p772
S'I-NP'
p773
g5
tp774
a(S'with'
p775
S'with'
p776
S'IN'
p777
S'B-PP'
p778
g5
tp779
a(S'calcium'
p780
S'calcium'
p781
S'NN'
p782
S'B-NP'
p783
g5
tp784
a(S'antagonists'
p785
S'antagonist'
p786
S'NNS'
p787
S'I-NP'
p788
g5
tp789
a(S'and/or'
p790
S'and/or'
p791
S'CC'
p792
g5
g5
tp793
a(S'beta-blockers'
p794
S'beta-blocker'
p795
S'NNS'
p796
S'B-NP'
p797
g5
tp798
a(S'and/or'
p799
S'and/or'
p800
S'CC'
p801
g5
g5
tp802
a(S'long-acting'
p803
S'long-acting'
p804
S'JJ'
p805
g5
g5
tp806
a(g600
g600
g600
g5
g5
tp807
a(S'prophylactic'
p808
S'prophylactic'
p809
S'JJ'
p810
S'B-ADJP'
p811
g5
tp812
a(g629
g629
g629
g5
g5
tp813
a(S'nitrates'
p814
S'nitrate'
p815
S'NNS'
p816
S'B-NP'
p817
g5
tp818
a(g81
g81
g81
g5
g5
tp819
a(S'RESULTS'
p820
S'RESULTS'
p821
S'NNS'
p822
S'B-NP'
p823
g5
tp824
a(S'Of'
p825
S'Of'
p826
S'IN'
p827
S'B-PP'
p828
g5
tp829
a(S'the'
p830
S'the'
p831
S'DT'
p832
S'B-NP'
p833
g5
tp834
a(S'198'
p835
S'198'
p836
S'CD'
p837
S'I-NP'
p838
g5
tp839
a(S'patients'
p840
S'patient'
p841
S'NNS'
p842
S'I-NP'
p843
g5
tp844
a(S'randomized'
p845
S'randomize'
p846
S'VBN'
p847
S'B-VP'
p848
g5
tp849
a(S'to'
p850
S'to'
p851
S'TO'
p852
S'B-PP'
p853
g5
tp854
a(S'dipyridamole'
p855
S'dipyridamole'
p856
S'NN'
p857
S'B-NP'
p858
g5
tp859
a(g44
g44
g44
g5
g5
tp860
a(S'134'
p861
S'134'
p862
S'CD'
p863
S'B-NP'
p864
g5
tp865
a(S'completed'
p866
S'complete'
p867
S'VBD'
p868
S'B-VP'
p869
g5
tp870
a(S'the'
p871
S'the'
p872
S'DT'
p873
S'B-NP'
p874
g5
tp875
a(S'add-on'
p876
S'add-on'
p877
S'JJ'
p878
S'I-NP'
p879
g5
tp880
a(S'and'
p881
S'and'
p882
S'CC'
p883
S'I-NP'
p884
g5
tp885
a(S'only'
p886
S'only'
p887
S'RB'
p888
S'I-NP'
p889
g5
tp890
a(S'12'
p891
S'12'
p892
S'CD'
p893
S'I-NP'
p894
g5
tp895
a(S'the'
p896
S'the'
p897
S'DT'
p898
S'B-NP'
p899
g5
tp900
a(S'monotherapy'
p901
S'monotherapy'
p902
S'NN'
p903
S'I-NP'
p904
g5
tp905
a(S'phase.'
p906
S'phase.'
p907
S'NN'
p908
S'I-NP'
p909
g5
tp910
a(S'Of'
p911
S'Of'
p912
S'IN'
p913
S'B-PP'
p914
g5
tp915
a(S'the'
p916
S'the'
p917
S'DT'
p918
S'B-NP'
p919
g5
tp920
a(S'202'
p921
S'202'
p922
S'CD'
p923
S'I-NP'
p924
g5
tp925
a(S'patients'
p926
S'patient'
p927
S'NNS'
p928
S'I-NP'
p929
g5
tp930
a(S'randomized'
p931
S'randomize'
p932
S'VBN'
p933
S'B-VP'
p934
g5
tp935
a(S'to'
p936
S'to'
p937
S'TO'
p938
S'B-PP'
p939
g5
tp940
a(S'placebo'
p941
S'placebo'
p942
S'NN'
p943
S'B-NP'
p944
g5
tp945
a(g44
g44
g44
g5
g5
tp946
a(S'162'
p947
S'162'
p948
S'CD'
p949
S'B-NP'
p950
g5
tp951
a(S'reached'
p952
S'reach'
p953
S'VBD'
p954
S'B-VP'
p955
g5
tp956
a(S'the'
p957
S'the'
p958
S'DT'
p959
S'B-NP'
p960
g5
tp961
a(S'add-on'
p962
S'add-on'
p963
S'JJ'
p964
S'I-NP'
p965
g5
tp966
a(S'and'
p967
S'and'
p968
S'CC'
p969
S'I-NP'
p970
g5
tp971
a(S'only'
p972
S'only'
p973
S'RB'
p974
S'I-NP'
p975
g5
tp976
a(S'12'
p977
S'12'
p978
S'CD'
p979
S'I-NP'
p980
g5
tp981
a(S'the'
p982
S'the'
p983
S'DT'
p984
S'B-NP'
p985
g5
tp986
a(S'monotherapy'
p987
S'monotherapy'
p988
S'NN'
p989
S'I-NP'
p990
g5
tp991
a(S'phase.'
p992
S'phase.'
p993
S'NN'
p994
S'I-NP'
p995
g5
tp996
a(S'Serious'
p997
S'Serious'
p998
S'JJ'
p999
S'I-NP'
p1000
g5
tp1001
a(S'adverse'
p1002
S'adverse'
p1003
S'JJ'
p1004
S'I-NP'
p1005
g5
tp1006
a(S'events'
p1007
S'event'
p1008
S'NNS'
p1009
S'I-NP'
p1010
g5
tp1011
a(S'occurred'
p1012
S'occur'
p1013
S'VBD'
p1014
S'B-VP'
p1015
g5
tp1016
a(S'in'
p1017
S'in'
p1018
S'IN'
p1019
S'B-PP'
p1020
g5
tp1021
a(S'15'
p1022
S'15'
p1023
S'CD'
p1024
S'B-NP'
p1025
g5
tp1026
a(S'patients'
p1027
S'patient'
p1028
S'NNS'
p1029
S'I-NP'
p1030
g5
tp1031
a(S'with'
p1032
S'with'
p1033
S'IN'
p1034
S'B-PP'
p1035
g5
tp1036
a(S'dipyridamole'
p1037
S'dipyridamole'
p1038
S'NN'
p1039
S'B-NP'
p1040
g5
tp1041
a(S'and'
p1042
S'and'
p1043
S'CC'
p1044
g5
g5
tp1045
a(S'in'
p1046
S'in'
p1047
S'IN'
p1048
S'B-PP'
p1049
g5
tp1050
a(S'12'
p1051
S'12'
p1052
S'CD'
p1053
S'B-NP'
p1054
g5
tp1055
a(S'with'
p1056
S'with'
p1057
S'IN'
p1058
S'B-PP'
p1059
g5
tp1060
a(S'placebo'
p1061
S'placebo'
p1062
S'NN'
p1063
S'B-NP'
p1064
g5
tp1065
a(g600
g600
g600
g5
g5
tp1066
a(S'7.6'
p1067
S'7.6'
p1068
S'CD'
p1069
S'B-NP'
p1070
g5
tp1071
a(S'%'
p1072
g1072
S'NN'
p1073
S'I-NP'
p1074
g5
tp1075
a(S'vs'
p1076
S'vs'
p1077
S'IN'
p1078
S'B-PP'
p1079
g5
tp1080
a(S'6.0'
p1081
S'6.0'
p1082
S'CD'
p1083
S'B-NP'
p1084
g5
tp1085
a(g44
g44
g44
g5
g5
tp1086
a(S'P=0.52'
p1087
S'P=0.52'
p1088
S'NN'
p1089
S'B-NP'
p1090
g5
tp1091
a(g629
g629
g629
g5
g5
tp1092
a(g81
g81
g81
g5
g5
tp1093
a(S'Increase'
p1094
S'Increase'
p1095
S'NN'
p1096
S'B-NP'
p1097
g5
tp1098
a(S'over'
p1099
S'over'
p1100
S'IN'
p1101
S'B-PP'
p1102
g5
tp1103
a(S'the'
p1104
S'the'
p1105
S'DT'
p1106
S'B-NP'
p1107
g5
tp1108
a(S'baseline'
p1109
S'baseline'
p1110
S'NN'
p1111
S'I-NP'
p1112
g5
tp1113
a(S'treadmill'
p1114
S'treadmill'
p1115
S'NN'
p1116
S'I-NP'
p1117
g5
tp1118
a(S'exercise'
p1119
S'exercise'
p1120
S'NN'
p1121
S'I-NP'
p1122
g5
tp1123
a(S'test'
p1124
S'test'
p1125
S'NN'
p1126
S'I-NP'
p1127
g5
tp1128
a(S'was'
p1129
S'be'
p1130
S'VBD'
p1131
S'B-VP'
p1132
g5
tp1133
a(S'similar'
p1134
S'similar'
p1135
S'JJ'
p1136
S'B-ADJP'
p1137
g5
tp1138
a(S'in'
p1139
S'in'
p1140
S'IN'
p1141
S'B-PP'
p1142
g5
tp1143
a(S'the'
p1144
S'the'
p1145
S'DT'
p1146
S'B-NP'
p1147
g5
tp1148
a(S'treatment'
p1149
S'treatment'
p1150
S'NN'
p1151
S'I-NP'
p1152
g5
tp1153
a(S'groups'
p1154
S'group'
p1155
S'NNS'
p1156
S'I-NP'
p1157
g5
tp1158
a(S'at'
p1159
S'at'
p1160
S'IN'
p1161
S'B-PP'
p1162
g5
tp1163
a(S'each'
p1164
S'each'
p1165
S'DT'
p1166
S'B-NP'
p1167
g5
tp1168
a(S'stage'
p1169
S'stage'
p1170
S'NN'
p1171
S'I-NP'
p1172
g5
tp1173
a(S'of'
p1174
S'of'
p1175
S'IN'
p1176
S'B-PP'
p1177
g5
tp1178
a(S'the'
p1179
S'the'
p1180
S'DT'
p1181
S'B-NP'
p1182
g5
tp1183
a(S'trial'
p1184
S'trial'
p1185
S'NN'
p1186
S'I-NP'
p1187
g5
tp1188
a(S'for'
p1189
S'for'
p1190
S'IN'
p1191
S'B-PP'
p1192
g5
tp1193
a(S'all'
p1194
S'all'
p1195
S'PDT'
p1196
S'B-NP'
p1197
g5
tp1198
a(S'the'
p1199
S'the'
p1200
S'DT'
p1201
S'I-NP'
p1202
g5
tp1203
a(S'main'
p1204
S'main'
p1205
S'JJ'
p1206
S'I-NP'
p1207
g5
tp1208
a(S'efficacy'
p1209
S'efficacy'
p1210
S'NN'
p1211
S'I-NP'
p1212
g5
tp1213
a(S'parameters'
p1214
S'parameter'
p1215
S'NNS'
p1216
S'I-NP'
p1217
g5
tp1218
a(g33
g33
g33
g5
g5
tp1219
a(S'total'
p1220
S'total'
p1221
S'JJ'
p1222
S'B-NP'
p1223
g5
tp1224
a(S'treadmill'
p1225
S'treadmill'
p1226
S'NN'
p1227
S'I-NP'
p1228
g5
tp1229
a(S'exercise'
p1230
S'exercise'
p1231
S'NN'
p1232
S'I-NP'
p1233
g5
tp1234
a(S'test'
p1235
S'test'
p1236
S'NN'
p1237
S'I-NP'
p1238
g5
tp1239
a(S'duration'
p1240
S'duration'
p1241
S'NN'
p1242
S'I-NP'
p1243
g5
tp1244
a(g32
g32
g33
g5
g5
tp1245
a(S'time'
p1246
S'time'
p1247
S'NN'
p1248
S'B-NP'
p1249
g5
tp1250
a(S'to'
p1251
S'to'
p1252
S'TO'
p1253
S'B-PP'
p1254
g5
tp1255
a(S'first'
p1256
S'first'
p1257
S'JJ'
p1258
S'B-NP'
p1259
g5
tp1260
a(S'anginal'
p1261
S'anginal'
p1262
S'JJ'
p1263
S'I-NP'
p1264
g5
tp1265
a(S'pain'
p1266
S'pain'
p1267
S'NN'
p1268
S'I-NP'
p1269
g5
tp1270
a(g600
g600
g600
g5
g5
tp1271
a(S'except'
p1272
S'except'
p1273
S'IN'
p1274
S'B-PP'
p1275
g5
tp1276
a(S'for'
p1277
S'for'
p1278
S'IN'
p1279
S'B-PP'
p1280
g5
tp1281
a(g35
g35
S'DT'
p1282
S'B-NP'
p1283
g5
tp1284
a(S'-13'
p1285
S'-13'
p1286
S'CD'
p1287
S'I-NP'
p1288
g5
tp1289
a(S's'
p1290
g1290
S'NN'
p1291
S'I-NP'
p1292
g5
tp1293
a(S'difference'
p1294
S'difference'
p1295
S'NN'
p1296
S'I-NP'
p1297
g5
tp1298
a(S'in'
p1299
S'in'
p1300
S'IN'
p1301
S'B-PP'
p1302
g5
tp1303
a(S'favour'
p1304
S'favour'
p1305
S'NN'
p1306
S'B-NP'
p1307
g5
tp1308
a(S'of'
p1309
S'of'
p1310
S'IN'
p1311
S'B-PP'
p1312
g5
tp1313
a(S'placebo'
p1314
S'placebo'
p1315
S'NN'
p1316
S'B-NP'
p1317
g5
tp1318
a(S'at'
p1319
S'at'
p1320
S'IN'
p1321
S'B-PP'
p1322
g5
tp1323
a(S'week'
p1324
S'week'
p1325
S'NN'
p1326
S'B-NP'
p1327
g5
tp1328
a(S'24'
p1329
S'24'
p1330
S'CD'
p1331
S'I-NP'
p1332
g5
tp1333
a(g32
g32
g33
g5
g5
tp1334
a(S'P=0.040'
p1335
S'P=0.040'
p1336
S'NN'
p1337
S'B-NP'
p1338
g5
tp1339
a(g629
g629
g629
g5
g5
tp1340
a(g32
g32
g33
g5
g5
tp1341
a(S'time'
p1342
S'time'
p1343
S'NN'
p1344
S'B-NP'
p1345
g5
tp1346
a(S'to'
p1347
S'to'
p1348
S'TO'
p1349
S'B-PP'
p1350
g5
tp1351
a(S'ST'
p1352
S'ST'
p1353
S'JJ'
p1354
S'B-NP'
p1355
g5
tp1356
a(S'segment'
p1357
S'segment'
p1358
S'NN'
p1359
S'I-NP'
p1360
g5
tp1361
a(S'depression'
p1362
S'depression'
p1363
S'NN'
p1364
S'I-NP'
p1365
g5
tp1366
a(S'>'
p1367
g1367
S'SYM'
p1368
g5
g5
tp1369
a(S'0.1'
p1370
S'0.1'
p1371
S'CD'
p1372
S'B-NP'
p1373
g5
tp1374
a(S'mVolt'
p1375
S'mVolt'
p1376
S'NN'
p1377
S'I-NP'
p1378
g5
tp1379
a(g600
g600
g600
g5
g5
tp1380
a(S'except'
p1381
S'except'
p1382
S'IN'
p1383
S'B-PP'
p1384
g5
tp1385
a(S'for'
p1386
S'for'
p1387
S'IN'
p1388
S'B-PP'
p1389
g5
tp1390
a(g35
g35
S'DT'
p1391
S'B-NP'
p1392
g5
tp1393
a(S'+21'
p1394
S'+21'
p1395
S'NN'
p1396
S'I-NP'
p1397
g5
tp1398
a(g1290
g1290
S'NN'
p1399
S'I-NP'
p1400
g5
tp1401
a(S'difference'
p1402
S'difference'
p1403
S'NN'
p1404
S'I-NP'
p1405
g5
tp1406
a(S'in'
p1407
S'in'
p1408
S'IN'
p1409
S'B-PP'
p1410
g5
tp1411
a(S'favour'
p1412
S'favour'
p1413
S'NN'
p1414
S'B-NP'
p1415
g5
tp1416
a(S'of'
p1417
S'of'
p1418
S'IN'
p1419
S'B-PP'
p1420
g5
tp1421
a(S'dipyridamole'
p1422
S'dipyridamole'
p1423
S'NN'
p1424
S'B-NP'
p1425
g5
tp1426
a(S'at'
p1427
S'at'
p1428
S'IN'
p1429
S'B-PP'
p1430
g5
tp1431
a(S'week'
p1432
S'week'
p1433
S'NN'
p1434
S'B-NP'
p1435
g5
tp1436
a(S'8'
p1437
g1437
S'CD'
p1438
S'I-NP'
p1439
g5
tp1440
a(g32
g32
g33
g5
g5
tp1441
a(S'P=0.024'
p1442
S'P=0.024'
p1443
S'NN'
p1444
S'B-NP'
p1445
g5
tp1446
a(g32
g32
g33
g5
g5
tp1447
a(S'this'
p1448
S'this'
p1449
S'DT'
p1450
S'B-NP'
p1451
g5
tp1452
a(S'latter'
p1453
S'latter'
p1454
S'JJ'
p1455
S'I-NP'
p1456
g5
tp1457
a(S'difference'
p1458
S'difference'
p1459
S'NN'
p1460
S'I-NP'
p1461
g5
tp1462
a(S'was'
p1463
S'be'
p1464
S'VBD'
p1465
S'B-VP'
p1466
g5
tp1467
a(S'totally'
p1468
S'totally'
p1469
S'RB'
p1470
S'B-ADJP'
p1471
g5
tp1472
a(S'attributable'
p1473
S'attributable'
p1474
S'JJ'
p1475
S'I-ADJP'
p1476
g5
tp1477
a(S'to'
p1478
S'to'
p1479
S'TO'
p1480
S'B-PP'
p1481
g5
tp1482
a(S'patients'
p1483
S'patient'
p1484
S'NNS'
p1485
S'B-NP'
p1486
g5
tp1487
a(S'with'
p1488
S'with'
p1489
S'IN'
p1490
S'B-PP'
p1491
g5
tp1492
a(S'lower'
p1493
S'low'
p1494
S'JJR'
p1495
S'B-NP'
p1496
g5
tp1497
a(S'exercise'
p1498
S'exercise'
p1499
S'NN'
p1500
S'I-NP'
p1501
g5
tp1502
a(S'tolerance'
p1503
S'tolerance'
p1504
S'NN'
p1505
S'I-NP'
p1506
g5
tp1507
a(S'--'
p1508
S'--'
p1509
g33
g5
g5
tp1510
a(S'Bruce'
p1511
S'Bruce'
p1512
S'NN'
p1513
S'B-NP'
p1514
g5
tp1515
a(S'stage'
p1516
S'stage'
p1517
S'NN'
p1518
S'I-NP'
p1519
g5
tp1520
a(S'II'
p1521
S'II'
p1522
S'CD'
p1523
S'I-NP'
p1524
g5
tp1525
a(S'at'
p1526
S'at'
p1527
S'IN'
p1528
S'B-PP'
p1529
g5
tp1530
a(S'study'
p1531
S'study'
p1532
S'NN'
p1533
S'B-NP'
p1534
g5
tp1535
a(S'entry'
p1536
S'entry'
p1537
S'NN'
p1538
S'I-NP'
p1539
g5
tp1540
a(g629
g629
g629
g5
g5
tp1541
a(g81
g81
g81
g5
g5
tp1542
a(S'CONCLUSION'
p1543
S'CONCLUSION'
p1544
S'NN'
p1545
S'B-NP'
p1546
g5
tp1547
a(S'In'
p1548
S'In'
p1549
S'IN'
p1550
S'B-PP'
p1551
g5
tp1552
a(S'patients'
p1553
S'patient'
p1554
S'NNS'
p1555
S'B-NP'
p1556
g5
tp1557
a(S'with'
p1558
S'with'
p1559
S'IN'
p1560
S'B-PP'
p1561
g5
tp1562
a(S'chronic'
p1563
S'chronic'
p1564
S'JJ'
p1565
S'B-NP'
p1566
g5
tp1567
a(S'stable'
p1568
S'stable'
p1569
S'JJ'
p1570
S'I-NP'
p1571
g5
tp1572
a(S'angina'
p1573
S'angina'
p1574
S'NN'
p1575
S'I-NP'
p1576
g5
tp1577
a(S'treated'
p1578
S'treat'
p1579
S'VBN'
p1580
S'B-VP'
p1581
g5
tp1582
a(S'with'
p1583
S'with'
p1584
S'IN'
p1585
S'B-PP'
p1586
g5
tp1587
a(S'regular'
p1588
S'regular'
p1589
S'JJ'
p1590
S'B-NP'
p1591
g5
tp1592
a(S'antianginal'
p1593
S'antianginal'
p1594
S'JJ'
p1595
S'I-NP'
p1596
g5
tp1597
a(S'background'
p1598
S'background'
p1599
S'NN'
p1600
S'I-NP'
p1601
g5
tp1602
a(S'medication'
p1603
S'medication'
p1604
S'NN'
p1605
S'I-NP'
p1606
g5
tp1607
a(g44
g44
g44
g5
g5
tp1608
a(S'the'
p1609
S'the'
p1610
S'DT'
p1611
S'B-NP'
p1612
g5
tp1613
a(S'use'
p1614
S'use'
p1615
S'NN'
p1616
S'I-NP'
p1617
g5
tp1618
a(S'of'
p1619
S'of'
p1620
S'IN'
p1621
S'B-PP'
p1622
g5
tp1623
a(S'oral'
p1624
S'oral'
p1625
S'JJ'
p1626
S'B-NP'
p1627
g5
tp1628
a(S'dipyridamole'
p1629
S'dipyridamole'
p1630
S'NN'
p1631
S'I-NP'
p1632
g5
tp1633
a(S'is'
p1634
S'be'
p1635
S'VBZ'
p1636
S'B-VP'
p1637
g5
tp1638
a(S'safe'
p1639
S'safe'
p1640
S'JJ'
p1641
S'B-ADJP'
p1642
g5
tp1643
a(S'and'
p1644
S'and'
p1645
S'CC'
p1646
g5
g5
tp1647
a(S'well'
p1648
S'well'
p1649
S'RB'
p1650
S'B-NP'
p1651
g5
tp1652
a(S'tolerated.'
p1653
S'tolerated.'
p1654
S'VBN'
p1655
S'I-NP'
p1656
g5
tp1657
a(S'Antianginal'
p1658
S'Antianginal'
p1659
S'JJ'
p1660
S'I-NP'
p1661
g5
tp1662
a(S'and'
p1663
S'and'
p1664
S'CC'
p1665
S'I-NP'
p1666
g5
tp1667
a(S'antiischaemic'
p1668
S'antiischaemic'
p1669
S'JJ'
p1670
S'I-NP'
p1671
g5
tp1672
a(S'efficacy'
p1673
S'efficacy'
p1674
S'NN'
p1675
S'I-NP'
p1676
g5
tp1677
a(g44
g44
g44
g5
g5
tp1678
a(S'as'
p1679
S'as'
p1680
S'IN'
p1681
S'B-SBAR'
p1682
g5
tp1683
a(S'assessed'
p1684
S'assess'
p1685
S'VBN'
p1686
S'B-VP'
p1687
g5
tp1688
a(S'by'
p1689
S'by'
p1690
S'IN'
p1691
S'B-PP'
p1692
g5
tp1693
a(S'exercise'
p1694
S'exercise'
p1695
S'NN'
p1696
S'B-NP'
p1697
g5
tp1698
a(S'testing'
p1699
S'testing'
p1700
S'NN'
p1701
S'I-NP'
p1702
g5
tp1703
a(g44
g44
g44
g5
g5
tp1704
a(S'is'
p1705
S'be'
p1706
S'VBZ'
p1707
S'B-VP'
p1708
g5
tp1709
a(S'comparable'
p1710
S'comparable'
p1711
S'JJ'
p1712
S'B-ADJP'
p1713
g5
tp1714
a(S'to'
p1715
S'to'
p1716
S'TO'
p1717
S'B-PP'
p1718
g5
tp1719
a(S'placebo'
p1720
S'placebo'
p1721
S'NN'
p1722
S'B-NP'
p1723
g5
tp1724
a(g44
g44
g44
g5
g5
tp1725
a(S'except'
p1726
S'except'
p1727
S'IN'
p1728
S'B-PP'
p1729
g5
tp1730
a(S'for'
p1731
S'for'
p1732
S'IN'
p1733
S'B-PP'
p1734
g5
tp1735
a(g35
g35
S'DT'
p1736
S'B-NP'
p1737
g5
tp1738
a(S'beneficial'
p1739
S'beneficial'
p1740
S'JJ'
p1741
S'I-NP'
p1742
g5
tp1743
a(S'effect'
p1744
S'effect'
p1745
S'NN'
p1746
S'I-NP'
p1747
g5
tp1748
a(S'on'
p1749
S'on'
p1750
S'IN'
p1751
S'B-PP'
p1752
g5
tp1753
a(S'time'
p1754
S'time'
p1755
S'NN'
p1756
S'B-NP'
p1757
g5
tp1758
a(S'to'
p1759
S'to'
p1760
S'TO'
p1761
S'B-PP'
p1762
g5
tp1763
a(S'ischaemia'
p1764
S'ischaemia'
p1765
S'NN'
p1766
S'B-NP'
p1767
g5
tp1768
a(S'after'
p1769
S'after'
p1770
S'IN'
p1771
S'B-PP'
p1772
g5
tp1773
a(S'2'
p1774
g1774
S'CD'
p1775
S'B-NP'
p1776
g5
tp1777
a(S'months'
p1778
S'month'
p1779
S'NNS'
p1780
S'I-NP'
p1781
g5
tp1782
a(g44
g44
g44
g5
g5
tp1783
a(S'totally'
p1784
S'totally'
p1785
S'RB'
p1786
S'B-ADJP'
p1787
g5
tp1788
a(S'attributable'
p1789
S'attributable'
p1790
S'JJ'
p1791
S'I-ADJP'
p1792
g5
tp1793
a(S'to'
p1794
S'to'
p1795
S'TO'
p1796
S'B-PP'
p1797
g5
tp1798
a(S'patients'
p1799
S'patient'
p1800
S'NNS'
p1801
S'B-NP'
p1802
g5
tp1803
a(S'with'
p1804
S'with'
p1805
S'IN'
p1806
S'B-PP'
p1807
g5
tp1808
a(S'lower'
p1809
S'low'
p1810
S'JJR'
p1811
S'B-NP'
p1812
g5
tp1813
a(S'exercise'
p1814
S'exercise'
p1815
S'NN'
p1816
S'I-NP'
p1817
g5
tp1818
a(S'tolerance'
p1819
S'tolerance'
p1820
S'NN'
p1821
S'I-NP'
p1822
g5
tp1823
a(S'at'
p1824
S'at'
p1825
S'IN'
p1826
S'B-PP'
p1827
g5
tp1828
a(S'study'
p1829
S'study'
p1830
S'NN'
p1831
S'B-NP'
p1832
g5
tp1833
a(S'entry'
p1834
S'entry'
p1835
S'NN'
p1836
S'I-NP'
p1837
g5
tp1838
a(g81
g81
g81
g5
g5
tp1839
a.