(lp0
(S'Influence'
p1
S'Influence'
p2
S'NN'
p3
S'B-NP'
p4
S'O'
p5
tp6
a(S'of'
p7
S'of'
p8
S'IN'
p9
S'B-PP'
p10
g5
tp11
a(S'lime'
p12
S'lime'
p13
S'NN'
p14
S'B-NP'
p15
g5
tp16
a(S'juice'
p17
S'juice'
p18
S'NN'
p19
S'I-NP'
p20
g5
tp21
a(S'on'
p22
S'on'
p23
S'IN'
p24
S'B-PP'
p25
g5
tp26
a(S'the'
p27
S'the'
p28
S'DT'
p29
S'B-NP'
p30
g5
tp31
a(S'severity'
p32
S'severity'
p33
S'NN'
p34
S'I-NP'
p35
g5
tp36
a(S'of'
p37
S'of'
p38
S'IN'
p39
S'B-PP'
p40
g5
tp41
a(S'sickle'
p42
S'sickle'
p43
S'JJ'
p44
S'B-NP'
p45
g5
tp46
a(S'cell'
p47
S'cell'
p48
S'NN'
p49
S'I-NP'
p50
g5
tp51
a(S'anemia'
p52
S'anemia'
p53
S'NN'
p54
S'I-NP'
p55
g5
tp56
a(S'.'
p57
g57
g57
g5
g5
tp58
a(S'BACKGROUND'
p59
S'BACKGROUND'
p60
S'NN'
p61
S'B-NP'
p62
g5
tp63
a(S'AND'
p64
S'AND'
p65
S'CC'
p66
g5
g5
tp67
a(S'OBJECTIVES'
p68
S'OBJECTIVES'
p69
S'VBZ'
p70
S'B-VP'
p71
g5
tp72
a(S'The'
p73
S'The'
p74
S'DT'
p75
S'B-NP'
p76
g5
tp77
a(S'pain'
p78
S'pain'
p79
S'NN'
p80
S'I-NP'
p81
g5
tp82
a(S'in'
p83
S'in'
p84
S'IN'
p85
S'B-PP'
p86
g5
tp87
a(S'sickle'
p88
S'sickle'
p89
S'JJ'
p90
S'B-NP'
p91
g5
tp92
a(S'cell'
p93
S'cell'
p94
S'NN'
p95
S'I-NP'
p96
g5
tp97
a(S'anemia'
p98
S'anemia'
p99
S'NN'
p100
S'I-NP'
p101
g5
tp102
a(S'('
p103
g103
g103
g5
g5
tp104
a(S'SCA'
p105
S'SCA'
p106
S'NN'
p107
S'B-NP'
p108
S'B-protein'
p109
tp110
a(S')'
p111
g111
g111
g5
g5
tp112
a(S'is'
p113
S'be'
p114
S'VBZ'
p115
S'B-VP'
p116
g5
tp117
a(S'often'
p118
S'often'
p119
S'RB'
p120
S'I-VP'
p121
g5
tp122
a(S'triggered'
p123
S'trigger'
p124
S'VBN'
p125
S'I-VP'
p126
g5
tp127
a(S'by'
p128
S'by'
p129
S'IN'
p130
S'B-PP'
p131
g5
tp132
a(S'dehydration'
p133
S'dehydration'
p134
S'NN'
p135
S'B-NP'
p136
g5
tp137
a(S','
p138
g138
g138
g5
g5
tp139
a(S'acidosis'
p140
S'acidosis'
p141
S'NN'
p142
S'B-NP'
p143
g5
tp144
a(g138
g138
g138
g5
g5
tp145
a(S'and'
p146
S'and'
p147
S'CC'
p148
g5
g5
tp149
a(S'fever'
p150
S'fever'
p151
S'NN'
p152
S'B-NP'
p153
g5
tp154
a(S'that'
p155
S'that'
p156
S'WDT'
p157
S'B-NP'
p158
g5
tp159
a(S'are'
p160
S'be'
p161
S'VBP'
p162
S'B-VP'
p163
g5
tp164
a(S'usually'
p165
S'usually'
p166
S'RB'
p167
S'B-ADVP'
p168
g5
tp169
a(S'due'
p170
S'due'
p171
S'JJ'
p172
S'B-ADJP'
p173
g5
tp174
a(S'to'
p175
S'to'
p176
S'TO'
p177
S'B-VP'
p178
g5
tp179
a(S'malaria.'
p180
S'malaria.'
p181
S'VB'
p182
S'I-VP'
p183
g5
tp184
a(S'Intake'
p185
S'Intake'
p186
S'NNP'
p187
S'B-NP'
p188
g5
tp189
a(S'of'
p190
S'of'
p191
S'IN'
p192
S'B-PP'
p193
g5
tp194
a(S'lime'
p195
S'lime'
p196
S'NN'
p197
S'B-NP'
p198
g5
tp199
a(S'juice'
p200
S'juice'
p201
S'NN'
p202
S'I-NP'
p203
g5
tp204
a(S'was'
p205
S'be'
p206
S'VBD'
p207
S'B-VP'
p208
g5
tp209
a(S'recently'
p210
S'recently'
p211
S'RB'
p212
S'I-VP'
p213
g5
tp214
a(S'demonstrated'
p215
S'demonstrate'
p216
S'VBN'
p217
S'I-VP'
p218
g5
tp219
a(S'to'
p220
S'to'
p221
S'TO'
p222
S'I-VP'
p223
g5
tp224
a(S'facilitate'
p225
S'facilitate'
p226
S'VB'
p227
S'I-VP'
p228
g5
tp229
a(S'clearance'
p230
S'clearance'
p231
S'NN'
p232
S'B-NP'
p233
g5
tp234
a(S'of'
p235
S'of'
p236
S'IN'
p237
S'B-PP'
p238
g5
tp239
a(S'the'
p240
S'the'
p241
S'DT'
p242
S'B-NP'
p243
g5
tp244
a(S'malaria'
p245
S'malaria'
p246
S'NN'
p247
S'I-NP'
p248
g5
tp249
a(S'parasite.'
p250
S'parasite.'
p251
S'NN'
p252
S'I-NP'
p253
g5
tp254
a(S'It'
p255
S'It'
p256
S'PRP'
p257
S'B-NP'
p258
g5
tp259
a(S'was'
p260
S'be'
p261
S'VBD'
p262
S'B-VP'
p263
g5
tp264
a(S'therefore'
p265
S'therefore'
p266
S'RB'
p267
S'I-VP'
p268
g5
tp269
a(S'sought'
p270
S'seek'
p271
S'VBN'
p272
S'I-VP'
p273
g5
tp274
a(S'to'
p275
S'to'
p276
S'TO'
p277
S'B-VP'
p278
g5
tp279
a(S'determine'
p280
S'determine'
p281
S'VB'
p282
S'I-VP'
p283
g5
tp284
a(S'whether'
p285
S'whether'
p286
S'IN'
p287
S'B-SBAR'
p288
g5
tp289
a(S'regular'
p290
S'regular'
p291
S'JJ'
p292
S'B-NP'
p293
g5
tp294
a(S'intake'
p295
S'intake'
p296
S'NN'
p297
S'I-NP'
p298
g5
tp299
a(S'of'
p300
S'of'
p301
S'IN'
p302
S'B-PP'
p303
g5
tp304
a(S'lime'
p305
S'lime'
p306
S'NN'
p307
S'B-NP'
p308
g5
tp309
a(S'juice'
p310
S'juice'
p311
S'NN'
p312
S'I-NP'
p313
g5
tp314
a(S'will'
p315
S'will'
p316
S'MD'
p317
S'B-VP'
p318
g5
tp319
a(S'ameliorate'
p320
S'ameliorate'
p321
S'VB'
p322
S'I-VP'
p323
g5
tp324
a(S'crisis'
p325
S'crisis'
p326
S'NN'
p327
S'B-NP'
p328
g5
tp329
a(g138
g138
g138
g5
g5
tp330
a(S'especially'
p331
S'especially'
p332
S'RB'
p333
S'B-NP'
p334
g5
tp335
a(S'recurrent'
p336
S'recurrent'
p337
S'JJ'
p338
S'I-NP'
p339
g5
tp340
a(S'bone'
p341
S'bone'
p342
S'NN'
p343
S'I-NP'
p344
g5
tp345
a(S'pain'
p346
S'pain'
p347
S'NN'
p348
S'I-NP'
p349
g5
tp350
a(g57
g57
g57
g5
g5
tp351
a(S'DESIGN'
p352
S'DESIGN'
p353
S'NN'
p354
S'B-NP'
p355
g5
tp356
a(S'In'
p357
S'In'
p358
S'IN'
p359
S'B-PP'
p360
g5
tp361
a(S'this'
p362
S'this'
p363
S'DT'
p364
S'B-NP'
p365
g5
tp366
a(S'preliminary'
p367
S'preliminary'
p368
S'JJ'
p369
S'I-NP'
p370
g5
tp371
a(g138
g138
g138
S'I-NP'
p372
g5
tp373
a(S'open-labeled'
p374
S'open-labeled'
p375
S'JJ'
p376
S'I-NP'
p377
g5
tp378
a(g138
g138
g138
S'I-NP'
p379
g5
tp380
a(S'randomized'
p381
S'randomize'
p382
S'VBN'
p383
S'I-NP'
p384
g5
tp385
a(S'study'
p386
S'study'
p387
S'NN'
p388
S'I-NP'
p389
g5
tp390
a(g138
g138
g138
g5
g5
tp391
a(S'the'
p392
S'the'
p393
S'DT'
p394
S'B-NP'
p395
g5
tp396
a(S'effects'
p397
S'effect'
p398
S'NNS'
p399
S'I-NP'
p400
g5
tp401
a(S'of'
p402
S'of'
p403
S'IN'
p404
S'B-PP'
p405
g5
tp406
a(S'lime'
p407
S'lime'
p408
S'NN'
p409
S'B-NP'
p410
g5
tp411
a(S'juice'
p412
S'juice'
p413
S'NN'
p414
S'I-NP'
p415
g5
tp416
a(S'on'
p417
S'on'
p418
S'IN'
p419
S'B-PP'
p420
g5
tp421
a(S'the'
p422
S'the'
p423
S'DT'
p424
S'B-NP'
p425
g5
tp426
a(S'clinical'
p427
S'clinical'
p428
S'JJ'
p429
S'I-NP'
p430
g5
tp431
a(S'and'
p432
S'and'
p433
S'CC'
p434
g5
g5
tp435
a(S'some'
p436
S'some'
p437
S'DT'
p438
S'B-NP'
p439
g5
tp440
a(S'laboratory'
p441
S'laboratory'
p442
S'JJ'
p443
S'I-NP'
p444
g5
tp445
a(S'characteristics'
p446
S'characteristic'
p447
S'NNS'
p448
S'I-NP'
p449
g5
tp450
a(S'of'
p451
S'of'
p452
S'IN'
p453
S'B-PP'
p454
g5
tp455
a(S'children'
p456
S'child'
p457
S'NNS'
p458
S'B-NP'
p459
g5
tp460
a(S'with'
p461
S'with'
p462
S'IN'
p463
S'B-PP'
p464
g5
tp465
a(S'SCA'
p466
S'SCA'
p467
S'NN'
p468
S'B-NP'
p469
S'B-protein'
p470
tp471
a(S'were'
p472
S'be'
p473
S'VBD'
p474
S'B-VP'
p475
g5
tp476
a(S'tested'
p477
S'test'
p478
S'VBN'
p479
S'I-VP'
p480
g5
tp481
a(g57
g57
g57
g5
g5
tp482
a(S'RESULTS'
p483
S'RESULTS'
p484
S'NNS'
p485
S'B-NP'
p486
g5
tp487
a(S'Among'
p488
S'Among'
p489
S'IN'
p490
S'B-PP'
p491
g5
tp492
a(S'the'
p493
S'the'
p494
S'DT'
p495
S'B-NP'
p496
g5
tp497
a(S'113'
p498
S'113'
p499
S'CD'
p500
S'I-NP'
p501
g5
tp502
a(S'children'
p503
S'child'
p504
S'NNS'
p505
S'I-NP'
p506
g5
tp507
a(S'with'
p508
S'with'
p509
S'IN'
p510
S'B-PP'
p511
g5
tp512
a(S'SCA'
p513
S'SCA'
p514
S'NN'
p515
S'B-NP'
p516
S'B-protein'
p517
tp518
a(S'studied'
p519
S'study'
p520
S'VBN'
p521
S'B-VP'
p522
g5
tp523
a(S'in'
p524
S'in'
p525
S'IN'
p526
S'B-PP'
p527
g5
tp528
a(S'two'
p529
S'two'
p530
S'CD'
p531
S'B-NP'
p532
g5
tp533
a(S'hospitals'
p534
S'hospital'
p535
S'NNS'
p536
S'I-NP'
p537
g5
tp538
a(g138
g138
g138
g5
g5
tp539
a(S'the'
p540
S'the'
p541
S'DT'
p542
S'B-NP'
p543
g5
tp544
a(S'58'
p545
S'58'
p546
S'CD'
p547
S'I-NP'
p548
g5
tp549
a(S'receiving'
p550
S'receive'
p551
S'VBG'
p552
S'I-NP'
p553
g5
tp554
a(S'lime'
p555
S'lime'
p556
S'NN'
p557
S'I-NP'
p558
g5
tp559
a(S'treatment'
p560
S'treatment'
p561
S'NN'
p562
S'I-NP'
p563
g5
tp564
a(S'had'
p565
S'have'
p566
S'VBD'
p567
S'B-VP'
p568
g5
tp569
a(S'lower'
p570
S'low'
p571
S'JJR'
p572
S'B-NP'
p573
g5
tp574
a(S'rates'
p575
S'rate'
p576
S'NNS'
p577
S'I-NP'
p578
g5
tp579
a(S'of'
p580
S'of'
p581
S'IN'
p582
S'B-PP'
p583
g5
tp584
a(S'significant'
p585
S'significant'
p586
S'JJ'
p587
S'B-NP'
p588
g5
tp589
a(S'painful'
p590
S'painful'
p591
S'JJ'
p592
S'I-NP'
p593
g5
tp594
a(S'episodes'
p595
S'episode'
p596
S'NNS'
p597
S'I-NP'
p598
g5
tp599
a(S'than'
p600
S'than'
p601
S'IN'
p602
S'B-PP'
p603
g5
tp604
a(S'the'
p605
S'the'
p606
S'DT'
p607
S'B-NP'
p608
g5
tp609
a(S'55'
p610
S'55'
p611
S'CD'
p612
S'I-NP'
p613
g5
tp614
a(S'without'
p615
S'without'
p616
S'IN'
p617
S'B-PP'
p618
g5
tp619
a(S'lime'
p620
S'lime'
p621
S'NN'
p622
S'B-NP'
p623
g5
tp624
a(g103
g103
g103
g5
g5
tp625
a(S'37'
p626
S'37'
p627
S'CD'
p628
S'B-NP'
p629
g5
tp630
a(S'versus'
p631
S'versus'
p632
S'IN'
p633
S'I-NP'
p634
g5
tp635
a(S'83'
p636
S'83'
p637
S'CD'
p638
S'I-NP'
p639
g5
tp640
a(S'crises'
p641
S'crisis'
p642
S'NNS'
p643
S'I-NP'
p644
g5
tp645
a(S'in'
p646
S'in'
p647
S'IN'
p648
S'B-PP'
p649
g5
tp650
a(S'6'
p651
g651
S'CD'
p652
S'B-NP'
p653
g5
tp654
a(S'months'
p655
S'month'
p656
S'NNS'
p657
S'I-NP'
p658
g5
tp659
a(g138
g138
g138
g5
g5
tp660
a(S'and'
p661
S'and'
p662
S'CC'
p663
g5
g5
tp664
a(S'0.64\xc2\xb10.11'
p665
S'0.64\xc2\xb10.11'
p666
S'CD'
p667
S'B-NP'
p668
g5
tp669
a(S'versus'
p670
S'versus'
p671
S'CC'
p672
S'I-NP'
p673
g5
tp674
a(S'1.51\xc2\xb10.34'
p675
S'1.51\xc2\xb10.34'
p676
S'CD'
p677
S'I-NP'
p678
g5
tp679
a(S'average'
p680
S'average'
p681
S'JJ'
p682
S'I-NP'
p683
g5
tp684
a(S'rates'
p685
S'rate'
p686
S'NNS'
p687
S'I-NP'
p688
g5
tp689
a(S'per'
p690
S'per'
p691
S'IN'
p692
S'B-PP'
p693
g5
tp694
a(S'child'
p695
S'child'
p696
S'NN'
p697
S'B-NP'
p698
g5
tp699
a(g138
g138
g138
g5
g5
tp700
a(S'p'
p701
g701
S'NN'
p702
S'B-NP'
p703
g5
tp704
a(S'<'
p705
g705
S'SYM'
p706
S'B-NP'
p707
g5
tp708
a(S'0.001'
p709
S'0.001'
p710
S'CD'
p711
S'I-NP'
p712
g5
tp713
a(g111
g111
g111
g5
g5
tp714
a(g57
g57
g57
g5
g5
tp715
a(S'Also'
p716
S'Also'
p717
S'RB'
p718
S'B-ADVP'
p719
g5
tp720
a(g138
g138
g138
g5
g5
tp721
a(S'fewer'
p722
S'few'
p723
S'JJR'
p724
S'B-NP'
p725
g5
tp726
a(S'subjects'
p727
S'subject'
p728
S'NNS'
p729
S'I-NP'
p730
g5
tp731
a(S'than'
p732
S'than'
p733
S'IN'
p734
S'B-PP'
p735
g5
tp736
a(S'the'
p737
S'the'
p738
S'DT'
p739
S'B-NP'
p740
g5
tp741
a(S'controls'
p742
S'control'
p743
S'NNS'
p744
S'I-NP'
p745
g5
tp746
a(S'had'
p747
S'have'
p748
S'VBD'
p749
S'B-VP'
p750
g5
tp751
a(S'significant'
p752
S'significant'
p753
S'JJ'
p754
S'B-NP'
p755
g5
tp756
a(S'painful'
p757
S'painful'
p758
S'JJ'
p759
S'I-NP'
p760
g5
tp761
a(S'episodes'
p762
S'episode'
p763
S'NNS'
p764
S'I-NP'
p765
g5
tp766
a(g103
g103
g103
g5
g5
tp767
a(S'50.0'
p768
S'50.0'
p769
S'CD'
p770
S'B-NP'
p771
g5
tp772
a(S'%'
p773
g773
S'NN'
p774
S'I-NP'
p775
g5
tp776
a(S'versus'
p777
S'versus'
p778
S'IN'
p779
S'B-PP'
p780
g5
tp781
a(S'92.7'
p782
S'92.7'
p783
S'CD'
p784
S'B-NP'
p785
g5
tp786
a(g773
g773
S'NN'
p787
S'I-NP'
p788
g5
tp789
a(g111
g111
g111
g5
g5
tp790
a(S';'
p791
g791
S':'
p792
g5
g5
tp793
a(S'febrile'
p794
S'febrile'
p795
S'JJ'
p796
S'B-NP'
p797
g5
tp798
a(S'illness'
p799
S'illness'
p800
S'NN'
p801
S'I-NP'
p802
g5
tp803
a(g103
g103
g103
g5
g5
tp804
a(S'46.6'
p805
S'46.6'
p806
S'CD'
p807
S'B-NP'
p808
g5
tp809
a(g773
g773
S'NN'
p810
S'I-NP'
p811
g5
tp812
a(S'versus'
p813
S'versus'
p814
S'IN'
p815
S'B-PP'
p816
g5
tp817
a(S'87.3'
p818
S'87.3'
p819
S'CD'
p820
S'B-NP'
p821
g5
tp822
a(g773
g773
S'NN'
p823
S'I-NP'
p824
g5
tp825
a(g111
g111
g111
g5
g5
tp826
a(S'and'
p827
S'and'
p828
S'CC'
p829
g5
g5
tp830
a(S'admission'
p831
S'admission'
p832
S'NN'
p833
S'B-NP'
p834
g5
tp835
a(S'rate'
p836
S'rate'
p837
S'NN'
p838
S'I-NP'
p839
g5
tp840
a(g103
g103
g103
g5
g5
tp841
a(S'3.4'
p842
S'3.4'
p843
S'CD'
p844
S'B-NP'
p845
g5
tp846
a(g773
g773
S'NN'
p847
S'I-NP'
p848
g5
tp849
a(S'versus'
p850
S'versus'
p851
S'IN'
p852
S'B-PP'
p853
g5
tp854
a(S'34.5'
p855
S'34.5'
p856
S'CD'
p857
S'B-NP'
p858
g5
tp859
a(g773
g773
S'NN'
p860
S'I-NP'
p861
g5
tp862
a(g111
g111
g111
g5
g5
tp863
a(g103
g103
g103
g5
g5
tp864
a(g701
g701
S'NN'
p865
S'B-NP'
p866
g5
tp867
a(g705
g705
S'SYM'
p868
g5
g5
tp869
a(S'0.001'
p870
S'0.001'
p871
S'CD'
p872
S'B-NP'
p873
g5
tp874
a(g111
g111
g111
g5
g5
tp875
a(g57
g57
g57
g5
g5
tp876
a(S'The'
p877
S'The'
p878
S'DT'
p879
S'B-NP'
p880
g5
tp881
a(S'mean'
p882
S'mean'
p883
S'JJ'
p884
S'I-NP'
p885
g5
tp886
a(S'hematocrit'
p887
S'hematocrit'
p888
S'NN'
p889
S'I-NP'
p890
g5
tp891
a(S'of'
p892
S'of'
p893
S'IN'
p894
S'B-PP'
p895
g5
tp896
a(S'the'
p897
S'the'
p898
S'DT'
p899
S'B-NP'
p900
g5
tp901
a(S'subjects'
p902
S'subject'
p903
S'NNS'
p904
S'I-NP'
p905
g5
tp906
a(g103
g103
g103
g5
g5
tp907
a(S'26.23\xc2\xb12.03'
p908
S'26.23\xc2\xb12.03'
p909
S'CD'
p910
S'B-NP'
p911
g5
tp912
a(g773
g773
S'NN'
p913
S'I-NP'
p914
g5
tp915
a(g111
g111
g111
g5
g5
tp916
a(S'at'
p917
S'at'
p918
S'IN'
p919
S'B-PP'
p920
g5
tp921
a(S'the'
p922
S'the'
p923
S'DT'
p924
S'B-NP'
p925
g5
tp926
a(S'end'
p927
S'end'
p928
S'NN'
p929
S'I-NP'
p930
g5
tp931
a(S'of'
p932
S'of'
p933
S'IN'
p934
S'B-PP'
p935
g5
tp936
a(S'the'
p937
S'the'
p938
S'DT'
p939
S'B-NP'
p940
g5
tp941
a(S'study'
p942
S'study'
p943
S'NN'
p944
S'I-NP'
p945
g5
tp946
a(S'was'
p947
S'be'
p948
S'VBD'
p949
S'B-VP'
p950
g5
tp951
a(S'also'
p952
S'also'
p953
S'RB'
p954
S'B-ADVP'
p955
g5
tp956
a(S'higher'
p957
S'high'
p958
S'JJR'
p959
S'B-ADJP'
p960
g5
tp961
a(g138
g138
g138
g5
g5
tp962
a(g701
g701
S'NN'
p963
S'B-NP'
p964
g5
tp965
a(g705
g705
S'SYM'
p966
g5
g5
tp967
a(S'0.001.'
p968
S'0.001.'
p969
S'CD'
p970
S'B-NP'
p971
g5
tp972
a(S'However'
p973
S'However'
p974
S'RB'
p975
S'B-ADVP'
p976
g5
tp977
a(g138
g138
g138
g5
g5
tp978
a(S'transfusion'
p979
S'transfusion'
p980
S'NN'
p981
S'B-NP'
p982
g5
tp983
a(S'rate'
p984
S'rate'
p985
S'NN'
p986
S'I-NP'
p987
g5
tp988
a(g138
g138
g138
g5
g5
tp989
a(S'presence'
p990
S'presence'
p991
S'NN'
p992
S'B-NP'
p993
g5
tp994
a(S'of'
p995
S'of'
p996
S'IN'
p997
S'B-PP'
p998
g5
tp999
a(S'hepatomegaly'
p1000
S'hepatomegaly'
p1001
S'NN'
p1002
S'B-NP'
p1003
g5
tp1004
a(g138
g138
g138
g5
g5
tp1005
a(S'splenomegaly'
p1006
S'splenomegaly'
p1007
S'NN'
p1008
S'B-NP'
p1009
g5
tp1010
a(g138
g138
g138
g5
g5
tp1011
a(S'and'
p1012
S'and'
p1013
S'CC'
p1014
g5
g5
tp1015
a(S'jaundice'
p1016
S'jaundice'
p1017
S'NN'
p1018
S'B-NP'
p1019
g5
tp1020
a(S'was'
p1021
S'be'
p1022
S'VBD'
p1023
S'B-VP'
p1024
g5
tp1025
a(S'similar.'
p1026
S'similar.'
p1027
S'JJ'
p1028
S'B-NP'
p1029
g5
tp1030
a(S'Treatment'
p1031
S'Treatment'
p1032
S'NN'
p1033
S'I-NP'
p1034
g5
tp1035
a(S'with'
p1036
S'with'
p1037
S'IN'
p1038
S'B-PP'
p1039
g5
tp1040
a(S'lime'
p1041
S'lime'
p1042
S'NN'
p1043
S'B-NP'
p1044
g5
tp1045
a(S'did'
p1046
S'do'
p1047
S'VBD'
p1048
S'B-VP'
p1049
g5
tp1050
a(S'not'
p1051
S'not'
p1052
S'RB'
p1053
S'I-VP'
p1054
g5
tp1055
a(S'cause'
p1056
S'cause'
p1057
S'VB'
p1058
S'I-VP'
p1059
g5
tp1060
a(S'any'
p1061
S'any'
p1062
S'DT'
p1063
S'B-NP'
p1064
g5
tp1065
a(S'significant'
p1066
S'significant'
p1067
S'JJ'
p1068
S'I-NP'
p1069
g5
tp1070
a(S'side-effect'
p1071
S'side-effect'
p1072
S'NN'
p1073
S'I-NP'
p1074
g5
tp1075
a(g57
g57
g57
g5
g5
tp1076
a(S'CONCLUSIONS'
p1077
S'CONCLUSIONS'
p1078
S'NNS'
p1079
S'B-NP'
p1080
g5
tp1081
a(S'Regular'
p1082
S'Regular'
p1083
S'JJ'
p1084
S'I-NP'
p1085
g5
tp1086
a(S'intake'
p1087
S'intake'
p1088
S'NN'
p1089
S'I-NP'
p1090
g5
tp1091
a(S'of'
p1092
S'of'
p1093
S'IN'
p1094
S'B-PP'
p1095
g5
tp1096
a(S'lime'
p1097
S'lime'
p1098
S'NN'
p1099
S'B-NP'
p1100
g5
tp1101
a(S'juice'
p1102
S'juice'
p1103
S'NN'
p1104
S'I-NP'
p1105
g5
tp1106
a(S'may'
p1107
S'may'
p1108
S'MD'
p1109
S'B-VP'
p1110
g5
tp1111
a(S'be'
p1112
S'be'
p1113
S'VB'
p1114
S'I-VP'
p1115
g5
tp1116
a(S'of'
p1117
S'of'
p1118
S'IN'
p1119
S'B-PP'
p1120
g5
tp1121
a(S'great'
p1122
S'great'
p1123
S'JJ'
p1124
S'B-NP'
p1125
g5
tp1126
a(S'therapeutic'
p1127
S'therapeutic'
p1128
S'JJ'
p1129
S'I-NP'
p1130
g5
tp1131
a(S'and'
p1132
S'and'
p1133
S'CC'
p1134
S'I-NP'
p1135
g5
tp1136
a(S'nutritional'
p1137
S'nutritional'
p1138
S'JJ'
p1139
S'I-NP'
p1140
g5
tp1141
a(S'relevance'
p1142
S'relevance'
p1143
S'NN'
p1144
S'I-NP'
p1145
g5
tp1146
a(S'in'
p1147
S'in'
p1148
S'IN'
p1149
S'B-PP'
p1150
g5
tp1151
a(S'children'
p1152
S'child'
p1153
S'NNS'
p1154
S'B-NP'
p1155
g5
tp1156
a(S'with'
p1157
S'with'
p1158
S'IN'
p1159
S'B-PP'
p1160
g5
tp1161
a(S'SCA'
p1162
S'SCA'
p1163
S'NN'
p1164
S'B-NP'
p1165
S'B-protein'
p1166
tp1167
a(g57
g57
g57
g5
g5
tp1168
a.