(lp0
(S'Treatment'
p1
S'Treatment'
p2
S'NN'
p3
S'B-NP'
p4
S'O'
p5
tp6
a(S'of'
p7
S'of'
p8
S'IN'
p9
S'B-PP'
p10
g5
tp11
a(S'adult'
p12
S'adult'
p13
S'JJ'
p14
S'B-NP'
p15
g5
tp16
a(S'asthma'
p17
S'asthma'
p18
S'NN'
p19
S'I-NP'
p20
g5
tp21
a(S':'
p22
g22
g22
g5
g5
tp23
a(S'controlled'
p24
S'control'
p25
S'VBN'
p26
S'B-VP'
p27
g5
tp28
a(S'double-blind'
p29
S'double-blind'
p30
S'JJ'
p31
S'B-NP'
p32
g5
tp33
a(S'clinical'
p34
S'clinical'
p35
S'JJ'
p36
S'I-NP'
p37
g5
tp38
a(S'trial'
p39
S'trial'
p40
S'NN'
p41
S'I-NP'
p42
g5
tp43
a(S'of'
p44
S'of'
p45
S'IN'
p46
S'B-PP'
p47
g5
tp48
a(S'oxitropium'
p49
S'oxitropium'
p50
S'NN'
p51
S'B-NP'
p52
g5
tp53
a(S'bromide'
p54
S'bromide'
p55
S'NN'
p56
S'I-NP'
p57
g5
tp58
a(S'.'
p59
g59
g59
g5
g5
tp60
a(S'Sixteen'
p61
S'Sixteen'
p62
S'CD'
p63
S'B-NP'
p64
g5
tp65
a(S'young'
p66
S'young'
p67
S'JJ'
p68
S'I-NP'
p69
g5
tp70
a(S'adult'
p71
S'adult'
p72
S'JJ'
p73
S'I-NP'
p74
g5
tp75
a(S'sufferers'
p76
S'sufferer'
p77
S'NNS'
p78
S'I-NP'
p79
g5
tp80
a(S'from'
p81
S'from'
p82
S'IN'
p83
S'B-PP'
p84
g5
tp85
a(S'extrinsic'
p86
S'extrinsic'
p87
S'JJ'
p88
S'B-NP'
p89
g5
tp90
a(S'paroxysmal'
p91
S'paroxysmal'
p92
S'JJ'
p93
S'I-NP'
p94
g5
tp95
a(S'asthma'
p96
S'asthma'
p97
S'NN'
p98
S'I-NP'
p99
g5
tp100
a(S'with'
p101
S'with'
p102
S'IN'
p103
S'B-PP'
p104
g5
tp105
a(S'pollen'
p106
S'pollen'
p107
S'NN'
p108
S'B-NP'
p109
g5
tp110
a(S'hypersensitivity'
p111
S'hypersensitivity'
p112
S'NN'
p113
S'I-NP'
p114
g5
tp115
a(S'took'
p116
S'take'
p117
S'VBD'
p118
S'B-VP'
p119
g5
tp120
a(S'part'
p121
S'part'
p122
S'NN'
p123
S'B-NP'
p124
g5
tp125
a(S'in'
p126
S'in'
p127
S'IN'
p128
S'B-PP'
p129
g5
tp130
a(S'a'
p131
g131
S'DT'
p132
S'B-NP'
p133
g5
tp134
a(S'therapeutic'
p135
S'therapeutic'
p136
S'JJ'
p137
S'I-NP'
p138
g5
tp139
a(S'trial'
p140
S'trial'
p141
S'NN'
p142
S'I-NP'
p143
g5
tp144
a(S'of'
p145
S'of'
p146
S'IN'
p147
S'B-PP'
p148
g5
tp149
a(S'the'
p150
S'the'
p151
S'DT'
p152
S'B-NP'
p153
g5
tp154
a(S'synthetic'
p155
S'synthetic'
p156
S'JJ'
p157
S'I-NP'
p158
g5
tp159
a(S'anticholinergic'
p160
S'anticholinergic'
p161
S'JJ'
p162
S'I-NP'
p163
g5
tp164
a(S'agent'
p165
S'agent'
p166
S'NN'
p167
S'I-NP'
p168
g5
tp169
a(S'oxitropium'
p170
S'oxitropium'
p171
S'NN'
p172
S'I-NP'
p173
g5
tp174
a(S'bromide'
p175
S'bromide'
p176
S'NN'
p177
S'I-NP'
p178
g5
tp179
a(S'administered'
p180
S'administer'
p181
S'VBN'
p182
S'B-VP'
p183
g5
tp184
a(S'by'
p185
S'by'
p186
S'IN'
p187
S'B-PP'
p188
g5
tp189
a(g131
g131
S'DT'
p190
S'B-NP'
p191
g5
tp192
a(S'metered'
p193
S'meter'
p194
S'VBN'
p195
S'I-NP'
p196
g5
tp197
a(S'dose'
p198
S'dose'
p199
S'NN'
p200
S'I-NP'
p201
g5
tp202
a(S'inhaler.'
p203
S'inhaler.'
p204
S'IN'
p205
S'B-PP'
p206
g5
tp207
a(S'The'
p208
S'The'
p209
S'DT'
p210
S'B-NP'
p211
g5
tp212
a(S'study'
p213
S'study'
p214
S'NN'
p215
S'I-NP'
p216
g5
tp217
a(S'comprised'
p218
S'comprise'
p219
S'VBD'
p220
S'B-VP'
p221
g5
tp222
a(S'three'
p223
S'three'
p224
S'CD'
p225
S'B-NP'
p226
g5
tp227
a(S'3-week'
p228
S'3-week'
p229
S'JJ'
p230
S'I-NP'
p231
g5
tp232
a(S'periods.'
p233
S'periods.'
p234
S'NN'
p235
S'I-NP'
p236
g5
tp237
a(S'The'
p238
S'The'
p239
S'DT'
p240
S'B-NP'
p241
g5
tp242
a(S'first'
p243
S'first'
p244
S'JJ'
p245
S'I-NP'
p246
g5
tp247
a(S','
p248
g248
g248
S'I-NP'
p249
g5
tp250
a(S'run-in'
p251
S'run-in'
p252
S'JJ'
p253
S'I-NP'
p254
g5
tp255
a(S'period'
p256
S'period'
p257
S'NN'
p258
S'I-NP'
p259
g5
tp260
a(S'was'
p261
S'be'
p262
S'VBD'
p263
S'B-VP'
p264
g5
tp265
a(S'carried'
p266
S'carry'
p267
S'VBN'
p268
S'I-VP'
p269
g5
tp270
a(S'out'
p271
S'out'
p272
S'RP'
p273
S'B-PRT'
p274
g5
tp275
a(S'to'
p276
S'to'
p277
S'TO'
p278
S'B-VP'
p279
g5
tp280
a(S'confirm'
p281
S'confirm'
p282
S'VB'
p283
S'I-VP'
p284
g5
tp285
a(S'the'
p286
S'the'
p287
S'DT'
p288
S'B-NP'
p289
g5
tp290
a(S'ability'
p291
S'ability'
p292
S'NN'
p293
S'I-NP'
p294
g5
tp295
a(S'of'
p296
S'of'
p297
S'IN'
p298
S'B-PP'
p299
g5
tp300
a(S'the'
p301
S'the'
p302
S'DT'
p303
S'B-NP'
p304
g5
tp305
a(S'patients'
p306
S'patient'
p307
S'NNS'
p308
S'I-NP'
p309
g5
tp310
a(S'to'
p311
S'to'
p312
S'TO'
p313
S'B-VP'
p314
g5
tp315
a(S'maintain'
p316
S'maintain'
p317
S'VB'
p318
S'I-VP'
p319
g5
tp320
a(g131
g131
S'DT'
p321
S'B-NP'
p322
g5
tp323
a(S'daily'
p324
S'daily'
p325
S'JJ'
p326
S'I-NP'
p327
g5
tp328
a(S'record'
p329
S'record'
p330
S'NN'
p331
S'I-NP'
p332
g5
tp333
a(S'of'
p334
S'of'
p335
S'IN'
p336
S'B-PP'
p337
g5
tp338
a(S'symptoms.'
p339
S'symptoms.'
p340
S'NN'
p341
S'B-NP'
p342
g5
tp343
a(S'During'
p344
S'During'
p345
S'IN'
p346
S'B-PP'
p347
g5
tp348
a(S'the'
p349
S'the'
p350
S'DT'
p351
S'B-NP'
p352
g5
tp353
a(S'second'
p354
S'second'
p355
S'JJ'
p356
S'I-NP'
p357
g5
tp358
a(S'and'
p359
S'and'
p360
S'CC'
p361
S'I-NP'
p362
g5
tp363
a(S'third'
p364
S'third'
p365
S'JJ'
p366
S'I-NP'
p367
g5
tp368
a(S'periods'
p369
S'period'
p370
S'NNS'
p371
S'I-NP'
p372
g5
tp373
a(g248
g248
g248
g5
g5
tp374
a(S'the'
p375
S'the'
p376
S'DT'
p377
S'B-NP'
p378
g5
tp379
a(S'patient'
p380
S'patient'
p381
S'NN'
p382
S'I-NP'
p383
g5
tp384
a(S'received'
p385
S'receive'
p386
S'VBD'
p387
S'B-VP'
p388
g5
tp389
a(S'3'
p390
g390
S'CD'
p391
S'B-NP'
p392
g5
tp393
a(S'X'
p394
g394
S'SYM'
p395
S'I-NP'
p396
g5
tp397
a(S'2'
p398
g398
S'CD'
p399
S'I-NP'
p400
g5
tp401
a(S'inhalations'
p402
S'inhalation'
p403
S'NNS'
p404
S'I-NP'
p405
g5
tp406
a(S'of'
p407
S'of'
p408
S'IN'
p409
S'B-PP'
p410
g5
tp411
a(S'drug'
p412
S'drug'
p413
S'NN'
p414
S'B-NP'
p415
g5
tp416
a(S'or'
p417
S'or'
p418
S'CC'
p419
S'I-NP'
p420
g5
tp421
a(S'placebo'
p422
S'placebo'
p423
S'NN'
p424
S'I-NP'
p425
g5
tp426
a(S'in'
p427
S'in'
p428
S'IN'
p429
S'B-PP'
p430
g5
tp431
a(g131
g131
S'DT'
p432
S'B-NP'
p433
g5
tp434
a(S'cross-over'
p435
S'cross-over'
p436
S'JJ'
p437
S'I-NP'
p438
g5
tp439
a(S'design.'
p440
S'design.'
p441
S'NN'
p442
S'I-NP'
p443
g5
tp444
a(S'The'
p445
S'The'
p446
S'DT'
p447
S'B-NP'
p448
g5
tp449
a(S'medical'
p450
S'medical'
p451
S'JJ'
p452
S'I-NP'
p453
g5
tp454
a(S'staff'
p455
S'staff'
p456
S'NN'
p457
S'I-NP'
p458
g5
tp459
a(S'was'
p460
S'be'
p461
S'VBD'
p462
S'B-VP'
p463
g5
tp464
a(S'blind'
p465
S'blind'
p466
S'JJ'
p467
S'B-ADJP'
p468
g5
tp469
a(S'to'
p470
S'to'
p471
S'TO'
p472
S'B-PP'
p473
g5
tp474
a(S'the'
p475
S'the'
p476
S'DT'
p477
S'B-NP'
p478
g5
tp479
a(S'nature'
p480
S'nature'
p481
S'NN'
p482
S'I-NP'
p483
g5
tp484
a(S'of'
p485
S'of'
p486
S'IN'
p487
S'B-PP'
p488
g5
tp489
a(S'the'
p490
S'the'
p491
S'DT'
p492
S'B-NP'
p493
g5
tp494
a(S'aerosol'
p495
S'aerosol'
p496
S'NN'
p497
S'I-NP'
p498
g5
tp499
a(S'('
p500
g500
g500
g5
g5
tp501
a(S'drug'
p502
S'drug'
p503
S'NN'
p504
S'B-NP'
p505
g5
tp506
a(S'or'
p507
S'or'
p508
S'CC'
p509
g5
g5
tp510
a(S'placebo'
p511
S'placebo'
p512
S'NN'
p513
S'B-NP'
p514
g5
tp515
a(S')'
p516
g516
g516
g5
g5
tp517
a(g248
g248
g248
g5
g5
tp518
a(S'which'
p519
S'which'
p520
S'WDT'
p521
S'B-NP'
p522
g5
tp523
a(S'was'
p524
S'be'
p525
S'VBD'
p526
S'B-VP'
p527
g5
tp528
a(S'given'
p529
S'give'
p530
S'VBN'
p531
S'I-VP'
p532
g5
tp533
a(S'in'
p534
S'in'
p535
S'IN'
p536
S'B-PP'
p537
g5
tp538
a(S'random'
p539
S'random'
p540
S'JJ'
p541
S'B-NP'
p542
g5
tp543
a(S'order.'
p544
S'order.'
p545
S'NN'
p546
S'I-NP'
p547
g5
tp548
a(S'The'
p549
S'The'
p550
S'DT'
p551
S'B-NP'
p552
g5
tp553
a(S'run-in'
p554
S'run-in'
p555
S'JJ'
p556
S'I-NP'
p557
g5
tp558
a(S'clinical'
p559
S'clinical'
p560
S'JJ'
p561
S'I-NP'
p562
g5
tp563
a(S'score'
p564
S'score'
p565
S'NN'
p566
S'I-NP'
p567
g5
tp568
a(S'was'
p569
S'be'
p570
S'VBD'
p571
S'B-VP'
p572
g5
tp573
a(S'high.'
p574
S'high.'
p575
S'JJ'
p576
S'B-NP'
p577
g5
tp578
a(S'Asymptomatic'
p579
S'Asymptomatic'
p580
S'JJ'
p581
S'I-NP'
p582
g5
tp583
a(S'days'
p584
S'day'
p585
S'NNS'
p586
S'I-NP'
p587
g5
tp588
a(S'were'
p589
S'be'
p590
S'VBD'
p591
S'B-VP'
p592
g5
tp593
a(S'relatively'
p594
S'relatively'
p595
S'RB'
p596
S'B-NP'
p597
g5
tp598
a(S'infrequent'
p599
S'infrequent'
p600
S'JJ'
p601
S'I-NP'
p602
g5
tp603
a(S'and'
p604
S'and'
p605
S'CC'
p606
S'I-NP'
p607
g5
tp608
a(S'daily'
p609
S'daily'
p610
S'JJ'
p611
S'I-NP'
p612
g5
tp613
a(S'drug'
p614
S'drug'
p615
S'NN'
p616
S'I-NP'
p617
g5
tp618
a(S'consumption'
p619
S'consumption'
p620
S'NN'
p621
S'I-NP'
p622
g5
tp623
a(S'was'
p624
S'be'
p625
S'VBD'
p626
S'B-VP'
p627
g5
tp628
a(S'high.'
p629
S'high.'
p630
S'JJ'
p631
S'B-NP'
p632
g5
tp633
a(S'Functional'
p634
S'Functional'
p635
S'JJ'
p636
S'I-NP'
p637
g5
tp638
a(S'studies'
p639
S'study'
p640
S'NNS'
p641
S'I-NP'
p642
g5
tp643
a(S'between'
p644
S'between'
p645
S'IN'
p646
S'B-PP'
p647
g5
tp648
a(S'the'
p649
S'the'
p650
S'DT'
p651
S'B-NP'
p652
g5
tp653
a(S'cross-over'
p654
S'cross-over'
p655
S'JJ'
p656
S'I-NP'
p657
g5
tp658
a(S'periods'
p659
S'period'
p660
S'NNS'
p661
S'I-NP'
p662
g5
tp663
a(S'showed'
p664
S'show'
p665
S'VBD'
p666
S'B-VP'
p667
g5
tp668
a(S'flow-rate'
p669
S'flow-rate'
p670
S'NN'
p671
S'B-NP'
p672
g5
tp673
a(S'values'
p674
S'value'
p675
S'NNS'
p676
S'I-NP'
p677
g5
tp678
a(S'close'
p679
S'close'
p680
S'RB'
p681
S'B-ADVP'
p682
g5
tp683
a(S'to'
p684
S'to'
p685
S'TO'
p686
S'B-PP'
p687
g5
tp688
a(S'normal'
p689
S'normal'
p690
S'JJ'
p691
S'B-ADJP'
p692
g5
tp693
a(g248
g248
g248
g5
g5
tp694
a(S'with'
p695
S'with'
p696
S'IN'
p697
S'B-PP'
p698
g5
tp699
a(S'an'
p700
S'an'
p701
S'DT'
p702
S'B-NP'
p703
g5
tp704
a(S'increase'
p705
S'increase'
p706
S'NN'
p707
S'I-NP'
p708
g5
tp709
a(S'in'
p710
S'in'
p711
S'IN'
p712
S'B-PP'
p713
g5
tp714
a(S'residual'
p715
S'residual'
p716
S'JJ'
p717
S'B-NP'
p718
g5
tp719
a(S'volume'
p720
S'volume'
p721
S'NN'
p722
S'I-NP'
p723
g5
tp724
a(S'and'
p725
S'and'
p726
S'CC'
p727
g5
g5
tp728
a(S'functional'
p729
S'functional'
p730
S'JJ'
p731
S'B-NP'
p732
g5
tp733
a(S'residual'
p734
S'residual'
p735
S'JJ'
p736
S'I-NP'
p737
g5
tp738
a(S'capacity.'
p739
S'capacity.'
p740
S'NN'
p741
S'I-NP'
p742
g5
tp743
a(S'During'
p744
S'During'
p745
S'IN'
p746
S'B-PP'
p747
g5
tp748
a(S'treatment'
p749
S'treatment'
p750
S'NN'
p751
S'B-NP'
p752
g5
tp753
a(S'either'
p754
S'either'
p755
S'CC'
p756
S'B-PP'
p757
g5
tp758
a(S'with'
p759
S'with'
p760
S'IN'
p761
S'I-PP'
p762
g5
tp763
a(S'placebo'
p764
S'placebo'
p765
S'NN'
p766
S'B-NP'
p767
g5
tp768
a(S'or'
p769
S'or'
p770
S'CC'
p771
S'I-NP'
p772
g5
tp773
a(S'oxitropium'
p774
S'oxitropium'
p775
S'NN'
p776
S'I-NP'
p777
g5
tp778
a(g248
g248
g248
g5
g5
tp779
a(S'there'
p780
S'there'
p781
S'EX'
p782
S'B-NP'
p783
g5
tp784
a(S'was'
p785
S'be'
p786
S'VBD'
p787
S'B-VP'
p788
g5
tp789
a(g131
g131
S'DT'
p790
S'B-NP'
p791
g5
tp792
a(S'statistically'
p793
S'statistically'
p794
S'RB'
p795
S'I-NP'
p796
g5
tp797
a(S'significant'
p798
S'significant'
p799
S'JJ'
p800
S'I-NP'
p801
g5
tp802
a(S'decrease'
p803
S'decrease'
p804
S'NN'
p805
S'I-NP'
p806
g5
tp807
a(S'in'
p808
S'in'
p809
S'IN'
p810
S'B-PP'
p811
g5
tp812
a(S'clinical'
p813
S'clinical'
p814
S'JJ'
p815
S'B-NP'
p816
g5
tp817
a(S'scores.'
p818
S'scores.'
p819
S'NN'
p820
S'I-NP'
p821
g5
tp822
a(S'Results'
p823
S'Result'
p824
S'NNS'
p825
S'I-NP'
p826
g5
tp827
a(S'for'
p828
S'for'
p829
S'IN'
p830
S'B-PP'
p831
g5
tp832
a(S'oxitropium'
p833
S'oxitropium'
p834
S'NN'
p835
S'B-NP'
p836
g5
tp837
a(S'bromide'
p838
S'bromide'
p839
S'NN'
p840
S'I-NP'
p841
g5
tp842
a(S'treatment'
p843
S'treatment'
p844
S'NN'
p845
S'I-NP'
p846
g5
tp847
a(S'were'
p848
S'be'
p849
S'VBD'
p850
S'B-VP'
p851
g5
tp852
a(S'significantly'
p853
S'significantly'
p854
S'RB'
p855
S'B-ADJP'
p856
g5
tp857
a(S'better'
p858
S'good'
p859
S'JJR'
p860
S'I-ADJP'
p861
g5
tp862
a(S'than'
p863
S'than'
p864
S'IN'
p865
S'B-PP'
p866
g5
tp867
a(S'the'
p868
S'the'
p869
S'DT'
p870
S'B-NP'
p871
g5
tp872
a(S'run-in'
p873
S'run-in'
p874
S'JJ'
p875
S'I-NP'
p876
g5
tp877
a(S'values'
p878
S'value'
p879
S'NNS'
p880
S'I-NP'
p881
g5
tp882
a(g500
g500
g500
g5
g5
tp883
a(S'p'
p884
g884
S'NN'
p885
S'B-NP'
p886
g5
tp887
a(S'less'
p888
S'less'
p889
S'JJR'
p890
S'B-ADJP'
p891
g5
tp892
a(S'than'
p893
S'than'
p894
S'IN'
p895
S'B-PP'
p896
g5
tp897
a(S'0.005'
p898
S'0.005'
p899
S'CD'
p900
S'B-NP'
p901
g5
tp902
a(g516
g516
g516
g5
g5
tp903
a(S'and'
p904
S'and'
p905
S'CC'
p906
g5
g5
tp907
a(S'the'
p908
S'the'
p909
S'DT'
p910
S'B-NP'
p911
g5
tp912
a(S'placebo'
p913
S'placebo'
p914
S'NN'
p915
S'I-NP'
p916
g5
tp917
a(S'period'
p918
S'period'
p919
S'NN'
p920
S'I-NP'
p921
g5
tp922
a(g500
g500
g500
g5
g5
tp923
a(g884
g884
S'NN'
p924
S'B-NP'
p925
g5
tp926
a(S'less'
p927
S'less'
p928
S'JJR'
p929
S'B-ADJP'
p930
g5
tp931
a(S'than'
p932
S'than'
p933
S'IN'
p934
S'B-PP'
p935
g5
tp936
a(S'0.02'
p937
S'0.02'
p938
S'CD'
p939
S'B-NP'
p940
g5
tp941
a(g516
g516
g516
g5
g5
tp942
a(g59
g59
g59
g5
g5
tp943
a(S'There'
p944
S'There'
p945
S'EX'
p946
S'B-NP'
p947
g5
tp948
a(S'was'
p949
S'be'
p950
S'VBD'
p951
S'B-VP'
p952
g5
tp953
a(S'no'
p954
S'no'
p955
S'DT'
p956
S'B-NP'
p957
g5
tp958
a(S'significant'
p959
S'significant'
p960
S'JJ'
p961
S'I-NP'
p962
g5
tp963
a(S'change'
p964
S'change'
p965
S'NN'
p966
S'I-NP'
p967
g5
tp968
a(S'in'
p969
S'in'
p970
S'IN'
p971
S'B-PP'
p972
g5
tp973
a(S'non-trial'
p974
S'non-trial'
p975
S'JJ'
p976
S'B-NP'
p977
g5
tp978
a(S'drug'
p979
S'drug'
p980
S'NN'
p981
S'I-NP'
p982
g5
tp983
a(S'consumption.'
p984
S'consumption.'
p985
S'NN'
p986
S'I-NP'
p987
g5
tp988
a(S'Functional'
p989
S'Functional'
p990
S'JJ'
p991
S'I-NP'
p992
g5
tp993
a(S'values'
p994
S'value'
p995
S'NNS'
p996
S'I-NP'
p997
g5
tp998
a(S'showed'
p999
S'show'
p1000
S'VBD'
p1001
S'B-VP'
p1002
g5
tp1003
a(S'no'
p1004
S'no'
p1005
S'DT'
p1006
S'B-NP'
p1007
g5
tp1008
a(S'difference'
p1009
S'difference'
p1010
S'NN'
p1011
S'I-NP'
p1012
g5
tp1013
a(S'in'
p1014
S'in'
p1015
S'IN'
p1016
S'B-PP'
p1017
g5
tp1018
a(S'terms'
p1019
S'term'
p1020
S'NNS'
p1021
S'B-NP'
p1022
g5
tp1023
a(S'of'
p1024
S'of'
p1025
S'IN'
p1026
S'B-PP'
p1027
g5
tp1028
a(S'flow'
p1029
S'flow'
p1030
S'NN'
p1031
S'B-NP'
p1032
g5
tp1033
a(S'rate'
p1034
S'rate'
p1035
S'NN'
p1036
S'I-NP'
p1037
g5
tp1038
a(g248
g248
g248
g5
g5
tp1039
a(S'although'
p1040
S'although'
p1041
S'IN'
p1042
S'B-SBAR'
p1043
g5
tp1044
a(S'oxitropium'
p1045
S'oxitropium'
p1046
S'NN'
p1047
S'B-NP'
p1048
g5
tp1049
a(S'did'
p1050
S'do'
p1051
S'VBD'
p1052
S'B-VP'
p1053
g5
tp1054
a(S'cause'
p1055
S'cause'
p1056
S'VB'
p1057
S'I-VP'
p1058
g5
tp1059
a(g131
g131
S'DT'
p1060
S'B-NP'
p1061
g5
tp1062
a(S'significant'
p1063
S'significant'
p1064
S'JJ'
p1065
S'I-NP'
p1066
g5
tp1067
a(S'improvement'
p1068
S'improvement'
p1069
S'NN'
p1070
S'I-NP'
p1071
g5
tp1072
a(S'in'
p1073
S'in'
p1074
S'IN'
p1075
S'B-PP'
p1076
g5
tp1077
a(S'the'
p1078
S'the'
p1079
S'DT'
p1080
S'B-NP'
p1081
g5
tp1082
a(S'RV/TLC'
p1083
S'RV/TLC'
p1084
S'NN'
p1085
S'I-NP'
p1086
g5
tp1087
a(S'ratio'
p1088
S'ratio'
p1089
S'NN'
p1090
S'I-NP'
p1091
g5
tp1092
a(g500
g500
g500
g5
g5
tp1093
a(g884
g884
S'NN'
p1094
S'B-NP'
p1095
g5
tp1096
a(S'less'
p1097
S'less'
p1098
S'JJR'
p1099
S'B-ADJP'
p1100
g5
tp1101
a(S'than'
p1102
S'than'
p1103
S'IN'
p1104
S'B-PP'
p1105
g5
tp1106
a(S'0.05'
p1107
S'0.05'
p1108
S'CD'
p1109
S'B-NP'
p1110
g5
tp1111
a(g516
g516
g516
g5
g5
tp1112
a(g59
g59
g59
g5
g5
tp1113
a(S'No'
p1114
S'No'
p1115
S'DT'
p1116
S'B-NP'
p1117
g5
tp1118
a(S'adverse'
p1119
S'adverse'
p1120
S'JJ'
p1121
S'I-NP'
p1122
g5
tp1123
a(S'reactions'
p1124
S'reaction'
p1125
S'NNS'
p1126
S'I-NP'
p1127
g5
tp1128
a(S'were'
p1129
S'be'
p1130
S'VBD'
p1131
S'B-VP'
p1132
g5
tp1133
a(S'reported'
p1134
S'report'
p1135
S'VBN'
p1136
S'I-VP'
p1137
g5
tp1138
a(g59
g59
g59
g5
g5
tp1139
a.