(lp0
(S'Changing'
p1
S'Changing'
p2
S'NNP'
p3
S'B-NP'
p4
S'O'
p5
tp6
a(S'Childbirth'
p7
S'Childbirth'
p8
S'NNP'
p9
S'I-NP'
p10
g5
tp11
a(S':'
p12
g12
g12
g5
g5
tp13
a(S'a'
p14
g14
S'DT'
p15
S'B-NP'
p16
g5
tp17
a(S'pilot'
p18
S'pilot'
p19
S'NN'
p20
S'I-NP'
p21
g5
tp22
a(S'project'
p23
S'project'
p24
S'NN'
p25
S'I-NP'
p26
g5
tp27
a(S'.'
p28
g28
g28
g5
g5
tp29
a(S'OBJECTIVE'
p30
S'OBJECTIVE'
p31
S'NN'
p32
S'B-NP'
p33
g5
tp34
a(S'To'
p35
S'To'
p36
S'TO'
p37
S'B-VP'
p38
g5
tp39
a(S'compare'
p40
S'compare'
p41
S'VB'
p42
S'I-VP'
p43
g5
tp44
a(S'the'
p45
S'the'
p46
S'DT'
p47
S'B-NP'
p48
g5
tp49
a(S'outcomes'
p50
S'outcome'
p51
S'NNS'
p52
S'I-NP'
p53
g5
tp54
a(S'of'
p55
S'of'
p56
S'IN'
p57
S'B-PP'
p58
g5
tp59
a(S'an'
p60
S'an'
p61
S'DT'
p62
S'B-NP'
p63
g5
tp64
a(S'adapted'
p65
S'adapted'
p66
S'JJ'
p67
S'I-NP'
p68
g5
tp69
a(S'pilot'
p70
S'pilot'
p71
S'NN'
p72
S'I-NP'
p73
g5
tp74
a(S'Changing'
p75
S'Changing'
p76
S'NNP'
p77
S'I-NP'
p78
g5
tp79
a(S'Childbirth'
p80
S'Childbirth'
p81
S'NNP'
p82
S'I-NP'
p83
g5
tp84
a(S'initiative'
p85
S'initiative'
p86
S'NN'
p87
S'I-NP'
p88
g5
tp89
a(S'providing'
p90
S'provide'
p91
S'VBG'
p92
S'B-VP'
p93
g5
tp94
a(S'continuity'
p95
S'continuity'
p96
S'NN'
p97
S'B-NP'
p98
g5
tp99
a(S'of'
p100
S'of'
p101
S'IN'
p102
S'B-PP'
p103
g5
tp104
a(S'care'
p105
S'care'
p106
S'NN'
p107
S'B-NP'
p108
g5
tp109
a(S'by'
p110
S'by'
p111
S'IN'
p112
S'B-PP'
p113
g5
tp114
a(g14
g14
S'DT'
p115
S'B-NP'
p116
g5
tp117
a(S'group'
p118
S'group'
p119
S'NN'
p120
S'I-NP'
p121
g5
tp122
a(S'of'
p123
S'of'
p124
S'IN'
p125
S'B-PP'
p126
g5
tp127
a(S'known'
p128
S'known'
p129
S'JJ'
p130
S'B-NP'
p131
g5
tp132
a(S'midwives'
p133
S'midwife'
p134
S'NNS'
p135
S'I-NP'
p136
g5
tp137
a(S'with'
p138
S'with'
p139
S'IN'
p140
S'B-PP'
p141
g5
tp142
a(S'traditional'
p143
S'traditional'
p144
S'JJ'
p145
S'B-NP'
p146
g5
tp147
a(S'maternity'
p148
S'maternity'
p149
S'NN'
p150
S'I-NP'
p151
g5
tp152
a(S'care'
p153
S'care'
p154
S'NN'
p155
S'I-NP'
p156
g5
tp157
a(g28
g28
g28
g5
g5
tp158
a(S'DESIGN'
p159
S'DESIGN'
p160
S'NN'
p161
S'B-NP'
p162
g5
tp163
a(S'Between-groups'
p164
S'Between-group'
p165
S'NNS'
p166
S'I-NP'
p167
g5
tp168
a(S'trial'
p169
S'trial'
p170
S'NN'
p171
S'I-NP'
p172
g5
tp173
a(S'to'
p174
S'to'
p175
S'TO'
p176
S'B-VP'
p177
g5
tp178
a(S'compare'
p179
S'compare'
p180
S'VB'
p181
S'I-VP'
p182
g5
tp183
a(S'levels'
p184
S'level'
p185
S'NNS'
p186
S'B-NP'
p187
g5
tp188
a(S'of'
p189
S'of'
p190
S'IN'
p191
S'B-PP'
p192
g5
tp193
a(S'satisfaction'
p194
S'satisfaction'
p195
S'NN'
p196
S'B-NP'
p197
g5
tp198
a(S'and'
p199
S'and'
p200
S'CC'
p201
g5
g5
tp202
a(S'clinical'
p203
S'clinical'
p204
S'JJ'
p205
S'B-NP'
p206
g5
tp207
a(S'outcomes'
p208
S'outcome'
p209
S'NNS'
p210
S'I-NP'
p211
g5
tp212
a(S'for'
p213
S'for'
p214
S'IN'
p215
S'B-PP'
p216
g5
tp217
a(S'two'
p218
S'two'
p219
S'CD'
p220
S'B-NP'
p221
g5
tp222
a(S'groups'
p223
S'group'
p224
S'NNS'
p225
S'I-NP'
p226
g5
tp227
a(S'of'
p228
S'of'
p229
S'IN'
p230
S'B-PP'
p231
g5
tp232
a(S'women'
p233
S'woman'
p234
S'NNS'
p235
S'B-NP'
p236
g5
tp237
a(S','
p238
g238
g238
g5
g5
tp239
a(S'cared'
p240
S'care'
p241
S'VBN'
p242
S'B-VP'
p243
g5
tp244
a(S'for'
p245
S'for'
p246
S'IN'
p247
S'B-PP'
p248
g5
tp249
a(S'either'
p250
S'either'
p251
S'DT'
p252
S'B-NP'
p253
g5
tp254
a(S'under'
p255
S'under'
p256
S'IN'
p257
S'B-PP'
p258
g5
tp259
a(S'this'
p260
S'this'
p261
S'DT'
p262
S'B-NP'
p263
g5
tp264
a(S'Changing'
p265
S'Changing'
p266
S'NNP'
p267
S'I-NP'
p268
g5
tp269
a(S'Childbirth'
p270
S'Childbirth'
p271
S'NNP'
p272
S'I-NP'
p273
g5
tp274
a(S'scheme'
p275
S'scheme'
p276
S'NN'
p277
S'I-NP'
p278
g5
tp279
a(S'or'
p280
S'or'
p281
S'CC'
p282
g5
g5
tp283
a(S'the'
p284
S'the'
p285
S'DT'
p286
S'B-NP'
p287
g5
tp288
a(S'traditional'
p289
S'traditional'
p290
S'JJ'
p291
S'I-NP'
p292
g5
tp293
a(S'model'
p294
S'model'
p295
S'NN'
p296
S'I-NP'
p297
g5
tp298
a(S'of'
p299
S'of'
p300
S'IN'
p301
S'B-PP'
p302
g5
tp303
a(S'care'
p304
S'care'
p305
S'NN'
p306
S'B-NP'
p307
g5
tp308
a(g28
g28
g28
g5
g5
tp309
a(S'METHOD'
p310
S'METHOD'
p311
S'NN'
p312
S'B-NP'
p313
g5
tp314
a(S'Of'
p315
S'Of'
p316
S'IN'
p317
S'B-PP'
p318
g5
tp319
a(S'the'
p320
S'the'
p321
S'DT'
p322
S'B-NP'
p323
g5
tp324
a(S'200'
p325
S'200'
p326
S'CD'
p327
S'I-NP'
p328
g5
tp329
a(S'women'
p330
S'woman'
p331
S'NNS'
p332
S'I-NP'
p333
g5
tp334
a(S'who'
p335
S'who'
p336
S'WP'
p337
S'B-NP'
p338
g5
tp339
a(S'agreed'
p340
S'agree'
p341
S'VBD'
p342
S'B-VP'
p343
g5
tp344
a(S'to'
p345
S'to'
p346
S'TO'
p347
S'I-VP'
p348
g5
tp349
a(S'participate'
p350
S'participate'
p351
S'VB'
p352
S'I-VP'
p353
g5
tp354
a(S'in'
p355
S'in'
p356
S'IN'
p357
S'B-PP'
p358
g5
tp359
a(S'the'
p360
S'the'
p361
S'DT'
p362
S'B-NP'
p363
g5
tp364
a(S'project'
p365
S'project'
p366
S'NN'
p367
S'I-NP'
p368
g5
tp369
a(g238
g238
g238
g5
g5
tp370
a(S'100'
p371
S'100'
p372
S'CD'
p373
S'B-NP'
p374
g5
tp375
a(S'were'
p376
S'be'
p377
S'VBD'
p378
S'B-VP'
p379
g5
tp380
a(S'randomly'
p381
S'randomly'
p382
S'RB'
p383
S'I-VP'
p384
g5
tp385
a(S'allocated'
p386
S'allocate'
p387
S'VBN'
p388
S'I-VP'
p389
g5
tp390
a(S'to'
p391
S'to'
p392
S'TO'
p393
S'B-PP'
p394
g5
tp395
a(S'the'
p396
S'the'
p397
S'DT'
p398
S'B-NP'
p399
g5
tp400
a(S'pilot'
p401
S'pilot'
p402
S'NN'
p403
S'I-NP'
p404
g5
tp405
a(S'scheme'
p406
S'scheme'
p407
S'NN'
p408
S'I-NP'
p409
g5
tp410
a(S'and'
p411
S'and'
p412
S'CC'
p413
g5
g5
tp414
a(S'100'
p415
S'100'
p416
S'CD'
p417
S'B-NP'
p418
g5
tp419
a(S'to'
p420
S'to'
p421
S'TO'
p422
S'B-PP'
p423
g5
tp424
a(S'the'
p425
S'the'
p426
S'DT'
p427
S'B-NP'
p428
g5
tp429
a(S'traditional'
p430
S'traditional'
p431
S'JJ'
p432
S'I-NP'
p433
g5
tp434
a(S'care'
p435
S'care'
p436
S'NN'
p437
S'I-NP'
p438
g5
tp439
a(S'package.'
p440
S'package.'
p441
S'NN'
p442
S'I-NP'
p443
g5
tp444
a(S'During'
p445
S'During'
p446
S'IN'
p447
S'B-PP'
p448
g5
tp449
a(S'the'
p450
S'the'
p451
S'DT'
p452
S'B-NP'
p453
g5
tp454
a(S'postpartum'
p455
S'postpartum'
p456
S'NN'
p457
S'I-NP'
p458
g5
tp459
a(S'period'
p460
S'period'
p461
S'NN'
p462
S'I-NP'
p463
g5
tp464
a(g238
g238
g238
g5
g5
tp465
a(S'information'
p466
S'information'
p467
S'NN'
p468
S'B-NP'
p469
g5
tp470
a(S'was'
p471
S'be'
p472
S'VBD'
p473
S'B-VP'
p474
g5
tp475
a(S'collected'
p476
S'collect'
p477
S'VBN'
p478
S'I-VP'
p479
g5
tp480
a(S'via'
p481
S'via'
p482
S'IN'
p483
S'B-PP'
p484
g5
tp485
a(g14
g14
S'DT'
p486
S'B-NP'
p487
g5
tp488
a(S'questionnaire'
p489
S'questionnaire'
p490
S'NN'
p491
S'I-NP'
p492
g5
tp493
a(S'about'
p494
S'about'
p495
S'IN'
p496
S'B-PP'
p497
g5
tp498
a(S'participants'
p499
S'participant'
p500
S'NNS'
p501
S'B-NP'
p502
g5
tp503
a(S"'"
p504
g504
S'POS'
p505
S'B-NP'
p506
g5
tp507
a(S'levels'
p508
S'level'
p509
S'NNS'
p510
S'I-NP'
p511
g5
tp512
a(S'of'
p513
S'of'
p514
S'IN'
p515
S'B-PP'
p516
g5
tp517
a(S'satisfaction'
p518
S'satisfaction'
p519
S'NN'
p520
S'B-NP'
p521
g5
tp522
a(S'with'
p523
S'with'
p524
S'IN'
p525
S'B-PP'
p526
g5
tp527
a(g14
g14
S'DT'
p528
S'B-NP'
p529
g5
tp530
a(S'variety'
p531
S'variety'
p532
S'NN'
p533
S'I-NP'
p534
g5
tp535
a(S'of'
p536
S'of'
p537
S'IN'
p538
S'B-PP'
p539
g5
tp540
a(S'aspects'
p541
S'aspect'
p542
S'NNS'
p543
S'B-NP'
p544
g5
tp545
a(S'of'
p546
S'of'
p547
S'IN'
p548
S'B-PP'
p549
g5
tp550
a(S'care'
p551
S'care'
p552
S'NN'
p553
S'B-NP'
p554
g5
tp555
a(S'provided'
p556
S'provide'
p557
S'VBN'
p558
S'B-VP'
p559
g5
tp560
a(S'during'
p561
S'during'
p562
S'IN'
p563
S'B-PP'
p564
g5
tp565
a(S'the'
p566
S'the'
p567
S'DT'
p568
S'B-NP'
p569
g5
tp570
a(S'antenatal'
p571
S'antenatal'
p572
S'JJ'
p573
S'I-NP'
p574
g5
tp575
a(g238
g238
g238
S'I-NP'
p576
g5
tp577
a(S'delivery'
p578
S'delivery'
p579
S'NN'
p580
S'I-NP'
p581
g5
tp582
a(S'and'
p583
S'and'
p584
S'CC'
p585
S'I-NP'
p586
g5
tp587
a(S'postpartum'
p588
S'postpartum'
p589
S'NN'
p590
S'I-NP'
p591
g5
tp592
a(S'periods.'
p593
S'periods.'
p594
S'NN'
p595
S'I-NP'
p596
g5
tp597
a(S'Data'
p598
S'Data'
p599
S'NNP'
p600
S'I-NP'
p601
g5
tp602
a(S'about'
p603
S'about'
p604
S'IN'
p605
S'B-PP'
p606
g5
tp607
a(S'clinical'
p608
S'clinical'
p609
S'JJ'
p610
S'B-NP'
p611
g5
tp612
a(S'outcomes'
p613
S'outcome'
p614
S'NNS'
p615
S'I-NP'
p616
g5
tp617
a(S'for'
p618
S'for'
p619
S'IN'
p620
S'B-PP'
p621
g5
tp622
a(S'the'
p623
S'the'
p624
S'DT'
p625
S'B-NP'
p626
g5
tp627
a(S'two'
p628
S'two'
p629
S'CD'
p630
S'I-NP'
p631
g5
tp632
a(S'groups'
p633
S'group'
p634
S'NNS'
p635
S'I-NP'
p636
g5
tp637
a(S'were'
p638
S'be'
p639
S'VBD'
p640
S'B-VP'
p641
g5
tp642
a(S'also'
p643
S'also'
p644
S'RB'
p645
S'I-VP'
p646
g5
tp647
a(S'obtained'
p648
S'obtain'
p649
S'VBN'
p650
S'I-VP'
p651
g5
tp652
a(g28
g28
g28
g5
g5
tp653
a(S'RESULTS'
p654
S'RESULTS'
p655
S'NNS'
p656
S'B-NP'
p657
g5
tp658
a(S'Women'
p659
S'Woman'
p660
S'NNS'
p661
S'I-NP'
p662
g5
tp663
a(S'in'
p664
S'in'
p665
S'IN'
p666
S'B-PP'
p667
g5
tp668
a(S'the'
p669
S'the'
p670
S'DT'
p671
S'B-NP'
p672
g5
tp673
a(S'pilot'
p674
S'pilot'
p675
S'NN'
p676
S'I-NP'
p677
g5
tp678
a(S'group'
p679
S'group'
p680
S'NN'
p681
S'I-NP'
p682
g5
tp683
a(S'had'
p684
S'have'
p685
S'VBD'
p686
S'B-VP'
p687
g5
tp688
a(S'significantly'
p689
S'significantly'
p690
S'RB'
p691
S'B-NP'
p692
g5
tp693
a(S'more'
p694
S'more'
p695
S'JJR'
p696
S'I-NP'
p697
g5
tp698
a(S'continuity'
p699
S'continuity'
p700
S'NN'
p701
S'I-NP'
p702
g5
tp703
a(S'of'
p704
S'of'
p705
S'IN'
p706
S'B-PP'
p707
g5
tp708
a(S'care'
p709
S'care'
p710
S'NN'
p711
S'B-NP'
p712
g5
tp713
a(S'throughout'
p714
S'throughout'
p715
S'IN'
p716
S'B-PP'
p717
g5
tp718
a(S'each'
p719
S'each'
p720
S'DT'
p721
S'B-NP'
p722
g5
tp723
a(S'of'
p724
S'of'
p725
S'IN'
p726
S'B-PP'
p727
g5
tp728
a(S'the'
p729
S'the'
p730
S'DT'
p731
S'B-NP'
p732
g5
tp733
a(S'three'
p734
S'three'
p735
S'CD'
p736
S'I-NP'
p737
g5
tp738
a(S'periods'
p739
S'period'
p740
S'NNS'
p741
S'I-NP'
p742
g5
tp743
a(g238
g238
g238
g5
g5
tp744
a(S'were'
p745
S'be'
p746
S'VBD'
p747
S'B-VP'
p748
g5
tp749
a(S'generally'
p750
S'generally'
p751
S'RB'
p752
S'B-ADJP'
p753
g5
tp754
a(S'more'
p755
S'more'
p756
S'RBR'
p757
S'I-ADJP'
p758
g5
tp759
a(S'satisfied'
p760
S'satisfied'
p761
S'JJ'
p762
S'I-ADJP'
p763
g5
tp764
a(S'with'
p765
S'with'
p766
S'IN'
p767
S'B-PP'
p768
g5
tp769
a(S'their'
p770
S'their'
p771
S'PRP$'
p772
S'B-NP'
p773
g5
tp774
a(S'care'
p775
S'care'
p776
S'NN'
p777
S'I-NP'
p778
g5
tp779
a(g238
g238
g238
g5
g5
tp780
a(S'felt'
p781
S'feel'
p782
S'VBD'
p783
S'B-VP'
p784
g5
tp785
a(S'that'
p786
S'that'
p787
S'IN'
p788
S'B-SBAR'
p789
g5
tp790
a(S'they'
p791
S'they'
p792
S'PRP'
p793
S'B-NP'
p794
g5
tp795
a(S'had'
p796
S'have'
p797
S'VBD'
p798
S'B-VP'
p799
g5
tp800
a(S'more'
p801
S'more'
p802
S'JJR'
p803
S'B-NP'
p804
g5
tp805
a(S'choice'
p806
S'choice'
p807
S'NN'
p808
S'I-NP'
p809
g5
tp810
a(S'over'
p811
S'over'
p812
S'IN'
p813
S'B-PP'
p814
g5
tp815
a(g14
g14
S'DT'
p816
S'B-NP'
p817
g5
tp818
a(S'variety'
p819
S'variety'
p820
S'NN'
p821
S'I-NP'
p822
g5
tp823
a(S'of'
p824
S'of'
p825
S'IN'
p826
S'B-PP'
p827
g5
tp828
a(S'aspects'
p829
S'aspect'
p830
S'NNS'
p831
S'B-NP'
p832
g5
tp833
a(S'of'
p834
S'of'
p835
S'IN'
p836
S'B-PP'
p837
g5
tp838
a(S'care'
p839
S'care'
p840
S'NN'
p841
S'B-NP'
p842
g5
tp843
a(S'and'
p844
S'and'
p845
S'CC'
p846
g5
g5
tp847
a(S'experienced'
p848
S'experience'
p849
S'VBD'
p850
S'B-VP'
p851
g5
tp852
a(S'no'
p853
S'no'
p854
S'DT'
p855
S'B-NP'
p856
g5
tp857
a(S'compromise'
p858
S'compromise'
p859
S'NN'
p860
S'I-NP'
p861
g5
tp862
a(S'in'
p863
S'in'
p864
S'IN'
p865
S'B-PP'
p866
g5
tp867
a(S'clinical'
p868
S'clinical'
p869
S'JJ'
p870
S'B-NP'
p871
g5
tp872
a(S'outcomes'
p873
S'outcome'
p874
S'NNS'
p875
S'I-NP'
p876
g5
tp877
a(S'('
p878
g878
g878
g5
g5
tp879
a(S'P'
p880
g880
S'NN'
p881
S'B-NP'
p882
g5
tp883
a(S'='
p884
g884
S'SYM'
p885
S'B-VP'
p886
g5
tp887
a(S'0.05'
p888
S'0.05'
p889
S'CD'
p890
S'B-NP'
p891
g5
tp892
a(S'or'
p893
S'or'
p894
S'CC'
p895
S'B-NP'
p896
g5
tp897
a(S'less'
p898
S'less'
p899
S'JJR'
p900
S'I-NP'
p901
g5
tp902
a(S'in'
p903
S'in'
p904
S'IN'
p905
S'B-PP'
p906
g5
tp907
a(S'each'
p908
S'each'
p909
S'DT'
p910
S'B-NP'
p911
g5
tp912
a(S'case'
p913
S'case'
p914
S'NN'
p915
S'I-NP'
p916
g5
tp917
a(S')'
p918
g918
g918
g5
g5
tp919
a(g28
g28
g28
g5
g5
tp920
a(S'IMPLICATIONS'
p921
S'IMPLICATIONS'
p922
S'NNS'
p923
S'B-NP'
p924
g5
tp925
a(S'FOR'
p926
S'FOR'
p927
S'IN'
p928
S'B-PP'
p929
g5
tp930
a(S'PRACTICE'
p931
S'PRACTICE'
p932
S'NN'
p933
S'B-NP'
p934
g5
tp935
a(S'Many'
p936
S'Many'
p937
S'JJ'
p938
S'I-NP'
p939
g5
tp940
a(S'previous'
p941
S'previous'
p942
S'JJ'
p943
S'I-NP'
p944
g5
tp945
a(S'attempts'
p946
S'attempt'
p947
S'NNS'
p948
S'I-NP'
p949
g5
tp950
a(S'to'
p951
S'to'
p952
S'TO'
p953
S'B-VP'
p954
g5
tp955
a(S'introduce'
p956
S'introduce'
p957
S'VB'
p958
S'I-VP'
p959
g5
tp960
a(S'the'
p961
S'the'
p962
S'DT'
p963
S'B-NP'
p964
g5
tp965
a(S'Changing'
p966
S'Changing'
p967
S'NNP'
p968
S'I-NP'
p969
g5
tp970
a(S'Childbirth'
p971
S'Childbirth'
p972
S'NNP'
p973
S'I-NP'
p974
g5
tp975
a(S'initiative'
p976
S'initiative'
p977
S'NN'
p978
S'I-NP'
p979
g5
tp980
a(S'have'
p981
S'have'
p982
S'VBP'
p983
S'B-VP'
p984
g5
tp985
a(S'revealed'
p986
S'reveal'
p987
S'VBN'
p988
S'I-VP'
p989
g5
tp990
a(S'significant'
p991
S'significant'
p992
S'JJ'
p993
S'B-NP'
p994
g5
tp995
a(S'problems'
p996
S'problem'
p997
S'NNS'
p998
S'I-NP'
p999
g5
tp1000
a(g238
g238
g238
g5
g5
tp1001
a(S'particularly'
p1002
S'particularly'
p1003
S'RB'
p1004
S'B-ADVP'
p1005
g5
tp1006
a(S'with'
p1007
S'with'
p1008
S'IN'
p1009
S'B-PP'
p1010
g5
tp1011
a(S'regard'
p1012
S'regard'
p1013
S'NN'
p1014
S'B-NP'
p1015
g5
tp1016
a(S'to'
p1017
S'to'
p1018
S'TO'
p1019
S'B-PP'
p1020
g5
tp1021
a(S'the'
p1022
S'the'
p1023
S'DT'
p1024
S'B-NP'
p1025
g5
tp1026
a(S'continuity'
p1027
S'continuity'
p1028
S'NN'
p1029
S'I-NP'
p1030
g5
tp1031
a(S'of'
p1032
S'of'
p1033
S'IN'
p1034
S'B-PP'
p1035
g5
tp1036
a(S'carer'
p1037
S'carer'
p1038
S'NN'
p1039
S'B-NP'
p1040
g5
tp1041
a(S'requirement.'
p1042
S'requirement.'
p1043
S'NN'
p1044
S'I-NP'
p1045
g5
tp1046
a(S'Taking'
p1047
S'Take'
p1048
S'VBG'
p1049
S'B-VP'
p1050
g5
tp1051
a(S'account'
p1052
S'account'
p1053
S'NN'
p1054
S'B-NP'
p1055
g5
tp1056
a(S'of'
p1057
S'of'
p1058
S'IN'
p1059
S'B-PP'
p1060
g5
tp1061
a(S'local'
p1062
S'local'
p1063
S'JJ'
p1064
S'B-NP'
p1065
g5
tp1066
a(S'health'
p1067
S'health'
p1068
S'NN'
p1069
S'I-NP'
p1070
g5
tp1071
a(S'care'
p1072
S'care'
p1073
S'NN'
p1074
S'I-NP'
p1075
g5
tp1076
a(S'needs'
p1077
S'need'
p1078
S'NNS'
p1079
S'I-NP'
p1080
g5
tp1081
a(S'and'
p1082
S'and'
p1083
S'CC'
p1084
g5
g5
tp1085
a(S'existing'
p1086
S'exist'
p1087
S'VBG'
p1088
S'B-NP'
p1089
g5
tp1090
a(S'provision'
p1091
S'provision'
p1092
S'NN'
p1093
S'I-NP'
p1094
g5
tp1095
a(g238
g238
g238
g5
g5
tp1096
a(S'the'
p1097
S'the'
p1098
S'DT'
p1099
S'B-NP'
p1100
g5
tp1101
a(S'present'
p1102
S'present'
p1103
S'JJ'
p1104
S'I-NP'
p1105
g5
tp1106
a(S'study'
p1107
S'study'
p1108
S'NN'
p1109
S'I-NP'
p1110
g5
tp1111
a(S'adapted'
p1112
S'adapt'
p1113
S'VBD'
p1114
S'B-VP'
p1115
g5
tp1116
a(S'this'
p1117
S'this'
p1118
S'DT'
p1119
S'B-NP'
p1120
g5
tp1121
a(S'concept'
p1122
S'concept'
p1123
S'NN'
p1124
S'I-NP'
p1125
g5
tp1126
a(S'to'
p1127
S'to'
p1128
S'TO'
p1129
S'B-PP'
p1130
g5
tp1131
a(S'continuity'
p1132
S'continuity'
p1133
S'NN'
p1134
S'B-NP'
p1135
g5
tp1136
a(S'of'
p1137
S'of'
p1138
S'IN'
p1139
S'B-PP'
p1140
g5
tp1141
a(S'care.'
p1142
S'care.'
p1143
S'NN'
p1144
S'B-NP'
p1145
g5
tp1146
a(S'This'
p1147
S'This'
p1148
S'DT'
p1149
S'B-NP'
p1150
g5
tp1151
a(S'did'
p1152
S'do'
p1153
S'VBD'
p1154
S'B-VP'
p1155
g5
tp1156
a(S'not'
p1157
S'not'
p1158
S'RB'
p1159
S'I-VP'
p1160
g5
tp1161
a(S'apparently'
p1162
S'apparently'
p1163
S'RB'
p1164
S'I-VP'
p1165
g5
tp1166
a(S'affect'
p1167
S'affect'
p1168
S'VB'
p1169
S'I-VP'
p1170
g5
tp1171
a(S'any'
p1172
S'any'
p1173
S'DT'
p1174
S'B-NP'
p1175
g5
tp1176
a(S'of'
p1177
S'of'
p1178
S'IN'
p1179
S'B-PP'
p1180
g5
tp1181
a(S'the'
p1182
S'the'
p1183
S'DT'
p1184
S'B-NP'
p1185
g5
tp1186
a(S'guiding'
p1187
S'guide'
p1188
S'VBG'
p1189
S'I-NP'
p1190
g5
tp1191
a(S'principles'
p1192
S'principle'
p1193
S'NNS'
p1194
S'I-NP'
p1195
g5
tp1196
a(S'contained'
p1197
S'contain'
p1198
S'VBN'
p1199
S'B-VP'
p1200
g5
tp1201
a(S'in'
p1202
S'in'
p1203
S'IN'
p1204
S'B-PP'
p1205
g5
tp1206
a(S'the'
p1207
S'the'
p1208
S'DT'
p1209
S'B-NP'
p1210
g5
tp1211
a(S'original'
p1212
S'original'
p1213
S'JJ'
p1214
S'I-NP'
p1215
g5
tp1216
a(S'document'
p1217
S'document'
p1218
S'NN'
p1219
S'I-NP'
p1220
g5
tp1221
a(g238
g238
g238
g5
g5
tp1222
a(S'and'
p1223
S'and'
p1224
S'CC'
p1225
g5
g5
tp1226
a(S'yet'
p1227
S'yet'
p1228
S'RB'
p1229
S'B-NP'
p1230
g5
tp1231
a(S'enhanced'
p1232
S'enhance'
p1233
S'VBN'
p1234
S'I-NP'
p1235
g5
tp1236
a(S'satisfaction.'
p1237
S'satisfaction.'
p1238
S'NN'
p1239
S'I-NP'
p1240
g5
tp1241
a(S'It'
p1242
S'It'
p1243
S'PRP'
p1244
S'B-NP'
p1245
g5
tp1246
a(S'would'
p1247
S'would'
p1248
S'MD'
p1249
S'B-VP'
p1250
g5
tp1251
a(S'appear'
p1252
S'appear'
p1253
S'VB'
p1254
S'I-VP'
p1255
g5
tp1256
a(S'that'
p1257
S'that'
p1258
S'IN'
p1259
S'B-SBAR'
p1260
g5
tp1261
a(S'the'
p1262
S'the'
p1263
S'DT'
p1264
S'B-NP'
p1265
g5
tp1266
a(S'Changing'
p1267
S'Changing'
p1268
S'NNP'
p1269
S'I-NP'
p1270
g5
tp1271
a(S'Childbirth'
p1272
S'Childbirth'
p1273
S'NNP'
p1274
S'I-NP'
p1275
g5
tp1276
a(S'agenda'
p1277
S'agenda'
p1278
S'NN'
p1279
S'I-NP'
p1280
g5
tp1281
a(S'can'
p1282
S'can'
p1283
S'MD'
p1284
S'B-VP'
p1285
g5
tp1286
a(S'be'
p1287
S'be'
p1288
S'VB'
p1289
S'I-VP'
p1290
g5
tp1291
a(S'adapted'
p1292
S'adapt'
p1293
S'VBN'
p1294
S'I-VP'
p1295
g5
tp1296
a(S'and'
p1297
S'and'
p1298
S'CC'
p1299
S'I-VP'
p1300
g5
tp1301
a(S'integrated'
p1302
S'integrate'
p1303
S'VBN'
p1304
S'I-VP'
p1305
g5
tp1306
a(S'with'
p1307
S'with'
p1308
S'IN'
p1309
S'B-PP'
p1310
g5
tp1311
a(S'local'
p1312
S'local'
p1313
S'JJ'
p1314
S'B-NP'
p1315
g5
tp1316
a(S'health'
p1317
S'health'
p1318
S'NN'
p1319
S'I-NP'
p1320
g5
tp1321
a(S'care'
p1322
S'care'
p1323
S'NN'
p1324
S'I-NP'
p1325
g5
tp1326
a(S'situations'
p1327
S'situation'
p1328
S'NNS'
p1329
S'I-NP'
p1330
g5
tp1331
a(S'without'
p1332
S'without'
p1333
S'IN'
p1334
S'B-PP'
p1335
g5
tp1336
a(S'sacrificing'
p1337
S'sacrifice'
p1338
S'VBG'
p1339
S'B-VP'
p1340
g5
tp1341
a(S'any'
p1342
S'any'
p1343
S'DT'
p1344
S'B-NP'
p1345
g5
tp1346
a(S'of'
p1347
S'of'
p1348
S'IN'
p1349
S'B-PP'
p1350
g5
tp1351
a(S'the'
p1352
S'the'
p1353
S'DT'
p1354
S'B-NP'
p1355
g5
tp1356
a(S'overarching'
p1357
S'overarching'
p1358
S'JJ'
p1359
S'I-NP'
p1360
g5
tp1361
a(S'principles'
p1362
S'principle'
p1363
S'NNS'
p1364
S'I-NP'
p1365
g5
tp1366
a(g28
g28
g28
g5
g5
tp1367
a.