(lp0
(S'A'
p1
g1
S'DT'
p2
S'B-NP'
p3
S'O'
p4
tp5
a(S'randomized'
p6
S'randomize'
p7
S'VBN'
p8
S'I-NP'
p9
g4
tp10
a(S','
p11
g11
g11
S'I-NP'
p12
g4
tp13
a(S'dose-escalation'
p14
S'dose-escalation'
p15
S'NN'
p16
S'I-NP'
p17
g4
tp18
a(S'study'
p19
S'study'
p20
S'NN'
p21
S'I-NP'
p22
g4
tp23
a(S'of'
p24
S'of'
p25
S'IN'
p26
S'B-PP'
p27
g4
tp28
a(S'subconjunctival'
p29
S'subconjunctival'
p30
S'JJ'
p31
S'B-NP'
p32
g4
tp33
a(S'and'
p34
S'and'
p35
S'CC'
p36
S'I-NP'
p37
g4
tp38
a(S'intravitreal'
p39
S'intravitreal'
p40
S'JJ'
p41
S'I-NP'
p42
g4
tp43
a(S'injections'
p44
S'injection'
p45
S'NNS'
p46
S'I-NP'
p47
g4
tp48
a(S'of'
p49
S'of'
p50
S'IN'
p51
S'B-PP'
p52
g4
tp53
a(S'sirolimus'
p54
S'sirolimus'
p55
S'NN'
p56
S'B-NP'
p57
g4
tp58
a(S'in'
p59
S'in'
p60
S'IN'
p61
S'B-PP'
p62
g4
tp63
a(S'patients'
p64
S'patient'
p65
S'NNS'
p66
S'B-NP'
p67
g4
tp68
a(S'with'
p69
S'with'
p70
S'IN'
p71
S'B-PP'
p72
g4
tp73
a(S'diabetic'
p74
S'diabetic'
p75
S'JJ'
p76
S'B-NP'
p77
g4
tp78
a(S'macular'
p79
S'macular'
p80
S'JJ'
p81
S'I-NP'
p82
g4
tp83
a(S'edema'
p84
S'edema'
p85
S'NN'
p86
S'I-NP'
p87
g4
tp88
a(S'.'
p89
g89
g89
g4
g4
tp90
a(S'OBJECTIVE'
p91
S'OBJECTIVE'
p92
S'NN'
p93
S'B-NP'
p94
g4
tp95
a(S'To'
p96
S'To'
p97
S'TO'
p98
S'B-VP'
p99
g4
tp100
a(S'evaluate'
p101
S'evaluate'
p102
S'VB'
p103
S'I-VP'
p104
g4
tp105
a(S'the'
p106
S'the'
p107
S'DT'
p108
S'B-NP'
p109
g4
tp110
a(S'safety'
p111
S'safety'
p112
S'NN'
p113
S'I-NP'
p114
g4
tp115
a(S'and'
p116
S'and'
p117
S'CC'
p118
S'I-NP'
p119
g4
tp120
a(S'tolerability'
p121
S'tolerability'
p122
S'NN'
p123
S'I-NP'
p124
g4
tp125
a(S'of'
p126
S'of'
p127
S'IN'
p128
S'B-PP'
p129
g4
tp130
a(S'a'
p131
g131
S'DT'
p132
S'B-NP'
p133
g4
tp134
a(S'single'
p135
S'single'
p136
S'JJ'
p137
S'I-NP'
p138
g4
tp139
a(S'subconjunctival'
p140
S'subconjunctival'
p141
S'NN'
p142
S'I-NP'
p143
g4
tp144
a(S'('
p145
g145
g145
g4
g4
tp146
a(S'SCJ'
p147
S'SCJ'
p148
S'NN'
p149
S'B-NP'
p150
S'B-protein'
p151
tp152
a(S')'
p153
g153
g153
g4
g4
tp154
a(S'or'
p155
S'or'
p156
S'CC'
p157
g4
g4
tp158
a(S'intravitreal'
p159
S'intravitreal'
p160
S'JJ'
p161
S'B-NP'
p162
g4
tp163
a(g145
g145
g145
g4
g4
tp164
a(S'IVT'
p165
S'IVT'
p166
S'NN'
p167
S'B-NP'
p168
g4
tp169
a(g153
g153
g153
g4
g4
tp170
a(S'injection'
p171
S'injection'
p172
S'NN'
p173
S'B-NP'
p174
g4
tp175
a(S'of'
p176
S'of'
p177
S'IN'
p178
S'B-PP'
p179
g4
tp180
a(S'an'
p181
S'an'
p182
S'DT'
p183
S'B-NP'
p184
g4
tp185
a(S'ophthalmic'
p186
S'ophthalmic'
p187
S'JJ'
p188
S'I-NP'
p189
g4
tp190
a(S'sirolimus'
p191
S'sirolimus'
p192
S'NN'
p193
S'I-NP'
p194
g4
tp195
a(S'formulation'
p196
S'formulation'
p197
S'NN'
p198
S'I-NP'
p199
g4
tp200
a(S'in'
p201
S'in'
p202
S'IN'
p203
S'B-PP'
p204
g4
tp205
a(S'eyes'
p206
S'eye'
p207
S'NNS'
p208
S'B-NP'
p209
g4
tp210
a(S'with'
p211
S'with'
p212
S'IN'
p213
S'B-PP'
p214
g4
tp215
a(S'diabetic'
p216
S'diabetic'
p217
S'JJ'
p218
S'B-NP'
p219
g4
tp220
a(S'macular'
p221
S'macular'
p222
S'JJ'
p223
S'I-NP'
p224
g4
tp225
a(S'edema'
p226
S'edema'
p227
S'NN'
p228
S'I-NP'
p229
g4
tp230
a(g145
g145
g145
g4
g4
tp231
a(S'DME'
p232
S'DME'
p233
S'NN'
p234
S'B-NP'
p235
g4
tp236
a(g153
g153
g153
g4
g4
tp237
a(g89
g89
g89
g4
g4
tp238
a(S'DESIGN'
p239
S'DESIGN'
p240
S'NNP'
p241
S'B-NP'
p242
g4
tp243
a(S'Randomized'
p244
S'Randomized'
p245
S'NNP'
p246
S'I-NP'
p247
g4
tp248
a(g11
g11
g11
g4
g4
tp249
a(S'open-label'
p250
S'open-label'
p251
S'NN'
p252
S'B-NP'
p253
g4
tp254
a(g11
g11
g11
g4
g4
tp255
a(S'dose-escalating'
p256
S'dose-escalating'
p257
S'NN'
p258
S'B-NP'
p259
g4
tp260
a(S'phase'
p261
S'phase'
p262
S'NN'
p263
S'I-NP'
p264
g4
tp265
a(S'I'
p266
g266
S'CD'
p267
S'I-NP'
p268
g4
tp269
a(S'study'
p270
S'study'
p271
S'NN'
p272
S'I-NP'
p273
g4
tp274
a(g89
g89
g89
g4
g4
tp275
a(S'PARTICIPANTS'
p276
S'PARTICIPANTS'
p277
S'NNS'
p278
S'B-NP'
p279
g4
tp280
a(S'Fifty'
p281
S'Fifty'
p282
S'CD'
p283
S'B-NP'
p284
g4
tp285
a(S'eyes'
p286
S'eye'
p287
S'NNS'
p288
S'I-NP'
p289
g4
tp290
a(S'among'
p291
S'among'
p292
S'IN'
p293
S'B-PP'
p294
g4
tp295
a(S'50'
p296
S'50'
p297
S'CD'
p298
S'B-NP'
p299
g4
tp300
a(S'patients'
p301
S'patient'
p302
S'NNS'
p303
S'I-NP'
p304
g4
tp305
a(S'with'
p306
S'with'
p307
S'IN'
p308
S'B-PP'
p309
g4
tp310
a(S'DME'
p311
S'DME'
p312
S'NN'
p313
S'B-NP'
p314
g4
tp315
a(g11
g11
g11
g4
g4
tp316
a(S'retinal'
p317
S'retinal'
p318
S'JJ'
p319
S'B-NP'
p320
S'B-protein'
p321
tp322
a(S'thickness'
p323
S'thickness'
p324
S'NN'
p325
S'I-NP'
p326
S'I-protein'
p327
tp328
a(S'\xe2\x89\xa5'
p329
S'\xe2\x89\xa5'
p330
S'NN'
p331
S'I-NP'
p332
S'I-protein'
p333
tp334
a(S'300'
p335
S'300'
p336
S'CD'
p337
S'B-NP'
p338
S'I-protein'
p339
tp340
a(S'microns'
p341
S'micron'
p342
S'NNS'
p343
S'I-NP'
p344
S'I-protein'
p345
tp346
a(S'and'
p347
S'and'
p348
S'CC'
p349
g4
g4
tp350
a(S'best-corrected'
p351
S'best-corrected'
p352
S'JJ'
p353
S'B-NP'
p354
g4
tp355
a(S'visual'
p356
S'visual'
p357
S'JJ'
p358
S'I-NP'
p359
g4
tp360
a(S'acuity'
p361
S'acuity'
p362
S'NN'
p363
S'I-NP'
p364
g4
tp365
a(g145
g145
g145
g4
g4
tp366
a(S'BCVA'
p367
S'BCVA'
p368
S'NN'
p369
S'B-NP'
p370
g4
tp371
a(g153
g153
g153
g4
g4
tp372
a(S'20/40'
p373
S'20/40'
p374
S'CD'
p375
S'B-NP'
p376
g4
tp377
a(S'to'
p378
S'to'
p379
S'TO'
p380
S'B-PP'
p381
g4
tp382
a(S'20/200'
p383
S'20/200'
p384
S'CD'
p385
S'B-NP'
p386
g4
tp387
a(g89
g89
g89
g4
g4
tp388
a(S'METHODS'
p389
S'METHODS'
p390
S'NNS'
p391
S'B-NP'
p392
g4
tp393
a(g1
g1
S'DT'
p394
S'B-NP'
p395
g4
tp396
a(S'single'
p397
S'single'
p398
S'JJ'
p399
S'I-NP'
p400
g4
tp401
a(S'dose'
p402
S'dose'
p403
S'NN'
p404
S'I-NP'
p405
g4
tp406
a(S'of'
p407
S'of'
p408
S'IN'
p409
S'B-PP'
p410
g4
tp411
a(S'sirolimus'
p412
S'sirolimus'
p413
S'NN'
p414
S'B-NP'
p415
g4
tp416
a(S'administered'
p417
S'administer'
p418
S'VBN'
p419
S'I-NP'
p420
g4
tp421
a(S'SCJ'
p422
S'SCJ'
p423
S'NN'
p424
S'I-NP'
p425
g4
tp426
a(g145
g145
g145
g4
g4
tp427
a(S'220'
p428
S'220'
p429
S'CD'
p430
S'B-NP'
p431
g4
tp432
a(g11
g11
g11
S'I-NP'
p433
g4
tp434
a(S'440'
p435
S'440'
p436
S'CD'
p437
S'I-NP'
p438
g4
tp439
a(g11
g11
g11
S'I-NP'
p440
g4
tp441
a(S'880'
p442
S'880'
p443
S'CD'
p444
S'I-NP'
p445
g4
tp446
a(g11
g11
g11
S'I-NP'
p447
g4
tp448
a(S'1320'
p449
S'1320'
p450
S'CD'
p451
S'I-NP'
p452
g4
tp453
a(g11
g11
g11
g4
g4
tp454
a(S'or'
p455
S'or'
p456
S'CC'
p457
g4
g4
tp458
a(S'1760'
p459
S'1760'
p460
S'CD'
p461
S'B-NP'
p462
g4
tp463
a(S'\xce\xbcg'
p464
S'\xce\xbcg'
p465
S'NN'
p466
S'I-NP'
p467
g4
tp468
a(g153
g153
g153
g4
g4
tp469
a(S'or'
p470
S'or'
p471
S'CC'
p472
g4
g4
tp473
a(S'IVT'
p474
S'IVT'
p475
S'NN'
p476
S'B-NP'
p477
g4
tp478
a(g145
g145
g145
g4
g4
tp479
a(S'44'
p480
S'44'
p481
S'CD'
p482
S'B-NP'
p483
g4
tp484
a(g11
g11
g11
S'I-NP'
p485
g4
tp486
a(S'110'
p487
S'110'
p488
S'CD'
p489
S'I-NP'
p490
g4
tp491
a(g11
g11
g11
S'I-NP'
p492
g4
tp493
a(S'176'
p494
S'176'
p495
S'CD'
p496
S'I-NP'
p497
g4
tp498
a(g11
g11
g11
S'I-NP'
p499
g4
tp500
a(S'264'
p501
S'264'
p502
S'CD'
p503
S'I-NP'
p504
g4
tp505
a(g11
g11
g11
g4
g4
tp506
a(S'or'
p507
S'or'
p508
S'CC'
p509
g4
g4
tp510
a(S'352'
p511
S'352'
p512
S'CD'
p513
S'B-NP'
p514
g4
tp515
a(S'\xce\xbcg'
p516
S'\xce\xbcg'
p517
S'NN'
p518
S'I-NP'
p519
g4
tp520
a(g153
g153
g153
g4
g4
tp521
a(S'on'
p522
S'on'
p523
S'IN'
p524
S'B-PP'
p525
g4
tp526
a(S'day'
p527
S'day'
p528
S'NN'
p529
S'B-NP'
p530
g4
tp531
a(S'0'
p532
g532
S'CD'
p533
S'I-NP'
p534
g4
tp535
a(S';'
p536
g536
S':'
p537
g4
g4
tp538
a(S'observation'
p539
S'observation'
p540
S'NN'
p541
S'B-NP'
p542
g4
tp543
a(S'through'
p544
S'through'
p545
S'IN'
p546
S'B-PP'
p547
g4
tp548
a(S'day'
p549
S'day'
p550
S'NN'
p551
S'B-NP'
p552
g4
tp553
a(S'90'
p554
S'90'
p555
S'CD'
p556
S'I-NP'
p557
g4
tp558
a(g89
g89
g89
g4
g4
tp559
a(S'MAIN'
p560
S'MAIN'
p561
S'NNP'
p562
S'B-NP'
p563
g4
tp564
a(S'OUTCOME'
p565
S'OUTCOME'
p566
S'NNP'
p567
S'I-NP'
p568
g4
tp569
a(S'MEASURES'
p570
S'MEASURES'
p571
S'NNP'
p572
S'I-NP'
p573
g4
tp574
a(S'Primary'
p575
S'Primary'
p576
S'JJ'
p577
S'I-NP'
p578
g4
tp579
a(S'end'
p580
S'end'
p581
S'NN'
p582
S'I-NP'
p583
g4
tp584
a(S'points'
p585
S'point'
p586
S'NNS'
p587
S'I-NP'
p588
g4
tp589
a(S'were'
p590
S'be'
p591
S'VBD'
p592
S'B-VP'
p593
g4
tp594
a(S'the'
p595
S'the'
p596
S'DT'
p597
S'B-NP'
p598
g4
tp599
a(S'frequency'
p600
S'frequency'
p601
S'NN'
p602
S'I-NP'
p603
g4
tp604
a(S'and'
p605
S'and'
p606
S'CC'
p607
S'I-NP'
p608
g4
tp609
a(S'severity'
p610
S'severity'
p611
S'NN'
p612
S'I-NP'
p613
g4
tp614
a(S'of'
p615
S'of'
p616
S'IN'
p617
S'B-PP'
p618
g4
tp619
a(S'ocular'
p620
S'ocular'
p621
S'JJ'
p622
S'B-NP'
p623
g4
tp624
a(S'and'
p625
S'and'
p626
S'CC'
p627
S'I-NP'
p628
g4
tp629
a(S'systemic'
p630
S'systemic'
p631
S'JJ'
p632
S'I-NP'
p633
g4
tp634
a(S'adverse'
p635
S'adverse'
p636
S'JJ'
p637
S'I-NP'
p638
g4
tp639
a(S'events.'
p640
S'events.'
p641
S'NN'
p642
S'I-NP'
p643
g4
tp644
a(S'Secondary'
p645
S'Secondary'
p646
S'JJ'
p647
S'I-NP'
p648
g4
tp649
a(S'end'
p650
S'end'
p651
S'NN'
p652
S'I-NP'
p653
g4
tp654
a(S'points'
p655
S'point'
p656
S'NNS'
p657
S'I-NP'
p658
g4
tp659
a(S'were'
p660
S'be'
p661
S'VBD'
p662
S'B-VP'
p663
g4
tp664
a(S'changes'
p665
S'change'
p666
S'NNS'
p667
S'B-NP'
p668
g4
tp669
a(S'in'
p670
S'in'
p671
S'IN'
p672
S'B-PP'
p673
g4
tp674
a(S'BCVA'
p675
S'BCVA'
p676
S'NN'
p677
S'B-NP'
p678
S'B-protein'
p679
tp680
a(S'and'
p681
S'and'
p682
S'CC'
p683
g4
g4
tp684
a(S'retinal'
p685
S'retinal'
p686
S'JJ'
p687
S'B-NP'
p688
g4
tp689
a(S'thickness'
p690
S'thickness'
p691
S'NN'
p692
S'I-NP'
p693
g4
tp694
a(g89
g89
g89
g4
g4
tp695
a(S'RESULTS'
p696
S'RESULTS'
p697
S'NNS'
p698
S'B-NP'
p699
g4
tp700
a(S'No'
p701
S'No'
p702
S'DT'
p703
S'B-NP'
p704
g4
tp705
a(S'dose-limiting'
p706
S'dose-limiting'
p707
S'NN'
p708
S'I-NP'
p709
g4
tp710
a(S'toxicities'
p711
S'toxicity'
p712
S'NNS'
p713
S'I-NP'
p714
g4
tp715
a(S'were'
p716
S'be'
p717
S'VBD'
p718
S'B-VP'
p719
g4
tp720
a(S'observed'
p721
S'observe'
p722
S'VBN'
p723
S'I-VP'
p724
g4
tp725
a(S'and'
p726
S'and'
p727
S'CC'
p728
g4
g4
tp729
a(S'ocular'
p730
S'ocular'
p731
S'JJ'
p732
S'B-NP'
p733
g4
tp734
a(S'adverse'
p735
S'adverse'
p736
S'JJ'
p737
S'I-NP'
p738
g4
tp739
a(S'events'
p740
S'event'
p741
S'NNS'
p742
S'I-NP'
p743
g4
tp744
a(S'were'
p745
S'be'
p746
S'VBD'
p747
S'B-VP'
p748
g4
tp749
a(S'mostly'
p750
S'mostly'
p751
S'RB'
p752
S'B-ADJP'
p753
g4
tp754
a(S'mild'
p755
S'mild'
p756
S'JJ'
p757
S'B-NP'
p758
g4
tp759
a(S'and'
p760
S'and'
p761
S'CC'
p762
S'I-NP'
p763
g4
tp764
a(S'transient.'
p765
S'transient.'
p766
S'JJ'
p767
S'I-NP'
p768
g4
tp769
a(S'Conjunctival'
p770
S'Conjunctival'
p771
S'NNP'
p772
S'I-NP'
p773
g4
tp774
a(S'hyperemia'
p775
S'hyperemia'
p776
S'NN'
p777
S'I-NP'
p778
g4
tp779
a(g11
g11
g11
g4
g4
tp780
a(S'hemorrhage'
p781
S'hemorrhage'
p782
S'NN'
p783
S'B-NP'
p784
g4
tp785
a(g11
g11
g11
g4
g4
tp786
a(S'and'
p787
S'and'
p788
S'CC'
p789
g4
g4
tp790
a(S'edema'
p791
S'edema'
p792
S'NN'
p793
S'B-NP'
p794
g4
tp795
a(S'were'
p796
S'be'
p797
S'VBD'
p798
S'B-VP'
p799
g4
tp800
a(S'common'
p801
S'common'
p802
S'JJ'
p803
S'B-ADJP'
p804
g4
tp805
a(S'after'
p806
S'after'
p807
S'IN'
p808
S'B-SBAR'
p809
g4
tp810
a(S'the'
p811
S'the'
p812
S'DT'
p813
S'B-NP'
p814
g4
tp815
a(S'SCJ'
p816
S'SCJ'
p817
S'NN'
p818
S'I-NP'
p819
g4
tp820
a(S'injection'
p821
S'injection'
p822
S'NN'
p823
S'I-NP'
p824
g4
tp825
a(S'procedure'
p826
S'procedure'
p827
S'NN'
p828
S'I-NP'
p829
g4
tp830
a(S'and'
p831
S'and'
p832
S'CC'
p833
g4
g4
tp834
a(S'conjunctival'
p835
S'conjunctival'
p836
S'JJ'
p837
S'B-NP'
p838
g4
tp839
a(S'hemorrhage'
p840
S'hemorrhage'
p841
S'NN'
p842
S'I-NP'
p843
g4
tp844
a(S'was'
p845
S'be'
p846
S'VBD'
p847
S'B-VP'
p848
g4
tp849
a(S'common'
p850
S'common'
p851
S'JJ'
p852
S'B-ADJP'
p853
g4
tp854
a(S'after'
p855
S'after'
p856
S'IN'
p857
S'B-SBAR'
p858
g4
tp859
a(S'the'
p860
S'the'
p861
S'DT'
p862
S'B-NP'
p863
g4
tp864
a(S'IVT'
p865
S'IVT'
p866
S'NN'
p867
S'I-NP'
p868
g4
tp869
a(S'injection'
p870
S'injection'
p871
S'NN'
p872
S'I-NP'
p873
g4
tp874
a(S'procedure.'
p875
S'procedure.'
p876
S'NN'
p877
S'I-NP'
p878
g4
tp879
a(S'Three'
p880
S'Three'
p881
S'CD'
p882
S'B-NP'
p883
g4
tp884
a(S'patients'
p885
S'patient'
p886
S'NNS'
p887
S'I-NP'
p888
g4
tp889
a(S'experienced'
p890
S'experience'
p891
S'VBD'
p892
S'B-VP'
p893
g4
tp894
a(S'ocular'
p895
S'ocular'
p896
S'JJ'
p897
S'B-NP'
p898
g4
tp899
a(S'adverse'
p900
S'adverse'
p901
S'JJ'
p902
S'I-NP'
p903
g4
tp904
a(S'events'
p905
S'event'
p906
S'NNS'
p907
S'I-NP'
p908
g4
tp909
a(S'considered'
p910
S'consider'
p911
S'VBN'
p912
S'B-VP'
p913
g4
tp914
a(S'possibly'
p915
S'possibly'
p916
S'RB'
p917
S'B-ADJP'
p918
g4
tp919
a(S'related'
p920
S'relate'
p921
S'VBN'
p922
S'I-ADJP'
p923
g4
tp924
a(S'to'
p925
S'to'
p926
S'TO'
p927
S'B-VP'
p928
g4
tp929
a(S'study'
p930
S'study'
p931
S'VB'
p932
S'I-VP'
p933
g4
tp934
a(S'drug'
p935
S'drug'
p936
S'NN'
p937
S'B-NP'
p938
g4
tp939
a(g537
g537
g537
g4
g4
tp940
a(S'Conjunctival'
p941
S'Conjunctival'
p942
S'JJ'
p943
S'B-NP'
p944
g4
tp945
a(S'edema'
p946
S'edema'
p947
S'NN'
p948
S'I-NP'
p949
g4
tp950
a(S'and'
p951
S'and'
p952
S'CC'
p953
g4
g4
tp954
a(S'reduced'
p955
S'reduce'
p956
S'VBN'
p957
S'B-NP'
p958
g4
tp959
a(S'visual'
p960
S'visual'
p961
S'JJ'
p962
S'I-NP'
p963
g4
tp964
a(S'acuity'
p965
S'acuity'
p966
S'NN'
p967
S'I-NP'
p968
g4
tp969
a(S'were'
p970
S'be'
p971
S'VBD'
p972
S'B-VP'
p973
g4
tp974
a(S'reported'
p975
S'report'
p976
S'VBN'
p977
S'I-VP'
p978
g4
tp979
a(S'in'
p980
S'in'
p981
S'IN'
p982
S'B-PP'
p983
g4
tp984
a(S'1'
p985
g985
S'CD'
p986
S'B-NP'
p987
g4
tp988
a(S'SCJ'
p989
S'SCJ'
p990
S'NN'
p991
S'I-NP'
p992
g4
tp993
a(S'patient'
p994
S'patient'
p995
S'NN'
p996
S'I-NP'
p997
g4
tp998
a(S'each'
p999
S'each'
p1000
S'DT'
p1001
S'B-NP'
p1002
g4
tp1003
a(S'and'
p1004
S'and'
p1005
S'CC'
p1006
S'I-NP'
p1007
g4
tp1008
a(S'iritis'
p1009
S'iritis'
p1010
S'NN'
p1011
S'I-NP'
p1012
g4
tp1013
a(S'was'
p1014
S'be'
p1015
S'VBD'
p1016
S'B-VP'
p1017
g4
tp1018
a(S'reported'
p1019
S'report'
p1020
S'VBN'
p1021
S'I-VP'
p1022
g4
tp1023
a(S'in'
p1024
S'in'
p1025
S'IN'
p1026
S'B-PP'
p1027
g4
tp1028
a(g985
g985
S'CD'
p1029
S'B-NP'
p1030
g4
tp1031
a(S'IVT'
p1032
S'IVT'
p1033
S'NN'
p1034
S'I-NP'
p1035
g4
tp1036
a(S'patient.'
p1037
S'patient.'
p1038
S'NN'
p1039
S'I-NP'
p1040
g4
tp1041
a(S'No'
p1042
S'No'
p1043
S'DT'
p1044
S'B-NP'
p1045
g4
tp1046
a(S'serious'
p1047
S'serious'
p1048
S'JJ'
p1049
S'I-NP'
p1050
g4
tp1051
a(S'ocular'
p1052
S'ocular'
p1053
S'JJ'
p1054
S'I-NP'
p1055
g4
tp1056
a(S'adverse'
p1057
S'adverse'
p1058
S'JJ'
p1059
S'I-NP'
p1060
g4
tp1061
a(S'events'
p1062
S'event'
p1063
S'NNS'
p1064
S'I-NP'
p1065
g4
tp1066
a(S'were'
p1067
S'be'
p1068
S'VBD'
p1069
S'B-VP'
p1070
g4
tp1071
a(S'reported.'
p1072
S'reported.'
p1073
S'VBN'
p1074
S'I-VP'
p1075
g4
tp1076
a(S'No'
p1077
S'No'
p1078
S'DT'
p1079
S'B-NP'
p1080
g4
tp1081
a(S'nonocular'
p1082
S'nonocular'
p1083
S'JJ'
p1084
S'I-NP'
p1085
g4
tp1086
a(S'adverse'
p1087
S'adverse'
p1088
S'JJ'
p1089
S'I-NP'
p1090
g4
tp1091
a(S'events'
p1092
S'event'
p1093
S'NNS'
p1094
S'I-NP'
p1095
g4
tp1096
a(S'were'
p1097
S'be'
p1098
S'VBD'
p1099
S'B-VP'
p1100
g4
tp1101
a(S'considered'
p1102
S'consider'
p1103
S'VBN'
p1104
S'I-VP'
p1105
g4
tp1106
a(S'related'
p1107
S'relate'
p1108
S'VBN'
p1109
S'B-ADJP'
p1110
g4
tp1111
a(S'to'
p1112
S'to'
p1113
S'TO'
p1114
S'B-VP'
p1115
g4
tp1116
a(S'study'
p1117
S'study'
p1118
S'VB'
p1119
S'I-VP'
p1120
g4
tp1121
a(S'drug.'
p1122
S'drug.'
p1123
S'FW'
p1124
S'B-NP'
p1125
g4
tp1126
a(S'Systemic'
p1127
S'Systemic'
p1128
S'JJ'
p1129
S'I-NP'
p1130
g4
tp1131
a(S'exposure'
p1132
S'exposure'
p1133
S'NN'
p1134
S'I-NP'
p1135
g4
tp1136
a(S'to'
p1137
S'to'
p1138
S'TO'
p1139
S'B-PP'
p1140
g4
tp1141
a(S'sirolimus'
p1142
S'sirolimus'
p1143
S'NN'
p1144
S'B-NP'
p1145
g4
tp1146
a(S'was'
p1147
S'be'
p1148
S'VBD'
p1149
S'B-VP'
p1150
g4
tp1151
a(S'low'
p1152
S'low'
p1153
S'JJ'
p1154
S'B-ADJP'
p1155
g4
tp1156
a(g11
g11
g11
g4
g4
tp1157
a(S'with'
p1158
S'with'
p1159
S'IN'
p1160
S'B-PP'
p1161
g4
tp1162
a(S'blood'
p1163
S'blood'
p1164
S'NN'
p1165
S'B-NP'
p1166
g4
tp1167
a(S'concentrations'
p1168
S'concentration'
p1169
S'NNS'
p1170
S'I-NP'
p1171
g4
tp1172
a(S'below'
p1173
S'below'
p1174
S'IN'
p1175
S'B-PP'
p1176
g4
tp1177
a(S'levels'
p1178
S'level'
p1179
S'NNS'
p1180
S'B-NP'
p1181
g4
tp1182
a(S'necessary'
p1183
S'necessary'
p1184
S'JJ'
p1185
S'B-ADJP'
p1186
g4
tp1187
a(S'for'
p1188
S'for'
p1189
S'IN'
p1190
S'B-PP'
p1191
g4
tp1192
a(S'systemic'
p1193
S'systemic'
p1194
S'JJ'
p1195
S'B-NP'
p1196
g4
tp1197
a(S'immunosuppression.'
p1198
S'immunosuppression.'
p1199
S'NN'
p1200
S'I-NP'
p1201
g4
tp1202
a(S'For'
p1203
S'For'
p1204
S'IN'
p1205
S'B-PP'
p1206
g4
tp1207
a(S'the'
p1208
S'the'
p1209
S'DT'
p1210
S'B-NP'
p1211
g4
tp1212
a(S'SCJ'
p1213
S'SCJ'
p1214
S'NN'
p1215
S'I-NP'
p1216
g4
tp1217
a(S'group'
p1218
S'group'
p1219
S'NN'
p1220
S'I-NP'
p1221
g4
tp1222
a(g145
g145
g145
g4
g4
tp1223
a(S'n'
p1224
g1224
S'NN'
p1225
S'B-NP'
p1226
g4
tp1227
a(S'='
p1228
g1228
S'SYM'
p1229
S'B-VP'
p1230
g4
tp1231
a(S'25'
p1232
S'25'
p1233
S'CD'
p1234
S'B-NP'
p1235
g4
tp1236
a(g153
g153
g153
g4
g4
tp1237
a(g11
g11
g11
g4
g4
tp1238
a(g131
g131
S'DT'
p1239
S'B-NP'
p1240
g4
tp1241
a(S'median'
p1242
S'median'
p1243
S'JJ'
p1244
S'I-NP'
p1245
g4
tp1246
a(S'increase'
p1247
S'increase'
p1248
S'NN'
p1249
S'I-NP'
p1250
g4
tp1251
a(S'in'
p1252
S'in'
p1253
S'IN'
p1254
S'B-PP'
p1255
g4
tp1256
a(S'BCVA'
p1257
S'BCVA'
p1258
S'NN'
p1259
S'B-NP'
p1260
S'B-protein'
p1261
tp1262
a(S'started'
p1263
S'start'
p1264
S'VBN'
p1265
S'B-VP'
p1266
g4
tp1267
a(S'at'
p1268
S'at'
p1269
S'IN'
p1270
S'B-PP'
p1271
g4
tp1272
a(S'day'
p1273
S'day'
p1274
S'NN'
p1275
S'B-NP'
p1276
g4
tp1277
a(S'7'
p1278
g1278
S'CD'
p1279
S'I-NP'
p1280
g4
tp1281
a(g145
g145
g145
g4
g4
tp1282
a(S'5.0'
p1283
S'5.0'
p1284
S'CD'
p1285
S'B-NP'
p1286
g4
tp1287
a(S'letters'
p1288
S'letter'
p1289
S'NNS'
p1290
S'I-NP'
p1291
g4
tp1292
a(g153
g153
g153
g4
g4
tp1293
a(S'and'
p1294
S'and'
p1295
S'CC'
p1296
g4
g4
tp1297
a(S'was'
p1298
S'be'
p1299
S'VBD'
p1300
S'B-VP'
p1301
g4
tp1302
a(S'3.0'
p1303
S'3.0'
p1304
S'CD'
p1305
S'B-NP'
p1306
g4
tp1307
a(g11
g11
g11
S'I-NP'
p1308
g4
tp1309
a(S'4.0'
p1310
S'4.0'
p1311
S'CD'
p1312
S'I-NP'
p1313
g4
tp1314
a(g11
g11
g11
g4
g4
tp1315
a(S'and'
p1316
S'and'
p1317
S'CC'
p1318
g4
g4
tp1319
a(S'4.0'
p1320
S'4.0'
p1321
S'CD'
p1322
S'B-NP'
p1323
g4
tp1324
a(S'letters'
p1325
S'letter'
p1326
S'NNS'
p1327
S'I-NP'
p1328
g4
tp1329
a(S'at'
p1330
S'at'
p1331
S'IN'
p1332
S'B-PP'
p1333
g4
tp1334
a(S'days'
p1335
S'day'
p1336
S'NNS'
p1337
S'B-NP'
p1338
g4
tp1339
a(S'14'
p1340
S'14'
p1341
S'CD'
p1342
S'I-NP'
p1343
g4
tp1344
a(g11
g11
g11
S'I-NP'
p1345
g4
tp1346
a(S'45'
p1347
S'45'
p1348
S'CD'
p1349
S'I-NP'
p1350
g4
tp1351
a(S'and'
p1352
S'and'
p1353
S'CC'
p1354
S'I-NP'
p1355
g4
tp1356
a(S'90'
p1357
S'90'
p1358
S'CD'
p1359
S'I-NP'
p1360
g4
tp1361
a(g11
g11
g11
g4
g4
tp1362
a(S'respectively.'
p1363
S'respectively.'
p1364
S'NN'
p1365
S'B-NP'
p1366
g4
tp1367
a(S'At'
p1368
S'At'
p1369
S'IN'
p1370
S'B-PP'
p1371
g4
tp1372
a(S'day'
p1373
S'day'
p1374
S'NN'
p1375
S'B-NP'
p1376
g4
tp1377
a(S'45'
p1378
S'45'
p1379
S'CD'
p1380
S'I-NP'
p1381
g4
tp1382
a(g11
g11
g11
g4
g4
tp1383
a(S'median'
p1384
S'median'
p1385
S'JJ'
p1386
S'B-NP'
p1387
g4
tp1388
a(S'decrease'
p1389
S'decrease'
p1390
S'NN'
p1391
S'I-NP'
p1392
g4
tp1393
a(S'in'
p1394
S'in'
p1395
S'IN'
p1396
S'B-PP'
p1397
g4
tp1398
a(S'retinal'
p1399
S'retinal'
p1400
S'JJ'
p1401
S'B-NP'
p1402
g4
tp1403
a(S'thickness'
p1404
S'thickness'
p1405
S'NN'
p1406
S'I-NP'
p1407
g4
tp1408
a(S'was'
p1409
S'be'
p1410
S'VBD'
p1411
S'B-VP'
p1412
g4
tp1413
a(S'-23.7'
p1414
S'-23.7'
p1415
S'CD'
p1416
S'B-NP'
p1417
g4
tp1418
a(S'\xce\xbcm.'
p1419
S'\xce\xbcm.'
p1420
S'NN'
p1421
S'I-NP'
p1422
g4
tp1423
a(S'For'
p1424
S'For'
p1425
S'IN'
p1426
S'B-PP'
p1427
g4
tp1428
a(S'the'
p1429
S'the'
p1430
S'DT'
p1431
S'B-NP'
p1432
g4
tp1433
a(S'IVT'
p1434
S'IVT'
p1435
S'NN'
p1436
S'I-NP'
p1437
g4
tp1438
a(S'group'
p1439
S'group'
p1440
S'NN'
p1441
S'I-NP'
p1442
g4
tp1443
a(g145
g145
g145
g4
g4
tp1444
a(g1224
g1224
S'NN'
p1445
S'B-NP'
p1446
g4
tp1447
a(g1228
g1228
S'SYM'
p1448
S'B-VP'
p1449
g4
tp1450
a(S'25'
p1451
S'25'
p1452
S'CD'
p1453
S'B-NP'
p1454
g4
tp1455
a(g153
g153
g153
g4
g4
tp1456
a(g11
g11
g11
g4
g4
tp1457
a(S'the'
p1458
S'the'
p1459
S'DT'
p1460
S'B-NP'
p1461
g4
tp1462
a(S'median'
p1463
S'median'
p1464
S'JJ'
p1465
S'I-NP'
p1466
g4
tp1467
a(S'increase'
p1468
S'increase'
p1469
S'NN'
p1470
S'I-NP'
p1471
g4
tp1472
a(S'in'
p1473
S'in'
p1474
S'IN'
p1475
S'B-PP'
p1476
g4
tp1477
a(S'BCVA'
p1478
S'BCVA'
p1479
S'NN'
p1480
S'B-NP'
p1481
S'B-protein'
p1482
tp1483
a(S'was'
p1484
S'be'
p1485
S'VBD'
p1486
S'B-VP'
p1487
g4
tp1488
a(S'2.0'
p1489
S'2.0'
p1490
S'CD'
p1491
S'B-NP'
p1492
g4
tp1493
a(S'letters'
p1494
S'letter'
p1495
S'NNS'
p1496
S'I-NP'
p1497
g4
tp1498
a(S'at'
p1499
S'at'
p1500
S'IN'
p1501
S'B-PP'
p1502
g4
tp1503
a(S'day'
p1504
S'day'
p1505
S'NN'
p1506
S'B-NP'
p1507
g4
tp1508
a(g1278
g1278
S'CD'
p1509
S'I-NP'
p1510
g4
tp1511
a(g536
g536
g537
g4
g4
tp1512
a(S'at'
p1513
S'at'
p1514
S'IN'
p1515
S'B-PP'
p1516
g4
tp1517
a(S'days'
p1518
S'day'
p1519
S'NNS'
p1520
S'B-NP'
p1521
g4
tp1522
a(S'14'
p1523
S'14'
p1524
S'CD'
p1525
S'B-NP'
p1526
g4
tp1527
a(g11
g11
g11
S'I-NP'
p1528
g4
tp1529
a(S'45'
p1530
S'45'
p1531
S'CD'
p1532
S'I-NP'
p1533
g4
tp1534
a(g11
g11
g11
g4
g4
tp1535
a(S'and'
p1536
S'and'
p1537
S'CC'
p1538
g4
g4
tp1539
a(S'90'
p1540
S'90'
p1541
S'CD'
p1542
S'B-NP'
p1543
g4
tp1544
a(g11
g11
g11
g4
g4
tp1545
a(S'the'
p1546
S'the'
p1547
S'DT'
p1548
S'B-NP'
p1549
g4
tp1550
a(S'median'
p1551
S'median'
p1552
S'JJ'
p1553
S'I-NP'
p1554
g4
tp1555
a(S'increase'
p1556
S'increase'
p1557
S'NN'
p1558
S'I-NP'
p1559
g4
tp1560
a(S'was'
p1561
S'be'
p1562
S'VBD'
p1563
S'B-VP'
p1564
g4
tp1565
a(S'maintained'
p1566
S'maintain'
p1567
S'VBN'
p1568
S'I-VP'
p1569
g4
tp1570
a(g145
g145
g145
g4
g4
tp1571
a(S'4.0'
p1572
S'4.0'
p1573
S'CD'
p1574
S'B-NP'
p1575
g4
tp1576
a(S'letters'
p1577
S'letter'
p1578
S'NNS'
p1579
S'I-NP'
p1580
g4
tp1581
a(g153
g153
g153
g4
g4
tp1582
a(g536
g536
g537
g4
g4
tp1583
a(S'the'
p1584
S'the'
p1585
S'DT'
p1586
S'B-NP'
p1587
g4
tp1588
a(S'median'
p1589
S'median'
p1590
S'JJ'
p1591
S'I-NP'
p1592
g4
tp1593
a(S'decrease'
p1594
S'decrease'
p1595
S'NN'
p1596
S'I-NP'
p1597
g4
tp1598
a(S'in'
p1599
S'in'
p1600
S'IN'
p1601
S'B-PP'
p1602
g4
tp1603
a(S'retinal'
p1604
S'retinal'
p1605
S'JJ'
p1606
S'B-NP'
p1607
g4
tp1608
a(S'thickness'
p1609
S'thickness'
p1610
S'NN'
p1611
S'I-NP'
p1612
g4
tp1613
a(S'was'
p1614
S'be'
p1615
S'VBD'
p1616
S'B-VP'
p1617
g4
tp1618
a(S'-52.0'
p1619
S'-52.0'
p1620
S'CD'
p1621
S'B-NP'
p1622
g4
tp1623
a(S'\xce\xbcm'
p1624
S'\xce\xbcm'
p1625
S'NN'
p1626
S'I-NP'
p1627
g4
tp1628
a(S'at'
p1629
S'at'
p1630
S'IN'
p1631
S'B-PP'
p1632
g4
tp1633
a(S'day'
p1634
S'day'
p1635
S'NN'
p1636
S'B-NP'
p1637
g4
tp1638
a(S'45'
p1639
S'45'
p1640
S'CD'
p1641
S'I-NP'
p1642
g4
tp1643
a(g89
g89
g89
g4
g4
tp1644
a(S'CONCLUSIONS'
p1645
S'CONCLUSIONS'
p1646
S'NNS'
p1647
S'B-NP'
p1648
g4
tp1649
a(S'Locally'
p1650
S'Locally'
p1651
S'RB'
p1652
S'B-VP'
p1653
g4
tp1654
a(S'administered'
p1655
S'administer'
p1656
S'VBN'
p1657
S'I-VP'
p1658
g4
tp1659
a(S'sirolimus'
p1660
S'sirolimus'
p1661
S'NN'
p1662
S'B-NP'
p1663
g4
tp1664
a(S'was'
p1665
S'be'
p1666
S'VBD'
p1667
S'B-VP'
p1668
g4
tp1669
a(S'well-tolerated'
p1670
S'well-tolerated'
p1671
S'JJ'
p1672
S'B-ADJP'
p1673
g4
tp1674
a(S'with'
p1675
S'with'
p1676
S'IN'
p1677
S'B-PP'
p1678
g4
tp1679
a(S'minimal'
p1680
S'minimal'
p1681
S'JJ'
p1682
S'B-NP'
p1683
g4
tp1684
a(S'systemic'
p1685
S'systemic'
p1686
S'JJ'
p1687
S'I-NP'
p1688
g4
tp1689
a(S'exposure'
p1690
S'exposure'
p1691
S'NN'
p1692
S'I-NP'
p1693
g4
tp1694
a(S'at'
p1695
S'at'
p1696
S'IN'
p1697
S'B-PP'
p1698
g4
tp1699
a(S'all'
p1700
S'all'
p1701
S'DT'
p1702
S'B-NP'
p1703
g4
tp1704
a(S'doses'
p1705
S'dose'
p1706
S'NNS'
p1707
S'I-NP'
p1708
g4
tp1709
a(S'tested'
p1710
S'test'
p1711
S'VBN'
p1712
S'B-VP'
p1713
g4
tp1714
a(S'in'
p1715
S'in'
p1716
S'IN'
p1717
S'B-PP'
p1718
g4
tp1719
a(S'this'
p1720
S'this'
p1721
S'DT'
p1722
S'B-NP'
p1723
g4
tp1724
a(S'small'
p1725
S'small'
p1726
S'JJ'
p1727
S'I-NP'
p1728
g4
tp1729
a(S'phase'
p1730
S'phase'
p1731
S'NN'
p1732
S'I-NP'
p1733
g4
tp1734
a(g266
g266
S'PRP'
p1735
S'B-NP'
p1736
g4
tp1737
a(S'population.'
p1738
S'population.'
p1739
S'VBP'
p1740
S'B-VP'
p1741
g4
tp1742
a(S'These'
p1743
S'These'
p1744
S'DT'
p1745
S'B-NP'
p1746
g4
tp1747
a(S'findings'
p1748
S'finding'
p1749
S'NNS'
p1750
S'I-NP'
p1751
g4
tp1752
a(S'support'
p1753
S'support'
p1754
S'VBP'
p1755
S'B-VP'
p1756
g4
tp1757
a(S'advancing'
p1758
S'advance'
p1759
S'VBG'
p1760
S'I-VP'
p1761
g4
tp1762
a(S'the'
p1763
S'the'
p1764
S'DT'
p1765
S'B-NP'
p1766
g4
tp1767
a(S'present'
p1768
S'present'
p1769
S'JJ'
p1770
S'I-NP'
p1771
g4
tp1772
a(S'sirolimus'
p1773
S'sirolimus'
p1774
S'NN'
p1775
S'I-NP'
p1776
g4
tp1777
a(S'formulation'
p1778
S'formulation'
p1779
S'NN'
p1780
S'I-NP'
p1781
g4
tp1782
a(S'into'
p1783
S'into'
p1784
S'IN'
p1785
S'B-PP'
p1786
g4
tp1787
a(S'phase'
p1788
S'phase'
p1789
S'NN'
p1790
S'B-NP'
p1791
g4
tp1792
a(S'II'
p1793
S'II'
p1794
S'CD'
p1795
S'B-NP'
p1796
g4
tp1797
a(S'studies'
p1798
S'study'
p1799
S'NNS'
p1800
S'I-NP'
p1801
g4
tp1802
a(g89
g89
g89
g4
g4
tp1803
a(S'FINANCIAL'
p1804
S'FINANCIAL'
p1805
S'NN'
p1806
S'B-NP'
p1807
g4
tp1808
a(S'DISCLOSURE'
p1809
S'DISCLOSURE'
p1810
S'NN'
p1811
S'I-NP'
p1812
g4
tp1813
a(g145
g145
g145
g4
g4
tp1814
a(S'S'
p1815
g1815
S'NN'
p1816
S'B-NP'
p1817
g4
tp1818
a(g153
g153
g153
g4
g4
tp1819
a(S'Proprietary'
p1820
S'Proprietary'
p1821
S'JJ'
p1822
S'B-NP'
p1823
g4
tp1824
a(S'or'
p1825
S'or'
p1826
S'CC'
p1827
S'I-NP'
p1828
g4
tp1829
a(S'commercial'
p1830
S'commercial'
p1831
S'JJ'
p1832
S'I-NP'
p1833
g4
tp1834
a(S'disclosure'
p1835
S'disclosure'
p1836
S'NN'
p1837
S'I-NP'
p1838
g4
tp1839
a(S'may'
p1840
S'may'
p1841
S'MD'
p1842
S'B-VP'
p1843
g4
tp1844
a(S'be'
p1845
S'be'
p1846
S'VB'
p1847
S'I-VP'
p1848
g4
tp1849
a(S'found'
p1850
S'find'
p1851
S'VBN'
p1852
S'I-VP'
p1853
g4
tp1854
a(S'after'
p1855
S'after'
p1856
S'IN'
p1857
S'B-PP'
p1858
g4
tp1859
a(S'the'
p1860
S'the'
p1861
S'DT'
p1862
S'B-NP'
p1863
g4
tp1864
a(S'references'
p1865
S'reference'
p1866
S'NNS'
p1867
S'I-NP'
p1868
g4
tp1869
a(g89
g89
g89
g4
g4
tp1870
a.