(lp0
(S'Clinical'
p1
S'Clinical'
p2
S'JJ'
p3
S'B-NP'
p4
S'O'
p5
tp6
a(S'application'
p7
S'application'
p8
S'NN'
p9
S'I-NP'
p10
g5
tp11
a(S'of'
p12
S'of'
p13
S'IN'
p14
S'B-PP'
p15
g5
tp16
a(S'C-reactive'
p17
S'C-reactive'
p18
S'JJ'
p19
S'B-NP'
p20
S'B-protein'
p21
tp22
a(S'protein'
p23
S'protein'
p24
S'NN'
p25
S'I-NP'
p26
S'I-protein'
p27
tp28
a(S'across'
p29
S'across'
p30
S'IN'
p31
S'B-PP'
p32
g5
tp33
a(S'the'
p34
S'the'
p35
S'DT'
p36
S'B-NP'
p37
g5
tp38
a(S'spectrum'
p39
S'spectrum'
p40
S'NN'
p41
S'I-NP'
p42
g5
tp43
a(S'of'
p44
S'of'
p45
S'IN'
p46
S'B-PP'
p47
g5
tp48
a(S'acute'
p49
S'acute'
p50
S'JJ'
p51
S'B-NP'
p52
g5
tp53
a(S'coronary'
p54
S'coronary'
p55
S'JJ'
p56
S'I-NP'
p57
g5
tp58
a(S'syndromes'
p59
S'syndrome'
p60
S'NNS'
p61
S'I-NP'
p62
g5
tp63
a(S'.'
p64
g64
g64
g5
g5
tp65
a(S'BACKGROUND'
p66
S'BACKGROUND'
p67
S'NN'
p68
S'B-NP'
p69
S'B-protein'
p70
tp71
a(S'High-sensitivity'
p72
S'High-sensitivity'
p73
S'JJ'
p74
S'I-NP'
p75
S'I-protein'
p76
tp77
a(S'C-reactive'
p78
S'C-reactive'
p79
S'JJ'
p80
S'I-NP'
p81
S'I-protein'
p82
tp83
a(S'protein'
p84
S'protein'
p85
S'NN'
p86
S'I-NP'
p87
S'I-protein'
p88
tp89
a(S'('
p90
g90
g90
g5
g5
tp91
a(S'hsCRP'
p92
S'hsCRP'
p93
S'NN'
p94
S'B-NP'
p95
S'B-protein'
p96
tp97
a(S')'
p98
g98
g98
g5
g5
tp99
a(S'is'
p100
S'be'
p101
S'VBZ'
p102
S'B-VP'
p103
g5
tp104
a(S'associated'
p105
S'associate'
p106
S'VBN'
p107
S'I-VP'
p108
g5
tp109
a(S'with'
p110
S'with'
p111
S'IN'
p112
S'B-PP'
p113
g5
tp114
a(S'adverse'
p115
S'adverse'
p116
S'JJ'
p117
S'B-NP'
p118
g5
tp119
a(S'cardiovascular'
p120
S'cardiovascular'
p121
S'JJ'
p122
S'I-NP'
p123
g5
tp124
a(S'outcomes'
p125
S'outcome'
p126
S'NNS'
p127
S'I-NP'
p128
g5
tp129
a(S'in'
p130
S'in'
p131
S'IN'
p132
S'B-PP'
p133
g5
tp134
a(S'acute'
p135
S'acute'
p136
S'JJ'
p137
S'B-NP'
p138
g5
tp139
a(S'coronary'
p140
S'coronary'
p141
S'JJ'
p142
S'I-NP'
p143
g5
tp144
a(S'syndromes'
p145
S'syndrome'
p146
S'NNS'
p147
S'I-NP'
p148
g5
tp149
a(g90
g90
g90
g5
g5
tp150
a(S'ACS'
p151
S'ACS'
p152
S'NN'
p153
S'B-NP'
p154
g5
tp155
a(g98
g98
g98
g5
g5
tp156
a(g64
g64
g64
g5
g5
tp157
a(S'The'
p158
S'The'
p159
S'DT'
p160
S'B-NP'
p161
g5
tp162
a(S'ability'
p163
S'ability'
p164
S'NN'
p165
S'I-NP'
p166
g5
tp167
a(S'to'
p168
S'to'
p169
S'TO'
p170
S'B-VP'
p171
g5
tp172
a(S'formulate'
p173
S'formulate'
p174
S'VB'
p175
S'I-VP'
p176
g5
tp177
a(S'recommendations'
p178
S'recommendation'
p179
S'NNS'
p180
S'B-NP'
p181
g5
tp182
a(S'regarding'
p183
S'regard'
p184
S'VBG'
p185
S'B-VP'
p186
g5
tp187
a(S'clinical'
p188
S'clinical'
p189
S'JJ'
p190
S'B-NP'
p191
g5
tp192
a(S'use'
p193
S'use'
p194
S'NN'
p195
S'I-NP'
p196
g5
tp197
a(S'of'
p198
S'of'
p199
S'IN'
p200
S'B-PP'
p201
g5
tp202
a(S'hsCRP'
p203
S'hsCRP'
p204
S'NN'
p205
S'B-NP'
p206
S'B-protein'
p207
tp208
a(S'is'
p209
S'be'
p210
S'VBZ'
p211
S'B-VP'
p212
g5
tp213
a(S'limited'
p214
S'limit'
p215
S'VBN'
p216
S'I-VP'
p217
g5
tp218
a(S'by'
p219
S'by'
p220
S'IN'
p221
S'B-PP'
p222
g5
tp223
a(S'a'
p224
g224
S'DT'
p225
S'B-NP'
p226
g5
tp227
a(S'paucity'
p228
S'paucity'
p229
S'NN'
p230
S'I-NP'
p231
g5
tp232
a(S'of'
p233
S'of'
p234
S'IN'
p235
S'B-PP'
p236
g5
tp237
a(S'data'
p238
S'datum'
p239
S'NNS'
p240
S'B-NP'
p241
g5
tp242
a(S'regarding'
p243
S'regard'
p244
S'VBG'
p245
S'B-VP'
p246
g5
tp247
a(S'several'
p248
S'several'
p249
S'JJ'
p250
S'B-NP'
p251
g5
tp252
a(S'key'
p253
S'key'
p254
S'JJ'
p255
S'I-NP'
p256
g5
tp257
a(S'issues.'
p258
S'issues.'
p259
S'NNS'
p260
S'I-NP'
p261
g5
tp262
a(S'The'
p263
S'The'
p264
S'DT'
p265
S'B-NP'
p266
g5
tp267
a(S'purpose'
p268
S'purpose'
p269
S'NN'
p270
S'I-NP'
p271
g5
tp272
a(S'of'
p273
S'of'
p274
S'IN'
p275
S'B-PP'
p276
g5
tp277
a(S'this'
p278
S'this'
p279
S'DT'
p280
S'B-NP'
p281
g5
tp282
a(S'study'
p283
S'study'
p284
S'NN'
p285
S'I-NP'
p286
g5
tp287
a(S'was'
p288
S'be'
p289
S'VBD'
p290
S'B-VP'
p291
g5
tp292
a(S'to'
p293
S'to'
p294
S'TO'
p295
S'B-VP'
p296
g5
tp297
a(S'evaluate'
p298
S'evaluate'
p299
S'VB'
p300
S'I-VP'
p301
g5
tp302
a(S'hsCRP'
p303
S'hsCRP'
p304
S'NN'
p305
S'B-NP'
p306
S'B-protein'
p307
tp308
a(S'across'
p309
S'across'
p310
S'IN'
p311
S'B-PP'
p312
g5
tp313
a(S'the'
p314
S'the'
p315
S'DT'
p316
S'B-NP'
p317
g5
tp318
a(S'spectrum'
p319
S'spectrum'
p320
S'NN'
p321
S'I-NP'
p322
g5
tp323
a(S'of'
p324
S'of'
p325
S'IN'
p326
S'B-PP'
p327
g5
tp328
a(S'ACS'
p329
S'ACS'
p330
S'NN'
p331
S'B-NP'
p332
S'B-protein'
p333
tp334
a(g64
g64
g64
g5
g5
tp335
a(S'METHODS'
p336
S'METHODS'
p337
S'NNS'
p338
S'B-NP'
p339
g5
tp340
a(S'hsCRP'
p341
S'hsCRP'
p342
S'NN'
p343
S'I-NP'
p344
g5
tp345
a(S'was'
p346
S'be'
p347
S'VBD'
p348
S'B-VP'
p349
g5
tp350
a(S'measured'
p351
S'measure'
p352
S'VBN'
p353
S'I-VP'
p354
g5
tp355
a(S'on'
p356
S'on'
p357
S'IN'
p358
S'B-PP'
p359
g5
tp360
a(S'admission'
p361
S'admission'
p362
S'NN'
p363
S'B-NP'
p364
g5
tp365
a(S'in'
p366
S'in'
p367
S'IN'
p368
S'B-PP'
p369
g5
tp370
a(S'3225'
p371
S'3225'
p372
S'CD'
p373
S'B-NP'
p374
g5
tp375
a(S'patients'
p376
S'patient'
p377
S'NNS'
p378
S'I-NP'
p379
g5
tp380
a(S'with'
p381
S'with'
p382
S'IN'
p383
S'B-PP'
p384
g5
tp385
a(S'ACS.'
p386
S'ACS.'
p387
S'NN'
p388
S'B-NP'
p389
g5
tp390
a(S'hsCRP'
p391
S'hsCRP'
p392
S'NN'
p393
S'I-NP'
p394
g5
tp395
a(S'concentrations'
p396
S'concentration'
p397
S'NNS'
p398
S'I-NP'
p399
g5
tp400
a(S'were'
p401
S'be'
p402
S'VBD'
p403
S'B-VP'
p404
g5
tp405
a(S'compared'
p406
S'compare'
p407
S'VBN'
p408
S'I-VP'
p409
g5
tp410
a(S'in'
p411
S'in'
p412
S'IN'
p413
S'B-PP'
p414
g5
tp415
a(S'patients'
p416
S'patient'
p417
S'NNS'
p418
S'B-NP'
p419
g5
tp420
a(S'who'
p421
S'who'
p422
S'WP'
p423
S'B-NP'
p424
g5
tp425
a(S'suffered'
p426
S'suffer'
p427
S'VBD'
p428
S'B-VP'
p429
g5
tp430
a(S'an'
p431
S'an'
p432
S'DT'
p433
S'B-NP'
p434
g5
tp435
a(S'adverse'
p436
S'adverse'
p437
S'JJ'
p438
S'I-NP'
p439
g5
tp440
a(S'cardiac'
p441
S'cardiac'
p442
S'JJ'
p443
S'I-NP'
p444
g5
tp445
a(S'outcome'
p446
S'outcome'
p447
S'NN'
p448
S'I-NP'
p449
g5
tp450
a(S'within'
p451
S'within'
p452
S'IN'
p453
S'B-PP'
p454
g5
tp455
a(S'10'
p456
S'10'
p457
S'CD'
p458
S'B-NP'
p459
g5
tp460
a(S'months'
p461
S'month'
p462
S'NNS'
p463
S'I-NP'
p464
g5
tp465
a(S'of'
p466
S'of'
p467
S'IN'
p468
S'B-PP'
p469
g5
tp470
a(S'study'
p471
S'study'
p472
S'NN'
p473
S'B-NP'
p474
g5
tp475
a(S'entry'
p476
S'entry'
p477
S'NN'
p478
S'I-NP'
p479
g5
tp480
a(S'and'
p481
S'and'
p482
S'CC'
p483
S'B-PP'
p484
g5
tp485
a(S'in'
p486
S'in'
p487
S'IN'
p488
S'B-PP'
p489
g5
tp490
a(S'patients'
p491
S'patient'
p492
S'NNS'
p493
S'B-NP'
p494
g5
tp495
a(S'who'
p496
S'who'
p497
S'WP'
p498
S'B-NP'
p499
g5
tp500
a(S'had'
p501
S'have'
p502
S'VBD'
p503
S'B-VP'
p504
g5
tp505
a(S'no'
p506
S'no'
p507
S'DT'
p508
S'B-NP'
p509
g5
tp510
a(S'adverse'
p511
S'adverse'
p512
S'JJ'
p513
S'I-NP'
p514
g5
tp515
a(S'event.'
p516
S'event.'
p517
S'NN'
p518
S'I-NP'
p519
g5
tp520
a(S'Because'
p521
S'Because'
p522
S'IN'
p523
S'B-PP'
p524
g5
tp525
a(S'of'
p526
S'of'
p527
S'IN'
p528
S'I-PP'
p529
g5
tp530
a(S'heterogeneity'
p531
S'heterogeneity'
p532
S'NN'
p533
S'B-NP'
p534
g5
tp535
a(S'in'
p536
S'in'
p537
S'IN'
p538
S'B-PP'
p539
g5
tp540
a(S'the'
p541
S'the'
p542
S'DT'
p543
S'B-NP'
p544
g5
tp545
a(S'relationship'
p546
S'relationship'
p547
S'NN'
p548
S'I-NP'
p549
g5
tp550
a(S'between'
p551
S'between'
p552
S'IN'
p553
S'B-PP'
p554
g5
tp555
a(S'hsCRP'
p556
S'hsCRP'
p557
S'NN'
p558
S'B-NP'
p559
S'B-protein'
p560
tp561
a(S'and'
p562
S'and'
p563
S'CC'
p564
g5
g5
tp565
a(S'clinical'
p566
S'clinical'
p567
S'JJ'
p568
S'B-NP'
p569
g5
tp570
a(S'outcomes'
p571
S'outcome'
p572
S'NNS'
p573
S'I-NP'
p574
g5
tp575
a(S','
p576
g576
g576
g5
g5
tp577
a(S'evaluation'
p578
S'evaluation'
p579
S'NN'
p580
S'B-NP'
p581
g5
tp582
a(S'was'
p583
S'be'
p584
S'VBD'
p585
S'B-VP'
p586
g5
tp587
a(S'limited'
p588
S'limit'
p589
S'VBN'
p590
S'I-VP'
p591
g5
tp592
a(S'to'
p593
S'to'
p594
S'TO'
p595
S'B-PP'
p596
g5
tp597
a(S'patients'
p598
S'patient'
p599
S'NNS'
p600
S'B-NP'
p601
g5
tp602
a(S'from'
p603
S'from'
p604
S'IN'
p605
S'B-PP'
p606
g5
tp607
a(S'whom'
p608
S'whom'
p609
S'WP'
p610
S'B-NP'
p611
g5
tp612
a(S'samples'
p613
S'sample'
p614
S'NNS'
p615
S'B-NP'
p616
g5
tp617
a(S'were'
p618
S'be'
p619
S'VBD'
p620
S'B-VP'
p621
g5
tp622
a(S'collected'
p623
S'collect'
p624
S'VBN'
p625
S'I-VP'
p626
g5
tp627
a(S'within'
p628
S'within'
p629
S'IN'
p630
S'B-PP'
p631
g5
tp632
a(S'48'
p633
S'48'
p634
S'CD'
p635
S'B-NP'
p636
g5
tp637
a(S'h'
p638
g638
S'NN'
p639
S'I-NP'
p640
g5
tp641
a(S'of'
p642
S'of'
p643
S'IN'
p644
S'B-PP'
p645
g5
tp646
a(S'symptom'
p647
S'symptom'
p648
S'NN'
p649
S'B-NP'
p650
g5
tp651
a(S'onset'
p652
S'onset'
p653
S'NN'
p654
S'I-NP'
p655
g5
tp656
a(g64
g64
g64
g5
g5
tp657
a(S'RESULTS'
p658
S'RESULTS'
p659
S'NNS'
p660
S'B-NP'
p661
g5
tp662
a(S'Patients'
p663
S'Patient'
p664
S'NNS'
p665
S'I-NP'
p666
g5
tp667
a(S'in'
p668
S'in'
p669
S'IN'
p670
S'B-PP'
p671
g5
tp672
a(S'the'
p673
S'the'
p674
S'DT'
p675
S'B-NP'
p676
g5
tp677
a(S'highest'
p678
S'high'
p679
S'JJS'
p680
S'I-NP'
p681
g5
tp682
a(S'quartile'
p683
S'quartile'
p684
S'NN'
p685
S'I-NP'
p686
g5
tp687
a(S'of'
p688
S'of'
p689
S'IN'
p690
S'B-PP'
p691
g5
tp692
a(S'hsCRP'
p693
S'hsCRP'
p694
S'NN'
p695
S'B-NP'
p696
S'B-protein'
p697
tp698
a(S'compared'
p699
S'compare'
p700
S'VBN'
p701
S'B-VP'
p702
g5
tp703
a(S'to'
p704
S'to'
p705
S'TO'
p706
S'B-PP'
p707
g5
tp708
a(S'those'
p709
S'those'
p710
S'DT'
p711
S'B-NP'
p712
g5
tp713
a(S'in'
p714
S'in'
p715
S'IN'
p716
S'B-PP'
p717
g5
tp718
a(S'the'
p719
S'the'
p720
S'DT'
p721
S'B-NP'
p722
g5
tp723
a(S'lowest'
p724
S'low'
p725
S'JJS'
p726
S'I-NP'
p727
g5
tp728
a(S'quartile'
p729
S'quartile'
p730
S'NN'
p731
S'I-NP'
p732
g5
tp733
a(S'were'
p734
S'be'
p735
S'VBD'
p736
S'B-VP'
p737
g5
tp738
a(S'at'
p739
S'at'
p740
S'IN'
p741
S'B-PP'
p742
g5
tp743
a(S'increased'
p744
S'increase'
p745
S'VBN'
p746
S'B-NP'
p747
g5
tp748
a(S'risk'
p749
S'risk'
p750
S'NN'
p751
S'I-NP'
p752
g5
tp753
a(S'of'
p754
S'of'
p755
S'IN'
p756
S'B-PP'
p757
g5
tp758
a(S'death'
p759
S'death'
p760
S'NN'
p761
S'B-NP'
p762
g5
tp763
a(S'at'
p764
S'at'
p765
S'IN'
p766
S'B-PP'
p767
g5
tp768
a(S'30'
p769
S'30'
p770
S'CD'
p771
S'B-NP'
p772
g5
tp773
a(S'days'
p774
S'day'
p775
S'NNS'
p776
S'I-NP'
p777
g5
tp778
a(S'['
p779
g779
g90
g5
g5
tp780
a(S'adjusted'
p781
S'adjust'
p782
S'VBN'
p783
S'B-NP'
p784
g5
tp785
a(S'hazard'
p786
S'hazard'
p787
S'NN'
p788
S'I-NP'
p789
g5
tp790
a(S'ratio'
p791
S'ratio'
p792
S'NN'
p793
S'I-NP'
p794
g5
tp795
a(g90
g90
g90
g5
g5
tp796
a(S'adjHR'
p797
S'adjHR'
p798
S'NN'
p799
S'B-NP'
p800
g5
tp801
a(g98
g98
g98
g5
g5
tp802
a(S'4.6'
p803
S'4.6'
p804
S'CD'
p805
S'B-NP'
p806
g5
tp807
a(g576
g576
g576
g5
g5
tp808
a(S'P'
p809
g809
S'NN'
p810
S'B-NP'
p811
g5
tp812
a(S'<'
p813
g813
S'SYM'
p814
S'B-NP'
p815
g5
tp816
a(S'0.001'
p817
S'0.001'
p818
S'CD'
p819
S'I-NP'
p820
g5
tp821
a(S']'
p822
g822
g98
g5
g5
tp823
a(S'and'
p824
S'and'
p825
S'CC'
p826
g5
g5
tp827
a(S'10'
p828
S'10'
p829
S'CD'
p830
S'B-NP'
p831
g5
tp832
a(S'months'
p833
S'month'
p834
S'NNS'
p835
S'I-NP'
p836
g5
tp837
a(g90
g90
g90
g5
g5
tp838
a(S'adjHR'
p839
S'adjHR'
p840
S'NN'
p841
S'B-NP'
p842
g5
tp843
a(S'3.9'
p844
S'3.9'
p845
S'CD'
p846
S'I-NP'
p847
g5
tp848
a(g576
g576
g576
g5
g5
tp849
a(g809
g809
S'NN'
p850
S'B-NP'
p851
g5
tp852
a(g813
g813
S'SYM'
p853
S'B-NP'
p854
g5
tp855
a(S'0.001'
p856
S'0.001'
p857
S'CD'
p858
S'I-NP'
p859
g5
tp860
a(g98
g98
g98
g5
g5
tp861
a(g64
g64
g64
g5
g5
tp862
a(S'In'
p863
S'In'
p864
S'IN'
p865
S'B-PP'
p866
g5
tp867
a(S'patients'
p868
S'patient'
p869
S'NNS'
p870
S'B-NP'
p871
g5
tp872
a(S'with'
p873
S'with'
p874
S'IN'
p875
S'B-PP'
p876
g5
tp877
a(S'unstable'
p878
S'unstable'
p879
S'JJ'
p880
S'B-NP'
p881
g5
tp882
a(S'angina/non-ST-elevation'
p883
S'angina/non-ST-elevation'
p884
S'NN'
p885
S'I-NP'
p886
g5
tp887
a(S'myocardial'
p888
S'myocardial'
p889
S'JJ'
p890
S'I-NP'
p891
g5
tp892
a(S'infarction'
p893
S'infarction'
p894
S'NN'
p895
S'I-NP'
p896
g5
tp897
a(g90
g90
g90
g5
g5
tp898
a(S'STEMI'
p899
S'STEMI'
p900
S'NN'
p901
S'B-NP'
p902
S'B-protein'
p903
tp904
a(g98
g98
g98
g5
g5
tp905
a(g576
g576
g576
g5
g5
tp906
a(S'hsCRP'
p907
S'hsCRP'
p908
S'NN'
p909
S'B-NP'
p910
S'B-protein'
p911
tp912
a(S'>'
p913
g913
S'SYM'
p914
g5
g5
tp915
a(S'3'
p916
g916
S'CD'
p917
S'B-NP'
p918
g5
tp919
a(S'mg/L'
p920
S'mg/L'
p921
S'NN'
p922
S'I-NP'
p923
g5
tp924
a(S'was'
p925
S'be'
p926
S'VBD'
p927
S'B-VP'
p928
g5
tp929
a(S'associated'
p930
S'associate'
p931
S'VBN'
p932
S'I-VP'
p933
g5
tp934
a(S'with'
p935
S'with'
p936
S'IN'
p937
S'B-PP'
p938
g5
tp939
a(S'increased'
p940
S'increase'
p941
S'VBN'
p942
S'B-NP'
p943
g5
tp944
a(S'10-month'
p945
S'10-month'
p946
S'JJ'
p947
S'I-NP'
p948
g5
tp949
a(S'mortality'
p950
S'mortality'
p951
S'NN'
p952
S'I-NP'
p953
g5
tp954
a(g90
g90
g90
g5
g5
tp955
a(S'adjHR'
p956
S'adjHR'
p957
S'NN'
p958
S'B-NP'
p959
g5
tp960
a(S'2.3'
p961
S'2.3'
p962
S'CD'
p963
S'I-NP'
p964
g5
tp965
a(g576
g576
g576
g5
g5
tp966
a(g809
g809
S'NN'
p967
S'B-NP'
p968
g5
tp969
a(S'='
p970
g970
S'SYM'
p971
S'B-VP'
p972
g5
tp973
a(S'0.002'
p974
S'0.002'
p975
S'CD'
p976
S'B-NP'
p977
g5
tp978
a(g98
g98
g98
g5
g5
tp979
a(g576
g576
g576
g5
g5
tp980
a(S'whereas'
p981
S'whereas'
p982
S'IN'
p983
g5
g5
tp984
a(S'in'
p985
S'in'
p986
S'IN'
p987
S'B-PP'
p988
g5
tp989
a(S'STEMI'
p990
S'STEMI'
p991
S'NN'
p992
S'B-NP'
p993
S'B-protein'
p994
tp995
a(g224
g224
S'DT'
p996
S'B-NP'
p997
g5
tp998
a(S'relationship'
p999
S'relationship'
p1000
S'NN'
p1001
S'I-NP'
p1002
g5
tp1003
a(S'with'
p1004
S'with'
p1005
S'IN'
p1006
S'B-PP'
p1007
g5
tp1008
a(S'mortality'
p1009
S'mortality'
p1010
S'NN'
p1011
S'B-NP'
p1012
g5
tp1013
a(S'was'
p1014
S'be'
p1015
S'VBD'
p1016
S'B-VP'
p1017
g5
tp1018
a(S'seen'
p1019
S'see'
p1020
S'VBN'
p1021
S'I-VP'
p1022
g5
tp1023
a(S'at'
p1024
S'at'
p1025
S'IN'
p1026
S'B-PP'
p1027
g5
tp1028
a(S'hsCRP'
p1029
S'hsCRP'
p1030
S'NN'
p1031
S'B-NP'
p1032
S'B-protein'
p1033
tp1034
a(g913
g913
S'SYM'
p1035
S'B-NP'
p1036
g5
tp1037
a(S'10'
p1038
S'10'
p1039
S'CD'
p1040
S'B-NP'
p1041
g5
tp1042
a(S'mg/L'
p1043
S'mg/L'
p1044
S'NN'
p1045
S'I-NP'
p1046
g5
tp1047
a(g90
g90
g90
g5
g5
tp1048
a(S'adjHR'
p1049
S'adjHR'
p1050
S'NN'
p1051
S'B-NP'
p1052
g5
tp1053
a(S'3.0'
p1054
S'3.0'
p1055
S'CD'
p1056
S'I-NP'
p1057
g5
tp1058
a(g576
g576
g576
g5
g5
tp1059
a(g809
g809
S'NN'
p1060
S'B-NP'
p1061
g5
tp1062
a(g970
g970
S'SYM'
p1063
S'B-VP'
p1064
g5
tp1065
a(S'0.008'
p1066
S'0.008'
p1067
S'CD'
p1068
S'B-NP'
p1069
g5
tp1070
a(g98
g98
g98
g5
g5
tp1071
a(g64
g64
g64
g5
g5
tp1072
a(S'Increased'
p1073
S'Increase'
p1074
S'VBN'
p1075
S'B-NP'
p1076
g5
tp1077
a(S'concentrations'
p1078
S'concentration'
p1079
S'NNS'
p1080
S'I-NP'
p1081
g5
tp1082
a(S'of'
p1083
S'of'
p1084
S'IN'
p1085
S'B-PP'
p1086
g5
tp1087
a(S'hsCRP'
p1088
S'hsCRP'
p1089
S'NN'
p1090
S'B-NP'
p1091
S'B-protein'
p1092
tp1093
a(S'were'
p1094
S'be'
p1095
S'VBD'
p1096
S'B-VP'
p1097
g5
tp1098
a(S'strongly'
p1099
S'strongly'
p1100
S'RB'
p1101
S'I-VP'
p1102
g5
tp1103
a(S'associated'
p1104
S'associate'
p1105
S'VBN'
p1106
S'I-VP'
p1107
g5
tp1108
a(S'with'
p1109
S'with'
p1110
S'IN'
p1111
S'B-PP'
p1112
g5
tp1113
a(S'the'
p1114
S'the'
p1115
S'DT'
p1116
S'B-NP'
p1117
g5
tp1118
a(S'development'
p1119
S'development'
p1120
S'NN'
p1121
S'I-NP'
p1122
g5
tp1123
a(S'of'
p1124
S'of'
p1125
S'IN'
p1126
S'B-PP'
p1127
g5
tp1128
a(S'heart'
p1129
S'heart'
p1130
S'NN'
p1131
S'B-NP'
p1132
g5
tp1133
a(S'failure'
p1134
S'failure'
p1135
S'NN'
p1136
S'I-NP'
p1137
g5
tp1138
a(S'at'
p1139
S'at'
p1140
S'IN'
p1141
S'B-PP'
p1142
g5
tp1143
a(S'30'
p1144
S'30'
p1145
S'CD'
p1146
S'B-NP'
p1147
g5
tp1148
a(S'days'
p1149
S'day'
p1150
S'NNS'
p1151
S'I-NP'
p1152
g5
tp1153
a(g90
g90
g90
g5
g5
tp1154
a(S'adjHR'
p1155
S'adjHR'
p1156
S'NN'
p1157
S'B-NP'
p1158
g5
tp1159
a(S'8.2'
p1160
S'8.2'
p1161
S'CD'
p1162
S'I-NP'
p1163
g5
tp1164
a(g576
g576
g576
g5
g5
tp1165
a(g809
g809
S'NN'
p1166
S'B-NP'
p1167
g5
tp1168
a(g970
g970
S'SYM'
p1169
S'B-VP'
p1170
g5
tp1171
a(S'0.001'
p1172
S'0.001'
p1173
S'CD'
p1174
S'B-NP'
p1175
g5
tp1176
a(g98
g98
g98
g5
g5
tp1177
a(S'and'
p1178
S'and'
p1179
S'CC'
p1180
g5
g5
tp1181
a(S'10'
p1182
S'10'
p1183
S'CD'
p1184
S'B-NP'
p1185
g5
tp1186
a(S'months'
p1187
S'month'
p1188
S'NNS'
p1189
S'I-NP'
p1190
g5
tp1191
a(g90
g90
g90
g5
g5
tp1192
a(S'adjHR'
p1193
S'adjHR'
p1194
S'NN'
p1195
S'B-NP'
p1196
g5
tp1197
a(S'2.6'
p1198
S'2.6'
p1199
S'CD'
p1200
S'I-NP'
p1201
g5
tp1202
a(g576
g576
g576
g5
g5
tp1203
a(g809
g809
S'NN'
p1204
S'B-NP'
p1205
g5
tp1206
a(g970
g970
S'SYM'
p1207
S'B-VP'
p1208
g5
tp1209
a(S'0.014'
p1210
S'0.014'
p1211
S'CD'
p1212
S'B-NP'
p1213
g5
tp1214
a(g98
g98
g98
g5
g5
tp1215
a(g64
g64
g64
g5
g5
tp1216
a(S'CONCLUSION'
p1217
S'CONCLUSION'
p1218
S'NN'
p1219
S'B-NP'
p1220
g5
tp1221
a(S'Increased'
p1222
S'Increase'
p1223
S'VBD'
p1224
S'B-VP'
p1225
g5
tp1226
a(S'baseline'
p1227
S'baseline'
p1228
S'NN'
p1229
S'B-NP'
p1230
g5
tp1231
a(S'concentrations'
p1232
S'concentration'
p1233
S'NNS'
p1234
S'I-NP'
p1235
g5
tp1236
a(S'of'
p1237
S'of'
p1238
S'IN'
p1239
S'B-PP'
p1240
g5
tp1241
a(S'hsCRP'
p1242
S'hsCRP'
p1243
S'NN'
p1244
S'B-NP'
p1245
S'B-protein'
p1246
tp1247
a(S'are'
p1248
S'be'
p1249
S'VBP'
p1250
S'B-VP'
p1251
g5
tp1252
a(S'strongly'
p1253
S'strongly'
p1254
S'RB'
p1255
S'I-VP'
p1256
g5
tp1257
a(S'associated'
p1258
S'associate'
p1259
S'VBN'
p1260
S'I-VP'
p1261
g5
tp1262
a(S'with'
p1263
S'with'
p1264
S'IN'
p1265
S'B-PP'
p1266
g5
tp1267
a(S'mortality'
p1268
S'mortality'
p1269
S'NN'
p1270
S'B-NP'
p1271
g5
tp1272
a(S'and'
p1273
S'and'
p1274
S'CC'
p1275
S'I-NP'
p1276
g5
tp1277
a(S'heart'
p1278
S'heart'
p1279
S'NN'
p1280
S'I-NP'
p1281
g5
tp1282
a(S'failure'
p1283
S'failure'
p1284
S'NN'
p1285
S'I-NP'
p1286
g5
tp1287
a(S'across'
p1288
S'across'
p1289
S'IN'
p1290
S'B-PP'
p1291
g5
tp1292
a(S'the'
p1293
S'the'
p1294
S'DT'
p1295
S'B-NP'
p1296
g5
tp1297
a(S'ACS'
p1298
S'ACS'
p1299
S'NN'
p1300
S'I-NP'
p1301
g5
tp1302
a(S'spectrum.'
p1303
S'spectrum.'
p1304
S'NN'
p1305
S'I-NP'
p1306
g5
tp1307
a(S'hsCRP'
p1308
S'hsCRP'
p1309
S'NN'
p1310
S'I-NP'
p1311
g5
tp1312
a(S'measurement'
p1313
S'measurement'
p1314
S'NN'
p1315
S'I-NP'
p1316
g5
tp1317
a(S'should'
p1318
S'should'
p1319
S'MD'
p1320
S'B-VP'
p1321
g5
tp1322
a(S'be'
p1323
S'be'
p1324
S'VB'
p1325
S'I-VP'
p1326
g5
tp1327
a(S'performed'
p1328
S'perform'
p1329
S'VBN'
p1330
S'I-VP'
p1331
g5
tp1332
a(S'early'
p1333
S'early'
p1334
S'RB'
p1335
S'B-ADVP'
p1336
g5
tp1337
a(S'after'
p1338
S'after'
p1339
S'IN'
p1340
S'B-PP'
p1341
g5
tp1342
a(S'presentation'
p1343
S'presentation'
p1344
S'NN'
p1345
S'B-NP'
p1346
g5
tp1347
a(S'and'
p1348
S'and'
p1349
S'CC'
p1350
S'I-NP'
p1351
g5
tp1352
a(S'index'
p1353
S'index'
p1354
S'NN'
p1355
S'I-NP'
p1356
g5
tp1357
a(S'diagnosis-specific'
p1358
S'diagnosis-specific'
p1359
S'JJ'
p1360
S'I-NP'
p1361
g5
tp1362
a(S'cutpoints'
p1363
S'cutpoint'
p1364
S'NNS'
p1365
S'I-NP'
p1366
g5
tp1367
a(S'should'
p1368
S'should'
p1369
S'MD'
p1370
S'B-VP'
p1371
g5
tp1372
a(S'be'
p1373
S'be'
p1374
S'VB'
p1375
S'I-VP'
p1376
g5
tp1377
a(S'used'
p1378
S'use'
p1379
S'VBN'
p1380
S'I-VP'
p1381
g5
tp1382
a(g64
g64
g64
g5
g5
tp1383
a.