(lp0
(S'Topiramate'
p1
S'Topiramate'
p2
S'NN'
p3
S'B-NP'
p4
S'O'
p5
tp6
a(S'improves'
p7
S'improve'
p8
S'VBZ'
p9
S'B-VP'
p10
g5
tp11
a(S'health-related'
p12
S'health-related'
p13
S'JJ'
p14
S'B-NP'
p15
g5
tp16
a(S'quality'
p17
S'quality'
p18
S'NN'
p19
S'I-NP'
p20
g5
tp21
a(S'of'
p22
S'of'
p23
S'IN'
p24
S'B-PP'
p25
g5
tp26
a(S'life'
p27
S'life'
p28
S'NN'
p29
S'B-NP'
p30
g5
tp31
a(S'when'
p32
S'when'
p33
S'WRB'
p34
S'B-ADVP'
p35
g5
tp36
a(S'used'
p37
S'use'
p38
S'VBN'
p39
S'B-VP'
p40
g5
tp41
a(S'to'
p42
S'to'
p43
S'TO'
p44
S'B-VP'
p45
g5
tp46
a(S'prevent'
p47
S'prevent'
p48
S'VB'
p49
S'I-VP'
p50
g5
tp51
a(S'migraine'
p52
S'migraine'
p53
S'NN'
p54
S'B-NP'
p55
g5
tp56
a(S'.'
p57
g57
g57
g5
g5
tp58
a(S'OBJECTIVE'
p59
S'OBJECTIVE'
p60
S'NN'
p61
S'B-NP'
p62
g5
tp63
a(S'To'
p64
S'To'
p65
S'TO'
p66
S'B-VP'
p67
g5
tp68
a(S'assess'
p69
S'assess'
p70
S'VB'
p71
S'I-VP'
p72
g5
tp73
a(S'changes'
p74
S'change'
p75
S'NNS'
p76
S'B-NP'
p77
g5
tp78
a(S'in'
p79
S'in'
p80
S'IN'
p81
S'B-PP'
p82
g5
tp83
a(S'health-related'
p84
S'health-related'
p85
S'JJ'
p86
S'B-NP'
p87
g5
tp88
a(S'quality'
p89
S'quality'
p90
S'NN'
p91
S'I-NP'
p92
g5
tp93
a(S'of'
p94
S'of'
p95
S'IN'
p96
S'B-PP'
p97
g5
tp98
a(S'life'
p99
S'life'
p100
S'NN'
p101
S'B-NP'
p102
g5
tp103
a(S'('
p104
g104
g104
g5
g5
tp105
a(S'HRQoL'
p106
S'HRQoL'
p107
S'NN'
p108
S'B-NP'
p109
g5
tp110
a(S')'
p111
g111
g111
g5
g5
tp112
a(S'measures'
p113
S'measure'
p114
S'NNS'
p115
S'B-NP'
p116
g5
tp117
a(S'among'
p118
S'among'
p119
S'IN'
p120
S'B-PP'
p121
g5
tp122
a(S'patients'
p123
S'patient'
p124
S'NNS'
p125
S'B-NP'
p126
g5
tp127
a(S'receiving'
p128
S'receive'
p129
S'VBG'
p130
S'B-VP'
p131
g5
tp132
a(S'topiramate'
p133
S'topiramate'
p134
S'NN'
p135
S'B-NP'
p136
g5
tp137
a(g104
g104
g104
g5
g5
tp138
a(S'TPM'
p139
S'TPM'
p140
S'NN'
p141
S'B-NP'
p142
g5
tp143
a(g111
g111
g111
g5
g5
tp144
a(S'100'
p145
S'100'
p146
S'CD'
p147
S'B-NP'
p148
g5
tp149
a(S'mg/d'
p150
S'mg/d'
p151
S'NN'
p152
S'I-NP'
p153
g5
tp154
a(S'in'
p155
S'in'
p156
S'IN'
p157
S'B-PP'
p158
g5
tp159
a(S'two'
p160
S'two'
p161
S'CD'
p162
S'B-NP'
p163
g5
tp164
a(S'divided'
p165
S'divide'
p166
S'VBN'
p167
S'I-NP'
p168
g5
tp169
a(S'doses'
p170
S'dose'
p171
S'NNS'
p172
S'I-NP'
p173
g5
tp174
a(S'for'
p175
S'for'
p176
S'IN'
p177
S'B-PP'
p178
g5
tp179
a(S'migraine'
p180
S'migraine'
p181
S'NN'
p182
S'B-NP'
p183
g5
tp184
a(S'prevention'
p185
S'prevention'
p186
S'NN'
p187
S'I-NP'
p188
g5
tp189
a(S'in'
p190
S'in'
p191
S'IN'
p192
S'B-PP'
p193
g5
tp194
a(S'three'
p195
S'three'
p196
S'CD'
p197
S'B-NP'
p198
g5
tp199
a(S'randomized'
p200
S'randomize'
p201
S'VBN'
p202
S'I-NP'
p203
g5
tp204
a(S','
p205
g205
g205
S'I-NP'
p206
g5
tp207
a(S'double-blind'
p208
S'double-blind'
p209
S'JJ'
p210
S'I-NP'
p211
g5
tp212
a(g205
g205
g205
S'I-NP'
p213
g5
tp214
a(S'placebo-controlled'
p215
S'placebo-controlled'
p216
S'JJ'
p217
S'I-NP'
p218
g5
tp219
a(g205
g205
g205
S'I-NP'
p220
g5
tp221
a(S'26-week'
p222
S'26-week'
p223
S'JJ'
p224
S'I-NP'
p225
g5
tp226
a(S'trials'
p227
S'trial'
p228
S'NNS'
p229
S'I-NP'
p230
g5
tp231
a(S'with'
p232
S'with'
p233
S'IN'
p234
S'B-PP'
p235
g5
tp236
a(S'similar'
p237
S'similar'
p238
S'JJ'
p239
S'B-NP'
p240
g5
tp241
a(S'protocols'
p242
S'protocol'
p243
S'NNS'
p244
S'I-NP'
p245
g5
tp246
a(S'and'
p247
S'and'
p248
S'CC'
p249
g5
g5
tp250
a(S'study'
p251
S'study'
p252
S'NN'
p253
S'B-NP'
p254
g5
tp255
a(S'populations'
p256
S'population'
p257
S'NNS'
p258
S'I-NP'
p259
g5
tp260
a(g57
g57
g57
g5
g5
tp261
a(S'BACKGROUND'
p262
S'BACKGROUND'
p263
S'NN'
p264
S'B-NP'
p265
g5
tp266
a(S'Migraine'
p267
S'Migraine'
p268
S'NNP'
p269
S'I-NP'
p270
g5
tp271
a(S'substantially'
p272
S'substantially'
p273
S'RB'
p274
S'B-VP'
p275
g5
tp276
a(S'impairs'
p277
S'impair'
p278
S'VBZ'
p279
S'I-VP'
p280
g5
tp281
a(S'HRQoL'
p282
S'HRQoL'
p283
S'NN'
p284
S'B-NP'
p285
g5
tp286
a(S'and'
p287
S'and'
p288
S'CC'
p289
S'I-NP'
p290
g5
tp291
a(S'work'
p292
S'work'
p293
S'NN'
p294
S'I-NP'
p295
g5
tp296
a(S'productivity'
p297
S'productivity'
p298
S'NN'
p299
S'I-NP'
p300
g5
tp301
a(S'before'
p302
S'before'
p303
S'IN'
p304
S'B-ADVP'
p305
g5
tp306
a(g205
g205
g205
g5
g5
tp307
a(S'during'
p308
S'during'
p309
S'IN'
p310
S'B-ADVP'
p311
g5
tp312
a(g205
g205
g205
g5
g5
tp313
a(S'and'
p314
S'and'
p315
S'CC'
p316
g5
g5
tp317
a(S'after'
p318
S'after'
p319
S'IN'
p320
S'B-PP'
p321
g5
tp322
a(S'attacks.'
p323
S'attacks.'
p324
S'NN'
p325
S'B-NP'
p326
g5
tp327
a(S'Approximately'
p328
S'Approximately'
p329
S'RB'
p330
S'B-NP'
p331
g5
tp332
a(S'50'
p333
S'50'
p334
S'CD'
p335
S'I-NP'
p336
g5
tp337
a(S'%'
p338
g338
S'NN'
p339
S'I-NP'
p340
g5
tp341
a(S'of'
p342
S'of'
p343
S'IN'
p344
S'B-PP'
p345
g5
tp346
a(S'patients'
p347
S'patient'
p348
S'NNS'
p349
S'B-NP'
p350
g5
tp351
a(S'with'
p352
S'with'
p353
S'IN'
p354
S'B-PP'
p355
g5
tp356
a(S'migraine'
p357
S'migraine'
p358
S'NN'
p359
S'B-NP'
p360
g5
tp361
a(S'could'
p362
S'could'
p363
S'MD'
p364
S'B-VP'
p365
g5
tp366
a(S'be'
p367
S'be'
p368
S'VB'
p369
S'I-VP'
p370
g5
tp371
a(S'recommended'
p372
S'recommend'
p373
S'VBN'
p374
S'I-VP'
p375
g5
tp376
a(S'for'
p377
S'for'
p378
S'IN'
p379
S'B-PP'
p380
g5
tp381
a(S'preventive'
p382
S'preventive'
p383
S'JJ'
p384
S'B-NP'
p385
g5
tp386
a(S'therapies'
p387
S'therapy'
p388
S'NNS'
p389
S'I-NP'
p390
g5
tp391
a(g205
g205
g205
g5
g5
tp392
a(S'yet'
p393
S'yet'
p394
S'CC'
p395
g5
g5
tp396
a(S'only'
p397
S'only'
p398
S'RB'
p399
S'B-NP'
p400
g5
tp401
a(S'3'
p402
g402
S'CD'
p403
S'I-NP'
p404
g5
tp405
a(g338
g338
S'NN'
p406
S'I-NP'
p407
g5
tp408
a(S'to'
p409
S'to'
p410
S'TO'
p411
S'I-NP'
p412
g5
tp413
a(S'5'
p414
g414
S'CD'
p415
S'I-NP'
p416
g5
tp417
a(g338
g338
S'NN'
p418
S'I-NP'
p419
g5
tp420
a(S'of'
p421
S'of'
p422
S'IN'
p423
S'B-PP'
p424
g5
tp425
a(S'patients'
p426
S'patient'
p427
S'NNS'
p428
S'B-NP'
p429
g5
tp430
a(S'receive'
p431
S'receive'
p432
S'VBP'
p433
S'B-VP'
p434
g5
tp435
a(S'them.'
p436
S'them.'
p437
S'NN'
p438
S'B-NP'
p439
g5
tp440
a(S'TPM'
p441
S'TPM'
p442
S'NN'
p443
S'I-NP'
p444
g5
tp445
a(S'is'
p446
S'be'
p447
S'VBZ'
p448
S'B-VP'
p449
g5
tp450
a(S'an'
p451
S'an'
p452
S'DT'
p453
S'B-NP'
p454
g5
tp455
a(S'effective'
p456
S'effective'
p457
S'JJ'
p458
S'I-NP'
p459
g5
tp460
a(S'and'
p461
S'and'
p462
S'CC'
p463
S'I-NP'
p464
g5
tp465
a(S'generally'
p466
S'generally'
p467
S'RB'
p468
S'I-NP'
p469
g5
tp470
a(S'well-tolerated'
p471
S'well-tolerated'
p472
S'JJ'
p473
S'I-NP'
p474
g5
tp475
a(S'migraine'
p476
S'migraine'
p477
S'NN'
p478
S'I-NP'
p479
g5
tp480
a(S'prophylactic'
p481
S'prophylactic'
p482
S'JJ'
p483
S'B-ADJP'
p484
g5
tp485
a(g104
g104
g104
g5
g5
tp486
a(S'preventive'
p487
S'preventive'
p488
S'JJ'
p489
S'B-ADJP'
p490
g5
tp491
a(g111
g111
g111
g5
g5
tp492
a(S'therapy'
p493
S'therapy'
p494
S'NN'
p495
S'B-NP'
p496
g5
tp497
a(S'for'
p498
S'for'
p499
S'IN'
p500
S'B-PP'
p501
g5
tp502
a(S'adults'
p503
S'adult'
p504
S'NNS'
p505
S'B-NP'
p506
g5
tp507
a(g205
g205
g205
g5
g5
tp508
a(S'as'
p509
S'as'
p510
S'IN'
p511
S'B-SBAR'
p512
g5
tp513
a(S'demonstrated'
p514
S'demonstrate'
p515
S'VBN'
p516
S'B-VP'
p517
g5
tp518
a(S'in'
p519
S'in'
p520
S'IN'
p521
S'B-PP'
p522
g5
tp523
a(S'several'
p524
S'several'
p525
S'JJ'
p526
S'B-NP'
p527
g5
tp528
a(S'randomized'
p529
S'randomize'
p530
S'VBN'
p531
S'I-NP'
p532
g5
tp533
a(g205
g205
g205
S'I-NP'
p534
g5
tp535
a(S'double-blind'
p536
S'double-blind'
p537
S'JJ'
p538
S'I-NP'
p539
g5
tp540
a(g205
g205
g205
S'I-NP'
p541
g5
tp542
a(S'placebo-controlled'
p543
S'placebo-controlled'
p544
S'JJ'
p545
S'I-NP'
p546
g5
tp547
a(S'trials.'
p548
S'trials.'
p549
S'NN'
p550
S'I-NP'
p551
g5
tp552
a(S'The'
p553
S'The'
p554
S'DT'
p555
S'B-NP'
p556
g5
tp557
a(S'most'
p558
S'most'
p559
S'RBS'
p560
S'I-NP'
p561
g5
tp562
a(S'common'
p563
S'common'
p564
S'JJ'
p565
S'I-NP'
p566
g5
tp567
a(S'adverse'
p568
S'adverse'
p569
S'JJ'
p570
S'I-NP'
p571
g5
tp572
a(S'events'
p573
S'event'
p574
S'NNS'
p575
S'I-NP'
p576
g5
tp577
a(S'in'
p578
S'in'
p579
S'IN'
p580
S'B-PP'
p581
g5
tp582
a(S'double-blind'
p583
S'double-blind'
p584
S'JJ'
p585
S'B-NP'
p586
g5
tp587
a(g205
g205
g205
S'I-NP'
p588
g5
tp589
a(S'placebo-controlled'
p590
S'placebo-controlled'
p591
S'JJ'
p592
S'I-NP'
p593
g5
tp594
a(S'studies'
p595
S'study'
p596
S'NNS'
p597
S'I-NP'
p598
g5
tp599
a(S'of'
p600
S'of'
p601
S'IN'
p602
S'B-PP'
p603
g5
tp604
a(S'TPM'
p605
S'TPM'
p606
S'NN'
p607
S'B-NP'
p608
S'B-protein'
p609
tp610
a(S'in'
p611
S'in'
p612
S'IN'
p613
S'B-PP'
p614
g5
tp615
a(S'migraine'
p616
S'migraine'
p617
S'NN'
p618
S'B-NP'
p619
g5
tp620
a(S'prevention'
p621
S'prevention'
p622
S'NN'
p623
S'I-NP'
p624
g5
tp625
a(S'are'
p626
S'be'
p627
S'VBP'
p628
S'B-VP'
p629
g5
tp630
a(S'paresthesia'
p631
S'paresthesia'
p632
S'NN'
p633
S'B-NP'
p634
g5
tp635
a(g205
g205
g205
g5
g5
tp636
a(S'fatigue'
p637
S'fatigue'
p638
S'NN'
p639
S'B-NP'
p640
g5
tp641
a(g205
g205
g205
g5
g5
tp642
a(S'anorexia'
p643
S'anorexia'
p644
S'NN'
p645
S'B-NP'
p646
g5
tp647
a(g205
g205
g205
g5
g5
tp648
a(S'nausea'
p649
S'nausea'
p650
S'NN'
p651
S'B-NP'
p652
g5
tp653
a(g205
g205
g205
g5
g5
tp654
a(S'taste'
p655
S'taste'
p656
S'NN'
p657
S'B-NP'
p658
g5
tp659
a(S'alteration'
p660
S'alteration'
p661
S'NN'
p662
S'I-NP'
p663
g5
tp664
a(g205
g205
g205
g5
g5
tp665
a(S'and'
p666
S'and'
p667
S'CC'
p668
g5
g5
tp669
a(S'diarrhea'
p670
S'diarrhea'
p671
S'NN'
p672
S'B-NP'
p673
g5
tp674
a(g57
g57
g57
g5
g5
tp675
a(S'DESIGN'
p676
S'DESIGN'
p677
S'NN'
p678
S'B-NP'
p679
g5
tp680
a(S'AND'
p681
S'AND'
p682
S'CC'
p683
S'I-NP'
p684
g5
tp685
a(S'METHODS'
p686
S'METHODS'
p687
S'NNS'
p688
S'I-NP'
p689
g5
tp690
a(S'The'
p691
S'The'
p692
S'DT'
p693
S'B-NP'
p694
g5
tp695
a(S'Migraine-Specific'
p696
S'Migraine-Specific'
p697
S'JJ'
p698
S'I-NP'
p699
g5
tp700
a(S'Questionnaire'
p701
S'Questionnaire'
p702
S'NN'
p703
S'I-NP'
p704
g5
tp705
a(g104
g104
g104
g5
g5
tp706
a(S'MSQ'
p707
S'MSQ'
p708
S'NN'
p709
S'B-NP'
p710
S'B-protein'
p711
tp712
a(g205
g205
g205
g5
g5
tp713
a(S'version'
p714
S'version'
p715
S'NN'
p716
S'B-NP'
p717
g5
tp718
a(S'2.1'
p719
S'2.1'
p720
S'CD'
p721
S'I-NP'
p722
g5
tp723
a(g111
g111
g111
g5
g5
tp724
a(S'was'
p725
S'be'
p726
S'VBD'
p727
S'B-VP'
p728
g5
tp729
a(S'used'
p730
S'use'
p731
S'VBN'
p732
S'I-VP'
p733
g5
tp734
a(S'to'
p735
S'to'
p736
S'TO'
p737
S'B-VP'
p738
g5
tp739
a(S'assess'
p740
S'assess'
p741
S'VB'
p742
S'I-VP'
p743
g5
tp744
a(S'the'
p745
S'the'
p746
S'DT'
p747
S'B-NP'
p748
g5
tp749
a(S'effect'
p750
S'effect'
p751
S'NN'
p752
S'I-NP'
p753
g5
tp754
a(S'of'
p755
S'of'
p756
S'IN'
p757
S'B-PP'
p758
g5
tp759
a(S'TPM'
p760
S'TPM'
p761
S'NN'
p762
S'B-NP'
p763
g5
tp764
a(S'100'
p765
S'100'
p766
S'CD'
p767
S'I-NP'
p768
g5
tp769
a(S'mg/d'
p770
S'mg/d'
p771
S'NN'
p772
S'I-NP'
p773
g5
tp774
a(S'on'
p775
S'on'
p776
S'IN'
p777
S'B-PP'
p778
g5
tp779
a(S'the'
p780
S'the'
p781
S'DT'
p782
S'B-NP'
p783
g5
tp784
a(S'functionality'
p785
S'functionality'
p786
S'NN'
p787
S'I-NP'
p788
g5
tp789
a(S'and'
p790
S'and'
p791
S'CC'
p792
S'I-NP'
p793
g5
tp794
a(S'HRQoL'
p795
S'HRQoL'
p796
S'NN'
p797
S'I-NP'
p798
g5
tp799
a(S'of'
p800
S'of'
p801
S'IN'
p802
S'B-PP'
p803
g5
tp804
a(S'randomized'
p805
S'randomize'
p806
S'VBN'
p807
S'B-NP'
p808
g5
tp809
a(S'intent-to-treat'
p810
S'intent-to-treat'
p811
S'JJ'
p812
S'I-NP'
p813
g5
tp814
a(g104
g104
g104
g5
g5
tp815
a(S'ITT'
p816
S'ITT'
p817
S'NN'
p818
S'B-NP'
p819
g5
tp820
a(g111
g111
g111
g5
g5
tp821
a(S'and'
p822
S'and'
p823
S'CC'
p824
g5
g5
tp825
a(S'study-completer'
p826
S'study-completer'
p827
S'NN'
p828
S'B-NP'
p829
g5
tp830
a(S'populations'
p831
S'population'
p832
S'NNS'
p833
S'I-NP'
p834
g5
tp835
a(S'pooled'
p836
S'pool'
p837
S'VBN'
p838
S'B-VP'
p839
g5
tp840
a(S'from'
p841
S'from'
p842
S'IN'
p843
S'B-PP'
p844
g5
tp845
a(S'three'
p846
S'three'
p847
S'CD'
p848
S'B-NP'
p849
g5
tp850
a(S'randomized'
p851
S'randomize'
p852
S'VBN'
p853
S'I-NP'
p854
g5
tp855
a(g205
g205
g205
S'I-NP'
p856
g5
tp857
a(S'double-blind'
p858
S'double-blind'
p859
S'JJ'
p860
S'I-NP'
p861
g5
tp862
a(g205
g205
g205
S'I-NP'
p863
g5
tp864
a(S'placebo-controlled'
p865
S'placebo-controlled'
p866
S'JJ'
p867
S'I-NP'
p868
g5
tp869
a(S'trials.'
p870
S'trials.'
p871
S'NN'
p872
S'I-NP'
p873
g5
tp874
a(S'MSQ'
p875
S'MSQ'
p876
S'NN'
p877
S'I-NP'
p878
g5
tp879
a(S'scores'
p880
S'score'
p881
S'NNS'
p882
S'I-NP'
p883
g5
tp884
a(g104
g104
g104
g5
g5
tp885
a(S'0'
p886
g886
S'CD'
p887
S'B-NP'
p888
g5
tp889
a(S'to'
p890
S'to'
p891
S'TO'
p892
g5
g5
tp893
a(S'100'
p894
S'100'
p895
S'CD'
p896
S'B-NP'
p897
g5
tp898
a(g205
g205
g205
g5
g5
tp899
a(S'higher'
p900
S'high'
p901
S'JJR'
p902
S'B-NP'
p903
g5
tp904
a(S'score'
p905
S'score'
p906
S'NN'
p907
S'I-NP'
p908
g5
tp909
a(S'indicates'
p910
S'indicate'
p911
S'VBZ'
p912
S'B-VP'
p913
g5
tp914
a(S'better'
p915
S'good'
p916
S'JJR'
p917
S'B-NP'
p918
g5
tp919
a(S'functioning'
p920
S'functioning'
p921
S'NN'
p922
S'I-NP'
p923
g5
tp924
a(g111
g111
g111
g5
g5
tp925
a(S'were'
p926
S'be'
p927
S'VBD'
p928
S'B-VP'
p929
g5
tp930
a(S'assessed'
p931
S'assess'
p932
S'VBN'
p933
S'I-VP'
p934
g5
tp935
a(S'for'
p936
S'for'
p937
S'IN'
p938
S'B-PP'
p939
g5
tp940
a(S'the'
p941
S'the'
p942
S'DT'
p943
S'B-NP'
p944
g5
tp945
a(S'following'
p946
S'follow'
p947
S'VBG'
p948
S'I-NP'
p949
g5
tp950
a(S'three'
p951
S'three'
p952
S'CD'
p953
S'I-NP'
p954
g5
tp955
a(S'domains'
p956
S'domain'
p957
S'NNS'
p958
S'I-NP'
p959
g5
tp960
a(S':'
p961
g961
g961
g5
g5
tp962
a(S'role'
p963
S'role'
p964
S'NN'
p965
S'B-NP'
p966
g5
tp967
a(S'restriction'
p968
S'restriction'
p969
S'NN'
p970
S'I-NP'
p971
g5
tp972
a(g104
g104
g104
g5
g5
tp973
a(S'examines'
p974
S'examine'
p975
S'VBZ'
p976
S'B-VP'
p977
g5
tp978
a(S'the'
p979
S'the'
p980
S'DT'
p981
S'B-NP'
p982
g5
tp983
a(S'degree'
p984
S'degree'
p985
S'NN'
p986
S'I-NP'
p987
g5
tp988
a(S'to'
p989
S'to'
p990
S'TO'
p991
S'B-PP'
p992
g5
tp993
a(S'which'
p994
S'which'
p995
S'WDT'
p996
S'B-NP'
p997
g5
tp998
a(S'performance'
p999
S'performance'
p1000
S'NN'
p1001
S'B-NP'
p1002
g5
tp1003
a(S'of'
p1004
S'of'
p1005
S'IN'
p1006
S'B-PP'
p1007
g5
tp1008
a(S'daily'
p1009
S'daily'
p1010
S'JJ'
p1011
S'B-NP'
p1012
g5
tp1013
a(S'activities'
p1014
S'activity'
p1015
S'NNS'
p1016
S'I-NP'
p1017
g5
tp1018
a(S'is'
p1019
S'be'
p1020
S'VBZ'
p1021
S'B-VP'
p1022
g5
tp1023
a(S'limited'
p1024
S'limit'
p1025
S'VBN'
p1026
S'I-VP'
p1027
g5
tp1028
a(S'by'
p1029
S'by'
p1030
S'IN'
p1031
S'B-PP'
p1032
g5
tp1033
a(S'migraine'
p1034
S'migraine'
p1035
S'NN'
p1036
S'B-NP'
p1037
g5
tp1038
a(g111
g111
g111
g5
g5
tp1039
a(g205
g205
g205
g5
g5
tp1040
a(S'role'
p1041
S'role'
p1042
S'NN'
p1043
S'B-NP'
p1044
g5
tp1045
a(S'prevention'
p1046
S'prevention'
p1047
S'NN'
p1048
S'I-NP'
p1049
g5
tp1050
a(g104
g104
g104
g5
g5
tp1051
a(S'examines'
p1052
S'examine'
p1053
S'VBZ'
p1054
S'B-VP'
p1055
g5
tp1056
a(S'the'
p1057
S'the'
p1058
S'DT'
p1059
S'B-NP'
p1060
g5
tp1061
a(S'degree'
p1062
S'degree'
p1063
S'NN'
p1064
S'I-NP'
p1065
g5
tp1066
a(S'to'
p1067
S'to'
p1068
S'TO'
p1069
S'B-PP'
p1070
g5
tp1071
a(S'which'
p1072
S'which'
p1073
S'WDT'
p1074
S'B-NP'
p1075
g5
tp1076
a(S'performance'
p1077
S'performance'
p1078
S'NN'
p1079
S'B-NP'
p1080
g5
tp1081
a(S'of'
p1082
S'of'
p1083
S'IN'
p1084
S'B-PP'
p1085
g5
tp1086
a(S'daily'
p1087
S'daily'
p1088
S'JJ'
p1089
S'B-NP'
p1090
g5
tp1091
a(S'activities'
p1092
S'activity'
p1093
S'NNS'
p1094
S'I-NP'
p1095
g5
tp1096
a(S'is'
p1097
S'be'
p1098
S'VBZ'
p1099
S'B-VP'
p1100
g5
tp1101
a(S'interrupted'
p1102
S'interrupt'
p1103
S'VBN'
p1104
S'I-VP'
p1105
g5
tp1106
a(S'by'
p1107
S'by'
p1108
S'IN'
p1109
S'B-PP'
p1110
g5
tp1111
a(S'migraine'
p1112
S'migraine'
p1113
S'NN'
p1114
S'B-NP'
p1115
g5
tp1116
a(g111
g111
g111
g5
g5
tp1117
a(g205
g205
g205
g5
g5
tp1118
a(S'and'
p1119
S'and'
p1120
S'CC'
p1121
g5
g5
tp1122
a(S'emotional'
p1123
S'emotional'
p1124
S'JJ'
p1125
S'B-NP'
p1126
g5
tp1127
a(S'function'
p1128
S'function'
p1129
S'NN'
p1130
S'I-NP'
p1131
g5
tp1132
a(g104
g104
g104
g5
g5
tp1133
a(S'examines'
p1134
S'examine'
p1135
S'VBZ'
p1136
S'B-VP'
p1137
g5
tp1138
a(S'feelings'
p1139
S'feeling'
p1140
S'NNS'
p1141
S'B-NP'
p1142
g5
tp1143
a(S'of'
p1144
S'of'
p1145
S'IN'
p1146
S'B-PP'
p1147
g5
tp1148
a(S'frustration'
p1149
S'frustration'
p1150
S'NN'
p1151
S'B-NP'
p1152
g5
tp1153
a(S'and'
p1154
S'and'
p1155
S'CC'
p1156
S'I-NP'
p1157
g5
tp1158
a(S'helplessness'
p1159
S'helplessness'
p1160
S'NN'
p1161
S'I-NP'
p1162
g5
tp1163
a(S'due'
p1164
S'due'
p1165
S'JJ'
p1166
S'B-ADJP'
p1167
g5
tp1168
a(S'to'
p1169
S'to'
p1170
S'TO'
p1171
S'B-PP'
p1172
g5
tp1173
a(S'migraine'
p1174
S'migraine'
p1175
S'NN'
p1176
S'B-NP'
p1177
g5
tp1178
a(g111
g111
g111
g5
g5
tp1179
a(g57
g57
g57
g5
g5
tp1180
a(S'Between-group'
p1181
S'Between-group'
p1182
S'JJ'
p1183
S'B-NP'
p1184
g5
tp1185
a(S'differences'
p1186
S'difference'
p1187
S'NNS'
p1188
S'I-NP'
p1189
g5
tp1190
a(S'from'
p1191
S'from'
p1192
S'IN'
p1193
S'B-PP'
p1194
g5
tp1195
a(S'baseline'
p1196
S'baseline'
p1197
S'NN'
p1198
S'B-NP'
p1199
g5
tp1200
a(S'in'
p1201
S'in'
p1202
S'IN'
p1203
S'B-PP'
p1204
g5
tp1205
a(S'mean'
p1206
S'mean'
p1207
S'JJ'
p1208
S'B-NP'
p1209
g5
tp1210
a(S'MSQ'
p1211
S'MSQ'
p1212
S'NN'
p1213
S'I-NP'
p1214
g5
tp1215
a(S'domain'
p1216
S'domain'
p1217
S'NN'
p1218
S'I-NP'
p1219
g5
tp1220
a(S'scores'
p1221
S'score'
p1222
S'NNS'
p1223
S'I-NP'
p1224
g5
tp1225
a(S'for'
p1226
S'for'
p1227
S'IN'
p1228
S'B-PP'
p1229
g5
tp1230
a(S'TPM'
p1231
S'TPM'
p1232
S'NN'
p1233
S'B-NP'
p1234
g5
tp1235
a(S'100'
p1236
S'100'
p1237
S'CD'
p1238
S'I-NP'
p1239
g5
tp1240
a(S'mg/d'
p1241
S'mg/d'
p1242
S'NN'
p1243
S'I-NP'
p1244
g5
tp1245
a(S'and'
p1246
S'and'
p1247
S'CC'
p1248
S'I-NP'
p1249
g5
tp1250
a(S'placebo'
p1251
S'placebo'
p1252
S'NN'
p1253
S'I-NP'
p1254
g5
tp1255
a(S'were'
p1256
S'be'
p1257
S'VBD'
p1258
S'B-VP'
p1259
g5
tp1260
a(S'compared'
p1261
S'compare'
p1262
S'VBN'
p1263
S'I-VP'
p1264
g5
tp1265
a(S'using'
p1266
S'use'
p1267
S'VBG'
p1268
S'B-VP'
p1269
g5
tp1270
a(S'a'
p1271
g1271
S'DT'
p1272
S'B-NP'
p1273
g5
tp1274
a(S'mixed-effects'
p1275
S'mixed-effects'
p1276
S'JJ'
p1277
S'I-NP'
p1278
g5
tp1279
a(S'model'
p1280
S'model'
p1281
S'NN'
p1282
S'I-NP'
p1283
g5
tp1284
a(S'with'
p1285
S'with'
p1286
S'IN'
p1287
S'B-PP'
p1288
g5
tp1289
a(S'piecewise'
p1290
S'piecewise'
p1291
S'JJ'
p1292
S'B-NP'
p1293
g5
tp1294
a(S'linear'
p1295
S'linear'
p1296
S'JJ'
p1297
S'I-NP'
p1298
g5
tp1299
a(S'regression.'
p1300
S'regression.'
p1301
S'NN'
p1302
S'I-NP'
p1303
g5
tp1304
a(S'Effect'
p1305
S'Effect'
p1306
S'NN'
p1307
S'I-NP'
p1308
g5
tp1309
a(S'sizes'
p1310
S'size'
p1311
S'NNS'
p1312
S'I-NP'
p1313
g5
tp1314
a(S'were'
p1315
S'be'
p1316
S'VBD'
p1317
S'B-VP'
p1318
g5
tp1319
a(S'calculated'
p1320
S'calculate'
p1321
S'VBN'
p1322
S'I-VP'
p1323
g5
tp1324
a(S'to'
p1325
S'to'
p1326
S'TO'
p1327
S'B-VP'
p1328
g5
tp1329
a(S'estimate'
p1330
S'estimate'
p1331
S'VB'
p1332
S'I-VP'
p1333
g5
tp1334
a(S'the'
p1335
S'the'
p1336
S'DT'
p1337
S'B-NP'
p1338
g5
tp1339
a(S'magnitude'
p1340
S'magnitude'
p1341
S'NN'
p1342
S'I-NP'
p1343
g5
tp1344
a(S'of'
p1345
S'of'
p1346
S'IN'
p1347
S'B-PP'
p1348
g5
tp1349
a(S'change'
p1350
S'change'
p1351
S'NN'
p1352
S'B-NP'
p1353
g5
tp1354
a(S'in'
p1355
S'in'
p1356
S'IN'
p1357
S'B-PP'
p1358
g5
tp1359
a(S'HRQoL'
p1360
S'HRQoL'
p1361
S'NN'
p1362
S'B-NP'
p1363
g5
tp1364
a(S'that'
p1365
S'that'
p1366
S'WDT'
p1367
S'B-NP'
p1368
g5
tp1369
a(S'can'
p1370
S'can'
p1371
S'MD'
p1372
S'B-VP'
p1373
g5
tp1374
a(S'be'
p1375
S'be'
p1376
S'VB'
p1377
S'I-VP'
p1378
g5
tp1379
a(S'associated'
p1380
S'associate'
p1381
S'VBN'
p1382
S'I-VP'
p1383
g5
tp1384
a(S'with'
p1385
S'with'
p1386
S'IN'
p1387
S'B-PP'
p1388
g5
tp1389
a(S'TPM'
p1390
S'TPM'
p1391
S'NN'
p1392
S'B-NP'
p1393
g5
tp1394
a(S'therapy'
p1395
S'therapy'
p1396
S'NN'
p1397
S'I-NP'
p1398
g5
tp1399
a(g57
g57
g57
g5
g5
tp1400
a(S'RESULTS'
p1401
S'RESULTS'
p1402
S'NNS'
p1403
S'B-NP'
p1404
g5
tp1405
a(S'TPM'
p1406
S'TPM'
p1407
S'NN'
p1408
S'I-NP'
p1409
g5
tp1410
a(S'100'
p1411
S'100'
p1412
S'CD'
p1413
S'I-NP'
p1414
g5
tp1415
a(S'mg/d'
p1416
S'mg/d'
p1417
S'NN'
p1418
S'I-NP'
p1419
g5
tp1420
a(S'significantly'
p1421
S'significantly'
p1422
S'RB'
p1423
S'B-ADVP'
p1424
g5
tp1425
a(S'improved'
p1426
S'improve'
p1427
S'VBD'
p1428
S'B-VP'
p1429
g5
tp1430
a(S'all'
p1431
S'all'
p1432
S'DT'
p1433
S'B-NP'
p1434
g5
tp1435
a(S'three'
p1436
S'three'
p1437
S'CD'
p1438
S'I-NP'
p1439
g5
tp1440
a(S'MSQ'
p1441
S'MSQ'
p1442
S'NN'
p1443
S'I-NP'
p1444
S'B-protein'
p1445
tp1446
a(S'domains'
p1447
S'domain'
p1448
S'NNS'
p1449
S'I-NP'
p1450
S'I-protein'
p1451
tp1452
a(S'compared'
p1453
S'compare'
p1454
S'VBN'
p1455
S'B-PP'
p1456
g5
tp1457
a(S'with'
p1458
S'with'
p1459
S'IN'
p1460
S'B-PP'
p1461
g5
tp1462
a(S'placebo'
p1463
S'placebo'
p1464
S'NN'
p1465
S'B-NP'
p1466
g5
tp1467
a(S'for'
p1468
S'for'
p1469
S'IN'
p1470
S'B-PP'
p1471
g5
tp1472
a(S'both'
p1473
S'both'
p1474
S'CC'
p1475
g5
g5
tp1476
a(S'the'
p1477
S'the'
p1478
S'DT'
p1479
S'B-NP'
p1480
g5
tp1481
a(S'ITT'
p1482
S'ITT'
p1483
S'NNP'
p1484
S'I-NP'
p1485
g5
tp1486
a(g104
g104
g104
g5
g5
tp1487
a(S'TPM'
p1488
S'TPM'
p1489
S'NN'
p1490
S'B-NP'
p1491
g5
tp1492
a(g205
g205
g205
g5
g5
tp1493
a(S'n'
p1494
g1494
S'NN'
p1495
S'B-NP'
p1496
g5
tp1497
a(S'='
p1498
g1498
S'SYM'
p1499
S'B-VP'
p1500
g5
tp1501
a(S'372'
p1502
S'372'
p1503
S'CD'
p1504
S'B-NP'
p1505
g5
tp1506
a(S';'
p1507
g1507
g961
g5
g5
tp1508
a(S'placebo'
p1509
S'placebo'
p1510
S'NN'
p1511
S'B-NP'
p1512
g5
tp1513
a(g205
g205
g205
g5
g5
tp1514
a(g1494
g1494
S'NN'
p1515
S'B-NP'
p1516
g5
tp1517
a(g1498
g1498
S'SYM'
p1518
S'B-VP'
p1519
g5
tp1520
a(S'362'
p1521
S'362'
p1522
S'CD'
p1523
S'B-NP'
p1524
g5
tp1525
a(g111
g111
g111
g5
g5
tp1526
a(S'and'
p1527
S'and'
p1528
S'CC'
p1529
g5
g5
tp1530
a(S'study-completer'
p1531
S'study-completer'
p1532
S'NN'
p1533
S'B-NP'
p1534
g5
tp1535
a(g104
g104
g104
g5
g5
tp1536
a(S'TPM'
p1537
S'TPM'
p1538
S'NN'
p1539
S'B-NP'
p1540
g5
tp1541
a(g205
g205
g205
g5
g5
tp1542
a(g1494
g1494
S'NN'
p1543
S'B-NP'
p1544
g5
tp1545
a(g1498
g1498
S'SYM'
p1546
S'B-VP'
p1547
g5
tp1548
a(S'220'
p1549
S'220'
p1550
S'CD'
p1551
S'B-NP'
p1552
g5
tp1553
a(g1507
g1507
g961
g5
g5
tp1554
a(S'placebo'
p1555
S'placebo'
p1556
S'NN'
p1557
S'B-NP'
p1558
g5
tp1559
a(g205
g205
g205
g5
g5
tp1560
a(g1494
g1494
S'NN'
p1561
S'B-NP'
p1562
g5
tp1563
a(g1498
g1498
S'SYM'
p1564
S'B-VP'
p1565
g5
tp1566
a(S'216'
p1567
S'216'
p1568
S'CD'
p1569
S'B-NP'
p1570
g5
tp1571
a(g111
g111
g111
g5
g5
tp1572
a(S'populations'
p1573
S'population'
p1574
S'NNS'
p1575
S'B-NP'
p1576
g5
tp1577
a(g104
g104
g104
g5
g5
tp1578
a(S'P'
p1579
g1579
S'NN'
p1580
S'B-NP'
p1581
g5
tp1582
a(S'<'
p1583
g1583
S'JJR'
p1584
S'B-NP'
p1585
g5
tp1586
a(S'.001'
p1587
S'.001'
p1588
S'CD'
p1589
S'I-NP'
p1590
g5
tp1591
a(S'for'
p1592
S'for'
p1593
S'IN'
p1594
S'B-PP'
p1595
g5
tp1596
a(S'all'
p1597
S'all'
p1598
S'DT'
p1599
S'B-NP'
p1600
g5
tp1601
a(S'three'
p1602
S'three'
p1603
S'CD'
p1604
S'I-NP'
p1605
g5
tp1606
a(S'domains'
p1607
S'domain'
p1608
S'NNS'
p1609
S'I-NP'
p1610
g5
tp1611
a(g205
g205
g205
g5
g5
tp1612
a(S'both'
p1613
S'both'
p1614
S'DT'
p1615
S'B-NP'
p1616
g5
tp1617
a(S'populations'
p1618
S'population'
p1619
S'NNS'
p1620
S'I-NP'
p1621
g5
tp1622
a(g111
g111
g111
g5
g5
tp1623
a(g57
g57
g57
g5
g5
tp1624
a(S'Effect'
p1625
S'Effect'
p1626
S'NN'
p1627
S'B-NP'
p1628
g5
tp1629
a(S'sizes'
p1630
S'size'
p1631
S'VBZ'
p1632
S'B-VP'
p1633
g5
tp1634
a(S'for'
p1635
S'for'
p1636
S'IN'
p1637
S'B-PP'
p1638
g5
tp1639
a(S'TPM'
p1640
S'TPM'
p1641
S'NN'
p1642
S'B-NP'
p1643
g5
tp1644
a(S'100'
p1645
S'100'
p1646
S'CD'
p1647
S'I-NP'
p1648
g5
tp1649
a(S'mg/d'
p1650
S'mg/d'
p1651
S'NN'
p1652
S'I-NP'
p1653
g5
tp1654
a(S'varied'
p1655
S'vary'
p1656
S'VBD'
p1657
S'B-VP'
p1658
g5
tp1659
a(S'from'
p1660
S'from'
p1661
S'IN'
p1662
S'B-PP'
p1663
g5
tp1664
a(S'0.40'
p1665
S'0.40'
p1666
S'CD'
p1667
S'B-NP'
p1668
g5
tp1669
a(S'to'
p1670
S'to'
p1671
S'TO'
p1672
S'B-PP'
p1673
g5
tp1674
a(S'0.78'
p1675
S'0.78'
p1676
S'CD'
p1677
S'B-NP'
p1678
g5
tp1679
a(g205
g205
g205
g5
g5
tp1680
a(S'indicating'
p1681
S'indicate'
p1682
S'VBG'
p1683
S'B-VP'
p1684
g5
tp1685
a(S'that'
p1686
S'that'
p1687
S'IN'
p1688
S'B-SBAR'
p1689
g5
tp1690
a(S'the'
p1691
S'the'
p1692
S'DT'
p1693
S'B-NP'
p1694
g5
tp1695
a(S'changes'
p1696
S'change'
p1697
S'NNS'
p1698
S'I-NP'
p1699
g5
tp1700
a(S'in'
p1701
S'in'
p1702
S'IN'
p1703
S'B-PP'
p1704
g5
tp1705
a(S'MSQ'
p1706
S'MSQ'
p1707
S'NN'
p1708
S'B-NP'
p1709
S'B-DNA'
p1710
tp1711
a(S'scores'
p1712
S'score'
p1713
S'NNS'
p1714
S'I-NP'
p1715
S'I-DNA'
p1716
tp1717
a(S'for'
p1718
S'for'
p1719
S'IN'
p1720
S'B-PP'
p1721
g5
tp1722
a(S'TPM'
p1723
S'TPM'
p1724
S'NN'
p1725
S'B-NP'
p1726
g5
tp1727
a(S'100'
p1728
S'100'
p1729
S'CD'
p1730
S'I-NP'
p1731
g5
tp1732
a(S'mg/d'
p1733
S'mg/d'
p1734
S'NN'
p1735
S'I-NP'
p1736
g5
tp1737
a(S'were'
p1738
S'be'
p1739
S'VBD'
p1740
S'B-VP'
p1741
g5
tp1742
a(S'moderate'
p1743
S'moderate'
p1744
S'JJ'
p1745
S'B-ADJP'
p1746
g5
tp1747
a(S'and'
p1748
S'and'
p1749
S'CC'
p1750
g5
g5
tp1751
a(S'may'
p1752
S'may'
p1753
S'MD'
p1754
S'B-VP'
p1755
g5
tp1756
a(S'be'
p1757
S'be'
p1758
S'VB'
p1759
S'I-VP'
p1760
g5
tp1761
a(S'clinically'
p1762
S'clinically'
p1763
S'RB'
p1764
S'B-ADJP'
p1765
g5
tp1766
a(S'significant'
p1767
S'significant'
p1768
S'JJ'
p1769
S'I-ADJP'
p1770
g5
tp1771
a(g57
g57
g57
g5
g5
tp1772
a(S'CONCLUSION'
p1773
S'CONCLUSION'
p1774
S'NN'
p1775
S'B-NP'
p1776
g5
tp1777
a(S'TPM'
p1778
S'TPM'
p1779
S'NN'
p1780
S'I-NP'
p1781
g5
tp1782
a(S'100'
p1783
S'100'
p1784
S'CD'
p1785
S'I-NP'
p1786
g5
tp1787
a(S'mg/d'
p1788
S'mg/d'
p1789
S'NN'
p1790
S'I-NP'
p1791
g5
tp1792
a(S'has'
p1793
S'have'
p1794
S'VBZ'
p1795
S'B-VP'
p1796
g5
tp1797
a(S'been'
p1798
S'be'
p1799
S'VBN'
p1800
S'I-VP'
p1801
g5
tp1802
a(S'shown'
p1803
S'show'
p1804
S'VBN'
p1805
S'I-VP'
p1806
g5
tp1807
a(S'to'
p1808
S'to'
p1809
S'TO'
p1810
S'I-VP'
p1811
g5
tp1812
a(S'be'
p1813
S'be'
p1814
S'VB'
p1815
S'I-VP'
p1816
g5
tp1817
a(S'effective'
p1818
S'effective'
p1819
S'JJ'
p1820
S'B-ADJP'
p1821
g5
tp1822
a(S'in'
p1823
S'in'
p1824
S'IN'
p1825
S'B-PP'
p1826
g5
tp1827
a(S'the'
p1828
S'the'
p1829
S'DT'
p1830
S'B-NP'
p1831
g5
tp1832
a(S'prevention'
p1833
S'prevention'
p1834
S'NN'
p1835
S'I-NP'
p1836
g5
tp1837
a(S'of'
p1838
S'of'
p1839
S'IN'
p1840
S'B-PP'
p1841
g5
tp1842
a(S'migraine'
p1843
S'migraine'
p1844
S'NN'
p1845
S'B-NP'
p1846
g5
tp1847
a(S'headache'
p1848
S'headache'
p1849
S'NN'
p1850
S'I-NP'
p1851
g5
tp1852
a(S'in'
p1853
S'in'
p1854
S'IN'
p1855
S'B-PP'
p1856
g5
tp1857
a(S'adults.'
p1858
S'adults.'
p1859
S'NN'
p1860
S'B-NP'
p1861
g5
tp1862
a(S'As'
p1863
S'As'
p1864
S'IN'
p1865
S'B-SBAR'
p1866
g5
tp1867
a(S'the'
p1868
S'the'
p1869
S'DT'
p1870
S'B-NP'
p1871
g5
tp1872
a(S'MSQ'
p1873
S'MSQ'
p1874
S'NN'
p1875
S'I-NP'
p1876
S'B-protein'
p1877
tp1878
a(S'results'
p1879
S'result'
p1880
S'VBZ'
p1881
S'B-VP'
p1882
g5
tp1883
a(S'from'
p1884
S'from'
p1885
S'IN'
p1886
S'B-PP'
p1887
g5
tp1888
a(S'the'
p1889
S'the'
p1890
S'DT'
p1891
S'B-NP'
p1892
g5
tp1893
a(S'three'
p1894
S'three'
p1895
S'CD'
p1896
S'I-NP'
p1897
g5
tp1898
a(S'randomized'
p1899
S'randomize'
p1900
S'VBN'
p1901
S'I-NP'
p1902
g5
tp1903
a(g205
g205
g205
S'I-NP'
p1904
g5
tp1905
a(S'placebo-controlled'
p1906
S'placebo-controlled'
p1907
S'JJ'
p1908
S'I-NP'
p1909
g5
tp1910
a(S'trials'
p1911
S'trial'
p1912
S'NNS'
p1913
S'I-NP'
p1914
g5
tp1915
a(S'indicate'
p1916
S'indicate'
p1917
S'VBP'
p1918
S'B-VP'
p1919
g5
tp1920
a(g205
g205
g205
g5
g5
tp1921
a(S'HRQoL'
p1922
S'HRQoL'
p1923
S'NN'
p1924
S'B-NP'
p1925
g5
tp1926
a(S'is'
p1927
S'be'
p1928
S'VBZ'
p1929
S'B-VP'
p1930
g5
tp1931
a(S'significantly'
p1932
S'significantly'
p1933
S'RB'
p1934
S'I-VP'
p1935
g5
tp1936
a(S'improved'
p1937
S'improve'
p1938
S'VBN'
p1939
S'I-VP'
p1940
g5
tp1941
a(S'for'
p1942
S'for'
p1943
S'IN'
p1944
S'B-PP'
p1945
g5
tp1946
a(S'up'
p1947
S'up'
p1948
S'RB'
p1949
S'B-NP'
p1950
g5
tp1951
a(S'to'
p1952
S'to'
p1953
S'TO'
p1954
S'I-NP'
p1955
g5
tp1956
a(S'6'
p1957
g1957
S'CD'
p1958
S'I-NP'
p1959
g5
tp1960
a(S'months'
p1961
S'month'
p1962
S'NNS'
p1963
S'I-NP'
p1964
g5
tp1965
a(S'following'
p1966
S'follow'
p1967
S'VBG'
p1968
S'B-PP'
p1969
g5
tp1970
a(S'initiation'
p1971
S'initiation'
p1972
S'NN'
p1973
S'B-NP'
p1974
g5
tp1975
a(S'of'
p1976
S'of'
p1977
S'IN'
p1978
S'B-PP'
p1979
g5
tp1980
a(S'treatment'
p1981
S'treatment'
p1982
S'NN'
p1983
S'B-NP'
p1984
g5
tp1985
a(g57
g57
g57
g5
g5
tp1986
a.