(lp0
(S'Prevalence'
p1
S'Prevalence'
p2
S'NN'
p3
S'B-NP'
p4
S'O'
p5
tp6
a(S'of'
p7
S'of'
p8
S'IN'
p9
S'B-PP'
p10
g5
tp11
a(S'metabolic'
p12
S'metabolic'
p13
S'JJ'
p14
S'B-NP'
p15
g5
tp16
a(S'syndrome'
p17
S'syndrome'
p18
S'NN'
p19
S'I-NP'
p20
g5
tp21
a(S'in'
p22
S'in'
p23
S'IN'
p24
S'B-PP'
p25
g5
tp26
a(S'rural'
p27
S'rural'
p28
S'JJ'
p29
S'B-NP'
p30
g5
tp31
a(S'and'
p32
S'and'
p33
S'CC'
p34
S'I-NP'
p35
g5
tp36
a(S'urban'
p37
S'urban'
p38
S'JJ'
p39
S'I-NP'
p40
g5
tp41
a(S'Chinese'
p42
S'Chinese'
p43
S'JJ'
p44
S'I-NP'
p45
g5
tp46
a(S'population'
p47
S'population'
p48
S'NN'
p49
S'I-NP'
p50
g5
tp51
a(S'in'
p52
S'in'
p53
S'IN'
p54
S'B-PP'
p55
g5
tp56
a(S'Qingdao'
p57
S'Qingdao'
p58
S'NNP'
p59
S'B-NP'
p60
g5
tp61
a(S'.'
p62
g62
g62
g5
g5
tp63
a(S'AIMS'
p64
S'AIMS'
p65
S'NNS'
p66
S'B-NP'
p67
g5
tp68
a(S'To'
p69
S'To'
p70
S'TO'
p71
S'B-VP'
p72
g5
tp73
a(S'investigate'
p74
S'investigate'
p75
S'VB'
p76
S'I-VP'
p77
g5
tp78
a(S'the'
p79
S'the'
p80
S'DT'
p81
S'B-NP'
p82
g5
tp83
a(S'prevalence'
p84
S'prevalence'
p85
S'NN'
p86
S'I-NP'
p87
g5
tp88
a(S'of'
p89
S'of'
p90
S'IN'
p91
S'B-PP'
p92
g5
tp93
a(S'metabolic'
p94
S'metabolic'
p95
S'JJ'
p96
S'B-NP'
p97
g5
tp98
a(S'syndrome'
p99
S'syndrome'
p100
S'NN'
p101
S'I-NP'
p102
g5
tp103
a(S'and'
p104
S'and'
p105
S'CC'
p106
g5
g5
tp107
a(S'its'
p108
S'its'
p109
S'PRP$'
p110
S'B-NP'
p111
g5
tp112
a(S'components'
p113
S'component'
p114
S'NNS'
p115
S'I-NP'
p116
g5
tp117
a(S'in'
p118
S'in'
p119
S'IN'
p120
S'B-PP'
p121
g5
tp122
a(S'both'
p123
S'both'
p124
S'CC'
p125
S'B-NP'
p126
g5
tp127
a(S'rural'
p128
S'rural'
p129
S'JJ'
p130
S'I-NP'
p131
g5
tp132
a(S'and'
p133
S'and'
p134
S'CC'
p135
S'I-NP'
p136
g5
tp137
a(S'urban'
p138
S'urban'
p139
S'JJ'
p140
S'I-NP'
p141
g5
tp142
a(S'Chinese'
p143
S'Chinese'
p144
S'JJ'
p145
S'I-NP'
p146
g5
tp147
a(S'population'
p148
S'population'
p149
S'NN'
p150
S'I-NP'
p151
g5
tp152
a(g62
g62
g62
g5
g5
tp153
a(S'SUBJECTS'
p154
S'SUBJECTS'
p155
S'NNS'
p156
S'B-NP'
p157
g5
tp158
a(S'AND'
p159
S'AND'
p160
S'CC'
p161
S'I-NP'
p162
g5
tp163
a(S'METHODS'
p164
S'METHODS'
p165
S'NNS'
p166
S'I-NP'
p167
g5
tp168
a(S'A'
p169
g169
S'DT'
p170
S'B-NP'
p171
g5
tp172
a(S'population-based'
p173
S'population-based'
p174
S'JJ'
p175
S'I-NP'
p176
g5
tp177
a(S'crosssectional'
p178
S'crosssectional'
p179
S'JJ'
p180
S'I-NP'
p181
g5
tp182
a(S'survey'
p183
S'survey'
p184
S'NN'
p185
S'I-NP'
p186
g5
tp187
a(S'was'
p188
S'be'
p189
S'VBD'
p190
S'B-VP'
p191
g5
tp192
a(S'conducted'
p193
S'conduct'
p194
S'VBN'
p195
S'I-VP'
p196
g5
tp197
a(S'in'
p198
S'in'
p199
S'IN'
p200
S'B-PP'
p201
g5
tp202
a(S'Qingdao'
p203
S'Qingdao'
p204
S'NNP'
p205
S'B-NP'
p206
g5
tp207
a(S','
p208
g208
g208
g5
g5
tp209
a(S'China'
p210
S'China'
p211
S'NNP'
p212
S'B-NP'
p213
g5
tp214
a(S'in'
p215
S'in'
p216
S'IN'
p217
S'B-PP'
p218
g5
tp219
a(S'2006'
p220
S'2006'
p221
S'CD'
p222
S'B-NP'
p223
g5
tp224
a(S'with'
p225
S'with'
p226
S'IN'
p227
S'B-PP'
p228
g5
tp229
a(S'6100'
p230
S'6100'
p231
S'CD'
p232
S'B-NP'
p233
g5
tp234
a(S'Chinese'
p235
S'Chinese'
p236
S'JJ'
p237
S'I-NP'
p238
g5
tp239
a(S'aged'
p240
S'aged'
p241
S'JJ'
p242
S'I-NP'
p243
g5
tp244
a(S'35-74'
p245
S'35-74'
p246
S'CD'
p247
S'I-NP'
p248
g5
tp249
a(S'yr'
p250
S'yr'
p251
S'NN'
p252
S'I-NP'
p253
g5
tp254
a(S'invited'
p255
S'invite'
p256
S'VBN'
p257
S'B-VP'
p258
g5
tp259
a(S'and'
p260
S'and'
p261
S'CC'
p262
g5
g5
tp263
a(S'5355'
p264
S'5355'
p265
S'CD'
p266
S'B-NP'
p267
g5
tp268
a(S'who'
p269
S'who'
p270
S'WP'
p271
S'B-NP'
p272
g5
tp273
a(S'attended'
p274
S'attend'
p275
S'VBD'
p276
S'B-VP'
p277
g5
tp278
a(S';'
p279
g279
S':'
p280
g5
g5
tp281
a(S'3357'
p282
S'3357'
p283
S'CD'
p284
S'B-NP'
p285
g5
tp286
a(S'subjects'
p287
S'subject'
p288
S'NNS'
p289
S'I-NP'
p290
g5
tp291
a(g208
g208
g208
g5
g5
tp292
a(S'1562'
p293
S'1562'
p294
S'CD'
p295
S'B-NP'
p296
g5
tp297
a(S'urban'
p298
S'urban'
p299
S'JJ'
p300
S'I-NP'
p301
g5
tp302
a(S'('
p303
g303
g303
g5
g5
tp304
a(S'46.5'
p305
S'46.5'
p306
S'CD'
p307
S'B-NP'
p308
g5
tp309
a(S'%'
p310
g310
S'NN'
p311
S'I-NP'
p312
g5
tp313
a(S')'
p314
g314
g314
g5
g5
tp315
a(S'and'
p316
S'and'
p317
S'CC'
p318
g5
g5
tp319
a(S'1795'
p320
S'1795'
p321
S'CD'
p322
S'B-NP'
p323
g5
tp324
a(S'rural'
p325
S'rural'
p326
S'JJ'
p327
S'I-NP'
p328
g5
tp329
a(S'residents'
p330
S'resident'
p331
S'NNS'
p332
S'I-NP'
p333
g5
tp334
a(g303
g303
g303
g5
g5
tp335
a(S'53.5'
p336
S'53.5'
p337
S'CD'
p338
S'B-NP'
p339
g5
tp340
a(g310
g310
S'NN'
p341
S'I-NP'
p342
g5
tp343
a(g314
g314
g314
g5
g5
tp344
a(S'met'
p345
S'meet'
p346
S'VBD'
p347
S'B-VP'
p348
g5
tp349
a(S'the'
p350
S'the'
p351
S'DT'
p352
S'B-NP'
p353
g5
tp354
a(S'inclusion'
p355
S'inclusion'
p356
S'NN'
p357
S'I-NP'
p358
g5
tp359
a(S'criteria'
p360
S'criterion'
p361
S'NNS'
p362
S'I-NP'
p363
g5
tp364
a(S'for'
p365
S'for'
p366
S'IN'
p367
S'B-PP'
p368
g5
tp369
a(S'the'
p370
S'the'
p371
S'DT'
p372
S'B-NP'
p373
g5
tp374
a(S'current'
p375
S'current'
p376
S'JJ'
p377
S'I-NP'
p378
g5
tp379
a(S'data'
p380
S'datum'
p381
S'NNS'
p382
S'I-NP'
p383
g5
tp384
a(S'analysis.'
p385
S'analysis.'
p386
S'VBP'
p387
S'B-VP'
p388
g5
tp389
a(S'The'
p390
S'The'
p391
S'DT'
p392
S'B-NP'
p393
g5
tp394
a(S'metabolic'
p395
S'metabolic'
p396
S'JJ'
p397
S'I-NP'
p398
g5
tp399
a(S'syndrome'
p400
S'syndrome'
p401
S'NN'
p402
S'I-NP'
p403
g5
tp404
a(S'definitions'
p405
S'definition'
p406
S'NNS'
p407
S'I-NP'
p408
g5
tp409
a(S'of'
p410
S'of'
p411
S'IN'
p412
S'B-PP'
p413
g5
tp414
a(S'National'
p415
S'National'
p416
S'NNP'
p417
S'B-NP'
p418
g5
tp419
a(S'Cholesterol'
p420
S'Cholesterol'
p421
S'NNP'
p422
S'I-NP'
p423
g5
tp424
a(S'Education'
p425
S'Education'
p426
S'NNP'
p427
S'I-NP'
p428
g5
tp429
a(S'Program'
p430
S'Program'
p431
S'NNP'
p432
S'I-NP'
p433
g5
tp434
a(S'Adult'
p435
S'Adult'
p436
S'NNP'
p437
S'I-NP'
p438
g5
tp439
a(S'Treatment'
p440
S'Treatment'
p441
S'NNP'
p442
S'I-NP'
p443
g5
tp444
a(S'Expert'
p445
S'Expert'
p446
S'NNP'
p447
S'I-NP'
p448
g5
tp449
a(S'Panel'
p450
S'Panel'
p451
S'NNP'
p452
S'I-NP'
p453
g5
tp454
a(S'III'
p455
S'III'
p456
S'CD'
p457
S'I-NP'
p458
g5
tp459
a(g303
g303
g303
g5
g5
tp460
a(S'NCEPATPIII'
p461
S'NCEPATPIII'
p462
S'NN'
p463
S'B-NP'
p464
g5
tp465
a(g314
g314
g314
g5
g5
tp466
a(S'2004'
p467
S'2004'
p468
S'CD'
p469
S'B-NP'
p470
g5
tp471
a(g208
g208
g208
g5
g5
tp472
a(S'NCEP'
p473
S'NCEP'
p474
S'NN'
p475
S'B-NP'
p476
g5
tp477
a(S'2005'
p478
S'2005'
p479
S'CD'
p480
S'I-NP'
p481
g5
tp482
a(S'and'
p483
S'and'
p484
S'CC'
p485
g5
g5
tp486
a(S'International'
p487
S'International'
p488
S'NNP'
p489
S'B-NP'
p490
g5
tp491
a(S'Diabetes'
p492
S'Diabetes'
p493
S'NNP'
p494
S'I-NP'
p495
g5
tp496
a(S'Federation'
p497
S'Federation'
p498
S'NNP'
p499
S'I-NP'
p500
g5
tp501
a(g303
g303
g303
g5
g5
tp502
a(S'IDF'
p503
S'IDF'
p504
S'NN'
p505
S'B-NP'
p506
S'B-protein'
p507
tp508
a(g314
g314
g314
g5
g5
tp509
a(S'were'
p510
S'be'
p511
S'VBD'
p512
S'B-VP'
p513
g5
tp514
a(S'used'
p515
S'use'
p516
S'VBN'
p517
S'I-VP'
p518
g5
tp519
a(g62
g62
g62
g5
g5
tp520
a(S'RESULTS'
p521
S'RESULTS'
p522
S'NNS'
p523
S'B-NP'
p524
g5
tp525
a(S'The'
p526
S'The'
p527
S'DT'
p528
S'B-NP'
p529
g5
tp530
a(S'age-standardized'
p531
S'age-standardized'
p532
S'JJ'
p533
S'I-NP'
p534
g5
tp535
a(S'prevalences'
p536
S'prevalence'
p537
S'NNS'
p538
S'I-NP'
p539
g5
tp540
a(S'of'
p541
S'of'
p542
S'IN'
p543
S'B-PP'
p544
g5
tp545
a(S'metabolic'
p546
S'metabolic'
p547
S'JJ'
p548
S'B-NP'
p549
g5
tp550
a(S'syndrome'
p551
S'syndrome'
p552
S'NN'
p553
S'I-NP'
p554
g5
tp555
a(S'were'
p556
S'be'
p557
S'VBD'
p558
S'B-VP'
p559
g5
tp560
a(S'16.2'
p561
S'16.2'
p562
S'CD'
p563
S'B-NP'
p564
g5
tp565
a(g310
g310
S'NN'
p566
S'I-NP'
p567
g5
tp568
a(g208
g208
g208
g5
g5
tp569
a(S'32.2'
p570
S'32.2'
p571
S'CD'
p572
S'B-NP'
p573
g5
tp574
a(g310
g310
S'NN'
p575
S'I-NP'
p576
g5
tp577
a(g208
g208
g208
g5
g5
tp578
a(S'and'
p579
S'and'
p580
S'CC'
p581
g5
g5
tp582
a(S'28.3'
p583
S'28.3'
p584
S'CD'
p585
S'B-NP'
p586
g5
tp587
a(g310
g310
S'NN'
p588
S'I-NP'
p589
g5
tp590
a(S'in'
p591
S'in'
p592
S'IN'
p593
S'B-PP'
p594
g5
tp595
a(S'men'
p596
S'man'
p597
S'NNS'
p598
S'B-NP'
p599
g5
tp600
a(S'and'
p601
S'and'
p602
S'CC'
p603
g5
g5
tp604
a(S'26.8'
p605
S'26.8'
p606
S'CD'
p607
S'B-NP'
p608
g5
tp609
a(g310
g310
S'NN'
p610
S'I-NP'
p611
g5
tp612
a(g208
g208
g208
g5
g5
tp613
a(S'37.2'
p614
S'37.2'
p615
S'CD'
p616
S'B-NP'
p617
g5
tp618
a(g310
g310
S'NN'
p619
S'I-NP'
p620
g5
tp621
a(g208
g208
g208
g5
g5
tp622
a(S'and'
p623
S'and'
p624
S'CC'
p625
g5
g5
tp626
a(S'34.6'
p627
S'34.6'
p628
S'CD'
p629
S'B-NP'
p630
g5
tp631
a(g310
g310
S'NN'
p632
S'I-NP'
p633
g5
tp634
a(S'in'
p635
S'in'
p636
S'IN'
p637
S'B-PP'
p638
g5
tp639
a(S'women'
p640
S'woman'
p641
S'NNS'
p642
S'B-NP'
p643
g5
tp644
a(g208
g208
g208
g5
g5
tp645
a(S'according'
p646
S'accord'
p647
S'VBG'
p648
S'B-PP'
p649
g5
tp650
a(S'to'
p651
S'to'
p652
S'TO'
p653
S'B-PP'
p654
g5
tp655
a(S'the'
p656
S'the'
p657
S'DT'
p658
S'B-NP'
p659
g5
tp660
a(S'definitions'
p661
S'definition'
p662
S'NNS'
p663
S'I-NP'
p664
g5
tp665
a(S'of'
p666
S'of'
p667
S'IN'
p668
S'B-PP'
p669
g5
tp670
a(S'the'
p671
S'the'
p672
S'DT'
p673
S'B-NP'
p674
g5
tp675
a(S'NCEP'
p676
S'NCEP'
p677
S'NN'
p678
S'I-NP'
p679
S'B-DNA'
p680
tp681
a(S'2004'
p682
S'2004'
p683
S'CD'
p684
S'I-NP'
p685
S'I-DNA'
p686
tp687
a(g208
g208
g208
g5
g5
tp688
a(S'NCEP'
p689
S'NCEP'
p690
S'NN'
p691
S'B-NP'
p692
S'B-protein'
p693
tp694
a(S'2005'
p695
S'2005'
p696
S'CD'
p697
S'I-NP'
p698
S'I-protein'
p699
tp700
a(g208
g208
g208
g5
g5
tp701
a(S'and'
p702
S'and'
p703
S'CC'
p704
g5
g5
tp705
a(S'IDF'
p706
S'IDF'
p707
S'NN'
p708
S'B-NP'
p709
S'B-protein'
p710
tp711
a(g208
g208
g208
g5
g5
tp712
a(S'respectively.'
p713
S'respectively.'
p714
S'VBP'
p715
S'B-VP'
p716
g5
tp717
a(S'Urban'
p718
S'Urban'
p719
S'NNP'
p720
S'B-NP'
p721
g5
tp722
a(S'men'
p723
S'man'
p724
S'NNS'
p725
S'I-NP'
p726
g5
tp727
a(S'have'
p728
S'have'
p729
S'VBP'
p730
S'B-VP'
p731
g5
tp732
a(S'more'
p733
S'more'
p734
S'JJR'
p735
S'B-NP'
p736
g5
tp737
a(S'risk'
p738
S'risk'
p739
S'NN'
p740
S'I-NP'
p741
g5
tp742
a(S'factors'
p743
S'factor'
p744
S'NNS'
p745
S'I-NP'
p746
g5
tp747
a(S'and'
p748
S'and'
p749
S'CC'
p750
g5
g5
tp751
a(S'higher'
p752
S'high'
p753
S'JJR'
p754
S'B-NP'
p755
g5
tp756
a(S'prevalence'
p757
S'prevalence'
p758
S'NN'
p759
S'I-NP'
p760
g5
tp761
a(S'of'
p762
S'of'
p763
S'IN'
p764
S'B-PP'
p765
g5
tp766
a(S'the'
p767
S'the'
p768
S'DT'
p769
S'B-NP'
p770
g5
tp771
a(S'metabolic'
p772
S'metabolic'
p773
S'JJ'
p774
S'I-NP'
p775
g5
tp776
a(S'syndrome'
p777
S'syndrome'
p778
S'NN'
p779
S'I-NP'
p780
g5
tp781
a(S'than'
p782
S'than'
p783
S'IN'
p784
S'B-PP'
p785
g5
tp786
a(S'rural'
p787
S'rural'
p788
S'JJ'
p789
S'B-NP'
p790
g5
tp791
a(S'men'
p792
S'man'
p793
S'NNS'
p794
S'I-NP'
p795
g5
tp796
a(g208
g208
g208
g5
g5
tp797
a(S'but'
p798
S'but'
p799
S'CC'
p800
g5
g5
tp801
a(S'the'
p802
S'the'
p803
S'DT'
p804
S'B-NP'
p805
g5
tp806
a(S'differences'
p807
S'difference'
p808
S'NNS'
p809
S'I-NP'
p810
g5
tp811
a(S'in'
p812
S'in'
p813
S'IN'
p814
S'B-PP'
p815
g5
tp816
a(S'women'
p817
S'woman'
p818
S'NNS'
p819
S'B-NP'
p820
g5
tp821
a(S'were'
p822
S'be'
p823
S'VBD'
p824
S'B-VP'
p825
g5
tp826
a(S'not'
p827
S'not'
p828
S'RB'
p829
g5
g5
tp830
a(S'that'
p831
S'that'
p832
S'IN'
p833
S'B-SBAR'
p834
g5
tp835
a(S'striking.'
p836
S'striking.'
p837
S'JJ'
p838
S'B-NP'
p839
g5
tp840
a(S'Elevated'
p841
S'Elevated'
p842
S'JJ'
p843
S'I-NP'
p844
g5
tp845
a(S'blood'
p846
S'blood'
p847
S'NN'
p848
S'I-NP'
p849
g5
tp850
a(S'pressure'
p851
S'pressure'
p852
S'NN'
p853
S'I-NP'
p854
g5
tp855
a(g303
g303
g303
g5
g5
tp856
a(S'62.6'
p857
S'62.6'
p858
S'CD'
p859
S'B-NP'
p860
g5
tp861
a(g310
g310
S'NN'
p862
S'I-NP'
p863
g5
tp864
a(g314
g314
g314
g5
g5
tp865
a(S'was'
p866
S'be'
p867
S'VBD'
p868
S'B-VP'
p869
g5
tp870
a(g208
g208
g208
g5
g5
tp871
a(S'among'
p872
S'among'
p873
S'IN'
p874
S'B-PP'
p875
g5
tp876
a(S'risk'
p877
S'risk'
p878
S'NN'
p879
S'B-NP'
p880
g5
tp881
a(S'factors'
p882
S'factor'
p883
S'NNS'
p884
S'I-NP'
p885
g5
tp886
a(g208
g208
g208
g5
g5
tp887
a(S'most'
p888
S'most'
p889
S'RBS'
p890
S'B-ADJP'
p891
g5
tp892
a(S'common'
p893
S'common'
p894
S'JJ'
p895
S'I-ADJP'
p896
g5
tp897
a(S'in'
p898
S'in'
p899
S'IN'
p900
S'B-PP'
p901
g5
tp902
a(S'the'
p903
S'the'
p904
S'DT'
p905
S'B-NP'
p906
g5
tp907
a(S'study'
p908
S'study'
p909
S'NN'
p910
S'I-NP'
p911
g5
tp912
a(S'population'
p913
S'population'
p914
S'NN'
p915
S'I-NP'
p916
g5
tp917
a(g208
g208
g208
g5
g5
tp918
a(S'followed'
p919
S'follow'
p920
S'VBN'
p921
S'B-VP'
p922
g5
tp923
a(S'by'
p924
S'by'
p925
S'IN'
p926
S'B-PP'
p927
g5
tp928
a(S'central'
p929
S'central'
p930
S'JJ'
p931
S'B-NP'
p932
g5
tp933
a(S'obesity'
p934
S'obesity'
p935
S'NN'
p936
S'I-NP'
p937
g5
tp938
a(g303
g303
g303
g5
g5
tp939
a(S'53.4'
p940
S'53.4'
p941
S'CD'
p942
S'B-NP'
p943
g5
tp944
a(g310
g310
S'NN'
p945
S'I-NP'
p946
g5
tp947
a(g314
g314
g314
g5
g5
tp948
a(g208
g208
g208
g5
g5
tp949
a(S'and'
p950
S'and'
p951
S'CC'
p952
g5
g5
tp953
a(S'hyperglycemia'
p954
S'hyperglycemia'
p955
S'NN'
p956
S'B-NP'
p957
g5
tp958
a(g303
g303
g303
g5
g5
tp959
a(S'52.2'
p960
S'52.2'
p961
S'CD'
p962
S'B-NP'
p963
g5
tp964
a(g310
g310
S'NN'
p965
S'I-NP'
p966
g5
tp967
a(g314
g314
g314
g5
g5
tp968
a(S'defined'
p969
S'define'
p970
S'VBN'
p971
S'B-VP'
p972
g5
tp973
a(S'using'
p974
S'use'
p975
S'VBG'
p976
S'B-VP'
p977
g5
tp978
a(S'the'
p979
S'the'
p980
S'DT'
p981
S'B-NP'
p982
g5
tp983
a(S'NCEP'
p984
S'NCEP'
p985
S'NN'
p986
S'I-NP'
p987
g5
tp988
a(S'2005'
p989
S'2005'
p990
S'CD'
p991
S'B-NP'
p992
g5
tp993
a(S'criteria'
p994
S'criterion'
p995
S'NNS'
p996
S'I-NP'
p997
g5
tp998
a(g62
g62
g62
g5
g5
tp999
a(S'CONCLUSIONS'
p1000
S'CONCLUSIONS'
p1001
S'NNS'
p1002
S'B-NP'
p1003
g5
tp1004
a(S'Metabolic'
p1005
S'Metabolic'
p1006
S'JJ'
p1007
S'I-NP'
p1008
g5
tp1009
a(S'disorders'
p1010
S'disorder'
p1011
S'NNS'
p1012
S'I-NP'
p1013
g5
tp1014
a(S'were'
p1015
S'be'
p1016
S'VBD'
p1017
S'B-VP'
p1018
g5
tp1019
a(S'common'
p1020
S'common'
p1021
S'JJ'
p1022
S'B-ADJP'
p1023
g5
tp1024
a(S'among'
p1025
S'among'
p1026
S'IN'
p1027
S'B-PP'
p1028
g5
tp1029
a(S'adult'
p1030
S'adult'
p1031
S'JJ'
p1032
S'B-NP'
p1033
g5
tp1034
a(S'Chinese'
p1035
S'Chinese'
p1036
S'NNS'
p1037
S'I-NP'
p1038
g5
tp1039
a(S'in'
p1040
S'in'
p1041
S'IN'
p1042
S'B-PP'
p1043
g5
tp1044
a(S'both'
p1045
S'both'
p1046
S'CC'
p1047
S'B-NP'
p1048
g5
tp1049
a(S'rural'
p1050
S'rural'
p1051
S'JJ'
p1052
S'I-NP'
p1053
g5
tp1054
a(S'and'
p1055
S'and'
p1056
S'CC'
p1057
S'I-NP'
p1058
g5
tp1059
a(S'urban'
p1060
S'urban'
p1061
S'JJ'
p1062
S'I-NP'
p1063
g5
tp1064
a(S'areas'
p1065
S'area'
p1066
S'NNS'
p1067
S'I-NP'
p1068
g5
tp1069
a(S'in'
p1070
S'in'
p1071
S'IN'
p1072
S'B-PP'
p1073
g5
tp1074
a(S'Qingdao'
p1075
S'Qingdao'
p1076
S'NNP'
p1077
S'B-NP'
p1078
g5
tp1079
a(g62
g62
g62
g5
g5
tp1080
a.