(lp0
(S'Oral'
p1
S'Oral'
p2
S'JJ'
p3
S'B-NP'
p4
S'O'
p5
tp6
a(S'ganciclovir'
p7
S'ganciclovir'
p8
S'NN'
p9
S'I-NP'
p10
g5
tp11
a(S'dosing'
p12
S'dosing'
p13
S'NN'
p14
S'I-NP'
p15
g5
tp16
a(S'in'
p17
S'in'
p18
S'IN'
p19
S'B-PP'
p20
g5
tp21
a(S'transplant'
p22
S'transplant'
p23
S'NN'
p24
S'B-NP'
p25
g5
tp26
a(S'recipients'
p27
S'recipient'
p28
S'NNS'
p29
S'I-NP'
p30
g5
tp31
a(S'and'
p32
S'and'
p33
S'CC'
p34
g5
g5
tp35
a(S'dialysis'
p36
S'dialysis'
p37
S'NN'
p38
S'B-NP'
p39
g5
tp40
a(S'patients'
p41
S'patient'
p42
S'NNS'
p43
S'I-NP'
p44
g5
tp45
a(S'based'
p46
S'base'
p47
S'VBN'
p48
S'B-PP'
p49
g5
tp50
a(S'on'
p51
S'on'
p52
S'IN'
p53
S'B-PP'
p54
g5
tp55
a(S'renal'
p56
S'renal'
p57
S'JJ'
p58
S'B-NP'
p59
g5
tp60
a(S'function'
p61
S'function'
p62
S'NN'
p63
S'I-NP'
p64
g5
tp65
a(S'.'
p66
g66
g66
g5
g5
tp67
a(S'BACKGROUND'
p68
S'BACKGROUND'
p69
S'NN'
p70
S'B-NP'
p71
g5
tp72
a(S'An'
p73
S'An'
p74
S'DT'
p75
S'B-NP'
p76
g5
tp77
a(S'oral'
p78
S'oral'
p79
S'JJ'
p80
S'I-NP'
p81
g5
tp82
a(S'formulation'
p83
S'formulation'
p84
S'NN'
p85
S'I-NP'
p86
g5
tp87
a(S'of'
p88
S'of'
p89
S'IN'
p90
S'B-PP'
p91
g5
tp92
a(S'ganciclovir'
p93
S'ganciclovir'
p94
S'NN'
p95
S'B-NP'
p96
g5
tp97
a(S'('
p98
g98
g98
g5
g5
tp99
a(S'GCV'
p100
S'GCV'
p101
S'NN'
p102
S'B-NP'
p103
S'B-protein'
p104
tp105
a(S')'
p106
g106
g106
g5
g5
tp107
a(S'was'
p108
S'be'
p109
S'VBD'
p110
S'B-VP'
p111
g5
tp112
a(S'recently'
p113
S'recently'
p114
S'RB'
p115
S'I-VP'
p116
g5
tp117
a(S'approved'
p118
S'approve'
p119
S'VBN'
p120
S'I-VP'
p121
g5
tp122
a(S'for'
p123
S'for'
p124
S'IN'
p125
S'B-PP'
p126
g5
tp127
a(S'the'
p128
S'the'
p129
S'DT'
p130
S'B-NP'
p131
g5
tp132
a(S'prevention'
p133
S'prevention'
p134
S'NN'
p135
S'I-NP'
p136
g5
tp137
a(S'of'
p138
S'of'
p139
S'IN'
p140
S'B-PP'
p141
g5
tp142
a(S'cytomegalovirus'
p143
S'cytomegalovirus'
p144
S'NN'
p145
S'B-NP'
p146
g5
tp147
a(S'disease'
p148
S'disease'
p149
S'NN'
p150
S'I-NP'
p151
g5
tp152
a(S'in'
p153
S'in'
p154
S'IN'
p155
S'B-PP'
p156
g5
tp157
a(S'solid'
p158
S'solid'
p159
S'JJ'
p160
S'B-NP'
p161
g5
tp162
a(S'organ'
p163
S'organ'
p164
S'NN'
p165
S'I-NP'
p166
g5
tp167
a(S'transplant'
p168
S'transplant'
p169
S'NN'
p170
S'I-NP'
p171
g5
tp172
a(S'recipients.'
p173
S'recipients.'
p174
S'VBP'
p175
S'B-VP'
p176
g5
tp177
a(S'This'
p178
S'This'
p179
S'DT'
p180
S'B-NP'
p181
g5
tp182
a(S'study'
p183
S'study'
p184
S'NN'
p185
S'I-NP'
p186
g5
tp187
a(S'was'
p188
S'be'
p189
S'VBD'
p190
S'B-VP'
p191
g5
tp192
a(S'designed'
p193
S'design'
p194
S'VBN'
p195
S'I-VP'
p196
g5
tp197
a(S'to'
p198
S'to'
p199
S'TO'
p200
S'B-VP'
p201
g5
tp202
a(S'determine'
p203
S'determine'
p204
S'VB'
p205
S'I-VP'
p206
g5
tp207
a(S'the'
p208
S'the'
p209
S'DT'
p210
S'B-NP'
p211
g5
tp212
a(S'bioavailability'
p213
S'bioavailability'
p214
S'NN'
p215
S'I-NP'
p216
g5
tp217
a(S'of'
p218
S'of'
p219
S'IN'
p220
S'B-PP'
p221
g5
tp222
a(S'GCV'
p223
S'GCV'
p224
S'NN'
p225
S'B-NP'
p226
S'B-protein'
p227
tp228
a(S'and'
p229
S'and'
p230
S'CC'
p231
g5
g5
tp232
a(S'to'
p233
S'to'
p234
S'TO'
p235
S'B-VP'
p236
g5
tp237
a(S'test'
p238
S'test'
p239
S'VB'
p240
S'I-VP'
p241
g5
tp242
a(S'a'
p243
g243
S'DT'
p244
S'B-NP'
p245
g5
tp246
a(S'dosing'
p247
S'dosing'
p248
S'NN'
p249
S'I-NP'
p250
g5
tp251
a(S'algorithm'
p252
S'algorithm'
p253
S'NN'
p254
S'I-NP'
p255
g5
tp256
a(S'in'
p257
S'in'
p258
S'IN'
p259
S'B-PP'
p260
g5
tp261
a(S'transplant'
p262
S'transplant'
p263
S'NN'
p264
S'B-NP'
p265
g5
tp266
a(S'and'
p267
S'and'
p268
S'CC'
p269
S'I-NP'
p270
g5
tp271
a(S'dialysis'
p272
S'dialysis'
p273
S'NN'
p274
S'I-NP'
p275
g5
tp276
a(S'patients'
p277
S'patient'
p278
S'NNS'
p279
S'I-NP'
p280
g5
tp281
a(S'with'
p282
S'with'
p283
S'IN'
p284
S'B-PP'
p285
g5
tp286
a(S'different'
p287
S'different'
p288
S'JJ'
p289
S'B-NP'
p290
g5
tp291
a(S'levels'
p292
S'level'
p293
S'NNS'
p294
S'I-NP'
p295
g5
tp296
a(S'of'
p297
S'of'
p298
S'IN'
p299
S'B-PP'
p300
g5
tp301
a(S'renal'
p302
S'renal'
p303
S'JJ'
p304
S'B-NP'
p305
g5
tp306
a(S'function'
p307
S'function'
p308
S'NN'
p309
S'I-NP'
p310
g5
tp311
a(g66
g66
g66
g5
g5
tp312
a(S'METHODS'
p313
S'METHODS'
p314
S'NNS'
p315
S'B-NP'
p316
g5
tp317
a(S'Pharmacokinetic'
p318
S'Pharmacokinetic'
p319
S'JJ'
p320
S'B-NP'
p321
g5
tp322
a(S'studies'
p323
S'study'
p324
S'NNS'
p325
S'I-NP'
p326
g5
tp327
a(S'were'
p328
S'be'
p329
S'VBD'
p330
S'B-VP'
p331
g5
tp332
a(S'carried'
p333
S'carry'
p334
S'VBN'
p335
S'I-VP'
p336
g5
tp337
a(S'out'
p338
S'out'
p339
S'RP'
p340
S'B-PRT'
p341
g5
tp342
a(S'in'
p343
S'in'
p344
S'IN'
p345
S'B-PP'
p346
g5
tp347
a(S'23'
p348
S'23'
p349
S'CD'
p350
S'B-NP'
p351
g5
tp352
a(S'patients'
p353
S'patient'
p354
S'NNS'
p355
S'I-NP'
p356
g5
tp357
a(S'who'
p358
S'who'
p359
S'WP'
p360
S'B-NP'
p361
g5
tp362
a(S'were'
p363
S'be'
p364
S'VBD'
p365
S'B-VP'
p366
g5
tp367
a(S'either'
p368
S'either'
p369
S'CC'
p370
g5
g5
tp371
a(g243
g243
S'DT'
p372
S'B-NP'
p373
g5
tp374
a(S'recipient'
p375
S'recipient'
p376
S'NN'
p377
S'I-NP'
p378
g5
tp379
a(S'of'
p380
S'of'
p381
S'IN'
p382
S'B-PP'
p383
g5
tp384
a(S'an'
p385
S'an'
p386
S'DT'
p387
S'B-NP'
p388
g5
tp389
a(S'organ'
p390
S'organ'
p391
S'NN'
p392
S'I-NP'
p393
g5
tp394
a(S'transplant'
p395
S'transplant'
p396
S'NN'
p397
S'I-NP'
p398
g5
tp399
a(S'or'
p400
S'or'
p401
S'CC'
p402
S'B-PP'
p403
g5
tp404
a(S'on'
p405
S'on'
p406
S'IN'
p407
S'B-PP'
p408
g5
tp409
a(S'hemodialysis.'
p410
S'hemodialysis.'
p411
S'NN'
p412
S'B-NP'
p413
g5
tp414
a(S'Drug'
p415
S'Drug'
p416
S'NN'
p417
S'I-NP'
p418
g5
tp419
a(S'dosing'
p420
S'dosing'
p421
S'NN'
p422
S'I-NP'
p423
g5
tp424
a(S'was'
p425
S'be'
p426
S'VBD'
p427
S'B-VP'
p428
g5
tp429
a(S'established'
p430
S'establish'
p431
S'VBN'
p432
S'I-VP'
p433
g5
tp434
a(S'by'
p435
S'by'
p436
S'IN'
p437
S'B-PP'
p438
g5
tp439
a(S'the'
p440
S'the'
p441
S'DT'
p442
S'B-NP'
p443
g5
tp444
a(S'following'
p445
S'follow'
p446
S'VBG'
p447
S'I-NP'
p448
g5
tp449
a(S'algorithm'
p450
S'algorithm'
p451
S'NN'
p452
S'I-NP'
p453
g5
tp454
a(S'based'
p455
S'base'
p456
S'VBN'
p457
S'B-PP'
p458
g5
tp459
a(S'on'
p460
S'on'
p461
S'IN'
p462
S'B-PP'
p463
g5
tp464
a(S'calculated'
p465
S'calculate'
p466
S'VBN'
p467
S'B-NP'
p468
g5
tp469
a(S'creatinine'
p470
S'creatinine'
p471
S'NN'
p472
S'I-NP'
p473
g5
tp474
a(S'clearance'
p475
S'clearance'
p476
S'NN'
p477
S'I-NP'
p478
g5
tp479
a(g98
g98
g98
g5
g5
tp480
a(S'CrCl'
p481
S'CrCl'
p482
S'NN'
p483
S'B-NP'
p484
g5
tp485
a(g106
g106
g106
g5
g5
tp486
a(S':'
p487
g487
g487
g5
g5
tp488
a(S'CrCl'
p489
S'CrCl'
p490
S'NN'
p491
S'B-NP'
p492
g5
tp493
a(S'='
p494
g494
S'SYM'
p495
g5
g5
tp496
a(S'['
p497
g497
g98
g5
g5
tp498
a(g98
g98
g98
g5
g5
tp499
a(S'140-age'
p500
S'140-age'
p501
S'JJ'
p502
g5
g5
tp503
a(g106
g106
g106
g5
g5
tp504
a(S'x'
p505
g505
S'NN'
p506
S'B-NP'
p507
g5
tp508
a(S'body'
p509
S'body'
p510
S'NN'
p511
S'I-NP'
p512
g5
tp513
a(S'weight'
p514
S'weight'
p515
S'NN'
p516
S'I-NP'
p517
g5
tp518
a(S']'
p519
g519
g106
g5
g5
tp520
a(S'/'
p521
g521
S'SYM'
p522
S'B-NP'
p523
g5
tp524
a(g98
g98
g98
g5
g5
tp525
a(S'72'
p526
S'72'
p527
S'CD'
p528
S'B-NP'
p529
g5
tp530
a(g505
g505
S'SYM'
p531
S'I-NP'
p532
g5
tp533
a(S'Cr'
p534
S'Cr'
p535
S'NN'
p536
S'I-NP'
p537
g5
tp538
a(g106
g106
g106
g5
g5
tp539
a(g505
g505
S'NN'
p540
S'B-NP'
p541
g5
tp542
a(S'0.85'
p543
S'0.85'
p544
S'CD'
p545
S'I-NP'
p546
g5
tp547
a(S'for'
p548
S'for'
p549
S'IN'
p550
S'B-PP'
p551
g5
tp552
a(S'women'
p553
S'woman'
p554
S'NNS'
p555
S'B-NP'
p556
g5
tp557
a(S'that'
p558
S'that'
p559
S'WDT'
p560
S'B-NP'
p561
g5
tp562
a(S'is'
p563
S'be'
p564
S'VBZ'
p565
S'B-VP'
p566
g5
tp567
a(S','
p568
g568
g568
g5
g5
tp569
a(S'CrCl'
p570
S'CrCl'
p571
S'NN'
p572
S'B-NP'
p573
g5
tp574
a(S'>'
p575
g575
S'SYM'
p576
S'B-VP'
p577
g5
tp578
a(S'50'
p579
S'50'
p580
S'CD'
p581
S'B-NP'
p582
g5
tp583
a(S'ml/min'
p584
S'ml/min'
p585
S'NN'
p586
S'I-NP'
p587
g5
tp588
a(g568
g568
g568
g5
g5
tp589
a(S'1000'
p590
S'1000'
p591
S'CD'
p592
S'B-NP'
p593
g5
tp594
a(S'mg'
p595
S'mg'
p596
S'NN'
p597
S'I-NP'
p598
g5
tp599
a(S'every'
p600
S'every'
p601
S'DT'
p602
S'B-NP'
p603
g5
tp604
a(S'8'
p605
g605
S'CD'
p606
S'I-NP'
p607
g5
tp608
a(S'hr'
p609
S'hr'
p610
S'NN'
p611
S'I-NP'
p612
g5
tp613
a(S';'
p614
g614
g487
g5
g5
tp615
a(S'CrCl'
p616
S'CrCl'
p617
S'NN'
p618
S'B-NP'
p619
g5
tp620
a(S'of'
p621
S'of'
p622
S'IN'
p623
S'B-PP'
p624
g5
tp625
a(S'25-50'
p626
S'25-50'
p627
S'CD'
p628
S'B-NP'
p629
g5
tp630
a(S'ml/min'
p631
S'ml/min'
p632
S'NN'
p633
S'I-NP'
p634
g5
tp635
a(g568
g568
g568
g5
g5
tp636
a(S'1000'
p637
S'1000'
p638
S'CD'
p639
S'B-NP'
p640
g5
tp641
a(S'mg'
p642
S'mg'
p643
S'NN'
p644
S'I-NP'
p645
g5
tp646
a(S'every'
p647
S'every'
p648
S'DT'
p649
S'B-NP'
p650
g5
tp651
a(S'24'
p652
S'24'
p653
S'CD'
p654
S'I-NP'
p655
g5
tp656
a(S'hr'
p657
S'hr'
p658
S'NN'
p659
S'I-NP'
p660
g5
tp661
a(g614
g614
g487
g5
g5
tp662
a(S'CrCl'
p663
S'CrCl'
p664
S'NN'
p665
S'B-NP'
p666
g5
tp667
a(S'of'
p668
S'of'
p669
S'IN'
p670
S'B-PP'
p671
g5
tp672
a(S'10-24'
p673
S'10-24'
p674
S'CD'
p675
S'B-NP'
p676
g5
tp677
a(S'ml/'
p678
S'ml/'
p679
S'NN'
p680
S'I-NP'
p681
g5
tp682
a(S'min'
p683
S'min'
p684
S'NN'
p685
S'I-NP'
p686
g5
tp687
a(g568
g568
g568
g5
g5
tp688
a(S'500'
p689
S'500'
p690
S'CD'
p691
S'B-NP'
p692
g5
tp693
a(S'mg'
p694
S'mg'
p695
S'NN'
p696
S'I-NP'
p697
g5
tp698
a(S'every'
p699
S'every'
p700
S'DT'
p701
S'B-NP'
p702
g5
tp703
a(S'day'
p704
S'day'
p705
S'NN'
p706
S'I-NP'
p707
g5
tp708
a(g614
g614
g487
g5
g5
tp709
a(S'CrCl'
p710
S'CrCl'
p711
S'NN'
p712
S'B-NP'
p713
g5
tp714
a(S'<'
p715
g715
S'SYM'
p716
S'B-NP'
p717
g5
tp718
a(S'10'
p719
S'10'
p720
S'CD'
p721
S'B-NP'
p722
g5
tp723
a(S'ml/min'
p724
S'ml/min'
p725
S'NN'
p726
S'I-NP'
p727
g5
tp728
a(g98
g98
g98
S'B-PP'
p729
g5
tp730
a(S'or'
p731
S'or'
p732
S'CC'
p733
S'I-PP'
p734
g5
tp735
a(S'on'
p736
S'on'
p737
S'IN'
p738
S'B-PP'
p739
g5
tp740
a(S'dialysis'
p741
S'dialysis'
p742
S'NN'
p743
S'B-NP'
p744
g5
tp745
a(g106
g106
g106
g5
g5
tp746
a(g568
g568
g568
g5
g5
tp747
a(S'500'
p748
S'500'
p749
S'CD'
p750
S'B-NP'
p751
g5
tp752
a(S'mg'
p753
S'mg'
p754
S'NN'
p755
S'I-NP'
p756
g5
tp757
a(S'every'
p758
S'every'
p759
S'DT'
p760
S'B-NP'
p761
g5
tp762
a(S'other'
p763
S'other'
p764
S'JJ'
p765
S'I-NP'
p766
g5
tp767
a(S'day'
p768
S'day'
p769
S'NN'
p770
S'I-NP'
p771
g5
tp772
a(S'after'
p773
S'after'
p774
S'IN'
p775
S'B-SBAR'
p776
g5
tp777
a(S'dialysis.'
p778
S'dialysis.'
p779
S'NN'
p780
S'B-NP'
p781
g5
tp782
a(S'GCV'
p783
S'GCV'
p784
S'NN'
p785
S'I-NP'
p786
g5
tp787
a(S'was'
p788
S'be'
p789
S'VBD'
p790
S'B-VP'
p791
g5
tp792
a(S'taken'
p793
S'take'
p794
S'VBN'
p795
S'I-VP'
p796
g5
tp797
a(S'within'
p798
S'within'
p799
S'IN'
p800
S'B-PP'
p801
g5
tp802
a(S'30'
p803
S'30'
p804
S'CD'
p805
S'B-NP'
p806
g5
tp807
a(S'min'
p808
S'min'
p809
S'NN'
p810
S'I-NP'
p811
g5
tp812
a(S'after'
p813
S'after'
p814
S'IN'
p815
S'B-PP'
p816
g5
tp817
a(g243
g243
S'DT'
p818
S'B-NP'
p819
g5
tp820
a(S'meal.'
p821
S'meal.'
p822
S'NN'
p823
S'I-NP'
p824
g5
tp825
a(S'The'
p826
S'The'
p827
S'DT'
p828
S'B-NP'
p829
g5
tp830
a(S'patients'
p831
S'patient'
p832
S'NNS'
p833
S'I-NP'
p834
g5
tp835
a(S'received'
p836
S'receive'
p837
S'VBD'
p838
S'B-VP'
p839
g5
tp840
a(S'oral'
p841
S'oral'
p842
S'JJ'
p843
S'B-NP'
p844
g5
tp845
a(S'GCV'
p846
S'GCV'
p847
S'NN'
p848
S'I-NP'
p849
g5
tp850
a(S'for'
p851
S'for'
p852
S'IN'
p853
S'B-PP'
p854
g5
tp855
a(S'between'
p856
S'between'
p857
S'IN'
p858
S'B-NP'
p859
g5
tp860
a(S'12'
p861
S'12'
p862
S'CD'
p863
S'I-NP'
p864
g5
tp865
a(S'days'
p866
S'day'
p867
S'NNS'
p868
S'I-NP'
p869
g5
tp870
a(S'and'
p871
S'and'
p872
S'CC'
p873
g5
g5
tp874
a(S'14'
p875
S'14'
p876
S'CD'
p877
S'B-NP'
p878
g5
tp879
a(S'weeks.'
p880
S'weeks.'
p881
S'NN'
p882
S'I-NP'
p883
g5
tp884
a(S'Serum'
p885
S'Serum'
p886
S'NN'
p887
S'I-NP'
p888
g5
tp889
a(S'specimens'
p890
S'specimen'
p891
S'NNS'
p892
S'I-NP'
p893
g5
tp894
a(g98
g98
g98
g5
g5
tp895
a(S'or'
p896
S'or'
p897
S'CC'
p898
g5
g5
tp899
a(S'plasma'
p900
S'plasma'
p901
S'NN'
p902
S'B-NP'
p903
g5
tp904
a(S'from'
p905
S'from'
p906
S'IN'
p907
S'B-PP'
p908
g5
tp909
a(S'patients'
p910
S'patient'
p911
S'NNS'
p912
S'B-NP'
p913
g5
tp914
a(S'on'
p915
S'on'
p916
S'IN'
p917
S'B-PP'
p918
g5
tp919
a(S'hemodialysis'
p920
S'hemodialysis'
p921
S'NN'
p922
S'B-NP'
p923
g5
tp924
a(g106
g106
g106
g5
g5
tp925
a(S'obtained'
p926
S'obtain'
p927
S'VBN'
p928
S'B-VP'
p929
g5
tp930
a(S'at'
p931
S'at'
p932
S'IN'
p933
S'B-PP'
p934
g5
tp935
a(S'steady'
p936
S'steady'
p937
S'JJ'
p938
S'B-NP'
p939
g5
tp940
a(S'state'
p941
S'state'
p942
S'NN'
p943
S'I-NP'
p944
g5
tp945
a(S'were'
p946
S'be'
p947
S'VBD'
p948
S'B-VP'
p949
g5
tp950
a(S'analyzed'
p951
S'analyze'
p952
S'VBN'
p953
S'I-VP'
p954
g5
tp955
a(S'for'
p956
S'for'
p957
S'IN'
p958
S'B-PP'
p959
g5
tp960
a(S'GCV'
p961
S'GCV'
p962
S'NN'
p963
S'B-NP'
p964
g5
tp965
a(S'concentrations'
p966
S'concentration'
p967
S'NNS'
p968
S'I-NP'
p969
g5
tp970
a(S'by'
p971
S'by'
p972
S'IN'
p973
S'B-PP'
p974
g5
tp975
a(S'high-performance'
p976
S'high-performance'
p977
S'JJ'
p978
S'B-NP'
p979
g5
tp980
a(S'liquid'
p981
S'liquid'
p982
S'JJ'
p983
S'I-NP'
p984
g5
tp985
a(S'chromatography.'
p986
S'chromatography.'
p987
S'NN'
p988
S'I-NP'
p989
g5
tp990
a(S'In'
p991
S'In'
p992
S'IN'
p993
S'B-PP'
p994
g5
tp995
a(S'nine'
p996
S'nine'
p997
S'CD'
p998
S'B-NP'
p999
g5
tp1000
a(S'of'
p1001
S'of'
p1002
S'IN'
p1003
S'B-PP'
p1004
g5
tp1005
a(S'the'
p1006
S'the'
p1007
S'DT'
p1008
S'B-NP'
p1009
g5
tp1010
a(S'transplant'
p1011
S'transplant'
p1012
S'NN'
p1013
S'I-NP'
p1014
g5
tp1015
a(S'recipients'
p1016
S'recipient'
p1017
S'NNS'
p1018
S'I-NP'
p1019
g5
tp1020
a(g568
g568
g568
g5
g5
tp1021
a(S'absolute'
p1022
S'absolute'
p1023
S'JJ'
p1024
S'B-NP'
p1025
g5
tp1026
a(S'bioavailability'
p1027
S'bioavailability'
p1028
S'NN'
p1029
S'I-NP'
p1030
g5
tp1031
a(S'was'
p1032
S'be'
p1033
S'VBD'
p1034
S'B-VP'
p1035
g5
tp1036
a(S'determined'
p1037
S'determine'
p1038
S'VBN'
p1039
S'I-VP'
p1040
g5
tp1041
a(S'by'
p1042
S'by'
p1043
S'IN'
p1044
S'B-PP'
p1045
g5
tp1046
a(S'comparing'
p1047
S'compare'
p1048
S'VBG'
p1049
S'B-VP'
p1050
g5
tp1051
a(S'GCV'
p1052
S'GCV'
p1053
S'NN'
p1054
S'B-NP'
p1055
g5
tp1056
a(S'levels'
p1057
S'level'
p1058
S'NNS'
p1059
S'I-NP'
p1060
g5
tp1061
a(S'after'
p1062
S'after'
p1063
S'IN'
p1064
S'B-PP'
p1065
g5
tp1066
a(S'single'
p1067
S'single'
p1068
S'JJ'
p1069
S'B-NP'
p1070
g5
tp1071
a(S'oral'
p1072
S'oral'
p1073
S'JJ'
p1074
S'I-NP'
p1075
g5
tp1076
a(S'and'
p1077
S'and'
p1078
S'CC'
p1079
S'I-NP'
p1080
g5
tp1081
a(S'intravenous'
p1082
S'intravenous'
p1083
S'JJ'
p1084
S'I-NP'
p1085
g5
tp1086
a(S'doses'
p1087
S'dose'
p1088
S'NNS'
p1089
S'I-NP'
p1090
g5
tp1091
a(S'of'
p1092
S'of'
p1093
S'IN'
p1094
S'B-PP'
p1095
g5
tp1096
a(S'GCV'
p1097
S'GCV'
p1098
S'NN'
p1099
S'B-NP'
p1100
S'B-protein'
p1101
tp1102
a(g66
g66
g66
g5
g5
tp1103
a(S'RESULTS'
p1104
S'RESULTS'
p1105
S'NNS'
p1106
S'B-NP'
p1107
g5
tp1108
a(S'The'
p1109
S'The'
p1110
S'DT'
p1111
S'B-NP'
p1112
g5
tp1113
a(S'following'
p1114
S'follow'
p1115
S'VBG'
p1116
S'I-NP'
p1117
g5
tp1118
a(S'GCV'
p1119
S'GCV'
p1120
S'NN'
p1121
S'I-NP'
p1122
g5
tp1123
a(S'concentrations'
p1124
S'concentration'
p1125
S'NNS'
p1126
S'I-NP'
p1127
g5
tp1128
a(g98
g98
g98
g5
g5
tp1129
a(S'mean'
p1130
S'mean'
p1131
S'JJ'
p1132
S'B-NP'
p1133
g5
tp1134
a(S'+/-SD'
p1135
S'+/-SD'
p1136
S'NN'
p1137
S'I-NP'
p1138
g5
tp1139
a(g106
g106
g106
g5
g5
tp1140
a(S'were'
p1141
S'be'
p1142
S'VBD'
p1143
S'B-VP'
p1144
g5
tp1145
a(S'determined'
p1146
S'determine'
p1147
S'VBN'
p1148
S'I-VP'
p1149
g5
tp1150
a(g487
g487
g487
g5
g5
tp1151
a(S'with'
p1152
S'with'
p1153
S'IN'
p1154
S'B-PP'
p1155
g5
tp1156
a(S'CrCl'
p1157
S'CrCl'
p1158
S'NN'
p1159
S'B-NP'
p1160
g5
tp1161
a(S'of'
p1162
S'of'
p1163
S'IN'
p1164
S'B-PP'
p1165
g5
tp1166
a(g575
g575
S'SYM'
p1167
S'B-NP'
p1168
g5
tp1169
a(S'or'
p1170
S'or'
p1171
S'CC'
p1172
g5
g5
tp1173
a(S'=70'
p1174
S'=70'
p1175
S'CD'
p1176
S'B-NP'
p1177
g5
tp1178
a(S'ml/min'
p1179
S'ml/min'
p1180
S'NN'
p1181
S'I-NP'
p1182
g5
tp1183
a(g568
g568
g568
g5
g5
tp1184
a(S'the'
p1185
S'the'
p1186
S'DT'
p1187
S'B-NP'
p1188
g5
tp1189
a(S'minimum'
p1190
S'minimum'
p1191
S'JJ'
p1192
S'I-NP'
p1193
g5
tp1194
a(S'steady-state'
p1195
S'steady-state'
p1196
S'JJ'
p1197
S'I-NP'
p1198
g5
tp1199
a(S'concentration'
p1200
S'concentration'
p1201
S'NN'
p1202
S'I-NP'
p1203
g5
tp1204
a(g98
g98
g98
g5
g5
tp1205
a(S'Cmin'
p1206
S'Cmin'
p1207
S'NN'
p1208
S'B-NP'
p1209
S'B-protein'
p1210
tp1211
a(g106
g106
g106
g5
g5
tp1212
a(S'and'
p1213
S'and'
p1214
S'CC'
p1215
g5
g5
tp1216
a(S'maximum'
p1217
S'maximum'
p1218
S'JJ'
p1219
S'B-NP'
p1220
g5
tp1221
a(S'concentration'
p1222
S'concentration'
p1223
S'NN'
p1224
S'I-NP'
p1225
g5
tp1226
a(g98
g98
g98
g5
g5
tp1227
a(S'Cmax'
p1228
S'Cmax'
p1229
S'NN'
p1230
S'B-NP'
p1231
g5
tp1232
a(g106
g106
g106
g5
g5
tp1233
a(S'were'
p1234
S'be'
p1235
S'VBD'
p1236
S'B-VP'
p1237
g5
tp1238
a(S'0.78+/-0.46'
p1239
S'0.78+/-0.46'
p1240
S'CD'
p1241
S'B-NP'
p1242
g5
tp1243
a(S'microg/ml'
p1244
S'microg/ml'
p1245
S'NN'
p1246
S'I-NP'
p1247
g5
tp1248
a(S'and'
p1249
S'and'
p1250
S'CC'
p1251
g5
g5
tp1252
a(S'1.42+/-0.37'
p1253
S'1.42+/-0.37'
p1254
S'CD'
p1255
S'B-NP'
p1256
g5
tp1257
a(S'microg/ml'
p1258
S'microg/ml'
p1259
S'NN'
p1260
S'I-NP'
p1261
g5
tp1262
a(g568
g568
g568
g5
g5
tp1263
a(S'respectively'
p1264
S'respectively'
p1265
S'RB'
p1266
S'B-ADVP'
p1267
g5
tp1268
a(g568
g568
g568
g5
g5
tp1269
a(S'with'
p1270
S'with'
p1271
S'IN'
p1272
S'B-PP'
p1273
g5
tp1274
a(g243
g243
S'DT'
p1275
S'B-NP'
p1276
g5
tp1277
a(S'24-hr'
p1278
S'24-hr'
p1279
S'JJ'
p1280
S'I-NP'
p1281
g5
tp1282
a(S'area'
p1283
S'area'
p1284
S'NN'
p1285
S'I-NP'
p1286
g5
tp1287
a(S'under'
p1288
S'under'
p1289
S'IN'
p1290
S'B-PP'
p1291
g5
tp1292
a(S'the'
p1293
S'the'
p1294
S'DT'
p1295
S'B-NP'
p1296
g5
tp1297
a(S'concentration'
p1298
S'concentration'
p1299
S'NN'
p1300
S'I-NP'
p1301
g5
tp1302
a(S'time'
p1303
S'time'
p1304
S'NN'
p1305
S'I-NP'
p1306
g5
tp1307
a(S'curve'
p1308
S'curve'
p1309
S'NN'
p1310
S'I-NP'
p1311
g5
tp1312
a(g98
g98
g98
g5
g5
tp1313
a(S'AUC0-24'
p1314
S'AUC0-24'
p1315
S'NN'
p1316
S'B-NP'
p1317
g5
tp1318
a(g106
g106
g106
g5
g5
tp1319
a(S'of'
p1320
S'of'
p1321
S'IN'
p1322
S'B-PP'
p1323
g5
tp1324
a(S'24.7+/-7.8'
p1325
S'24.7+/-7.8'
p1326
S'CD'
p1327
S'B-NP'
p1328
g5
tp1329
a(S'microg'
p1330
S'microg'
p1331
S'NN'
p1332
S'I-NP'
p1333
g5
tp1334
a(g505
g505
S'SYM'
p1335
S'B-NP'
p1336
g5
tp1337
a(S'hr/ml'
p1338
S'hr/ml'
p1339
S'NN'
p1340
S'I-NP'
p1341
g5
tp1342
a(g614
g614
g487
g5
g5
tp1343
a(S'with'
p1344
S'with'
p1345
S'IN'
p1346
S'B-PP'
p1347
g5
tp1348
a(S'CrCl'
p1349
S'CrCl'
p1350
S'NN'
p1351
S'B-NP'
p1352
g5
tp1353
a(S'of'
p1354
S'of'
p1355
S'IN'
p1356
S'B-PP'
p1357
g5
tp1358
a(S'50-69'
p1359
S'50-69'
p1360
S'CD'
p1361
S'B-NP'
p1362
g5
tp1363
a(S'ml/min'
p1364
S'ml/min'
p1365
S'NN'
p1366
S'I-NP'
p1367
g5
tp1368
a(g568
g568
g568
g5
g5
tp1369
a(S'the'
p1370
S'the'
p1371
S'DT'
p1372
S'B-NP'
p1373
g5
tp1374
a(S'Cmin'
p1375
S'Cmin'
p1376
S'NN'
p1377
S'I-NP'
p1378
g5
tp1379
a(S'and'
p1380
S'and'
p1381
S'CC'
p1382
S'I-NP'
p1383
g5
tp1384
a(S'Cmax'
p1385
S'Cmax'
p1386
S'NN'
p1387
S'I-NP'
p1388
g5
tp1389
a(S'were'
p1390
S'be'
p1391
S'VBD'
p1392
S'B-VP'
p1393
g5
tp1394
a(S'1.93+/-0.48'
p1395
S'1.93+/-0.48'
p1396
S'CD'
p1397
S'B-NP'
p1398
g5
tp1399
a(S'and'
p1400
S'and'
p1401
S'CC'
p1402
S'I-NP'
p1403
g5
tp1404
a(S'2.57+/-0.39'
p1405
S'2.57+/-0.39'
p1406
S'CD'
p1407
S'I-NP'
p1408
g5
tp1409
a(S'microg/ml'
p1410
S'microg/ml'
p1411
S'NN'
p1412
S'I-NP'
p1413
g5
tp1414
a(g568
g568
g568
g5
g5
tp1415
a(S'respectively'
p1416
S'respectively'
p1417
S'RB'
p1418
S'B-ADVP'
p1419
g5
tp1420
a(g568
g568
g568
g5
g5
tp1421
a(S'with'
p1422
S'with'
p1423
S'IN'
p1424
S'B-PP'
p1425
g5
tp1426
a(S'an'
p1427
S'an'
p1428
S'DT'
p1429
S'B-NP'
p1430
g5
tp1431
a(S'AUC0-24'
p1432
S'AUC0-24'
p1433
S'NN'
p1434
S'I-NP'
p1435
g5
tp1436
a(S'of'
p1437
S'of'
p1438
S'IN'
p1439
S'B-PP'
p1440
g5
tp1441
a(S'52.1+/-10.1'
p1442
S'52.1+/-10.1'
p1443
S'CD'
p1444
S'B-NP'
p1445
g5
tp1446
a(S'microg'
p1447
S'microg'
p1448
S'NN'
p1449
S'I-NP'
p1450
g5
tp1451
a(g505
g505
S'SYM'
p1452
S'B-NP'
p1453
g5
tp1454
a(S'hr/ml'
p1455
S'hr/ml'
p1456
S'NN'
p1457
S'I-NP'
p1458
g5
tp1459
a(g614
g614
g487
g5
g5
tp1460
a(S'with'
p1461
S'with'
p1462
S'IN'
p1463
S'B-PP'
p1464
g5
tp1465
a(S'CrCl'
p1466
S'CrCl'
p1467
S'NN'
p1468
S'B-NP'
p1469
g5
tp1470
a(S'of'
p1471
S'of'
p1472
S'IN'
p1473
S'B-PP'
p1474
g5
tp1475
a(S'25-50'
p1476
S'25-50'
p1477
S'CD'
p1478
S'B-NP'
p1479
g5
tp1480
a(S'ml/min'
p1481
S'ml/min'
p1482
S'NN'
p1483
S'I-NP'
p1484
g5
tp1485
a(g568
g568
g568
g5
g5
tp1486
a(S'the'
p1487
S'the'
p1488
S'DT'
p1489
S'B-NP'
p1490
g5
tp1491
a(S'Cmin'
p1492
S'Cmin'
p1493
S'NN'
p1494
S'I-NP'
p1495
g5
tp1496
a(S'and'
p1497
S'and'
p1498
S'CC'
p1499
S'I-NP'
p1500
g5
tp1501
a(S'Cmax'
p1502
S'Cmax'
p1503
S'NN'
p1504
S'I-NP'
p1505
g5
tp1506
a(S'were'
p1507
S'be'
p1508
S'VBD'
p1509
S'B-VP'
p1510
g5
tp1511
a(S'0.41+/-0.27'
p1512
S'0.41+/-0.27'
p1513
S'CD'
p1514
S'B-NP'
p1515
g5
tp1516
a(S'and'
p1517
S'and'
p1518
S'CC'
p1519
S'I-NP'
p1520
g5
tp1521
a(S'1.17+/-0.32'
p1522
S'1.17+/-0.32'
p1523
S'CD'
p1524
S'I-NP'
p1525
g5
tp1526
a(S'microg/ml'
p1527
S'microg/ml'
p1528
S'NN'
p1529
S'I-NP'
p1530
g5
tp1531
a(g568
g568
g568
g5
g5
tp1532
a(S'respectively'
p1533
S'respectively'
p1534
S'RB'
p1535
S'B-ADVP'
p1536
g5
tp1537
a(g568
g568
g568
g5
g5
tp1538
a(S'with'
p1539
S'with'
p1540
S'IN'
p1541
S'B-PP'
p1542
g5
tp1543
a(S'an'
p1544
S'an'
p1545
S'DT'
p1546
S'B-NP'
p1547
g5
tp1548
a(S'AUC0-24'
p1549
S'AUC0-24'
p1550
S'NN'
p1551
S'I-NP'
p1552
g5
tp1553
a(S'of'
p1554
S'of'
p1555
S'IN'
p1556
S'B-PP'
p1557
g5
tp1558
a(S'14.6+/-7.4'
p1559
S'14.6+/-7.4'
p1560
S'CD'
p1561
S'B-NP'
p1562
g5
tp1563
a(S'microg'
p1564
S'microg'
p1565
S'NN'
p1566
S'I-NP'
p1567
g5
tp1568
a(g505
g505
S'SYM'
p1569
S'B-NP'
p1570
g5
tp1571
a(S'hr/ml.'
p1572
S'hr/ml.'
p1573
S'NN'
p1574
S'I-NP'
p1575
g5
tp1576
a(S'For'
p1577
S'For'
p1578
S'IN'
p1579
S'B-PP'
p1580
g5
tp1581
a(S'one'
p1582
S'one'
p1583
S'CD'
p1584
S'B-NP'
p1585
g5
tp1586
a(S'patient'
p1587
S'patient'
p1588
S'NN'
p1589
S'I-NP'
p1590
g5
tp1591
a(S'with'
p1592
S'with'
p1593
S'IN'
p1594
S'B-PP'
p1595
g5
tp1596
a(g243
g243
S'DT'
p1597
S'B-NP'
p1598
g5
tp1599
a(S'CrCl'
p1600
S'CrCl'
p1601
S'NN'
p1602
S'I-NP'
p1603
g5
tp1604
a(S'of'
p1605
S'of'
p1606
S'IN'
p1607
S'B-PP'
p1608
g5
tp1609
a(S'23.8'
p1610
S'23.8'
p1611
S'CD'
p1612
S'B-NP'
p1613
g5
tp1614
a(S'ml/min'
p1615
S'ml/min'
p1616
S'NN'
p1617
S'I-NP'
p1618
g5
tp1619
a(g568
g568
g568
g5
g5
tp1620
a(S'the'
p1621
S'the'
p1622
S'DT'
p1623
S'B-NP'
p1624
g5
tp1625
a(S'Cmin'
p1626
S'Cmin'
p1627
S'NN'
p1628
S'I-NP'
p1629
g5
tp1630
a(S'and'
p1631
S'and'
p1632
S'CC'
p1633
S'I-NP'
p1634
g5
tp1635
a(S'Cmax'
p1636
S'Cmax'
p1637
S'NN'
p1638
S'I-NP'
p1639
g5
tp1640
a(S'were'
p1641
S'be'
p1642
S'VBD'
p1643
S'B-VP'
p1644
g5
tp1645
a(S'0.32'
p1646
S'0.32'
p1647
S'CD'
p1648
S'B-NP'
p1649
g5
tp1650
a(S'and'
p1651
S'and'
p1652
S'CC'
p1653
S'I-NP'
p1654
g5
tp1655
a(S'0.7'
p1656
S'0.7'
p1657
S'CD'
p1658
S'I-NP'
p1659
g5
tp1660
a(S'microg/ml'
p1661
S'microg/ml'
p1662
S'NN'
p1663
S'I-NP'
p1664
g5
tp1665
a(g568
g568
g568
g5
g5
tp1666
a(S'respectively'
p1667
S'respectively'
p1668
S'RB'
p1669
S'B-ADVP'
p1670
g5
tp1671
a(g568
g568
g568
g5
g5
tp1672
a(S'with'
p1673
S'with'
p1674
S'IN'
p1675
S'B-PP'
p1676
g5
tp1677
a(S'an'
p1678
S'an'
p1679
S'DT'
p1680
S'B-NP'
p1681
g5
tp1682
a(S'AUC0-24'
p1683
S'AUC0-24'
p1684
S'NN'
p1685
S'I-NP'
p1686
g5
tp1687
a(S'of'
p1688
S'of'
p1689
S'IN'
p1690
S'B-PP'
p1691
g5
tp1692
a(S'10.7'
p1693
S'10.7'
p1694
S'CD'
p1695
S'B-NP'
p1696
g5
tp1697
a(S'microg'
p1698
S'microg'
p1699
S'NN'
p1700
S'I-NP'
p1701
g5
tp1702
a(g505
g505
S'SYM'
p1703
S'B-NP'
p1704
g5
tp1705
a(S'hr/ml.'
p1706
S'hr/ml.'
p1707
S'NN'
p1708
S'I-NP'
p1709
g5
tp1710
a(S'With'
p1711
S'With'
p1712
S'IN'
p1713
S'B-PP'
p1714
g5
tp1715
a(S'CrCl'
p1716
S'CrCl'
p1717
S'NN'
p1718
S'B-NP'
p1719
g5
tp1720
a(S'of'
p1721
S'of'
p1722
S'IN'
p1723
S'B-PP'
p1724
g5
tp1725
a(g715
g715
S'SYM'
p1726
S'B-NP'
p1727
g5
tp1728
a(S'10'
p1729
S'10'
p1730
S'CD'
p1731
S'I-NP'
p1732
g5
tp1733
a(S'ml/min'
p1734
S'ml/min'
p1735
S'NN'
p1736
S'I-NP'
p1737
g5
tp1738
a(g568
g568
g568
g5
g5
tp1739
a(S'the'
p1740
S'the'
p1741
S'DT'
p1742
S'B-NP'
p1743
g5
tp1744
a(S'mean'
p1745
S'mean'
p1746
S'JJ'
p1747
S'I-NP'
p1748
g5
tp1749
a(S'Cmin'
p1750
S'Cmin'
p1751
S'NN'
p1752
S'I-NP'
p1753
g5
tp1754
a(S'and'
p1755
S'and'
p1756
S'CC'
p1757
S'I-NP'
p1758
g5
tp1759
a(S'Cmax'
p1760
S'Cmax'
p1761
S'NN'
p1762
S'I-NP'
p1763
g5
tp1764
a(S'were'
p1765
S'be'
p1766
S'VBD'
p1767
S'B-VP'
p1768
g5
tp1769
a(S'0.75+/-0.42'
p1770
S'0.75+/-0.42'
p1771
S'CD'
p1772
S'B-NP'
p1773
g5
tp1774
a(S'and'
p1775
S'and'
p1776
S'CC'
p1777
S'I-NP'
p1778
g5
tp1779
a(S'1.59+/-0.55'
p1780
S'1.59+/-0.55'
p1781
S'CD'
p1782
S'I-NP'
p1783
g5
tp1784
a(S'microg/ml'
p1785
S'microg/ml'
p1786
S'NN'
p1787
S'I-NP'
p1788
g5
tp1789
a(g568
g568
g568
g5
g5
tp1790
a(S'respectively'
p1791
S'respectively'
p1792
S'RB'
p1793
S'B-ADVP'
p1794
g5
tp1795
a(g568
g568
g568
g5
g5
tp1796
a(S'with'
p1797
S'with'
p1798
S'IN'
p1799
S'B-PP'
p1800
g5
tp1801
a(g243
g243
S'DT'
p1802
S'B-NP'
p1803
g5
tp1804
a(S'mean'
p1805
S'mean'
p1806
S'JJ'
p1807
S'I-NP'
p1808
g5
tp1809
a(S'AUC0-24'
p1810
S'AUC0-24'
p1811
S'NN'
p1812
S'I-NP'
p1813
g5
tp1814
a(S'of'
p1815
S'of'
p1816
S'IN'
p1817
S'B-PP'
p1818
g5
tp1819
a(S'64.6+/-18.8'
p1820
S'64.6+/-18.8'
p1821
S'CD'
p1822
S'B-NP'
p1823
g5
tp1824
a(S'microg'
p1825
S'microg'
p1826
S'NN'
p1827
S'I-NP'
p1828
g5
tp1829
a(g505
g505
S'SYM'
p1830
S'B-NP'
p1831
g5
tp1832
a(S'hr/ml.'
p1833
S'hr/ml.'
p1834
S'NN'
p1835
S'I-NP'
p1836
g5
tp1837
a(S'Absolute'
p1838
S'Absolute'
p1839
S'NN'
p1840
S'I-NP'
p1841
g5
tp1842
a(S'bioavailability'
p1843
S'bioavailability'
p1844
S'NN'
p1845
S'I-NP'
p1846
g5
tp1847
a(g568
g568
g568
g5
g5
tp1848
a(S'for'
p1849
S'for'
p1850
S'IN'
p1851
S'B-PP'
p1852
g5
tp1853
a(S'the'
p1854
S'the'
p1855
S'DT'
p1856
S'B-NP'
p1857
g5
tp1858
a(S'nine'
p1859
S'nine'
p1860
S'CD'
p1861
S'I-NP'
p1862
g5
tp1863
a(S'patients'
p1864
S'patient'
p1865
S'NNS'
p1866
S'I-NP'
p1867
g5
tp1868
a(S'so'
p1869
S'so'
p1870
S'RB'
p1871
S'B-VP'
p1872
g5
tp1873
a(S'analyzed'
p1874
S'analyze'
p1875
S'VBN'
p1876
S'I-VP'
p1877
g5
tp1878
a(g568
g568
g568
g5
g5
tp1879
a(S'was'
p1880
S'be'
p1881
S'VBD'
p1882
S'B-VP'
p1883
g5
tp1884
a(S'7.2+/-2.4'
p1885
S'7.2+/-2.4'
p1886
S'CD'
p1887
S'B-NP'
p1888
g5
tp1889
a(S'%'
p1890
g1890
S'NN'
p1891
S'I-NP'
p1892
g5
tp1893
a(g66
g66
g66
g5
g5
tp1894
a(S'For'
p1895
S'For'
p1896
S'IN'
p1897
S'B-PP'
p1898
g5
tp1899
a(S'those'
p1900
S'those'
p1901
S'DT'
p1902
S'B-NP'
p1903
g5
tp1904
a(S'patients'
p1905
S'patient'
p1906
S'NNS'
p1907
S'I-NP'
p1908
g5
tp1909
a(S'with'
p1910
S'with'
p1911
S'IN'
p1912
S'B-PP'
p1913
g5
tp1914
a(S'end-stage'
p1915
S'end-stage'
p1916
S'JJ'
p1917
S'B-NP'
p1918
g5
tp1919
a(S'renal'
p1920
S'renal'
p1921
S'JJ'
p1922
S'I-NP'
p1923
g5
tp1924
a(S'failure'
p1925
S'failure'
p1926
S'NN'
p1927
S'I-NP'
p1928
g5
tp1929
a(g568
g568
g568
g5
g5
tp1930
a(S'GCV'
p1931
S'GCV'
p1932
S'NN'
p1933
S'B-NP'
p1934
g5
tp1935
a(S'concentrations'
p1936
S'concentration'
p1937
S'NNS'
p1938
S'I-NP'
p1939
g5
tp1940
a(S'fell'
p1941
S'fall'
p1942
S'VBD'
p1943
S'B-VP'
p1944
g5
tp1945
a(S'during'
p1946
S'during'
p1947
S'IN'
p1948
S'B-PP'
p1949
g5
tp1950
a(S'dialysis'
p1951
S'dialysis'
p1952
S'NN'
p1953
S'B-NP'
p1954
g5
tp1955
a(S'from'
p1956
S'from'
p1957
S'IN'
p1958
S'B-PP'
p1959
g5
tp1960
a(g243
g243
S'DT'
p1961
S'B-NP'
p1962
g5
tp1963
a(S'mean'
p1964
S'mean'
p1965
S'NN'
p1966
S'I-NP'
p1967
g5
tp1968
a(S'of'
p1969
S'of'
p1970
S'IN'
p1971
S'B-PP'
p1972
g5
tp1973
a(S'1.47+/-0.48'
p1974
S'1.47+/-0.48'
p1975
S'CD'
p1976
S'B-NP'
p1977
g5
tp1978
a(S'microg/ml'
p1979
S'microg/ml'
p1980
S'NN'
p1981
S'I-NP'
p1982
g5
tp1983
a(S'before'
p1984
S'before'
p1985
S'IN'
p1986
S'B-PP'
p1987
g5
tp1988
a(S'dialysis'
p1989
S'dialysis'
p1990
S'NN'
p1991
S'B-NP'
p1992
g5
tp1993
a(S'to'
p1994
S'to'
p1995
S'TO'
p1996
S'B-PP'
p1997
g5
tp1998
a(S'0.69+/-0.38'
p1999
S'0.69+/-0.38'
p2000
S'CD'
p2001
S'B-NP'
p2002
g5
tp2003
a(S'microg/ml'
p2004
S'microg/ml'
p2005
S'NN'
p2006
S'I-NP'
p2007
g5
tp2008
a(S'after'
p2009
S'after'
p2010
S'IN'
p2011
S'B-PP'
p2012
g5
tp2013
a(S'dialysis'
p2014
S'dialysis'
p2015
S'NN'
p2016
S'B-NP'
p2017
g5
tp2018
a(g66
g66
g66
g5
g5
tp2019
a(S'CONCLUSIONS'
p2020
S'CONCLUSIONS'
p2021
S'NNS'
p2022
S'B-NP'
p2023
g5
tp2024
a(S'The'
p2025
S'The'
p2026
S'DT'
p2027
S'B-NP'
p2028
g5
tp2029
a(S'bioavailability'
p2030
S'bioavailability'
p2031
S'NN'
p2032
S'I-NP'
p2033
g5
tp2034
a(S'of'
p2035
S'of'
p2036
S'IN'
p2037
S'B-PP'
p2038
g5
tp2039
a(S'oral'
p2040
S'oral'
p2041
S'JJ'
p2042
S'B-NP'
p2043
g5
tp2044
a(S'GCV'
p2045
S'GCV'
p2046
S'NN'
p2047
S'I-NP'
p2048
g5
tp2049
a(S'in'
p2050
S'in'
p2051
S'IN'
p2052
S'B-PP'
p2053
g5
tp2054
a(S'transplant'
p2055
S'transplant'
p2056
S'NN'
p2057
S'B-NP'
p2058
g5
tp2059
a(S'patients'
p2060
S'patient'
p2061
S'NNS'
p2062
S'I-NP'
p2063
g5
tp2064
a(S'was'
p2065
S'be'
p2066
S'VBD'
p2067
S'B-VP'
p2068
g5
tp2069
a(S'similar'
p2070
S'similar'
p2071
S'JJ'
p2072
S'B-ADJP'
p2073
g5
tp2074
a(S'to'
p2075
S'to'
p2076
S'TO'
p2077
S'B-PP'
p2078
g5
tp2079
a(S'that'
p2080
S'that'
p2081
S'DT'
p2082
S'B-NP'
p2083
g5
tp2084
a(S'observed'
p2085
S'observe'
p2086
S'VBN'
p2087
S'B-VP'
p2088
g5
tp2089
a(S'in'
p2090
S'in'
p2091
S'IN'
p2092
S'B-PP'
p2093
g5
tp2094
a(S'human'
p2095
S'human'
p2096
S'JJ'
p2097
S'B-NP'
p2098
g5
tp2099
a(S'immunodeficiency'
p2100
S'immunodeficiency'
p2101
S'NN'
p2102
S'I-NP'
p2103
g5
tp2104
a(S'virus-infected'
p2105
S'virus-infected'
p2106
S'JJ'
p2107
S'I-NP'
p2108
g5
tp2109
a(S'patients.'
p2110
S'patients.'
p2111
S'NN'
p2112
S'I-NP'
p2113
g5
tp2114
a(S'However'
p2115
S'However'
p2116
S'RB'
p2117
S'B-ADVP'
p2118
g5
tp2119
a(g568
g568
g568
g5
g5
tp2120
a(S'levels'
p2121
S'level'
p2122
S'NNS'
p2123
S'B-NP'
p2124
g5
tp2125
a(S'between'
p2126
S'between'
p2127
S'IN'
p2128
S'B-PP'
p2129
g5
tp2130
a(S'0.5'
p2131
S'0.5'
p2132
S'CD'
p2133
S'B-NP'
p2134
g5
tp2135
a(S'and'
p2136
S'and'
p2137
S'CC'
p2138
S'I-NP'
p2139
g5
tp2140
a(S'1'
p2141
g2141
S'CD'
p2142
S'I-NP'
p2143
g5
tp2144
a(S'microg/ml'
p2145
S'microg/ml'
p2146
S'NN'
p2147
S'I-NP'
p2148
g5
tp2149
a(g98
g98
g98
g5
g5
tp2150
a(S'within'
p2151
S'within'
p2152
S'IN'
p2153
S'B-PP'
p2154
g5
tp2155
a(S'the'
p2156
S'the'
p2157
S'DT'
p2158
S'B-NP'
p2159
g5
tp2160
a(S'IC50'
p2161
S'IC50'
p2162
S'NN'
p2163
S'I-NP'
p2164
g5
tp2165
a(S'of'
p2166
S'of'
p2167
S'IN'
p2168
S'B-PP'
p2169
g5
tp2170
a(S'most'
p2171
S'most'
p2172
S'JJS'
p2173
S'B-NP'
p2174
g5
tp2175
a(S'cytomegalovirus'
p2176
S'cytomegalovirus'
p2177
S'NN'
p2178
S'I-NP'
p2179
g5
tp2180
a(S'isolates'
p2181
S'isolate'
p2182
S'NNS'
p2183
S'I-NP'
p2184
g5
tp2185
a(g106
g106
g106
g5
g5
tp2186
a(S'could'
p2187
S'could'
p2188
S'MD'
p2189
S'B-VP'
p2190
g5
tp2191
a(S'be'
p2192
S'be'
p2193
S'VB'
p2194
S'I-VP'
p2195
g5
tp2196
a(S'achieved'
p2197
S'achieve'
p2198
S'VBN'
p2199
S'I-VP'
p2200
g5
tp2201
a(S'with'
p2202
S'with'
p2203
S'IN'
p2204
S'B-PP'
p2205
g5
tp2206
a(S'tolerable'
p2207
S'tolerable'
p2208
S'JJ'
p2209
S'B-NP'
p2210
g5
tp2211
a(S'oral'
p2212
S'oral'
p2213
S'JJ'
p2214
S'I-NP'
p2215
g5
tp2216
a(S'doses.'
p2217
S'doses.'
p2218
S'NN'
p2219
S'I-NP'
p2220
g5
tp2221
a(S'The'
p2222
S'The'
p2223
S'DT'
p2224
S'B-NP'
p2225
g5
tp2226
a(S'proposed'
p2227
S'propose'
p2228
S'VBN'
p2229
S'I-NP'
p2230
g5
tp2231
a(S'dosing'
p2232
S'dosing'
p2233
S'NN'
p2234
S'I-NP'
p2235
g5
tp2236
a(S'algorithm'
p2237
S'algorithm'
p2238
S'NN'
p2239
S'I-NP'
p2240
g5
tp2241
a(S'resulted'
p2242
S'result'
p2243
S'VBD'
p2244
S'B-VP'
p2245
g5
tp2246
a(S'in'
p2247
S'in'
p2248
S'IN'
p2249
S'B-PP'
p2250
g5
tp2251
a(S'adequate'
p2252
S'adequate'
p2253
S'JJ'
p2254
S'B-NP'
p2255
g5
tp2256
a(S'levels'
p2257
S'level'
p2258
S'NNS'
p2259
S'I-NP'
p2260
g5
tp2261
a(S'for'
p2262
S'for'
p2263
S'IN'
p2264
S'B-PP'
p2265
g5
tp2266
a(S'patients'
p2267
S'patient'
p2268
S'NNS'
p2269
S'B-NP'
p2270
g5
tp2271
a(S'with'
p2272
S'with'
p2273
S'IN'
p2274
S'B-PP'
p2275
g5
tp2276
a(S'CrCl'
p2277
S'CrCl'
p2278
S'NN'
p2279
S'B-NP'
p2280
g5
tp2281
a(S'greater'
p2282
S'great'
p2283
S'JJR'
p2284
S'B-ADJP'
p2285
g5
tp2286
a(S'than'
p2287
S'than'
p2288
S'IN'
p2289
S'B-PP'
p2290
g5
tp2291
a(S'50'
p2292
S'50'
p2293
S'CD'
p2294
S'B-NP'
p2295
g5
tp2296
a(S'ml/min'
p2297
S'ml/min'
p2298
S'NN'
p2299
S'I-NP'
p2300
g5
tp2301
a(S'and'
p2302
S'and'
p2303
S'CC'
p2304
S'B-PP'
p2305
g5
tp2306
a(S'for'
p2307
S'for'
p2308
S'IN'
p2309
S'B-PP'
p2310
g5
tp2311
a(S'patients'
p2312
S'patient'
p2313
S'NNS'
p2314
S'B-NP'
p2315
g5
tp2316
a(S'on'
p2317
S'on'
p2318
S'IN'
p2319
S'B-PP'
p2320
g5
tp2321
a(S'dialysis.'
p2322
S'dialysis.'
p2323
S'NN'
p2324
S'B-NP'
p2325
g5
tp2326
a(S'For'
p2327
S'For'
p2328
S'IN'
p2329
S'B-PP'
p2330
g5
tp2331
a(S'patients'
p2332
S'patient'
p2333
S'NNS'
p2334
S'B-NP'
p2335
g5
tp2336
a(S'with'
p2337
S'with'
p2338
S'IN'
p2339
S'B-PP'
p2340
g5
tp2341
a(S'CrCl'
p2342
S'CrCl'
p2343
S'NN'
p2344
S'B-NP'
p2345
g5
tp2346
a(S'between'
p2347
S'between'
p2348
S'IN'
p2349
S'B-PP'
p2350
g5
tp2351
a(S'10'
p2352
S'10'
p2353
S'CD'
p2354
S'B-NP'
p2355
g5
tp2356
a(S'and'
p2357
S'and'
p2358
S'CC'
p2359
S'I-NP'
p2360
g5
tp2361
a(S'50'
p2362
S'50'
p2363
S'CD'
p2364
S'I-NP'
p2365
g5
tp2366
a(S'ml/min'
p2367
S'ml/min'
p2368
S'NN'
p2369
S'I-NP'
p2370
g5
tp2371
a(g568
g568
g568
g5
g5
tp2372
a(S'the'
p2373
S'the'
p2374
S'DT'
p2375
S'B-NP'
p2376
g5
tp2377
a(S'levels'
p2378
S'level'
p2379
S'NNS'
p2380
S'I-NP'
p2381
g5
tp2382
a(S'achieved'
p2383
S'achieve'
p2384
S'VBN'
p2385
S'B-VP'
p2386
g5
tp2387
a(S'were'
p2388
S'be'
p2389
S'VBD'
p2390
S'B-VP'
p2391
g5
tp2392
a(S'low'
p2393
S'low'
p2394
S'JJ'
p2395
S'B-ADJP'
p2396
g5
tp2397
a(S'and'
p2398
S'and'
p2399
S'CC'
p2400
g5
g5
tp2401
a(S'these'
p2402
S'these'
p2403
S'DT'
p2404
S'B-NP'
p2405
g5
tp2406
a(S'patients'
p2407
S'patient'
p2408
S'NNS'
p2409
S'I-NP'
p2410
g5
tp2411
a(S'would'
p2412
S'would'
p2413
S'MD'
p2414
S'B-VP'
p2415
g5
tp2416
a(S'likely'
p2417
S'likely'
p2418
S'RB'
p2419
S'I-VP'
p2420
g5
tp2421
a(S'benefit'
p2422
S'benefit'
p2423
S'VB'
p2424
S'I-VP'
p2425
g5
tp2426
a(S'from'
p2427
S'from'
p2428
S'IN'
p2429
S'B-PP'
p2430
g5
tp2431
a(S'increased'
p2432
S'increase'
p2433
S'VBN'
p2434
S'B-NP'
p2435
g5
tp2436
a(S'doses'
p2437
S'dose'
p2438
S'NNS'
p2439
S'I-NP'
p2440
g5
tp2441
a(g66
g66
g66
g5
g5
tp2442
a.