(lp0
(S'7-hexanoyltaxol-eluting'
p1
S'7-hexanoyltaxol-eluting'
p2
S'JJ'
p3
S'B-NP'
p4
S'O'
p5
tp6
a(S'stent'
p7
S'stent'
p8
S'NN'
p9
S'I-NP'
p10
g5
tp11
a(S'for'
p12
S'for'
p13
S'IN'
p14
S'B-PP'
p15
g5
tp16
a(S'prevention'
p17
S'prevention'
p18
S'NN'
p19
S'B-NP'
p20
g5
tp21
a(S'of'
p22
S'of'
p23
S'IN'
p24
S'B-PP'
p25
g5
tp26
a(S'neointimal'
p27
S'neointimal'
p28
S'JJ'
p29
S'B-NP'
p30
g5
tp31
a(S'growth'
p32
S'growth'
p33
S'NN'
p34
S'I-NP'
p35
g5
tp36
a(S':'
p37
g37
g37
g5
g5
tp38
a(S'an'
p39
S'an'
p40
S'DT'
p41
S'B-NP'
p42
g5
tp43
a(S'intravascular'
p44
S'intravascular'
p45
S'JJ'
p46
S'I-NP'
p47
g5
tp48
a(S'ultrasound'
p49
S'ultrasound'
p50
S'JJ'
p51
S'I-NP'
p52
g5
tp53
a(S'analysis'
p54
S'analysis'
p55
S'NN'
p56
S'I-NP'
p57
g5
tp58
a(S'from'
p59
S'from'
p60
S'IN'
p61
S'B-PP'
p62
g5
tp63
a(S'the'
p64
S'the'
p65
S'DT'
p66
S'B-NP'
p67
g5
tp68
a(S'Study'
p69
S'Study'
p70
S'NNP'
p71
S'I-NP'
p72
g5
tp73
a(S'to'
p74
S'to'
p75
S'TO'
p76
S'B-VP'
p77
g5
tp78
a(S'COmpare'
p79
S'COmpare'
p80
S'VB'
p81
S'I-VP'
p82
g5
tp83
a(S'REstenosis'
p84
S'REstenosis'
p85
S'NN'
p86
S'B-NP'
p87
g5
tp88
a(S'rate'
p89
S'rate'
p90
S'NN'
p91
S'I-NP'
p92
g5
tp93
a(S'between'
p94
S'between'
p95
S'IN'
p96
S'B-PP'
p97
g5
tp98
a(S'QueST'
p99
S'QueST'
p100
S'NN'
p101
S'B-NP'
p102
g5
tp103
a(S'and'
p104
S'and'
p105
S'CC'
p106
g5
g5
tp107
a(S'QuaDS-QP2'
p108
S'QuaDS-QP2'
p109
S'NN'
p110
S'B-NP'
p111
g5
tp112
a(S'('
p113
g113
g113
g5
g5
tp114
a(S'SCORE'
p115
S'SCORE'
p116
S'NN'
p117
S'B-NP'
p118
S'B-DNA'
p119
tp120
a(S')'
p121
g121
g121
g5
g5
tp122
a(S'.'
p123
g123
g123
g5
g5
tp124
a(S'BACKGROUND'
p125
S'BACKGROUND'
p126
S'NN'
p127
S'B-NP'
p128
g5
tp129
a(S'Inhibition'
p130
S'Inhibition'
p131
S'NN'
p132
S'I-NP'
p133
g5
tp134
a(S'of'
p135
S'of'
p136
S'IN'
p137
S'B-PP'
p138
g5
tp139
a(S'neointimal'
p140
S'neointimal'
p141
S'JJ'
p142
S'B-NP'
p143
g5
tp144
a(S'tissue'
p145
S'tissue'
p146
S'NN'
p147
S'I-NP'
p148
g5
tp149
a(S'growth'
p150
S'growth'
p151
S'NN'
p152
S'I-NP'
p153
g5
tp154
a(S'has'
p155
S'have'
p156
S'VBZ'
p157
S'B-VP'
p158
g5
tp159
a(S'been'
p160
S'be'
p161
S'VBN'
p162
S'I-VP'
p163
g5
tp164
a(S'demonstrated'
p165
S'demonstrate'
p166
S'VBN'
p167
S'I-VP'
p168
g5
tp169
a(S'in'
p170
S'in'
p171
S'IN'
p172
S'B-PP'
p173
g5
tp174
a(S'preliminary'
p175
S'preliminary'
p176
S'JJ'
p177
S'B-NP'
p178
g5
tp179
a(S'human'
p180
S'human'
p181
S'JJ'
p182
S'I-NP'
p183
g5
tp184
a(S'feasibility'
p185
S'feasibility'
p186
S'NN'
p187
S'I-NP'
p188
g5
tp189
a(S'studies'
p190
S'study'
p191
S'NNS'
p192
S'I-NP'
p193
g5
tp194
a(S'with'
p195
S'with'
p196
S'IN'
p197
S'B-PP'
p198
g5
tp199
a(S'a'
p200
g200
S'DT'
p201
S'B-NP'
p202
g5
tp203
a(S'stent-based'
p204
S'stent-based'
p205
S'JJ'
p206
S'I-NP'
p207
g5
tp208
a(S'polymer'
p209
S'polymer'
p210
S'NN'
p211
S'I-NP'
p212
g5
tp213
a(S'sleeve'
p214
S'sleeve'
p215
S'NN'
p216
S'I-NP'
p217
g5
tp218
a(S'delivering'
p219
S'deliver'
p220
S'VBG'
p221
S'B-VP'
p222
g5
tp223
a(S'7-hexanoyltaxol.'
p224
S'7-hexanoyltaxol.'
p225
S'NN'
p226
S'B-NP'
p227
g5
tp228
a(S'The'
p229
S'The'
p230
S'DT'
p231
S'B-NP'
p232
g5
tp233
a(S'Study'
p234
S'Study'
p235
S'NNP'
p236
S'I-NP'
p237
g5
tp238
a(S'to'
p239
S'to'
p240
S'TO'
p241
S'B-VP'
p242
g5
tp243
a(S'COmpare'
p244
S'COmpare'
p245
S'VB'
p246
S'I-VP'
p247
g5
tp248
a(S'REstenosis'
p249
S'REstenosis'
p250
S'NN'
p251
S'B-NP'
p252
g5
tp253
a(S'rate'
p254
S'rate'
p255
S'NN'
p256
S'I-NP'
p257
g5
tp258
a(S'between'
p259
S'between'
p260
S'IN'
p261
S'B-PP'
p262
g5
tp263
a(S'QueST'
p264
S'QueST'
p265
S'NN'
p266
S'B-NP'
p267
g5
tp268
a(S'and'
p269
S'and'
p270
S'CC'
p271
g5
g5
tp272
a(S'QuaDS-QP2'
p273
S'QuaDS-QP2'
p274
S'NN'
p275
S'B-NP'
p276
g5
tp277
a(g113
g113
g113
g5
g5
tp278
a(S'SCORE'
p279
S'SCORE'
p280
S'NN'
p281
S'B-NP'
p282
g5
tp283
a(g121
g121
g121
g5
g5
tp284
a(S'trial'
p285
S'trial'
p286
S'NN'
p287
S'B-NP'
p288
g5
tp289
a(S'is'
p290
S'be'
p291
S'VBZ'
p292
S'B-VP'
p293
g5
tp294
a(g200
g200
S'DT'
p295
S'B-NP'
p296
g5
tp297
a(S'human'
p298
S'human'
p299
S'JJ'
p300
S'I-NP'
p301
g5
tp302
a(S','
p303
g303
g303
S'I-NP'
p304
g5
tp305
a(S'randomized'
p306
S'randomize'
p307
S'VBN'
p308
S'I-NP'
p309
g5
tp310
a(g303
g303
g303
S'I-NP'
p311
g5
tp312
a(S'multicenter'
p313
S'multicenter'
p314
S'JJ'
p315
S'I-NP'
p316
g5
tp317
a(S'trial'
p318
S'trial'
p319
S'NN'
p320
S'I-NP'
p321
g5
tp322
a(S'comparing'
p323
S'compare'
p324
S'VBG'
p325
S'B-VP'
p326
g5
tp327
a(S'7-hexanoyltaxol'
p328
S'7-hexanoyltaxol'
p329
S'NN'
p330
S'B-NP'
p331
g5
tp332
a(g113
g113
g113
g5
g5
tp333
a(S'QP2'
p334
S'QP2'
p335
S'NN'
p336
S'B-NP'
p337
S'B-protein'
p338
tp339
a(g121
g121
g121
g5
g5
tp340
a(S'-eluting'
p341
S'-eluting'
p342
S'JJ'
p343
S'B-NP'
p344
g5
tp345
a(S'stents'
p346
S'stent'
p347
S'NNS'
p348
S'I-NP'
p349
g5
tp350
a(g113
g113
g113
g5
g5
tp351
a(S'qDES'
p352
S'qDES'
p353
S'NN'
p354
S'B-NP'
p355
g5
tp356
a(g121
g121
g121
g5
g5
tp357
a(S'with'
p358
S'with'
p359
S'IN'
p360
S'B-PP'
p361
g5
tp362
a(S'bare'
p363
S'bare'
p364
S'JJ'
p365
S'B-NP'
p366
g5
tp367
a(S'metal'
p368
S'metal'
p369
S'NN'
p370
S'I-NP'
p371
g5
tp372
a(S'stents'
p373
S'stent'
p374
S'NNS'
p375
S'I-NP'
p376
g5
tp377
a(g113
g113
g113
g5
g5
tp378
a(S'BMS'
p379
S'BMS'
p380
S'NNS'
p381
S'B-NP'
p382
S'B-cell_type'
p383
tp384
a(g121
g121
g121
g5
g5
tp385
a(S'in'
p386
S'in'
p387
S'IN'
p388
S'B-PP'
p389
g5
tp390
a(S'the'
p391
S'the'
p392
S'DT'
p393
S'B-NP'
p394
g5
tp395
a(S'treatment'
p396
S'treatment'
p397
S'NN'
p398
S'I-NP'
p399
g5
tp400
a(S'of'
p401
S'of'
p402
S'IN'
p403
S'B-PP'
p404
g5
tp405
a(S'de'
p406
S'de'
p407
S'FW'
p408
S'B-NP'
p409
g5
tp410
a(S'novo'
p411
S'novo'
p412
S'FW'
p413
S'I-NP'
p414
g5
tp415
a(S'coronary'
p416
S'coronary'
p417
S'JJ'
p418
S'B-NP'
p419
g5
tp420
a(S'lesions.'
p421
S'lesions.'
p422
S'FW'
p423
S'I-NP'
p424
g5
tp425
a(S'The'
p426
S'The'
p427
S'DT'
p428
S'B-NP'
p429
g5
tp430
a(S'purpose'
p431
S'purpose'
p432
S'NN'
p433
S'I-NP'
p434
g5
tp435
a(S'of'
p436
S'of'
p437
S'IN'
p438
S'B-PP'
p439
g5
tp440
a(S'this'
p441
S'this'
p442
S'DT'
p443
S'B-NP'
p444
g5
tp445
a(S'substudy'
p446
S'substudy'
p447
S'NN'
p448
S'I-NP'
p449
g5
tp450
a(S'was'
p451
S'be'
p452
S'VBD'
p453
S'B-VP'
p454
g5
tp455
a(S'to'
p456
S'to'
p457
S'TO'
p458
S'B-VP'
p459
g5
tp460
a(S'evaluate'
p461
S'evaluate'
p462
S'VB'
p463
S'I-VP'
p464
g5
tp465
a(S'the'
p466
S'the'
p467
S'DT'
p468
S'B-NP'
p469
g5
tp470
a(S'acute'
p471
S'acute'
p472
S'JJ'
p473
S'I-NP'
p474
g5
tp475
a(S'expansion'
p476
S'expansion'
p477
S'NN'
p478
S'I-NP'
p479
g5
tp480
a(S'property'
p481
S'property'
p482
S'NN'
p483
S'I-NP'
p484
g5
tp485
a(S'and'
p486
S'and'
p487
S'CC'
p488
g5
g5
tp489
a(S'long-term'
p490
S'long-term'
p491
S'JJ'
p492
S'B-NP'
p493
g5
tp494
a(S'neointimal'
p495
S'neointimal'
p496
S'JJ'
p497
S'I-NP'
p498
g5
tp499
a(S'responses'
p500
S'response'
p501
S'NNS'
p502
S'I-NP'
p503
g5
tp504
a(S'of'
p505
S'of'
p506
S'IN'
p507
S'B-PP'
p508
g5
tp509
a(S'qDES'
p510
S'qDES'
p511
S'NN'
p512
S'B-NP'
p513
g5
tp514
a(S'compared'
p515
S'compare'
p516
S'VBN'
p517
S'B-PP'
p518
g5
tp519
a(S'with'
p520
S'with'
p521
S'IN'
p522
S'B-PP'
p523
g5
tp524
a(S'BMS'
p525
S'BMS'
p526
S'NN'
p527
S'B-NP'
p528
S'B-protein'
p529
tp530
a(S'as'
p531
S'as'
p532
S'IN'
p533
S'B-SBAR'
p534
g5
tp535
a(S'assessed'
p536
S'assess'
p537
S'VBN'
p538
S'B-VP'
p539
g5
tp540
a(S'by'
p541
S'by'
p542
S'IN'
p543
S'B-PP'
p544
g5
tp545
a(S'intravascular'
p546
S'intravascular'
p547
S'JJ'
p548
S'B-NP'
p549
g5
tp550
a(S'ultrasound'
p551
S'ultrasound'
p552
S'NN'
p553
S'I-NP'
p554
g5
tp555
a(g113
g113
g113
g5
g5
tp556
a(S'IVUS'
p557
S'IVUS'
p558
S'NN'
p559
S'B-NP'
p560
S'B-protein'
p561
tp562
a(g121
g121
g121
g5
g5
tp563
a(g123
g123
g123
g5
g5
tp564
a(S'METHODS'
p565
S'METHODS'
p566
S'NNS'
p567
S'B-NP'
p568
g5
tp569
a(S'AND'
p570
S'AND'
p571
S'CC'
p572
S'I-NP'
p573
g5
tp574
a(S'RESULTS'
p575
S'RESULTS'
p576
S'NNS'
p577
S'I-NP'
p578
g5
tp579
a(S'A'
p580
g580
S'DT'
p581
S'B-NP'
p582
g5
tp583
a(S'total'
p584
S'total'
p585
S'NN'
p586
S'I-NP'
p587
g5
tp588
a(S'of'
p589
S'of'
p590
S'IN'
p591
S'B-PP'
p592
g5
tp593
a(S'122'
p594
S'122'
p595
S'CD'
p596
S'B-NP'
p597
g5
tp598
a(g113
g113
g113
g5
g5
tp599
a(S'qDES'
p600
S'qDES'
p601
S'NN'
p602
S'B-NP'
p603
S'B-DNA'
p604
tp605
a(S'66'
p606
S'66'
p607
S'CD'
p608
S'I-NP'
p609
S'I-DNA'
p610
tp611
a(g303
g303
g303
g5
g5
tp612
a(S'BMS'
p613
S'BMS'
p614
S'NN'
p615
S'B-NP'
p616
g5
tp617
a(S'56'
p618
S'56'
p619
S'CD'
p620
S'I-NP'
p621
g5
tp622
a(g121
g121
g121
g5
g5
tp623
a(S'patients'
p624
S'patient'
p625
S'NNS'
p626
S'B-NP'
p627
g5
tp628
a(S'were'
p629
S'be'
p630
S'VBD'
p631
S'B-VP'
p632
g5
tp633
a(S'enrolled'
p634
S'enrol'
p635
S'VBN'
p636
S'I-VP'
p637
g5
tp638
a(S'into'
p639
S'into'
p640
S'IN'
p641
S'B-PP'
p642
g5
tp643
a(S'the'
p644
S'the'
p645
S'DT'
p646
S'B-NP'
p647
g5
tp648
a(S'IVUS'
p649
S'IVUS'
p650
S'NNP'
p651
S'I-NP'
p652
g5
tp653
a(S'substudy.'
p654
S'substudy.'
p655
S'NN'
p656
S'I-NP'
p657
g5
tp658
a(S'All'
p659
S'All'
p660
S'DT'
p661
S'B-NP'
p662
g5
tp663
a(S'IVUS'
p664
S'IVUS'
p665
S'JJ'
p666
S'I-NP'
p667
g5
tp668
a(S'images'
p669
S'image'
p670
S'NNS'
p671
S'I-NP'
p672
g5
tp673
a(g113
g113
g113
g5
g5
tp674
a(S'immediately'
p675
S'immediately'
p676
S'RB'
p677
S'B-ADVP'
p678
g5
tp679
a(S'after'
p680
S'after'
p681
S'IN'
p682
S'B-PP'
p683
g5
tp684
a(S'the'
p685
S'the'
p686
S'DT'
p687
S'B-NP'
p688
g5
tp689
a(S'procedure'
p690
S'procedure'
p691
S'NN'
p692
S'I-NP'
p693
g5
tp694
a(S'and'
p695
S'and'
p696
S'CC'
p697
S'B-PP'
p698
g5
tp699
a(S'at'
p700
S'at'
p701
S'IN'
p702
S'B-PP'
p703
g5
tp704
a(S'6-month'
p705
S'6-month'
p706
S'JJ'
p707
S'B-NP'
p708
g5
tp709
a(S'follow-up'
p710
S'follow-up'
p711
S'NN'
p712
S'I-NP'
p713
g5
tp714
a(g121
g121
g121
g5
g5
tp715
a(S'were'
p716
S'be'
p717
S'VBD'
p718
S'B-VP'
p719
g5
tp720
a(S'analyzed'
p721
S'analyze'
p722
S'VBN'
p723
S'I-VP'
p724
g5
tp725
a(S'at'
p726
S'at'
p727
S'IN'
p728
S'B-PP'
p729
g5
tp730
a(S'an'
p731
S'an'
p732
S'DT'
p733
S'B-NP'
p734
g5
tp735
a(S'independent'
p736
S'independent'
p737
S'JJ'
p738
S'I-NP'
p739
g5
tp740
a(S'core'
p741
S'core'
p742
S'NN'
p743
S'I-NP'
p744
g5
tp745
a(S'laboratory'
p746
S'laboratory'
p747
S'NN'
p748
S'I-NP'
p749
g5
tp750
a(S'in'
p751
S'in'
p752
S'IN'
p753
S'B-PP'
p754
g5
tp755
a(g200
g200
S'DT'
p756
S'B-NP'
p757
g5
tp758
a(S'blind'
p759
S'blind'
p760
S'JJ'
p761
S'I-NP'
p762
g5
tp763
a(S'manner.'
p764
S'manner.'
p765
S'NN'
p766
S'I-NP'
p767
g5
tp768
a(S'At'
p769
S'At'
p770
S'IN'
p771
S'B-PP'
p772
g5
tp773
a(S'baseline'
p774
S'baseline'
p775
S'NN'
p776
S'B-NP'
p777
g5
tp778
a(g303
g303
g303
g5
g5
tp779
a(S'qDES'
p780
S'qDES'
p781
S'NN'
p782
S'B-NP'
p783
g5
tp784
a(S'achieved'
p785
S'achieve'
p786
S'VBD'
p787
S'B-VP'
p788
g5
tp789
a(S'stent'
p790
S'stent'
p791
S'JJ'
p792
S'B-NP'
p793
g5
tp794
a(S'expansion'
p795
S'expansion'
p796
S'NN'
p797
S'I-NP'
p798
g5
tp799
a(S'similar'
p800
S'similar'
p801
S'JJ'
p802
S'B-ADJP'
p803
g5
tp804
a(S'to'
p805
S'to'
p806
S'TO'
p807
S'B-PP'
p808
g5
tp809
a(S'BMS.'
p810
S'BMS.'
p811
S'NNP'
p812
S'B-NP'
p813
g5
tp814
a(S'At'
p815
S'At'
p816
S'IN'
p817
S'B-PP'
p818
g5
tp819
a(S'follow-up'
p820
S'follow-up'
p821
S'NN'
p822
S'B-NP'
p823
g5
tp824
a(g303
g303
g303
g5
g5
tp825
a(S'qDES'
p826
S'qDES'
p827
S'NN'
p828
S'B-NP'
p829
g5
tp830
a(S'showed'
p831
S'show'
p832
S'VBD'
p833
S'B-VP'
p834
g5
tp835
a(S'reduced'
p836
S'reduce'
p837
S'VBN'
p838
S'I-VP'
p839
g5
tp840
a(S'neointimal'
p841
S'neointimal'
p842
S'JJ'
p843
S'B-NP'
p844
g5
tp845
a(S'growth'
p846
S'growth'
p847
S'NN'
p848
S'I-NP'
p849
g5
tp850
a(S'by'
p851
S'by'
p852
S'IN'
p853
S'B-PP'
p854
g5
tp855
a(S'70'
p856
S'70'
p857
S'CD'
p858
S'B-NP'
p859
g5
tp860
a(S'%'
p861
g861
S'NN'
p862
S'I-NP'
p863
g5
tp864
a(S'at'
p865
S'at'
p866
S'IN'
p867
S'B-PP'
p868
g5
tp869
a(S'the'
p870
S'the'
p871
S'DT'
p872
S'B-NP'
p873
g5
tp874
a(S'tightest'
p875
S'tight'
p876
S'JJS'
p877
S'I-NP'
p878
g5
tp879
a(S'cross'
p880
S'cross'
p881
S'NN'
p882
S'I-NP'
p883
g5
tp884
a(S'section'
p885
S'section'
p886
S'NN'
p887
S'I-NP'
p888
g5
tp889
a(S'and'
p890
S'and'
p891
S'CC'
p892
S'B-PP'
p893
g5
tp894
a(S'by'
p895
S'by'
p896
S'IN'
p897
S'B-PP'
p898
g5
tp899
a(S'68'
p900
S'68'
p901
S'CD'
p902
S'B-NP'
p903
g5
tp904
a(g861
g861
S'NN'
p905
S'I-NP'
p906
g5
tp907
a(S'over'
p908
S'over'
p909
S'IN'
p910
S'B-PP'
p911
g5
tp912
a(S'the'
p913
S'the'
p914
S'DT'
p915
S'B-NP'
p916
g5
tp917
a(S'stented'
p918
S'stented'
p919
S'JJ'
p920
S'I-NP'
p921
g5
tp922
a(S'segment'
p923
S'segment'
p924
S'NN'
p925
S'I-NP'
p926
g5
tp927
a(g113
g113
g113
g5
g5
tp928
a(S'P'
p929
g929
S'NN'
p930
S'B-NP'
p931
g5
tp932
a(S'<'
p933
g933
S'SYM'
p934
g5
g5
tp935
a(S'0.0001'
p936
S'0.0001'
p937
S'CD'
p938
S'B-NP'
p939
g5
tp940
a(S'for'
p941
S'for'
p942
S'IN'
p943
S'B-PP'
p944
g5
tp945
a(S'both'
p946
S'both'
p947
S'DT'
p948
S'B-NP'
p949
g5
tp950
a(g121
g121
g121
g5
g5
tp951
a(g303
g303
g303
g5
g5
tp952
a(S'resulting'
p953
S'result'
p954
S'VBG'
p955
S'B-VP'
p956
g5
tp957
a(S'in'
p958
S'in'
p959
S'IN'
p960
S'B-PP'
p961
g5
tp962
a(g200
g200
S'DT'
p963
S'B-NP'
p964
g5
tp965
a(S'significantly'
p966
S'significantly'
p967
S'RB'
p968
S'I-NP'
p969
g5
tp970
a(S'larger'
p971
S'large'
p972
S'JJR'
p973
S'I-NP'
p974
g5
tp975
a(S'lumen'
p976
S'lumen'
p977
S'NN'
p978
S'I-NP'
p979
g5
tp980
a(S'in'
p981
S'in'
p982
S'IN'
p983
S'B-PP'
p984
g5
tp985
a(S'qDES'
p986
S'qDES'
p987
S'NN'
p988
S'B-NP'
p989
g5
tp990
a(S'than'
p991
S'than'
p992
S'IN'
p993
S'B-PP'
p994
g5
tp995
a(S'in'
p996
S'in'
p997
S'IN'
p998
S'B-PP'
p999
g5
tp1000
a(S'BMS.'
p1001
S'BMS.'
p1002
S'NNP'
p1003
S'B-NP'
p1004
g5
tp1005
a(S'Unlike'
p1006
S'Unlike'
p1007
S'IN'
p1008
S'B-PP'
p1009
g5
tp1010
a(S'intracoronary'
p1011
S'intracoronary'
p1012
S'JJ'
p1013
S'B-NP'
p1014
g5
tp1015
a(S'brachytherapy'
p1016
S'brachytherapy'
p1017
S'NN'
p1018
S'I-NP'
p1019
g5
tp1020
a(g303
g303
g303
g5
g5
tp1021
a(S'there'
p1022
S'there'
p1023
S'EX'
p1024
S'B-NP'
p1025
g5
tp1026
a(S'was'
p1027
S'be'
p1028
S'VBD'
p1029
S'B-VP'
p1030
g5
tp1031
a(S'no'
p1032
S'no'
p1033
S'DT'
p1034
S'B-NP'
p1035
g5
tp1036
a(S'evidence'
p1037
S'evidence'
p1038
S'NN'
p1039
S'I-NP'
p1040
g5
tp1041
a(S'of'
p1042
S'of'
p1043
S'IN'
p1044
S'B-PP'
p1045
g5
tp1046
a(S'negative'
p1047
S'negative'
p1048
S'JJ'
p1049
S'B-NP'
p1050
g5
tp1051
a(S'edge'
p1052
S'edge'
p1053
S'NN'
p1054
S'I-NP'
p1055
g5
tp1056
a(S'effects'
p1057
S'effect'
p1058
S'NNS'
p1059
S'I-NP'
p1060
g5
tp1061
a(g303
g303
g303
g5
g5
tp1062
a(S'unhealed'
p1063
S'unhealed'
p1064
S'JJ'
p1065
S'B-NP'
p1066
g5
tp1067
a(S'dissections'
p1068
S'dissection'
p1069
S'NNS'
p1070
S'I-NP'
p1071
g5
tp1072
a(g303
g303
g303
g5
g5
tp1073
a(S'or'
p1074
S'or'
p1075
S'CC'
p1076
g5
g5
tp1077
a(S'late'
p1078
S'late'
p1079
S'JJ'
p1080
S'B-NP'
p1081
g5
tp1082
a(S'stent-vessel'
p1083
S'stent-vessel'
p1084
S'JJ'
p1085
S'I-NP'
p1086
g5
tp1087
a(S'wall'
p1088
S'wall'
p1089
S'NN'
p1090
S'I-NP'
p1091
g5
tp1092
a(S'malapposition'
p1093
S'malapposition'
p1094
S'NN'
p1095
S'I-NP'
p1096
g5
tp1097
a(S'over'
p1098
S'over'
p1099
S'IN'
p1100
S'B-PP'
p1101
g5
tp1102
a(S'the'
p1103
S'the'
p1104
S'DT'
p1105
S'B-NP'
p1106
g5
tp1107
a(S'stented'
p1108
S'stented'
p1109
S'JJ'
p1110
S'I-NP'
p1111
g5
tp1112
a(S'and'
p1113
S'and'
p1114
S'CC'
p1115
S'I-NP'
p1116
g5
tp1117
a(S'adjacent'
p1118
S'adjacent'
p1119
S'JJ'
p1120
S'I-NP'
p1121
g5
tp1122
a(S'references'
p1123
S'reference'
p1124
S'NNS'
p1125
S'I-NP'
p1126
g5
tp1127
a(S'segments'
p1128
S'segment'
p1129
S'NNS'
p1130
S'I-NP'
p1131
g5
tp1132
a(S'in'
p1133
S'in'
p1134
S'IN'
p1135
S'B-PP'
p1136
g5
tp1137
a(S'either'
p1138
S'either'
p1139
S'DT'
p1140
S'B-NP'
p1141
g5
tp1142
a(S'group'
p1143
S'group'
p1144
S'NN'
p1145
S'I-NP'
p1146
g5
tp1147
a(g123
g123
g123
g5
g5
tp1148
a(S'CONCLUSIONS'
p1149
S'CONCLUSIONS'
p1150
S'NNS'
p1151
S'B-NP'
p1152
g5
tp1153
a(S'Detailed'
p1154
S'Detail'
p1155
S'VBD'
p1156
S'B-VP'
p1157
g5
tp1158
a(S'IVUS'
p1159
S'IVUS'
p1160
S'NN'
p1161
S'B-NP'
p1162
g5
tp1163
a(S'analysis'
p1164
S'analysis'
p1165
S'NN'
p1166
S'I-NP'
p1167
g5
tp1168
a(S'revealed'
p1169
S'reveal'
p1170
S'VBD'
p1171
S'B-VP'
p1172
g5
tp1173
a(S'that'
p1174
S'that'
p1175
S'IN'
p1176
S'B-SBAR'
p1177
g5
tp1178
a(S'qDES'
p1179
S'qDES'
p1180
S'NN'
p1181
S'B-NP'
p1182
g5
tp1183
a(S'had'
p1184
S'have'
p1185
S'VBD'
p1186
S'B-VP'
p1187
g5
tp1188
a(S'comparable'
p1189
S'comparable'
p1190
S'JJ'
p1191
S'B-NP'
p1192
g5
tp1193
a(S'acute'
p1194
S'acute'
p1195
S'JJ'
p1196
S'I-NP'
p1197
g5
tp1198
a(S'mechanical'
p1199
S'mechanical'
p1200
S'JJ'
p1201
S'I-NP'
p1202
g5
tp1203
a(S'and'
p1204
S'and'
p1205
S'CC'
p1206
S'I-NP'
p1207
g5
tp1208
a(S'superior'
p1209
S'superior'
p1210
S'JJ'
p1211
S'I-NP'
p1212
g5
tp1213
a(S'long-term'
p1214
S'long-term'
p1215
S'JJ'
p1216
S'I-NP'
p1217
g5
tp1218
a(S'biological'
p1219
S'biological'
p1220
S'JJ'
p1221
S'I-NP'
p1222
g5
tp1223
a(S'effects'
p1224
S'effect'
p1225
S'NNS'
p1226
S'I-NP'
p1227
g5
tp1228
a(S'to'
p1229
S'to'
p1230
S'TO'
p1231
S'B-PP'
p1232
g5
tp1233
a(S'BMS.'
p1234
S'BMS.'
p1235
S'NNP'
p1236
S'B-NP'
p1237
g5
tp1238
a(S'Although'
p1239
S'Although'
p1240
S'IN'
p1241
S'B-SBAR'
p1242
g5
tp1243
a(S'the'
p1244
S'the'
p1245
S'DT'
p1246
S'B-NP'
p1247
g5
tp1248
a(S'long-term'
p1249
S'long-term'
p1250
S'JJ'
p1251
S'I-NP'
p1252
g5
tp1253
a(S'benefits'
p1254
S'benefit'
p1255
S'NNS'
p1256
S'I-NP'
p1257
g5
tp1258
a(S'and'
p1259
S'and'
p1260
S'CC'
p1261
S'I-NP'
p1262
g5
tp1263
a(S'limitations'
p1264
S'limitation'
p1265
S'NNS'
p1266
S'I-NP'
p1267
g5
tp1268
a(S'of'
p1269
S'of'
p1270
S'IN'
p1271
S'B-PP'
p1272
g5
tp1273
a(S'this'
p1274
S'this'
p1275
S'DT'
p1276
S'B-NP'
p1277
g5
tp1278
a(S'technology'
p1279
S'technology'
p1280
S'NN'
p1281
S'I-NP'
p1282
g5
tp1283
a(S'require'
p1284
S'require'
p1285
S'VB'
p1286
S'B-VP'
p1287
g5
tp1288
a(S'further'
p1289
S'far'
p1290
S'JJR'
p1291
S'B-NP'
p1292
g5
tp1293
a(S'investigation'
p1294
S'investigation'
p1295
S'NN'
p1296
S'I-NP'
p1297
g5
tp1298
a(g303
g303
g303
g5
g5
tp1299
a(S'the'
p1300
S'the'
p1301
S'DT'
p1302
S'B-NP'
p1303
g5
tp1304
a(S'reduction'
p1305
S'reduction'
p1306
S'NN'
p1307
S'I-NP'
p1308
g5
tp1309
a(S'in'
p1310
S'in'
p1311
S'IN'
p1312
S'B-PP'
p1313
g5
tp1314
a(S'neointimal'
p1315
S'neointimal'
p1316
S'JJ'
p1317
S'B-NP'
p1318
g5
tp1319
a(S'thickenings'
p1320
S'thickening'
p1321
S'NNS'
p1322
S'I-NP'
p1323
g5
tp1324
a(S'demonstrated'
p1325
S'demonstrate'
p1326
S'VBD'
p1327
S'B-VP'
p1328
g5
tp1329
a(S'that'
p1330
S'that'
p1331
S'IN'
p1332
S'B-SBAR'
p1333
g5
tp1334
a(S'local'
p1335
S'local'
p1336
S'JJ'
p1337
S'B-NP'
p1338
g5
tp1339
a(S'delivery'
p1340
S'delivery'
p1341
S'NN'
p1342
S'I-NP'
p1343
g5
tp1344
a(S'of'
p1345
S'of'
p1346
S'IN'
p1347
S'B-PP'
p1348
g5
tp1349
a(S'7-hexanoyltaxol'
p1350
S'7-hexanoyltaxol'
p1351
S'NN'
p1352
S'B-NP'
p1353
g5
tp1354
a(S'through'
p1355
S'through'
p1356
S'IN'
p1357
S'B-PP'
p1358
g5
tp1359
a(S'polymer'
p1360
S'polymer'
p1361
S'NN'
p1362
S'B-NP'
p1363
g5
tp1364
a(S'sleeves'
p1365
S'sleeve'
p1366
S'NNS'
p1367
S'I-NP'
p1368
g5
tp1369
a(S'augments'
p1370
S'augment'
p1371
S'VBZ'
p1372
S'B-VP'
p1373
g5
tp1374
a(S'conventional'
p1375
S'conventional'
p1376
S'JJ'
p1377
S'B-NP'
p1378
g5
tp1379
a(S'mechanical'
p1380
S'mechanical'
p1381
S'JJ'
p1382
S'I-NP'
p1383
g5
tp1384
a(S'treatment'
p1385
S'treatment'
p1386
S'NN'
p1387
S'I-NP'
p1388
g5
tp1389
a(S'of'
p1390
S'of'
p1391
S'IN'
p1392
S'B-PP'
p1393
g5
tp1394
a(S'atherosclerotic'
p1395
S'atherosclerotic'
p1396
S'JJ'
p1397
S'B-NP'
p1398
g5
tp1399
a(S'disease'
p1400
S'disease'
p1401
S'NN'
p1402
S'I-NP'
p1403
g5
tp1404
a(g123
g123
g123
g5
g5
tp1405
a.