(lp0
(S'Diet'
p1
S'Diet'
p2
S'NN'
p3
S'B-NP'
p4
S'O'
p5
tp6
a(S'and'
p7
S'and'
p8
S'CC'
p9
S'I-NP'
p10
g5
tp11
a(S'tobacco'
p12
S'tobacco'
p13
S'NN'
p14
S'I-NP'
p15
g5
tp16
a(S'use'
p17
S'use'
p18
S'NN'
p19
S'I-NP'
p20
g5
tp21
a(S':'
p22
g22
g22
g5
g5
tp23
a(S'analysis'
p24
S'analysis'
p25
S'NN'
p26
S'B-NP'
p27
g5
tp28
a(S'of'
p29
S'of'
p30
S'IN'
p31
S'B-PP'
p32
g5
tp33
a(S'data'
p34
S'datum'
p35
S'NNS'
p36
S'B-NP'
p37
g5
tp38
a(S'from'
p39
S'from'
p40
S'IN'
p41
S'B-PP'
p42
g5
tp43
a(S'the'
p44
S'the'
p45
S'DT'
p46
S'B-NP'
p47
g5
tp48
a(S'diabetic'
p49
S'diabetic'
p50
S'JJ'
p51
S'I-NP'
p52
g5
tp53
a(S'control'
p54
S'control'
p55
S'NN'
p56
S'I-NP'
p57
g5
tp58
a(S'and'
p59
S'and'
p60
S'CC'
p61
S'I-NP'
p62
g5
tp63
a(S'complications'
p64
S'complication'
p65
S'NNS'
p66
S'I-NP'
p67
g5
tp68
a(S'trial'
p69
S'trial'
p70
S'NN'
p71
S'I-NP'
p72
g5
tp73
a(S','
p74
g74
g74
g5
g5
tp75
a(S'a'
p76
g76
S'DT'
p77
S'B-NP'
p78
g5
tp79
a(S'randomized'
p80
S'randomize'
p81
S'VBN'
p82
S'I-NP'
p83
g5
tp84
a(S'study'
p85
S'study'
p86
S'NN'
p87
S'I-NP'
p88
g5
tp89
a(S'.'
p90
g90
g90
g5
g5
tp91
a(S'CONTEXT'
p92
S'CONTEXT'
p93
S'NN'
p94
S'B-NP'
p95
g5
tp96
a(S'The'
p97
S'The'
p98
S'DT'
p99
S'B-NP'
p100
g5
tp101
a(S'Diabetic'
p102
S'Diabetic'
p103
S'JJ'
p104
S'I-NP'
p105
g5
tp106
a(S'Control'
p107
S'Control'
p108
S'NN'
p109
S'I-NP'
p110
g5
tp111
a(S'and'
p112
S'and'
p113
S'CC'
p114
S'I-NP'
p115
g5
tp116
a(S'Complications'
p117
S'Complication'
p118
S'NNS'
p119
S'I-NP'
p120
g5
tp121
a(S'Trial'
p122
S'Trial'
p123
S'NN'
p124
S'I-NP'
p125
g5
tp126
a(S'('
p127
g127
g127
g5
g5
tp128
a(S'DCCT'
p129
S'DCCT'
p130
S'NN'
p131
S'B-NP'
p132
g5
tp133
a(S')'
p134
g134
g134
g5
g5
tp135
a(S'researchers'
p136
S'researcher'
p137
S'NNS'
p138
S'B-NP'
p139
g5
tp140
a(S'kept'
p141
S'keep'
p142
S'VBD'
p143
S'B-VP'
p144
g5
tp145
a(S'careful'
p146
S'careful'
p147
S'JJ'
p148
S'B-NP'
p149
g5
tp150
a(S'records'
p151
S'record'
p152
S'NNS'
p153
S'I-NP'
p154
g5
tp155
a(S'of'
p156
S'of'
p157
S'IN'
p158
S'B-PP'
p159
g5
tp160
a(S'the'
p161
S'the'
p162
S'DT'
p163
S'B-NP'
p164
g5
tp165
a(S'food'
p166
S'food'
p167
S'NN'
p168
S'I-NP'
p169
g5
tp170
a(S'consumption'
p171
S'consumption'
p172
S'NN'
p173
S'I-NP'
p174
g5
tp175
a(S'and'
p176
S'and'
p177
S'CC'
p178
S'I-NP'
p179
g5
tp180
a(S'tobacco'
p181
S'tobacco'
p182
S'NN'
p183
S'I-NP'
p184
g5
tp185
a(S'using'
p186
S'use'
p187
S'VBG'
p188
S'B-VP'
p189
g5
tp190
a(S'habits'
p191
S'habit'
p192
S'NNS'
p193
S'B-NP'
p194
g5
tp195
a(S'of'
p196
S'of'
p197
S'IN'
p198
S'B-PP'
p199
g5
tp200
a(S'type'
p201
S'type'
p202
S'NN'
p203
S'B-NP'
p204
g5
tp205
a(S'1'
p206
g206
S'CD'
p207
S'I-NP'
p208
g5
tp209
a(S'diabetic'
p210
S'diabetic'
p211
S'JJ'
p212
S'I-NP'
p213
g5
tp214
a(S'subjects.'
p215
S'subjects.'
p216
S'NNS'
p217
S'I-NP'
p218
g5
tp219
a(S'However'
p220
S'However'
p221
S'RB'
p222
S'B-ADVP'
p223
g5
tp224
a(g74
g74
g74
g5
g5
tp225
a(S'they'
p226
S'they'
p227
S'PRP'
p228
S'B-NP'
p229
g5
tp230
a(S'did'
p231
S'do'
p232
S'VBD'
p233
S'B-VP'
p234
g5
tp235
a(S'not'
p236
S'not'
p237
S'RB'
p238
S'I-VP'
p239
g5
tp240
a(S'report'
p241
S'report'
p242
S'VB'
p243
S'I-VP'
p244
g5
tp245
a(S'the'
p246
S'the'
p247
S'DT'
p248
S'B-NP'
p249
g5
tp250
a(S'relationship'
p251
S'relationship'
p252
S'NN'
p253
S'I-NP'
p254
g5
tp255
a(S'of'
p256
S'of'
p257
S'IN'
p258
S'B-PP'
p259
g5
tp260
a(S'tobacco'
p261
S'tobacco'
p262
S'NN'
p263
S'B-NP'
p264
g5
tp265
a(S'using'
p266
S'use'
p267
S'VBG'
p268
S'B-VP'
p269
g5
tp270
a(S'habits'
p271
S'habit'
p272
S'NNS'
p273
S'B-NP'
p274
g5
tp275
a(S'with'
p276
S'with'
p277
S'IN'
p278
S'B-PP'
p279
g5
tp280
a(S'dietary'
p281
S'dietary'
p282
S'JJ'
p283
S'B-NP'
p284
g5
tp285
a(S'intake'
p286
S'intake'
p287
S'NN'
p288
S'I-NP'
p289
g5
tp290
a(g90
g90
g90
g5
g5
tp291
a(S'OBJECTIVE'
p292
S'OBJECTIVE'
p293
S'NN'
p294
S'B-NP'
p295
g5
tp296
a(S'Analyze'
p297
S'Analyze'
p298
S'VBP'
p299
S'B-VP'
p300
g5
tp301
a(S'the'
p302
S'the'
p303
S'DT'
p304
S'B-NP'
p305
g5
tp306
a(S'relationship'
p307
S'relationship'
p308
S'NN'
p309
S'I-NP'
p310
g5
tp311
a(S'between'
p312
S'between'
p313
S'IN'
p314
S'B-PP'
p315
g5
tp316
a(S'tobacco'
p317
S'tobacco'
p318
S'NN'
p319
S'B-NP'
p320
g5
tp321
a(S'smoking'
p322
S'smoking'
p323
S'NN'
p324
S'I-NP'
p325
g5
tp326
a(S'and'
p327
S'and'
p328
S'CC'
p329
S'I-NP'
p330
g5
tp331
a(S'intake'
p332
S'intake'
p333
S'NN'
p334
S'I-NP'
p335
g5
tp336
a(S'of'
p337
S'of'
p338
S'IN'
p339
S'B-PP'
p340
g5
tp341
a(S'macro'
p342
S'macro'
p343
S'NN'
p344
S'B-NP'
p345
g5
tp346
a(S'and'
p347
S'and'
p348
S'CC'
p349
S'I-NP'
p350
g5
tp351
a(S'micronutrients'
p352
S'micronutrient'
p353
S'NNS'
p354
S'I-NP'
p355
g5
tp356
a(g90
g90
g90
g5
g5
tp357
a(S'DESIGN'
p358
S'DESIGN'
p359
S'NNP'
p360
S'B-NP'
p361
g5
tp362
a(S'Randomized'
p363
S'Randomized'
p364
S'NNP'
p365
S'I-NP'
p366
g5
tp367
a(S'controlled'
p368
S'controlled'
p369
S'JJ'
p370
S'I-NP'
p371
g5
tp372
a(S'trial'
p373
S'trial'
p374
S'NN'
p375
S'I-NP'
p376
g5
tp377
a(g90
g90
g90
g5
g5
tp378
a(S'SETTING'
p379
S'SETTING'
p380
S'VBG'
p381
S'B-VP'
p382
g5
tp383
a(S'Referral'
p384
S'Referral'
p385
S'JJ'
p386
S'B-NP'
p387
g5
tp388
a(S'clinics'
p389
S'clinic'
p390
S'NNS'
p391
S'I-NP'
p392
g5
tp393
a(S'in'
p394
S'in'
p395
S'IN'
p396
S'B-PP'
p397
g5
tp398
a(S'27'
p399
S'27'
p400
S'CD'
p401
S'B-NP'
p402
g5
tp403
a(S'academic'
p404
S'academic'
p405
S'JJ'
p406
S'I-NP'
p407
g5
tp408
a(S'centers'
p409
S'center'
p410
S'NNS'
p411
S'I-NP'
p412
g5
tp413
a(g90
g90
g90
g5
g5
tp414
a(S'PATIENTS'
p415
S'PATIENTS'
p416
S'NNS'
p417
S'B-NP'
p418
g5
tp419
a(S'Type'
p420
S'Type'
p421
S'NN'
p422
S'I-NP'
p423
g5
tp424
a(g206
g206
S'CD'
p425
S'B-NP'
p426
g5
tp427
a(S'diabetics'
p428
S'diabetic'
p429
S'NNS'
p430
S'I-NP'
p431
g5
tp432
a(g90
g90
g90
g5
g5
tp433
a(S'INTERVENTION'
p434
S'INTERVENTION'
p435
S'NN'
p436
S'B-NP'
p437
g5
tp438
a(S'Using'
p439
S'Use'
p440
S'VBG'
p441
S'B-VP'
p442
g5
tp443
a(S'the'
p444
S'the'
p445
S'DT'
p446
S'B-NP'
p447
g5
tp448
a(S'data'
p449
S'datum'
p450
S'NNS'
p451
S'I-NP'
p452
g5
tp453
a(S'sets'
p454
S'set'
p455
S'NNS'
p456
S'I-NP'
p457
g5
tp458
a(S'of'
p459
S'of'
p460
S'IN'
p461
S'B-PP'
p462
g5
tp463
a(S'the'
p464
S'the'
p465
S'DT'
p466
S'B-NP'
p467
g5
tp468
a(S'DCCT'
p469
S'DCCT'
p470
S'NN'
p471
S'I-NP'
p472
S'B-DNA'
p473
tp474
a(g74
g74
g74
g5
g5
tp475
a(S'this'
p476
S'this'
p477
S'DT'
p478
S'B-NP'
p479
g5
tp480
a(S'study'
p481
S'study'
p482
S'NN'
p483
S'I-NP'
p484
g5
tp485
a(S'analyzed'
p486
S'analyze'
p487
S'VBD'
p488
S'B-VP'
p489
g5
tp490
a(S'the'
p491
S'the'
p492
S'DT'
p493
S'B-NP'
p494
g5
tp495
a(S'strengths'
p496
S'strength'
p497
S'NNS'
p498
S'I-NP'
p499
g5
tp500
a(S'of'
p501
S'of'
p502
S'IN'
p503
S'B-PP'
p504
g5
tp505
a(S'the'
p506
S'the'
p507
S'DT'
p508
S'B-NP'
p509
g5
tp510
a(S'associations'
p511
S'association'
p512
S'NNS'
p513
S'I-NP'
p514
g5
tp515
a(S'between'
p516
S'between'
p517
S'IN'
p518
S'B-PP'
p519
g5
tp520
a(S'smoking'
p521
S'smoking'
p522
S'NN'
p523
S'B-NP'
p524
g5
tp525
a(S'and'
p526
S'and'
p527
S'CC'
p528
S'I-NP'
p529
g5
tp530
a(S'macronutrient'
p531
S'macronutrient'
p532
S'NN'
p533
S'I-NP'
p534
g5
tp535
a(S'consumption'
p536
S'consumption'
p537
S'NN'
p538
S'I-NP'
p539
g5
tp540
a(g74
g74
g74
g5
g5
tp541
a(S'hemoglobin'
p542
S'hemoglobin'
p543
S'NN'
p544
S'B-NP'
p545
S'B-protein'
p546
tp547
a(S'A1c'
p548
S'A1c'
p549
S'NN'
p550
S'I-NP'
p551
g5
tp552
a(g127
g127
g127
g5
g5
tp553
a(S'HbA1c'
p554
S'HbA1c'
p555
S'NN'
p556
S'B-NP'
p557
S'B-protein'
p558
tp559
a(g134
g134
g134
g5
g5
tp560
a(g74
g74
g74
g5
g5
tp561
a(S'body'
p562
S'body'
p563
S'NN'
p564
S'B-NP'
p565
g5
tp566
a(S'mass'
p567
S'mass'
p568
S'NN'
p569
S'I-NP'
p570
g5
tp571
a(S'index'
p572
S'index'
p573
S'NN'
p574
S'I-NP'
p575
g5
tp576
a(g127
g127
g127
g5
g5
tp577
a(S'BMI'
p578
S'BMI'
p579
S'NN'
p580
S'B-NP'
p581
S'B-protein'
p582
tp583
a(g134
g134
g134
g5
g5
tp584
a(g74
g74
g74
g5
g5
tp585
a(S'and'
p586
S'and'
p587
S'CC'
p588
g5
g5
tp589
a(S'serum'
p590
S'serum'
p591
S'NN'
p592
S'B-NP'
p593
g5
tp594
a(S'lipid'
p595
S'lipid'
p596
S'NN'
p597
S'I-NP'
p598
g5
tp599
a(S'levels'
p600
S'level'
p601
S'NNS'
p602
S'I-NP'
p603
g5
tp604
a(S'at'
p605
S'at'
p606
S'IN'
p607
S'B-PP'
p608
g5
tp609
a(S'the'
p610
S'the'
p611
S'DT'
p612
S'B-NP'
p613
g5
tp614
a(S'study'
p615
S'study'
p616
S'NN'
p617
S'I-NP'
p618
g5
tp619
a(S'baseline'
p620
S'baseline'
p621
S'NN'
p622
S'I-NP'
p623
g5
tp624
a(g74
g74
g74
g5
g5
tp625
a(S'2'
p626
g626
S'CD'
p627
S'B-NP'
p628
g5
tp629
a(S'years'
p630
S'year'
p631
S'NNS'
p632
S'I-NP'
p633
g5
tp634
a(g74
g74
g74
g5
g5
tp635
a(S'and'
p636
S'and'
p637
S'CC'
p638
g5
g5
tp639
a(S'4'
p640
g640
S'CD'
p641
S'B-NP'
p642
g5
tp643
a(S'years'
p644
S'year'
p645
S'NNS'
p646
S'I-NP'
p647
g5
tp648
a(g90
g90
g90
g5
g5
tp649
a(S'MAIN'
p650
S'MAIN'
p651
S'NNP'
p652
S'B-NP'
p653
g5
tp654
a(S'OUTCOME'
p655
S'OUTCOME'
p656
S'NNP'
p657
S'I-NP'
p658
g5
tp659
a(S'MEASURES'
p660
S'MEASURES'
p661
S'NNP'
p662
S'I-NP'
p663
g5
tp664
a(S'Statistically'
p665
S'Statistically'
p666
S'RB'
p667
S'B-NP'
p668
g5
tp669
a(S'significant'
p670
S'significant'
p671
S'JJ'
p672
S'I-NP'
p673
g5
tp674
a(S'correlations'
p675
S'correlation'
p676
S'NNS'
p677
S'I-NP'
p678
g5
tp679
a(S'between'
p680
S'between'
p681
S'IN'
p682
S'B-PP'
p683
g5
tp684
a(S'smoking'
p685
S'smoking'
p686
S'NN'
p687
S'B-NP'
p688
g5
tp689
a(S'and'
p690
S'and'
p691
S'CC'
p692
S'I-NP'
p693
g5
tp694
a(S'nutrient'
p695
S'nutrient'
p696
S'NN'
p697
S'I-NP'
p698
g5
tp699
a(S'intake'
p700
S'intake'
p701
S'NN'
p702
S'I-NP'
p703
g5
tp704
a(g74
g74
g74
g5
g5
tp705
a(S'HbA1c'
p706
S'HbA1c'
p707
S'NN'
p708
S'B-NP'
p709
S'B-protein'
p710
tp711
a(g74
g74
g74
g5
g5
tp712
a(S'and'
p713
S'and'
p714
S'CC'
p715
g5
g5
tp716
a(S'serum'
p717
S'serum'
p718
S'NN'
p719
S'B-NP'
p720
g5
tp721
a(S'lipid'
p722
S'lipid'
p723
S'NN'
p724
S'I-NP'
p725
g5
tp726
a(S'levels'
p727
S'level'
p728
S'NNS'
p729
S'I-NP'
p730
g5
tp731
a(g90
g90
g90
g5
g5
tp732
a(S'RESULTS'
p733
S'RESULTS'
p734
S'NNS'
p735
S'B-NP'
p736
g5
tp737
a(S'Cigarette'
p738
S'Cigarette'
p739
S'NN'
p740
S'I-NP'
p741
g5
tp742
a(g74
g74
g74
g5
g5
tp743
a(S'cigar'
p744
S'cigar'
p745
S'NN'
p746
S'B-NP'
p747
g5
tp748
a(g74
g74
g74
g5
g5
tp749
a(S'or'
p750
S'or'
p751
S'CC'
p752
g5
g5
tp753
a(S'pipe'
p754
S'pipe'
p755
S'NN'
p756
S'B-NP'
p757
g5
tp758
a(S'use'
p759
S'use'
p760
S'NN'
p761
S'I-NP'
p762
g5
tp763
a(S'at'
p764
S'at'
p765
S'IN'
p766
S'B-PP'
p767
g5
tp768
a(S'each'
p769
S'each'
p770
S'DT'
p771
S'B-NP'
p772
g5
tp773
a(S'time'
p774
S'time'
p775
S'NN'
p776
S'I-NP'
p777
g5
tp778
a(S'interval'
p779
S'interval'
p780
S'NN'
p781
S'I-NP'
p782
g5
tp783
a(S'correlated'
p784
S'correlate'
p785
S'VBD'
p786
S'B-VP'
p787
g5
tp788
a(S'with'
p789
S'with'
p790
S'IN'
p791
S'B-PP'
p792
g5
tp793
a(S'significantly'
p794
S'significantly'
p795
S'RB'
p796
S'B-NP'
p797
g5
tp798
a(S'increased'
p799
S'increase'
p800
S'VBN'
p801
S'I-NP'
p802
g5
tp803
a(S'caloric'
p804
S'caloric'
p805
S'JJ'
p806
S'I-NP'
p807
g5
tp808
a(S'intake'
p809
S'intake'
p810
S'NN'
p811
S'I-NP'
p812
g5
tp813
a(S'in'
p814
S'in'
p815
S'IN'
p816
S'B-PP'
p817
g5
tp818
a(S'males'
p819
S'male'
p820
S'NNS'
p821
S'B-NP'
p822
g5
tp823
a(S'but'
p824
S'but'
p825
S'CC'
p826
S'B-PP'
p827
g5
tp828
a(S'not'
p829
S'not'
p830
S'RB'
p831
S'B-PP'
p832
g5
tp833
a(S'in'
p834
S'in'
p835
S'IN'
p836
S'I-PP'
p837
g5
tp838
a(S'females.'
p839
S'females.'
p840
S'NN'
p841
S'B-NP'
p842
g5
tp843
a(S'In'
p844
S'In'
p845
S'IN'
p846
S'B-PP'
p847
g5
tp848
a(S'both'
p849
S'both'
p850
S'CC'
p851
g5
g5
tp852
a(S'males'
p853
S'male'
p854
S'NNS'
p855
S'B-NP'
p856
g5
tp857
a(S'and'
p858
S'and'
p859
S'CC'
p860
S'I-NP'
p861
g5
tp862
a(S'females'
p863
S'female'
p864
S'NNS'
p865
S'I-NP'
p866
g5
tp867
a(g74
g74
g74
g5
g5
tp868
a(S'tobacco'
p869
S'tobacco'
p870
S'NN'
p871
S'B-NP'
p872
g5
tp873
a(S'users'
p874
S'user'
p875
S'NNS'
p876
S'I-NP'
p877
g5
tp878
a(S'consumed'
p879
S'consume'
p880
S'VBD'
p881
S'B-VP'
p882
g5
tp883
a(S'more'
p884
S'more'
p885
S'RBR'
p886
S'B-ADJP'
p887
g5
tp888
a(S'fat'
p889
S'fat'
p890
S'JJ'
p891
S'I-ADJP'
p892
g5
tp893
a(g74
g74
g74
g5
g5
tp894
a(S'cholesterol'
p895
S'cholesterol'
p896
S'NN'
p897
S'B-NP'
p898
g5
tp899
a(g74
g74
g74
g5
g5
tp900
a(S'and'
p901
S'and'
p902
S'CC'
p903
g5
g5
tp904
a(S'alcohol.'
p905
S'alcohol.'
p906
S'RB'
p907
S'B-NP'
p908
g5
tp909
a(S'Female'
p910
S'Female'
p911
S'JJ'
p912
S'I-NP'
p913
g5
tp914
a(S'smokers'
p915
S'smoker'
p916
S'NNS'
p917
S'I-NP'
p918
g5
tp919
a(S'had'
p920
S'have'
p921
S'VBD'
p922
S'B-VP'
p923
g5
tp924
a(S'higher'
p925
S'high'
p926
S'JJR'
p927
S'B-NP'
p928
g5
tp929
a(S'serum'
p930
S'serum'
p931
S'NN'
p932
S'I-NP'
p933
S'B-protein'
p934
tp935
a(S'low-density'
p936
S'low-density'
p937
S'NN'
p938
S'I-NP'
p939
S'I-protein'
p940
tp941
a(S'lipoprotein'
p942
S'lipoprotein'
p943
S'NN'
p944
S'I-NP'
p945
S'I-protein'
p946
tp947
a(g127
g127
g127
g5
g5
tp948
a(S'LDL'
p949
S'LDL'
p950
S'NN'
p951
S'B-NP'
p952
g5
tp953
a(g134
g134
g134
g5
g5
tp954
a(S'/high-density'
p955
S'/high-density'
p956
S'NN'
p957
S'B-NP'
p958
S'B-protein'
p959
tp960
a(S'lipoprotein'
p961
S'lipoprotein'
p962
S'NN'
p963
S'I-NP'
p964
S'I-protein'
p965
tp966
a(g127
g127
g127
g5
g5
tp967
a(S'HDL'
p968
S'HDL'
p969
S'NN'
p970
S'B-NP'
p971
g5
tp972
a(g134
g134
g134
g5
g5
tp973
a(S'ratios'
p974
S'ratio'
p975
S'NNS'
p976
S'B-NP'
p977
g5
tp978
a(S'and'
p979
S'and'
p980
S'CC'
p981
g5
g5
tp982
a(S'triglycerides.'
p983
S'triglycerides.'
p984
S'NN'
p985
S'B-NP'
p986
g5
tp987
a(S'Serum'
p988
S'Serum'
p989
S'NN'
p990
S'I-NP'
p991
g5
tp992
a(S'cholesterols'
p993
S'cholesterol'
p994
S'NNS'
p995
S'I-NP'
p996
g5
tp997
a(g74
g74
g74
g5
g5
tp998
a(S'LDL/HDL'
p999
S'LDL/HDL'
p1000
S'NN'
p1001
S'B-NP'
p1002
g5
tp1003
a(S'ratios'
p1004
S'ratio'
p1005
S'NNS'
p1006
S'I-NP'
p1007
g5
tp1008
a(g74
g74
g74
g5
g5
tp1009
a(S'LDL'
p1010
S'LDL'
p1011
S'NN'
p1012
S'B-NP'
p1013
g5
tp1014
a(S'cholesterols'
p1015
S'cholesterol'
p1016
S'NNS'
p1017
S'I-NP'
p1018
g5
tp1019
a(g74
g74
g74
g5
g5
tp1020
a(S'and'
p1021
S'and'
p1022
S'CC'
p1023
g5
g5
tp1024
a(S'triglyceride'
p1025
S'triglyceride'
p1026
S'NN'
p1027
S'B-NP'
p1028
g5
tp1029
a(S'determinations'
p1030
S'determination'
p1031
S'NNS'
p1032
S'I-NP'
p1033
g5
tp1034
a(S'in'
p1035
S'in'
p1036
S'IN'
p1037
S'B-PP'
p1038
g5
tp1039
a(S'male'
p1040
S'male'
p1041
S'JJ'
p1042
S'B-NP'
p1043
g5
tp1044
a(S'tobacco'
p1045
S'tobacco'
p1046
S'NN'
p1047
S'I-NP'
p1048
g5
tp1049
a(S'users'
p1050
S'user'
p1051
S'NNS'
p1052
S'I-NP'
p1053
g5
tp1054
a(S'significantly'
p1055
S'significantly'
p1056
S'RB'
p1057
S'B-VP'
p1058
g5
tp1059
a(S'exceeded'
p1060
S'exceed'
p1061
S'VBD'
p1062
S'I-VP'
p1063
g5
tp1064
a(S'those'
p1065
S'those'
p1066
S'DT'
p1067
S'B-NP'
p1068
g5
tp1069
a(S'in'
p1070
S'in'
p1071
S'IN'
p1072
S'B-PP'
p1073
g5
tp1074
a(S'nonsmoking'
p1075
S'nonsmoking'
p1076
S'JJ'
p1077
S'B-NP'
p1078
g5
tp1079
a(S'males.'
p1080
S'males.'
p1081
S'NN'
p1082
S'I-NP'
p1083
g5
tp1084
a(S'HDL'
p1085
S'HDL'
p1086
S'NN'
p1087
S'I-NP'
p1088
g5
tp1089
a(S'cholesterols'
p1090
S'cholesterol'
p1091
S'NNS'
p1092
S'I-NP'
p1093
g5
tp1094
a(S'were'
p1095
S'be'
p1096
S'VBD'
p1097
S'B-VP'
p1098
g5
tp1099
a(S'lower'
p1100
S'low'
p1101
S'JJR'
p1102
S'B-ADJP'
p1103
g5
tp1104
a(S'in'
p1105
S'in'
p1106
S'IN'
p1107
S'B-PP'
p1108
g5
tp1109
a(S'both'
p1110
S'both'
p1111
S'CC'
p1112
S'B-NP'
p1113
g5
tp1114
a(S'female'
p1115
S'female'
p1116
S'JJ'
p1117
S'I-NP'
p1118
g5
tp1119
a(S'and'
p1120
S'and'
p1121
S'CC'
p1122
S'I-NP'
p1123
g5
tp1124
a(S'male'
p1125
S'male'
p1126
S'JJ'
p1127
S'I-NP'
p1128
g5
tp1129
a(S'tobacco'
p1130
S'tobacco'
p1131
S'NN'
p1132
S'I-NP'
p1133
g5
tp1134
a(S'users.'
p1135
S'users.'
p1136
S'NN'
p1137
S'I-NP'
p1138
g5
tp1139
a(S'Nutrient'
p1140
S'Nutrient'
p1141
S'NN'
p1142
S'I-NP'
p1143
g5
tp1144
a(S'intake'
p1145
S'intake'
p1146
S'NN'
p1147
S'I-NP'
p1148
g5
tp1149
a(S'of'
p1150
S'of'
p1151
S'IN'
p1152
S'B-PP'
p1153
g5
tp1154
a(S'former'
p1155
S'former'
p1156
S'JJ'
p1157
S'B-NP'
p1158
g5
tp1159
a(S'tobacco'
p1160
S'tobacco'
p1161
S'NN'
p1162
S'I-NP'
p1163
g5
tp1164
a(S'users'
p1165
S'user'
p1166
S'NNS'
p1167
S'I-NP'
p1168
g5
tp1169
a(S'resembled'
p1170
S'resemble'
p1171
S'VBD'
p1172
S'B-VP'
p1173
g5
tp1174
a(S'that'
p1175
S'that'
p1176
S'DT'
p1177
g5
g5
tp1178
a(S'of'
p1179
S'of'
p1180
S'IN'
p1181
S'B-PP'
p1182
g5
tp1183
a(S'nonusers'
p1184
S'nonuser'
p1185
S'NNS'
p1186
S'B-NP'
p1187
g5
tp1188
a(S'rather'
p1189
S'rather'
p1190
S'RB'
p1191
S'B-PP'
p1192
g5
tp1193
a(S'than'
p1194
S'than'
p1195
S'IN'
p1196
S'I-PP'
p1197
g5
tp1198
a(S'current'
p1199
S'current'
p1200
S'JJ'
p1201
S'B-NP'
p1202
g5
tp1203
a(S'users'
p1204
S'user'
p1205
S'NNS'
p1206
S'I-NP'
p1207
g5
tp1208
a(g90
g90
g90
g5
g5
tp1209
a(S'CONCLUSIONS'
p1210
S'CONCLUSIONS'
p1211
S'NNS'
p1212
S'B-NP'
p1213
g5
tp1214
a(S'A'
p1215
g1215
S'DT'
p1216
S'B-NP'
p1217
g5
tp1218
a(S'significant'
p1219
S'significant'
p1220
S'JJ'
p1221
S'I-NP'
p1222
g5
tp1223
a(S'association'
p1224
S'association'
p1225
S'NN'
p1226
S'I-NP'
p1227
g5
tp1228
a(S'exists'
p1229
S'exist'
p1230
S'VBZ'
p1231
S'B-VP'
p1232
g5
tp1233
a(S'between'
p1234
S'between'
p1235
S'IN'
p1236
S'B-PP'
p1237
g5
tp1238
a(S'smoking'
p1239
S'smoking'
p1240
S'NN'
p1241
S'B-NP'
p1242
g5
tp1243
a(S'and'
p1244
S'and'
p1245
S'CC'
p1246
g5
g5
tp1247
a(g76
g76
S'DT'
p1248
S'B-NP'
p1249
g5
tp1250
a(S'diet'
p1251
S'diet'
p1252
S'NN'
p1253
S'I-NP'
p1254
g5
tp1255
a(S'with'
p1256
S'with'
p1257
S'IN'
p1258
S'B-PP'
p1259
g5
tp1260
a(S'higher'
p1261
S'high'
p1262
S'JJR'
p1263
S'B-NP'
p1264
g5
tp1265
a(S'risks'
p1266
S'risk'
p1267
S'NNS'
p1268
S'I-NP'
p1269
g5
tp1270
a(S'of'
p1271
S'of'
p1272
S'IN'
p1273
S'B-PP'
p1274
g5
tp1275
a(S'atherosclerosis'
p1276
S'atherosclerosis'
p1277
S'NN'
p1278
S'B-NP'
p1279
g5
tp1280
a(g74
g74
g74
g5
g5
tp1281
a(S'cancer'
p1282
S'cancer'
p1283
S'NN'
p1284
S'B-NP'
p1285
g5
tp1286
a(g74
g74
g74
g5
g5
tp1287
a(S'and'
p1288
S'and'
p1289
S'CC'
p1290
g5
g5
tp1291
a(S'other'
p1292
S'other'
p1293
S'JJ'
p1294
S'B-NP'
p1295
g5
tp1296
a(S'degenerative'
p1297
S'degenerative'
p1298
S'JJ'
p1299
S'I-NP'
p1300
g5
tp1301
a(S'diseases.'
p1302
S'diseases.'
p1303
S'NN'
p1304
S'I-NP'
p1305
g5
tp1306
a(S'The'
p1307
S'The'
p1308
S'DT'
p1309
S'B-NP'
p1310
g5
tp1311
a(S'strong'
p1312
S'strong'
p1313
S'JJ'
p1314
S'I-NP'
p1315
g5
tp1316
a(S'association'
p1317
S'association'
p1318
S'NN'
p1319
S'I-NP'
p1320
g5
tp1321
a(S'of'
p1322
S'of'
p1323
S'IN'
p1324
S'B-PP'
p1325
g5
tp1326
a(S'tobacco'
p1327
S'tobacco'
p1328
S'NN'
p1329
S'B-NP'
p1330
g5
tp1331
a(S'with'
p1332
S'with'
p1333
S'IN'
p1334
S'B-PP'
p1335
g5
tp1336
a(S'heart'
p1337
S'heart'
p1338
S'NN'
p1339
S'B-NP'
p1340
g5
tp1341
a(S'disease'
p1342
S'disease'
p1343
S'NN'
p1344
S'I-NP'
p1345
g5
tp1346
a(g74
g74
g74
g5
g5
tp1347
a(S'stroke'
p1348
S'stroke'
p1349
S'NN'
p1350
S'B-NP'
p1351
g5
tp1352
a(g74
g74
g74
g5
g5
tp1353
a(S'vasculopathies'
p1354
S'vasculopathy'
p1355
S'NNS'
p1356
S'B-NP'
p1357
g5
tp1358
a(g74
g74
g74
g5
g5
tp1359
a(S'and'
p1360
S'and'
p1361
S'CC'
p1362
g5
g5
tp1363
a(S'various'
p1364
S'various'
p1365
S'JJ'
p1366
S'B-NP'
p1367
g5
tp1368
a(S'malignancies'
p1369
S'malignancy'
p1370
S'NNS'
p1371
S'I-NP'
p1372
g5
tp1373
a(S'may'
p1374
S'may'
p1375
S'MD'
p1376
S'B-VP'
p1377
g5
tp1378
a(S'be'
p1379
S'be'
p1380
S'VB'
p1381
S'I-VP'
p1382
g5
tp1383
a(S'in'
p1384
S'in'
p1385
S'IN'
p1386
S'B-PP'
p1387
g5
tp1388
a(S'part'
p1389
S'part'
p1390
S'NN'
p1391
S'B-NP'
p1392
g5
tp1393
a(S'due'
p1394
S'due'
p1395
S'JJ'
p1396
S'B-PP'
p1397
g5
tp1398
a(S'to'
p1399
S'to'
p1400
S'TO'
p1401
S'B-PP'
p1402
g5
tp1403
a(S'its'
p1404
S'its'
p1405
S'PRP$'
p1406
S'B-NP'
p1407
g5
tp1408
a(S'association'
p1409
S'association'
p1410
S'NN'
p1411
S'I-NP'
p1412
g5
tp1413
a(S'with'
p1414
S'with'
p1415
S'IN'
p1416
S'B-PP'
p1417
g5
tp1418
a(g76
g76
S'DT'
p1419
S'B-NP'
p1420
g5
tp1421
a(S'higher'
p1422
S'high'
p1423
S'JJR'
p1424
S'I-NP'
p1425
g5
tp1426
a(S'fat'
p1427
S'fat'
p1428
S'NN'
p1429
S'I-NP'
p1430
g5
tp1431
a(S'diet.'
p1432
S'diet.'
p1433
S'NN'
p1434
S'I-NP'
p1435
g5
tp1436
a(S'The'
p1437
S'The'
p1438
S'DT'
p1439
S'B-NP'
p1440
g5
tp1441
a(S'higher'
p1442
S'high'
p1443
S'JJR'
p1444
S'I-NP'
p1445
g5
tp1446
a(S'fat'
p1447
S'fat'
p1448
S'JJ'
p1449
S'I-NP'
p1450
g5
tp1451
a(S'diet'
p1452
S'diet'
p1453
S'NN'
p1454
S'I-NP'
p1455
g5
tp1456
a(S'of'
p1457
S'of'
p1458
S'IN'
p1459
S'B-PP'
p1460
g5
tp1461
a(S'tobacco'
p1462
S'tobacco'
p1463
S'NN'
p1464
S'B-NP'
p1465
g5
tp1466
a(S'users'
p1467
S'user'
p1468
S'NNS'
p1469
S'I-NP'
p1470
g5
tp1471
a(S'probably'
p1472
S'probably'
p1473
S'RB'
p1474
S'B-ADVP'
p1475
g5
tp1476
a(S'accounts'
p1477
S'account'
p1478
S'VBZ'
p1479
S'B-VP'
p1480
g5
tp1481
a(S'in'
p1482
S'in'
p1483
S'IN'
p1484
S'B-PP'
p1485
g5
tp1486
a(S'part'
p1487
S'part'
p1488
S'NN'
p1489
S'B-NP'
p1490
g5
tp1491
a(S'for'
p1492
S'for'
p1493
S'IN'
p1494
S'B-PP'
p1495
g5
tp1496
a(S'their'
p1497
S'their'
p1498
S'PRP$'
p1499
S'B-NP'
p1500
g5
tp1501
a(S'higher'
p1502
S'high'
p1503
S'JJR'
p1504
S'I-NP'
p1505
g5
tp1506
a(S'risk'
p1507
S'risk'
p1508
S'NN'
p1509
S'I-NP'
p1510
g5
tp1511
a(S'of'
p1512
S'of'
p1513
S'IN'
p1514
S'B-PP'
p1515
g5
tp1516
a(S'developing'
p1517
S'develop'
p1518
S'VBG'
p1519
S'B-VP'
p1520
g5
tp1521
a(S'type'
p1522
S'type'
p1523
S'NN'
p1524
S'B-NP'
p1525
g5
tp1526
a(g626
g626
S'CD'
p1527
S'I-NP'
p1528
g5
tp1529
a(S'diabetes'
p1530
S'diabete'
p1531
S'NNS'
p1532
S'I-NP'
p1533
g5
tp1534
a(S'and'
p1535
S'and'
p1536
S'CC'
p1537
g5
g5
tp1538
a(S'hyperlipidemia.'
p1539
S'hyperlipidemia.'
p1540
S'VB'
p1541
S'B-VP'
p1542
g5
tp1543
a(S'Tobacco'
p1544
S'Tobacco'
p1545
S'NNP'
p1546
S'B-NP'
p1547
g5
tp1548
a(S'users'
p1549
S'user'
p1550
S'NNS'
p1551
S'I-NP'
p1552
g5
tp1553
a(S'should'
p1554
S'should'
p1555
S'MD'
p1556
S'B-VP'
p1557
g5
tp1558
a(S'be'
p1559
S'be'
p1560
S'VB'
p1561
S'I-VP'
p1562
g5
tp1563
a(S'informed'
p1564
S'inform'
p1565
S'VBN'
p1566
S'I-VP'
p1567
g5
tp1568
a(S'about'
p1569
S'about'
p1570
S'IN'
p1571
S'B-PP'
p1572
g5
tp1573
a(S'the'
p1574
S'the'
p1575
S'DT'
p1576
S'B-NP'
p1577
g5
tp1578
a(S'diet'
p1579
S'diet'
p1580
S'NN'
p1581
S'I-NP'
p1582
g5
tp1583
a(S'and'
p1584
S'and'
p1585
S'CC'
p1586
S'I-NP'
p1587
g5
tp1588
a(S'tobacco'
p1589
S'tobacco'
p1590
S'NN'
p1591
S'I-NP'
p1592
g5
tp1593
a(S'use'
p1594
S'use'
p1595
S'NN'
p1596
S'I-NP'
p1597
g5
tp1598
a(S'association'
p1599
S'association'
p1600
S'NN'
p1601
S'I-NP'
p1602
g5
tp1603
a(g90
g90
g90
g5
g5
tp1604
a.