(lp0
(S'['
p1
g1
S'('
p2
S'O'
p3
g3
tp4
a(S'Case-controll'
p5
S'Case-controll'
p6
S'JJ'
p7
S'B-NP'
p8
g3
tp9
a(S'study'
p10
S'study'
p11
S'NN'
p12
S'I-NP'
p13
g3
tp14
a(S'on'
p15
S'on'
p16
S'IN'
p17
S'B-PP'
p18
g3
tp19
a(S'the'
p20
S'the'
p21
S'DT'
p22
S'B-NP'
p23
g3
tp24
a(S'synergistic'
p25
S'synergistic'
p26
S'JJ'
p27
S'I-NP'
p28
g3
tp29
a(S'effects'
p30
S'effect'
p31
S'NNS'
p32
S'I-NP'
p33
g3
tp34
a(S'of'
p35
S'of'
p36
S'IN'
p37
S'B-PP'
p38
g3
tp39
a(S'electroacupuncture'
p40
S'electroacupuncture'
p41
S'NN'
p42
S'B-NP'
p43
g3
tp44
a(S'on'
p45
S'on'
p46
S'IN'
p47
S'B-PP'
p48
g3
tp49
a(S'knee'
p50
S'knee'
p51
S'NN'
p52
S'B-NP'
p53
g3
tp54
a(S'osteoarthritis'
p55
S'osteoarthritis'
p56
S'NN'
p57
S'I-NP'
p58
g3
tp59
a(S'after'
p60
S'after'
p61
S'IN'
p62
S'B-PP'
p63
g3
tp64
a(S'arthroscopic'
p65
S'arthroscopic'
p66
S'JJ'
p67
S'B-NP'
p68
g3
tp69
a(S'debridement'
p70
S'debridement'
p71
S'NN'
p72
S'I-NP'
p73
g3
tp74
a(S']'
p75
g75
S')'
p76
g3
g3
tp77
a(S'.'
p78
g78
g78
g3
g3
tp79
a(S'OBJECTIVE'
p80
S'OBJECTIVE'
p81
S'NN'
p82
S'B-NP'
p83
g3
tp84
a(S'To'
p85
S'To'
p86
S'TO'
p87
S'B-VP'
p88
g3
tp89
a(S'study'
p90
S'study'
p91
S'VB'
p92
S'I-VP'
p93
g3
tp94
a(S'the'
p95
S'the'
p96
S'DT'
p97
S'B-NP'
p98
g3
tp99
a(S'synergistic'
p100
S'synergistic'
p101
S'JJ'
p102
S'I-NP'
p103
g3
tp104
a(S'effects'
p105
S'effect'
p106
S'NNS'
p107
S'I-NP'
p108
g3
tp109
a(S'of'
p110
S'of'
p111
S'IN'
p112
S'B-PP'
p113
g3
tp114
a(S'electroacupuncture'
p115
S'electroacupuncture'
p116
S'NN'
p117
S'B-NP'
p118
g3
tp119
a(S'on'
p120
S'on'
p121
S'IN'
p122
S'B-PP'
p123
g3
tp124
a(S'the'
p125
S'the'
p126
S'DT'
p127
S'B-NP'
p128
g3
tp129
a(S'treatment'
p130
S'treatment'
p131
S'NN'
p132
S'I-NP'
p133
g3
tp134
a(S'of'
p135
S'of'
p136
S'IN'
p137
S'B-PP'
p138
g3
tp139
a(S'knee'
p140
S'knee'
p141
S'NN'
p142
S'B-NP'
p143
g3
tp144
a(S'osteoarthritis'
p145
S'osteoarthritis'
p146
S'NN'
p147
S'I-NP'
p148
g3
tp149
a(S'after'
p150
S'after'
p151
S'IN'
p152
S'B-PP'
p153
g3
tp154
a(S'arthroscopic'
p155
S'arthroscopic'
p156
S'JJ'
p157
S'B-NP'
p158
g3
tp159
a(S'debridement'
p160
S'debridement'
p161
S'NN'
p162
S'I-NP'
p163
g3
tp164
a(g78
g78
g78
g3
g3
tp165
a(S'METHODS'
p166
S'METHODS'
p167
S'NNS'
p168
S'B-NP'
p169
g3
tp170
a(S'From'
p171
S'From'
p172
S'IN'
p173
S'B-PP'
p174
g3
tp175
a(S'May'
p176
S'May'
p177
S'NNP'
p178
S'B-NP'
p179
g3
tp180
a(S'2008'
p181
S'2008'
p182
S'CD'
p183
S'I-NP'
p184
g3
tp185
a(S'to'
p186
S'to'
p187
S'TO'
p188
S'B-PP'
p189
g3
tp190
a(S'July'
p191
S'July'
p192
S'NNP'
p193
S'B-NP'
p194
g3
tp195
a(S'2010'
p196
S'2010'
p197
S'CD'
p198
S'I-NP'
p199
g3
tp200
a(S','
p201
g201
g201
g3
g3
tp202
a(S'78'
p203
S'78'
p204
S'CD'
p205
S'B-NP'
p206
g3
tp207
a(S'patients'
p208
S'patient'
p209
S'NNS'
p210
S'I-NP'
p211
g3
tp212
a(S'with'
p213
S'with'
p214
S'IN'
p215
S'B-PP'
p216
g3
tp217
a(S'knee'
p218
S'knee'
p219
S'NN'
p220
S'B-NP'
p221
g3
tp222
a(S'osteoarthritis'
p223
S'osteoarthritis'
p224
S'NN'
p225
S'I-NP'
p226
g3
tp227
a(S'were'
p228
S'be'
p229
S'VBD'
p230
S'B-VP'
p231
g3
tp232
a(S'randomly'
p233
S'randomly'
p234
S'RB'
p235
S'I-VP'
p236
g3
tp237
a(S'divided'
p238
S'divide'
p239
S'VBN'
p240
S'I-VP'
p241
g3
tp242
a(S'into'
p243
S'into'
p244
S'IN'
p245
S'B-PP'
p246
g3
tp247
a(S'two'
p248
S'two'
p249
S'CD'
p250
S'B-NP'
p251
g3
tp252
a(S'groups.'
p253
S'groups.'
p254
S'NNS'
p255
S'I-NP'
p256
g3
tp257
a(S'There'
p258
S'There'
p259
S'EX'
p260
S'B-NP'
p261
g3
tp262
a(S'were'
p263
S'be'
p264
S'VBD'
p265
S'B-VP'
p266
g3
tp267
a(S'42'
p268
S'42'
p269
S'CD'
p270
S'B-NP'
p271
g3
tp272
a(S'patients'
p273
S'patient'
p274
S'NNS'
p275
S'I-NP'
p276
g3
tp277
a(S'in'
p278
S'in'
p279
S'IN'
p280
S'B-PP'
p281
g3
tp282
a(S'the'
p283
S'the'
p284
S'DT'
p285
S'B-NP'
p286
g3
tp287
a(S'experimental'
p288
S'experimental'
p289
S'JJ'
p290
S'I-NP'
p291
g3
tp292
a(S'group'
p293
S'group'
p294
S'NN'
p295
S'I-NP'
p296
g3
tp297
a(g201
g201
g201
g3
g3
tp298
a(S'including'
p299
S'include'
p300
S'VBG'
p301
S'B-PP'
p302
g3
tp303
a(S'16'
p304
S'16'
p305
S'CD'
p306
S'B-NP'
p307
g3
tp308
a(S'males'
p309
S'male'
p310
S'NNS'
p311
S'I-NP'
p312
g3
tp313
a(S'and'
p314
S'and'
p315
S'CC'
p316
g3
g3
tp317
a(S'26'
p318
S'26'
p319
S'CD'
p320
S'B-NP'
p321
g3
tp322
a(S'females'
p323
S'female'
p324
S'NNS'
p325
S'I-NP'
p326
g3
tp327
a(g201
g201
g201
g3
g3
tp328
a(S'ranging'
p329
S'range'
p330
S'VBG'
p331
S'B-VP'
p332
g3
tp333
a(S'in'
p334
S'in'
p335
S'IN'
p336
S'B-PP'
p337
g3
tp338
a(S'age'
p339
S'age'
p340
S'NN'
p341
S'B-NP'
p342
g3
tp343
a(S'from'
p344
S'from'
p345
S'IN'
p346
S'B-PP'
p347
g3
tp348
a(S'41'
p349
S'41'
p350
S'CD'
p351
S'B-NP'
p352
g3
tp353
a(S'to'
p354
S'to'
p355
S'TO'
p356
S'I-NP'
p357
g3
tp358
a(S'63'
p359
S'63'
p360
S'CD'
p361
S'I-NP'
p362
g3
tp363
a(S'years'
p364
S'year'
p365
S'NNS'
p366
S'I-NP'
p367
g3
tp368
a(g201
g201
g201
g3
g3
tp369
a(S'with'
p370
S'with'
p371
S'IN'
p372
S'B-PP'
p373
g3
tp374
a(S'an'
p375
S'an'
p376
S'DT'
p377
S'B-NP'
p378
g3
tp379
a(S'average'
p380
S'average'
p381
S'NN'
p382
S'I-NP'
p383
g3
tp384
a(S'of'
p385
S'of'
p386
S'IN'
p387
S'B-PP'
p388
g3
tp389
a(g2
g2
g2
g3
g3
tp390
a(S'53.62'
p391
S'53.62'
p392
S'CD'
p393
S'B-NP'
p394
g3
tp395
a(S'+/-'
p396
S'+/-'
p397
S'CC'
p398
S'I-NP'
p399
g3
tp400
a(S'6.53'
p401
S'6.53'
p402
S'CD'
p403
S'I-NP'
p404
g3
tp405
a(g76
g76
g76
g3
g3
tp406
a(S'years'
p407
S'year'
p408
S'NNS'
p409
S'B-NP'
p410
g3
tp411
a(S';'
p412
g412
S':'
p413
g3
g3
tp414
a(S'the'
p415
S'the'
p416
S'DT'
p417
S'B-NP'
p418
g3
tp419
a(S'disease'
p420
S'disease'
p421
S'NN'
p422
S'I-NP'
p423
g3
tp424
a(S'course'
p425
S'course'
p426
S'NN'
p427
S'I-NP'
p428
g3
tp429
a(S'ranged'
p430
S'range'
p431
S'VBD'
p432
S'B-VP'
p433
g3
tp434
a(S'from'
p435
S'from'
p436
S'IN'
p437
S'B-PP'
p438
g3
tp439
a(S'8'
p440
g440
S'CD'
p441
S'B-NP'
p442
g3
tp443
a(S'to'
p444
S'to'
p445
S'TO'
p446
S'I-NP'
p447
g3
tp448
a(S'24'
p449
S'24'
p450
S'CD'
p451
S'I-NP'
p452
g3
tp453
a(S'months'
p454
S'month'
p455
S'NNS'
p456
S'I-NP'
p457
g3
tp458
a(g201
g201
g201
g3
g3
tp459
a(S'with'
p460
S'with'
p461
S'IN'
p462
S'B-PP'
p463
g3
tp464
a(S'an'
p465
S'an'
p466
S'DT'
p467
S'B-NP'
p468
g3
tp469
a(S'average'
p470
S'average'
p471
S'NN'
p472
S'I-NP'
p473
g3
tp474
a(S'of'
p475
S'of'
p476
S'IN'
p477
S'B-PP'
p478
g3
tp479
a(g2
g2
g2
g3
g3
tp480
a(S'10.35'
p481
S'10.35'
p482
S'CD'
p483
S'B-NP'
p484
g3
tp485
a(S'+/-'
p486
S'+/-'
p487
S'CC'
p488
S'I-NP'
p489
g3
tp490
a(S'6.42'
p491
S'6.42'
p492
S'CD'
p493
S'I-NP'
p494
g3
tp495
a(g76
g76
g76
g3
g3
tp496
a(S'months.'
p497
S'months.'
p498
S'NNS'
p499
S'B-NP'
p500
g3
tp501
a(S'The'
p502
S'The'
p503
S'DT'
p504
S'B-NP'
p505
g3
tp506
a(S'patients'
p507
S'patient'
p508
S'NNS'
p509
S'I-NP'
p510
g3
tp511
a(S'were'
p512
S'be'
p513
S'VBD'
p514
S'B-VP'
p515
g3
tp516
a(S'treated'
p517
S'treat'
p518
S'VBN'
p519
S'I-VP'
p520
g3
tp521
a(S'with'
p522
S'with'
p523
S'IN'
p524
S'B-PP'
p525
g3
tp526
a(S'arthroscopic'
p527
S'arthroscopic'
p528
S'JJ'
p529
S'B-NP'
p530
g3
tp531
a(S'debridement'
p532
S'debridement'
p533
S'NN'
p534
S'I-NP'
p535
g3
tp536
a(S'combined'
p537
S'combine'
p538
S'VBN'
p539
S'B-VP'
p540
g3
tp541
a(S'with'
p542
S'with'
p543
S'IN'
p544
S'B-PP'
p545
g3
tp546
a(S'electroacupuncture'
p547
S'electroacupuncture'
p548
S'NN'
p549
S'B-NP'
p550
g3
tp551
a(S'after'
p552
S'after'
p553
S'IN'
p554
S'B-PP'
p555
g3
tp556
a(S'operation.'
p557
S'operation.'
p558
S'NN'
p559
S'B-NP'
p560
g3
tp561
a(S'There'
p562
S'There'
p563
S'EX'
p564
S'B-NP'
p565
g3
tp566
a(S'were'
p567
S'be'
p568
S'VBD'
p569
S'B-VP'
p570
g3
tp571
a(S'36'
p572
S'36'
p573
S'CD'
p574
S'B-NP'
p575
g3
tp576
a(S'patients'
p577
S'patient'
p578
S'NNS'
p579
S'I-NP'
p580
g3
tp581
a(S'in'
p582
S'in'
p583
S'IN'
p584
S'B-PP'
p585
g3
tp586
a(S'the'
p587
S'the'
p588
S'DT'
p589
S'B-NP'
p590
g3
tp591
a(S'control'
p592
S'control'
p593
S'NN'
p594
S'I-NP'
p595
g3
tp596
a(S'group'
p597
S'group'
p598
S'NN'
p599
S'I-NP'
p600
g3
tp601
a(g201
g201
g201
g3
g3
tp602
a(S'including'
p603
S'include'
p604
S'VBG'
p605
S'B-PP'
p606
g3
tp607
a(S'14'
p608
S'14'
p609
S'CD'
p610
S'B-NP'
p611
g3
tp612
a(S'males'
p613
S'male'
p614
S'NNS'
p615
S'I-NP'
p616
g3
tp617
a(S'and'
p618
S'and'
p619
S'CC'
p620
g3
g3
tp621
a(S'22'
p622
S'22'
p623
S'CD'
p624
S'B-NP'
p625
g3
tp626
a(S'females'
p627
S'female'
p628
S'NNS'
p629
S'I-NP'
p630
g3
tp631
a(g201
g201
g201
g3
g3
tp632
a(S'ranging'
p633
S'range'
p634
S'VBG'
p635
S'B-VP'
p636
g3
tp637
a(S'in'
p638
S'in'
p639
S'IN'
p640
S'B-PP'
p641
g3
tp642
a(S'age'
p643
S'age'
p644
S'NN'
p645
S'B-NP'
p646
g3
tp647
a(S'from'
p648
S'from'
p649
S'IN'
p650
S'B-PP'
p651
g3
tp652
a(S'40'
p653
S'40'
p654
S'CD'
p655
S'B-NP'
p656
g3
tp657
a(S'to'
p658
S'to'
p659
S'TO'
p660
S'I-NP'
p661
g3
tp662
a(S'62'
p663
S'62'
p664
S'CD'
p665
S'I-NP'
p666
g3
tp667
a(S'years'
p668
S'year'
p669
S'NNS'
p670
S'I-NP'
p671
g3
tp672
a(g201
g201
g201
g3
g3
tp673
a(S'with'
p674
S'with'
p675
S'IN'
p676
S'B-PP'
p677
g3
tp678
a(S'an'
p679
S'an'
p680
S'DT'
p681
S'B-NP'
p682
g3
tp683
a(S'average'
p684
S'average'
p685
S'NN'
p686
S'I-NP'
p687
g3
tp688
a(S'of'
p689
S'of'
p690
S'IN'
p691
S'B-PP'
p692
g3
tp693
a(g2
g2
g2
g3
g3
tp694
a(S'54.34'
p695
S'54.34'
p696
S'CD'
p697
S'B-NP'
p698
g3
tp699
a(S'+/-'
p700
S'+/-'
p701
S'CC'
p702
S'I-NP'
p703
g3
tp704
a(S'7.67'
p705
S'7.67'
p706
S'CD'
p707
S'I-NP'
p708
g3
tp709
a(g76
g76
g76
g3
g3
tp710
a(S'years'
p711
S'year'
p712
S'NNS'
p713
S'B-NP'
p714
g3
tp715
a(g412
g412
g413
g3
g3
tp716
a(S'the'
p717
S'the'
p718
S'DT'
p719
S'B-NP'
p720
g3
tp721
a(S'disease'
p722
S'disease'
p723
S'NN'
p724
S'I-NP'
p725
g3
tp726
a(S'course'
p727
S'course'
p728
S'NN'
p729
S'I-NP'
p730
g3
tp731
a(S'ranged'
p732
S'range'
p733
S'VBD'
p734
S'B-VP'
p735
g3
tp736
a(S'from'
p737
S'from'
p738
S'IN'
p739
S'B-PP'
p740
g3
tp741
a(S'6'
p742
g742
S'CD'
p743
S'B-NP'
p744
g3
tp745
a(S'to'
p746
S'to'
p747
S'TO'
p748
S'I-NP'
p749
g3
tp750
a(S'25'
p751
S'25'
p752
S'CD'
p753
S'I-NP'
p754
g3
tp755
a(S'months'
p756
S'month'
p757
S'NNS'
p758
S'I-NP'
p759
g3
tp760
a(g201
g201
g201
g3
g3
tp761
a(S'with'
p762
S'with'
p763
S'IN'
p764
S'B-PP'
p765
g3
tp766
a(S'an'
p767
S'an'
p768
S'DT'
p769
S'B-NP'
p770
g3
tp771
a(S'average'
p772
S'average'
p773
S'NN'
p774
S'I-NP'
p775
g3
tp776
a(S'of'
p777
S'of'
p778
S'IN'
p779
S'B-PP'
p780
g3
tp781
a(g2
g2
g2
g3
g3
tp782
a(S'11.94'
p783
S'11.94'
p784
S'CD'
p785
S'B-NP'
p786
g3
tp787
a(S'+/-'
p788
S'+/-'
p789
S'CC'
p790
S'I-NP'
p791
g3
tp792
a(S'5.13'
p793
S'5.13'
p794
S'CD'
p795
S'I-NP'
p796
g3
tp797
a(g76
g76
g76
g3
g3
tp798
a(S'months.'
p799
S'months.'
p800
S'NNS'
p801
S'B-NP'
p802
g3
tp803
a(S'Those'
p804
S'Those'
p805
S'DT'
p806
S'B-NP'
p807
g3
tp808
a(S'patients'
p809
S'patient'
p810
S'NNS'
p811
S'I-NP'
p812
g3
tp813
a(S'were'
p814
S'be'
p815
S'VBD'
p816
S'B-VP'
p817
g3
tp818
a(S'treated'
p819
S'treat'
p820
S'VBN'
p821
S'I-VP'
p822
g3
tp823
a(S'only'
p824
S'only'
p825
S'RB'
p826
S'B-ADVP'
p827
g3
tp828
a(S'with'
p829
S'with'
p830
S'IN'
p831
S'B-PP'
p832
g3
tp833
a(S'arthroscopic'
p834
S'arthroscopic'
p835
S'JJ'
p836
S'B-NP'
p837
g3
tp838
a(S'debridment.'
p839
S'debridment.'
p840
S'NN'
p841
S'I-NP'
p842
g3
tp843
a(S'All'
p844
S'All'
p845
S'DT'
p846
S'B-NP'
p847
g3
tp848
a(S'the'
p849
S'the'
p850
S'DT'
p851
S'I-NP'
p852
g3
tp853
a(S'patients'
p854
S'patient'
p855
S'NNS'
p856
S'I-NP'
p857
g3
tp858
a(S'performed'
p859
S'perform'
p860
S'VBD'
p861
S'B-VP'
p862
g3
tp863
a(S'isometric'
p864
S'isometric'
p865
S'JJ'
p866
S'B-NP'
p867
g3
tp868
a(S'quadriceps'
p869
S'quadricep'
p870
S'NNS'
p871
S'I-NP'
p872
g3
tp873
a(S'femoris'
p874
S'femori'
p875
S'VBP'
p876
S'B-VP'
p877
g3
tp878
a(S'contraction'
p879
S'contraction'
p880
S'NN'
p881
S'B-NP'
p882
g3
tp883
a(S'exercise'
p884
S'exercise'
p885
S'NN'
p886
S'I-NP'
p887
g3
tp888
a(S'and'
p889
S'and'
p890
S'CC'
p891
S'I-NP'
p892
g3
tp893
a(S'knee'
p894
S'knee'
p895
S'NN'
p896
S'I-NP'
p897
g3
tp898
a(S'flexion'
p899
S'flexion'
p900
S'NN'
p901
S'I-NP'
p902
g3
tp903
a(S'and'
p904
S'and'
p905
S'CC'
p906
S'I-NP'
p907
g3
tp908
a(S'extension'
p909
S'extension'
p910
S'NN'
p911
S'I-NP'
p912
g3
tp913
a(S'activities'
p914
S'activity'
p915
S'NNS'
p916
S'I-NP'
p917
g3
tp918
a(S'after'
p919
S'after'
p920
S'IN'
p921
S'B-PP'
p922
g3
tp923
a(S'operation.'
p924
S'operation.'
p925
S'RB'
p926
S'B-NP'
p927
g3
tp928
a(S'The'
p929
S'The'
p930
S'DT'
p931
S'I-NP'
p932
g3
tp933
a(S'visual'
p934
S'visual'
p935
S'JJ'
p936
S'I-NP'
p937
g3
tp938
a(S'analog'
p939
S'analog'
p940
S'NN'
p941
S'I-NP'
p942
g3
tp943
a(S'scale'
p944
S'scale'
p945
S'NN'
p946
S'I-NP'
p947
g3
tp948
a(g2
g2
g2
g3
g3
tp949
a(S'VAS'
p950
S'VAS'
p951
S'NN'
p952
S'B-NP'
p953
g3
tp954
a(g76
g76
g76
g3
g3
tp955
a(S'score'
p956
S'score'
p957
S'NN'
p958
S'B-NP'
p959
g3
tp960
a(S'and'
p961
S'and'
p962
S'CC'
p963
S'I-NP'
p964
g3
tp965
a(S'Lysholm'
p966
S'Lysholm'
p967
S'NN'
p968
S'I-NP'
p969
g3
tp970
a(S'knee'
p971
S'knee'
p972
S'NN'
p973
S'I-NP'
p974
g3
tp975
a(S'score'
p976
S'score'
p977
S'NN'
p978
S'I-NP'
p979
g3
tp980
a(S'were'
p981
S'be'
p982
S'VBD'
p983
S'B-VP'
p984
g3
tp985
a(S'used'
p986
S'use'
p987
S'VBN'
p988
S'I-VP'
p989
g3
tp990
a(S'to'
p991
S'to'
p992
S'TO'
p993
S'B-VP'
p994
g3
tp995
a(S'evaluate'
p996
S'evaluate'
p997
S'VB'
p998
S'I-VP'
p999
g3
tp1000
a(S'the'
p1001
S'the'
p1002
S'DT'
p1003
S'B-NP'
p1004
g3
tp1005
a(S'therapeutic'
p1006
S'therapeutic'
p1007
S'JJ'
p1008
S'I-NP'
p1009
g3
tp1010
a(S'effects'
p1011
S'effect'
p1012
S'NNS'
p1013
S'I-NP'
p1014
g3
tp1015
a(g78
g78
g78
g3
g3
tp1016
a(S'RESULTS'
p1017
S'RESULTS'
p1018
S'NNS'
p1019
S'B-NP'
p1020
g3
tp1021
a(S'All'
p1022
S'All'
p1023
S'PDT'
p1024
S'B-NP'
p1025
g3
tp1026
a(S'the'
p1027
S'the'
p1028
S'DT'
p1029
S'I-NP'
p1030
g3
tp1031
a(S'patients'
p1032
S'patient'
p1033
S'NNS'
p1034
S'I-NP'
p1035
g3
tp1036
a(S'were'
p1037
S'be'
p1038
S'VBD'
p1039
S'B-VP'
p1040
g3
tp1041
a(S'followed'
p1042
S'follow'
p1043
S'VBN'
p1044
S'I-VP'
p1045
g3
tp1046
a(S'up'
p1047
S'up'
p1048
S'IN'
p1049
S'B-PRT'
p1050
g3
tp1051
a(g201
g201
g201
g3
g3
tp1052
a(S'and'
p1053
S'and'
p1054
S'CC'
p1055
g3
g3
tp1056
a(S'the'
p1057
S'the'
p1058
S'DT'
p1059
S'B-NP'
p1060
g3
tp1061
a(S'duration'
p1062
S'duration'
p1063
S'NN'
p1064
S'I-NP'
p1065
g3
tp1066
a(S'ranged'
p1067
S'range'
p1068
S'VBD'
p1069
S'B-VP'
p1070
g3
tp1071
a(S'from'
p1072
S'from'
p1073
S'IN'
p1074
S'B-PP'
p1075
g3
tp1076
a(S'12'
p1077
S'12'
p1078
S'CD'
p1079
S'B-NP'
p1080
g3
tp1081
a(S'to'
p1082
S'to'
p1083
S'TO'
p1084
S'I-NP'
p1085
g3
tp1086
a(S'30'
p1087
S'30'
p1088
S'CD'
p1089
S'I-NP'
p1090
g3
tp1091
a(S'months'
p1092
S'month'
p1093
S'NNS'
p1094
S'I-NP'
p1095
g3
tp1096
a(g201
g201
g201
g3
g3
tp1097
a(S'with'
p1098
S'with'
p1099
S'IN'
p1100
S'B-PP'
p1101
g3
tp1102
a(S'an'
p1103
S'an'
p1104
S'DT'
p1105
S'B-NP'
p1106
g3
tp1107
a(S'average'
p1108
S'average'
p1109
S'NN'
p1110
S'I-NP'
p1111
g3
tp1112
a(S'of'
p1113
S'of'
p1114
S'IN'
p1115
S'B-PP'
p1116
g3
tp1117
a(S'15.6'
p1118
S'15.6'
p1119
S'CD'
p1120
S'B-NP'
p1121
g3
tp1122
a(S'months.'
p1123
S'months.'
p1124
S'NNS'
p1125
S'I-NP'
p1126
g3
tp1127
a(S'At'
p1128
S'At'
p1129
S'IN'
p1130
S'B-PP'
p1131
g3
tp1132
a(S'the'
p1133
S'the'
p1134
S'DT'
p1135
S'B-NP'
p1136
g3
tp1137
a(S'final'
p1138
S'final'
p1139
S'JJ'
p1140
S'I-NP'
p1141
g3
tp1142
a(S'follow-up'
p1143
S'follow-up'
p1144
S'NN'
p1145
S'I-NP'
p1146
g3
tp1147
a(g201
g201
g201
g3
g3
tp1148
a(S'VAS'
p1149
S'VAS'
p1150
S'NN'
p1151
S'B-NP'
p1152
S'B-DNA'
p1153
tp1154
a(S'score'
p1155
S'score'
p1156
S'NN'
p1157
S'I-NP'
p1158
S'I-DNA'
p1159
tp1160
a(S'was'
p1161
S'be'
p1162
S'VBD'
p1163
S'B-VP'
p1164
g3
tp1165
a(S'significantly'
p1166
S'significantly'
p1167
S'RB'
p1168
S'I-VP'
p1169
g3
tp1170
a(S'decreased'
p1171
S'decrease'
p1172
S'VBN'
p1173
S'I-VP'
p1174
g3
tp1175
a(g201
g201
g201
g3
g3
tp1176
a(S'and'
p1177
S'and'
p1178
S'CC'
p1179
g3
g3
tp1180
a(S'the'
p1181
S'the'
p1182
S'DT'
p1183
S'B-NP'
p1184
g3
tp1185
a(S'Lysholm'
p1186
S'Lysholm'
p1187
S'NN'
p1188
S'I-NP'
p1189
S'B-DNA'
p1190
tp1191
a(S'score'
p1192
S'score'
p1193
S'NN'
p1194
S'I-NP'
p1195
S'I-DNA'
p1196
tp1197
a(g201
g201
g201
g3
g3
tp1198
a(S'except'
p1199
S'except'
p1200
S'IN'
p1201
S'B-PP'
p1202
g3
tp1203
a(S'for'
p1204
S'for'
p1205
S'IN'
p1206
S'B-PP'
p1207
g3
tp1208
a(S'the'
p1209
S'the'
p1210
S'DT'
p1211
S'B-NP'
p1212
g3
tp1213
a(S'item'
p1214
S'item'
p1215
S'NN'
p1216
S'I-NP'
p1217
g3
tp1218
a(S'demanding'
p1219
S'demand'
p1220
S'VBG'
p1221
S'B-VP'
p1222
g3
tp1223
a(S'for'
p1224
S'for'
p1225
S'IN'
p1226
S'B-PP'
p1227
g3
tp1228
a(S'support'
p1229
S'support'
p1230
S'NN'
p1231
S'B-NP'
p1232
g3
tp1233
a(g201
g201
g201
g3
g3
tp1234
a(S'significantly'
p1235
S'significantly'
p1236
S'RB'
p1237
S'B-VP'
p1238
g3
tp1239
a(S'increased'
p1240
S'increase'
p1241
S'VBN'
p1242
S'I-VP'
p1243
g3
tp1244
a(g201
g201
g201
g3
g3
tp1245
a(S'compared'
p1246
S'compare'
p1247
S'VBN'
p1248
S'B-PP'
p1249
g3
tp1250
a(S'with'
p1251
S'with'
p1252
S'IN'
p1253
S'B-PP'
p1254
g3
tp1255
a(S'those'
p1256
S'those'
p1257
S'DT'
p1258
S'B-NP'
p1259
g3
tp1260
a(S'before'
p1261
S'before'
p1262
S'IN'
p1263
S'B-PP'
p1264
g3
tp1265
a(S'surgery'
p1266
S'surgery'
p1267
S'NN'
p1268
S'B-NP'
p1269
g3
tp1270
a(S'respectively'
p1271
S'respectively'
p1272
S'RB'
p1273
S'B-ADVP'
p1274
g3
tp1275
a(S'in'
p1276
S'in'
p1277
S'IN'
p1278
S'B-PP'
p1279
g3
tp1280
a(S'both'
p1281
S'both'
p1282
S'DT'
p1283
S'B-NP'
p1284
g3
tp1285
a(S'groups.'
p1286
S'groups.'
p1287
S'NNS'
p1288
S'I-NP'
p1289
g3
tp1290
a(S'There'
p1291
S'There'
p1292
S'EX'
p1293
S'B-NP'
p1294
g3
tp1295
a(S'was'
p1296
S'be'
p1297
S'VBD'
p1298
S'B-VP'
p1299
g3
tp1300
a(S'significant'
p1301
S'significant'
p1302
S'JJ'
p1303
S'B-NP'
p1304
g3
tp1305
a(S'difference'
p1306
S'difference'
p1307
S'NN'
p1308
S'I-NP'
p1309
g3
tp1310
a(S'in'
p1311
S'in'
p1312
S'IN'
p1313
S'B-PP'
p1314
g3
tp1315
a(S'VAS'
p1316
S'VAS'
p1317
S'NN'
p1318
S'B-NP'
p1319
g3
tp1320
a(S'score'
p1321
S'score'
p1322
S'NN'
p1323
S'I-NP'
p1324
g3
tp1325
a(S'between'
p1326
S'between'
p1327
S'IN'
p1328
S'B-PP'
p1329
g3
tp1330
a(S'two'
p1331
S'two'
p1332
S'CD'
p1333
S'B-NP'
p1334
g3
tp1335
a(S'groups'
p1336
S'group'
p1337
S'NNS'
p1338
S'I-NP'
p1339
g3
tp1340
a(S'after'
p1341
S'after'
p1342
S'IN'
p1343
S'B-PP'
p1344
g3
tp1345
a(S'treatment.'
p1346
S'treatment.'
p1347
S'NN'
p1348
S'B-NP'
p1349
g3
tp1350
a(S'As'
p1351
S'As'
p1352
S'IN'
p1353
S'B-PP'
p1354
g3
tp1355
a(S'to'
p1356
S'to'
p1357
S'TO'
p1358
S'B-PP'
p1359
g3
tp1360
a(S'Lysholm'
p1361
S'Lysholm'
p1362
S'NN'
p1363
S'B-NP'
p1364
g3
tp1365
a(S'score'
p1366
S'score'
p1367
S'NN'
p1368
S'I-NP'
p1369
g3
tp1370
a(g201
g201
g201
g3
g3
tp1371
a(S'there'
p1372
S'there'
p1373
S'EX'
p1374
S'B-NP'
p1375
g3
tp1376
a(S'were'
p1377
S'be'
p1378
S'VBD'
p1379
S'B-VP'
p1380
g3
tp1381
a(S'significant'
p1382
S'significant'
p1383
S'JJ'
p1384
S'B-NP'
p1385
g3
tp1386
a(S'differences'
p1387
S'difference'
p1388
S'NNS'
p1389
S'I-NP'
p1390
g3
tp1391
a(S'in'
p1392
S'in'
p1393
S'IN'
p1394
S'B-PP'
p1395
g3
tp1396
a(S'limp'
p1397
S'limp'
p1398
S'NN'
p1399
S'B-NP'
p1400
g3
tp1401
a(g201
g201
g201
g3
g3
tp1402
a(S'pain'
p1403
S'pain'
p1404
S'NN'
p1405
S'B-NP'
p1406
g3
tp1407
a(g201
g201
g201
g3
g3
tp1408
a(S'swelling'
p1409
S'swelling'
p1410
S'NN'
p1411
S'B-NP'
p1412
g3
tp1413
a(g201
g201
g201
g3
g3
tp1414
a(S'stair'
p1415
S'stair'
p1416
S'NN'
p1417
S'B-NP'
p1418
g3
tp1419
a(S'activity'
p1420
S'activity'
p1421
S'NN'
p1422
S'I-NP'
p1423
g3
tp1424
a(S'and'
p1425
S'and'
p1426
S'CC'
p1427
S'I-NP'
p1428
g3
tp1429
a(S'squat'
p1430
S'squat'
p1431
S'NN'
p1432
S'I-NP'
p1433
g3
tp1434
a(g201
g201
g201
g3
g3
tp1435
a(S'but'
p1436
S'but'
p1437
S'CC'
p1438
g3
g3
tp1439
a(S'there'
p1440
S'there'
p1441
S'EX'
p1442
S'B-NP'
p1443
g3
tp1444
a(S'were'
p1445
S'be'
p1446
S'VBD'
p1447
S'B-VP'
p1448
g3
tp1449
a(S'no'
p1450
S'no'
p1451
S'DT'
p1452
S'B-NP'
p1453
g3
tp1454
a(S'significant'
p1455
S'significant'
p1456
S'JJ'
p1457
S'I-NP'
p1458
g3
tp1459
a(S'differences'
p1460
S'difference'
p1461
S'NNS'
p1462
S'I-NP'
p1463
g3
tp1464
a(S'in'
p1465
S'in'
p1466
S'IN'
p1467
S'B-PP'
p1468
g3
tp1469
a(S'items'
p1470
S'item'
p1471
S'NNS'
p1472
S'B-NP'
p1473
g3
tp1474
a(S'of'
p1475
S'of'
p1476
S'IN'
p1477
S'B-PP'
p1478
g3
tp1479
a(S'interlocking'
p1480
S'interlocking'
p1481
S'NN'
p1482
S'B-NP'
p1483
g3
tp1484
a(S'and'
p1485
S'and'
p1486
S'CC'
p1487
S'I-NP'
p1488
g3
tp1489
a(S'instability'
p1490
S'instability'
p1491
S'NN'
p1492
S'I-NP'
p1493
g3
tp1494
a(S'between'
p1495
S'between'
p1496
S'IN'
p1497
S'B-PP'
p1498
g3
tp1499
a(S'two'
p1500
S'two'
p1501
S'CD'
p1502
S'B-NP'
p1503
g3
tp1504
a(S'groups'
p1505
S'group'
p1506
S'NNS'
p1507
S'I-NP'
p1508
g3
tp1509
a(S'after'
p1510
S'after'
p1511
S'IN'
p1512
S'B-PP'
p1513
g3
tp1514
a(S'treatment'
p1515
S'treatment'
p1516
S'NN'
p1517
S'B-NP'
p1518
g3
tp1519
a(g78
g78
g78
g3
g3
tp1520
a(S'CONCLUSION'
p1521
S'CONCLUSION'
p1522
S'NN'
p1523
S'B-NP'
p1524
g3
tp1525
a(S'Electroacupuncture'
p1526
S'Electroacupuncture'
p1527
S'NN'
p1528
S'I-NP'
p1529
g3
tp1530
a(S'can'
p1531
S'can'
p1532
S'MD'
p1533
S'B-VP'
p1534
g3
tp1535
a(S'effectively'
p1536
S'effectively'
p1537
S'RB'
p1538
S'I-VP'
p1539
g3
tp1540
a(S'improve'
p1541
S'improve'
p1542
S'VB'
p1543
S'I-VP'
p1544
g3
tp1545
a(S'the'
p1546
S'the'
p1547
S'DT'
p1548
S'B-NP'
p1549
g3
tp1550
a(S'clinical'
p1551
S'clinical'
p1552
S'JJ'
p1553
S'I-NP'
p1554
g3
tp1555
a(S'symptoms'
p1556
S'symptom'
p1557
S'NNS'
p1558
S'I-NP'
p1559
g3
tp1560
a(S'and'
p1561
S'and'
p1562
S'CC'
p1563
g3
g3
tp1564
a(S'knee'
p1565
S'knee'
p1566
S'NN'
p1567
S'B-NP'
p1568
g3
tp1569
a(S'joint'
p1570
S'joint'
p1571
S'NN'
p1572
S'I-NP'
p1573
g3
tp1574
a(S"'s"
p1575
S"'s"
p1576
S'POS'
p1577
S'B-NP'
p1578
g3
tp1579
a(S'motor'
p1580
S'motor'
p1581
S'NN'
p1582
S'I-NP'
p1583
g3
tp1584
a(S'function'
p1585
S'function'
p1586
S'NN'
p1587
S'I-NP'
p1588
g3
tp1589
a(S'of'
p1590
S'of'
p1591
S'IN'
p1592
S'B-PP'
p1593
g3
tp1594
a(S'knee'
p1595
S'knee'
p1596
S'NN'
p1597
S'B-NP'
p1598
g3
tp1599
a(S'joints'
p1600
S'joint'
p1601
S'NNS'
p1602
S'I-NP'
p1603
g3
tp1604
a(S'in'
p1605
S'in'
p1606
S'IN'
p1607
S'B-PP'
p1608
g3
tp1609
a(S'patients'
p1610
S'patient'
p1611
S'NNS'
p1612
S'B-NP'
p1613
g3
tp1614
a(S'with'
p1615
S'with'
p1616
S'IN'
p1617
S'B-PP'
p1618
g3
tp1619
a(S'knee'
p1620
S'knee'
p1621
S'NN'
p1622
S'B-NP'
p1623
g3
tp1624
a(S'osteoarthritis'
p1625
S'osteoarthritis'
p1626
S'NN'
p1627
S'I-NP'
p1628
g3
tp1629
a(g201
g201
g201
g3
g3
tp1630
a(S'as'
p1631
S'as'
p1632
S'RB'
p1633
S'B-CONJP'
p1634
g3
tp1635
a(S'well'
p1636
S'well'
p1637
S'RB'
p1638
S'I-CONJP'
p1639
g3
tp1640
a(S'as'
p1641
S'as'
p1642
S'IN'
p1643
S'I-CONJP'
p1644
g3
tp1645
a(S'the'
p1646
S'the'
p1647
S'DT'
p1648
S'B-NP'
p1649
g3
tp1650
a(S'synergistic'
p1651
S'synergistic'
p1652
S'JJ'
p1653
S'I-NP'
p1654
g3
tp1655
a(S'effects'
p1656
S'effect'
p1657
S'NNS'
p1658
S'I-NP'
p1659
g3
tp1660
a(S'on'
p1661
S'on'
p1662
S'IN'
p1663
S'B-PP'
p1664
g3
tp1665
a(S'the'
p1666
S'the'
p1667
S'DT'
p1668
S'B-NP'
p1669
g3
tp1670
a(S'treatment'
p1671
S'treatment'
p1672
S'NN'
p1673
S'I-NP'
p1674
g3
tp1675
a(S'of'
p1676
S'of'
p1677
S'IN'
p1678
S'B-PP'
p1679
g3
tp1680
a(S'knee'
p1681
S'knee'
p1682
S'NN'
p1683
S'B-NP'
p1684
g3
tp1685
a(S'osteoarthritis'
p1686
S'osteoarthritis'
p1687
S'NN'
p1688
S'I-NP'
p1689
g3
tp1690
a(S'after'
p1691
S'after'
p1692
S'IN'
p1693
S'B-PP'
p1694
g3
tp1695
a(S'arthroscopic'
p1696
S'arthroscopic'
p1697
S'JJ'
p1698
S'B-NP'
p1699
g3
tp1700
a(S'debridement'
p1701
S'debridement'
p1702
S'NN'
p1703
S'I-NP'
p1704
g3
tp1705
a(g201
g201
g201
g3
g3
tp1706
a(S'leading'
p1707
S'lead'
p1708
S'VBG'
p1709
S'B-VP'
p1710
g3
tp1711
a(S'to'
p1712
S'to'
p1713
S'TO'
p1714
S'B-PP'
p1715
g3
tp1716
a(S'a'
p1717
g1717
S'DT'
p1718
S'B-NP'
p1719
g3
tp1720
a(S'much'
p1721
S'much'
p1722
S'RB'
p1723
S'I-NP'
p1724
g3
tp1725
a(S'better'
p1726
S'well'
p1727
S'RBR'
p1728
S'I-NP'
p1729
g3
tp1730
a(S'long-term'
p1731
S'long-term'
p1732
S'JJ'
p1733
S'I-NP'
p1734
g3
tp1735
a(S'therapeutic'
p1736
S'therapeutic'
p1737
S'JJ'
p1738
S'I-NP'
p1739
g3
tp1740
a(S'effect'
p1741
S'effect'
p1742
S'NN'
p1743
S'I-NP'
p1744
g3
tp1745
a(S'with'
p1746
S'with'
p1747
S'IN'
p1748
S'B-PP'
p1749
g3
tp1750
a(S'respect'
p1751
S'respect'
p1752
S'NN'
p1753
S'B-NP'
p1754
g3
tp1755
a(S'of'
p1756
S'of'
p1757
S'IN'
p1758
S'B-PP'
p1759
g3
tp1760
a(S'improving'
p1761
S'improve'
p1762
S'VBG'
p1763
S'B-VP'
p1764
g3
tp1765
a(S'the'
p1766
S'the'
p1767
S'DT'
p1768
S'B-NP'
p1769
g3
tp1770
a(S'function'
p1771
S'function'
p1772
S'NN'
p1773
S'I-NP'
p1774
g3
tp1775
a(S'of'
p1776
S'of'
p1777
S'IN'
p1778
S'B-PP'
p1779
g3
tp1780
a(S'knee'
p1781
S'knee'
p1782
S'NN'
p1783
S'B-NP'
p1784
g3
tp1785
a(S'joint.'
p1786
S'joint.'
p1787
S'NN'
p1788
S'I-NP'
p1789
g3
tp1790
a(S'This'
p1791
S'This'
p1792
S'DT'
p1793
S'B-NP'
p1794
g3
tp1795
a(S'therapy'
p1796
S'therapy'
p1797
S'NN'
p1798
S'I-NP'
p1799
g3
tp1800
a(g201
g201
g201
g3
g3
tp1801
a(S'combined'
p1802
S'combine'
p1803
S'VBN'
p1804
S'B-VP'
p1805
g3
tp1806
a(S'with'
p1807
S'with'
p1808
S'IN'
p1809
S'B-PP'
p1810
g3
tp1811
a(S'traditional'
p1812
S'traditional'
p1813
S'JJ'
p1814
S'B-NP'
p1815
g3
tp1816
a(S'Chinese'
p1817
S'Chinese'
p1818
S'JJ'
p1819
S'I-NP'
p1820
g3
tp1821
a(S'medicine'
p1822
S'medicine'
p1823
S'NN'
p1824
S'I-NP'
p1825
g3
tp1826
a(S'and'
p1827
S'and'
p1828
S'CC'
p1829
g3
g3
tp1830
a(S'Western'
p1831
S'Western'
p1832
S'NNP'
p1833
S'B-NP'
p1834
g3
tp1835
a(S'Medicine'
p1836
S'Medicine'
p1837
S'NNP'
p1838
S'I-NP'
p1839
g3
tp1840
a(g201
g201
g201
g3
g3
tp1841
a(S'is'
p1842
S'be'
p1843
S'VBZ'
p1844
S'B-VP'
p1845
g3
tp1846
a(S'worth'
p1847
S'worth'
p1848
S'JJ'
p1849
S'B-ADJP'
p1850
g3
tp1851
a(S'of'
p1852
S'of'
p1853
S'IN'
p1854
S'B-PP'
p1855
g3
tp1856
a(S'clinical'
p1857
S'clinical'
p1858
S'JJ'
p1859
S'B-NP'
p1860
g3
tp1861
a(S'application'
p1862
S'application'
p1863
S'NN'
p1864
S'I-NP'
p1865
g3
tp1866
a(S'in'
p1867
S'in'
p1868
S'IN'
p1869
S'B-PP'
p1870
g3
tp1871
a(S'the'
p1872
S'the'
p1873
S'DT'
p1874
S'B-NP'
p1875
g3
tp1876
a(S'treatment'
p1877
S'treatment'
p1878
S'NN'
p1879
S'I-NP'
p1880
g3
tp1881
a(S'of'
p1882
S'of'
p1883
S'IN'
p1884
S'B-PP'
p1885
g3
tp1886
a(S'knee'
p1887
S'knee'
p1888
S'NN'
p1889
S'B-NP'
p1890
g3
tp1891
a(S'osteoarthritis'
p1892
S'osteoarthritis'
p1893
S'NN'
p1894
S'I-NP'
p1895
g3
tp1896
a(g78
g78
g78
g3
g3
tp1897
a.