(lp0
(S'Effects'
p1
S'Effect'
p2
S'NNS'
p3
S'B-NP'
p4
S'O'
p5
tp6
a(S'of'
p7
S'of'
p8
S'IN'
p9
S'B-PP'
p10
g5
tp11
a(S'interaction'
p12
S'interaction'
p13
S'NN'
p14
S'B-NP'
p15
g5
tp16
a(S'of'
p17
S'of'
p18
S'IN'
p19
S'B-PP'
p20
g5
tp21
a(S'RRR-alpha-tocopheryl'
p22
S'RRR-alpha-tocopheryl'
p23
S'NN'
p24
S'B-NP'
p25
g5
tp26
a(S'acetate'
p27
S'acetate'
p28
S'NN'
p29
S'I-NP'
p30
g5
tp31
a(S'and'
p32
S'and'
p33
S'CC'
p34
S'I-NP'
p35
g5
tp36
a(S'fish'
p37
S'fish'
p38
S'NN'
p39
S'I-NP'
p40
g5
tp41
a(S'oil'
p42
S'oil'
p43
S'NN'
p44
S'I-NP'
p45
g5
tp46
a(S'on'
p47
S'on'
p48
S'IN'
p49
S'B-PP'
p50
g5
tp51
a(S'low-density-lipoprotein'
p52
S'low-density-lipoprotein'
p53
S'NN'
p54
S'B-NP'
p55
S'B-protein'
p56
tp57
a(S'oxidation'
p58
S'oxidation'
p59
S'NN'
p60
S'I-NP'
p61
g5
tp62
a(S'in'
p63
S'in'
p64
S'IN'
p65
S'B-PP'
p66
g5
tp67
a(S'postmenopausal'
p68
S'postmenopausal'
p69
S'JJ'
p70
S'B-NP'
p71
g5
tp72
a(S'women'
p73
S'woman'
p74
S'NNS'
p75
S'I-NP'
p76
g5
tp77
a(S'with'
p78
S'with'
p79
S'IN'
p80
S'B-PP'
p81
g5
tp82
a(S'and'
p83
S'and'
p84
S'CC'
p85
S'B-PP'
p86
g5
tp87
a(S'without'
p88
S'without'
p89
S'IN'
p90
S'B-PP'
p91
g5
tp92
a(S'hormone-replacement'
p93
S'hormone-replacement'
p94
S'NN'
p95
S'B-NP'
p96
g5
tp97
a(S'therapy'
p98
S'therapy'
p99
S'NN'
p100
S'I-NP'
p101
g5
tp102
a(S'.'
p103
g103
g103
g5
g5
tp104
a(S'We'
p105
S'We'
p106
S'PRP'
p107
S'B-NP'
p108
g5
tp109
a(S'evaluated'
p110
S'evaluate'
p111
S'VBD'
p112
S'B-VP'
p113
g5
tp114
a(S'the'
p115
S'the'
p116
S'DT'
p117
S'B-NP'
p118
g5
tp119
a(S'effects'
p120
S'effect'
p121
S'NNS'
p122
S'I-NP'
p123
g5
tp124
a(S'of'
p125
S'of'
p126
S'IN'
p127
S'B-PP'
p128
g5
tp129
a(S'RRR-alpha-tocpheryl'
p130
S'RRR-alpha-tocpheryl'
p131
S'NN'
p132
S'B-NP'
p133
g5
tp134
a(S'acetate'
p135
S'acetate'
p136
S'NN'
p137
S'I-NP'
p138
g5
tp139
a(S'('
p140
g140
g140
g5
g5
tp141
a(S'alpha-tocopheryl'
p142
S'alpha-tocopheryl'
p143
S'NN'
p144
S'B-NP'
p145
g5
tp146
a(S'acetate'
p147
S'acetate'
p148
S'NN'
p149
S'I-NP'
p150
g5
tp151
a(S')'
p152
g152
g152
g5
g5
tp153
a(S'and'
p154
S'and'
p155
S'CC'
p156
g5
g5
tp157
a(S'hormone-replacement'
p158
S'hormone-replacement'
p159
S'NN'
p160
S'B-NP'
p161
g5
tp162
a(S'therapy'
p163
S'therapy'
p164
S'NN'
p165
S'I-NP'
p166
g5
tp167
a(g140
g140
g140
g5
g5
tp168
a(S'HRT'
p169
S'HRT'
p170
S'NN'
p171
S'B-NP'
p172
S'B-protein'
p173
tp174
a(g152
g152
g152
g5
g5
tp175
a(S'on'
p176
S'on'
p177
S'IN'
p178
S'B-PP'
p179
g5
tp180
a(S'the'
p181
S'the'
p182
S'DT'
p183
S'B-NP'
p184
g5
tp185
a(S'oxidative'
p186
S'oxidative'
p187
S'JJ'
p188
S'I-NP'
p189
g5
tp190
a(S'susceptibility'
p191
S'susceptibility'
p192
S'NN'
p193
S'I-NP'
p194
g5
tp195
a(S'of'
p196
S'of'
p197
S'IN'
p198
S'B-PP'
p199
g5
tp200
a(S'low-density'
p201
S'low-density'
p202
S'JJ'
p203
S'B-NP'
p204
S'B-protein'
p205
tp206
a(S'lipoprotein'
p207
S'lipoprotein'
p208
S'NN'
p209
S'I-NP'
p210
S'I-protein'
p211
tp212
a(g140
g140
g140
g5
g5
tp213
a(S'LDL'
p214
S'LDL'
p215
S'NN'
p216
S'B-NP'
p217
S'B-protein'
p218
tp219
a(g152
g152
g152
g5
g5
tp220
a(S'in'
p221
S'in'
p222
S'IN'
p223
S'B-PP'
p224
g5
tp225
a(S'postmenopausal'
p226
S'postmenopausal'
p227
S'JJ'
p228
S'B-NP'
p229
g5
tp230
a(S'women'
p231
S'woman'
p232
S'NNS'
p233
S'I-NP'
p234
g5
tp235
a(S'consuming'
p236
S'consume'
p237
S'VBG'
p238
S'B-VP'
p239
g5
tp240
a(S'a'
p241
g241
S'DT'
p242
S'B-NP'
p243
g5
tp244
a(S'fish'
p245
S'fish'
p246
S'NN'
p247
S'I-NP'
p248
g5
tp249
a(S'oil'
p250
S'oil'
p251
S'NN'
p252
S'I-NP'
p253
g5
tp254
a(S'supplement.'
p255
S'supplement.'
p256
S'NN'
p257
S'I-NP'
p258
g5
tp259
a(S'The'
p260
S'The'
p261
S'DT'
p262
S'B-NP'
p263
g5
tp264
a(S'independent'
p265
S'independent'
p266
S'JJ'
p267
S'I-NP'
p268
g5
tp269
a(S'effect'
p270
S'effect'
p271
S'NN'
p272
S'I-NP'
p273
g5
tp274
a(S'of'
p275
S'of'
p276
S'IN'
p277
S'B-PP'
p278
g5
tp279
a(S'fish'
p280
S'fish'
p281
S'NN'
p282
S'B-NP'
p283
g5
tp284
a(S'oil'
p285
S'oil'
p286
S'NN'
p287
S'I-NP'
p288
g5
tp289
a(S'was'
p290
S'be'
p291
S'VBD'
p292
S'B-VP'
p293
g5
tp294
a(S'also'
p295
S'also'
p296
S'RB'
p297
S'B-ADVP'
p298
g5
tp299
a(S'assessed.'
p300
S'assessed.'
p301
S'RB'
p302
S'B-ADVP'
p303
g5
tp304
a(S'Forty-eight'
p305
S'Forty-eight'
p306
S'CD'
p307
S'B-NP'
p308
g5
tp309
a(S'women'
p310
S'woman'
p311
S'NNS'
p312
S'I-NP'
p313
g5
tp314
a(S','
p315
g315
g315
g5
g5
tp316
a(S'equally'
p317
S'equally'
p318
S'RB'
p319
S'B-VP'
p320
g5
tp321
a(S'divided'
p322
S'divide'
p323
S'VBN'
p324
S'I-VP'
p325
g5
tp326
a(S'between'
p327
S'between'
p328
S'IN'
p329
S'B-PP'
p330
g5
tp331
a(S'women'
p332
S'woman'
p333
S'NNS'
p334
S'B-NP'
p335
g5
tp336
a(S'using'
p337
S'use'
p338
S'VBG'
p339
S'B-VP'
p340
g5
tp341
a(S'and'
p342
S'and'
p343
S'CC'
p344
g5
g5
tp345
a(S'not'
p346
S'not'
p347
S'RB'
p348
S'B-VP'
p349
g5
tp350
a(S'using'
p351
S'use'
p352
S'VBG'
p353
S'I-VP'
p354
g5
tp355
a(S'HRT'
p356
S'HRT'
p357
S'NN'
p358
S'B-NP'
p359
S'B-protein'
p360
tp361
a(g315
g315
g315
g5
g5
tp362
a(S'participated'
p363
S'participate'
p364
S'VBD'
p365
S'B-VP'
p366
g5
tp367
a(S'in'
p368
S'in'
p369
S'IN'
p370
S'B-PP'
p371
g5
tp372
a(g241
g241
S'DT'
p373
S'B-NP'
p374
g5
tp375
a(S'double-blind'
p376
S'double-blind'
p377
S'JJ'
p378
S'I-NP'
p379
g5
tp380
a(S'crossover'
p381
S'crossover'
p382
S'NN'
p383
S'I-NP'
p384
g5
tp385
a(S'trial.'
p386
S'trial.'
p387
S'NN'
p388
S'I-NP'
p389
g5
tp390
a(S'Each'
p391
S'Each'
p392
S'DT'
p393
S'B-NP'
p394
g5
tp395
a(S'of'
p396
S'of'
p397
S'IN'
p398
S'B-PP'
p399
g5
tp400
a(S'the'
p401
S'the'
p402
S'DT'
p403
S'B-NP'
p404
g5
tp405
a(S'four'
p406
S'four'
p407
S'CD'
p408
S'I-NP'
p409
g5
tp410
a(S'periods'
p411
S'period'
p412
S'NNS'
p413
S'I-NP'
p414
g5
tp415
a(S'lasted'
p416
S'last'
p417
S'VBD'
p418
S'B-VP'
p419
g5
tp420
a(S'5'
p421
g421
S'CD'
p422
S'B-NP'
p423
g5
tp424
a(S'wk'
p425
S'wk'
p426
S'NN'
p427
S'I-NP'
p428
g5
tp429
a(S'and'
p430
S'and'
p431
S'CC'
p432
g5
g5
tp433
a(S'was'
p434
S'be'
p435
S'VBD'
p436
S'B-VP'
p437
g5
tp438
a(S'followed'
p439
S'follow'
p440
S'VBN'
p441
S'I-VP'
p442
g5
tp443
a(S'by'
p444
S'by'
p445
S'IN'
p446
S'B-PP'
p447
g5
tp448
a(g241
g241
S'DT'
p449
S'B-NP'
p450
g5
tp451
a(S'4-wk'
p452
S'4-wk'
p453
S'JJ'
p454
S'I-NP'
p455
g5
tp456
a(S'washout'
p457
S'washout'
p458
S'NN'
p459
S'I-NP'
p460
g5
tp461
a(S'interval.'
p462
S'interval.'
p463
S'NN'
p464
S'I-NP'
p465
g5
tp466
a(S'During'
p467
S'During'
p468
S'IN'
p469
S'B-PP'
p470
g5
tp471
a(S'each'
p472
S'each'
p473
S'DT'
p474
S'B-NP'
p475
g5
tp476
a(S'period'
p477
S'period'
p478
S'NN'
p479
S'I-NP'
p480
g5
tp481
a(S'all'
p482
S'all'
p483
S'DT'
p484
S'B-NP'
p485
g5
tp486
a(S'subjects'
p487
S'subject'
p488
S'NNS'
p489
S'I-NP'
p490
g5
tp491
a(S'were'
p492
S'be'
p493
S'VBD'
p494
S'B-VP'
p495
g5
tp496
a(S'given'
p497
S'give'
p498
S'VBN'
p499
S'I-VP'
p500
g5
tp501
a(g241
g241
S'DT'
p502
S'B-NP'
p503
g5
tp504
a(S'15-g'
p505
S'15-g'
p506
S'JJ'
p507
S'I-NP'
p508
g5
tp509
a(S'supplement'
p510
S'supplement'
p511
S'NN'
p512
S'I-NP'
p513
g5
tp514
a(S'of'
p515
S'of'
p516
S'IN'
p517
S'B-PP'
p518
g5
tp519
a(S'fish'
p520
S'fish'
p521
S'NN'
p522
S'B-NP'
p523
g5
tp524
a(S'oil'
p525
S'oil'
p526
S'NN'
p527
S'I-NP'
p528
g5
tp529
a(S'and'
p530
S'and'
p531
S'CC'
p532
g5
g5
tp533
a(S'either'
p534
S'either'
p535
S'CC'
p536
g5
g5
tp537
a(S'0'
p538
g538
S'CD'
p539
S'B-NP'
p540
g5
tp541
a(g140
g140
g140
g5
g5
tp542
a(S'placebo'
p543
S'placebo'
p544
S'NN'
p545
S'B-NP'
p546
g5
tp547
a(g152
g152
g152
g5
g5
tp548
a(g315
g315
g315
g5
g5
tp549
a(S'100'
p550
S'100'
p551
S'CD'
p552
S'B-NP'
p553
g5
tp554
a(g315
g315
g315
S'I-NP'
p555
g5
tp556
a(S'200'
p557
S'200'
p558
S'CD'
p559
S'I-NP'
p560
g5
tp561
a(g315
g315
g315
g5
g5
tp562
a(S'or'
p563
S'or'
p564
S'CC'
p565
g5
g5
tp566
a(S'400'
p567
S'400'
p568
S'CD'
p569
S'B-NP'
p570
g5
tp571
a(S'mg'
p572
S'mg'
p573
S'NN'
p574
S'I-NP'
p575
g5
tp576
a(S'alpha-tocopheryl'
p577
S'alpha-tocopheryl'
p578
S'NN'
p579
S'I-NP'
p580
g5
tp581
a(S'acetate'
p582
S'acetate'
p583
S'NN'
p584
S'I-NP'
p585
g5
tp586
a(S'daily.'
p587
S'daily.'
p588
S'NN'
p589
S'I-NP'
p590
g5
tp591
a(S'LDL'
p592
S'LDL'
p593
S'NN'
p594
S'I-NP'
p595
g5
tp596
a(S'resistance'
p597
S'resistance'
p598
S'NN'
p599
S'I-NP'
p600
g5
tp601
a(S'to'
p602
S'to'
p603
S'TO'
p604
S'B-PP'
p605
g5
tp606
a(S'oxidative'
p607
S'oxidative'
p608
S'JJ'
p609
S'B-NP'
p610
g5
tp611
a(S'modification'
p612
S'modification'
p613
S'NN'
p614
S'I-NP'
p615
g5
tp616
a(S'was'
p617
S'be'
p618
S'VBD'
p619
S'B-VP'
p620
g5
tp621
a(S'assessed'
p622
S'assess'
p623
S'VBN'
p624
S'I-VP'
p625
g5
tp626
a(S'by'
p627
S'by'
p628
S'IN'
p629
S'B-PP'
p630
g5
tp631
a(S'calculating'
p632
S'calculate'
p633
S'VBG'
p634
S'B-VP'
p635
g5
tp636
a(S'lag'
p637
S'lag'
p638
S'NN'
p639
S'B-NP'
p640
g5
tp641
a(S'time'
p642
S'time'
p643
S'NN'
p644
S'I-NP'
p645
g5
tp646
a(g315
g315
g315
g5
g5
tp647
a(S'propagation'
p648
S'propagation'
p649
S'NN'
p650
S'B-NP'
p651
g5
tp652
a(S'rate'
p653
S'rate'
p654
S'NN'
p655
S'I-NP'
p656
g5
tp657
a(g315
g315
g315
g5
g5
tp658
a(S'and'
p659
S'and'
p660
S'CC'
p661
g5
g5
tp662
a(S'maximum'
p663
S'maximum'
p664
S'JJ'
p665
S'B-NP'
p666
g5
tp667
a(S'production'
p668
S'production'
p669
S'NN'
p670
S'I-NP'
p671
g5
tp672
a(S'of'
p673
S'of'
p674
S'IN'
p675
S'B-PP'
p676
g5
tp677
a(S'conjugated'
p678
S'conjugate'
p679
S'VBN'
p680
S'B-NP'
p681
g5
tp682
a(S'dienes.'
p683
S'dienes.'
p684
S'NN'
p685
S'I-NP'
p686
g5
tp687
a(S'Supplementation'
p688
S'Supplementation'
p689
S'NN'
p690
S'I-NP'
p691
g5
tp692
a(S'with'
p693
S'with'
p694
S'IN'
p695
S'B-PP'
p696
g5
tp697
a(S'fish'
p698
S'fish'
p699
S'NN'
p700
S'B-NP'
p701
g5
tp702
a(S'oil'
p703
S'oil'
p704
S'NN'
p705
S'I-NP'
p706
g5
tp707
a(S'and'
p708
S'and'
p709
S'CC'
p710
S'I-NP'
p711
g5
tp712
a(S'placebo'
p713
S'placebo'
p714
S'NN'
p715
S'I-NP'
p716
g5
tp717
a(S'shortened'
p718
S'shorten'
p719
S'VBD'
p720
S'B-VP'
p721
g5
tp722
a(S'lag'
p723
S'lag'
p724
S'NN'
p725
S'B-NP'
p726
g5
tp727
a(S'time'
p728
S'time'
p729
S'NN'
p730
S'I-NP'
p731
g5
tp732
a(S'and'
p733
S'and'
p734
S'CC'
p735
g5
g5
tp736
a(S'slowed'
p737
S'slow'
p738
S'VBD'
p739
S'B-VP'
p740
g5
tp741
a(S'propagation'
p742
S'propagation'
p743
S'NN'
p744
S'B-NP'
p745
g5
tp746
a(S'rate'
p747
S'rate'
p748
S'NN'
p749
S'I-NP'
p750
g5
tp751
a(S'in'
p752
S'in'
p753
S'IN'
p754
S'B-PP'
p755
g5
tp756
a(S'women'
p757
S'woman'
p758
S'NNS'
p759
S'B-NP'
p760
g5
tp761
a(S'both'
p762
S'both'
p763
S'CC'
p764
g5
g5
tp765
a(S'using'
p766
S'use'
p767
S'VBG'
p768
S'B-VP'
p769
g5
tp770
a(S'and'
p771
S'and'
p772
S'CC'
p773
g5
g5
tp774
a(S'not'
p775
S'not'
p776
S'RB'
p777
S'B-VP'
p778
g5
tp779
a(S'using'
p780
S'use'
p781
S'VBG'
p782
S'I-VP'
p783
g5
tp784
a(S'HRT.'
p785
S'HRT.'
p786
S'NN'
p787
S'B-NP'
p788
S'B-protein'
p789
tp790
a(S'After'
p791
S'After'
p792
S'IN'
p793
S'B-SBAR'
p794
g5
tp795
a(S'subjects'
p796
S'subject'
p797
S'NNS'
p798
S'B-NP'
p799
g5
tp800
a(S'consumed'
p801
S'consume'
p802
S'VBD'
p803
S'B-VP'
p804
g5
tp805
a(S'fish'
p806
S'fish'
p807
S'NN'
p808
S'B-NP'
p809
g5
tp810
a(S'oil'
p811
S'oil'
p812
S'NN'
p813
S'I-NP'
p814
g5
tp815
a(g315
g315
g315
g5
g5
tp816
a(S'supplementation'
p817
S'supplementation'
p818
S'NN'
p819
S'B-NP'
p820
g5
tp821
a(S'with'
p822
S'with'
p823
S'IN'
p824
S'B-PP'
p825
g5
tp826
a(S'alpha-tocopheryl'
p827
S'alpha-tocopheryl'
p828
S'NN'
p829
S'B-NP'
p830
g5
tp831
a(S'acetate'
p832
S'acetate'
p833
S'NN'
p834
S'I-NP'
p835
g5
tp836
a(S'increased'
p837
S'increase'
p838
S'VBD'
p839
S'B-VP'
p840
g5
tp841
a(S'plasma'
p842
S'plasma'
p843
S'NN'
p844
S'B-NP'
p845
g5
tp846
a(S'and'
p847
S'and'
p848
S'CC'
p849
S'I-NP'
p850
g5
tp851
a(S'LDL'
p852
S'LDL'
p853
S'NN'
p854
S'I-NP'
p855
g5
tp856
a(S'alpha-tocopherol'
p857
S'alpha-tocopherol'
p858
S'NN'
p859
S'I-NP'
p860
g5
tp861
a(S'contents'
p862
S'content'
p863
S'NNS'
p864
S'I-NP'
p865
g5
tp866
a(S'significantly'
p867
S'significantly'
p868
S'RB'
p869
S'B-ADVP'
p870
g5
tp871
a(S'and'
p872
S'and'
p873
S'CC'
p874
g5
g5
tp875
a(S'lengthened'
p876
S'lengthen'
p877
S'VBD'
p878
S'B-VP'
p879
g5
tp880
a(S'lag'
p881
S'lag'
p882
S'NN'
p883
S'B-NP'
p884
g5
tp885
a(S'time'
p886
S'time'
p887
S'NN'
p888
S'I-NP'
p889
g5
tp890
a(g140
g140
g140
g5
g5
tp891
a(S'at'
p892
S'at'
p893
S'IN'
p894
S'B-PP'
p895
g5
tp896
a(S'even'
p897
S'even'
p898
S'RB'
p899
S'B-NP'
p900
g5
tp901
a(S'the'
p902
S'the'
p903
S'DT'
p904
S'I-NP'
p905
g5
tp906
a(S'lowest'
p907
S'low'
p908
S'JJS'
p909
S'I-NP'
p910
g5
tp911
a(S'concentration'
p912
S'concentration'
p913
S'NN'
p914
S'I-NP'
p915
g5
tp916
a(g152
g152
g152
g5
g5
tp917
a(S'but'
p918
S'but'
p919
S'CC'
p920
g5
g5
tp921
a(S'had'
p922
S'have'
p923
S'VBD'
p924
S'B-VP'
p925
g5
tp926
a(S'no'
p927
S'no'
p928
S'DT'
p929
S'B-NP'
p930
g5
tp931
a(S'significant'
p932
S'significant'
p933
S'JJ'
p934
S'I-NP'
p935
g5
tp936
a(S'effect'
p937
S'effect'
p938
S'NN'
p939
S'I-NP'
p940
g5
tp941
a(S'on'
p942
S'on'
p943
S'IN'
p944
S'B-PP'
p945
g5
tp946
a(S'propagation'
p947
S'propagation'
p948
S'NN'
p949
S'B-NP'
p950
g5
tp951
a(S'rate'
p952
S'rate'
p953
S'NN'
p954
S'I-NP'
p955
g5
tp956
a(S'or'
p957
S'or'
p958
S'CC'
p959
g5
g5
tp960
a(S'maximum'
p961
S'maximum'
p962
S'NN'
p963
S'B-NP'
p964
g5
tp965
a(S'production'
p966
S'production'
p967
S'NN'
p968
S'I-NP'
p969
g5
tp970
a(S'compared'
p971
S'compare'
p972
S'VBN'
p973
S'B-PP'
p974
g5
tp975
a(S'with'
p976
S'with'
p977
S'IN'
p978
S'B-PP'
p979
g5
tp980
a(S'values'
p981
S'value'
p982
S'NNS'
p983
S'B-NP'
p984
g5
tp985
a(S'measured'
p986
S'measure'
p987
S'VBN'
p988
S'B-VP'
p989
g5
tp990
a(S'after'
p991
S'after'
p992
S'IN'
p993
S'B-PP'
p994
g5
tp995
a(S'consumption'
p996
S'consumption'
p997
S'NN'
p998
S'B-NP'
p999
g5
tp1000
a(S'of'
p1001
S'of'
p1002
S'IN'
p1003
S'B-PP'
p1004
g5
tp1005
a(S'fish'
p1006
S'fish'
p1007
S'NN'
p1008
S'B-NP'
p1009
g5
tp1010
a(S'oil'
p1011
S'oil'
p1012
S'NN'
p1013
S'I-NP'
p1014
g5
tp1015
a(S'alone.'
p1016
S'alone.'
p1017
S'RB'
p1018
S'B-ADVP'
p1019
g5
tp1020
a(S'Women'
p1021
S'Women'
p1022
S'NNP'
p1023
S'B-NP'
p1024
g5
tp1025
a(S'not'
p1026
S'not'
p1027
S'RB'
p1028
g5
g5
tp1029
a(S'using'
p1030
S'use'
p1031
S'VBG'
p1032
S'B-VP'
p1033
g5
tp1034
a(S'HRT'
p1035
S'HRT'
p1036
S'NN'
p1037
S'B-NP'
p1038
S'B-protein'
p1039
tp1040
a(S'had'
p1041
S'have'
p1042
S'VBD'
p1043
S'B-VP'
p1044
g5
tp1045
a(S'faster'
p1046
S'fast'
p1047
S'JJR'
p1048
S'B-NP'
p1049
g5
tp1050
a(S'propagation'
p1051
S'propagation'
p1052
S'NN'
p1053
S'I-NP'
p1054
g5
tp1055
a(S'rates'
p1056
S'rate'
p1057
S'NNS'
p1058
S'I-NP'
p1059
g5
tp1060
a(S'and'
p1061
S'and'
p1062
S'CC'
p1063
g5
g5
tp1064
a(S'higher'
p1065
S'high'
p1066
S'JJR'
p1067
S'B-NP'
p1068
g5
tp1069
a(S'maximum'
p1070
S'maximum'
p1071
S'JJ'
p1072
S'I-NP'
p1073
g5
tp1074
a(S'production'
p1075
S'production'
p1076
S'NN'
p1077
S'I-NP'
p1078
g5
tp1079
a(S'than'
p1080
S'than'
p1081
S'IN'
p1082
S'B-PP'
p1083
g5
tp1084
a(S'women'
p1085
S'woman'
p1086
S'NNS'
p1087
S'B-NP'
p1088
g5
tp1089
a(S'using'
p1090
S'use'
p1091
S'VBG'
p1092
S'B-VP'
p1093
g5
tp1094
a(S'HRT'
p1095
S'HRT'
p1096
S'NN'
p1097
S'B-NP'
p1098
S'B-protein'
p1099
tp1100
a(S';'
p1101
g1101
S':'
p1102
g5
g5
tp1103
a(S'after'
p1104
S'after'
p1105
S'IN'
p1106
S'B-PP'
p1107
g5
tp1108
a(S'supplementation'
p1109
S'supplementation'
p1110
S'NN'
p1111
S'B-NP'
p1112
g5
tp1113
a(S'with'
p1114
S'with'
p1115
S'IN'
p1116
S'B-PP'
p1117
g5
tp1118
a(S'fish'
p1119
S'fish'
p1120
S'NN'
p1121
S'B-NP'
p1122
g5
tp1123
a(S'oil'
p1124
S'oil'
p1125
S'NN'
p1126
S'I-NP'
p1127
g5
tp1128
a(S'and'
p1129
S'and'
p1130
S'CC'
p1131
S'I-NP'
p1132
g5
tp1133
a(S'alpha-tocopheryl'
p1134
S'alpha-tocopheryl'
p1135
S'NN'
p1136
S'I-NP'
p1137
g5
tp1138
a(S'acetate'
p1139
S'acetate'
p1140
S'NN'
p1141
S'I-NP'
p1142
g5
tp1143
a(S'these'
p1144
S'these'
p1145
S'DT'
p1146
S'B-NP'
p1147
g5
tp1148
a(S'differences'
p1149
S'difference'
p1150
S'NNS'
p1151
S'I-NP'
p1152
g5
tp1153
a(S'prevailed.'
p1154
S'prevailed.'
p1155
S'VBP'
p1156
S'B-VP'
p1157
g5
tp1158
a(S'Supplements'
p1159
S'Supplement'
p1160
S'NNS'
p1161
S'B-NP'
p1162
g5
tp1163
a(S'as'
p1164
S'as'
p1165
S'RB'
p1166
S'B-ADJP'
p1167
g5
tp1168
a(S'low'
p1169
S'low'
p1170
S'JJ'
p1171
S'I-ADJP'
p1172
g5
tp1173
a(S'as'
p1174
S'as'
p1175
S'IN'
p1176
S'B-PP'
p1177
g5
tp1178
a(S'100'
p1179
S'100'
p1180
S'CD'
p1181
S'B-NP'
p1182
g5
tp1183
a(S'mg'
p1184
S'mg'
p1185
S'NN'
p1186
S'I-NP'
p1187
g5
tp1188
a(S'alpha-tocopheryl'
p1189
S'alpha-tocopheryl'
p1190
S'NN'
p1191
S'I-NP'
p1192
g5
tp1193
a(S'acetate/d'
p1194
S'acetate/d'
p1195
S'NN'
p1196
S'I-NP'
p1197
g5
tp1198
a(S'increase'
p1199
S'increase'
p1200
S'VBP'
p1201
S'B-VP'
p1202
g5
tp1203
a(S'the'
p1204
S'the'
p1205
S'DT'
p1206
S'B-NP'
p1207
g5
tp1208
a(S'resistance'
p1209
S'resistance'
p1210
S'NN'
p1211
S'I-NP'
p1212
g5
tp1213
a(S'of'
p1214
S'of'
p1215
S'IN'
p1216
S'B-PP'
p1217
g5
tp1218
a(S'LDL'
p1219
S'LDL'
p1220
S'NN'
p1221
S'B-NP'
p1222
S'B-protein'
p1223
tp1224
a(S'to'
p1225
S'to'
p1226
S'TO'
p1227
S'B-PP'
p1228
g5
tp1229
a(S'oxidation'
p1230
S'oxidation'
p1231
S'NN'
p1232
S'B-NP'
p1233
g5
tp1234
a(S'when'
p1235
S'when'
p1236
S'WRB'
p1237
S'B-ADVP'
p1238
g5
tp1239
a(S'fish'
p1240
S'fish'
p1241
S'NN'
p1242
S'B-NP'
p1243
g5
tp1244
a(S'oil'
p1245
S'oil'
p1246
S'NN'
p1247
S'I-NP'
p1248
g5
tp1249
a(S'supplements'
p1250
S'supplement'
p1251
S'NNS'
p1252
S'I-NP'
p1253
g5
tp1254
a(S'are'
p1255
S'be'
p1256
S'VBP'
p1257
S'B-VP'
p1258
g5
tp1259
a(S'used.'
p1260
S'used.'
p1261
S'VBN'
p1262
S'I-VP'
p1263
g5
tp1264
a(S'HRT'
p1265
S'HRT'
p1266
S'NN'
p1267
S'B-NP'
p1268
g5
tp1269
a(S'and'
p1270
S'and'
p1271
S'CC'
p1272
S'I-NP'
p1273
g5
tp1274
a(S'fish'
p1275
S'fish'
p1276
S'NN'
p1277
S'I-NP'
p1278
g5
tp1279
a(S'oil'
p1280
S'oil'
p1281
S'NN'
p1282
S'I-NP'
p1283
g5
tp1284
a(S'supplements'
p1285
S'supplement'
p1286
S'NNS'
p1287
S'I-NP'
p1288
g5
tp1289
a(S'may'
p1290
S'may'
p1291
S'MD'
p1292
S'B-VP'
p1293
g5
tp1294
a(S'independently'
p1295
S'independently'
p1296
S'RB'
p1297
S'I-VP'
p1298
g5
tp1299
a(S'affect'
p1300
S'affect'
p1301
S'VB'
p1302
S'I-VP'
p1303
g5
tp1304
a(S'LDL'
p1305
S'LDL'
p1306
S'NN'
p1307
S'B-NP'
p1308
S'B-protein'
p1309
tp1310
a(S'oxidative'
p1311
S'oxidative'
p1312
S'JJ'
p1313
S'I-NP'
p1314
g5
tp1315
a(S'susceptibility'
p1316
S'susceptibility'
p1317
S'NN'
p1318
S'I-NP'
p1319
g5
tp1320
a(g103
g103
g103
g5
g5
tp1321
a.