(lp0
(S'Prognostic'
p1
S'Prognostic'
p2
S'JJ'
p3
S'B-NP'
p4
S'O'
p5
tp6
a(S'significance'
p7
S'significance'
p8
S'NN'
p9
S'I-NP'
p10
g5
tp11
a(S'of'
p12
S'of'
p13
S'IN'
p14
S'B-PP'
p15
g5
tp16
a(S'the'
p17
S'the'
p18
S'DT'
p19
S'B-NP'
p20
g5
tp21
a(S'dobutamine'
p22
S'dobutamine'
p23
S'NN'
p24
S'I-NP'
p25
g5
tp26
a(S'echocardiography'
p27
S'echocardiography'
p28
S'NN'
p29
S'I-NP'
p30
g5
tp31
a(S'test'
p32
S'test'
p33
S'NN'
p34
S'I-NP'
p35
g5
tp36
a(S'in'
p37
S'in'
p38
S'IN'
p39
S'B-PP'
p40
g5
tp41
a(S'idiopathic'
p42
S'idiopathic'
p43
S'JJ'
p44
S'B-NP'
p45
g5
tp46
a(S'dilated'
p47
S'dilated'
p48
S'JJ'
p49
S'I-NP'
p50
g5
tp51
a(S'cardiomyopathy'
p52
S'cardiomyopathy'
p53
S'NN'
p54
S'I-NP'
p55
g5
tp56
a(S'.'
p57
g57
g57
g5
g5
tp58
a(S'Dobutamine'
p59
S'Dobutamine'
p60
S'NN'
p61
S'B-NP'
p62
g5
tp63
a(S'stress'
p64
S'stress'
p65
S'NN'
p66
S'I-NP'
p67
g5
tp68
a(S'echo'
p69
S'echo'
p70
S'NN'
p71
S'I-NP'
p72
g5
tp73
a(S'provides'
p74
S'provide'
p75
S'VBZ'
p76
S'B-VP'
p77
g5
tp78
a(S'potentially'
p79
S'potentially'
p80
S'RB'
p81
S'B-NP'
p82
g5
tp83
a(S'useful'
p84
S'useful'
p85
S'JJ'
p86
S'I-NP'
p87
g5
tp88
a(S'information'
p89
S'information'
p90
S'NN'
p91
S'I-NP'
p92
g5
tp93
a(S'on'
p94
S'on'
p95
S'IN'
p96
S'B-PP'
p97
g5
tp98
a(S'idiopathic'
p99
S'idiopathic'
p100
S'JJ'
p101
S'B-NP'
p102
g5
tp103
a(S'dilated'
p104
S'dilated'
p105
S'JJ'
p106
S'I-NP'
p107
g5
tp108
a(S'cardiomyopathy'
p109
S'cardiomyopathy'
p110
S'NN'
p111
S'I-NP'
p112
g5
tp113
a(S'('
p114
g114
g114
g5
g5
tp115
a(S'IDC'
p116
S'IDC'
p117
S'NN'
p118
S'B-NP'
p119
g5
tp120
a(S')'
p121
g121
g121
g5
g5
tp122
a(g57
g57
g57
g5
g5
tp123
a(S'From'
p124
S'From'
p125
S'IN'
p126
S'B-PP'
p127
g5
tp128
a(S'February'
p129
S'February'
p130
S'NNP'
p131
S'B-NP'
p132
g5
tp133
a(S'1'
p134
g134
S'CD'
p135
S'I-NP'
p136
g5
tp137
a(S','
p138
g138
g138
S'I-NP'
p139
g5
tp140
a(S'1997'
p141
S'1997'
p142
S'CD'
p143
S'I-NP'
p144
g5
tp145
a(g138
g138
g138
g5
g5
tp146
a(S'to'
p147
S'to'
p148
S'TO'
p149
S'B-PP'
p150
g5
tp151
a(S'October'
p152
S'October'
p153
S'NNP'
p154
S'B-NP'
p155
S'B-protein'
p156
tp157
a(g134
g134
S'CD'
p158
S'I-NP'
p159
S'I-protein'
p160
tp161
a(g138
g138
g138
S'I-NP'
p162
g5
tp163
a(S'1999'
p164
S'1999'
p165
S'CD'
p166
S'I-NP'
p167
g5
tp168
a(g138
g138
g138
S'I-NP'
p169
g5
tp170
a(S'186'
p171
S'186'
p172
S'CD'
p173
S'I-NP'
p174
g5
tp175
a(S'patients'
p176
S'patient'
p177
S'NNS'
p178
S'I-NP'
p179
g5
tp180
a(g114
g114
g114
g5
g5
tp181
a(S'131'
p182
S'131'
p183
S'CD'
p184
S'B-NP'
p185
g5
tp186
a(S'men'
p187
S'man'
p188
S'NNS'
p189
S'I-NP'
p190
g5
tp191
a(S'and'
p192
S'and'
p193
S'CC'
p194
g5
g5
tp195
a(S'55'
p196
S'55'
p197
S'CD'
p198
S'B-NP'
p199
g5
tp200
a(S'women'
p201
S'woman'
p202
S'NNS'
p203
S'I-NP'
p204
g5
tp205
a(g138
g138
g138
g5
g5
tp206
a(S'mean'
p207
S'mean'
p208
S'JJ'
p209
S'B-NP'
p210
g5
tp211
a(S'age'
p212
S'age'
p213
S'NN'
p214
S'I-NP'
p215
g5
tp216
a(S'56'
p217
S'56'
p218
S'CD'
p219
S'B-NP'
p220
g5
tp221
a(S'+/-'
p222
S'+/-'
p223
S'CC'
p224
S'I-NP'
p225
g5
tp226
a(S'12'
p227
S'12'
p228
S'CD'
p229
S'I-NP'
p230
g5
tp231
a(S'years'
p232
S'year'
p233
S'NNS'
p234
S'I-NP'
p235
g5
tp236
a(g121
g121
g121
g5
g5
tp237
a(S'with'
p238
S'with'
p239
S'IN'
p240
S'B-PP'
p241
g5
tp242
a(S'IDC'
p243
S'IDC'
p244
S'NN'
p245
S'B-NP'
p246
g5
tp247
a(g138
g138
g138
g5
g5
tp248
a(S'ejection'
p249
S'ejection'
p250
S'NN'
p251
S'B-NP'
p252
g5
tp253
a(S'fraction'
p254
S'fraction'
p255
S'NN'
p256
S'I-NP'
p257
g5
tp258
a(S'<'
p259
g259
S'SYM'
p260
g5
g5
tp261
a(S'35'
p262
S'35'
p263
S'CD'
p264
S'B-NP'
p265
g5
tp266
a(S'%'
p267
g267
S'NN'
p268
S'I-NP'
p269
g5
tp270
a(g138
g138
g138
g5
g5
tp271
a(S'and'
p272
S'and'
p273
S'CC'
p274
g5
g5
tp275
a(S'angiographically'
p276
S'angiographically'
p277
S'RB'
p278
S'B-NP'
p279
g5
tp280
a(S'normal'
p281
S'normal'
p282
S'JJ'
p283
S'I-NP'
p284
g5
tp285
a(S'coronary'
p286
S'coronary'
p287
S'JJ'
p288
S'I-NP'
p289
g5
tp290
a(S'arteries'
p291
S'artery'
p292
S'NNS'
p293
S'I-NP'
p294
g5
tp295
a(S'were'
p296
S'be'
p297
S'VBD'
p298
S'B-VP'
p299
g5
tp300
a(S'studied'
p301
S'study'
p302
S'VBN'
p303
S'I-VP'
p304
g5
tp305
a(S'by'
p306
S'by'
p307
S'IN'
p308
S'B-PP'
p309
g5
tp310
a(S'high-dose'
p311
S'high-dose'
p312
S'JJ'
p313
g5
g5
tp314
a(g114
g114
g114
g5
g5
tp315
a(S'up'
p316
S'up'
p317
S'RB'
p318
S'B-NP'
p319
g5
tp320
a(S'to'
p321
S'to'
p322
S'TO'
p323
S'I-NP'
p324
g5
tp325
a(S'40'
p326
S'40'
p327
S'CD'
p328
S'I-NP'
p329
g5
tp330
a(S'micro/kg/min'
p331
S'micro/kg/min'
p332
S'NN'
p333
S'I-NP'
p334
g5
tp335
a(g121
g121
g121
g5
g5
tp336
a(S'dobutamine'
p337
S'dobutamine'
p338
S'NN'
p339
S'B-NP'
p340
g5
tp341
a(S'echo'
p342
S'echo'
p343
S'NN'
p344
S'I-NP'
p345
g5
tp346
a(S'in'
p347
S'in'
p348
S'IN'
p349
S'B-PP'
p350
g5
tp351
a(S'6'
p352
g352
S'CD'
p353
S'B-NP'
p354
g5
tp355
a(S'centers'
p356
S'center'
p357
S'NNS'
p358
S'I-NP'
p359
g5
tp360
a(g138
g138
g138
g5
g5
tp361
a(S'all'
p362
S'all'
p363
S'DT'
p364
S'B-NP'
p365
g5
tp366
a(S'quality'
p367
S'quality'
p368
S'NN'
p369
S'I-NP'
p370
g5
tp371
a(S'controlled'
p372
S'control'
p373
S'VBN'
p374
S'B-VP'
p375
g5
tp376
a(S'for'
p377
S'for'
p378
S'IN'
p379
S'B-PP'
p380
g5
tp381
a(S'stress'
p382
S'stress'
p383
S'NN'
p384
S'B-NP'
p385
g5
tp386
a(S'echo'
p387
S'echo'
p388
S'JJ'
p389
S'I-NP'
p390
g5
tp391
a(S'reading.'
p392
S'reading.'
p393
S'NN'
p394
S'I-NP'
p395
g5
tp396
a(S'In'
p397
S'In'
p398
S'IN'
p399
S'B-PP'
p400
g5
tp401
a(S'all'
p402
S'all'
p403
S'DT'
p404
S'B-NP'
p405
g5
tp406
a(S'patients'
p407
S'patient'
p408
S'NNS'
p409
S'I-NP'
p410
g5
tp411
a(g138
g138
g138
g5
g5
tp412
a(S'wall'
p413
S'wall'
p414
S'NN'
p415
S'B-NP'
p416
g5
tp417
a(S'motion'
p418
S'motion'
p419
S'NN'
p420
S'I-NP'
p421
g5
tp422
a(S'score'
p423
S'score'
p424
S'NN'
p425
S'I-NP'
p426
g5
tp427
a(S'index'
p428
S'index'
p429
S'NN'
p430
S'I-NP'
p431
g5
tp432
a(g114
g114
g114
g5
g5
tp433
a(S'WMSI'
p434
S'WMSI'
p435
S'NN'
p436
S'B-NP'
p437
g5
tp438
a(g121
g121
g121
g5
g5
tp439
a(g114
g114
g114
g5
g5
tp440
a(S'from'
p441
S'from'
p442
S'IN'
p443
S'B-PP'
p444
g5
tp445
a(g134
g134
S'CD'
p446
S'B-NP'
p447
g5
tp448
a(S'='
p449
g449
S'SYM'
p450
S'B-VP'
p451
g5
tp452
a(S'normal'
p453
S'normal'
p454
S'JJ'
p455
S'B-ADJP'
p456
g5
tp457
a(S'to'
p458
S'to'
p459
S'TO'
p460
S'B-PP'
p461
g5
tp462
a(S'4'
p463
g463
S'CD'
p464
S'B-NP'
p465
g5
tp466
a(g449
g449
S'SYM'
p467
S'B-VP'
p468
g5
tp469
a(S'dyskinetic'
p470
S'dyskinetic'
p471
S'JJ'
p472
S'B-ADJP'
p473
g5
tp474
a(S'in'
p475
S'in'
p476
S'IN'
p477
S'B-PP'
p478
g5
tp479
a(S'a'
p480
g480
S'DT'
p481
S'B-NP'
p482
g5
tp483
a(S'16-'
p484
S'16-'
p485
S'JJ'
p486
S'I-NP'
p487
g5
tp488
a(S'segment'
p489
S'segment'
p490
S'NN'
p491
S'I-NP'
p492
g5
tp493
a(S'model'
p494
S'model'
p495
S'NN'
p496
S'I-NP'
p497
g5
tp498
a(S'of'
p499
S'of'
p500
S'IN'
p501
S'B-PP'
p502
g5
tp503
a(S'the'
p504
S'the'
p505
S'DT'
p506
S'B-NP'
p507
g5
tp508
a(S'left'
p509
S'left'
p510
S'JJ'
p511
S'I-NP'
p512
g5
tp513
a(S'ventricle'
p514
S'ventricle'
p515
S'NN'
p516
S'I-NP'
p517
g5
tp518
a(g121
g121
g121
g5
g5
tp519
a(S'was'
p520
S'be'
p521
S'VBD'
p522
S'B-VP'
p523
g5
tp524
a(S'evaluated'
p525
S'evaluate'
p526
S'VBN'
p527
S'I-VP'
p528
g5
tp529
a(S'by'
p530
S'by'
p531
S'IN'
p532
S'B-PP'
p533
g5
tp534
a(S'echo'
p535
S'echo'
p536
S'NN'
p537
S'B-NP'
p538
g5
tp539
a(S'at'
p540
S'at'
p541
S'IN'
p542
S'B-PP'
p543
g5
tp544
a(S'baseline'
p545
S'baseline'
p546
S'NN'
p547
S'B-NP'
p548
g5
tp549
a(S'and'
p550
S'and'
p551
S'CC'
p552
S'I-NP'
p553
g5
tp554
a(S'peak'
p555
S'peak'
p556
S'NN'
p557
S'I-NP'
p558
g5
tp559
a(S'dobutamine.'
p560
S'dobutamine.'
p561
S'RB'
p562
S'B-NP'
p563
g5
tp564
a(S'One'
p565
S'One'
p566
S'CD'
p567
S'I-NP'
p568
g5
tp569
a(S'hundred'
p570
S'hundred'
p571
S'CD'
p572
S'I-NP'
p573
g5
tp574
a(S'eighty-four'
p575
S'eighty-four'
p576
S'CD'
p577
S'I-NP'
p578
g5
tp579
a(S'patients'
p580
S'patient'
p581
S'NNS'
p582
S'I-NP'
p583
g5
tp584
a(S'were'
p585
S'be'
p586
S'VBD'
p587
S'B-VP'
p588
g5
tp589
a(S'followed'
p590
S'follow'
p591
S'VBN'
p592
S'I-VP'
p593
g5
tp594
a(S'up'
p595
S'up'
p596
S'RP'
p597
S'B-PRT'
p598
g5
tp599
a(g114
g114
g114
g5
g5
tp600
a(S'mean'
p601
S'mean'
p602
S'NN'
p603
S'B-NP'
p604
g5
tp605
a(S'15'
p606
S'15'
p607
S'CD'
p608
S'I-NP'
p609
g5
tp610
a(S'+/-'
p611
S'+/-'
p612
S'SYM'
p613
S'I-NP'
p614
g5
tp615
a(S'13'
p616
S'13'
p617
S'CD'
p618
S'I-NP'
p619
g5
tp620
a(S'months'
p621
S'month'
p622
S'NNS'
p623
S'I-NP'
p624
g5
tp625
a(g121
g121
g121
g5
g5
tp626
a(S'and'
p627
S'and'
p628
S'CC'
p629
g5
g5
tp630
a(S'only'
p631
S'only'
p632
S'RB'
p633
S'B-NP'
p634
g5
tp635
a(S'cardiac'
p636
S'cardiac'
p637
S'JJ'
p638
S'I-NP'
p639
g5
tp640
a(S'death'
p641
S'death'
p642
S'NN'
p643
S'I-NP'
p644
g5
tp645
a(S'was'
p646
S'be'
p647
S'VBD'
p648
S'B-VP'
p649
g5
tp650
a(S'considered'
p651
S'consider'
p652
S'VBN'
p653
S'I-VP'
p654
g5
tp655
a(S'as'
p656
S'as'
p657
S'IN'
p658
S'B-PP'
p659
g5
tp660
a(S'an'
p661
S'an'
p662
S'DT'
p663
S'B-NP'
p664
g5
tp665
a(S'end'
p666
S'end'
p667
S'NN'
p668
S'I-NP'
p669
g5
tp670
a(S'point.'
p671
S'point.'
p672
S'NN'
p673
S'I-NP'
p674
g5
tp675
a(S'There'
p676
S'There'
p677
S'EX'
p678
S'B-NP'
p679
g5
tp680
a(S'were'
p681
S'be'
p682
S'VBD'
p683
S'B-VP'
p684
g5
tp685
a(S'29'
p686
S'29'
p687
S'CD'
p688
S'B-NP'
p689
g5
tp690
a(S'cardiac'
p691
S'cardiac'
p692
S'JJ'
p693
S'I-NP'
p694
g5
tp695
a(S'deaths.'
p696
S'deaths.'
p697
S'NN'
p698
S'I-NP'
p699
g5
tp700
a(S'Significant'
p701
S'Significant'
p702
S'JJ'
p703
S'I-NP'
p704
g5
tp705
a(S'parameters'
p706
S'parameter'
p707
S'NNS'
p708
S'I-NP'
p709
g5
tp710
a(S'for'
p711
S'for'
p712
S'IN'
p713
S'B-PP'
p714
g5
tp715
a(S'survival'
p716
S'survival'
p717
S'NN'
p718
S'B-NP'
p719
g5
tp720
a(S'prediction'
p721
S'prediction'
p722
S'NN'
p723
S'I-NP'
p724
g5
tp725
a(S'at'
p726
S'at'
p727
S'IN'
p728
S'B-PP'
p729
g5
tp730
a(S'univariate'
p731
S'univariate'
p732
S'JJ'
p733
S'B-NP'
p734
g5
tp735
a(S'analysis'
p736
S'analysis'
p737
S'NN'
p738
S'I-NP'
p739
g5
tp740
a(S'are'
p741
S'be'
p742
S'VBP'
p743
S'B-VP'
p744
g5
tp745
a(S':'
p746
g746
g746
g5
g5
tp747
a(S'DeltaWMSI'
p748
S'DeltaWMSI'
p749
S'NN'
p750
S'B-NP'
p751
g5
tp752
a(g114
g114
g114
g5
g5
tp753
a(S'chi-square'
p754
S'chi-square'
p755
S'NN'
p756
S'B-NP'
p757
g5
tp758
a(S'20.1'
p759
S'20.1'
p760
S'CD'
p761
S'I-NP'
p762
g5
tp763
a(S';'
p764
g764
g746
g5
g5
tp765
a(S'p'
p766
g766
S'NN'
p767
S'B-NP'
p768
g5
tp769
a(g259
g259
S'JJR'
p770
S'B-NP'
p771
g5
tp772
a(S'0.0000'
p773
S'0.0000'
p774
S'CD'
p775
S'I-NP'
p776
g5
tp777
a(g121
g121
g121
g5
g5
tp778
a(g138
g138
g138
g5
g5
tp779
a(S'New'
p780
S'New'
p781
S'NNP'
p782
S'B-NP'
p783
g5
tp784
a(S'York'
p785
S'York'
p786
S'NNP'
p787
S'I-NP'
p788
g5
tp789
a(S'Heart'
p790
S'Heart'
p791
S'NNP'
p792
S'I-NP'
p793
g5
tp794
a(S'Association'
p795
S'Association'
p796
S'NNP'
p797
S'I-NP'
p798
g5
tp799
a(g114
g114
g114
g5
g5
tp800
a(S'NYHA'
p801
S'NYHA'
p802
S'NNP'
p803
g5
g5
tp804
a(g121
g121
g121
g5
g5
tp805
a(S'class'
p806
S'class'
p807
S'NN'
p808
S'B-NP'
p809
g5
tp810
a(g114
g114
g114
g5
g5
tp811
a(S'chi-square'
p812
S'chi-square'
p813
S'NN'
p814
S'B-NP'
p815
g5
tp816
a(S'17.57'
p817
S'17.57'
p818
S'CD'
p819
S'I-NP'
p820
g5
tp821
a(g764
g764
g746
g5
g5
tp822
a(g766
g766
S'NN'
p823
S'B-NP'
p824
g5
tp825
a(g259
g259
S'JJR'
p826
S'B-NP'
p827
g5
tp828
a(S'0.0000'
p829
S'0.0000'
p830
S'CD'
p831
S'I-NP'
p832
g5
tp833
a(g121
g121
g121
g5
g5
tp834
a(g138
g138
g138
g5
g5
tp835
a(S'rest'
p836
S'rest'
p837
S'NN'
p838
S'B-NP'
p839
g5
tp840
a(S'ejection'
p841
S'ejection'
p842
S'NN'
p843
S'I-NP'
p844
g5
tp845
a(S'fraction'
p846
S'fraction'
p847
S'NN'
p848
S'I-NP'
p849
g5
tp850
a(g114
g114
g114
g5
g5
tp851
a(S'chi-square'
p852
S'chi-square'
p853
S'NN'
p854
S'B-NP'
p855
g5
tp856
a(S'10.41'
p857
S'10.41'
p858
S'CD'
p859
S'I-NP'
p860
g5
tp861
a(g764
g764
g746
g5
g5
tp862
a(g766
g766
S'NN'
p863
S'B-NP'
p864
g5
tp865
a(g449
g449
S'SYM'
p866
S'B-VP'
p867
g5
tp868
a(S'0.0013'
p869
S'0.0013'
p870
S'CD'
p871
S'B-NP'
p872
g5
tp873
a(g121
g121
g121
g5
g5
tp874
a(g138
g138
g138
g5
g5
tp875
a(S'angiotensin-converting'
p876
S'angiotensin-converting'
p877
S'JJ'
p878
S'B-NP'
p879
g5
tp880
a(S'enzyme'
p881
S'enzyme'
p882
S'NN'
p883
S'I-NP'
p884
g5
tp885
a(S'inhibitors'
p886
S'inhibitor'
p887
S'NNS'
p888
S'I-NP'
p889
g5
tp890
a(g114
g114
g114
g5
g5
tp891
a(S'chi-square'
p892
S'chi-square'
p893
S'NN'
p894
S'B-NP'
p895
g5
tp896
a(S'8.23'
p897
S'8.23'
p898
S'CD'
p899
S'I-NP'
p900
g5
tp901
a(g764
g764
g746
g5
g5
tp902
a(g766
g766
S'NN'
p903
S'B-NP'
p904
g5
tp905
a(g449
g449
S'SYM'
p906
S'B-VP'
p907
g5
tp908
a(S'0.0041'
p909
S'0.0041'
p910
S'CD'
p911
S'B-NP'
p912
g5
tp913
a(g121
g121
g121
g5
g5
tp914
a(g138
g138
g138
g5
g5
tp915
a(S'and'
p916
S'and'
p917
S'CC'
p918
g5
g5
tp919
a(S'hypertension'
p920
S'hypertension'
p921
S'NN'
p922
S'B-NP'
p923
g5
tp924
a(g114
g114
g114
g5
g5
tp925
a(S'chi-square'
p926
S'chi-square'
p927
S'NN'
p928
S'B-NP'
p929
g5
tp930
a(S'8.08'
p931
S'8.08'
p932
S'CD'
p933
S'I-NP'
p934
g5
tp935
a(g138
g138
g138
g5
g5
tp936
a(g766
g766
S'NN'
p937
S'B-NP'
p938
g5
tp939
a(g449
g449
S'SYM'
p940
S'B-VP'
p941
g5
tp942
a(S'0.0045'
p943
S'0.0045'
p944
S'CD'
p945
S'B-NP'
p946
g5
tp947
a(g121
g121
g121
g5
g5
tp948
a(g57
g57
g57
g5
g5
tp949
a(S'In'
p950
S'In'
p951
S'IN'
p952
S'B-PP'
p953
g5
tp954
a(S'the'
p955
S'the'
p956
S'DT'
p957
S'B-NP'
p958
g5
tp959
a(S'multivariate'
p960
S'multivariate'
p961
S'JJ'
p962
S'I-NP'
p963
g5
tp964
a(S'stepwise'
p965
S'stepwise'
p966
S'JJ'
p967
S'I-NP'
p968
g5
tp969
a(S'analysis'
p970
S'analysis'
p971
S'NN'
p972
S'I-NP'
p973
g5
tp974
a(S'only'
p975
S'only'
p976
S'RB'
p977
S'B-NP'
p978
g5
tp979
a(S'DeltaWMSI'
p980
S'DeltaWMSI'
p981
S'NNP'
p982
S'I-NP'
p983
g5
tp984
a(S'and'
p985
S'and'
p986
S'CC'
p987
S'I-NP'
p988
g5
tp989
a(S'NYHA'
p990
S'NYHA'
p991
S'NNP'
p992
S'I-NP'
p993
g5
tp994
a(S'were'
p995
S'be'
p996
S'VBD'
p997
S'B-VP'
p998
g5
tp999
a(S'independent'
p1000
S'independent'
p1001
S'JJ'
p1002
S'B-NP'
p1003
g5
tp1004
a(S'predictors'
p1005
S'predictor'
p1006
S'NNS'
p1007
S'I-NP'
p1008
g5
tp1009
a(S'of'
p1010
S'of'
p1011
S'IN'
p1012
S'B-PP'
p1013
g5
tp1014
a(S'outcome'
p1015
S'outcome'
p1016
S'NN'
p1017
S'B-NP'
p1018
g5
tp1019
a(g114
g114
g114
g5
g5
tp1020
a(S'DeltaWMSI'
p1021
S'DeltaWMSI'
p1022
S'NN'
p1023
S'B-NP'
p1024
g5
tp1025
a(g449
g449
S'SYM'
p1026
S'B-VP'
p1027
g5
tp1028
a(S'hazard'
p1029
S'hazard'
p1030
S'NN'
p1031
S'B-NP'
p1032
g5
tp1033
a(S'ratio'
p1034
S'ratio'
p1035
S'NN'
p1036
S'I-NP'
p1037
g5
tp1038
a(S'0.02'
p1039
S'0.02'
p1040
S'CD'
p1041
S'I-NP'
p1042
g5
tp1043
a(g138
g138
g138
g5
g5
tp1044
a(g766
g766
S'NN'
p1045
S'B-NP'
p1046
g5
tp1047
a(g259
g259
S'SYM'
p1048
g5
g5
tp1049
a(S'0.0000'
p1050
S'0.0000'
p1051
S'CD'
p1052
S'B-NP'
p1053
g5
tp1054
a(g764
g764
g746
g5
g5
tp1055
a(S'NYHA'
p1056
S'NYHA'
p1057
S'NN'
p1058
S'B-NP'
p1059
g5
tp1060
a(S'class'
p1061
S'class'
p1062
S'NN'
p1063
S'I-NP'
p1064
g5
tp1065
a(g449
g449
S'SYM'
p1066
S'B-VP'
p1067
g5
tp1068
a(S'hazard'
p1069
S'hazard'
p1070
S'NN'
p1071
S'B-NP'
p1072
g5
tp1073
a(S'ratio'
p1074
S'ratio'
p1075
S'NN'
p1076
S'I-NP'
p1077
g5
tp1078
a(S'3.83'
p1079
S'3.83'
p1080
S'CD'
p1081
S'I-NP'
p1082
g5
tp1083
a(g138
g138
g138
g5
g5
tp1084
a(g766
g766
S'NN'
p1085
S'B-NP'
p1086
g5
tp1087
a(g259
g259
S'SYM'
p1088
S'B-NP'
p1089
g5
tp1090
a(S'0.0000'
p1091
S'0.0000'
p1092
S'CD'
p1093
S'I-NP'
p1094
g5
tp1095
a(g121
g121
g121
g5
g5
tp1096
a(g57
g57
g57
g5
g5
tp1097
a(S'Kaplan-Meier'
p1098
S'Kaplan-Mei'
p1099
S'JJR'
p1100
S'B-NP'
p1101
g5
tp1102
a(S'survival'
p1103
S'survival'
p1104
S'NN'
p1105
S'I-NP'
p1106
g5
tp1107
a(S'estimates'
p1108
S'estimate'
p1109
S'NNS'
p1110
S'I-NP'
p1111
g5
tp1112
a(S'showed'
p1113
S'show'
p1114
S'VBD'
p1115
S'B-VP'
p1116
g5
tp1117
a(g480
g480
S'DT'
p1118
S'B-NP'
p1119
g5
tp1120
a(S'better'
p1121
S'good'
p1122
S'JJR'
p1123
S'I-NP'
p1124
g5
tp1125
a(S'outcome'
p1126
S'outcome'
p1127
S'NN'
p1128
S'I-NP'
p1129
g5
tp1130
a(S'for'
p1131
S'for'
p1132
S'IN'
p1133
S'B-PP'
p1134
g5
tp1135
a(S'patients'
p1136
S'patient'
p1137
S'NNS'
p1138
S'B-NP'
p1139
g5
tp1140
a(S'with'
p1141
S'with'
p1142
S'IN'
p1143
S'B-PP'
p1144
g5
tp1145
a(g480
g480
S'DT'
p1146
S'B-NP'
p1147
g5
tp1148
a(S'large'
p1149
S'large'
p1150
S'JJ'
p1151
S'I-NP'
p1152
g5
tp1153
a(S'inotropic'
p1154
S'inotropic'
p1155
S'JJ'
p1156
S'I-NP'
p1157
g5
tp1158
a(S'response'
p1159
S'response'
p1160
S'NN'
p1161
S'I-NP'
p1162
g5
tp1163
a(g114
g114
g114
g5
g5
tp1164
a(S'DeltaWMSI'
p1165
S'DeltaWMSI'
p1166
S'NN'
p1167
S'B-NP'
p1168
g5
tp1169
a(S'>'
p1170
g1170
S'SYM'
p1171
S'B-VP'
p1172
g5
tp1173
a(S'or'
p1174
S'or'
p1175
S'CC'
p1176
g5
g5
tp1177
a(S'=0.44'
p1178
S'=0.44'
p1179
S'CD'
p1180
S'B-NP'
p1181
g5
tp1182
a(g138
g138
g138
g5
g5
tp1183
a(g480
g480
S'DT'
p1184
S'B-NP'
p1185
g5
tp1186
a(S'cutoff'
p1187
S'cutoff'
p1188
S'NN'
p1189
S'I-NP'
p1190
g5
tp1191
a(S'identified'
p1192
S'identify'
p1193
S'VBN'
p1194
S'B-VP'
p1195
g5
tp1196
a(S'by'
p1197
S'by'
p1198
S'IN'
p1199
S'B-PP'
p1200
g5
tp1201
a(S'receiver-operating'
p1202
S'receiver-operate'
p1203
S'VBG'
p1204
S'B-VP'
p1205
g5
tp1206
a(S'characteristic'
p1207
S'characteristic'
p1208
S'JJ'
p1209
S'B-NP'
p1210
g5
tp1211
a(S'curves'
p1212
S'curve'
p1213
S'NNS'
p1214
S'I-NP'
p1215
g5
tp1216
a(S'analysis'
p1217
S'analysis'
p1218
S'NN'
p1219
S'I-NP'
p1220
g5
tp1221
a(g121
g121
g121
g5
g5
tp1222
a(S'than'
p1223
S'than'
p1224
S'IN'
p1225
S'B-PP'
p1226
g5
tp1227
a(S'for'
p1228
S'for'
p1229
S'IN'
p1230
S'B-PP'
p1231
g5
tp1232
a(S'those'
p1233
S'those'
p1234
S'DT'
p1235
S'B-NP'
p1236
g5
tp1237
a(S'with'
p1238
S'with'
p1239
S'IN'
p1240
S'B-PP'
p1241
g5
tp1242
a(g480
g480
S'DT'
p1243
S'B-NP'
p1244
g5
tp1245
a(S'small'
p1246
S'small'
p1247
S'JJ'
p1248
S'I-NP'
p1249
g5
tp1250
a(S'or'
p1251
S'or'
p1252
S'CC'
p1253
S'I-NP'
p1254
g5
tp1255
a(S'no'
p1256
S'no'
p1257
S'DT'
p1258
S'I-NP'
p1259
g5
tp1260
a(S'myocardial'
p1261
S'myocardial'
p1262
S'JJ'
p1263
S'I-NP'
p1264
g5
tp1265
a(S'inotropic'
p1266
S'inotropic'
p1267
S'JJ'
p1268
S'I-NP'
p1269
g5
tp1270
a(S'response'
p1271
S'response'
p1272
S'NN'
p1273
S'I-NP'
p1274
g5
tp1275
a(S'to'
p1276
S'to'
p1277
S'TO'
p1278
S'B-PP'
p1279
g5
tp1280
a(S'dobutamine'
p1281
S'dobutamine'
p1282
S'NN'
p1283
S'B-NP'
p1284
g5
tp1285
a(g114
g114
g114
g5
g5
tp1286
a(S'93.6'
p1287
S'93.6'
p1288
S'CD'
p1289
S'B-NP'
p1290
g5
tp1291
a(g267
g267
S'NN'
p1292
S'I-NP'
p1293
g5
tp1294
a(S'vs'
p1295
S'vs'
p1296
S'IN'
p1297
S'B-PP'
p1298
g5
tp1299
a(S'69.4'
p1300
S'69.4'
p1301
S'CD'
p1302
S'B-NP'
p1303
g5
tp1304
a(g267
g267
S'NN'
p1305
S'I-NP'
p1306
g5
tp1307
a(g138
g138
g138
g5
g5
tp1308
a(g766
g766
S'NN'
p1309
S'B-NP'
p1310
g5
tp1311
a(g449
g449
S'SYM'
p1312
S'B-VP'
p1313
g5
tp1314
a(S'0.00033'
p1315
S'0.00033'
p1316
S'CD'
p1317
S'B-NP'
p1318
g5
tp1319
a(g121
g121
g121
g5
g5
tp1320
a(g57
g57
g57
g5
g5
tp1321
a(S'Thus'
p1322
S'Thus'
p1323
S'RB'
p1324
g5
g5
tp1325
a(g138
g138
g138
g5
g5
tp1326
a(S'in'
p1327
S'in'
p1328
S'IN'
p1329
S'B-PP'
p1330
g5
tp1331
a(S'patients'
p1332
S'patient'
p1333
S'NNS'
p1334
S'B-NP'
p1335
g5
tp1336
a(S'with'
p1337
S'with'
p1338
S'IN'
p1339
S'B-PP'
p1340
g5
tp1341
a(S'IDC'
p1342
S'IDC'
p1343
S'NN'
p1344
S'B-NP'
p1345
g5
tp1346
a(g138
g138
g138
g5
g5
tp1347
a(S'an'
p1348
S'an'
p1349
S'DT'
p1350
S'B-NP'
p1351
g5
tp1352
a(S'extensive'
p1353
S'extensive'
p1354
S'JJ'
p1355
S'I-NP'
p1356
g5
tp1357
a(S'contractile'
p1358
S'contractile'
p1359
S'JJ'
p1360
S'I-NP'
p1361
g5
tp1362
a(S'reserve'
p1363
S'reserve'
p1364
S'NN'
p1365
S'I-NP'
p1366
g5
tp1367
a(S'identified'
p1368
S'identify'
p1369
S'VBN'
p1370
S'B-VP'
p1371
g5
tp1372
a(S'by'
p1373
S'by'
p1374
S'IN'
p1375
S'B-PP'
p1376
g5
tp1377
a(S'high-dose'
p1378
S'high-dose'
p1379
S'JJ'
p1380
S'B-NP'
p1381
g5
tp1382
a(S'dobutamine'
p1383
S'dobutamine'
p1384
S'NN'
p1385
S'I-NP'
p1386
g5
tp1387
a(S'stress'
p1388
S'stress'
p1389
S'NN'
p1390
S'I-NP'
p1391
g5
tp1392
a(S'echocardiography'
p1393
S'echocardiography'
p1394
S'NN'
p1395
S'I-NP'
p1396
g5
tp1397
a(S'is'
p1398
S'be'
p1399
S'VBZ'
p1400
S'B-VP'
p1401
g5
tp1402
a(S'associated'
p1403
S'associate'
p1404
S'VBN'
p1405
S'I-VP'
p1406
g5
tp1407
a(S'with'
p1408
S'with'
p1409
S'IN'
p1410
S'B-PP'
p1411
g5
tp1412
a(g480
g480
S'DT'
p1413
S'B-NP'
p1414
g5
tp1415
a(S'better'
p1416
S'good'
p1417
S'JJR'
p1418
S'I-NP'
p1419
g5
tp1420
a(S'survival'
p1421
S'survival'
p1422
S'NN'
p1423
S'I-NP'
p1424
g5
tp1425
a(g57
g57
g57
g5
g5
tp1426
a.