(lp0
(S'Can'
p1
S'Can'
p2
S'MD'
p3
S'O'
p4
g4
tp5
a(S'analysis'
p6
S'analysis'
p7
S'NN'
p8
S'B-NP'
p9
g4
tp10
a(S'of'
p11
S'of'
p12
S'IN'
p13
S'B-PP'
p14
g4
tp15
a(S'the'
p16
S'the'
p17
S'DT'
p18
S'B-NP'
p19
g4
tp20
a(S'bispectral'
p21
S'bispectral'
p22
S'JJ'
p23
S'I-NP'
p24
g4
tp25
a(S'index'
p26
S'index'
p27
S'NN'
p28
S'I-NP'
p29
g4
tp30
a(S'prove'
p31
S'prove'
p32
S'VBP'
p33
S'B-VP'
p34
g4
tp35
a(S'helpful'
p36
S'helpful'
p37
S'JJ'
p38
S'B-ADJP'
p39
g4
tp40
a(S'when'
p41
S'when'
p42
S'WRB'
p43
S'B-ADVP'
p44
g4
tp45
a(S'monitoring'
p46
S'monitor'
p47
S'VBG'
p48
S'B-VP'
p49
g4
tp50
a(S'titration'
p51
S'titration'
p52
S'NN'
p53
S'B-NP'
p54
g4
tp55
a(S'of'
p56
S'of'
p57
S'IN'
p58
S'B-PP'
p59
g4
tp60
a(S'doses'
p61
S'dose'
p62
S'NNS'
p63
S'B-NP'
p64
g4
tp65
a(S'of'
p66
S'of'
p67
S'IN'
p68
S'B-PP'
p69
g4
tp70
a(S'midazolam'
p71
S'midazolam'
p72
S'NN'
p73
S'B-NP'
p74
g4
tp75
a(S'and'
p76
S'and'
p77
S'CC'
p78
S'I-NP'
p79
g4
tp80
a(S'ketamine'
p81
S'ketamine'
p82
S'NN'
p83
S'I-NP'
p84
g4
tp85
a(S'for'
p86
S'for'
p87
S'IN'
p88
S'B-PP'
p89
g4
tp90
a(S'sedation'
p91
S'sedation'
p92
S'NN'
p93
S'B-NP'
p94
g4
tp95
a(S'during'
p96
S'during'
p97
S'IN'
p98
S'B-PP'
p99
g4
tp100
a(S'paediatric'
p101
S'paediatric'
p102
S'JJ'
p103
S'B-NP'
p104
g4
tp105
a(S'cardiac'
p106
S'cardiac'
p107
S'JJ'
p108
S'I-NP'
p109
g4
tp110
a(S'catheterization'
p111
S'catheterization'
p112
S'NN'
p113
S'I-NP'
p114
g4
tp115
a(S'.'
p116
g116
g116
g4
g4
tp117
a(S'OBJECTIVE'
p118
S'OBJECTIVE'
p119
S'NN'
p120
S'B-NP'
p121
g4
tp122
a(S'We'
p123
S'We'
p124
S'PRP'
p125
S'B-NP'
p126
g4
tp127
a(S'investigated'
p128
S'investigate'
p129
S'VBD'
p130
S'B-VP'
p131
g4
tp132
a(S'the'
p133
S'the'
p134
S'DT'
p135
S'B-NP'
p136
g4
tp137
a(S'use'
p138
S'use'
p139
S'NN'
p140
S'I-NP'
p141
g4
tp142
a(S'of'
p143
S'of'
p144
S'IN'
p145
S'B-PP'
p146
g4
tp147
a(S'the'
p148
S'the'
p149
S'DT'
p150
S'B-NP'
p151
g4
tp152
a(S'bispectral'
p153
S'bispectral'
p154
S'JJ'
p155
S'I-NP'
p156
g4
tp157
a(S'index'
p158
S'index'
p159
S'NN'
p160
S'I-NP'
p161
g4
tp162
a(S'for'
p163
S'for'
p164
S'IN'
p165
S'B-PP'
p166
g4
tp167
a(S'monitoring'
p168
S'monitor'
p169
S'VBG'
p170
S'B-VP'
p171
g4
tp172
a(S'sedation'
p173
S'sedation'
p174
S'NN'
p175
S'B-NP'
p176
g4
tp177
a(S'during'
p178
S'during'
p179
S'IN'
p180
S'B-PP'
p181
g4
tp182
a(S'cardiac'
p183
S'cardiac'
p184
S'JJ'
p185
S'B-NP'
p186
g4
tp187
a(S'catheterization.'
p188
S'catheterization.'
p189
S'NN'
p190
S'I-NP'
p191
g4
tp192
a(S'The'
p193
S'The'
p194
S'DT'
p195
S'B-NP'
p196
g4
tp197
a(S'scores'
p198
S'score'
p199
S'NNS'
p200
S'I-NP'
p201
g4
tp202
a(S'for'
p203
S'for'
p204
S'IN'
p205
S'B-PP'
p206
g4
tp207
a(S'the'
p208
S'the'
p209
S'DT'
p210
S'B-NP'
p211
g4
tp212
a(S'bispectral'
p213
S'bispectral'
p214
S'JJ'
p215
S'I-NP'
p216
g4
tp217
a(S'index'
p218
S'index'
p219
S'NN'
p220
S'I-NP'
p221
g4
tp222
a(S'may'
p223
S'may'
p224
S'MD'
p225
S'B-VP'
p226
g4
tp227
a(S'not'
p228
S'not'
p229
S'RB'
p230
S'I-VP'
p231
g4
tp232
a(S'reflect'
p233
S'reflect'
p234
S'VB'
p235
S'I-VP'
p236
g4
tp237
a(S'correct'
p238
S'correct'
p239
S'JJ'
p240
S'B-NP'
p241
g4
tp242
a(S'values'
p243
S'value'
p244
S'NNS'
p245
S'I-NP'
p246
g4
tp247
a(S'in'
p248
S'in'
p249
S'IN'
p250
S'B-PP'
p251
g4
tp252
a(S'children'
p253
S'child'
p254
S'NNS'
p255
S'B-NP'
p256
g4
tp257
a(S','
p258
g258
g258
g4
g4
tp259
a(S'but'
p260
S'but'
p261
S'CC'
p262
g4
g4
tp263
a(S'may'
p264
S'may'
p265
S'MD'
p266
S'B-VP'
p267
g4
tp268
a(S'be'
p269
S'be'
p270
S'VB'
p271
S'I-VP'
p272
g4
tp273
a(S'helpful'
p274
S'helpful'
p275
S'JJ'
p276
S'B-ADJP'
p277
g4
tp278
a(S'during'
p279
S'during'
p280
S'IN'
p281
S'B-PP'
p282
g4
tp283
a(S'titration'
p284
S'titration'
p285
S'NN'
p286
S'B-NP'
p287
g4
tp288
a(S'of'
p289
S'of'
p290
S'IN'
p291
S'B-PP'
p292
g4
tp293
a(S'sedatives'
p294
S'sedative'
p295
S'NNS'
p296
S'B-NP'
p297
g4
tp298
a(S'such'
p299
S'such'
p300
S'JJ'
p301
S'B-PP'
p302
g4
tp303
a(S'as'
p304
S'as'
p305
S'IN'
p306
S'I-PP'
p307
g4
tp308
a(S'midazolam'
p309
S'midazolam'
p310
S'NN'
p311
S'B-NP'
p312
g4
tp313
a(S'and'
p314
S'and'
p315
S'CC'
p316
S'I-NP'
p317
g4
tp318
a(S'ketamine'
p319
S'ketamine'
p320
S'NN'
p321
S'I-NP'
p322
g4
tp323
a(g116
g116
g116
g4
g4
tp324
a(S'METHODS'
p325
S'METHODS'
p326
S'NNS'
p327
S'B-NP'
p328
g4
tp329
a(S'We'
p330
S'We'
p331
S'PRP'
p332
S'B-NP'
p333
g4
tp334
a(S'conducted'
p335
S'conduct'
p336
S'VBD'
p337
S'B-VP'
p338
g4
tp339
a(S'a'
p340
g340
S'DT'
p341
S'B-NP'
p342
g4
tp343
a(S'prospective'
p344
S'prospective'
p345
S'JJ'
p346
S'I-NP'
p347
g4
tp348
a(S'randomized'
p349
S'randomize'
p350
S'VBN'
p351
S'I-NP'
p352
g4
tp353
a(S'clinical'
p354
S'clinical'
p355
S'JJ'
p356
S'I-NP'
p357
g4
tp358
a(S'trial'
p359
S'trial'
p360
S'NN'
p361
S'I-NP'
p362
g4
tp363
a(S'in'
p364
S'in'
p365
S'IN'
p366
S'B-PP'
p367
g4
tp368
a(S'126'
p369
S'126'
p370
S'CD'
p371
S'B-NP'
p372
g4
tp373
a(S'patients'
p374
S'patient'
p375
S'NNS'
p376
S'I-NP'
p377
g4
tp378
a(S'scheduled'
p379
S'schedule'
p380
S'VBN'
p381
S'B-VP'
p382
g4
tp383
a(S'for'
p384
S'for'
p385
S'IN'
p386
S'B-PP'
p387
g4
tp388
a(S'cardiac'
p389
S'cardiac'
p390
S'JJ'
p391
S'B-NP'
p392
g4
tp393
a(S'catheterization'
p394
S'catheterization'
p395
S'NN'
p396
S'I-NP'
p397
g4
tp398
a(S'in'
p399
S'in'
p400
S'IN'
p401
S'B-PP'
p402
g4
tp403
a(g340
g340
S'DT'
p404
S'B-NP'
p405
g4
tp406
a(S'teaching'
p407
S'teaching'
p408
S'NN'
p409
S'I-NP'
p410
g4
tp411
a(S'hospital.'
p412
S'hospital.'
p413
S'NN'
p414
S'I-NP'
p415
g4
tp416
a(S'They'
p417
S'They'
p418
S'PRP'
p419
S'B-NP'
p420
g4
tp421
a(S'ranged'
p422
S'range'
p423
S'VBD'
p424
S'B-VP'
p425
g4
tp426
a(S'in'
p427
S'in'
p428
S'IN'
p429
S'B-PP'
p430
g4
tp431
a(S'age'
p432
S'age'
p433
S'NN'
p434
S'B-NP'
p435
g4
tp436
a(S'from'
p437
S'from'
p438
S'IN'
p439
S'B-PP'
p440
g4
tp441
a(S'4'
p442
g442
S'CD'
p443
S'B-NP'
p444
g4
tp445
a(S'months'
p446
S'month'
p447
S'NNS'
p448
S'I-NP'
p449
g4
tp450
a(S'to'
p451
S'to'
p452
S'TO'
p453
S'B-PP'
p454
g4
tp455
a(S'15'
p456
S'15'
p457
S'CD'
p458
S'B-NP'
p459
g4
tp460
a(S'years.'
p461
S'years.'
p462
S'NN'
p463
S'I-NP'
p464
g4
tp465
a(S'In'
p466
S'In'
p467
S'IN'
p468
S'B-PP'
p469
g4
tp470
a(S'66'
p471
S'66'
p472
S'CD'
p473
S'B-NP'
p474
g4
tp475
a(S'patients'
p476
S'patient'
p477
S'NNS'
p478
S'I-NP'
p479
g4
tp480
a(g258
g258
g258
g4
g4
tp481
a(S'sedation'
p482
S'sedation'
p483
S'NN'
p484
S'B-NP'
p485
g4
tp486
a(S'was'
p487
S'be'
p488
S'VBD'
p489
S'B-VP'
p490
g4
tp491
a(S'performed'
p492
S'perform'
p493
S'VBN'
p494
S'I-VP'
p495
g4
tp496
a(S'without'
p497
S'without'
p498
S'IN'
p499
S'B-PP'
p500
g4
tp501
a(S'use'
p502
S'use'
p503
S'NN'
p504
S'B-NP'
p505
g4
tp506
a(S'of'
p507
S'of'
p508
S'IN'
p509
S'B-PP'
p510
g4
tp511
a(S'the'
p512
S'the'
p513
S'DT'
p514
S'B-NP'
p515
g4
tp516
a(S'bispectral'
p517
S'bispectral'
p518
S'JJ'
p519
S'I-NP'
p520
g4
tp521
a(S'index'
p522
S'index'
p523
S'NN'
p524
S'I-NP'
p525
g4
tp526
a(g258
g258
g258
g4
g4
tp527
a(S'while'
p528
S'while'
p529
S'IN'
p530
S'B-SBAR'
p531
g4
tp532
a(S'the'
p533
S'the'
p534
S'DT'
p535
S'B-NP'
p536
g4
tp537
a(S'index'
p538
S'index'
p539
S'NN'
p540
S'I-NP'
p541
g4
tp542
a(S'was'
p543
S'be'
p544
S'VBD'
p545
S'B-VP'
p546
g4
tp547
a(S'used'
p548
S'use'
p549
S'VBN'
p550
S'I-VP'
p551
g4
tp552
a(S'in'
p553
S'in'
p554
S'IN'
p555
S'B-PP'
p556
g4
tp557
a(S'the'
p558
S'the'
p559
S'DT'
p560
S'B-NP'
p561
g4
tp562
a(S'other'
p563
S'other'
p564
S'JJ'
p565
S'I-NP'
p566
g4
tp567
a(S'60'
p568
S'60'
p569
S'CD'
p570
S'I-NP'
p571
g4
tp572
a(S'patients.'
p573
S'patients.'
p574
S'NNS'
p575
S'I-NP'
p576
g4
tp577
a(S'The'
p578
S'The'
p579
S'DT'
p580
S'B-NP'
p581
g4
tp582
a(S'data'
p583
S'datum'
p584
S'NNS'
p585
S'I-NP'
p586
g4
tp587
a(S'collected'
p588
S'collect'
p589
S'VBN'
p590
S'B-VP'
p591
g4
tp592
a(S'included'
p593
S'include'
p594
S'VBD'
p595
S'B-VP'
p596
g4
tp597
a(S'heart'
p598
S'heart'
p599
S'NN'
p600
S'B-NP'
p601
g4
tp602
a(S'rate'
p603
S'rate'
p604
S'NN'
p605
S'I-NP'
p606
g4
tp607
a(g258
g258
g258
g4
g4
tp608
a(S'mean'
p609
S'mean'
p610
S'JJ'
p611
S'B-NP'
p612
g4
tp613
a(S'arterial'
p614
S'arterial'
p615
S'JJ'
p616
S'I-NP'
p617
g4
tp618
a(S'pressure'
p619
S'pressure'
p620
S'NN'
p621
S'I-NP'
p622
g4
tp623
a(g258
g258
g258
g4
g4
tp624
a(S'respiratory'
p625
S'respiratory'
p626
S'JJ'
p627
S'B-NP'
p628
g4
tp629
a(S'rate'
p630
S'rate'
p631
S'NN'
p632
S'I-NP'
p633
g4
tp634
a(g258
g258
g258
g4
g4
tp635
a(S'saturation'
p636
S'saturation'
p637
S'NN'
p638
S'B-NP'
p639
g4
tp640
a(S'of'
p641
S'of'
p642
S'IN'
p643
S'B-PP'
p644
g4
tp645
a(S'oxygen'
p646
S'oxygen'
p647
S'NN'
p648
S'B-NP'
p649
g4
tp650
a(g258
g258
g258
g4
g4
tp651
a(S'amount'
p652
S'amount'
p653
S'NN'
p654
S'B-NP'
p655
g4
tp656
a(S'of'
p657
S'of'
p658
S'IN'
p659
S'B-PP'
p660
g4
tp661
a(S'sedatives'
p662
S'sedative'
p663
S'NNS'
p664
S'B-NP'
p665
g4
tp666
a(g258
g258
g258
g4
g4
tp667
a(S'awakening'
p668
S'awaken'
p669
S'VBG'
p670
S'B-VP'
p671
g4
tp672
a(S'time'
p673
S'time'
p674
S'NN'
p675
S'B-NP'
p676
g4
tp677
a(S'and'
p678
S'and'
p679
S'CC'
p680
g4
g4
tp681
a(S'adverse'
p682
S'adverse'
p683
S'JJ'
p684
S'B-NP'
p685
g4
tp686
a(S'effects.'
p687
S'effects.'
p688
S'NNS'
p689
S'I-NP'
p690
g4
tp691
a(S'We'
p692
S'We'
p693
S'PRP'
p694
S'B-NP'
p695
g4
tp696
a(S'subdivided'
p697
S'subdivide'
p698
S'VBD'
p699
S'B-VP'
p700
g4
tp701
a(S'the'
p702
S'the'
p703
S'DT'
p704
S'B-NP'
p705
g4
tp706
a(S'patients'
p707
S'patient'
p708
S'NNS'
p709
S'I-NP'
p710
g4
tp711
a(S'into'
p712
S'into'
p713
S'IN'
p714
S'B-PP'
p715
g4
tp716
a(S'age-related'
p717
S'age-related'
p718
S'JJ'
p719
S'B-NP'
p720
g4
tp721
a(S'groups'
p722
S'group'
p723
S'NNS'
p724
S'I-NP'
p725
g4
tp726
a(S'for'
p727
S'for'
p728
S'IN'
p729
S'B-PP'
p730
g4
tp731
a(S'each'
p732
S'each'
p733
S'DT'
p734
S'B-NP'
p735
g4
tp736
a(S'parameter'
p737
S'parameter'
p738
S'NN'
p739
S'I-NP'
p740
g4
tp741
a(g116
g116
g116
g4
g4
tp742
a(S'RESULTS'
p743
S'RESULTS'
p744
S'NNS'
p745
S'B-NP'
p746
g4
tp747
a(S'The'
p748
S'The'
p749
S'DT'
p750
S'B-NP'
p751
g4
tp752
a(S'demographic'
p753
S'demographic'
p754
S'JJ'
p755
S'I-NP'
p756
g4
tp757
a(S'data'
p758
S'datum'
p759
S'NNS'
p760
S'I-NP'
p761
g4
tp762
a(S'were'
p763
S'be'
p764
S'VBD'
p765
S'B-VP'
p766
g4
tp767
a(S'not'
p768
S'not'
p769
S'RB'
p770
S'I-VP'
p771
g4
tp772
a(S'statistically'
p773
S'statistically'
p774
S'RB'
p775
S'I-VP'
p776
g4
tp777
a(S'different.'
p778
S'different.'
p779
S'VB'
p780
S'I-VP'
p781
g4
tp782
a(S'Monitoring'
p783
S'Monitor'
p784
S'VBG'
p785
S'I-VP'
p786
g4
tp787
a(S'with'
p788
S'with'
p789
S'IN'
p790
S'B-PP'
p791
g4
tp792
a(S'the'
p793
S'the'
p794
S'DT'
p795
S'B-NP'
p796
g4
tp797
a(S'bispectral'
p798
S'bispectral'
p799
S'JJ'
p800
S'I-NP'
p801
g4
tp802
a(S'index'
p803
S'index'
p804
S'NN'
p805
S'I-NP'
p806
g4
tp807
a(S'in'
p808
S'in'
p809
S'IN'
p810
S'B-PP'
p811
g4
tp812
a(S'those'
p813
S'those'
p814
S'DT'
p815
S'B-NP'
p816
g4
tp817
a(S'aged'
p818
S'age'
p819
S'VBN'
p820
S'B-VP'
p821
g4
tp822
a(S'from'
p823
S'from'
p824
S'IN'
p825
S'B-PP'
p826
g4
tp827
a(S'1'
p828
g828
S'CD'
p829
S'B-NP'
p830
g4
tp831
a(S'to'
p832
S'to'
p833
S'TO'
p834
S'I-NP'
p835
g4
tp836
a(S'3'
p837
g837
S'CD'
p838
S'I-NP'
p839
g4
tp840
a(S'years'
p841
S'year'
p842
S'NNS'
p843
S'I-NP'
p844
g4
tp845
a(S'revealed'
p846
S'reveal'
p847
S'VBD'
p848
S'B-VP'
p849
g4
tp850
a(S'use'
p851
S'use'
p852
S'NN'
p853
S'B-NP'
p854
g4
tp855
a(S'of'
p856
S'of'
p857
S'IN'
p858
S'B-PP'
p859
g4
tp860
a(S'lower'
p861
S'low'
p862
S'JJR'
p863
S'B-NP'
p864
g4
tp865
a(S'doses'
p866
S'dose'
p867
S'NNS'
p868
S'I-NP'
p869
g4
tp870
a(S'of'
p871
S'of'
p872
S'IN'
p873
S'B-PP'
p874
g4
tp875
a(S'midazolam'
p876
S'midazolam'
p877
S'NN'
p878
S'B-NP'
p879
g4
tp880
a(g258
g258
g258
g4
g4
tp881
a(S'at'
p882
S'at'
p883
S'IN'
p884
S'B-PP'
p885
g4
tp886
a(S'2.09'
p887
S'2.09'
p888
S'CD'
p889
S'B-NP'
p890
g4
tp891
a(S'mg'
p892
S'mg'
p893
S'NN'
p894
S'I-NP'
p895
g4
tp896
a(S'per'
p897
S'per'
p898
S'IN'
p899
S'B-PP'
p900
g4
tp901
a(S'kg'
p902
S'kg'
p903
S'NN'
p904
S'B-NP'
p905
g4
tp906
a(S'per'
p907
S'per'
p908
S'IN'
p909
S'B-PP'
p910
g4
tp911
a(S'hr'
p912
S'hr'
p913
S'NN'
p914
S'B-NP'
p915
g4
tp916
a(g258
g258
g258
g4
g4
tp917
a(S'with'
p918
S'with'
p919
S'IN'
p920
S'B-PP'
p921
g4
tp922
a(S'standard'
p923
S'standard'
p924
S'JJ'
p925
S'B-NP'
p926
g4
tp927
a(S'deviation'
p928
S'deviation'
p929
S'NN'
p930
S'I-NP'
p931
g4
tp932
a(S'of'
p933
S'of'
p934
S'IN'
p935
S'B-PP'
p936
g4
tp937
a(S'0.36'
p938
S'0.36'
p939
S'CD'
p940
S'B-NP'
p941
g4
tp942
a(g258
g258
g258
g4
g4
tp943
a(S'and'
p944
S'and'
p945
S'CC'
p946
g4
g4
tp947
a(S'similarly'
p948
S'similarly'
p949
S'RB'
p950
S'B-VP'
p951
g4
tp952
a(S'lowers'
p953
S'lower'
p954
S'VBZ'
p955
S'I-VP'
p956
g4
tp957
a(S'doses'
p958
S'dose'
p959
S'NNS'
p960
S'B-NP'
p961
g4
tp962
a(S'of'
p963
S'of'
p964
S'IN'
p965
S'B-PP'
p966
g4
tp967
a(S'ketamine'
p968
S'ketamine'
p969
S'NN'
p970
S'B-NP'
p971
g4
tp972
a(g258
g258
g258
g4
g4
tp973
a(S'at'
p974
S'at'
p975
S'IN'
p976
S'B-PP'
p977
g4
tp978
a(S'2.07'
p979
S'2.07'
p980
S'CD'
p981
S'B-NP'
p982
g4
tp983
a(S'mg'
p984
S'mg'
p985
S'NN'
p986
S'I-NP'
p987
g4
tp988
a(S'per'
p989
S'per'
p990
S'IN'
p991
S'B-PP'
p992
g4
tp993
a(S'kg'
p994
S'kg'
p995
S'NN'
p996
S'B-NP'
p997
g4
tp998
a(S'per'
p999
S'per'
p1000
S'IN'
p1001
S'B-PP'
p1002
g4
tp1003
a(S'hr'
p1004
S'hr'
p1005
S'NN'
p1006
S'B-NP'
p1007
g4
tp1008
a(g258
g258
g258
g4
g4
tp1009
a(S'with'
p1010
S'with'
p1011
S'IN'
p1012
S'B-PP'
p1013
g4
tp1014
a(S'standard'
p1015
S'standard'
p1016
S'JJ'
p1017
S'B-NP'
p1018
g4
tp1019
a(S'deviation'
p1020
S'deviation'
p1021
S'NN'
p1022
S'I-NP'
p1023
g4
tp1024
a(S'of'
p1025
S'of'
p1026
S'IN'
p1027
S'B-PP'
p1028
g4
tp1029
a(S'0.22'
p1030
S'0.22'
p1031
S'CD'
p1032
S'B-NP'
p1033
g4
tp1034
a(g258
g258
g258
g4
g4
tp1035
a(S'the'
p1036
S'the'
p1037
S'DT'
p1038
S'B-NP'
p1039
g4
tp1040
a(S'values'
p1041
S'value'
p1042
S'NNS'
p1043
S'I-NP'
p1044
g4
tp1045
a(S'in'
p1046
S'in'
p1047
S'IN'
p1048
S'B-PP'
p1049
g4
tp1050
a(S'those'
p1051
S'those'
p1052
S'DT'
p1053
S'B-NP'
p1054
g4
tp1055
a(S'not'
p1056
S'not'
p1057
S'RB'
p1058
S'B-VP'
p1059
g4
tp1060
a(S'monitored'
p1061
S'monitor'
p1062
S'VBN'
p1063
S'I-VP'
p1064
g4
tp1065
a(S'being'
p1066
S'be'
p1067
S'VBG'
p1068
S'I-VP'
p1069
g4
tp1070
a(S'2.93'
p1071
S'2.93'
p1072
S'CD'
p1073
S'B-NP'
p1074
g4
tp1075
a(g258
g258
g258
g4
g4
tp1076
a(S'with'
p1077
S'with'
p1078
S'IN'
p1079
S'B-PP'
p1080
g4
tp1081
a(S'standard'
p1082
S'standard'
p1083
S'JJ'
p1084
S'B-NP'
p1085
g4
tp1086
a(S'deviation'
p1087
S'deviation'
p1088
S'NN'
p1089
S'I-NP'
p1090
g4
tp1091
a(S'of'
p1092
S'of'
p1093
S'IN'
p1094
S'B-PP'
p1095
g4
tp1096
a(S'0.45'
p1097
S'0.45'
p1098
S'CD'
p1099
S'B-NP'
p1100
g4
tp1101
a(g258
g258
g258
g4
g4
tp1102
a(S'and'
p1103
S'and'
p1104
S'CC'
p1105
g4
g4
tp1106
a(S'2.96'
p1107
S'2.96'
p1108
S'CD'
p1109
S'B-NP'
p1110
g4
tp1111
a(S'with'
p1112
S'with'
p1113
S'IN'
p1114
S'B-PP'
p1115
g4
tp1116
a(S'standard'
p1117
S'standard'
p1118
S'JJ'
p1119
S'B-NP'
p1120
g4
tp1121
a(S'deviation'
p1122
S'deviation'
p1123
S'NN'
p1124
S'I-NP'
p1125
g4
tp1126
a(S'of'
p1127
S'of'
p1128
S'IN'
p1129
S'B-PP'
p1130
g4
tp1131
a(S'0.51'
p1132
S'0.51'
p1133
S'CD'
p1134
S'B-NP'
p1135
g4
tp1136
a(S'respectively'
p1137
S'respectively'
p1138
S'RB'
p1139
S'I-NP'
p1140
g4
tp1141
a(g258
g258
g258
g4
g4
tp1142
a(S'these'
p1143
S'these'
p1144
S'DT'
p1145
S'B-NP'
p1146
g4
tp1147
a(S'difference'
p1148
S'difference'
p1149
S'NN'
p1150
S'I-NP'
p1151
g4
tp1152
a(S'being'
p1153
S'be'
p1154
S'VBG'
p1155
S'B-VP'
p1156
g4
tp1157
a(S'statistically'
p1158
S'statistically'
p1159
S'RB'
p1160
S'B-ADJP'
p1161
g4
tp1162
a(S'significant'
p1163
S'significant'
p1164
S'JJ'
p1165
S'I-ADJP'
p1166
g4
tp1167
a(S'('
p1168
g1168
g1168
g4
g4
tp1169
a(S'p'
p1170
g1170
S'NN'
p1171
S'B-NP'
p1172
g4
tp1173
a(S'='
p1174
g1174
S'SYM'
p1175
S'B-VP'
p1176
g4
tp1177
a(S'0.001'
p1178
S'0.001'
p1179
S'CD'
p1180
S'B-NP'
p1181
g4
tp1182
a(S'and'
p1183
S'and'
p1184
S'CC'
p1185
g4
g4
tp1186
a(g1170
g1170
S'NN'
p1187
S'B-NP'
p1188
g4
tp1189
a(g1174
g1174
S'SYM'
p1190
S'B-VP'
p1191
g4
tp1192
a(S'0.04'
p1193
S'0.04'
p1194
S'CD'
p1195
S'B-NP'
p1196
g4
tp1197
a(g258
g258
g258
g4
g4
tp1198
a(S'respectively'
p1199
S'respectively'
p1200
S'RB'
p1201
S'B-ADVP'
p1202
g4
tp1203
a(S')'
p1204
g1204
g1204
g4
g4
tp1205
a(g116
g116
g116
g4
g4
tp1206
a(S'In'
p1207
S'In'
p1208
S'IN'
p1209
S'B-PP'
p1210
g4
tp1211
a(S'those'
p1212
S'those'
p1213
S'DT'
p1214
S'B-NP'
p1215
g4
tp1216
a(S'aged'
p1217
S'age'
p1218
S'VBN'
p1219
S'B-VP'
p1220
g4
tp1221
a(S'from'
p1222
S'from'
p1223
S'IN'
p1224
S'B-PP'
p1225
g4
tp1226
a(g837
g837
S'CD'
p1227
S'B-NP'
p1228
g4
tp1229
a(S'to'
p1230
S'to'
p1231
S'TO'
p1232
S'B-PP'
p1233
g4
tp1234
a(S'6'
p1235
g1235
S'CD'
p1236
S'B-NP'
p1237
g4
tp1238
a(S'years'
p1239
S'year'
p1240
S'NNS'
p1241
S'I-NP'
p1242
g4
tp1243
a(S'of'
p1244
S'of'
p1245
S'IN'
p1246
S'B-PP'
p1247
g4
tp1248
a(S'age'
p1249
S'age'
p1250
S'NN'
p1251
S'B-NP'
p1252
g4
tp1253
a(g258
g258
g258
g4
g4
tp1254
a(S'dosage'
p1255
S'dosage'
p1256
S'NN'
p1257
S'B-NP'
p1258
g4
tp1259
a(S'of'
p1260
S'of'
p1261
S'IN'
p1262
S'B-PP'
p1263
g4
tp1264
a(S'midazolam'
p1265
S'midazolam'
p1266
S'NN'
p1267
S'B-NP'
p1268
g4
tp1269
a(S'was'
p1270
S'be'
p1271
S'VBD'
p1272
S'B-VP'
p1273
g4
tp1274
a(S'2.09'
p1275
S'2.09'
p1276
S'CD'
p1277
S'B-NP'
p1278
g4
tp1279
a(g258
g258
g258
g4
g4
tp1280
a(S'with'
p1281
S'with'
p1282
S'IN'
p1283
S'B-PP'
p1284
g4
tp1285
a(S'deviation'
p1286
S'deviation'
p1287
S'NN'
p1288
S'B-NP'
p1289
g4
tp1290
a(S'of'
p1291
S'of'
p1292
S'IN'
p1293
S'B-PP'
p1294
g4
tp1295
a(S'0.36'
p1296
S'0.36'
p1297
S'CD'
p1298
S'B-NP'
p1299
g4
tp1300
a(g258
g258
g258
S'B-PP'
p1301
g4
tp1302
a(S'and'
p1303
S'and'
p1304
S'CC'
p1305
S'I-PP'
p1306
g4
tp1307
a(S'of'
p1308
S'of'
p1309
S'IN'
p1310
S'B-PP'
p1311
g4
tp1312
a(S'ketamine'
p1313
S'ketamine'
p1314
S'NN'
p1315
S'B-NP'
p1316
g4
tp1317
a(S'1.78'
p1318
S'1.78'
p1319
S'CD'
p1320
S'I-NP'
p1321
g4
tp1322
a(g258
g258
g258
g4
g4
tp1323
a(S'with'
p1324
S'with'
p1325
S'IN'
p1326
S'B-PP'
p1327
g4
tp1328
a(S'deviation'
p1329
S'deviation'
p1330
S'NN'
p1331
S'B-NP'
p1332
g4
tp1333
a(S'of'
p1334
S'of'
p1335
S'IN'
p1336
S'B-PP'
p1337
g4
tp1338
a(S'0.27'
p1339
S'0.27'
p1340
S'CD'
p1341
S'B-NP'
p1342
g4
tp1343
a(g258
g258
g258
g4
g4
tp1344
a(S'following'
p1345
S'follow'
p1346
S'VBG'
p1347
S'B-PP'
p1348
g4
tp1349
a(S'use'
p1350
S'use'
p1351
S'NN'
p1352
S'B-NP'
p1353
g4
tp1354
a(S'of'
p1355
S'of'
p1356
S'IN'
p1357
S'B-PP'
p1358
g4
tp1359
a(S'the'
p1360
S'the'
p1361
S'DT'
p1362
S'B-NP'
p1363
g4
tp1364
a(S'bispectral'
p1365
S'bispectral'
p1366
S'JJ'
p1367
S'I-NP'
p1368
g4
tp1369
a(S'index'
p1370
S'index'
p1371
S'NN'
p1372
S'I-NP'
p1373
g4
tp1374
a(g258
g258
g258
g4
g4
tp1375
a(S'compared'
p1376
S'compare'
p1377
S'VBN'
p1378
S'B-VP'
p1379
g4
tp1380
a(S'to'
p1381
S'to'
p1382
S'TO'
p1383
S'B-PP'
p1384
g4
tp1385
a(S'2.89'
p1386
S'2.89'
p1387
S'CD'
p1388
S'B-NP'
p1389
g4
tp1390
a(S'with'
p1391
S'with'
p1392
S'IN'
p1393
S'B-PP'
p1394
g4
tp1395
a(S'deviation'
p1396
S'deviation'
p1397
S'NN'
p1398
S'B-NP'
p1399
g4
tp1400
a(S'of'
p1401
S'of'
p1402
S'IN'
p1403
S'B-PP'
p1404
g4
tp1405
a(S'0.28'
p1406
S'0.28'
p1407
S'CD'
p1408
S'B-NP'
p1409
g4
tp1410
a(g258
g258
g258
g4
g4
tp1411
a(S'and'
p1412
S'and'
p1413
S'CC'
p1414
g4
g4
tp1415
a(S'2.62'
p1416
S'2.62'
p1417
S'CD'
p1418
S'B-NP'
p1419
g4
tp1420
a(S'with'
p1421
S'with'
p1422
S'IN'
p1423
S'B-PP'
p1424
g4
tp1425
a(S'deviation'
p1426
S'deviation'
p1427
S'NN'
p1428
S'B-NP'
p1429
g4
tp1430
a(S'of'
p1431
S'of'
p1432
S'IN'
p1433
S'B-PP'
p1434
g4
tp1435
a(S'0.69'
p1436
S'0.69'
p1437
S'CD'
p1438
S'B-NP'
p1439
g4
tp1440
a(S'respectively'
p1441
S'respectively'
p1442
S'RB'
p1443
S'I-NP'
p1444
g4
tp1445
a(g258
g258
g258
g4
g4
tp1446
a(S'when'
p1447
S'when'
p1448
S'WRB'
p1449
S'B-ADVP'
p1450
g4
tp1451
a(S'the'
p1452
S'the'
p1453
S'DT'
p1454
S'B-NP'
p1455
g4
tp1456
a(S'bispectral'
p1457
S'bispectral'
p1458
S'JJ'
p1459
S'I-NP'
p1460
g4
tp1461
a(S'index'
p1462
S'index'
p1463
S'NN'
p1464
S'I-NP'
p1465
g4
tp1466
a(S'was'
p1467
S'be'
p1468
S'VBD'
p1469
S'B-VP'
p1470
g4
tp1471
a(S'not'
p1472
S'not'
p1473
S'RB'
p1474
S'I-VP'
p1475
g4
tp1476
a(S'used'
p1477
S'use'
p1478
S'VBN'
p1479
S'I-VP'
p1480
g4
tp1481
a(g258
g258
g258
g4
g4
tp1482
a(S'these'
p1483
S'these'
p1484
S'DT'
p1485
S'B-NP'
p1486
g4
tp1487
a(S'again'
p1488
S'again'
p1489
S'RB'
p1490
S'I-NP'
p1491
g4
tp1492
a(S'being'
p1493
S'be'
p1494
S'VBG'
p1495
S'B-VP'
p1496
g4
tp1497
a(S'significant'
p1498
S'significant'
p1499
S'JJ'
p1500
S'B-NP'
p1501
g4
tp1502
a(S'differences'
p1503
S'difference'
p1504
S'NNS'
p1505
S'I-NP'
p1506
g4
tp1507
a(g1168
g1168
g1168
g4
g4
tp1508
a(g1170
g1170
S'NN'
p1509
S'B-NP'
p1510
g4
tp1511
a(g1174
g1174
S'SYM'
p1512
S'B-VP'
p1513
g4
tp1514
a(S'0.033'
p1515
S'0.033'
p1516
S'CD'
p1517
S'B-NP'
p1518
g4
tp1519
a(S'and'
p1520
S'and'
p1521
S'CC'
p1522
g4
g4
tp1523
a(g1170
g1170
S'NN'
p1524
S'B-NP'
p1525
g4
tp1526
a(g1174
g1174
S'SYM'
p1527
S'B-VP'
p1528
g4
tp1529
a(S'0.04'
p1530
S'0.04'
p1531
S'CD'
p1532
S'B-NP'
p1533
g4
tp1534
a(g1204
g1204
g1204
g4
g4
tp1535
a(g116
g116
g116
g4
g4
tp1536
a(S'The'
p1537
S'The'
p1538
S'DT'
p1539
S'B-NP'
p1540
g4
tp1541
a(S'requirements'
p1542
S'requirement'
p1543
S'NNS'
p1544
S'I-NP'
p1545
g4
tp1546
a(S'for'
p1547
S'for'
p1548
S'IN'
p1549
S'B-PP'
p1550
g4
tp1551
a(S'respiratory'
p1552
S'respiratory'
p1553
S'JJ'
p1554
S'B-NP'
p1555
g4
tp1556
a(S'support'
p1557
S'support'
p1558
S'NN'
p1559
S'I-NP'
p1560
g4
tp1561
a(S'and'
p1562
S'and'
p1563
S'CC'
p1564
g4
g4
tp1565
a(S'adverse'
p1566
S'adverse'
p1567
S'JJ'
p1568
S'B-NP'
p1569
g4
tp1570
a(S'effects'
p1571
S'effect'
p1572
S'NNS'
p1573
S'I-NP'
p1574
g4
tp1575
a(S'were'
p1576
S'be'
p1577
S'VBD'
p1578
S'B-VP'
p1579
g4
tp1580
a(S'also'
p1581
S'also'
p1582
S'RB'
p1583
S'B-ADVP'
p1584
g4
tp1585
a(S'significantly'
p1586
S'significantly'
p1587
S'RB'
p1588
S'B-ADJP'
p1589
g4
tp1590
a(S'lower'
p1591
S'low'
p1592
S'JJR'
p1593
S'I-ADJP'
p1594
g4
tp1595
a(S'when'
p1596
S'when'
p1597
S'WRB'
p1598
S'B-ADVP'
p1599
g4
tp1600
a(S'using'
p1601
S'use'
p1602
S'VBG'
p1603
S'B-VP'
p1604
g4
tp1605
a(S'the'
p1606
S'the'
p1607
S'DT'
p1608
S'B-NP'
p1609
g4
tp1610
a(S'bispectral'
p1611
S'bispectral'
p1612
S'JJ'
p1613
S'I-NP'
p1614
g4
tp1615
a(S'index'
p1616
S'index'
p1617
S'NN'
p1618
S'I-NP'
p1619
g4
tp1620
a(g1168
g1168
g1168
g4
g4
tp1621
a(g1170
g1170
S'NN'
p1622
S'B-NP'
p1623
g4
tp1624
a(S'less'
p1625
S'less'
p1626
S'JJR'
p1627
S'B-ADJP'
p1628
g4
tp1629
a(S'than'
p1630
S'than'
p1631
S'IN'
p1632
S'B-PP'
p1633
g4
tp1634
a(S'0.05'
p1635
S'0.05'
p1636
S'CD'
p1637
S'B-NP'
p1638
g4
tp1639
a(g1204
g1204
g1204
g4
g4
tp1640
a(g116
g116
g116
g4
g4
tp1641
a(S'No'
p1642
S'No'
p1643
S'DT'
p1644
S'B-NP'
p1645
g4
tp1646
a(S'significant'
p1647
S'significant'
p1648
S'JJ'
p1649
S'I-NP'
p1650
g4
tp1651
a(S'difference'
p1652
S'difference'
p1653
S'NN'
p1654
S'I-NP'
p1655
g4
tp1656
a(S'was'
p1657
S'be'
p1658
S'VBD'
p1659
S'B-VP'
p1660
g4
tp1661
a(S'found'
p1662
S'find'
p1663
S'VBN'
p1664
S'I-VP'
p1665
g4
tp1666
a(S'regarding'
p1667
S'regarding'
p1668
S'IN'
p1669
S'B-PP'
p1670
g4
tp1671
a(S'dosages'
p1672
S'dosage'
p1673
S'NNS'
p1674
S'B-NP'
p1675
g4
tp1676
a(S'at'
p1677
S'at'
p1678
S'IN'
p1679
S'B-PP'
p1680
g4
tp1681
a(S'the'
p1682
S'the'
p1683
S'DT'
p1684
S'B-NP'
p1685
g4
tp1686
a(S'ages'
p1687
S'age'
p1688
S'NNS'
p1689
S'I-NP'
p1690
g4
tp1691
a(S'of'
p1692
S'of'
p1693
S'IN'
p1694
S'B-PP'
p1695
g4
tp1696
a(g442
g442
S'CD'
p1697
S'B-NP'
p1698
g4
tp1699
a(S'months'
p1700
S'month'
p1701
S'NNS'
p1702
S'I-NP'
p1703
g4
tp1704
a(S'to'
p1705
S'to'
p1706
S'TO'
p1707
S'B-PP'
p1708
g4
tp1709
a(g828
g828
S'CD'
p1710
S'B-NP'
p1711
g4
tp1712
a(S'year'
p1713
S'year'
p1714
S'NN'
p1715
S'I-NP'
p1716
g4
tp1717
a(g258
g258
g258
g4
g4
tp1718
a(S'and'
p1719
S'and'
p1720
S'CC'
p1721
g4
g4
tp1722
a(g1235
g1235
S'CD'
p1723
S'B-NP'
p1724
g4
tp1725
a(S'to'
p1726
S'to'
p1727
S'TO'
p1728
S'I-NP'
p1729
g4
tp1730
a(S'15'
p1731
S'15'
p1732
S'CD'
p1733
S'I-NP'
p1734
g4
tp1735
a(S'years.'
p1736
S'years.'
p1737
S'NN'
p1738
S'I-NP'
p1739
g4
tp1740
a(S'The'
p1741
S'The'
p1742
S'DT'
p1743
S'B-NP'
p1744
g4
tp1745
a(S'awakening'
p1746
S'awakening'
p1747
S'NN'
p1748
S'I-NP'
p1749
g4
tp1750
a(S'time'
p1751
S'time'
p1752
S'NN'
p1753
S'I-NP'
p1754
g4
tp1755
a(g258
g258
g258
g4
g4
tp1756
a(S'however'
p1757
S'however'
p1758
S'RB'
p1759
S'B-ADVP'
p1760
g4
tp1761
a(g258
g258
g258
g4
g4
tp1762
a(S'was'
p1763
S'be'
p1764
S'VBD'
p1765
S'B-VP'
p1766
g4
tp1767
a(S'shorter'
p1768
S'short'
p1769
S'JJR'
p1770
S'B-ADJP'
p1771
g4
tp1772
a(S'with'
p1773
S'with'
p1774
S'IN'
p1775
S'B-PP'
p1776
g4
tp1777
a(S'use'
p1778
S'use'
p1779
S'NN'
p1780
S'B-NP'
p1781
g4
tp1782
a(S'of'
p1783
S'of'
p1784
S'IN'
p1785
S'B-PP'
p1786
g4
tp1787
a(S'the'
p1788
S'the'
p1789
S'DT'
p1790
S'B-NP'
p1791
g4
tp1792
a(S'index'
p1793
S'index'
p1794
S'NN'
p1795
S'I-NP'
p1796
g4
tp1797
a(S'in'
p1798
S'in'
p1799
S'IN'
p1800
S'B-PP'
p1801
g4
tp1802
a(S'those'
p1803
S'those'
p1804
S'DT'
p1805
S'B-NP'
p1806
g4
tp1807
a(S'aged'
p1808
S'age'
p1809
S'VBN'
p1810
S'B-VP'
p1811
g4
tp1812
a(S'from'
p1813
S'from'
p1814
S'IN'
p1815
S'B-PP'
p1816
g4
tp1817
a(g828
g828
S'CD'
p1818
S'B-NP'
p1819
g4
tp1820
a(S'to'
p1821
S'to'
p1822
S'TO'
p1823
S'B-PP'
p1824
g4
tp1825
a(g1235
g1235
S'CD'
p1826
S'B-NP'
p1827
g4
tp1828
a(S'years'
p1829
S'year'
p1830
S'NNS'
p1831
S'I-NP'
p1832
g4
tp1833
a(g116
g116
g116
g4
g4
tp1834
a(S'CONCLUSIONS'
p1835
S'CONCLUSIONS'
p1836
S'NNS'
p1837
S'B-NP'
p1838
g4
tp1839
a(S'When'
p1840
S'When'
p1841
S'WRB'
p1842
S'B-ADVP'
p1843
g4
tp1844
a(S'using'
p1845
S'use'
p1846
S'VBG'
p1847
S'B-VP'
p1848
g4
tp1849
a(S'the'
p1850
S'the'
p1851
S'DT'
p1852
S'B-NP'
p1853
g4
tp1854
a(S'bispectral'
p1855
S'bispectral'
p1856
S'JJ'
p1857
S'I-NP'
p1858
g4
tp1859
a(S'index'
p1860
S'index'
p1861
S'NN'
p1862
S'I-NP'
p1863
g4
tp1864
a(S'for'
p1865
S'for'
p1866
S'IN'
p1867
S'B-PP'
p1868
g4
tp1869
a(S'monitoring'
p1870
S'monitor'
p1871
S'VBG'
p1872
S'B-VP'
p1873
g4
tp1874
a(S'sedation'
p1875
S'sedation'
p1876
S'NN'
p1877
S'B-NP'
p1878
g4
tp1879
a(S'during'
p1880
S'during'
p1881
S'IN'
p1882
S'B-PP'
p1883
g4
tp1884
a(S'catheterization'
p1885
S'catheterization'
p1886
S'NN'
p1887
S'B-NP'
p1888
g4
tp1889
a(S'in'
p1890
S'in'
p1891
S'IN'
p1892
S'B-PP'
p1893
g4
tp1894
a(S'children'
p1895
S'child'
p1896
S'NNS'
p1897
S'B-NP'
p1898
g4
tp1899
a(g258
g258
g258
g4
g4
tp1900
a(S'we'
p1901
S'we'
p1902
S'PRP'
p1903
S'B-NP'
p1904
g4
tp1905
a(S'noted'
p1906
S'note'
p1907
S'VBD'
p1908
S'B-VP'
p1909
g4
tp1910
a(S'decreased'
p1911
S'decrease'
p1912
S'VBN'
p1913
S'B-NP'
p1914
g4
tp1915
a(S'need'
p1916
S'need'
p1917
S'NN'
p1918
S'I-NP'
p1919
g4
tp1920
a(S'for'
p1921
S'for'
p1922
S'IN'
p1923
S'B-PP'
p1924
g4
tp1925
a(S'doses'
p1926
S'dose'
p1927
S'NNS'
p1928
S'B-NP'
p1929
g4
tp1930
a(S'of'
p1931
S'of'
p1932
S'IN'
p1933
S'B-PP'
p1934
g4
tp1935
a(S'midazolam'
p1936
S'midazolam'
p1937
S'NN'
p1938
S'B-NP'
p1939
g4
tp1940
a(S'and'
p1941
S'and'
p1942
S'CC'
p1943
S'I-NP'
p1944
g4
tp1945
a(S'ketamine'
p1946
S'ketamine'
p1947
S'NN'
p1948
S'I-NP'
p1949
g4
tp1950
a(g258
g258
g258
g4
g4
tp1951
a(g340
g340
S'DT'
p1952
S'B-NP'
p1953
g4
tp1954
a(S'lower'
p1955
S'low'
p1956
S'JJR'
p1957
S'I-NP'
p1958
g4
tp1959
a(S'need'
p1960
S'need'
p1961
S'NN'
p1962
S'I-NP'
p1963
g4
tp1964
a(S'for'
p1965
S'for'
p1966
S'IN'
p1967
S'B-PP'
p1968
g4
tp1969
a(S'respiratory'
p1970
S'respiratory'
p1971
S'JJ'
p1972
S'B-NP'
p1973
g4
tp1974
a(S'support'
p1975
S'support'
p1976
S'NN'
p1977
S'I-NP'
p1978
g4
tp1979
a(S'and'
p1980
S'and'
p1981
S'CC'
p1982
g4
g4
tp1983
a(S'less'
p1984
S'less'
p1985
S'JJR'
p1986
S'B-NP'
p1987
g4
tp1988
a(S'adverse'
p1989
S'adverse'
p1990
S'JJ'
p1991
S'I-NP'
p1992
g4
tp1993
a(S'effects'
p1994
S'effect'
p1995
S'NNS'
p1996
S'I-NP'
p1997
g4
tp1998
a(g116
g116
g116
g4
g4
tp1999
a.