(lp0
(S'Warfarin'
p1
S'Warfarin'
p2
S'NN'
p3
S'B-NP'
p4
S'O'
p5
tp6
a(S'for'
p7
S'for'
p8
S'IN'
p9
S'B-PP'
p10
g5
tp11
a(S'atrial'
p12
S'atrial'
p13
S'JJ'
p14
S'B-NP'
p15
g5
tp16
a(S'fibrillation.'
p17
S'fibrillation.'
p18
S'NN'
p19
S'I-NP'
p20
g5
tp21
a(S'The'
p22
S'The'
p23
S'DT'
p24
S'B-NP'
p25
g5
tp26
a(S'patient'
p27
S'patient'
p28
S'NN'
p29
S'I-NP'
p30
g5
tp31
a(S"'s"
p32
S"'s"
p33
S'POS'
p34
S'B-NP'
p35
g5
tp36
a(S'perspective'
p37
S'perspective'
p38
S'NN'
p39
S'I-NP'
p40
g5
tp41
a(S'.'
p42
g42
g42
g5
g5
tp43
a(S'OBJECTIVE'
p44
S'OBJECTIVE'
p45
S'NN'
p46
S'B-NP'
p47
g5
tp48
a(S'To'
p49
S'To'
p50
S'TO'
p51
S'B-VP'
p52
g5
tp53
a(S'determine'
p54
S'determine'
p55
S'VB'
p56
S'I-VP'
p57
g5
tp58
a(S'the'
p59
S'the'
p60
S'DT'
p61
S'B-NP'
p62
g5
tp63
a(S'minimal'
p64
S'minimal'
p65
S'JJ'
p66
S'I-NP'
p67
g5
tp68
a(S'clinically'
p69
S'clinically'
p70
S'RB'
p71
S'I-NP'
p72
g5
tp73
a(S'important'
p74
S'important'
p75
S'JJ'
p76
S'I-NP'
p77
g5
tp78
a(S'difference'
p79
S'difference'
p80
S'NN'
p81
S'I-NP'
p82
g5
tp83
a(S'('
p84
g84
g84
g5
g5
tp85
a(S'MCID'
p86
S'MCID'
p87
S'NN'
p88
S'B-NP'
p89
g5
tp90
a(S')'
p91
g91
g91
g5
g5
tp92
a(S'of'
p93
S'of'
p94
S'IN'
p95
S'B-PP'
p96
g5
tp97
a(S'warfarin'
p98
S'warfarin'
p99
S'NN'
p100
S'B-NP'
p101
g5
tp102
a(S'therapy'
p103
S'therapy'
p104
S'NN'
p105
S'I-NP'
p106
g5
tp107
a(S'for'
p108
S'for'
p109
S'IN'
p110
S'B-PP'
p111
g5
tp112
a(S'the'
p113
S'the'
p114
S'DT'
p115
S'B-NP'
p116
g5
tp117
a(S'treatment'
p118
S'treatment'
p119
S'NN'
p120
S'I-NP'
p121
g5
tp122
a(S'of'
p123
S'of'
p124
S'IN'
p125
S'B-PP'
p126
g5
tp127
a(S'nonvalvular'
p128
S'nonvalvular'
p129
S'JJ'
p130
S'B-NP'
p131
g5
tp132
a(S'atrial'
p133
S'atrial'
p134
S'JJ'
p135
S'I-NP'
p136
g5
tp137
a(S'fibrillation'
p138
S'fibrillation'
p139
S'NN'
p140
S'I-NP'
p141
g5
tp142
a(S'from'
p143
S'from'
p144
S'IN'
p145
S'B-PP'
p146
g5
tp147
a(S'the'
p148
S'the'
p149
S'DT'
p150
S'B-NP'
p151
g5
tp152
a(S'perspective'
p153
S'perspective'
p154
S'NN'
p155
S'I-NP'
p156
g5
tp157
a(S'of'
p158
S'of'
p159
S'IN'
p160
S'B-PP'
p161
g5
tp162
a(S'patients'
p163
S'patient'
p164
S'NNS'
p165
S'B-NP'
p166
g5
tp167
a(S'using'
p168
S'use'
p169
S'VBG'
p170
S'B-VP'
p171
g5
tp172
a(S'2'
p173
g173
S'CD'
p174
S'B-NP'
p175
g5
tp176
a(S'different'
p177
S'different'
p178
S'JJ'
p179
S'I-NP'
p180
g5
tp181
a(S'elicitation'
p182
S'elicitation'
p183
S'NN'
p184
S'I-NP'
p185
g5
tp186
a(S'methods'
p187
S'method'
p188
S'NNS'
p189
S'I-NP'
p190
g5
tp191
a(g42
g42
g42
g5
g5
tp192
a(S'DESIGN'
p193
S'DESIGN'
p194
S'IN'
p195
S'B-PP'
p196
g5
tp197
a(S'All'
p198
S'All'
p199
S'DT'
p200
S'B-NP'
p201
g5
tp202
a(S'patients'
p203
S'patient'
p204
S'NNS'
p205
S'I-NP'
p206
g5
tp207
a(S'completed'
p208
S'complete'
p209
S'VBD'
p210
S'B-VP'
p211
g5
tp212
a(g173
g173
S'CD'
p213
S'B-NP'
p214
g5
tp215
a(S'face-to-face'
p216
S'face-to-face'
p217
S'JJ'
p218
S'I-NP'
p219
g5
tp220
a(S'interviews'
p221
S'interview'
p222
S'NNS'
p223
S'I-NP'
p224
g5
tp225
a(S','
p226
g226
g226
g5
g5
tp227
a(S'which'
p228
S'which'
p229
S'WDT'
p230
S'B-NP'
p231
g5
tp232
a(S'were'
p233
S'be'
p234
S'VBD'
p235
S'B-VP'
p236
g5
tp237
a(g173
g173
S'CD'
p238
S'B-NP'
p239
g5
tp240
a(S'weeks'
p241
S'week'
p242
S'NNS'
p243
S'I-NP'
p244
g5
tp245
a(S'apart.'
p246
S'apart.'
p247
S'RB'
p248
S'B-ADVP'
p249
g5
tp250
a(S'For'
p251
S'For'
p252
S'IN'
p253
S'B-PP'
p254
g5
tp255
a(S'each'
p256
S'each'
p257
S'DT'
p258
S'B-NP'
p259
g5
tp260
a(S'interview'
p261
S'interview'
p262
S'NN'
p263
S'I-NP'
p264
g5
tp265
a(g226
g226
g226
g5
g5
tp266
a(S'they'
p267
S'they'
p268
S'PRP'
p269
S'B-NP'
p270
g5
tp271
a(S'were'
p272
S'be'
p273
S'VBD'
p274
S'B-VP'
p275
g5
tp276
a(S'randomized'
p277
S'randomize'
p278
S'VBN'
p279
S'I-VP'
p280
g5
tp281
a(S'to'
p282
S'to'
p283
S'TO'
p284
S'I-VP'
p285
g5
tp286
a(S'receive'
p287
S'receive'
p288
S'VB'
p289
S'I-VP'
p290
g5
tp291
a(S'1'
p292
g292
S'CD'
p293
S'B-NP'
p294
g5
tp295
a(S'of'
p296
S'of'
p297
S'IN'
p298
S'B-PP'
p299
g5
tp300
a(g173
g173
S'CD'
p301
S'B-NP'
p302
g5
tp303
a(S'elicitation'
p304
S'elicitation'
p305
S'NN'
p306
S'I-NP'
p307
g5
tp308
a(S'methods'
p309
S'method'
p310
S'NNS'
p311
S'I-NP'
p312
g5
tp313
a(S':'
p314
g314
g314
g5
g5
tp315
a(S'ping-ponging'
p316
S'ping-ponging'
p317
S'JJ'
p318
S'B-ADJP'
p319
g5
tp320
a(S'or'
p321
S'or'
p322
S'CC'
p323
g5
g5
tp324
a(S'starting'
p325
S'start'
p326
S'VBG'
p327
S'B-VP'
p328
g5
tp329
a(S'at'
p330
S'at'
p331
S'IN'
p332
S'B-PP'
p333
g5
tp334
a(S'the'
p335
S'the'
p336
S'DT'
p337
S'B-NP'
p338
g5
tp339
a(S'known'
p340
S'know'
p341
S'VBN'
p342
S'I-NP'
p343
g5
tp344
a(S'efficacy'
p345
S'efficacy'
p346
S'NN'
p347
S'I-NP'
p348
g5
tp349
a(g42
g42
g42
g5
g5
tp350
a(S'SETTING'
p351
S'SETTING'
p352
S'VBG'
p353
S'B-VP'
p354
g5
tp355
a(S'The'
p356
S'The'
p357
S'DT'
p358
S'B-NP'
p359
g5
tp360
a(S'practices'
p361
S'practice'
p362
S'NNS'
p363
S'I-NP'
p364
g5
tp365
a(S'of'
p366
S'of'
p367
S'IN'
p368
S'B-PP'
p369
g5
tp370
a(g173
g173
S'CD'
p371
S'B-NP'
p372
g5
tp373
a(S'university-affiliated'
p374
S'university-affiliated'
p375
S'JJ'
p376
S'I-NP'
p377
g5
tp378
a(S'family'
p379
S'family'
p380
S'NN'
p381
S'I-NP'
p382
g5
tp383
a(S'medicine'
p384
S'medicine'
p385
S'NN'
p386
S'I-NP'
p387
g5
tp388
a(S'centers'
p389
S'center'
p390
S'NNS'
p391
S'I-NP'
p392
g5
tp393
a(g84
g84
g84
g5
g5
tp394
a(S'8'
p395
g395
S'CD'
p396
S'B-NP'
p397
g5
tp398
a(S'physicians'
p399
S'physician'
p400
S'NNS'
p401
S'I-NP'
p402
g5
tp403
a(S'each'
p404
S'each'
p405
S'DT'
p406
S'B-NP'
p407
g5
tp408
a(g91
g91
g91
g5
g5
tp409
a(g226
g226
g226
g5
g5
tp410
a(S'14'
p411
S'14'
p412
S'CD'
p413
S'B-NP'
p414
g5
tp415
a(S'community-based'
p416
S'community-based'
p417
S'JJ'
p418
S'I-NP'
p419
g5
tp420
a(S'family'
p421
S'family'
p422
S'NN'
p423
S'I-NP'
p424
g5
tp425
a(S'physicians'
p426
S'physician'
p427
S'NNS'
p428
S'I-NP'
p429
g5
tp430
a(g226
g226
g226
g5
g5
tp431
a(S'and'
p432
S'and'
p433
S'CC'
p434
g5
g5
tp435
a(g173
g173
S'CD'
p436
S'B-NP'
p437
g5
tp438
a(S'cardiologists'
p439
S'cardiologist'
p440
S'NNS'
p441
S'I-NP'
p442
g5
tp443
a(g42
g42
g42
g5
g5
tp444
a(S'PATIENTS'
p445
S'PATIENTS'
p446
S'NNS'
p447
S'B-NP'
p448
g5
tp449
a(S'Sixty-four'
p450
S'Sixty-four'
p451
S'CD'
p452
S'B-NP'
p453
g5
tp454
a(S'patients'
p455
S'patient'
p456
S'NNS'
p457
S'I-NP'
p458
g5
tp459
a(S'with'
p460
S'with'
p461
S'IN'
p462
S'B-PP'
p463
g5
tp464
a(S'nonvalvular'
p465
S'nonvalvular'
p466
S'JJ'
p467
S'B-NP'
p468
g5
tp469
a(S'atrial'
p470
S'atrial'
p471
S'JJ'
p472
S'I-NP'
p473
g5
tp474
a(S'fibrillation'
p475
S'fibrillation'
p476
S'NN'
p477
S'I-NP'
p478
g5
tp479
a(S'who'
p480
S'who'
p481
S'WP'
p482
S'B-NP'
p483
g5
tp484
a(S'were'
p485
S'be'
p486
S'VBD'
p487
S'B-VP'
p488
g5
tp489
a(S'initiated'
p490
S'initiate'
p491
S'VBN'
p492
S'I-VP'
p493
g5
tp494
a(S'with'
p495
S'with'
p496
S'IN'
p497
S'B-PP'
p498
g5
tp499
a(S'warfarin'
p500
S'warfarin'
p501
S'NN'
p502
S'B-NP'
p503
g5
tp504
a(S'therapy'
p505
S'therapy'
p506
S'NN'
p507
S'I-NP'
p508
g5
tp509
a(S'at'
p510
S'at'
p511
S'IN'
p512
S'B-NP'
p513
g5
tp514
a(S'least'
p515
S'least'
p516
S'JJS'
p517
S'I-NP'
p518
g5
tp519
a(S'3'
p520
g520
S'CD'
p521
S'I-NP'
p522
g5
tp523
a(S'months'
p524
S'month'
p525
S'NNS'
p526
S'I-NP'
p527
g5
tp528
a(S'before'
p529
S'before'
p530
S'IN'
p531
S'B-SBAR'
p532
g5
tp533
a(S'the'
p534
S'the'
p535
S'DT'
p536
S'B-NP'
p537
g5
tp538
a(S'study'
p539
S'study'
p540
S'NN'
p541
S'I-NP'
p542
g5
tp543
a(g42
g42
g42
g5
g5
tp544
a(S'INTERVENTION'
p545
S'INTERVENTION'
p546
S'NN'
p547
S'B-NP'
p548
g5
tp549
a(S'During'
p550
S'During'
p551
S'IN'
p552
S'B-PP'
p553
g5
tp554
a(S'each'
p555
S'each'
p556
S'DT'
p557
S'B-NP'
p558
g5
tp559
a(S'interview'
p560
S'interview'
p561
S'NN'
p562
S'I-NP'
p563
g5
tp564
a(g226
g226
g226
g5
g5
tp565
a(S'the'
p566
S'the'
p567
S'DT'
p568
S'B-NP'
p569
g5
tp570
a(S'patients'
p571
S'patient'
p572
S'NNS'
p573
S'I-NP'
p574
g5
tp575
a(S"'"
p576
g576
S'POS'
p577
S'B-NP'
p578
g5
tp579
a(S'MCIDs'
p580
S'MCID'
p581
S'NNS'
p582
S'I-NP'
p583
g5
tp584
a(S'were'
p585
S'be'
p586
S'VBD'
p587
S'B-VP'
p588
g5
tp589
a(S'determined'
p590
S'determine'
p591
S'VBN'
p592
S'I-VP'
p593
g5
tp594
a(S'by'
p595
S'by'
p596
S'IN'
p597
S'B-PP'
p598
g5
tp599
a(S'using'
p600
S'use'
p601
S'VBG'
p602
S'B-VP'
p603
g5
tp604
a(g84
g84
g84
S'B-LST'
p605
g5
tp606
a(g292
g292
S'LS'
p607
S'I-LST'
p608
g5
tp609
a(g91
g91
g91
g5
g5
tp610
a(S'a'
p611
g611
S'DT'
p612
S'B-NP'
p613
g5
tp614
a(S'pictorial'
p615
S'pictorial'
p616
S'JJ'
p617
S'I-NP'
p618
g5
tp619
a(S'flip'
p620
S'flip'
p621
S'NN'
p622
S'I-NP'
p623
g5
tp624
a(S'chart'
p625
S'chart'
p626
S'NN'
p627
S'I-NP'
p628
g5
tp629
a(S'to'
p630
S'to'
p631
S'TO'
p632
S'B-VP'
p633
g5
tp634
a(S'describe'
p635
S'describe'
p636
S'VB'
p637
S'I-VP'
p638
g5
tp639
a(S'atrial'
p640
S'atrial'
p641
S'JJ'
p642
S'B-NP'
p643
g5
tp644
a(S'fibrillation'
p645
S'fibrillation'
p646
S'NN'
p647
S'I-NP'
p648
g5
tp649
a(S';'
p650
g650
g314
g5
g5
tp651
a(S'the'
p652
S'the'
p653
S'DT'
p654
S'B-NP'
p655
g5
tp656
a(S'consequences'
p657
S'consequence'
p658
S'NNS'
p659
S'I-NP'
p660
g5
tp661
a(S'of'
p662
S'of'
p663
S'IN'
p664
S'B-PP'
p665
g5
tp666
a(g611
g611
S'DT'
p667
S'B-NP'
p668
g5
tp669
a(S'minor'
p670
S'minor'
p671
S'JJ'
p672
S'I-NP'
p673
g5
tp674
a(S'stroke'
p675
S'stroke'
p676
S'NN'
p677
S'I-NP'
p678
g5
tp679
a(g226
g226
g226
g5
g5
tp680
a(g611
g611
S'DT'
p681
S'B-NP'
p682
g5
tp683
a(S'major'
p684
S'major'
p685
S'JJ'
p686
S'I-NP'
p687
g5
tp688
a(S'stroke'
p689
S'stroke'
p690
S'NN'
p691
S'I-NP'
p692
g5
tp693
a(g226
g226
g226
g5
g5
tp694
a(S'and'
p695
S'and'
p696
S'CC'
p697
g5
g5
tp698
a(g611
g611
S'DT'
p699
S'B-NP'
p700
g5
tp701
a(S'major'
p702
S'major'
p703
S'JJ'
p704
S'I-NP'
p705
g5
tp706
a(S'bleeding'
p707
S'bleeding'
p708
S'NN'
p709
S'I-NP'
p710
g5
tp711
a(S'episode'
p712
S'episode'
p713
S'NN'
p714
S'I-NP'
p715
g5
tp716
a(g650
g650
g314
g5
g5
tp717
a(S'the'
p718
S'the'
p719
S'DT'
p720
S'B-NP'
p721
g5
tp722
a(S'chance'
p723
S'chance'
p724
S'NN'
p725
S'I-NP'
p726
g5
tp727
a(S'of'
p728
S'of'
p729
S'IN'
p730
S'B-PP'
p731
g5
tp732
a(S'stroke'
p733
S'stroke'
p734
S'NN'
p735
S'B-NP'
p736
g5
tp737
a(S'if'
p738
S'if'
p739
S'IN'
p740
S'B-SBAR'
p741
g5
tp742
a(S'not'
p743
S'not'
p744
S'RB'
p745
g5
g5
tp746
a(S'taking'
p747
S'take'
p748
S'VBG'
p749
S'B-VP'
p750
g5
tp751
a(S'warfarin'
p752
S'warfarin'
p753
S'NN'
p754
S'B-NP'
p755
g5
tp756
a(g650
g650
g314
g5
g5
tp757
a(S'the'
p758
S'the'
p759
S'DT'
p760
S'B-NP'
p761
g5
tp762
a(S'chance'
p763
S'chance'
p764
S'NN'
p765
S'I-NP'
p766
g5
tp767
a(S'of'
p768
S'of'
p769
S'IN'
p770
S'B-PP'
p771
g5
tp772
a(g611
g611
S'DT'
p773
S'B-NP'
p774
g5
tp775
a(S'major'
p776
S'major'
p777
S'JJ'
p778
S'I-NP'
p779
g5
tp780
a(S'bleeding'
p781
S'bleed'
p782
S'VBG'
p783
S'I-NP'
p784
g5
tp785
a(S'episode'
p786
S'episode'
p787
S'NN'
p788
S'I-NP'
p789
S'B-protein'
p790
tp791
a(S'if'
p792
S'if'
p793
S'IN'
p794
S'B-SBAR'
p795
S'I-protein'
p796
tp797
a(S'taking'
p798
S'take'
p799
S'VBG'
p800
S'B-VP'
p801
S'I-protein'
p802
tp803
a(S'warfarin'
p804
S'warfarin'
p805
S'NN'
p806
S'B-NP'
p807
S'I-protein'
p808
tp809
a(g650
g650
g314
g5
g5
tp810
a(S'examples'
p811
S'example'
p812
S'NNS'
p813
S'B-NP'
p814
g5
tp815
a(S'of'
p816
S'of'
p817
S'IN'
p818
S'B-PP'
p819
g5
tp820
a(S'the'
p821
S'the'
p822
S'DT'
p823
S'B-NP'
p824
g5
tp825
a(S'inconvenience'
p826
S'inconvenience'
p827
S'NN'
p828
S'I-NP'
p829
g5
tp830
a(g226
g226
g226
g5
g5
tp831
a(S'minor'
p832
S'minor'
p833
S'JJ'
p834
S'B-NP'
p835
g5
tp836
a(S'side'
p837
S'side'
p838
S'NN'
p839
S'I-NP'
p840
g5
tp841
a(S'effects'
p842
S'effect'
p843
S'NNS'
p844
S'I-NP'
p845
g5
tp846
a(g226
g226
g226
g5
g5
tp847
a(S'and'
p848
S'and'
p849
S'CC'
p850
g5
g5
tp851
a(S'costs'
p852
S'cost'
p853
S'NNS'
p854
S'B-NP'
p855
g5
tp856
a(S'of'
p857
S'of'
p858
S'IN'
p859
S'B-PP'
p860
g5
tp861
a(S'warfarin'
p862
S'warfarin'
p863
S'NN'
p864
S'B-NP'
p865
g5
tp866
a(S'therapy'
p867
S'therapy'
p868
S'NN'
p869
S'I-NP'
p870
g5
tp871
a(g650
g650
g314
g5
g5
tp872
a(S'and'
p873
S'and'
p874
S'CC'
p875
g5
g5
tp876
a(S'then'
p877
S'then'
p878
S'RB'
p879
g5
g5
tp880
a(g84
g84
g84
g5
g5
tp881
a(g173
g173
S'CD'
p882
S'B-NP'
p883
g5
tp884
a(g91
g91
g91
g5
g5
tp885
a(g292
g292
S'CD'
p886
S'B-NP'
p887
g5
tp888
a(S'of'
p889
S'of'
p890
S'IN'
p891
S'B-PP'
p892
g5
tp893
a(S'the'
p894
S'the'
p895
S'DT'
p896
S'B-NP'
p897
g5
tp898
a(g173
g173
S'CD'
p899
S'I-NP'
p900
g5
tp901
a(S'elicitation'
p902
S'elicitation'
p903
S'NN'
p904
S'I-NP'
p905
g5
tp906
a(S'methods'
p907
S'method'
p908
S'NNS'
p909
S'I-NP'
p910
g5
tp911
a(S'to'
p912
S'to'
p913
S'TO'
p914
S'B-VP'
p915
g5
tp916
a(S'determine'
p917
S'determine'
p918
S'VB'
p919
S'I-VP'
p920
g5
tp921
a(S'their'
p922
S'their'
p923
S'PRP$'
p924
S'B-NP'
p925
g5
tp926
a(S'MCIDs'
p927
S'MCID'
p928
S'NNS'
p929
S'I-NP'
p930
g5
tp931
a(g84
g84
g84
g5
g5
tp932
a(S'the'
p933
S'the'
p934
S'DT'
p935
S'B-NP'
p936
g5
tp937
a(S'smallest'
p938
S'small'
p939
S'JJS'
p940
S'I-NP'
p941
g5
tp942
a(S'reduction'
p943
S'reduction'
p944
S'NN'
p945
S'I-NP'
p946
g5
tp947
a(S'in'
p948
S'in'
p949
S'IN'
p950
S'B-PP'
p951
g5
tp952
a(S'stroke'
p953
S'stroke'
p954
S'NN'
p955
S'B-NP'
p956
g5
tp957
a(S'risk'
p958
S'risk'
p959
S'NN'
p960
S'I-NP'
p961
g5
tp962
a(S'at'
p963
S'at'
p964
S'IN'
p965
S'B-PP'
p966
g5
tp967
a(S'which'
p968
S'which'
p969
S'WDT'
p970
S'B-NP'
p971
g5
tp972
a(S'the'
p973
S'the'
p974
S'DT'
p975
S'B-NP'
p976
g5
tp977
a(S'patients'
p978
S'patient'
p979
S'NNS'
p980
S'I-NP'
p981
g5
tp982
a(S'were'
p983
S'be'
p984
S'VBD'
p985
S'B-VP'
p986
g5
tp987
a(S'willing'
p988
S'willing'
p989
S'JJ'
p990
S'B-ADJP'
p991
g5
tp992
a(S'to'
p993
S'to'
p994
S'TO'
p995
S'B-VP'
p996
g5
tp997
a(S'take'
p998
S'take'
p999
S'VB'
p1000
S'I-VP'
p1001
g5
tp1002
a(S'warfarin'
p1003
S'warfarin'
p1004
S'NN'
p1005
S'B-NP'
p1006
g5
tp1007
a(g91
g91
g91
g5
g5
tp1008
a(g42
g42
g42
g5
g5
tp1009
a(S'Patients'
p1010
S'Patient'
p1011
S'NNPS'
p1012
S'B-NP'
p1013
g5
tp1014
a(g576
g576
S'POS'
p1015
S'B-NP'
p1016
g5
tp1017
a(S'knowledge'
p1018
S'knowledge'
p1019
S'NN'
p1020
S'I-NP'
p1021
g5
tp1022
a(S'of'
p1023
S'of'
p1024
S'IN'
p1025
S'B-PP'
p1026
g5
tp1027
a(S'their'
p1028
S'their'
p1029
S'PRP$'
p1030
S'B-NP'
p1031
g5
tp1032
a(S'stroke'
p1033
S'stroke'
p1034
S'NN'
p1035
S'I-NP'
p1036
g5
tp1037
a(S'risk'
p1038
S'risk'
p1039
S'NN'
p1040
S'I-NP'
p1041
g5
tp1042
a(g226
g226
g226
g5
g5
tp1043
a(S'acceptability'
p1044
S'acceptability'
p1045
S'NN'
p1046
S'B-NP'
p1047
g5
tp1048
a(S'of'
p1049
S'of'
p1050
S'IN'
p1051
S'B-PP'
p1052
g5
tp1053
a(S'the'
p1054
S'the'
p1055
S'DT'
p1056
S'B-NP'
p1057
g5
tp1058
a(S'interview'
p1059
S'interview'
p1060
S'NN'
p1061
S'I-NP'
p1062
g5
tp1063
a(S'process'
p1064
S'process'
p1065
S'NN'
p1066
S'I-NP'
p1067
g5
tp1068
a(g226
g226
g226
g5
g5
tp1069
a(S'and'
p1070
S'and'
p1071
S'CC'
p1072
g5
g5
tp1073
a(S'factors'
p1074
S'factor'
p1075
S'NNS'
p1076
S'B-NP'
p1077
g5
tp1078
a(S'determining'
p1079
S'determine'
p1080
S'VBG'
p1081
S'B-VP'
p1082
g5
tp1083
a(S'their'
p1084
S'their'
p1085
S'PRP$'
p1086
S'B-NP'
p1087
g5
tp1088
a(S'preferences'
p1089
S'preference'
p1090
S'NNS'
p1091
S'I-NP'
p1092
g5
tp1093
a(S'were'
p1094
S'be'
p1095
S'VBD'
p1096
S'B-VP'
p1097
g5
tp1098
a(S'also'
p1099
S'also'
p1100
S'RB'
p1101
S'I-VP'
p1102
g5
tp1103
a(S'assessed'
p1104
S'assess'
p1105
S'VBN'
p1106
S'I-VP'
p1107
g5
tp1108
a(g42
g42
g42
g5
g5
tp1109
a(S'MAIN'
p1110
S'MAIN'
p1111
S'NN'
p1112
S'B-NP'
p1113
g5
tp1114
a(S'RESULTS'
p1115
S'RESULTS'
p1116
S'NNS'
p1117
S'I-NP'
p1118
g5
tp1119
a(S'Given'
p1120
S'Give'
p1121
S'VBN'
p1122
S'B-VP'
p1123
g5
tp1124
a(g611
g611
S'DT'
p1125
S'B-NP'
p1126
g5
tp1127
a(S'baseline'
p1128
S'baseline'
p1129
S'NN'
p1130
S'I-NP'
p1131
g5
tp1132
a(S'risk'
p1133
S'risk'
p1134
S'NN'
p1135
S'I-NP'
p1136
g5
tp1137
a(S'of'
p1138
S'of'
p1139
S'IN'
p1140
S'B-PP'
p1141
g5
tp1142
a(S'having'
p1143
S'have'
p1144
S'VBG'
p1145
S'B-VP'
p1146
g5
tp1147
a(g611
g611
S'DT'
p1148
S'B-NP'
p1149
g5
tp1150
a(S'stroke'
p1151
S'stroke'
p1152
S'NN'
p1153
S'I-NP'
p1154
g5
tp1155
a(S'in'
p1156
S'in'
p1157
S'IN'
p1158
S'B-PP'
p1159
g5
tp1160
a(S'the'
p1161
S'the'
p1162
S'DT'
p1163
S'B-NP'
p1164
g5
tp1165
a(S'next'
p1166
S'next'
p1167
S'JJ'
p1168
S'I-NP'
p1169
g5
tp1170
a(g173
g173
S'CD'
p1171
S'I-NP'
p1172
g5
tp1173
a(S'years'
p1174
S'year'
p1175
S'NNS'
p1176
S'I-NP'
p1177
g5
tp1178
a(g226
g226
g226
g5
g5
tp1179
a(S'if'
p1180
S'if'
p1181
S'IN'
p1182
S'B-SBAR'
p1183
g5
tp1184
a(S'not'
p1185
S'not'
p1186
S'RB'
p1187
g5
g5
tp1188
a(S'taking'
p1189
S'take'
p1190
S'VBG'
p1191
S'B-VP'
p1192
g5
tp1193
a(S'warfarin'
p1194
S'warfarin'
p1195
S'NN'
p1196
S'B-NP'
p1197
g5
tp1198
a(g226
g226
g226
g5
g5
tp1199
a(S'of'
p1200
S'of'
p1201
S'IN'
p1202
S'B-PP'
p1203
g5
tp1204
a(S'10'
p1205
S'10'
p1206
S'CD'
p1207
S'B-NP'
p1208
g5
tp1209
a(S'of'
p1210
S'of'
p1211
S'IN'
p1212
S'B-PP'
p1213
g5
tp1214
a(S'100'
p1215
S'100'
p1216
S'CD'
p1217
S'B-NP'
p1218
g5
tp1219
a(g226
g226
g226
g5
g5
tp1220
a(S'the'
p1221
S'the'
p1222
S'DT'
p1223
S'B-NP'
p1224
g5
tp1225
a(S'mean'
p1226
S'mean'
p1227
S'JJ'
p1228
S'I-NP'
p1229
g5
tp1230
a(S'MCID'
p1231
S'MCID'
p1232
S'NN'
p1233
S'I-NP'
p1234
g5
tp1235
a(S'was'
p1236
S'be'
p1237
S'VBD'
p1238
S'B-VP'
p1239
g5
tp1240
a(S'2.01'
p1241
S'2.01'
p1242
S'CD'
p1243
S'B-NP'
p1244
g5
tp1245
a(S'of'
p1246
S'of'
p1247
S'IN'
p1248
S'B-PP'
p1249
g5
tp1250
a(S'100'
p1251
S'100'
p1252
S'CD'
p1253
S'B-NP'
p1254
g5
tp1255
a(g84
g84
g84
g5
g5
tp1256
a(S'95'
p1257
S'95'
p1258
S'CD'
p1259
S'B-NP'
p1260
g5
tp1261
a(S'%'
p1262
g1262
S'NN'
p1263
S'I-NP'
p1264
g5
tp1265
a(S'confidence'
p1266
S'confidence'
p1267
S'NN'
p1268
S'I-NP'
p1269
g5
tp1270
a(S'interval'
p1271
S'interval'
p1272
S'NN'
p1273
S'I-NP'
p1274
g5
tp1275
a(g226
g226
g226
g5
g5
tp1276
a(S'1.60-2.42'
p1277
S'1.60-2.42'
p1278
S'CD'
p1279
S'B-NP'
p1280
g5
tp1281
a(g91
g91
g91
g5
g5
tp1282
a(g42
g42
g42
g5
g5
tp1283
a(S'Fifty-two'
p1284
S'Fifty-two'
p1285
S'CD'
p1286
S'B-NP'
p1287
g5
tp1288
a(S'percent'
p1289
S'percent'
p1290
S'NN'
p1291
S'I-NP'
p1292
g5
tp1293
a(S'of'
p1294
S'of'
p1295
S'IN'
p1296
S'B-PP'
p1297
g5
tp1298
a(S'the'
p1299
S'the'
p1300
S'DT'
p1301
S'B-NP'
p1302
g5
tp1303
a(S'patients'
p1304
S'patient'
p1305
S'NNS'
p1306
S'I-NP'
p1307
g5
tp1308
a(S'would'
p1309
S'would'
p1310
S'MD'
p1311
S'B-VP'
p1312
g5
tp1313
a(S'take'
p1314
S'take'
p1315
S'VB'
p1316
S'I-VP'
p1317
g5
tp1318
a(S'warfarin'
p1319
S'warfarin'
p1320
S'NN'
p1321
S'B-NP'
p1322
g5
tp1323
a(S'for'
p1324
S'for'
p1325
S'IN'
p1326
S'B-PP'
p1327
g5
tp1328
a(S'an'
p1329
S'an'
p1330
S'DT'
p1331
S'B-NP'
p1332
g5
tp1333
a(S'absolute'
p1334
S'absolute'
p1335
S'JJ'
p1336
S'I-NP'
p1337
g5
tp1338
a(S'decrease'
p1339
S'decrease'
p1340
S'NN'
p1341
S'I-NP'
p1342
g5
tp1343
a(S'in'
p1344
S'in'
p1345
S'IN'
p1346
S'B-PP'
p1347
g5
tp1348
a(S'stroke'
p1349
S'stroke'
p1350
S'NN'
p1351
S'B-NP'
p1352
g5
tp1353
a(S'risk'
p1354
S'risk'
p1355
S'NN'
p1356
S'I-NP'
p1357
g5
tp1358
a(S'of'
p1359
S'of'
p1360
S'IN'
p1361
S'B-PP'
p1362
g5
tp1363
a(g292
g292
S'CD'
p1364
S'B-NP'
p1365
g5
tp1366
a(g1262
g1262
S'NN'
p1367
S'I-NP'
p1368
g5
tp1369
a(S'over'
p1370
S'over'
p1371
S'IN'
p1372
S'B-PP'
p1373
g5
tp1374
a(g173
g173
S'CD'
p1375
S'B-NP'
p1376
g5
tp1377
a(S'years.'
p1378
S'years.'
p1379
S'NN'
p1380
S'I-NP'
p1381
g5
tp1382
a(S'Before'
p1383
S'Before'
p1384
S'IN'
p1385
S'B-PP'
p1386
g5
tp1387
a(S'eliciting'
p1388
S'elicit'
p1389
S'VBG'
p1390
S'B-VP'
p1391
g5
tp1392
a(S'their'
p1393
S'their'
p1394
S'PRP$'
p1395
S'B-NP'
p1396
g5
tp1397
a(S'MCIDs'
p1398
S'MCID'
p1399
S'NNS'
p1400
S'I-NP'
p1401
g5
tp1402
a(g226
g226
g226
g5
g5
tp1403
a(S'patients'
p1404
S'patient'
p1405
S'NNS'
p1406
S'B-NP'
p1407
g5
tp1408
a(S'showed'
p1409
S'show'
p1410
S'VBD'
p1411
S'B-VP'
p1412
g5
tp1413
a(S'poor'
p1414
S'poor'
p1415
S'JJ'
p1416
S'B-NP'
p1417
g5
tp1418
a(S'knowledge'
p1419
S'knowledge'
p1420
S'NN'
p1421
S'I-NP'
p1422
g5
tp1423
a(S'of'
p1424
S'of'
p1425
S'IN'
p1426
S'B-PP'
p1427
g5
tp1428
a(S'their'
p1429
S'their'
p1430
S'PRP$'
p1431
S'B-NP'
p1432
g5
tp1433
a(S'stroke'
p1434
S'stroke'
p1435
S'NN'
p1436
S'I-NP'
p1437
g5
tp1438
a(S'risk'
p1439
S'risk'
p1440
S'NN'
p1441
S'I-NP'
p1442
g5
tp1443
a(g226
g226
g226
g5
g5
tp1444
a(S'which'
p1445
S'which'
p1446
S'WDT'
p1447
S'B-NP'
p1448
g5
tp1449
a(S'improved'
p1450
S'improve'
p1451
S'VBD'
p1452
S'B-VP'
p1453
g5
tp1454
a(S'afterward.'
p1455
S'afterward.'
p1456
S'RB'
p1457
S'B-ADVP'
p1458
g5
tp1459
a(S'The'
p1460
S'The'
p1461
S'DT'
p1462
S'B-NP'
p1463
g5
tp1464
a(S'interview'
p1465
S'interview'
p1466
S'NN'
p1467
S'I-NP'
p1468
g5
tp1469
a(S'process'
p1470
S'process'
p1471
S'NN'
p1472
S'I-NP'
p1473
g5
tp1474
a(S'was'
p1475
S'be'
p1476
S'VBD'
p1477
S'B-VP'
p1478
g5
tp1479
a(S'well'
p1480
S'well'
p1481
S'RB'
p1482
S'I-VP'
p1483
g5
tp1484
a(S'accepted'
p1485
S'accept'
p1486
S'VBN'
p1487
S'I-VP'
p1488
g5
tp1489
a(S'by'
p1490
S'by'
p1491
S'IN'
p1492
S'B-PP'
p1493
g5
tp1494
a(S'the'
p1495
S'the'
p1496
S'DT'
p1497
S'B-NP'
p1498
g5
tp1499
a(S'patients.'
p1500
S'patients.'
p1501
S'NN'
p1502
S'I-NP'
p1503
g5
tp1504
a(S'The'
p1505
S'The'
p1506
S'DT'
p1507
S'B-NP'
p1508
g5
tp1509
a(S'MCID'
p1510
S'MCID'
p1511
S'NN'
p1512
S'I-NP'
p1513
g5
tp1514
a(S'using'
p1515
S'use'
p1516
S'VBG'
p1517
S'B-VP'
p1518
g5
tp1519
a(S'the'
p1520
S'the'
p1521
S'DT'
p1522
S'B-NP'
p1523
g5
tp1524
a(S'ping-ponging'
p1525
S'ping-ponging'
p1526
S'JJ'
p1527
S'I-NP'
p1528
g5
tp1529
a(S'elicitation'
p1530
S'elicitation'
p1531
S'NN'
p1532
S'I-NP'
p1533
g5
tp1534
a(S'method'
p1535
S'method'
p1536
S'NN'
p1537
S'I-NP'
p1538
g5
tp1539
a(S'was'
p1540
S'be'
p1541
S'VBD'
p1542
S'B-VP'
p1543
g5
tp1544
a(S'1.015'
p1545
S'1.015'
p1546
S'CD'
p1547
S'B-NP'
p1548
g5
tp1549
a(S'of'
p1550
S'of'
p1551
S'IN'
p1552
S'B-PP'
p1553
g5
tp1554
a(S'100'
p1555
S'100'
p1556
S'CD'
p1557
S'B-NP'
p1558
g5
tp1559
a(S'smaller'
p1560
S'small'
p1561
S'JJR'
p1562
S'B-ADJP'
p1563
g5
tp1564
a(S'compared'
p1565
S'compare'
p1566
S'VBN'
p1567
S'B-PP'
p1568
g5
tp1569
a(S'with'
p1570
S'with'
p1571
S'IN'
p1572
S'B-PP'
p1573
g5
tp1574
a(S'use'
p1575
S'use'
p1576
S'NN'
p1577
S'B-NP'
p1578
g5
tp1579
a(S'of'
p1580
S'of'
p1581
S'IN'
p1582
S'B-PP'
p1583
g5
tp1584
a(S'the'
p1585
S'the'
p1586
S'DT'
p1587
S'B-NP'
p1588
g5
tp1589
a(S'starting'
p1590
S'start'
p1591
S'VBG'
p1592
S'I-NP'
p1593
g5
tp1594
a(S'at'
p1595
S'at'
p1596
S'IN'
p1597
S'B-PP'
p1598
g5
tp1599
a(S'the'
p1600
S'the'
p1601
S'DT'
p1602
S'B-NP'
p1603
g5
tp1604
a(S'known'
p1605
S'know'
p1606
S'VBN'
p1607
S'I-NP'
p1608
g5
tp1609
a(S'efficacy'
p1610
S'efficacy'
p1611
S'NN'
p1612
S'I-NP'
p1613
g5
tp1614
a(S'method'
p1615
S'method'
p1616
S'NN'
p1617
S'I-NP'
p1618
g5
tp1619
a(g84
g84
g84
g5
g5
tp1620
a(S'P'
p1621
g1621
S'NN'
p1622
S'B-NP'
p1623
g5
tp1624
a(S'='
p1625
g1625
S'SYM'
p1626
S'B-VP'
p1627
g5
tp1628
a(S'.01'
p1629
S'.01'
p1630
S'CD'
p1631
S'B-NP'
p1632
g5
tp1633
a(g91
g91
g91
g5
g5
tp1634
a(g42
g42
g42
g5
g5
tp1635
a(S'CONCLUSIONS'
p1636
S'CONCLUSIONS'
p1637
S'NNS'
p1638
S'B-NP'
p1639
g5
tp1640
a(S'We'
p1641
S'We'
p1642
S'PRP'
p1643
S'B-NP'
p1644
g5
tp1645
a(S'were'
p1646
S'be'
p1647
S'VBD'
p1648
S'B-VP'
p1649
g5
tp1650
a(S'able'
p1651
S'able'
p1652
S'JJ'
p1653
S'B-ADJP'
p1654
g5
tp1655
a(S'to'
p1656
S'to'
p1657
S'TO'
p1658
S'B-VP'
p1659
g5
tp1660
a(S'determine'
p1661
S'determine'
p1662
S'VB'
p1663
S'I-VP'
p1664
g5
tp1665
a(S'the'
p1666
S'the'
p1667
S'DT'
p1668
S'B-NP'
p1669
g5
tp1670
a(S'MCID'
p1671
S'MCID'
p1672
S'NN'
p1673
S'I-NP'
p1674
g5
tp1675
a(S'of'
p1676
S'of'
p1677
S'IN'
p1678
S'B-PP'
p1679
g5
tp1680
a(S'warfarin'
p1681
S'warfarin'
p1682
S'NN'
p1683
S'B-NP'
p1684
g5
tp1685
a(S'therapy'
p1686
S'therapy'
p1687
S'NN'
p1688
S'I-NP'
p1689
g5
tp1690
a(S'for'
p1691
S'for'
p1692
S'IN'
p1693
S'B-PP'
p1694
g5
tp1695
a(S'the'
p1696
S'the'
p1697
S'DT'
p1698
S'B-NP'
p1699
g5
tp1700
a(S'prevention'
p1701
S'prevention'
p1702
S'NN'
p1703
S'I-NP'
p1704
g5
tp1705
a(S'of'
p1706
S'of'
p1707
S'IN'
p1708
S'B-PP'
p1709
g5
tp1710
a(S'stroke'
p1711
S'stroke'
p1712
S'NN'
p1713
S'B-NP'
p1714
g5
tp1715
a(S'from'
p1716
S'from'
p1717
S'IN'
p1718
S'B-PP'
p1719
g5
tp1720
a(S'the'
p1721
S'the'
p1722
S'DT'
p1723
S'B-NP'
p1724
g5
tp1725
a(S'perspective'
p1726
S'perspective'
p1727
S'NN'
p1728
S'I-NP'
p1729
g5
tp1730
a(S'of'
p1731
S'of'
p1732
S'IN'
p1733
S'B-PP'
p1734
g5
tp1735
a(S'patients'
p1736
S'patient'
p1737
S'NNS'
p1738
S'B-NP'
p1739
g5
tp1740
a(S'with'
p1741
S'with'
p1742
S'IN'
p1743
S'B-PP'
p1744
g5
tp1745
a(S'nonvalvular'
p1746
S'nonvalvular'
p1747
S'JJ'
p1748
S'B-NP'
p1749
g5
tp1750
a(S'atrial'
p1751
S'atrial'
p1752
S'JJ'
p1753
S'I-NP'
p1754
g5
tp1755
a(S'fibrillation.'
p1756
S'fibrillation.'
p1757
S'NN'
p1758
S'I-NP'
p1759
g5
tp1760
a(S'Their'
p1761
S'Their'
p1762
S'PRP$'
p1763
S'B-NP'
p1764
g5
tp1765
a(S'MCIDs'
p1766
S'MCID'
p1767
S'NNS'
p1768
S'I-NP'
p1769
g5
tp1770
a(S'were'
p1771
S'be'
p1772
S'VBD'
p1773
S'B-VP'
p1774
g5
tp1775
a(S'much'
p1776
S'much'
p1777
S'RB'
p1778
S'B-ADJP'
p1779
g5
tp1780
a(S'smaller'
p1781
S'small'
p1782
S'JJR'
p1783
S'I-ADJP'
p1784
g5
tp1785
a(S'than'
p1786
S'than'
p1787
S'IN'
p1788
S'B-PP'
p1789
g5
tp1790
a(S'those'
p1791
S'those'
p1792
S'DT'
p1793
S'B-NP'
p1794
g5
tp1795
a(S'that'
p1796
S'that'
p1797
S'WDT'
p1798
S'B-NP'
p1799
g5
tp1800
a(S'have'
p1801
S'have'
p1802
S'VBP'
p1803
S'B-VP'
p1804
g5
tp1805
a(S'been'
p1806
S'be'
p1807
S'VBN'
p1808
S'I-VP'
p1809
g5
tp1810
a(S'implied'
p1811
S'imply'
p1812
S'VBN'
p1813
S'I-VP'
p1814
g5
tp1815
a(S'by'
p1816
S'by'
p1817
S'IN'
p1818
S'B-PP'
p1819
g5
tp1820
a(S'some'
p1821
S'some'
p1822
S'DT'
p1823
S'B-NP'
p1824
g5
tp1825
a(S'experts'
p1826
S'expert'
p1827
S'NNS'
p1828
S'I-NP'
p1829
g5
tp1830
a(S'and'
p1831
S'and'
p1832
S'CC'
p1833
g5
g5
tp1834
a(S'clinicians.'
p1835
S'clinicians.'
p1836
S'VB'
p1837
S'B-VP'
p1838
g5
tp1839
a(S'The'
p1840
S'The'
p1841
S'DT'
p1842
S'B-NP'
p1843
g5
tp1844
a(S'interview'
p1845
S'interview'
p1846
S'NN'
p1847
S'I-NP'
p1848
g5
tp1849
a(S'process'
p1850
S'process'
p1851
S'NN'
p1852
S'I-NP'
p1853
g5
tp1854
a(g226
g226
g226
g5
g5
tp1855
a(S'using'
p1856
S'use'
p1857
S'VBG'
p1858
S'B-VP'
p1859
g5
tp1860
a(S'the'
p1861
S'the'
p1862
S'DT'
p1863
S'B-NP'
p1864
g5
tp1865
a(S'flip'
p1866
S'flip'
p1867
S'NN'
p1868
S'I-NP'
p1869
g5
tp1870
a(S'chart'
p1871
S'chart'
p1872
S'NN'
p1873
S'I-NP'
p1874
g5
tp1875
a(S'approach'
p1876
S'approach'
p1877
S'NN'
p1878
S'I-NP'
p1879
g5
tp1880
a(g226
g226
g226
g5
g5
tp1881
a(S'appeared'
p1882
S'appear'
p1883
S'VBD'
p1884
S'B-VP'
p1885
g5
tp1886
a(S'to'
p1887
S'to'
p1888
S'TO'
p1889
S'I-VP'
p1890
g5
tp1891
a(S'improve'
p1892
S'improve'
p1893
S'VB'
p1894
S'I-VP'
p1895
g5
tp1896
a(S'the'
p1897
S'the'
p1898
S'DT'
p1899
S'B-NP'
p1900
g5
tp1901
a(S'patients'
p1902
S'patient'
p1903
S'NNS'
p1904
S'I-NP'
p1905
g5
tp1906
a(g576
g576
S'POS'
p1907
S'B-NP'
p1908
g5
tp1909
a(S'knowledge'
p1910
S'knowledge'
p1911
S'NN'
p1912
S'I-NP'
p1913
g5
tp1914
a(S'of'
p1915
S'of'
p1916
S'IN'
p1917
S'B-PP'
p1918
g5
tp1919
a(S'their'
p1920
S'their'
p1921
S'PRP$'
p1922
S'B-NP'
p1923
g5
tp1924
a(S'disease'
p1925
S'disease'
p1926
S'NN'
p1927
S'I-NP'
p1928
g5
tp1929
a(S'and'
p1930
S'and'
p1931
S'CC'
p1932
g5
g5
tp1933
a(S'its'
p1934
S'its'
p1935
S'PRP$'
p1936
S'B-NP'
p1937
g5
tp1938
a(S'consequences'
p1939
S'consequence'
p1940
S'NNS'
p1941
S'I-NP'
p1942
g5
tp1943
a(S'and'
p1944
S'and'
p1945
S'CC'
p1946
g5
g5
tp1947
a(S'treatment.'
p1948
S'treatment.'
p1949
S'VB'
p1950
S'B-VP'
p1951
g5
tp1952
a(S'The'
p1953
S'The'
p1954
S'DT'
p1955
S'B-NP'
p1956
g5
tp1957
a(S'method'
p1958
S'method'
p1959
S'NN'
p1960
S'I-NP'
p1961
g5
tp1962
a(S'used'
p1963
S'use'
p1964
S'VBN'
p1965
S'B-VP'
p1966
g5
tp1967
a(S'to'
p1968
S'to'
p1969
S'TO'
p1970
S'B-VP'
p1971
g5
tp1972
a(S'elicit'
p1973
S'elicit'
p1974
S'VB'
p1975
S'I-VP'
p1976
g5
tp1977
a(S'the'
p1978
S'the'
p1979
S'DT'
p1980
S'B-NP'
p1981
g5
tp1982
a(S'patients'
p1983
S'patient'
p1984
S'NNS'
p1985
S'I-NP'
p1986
g5
tp1987
a(g576
g576
S'POS'
p1988
S'B-NP'
p1989
g5
tp1990
a(S'MCIDs'
p1991
S'MCID'
p1992
S'NNS'
p1993
S'I-NP'
p1994
g5
tp1995
a(S'can'
p1996
S'can'
p1997
S'MD'
p1998
S'B-VP'
p1999
g5
tp2000
a(S'have'
p2001
S'have'
p2002
S'VB'
p2003
S'I-VP'
p2004
g5
tp2005
a(g611
g611
S'DT'
p2006
S'B-NP'
p2007
g5
tp2008
a(S'clinically'
p2009
S'clinically'
p2010
S'RB'
p2011
S'I-NP'
p2012
g5
tp2013
a(S'important'
p2014
S'important'
p2015
S'JJ'
p2016
S'I-NP'
p2017
g5
tp2018
a(S'effect'
p2019
S'effect'
p2020
S'NN'
p2021
S'I-NP'
p2022
g5
tp2023
a(S'on'
p2024
S'on'
p2025
S'IN'
p2026
S'B-PP'
p2027
g5
tp2028
a(S'patient'
p2029
S'patient'
p2030
S'NN'
p2031
S'B-NP'
p2032
g5
tp2033
a(S'responses.'
p2034
S'responses.'
p2035
S'NN'
p2036
S'I-NP'
p2037
g5
tp2038
a(S'The'
p2039
S'The'
p2040
S'DT'
p2041
S'B-NP'
p2042
g5
tp2043
a(S'method'
p2044
S'method'
p2045
S'NN'
p2046
S'I-NP'
p2047
g5
tp2048
a(S'used'
p2049
S'use'
p2050
S'VBN'
p2051
S'B-VP'
p2052
g5
tp2053
a(S'in'
p2054
S'in'
p2055
S'IN'
p2056
S'B-PP'
p2057
g5
tp2058
a(S'our'
p2059
S'our'
p2060
S'PRP$'
p2061
S'B-NP'
p2062
g5
tp2063
a(S'study'
p2064
S'study'
p2065
S'NN'
p2066
S'I-NP'
p2067
g5
tp2068
a(S'can'
p2069
S'can'
p2070
S'MD'
p2071
S'B-VP'
p2072
g5
tp2073
a(S'be'
p2074
S'be'
p2075
S'VB'
p2076
S'I-VP'
p2077
g5
tp2078
a(S'generalized'
p2079
S'generalize'
p2080
S'VBN'
p2081
S'I-VP'
p2082
g5
tp2083
a(S'to'
p2084
S'to'
p2085
S'TO'
p2086
S'B-PP'
p2087
g5
tp2088
a(S'other'
p2089
S'other'
p2090
S'JJ'
p2091
S'B-NP'
p2092
g5
tp2093
a(S'conditions'
p2094
S'condition'
p2095
S'NNS'
p2096
S'I-NP'
p2097
g5
tp2098
a(S'and'
p2099
S'and'
p2100
S'CC'
p2101
g5
g5
tp2102
a(g226
g226
g226
g5
g5
tp2103
a(S'thus'
p2104
S'thus'
p2105
S'RB'
p2106
S'B-ADVP'
p2107
g5
tp2108
a(g226
g226
g226
g5
g5
tp2109
a(S'could'
p2110
S'could'
p2111
S'MD'
p2112
S'B-VP'
p2113
g5
tp2114
a(S'be'
p2115
S'be'
p2116
S'VB'
p2117
S'I-VP'
p2118
g5
tp2119
a(S'helpful'
p2120
S'helpful'
p2121
S'JJ'
p2122
S'B-ADJP'
p2123
g5
tp2124
a(S'in'
p2125
S'in'
p2126
S'IN'
p2127
S'B-PP'
p2128
g5
tp2129
a(g520
g520
S'CD'
p2130
S'B-NP'
p2131
g5
tp2132
a(S'ways'
p2133
S'way'
p2134
S'NNS'
p2135
S'I-NP'
p2136
g5
tp2137
a(g314
g314
g314
g5
g5
tp2138
a(g84
g84
g84
S'B-LST'
p2139
g5
tp2140
a(g292
g292
S'LS'
p2141
S'I-LST'
p2142
g5
tp2143
a(g91
g91
g91
g5
g5
tp2144
a(S'from'
p2145
S'from'
p2146
S'IN'
p2147
S'B-PP'
p2148
g5
tp2149
a(g611
g611
S'DT'
p2150
S'B-NP'
p2151
g5
tp2152
a(S'clinical'
p2153
S'clinical'
p2154
S'JJ'
p2155
S'I-NP'
p2156
g5
tp2157
a(S'decision-making'
p2158
S'decision-making'
p2159
S'JJ'
p2160
S'I-NP'
p2161
g5
tp2162
a(S'perspective'
p2163
S'perspective'
p2164
S'NN'
p2165
S'I-NP'
p2166
g5
tp2167
a(g226
g226
g226
g5
g5
tp2168
a(S'it'
p2169
S'it'
p2170
S'PRP'
p2171
S'B-NP'
p2172
g5
tp2173
a(S'could'
p2174
S'could'
p2175
S'MD'
p2176
S'B-VP'
p2177
g5
tp2178
a(S'facilitate'
p2179
S'facilitate'
p2180
S'VB'
p2181
S'I-VP'
p2182
g5
tp2183
a(S'patient-physician'
p2184
S'patient-physician'
p2185
S'JJ'
p2186
S'B-NP'
p2187
g5
tp2188
a(S'communication'
p2189
S'communication'
p2190
S'NN'
p2191
S'I-NP'
p2192
g5
tp2193
a(g650
g650
g314
g5
g5
tp2194
a(g84
g84
g84
S'B-LST'
p2195
g5
tp2196
a(g173
g173
S'LS'
p2197
S'I-LST'
p2198
g5
tp2199
a(g91
g91
g91
g5
g5
tp2200
a(S'it'
p2201
S'it'
p2202
S'PRP'
p2203
S'B-NP'
p2204
g5
tp2205
a(S'could'
p2206
S'could'
p2207
S'MD'
p2208
S'B-VP'
p2209
g5
tp2210
a(S'clarify'
p2211
S'clarify'
p2212
S'VB'
p2213
S'I-VP'
p2214
g5
tp2215
a(S'the'
p2216
S'the'
p2217
S'DT'
p2218
S'B-NP'
p2219
g5
tp2220
a(S'patient'
p2221
S'patient'
p2222
S'NN'
p2223
S'I-NP'
p2224
g5
tp2225
a(S'perspective'
p2226
S'perspective'
p2227
S'NN'
p2228
S'I-NP'
p2229
g5
tp2230
a(S'when'
p2231
S'when'
p2232
S'WRB'
p2233
S'B-ADVP'
p2234
g5
tp2235
a(S'interpreting'
p2236
S'interpret'
p2237
S'VBG'
p2238
S'B-VP'
p2239
g5
tp2240
a(S'the'
p2241
S'the'
p2242
S'DT'
p2243
S'B-NP'
p2244
g5
tp2245
a(S'results'
p2246
S'result'
p2247
S'NNS'
p2248
S'I-NP'
p2249
g5
tp2250
a(S'of'
p2251
S'of'
p2252
S'IN'
p2253
S'B-PP'
p2254
g5
tp2255
a(S'previously'
p2256
S'previously'
p2257
S'RB'
p2258
S'B-NP'
p2259
g5
tp2260
a(S'completed'
p2261
S'complete'
p2262
S'VBN'
p2263
S'I-NP'
p2264
g5
tp2265
a(S'trials'
p2266
S'trial'
p2267
S'NNS'
p2268
S'I-NP'
p2269
g5
tp2270
a(g650
g650
g314
g5
g5
tp2271
a(S'and'
p2272
S'and'
p2273
S'CC'
p2274
g5
g5
tp2275
a(g84
g84
g84
S'B-LST'
p2276
g5
tp2277
a(g520
g520
S'LS'
p2278
S'I-LST'
p2279
g5
tp2280
a(g91
g91
g91
g5
g5
tp2281
a(S'it'
p2282
S'it'
p2283
S'PRP'
p2284
S'B-NP'
p2285
g5
tp2286
a(S'could'
p2287
S'could'
p2288
S'MD'
p2289
S'B-VP'
p2290
g5
tp2291
a(S'be'
p2292
S'be'
p2293
S'VB'
p2294
S'I-VP'
p2295
g5
tp2296
a(S'used'
p2297
S'use'
p2298
S'VBN'
p2299
S'I-VP'
p2300
g5
tp2301
a(S'to'
p2302
S'to'
p2303
S'TO'
p2304
S'B-VP'
p2305
g5
tp2306
a(S'derive'
p2307
S'derive'
p2308
S'VB'
p2309
S'I-VP'
p2310
g5
tp2311
a(S'more'
p2312
S'more'
p2313
S'RBR'
p2314
S'B-ADVP'
p2315
g5
tp2316
a(S'clinically'
p2317
S'clinically'
p2318
S'RB'
p2319
S'I-ADVP'
p2320
g5
tp2321
a(S'relevant'
p2322
S'relevant'
p2323
S'JJ'
p2324
S'B-NP'
p2325
g5
tp2326
a(S'sample'
p2327
S'sample'
p2328
S'NN'
p2329
S'I-NP'
p2330
g5
tp2331
a(S'sizes'
p2332
S'size'
p2333
S'VBZ'
p2334
S'B-VP'
p2335
g5
tp2336
a(S'for'
p2337
S'for'
p2338
S'IN'
p2339
S'B-PP'
p2340
g5
tp2341
a(S'randomized'
p2342
S'randomize'
p2343
S'VBN'
p2344
S'B-NP'
p2345
g5
tp2346
a(S'treatment'
p2347
S'treatment'
p2348
S'NN'
p2349
S'I-NP'
p2350
g5
tp2351
a(S'trials'
p2352
S'trial'
p2353
S'NNS'
p2354
S'I-NP'
p2355
g5
tp2356
a(g42
g42
g42
g5
g5
tp2357
a.