(lp0
(S'Methylphenidate'
p1
S'Methylphenidate'
p2
S'NN'
p3
S'B-NP'
p4
S'O'
p5
tp6
a(S'and'
p7
S'and'
p8
S'CC'
p9
S'I-NP'
p10
g5
tp11
a(S'baseball'
p12
S'baseball'
p13
S'NN'
p14
S'I-NP'
p15
g5
tp16
a(S'playing'
p17
S'playing'
p18
S'NN'
p19
S'I-NP'
p20
g5
tp21
a(S'in'
p22
S'in'
p23
S'IN'
p24
S'B-PP'
p25
g5
tp26
a(S'ADHD'
p27
S'ADHD'
p28
S'NN'
p29
S'B-NP'
p30
g5
tp31
a(S'children'
p32
S'child'
p33
S'NNS'
p34
S'I-NP'
p35
g5
tp36
a(S':'
p37
g37
g37
g5
g5
tp38
a(S'who'
p39
S'who'
p40
S'WP'
p41
S'B-NP'
p42
g5
tp43
a(S"'s"
p44
S"'"
p45
S'VBZ'
p46
S'B-VP'
p47
g5
tp48
a(S'on'
p49
S'on'
p50
S'IN'
p51
S'B-PP'
p52
g5
tp53
a(S'first'
p54
S'first'
p55
S'JJ'
p56
S'B-ADJP'
p57
g5
tp58
a(S'?'
p59
g59
S'.'
p60
g5
g5
tp61
a(S'The'
p62
S'The'
p63
S'DT'
p64
S'B-NP'
p65
g5
tp66
a(S'effects'
p67
S'effect'
p68
S'NNS'
p69
S'I-NP'
p70
g5
tp71
a(S'of'
p72
S'of'
p73
S'IN'
p74
S'B-PP'
p75
g5
tp76
a(S'0.3'
p77
S'0.3'
p78
S'CD'
p79
S'B-NP'
p80
g5
tp81
a(S'and'
p82
S'and'
p83
S'CC'
p84
S'I-NP'
p85
g5
tp86
a(S'0.6'
p87
S'0.6'
p88
S'CD'
p89
S'I-NP'
p90
g5
tp91
a(S'mg/kg'
p92
S'mg/kg'
p93
S'NN'
p94
S'I-NP'
p95
g5
tp96
a(S'methylphenidate'
p97
S'methylphenidate'
p98
S'NN'
p99
S'I-NP'
p100
g5
tp101
a(S'were'
p102
S'be'
p103
S'VBD'
p104
S'B-VP'
p105
g5
tp106
a(S'analyzed'
p107
S'analyze'
p108
S'VBN'
p109
S'I-VP'
p110
g5
tp111
a(S'in'
p112
S'in'
p113
S'IN'
p114
S'B-PP'
p115
g5
tp116
a(S'a'
p117
g117
S'DT'
p118
S'B-NP'
p119
g5
tp120
a(S'double-blind'
p121
S'double-blind'
p122
S'JJ'
p123
S'I-NP'
p124
g5
tp125
a(S','
p126
g126
g126
S'I-NP'
p127
g5
tp128
a(S'placebo-controlled'
p129
S'placebo-controlled'
p130
S'JJ'
p131
S'I-NP'
p132
g5
tp133
a(g126
g126
g126
S'I-NP'
p134
g5
tp135
a(S'cross-over'
p136
S'cross-over'
p137
S'JJ'
p138
S'I-NP'
p139
g5
tp140
a(S'study'
p141
S'study'
p142
S'NN'
p143
S'I-NP'
p144
g5
tp145
a(S'in'
p146
S'in'
p147
S'IN'
p148
S'B-PP'
p149
g5
tp150
a(S'which'
p151
S'which'
p152
S'WDT'
p153
S'B-NP'
p154
g5
tp155
a(S'17'
p156
S'17'
p157
S'CD'
p158
S'B-NP'
p159
g5
tp160
a(S'boys'
p161
S'boy'
p162
S'NNS'
p163
S'I-NP'
p164
g5
tp165
a(S'('
p166
g166
g166
g5
g5
tp167
a(S'ages'
p168
S'age'
p169
S'NNS'
p170
S'B-NP'
p171
g5
tp172
a(S'7.8-9.9'
p173
S'7.8-9.9'
p174
S'CD'
p175
S'B-NP'
p176
g5
tp177
a(S'years'
p178
S'year'
p179
S'NNS'
p180
S'I-NP'
p181
g5
tp182
a(S')'
p183
g183
g183
g5
g5
tp184
a(S'with'
p185
S'with'
p186
S'IN'
p187
S'B-PP'
p188
g5
tp189
a(S'attention'
p190
S'attention'
p191
S'NN'
p192
S'B-NP'
p193
g5
tp194
a(S'deficit'
p195
S'deficit'
p196
S'NN'
p197
S'I-NP'
p198
g5
tp199
a(S'hyperactivity'
p200
S'hyperactivity'
p201
S'NN'
p202
S'I-NP'
p203
g5
tp204
a(S'disorder'
p205
S'disorder'
p206
S'NN'
p207
S'I-NP'
p208
g5
tp209
a(g166
g166
g166
g5
g5
tp210
a(S'ADHD'
p211
S'ADHD'
p212
S'NN'
p213
S'B-NP'
p214
g5
tp215
a(g183
g183
g183
g5
g5
tp216
a(S'played'
p217
S'play'
p218
S'VBD'
p219
S'B-VP'
p220
g5
tp221
a(S'in'
p222
S'in'
p223
S'IN'
p224
S'B-PP'
p225
g5
tp226
a(S'baseball'
p227
S'baseball'
p228
S'NN'
p229
S'B-NP'
p230
g5
tp231
a(S'games.'
p232
S'games.'
p233
S'NN'
p234
S'I-NP'
p235
g5
tp236
a(S'Drug'
p237
S'Drug'
p238
S'NN'
p239
S'I-NP'
p240
g5
tp241
a(S'effects'
p242
S'effect'
p243
S'NNS'
p244
S'I-NP'
p245
g5
tp246
a(S'were'
p247
S'be'
p248
S'VBD'
p249
S'B-VP'
p250
g5
tp251
a(S'evaluated'
p252
S'evaluate'
p253
S'VBN'
p254
S'I-VP'
p255
g5
tp256
a(S'on'
p257
S'on'
p258
S'IN'
p259
S'B-PP'
p260
g5
tp261
a(S'children'
p262
S'child'
p263
S'NNS'
p264
S'B-NP'
p265
g5
tp266
a(S"'s"
p267
S"'s"
p268
S'POS'
p269
S'B-NP'
p270
g5
tp271
a(S'attention'
p272
S'attention'
p273
S'NN'
p274
S'I-NP'
p275
g5
tp276
a(S'during'
p277
S'during'
p278
S'IN'
p279
S'B-PP'
p280
g5
tp281
a(S'the'
p282
S'the'
p283
S'DT'
p284
S'B-NP'
p285
g5
tp286
a(S'game'
p287
S'game'
p288
S'NN'
p289
S'I-NP'
p290
g5
tp291
a(g126
g126
g126
g5
g5
tp292
a(S'as'
p293
S'as'
p294
S'IN'
p295
S'B-SBAR'
p296
g5
tp297
a(S'indicated'
p298
S'indicate'
p299
S'VBN'
p300
S'B-VP'
p301
g5
tp302
a(S'by'
p303
S'by'
p304
S'IN'
p305
S'B-PP'
p306
g5
tp307
a(S'their'
p308
S'their'
p309
S'PRP$'
p310
S'B-NP'
p311
g5
tp312
a(S'on-task'
p313
S'on-task'
p314
S'JJ'
p315
S'I-NP'
p316
g5
tp317
a(S'behavior'
p318
S'behavior'
p319
S'NN'
p320
S'I-NP'
p321
g5
tp322
a(S'on'
p323
S'on'
p324
S'IN'
p325
S'B-PP'
p326
g5
tp327
a(S'the'
p328
S'the'
p329
S'DT'
p330
S'B-NP'
p331
g5
tp332
a(S'field'
p333
S'field'
p334
S'NN'
p335
S'I-NP'
p336
g5
tp337
a(S'and'
p338
S'and'
p339
S'CC'
p340
g5
g5
tp341
a(S'their'
p342
S'their'
p343
S'PRP$'
p344
S'B-NP'
p345
g5
tp346
a(S'ability'
p347
S'ability'
p348
S'NN'
p349
S'I-NP'
p350
g5
tp351
a(S'to'
p352
S'to'
p353
S'TO'
p354
S'B-VP'
p355
g5
tp356
a(S'answer'
p357
S'answer'
p358
S'VB'
p359
S'I-VP'
p360
g5
tp361
a(S'questions'
p362
S'question'
p363
S'NNS'
p364
S'B-NP'
p365
g5
tp366
a(S'about'
p367
S'about'
p368
S'IN'
p369
S'B-PP'
p370
g5
tp371
a(S'the'
p372
S'the'
p373
S'DT'
p374
S'B-NP'
p375
g5
tp376
a(S'status'
p377
S'status'
p378
S'NN'
p379
S'I-NP'
p380
g5
tp381
a(S'of'
p382
S'of'
p383
S'IN'
p384
S'B-PP'
p385
g5
tp386
a(S'the'
p387
S'the'
p388
S'DT'
p389
S'B-NP'
p390
g5
tp391
a(S'game'
p392
S'game'
p393
S'NN'
p394
S'I-NP'
p395
g5
tp396
a(S'at'
p397
S'at'
p398
S'IN'
p399
S'B-PP'
p400
g5
tp401
a(S'all'
p402
S'all'
p403
S'DT'
p404
S'B-NP'
p405
g5
tp406
a(S'times.'
p407
S'times.'
p408
S'NN'
p409
S'I-NP'
p410
g5
tp411
a(S'Judgment'
p412
S'Judgment'
p413
S'NN'
p414
S'I-NP'
p415
g5
tp416
a(S'during'
p417
S'during'
p418
S'IN'
p419
S'B-PP'
p420
g5
tp421
a(S'batting'
p422
S'batting'
p423
S'NN'
p424
S'B-NP'
p425
g5
tp426
a(g126
g126
g126
g5
g5
tp427
a(S'batting'
p428
S'bat'
p429
S'VBG'
p430
S'B-VP'
p431
g5
tp432
a(S'skill'
p433
S'skill'
p434
S'NN'
p435
S'B-NP'
p436
g5
tp437
a(S'during'
p438
S'during'
p439
S'IN'
p440
S'B-PP'
p441
g5
tp442
a(S'the'
p443
S'the'
p444
S'DT'
p445
S'B-NP'
p446
g5
tp447
a(S'game'
p448
S'game'
p449
S'NN'
p450
S'I-NP'
p451
g5
tp452
a(g126
g126
g126
g5
g5
tp453
a(S'and'
p454
S'and'
p455
S'CC'
p456
g5
g5
tp457
a(S'performance'
p458
S'performance'
p459
S'NN'
p460
S'B-NP'
p461
g5
tp462
a(S'on'
p463
S'on'
p464
S'IN'
p465
S'B-PP'
p466
g5
tp467
a(S'skill'
p468
S'skill'
p469
S'NN'
p470
S'B-NP'
p471
g5
tp472
a(S'drills'
p473
S'drill'
p474
S'NNS'
p475
S'I-NP'
p476
g5
tp477
a(S'prior'
p478
S'prior'
p479
S'RB'
p480
S'B-ADVP'
p481
g5
tp482
a(S'to'
p483
S'to'
p484
S'TO'
p485
S'B-PP'
p486
g5
tp487
a(S'the'
p488
S'the'
p489
S'DT'
p490
S'B-NP'
p491
g5
tp492
a(S'game'
p493
S'game'
p494
S'NN'
p495
S'I-NP'
p496
g5
tp497
a(S'were'
p498
S'be'
p499
S'VBD'
p500
S'B-VP'
p501
g5
tp502
a(S'also'
p503
S'also'
p504
S'RB'
p505
S'I-VP'
p506
g5
tp507
a(S'assessed'
p508
S'assess'
p509
S'VBN'
p510
S'I-VP'
p511
g5
tp512
a(S'as'
p513
S'as'
p514
S'IN'
p515
S'B-PP'
p516
g5
tp517
a(g117
g117
S'DT'
p518
S'B-NP'
p519
g5
tp520
a(S'function'
p521
S'function'
p522
S'NN'
p523
S'I-NP'
p524
g5
tp525
a(S'of'
p526
S'of'
p527
S'IN'
p528
S'B-PP'
p529
g5
tp530
a(S'medication.'
p531
S'medication.'
p532
S'NN'
p533
S'B-NP'
p534
g5
tp535
a(S'Results'
p536
S'Result'
p537
S'NNS'
p538
S'I-NP'
p539
g5
tp540
a(S'revealed'
p541
S'reveal'
p542
S'VBD'
p543
S'B-VP'
p544
g5
tp545
a(S'that'
p546
S'that'
p547
S'IN'
p548
S'B-SBAR'
p549
g5
tp550
a(S'methylphenidate'
p551
S'methylphenidate'
p552
S'NN'
p553
S'B-NP'
p554
g5
tp555
a(S'had'
p556
S'have'
p557
S'VBD'
p558
S'B-VP'
p559
g5
tp560
a(g117
g117
S'DT'
p561
S'B-NP'
p562
g5
tp563
a(S'beneficial'
p564
S'beneficial'
p565
S'JJ'
p566
S'I-NP'
p567
g5
tp568
a(S'effect'
p569
S'effect'
p570
S'NN'
p571
S'I-NP'
p572
g5
tp573
a(S'on'
p574
S'on'
p575
S'IN'
p576
S'B-PP'
p577
g5
tp578
a(S'attending'
p579
S'attend'
p580
S'VBG'
p581
S'B-VP'
p582
g5
tp583
a(S'during'
p584
S'during'
p585
S'IN'
p586
S'B-PP'
p587
g5
tp588
a(S'the'
p589
S'the'
p590
S'DT'
p591
S'B-NP'
p592
g5
tp593
a(S'game'
p594
S'game'
p595
S'NN'
p596
S'I-NP'
p597
g5
tp598
a(g60
g60
g60
g5
g5
tp599
a.