(lp0
(S'Use'
p1
S'Use'
p2
S'NN'
p3
S'B-NP'
p4
S'O'
p5
tp6
a(S'of'
p7
S'of'
p8
S'IN'
p9
S'B-PP'
p10
g5
tp11
a(S'the'
p12
S'the'
p13
S'DT'
p14
S'B-NP'
p15
g5
tp16
a(S'oral'
p17
S'oral'
p18
S'JJ'
p19
S'I-NP'
p20
g5
tp21
a(S'neuraminidase'
p22
S'neuraminidase'
p23
S'NN'
p24
S'I-NP'
p25
g5
tp26
a(S'inhibitor'
p27
S'inhibitor'
p28
S'NN'
p29
S'I-NP'
p30
g5
tp31
a(S'oseltamivir'
p32
S'oseltamivir'
p33
S'NN'
p34
S'I-NP'
p35
g5
tp36
a(S'in'
p37
S'in'
p38
S'IN'
p39
S'B-PP'
p40
g5
tp41
a(S'experimental'
p42
S'experimental'
p43
S'JJ'
p44
S'B-NP'
p45
g5
tp46
a(S'human'
p47
S'human'
p48
S'JJ'
p49
S'I-NP'
p50
g5
tp51
a(S'influenza'
p52
S'influenza'
p53
S'NN'
p54
S'I-NP'
p55
g5
tp56
a(S':'
p57
g57
g57
g5
g5
tp58
a(S'randomized'
p59
S'randomize'
p60
S'VBN'
p61
S'B-NP'
p62
g5
tp63
a(S'controlled'
p64
S'control'
p65
S'VBN'
p66
S'I-NP'
p67
g5
tp68
a(S'trials'
p69
S'trial'
p70
S'NNS'
p71
S'I-NP'
p72
g5
tp73
a(S'for'
p74
S'for'
p75
S'IN'
p76
S'B-PP'
p77
g5
tp78
a(S'prevention'
p79
S'prevention'
p80
S'NN'
p81
S'B-NP'
p82
g5
tp83
a(S'and'
p84
S'and'
p85
S'CC'
p86
S'I-NP'
p87
g5
tp88
a(S'treatment'
p89
S'treatment'
p90
S'NN'
p91
S'I-NP'
p92
g5
tp93
a(S'.'
p94
g94
g94
g5
g5
tp95
a(S'CONTEXT'
p96
S'CONTEXT'
p97
S'NN'
p98
S'B-NP'
p99
S'B-protein'
p100
tp101
a(S'Influenza'
p102
S'Influenza'
p103
S'NN'
p104
S'I-NP'
p105
S'I-protein'
p106
tp107
a(S'virus'
p108
S'virus'
p109
S'NN'
p110
S'I-NP'
p111
S'I-protein'
p112
tp113
a(S'neuraminidase'
p114
S'neuraminidase'
p115
S'NN'
p116
S'I-NP'
p117
S'I-protein'
p118
tp119
a(S'is'
p120
S'be'
p121
S'VBZ'
p122
S'B-VP'
p123
g5
tp124
a(S'thought'
p125
S'think'
p126
S'VBN'
p127
S'I-VP'
p128
g5
tp129
a(S'to'
p130
S'to'
p131
S'TO'
p132
S'I-VP'
p133
g5
tp134
a(S'be'
p135
S'be'
p136
S'VB'
p137
S'I-VP'
p138
g5
tp139
a(S'essential'
p140
S'essential'
p141
S'JJ'
p142
S'B-ADJP'
p143
g5
tp144
a(S'for'
p145
S'for'
p146
S'IN'
p147
S'B-PP'
p148
g5
tp149
a(S'virus'
p150
S'virus'
p151
S'NN'
p152
S'B-NP'
p153
g5
tp154
a(S'replication'
p155
S'replication'
p156
S'NN'
p157
S'I-NP'
p158
g5
tp159
a(S'in'
p160
S'in'
p161
S'IN'
p162
S'B-PP'
p163
g5
tp164
a(S'humans'
p165
S'human'
p166
S'NNS'
p167
S'B-NP'
p168
g5
tp169
a(S';'
p170
g170
g57
g5
g5
tp171
a(S'however'
p172
S'however'
p173
S'RB'
p174
S'B-ADVP'
p175
g5
tp176
a(S','
p177
g177
g177
g5
g5
tp178
a(S'to'
p179
S'to'
p180
S'TO'
p181
S'B-PP'
p182
g5
tp183
a(S'date'
p184
S'date'
p185
S'NN'
p186
S'B-NP'
p187
g5
tp188
a(g177
g177
g177
g5
g5
tp189
a(S'available'
p190
S'available'
p191
S'JJ'
p192
S'B-NP'
p193
g5
tp194
a(S'neuraminidase'
p195
S'neuraminidase'
p196
S'NN'
p197
S'I-NP'
p198
g5
tp199
a(S'inhibitors'
p200
S'inhibitor'
p201
S'NNS'
p202
S'I-NP'
p203
g5
tp204
a(S'are'
p205
S'be'
p206
S'VBP'
p207
S'B-VP'
p208
g5
tp209
a(S'limited'
p210
S'limit'
p211
S'VBN'
p212
S'I-VP'
p213
g5
tp214
a(S'to'
p215
S'to'
p216
S'TO'
p217
S'B-PP'
p218
g5
tp219
a(S'zanamivir'
p220
S'zanamivir'
p221
S'NN'
p222
S'B-NP'
p223
g5
tp224
a(g177
g177
g177
g5
g5
tp225
a(S'which'
p226
S'which'
p227
S'WDT'
p228
S'B-NP'
p229
g5
tp230
a(S'is'
p231
S'be'
p232
S'VBZ'
p233
S'B-VP'
p234
g5
tp235
a(S'topically'
p236
S'topically'
p237
S'RB'
p238
S'I-VP'
p239
g5
tp240
a(S'administered'
p241
S'administer'
p242
S'VBN'
p243
S'I-VP'
p244
g5
tp245
a(g94
g94
g94
g5
g5
tp246
a(S'OBJECTIVE'
p247
S'OBJECTIVE'
p248
S'NN'
p249
S'B-NP'
p250
g5
tp251
a(S'To'
p252
S'To'
p253
S'TO'
p254
S'B-VP'
p255
g5
tp256
a(S'determine'
p257
S'determine'
p258
S'VB'
p259
S'I-VP'
p260
g5
tp261
a(S'the'
p262
S'the'
p263
S'DT'
p264
S'B-NP'
p265
g5
tp266
a(S'safety'
p267
S'safety'
p268
S'NN'
p269
S'I-NP'
p270
g5
tp271
a(g177
g177
g177
g5
g5
tp272
a(S'tolerability'
p273
S'tolerability'
p274
S'NN'
p275
S'B-NP'
p276
g5
tp277
a(g177
g177
g177
g5
g5
tp278
a(S'and'
p279
S'and'
p280
S'CC'
p281
g5
g5
tp282
a(S'antiviral'
p283
S'antiviral'
p284
S'JJ'
p285
S'B-NP'
p286
g5
tp287
a(S'activity'
p288
S'activity'
p289
S'NN'
p290
S'I-NP'
p291
g5
tp292
a(S'of'
p293
S'of'
p294
S'IN'
p295
S'B-PP'
p296
g5
tp297
a(S'oral'
p298
S'oral'
p299
S'JJ'
p300
S'B-NP'
p301
g5
tp302
a(S'neuraminidase'
p303
S'neuraminidase'
p304
S'NN'
p305
S'I-NP'
p306
g5
tp307
a(S'inhibitor'
p308
S'inhibitor'
p309
S'NN'
p310
S'I-NP'
p311
g5
tp312
a(S'oseltamivir'
p313
S'oseltamivir'
p314
S'NN'
p315
S'I-NP'
p316
g5
tp317
a(S'('
p318
g318
g318
g5
g5
tp319
a(S'GS4104/Ro64-0796'
p320
S'GS4104/Ro64-0796'
p321
S'NN'
p322
S'B-NP'
p323
g5
tp324
a(S')'
p325
g325
g325
g5
g5
tp326
a(S'for'
p327
S'for'
p328
S'IN'
p329
S'B-PP'
p330
g5
tp331
a(S'prevention'
p332
S'prevention'
p333
S'NN'
p334
S'B-NP'
p335
g5
tp336
a(S'and'
p337
S'and'
p338
S'CC'
p339
g5
g5
tp340
a(S'the'
p341
S'the'
p342
S'DT'
p343
S'B-NP'
p344
g5
tp345
a(S'early'
p346
S'early'
p347
S'JJ'
p348
S'I-NP'
p349
g5
tp350
a(S'treatment'
p351
S'treatment'
p352
S'NN'
p353
S'I-NP'
p354
g5
tp355
a(S'of'
p356
S'of'
p357
S'IN'
p358
S'B-PP'
p359
g5
tp360
a(S'influenza'
p361
S'influenza'
p362
S'NN'
p363
S'B-NP'
p364
g5
tp365
a(S'in'
p366
S'in'
p367
S'IN'
p368
S'B-PP'
p369
g5
tp370
a(S'experimentally'
p371
S'experimentally'
p372
S'RB'
p373
S'B-NP'
p374
g5
tp375
a(S'infected'
p376
S'infected'
p377
S'JJ'
p378
S'I-NP'
p379
g5
tp380
a(S'humans'
p381
S'human'
p382
S'NNS'
p383
S'I-NP'
p384
g5
tp385
a(g94
g94
g94
g5
g5
tp386
a(S'DESIGN'
p387
S'DESIGN'
p388
S'NN'
p389
S'B-NP'
p390
g5
tp391
a(S'Two'
p392
S'Two'
p393
S'CD'
p394
S'I-NP'
p395
g5
tp396
a(S'randomized'
p397
S'randomize'
p398
S'VBN'
p399
S'B-VP'
p400
g5
tp401
a(g177
g177
g177
g5
g5
tp402
a(S'double-blind'
p403
S'double-blind'
p404
S'JJ'
p405
S'B-NP'
p406
g5
tp407
a(g177
g177
g177
S'I-NP'
p408
g5
tp409
a(S'placebo-controlled'
p410
S'placebo-controlled'
p411
S'JJ'
p412
S'I-NP'
p413
g5
tp414
a(S'trials'
p415
S'trial'
p416
S'NNS'
p417
S'I-NP'
p418
g5
tp419
a(S'conducted'
p420
S'conduct'
p421
S'VBN'
p422
S'B-VP'
p423
g5
tp424
a(S'between'
p425
S'between'
p426
S'IN'
p427
S'B-PP'
p428
g5
tp429
a(S'June'
p430
S'June'
p431
S'NNP'
p432
S'B-NP'
p433
g5
tp434
a(S'and'
p435
S'and'
p436
S'CC'
p437
g5
g5
tp438
a(S'July'
p439
S'July'
p440
S'NNP'
p441
S'B-NP'
p442
g5
tp443
a(S'1997'
p444
S'1997'
p445
S'CD'
p446
S'I-NP'
p447
g5
tp448
a(g94
g94
g94
g5
g5
tp449
a(S'SETTING'
p450
S'SETTING'
p451
S'VBG'
p452
S'B-VP'
p453
g5
tp454
a(S'Individual'
p455
S'Individual'
p456
S'JJ'
p457
S'B-NP'
p458
g5
tp459
a(S'hotel'
p460
S'hotel'
p461
S'NN'
p462
S'I-NP'
p463
g5
tp464
a(S'rooms'
p465
S'room'
p466
S'NNS'
p467
S'I-NP'
p468
g5
tp469
a(g170
g170
g57
g5
g5
tp470
a(S'2'
p471
g471
S'CD'
p472
S'B-NP'
p473
g5
tp474
a(S'large'
p475
S'large'
p476
S'JJ'
p477
S'I-NP'
p478
g5
tp479
a(S'US'
p480
S'US'
p481
S'NNP'
p482
S'I-NP'
p483
g5
tp484
a(S'university'
p485
S'university'
p486
S'NN'
p487
S'I-NP'
p488
g5
tp489
a(S'medical'
p490
S'medical'
p491
S'JJ'
p492
S'I-NP'
p493
g5
tp494
a(S'schools'
p495
S'school'
p496
S'NNS'
p497
S'I-NP'
p498
g5
tp499
a(g94
g94
g94
g5
g5
tp500
a(S'PARTICIPANTS'
p501
S'PARTICIPANTS'
p502
S'NNS'
p503
S'B-NP'
p504
g5
tp505
a(S'A'
p506
g506
S'DT'
p507
S'B-NP'
p508
g5
tp509
a(S'total'
p510
S'total'
p511
S'NN'
p512
S'I-NP'
p513
g5
tp514
a(S'of'
p515
S'of'
p516
S'IN'
p517
S'B-PP'
p518
g5
tp519
a(S'117'
p520
S'117'
p521
S'CD'
p522
S'B-NP'
p523
g5
tp524
a(S'healthy'
p525
S'healthy'
p526
S'JJ'
p527
S'I-NP'
p528
g5
tp529
a(S'adult'
p530
S'adult'
p531
S'JJ'
p532
S'I-NP'
p533
g5
tp534
a(S'volunteers'
p535
S'volunteer'
p536
S'NNS'
p537
S'I-NP'
p538
g5
tp539
a(g318
g318
g318
g5
g5
tp540
a(S'aged'
p541
S'age'
p542
S'VBN'
p543
S'B-VP'
p544
g5
tp545
a(S'18-40'
p546
S'18-40'
p547
S'CD'
p548
S'B-NP'
p549
g5
tp550
a(S'years'
p551
S'year'
p552
S'NNS'
p553
S'I-NP'
p554
g5
tp555
a(g170
g170
g57
g5
g5
tp556
a(S'median'
p557
S'median'
p558
S'JJ'
p559
S'B-NP'
p560
g5
tp561
a(S'age'
p562
S'age'
p563
S'NN'
p564
S'I-NP'
p565
g5
tp566
a(g177
g177
g177
g5
g5
tp567
a(S'21'
p568
S'21'
p569
S'CD'
p570
S'B-NP'
p571
g5
tp572
a(S'years'
p573
S'year'
p574
S'NNS'
p575
S'I-NP'
p576
g5
tp577
a(g325
g325
g325
g5
g5
tp578
a(S'who'
p579
S'who'
p580
S'WP'
p581
S'B-NP'
p582
g5
tp583
a(S'were'
p584
S'be'
p585
S'VBD'
p586
S'B-VP'
p587
g5
tp588
a(S'susceptible'
p589
S'susceptible'
p590
S'JJ'
p591
S'B-ADJP'
p592
g5
tp593
a(g318
g318
g318
g5
g5
tp594
a(S'hemagglutination-inhibition'
p595
S'hemagglutination-inhibition'
p596
S'NN'
p597
S'B-NP'
p598
g5
tp599
a(S'antibody'
p600
S'antibody'
p601
S'NN'
p602
S'I-NP'
p603
g5
tp604
a(S'titer'
p605
S'titer'
p606
S'NN'
p607
S'I-NP'
p608
g5
tp609
a(S'<'
p610
g610
S'SYM'
p611
S'B-VP'
p612
g5
tp613
a(S'or'
p614
S'or'
p615
S'CC'
p616
g5
g5
tp617
a(S'=1'
p618
S'=1'
p619
S'CD'
p620
S'B-NP'
p621
g5
tp622
a(g57
g57
g57
g5
g5
tp623
a(S'8'
p624
g624
S'CD'
p625
S'B-NP'
p626
g5
tp627
a(g325
g325
g325
g5
g5
tp628
a(g94
g94
g94
g5
g5
tp629
a(S'INTERVENTIONS'
p630
S'INTERVENTIONS'
p631
S'NNS'
p632
S'B-NP'
p633
g5
tp634
a(S'All'
p635
S'All'
p636
S'DT'
p637
S'B-NP'
p638
g5
tp639
a(S'subjects'
p640
S'subject'
p641
S'NNS'
p642
S'I-NP'
p643
g5
tp644
a(S'were'
p645
S'be'
p646
S'VBD'
p647
S'B-VP'
p648
g5
tp649
a(S'inoculated'
p650
S'inoculate'
p651
S'VBN'
p652
S'I-VP'
p653
g5
tp654
a(S'intranasally'
p655
S'intranasally'
p656
S'RB'
p657
S'B-ADVP'
p658
g5
tp659
a(S'with'
p660
S'with'
p661
S'IN'
p662
S'B-PP'
p663
g5
tp664
a(S'influenza'
p665
S'influenza'
p666
S'NN'
p667
S'B-NP'
p668
g5
tp669
a(S'A/Texas/36/91'
p670
S'A/Texas/36/91'
p671
S'NN'
p672
S'I-NP'
p673
g5
tp674
a(g318
g318
g318
g5
g5
tp675
a(S'H1N1'
p676
S'H1N1'
p677
S'NN'
p678
S'B-NP'
p679
g5
tp680
a(g325
g325
g325
g5
g5
tp681
a(S'virus.'
p682
S'virus.'
p683
S'NN'
p684
S'B-NP'
p685
g5
tp686
a(S'For'
p687
S'For'
p688
S'IN'
p689
S'B-PP'
p690
g5
tp691
a(S'the'
p692
S'the'
p693
S'DT'
p694
S'B-NP'
p695
g5
tp696
a(S'prophylaxis'
p697
S'prophylaxis'
p698
S'NN'
p699
S'I-NP'
p700
g5
tp701
a(S'study'
p702
S'study'
p703
S'NN'
p704
S'I-NP'
p705
g5
tp706
a(g177
g177
g177
g5
g5
tp707
a(S'oral'
p708
S'oral'
p709
S'JJ'
p710
S'B-NP'
p711
g5
tp712
a(S'oseltamivir'
p713
S'oseltamivir'
p714
S'NN'
p715
S'I-NP'
p716
g5
tp717
a(g318
g318
g318
g5
g5
tp718
a(S'100'
p719
S'100'
p720
S'CD'
p721
S'B-NP'
p722
g5
tp723
a(S'mg'
p724
S'mg'
p725
S'NN'
p726
S'I-NP'
p727
g5
tp728
a(S'once'
p729
S'once'
p730
S'RB'
p731
S'B-ADVP'
p732
g5
tp733
a(S'daily'
p734
S'daily'
p735
S'RB'
p736
S'I-ADVP'
p737
g5
tp738
a(S'['
p739
g739
g318
g5
g5
tp740
a(S'n'
p741
g741
S'NN'
p742
S'B-NP'
p743
g5
tp744
a(S'='
p745
g745
S'SYM'
p746
S'B-VP'
p747
g5
tp748
a(S'12'
p749
S'12'
p750
S'CD'
p751
S'B-NP'
p752
g5
tp753
a(S']'
p754
g754
g325
g5
g5
tp755
a(g177
g177
g177
g5
g5
tp756
a(S'100'
p757
S'100'
p758
S'CD'
p759
S'B-NP'
p760
g5
tp761
a(S'mg'
p762
S'mg'
p763
S'NN'
p764
S'I-NP'
p765
g5
tp766
a(S'twice'
p767
S'twice'
p768
S'RB'
p769
S'B-ADVP'
p770
g5
tp771
a(S'daily'
p772
S'daily'
p773
S'RB'
p774
g5
g5
tp775
a(g739
g739
g318
g5
g5
tp776
a(g741
g741
S'NN'
p777
S'B-NP'
p778
g5
tp779
a(g745
g745
S'SYM'
p780
S'B-VP'
p781
g5
tp782
a(S'12'
p783
S'12'
p784
S'CD'
p785
S'B-NP'
p786
g5
tp787
a(g754
g754
g325
g5
g5
tp788
a(g177
g177
g177
g5
g5
tp789
a(S'or'
p790
S'or'
p791
S'CC'
p792
g5
g5
tp793
a(S'matching'
p794
S'match'
p795
S'VBG'
p796
S'B-VP'
p797
g5
tp798
a(S'placebo'
p799
S'placebo'
p800
S'NN'
p801
S'B-NP'
p802
g5
tp803
a(g739
g739
g318
g5
g5
tp804
a(g741
g741
S'NN'
p805
S'B-NP'
p806
g5
tp807
a(g745
g745
S'SYM'
p808
S'B-VP'
p809
g5
tp810
a(S'13'
p811
S'13'
p812
S'CD'
p813
S'B-NP'
p814
g5
tp815
a(g754
g754
g325
g5
g5
tp816
a(g177
g177
g177
g5
g5
tp817
a(S'starting'
p818
S'start'
p819
S'VBG'
p820
S'B-VP'
p821
g5
tp822
a(S'26'
p823
S'26'
p824
S'CD'
p825
S'B-NP'
p826
g5
tp827
a(S'hours'
p828
S'hour'
p829
S'NNS'
p830
S'I-NP'
p831
g5
tp832
a(S'before'
p833
S'before'
p834
S'IN'
p835
S'B-PP'
p836
g5
tp837
a(S'virus'
p838
S'virus'
p839
S'NN'
p840
S'B-NP'
p841
g5
tp842
a(S'inoculation'
p843
S'inoculation'
p844
S'NN'
p845
S'I-NP'
p846
g5
tp847
a(g325
g325
g325
g5
g5
tp848
a(S'was'
p849
S'be'
p850
S'VBD'
p851
S'B-VP'
p852
g5
tp853
a(S'administered.'
p854
S'administered.'
p855
S'VBN'
p856
S'I-VP'
p857
g5
tp858
a(S'For'
p859
S'For'
p860
S'IN'
p861
S'B-PP'
p862
g5
tp863
a(S'the'
p864
S'the'
p865
S'DT'
p866
S'B-NP'
p867
g5
tp868
a(S'treatment'
p869
S'treatment'
p870
S'NN'
p871
S'I-NP'
p872
g5
tp873
a(S'study'
p874
S'study'
p875
S'NN'
p876
S'I-NP'
p877
g5
tp878
a(g177
g177
g177
g5
g5
tp879
a(S'the'
p880
S'the'
p881
S'DT'
p882
S'B-NP'
p883
g5
tp884
a(S'same'
p885
S'same'
p886
S'JJ'
p887
S'I-NP'
p888
g5
tp889
a(S'drug'
p890
S'drug'
p891
S'NN'
p892
S'I-NP'
p893
g5
tp894
a(S'was'
p895
S'be'
p896
S'VBD'
p897
S'B-VP'
p898
g5
tp899
a(S'given'
p900
S'give'
p901
S'VBN'
p902
S'I-VP'
p903
g5
tp904
a(g318
g318
g318
g5
g5
tp905
a(S'20'
p906
S'20'
p907
S'CD'
p908
S'B-NP'
p909
g5
tp910
a(S'mg'
p911
S'mg'
p912
S'NN'
p913
S'I-NP'
p914
g5
tp915
a(g177
g177
g177
g5
g5
tp916
a(S'100'
p917
S'100'
p918
S'CD'
p919
S'B-NP'
p920
g5
tp921
a(S'mg'
p922
S'mg'
p923
S'NN'
p924
S'I-NP'
p925
g5
tp926
a(g177
g177
g177
g5
g5
tp927
a(S'or'
p928
S'or'
p929
S'CC'
p930
g5
g5
tp931
a(S'200'
p932
S'200'
p933
S'CD'
p934
S'B-NP'
p935
g5
tp936
a(S'mg'
p937
S'mg'
p938
S'NN'
p939
S'I-NP'
p940
g5
tp941
a(S'twice'
p942
S'twice'
p943
S'RB'
p944
S'B-ADVP'
p945
g5
tp946
a(S'daily'
p947
S'daily'
p948
S'RB'
p949
S'I-ADVP'
p950
g5
tp951
a(g177
g177
g177
g5
g5
tp952
a(S'200'
p953
S'200'
p954
S'CD'
p955
S'B-NP'
p956
g5
tp957
a(S'mg'
p958
S'mg'
p959
S'NN'
p960
S'I-NP'
p961
g5
tp962
a(S'once'
p963
S'once'
p964
S'RB'
p965
S'B-ADVP'
p966
g5
tp967
a(S'daily'
p968
S'daily'
p969
S'RB'
p970
S'I-ADVP'
p971
g5
tp972
a(g177
g177
g177
g5
g5
tp973
a(S'or'
p974
S'or'
p975
S'CC'
p976
g5
g5
tp977
a(S'matching'
p978
S'match'
p979
S'VBG'
p980
S'B-VP'
p981
g5
tp982
a(S'placebo'
p983
S'placebo'
p984
S'NN'
p985
S'B-NP'
p986
g5
tp987
a(g739
g739
g318
g5
g5
tp988
a(g741
g741
S'NN'
p989
S'B-NP'
p990
g5
tp991
a(g745
g745
S'SYM'
p992
S'B-VP'
p993
g5
tp994
a(S'16'
p995
S'16'
p996
S'CD'
p997
S'B-NP'
p998
g5
tp999
a(g754
g754
g325
g5
g5
tp1000
a(g177
g177
g177
g5
g5
tp1001
a(S'in'
p1002
S'in'
p1003
S'IN'
p1004
S'B-PP'
p1005
g5
tp1006
a(S'each'
p1007
S'each'
p1008
S'DT'
p1009
S'B-NP'
p1010
g5
tp1011
a(S'group'
p1012
S'group'
p1013
S'NN'
p1014
S'I-NP'
p1015
g5
tp1016
a(S'starting'
p1017
S'start'
p1018
S'VBG'
p1019
S'B-VP'
p1020
g5
tp1021
a(S'28'
p1022
S'28'
p1023
S'CD'
p1024
S'B-NP'
p1025
g5
tp1026
a(S'hours'
p1027
S'hour'
p1028
S'NNS'
p1029
S'I-NP'
p1030
g5
tp1031
a(S'after'
p1032
S'after'
p1033
S'IN'
p1034
S'B-PP'
p1035
g5
tp1036
a(S'inoculation'
p1037
S'inoculation'
p1038
S'NN'
p1039
S'B-NP'
p1040
g5
tp1041
a(g325
g325
g325
g5
g5
tp1042
a(g94
g94
g94
g5
g5
tp1043
a(S'All'
p1044
S'All'
p1045
S'DT'
p1046
S'B-NP'
p1047
g5
tp1048
a(S'regimens'
p1049
S'regimen'
p1050
S'NNS'
p1051
S'I-NP'
p1052
g5
tp1053
a(S'were'
p1054
S'be'
p1055
S'VBD'
p1056
S'B-VP'
p1057
g5
tp1058
a(S'continued'
p1059
S'continue'
p1060
S'VBN'
p1061
S'I-VP'
p1062
g5
tp1063
a(S'for'
p1064
S'for'
p1065
S'IN'
p1066
S'B-PP'
p1067
g5
tp1068
a(S'5'
p1069
g1069
S'CD'
p1070
S'B-NP'
p1071
g5
tp1072
a(S'days'
p1073
S'day'
p1074
S'NNS'
p1075
S'I-NP'
p1076
g5
tp1077
a(g94
g94
g94
g5
g5
tp1078
a(S'MAIN'
p1079
S'MAIN'
p1080
S'NNP'
p1081
S'B-NP'
p1082
g5
tp1083
a(S'OUTCOME'
p1084
S'OUTCOME'
p1085
S'NNP'
p1086
S'I-NP'
p1087
g5
tp1088
a(S'MEASURES'
p1089
S'MEASURES'
p1090
S'NNP'
p1091
S'I-NP'
p1092
g5
tp1093
a(S'Comparing'
p1094
S'Comparing'
p1095
S'NNP'
p1096
S'I-NP'
p1097
g5
tp1098
a(S'placebo'
p1099
S'placebo'
p1100
S'NN'
p1101
S'I-NP'
p1102
g5
tp1103
a(S'groups'
p1104
S'group'
p1105
S'NNS'
p1106
S'I-NP'
p1107
g5
tp1108
a(S'with'
p1109
S'with'
p1110
S'IN'
p1111
S'B-PP'
p1112
g5
tp1113
a(S'pooled'
p1114
S'pool'
p1115
S'VBN'
p1116
S'B-NP'
p1117
g5
tp1118
a(S'treatment'
p1119
S'treatment'
p1120
S'NN'
p1121
S'I-NP'
p1122
g5
tp1123
a(S'groups'
p1124
S'group'
p1125
S'NNS'
p1126
S'I-NP'
p1127
g5
tp1128
a(g177
g177
g177
g5
g5
tp1129
a(S'for'
p1130
S'for'
p1131
S'IN'
p1132
S'B-PP'
p1133
g5
tp1134
a(S'prophylaxis'
p1135
S'prophylaxis'
p1136
S'NN'
p1137
S'B-NP'
p1138
g5
tp1139
a(g177
g177
g177
g5
g5
tp1140
a(S'outcomes'
p1141
S'outcome'
p1142
S'NNS'
p1143
S'B-NP'
p1144
g5
tp1145
a(S'included'
p1146
S'include'
p1147
S'VBD'
p1148
S'B-VP'
p1149
g5
tp1150
a(S'frequency'
p1151
S'frequency'
p1152
S'NN'
p1153
S'B-NP'
p1154
g5
tp1155
a(S'of'
p1156
S'of'
p1157
S'IN'
p1158
S'B-PP'
p1159
g5
tp1160
a(S'infection'
p1161
S'infection'
p1162
S'NN'
p1163
S'B-NP'
p1164
g5
tp1165
a(S'and'
p1166
S'and'
p1167
S'CC'
p1168
g5
g5
tp1169
a(S'viral'
p1170
S'viral'
p1171
S'JJ'
p1172
S'B-NP'
p1173
g5
tp1174
a(S'shedding'
p1175
S'shedding'
p1176
S'NN'
p1177
S'I-NP'
p1178
g5
tp1179
a(g170
g170
g57
g5
g5
tp1180
a(S'for'
p1181
S'for'
p1182
S'IN'
p1183
S'B-PP'
p1184
g5
tp1185
a(S'treatment'
p1186
S'treatment'
p1187
S'NN'
p1188
S'B-NP'
p1189
g5
tp1190
a(g177
g177
g177
g5
g5
tp1191
a(S'viral'
p1192
S'viral'
p1193
S'JJ'
p1194
S'B-NP'
p1195
g5
tp1196
a(S'shedding'
p1197
S'shedding'
p1198
S'NN'
p1199
S'I-NP'
p1200
g5
tp1201
a(S'in'
p1202
S'in'
p1203
S'IN'
p1204
S'B-PP'
p1205
g5
tp1206
a(S'titers'
p1207
S'titer'
p1208
S'NNS'
p1209
S'B-NP'
p1210
g5
tp1211
a(g94
g94
g94
g5
g5
tp1212
a(S'RESULTS'
p1213
S'RESULTS'
p1214
S'NNS'
p1215
S'B-NP'
p1216
g5
tp1217
a(S'In'
p1218
S'In'
p1219
S'IN'
p1220
S'B-PP'
p1221
g5
tp1222
a(S'the'
p1223
S'the'
p1224
S'DT'
p1225
S'B-NP'
p1226
g5
tp1227
a(S'prophylaxis'
p1228
S'prophylaxis'
p1229
S'NN'
p1230
S'I-NP'
p1231
g5
tp1232
a(S'study'
p1233
S'study'
p1234
S'NN'
p1235
S'I-NP'
p1236
g5
tp1237
a(g177
g177
g177
g5
g5
tp1238
a(g624
g624
S'CD'
p1239
S'B-NP'
p1240
g5
tp1241
a(g318
g318
g318
g5
g5
tp1242
a(S'67'
p1243
S'67'
p1244
S'CD'
p1245
S'B-NP'
p1246
g5
tp1247
a(S'%'
p1248
g1248
S'NN'
p1249
S'I-NP'
p1250
g5
tp1251
a(g325
g325
g325
g5
g5
tp1252
a(S'of'
p1253
S'of'
p1254
S'IN'
p1255
S'B-PP'
p1256
g5
tp1257
a(S'12'
p1258
S'12'
p1259
S'CD'
p1260
S'B-NP'
p1261
g5
tp1262
a(S'placebo'
p1263
S'placebo'
p1264
S'NN'
p1265
S'I-NP'
p1266
g5
tp1267
a(S'and'
p1268
S'and'
p1269
S'CC'
p1270
g5
g5
tp1271
a(g624
g624
S'CD'
p1272
S'B-NP'
p1273
g5
tp1274
a(g318
g318
g318
g5
g5
tp1275
a(S'38'
p1276
S'38'
p1277
S'CD'
p1278
S'B-NP'
p1279
g5
tp1280
a(g1248
g1248
S'NN'
p1281
S'I-NP'
p1282
g5
tp1283
a(g325
g325
g325
g5
g5
tp1284
a(S'of'
p1285
S'of'
p1286
S'IN'
p1287
S'B-PP'
p1288
g5
tp1289
a(S'21'
p1290
S'21'
p1291
S'CD'
p1292
S'B-NP'
p1293
g5
tp1294
a(S'oseltamivir'
p1295
S'oseltamivir'
p1296
S'NN'
p1297
S'I-NP'
p1298
g5
tp1299
a(S'recipients'
p1300
S'recipient'
p1301
S'NNS'
p1302
S'I-NP'
p1303
g5
tp1304
a(S'became'
p1305
S'become'
p1306
S'VBD'
p1307
S'B-VP'
p1308
g5
tp1309
a(S'infected'
p1310
S'infected'
p1311
S'JJ'
p1312
S'B-ADJP'
p1313
g5
tp1314
a(g318
g318
g318
g5
g5
tp1315
a(S'P'
p1316
g1316
S'NN'
p1317
S'B-NP'
p1318
g5
tp1319
a(g745
g745
S'SYM'
p1320
S'B-VP'
p1321
g5
tp1322
a(S'.16'
p1323
S'.16'
p1324
S'CD'
p1325
S'B-NP'
p1326
g5
tp1327
a(g170
g170
g57
g5
g5
tp1328
a(S'efficacy'
p1329
S'efficacy'
p1330
S'NN'
p1331
S'B-NP'
p1332
g5
tp1333
a(g177
g177
g177
g5
g5
tp1334
a(S'61'
p1335
S'61'
p1336
S'CD'
p1337
S'B-NP'
p1338
g5
tp1339
a(g1248
g1248
S'NN'
p1340
S'I-NP'
p1341
g5
tp1342
a(g325
g325
g325
g5
g5
tp1343
a(g170
g170
g57
g5
g5
tp1344
a(S'6'
p1345
g1345
S'CD'
p1346
S'B-NP'
p1347
g5
tp1348
a(g318
g318
g318
g5
g5
tp1349
a(S'50'
p1350
S'50'
p1351
S'CD'
p1352
S'B-NP'
p1353
g5
tp1354
a(g1248
g1248
S'NN'
p1355
S'I-NP'
p1356
g5
tp1357
a(g325
g325
g325
g5
g5
tp1358
a(S'placebo'
p1359
S'placebo'
p1360
S'NN'
p1361
S'B-NP'
p1362
g5
tp1363
a(S'compared'
p1364
S'compare'
p1365
S'VBN'
p1366
S'B-PP'
p1367
g5
tp1368
a(S'with'
p1369
S'with'
p1370
S'IN'
p1371
S'B-PP'
p1372
g5
tp1373
a(S'0'
p1374
g1374
S'CD'
p1375
S'B-NP'
p1376
g5
tp1377
a(S'oseltamivir'
p1378
S'oseltamivir'
p1379
S'NN'
p1380
S'I-NP'
p1381
g5
tp1382
a(S'recipients'
p1383
S'recipient'
p1384
S'NNS'
p1385
S'I-NP'
p1386
g5
tp1387
a(S'shed'
p1388
S'shed'
p1389
S'VBD'
p1390
S'B-VP'
p1391
g5
tp1392
a(S'virus'
p1393
S'virus'
p1394
S'NN'
p1395
S'B-NP'
p1396
g5
tp1397
a(g318
g318
g318
g5
g5
tp1398
a(g1316
g1316
S'NN'
p1399
S'B-NP'
p1400
g5
tp1401
a(g610
g610
S'JJR'
p1402
S'B-NP'
p1403
g5
tp1404
a(S'.001'
p1405
S'.001'
p1406
S'CD'
p1407
S'I-NP'
p1408
g5
tp1409
a(g170
g170
g57
g5
g5
tp1410
a(S'efficacy'
p1411
S'efficacy'
p1412
S'NN'
p1413
S'B-NP'
p1414
g5
tp1415
a(g177
g177
g177
g5
g5
tp1416
a(S'100'
p1417
S'100'
p1418
S'CD'
p1419
S'B-NP'
p1420
g5
tp1421
a(g1248
g1248
S'NN'
p1422
S'I-NP'
p1423
g5
tp1424
a(g325
g325
g325
g5
g5
tp1425
a(g177
g177
g177
g5
g5
tp1426
a(S'and'
p1427
S'and'
p1428
S'CC'
p1429
g5
g5
tp1430
a(S'33'
p1431
S'33'
p1432
S'CD'
p1433
S'B-NP'
p1434
g5
tp1435
a(g1248
g1248
S'NN'
p1436
S'I-NP'
p1437
g5
tp1438
a(S'of'
p1439
S'of'
p1440
S'IN'
p1441
S'B-PP'
p1442
g5
tp1443
a(S'placebo'
p1444
S'placebo'
p1445
S'NN'
p1446
S'B-NP'
p1447
g5
tp1448
a(S'but'
p1449
S'but'
p1450
S'CC'
p1451
g5
g5
tp1452
a(S'no'
p1453
S'no'
p1454
S'DT'
p1455
S'B-NP'
p1456
g5
tp1457
a(S'oseltamivir'
p1458
S'oseltamivir'
p1459
S'NN'
p1460
S'I-NP'
p1461
g5
tp1462
a(S'recipient'
p1463
S'recipient'
p1464
S'NN'
p1465
S'I-NP'
p1466
g5
tp1467
a(S'had'
p1468
S'have'
p1469
S'VBD'
p1470
S'B-VP'
p1471
g5
tp1472
a(S'infection-related'
p1473
S'infection-related'
p1474
S'JJ'
p1475
S'B-NP'
p1476
g5
tp1477
a(S'respiratory'
p1478
S'respiratory'
p1479
S'JJ'
p1480
S'I-NP'
p1481
g5
tp1482
a(S'illness'
p1483
S'illness'
p1484
S'NN'
p1485
S'I-NP'
p1486
g5
tp1487
a(g318
g318
g318
g5
g5
tp1488
a(g1316
g1316
S'NN'
p1489
S'B-NP'
p1490
g5
tp1491
a(g610
g610
S'JJR'
p1492
S'B-NP'
p1493
g5
tp1494
a(S'.01'
p1495
S'.01'
p1496
S'CD'
p1497
S'I-NP'
p1498
g5
tp1499
a(g325
g325
g325
g5
g5
tp1500
a(g94
g94
g94
g5
g5
tp1501
a(S'Among'
p1502
S'Among'
p1503
S'IN'
p1504
S'B-PP'
p1505
g5
tp1506
a(S'infected'
p1507
S'infected'
p1508
S'JJ'
p1509
S'B-NP'
p1510
g5
tp1511
a(S'subjects'
p1512
S'subject'
p1513
S'NNS'
p1514
S'I-NP'
p1515
g5
tp1516
a(S'in'
p1517
S'in'
p1518
S'IN'
p1519
S'B-PP'
p1520
g5
tp1521
a(S'the'
p1522
S'the'
p1523
S'DT'
p1524
S'B-NP'
p1525
g5
tp1526
a(S'treatment'
p1527
S'treatment'
p1528
S'NN'
p1529
S'I-NP'
p1530
g5
tp1531
a(S'study'
p1532
S'study'
p1533
S'NN'
p1534
S'I-NP'
p1535
g5
tp1536
a(g318
g318
g318
g5
g5
tp1537
a(g741
g741
S'NN'
p1538
S'B-NP'
p1539
g5
tp1540
a(g745
g745
S'SYM'
p1541
S'B-VP'
p1542
g5
tp1543
a(S'69'
p1544
S'69'
p1545
S'CD'
p1546
S'B-NP'
p1547
g5
tp1548
a(g325
g325
g325
g5
g5
tp1549
a(g177
g177
g177
g5
g5
tp1550
a(S'the'
p1551
S'the'
p1552
S'DT'
p1553
S'B-NP'
p1554
g5
tp1555
a(S'viral'
p1556
S'viral'
p1557
S'JJ'
p1558
S'I-NP'
p1559
g5
tp1560
a(S'titer'
p1561
S'titer'
p1562
S'NN'
p1563
S'I-NP'
p1564
g5
tp1565
a(S'area'
p1566
S'area'
p1567
S'NN'
p1568
S'I-NP'
p1569
g5
tp1570
a(S'under'
p1571
S'under'
p1572
S'IN'
p1573
S'B-PP'
p1574
g5
tp1575
a(S'the'
p1576
S'the'
p1577
S'DT'
p1578
S'B-NP'
p1579
g5
tp1580
a(S'curve'
p1581
S'curve'
p1582
S'NN'
p1583
S'I-NP'
p1584
g5
tp1585
a(S'of'
p1586
S'of'
p1587
S'IN'
p1588
S'B-PP'
p1589
g5
tp1590
a(S'the'
p1591
S'the'
p1592
S'DT'
p1593
S'B-NP'
p1594
g5
tp1595
a(S'combined'
p1596
S'combine'
p1597
S'VBN'
p1598
S'I-NP'
p1599
g5
tp1600
a(S'oseltamivir'
p1601
S'oseltamivir'
p1602
S'NN'
p1603
S'I-NP'
p1604
g5
tp1605
a(S'groups'
p1606
S'group'
p1607
S'NNS'
p1608
S'I-NP'
p1609
g5
tp1610
a(g318
g318
g318
g5
g5
tp1611
a(g741
g741
S'NN'
p1612
S'B-NP'
p1613
g5
tp1614
a(g745
g745
S'SYM'
p1615
S'B-VP'
p1616
g5
tp1617
a(S'56'
p1618
S'56'
p1619
S'CD'
p1620
S'B-NP'
p1621
g5
tp1622
a(g325
g325
g325
g5
g5
tp1623
a(S'was'
p1624
S'be'
p1625
S'VBD'
p1626
S'B-VP'
p1627
g5
tp1628
a(S'lower'
p1629
S'low'
p1630
S'JJR'
p1631
S'B-ADJP'
p1632
g5
tp1633
a(g318
g318
g318
g5
g5
tp1634
a(S'median'
p1635
S'median'
p1636
S'JJ'
p1637
g5
g5
tp1638
a(g739
g739
g318
g5
g5
tp1639
a(S'interquartile'
p1640
S'interquartile'
p1641
S'JJ'
p1642
S'B-NP'
p1643
g5
tp1644
a(S'range'
p1645
S'range'
p1646
S'NN'
p1647
S'I-NP'
p1648
g5
tp1649
a(g739
g739
g318
g5
g5
tp1650
a(S'IQR'
p1651
S'IQR'
p1652
S'NN'
p1653
S'B-NP'
p1654
S'B-protein'
p1655
tp1656
a(g754
g754
g325
g5
g5
tp1657
a(g754
g754
g325
g5
g5
tp1658
a(g177
g177
g177
g5
g5
tp1659
a(S'80'
p1660
S'80'
p1661
S'CD'
p1662
S'B-NP'
p1663
g5
tp1664
a(g739
g739
g318
g5
g5
tp1665
a(S'23-151'
p1666
S'23-151'
p1667
S'CD'
p1668
S'B-NP'
p1669
g5
tp1670
a(g754
g754
g325
g5
g5
tp1671
a(S'vs'
p1672
S'vs'
p1673
S'IN'
p1674
S'B-PP'
p1675
g5
tp1676
a(S'273'
p1677
S'273'
p1678
S'CD'
p1679
S'B-NP'
p1680
g5
tp1681
a(g739
g739
g318
g5
g5
tp1682
a(S'79-306'
p1683
S'79-306'
p1684
S'CD'
p1685
S'B-NP'
p1686
g5
tp1687
a(g754
g754
g325
g5
g5
tp1688
a(S'log10'
p1689
S'log10'
p1690
S'CD'
p1691
S'B-NP'
p1692
g5
tp1693
a(S'tissue'
p1694
S'tissue'
p1695
S'NN'
p1696
S'I-NP'
p1697
g5
tp1698
a(S'culture-infective'
p1699
S'culture-infective'
p1700
S'JJ'
p1701
S'I-NP'
p1702
g5
tp1703
a(S'doses50'
p1704
S'doses50'
p1705
S'NN'
p1706
S'I-NP'
p1707
g5
tp1708
a(S'per'
p1709
S'per'
p1710
S'IN'
p1711
S'B-PP'
p1712
g5
tp1713
a(S'milliliter'
p1714
S'milliliter'
p1715
S'NN'
p1716
S'B-NP'
p1717
g5
tp1718
a(S'x'
p1719
g1719
S'SYM'
p1720
S'B-NP'
p1721
g5
tp1722
a(S'hour'
p1723
S'hour'
p1724
S'NN'
p1725
S'I-NP'
p1726
g5
tp1727
a(g170
g170
g57
g5
g5
tp1728
a(g1316
g1316
S'NN'
p1729
S'B-NP'
p1730
g5
tp1731
a(g745
g745
S'SYM'
p1732
S'B-VP'
p1733
g5
tp1734
a(S'.02'
p1735
S'.02'
p1736
S'CD'
p1737
S'B-NP'
p1738
g5
tp1739
a(g325
g325
g325
g5
g5
tp1740
a(S'than'
p1741
S'than'
p1742
S'IN'
p1743
S'B-PP'
p1744
g5
tp1745
a(S'the'
p1746
S'the'
p1747
S'DT'
p1748
S'B-NP'
p1749
g5
tp1750
a(S'placebo'
p1751
S'placebo'
p1752
S'NN'
p1753
S'I-NP'
p1754
g5
tp1755
a(S'group'
p1756
S'group'
p1757
S'NN'
p1758
S'I-NP'
p1759
g5
tp1760
a(g318
g318
g318
g5
g5
tp1761
a(g741
g741
S'NN'
p1762
S'B-NP'
p1763
g5
tp1764
a(g745
g745
S'SYM'
p1765
S'B-VP'
p1766
g5
tp1767
a(S'13'
p1768
S'13'
p1769
S'CD'
p1770
S'B-NP'
p1771
g5
tp1772
a(g325
g325
g325
g5
g5
tp1773
a(g177
g177
g177
g5
g5
tp1774
a(S'and'
p1775
S'and'
p1776
S'CC'
p1777
g5
g5
tp1778
a(S'the'
p1779
S'the'
p1780
S'DT'
p1781
S'B-NP'
p1782
g5
tp1783
a(S'median'
p1784
S'median'
p1785
S'NN'
p1786
S'I-NP'
p1787
g5
tp1788
a(g318
g318
g318
g5
g5
tp1789
a(S'IQR'
p1790
S'IQR'
p1791
S'NN'
p1792
S'B-NP'
p1793
S'B-protein'
p1794
tp1795
a(g325
g325
g325
g5
g5
tp1796
a(S'duration'
p1797
S'duration'
p1798
S'NN'
p1799
S'B-NP'
p1800
g5
tp1801
a(S'of'
p1802
S'of'
p1803
S'IN'
p1804
S'B-PP'
p1805
g5
tp1806
a(S'viral'
p1807
S'viral'
p1808
S'JJ'
p1809
S'B-NP'
p1810
g5
tp1811
a(S'shedding'
p1812
S'shedding'
p1813
S'NN'
p1814
S'I-NP'
p1815
g5
tp1816
a(S'with'
p1817
S'with'
p1818
S'IN'
p1819
S'B-PP'
p1820
g5
tp1821
a(S'therapy'
p1822
S'therapy'
p1823
S'NN'
p1824
S'B-NP'
p1825
g5
tp1826
a(S'was'
p1827
S'be'
p1828
S'VBD'
p1829
S'B-VP'
p1830
g5
tp1831
a(S'reduced'
p1832
S'reduce'
p1833
S'VBN'
p1834
S'I-VP'
p1835
g5
tp1836
a(S'from'
p1837
S'from'
p1838
S'IN'
p1839
S'B-PP'
p1840
g5
tp1841
a(S'107'
p1842
S'107'
p1843
S'CD'
p1844
S'B-NP'
p1845
g5
tp1846
a(g318
g318
g318
g5
g5
tp1847
a(S'83-131'
p1848
S'83-131'
p1849
S'CD'
p1850
S'B-NP'
p1851
g5
tp1852
a(g325
g325
g325
g5
g5
tp1853
a(S'to'
p1854
S'to'
p1855
S'TO'
p1856
S'B-PP'
p1857
g5
tp1858
a(S'58'
p1859
S'58'
p1860
S'CD'
p1861
S'B-NP'
p1862
g5
tp1863
a(g318
g318
g318
g5
g5
tp1864
a(S'35-59'
p1865
S'35-59'
p1866
S'CD'
p1867
S'B-NP'
p1868
g5
tp1869
a(g325
g325
g325
g5
g5
tp1870
a(S'hours'
p1871
S'hour'
p1872
S'NNS'
p1873
S'B-NP'
p1874
g5
tp1875
a(g318
g318
g318
g5
g5
tp1876
a(g1316
g1316
S'NN'
p1877
S'B-NP'
p1878
g5
tp1879
a(g745
g745
S'SYM'
p1880
S'B-VP'
p1881
g5
tp1882
a(S'.003'
p1883
S'.003'
p1884
S'CD'
p1885
S'B-NP'
p1886
g5
tp1887
a(g325
g325
g325
g5
g5
tp1888
a(g94
g94
g94
g5
g5
tp1889
a(S'Oseltamivir'
p1890
S'Oseltamivir'
p1891
S'NN'
p1892
S'B-NP'
p1893
g5
tp1894
a(S'treatment'
p1895
S'treatment'
p1896
S'NN'
p1897
S'I-NP'
p1898
g5
tp1899
a(S'also'
p1900
S'also'
p1901
S'RB'
p1902
S'B-ADVP'
p1903
g5
tp1904
a(S'reduced'
p1905
S'reduce'
p1906
S'VBD'
p1907
S'B-VP'
p1908
g5
tp1909
a(S'symptom'
p1910
S'symptom'
p1911
S'NN'
p1912
S'B-NP'
p1913
g5
tp1914
a(S'scores'
p1915
S'score'
p1916
S'NNS'
p1917
S'I-NP'
p1918
g5
tp1919
a(g318
g318
g318
g5
g5
tp1920
a(S'median'
p1921
S'median'
p1922
S'NN'
p1923
S'B-NP'
p1924
g5
tp1925
a(g739
g739
g318
S'I-NP'
p1926
g5
tp1927
a(S'IQR'
p1928
S'IQR'
p1929
S'NN'
p1930
S'I-NP'
p1931
S'B-protein'
p1932
tp1933
a(g754
g754
g325
S'I-NP'
p1934
g5
tp1935
a(S'score-hours'
p1936
S'score-hour'
p1937
S'NNS'
p1938
S'I-NP'
p1939
g5
tp1940
a(g177
g177
g177
g5
g5
tp1941
a(S'225'
p1942
S'225'
p1943
S'CD'
p1944
S'B-NP'
p1945
g5
tp1946
a(g739
g739
g318
g5
g5
tp1947
a(S'97-349'
p1948
S'97-349'
p1949
S'CD'
p1950
S'B-NP'
p1951
g5
tp1952
a(g754
g754
g325
g5
g5
tp1953
a(S'vs'
p1954
S'vs'
p1955
S'IN'
p1956
S'B-PP'
p1957
g5
tp1958
a(S'400'
p1959
S'400'
p1960
S'CD'
p1961
S'B-NP'
p1962
g5
tp1963
a(g739
g739
g318
g5
g5
tp1964
a(S'189-645'
p1965
S'189-645'
p1966
S'CD'
p1967
S'B-NP'
p1968
g5
tp1969
a(g754
g754
g325
g5
g5
tp1970
a(g170
g170
g57
g5
g5
tp1971
a(g1316
g1316
S'NN'
p1972
S'B-NP'
p1973
g5
tp1974
a(g745
g745
S'SYM'
p1975
S'B-VP'
p1976
g5
tp1977
a(S'.05'
p1978
S'.05'
p1979
S'CD'
p1980
S'B-NP'
p1981
g5
tp1982
a(g325
g325
g325
g5
g5
tp1983
a(g177
g177
g177
g5
g5
tp1984
a(S'and'
p1985
S'and'
p1986
S'CC'
p1987
g5
g5
tp1988
a(S'nasal'
p1989
S'nasal'
p1990
S'JJ'
p1991
S'B-NP'
p1992
g5
tp1993
a(S'proinflammatory'
p1994
S'proinflammatory'
p1995
S'JJ'
p1996
S'I-NP'
p1997
g5
tp1998
a(S'cytokine'
p1999
S'cytokine'
p2000
S'NN'
p2001
S'I-NP'
p2002
g5
tp2003
a(S'levels.'
p2004
S'levels.'
p2005
S'NN'
p2006
S'I-NP'
p2007
g5
tp2008
a(S'Transient'
p2009
S'Transient'
p2010
S'JJ'
p2011
S'B-ADJP'
p2012
g5
tp2013
a(S'mild'
p2014
S'mild'
p2015
S'JJ'
p2016
S'B-ADVP'
p2017
g5
tp2018
a(S'to'
p2019
S'to'
p2020
S'TO'
p2021
S'B-PP'
p2022
g5
tp2023
a(S'moderate'
p2024
S'moderate'
p2025
S'JJ'
p2026
S'B-NP'
p2027
g5
tp2028
a(S'nausea'
p2029
S'nausea'
p2030
S'NN'
p2031
S'I-NP'
p2032
g5
tp2033
a(S'after'
p2034
S'after'
p2035
S'IN'
p2036
S'B-SBAR'
p2037
g5
tp2038
a(S'dosing'
p2039
S'dosing'
p2040
S'NN'
p2041
S'B-NP'
p2042
g5
tp2043
a(S'was'
p2044
S'be'
p2045
S'VBD'
p2046
S'B-VP'
p2047
g5
tp2048
a(S'observed'
p2049
S'observe'
p2050
S'VBN'
p2051
S'I-VP'
p2052
g5
tp2053
a(S'in'
p2054
S'in'
p2055
S'IN'
p2056
S'B-PP'
p2057
g5
tp2058
a(S'15'
p2059
S'15'
p2060
S'CD'
p2061
S'B-NP'
p2062
g5
tp2063
a(g318
g318
g318
g5
g5
tp2064
a(S'17'
p2065
S'17'
p2066
S'CD'
p2067
S'B-NP'
p2068
g5
tp2069
a(g1248
g1248
S'NN'
p2070
S'I-NP'
p2071
g5
tp2072
a(g325
g325
g325
g5
g5
tp2073
a(S'of'
p2074
S'of'
p2075
S'IN'
p2076
S'B-PP'
p2077
g5
tp2078
a(S'88'
p2079
S'88'
p2080
S'CD'
p2081
S'B-NP'
p2082
g5
tp2083
a(S'oseltamivir'
p2084
S'oseltamivir'
p2085
S'NN'
p2086
S'I-NP'
p2087
g5
tp2088
a(S'and'
p2089
S'and'
p2090
S'CC'
p2091
g5
g5
tp2092
a(g471
g471
S'CD'
p2093
S'B-NP'
p2094
g5
tp2095
a(g318
g318
S'NN'
p2096
S'I-NP'
p2097
g5
tp2098
a(S'7'
p2099
g2099
S'CD'
p2100
S'B-NP'
p2101
g5
tp2102
a(g1248
g1248
S'NN'
p2103
S'I-NP'
p2104
g5
tp2105
a(g325
g325
g325
g5
g5
tp2106
a(S'of'
p2107
S'of'
p2108
S'IN'
p2109
S'B-PP'
p2110
g5
tp2111
a(S'29'
p2112
S'29'
p2113
S'CD'
p2114
S'B-NP'
p2115
g5
tp2116
a(S'placebo'
p2117
S'placebo'
p2118
S'NN'
p2119
S'I-NP'
p2120
g5
tp2121
a(S'recipients'
p2122
S'recipient'
p2123
S'NNS'
p2124
S'I-NP'
p2125
g5
tp2126
a(g318
g318
g318
g5
g5
tp2127
a(S'95'
p2128
S'95'
p2129
S'CD'
p2130
S'B-NP'
p2131
g5
tp2132
a(g1248
g1248
S'NN'
p2133
S'I-NP'
p2134
g5
tp2135
a(S'confidence'
p2136
S'confidence'
p2137
S'NN'
p2138
S'I-NP'
p2139
g5
tp2140
a(S'interval'
p2141
S'interval'
p2142
S'NN'
p2143
S'I-NP'
p2144
g5
tp2145
a(S'for'
p2146
S'for'
p2147
S'IN'
p2148
S'B-PP'
p2149
g5
tp2150
a(S'difference'
p2151
S'difference'
p2152
S'NN'
p2153
S'B-NP'
p2154
g5
tp2155
a(g177
g177
g177
g5
g5
tp2156
a(S'-11'
p2157
S'-11'
p2158
S'CD'
p2159
S'B-NP'
p2160
g5
tp2161
a(g1248
g1248
S'NN'
p2162
S'I-NP'
p2163
g5
tp2164
a(S'to'
p2165
S'to'
p2166
S'TO'
p2167
S'B-PP'
p2168
g5
tp2169
a(S'68'
p2170
S'68'
p2171
S'CD'
p2172
S'B-NP'
p2173
g5
tp2174
a(g1248
g1248
S'NN'
p2175
S'I-NP'
p2176
g5
tp2177
a(g325
g325
g325
g5
g5
tp2178
a(g177
g177
g177
g5
g5
tp2179
a(S'which'
p2180
S'which'
p2181
S'WDT'
p2182
S'B-NP'
p2183
g5
tp2184
a(S'was'
p2185
S'be'
p2186
S'VBD'
p2187
S'B-VP'
p2188
g5
tp2189
a(S'largely'
p2190
S'largely'
p2191
S'RB'
p2192
S'I-VP'
p2193
g5
tp2194
a(S'prevented'
p2195
S'prevent'
p2196
S'VBN'
p2197
S'I-VP'
p2198
g5
tp2199
a(S'by'
p2200
S'by'
p2201
S'IN'
p2202
S'B-PP'
p2203
g5
tp2204
a(S'ingestion'
p2205
S'ingestion'
p2206
S'NN'
p2207
S'B-NP'
p2208
g5
tp2209
a(S'with'
p2210
S'with'
p2211
S'IN'
p2212
S'B-PP'
p2213
g5
tp2214
a(S'food'
p2215
S'food'
p2216
S'NN'
p2217
S'B-NP'
p2218
g5
tp2219
a(g94
g94
g94
g5
g5
tp2220
a(S'CONCLUSIONS'
p2221
S'CONCLUSIONS'
p2222
S'NNS'
p2223
S'B-NP'
p2224
g5
tp2225
a(S'In'
p2226
S'In'
p2227
S'IN'
p2228
S'B-PP'
p2229
g5
tp2230
a(S'these'
p2231
S'these'
p2232
S'DT'
p2233
S'B-NP'
p2234
g5
tp2235
a(S'trials'
p2236
S'trial'
p2237
S'NNS'
p2238
S'I-NP'
p2239
g5
tp2240
a(g177
g177
g177
g5
g5
tp2241
a(S'prophylaxis'
p2242
S'prophylaxis'
p2243
S'NN'
p2244
S'B-NP'
p2245
g5
tp2246
a(S'and'
p2247
S'and'
p2248
S'CC'
p2249
g5
g5
tp2250
a(S'early'
p2251
S'early'
p2252
S'JJ'
p2253
S'B-NP'
p2254
g5
tp2255
a(S'treatment'
p2256
S'treatment'
p2257
S'NN'
p2258
S'I-NP'
p2259
g5
tp2260
a(S'with'
p2261
S'with'
p2262
S'IN'
p2263
S'B-PP'
p2264
g5
tp2265
a(S'oral'
p2266
S'oral'
p2267
S'JJ'
p2268
S'B-NP'
p2269
g5
tp2270
a(S'oseltamivir'
p2271
S'oseltamivir'
p2272
S'NN'
p2273
S'I-NP'
p2274
g5
tp2275
a(S'were'
p2276
S'be'
p2277
S'VBD'
p2278
S'B-VP'
p2279
g5
tp2280
a(S'both'
p2281
S'both'
p2282
S'DT'
p2283
g5
g5
tp2284
a(S'associated'
p2285
S'associate'
p2286
S'VBN'
p2287
S'B-VP'
p2288
g5
tp2289
a(S'with'
p2290
S'with'
p2291
S'IN'
p2292
S'B-PP'
p2293
g5
tp2294
a(S'significant'
p2295
S'significant'
p2296
S'JJ'
p2297
S'B-NP'
p2298
g5
tp2299
a(S'antiviral'
p2300
S'antiviral'
p2301
S'JJ'
p2302
S'I-NP'
p2303
g5
tp2304
a(S'and'
p2305
S'and'
p2306
S'CC'
p2307
S'I-NP'
p2308
g5
tp2309
a(S'clinical'
p2310
S'clinical'
p2311
S'JJ'
p2312
S'I-NP'
p2313
g5
tp2314
a(S'effects'
p2315
S'effect'
p2316
S'NNS'
p2317
S'I-NP'
p2318
g5
tp2319
a(S'in'
p2320
S'in'
p2321
S'IN'
p2322
S'B-PP'
p2323
g5
tp2324
a(S'experimental'
p2325
S'experimental'
p2326
S'JJ'
p2327
S'B-NP'
p2328
g5
tp2329
a(S'human'
p2330
S'human'
p2331
S'JJ'
p2332
S'I-NP'
p2333
g5
tp2334
a(S'influenza'
p2335
S'influenza'
p2336
S'NN'
p2337
S'I-NP'
p2338
g5
tp2339
a(g94
g94
g94
g5
g5
tp2340
a.