(lp0
(S'Early'
p1
S'Early'
p2
S'JJ'
p3
S'B-NP'
p4
S'O'
p5
tp6
a(S'reperfusion'
p7
S'reperfusion'
p8
S'NN'
p9
S'I-NP'
p10
g5
tp11
a(S'and'
p12
S'and'
p13
S'CC'
p14
g5
g5
tp15
a(S'late'
p16
S'late'
p17
S'JJ'
p18
S'B-NP'
p19
g5
tp20
a(S'clinical'
p21
S'clinical'
p22
S'JJ'
p23
S'I-NP'
p24
g5
tp25
a(S'outcomes'
p26
S'outcome'
p27
S'NNS'
p28
S'I-NP'
p29
g5
tp30
a(S'in'
p31
S'in'
p32
S'IN'
p33
S'B-PP'
p34
g5
tp35
a(S'patients'
p36
S'patient'
p37
S'NNS'
p38
S'B-NP'
p39
g5
tp40
a(S'presenting'
p41
S'present'
p42
S'VBG'
p43
S'B-VP'
p44
g5
tp45
a(S'with'
p46
S'with'
p47
S'IN'
p48
S'B-PP'
p49
g5
tp50
a(S'acute'
p51
S'acute'
p52
S'JJ'
p53
S'B-NP'
p54
g5
tp55
a(S'myocardial'
p56
S'myocardial'
p57
S'JJ'
p58
S'I-NP'
p59
g5
tp60
a(S'infarction'
p61
S'infarction'
p62
S'NN'
p63
S'I-NP'
p64
g5
tp65
a(S'randomly'
p66
S'randomly'
p67
S'RB'
p68
S'B-VP'
p69
g5
tp70
a(S'assigned'
p71
S'assign'
p72
S'VBN'
p73
S'I-VP'
p74
g5
tp75
a(S'to'
p76
S'to'
p77
S'TO'
p78
S'B-PP'
p79
g5
tp80
a(S'primary'
p81
S'primary'
p82
S'JJ'
p83
S'B-NP'
p84
g5
tp85
a(S'percutaneous'
p86
S'percutaneous'
p87
S'JJ'
p88
S'I-NP'
p89
g5
tp90
a(S'coronary'
p91
S'coronary'
p92
S'JJ'
p93
S'I-NP'
p94
g5
tp95
a(S'intervention'
p96
S'intervention'
p97
S'NN'
p98
S'I-NP'
p99
g5
tp100
a(S'or'
p101
S'or'
p102
S'CC'
p103
S'I-NP'
p104
g5
tp105
a(S'streptokinase'
p106
S'streptokinase'
p107
S'NN'
p108
S'I-NP'
p109
S'B-protein'
p110
tp111
a(S'.'
p112
g112
g112
g5
g5
tp113
a(S'BACKGROUND'
p114
S'BACKGROUND'
p115
S'NN'
p116
S'B-NP'
p117
g5
tp118
a(S'Primary'
p119
S'Primary'
p120
S'JJ'
p121
S'I-NP'
p122
g5
tp123
a(S'percutaneous'
p124
S'percutaneous'
p125
S'JJ'
p126
S'I-NP'
p127
g5
tp128
a(S'coronary'
p129
S'coronary'
p130
S'JJ'
p131
S'I-NP'
p132
g5
tp133
a(S'intervention'
p134
S'intervention'
p135
S'NN'
p136
S'I-NP'
p137
g5
tp138
a(S'('
p139
g139
g139
g5
g5
tp140
a(S'PCI'
p141
S'PCI'
p142
S'NN'
p143
S'B-NP'
p144
g5
tp145
a(S')'
p146
g146
g146
g5
g5
tp147
a(S'has'
p148
S'have'
p149
S'VBZ'
p150
S'B-VP'
p151
g5
tp152
a(S'become'
p153
S'become'
p154
S'VBN'
p155
S'I-VP'
p156
g5
tp157
a(S'an'
p158
S'an'
p159
S'DT'
p160
S'B-NP'
p161
g5
tp162
a(S'alternative'
p163
S'alternative'
p164
S'NN'
p165
S'I-NP'
p166
g5
tp167
a(S'to'
p168
S'to'
p169
S'TO'
p170
S'B-PP'
p171
g5
tp172
a(S'thrombolytic'
p173
S'thrombolytic'
p174
S'JJ'
p175
S'B-NP'
p176
g5
tp177
a(S'therapy'
p178
S'therapy'
p179
S'NN'
p180
S'I-NP'
p181
g5
tp182
a(S'as'
p183
S'as'
p184
S'IN'
p185
S'B-PP'
p186
g5
tp187
a(S'a'
p188
g188
S'DT'
p189
S'B-NP'
p190
g5
tp191
a(S'reperfusion'
p192
S'reperfusion'
p193
S'NN'
p194
S'I-NP'
p195
g5
tp196
a(S'strategy'
p197
S'strategy'
p198
S'NN'
p199
S'I-NP'
p200
g5
tp201
a(S'for'
p202
S'for'
p203
S'IN'
p204
S'B-PP'
p205
g5
tp206
a(S'ST-elevation'
p207
S'ST-elevation'
p208
S'NN'
p209
S'B-NP'
p210
g5
tp211
a(S'acute'
p212
S'acute'
p213
S'JJ'
p214
S'I-NP'
p215
g5
tp216
a(S'myocardial'
p217
S'myocardial'
p218
S'JJ'
p219
S'I-NP'
p220
g5
tp221
a(S'infarction'
p222
S'infarction'
p223
S'NN'
p224
S'I-NP'
p225
g5
tp226
a(g139
g139
g139
g5
g5
tp227
a(S'AMI'
p228
S'AMI'
p229
S'NN'
p230
S'B-NP'
p231
g5
tp232
a(g146
g146
g146
g5
g5
tp233
a(g112
g112
g112
g5
g5
tp234
a(S'METHODS'
p235
S'METHODS'
p236
S'NNS'
p237
S'B-NP'
p238
g5
tp239
a(S'The'
p240
S'The'
p241
S'DT'
p242
S'B-NP'
p243
g5
tp244
a(S'main'
p245
S'main'
p246
S'JJ'
p247
S'I-NP'
p248
g5
tp249
a(S'goal'
p250
S'goal'
p251
S'NN'
p252
S'I-NP'
p253
g5
tp254
a(S'of'
p255
S'of'
p256
S'IN'
p257
S'B-PP'
p258
g5
tp259
a(S'this'
p260
S'this'
p261
S'DT'
p262
S'B-NP'
p263
g5
tp264
a(S'study'
p265
S'study'
p266
S'NN'
p267
S'I-NP'
p268
g5
tp269
a(S'was'
p270
S'be'
p271
S'VBD'
p272
S'B-VP'
p273
g5
tp274
a(S'to'
p275
S'to'
p276
S'TO'
p277
S'B-VP'
p278
g5
tp279
a(S'determine'
p280
S'determine'
p281
S'VB'
p282
S'I-VP'
p283
g5
tp284
a(S'whether'
p285
S'whether'
p286
S'IN'
p287
S'B-SBAR'
p288
g5
tp289
a(S'PCI'
p290
S'PCI'
p291
S'NN'
p292
S'B-NP'
p293
S'B-protein'
p294
tp295
a(S'and'
p296
S'and'
p297
S'CC'
p298
g5
g5
tp299
a(S'thrombolytic'
p300
S'thrombolytic'
p301
S'JJ'
p302
S'B-NP'
p303
g5
tp304
a(S'therapy'
p305
S'therapy'
p306
S'NN'
p307
S'I-NP'
p308
g5
tp309
a(S'achieve'
p310
S'achieve'
p311
S'VBP'
p312
S'B-VP'
p313
g5
tp314
a(S'comparable'
p315
S'comparable'
p316
S'JJ'
p317
S'B-NP'
p318
g5
tp319
a(S'reperfusion'
p320
S'reperfusion'
p321
S'NN'
p322
S'I-NP'
p323
g5
tp324
a(S'rates'
p325
S'rate'
p326
S'NNS'
p327
S'I-NP'
p328
g5
tp329
a(S','
p330
g330
g330
g5
g5
tp331
a(S'as'
p332
S'as'
p333
S'IN'
p334
S'B-SBAR'
p335
g5
tp336
a(S'evidenced'
p337
S'evidence'
p338
S'VBN'
p339
S'B-VP'
p340
g5
tp341
a(S'by'
p342
S'by'
p343
S'IN'
p344
S'B-PP'
p345
g5
tp346
a(S'ST-segment'
p347
S'ST-segment'
p348
S'NN'
p349
S'B-NP'
p350
g5
tp351
a(S'resolution.'
p352
S'resolution.'
p353
S'NN'
p354
S'I-NP'
p355
g5
tp356
a(S'Secondary'
p357
S'Secondary'
p358
S'JJ'
p359
S'I-NP'
p360
g5
tp361
a(S'end'
p362
S'end'
p363
S'NN'
p364
S'I-NP'
p365
g5
tp366
a(S'points'
p367
S'point'
p368
S'NNS'
p369
S'I-NP'
p370
g5
tp371
a(S'included'
p372
S'include'
p373
S'VBD'
p374
S'B-VP'
p375
g5
tp376
a(S'infarct'
p377
S'infarct'
p378
S'NN'
p379
S'B-NP'
p380
g5
tp381
a(S'vessel'
p382
S'vessel'
p383
S'NN'
p384
S'I-NP'
p385
g5
tp386
a(S'patency'
p387
S'patency'
p388
S'NN'
p389
S'I-NP'
p390
g5
tp391
a(S'rates'
p392
S'rate'
p393
S'NNS'
p394
S'I-NP'
p395
g5
tp396
a(S'before'
p397
S'before'
p398
S'IN'
p399
S'B-PP'
p400
g5
tp401
a(S'hospital'
p402
S'hospital'
p403
S'NN'
p404
S'B-NP'
p405
g5
tp406
a(S'discharge'
p407
S'discharge'
p408
S'NN'
p409
S'I-NP'
p410
g5
tp411
a(S'and'
p412
S'and'
p413
S'CC'
p414
g5
g5
tp415
a(S'short-'
p416
S'short-'
p417
S'NN'
p418
S'B-NP'
p419
g5
tp420
a(S'and'
p421
S'and'
p422
S'CC'
p423
g5
g5
tp424
a(S'long-term'
p425
S'long-term'
p426
S'JJ'
p427
S'B-NP'
p428
g5
tp429
a(S'outcomes.'
p430
S'outcomes.'
p431
S'NN'
p432
S'I-NP'
p433
g5
tp434
a(S'Patients'
p435
S'Patient'
p436
S'NNS'
p437
S'I-NP'
p438
g5
tp439
a(S'with'
p440
S'with'
p441
S'IN'
p442
S'B-PP'
p443
g5
tp444
a(S'ischemic'
p445
S'ischemic'
p446
S'JJ'
p447
S'B-NP'
p448
g5
tp449
a(S'chest'
p450
S'chest'
p451
S'NN'
p452
S'I-NP'
p453
g5
tp454
a(S'pain'
p455
S'pain'
p456
S'NN'
p457
S'I-NP'
p458
g5
tp459
a(S'with'
p460
S'with'
p461
S'IN'
p462
S'B-PP'
p463
g5
tp464
a(S'duration'
p465
S'duration'
p466
S'NN'
p467
S'B-NP'
p468
g5
tp469
a(S'<'
p470
g470
S'SYM'
p471
S'B-NP'
p472
g5
tp473
a(S'or'
p474
S'or'
p475
S'CC'
p476
g5
g5
tp477
a(S'=12'
p478
S'=12'
p479
S'CD'
p480
S'B-NP'
p481
g5
tp482
a(S'hours'
p483
S'hour'
p484
S'NNS'
p485
S'I-NP'
p486
g5
tp487
a(S'and'
p488
S'and'
p489
S'CC'
p490
g5
g5
tp491
a(S'no'
p492
S'no'
p493
S'DT'
p494
S'B-NP'
p495
g5
tp496
a(S'contraindication'
p497
S'contraindication'
p498
S'NN'
p499
S'I-NP'
p500
g5
tp501
a(S'for'
p502
S'for'
p503
S'IN'
p504
S'B-PP'
p505
g5
tp506
a(S'thrombolytic'
p507
S'thrombolytic'
p508
S'JJ'
p509
S'B-NP'
p510
g5
tp511
a(S'therapy'
p512
S'therapy'
p513
S'NN'
p514
S'I-NP'
p515
g5
tp516
a(S'were'
p517
S'be'
p518
S'VBD'
p519
S'B-VP'
p520
g5
tp521
a(S'included'
p522
S'include'
p523
S'VBN'
p524
S'I-VP'
p525
g5
tp526
a(g112
g112
g112
g5
g5
tp527
a(S'RESULTS'
p528
S'RESULTS'
p529
S'NNS'
p530
S'B-NP'
p531
g5
tp532
a(S'Between'
p533
S'Between'
p534
S'IN'
p535
S'B-PP'
p536
g5
tp537
a(S'October'
p538
S'October'
p539
S'NNP'
p540
S'B-NP'
p541
g5
tp542
a(S'1993'
p543
S'1993'
p544
S'CD'
p545
S'I-NP'
p546
g5
tp547
a(S'and'
p548
S'and'
p549
S'CC'
p550
g5
g5
tp551
a(S'August'
p552
S'August'
p553
S'NNP'
p554
S'B-NP'
p555
g5
tp556
a(S'1995'
p557
S'1995'
p558
S'CD'
p559
S'I-NP'
p560
g5
tp561
a(g330
g330
g330
g5
g5
tp562
a(S'58'
p563
S'58'
p564
S'CD'
p565
S'B-NP'
p566
g5
tp567
a(S'patients'
p568
S'patient'
p569
S'NNS'
p570
S'I-NP'
p571
g5
tp572
a(S'were'
p573
S'be'
p574
S'VBD'
p575
S'B-VP'
p576
g5
tp577
a(S'randomly'
p578
S'randomly'
p579
S'RB'
p580
S'I-VP'
p581
g5
tp582
a(S'assigned'
p583
S'assign'
p584
S'VBN'
p585
S'I-VP'
p586
g5
tp587
a(S'to'
p588
S'to'
p589
S'TO'
p590
S'B-PP'
p591
g5
tp592
a(S'streptokinase'
p593
S'streptokinase'
p594
S'NN'
p595
S'B-NP'
p596
S'B-protein'
p597
tp598
a(g139
g139
g139
g5
g5
tp599
a(S'SK'
p600
S'SK'
p601
S'NN'
p602
S'B-NP'
p603
S'B-protein'
p604
tp605
a(g146
g146
g146
g5
g5
tp606
a(S'and'
p607
S'and'
p608
S'CC'
p609
g5
g5
tp610
a(S'54'
p611
S'54'
p612
S'CD'
p613
S'B-NP'
p614
g5
tp615
a(S'patients'
p616
S'patient'
p617
S'NNS'
p618
S'I-NP'
p619
g5
tp620
a(S'to'
p621
S'to'
p622
S'TO'
p623
S'B-PP'
p624
g5
tp625
a(S'primary'
p626
S'primary'
p627
S'JJ'
p628
S'B-NP'
p629
g5
tp630
a(S'PCI.'
p631
S'PCI.'
p632
S'NNP'
p633
S'I-NP'
p634
g5
tp635
a(S'Baseline'
p636
S'Baseline'
p637
S'NNP'
p638
S'I-NP'
p639
g5
tp640
a(S'clinical'
p641
S'clinical'
p642
S'JJ'
p643
S'I-NP'
p644
g5
tp645
a(S'characteristics'
p646
S'characteristic'
p647
S'NNS'
p648
S'I-NP'
p649
g5
tp650
a(S'and'
p651
S'and'
p652
S'CC'
p653
g5
g5
tp654
a(S'infarct'
p655
S'infarct'
p656
S'NN'
p657
S'B-NP'
p658
g5
tp659
a(S'location'
p660
S'location'
p661
S'NN'
p662
S'I-NP'
p663
g5
tp664
a(S'were'
p665
S'be'
p666
S'VBD'
p667
S'B-VP'
p668
g5
tp669
a(S'well'
p670
S'well'
p671
S'RB'
p672
S'I-VP'
p673
g5
tp674
a(S'balanced'
p675
S'balance'
p676
S'VBN'
p677
S'I-VP'
p678
g5
tp679
a(S'in'
p680
S'in'
p681
S'IN'
p682
S'B-PP'
p683
g5
tp684
a(S'both'
p685
S'both'
p686
S'CC'
p687
g5
g5
tp688
a(S'groups.'
p689
S'groups.'
p690
S'NN'
p691
S'B-NP'
p692
g5
tp693
a(S'Median'
p694
S'Median'
p695
S'JJ'
p696
S'I-NP'
p697
g5
tp698
a(S'age'
p699
S'age'
p700
S'NN'
p701
S'I-NP'
p702
g5
tp703
a(g139
g139
g139
g5
g5
tp704
a(S'interquartile'
p705
S'interquartile'
p706
S'JJ'
p707
S'B-NP'
p708
g5
tp709
a(S'range'
p710
S'range'
p711
S'NN'
p712
S'I-NP'
p713
g5
tp714
a(g146
g146
g146
g5
g5
tp715
a(S'was'
p716
S'be'
p717
S'VBD'
p718
S'B-VP'
p719
g5
tp720
a(S'68'
p721
S'68'
p722
S'CD'
p723
S'B-NP'
p724
g5
tp725
a(g139
g139
g139
g5
g5
tp726
a(S'58'
p727
S'58'
p728
S'CD'
p729
S'B-NP'
p730
g5
tp731
a(g330
g330
g330
g5
g5
tp732
a(S'75'
p733
S'75'
p734
S'CD'
p735
S'B-NP'
p736
g5
tp737
a(g146
g146
g146
g5
g5
tp738
a(S'years'
p739
S'year'
p740
S'NNS'
p741
S'B-NP'
p742
g5
tp743
a(g330
g330
g330
g5
g5
tp744
a(S'29'
p745
S'29'
p746
S'CD'
p747
S'B-NP'
p748
g5
tp749
a(S'%'
p750
g750
S'NN'
p751
S'I-NP'
p752
g5
tp753
a(S'were'
p754
S'be'
p755
S'VBD'
p756
S'B-VP'
p757
g5
tp758
a(S'women'
p759
S'woman'
p760
S'NNS'
p761
S'B-NP'
p762
g5
tp763
a(g330
g330
g330
g5
g5
tp764
a(S'and'
p765
S'and'
p766
S'CC'
p767
g5
g5
tp768
a(S'78'
p769
S'78'
p770
S'CD'
p771
S'B-NP'
p772
g5
tp773
a(g750
g750
S'NN'
p774
S'I-NP'
p775
g5
tp776
a(S'of'
p777
S'of'
p778
S'IN'
p779
S'B-PP'
p780
g5
tp781
a(S'the'
p782
S'the'
p783
S'DT'
p784
S'B-NP'
p785
g5
tp786
a(S'patients'
p787
S'patient'
p788
S'NNS'
p789
S'I-NP'
p790
g5
tp791
a(S'met'
p792
S'meet'
p793
S'VBD'
p794
S'B-VP'
p795
g5
tp796
a(S'at'
p797
S'at'
p798
S'IN'
p799
S'B-NP'
p800
g5
tp801
a(S'least'
p802
S'least'
p803
S'JJS'
p804
S'I-NP'
p805
g5
tp806
a(S'one'
p807
S'one'
p808
S'CD'
p809
S'I-NP'
p810
g5
tp811
a(S'criterion'
p812
S'criterion'
p813
S'NN'
p814
S'I-NP'
p815
g5
tp816
a(S'for'
p817
S'for'
p818
S'IN'
p819
S'B-PP'
p820
g5
tp821
a(S'``'
p822
S'``'
p823
S'``'
p824
g5
g5
tp825
a(S'not'
p826
S'not'
p827
S'RB'
p828
S'B-NP'
p829
g5
tp830
a(S'low'
p831
S'low'
p832
S'JJ'
p833
S'I-NP'
p834
g5
tp835
a(S'risk'
p836
S'risk'
p837
S'NN'
p838
S'I-NP'
p839
g5
tp840
a(S"''"
p841
S"''"
p842
S"''"
p843
S'I-NP'
p844
g5
tp845
a(S'AMI'
p846
S'AMI'
p847
S'NN'
p848
S'I-NP'
p849
g5
tp850
a(g139
g139
g139
g5
g5
tp851
a(S'anterior'
p852
S'anterior'
p853
S'JJ'
p854
S'B-NP'
p855
g5
tp856
a(S'location'
p857
S'location'
p858
S'NN'
p859
S'I-NP'
p860
g5
tp861
a(g330
g330
g330
g5
g5
tp862
a(S'age'
p863
S'age'
p864
S'NN'
p865
S'B-NP'
p866
g5
tp867
a(S'>'
p868
g868
S'SYM'
p869
g5
g5
tp870
a(S'70'
p871
S'70'
p872
S'CD'
p873
S'B-NP'
p874
g5
tp875
a(S'years'
p876
S'year'
p877
S'NNS'
p878
S'I-NP'
p879
g5
tp880
a(S'old'
p881
S'old'
p882
S'JJ'
p883
S'B-ADJP'
p884
g5
tp885
a(g330
g330
g330
g5
g5
tp886
a(S'previous'
p887
S'previous'
p888
S'JJ'
p889
S'B-NP'
p890
g5
tp891
a(S'MI'
p892
S'MI'
p893
S'NN'
p894
S'I-NP'
p895
g5
tp896
a(g330
g330
g330
g5
g5
tp897
a(S'systolic'
p898
S'systolic'
p899
S'JJ'
p900
S'B-NP'
p901
g5
tp902
a(S'blood'
p903
S'blood'
p904
S'NN'
p905
S'I-NP'
p906
g5
tp907
a(S'pressure'
p908
S'pressure'
p909
S'NN'
p910
S'I-NP'
p911
g5
tp912
a(g470
g470
S'SYM'
p913
g5
g5
tp914
a(S'100'
p915
S'100'
p916
S'CD'
p917
S'B-NP'
p918
g5
tp919
a(S'mm'
p920
S'mm'
p921
S'NN'
p922
S'I-NP'
p923
g5
tp924
a(S'Hg'
p925
S'Hg'
p926
S'NN'
p927
S'I-NP'
p928
g5
tp929
a(g330
g330
g330
g5
g5
tp930
a(S'and/or'
p931
S'and/or'
p932
S'CC'
p933
g5
g5
tp934
a(S'heart'
p935
S'heart'
p936
S'NN'
p937
S'B-NP'
p938
g5
tp939
a(S'rate'
p940
S'rate'
p941
S'NN'
p942
S'I-NP'
p943
g5
tp944
a(g868
g868
S'SYM'
p945
g5
g5
tp946
a(S'100'
p947
S'100'
p948
S'CD'
p949
S'B-NP'
p950
g5
tp951
a(S'bpm'
p952
S'bpm'
p953
S'NN'
p954
S'I-NP'
p955
g5
tp956
a(g146
g146
g146
g5
g5
tp957
a(g112
g112
g112
g5
g5
tp958
a(S'The'
p959
S'The'
p960
S'DT'
p961
S'B-NP'
p962
g5
tp963
a(S'median'
p964
S'median'
p965
S'JJ'
p966
S'I-NP'
p967
g5
tp968
a(S'time'
p969
S'time'
p970
S'NN'
p971
S'I-NP'
p972
g5
tp973
a(S'from'
p974
S'from'
p975
S'IN'
p976
S'B-PP'
p977
g5
tp978
a(S'symptom'
p979
S'symptom'
p980
S'NN'
p981
S'B-NP'
p982
g5
tp983
a(S'onset'
p984
S'onset'
p985
S'NN'
p986
S'I-NP'
p987
g5
tp988
a(S'to'
p989
S'to'
p990
S'TO'
p991
S'B-PP'
p992
g5
tp993
a(S'random'
p994
S'random'
p995
S'JJ'
p996
S'B-NP'
p997
g5
tp998
a(S'assignment'
p999
S'assignment'
p1000
S'NN'
p1001
S'I-NP'
p1002
g5
tp1003
a(S'was'
p1004
S'be'
p1005
S'VBD'
p1006
S'B-VP'
p1007
g5
tp1008
a(S'217'
p1009
S'217'
p1010
S'CD'
p1011
S'B-NP'
p1012
g5
tp1013
a(g139
g139
g139
g5
g5
tp1014
a(S'139'
p1015
S'139'
p1016
S'CD'
p1017
S'B-NP'
p1018
g5
tp1019
a(g330
g330
g330
g5
g5
tp1020
a(S'335'
p1021
S'335'
p1022
S'CD'
p1023
S'B-NP'
p1024
g5
tp1025
a(g146
g146
g146
g5
g5
tp1026
a(S'minutes'
p1027
S'minute'
p1028
S'NNS'
p1029
S'B-NP'
p1030
g5
tp1031
a(S'in'
p1032
S'in'
p1033
S'IN'
p1034
S'B-PP'
p1035
g5
tp1036
a(S'the'
p1037
S'the'
p1038
S'DT'
p1039
S'B-NP'
p1040
g5
tp1041
a(S'PCI'
p1042
S'PCI'
p1043
S'NN'
p1044
S'I-NP'
p1045
g5
tp1046
a(S'group'
p1047
S'group'
p1048
S'NN'
p1049
S'I-NP'
p1050
g5
tp1051
a(S'and'
p1052
S'and'
p1053
S'CC'
p1054
g5
g5
tp1055
a(S'210'
p1056
S'210'
p1057
S'CD'
p1058
S'B-NP'
p1059
g5
tp1060
a(g139
g139
g139
g5
g5
tp1061
a(S'145'
p1062
S'145'
p1063
S'CD'
p1064
S'B-NP'
p1065
g5
tp1066
a(g330
g330
g330
g5
g5
tp1067
a(S'334'
p1068
S'334'
p1069
S'CD'
p1070
S'B-NP'
p1071
g5
tp1072
a(g146
g146
g146
g5
g5
tp1073
a(S'minutes'
p1074
S'minute'
p1075
S'NNS'
p1076
S'B-NP'
p1077
g5
tp1078
a(S'in'
p1079
S'in'
p1080
S'IN'
p1081
S'B-PP'
p1082
g5
tp1083
a(S'the'
p1084
S'the'
p1085
S'DT'
p1086
S'B-NP'
p1087
g5
tp1088
a(S'SK'
p1089
S'SK'
p1090
S'NN'
p1091
S'I-NP'
p1092
g5
tp1093
a(S'group.'
p1094
S'group.'
p1095
S'NN'
p1096
S'I-NP'
p1097
g5
tp1098
a(S'Median'
p1099
S'Median'
p1100
S'JJ'
p1101
S'I-NP'
p1102
g5
tp1103
a(S'random'
p1104
S'random'
p1105
S'JJ'
p1106
S'I-NP'
p1107
g5
tp1108
a(S'assignment'
p1109
S'assignment'
p1110
S'NN'
p1111
S'I-NP'
p1112
g5
tp1113
a(S'to'
p1114
S'to'
p1115
S'TO'
p1116
S'B-PP'
p1117
g5
tp1118
a(S'balloon'
p1119
S'balloon'
p1120
S'NN'
p1121
S'B-NP'
p1122
g5
tp1123
a(S'time'
p1124
S'time'
p1125
S'NN'
p1126
S'I-NP'
p1127
g5
tp1128
a(S'was'
p1129
S'be'
p1130
S'VBD'
p1131
S'B-VP'
p1132
g5
tp1133
a(S'82'
p1134
S'82'
p1135
S'CD'
p1136
S'B-NP'
p1137
g5
tp1138
a(g139
g139
g139
g5
g5
tp1139
a(S'55'
p1140
S'55'
p1141
S'CD'
p1142
S'B-NP'
p1143
g5
tp1144
a(g330
g330
g330
g5
g5
tp1145
a(S'100'
p1146
S'100'
p1147
S'CD'
p1148
S'B-NP'
p1149
g5
tp1150
a(g146
g146
g146
g5
g5
tp1151
a(S'minutes'
p1152
S'minute'
p1153
S'NNS'
p1154
S'B-NP'
p1155
g5
tp1156
a(g330
g330
g330
g5
g5
tp1157
a(S'and'
p1158
S'and'
p1159
S'CC'
p1160
g5
g5
tp1161
a(S'median'
p1162
S'median'
p1163
S'JJ'
p1164
S'B-NP'
p1165
g5
tp1166
a(S'random'
p1167
S'random'
p1168
S'JJ'
p1169
S'I-NP'
p1170
g5
tp1171
a(S'assignment'
p1172
S'assignment'
p1173
S'NN'
p1174
S'I-NP'
p1175
g5
tp1176
a(S'to'
p1177
S'to'
p1178
S'TO'
p1179
S'B-PP'
p1180
g5
tp1181
a(S'needle'
p1182
S'needle'
p1183
S'NN'
p1184
S'B-NP'
p1185
g5
tp1186
a(S'time'
p1187
S'time'
p1188
S'NN'
p1189
S'I-NP'
p1190
g5
tp1191
a(S'was'
p1192
S'be'
p1193
S'VBD'
p1194
S'B-VP'
p1195
g5
tp1196
a(S'15'
p1197
S'15'
p1198
S'CD'
p1199
S'B-NP'
p1200
g5
tp1201
a(g139
g139
g139
g5
g5
tp1202
a(S'10'
p1203
S'10'
p1204
S'CD'
p1205
S'B-NP'
p1206
g5
tp1207
a(g330
g330
g330
g5
g5
tp1208
a(S'26'
p1209
S'26'
p1210
S'CD'
p1211
S'B-NP'
p1212
g5
tp1213
a(g146
g146
g146
g5
g5
tp1214
a(S'minutes'
p1215
S'minute'
p1216
S'NNS'
p1217
S'B-NP'
p1218
g5
tp1219
a(g139
g139
g139
g5
g5
tp1220
a(S'P'
p1221
g1221
S'NN'
p1222
S'B-NP'
p1223
g5
tp1224
a(g470
g470
S'JJR'
p1225
S'B-NP'
p1226
g5
tp1227
a(S'.0001'
p1228
S'.0001'
p1229
S'CD'
p1230
S'I-NP'
p1231
g5
tp1232
a(g146
g146
g146
g5
g5
tp1233
a(g112
g112
g112
g5
g5
tp1234
a(S'TIMI'
p1235
S'TIMI'
p1236
S'NN'
p1237
S'B-NP'
p1238
g5
tp1239
a(S'grade'
p1240
S'grade'
p1241
S'NN'
p1242
S'I-NP'
p1243
g5
tp1244
a(S'3'
p1245
g1245
S'CD'
p1246
S'I-NP'
p1247
g5
tp1248
a(S'flow'
p1249
S'flow'
p1250
S'NN'
p1251
S'I-NP'
p1252
g5
tp1253
a(S'after'
p1254
S'after'
p1255
S'IN'
p1256
S'B-PP'
p1257
g5
tp1258
a(S'primary'
p1259
S'primary'
p1260
S'JJ'
p1261
S'B-NP'
p1262
g5
tp1263
a(S'PCI'
p1264
S'PCI'
p1265
S'NN'
p1266
S'I-NP'
p1267
g5
tp1268
a(S'was'
p1269
S'be'
p1270
S'VBD'
p1271
S'B-VP'
p1272
g5
tp1273
a(S'obtained'
p1274
S'obtain'
p1275
S'VBN'
p1276
S'I-VP'
p1277
g5
tp1278
a(S'in'
p1279
S'in'
p1280
S'IN'
p1281
S'B-PP'
p1282
g5
tp1283
a(S'85'
p1284
S'85'
p1285
S'CD'
p1286
S'B-NP'
p1287
g5
tp1288
a(g750
g750
S'NN'
p1289
S'I-NP'
p1290
g5
tp1291
a(S'of'
p1292
S'of'
p1293
S'IN'
p1294
S'B-PP'
p1295
g5
tp1296
a(S'patients.'
p1297
S'patients.'
p1298
S'NNS'
p1299
S'B-NP'
p1300
g5
tp1301
a(S'The'
p1302
S'The'
p1303
S'DT'
p1304
S'B-NP'
p1305
g5
tp1306
a(S'proportion'
p1307
S'proportion'
p1308
S'NN'
p1309
S'I-NP'
p1310
g5
tp1311
a(S'of'
p1312
S'of'
p1313
S'IN'
p1314
S'B-PP'
p1315
g5
tp1316
a(S'patients'
p1317
S'patient'
p1318
S'NNS'
p1319
S'B-NP'
p1320
g5
tp1321
a(S'with'
p1322
S'with'
p1323
S'IN'
p1324
S'B-PP'
p1325
g5
tp1326
a(S'ST-segment'
p1327
S'ST-segment'
p1328
S'NN'
p1329
S'B-NP'
p1330
g5
tp1331
a(S'resolution'
p1332
S'resolution'
p1333
S'NN'
p1334
S'I-NP'
p1335
g5
tp1336
a(g868
g868
S'SYM'
p1337
S'B-VP'
p1338
g5
tp1339
a(S'or'
p1340
S'or'
p1341
S'CC'
p1342
g5
g5
tp1343
a(S'=50'
p1344
S'=50'
p1345
S'CD'
p1346
S'B-NP'
p1347
g5
tp1348
a(g750
g750
S'NN'
p1349
S'I-NP'
p1350
g5
tp1351
a(S'at'
p1352
S'at'
p1353
S'IN'
p1354
S'B-PP'
p1355
g5
tp1356
a(S'120'
p1357
S'120'
p1358
S'CD'
p1359
S'B-NP'
p1360
g5
tp1361
a(S'minutes'
p1362
S'minute'
p1363
S'NNS'
p1364
S'I-NP'
p1365
g5
tp1366
a(S'was'
p1367
S'be'
p1368
S'VBD'
p1369
S'B-VP'
p1370
g5
tp1371
a(S'80'
p1372
S'80'
p1373
S'CD'
p1374
S'B-NP'
p1375
g5
tp1376
a(g750
g750
S'NN'
p1377
S'I-NP'
p1378
g5
tp1379
a(S'in'
p1380
S'in'
p1381
S'IN'
p1382
S'B-PP'
p1383
g5
tp1384
a(S'the'
p1385
S'the'
p1386
S'DT'
p1387
S'B-NP'
p1388
g5
tp1389
a(S'PCI'
p1390
S'PCI'
p1391
S'NN'
p1392
S'I-NP'
p1393
g5
tp1394
a(S'group'
p1395
S'group'
p1396
S'NN'
p1397
S'I-NP'
p1398
g5
tp1399
a(S'and'
p1400
S'and'
p1401
S'CC'
p1402
g5
g5
tp1403
a(S'50'
p1404
S'50'
p1405
S'CD'
p1406
S'B-NP'
p1407
g5
tp1408
a(g750
g750
S'NN'
p1409
S'I-NP'
p1410
g5
tp1411
a(S'in'
p1412
S'in'
p1413
S'IN'
p1414
S'B-PP'
p1415
g5
tp1416
a(S'the'
p1417
S'the'
p1418
S'DT'
p1419
S'B-NP'
p1420
g5
tp1421
a(S'SK'
p1422
S'SK'
p1423
S'NN'
p1424
S'I-NP'
p1425
g5
tp1426
a(S'group'
p1427
S'group'
p1428
S'NN'
p1429
S'I-NP'
p1430
g5
tp1431
a(g139
g139
g139
g5
g5
tp1432
a(g1221
g1221
S'NN'
p1433
S'B-NP'
p1434
g5
tp1435
a(S'=.001'
p1436
S'=.001'
p1437
S'CD'
p1438
S'I-NP'
p1439
g5
tp1440
a(g146
g146
g146
g5
g5
tp1441
a(g112
g112
g112
g5
g5
tp1442
a(S'The'
p1443
S'The'
p1444
S'DT'
p1445
S'B-NP'
p1446
g5
tp1447
a(S'predischarge'
p1448
S'predischarge'
p1449
S'NN'
p1450
S'I-NP'
p1451
g5
tp1452
a(S'angiogram'
p1453
S'angiogram'
p1454
S'NN'
p1455
S'I-NP'
p1456
g5
tp1457
a(S'showed'
p1458
S'show'
p1459
S'VBD'
p1460
S'B-VP'
p1461
g5
tp1462
a(S'the'
p1463
S'the'
p1464
S'DT'
p1465
S'B-NP'
p1466
g5
tp1467
a(S'presence'
p1468
S'presence'
p1469
S'NN'
p1470
S'I-NP'
p1471
g5
tp1472
a(S'of'
p1473
S'of'
p1474
S'IN'
p1475
S'B-PP'
p1476
g5
tp1477
a(S'TIMI'
p1478
S'TIMI'
p1479
S'NN'
p1480
S'B-NP'
p1481
S'B-protein'
p1482
tp1483
a(g1245
g1245
S'CD'
p1484
S'I-NP'
p1485
S'I-protein'
p1486
tp1487
a(S'flow'
p1488
S'flow'
p1489
S'NN'
p1490
S'I-NP'
p1491
g5
tp1492
a(S'in'
p1493
S'in'
p1494
S'IN'
p1495
S'B-PP'
p1496
g5
tp1497
a(S'96'
p1498
S'96'
p1499
S'CD'
p1500
S'B-NP'
p1501
g5
tp1502
a(g750
g750
S'NN'
p1503
S'I-NP'
p1504
g5
tp1505
a(S'of'
p1506
S'of'
p1507
S'IN'
p1508
S'B-PP'
p1509
g5
tp1510
a(S'patients'
p1511
S'patient'
p1512
S'NNS'
p1513
S'B-NP'
p1514
g5
tp1515
a(S'who'
p1516
S'who'
p1517
S'WP'
p1518
S'B-NP'
p1519
g5
tp1520
a(S'received'
p1521
S'receive'
p1522
S'VBD'
p1523
S'B-VP'
p1524
g5
tp1525
a(S'PCI'
p1526
S'PCI'
p1527
S'NN'
p1528
S'B-NP'
p1529
g5
tp1530
a(S'and'
p1531
S'and'
p1532
S'CC'
p1533
g5
g5
tp1534
a(S'65'
p1535
S'65'
p1536
S'CD'
p1537
S'B-NP'
p1538
g5
tp1539
a(g750
g750
S'NN'
p1540
S'I-NP'
p1541
g5
tp1542
a(S'of'
p1543
S'of'
p1544
S'IN'
p1545
S'B-PP'
p1546
g5
tp1547
a(S'patients'
p1548
S'patient'
p1549
S'NNS'
p1550
S'B-NP'
p1551
g5
tp1552
a(S'who'
p1553
S'who'
p1554
S'WP'
p1555
S'B-NP'
p1556
g5
tp1557
a(S'received'
p1558
S'receive'
p1559
S'VBD'
p1560
S'B-VP'
p1561
g5
tp1562
a(S'SK'
p1563
S'SK'
p1564
S'NN'
p1565
S'B-NP'
p1566
g5
tp1567
a(g139
g139
g139
g5
g5
tp1568
a(g1221
g1221
S'NN'
p1569
S'B-NP'
p1570
g5
tp1571
a(g470
g470
S'JJR'
p1572
S'B-NP'
p1573
g5
tp1574
a(S'.001'
p1575
S'.001'
p1576
S'CD'
p1577
S'I-NP'
p1578
g5
tp1579
a(g146
g146
g146
g5
g5
tp1580
a(g112
g112
g112
g5
g5
tp1581
a(S'A'
p1582
g1582
S'DT'
p1583
S'B-NP'
p1584
g5
tp1585
a(S'composite'
p1586
S'composite'
p1587
S'JJ'
p1588
S'I-NP'
p1589
g5
tp1590
a(S'of'
p1591
S'of'
p1592
S'IN'
p1593
S'B-PP'
p1594
g5
tp1595
a(S'in-hospital'
p1596
S'in-hospital'
p1597
S'JJ'
p1598
S'B-NP'
p1599
g5
tp1600
a(S'death'
p1601
S'death'
p1602
S'NN'
p1603
S'I-NP'
p1604
g5
tp1605
a(g330
g330
g330
g5
g5
tp1606
a(S'reinfarction'
p1607
S'reinfarction'
p1608
S'NN'
p1609
S'B-NP'
p1610
g5
tp1611
a(g330
g330
g330
g5
g5
tp1612
a(S'severe'
p1613
S'severe'
p1614
S'JJ'
p1615
S'B-NP'
p1616
g5
tp1617
a(S'heart'
p1618
S'heart'
p1619
S'NN'
p1620
S'I-NP'
p1621
g5
tp1622
a(S'failure'
p1623
S'failure'
p1624
S'NN'
p1625
S'I-NP'
p1626
g5
tp1627
a(g330
g330
g330
g5
g5
tp1628
a(S'stroke'
p1629
S'stroke'
p1630
S'NN'
p1631
S'B-NP'
p1632
g5
tp1633
a(g330
g330
g330
g5
g5
tp1634
a(S'and'
p1635
S'and'
p1636
S'CC'
p1637
g5
g5
tp1638
a(S'major'
p1639
S'major'
p1640
S'JJ'
p1641
S'B-NP'
p1642
g5
tp1643
a(S'bleeding'
p1644
S'bleeding'
p1645
S'NN'
p1646
S'I-NP'
p1647
g5
tp1648
a(S'occurred'
p1649
S'occur'
p1650
S'VBD'
p1651
S'B-VP'
p1652
g5
tp1653
a(S'in'
p1654
S'in'
p1655
S'IN'
p1656
S'B-PP'
p1657
g5
tp1658
a(S'15'
p1659
S'15'
p1660
S'CD'
p1661
S'B-NP'
p1662
g5
tp1663
a(g750
g750
S'NN'
p1664
S'I-NP'
p1665
g5
tp1666
a(S'of'
p1667
S'of'
p1668
S'IN'
p1669
S'B-PP'
p1670
g5
tp1671
a(S'patients'
p1672
S'patient'
p1673
S'NNS'
p1674
S'B-NP'
p1675
g5
tp1676
a(S'who'
p1677
S'who'
p1678
S'WP'
p1679
S'B-NP'
p1680
g5
tp1681
a(S'received'
p1682
S'receive'
p1683
S'VBD'
p1684
S'B-VP'
p1685
g5
tp1686
a(S'PCI'
p1687
S'PCI'
p1688
S'NN'
p1689
S'B-NP'
p1690
g5
tp1691
a(S'and'
p1692
S'and'
p1693
S'CC'
p1694
g5
g5
tp1695
a(S'21'
p1696
S'21'
p1697
S'CD'
p1698
S'B-NP'
p1699
g5
tp1700
a(g750
g750
S'NN'
p1701
S'I-NP'
p1702
g5
tp1703
a(S'of'
p1704
S'of'
p1705
S'IN'
p1706
S'B-PP'
p1707
g5
tp1708
a(S'patients'
p1709
S'patient'
p1710
S'NNS'
p1711
S'B-NP'
p1712
g5
tp1713
a(S'who'
p1714
S'who'
p1715
S'WP'
p1716
S'B-NP'
p1717
g5
tp1718
a(S'received'
p1719
S'receive'
p1720
S'VBD'
p1721
S'B-VP'
p1722
g5
tp1723
a(S'SK'
p1724
S'SK'
p1725
S'NN'
p1726
S'B-NP'
p1727
g5
tp1728
a(g139
g139
g139
g5
g5
tp1729
a(g1221
g1221
S'NN'
p1730
S'B-NP'
p1731
g5
tp1732
a(S'=.4'
p1733
S'=.4'
p1734
S'CD'
p1735
S'I-NP'
p1736
g5
tp1737
a(g146
g146
g146
g5
g5
tp1738
a(g112
g112
g112
g5
g5
tp1739
a(S'At'
p1740
S'At'
p1741
S'IN'
p1742
S'B-PP'
p1743
g5
tp1744
a(g1245
g1245
S'CD'
p1745
S'B-NP'
p1746
g5
tp1747
a(S'years'
p1748
S'year'
p1749
S'NNS'
p1750
S'I-NP'
p1751
g5
tp1752
a(g330
g330
g330
g5
g5
tp1753
a(S'freedom'
p1754
S'freedom'
p1755
S'NN'
p1756
S'B-NP'
p1757
g5
tp1758
a(S'from'
p1759
S'from'
p1760
S'IN'
p1761
S'B-PP'
p1762
g5
tp1763
a(S'the'
p1764
S'the'
p1765
S'DT'
p1766
S'B-NP'
p1767
g5
tp1768
a(S'composite'
p1769
S'composite'
p1770
S'JJ'
p1771
S'I-NP'
p1772
g5
tp1773
a(S'end'
p1774
S'end'
p1775
S'NN'
p1776
S'I-NP'
p1777
g5
tp1778
a(S'point'
p1779
S'point'
p1780
S'NN'
p1781
S'I-NP'
p1782
g5
tp1783
a(S'of'
p1784
S'of'
p1785
S'IN'
p1786
S'B-PP'
p1787
g5
tp1788
a(S'AMI'
p1789
S'AMI'
p1790
S'NN'
p1791
S'B-NP'
p1792
S'B-protein'
p1793
tp1794
a(g330
g330
g330
g5
g5
tp1795
a(S'postdischarge'
p1796
S'postdischarge'
p1797
S'NN'
p1798
S'B-NP'
p1799
g5
tp1800
a(S'revascularization'
p1801
S'revascularization'
p1802
S'NN'
p1803
S'I-NP'
p1804
g5
tp1805
a(g330
g330
g330
g5
g5
tp1806
a(S'and'
p1807
S'and'
p1808
S'CC'
p1809
g5
g5
tp1810
a(S'death'
p1811
S'death'
p1812
S'NN'
p1813
S'B-NP'
p1814
g5
tp1815
a(S'was'
p1816
S'be'
p1817
S'VBD'
p1818
S'B-VP'
p1819
g5
tp1820
a(S'61'
p1821
S'61'
p1822
S'CD'
p1823
S'B-NP'
p1824
g5
tp1825
a(g750
g750
S'NN'
p1826
S'I-NP'
p1827
g5
tp1828
a(S'in'
p1829
S'in'
p1830
S'IN'
p1831
S'B-PP'
p1832
g5
tp1833
a(S'the'
p1834
S'the'
p1835
S'DT'
p1836
S'B-NP'
p1837
g5
tp1838
a(S'PCI'
p1839
S'PCI'
p1840
S'NN'
p1841
S'I-NP'
p1842
g5
tp1843
a(S'group'
p1844
S'group'
p1845
S'NN'
p1846
S'I-NP'
p1847
g5
tp1848
a(S'and'
p1849
S'and'
p1850
S'CC'
p1851
g5
g5
tp1852
a(S'40'
p1853
S'40'
p1854
S'CD'
p1855
S'B-NP'
p1856
g5
tp1857
a(g750
g750
S'NN'
p1858
S'I-NP'
p1859
g5
tp1860
a(S'in'
p1861
S'in'
p1862
S'IN'
p1863
S'B-PP'
p1864
g5
tp1865
a(S'the'
p1866
S'the'
p1867
S'DT'
p1868
S'B-NP'
p1869
g5
tp1870
a(S'SK'
p1871
S'SK'
p1872
S'NN'
p1873
S'I-NP'
p1874
g5
tp1875
a(S'group'
p1876
S'group'
p1877
S'NN'
p1878
S'I-NP'
p1879
g5
tp1880
a(g139
g139
g139
g5
g5
tp1881
a(g1221
g1221
S'NN'
p1882
S'B-NP'
p1883
g5
tp1884
a(S'=.025'
p1885
S'=.025'
p1886
S'CD'
p1887
S'I-NP'
p1888
g5
tp1889
a(g146
g146
g146
g5
g5
tp1890
a(g112
g112
g112
g5
g5
tp1891
a(S'CONCLUSIONS'
p1892
S'CONCLUSIONS'
p1893
S'NNS'
p1894
S'B-NP'
p1895
g5
tp1896
a(S'Our'
p1897
S'Our'
p1898
S'PRP$'
p1899
S'B-NP'
p1900
g5
tp1901
a(S'study'
p1902
S'study'
p1903
S'NN'
p1904
S'I-NP'
p1905
g5
tp1906
a(S'shows'
p1907
S'show'
p1908
S'VBZ'
p1909
S'B-VP'
p1910
g5
tp1911
a(S'that'
p1912
S'that'
p1913
S'IN'
p1914
S'B-SBAR'
p1915
g5
tp1916
a(S'primary'
p1917
S'primary'
p1918
S'JJ'
p1919
S'B-NP'
p1920
g5
tp1921
a(S'PCI'
p1922
S'PCI'
p1923
S'NN'
p1924
S'I-NP'
p1925
g5
tp1926
a(g330
g330
g330
g5
g5
tp1927
a(S'as'
p1928
S'as'
p1929
S'IN'
p1930
S'B-SBAR'
p1931
g5
tp1932
a(S'compared'
p1933
S'compare'
p1934
S'VBN'
p1935
S'B-PP'
p1936
g5
tp1937
a(S'with'
p1938
S'with'
p1939
S'IN'
p1940
S'B-PP'
p1941
g5
tp1942
a(S'SK'
p1943
S'SK'
p1944
S'NN'
p1945
S'B-NP'
p1946
S'B-protein'
p1947
tp1948
a(g330
g330
g330
g5
g5
tp1949
a(S'is'
p1950
S'be'
p1951
S'VBZ'
p1952
S'B-VP'
p1953
g5
tp1954
a(S'associated'
p1955
S'associate'
p1956
S'VBN'
p1957
S'I-VP'
p1958
g5
tp1959
a(S'with'
p1960
S'with'
p1961
S'IN'
p1962
S'B-PP'
p1963
g5
tp1964
a(S'more'
p1965
S'more'
p1966
S'RBR'
p1967
S'B-NP'
p1968
g5
tp1969
a(S'effective'
p1970
S'effective'
p1971
S'JJ'
p1972
S'I-NP'
p1973
g5
tp1974
a(S'ST-segment'
p1975
S'ST-segment'
p1976
S'NN'
p1977
S'I-NP'
p1978
g5
tp1979
a(S'resolution'
p1980
S'resolution'
p1981
S'NN'
p1982
S'I-NP'
p1983
g5
tp1984
a(g330
g330
g330
g5
g5
tp1985
a(S'higher'
p1986
S'high'
p1987
S'JJR'
p1988
S'B-NP'
p1989
g5
tp1990
a(S'patency'
p1991
S'patency'
p1992
S'NN'
p1993
S'I-NP'
p1994
g5
tp1995
a(S'rates'
p1996
S'rate'
p1997
S'NNS'
p1998
S'I-NP'
p1999
g5
tp2000
a(S'in'
p2001
S'in'
p2002
S'IN'
p2003
S'B-PP'
p2004
g5
tp2005
a(S'the'
p2006
S'the'
p2007
S'DT'
p2008
S'B-NP'
p2009
g5
tp2010
a(S'infarct'
p2011
S'infarct'
p2012
S'NN'
p2013
S'I-NP'
p2014
g5
tp2015
a(S'vessel'
p2016
S'vessel'
p2017
S'NN'
p2018
S'I-NP'
p2019
g5
tp2020
a(S'at'
p2021
S'at'
p2022
S'IN'
p2023
S'B-PP'
p2024
g5
tp2025
a(S'7'
p2026
g2026
S'CD'
p2027
S'B-NP'
p2028
g5
tp2029
a(S'days'
p2030
S'day'
p2031
S'NNS'
p2032
S'I-NP'
p2033
g5
tp2034
a(g330
g330
g330
g5
g5
tp2035
a(S'and'
p2036
S'and'
p2037
S'CC'
p2038
g5
g5
tp2039
a(S'more'
p2040
S'more'
p2041
S'RBR'
p2042
S'B-NP'
p2043
g5
tp2044
a(S'favorable'
p2045
S'favorable'
p2046
S'JJ'
p2047
S'I-NP'
p2048
g5
tp2049
a(S'clinical'
p2050
S'clinical'
p2051
S'JJ'
p2052
S'I-NP'
p2053
g5
tp2054
a(S'outcomes'
p2055
S'outcome'
p2056
S'NNS'
p2057
S'I-NP'
p2058
g5
tp2059
a(S'at'
p2060
S'at'
p2061
S'IN'
p2062
S'B-PP'
p2063
g5
tp2064
a(g1245
g1245
S'CD'
p2065
S'B-NP'
p2066
g5
tp2067
a(S'years'
p2068
S'year'
p2069
S'NNS'
p2070
S'I-NP'
p2071
g5
tp2072
a(S'of'
p2073
S'of'
p2074
S'IN'
p2075
S'B-PP'
p2076
g5
tp2077
a(S'follow-up'
p2078
S'follow-up'
p2079
S'NN'
p2080
S'B-NP'
p2081
g5
tp2082
a(g112
g112
g112
g5
g5
tp2083
a.