(lp0
(S'['
p1
g1
S'('
p2
S'O'
p3
g3
tp4
a(S'Opposing'
p5
S'Oppose'
p6
S'VBG'
p7
S'B-VP'
p8
g3
tp9
a(S'effects'
p10
S'effect'
p11
S'NNS'
p12
S'B-NP'
p13
g3
tp14
a(S'of'
p15
S'of'
p16
S'IN'
p17
S'B-PP'
p18
g3
tp19
a(S'propranolol'
p20
S'propranolol'
p21
S'NN'
p22
S'B-NP'
p23
g3
tp24
a(S'and'
p25
S'and'
p26
S'CC'
p27
S'I-NP'
p28
g3
tp29
a(S'diltiazem'
p30
S'diltiazem'
p31
S'NN'
p32
S'I-NP'
p33
g3
tp34
a(S'on'
p35
S'on'
p36
S'IN'
p37
S'B-PP'
p38
g3
tp39
a(S'the'
p40
S'the'
p41
S'DT'
p42
S'B-NP'
p43
g3
tp44
a(S'angina'
p45
S'angina'
p46
S'NN'
p47
S'I-NP'
p48
g3
tp49
a(S'threshold'
p50
S'threshold'
p51
S'NN'
p52
S'I-NP'
p53
g3
tp54
a(S'during'
p55
S'during'
p56
S'IN'
p57
S'B-PP'
p58
g3
tp59
a(S'an'
p60
S'an'
p61
S'DT'
p62
S'B-NP'
p63
g3
tp64
a(S'exercise'
p65
S'exercise'
p66
S'NN'
p67
S'I-NP'
p68
g3
tp69
a(S'test'
p70
S'test'
p71
S'NN'
p72
S'I-NP'
p73
g3
tp74
a(S'in'
p75
S'in'
p76
S'IN'
p77
S'B-PP'
p78
g3
tp79
a(S'patients'
p80
S'patient'
p81
S'NNS'
p82
S'B-NP'
p83
g3
tp84
a(S'with'
p85
S'with'
p86
S'IN'
p87
S'B-PP'
p88
g3
tp89
a(S'syndrome'
p90
S'syndrome'
p91
S'NN'
p92
S'B-NP'
p93
g3
tp94
a(S'X'
p95
g95
S'NN'
p96
S'I-NP'
p97
g3
tp98
a(S']'
p99
g99
S')'
p100
g3
g3
tp101
a(S'.'
p102
g102
g102
g3
g3
tp103
a(S'Patients'
p104
S'Patient'
p105
S'NNS'
p106
S'B-NP'
p107
g3
tp108
a(S'with'
p109
S'with'
p110
S'IN'
p111
S'B-PP'
p112
g3
tp113
a(S'angina'
p114
S'angina'
p115
S'NN'
p116
S'B-NP'
p117
g3
tp118
a(S'pectoris'
p119
S'pectoris'
p120
S'NN'
p121
S'I-NP'
p122
g3
tp123
a(S','
p124
g124
g124
g3
g3
tp125
a(S'exercise'
p126
S'exercise'
p127
S'NN'
p128
S'B-NP'
p129
g3
tp130
a(S'induced'
p131
S'induce'
p132
S'VBD'
p133
S'B-VP'
p134
g3
tp135
a(S'myocardial'
p136
S'myocardial'
p137
S'JJ'
p138
S'B-NP'
p139
g3
tp140
a(S'ischemia'
p141
S'ischemia'
p142
S'NN'
p143
S'I-NP'
p144
g3
tp145
a(g124
g124
g124
g3
g3
tp146
a(S'normal'
p147
S'normal'
p148
S'JJ'
p149
S'B-NP'
p150
g3
tp151
a(S'coronary'
p152
S'coronary'
p153
S'JJ'
p154
S'I-NP'
p155
g3
tp156
a(S'arteries'
p157
S'artery'
p158
S'NNS'
p159
S'I-NP'
p160
g3
tp161
a(S'and'
p162
S'and'
p163
S'CC'
p164
g3
g3
tp165
a(S'no'
p166
S'no'
p167
S'DT'
p168
S'B-NP'
p169
g3
tp170
a(S'evidence'
p171
S'evidence'
p172
S'NN'
p173
S'I-NP'
p174
g3
tp175
a(S'of'
p176
S'of'
p177
S'IN'
p178
S'B-PP'
p179
g3
tp180
a(S'epicardial'
p181
S'epicardial'
p182
S'JJ'
p183
S'B-NP'
p184
g3
tp185
a(S'spasm'
p186
S'spasm'
p187
S'NN'
p188
S'I-NP'
p189
g3
tp190
a(g124
g124
g124
g3
g3
tp191
a(S'i.e.'
p192
S'i.e.'
p193
S'FW'
p194
S'B-NP'
p195
g3
tp196
a(S'patients'
p197
S'patient'
p198
S'NNS'
p199
S'I-NP'
p200
g3
tp201
a(S'with'
p202
S'with'
p203
S'IN'
p204
S'B-PP'
p205
g3
tp206
a(S'syndrome'
p207
S'syndrome'
p208
S'NN'
p209
S'B-NP'
p210
g3
tp211
a(S'x'
p212
g212
S'NN'
p213
S'I-NP'
p214
g3
tp215
a(g124
g124
g124
g3
g3
tp216
a(S'have'
p217
S'have'
p218
S'VBP'
p219
S'B-VP'
p220
g3
tp221
a(S'been'
p222
S'be'
p223
S'VBN'
p224
S'I-VP'
p225
g3
tp226
a(S'suggested'
p227
S'suggest'
p228
S'VBN'
p229
S'I-VP'
p230
g3
tp231
a(S'to'
p232
S'to'
p233
S'TO'
p234
S'I-VP'
p235
g3
tp236
a(S'haven'
p237
S'haven'
p238
S'VB'
p239
S'I-VP'
p240
g3
tp241
a(S'inadequate'
p242
S'inadequate'
p243
S'JJ'
p244
S'B-NP'
p245
g3
tp246
a(S'increase'
p247
S'increase'
p248
S'NN'
p249
S'I-NP'
p250
g3
tp251
a(S'in'
p252
S'in'
p253
S'IN'
p254
S'B-PP'
p255
g3
tp256
a(S'coronary'
p257
S'coronary'
p258
S'JJ'
p259
S'B-NP'
p260
g3
tp261
a(S'blood'
p262
S'blood'
p263
S'NN'
p264
S'I-NP'
p265
g3
tp266
a(S'flow'
p267
S'flow'
p268
S'NN'
p269
S'I-NP'
p270
g3
tp271
a(S'during'
p272
S'during'
p273
S'IN'
p274
S'B-PP'
p275
g3
tp276
a(S'tachycardia'
p277
S'tachycardia'
p278
S'NN'
p279
S'B-NP'
p280
g3
tp281
a(g124
g124
g124
g3
g3
tp282
a(S'possibly'
p283
S'possibly'
p284
S'RB'
p285
S'B-ADVP'
p286
g3
tp287
a(S'due'
p288
S'due'
p289
S'JJ'
p290
S'B-PP'
p291
g3
tp292
a(S'to'
p293
S'to'
p294
S'TO'
p295
S'B-PP'
p296
g3
tp297
a(S'a'
p298
g298
S'DT'
p299
S'B-NP'
p300
g3
tp301
a(S'functional'
p302
S'functional'
p303
S'JJ'
p304
S'I-NP'
p305
g3
tp306
a(S'disorder'
p307
S'disorder'
p308
S'NN'
p309
S'I-NP'
p310
g3
tp311
a(S'of'
p312
S'of'
p313
S'IN'
p314
S'B-PP'
p315
g3
tp316
a(S'small'
p317
S'small'
p318
S'JJ'
p319
S'B-NP'
p320
g3
tp321
a(S'coronary'
p322
S'coronary'
p323
S'JJ'
p324
S'I-NP'
p325
g3
tp326
a(S'vessels.'
p327
S'vessels.'
p328
S'NN'
p329
S'I-NP'
p330
g3
tp331
a(S'To'
p332
S'To'
p333
S'TO'
p334
S'B-VP'
p335
g3
tp336
a(S'evaluate'
p337
S'evaluate'
p338
S'VB'
p339
S'I-VP'
p340
g3
tp341
a(S'the'
p342
S'the'
p343
S'DT'
p344
S'B-NP'
p345
g3
tp346
a(S'best'
p347
S'good'
p348
S'JJS'
p349
S'I-NP'
p350
g3
tp351
a(S'medical'
p352
S'medical'
p353
S'JJ'
p354
S'I-NP'
p355
g3
tp356
a(S'management'
p357
S'management'
p358
S'NN'
p359
S'I-NP'
p360
g3
tp361
a(S'of'
p362
S'of'
p363
S'IN'
p364
S'B-PP'
p365
g3
tp366
a(S'this'
p367
S'this'
p368
S'DT'
p369
S'B-NP'
p370
g3
tp371
a(S'syndrome'
p372
S'syndrome'
p373
S'NN'
p374
S'I-NP'
p375
g3
tp376
a(S'we'
p377
S'we'
p378
S'PRP'
p379
S'B-NP'
p380
g3
tp381
a(S'studied'
p382
S'study'
p383
S'VBD'
p384
S'B-VP'
p385
g3
tp386
a(S'13'
p387
S'13'
p388
S'CD'
p389
S'B-NP'
p390
g3
tp391
a(S'patients'
p392
S'patient'
p393
S'NNS'
p394
S'I-NP'
p395
g3
tp396
a(S'who'
p397
S'who'
p398
S'WP'
p399
S'B-NP'
p400
g3
tp401
a(S'showed'
p402
S'show'
p403
S'VBD'
p404
S'B-VP'
p405
g3
tp406
a(S'the'
p407
S'the'
p408
S'DT'
p409
S'B-NP'
p410
g3
tp411
a(S'above'
p412
S'above'
p413
S'JJ'
p414
S'I-NP'
p415
g3
tp416
a(S'set'
p417
S'set'
p418
S'NN'
p419
S'I-NP'
p420
g3
tp421
a(S'of'
p422
S'of'
p423
S'IN'
p424
S'B-PP'
p425
g3
tp426
a(S'findings.'
p427
S'findings.'
p428
S'NN'
p429
S'B-NP'
p430
g3
tp431
a(S'Patients'
p432
S'Patient'
p433
S'NNS'
p434
S'I-NP'
p435
g3
tp436
a(S'were'
p437
S'be'
p438
S'VBD'
p439
S'B-VP'
p440
g3
tp441
a(S'given'
p442
S'give'
p443
S'VBN'
p444
S'I-VP'
p445
g3
tp446
a(S'propranolol'
p447
S'propranolol'
p448
S'NN'
p449
S'B-NP'
p450
g3
tp451
a(g2
g2
g2
g3
g3
tp452
a(S'160'
p453
S'160'
p454
S'CD'
p455
S'B-NP'
p456
g3
tp457
a(S'mg'
p458
S'mg'
p459
S'NN'
p460
S'I-NP'
p461
g3
tp462
a(S'daily'
p463
S'daily'
p464
S'JJ'
p465
S'I-NP'
p466
g3
tp467
a(g100
g100
g100
g3
g3
tp468
a(g124
g124
g124
g3
g3
tp469
a(S'diltiazem'
p470
S'diltiazem'
p471
S'NN'
p472
S'B-NP'
p473
g3
tp474
a(g2
g2
g2
g3
g3
tp475
a(S'360'
p476
S'360'
p477
S'CD'
p478
S'B-NP'
p479
g3
tp480
a(S'mg'
p481
S'mg'
p482
S'NN'
p483
S'I-NP'
p484
g3
tp485
a(S'daily'
p486
S'daily'
p487
S'JJ'
p488
S'B-ADJP'
p489
g3
tp490
a(g100
g100
g100
g3
g3
tp491
a(S'and'
p492
S'and'
p493
S'CC'
p494
g3
g3
tp495
a(S'placebo'
p496
S'placebo'
p497
S'NN'
p498
S'B-NP'
p499
g3
tp500
a(S'for'
p501
S'for'
p502
S'IN'
p503
S'B-PP'
p504
g3
tp505
a(S'2'
p506
g506
S'CD'
p507
S'B-NP'
p508
g3
tp509
a(S'weeks'
p510
S'week'
p511
S'NNS'
p512
S'I-NP'
p513
g3
tp514
a(g124
g124
g124
g3
g3
tp515
a(S'using'
p516
S'use'
p517
S'VBG'
p518
S'B-VP'
p519
g3
tp520
a(g298
g298
S'DT'
p521
S'B-NP'
p522
g3
tp523
a(S'randomized'
p524
S'randomize'
p525
S'VBN'
p526
S'I-NP'
p527
g3
tp528
a(S'single'
p529
S'single'
p530
S'JJ'
p531
S'I-NP'
p532
g3
tp533
a(S'blind'
p534
S'blind'
p535
S'JJ'
p536
S'I-NP'
p537
g3
tp538
a(S'protocol.'
p539
S'protocol.'
p540
S'NN'
p541
S'I-NP'
p542
g3
tp543
a(S'Upright'
p544
S'Upright'
p545
S'NNP'
p546
S'I-NP'
p547
g3
tp548
a(S'bicycle'
p549
S'bicycle'
p550
S'NN'
p551
S'I-NP'
p552
g3
tp553
a(S'ergometer'
p554
S'ergometer'
p555
S'NN'
p556
S'I-NP'
p557
g3
tp558
a(S'testing'
p559
S'testing'
p560
S'NN'
p561
S'I-NP'
p562
g3
tp563
a(S'was'
p564
S'be'
p565
S'VBD'
p566
S'B-VP'
p567
g3
tp568
a(S'performed'
p569
S'perform'
p570
S'VBN'
p571
S'I-VP'
p572
g3
tp573
a(S'at'
p574
S'at'
p575
S'IN'
p576
S'B-PP'
p577
g3
tp578
a(S'the'
p579
S'the'
p580
S'DT'
p581
S'B-NP'
p582
g3
tp583
a(S'end'
p584
S'end'
p585
S'NN'
p586
S'I-NP'
p587
g3
tp588
a(S'of'
p589
S'of'
p590
S'IN'
p591
S'B-PP'
p592
g3
tp593
a(S'each'
p594
S'each'
p595
S'DT'
p596
S'B-NP'
p597
g3
tp598
a(S'period'
p599
S'period'
p600
S'NN'
p601
S'I-NP'
p602
g3
tp603
a(S'of'
p604
S'of'
p605
S'IN'
p606
S'B-PP'
p607
g3
tp608
a(S'treatment.'
p609
S'treatment.'
p610
S'NN'
p611
S'B-NP'
p612
g3
tp613
a(S'Compared'
p614
S'Compare'
p615
S'VBN'
p616
S'B-VP'
p617
g3
tp618
a(S'to'
p619
S'to'
p620
S'TO'
p621
S'B-PP'
p622
g3
tp623
a(S'placebo'
p624
S'placebo'
p625
S'NN'
p626
S'B-NP'
p627
g3
tp628
a(g124
g124
g124
g3
g3
tp629
a(S'diltiazem'
p630
S'diltiazem'
p631
S'NN'
p632
S'B-NP'
p633
g3
tp634
a(S'significantly'
p635
S'significantly'
p636
S'RB'
p637
S'B-ADVP'
p638
g3
tp639
a(g2
g2
g2
g3
g3
tp640
a(S'p'
p641
g641
S'NN'
p642
S'B-NP'
p643
g3
tp644
a(S'less'
p645
S'less'
p646
S'JJR'
p647
S'B-ADJP'
p648
g3
tp649
a(S'than'
p650
S'than'
p651
S'IN'
p652
S'B-PP'
p653
g3
tp654
a(S'0.001'
p655
S'0.001'
p656
S'CD'
p657
S'B-NP'
p658
g3
tp659
a(g100
g100
g100
g3
g3
tp660
a(S'prolonged'
p661
S'prolong'
p662
S'VBD'
p663
S'B-VP'
p664
g3
tp665
a(S'exercise'
p666
S'exercise'
p667
S'NN'
p668
S'B-NP'
p669
g3
tp670
a(S'duration'
p671
S'duration'
p672
S'NN'
p673
S'I-NP'
p674
g3
tp675
a(g2
g2
g2
g3
g3
tp676
a(g212
g212
S'NN'
p677
S'B-NP'
p678
g3
tp679
a(S'+/-'
p680
S'+/-'
p681
S'SYM'
p682
S'I-NP'
p683
g3
tp684
a(S'SD'
p685
S'SD'
p686
S'NN'
p687
S'I-NP'
p688
g3
tp689
a(S':'
p690
g690
g690
g3
g3
tp691
a(S'365'
p692
S'365'
p693
S'CD'
p694
S'B-NP'
p695
g3
tp696
a(S'+/-'
p697
S'+/-'
p698
S'CC'
p699
S'I-NP'
p700
g3
tp701
a(S'86'
p702
S'86'
p703
S'CD'
p704
S'I-NP'
p705
g3
tp706
a(S'vs'
p707
S'vs'
p708
S'IN'
p709
S'B-NP'
p710
g3
tp711
a(S'303'
p712
S'303'
p713
S'CD'
p714
S'I-NP'
p715
g3
tp716
a(S'+/-'
p717
S'+/-'
p718
S'SYM'
p719
S'I-NP'
p720
g3
tp721
a(S'89'
p722
S'89'
p723
S'CD'
p724
S'I-NP'
p725
g3
tp726
a(S'sec'
p727
S'sec'
p728
S'NN'
p729
S'I-NP'
p730
g3
tp731
a(g100
g100
g100
g3
g3
tp732
a(S'and'
p733
S'and'
p734
S'CC'
p735
g3
g3
tp736
a(S'time'
p737
S'time'
p738
S'NN'
p739
S'B-NP'
p740
g3
tp741
a(S'to'
p742
S'to'
p743
S'TO'
p744
S'B-PP'
p745
g3
tp746
a(S'onset'
p747
S'onset'
p748
S'NN'
p749
S'B-NP'
p750
g3
tp751
a(S'of'
p752
S'of'
p753
S'IN'
p754
S'B-PP'
p755
g3
tp756
a(S'angina'
p757
S'angina'
p758
S'NN'
p759
S'B-NP'
p760
g3
tp761
a(g2
g2
g2
g3
g3
tp762
a(S'358'
p763
S'358'
p764
S'CD'
p765
S'B-NP'
p766
g3
tp767
a(S'+/-'
p768
S'+/-'
p769
S'SYM'
p770
S'I-NP'
p771
g3
tp772
a(S'88'
p773
S'88'
p774
S'CD'
p775
S'I-NP'
p776
g3
tp777
a(S'vs'
p778
S'vs'
p779
S'IN'
p780
S'B-PP'
p781
g3
tp782
a(S'276'
p783
S'276'
p784
S'CD'
p785
S'B-NP'
p786
g3
tp787
a(S'+/-'
p788
S'+/-'
p789
S'SYM'
p790
S'I-NP'
p791
g3
tp792
a(S'90'
p793
S'90'
p794
S'CD'
p795
S'I-NP'
p796
g3
tp797
a(S'sec'
p798
S'sec'
p799
S'NN'
p800
S'I-NP'
p801
g3
tp802
a(g100
g100
g100
g3
g3
tp803
a(g102
g102
g102
g3
g3
tp804
a(S'Angina'
p805
S'Angina'
p806
S'NNP'
p807
S'B-NP'
p808
g3
tp809
a(S'appeared'
p810
S'appear'
p811
S'VBD'
p812
S'B-VP'
p813
g3
tp814
a(S'in'
p815
S'in'
p816
S'IN'
p817
S'B-PP'
p818
g3
tp819
a(S'7'
p820
g820
S'CD'
p821
S'B-NP'
p822
g3
tp823
a(S'patients'
p824
S'patient'
p825
S'NNS'
p826
S'I-NP'
p827
g3
tp828
a(S'with'
p829
S'with'
p830
S'IN'
p831
S'B-PP'
p832
g3
tp833
a(S'diltiazem'
p834
S'diltiazem'
p835
S'NN'
p836
S'B-NP'
p837
g3
tp838
a(S'vs'
p839
S'vs'
p840
S'IN'
p841
S'B-PP'
p842
g3
tp843
a(S'13'
p844
S'13'
p845
S'CD'
p846
S'B-NP'
p847
g3
tp848
a(S'patients'
p849
S'patient'
p850
S'NNS'
p851
S'I-NP'
p852
g3
tp853
a(S'with'
p854
S'with'
p855
S'IN'
p856
S'B-PP'
p857
g3
tp858
a(S'placebo'
p859
S'placebo'
p860
S'NN'
p861
S'B-NP'
p862
g3
tp863
a(S'and'
p864
S'and'
p865
S'CC'
p866
g3
g3
tp867
a(S'occurred'
p868
S'occur'
p869
S'VBD'
p870
S'B-VP'
p871
g3
tp872
a(S'at'
p873
S'at'
p874
S'IN'
p875
S'B-PP'
p876
g3
tp877
a(g298
g298
S'DT'
p878
S'B-NP'
p879
g3
tp880
a(S'higher'
p881
S'high'
p882
S'JJR'
p883
S'I-NP'
p884
g3
tp885
a(S'rate'
p886
S'rate'
p887
S'NN'
p888
S'I-NP'
p889
g3
tp890
a(S'pressure'
p891
S'pressure'
p892
S'NN'
p893
S'I-NP'
p894
g3
tp895
a(S'product'
p896
S'product'
p897
S'NN'
p898
S'I-NP'
p899
g3
tp900
a(g2
g2
g2
g3
g3
tp901
a(S'26.3'
p902
S'26.3'
p903
S'CD'
p904
S'B-NP'
p905
g3
tp906
a(S'+/-'
p907
S'+/-'
p908
S'SYM'
p909
S'I-NP'
p910
g3
tp911
a(S'3.5'
p912
S'3.5'
p913
S'CD'
p914
S'I-NP'
p915
g3
tp916
a(S'vs'
p917
S'vs'
p918
S'IN'
p919
S'B-PP'
p920
g3
tp921
a(S'24.1'
p922
S'24.1'
p923
S'CD'
p924
S'B-NP'
p925
g3
tp926
a(S'+/-'
p927
S'+/-'
p928
S'SYM'
p929
S'I-NP'
p930
g3
tp931
a(S'2.8'
p932
S'2.8'
p933
S'CD'
p934
S'I-NP'
p935
g3
tp936
a(g95
g95
S'SYM'
p937
S'I-NP'
p938
g3
tp939
a(S'10'
p940
S'10'
p941
S'CD'
p942
S'I-NP'
p943
g3
tp944
a(g2
g2
g2
g3
g3
tp945
a(S'-3'
p946
S'-3'
p947
S'CD'
p948
S'B-NP'
p949
g3
tp950
a(g100
g100
g100
g3
g3
tp951
a(S';'
p952
g952
g690
g3
g3
tp953
a(g641
g641
S'NN'
p954
S'B-NP'
p955
g3
tp956
a(S'less'
p957
S'less'
p958
S'JJR'
p959
S'B-ADJP'
p960
g3
tp961
a(S'than'
p962
S'than'
p963
S'IN'
p964
S'B-PP'
p965
g3
tp966
a(S'0.02'
p967
S'0.02'
p968
S'CD'
p969
S'B-NP'
p970
g3
tp971
a(g100
g100
g100
g3
g3
tp972
a(g102
g102
g102
g3
g3
tp973
a(S'Conversely'
p974
S'Conversely'
p975
S'RB'
p976
S'B-ADVP'
p977
g3
tp978
a(g124
g124
g124
g3
g3
tp979
a(S'following'
p980
S'follow'
p981
S'VBG'
p982
S'B-PP'
p983
g3
tp984
a(S'propranolol'
p985
S'propranolol'
p986
S'NN'
p987
S'B-NP'
p988
g3
tp989
a(S'exercise'
p990
S'exercise'
p991
S'NN'
p992
S'I-NP'
p993
g3
tp994
a(S'duration'
p995
S'duration'
p996
S'NN'
p997
S'I-NP'
p998
g3
tp999
a(S'and'
p1000
S'and'
p1001
S'CC'
p1002
g3
g3
tp1003
a(S'time'
p1004
S'time'
p1005
S'NN'
p1006
S'B-NP'
p1007
g3
tp1008
a(S'to'
p1009
S'to'
p1010
S'TO'
p1011
S'B-PP'
p1012
g3
tp1013
a(S'onset'
p1014
S'onset'
p1015
S'NN'
p1016
S'B-NP'
p1017
g3
tp1018
a(S'of'
p1019
S'of'
p1020
S'IN'
p1021
S'B-PP'
p1022
g3
tp1023
a(S'angina'
p1024
S'angina'
p1025
S'NN'
p1026
S'B-NP'
p1027
g3
tp1028
a(S'were'
p1029
S'be'
p1030
S'VBD'
p1031
S'B-VP'
p1032
g3
tp1033
a(S'unchanged'
p1034
S'unchanged'
p1035
S'JJ'
p1036
S'B-ADJP'
p1037
g3
tp1038
a(S'and'
p1039
S'and'
p1040
S'CC'
p1041
g3
g3
tp1042
a(S'angina'
p1043
S'angina'
p1044
S'NN'
p1045
S'B-NP'
p1046
g3
tp1047
a(S'appeared'
p1048
S'appear'
p1049
S'VBD'
p1050
S'B-VP'
p1051
g3
tp1052
a(S'in'
p1053
S'in'
p1054
S'IN'
p1055
S'B-PP'
p1056
g3
tp1057
a(S'all'
p1058
S'all'
p1059
S'DT'
p1060
S'B-NP'
p1061
g3
tp1062
a(S'patients'
p1063
S'patient'
p1064
S'NNS'
p1065
S'I-NP'
p1066
g3
tp1067
a(S'at'
p1068
S'at'
p1069
S'IN'
p1070
S'B-PP'
p1071
g3
tp1072
a(g298
g298
S'DT'
p1073
S'B-NP'
p1074
g3
tp1075
a(S'lower'
p1076
S'low'
p1077
S'JJR'
p1078
S'I-NP'
p1079
g3
tp1080
a(S'rate'
p1081
S'rate'
p1082
S'NN'
p1083
S'I-NP'
p1084
S'B-protein'
p1085
tp1086
a(S'pressure'
p1087
S'pressure'
p1088
S'NN'
p1089
S'I-NP'
p1090
S'I-protein'
p1091
tp1092
a(S'product'
p1093
S'product'
p1094
S'NN'
p1095
S'I-NP'
p1096
S'I-protein'
p1097
tp1098
a(g2
g2
g2
g3
g3
tp1099
a(S'18.3'
p1100
S'18.3'
p1101
S'CD'
p1102
S'B-NP'
p1103
g3
tp1104
a(S'+/-'
p1105
S'+/-'
p1106
S'SYM'
p1107
S'I-NP'
p1108
g3
tp1109
a(S'2.9'
p1110
S'2.9'
p1111
S'CD'
p1112
S'I-NP'
p1113
g3
tp1114
a(S'vs'
p1115
S'vs'
p1116
S'IN'
p1117
S'B-PP'
p1118
g3
tp1119
a(S'24.4'
p1120
S'24.4'
p1121
S'CD'
p1122
S'B-NP'
p1123
g3
tp1124
a(S'+/-'
p1125
S'+/-'
p1126
S'SYM'
p1127
S'I-NP'
p1128
g3
tp1129
a(S'3.6'
p1130
S'3.6'
p1131
S'CD'
p1132
S'I-NP'
p1133
g3
tp1134
a(g95
g95
S'SYM'
p1135
S'I-NP'
p1136
g3
tp1137
a(S'10'
p1138
S'10'
p1139
S'CD'
p1140
S'I-NP'
p1141
g3
tp1142
a(g2
g2
g2
g3
g3
tp1143
a(S'-3'
p1144
S'-3'
p1145
S'CD'
p1146
S'B-NP'
p1147
g3
tp1148
a(g100
g100
g100
g3
g3
tp1149
a(g952
g952
g690
g3
g3
tp1150
a(g641
g641
S'NN'
p1151
S'B-NP'
p1152
g3
tp1153
a(S'less'
p1154
S'less'
p1155
S'JJR'
p1156
S'B-ADJP'
p1157
g3
tp1158
a(S'than'
p1159
S'than'
p1160
S'IN'
p1161
S'B-PP'
p1162
g3
tp1163
a(S'0.001'
p1164
S'0.001'
p1165
S'CD'
p1166
S'B-NP'
p1167
g3
tp1168
a(g100
g100
g100
g3
g3
tp1169
a(g102
g102
g102
g3
g3
tp1170
a(S'The'
p1171
S'The'
p1172
S'DT'
p1173
S'B-NP'
p1174
g3
tp1175
a(S'most'
p1176
S'most'
p1177
S'RBS'
p1178
S'I-NP'
p1179
g3
tp1180
a(S'likely'
p1181
S'likely'
p1182
S'JJ'
p1183
S'I-NP'
p1184
g3
tp1185
a(S'explanations'
p1186
S'explanation'
p1187
S'NNS'
p1188
S'I-NP'
p1189
g3
tp1190
a(S'for'
p1191
S'for'
p1192
S'IN'
p1193
S'B-PP'
p1194
g3
tp1195
a(S'these'
p1196
S'these'
p1197
S'DT'
p1198
S'B-NP'
p1199
g3
tp1200
a(S'findings'
p1201
S'finding'
p1202
S'NNS'
p1203
S'I-NP'
p1204
g3
tp1205
a(S'are'
p1206
S'be'
p1207
S'VBP'
p1208
S'B-VP'
p1209
g3
tp1210
a(g690
g690
g690
g3
g3
tp1211
a(S'propranolol'
p1212
S'propranolol'
p1213
S'NN'
p1214
S'B-NP'
p1215
g3
tp1216
a(S'counteracts'
p1217
S'counteract'
p1218
S'VBZ'
p1219
S'B-VP'
p1220
g3
tp1221
a(S'beta'
p1222
S'beta'
p1223
S'NN'
p1224
S'B-NP'
p1225
S'B-protein'
p1226
tp1227
a(S'2-adrenergic'
p1228
S'2-adrenergic'
p1229
S'JJ'
p1230
S'I-NP'
p1231
S'I-protein'
p1232
tp1233
a(S'receptors'
p1234
S'receptor'
p1235
S'NNS'
p1236
S'I-NP'
p1237
S'I-protein'
p1238
tp1239
a(g124
g124
g124
g3
g3
tp1240
a(S'thus'
p1241
S'thus'
p1242
S'RB'
p1243
g3
g3
tp1244
a(S'further'
p1245
S'further'
p1246
S'RB'
p1247
S'B-VP'
p1248
g3
tp1249
a(S'reducing'
p1250
S'reduce'
p1251
S'VBG'
p1252
S'I-VP'
p1253
g3
tp1254
a(S'coronary'
p1255
S'coronary'
p1256
S'JJ'
p1257
S'B-NP'
p1258
g3
tp1259
a(S'reserve.'
p1260
S'reserve.'
p1261
S'NN'
p1262
S'I-NP'
p1263
g3
tp1264
a(S'This'
p1265
S'This'
p1266
S'DT'
p1267
S'B-NP'
p1268
g3
tp1269
a(S'may'
p1270
S'may'
p1271
S'MD'
p1272
S'B-VP'
p1273
g3
tp1274
a(S'lower'
p1275
S'lower'
p1276
S'VB'
p1277
S'I-VP'
p1278
g3
tp1279
a(S'the'
p1280
S'the'
p1281
S'DT'
p1282
S'B-NP'
p1283
g3
tp1284
a(S'anginal'
p1285
S'anginal'
p1286
S'JJ'
p1287
S'I-NP'
p1288
g3
tp1289
a(S'threshold'
p1290
S'threshold'
p1291
S'NN'
p1292
S'I-NP'
p1293
g3
tp1294
a(g952
g952
g690
g3
g3
tp1295
a(S'Diltiazem'
p1296
S'Diltiazem'
p1297
S'NNP'
p1298
S'B-NP'
p1299
g3
tp1300
a(S'reduces'
p1301
S'reduce'
p1302
S'VBZ'
p1303
S'B-VP'
p1304
g3
tp1305
a(S'smooth'
p1306
S'smooth'
p1307
S'JJ'
p1308
S'B-NP'
p1309
g3
tp1310
a(S'muscle'
p1311
S'muscle'
p1312
S'NN'
p1313
S'I-NP'
p1314
g3
tp1315
a(S'tone'
p1316
S'tone'
p1317
S'NN'
p1318
S'I-NP'
p1319
g3
tp1320
a(S'in'
p1321
S'in'
p1322
S'IN'
p1323
S'B-PP'
p1324
g3
tp1325
a(S'small'
p1326
S'small'
p1327
S'JJ'
p1328
S'B-NP'
p1329
g3
tp1330
a(S'coronary'
p1331
S'coronary'
p1332
S'JJ'
p1333
S'I-NP'
p1334
g3
tp1335
a(S'vessels.'
p1336
S'vessels.'
p1337
S'NN'
p1338
S'I-NP'
p1339
g3
tp1340
a(S'This'
p1341
S'This'
p1342
S'DT'
p1343
S'B-NP'
p1344
g3
tp1345
a(S'may'
p1346
S'may'
p1347
S'MD'
p1348
S'B-VP'
p1349
g3
tp1350
a(S'result'
p1351
S'result'
p1352
S'VB'
p1353
S'I-VP'
p1354
g3
tp1355
a(S'in'
p1356
S'in'
p1357
S'IN'
p1358
S'B-PP'
p1359
g3
tp1360
a(S'increased'
p1361
S'increase'
p1362
S'VBN'
p1363
S'B-NP'
p1364
g3
tp1365
a(S'coronary'
p1366
S'coronary'
p1367
S'JJ'
p1368
S'I-NP'
p1369
g3
tp1370
a(S'reserve'
p1371
S'reserve'
p1372
S'NN'
p1373
S'I-NP'
p1374
g3
tp1375
a(S'and'
p1376
S'and'
p1377
S'CC'
p1378
g3
g3
tp1379
a(S'exercise'
p1380
S'exercise'
p1381
S'NN'
p1382
S'B-NP'
p1383
g3
tp1384
a(S'duration'
p1385
S'duration'
p1386
S'NN'
p1387
S'I-NP'
p1388
g3
tp1389
a(g102
g102
g102
g3
g3
tp1390
a.