(lp0
(S'['
p1
g1
S'('
p2
S'O'
p3
g3
tp4
a(S'Prophylactic'
p5
S'Prophylactic'
p6
S'JJ'
p7
S'B-NP'
p8
g3
tp9
a(S'intraaortic'
p10
S'intraaortic'
p11
S'JJ'
p12
S'I-NP'
p13
g3
tp14
a(S'balloon'
p15
S'balloon'
p16
S'NN'
p17
S'I-NP'
p18
g3
tp19
a(S'pumping'
p20
S'pumping'
p21
S'NN'
p22
S'I-NP'
p23
g3
tp24
a(S'in'
p25
S'in'
p26
S'IN'
p27
S'B-PP'
p28
g3
tp29
a(S'high-risk'
p30
S'high-risk'
p31
S'JJ'
p32
S'B-NP'
p33
g3
tp34
a(S'cardiac'
p35
S'cardiac'
p36
S'JJ'
p37
S'I-NP'
p38
g3
tp39
a(S'surgery'
p40
S'surgery'
p41
S'NN'
p42
S'I-NP'
p43
g3
tp44
a(S'patients'
p45
S'patient'
p46
S'NNS'
p47
S'I-NP'
p48
g3
tp49
a(S']'
p50
g50
S')'
p51
g3
g3
tp52
a(S'.'
p53
g53
g53
g3
g3
tp54
a(S'BACKGROUND'
p55
S'BACKGROUND'
p56
S'NN'
p57
S'B-NP'
p58
g3
tp59
a(S'We'
p60
S'We'
p61
S'PRP'
p62
S'B-NP'
p63
g3
tp64
a(S'examined'
p65
S'examine'
p66
S'VBD'
p67
S'B-VP'
p68
g3
tp69
a(S'the'
p70
S'the'
p71
S'DT'
p72
S'B-NP'
p73
g3
tp74
a(S'impact'
p75
S'impact'
p76
S'NN'
p77
S'I-NP'
p78
g3
tp79
a(S'of'
p80
S'of'
p81
S'IN'
p82
S'B-PP'
p83
g3
tp84
a(S'prophylactic'
p85
S'prophylactic'
p86
S'JJ'
p87
S'B-NP'
p88
g3
tp89
a(S'IABP'
p90
S'IABP'
p91
S'NN'
p92
S'I-NP'
p93
g3
tp94
a(S'insertion'
p95
S'insertion'
p96
S'NN'
p97
S'I-NP'
p98
g3
tp99
a(S'in'
p100
S'in'
p101
S'IN'
p102
S'B-PP'
p103
g3
tp104
a(S'EuroSCORE-stratified'
p105
S'EuroSCORE-stratified'
p106
S'JJ'
p107
S'B-NP'
p108
g3
tp109
a(S'high-risk'
p110
S'high-risk'
p111
S'JJ'
p112
S'I-NP'
p113
g3
tp114
a(S'cardiac'
p115
S'cardiac'
p116
S'JJ'
p117
S'I-NP'
p118
g3
tp119
a(S'surgery'
p120
S'surgery'
p121
S'NN'
p122
S'I-NP'
p123
g3
tp124
a(S'patients'
p125
S'patient'
p126
S'NNS'
p127
S'I-NP'
p128
g3
tp129
a(S'with'
p130
S'with'
p131
S'IN'
p132
S'B-PP'
p133
g3
tp134
a(S'a'
p135
g135
S'DT'
p136
S'B-NP'
p137
g3
tp138
a(S'score'
p139
S'score'
p140
S'NN'
p141
S'I-NP'
p142
S'B-protein'
p143
tp144
a(S'\xe2\x89\xa58'
p145
S'\xe2\x89\xa58'
p146
S'CD'
p147
S'I-NP'
p148
S'I-protein'
p149
tp150
a(g53
g53
g53
g3
g3
tp151
a(S'MATERIAL'
p152
S'MATERIAL'
p153
S'NN'
p154
S'B-NP'
p155
g3
tp156
a(S'AND'
p157
S'AND'
p158
S'CC'
p159
S'I-NP'
p160
g3
tp161
a(S'METHODS'
p162
S'METHODS'
p163
S'NNS'
p164
S'I-NP'
p165
g3
tp166
a(S'A'
p167
g167
S'DT'
p168
S'B-NP'
p169
g3
tp170
a(S'randomized'
p171
S'randomize'
p172
S'VBN'
p173
S'I-NP'
p174
g3
tp175
a(S'trial'
p176
S'trial'
p177
S'NN'
p178
S'I-NP'
p179
g3
tp180
a(S'with'
p181
S'with'
p182
S'IN'
p183
S'B-PP'
p184
g3
tp185
a(S'104\xc2\xa0patients'
p186
S'104\xc2\xa0patient'
p187
S'NNS'
p188
S'B-NP'
p189
g3
tp190
a(S'either'
p191
S'either'
p192
S'CC'
p193
S'B-PP'
p194
g3
tp195
a(S'without'
p196
S'without'
p197
S'IN'
p198
S'B-PP'
p199
g3
tp200
a(S'prophylactic'
p201
S'prophylactic'
p202
S'JJ'
p203
S'B-NP'
p204
g3
tp205
a(S'IABP'
p206
S'IABP'
p207
S'NN'
p208
S'I-NP'
p209
g3
tp210
a(S'insertion'
p211
S'insertion'
p212
S'NN'
p213
S'I-NP'
p214
g3
tp215
a(g2
g2
g2
g3
g3
tp216
a(S'group\xc2\xa0A'
p217
S'group\xc2\xa0A'
p218
S'NN'
p219
S'B-NP'
p220
g3
tp221
a(S','
p222
g222
g222
g3
g3
tp223
a(S'n=52'
p224
S'n=52'
p225
S'NN'
p226
S'B-NP'
p227
S'B-protein'
p228
tp229
a(g51
g51
g51
g3
g3
tp230
a(S'or'
p231
S'or'
p232
S'CC'
p233
g3
g3
tp234
a(S'with'
p235
S'with'
p236
S'IN'
p237
S'B-PP'
p238
g3
tp239
a(S'IABP'
p240
S'IABP'
p241
S'NN'
p242
S'B-NP'
p243
S'B-protein'
p244
tp245
a(g2
g2
g2
g3
g3
tp246
a(S'group\xc2\xa0B'
p247
S'group\xc2\xa0B'
p248
S'NN'
p249
S'B-NP'
p250
g3
tp251
a(g222
g222
g222
g3
g3
tp252
a(S'n=52'
p253
S'n=52'
p254
S'NN'
p255
S'B-NP'
p256
S'B-protein'
p257
tp258
a(g51
g51
g51
g3
g3
tp259
a(S'was'
p260
S'be'
p261
S'VBD'
p262
S'B-VP'
p263
g3
tp264
a(S'conducted.'
p265
S'conducted.'
p266
S'VBN'
p267
S'I-VP'
p268
g3
tp269
a(S'The'
p270
S'The'
p271
S'DT'
p272
S'B-NP'
p273
g3
tp274
a(S'primary'
p275
S'primary'
p276
S'JJ'
p277
S'I-NP'
p278
g3
tp279
a(S'endpoint'
p280
S'endpoint'
p281
S'NN'
p282
S'I-NP'
p283
g3
tp284
a(S'was'
p285
S'be'
p286
S'VBD'
p287
S'B-VP'
p288
g3
tp289
a(S'30-day'
p290
S'30-day'
p291
S'JJ'
p292
S'B-NP'
p293
g3
tp294
a(S'mortality'
p295
S'mortality'
p296
S'NN'
p297
S'I-NP'
p298
g3
tp299
a(g53
g53
g53
g3
g3
tp300
a(S'RESULTS'
p301
S'RESULTS'
p302
S'NNS'
p303
S'B-NP'
p304
g3
tp305
a(S'The'
p306
S'The'
p307
S'DT'
p308
S'B-NP'
p309
g3
tp310
a(S'median'
p311
S'median'
p312
S'JJ'
p313
S'I-NP'
p314
g3
tp315
a(S'age'
p316
S'age'
p317
S'NN'
p318
S'I-NP'
p319
g3
tp320
a(S'of'
p321
S'of'
p322
S'IN'
p323
S'B-PP'
p324
g3
tp325
a(S'the'
p326
S'the'
p327
S'DT'
p328
S'B-NP'
p329
g3
tp330
a(S'patients'
p331
S'patient'
p332
S'NNS'
p333
S'I-NP'
p334
g3
tp335
a(S'was'
p336
S'be'
p337
S'VBD'
p338
S'B-VP'
p339
g3
tp340
a(S'74\xc2\xa0years'
p341
S'74\xc2\xa0year'
p342
S'NNS'
p343
S'B-NP'
p344
g3
tp345
a(S'and'
p346
S'and'
p347
S'CC'
p348
g3
g3
tp349
a(S'43'
p350
S'43'
p351
S'CD'
p352
S'B-NP'
p353
g3
tp354
a(S'%'
p355
g355
S'NN'
p356
S'I-NP'
p357
g3
tp358
a(S'of'
p359
S'of'
p360
S'IN'
p361
S'B-PP'
p362
g3
tp363
a(S'participants'
p364
S'participant'
p365
S'NNS'
p366
S'B-NP'
p367
g3
tp368
a(S'were'
p369
S'be'
p370
S'VBD'
p371
S'B-VP'
p372
g3
tp373
a(S'females.'
p374
S'females.'
p375
S'VBN'
p376
S'I-VP'
p377
g3
tp378
a(S'The'
p379
S'The'
p380
S'DT'
p381
S'B-NP'
p382
g3
tp383
a(S'30-day'
p384
S'30-day'
p385
S'JJ'
p386
S'I-NP'
p387
g3
tp388
a(S'mortality'
p389
S'mortality'
p390
S'NN'
p391
S'I-NP'
p392
g3
tp393
a(S'did'
p394
S'do'
p395
S'VBD'
p396
S'B-VP'
p397
g3
tp398
a(S'not'
p399
S'not'
p400
S'RB'
p401
S'I-VP'
p402
g3
tp403
a(S'differ'
p404
S'differ'
p405
S'VB'
p406
S'I-VP'
p407
g3
tp408
a(S'between'
p409
S'between'
p410
S'IN'
p411
S'B-PP'
p412
g3
tp413
a(S'group\xc2\xa0A'
p414
S'group\xc2\xa0A'
p415
S'NN'
p416
S'B-NP'
p417
g3
tp418
a(g2
g2
g2
g3
g3
tp419
a(S'17.3'
p420
S'17.3'
p421
S'CD'
p422
S'B-NP'
p423
g3
tp424
a(g355
g355
S'NN'
p425
S'I-NP'
p426
g3
tp427
a(g51
g51
g51
g3
g3
tp428
a(S'and'
p429
S'and'
p430
S'CC'
p431
g3
g3
tp432
a(S'group\xc2\xa0B'
p433
S'group\xc2\xa0B'
p434
S'NN'
p435
S'B-NP'
p436
g3
tp437
a(g2
g2
g2
g3
g3
tp438
a(S'13.4'
p439
S'13.4'
p440
S'CD'
p441
S'B-NP'
p442
g3
tp443
a(g355
g355
S'NN'
p444
S'I-NP'
p445
g3
tp446
a(S';'
p447
g447
S':'
p448
g3
g3
tp449
a(S'p=0.78'
p450
S'p=0.78'
p451
S'NN'
p452
S'B-NP'
p453
g3
tp454
a(g51
g51
g51
g3
g3
tp455
a(g53
g53
g53
g3
g3
tp456
a(S'The'
p457
S'The'
p458
S'DT'
p459
S'B-NP'
p460
g3
tp461
a(S'median'
p462
S'median'
p463
S'JJ'
p464
S'I-NP'
p465
g3
tp466
a(S'hospital'
p467
S'hospital'
p468
S'NN'
p469
S'I-NP'
p470
g3
tp471
a(S'stay'
p472
S'stay'
p473
S'NN'
p474
S'I-NP'
p475
g3
tp476
a(S'was'
p477
S'be'
p478
S'VBD'
p479
S'B-VP'
p480
g3
tp481
a(S'14\xc2\xa0days'
p482
S'14\xc2\xa0day'
p483
S'NNS'
p484
S'B-NP'
p485
g3
tp486
a(S'in'
p487
S'in'
p488
S'IN'
p489
S'B-PP'
p490
g3
tp491
a(S'both'
p492
S'both'
p493
S'DT'
p494
S'B-NP'
p495
g3
tp496
a(S'groups.'
p497
S'groups.'
p498
S'NNS'
p499
S'I-NP'
p500
g3
tp501
a(S'Intra-'
p502
S'Intra-'
p503
S'JJ'
p504
S'B-NP'
p505
g3
tp506
a(S'and'
p507
S'and'
p508
S'CC'
p509
S'I-NP'
p510
g3
tp511
a(S'postoperative'
p512
S'postoperative'
p513
S'JJ'
p514
S'I-NP'
p515
g3
tp516
a(S'IABP'
p517
S'IABP'
p518
S'NN'
p519
S'I-NP'
p520
g3
tp521
a(S'support'
p522
S'support'
p523
S'NN'
p524
S'I-NP'
p525
g3
tp526
a(S'was'
p527
S'be'
p528
S'VBD'
p529
S'B-VP'
p530
g3
tp531
a(S'required'
p532
S'require'
p533
S'VBN'
p534
S'I-VP'
p535
g3
tp536
a(S'by'
p537
S'by'
p538
S'IN'
p539
S'B-PP'
p540
g3
tp541
a(S'13'
p542
S'13'
p543
S'CD'
p544
S'B-NP'
p545
g3
tp546
a(S'patients'
p547
S'patient'
p548
S'NNS'
p549
S'I-NP'
p550
g3
tp551
a(g2
g2
g2
g3
g3
tp552
a(S'21'
p553
S'21'
p554
S'CD'
p555
S'B-NP'
p556
g3
tp557
a(g355
g355
S'NN'
p558
S'I-NP'
p559
g3
tp560
a(g51
g51
g51
g3
g3
tp561
a(S'in'
p562
S'in'
p563
S'IN'
p564
S'B-PP'
p565
g3
tp566
a(S'group\xc2\xa0A.'
p567
S'group\xc2\xa0A.'
p568
S'NN'
p569
S'B-NP'
p570
g3
tp571
a(S'The'
p572
S'The'
p573
S'DT'
p574
S'B-NP'
p575
g3
tp576
a(S'median'
p577
S'median'
p578
S'JJ'
p579
S'I-NP'
p580
g3
tp581
a(S'ventilation'
p582
S'ventilation'
p583
S'NN'
p584
S'I-NP'
p585
g3
tp586
a(S'time'
p587
S'time'
p588
S'NN'
p589
S'I-NP'
p590
g3
tp591
a(g2
g2
g2
g3
g3
tp592
a(S'14\xc2\xa0hours'
p593
S'14\xc2\xa0hour'
p594
S'NNS'
p595
S'B-NP'
p596
g3
tp597
a(S'versus'
p598
S'versus'
p599
S'IN'
p600
S'B-PP'
p601
g3
tp602
a(S'13\xc2\xa0hours'
p603
S'13\xc2\xa0hour'
p604
S'NNS'
p605
S'B-NP'
p606
g3
tp607
a(g51
g51
g51
g3
g3
tp608
a(g222
g222
g222
g3
g3
tp609
a(S'median'
p610
S'median'
p611
S'JJ'
p612
S'B-NP'
p613
g3
tp614
a(S'catecholamine'
p615
S'catecholamine'
p616
S'NN'
p617
S'I-NP'
p618
g3
tp619
a(S'dose'
p620
S'dose'
p621
S'NN'
p622
S'I-NP'
p623
g3
tp624
a(g222
g222
g222
g3
g3
tp625
a(S'frequency'
p626
S'frequency'
p627
S'NN'
p628
S'B-NP'
p629
g3
tp630
a(S'of'
p631
S'of'
p632
S'IN'
p633
S'B-PP'
p634
g3
tp635
a(S'dialysis-dependent'
p636
S'dialysis-dependent'
p637
S'JJ'
p638
S'B-NP'
p639
g3
tp640
a(S'acute'
p641
S'acute'
p642
S'JJ'
p643
S'I-NP'
p644
g3
tp645
a(S'renal'
p646
S'renal'
p647
S'JJ'
p648
S'I-NP'
p649
g3
tp650
a(S'failure'
p651
S'failure'
p652
S'NN'
p653
S'I-NP'
p654
g3
tp655
a(g2
g2
g2
g3
g3
tp656
a(S'28'
p657
S'28'
p658
S'CD'
p659
S'B-NP'
p660
g3
tp661
a(g355
g355
S'NN'
p662
S'I-NP'
p663
g3
tp664
a(S'versus'
p665
S'versus'
p666
S'IN'
p667
S'B-PP'
p668
g3
tp669
a(S'18'
p670
S'18'
p671
S'CD'
p672
S'B-NP'
p673
g3
tp674
a(g355
g355
S'NN'
p675
S'I-NP'
p676
g3
tp677
a(g51
g51
g51
g3
g3
tp678
a(g222
g222
g222
g3
g3
tp679
a(S'cardiac'
p680
S'cardiac'
p681
S'JJ'
p682
S'B-NP'
p683
g3
tp684
a(S'indices'
p685
S'index'
p686
S'NNS'
p687
S'I-NP'
p688
g3
tp689
a(g222
g222
g222
g3
g3
tp690
a(S'and'
p691
S'and'
p692
S'CC'
p693
g3
g3
tp694
a(S'frequency'
p695
S'frequency'
p696
S'NN'
p697
S'B-NP'
p698
g3
tp699
a(S'of'
p700
S'of'
p701
S'IN'
p702
S'B-PP'
p703
g3
tp704
a(g135
g135
S'DT'
p705
S'B-NP'
p706
g3
tp707
a(S'low'
p708
S'low'
p709
S'JJ'
p710
S'I-NP'
p711
g3
tp712
a(S'cardiac'
p713
S'cardiac'
p714
S'JJ'
p715
S'I-NP'
p716
g3
tp717
a(S'output'
p718
S'output'
p719
S'NN'
p720
S'I-NP'
p721
g3
tp722
a(S'syndrome'
p723
S'syndrome'
p724
S'NN'
p725
S'I-NP'
p726
g3
tp727
a(g2
g2
g2
g3
g3
tp728
a(S'26'
p729
S'26'
p730
S'CD'
p731
S'B-NP'
p732
g3
tp733
a(g355
g355
S'NN'
p734
S'I-NP'
p735
g3
tp736
a(S'versus'
p737
S'versus'
p738
S'IN'
p739
S'B-PP'
p740
g3
tp741
a(S'25'
p742
S'25'
p743
S'CD'
p744
S'B-NP'
p745
g3
tp746
a(g355
g355
S'NN'
p747
S'I-NP'
p748
g3
tp749
a(g51
g51
g51
g3
g3
tp750
a(S'did'
p751
S'do'
p752
S'VBD'
p753
S'B-VP'
p754
g3
tp755
a(S'not'
p756
S'not'
p757
S'RB'
p758
S'I-VP'
p759
g3
tp760
a(S'significantly'
p761
S'significantly'
p762
S'RB'
p763
S'I-VP'
p764
g3
tp765
a(S'differ'
p766
S'differ'
p767
S'VB'
p768
S'I-VP'
p769
g3
tp770
a(S'between'
p771
S'between'
p772
S'IN'
p773
S'B-PP'
p774
g3
tp775
a(S'groups'
p776
S'group'
p777
S'NNS'
p778
S'B-NP'
p779
g3
tp780
a(g53
g53
g53
g3
g3
tp781
a(S'CONCLUSION'
p782
S'CONCLUSION'
p783
S'NN'
p784
S'B-NP'
p785
g3
tp786
a(S'Prophylactic'
p787
S'Prophylactic'
p788
S'JJ'
p789
S'I-NP'
p790
g3
tp791
a(S'preoperative'
p792
S'preoperative'
p793
S'JJ'
p794
S'I-NP'
p795
g3
tp796
a(S'IABP'
p797
S'IABP'
p798
S'NN'
p799
S'I-NP'
p800
g3
tp801
a(S'insertion'
p802
S'insertion'
p803
S'NN'
p804
S'I-NP'
p805
g3
tp806
a(S'in'
p807
S'in'
p808
S'IN'
p809
S'B-PP'
p810
g3
tp811
a(S'EuroSCORE-stratified'
p812
S'EuroSCORE-stratified'
p813
S'JJ'
p814
S'B-NP'
p815
g3
tp816
a(S'high-risk'
p817
S'high-risk'
p818
S'JJ'
p819
S'I-NP'
p820
g3
tp821
a(S'patients'
p822
S'patient'
p823
S'NNS'
p824
S'I-NP'
p825
g3
tp826
a(S'is'
p827
S'be'
p828
S'VBZ'
p829
S'B-VP'
p830
g3
tp831
a(S'not'
p832
S'not'
p833
S'RB'
p834
S'I-VP'
p835
g3
tp836
a(S'associated'
p837
S'associate'
p838
S'VBN'
p839
S'I-VP'
p840
g3
tp841
a(S'with'
p842
S'with'
p843
S'IN'
p844
S'B-PP'
p845
g3
tp846
a(S'decreased'
p847
S'decrease'
p848
S'VBN'
p849
S'B-NP'
p850
g3
tp851
a(S'30-day'
p852
S'30-day'
p853
S'JJ'
p854
S'I-NP'
p855
g3
tp856
a(S'mortality'
p857
S'mortality'
p858
S'NN'
p859
S'I-NP'
p860
g3
tp861
a(g53
g53
g53
g3
g3
tp862
a.