(lp0
(S'Differences'
p1
S'Difference'
p2
S'NNS'
p3
S'B-NP'
p4
S'O'
p5
tp6
a(S'in'
p7
S'in'
p8
S'IN'
p9
S'B-PP'
p10
g5
tp11
a(S'reach'
p12
S'reach'
p13
S'NN'
p14
S'B-NP'
p15
g5
tp16
a(S'and'
p17
S'and'
p18
S'CC'
p19
S'I-NP'
p20
g5
tp21
a(S'attrition'
p22
S'attrition'
p23
S'NN'
p24
S'I-NP'
p25
g5
tp26
a(S'between'
p27
S'between'
p28
S'IN'
p29
S'B-PP'
p30
g5
tp31
a(S'Web-based'
p32
S'Web-based'
p33
S'JJ'
p34
S'B-NP'
p35
g5
tp36
a(S'and'
p37
S'and'
p38
S'CC'
p39
S'I-NP'
p40
g5
tp41
a(S'print-delivered'
p42
S'print-delivered'
p43
S'JJ'
p44
S'I-NP'
p45
g5
tp46
a(S'tailored'
p47
S'tailor'
p48
S'VBN'
p49
S'I-NP'
p50
g5
tp51
a(S'interventions'
p52
S'intervention'
p53
S'NNS'
p54
S'I-NP'
p55
g5
tp56
a(S'among'
p57
S'among'
p58
S'IN'
p59
S'B-PP'
p60
g5
tp61
a(S'adults'
p62
S'adult'
p63
S'NNS'
p64
S'B-NP'
p65
g5
tp66
a(S'over'
p67
S'over'
p68
S'IN'
p69
S'B-PP'
p70
g5
tp71
a(S'50'
p72
S'50'
p73
S'CD'
p74
S'B-NP'
p75
g5
tp76
a(S'years'
p77
S'year'
p78
S'NNS'
p79
S'I-NP'
p80
g5
tp81
a(S'of'
p82
S'of'
p83
S'IN'
p84
S'B-PP'
p85
g5
tp86
a(S'age'
p87
S'age'
p88
S'NN'
p89
S'B-NP'
p90
g5
tp91
a(S':'
p92
g92
g92
g5
g5
tp93
a(S'clustered'
p94
S'cluster'
p95
S'VBN'
p96
S'B-VP'
p97
g5
tp98
a(S'randomized'
p99
S'randomize'
p100
S'VBN'
p101
S'B-NP'
p102
g5
tp103
a(S'trial'
p104
S'trial'
p105
S'NN'
p106
S'I-NP'
p107
g5
tp108
a(S'.'
p109
g109
g109
g5
g5
tp110
a(S'BACKGROUND'
p111
S'BACKGROUND'
p112
S'NN'
p113
S'B-NP'
p114
g5
tp115
a(S'The'
p116
S'The'
p117
S'DT'
p118
S'B-NP'
p119
g5
tp120
a(S'Internet'
p121
S'Internet'
p122
S'NNP'
p123
S'I-NP'
p124
g5
tp125
a(S'has'
p126
S'have'
p127
S'VBZ'
p128
S'B-VP'
p129
g5
tp130
a(S'the'
p131
S'the'
p132
S'DT'
p133
S'B-NP'
p134
g5
tp135
a(S'potential'
p136
S'potential'
p137
S'NN'
p138
S'I-NP'
p139
g5
tp140
a(S'to'
p141
S'to'
p142
S'TO'
p143
S'B-VP'
p144
g5
tp145
a(S'provide'
p146
S'provide'
p147
S'VB'
p148
S'I-VP'
p149
g5
tp150
a(S'large'
p151
S'large'
p152
S'JJ'
p153
S'B-NP'
p154
S'B-cell_type'
p155
tp156
a(S'populations'
p157
S'population'
p158
S'NNS'
p159
S'I-NP'
p160
S'I-cell_type'
p161
tp162
a(S'with'
p163
S'with'
p164
S'IN'
p165
S'B-PP'
p166
g5
tp167
a(S'individual'
p168
S'individual'
p169
S'JJ'
p170
S'B-NP'
p171
g5
tp172
a(S'health'
p173
S'health'
p174
S'NN'
p175
S'I-NP'
p176
g5
tp177
a(S'promotion'
p178
S'promotion'
p179
S'NN'
p180
S'I-NP'
p181
g5
tp182
a(S'advice'
p183
S'advice'
p184
S'NN'
p185
S'I-NP'
p186
g5
tp187
a(S'at'
p188
S'at'
p189
S'IN'
p190
S'B-PP'
p191
g5
tp192
a(S'a'
p193
g193
S'DT'
p194
S'B-NP'
p195
g5
tp196
a(S'relatively'
p197
S'relatively'
p198
S'RB'
p199
S'I-NP'
p200
g5
tp201
a(S'low'
p202
S'low'
p203
S'JJ'
p204
S'I-NP'
p205
g5
tp206
a(S'cost.'
p207
S'cost.'
p208
S'NN'
p209
S'I-NP'
p210
g5
tp211
a(S'Despite'
p212
S'Despite'
p213
S'IN'
p214
S'B-PP'
p215
g5
tp216
a(S'the'
p217
S'the'
p218
S'DT'
p219
S'B-NP'
p220
g5
tp221
a(S'high'
p222
S'high'
p223
S'JJ'
p224
S'I-NP'
p225
g5
tp226
a(S'rates'
p227
S'rate'
p228
S'NNS'
p229
S'I-NP'
p230
g5
tp231
a(S'of'
p232
S'of'
p233
S'IN'
p234
S'B-PP'
p235
g5
tp236
a(S'Internet'
p237
S'Internet'
p238
S'NNP'
p239
S'B-NP'
p240
g5
tp241
a(S'access'
p242
S'access'
p243
S'NN'
p244
S'I-NP'
p245
g5
tp246
a(S','
p247
g247
g247
g5
g5
tp248
a(S'actual'
p249
S'actual'
p250
S'JJ'
p251
S'B-NP'
p252
g5
tp253
a(S'reach'
p254
S'reach'
p255
S'NN'
p256
S'I-NP'
p257
g5
tp258
a(S'by'
p259
S'by'
p260
S'IN'
p261
S'B-PP'
p262
g5
tp263
a(S'Web-based'
p264
S'Web-based'
p265
S'JJ'
p266
S'B-NP'
p267
g5
tp268
a(S'interventions'
p269
S'intervention'
p270
S'NNS'
p271
S'I-NP'
p272
g5
tp273
a(S'is'
p274
S'be'
p275
S'VBZ'
p276
S'B-VP'
p277
g5
tp278
a(S'often'
p279
S'often'
p280
S'RB'
p281
S'B-ADVP'
p282
g5
tp283
a(S'disappointingly'
p284
S'disappointingly'
p285
S'RB'
p286
S'B-ADJP'
p287
g5
tp288
a(S'low'
p289
S'low'
p290
S'JJ'
p291
S'I-ADJP'
p292
g5
tp293
a(g247
g247
g247
g5
g5
tp294
a(S'and'
p295
S'and'
p296
S'CC'
p297
g5
g5
tp298
a(S'differences'
p299
S'difference'
p300
S'NNS'
p301
S'B-NP'
p302
g5
tp303
a(S'in'
p304
S'in'
p305
S'IN'
p306
S'B-PP'
p307
g5
tp308
a(S'use'
p309
S'use'
p310
S'NN'
p311
S'B-NP'
p312
g5
tp313
a(S'between'
p314
S'between'
p315
S'IN'
p316
S'B-PP'
p317
g5
tp318
a(S'demographic'
p319
S'demographic'
p320
S'JJ'
p321
S'B-NP'
p322
g5
tp323
a(S'subgroups'
p324
S'subgroup'
p325
S'NNS'
p326
S'I-NP'
p327
g5
tp328
a(S'are'
p329
S'be'
p330
S'VBP'
p331
S'B-VP'
p332
g5
tp333
a(S'present.'
p334
S'present.'
p335
S'RB'
p336
S'B-ADVP'
p337
g5
tp338
a(S'Furthermore'
p339
S'Furthermore'
p340
S'RB'
p341
S'B-ADVP'
p342
g5
tp343
a(g247
g247
g247
g5
g5
tp344
a(S'Web-based'
p345
S'Web-based'
p346
S'JJ'
p347
S'B-NP'
p348
g5
tp349
a(S'interventions'
p350
S'intervention'
p351
S'NNS'
p352
S'I-NP'
p353
g5
tp354
a(S'often'
p355
S'often'
p356
S'RB'
p357
S'B-ADVP'
p358
g5
tp359
a(S'have'
p360
S'have'
p361
S'VBP'
p362
S'B-VP'
p363
g5
tp364
a(S'to'
p365
S'to'
p366
S'TO'
p367
S'I-VP'
p368
g5
tp369
a(S'deal'
p370
S'deal'
p371
S'VB'
p372
S'I-VP'
p373
g5
tp374
a(S'with'
p375
S'with'
p376
S'IN'
p377
S'B-PP'
p378
g5
tp379
a(S'high'
p380
S'high'
p381
S'JJ'
p382
S'B-NP'
p383
g5
tp384
a(S'rates'
p385
S'rate'
p386
S'NNS'
p387
S'I-NP'
p388
g5
tp389
a(S'of'
p390
S'of'
p391
S'IN'
p392
S'B-PP'
p393
g5
tp394
a(S'attrition'
p395
S'attrition'
p396
S'NN'
p397
S'B-NP'
p398
g5
tp399
a(g109
g109
g109
g5
g5
tp400
a(S'OBJECTIVE'
p401
S'OBJECTIVE'
p402
S'NN'
p403
S'B-NP'
p404
g5
tp405
a(S'This'
p406
S'This'
p407
S'DT'
p408
S'B-NP'
p409
g5
tp410
a(S'study'
p411
S'study'
p412
S'NN'
p413
S'I-NP'
p414
g5
tp415
a(S'aims'
p416
S'aim'
p417
S'VBZ'
p418
S'B-VP'
p419
g5
tp420
a(S'to'
p421
S'to'
p422
S'TO'
p423
S'I-VP'
p424
g5
tp425
a(S'assess'
p426
S'assess'
p427
S'VB'
p428
S'I-VP'
p429
g5
tp430
a(S'user'
p431
S'us'
p432
S'JJR'
p433
S'B-NP'
p434
g5
tp435
a(S'characteristics'
p436
S'characteristic'
p437
S'NNS'
p438
S'I-NP'
p439
g5
tp440
a(S'related'
p441
S'relate'
p442
S'VBN'
p443
S'B-VP'
p444
g5
tp445
a(S'to'
p446
S'to'
p447
S'TO'
p448
S'B-PP'
p449
g5
tp450
a(S'participation'
p451
S'participation'
p452
S'NN'
p453
S'B-NP'
p454
g5
tp455
a(S'and'
p456
S'and'
p457
S'CC'
p458
S'I-NP'
p459
g5
tp460
a(S'attrition'
p461
S'attrition'
p462
S'NN'
p463
S'I-NP'
p464
g5
tp465
a(S'when'
p466
S'when'
p467
S'WRB'
p468
S'B-ADVP'
p469
g5
tp470
a(S'comparing'
p471
S'compare'
p472
S'VBG'
p473
S'B-VP'
p474
g5
tp475
a(S'Web-based'
p476
S'Web-based'
p477
S'JJ'
p478
S'B-NP'
p479
g5
tp480
a(S'and'
p481
S'and'
p482
S'CC'
p483
S'I-NP'
p484
g5
tp485
a(S'print-delivered'
p486
S'print-delivered'
p487
S'JJ'
p488
S'I-NP'
p489
g5
tp490
a(S'tailored'
p491
S'tailored'
p492
S'JJ'
p493
S'I-NP'
p494
g5
tp495
a(S'interventions'
p496
S'intervention'
p497
S'NNS'
p498
S'I-NP'
p499
g5
tp500
a(S'containing'
p501
S'contain'
p502
S'VBG'
p503
S'B-VP'
p504
g5
tp505
a(S'similar'
p506
S'similar'
p507
S'JJ'
p508
S'B-NP'
p509
g5
tp510
a(S'content'
p511
S'content'
p512
S'NN'
p513
S'I-NP'
p514
g5
tp515
a(S'and'
p516
S'and'
p517
S'CC'
p518
g5
g5
tp519
a(S'thereby'
p520
S'thereby'
p521
S'RB'
p522
S'B-ADVP'
p523
g5
tp524
a(S'to'
p525
S'to'
p526
S'TO'
p527
S'B-VP'
p528
g5
tp529
a(S'provide'
p530
S'provide'
p531
S'VB'
p532
S'I-VP'
p533
g5
tp534
a(S'recommendations'
p535
S'recommendation'
p536
S'NNS'
p537
S'B-NP'
p538
g5
tp539
a(S'in'
p540
S'in'
p541
S'IN'
p542
S'B-PP'
p543
g5
tp544
a(S'choosing'
p545
S'choose'
p546
S'VBG'
p547
S'B-VP'
p548
g5
tp549
a(S'the'
p550
S'the'
p551
S'DT'
p552
S'B-NP'
p553
g5
tp554
a(S'appropriate'
p555
S'appropriate'
p556
S'JJ'
p557
S'I-NP'
p558
g5
tp559
a(S'delivery'
p560
S'delivery'
p561
S'NN'
p562
S'I-NP'
p563
g5
tp564
a(S'mode'
p565
S'mode'
p566
S'NN'
p567
S'I-NP'
p568
g5
tp569
a(S'for'
p570
S'for'
p571
S'IN'
p572
S'B-PP'
p573
g5
tp574
a(g193
g193
S'DT'
p575
S'B-NP'
p576
g5
tp577
a(S'particular'
p578
S'particular'
p579
S'JJ'
p580
S'I-NP'
p581
g5
tp582
a(S'target'
p583
S'target'
p584
S'NN'
p585
S'I-NP'
p586
g5
tp587
a(S'audience'
p588
S'audience'
p589
S'NN'
p590
S'I-NP'
p591
g5
tp592
a(g109
g109
g109
g5
g5
tp593
a(S'METHODS'
p594
S'METHODS'
p595
S'NNS'
p596
S'B-NP'
p597
g5
tp598
a(S'We'
p599
S'We'
p600
S'PRP'
p601
S'B-NP'
p602
g5
tp603
a(S'studied'
p604
S'study'
p605
S'VBD'
p606
S'B-VP'
p607
g5
tp608
a(S'the'
p609
S'the'
p610
S'DT'
p611
S'B-NP'
p612
g5
tp613
a(S'distribution'
p614
S'distribution'
p615
S'NN'
p616
S'I-NP'
p617
g5
tp618
a(S'of'
p619
S'of'
p620
S'IN'
p621
S'B-PP'
p622
g5
tp623
a(g193
g193
S'DT'
p624
S'B-NP'
p625
g5
tp626
a(S'Web-based'
p627
S'Web-based'
p628
S'JJ'
p629
S'I-NP'
p630
g5
tp631
a(S'and'
p632
S'and'
p633
S'CC'
p634
g5
g5
tp635
a(g193
g193
S'DT'
p636
S'B-NP'
p637
g5
tp638
a(S'print-delivered'
p639
S'print-delivered'
p640
S'JJ'
p641
S'I-NP'
p642
g5
tp643
a(S'version'
p644
S'version'
p645
S'NN'
p646
S'I-NP'
p647
g5
tp648
a(S'of'
p649
S'of'
p650
S'IN'
p651
S'B-PP'
p652
g5
tp653
a(S'the'
p654
S'the'
p655
S'DT'
p656
S'B-NP'
p657
g5
tp658
a(S'Active'
p659
S'Active'
p660
S'JJ'
p661
S'I-NP'
p662
g5
tp663
a(S'Plus'
p664
S'Plus'
p665
S'NN'
p666
S'I-NP'
p667
g5
tp668
a(S'intervention'
p669
S'intervention'
p670
S'NN'
p671
S'I-NP'
p672
g5
tp673
a(S'in'
p674
S'in'
p675
S'IN'
p676
S'B-PP'
p677
g5
tp678
a(g193
g193
S'DT'
p679
S'B-NP'
p680
g5
tp681
a(S'clustered'
p682
S'cluster'
p683
S'VBN'
p684
S'I-NP'
p685
g5
tp686
a(S'randomized'
p687
S'randomize'
p688
S'VBN'
p689
S'I-NP'
p690
g5
tp691
a(S'controlled'
p692
S'control'
p693
S'VBN'
p694
S'I-NP'
p695
g5
tp696
a(S'trial'
p697
S'trial'
p698
S'NN'
p699
S'I-NP'
p700
g5
tp701
a(S'('
p702
g702
g702
g5
g5
tp703
a(S'RCT'
p704
S'RCT'
p705
S'NN'
p706
S'B-NP'
p707
g5
tp708
a(S')'
p709
g709
g709
g5
g5
tp710
a(g109
g109
g109
g5
g5
tp711
a(S'Participants'
p712
S'Participant'
p713
S'NNPS'
p714
S'B-NP'
p715
g5
tp716
a(S'were'
p717
S'be'
p718
S'VBD'
p719
S'B-VP'
p720
g5
tp721
a(S'recruited'
p722
S'recruit'
p723
S'VBN'
p724
S'I-VP'
p725
g5
tp726
a(S'via'
p727
S'via'
p728
S'IN'
p729
S'B-PP'
p730
g5
tp731
a(S'direct'
p732
S'direct'
p733
S'JJ'
p734
S'B-NP'
p735
g5
tp736
a(S'mailing'
p737
S'mailing'
p738
S'NN'
p739
S'I-NP'
p740
g5
tp741
a(S'within'
p742
S'within'
p743
S'IN'
p744
S'B-PP'
p745
g5
tp746
a(S'the'
p747
S'the'
p748
S'DT'
p749
S'B-NP'
p750
g5
tp751
a(S'participating'
p752
S'participate'
p753
S'VBG'
p754
S'I-NP'
p755
g5
tp756
a(S'Municipal'
p757
S'Municipal'
p758
S'NNP'
p759
S'I-NP'
p760
S'B-DNA'
p761
tp762
a(S'Health'
p763
S'Health'
p764
S'NNP'
p765
S'I-NP'
p766
S'I-DNA'
p767
tp768
a(S'Council'
p769
S'Council'
p770
S'NNP'
p771
S'I-NP'
p772
S'I-DNA'
p773
tp774
a(S'regions'
p775
S'region'
p776
S'NNS'
p777
S'I-NP'
p778
S'I-DNA'
p779
tp780
a(S'and'
p781
S'and'
p782
S'CC'
p783
g5
g5
tp784
a(S'randomized'
p785
S'randomize'
p786
S'VBN'
p787
S'B-VP'
p788
g5
tp789
a(S'to'
p790
S'to'
p791
S'TO'
p792
S'B-PP'
p793
g5
tp794
a(S'the'
p795
S'the'
p796
S'DT'
p797
S'B-NP'
p798
g5
tp799
a(S'printed'
p800
S'print'
p801
S'VBN'
p802
S'I-NP'
p803
g5
tp804
a(S'or'
p805
S'or'
p806
S'CC'
p807
S'I-NP'
p808
g5
tp809
a(S'Web-based'
p810
S'Web-based'
p811
S'JJ'
p812
S'I-NP'
p813
g5
tp814
a(S'intervention'
p815
S'intervention'
p816
S'NN'
p817
S'I-NP'
p818
g5
tp819
a(S'by'
p820
S'by'
p821
S'IN'
p822
S'B-PP'
p823
g5
tp824
a(S'their'
p825
S'their'
p826
S'PRP$'
p827
S'B-NP'
p828
g5
tp829
a(S'region.'
p830
S'region.'
p831
S'NN'
p832
S'I-NP'
p833
g5
tp834
a(S'Based'
p835
S'Base'
p836
S'VBN'
p837
S'B-VP'
p838
g5
tp839
a(S'on'
p840
S'on'
p841
S'IN'
p842
S'B-PP'
p843
g5
tp844
a(S'the'
p845
S'the'
p846
S'DT'
p847
S'B-NP'
p848
g5
tp849
a(S'answers'
p850
S'answer'
p851
S'NNS'
p852
S'I-NP'
p853
g5
tp854
a(S'given'
p855
S'give'
p856
S'VBN'
p857
S'B-VP'
p858
g5
tp859
a(S'in'
p860
S'in'
p861
S'IN'
p862
S'B-PP'
p863
g5
tp864
a(g193
g193
S'DT'
p865
S'B-NP'
p866
g5
tp867
a(S'prior'
p868
S'prior'
p869
S'JJ'
p870
S'I-NP'
p871
g5
tp872
a(S'assessment'
p873
S'assessment'
p874
S'NN'
p875
S'I-NP'
p876
g5
tp877
a(g247
g247
g247
g5
g5
tp878
a(S'participants'
p879
S'participant'
p880
S'NNS'
p881
S'B-NP'
p882
g5
tp883
a(S'received'
p884
S'receive'
p885
S'VBD'
p886
S'B-VP'
p887
g5
tp888
a(S'tailored'
p889
S'tailor'
p890
S'VBN'
p891
S'I-VP'
p892
g5
tp893
a(S'advice'
p894
S'advice'
p895
S'NN'
p896
S'B-NP'
p897
g5
tp898
a(S'on'
p899
S'on'
p900
S'IN'
p901
S'B-PP'
p902
g5
tp903
a(S'3'
p904
g904
S'CD'
p905
S'B-NP'
p906
g5
tp907
a(S'occasions'
p908
S'occasion'
p909
S'NNS'
p910
S'I-NP'
p911
g5
tp912
a(g92
g92
g92
g5
g5
tp913
a(g702
g702
g702
S'B-LST'
p914
g5
tp915
a(S'1'
p916
g916
S'LS'
p917
S'I-LST'
p918
g5
tp919
a(g709
g709
g709
g5
g5
tp920
a(S'within'
p921
S'within'
p922
S'IN'
p923
S'B-PP'
p924
g5
tp925
a(S'2'
p926
g926
S'CD'
p927
S'B-NP'
p928
g5
tp929
a(S'weeks'
p930
S'week'
p931
S'NNS'
p932
S'I-NP'
p933
g5
tp934
a(S'after'
p935
S'after'
p936
S'IN'
p937
S'B-PP'
p938
g5
tp939
a(S'the'
p940
S'the'
p941
S'DT'
p942
S'B-NP'
p943
g5
tp944
a(S'baseline'
p945
S'baseline'
p946
S'NN'
p947
S'I-NP'
p948
g5
tp949
a(g247
g247
g247
g5
g5
tp950
a(g702
g702
g702
g5
g5
tp951
a(g926
g926
S'CD'
p952
g5
g5
tp953
a(g709
g709
g709
g5
g5
tp954
a(g926
g926
S'CD'
p955
S'B-NP'
p956
g5
tp957
a(S'months'
p958
S'month'
p959
S'NNS'
p960
S'I-NP'
p961
g5
tp962
a(S'after'
p963
S'after'
p964
S'IN'
p965
S'B-SBAR'
p966
g5
tp967
a(S'the'
p968
S'the'
p969
S'DT'
p970
S'B-NP'
p971
g5
tp972
a(S'baseline'
p973
S'baseline'
p974
S'NN'
p975
S'I-NP'
p976
g5
tp977
a(g247
g247
g247
g5
g5
tp978
a(S'and'
p979
S'and'
p980
S'CC'
p981
g5
g5
tp982
a(g702
g702
g702
S'B-LST'
p983
g5
tp984
a(g904
g904
S'LS'
p985
S'I-LST'
p986
g5
tp987
a(g709
g709
g709
g5
g5
tp988
a(S'within'
p989
S'within'
p990
S'IN'
p991
S'B-PP'
p992
g5
tp993
a(S'4'
p994
g994
S'CD'
p995
S'B-NP'
p996
g5
tp997
a(S'months'
p998
S'month'
p999
S'NNS'
p1000
S'I-NP'
p1001
g5
tp1002
a(S'after'
p1003
S'after'
p1004
S'IN'
p1005
S'B-SBAR'
p1006
g5
tp1007
a(S'the'
p1008
S'the'
p1009
S'DT'
p1010
S'B-NP'
p1011
g5
tp1012
a(S'baseline'
p1013
S'baseline'
p1014
S'NN'
p1015
S'I-NP'
p1016
g5
tp1017
a(g702
g702
g702
g5
g5
tp1018
a(S'based'
p1019
S'base'
p1020
S'VBN'
p1021
S'B-PP'
p1022
g5
tp1023
a(S'on'
p1024
S'on'
p1025
S'IN'
p1026
S'B-PP'
p1027
g5
tp1028
a(g193
g193
S'DT'
p1029
S'B-NP'
p1030
g5
tp1031
a(S'second'
p1032
S'second'
p1033
S'JJ'
p1034
S'I-NP'
p1035
g5
tp1036
a(S'assessment'
p1037
S'assessment'
p1038
S'NN'
p1039
S'I-NP'
p1040
g5
tp1041
a(S'at'
p1042
S'at'
p1043
S'IN'
p1044
S'B-PP'
p1045
g5
tp1046
a(g904
g904
S'CD'
p1047
S'B-NP'
p1048
g5
tp1049
a(S'months'
p1050
S'month'
p1051
S'NNS'
p1052
S'I-NP'
p1053
g5
tp1054
a(g709
g709
g709
g5
g5
tp1055
a(g109
g109
g109
g5
g5
tp1056
a(S'The'
p1057
S'The'
p1058
S'DT'
p1059
S'B-NP'
p1060
g5
tp1061
a(S'baseline'
p1062
S'baseline'
p1063
S'NN'
p1064
S'I-NP'
p1065
g5
tp1066
a(g702
g702
g702
g5
g5
tp1067
a(S'printed'
p1068
S'print'
p1069
S'VBN'
p1070
S'B-VP'
p1071
g5
tp1072
a(S'or'
p1073
S'or'
p1074
S'CC'
p1075
g5
g5
tp1076
a(S'Web-based'
p1077
S'Web-based'
p1078
S'JJ'
p1079
S'B-ADJP'
p1080
g5
tp1081
a(g709
g709
g709
g5
g5
tp1082
a(S'results'
p1083
S'result'
p1084
S'NNS'
p1085
S'B-NP'
p1086
g5
tp1087
a(S'were'
p1088
S'be'
p1089
S'VBD'
p1090
S'B-VP'
p1091
g5
tp1092
a(S'analyzed'
p1093
S'analyze'
p1094
S'VBN'
p1095
S'I-VP'
p1096
g5
tp1097
a(S'using'
p1098
S'use'
p1099
S'VBG'
p1100
S'B-VP'
p1101
g5
tp1102
a(S'ANOVA'
p1103
S'ANOVA'
p1104
S'NN'
p1105
S'B-NP'
p1106
S'B-protein'
p1107
tp1108
a(S'and'
p1109
S'and'
p1110
S'CC'
p1111
g5
g5
tp1112
a(S'chi-square'
p1113
S'chi-square'
p1114
S'JJ'
p1115
S'B-NP'
p1116
g5
tp1117
a(S'tests'
p1118
S'test'
p1119
S'NNS'
p1120
S'I-NP'
p1121
g5
tp1122
a(S'to'
p1123
S'to'
p1124
S'TO'
p1125
S'B-VP'
p1126
g5
tp1127
a(S'establish'
p1128
S'establish'
p1129
S'VB'
p1130
S'I-VP'
p1131
g5
tp1132
a(S'the'
p1133
S'the'
p1134
S'DT'
p1135
S'B-NP'
p1136
g5
tp1137
a(S'differences'
p1138
S'difference'
p1139
S'NNS'
p1140
S'I-NP'
p1141
g5
tp1142
a(S'in'
p1143
S'in'
p1144
S'IN'
p1145
S'B-PP'
p1146
g5
tp1147
a(S'user'
p1148
S'user'
p1149
S'NN'
p1150
S'B-NP'
p1151
g5
tp1152
a(S'characteristics'
p1153
S'characteristic'
p1154
S'NNS'
p1155
S'I-NP'
p1156
g5
tp1157
a(S'between'
p1158
S'between'
p1159
S'IN'
p1160
S'B-PP'
p1161
g5
tp1162
a(S'both'
p1163
S'both'
p1164
S'CC'
p1165
g5
g5
tp1166
a(S'intervention'
p1167
S'intervention'
p1168
S'NN'
p1169
S'B-NP'
p1170
g5
tp1171
a(S'groups.'
p1172
S'groups.'
p1173
S'NNS'
p1174
S'I-NP'
p1175
g5
tp1176
a(S'We'
p1177
S'We'
p1178
S'PRP'
p1179
S'B-NP'
p1180
g5
tp1181
a(S'used'
p1182
S'use'
p1183
S'VBD'
p1184
S'B-VP'
p1185
g5
tp1186
a(S'logistic'
p1187
S'logistic'
p1188
S'JJ'
p1189
S'B-NP'
p1190
g5
tp1191
a(S'regression'
p1192
S'regression'
p1193
S'NN'
p1194
S'I-NP'
p1195
g5
tp1196
a(S'analyses'
p1197
S'analysis'
p1198
S'NNS'
p1199
S'I-NP'
p1200
g5
tp1201
a(S'to'
p1202
S'to'
p1203
S'TO'
p1204
S'B-VP'
p1205
g5
tp1206
a(S'study'
p1207
S'study'
p1208
S'VB'
p1209
S'I-VP'
p1210
g5
tp1211
a(S'the'
p1212
S'the'
p1213
S'DT'
p1214
S'B-NP'
p1215
g5
tp1216
a(S'interaction'
p1217
S'interaction'
p1218
S'NN'
p1219
S'I-NP'
p1220
g5
tp1221
a(S'between'
p1222
S'between'
p1223
S'IN'
p1224
S'B-PP'
p1225
g5
tp1226
a(S'the'
p1227
S'the'
p1228
S'DT'
p1229
S'B-NP'
p1230
g5
tp1231
a(S'user'
p1232
S'user'
p1233
S'NN'
p1234
S'I-NP'
p1235
g5
tp1236
a(S'characteristics'
p1237
S'characteristic'
p1238
S'NNS'
p1239
S'I-NP'
p1240
g5
tp1241
a(S'and'
p1242
S'and'
p1243
S'CC'
p1244
g5
g5
tp1245
a(S'the'
p1246
S'the'
p1247
S'DT'
p1248
S'B-NP'
p1249
g5
tp1250
a(S'delivery'
p1251
S'delivery'
p1252
S'NN'
p1253
S'I-NP'
p1254
g5
tp1255
a(S'mode'
p1256
S'mode'
p1257
S'NN'
p1258
S'I-NP'
p1259
g5
tp1260
a(S'in'
p1261
S'in'
p1262
S'IN'
p1263
S'B-PP'
p1264
g5
tp1265
a(S'the'
p1266
S'the'
p1267
S'DT'
p1268
S'B-NP'
p1269
g5
tp1270
a(S'prediction'
p1271
S'prediction'
p1272
S'NN'
p1273
S'I-NP'
p1274
g5
tp1275
a(S'of'
p1276
S'of'
p1277
S'IN'
p1278
S'B-PP'
p1279
g5
tp1280
a(S'dropout'
p1281
S'dropout'
p1282
S'NN'
p1283
S'B-NP'
p1284
g5
tp1285
a(S'rate'
p1286
S'rate'
p1287
S'NN'
p1288
S'I-NP'
p1289
g5
tp1290
a(S'within'
p1291
S'within'
p1292
S'IN'
p1293
S'B-PP'
p1294
g5
tp1295
a(S'the'
p1296
S'the'
p1297
S'DT'
p1298
S'B-NP'
p1299
g5
tp1300
a(S'intervention'
p1301
S'intervention'
p1302
S'NN'
p1303
S'I-NP'
p1304
g5
tp1305
a(S'period'
p1306
S'period'
p1307
S'NN'
p1308
S'I-NP'
p1309
g5
tp1310
a(g109
g109
g109
g5
g5
tp1311
a(S'RESULTS'
p1312
S'RESULTS'
p1313
S'NNS'
p1314
S'B-NP'
p1315
g5
tp1316
a(S'The'
p1317
S'The'
p1318
S'DT'
p1319
S'B-NP'
p1320
g5
tp1321
a(S'printed'
p1322
S'print'
p1323
S'VBN'
p1324
S'I-NP'
p1325
g5
tp1326
a(S'intervention'
p1327
S'intervention'
p1328
S'NN'
p1329
S'I-NP'
p1330
g5
tp1331
a(S'resulted'
p1332
S'result'
p1333
S'VBD'
p1334
S'B-VP'
p1335
g5
tp1336
a(S'in'
p1337
S'in'
p1338
S'IN'
p1339
S'B-PP'
p1340
g5
tp1341
a(g193
g193
S'DT'
p1342
S'B-NP'
p1343
g5
tp1344
a(S'higher'
p1345
S'high'
p1346
S'JJR'
p1347
S'I-NP'
p1348
g5
tp1349
a(S'participation'
p1350
S'participation'
p1351
S'NN'
p1352
S'I-NP'
p1353
g5
tp1354
a(S'rate'
p1355
S'rate'
p1356
S'NN'
p1357
S'I-NP'
p1358
g5
tp1359
a(g702
g702
g702
g5
g5
tp1360
a(S'19'
p1361
S'19'
p1362
S'CD'
p1363
S'B-NP'
p1364
g5
tp1365
a(S'%'
p1366
g1366
S'NN'
p1367
S'I-NP'
p1368
g5
tp1369
a(g709
g709
g709
g5
g5
tp1370
a(S'than'
p1371
S'than'
p1372
S'IN'
p1373
S'B-PP'
p1374
g5
tp1375
a(S'the'
p1376
S'the'
p1377
S'DT'
p1378
S'B-NP'
p1379
g5
tp1380
a(S'Web-based'
p1381
S'Web-based'
p1382
S'JJ'
p1383
S'I-NP'
p1384
g5
tp1385
a(S'intervention'
p1386
S'intervention'
p1387
S'NN'
p1388
S'I-NP'
p1389
g5
tp1390
a(g702
g702
g702
g5
g5
tp1391
a(S'12'
p1392
S'12'
p1393
S'CD'
p1394
S'B-NP'
p1395
g5
tp1396
a(g1366
g1366
S'NN'
p1397
S'I-NP'
p1398
g5
tp1399
a(g709
g709
g709
g5
g5
tp1400
a(g109
g109
g109
g5
g5
tp1401
a(S'Participants'
p1402
S'Participant'
p1403
S'NNPS'
p1404
S'B-NP'
p1405
g5
tp1406
a(S'of'
p1407
S'of'
p1408
S'IN'
p1409
S'B-PP'
p1410
g5
tp1411
a(S'the'
p1412
S'the'
p1413
S'DT'
p1414
S'B-NP'
p1415
g5
tp1416
a(S'Web-based'
p1417
S'Web-based'
p1418
S'JJ'
p1419
S'I-NP'
p1420
g5
tp1421
a(S'intervention'
p1422
S'intervention'
p1423
S'NN'
p1424
S'I-NP'
p1425
g5
tp1426
a(S'were'
p1427
S'be'
p1428
S'VBD'
p1429
S'B-VP'
p1430
g5
tp1431
a(S'significantly'
p1432
S'significantly'
p1433
S'RB'
p1434
S'B-ADJP'
p1435
g5
tp1436
a(S'younger'
p1437
S'young'
p1438
S'JJR'
p1439
S'I-ADJP'
p1440
g5
tp1441
a(g702
g702
g702
g5
g5
tp1442
a(S'P'
p1443
g1443
S'NN'
p1444
S'B-NP'
p1445
g5
tp1446
a(S'<'
p1447
g1447
S'JJR'
p1448
S'B-NP'
p1449
g5
tp1450
a(S'.001'
p1451
S'.001'
p1452
S'CD'
p1453
S'I-NP'
p1454
g5
tp1455
a(g709
g709
g709
g5
g5
tp1456
a(g247
g247
g247
g5
g5
tp1457
a(S'more'
p1458
S'more'
p1459
S'RBR'
p1460
S'B-ADVP'
p1461
g5
tp1462
a(S'often'
p1463
S'often'
p1464
S'RB'
p1465
S'I-ADVP'
p1466
g5
tp1467
a(S'men'
p1468
S'man'
p1469
S'NNS'
p1470
S'B-NP'
p1471
g5
tp1472
a(g702
g702
g702
g5
g5
tp1473
a(S'P=.01'
p1474
S'P=.01'
p1475
S'NN'
p1476
S'B-NP'
p1477
g5
tp1478
a(g709
g709
g709
g5
g5
tp1479
a(g247
g247
g247
g5
g5
tp1480
a(S'had'
p1481
S'have'
p1482
S'VBD'
p1483
S'B-VP'
p1484
g5
tp1485
a(g193
g193
S'DT'
p1486
S'B-NP'
p1487
g5
tp1488
a(S'higher'
p1489
S'high'
p1490
S'JJR'
p1491
S'I-NP'
p1492
g5
tp1493
a(S'body'
p1494
S'body'
p1495
S'NN'
p1496
S'I-NP'
p1497
g5
tp1498
a(S'mass'
p1499
S'mass'
p1500
S'NN'
p1501
S'I-NP'
p1502
g5
tp1503
a(S'index'
p1504
S'index'
p1505
S'NN'
p1506
S'I-NP'
p1507
g5
tp1508
a(g702
g702
g702
g5
g5
tp1509
a(S'BMI'
p1510
S'BMI'
p1511
S'NN'
p1512
S'B-NP'
p1513
g5
tp1514
a(g709
g709
g709
g5
g5
tp1515
a(g702
g702
g702
g5
g5
tp1516
a(S'P=.001'
p1517
S'P=.001'
p1518
S'NN'
p1519
S'B-NP'
p1520
g5
tp1521
a(g709
g709
g709
g5
g5
tp1522
a(S'and'
p1523
S'and'
p1524
S'CC'
p1525
g5
g5
tp1526
a(g193
g193
S'DT'
p1527
S'B-NP'
p1528
g5
tp1529
a(S'lower'
p1530
S'low'
p1531
S'JJR'
p1532
S'I-NP'
p1533
g5
tp1534
a(S'intention'
p1535
S'intention'
p1536
S'NN'
p1537
S'I-NP'
p1538
g5
tp1539
a(S'to'
p1540
S'to'
p1541
S'TO'
p1542
S'B-VP'
p1543
g5
tp1544
a(S'be'
p1545
S'be'
p1546
S'VB'
p1547
S'I-VP'
p1548
g5
tp1549
a(S'physically'
p1550
S'physically'
p1551
S'RB'
p1552
S'B-ADJP'
p1553
g5
tp1554
a(S'active'
p1555
S'active'
p1556
S'JJ'
p1557
S'I-ADJP'
p1558
g5
tp1559
a(g702
g702
g702
g5
g5
tp1560
a(S'P=.03'
p1561
S'P=.03'
p1562
S'NN'
p1563
S'B-NP'
p1564
g5
tp1565
a(g709
g709
g709
g5
g5
tp1566
a(S'than'
p1567
S'than'
p1568
S'IN'
p1569
S'B-PP'
p1570
g5
tp1571
a(S'participants'
p1572
S'participant'
p1573
S'NNS'
p1574
S'B-NP'
p1575
g5
tp1576
a(S'of'
p1577
S'of'
p1578
S'IN'
p1579
S'B-PP'
p1580
g5
tp1581
a(S'the'
p1582
S'the'
p1583
S'DT'
p1584
S'B-NP'
p1585
g5
tp1586
a(S'printed'
p1587
S'print'
p1588
S'VBN'
p1589
S'I-NP'
p1590
g5
tp1591
a(S'intervention.'
p1592
S'intervention.'
p1593
S'NN'
p1594
S'I-NP'
p1595
g5
tp1596
a(S'The'
p1597
S'The'
p1598
S'DT'
p1599
S'B-NP'
p1600
g5
tp1601
a(S'dropout'
p1602
S'dropout'
p1603
S'NN'
p1604
S'I-NP'
p1605
g5
tp1606
a(S'rate'
p1607
S'rate'
p1608
S'NN'
p1609
S'I-NP'
p1610
g5
tp1611
a(S'was'
p1612
S'be'
p1613
S'VBD'
p1614
S'B-VP'
p1615
g5
tp1616
a(S'significantly'
p1617
S'significantly'
p1618
S'RB'
p1619
S'B-ADJP'
p1620
g5
tp1621
a(S'higher'
p1622
S'high'
p1623
S'JJR'
p1624
S'I-ADJP'
p1625
g5
tp1626
a(S'in'
p1627
S'in'
p1628
S'IN'
p1629
S'B-PP'
p1630
g5
tp1631
a(S'the'
p1632
S'the'
p1633
S'DT'
p1634
S'B-NP'
p1635
g5
tp1636
a(S'Web-based'
p1637
S'Web-based'
p1638
S'JJ'
p1639
S'I-NP'
p1640
g5
tp1641
a(S'intervention'
p1642
S'intervention'
p1643
S'NN'
p1644
S'I-NP'
p1645
g5
tp1646
a(S'group'
p1647
S'group'
p1648
S'NN'
p1649
S'I-NP'
p1650
g5
tp1651
a(g702
g702
g702
g5
g5
tp1652
a(S'53'
p1653
S'53'
p1654
S'CD'
p1655
S'B-NP'
p1656
g5
tp1657
a(g1366
g1366
S'NN'
p1658
S'I-NP'
p1659
g5
tp1660
a(g709
g709
g709
g5
g5
tp1661
a(S'compared'
p1662
S'compare'
p1663
S'VBN'
p1664
S'B-PP'
p1665
g5
tp1666
a(S'to'
p1667
S'to'
p1668
S'TO'
p1669
S'B-PP'
p1670
g5
tp1671
a(S'the'
p1672
S'the'
p1673
S'DT'
p1674
S'B-NP'
p1675
g5
tp1676
a(S'print-delivered'
p1677
S'print-delivered'
p1678
S'JJ'
p1679
S'I-NP'
p1680
g5
tp1681
a(S'intervention'
p1682
S'intervention'
p1683
S'NN'
p1684
S'I-NP'
p1685
g5
tp1686
a(g702
g702
g702
g5
g5
tp1687
a(S'39'
p1688
S'39'
p1689
S'CD'
p1690
S'B-NP'
p1691
g5
tp1692
a(g1366
g1366
S'NN'
p1693
S'I-NP'
p1694
g5
tp1695
a(g247
g247
g247
g5
g5
tp1696
a(g1443
g1443
S'NN'
p1697
S'B-NP'
p1698
g5
tp1699
a(g1447
g1447
S'SYM'
p1700
S'B-NP'
p1701
g5
tp1702
a(S'.001'
p1703
S'.001'
p1704
S'CD'
p1705
S'I-NP'
p1706
g5
tp1707
a(g709
g709
g709
g5
g5
tp1708
a(g109
g109
g109
g5
g5
tp1709
a(S'A'
p1710
g1710
S'DT'
p1711
S'B-NP'
p1712
g5
tp1713
a(S'low'
p1714
S'low'
p1715
S'JJ'
p1716
S'I-NP'
p1717
g5
tp1718
a(S'intention'
p1719
S'intention'
p1720
S'NN'
p1721
S'I-NP'
p1722
g5
tp1723
a(S'to'
p1724
S'to'
p1725
S'TO'
p1726
S'B-VP'
p1727
g5
tp1728
a(S'be'
p1729
S'be'
p1730
S'VB'
p1731
S'I-VP'
p1732
g5
tp1733
a(S'physically'
p1734
S'physically'
p1735
S'RB'
p1736
S'B-ADJP'
p1737
g5
tp1738
a(S'active'
p1739
S'active'
p1740
S'JJ'
p1741
S'I-ADJP'
p1742
g5
tp1743
a(S'was'
p1744
S'be'
p1745
S'VBD'
p1746
S'B-VP'
p1747
g5
tp1748
a(g193
g193
S'DT'
p1749
S'B-NP'
p1750
g5
tp1751
a(S'strong'
p1752
S'strong'
p1753
S'JJ'
p1754
S'I-NP'
p1755
g5
tp1756
a(S'predictor'
p1757
S'predictor'
p1758
S'NN'
p1759
S'I-NP'
p1760
g5
tp1761
a(S'for'
p1762
S'for'
p1763
S'IN'
p1764
S'B-PP'
p1765
g5
tp1766
a(S'dropout'
p1767
S'dropout'
p1768
S'NN'
p1769
S'B-NP'
p1770
g5
tp1771
a(S'within'
p1772
S'within'
p1773
S'IN'
p1774
S'B-PP'
p1775
g5
tp1776
a(S'both'
p1777
S'both'
p1778
S'DT'
p1779
S'B-NP'
p1780
g5
tp1781
a(S'delivery'
p1782
S'delivery'
p1783
S'NN'
p1784
S'I-NP'
p1785
g5
tp1786
a(S'modes'
p1787
S'mode'
p1788
S'NNS'
p1789
S'I-NP'
p1790
g5
tp1791
a(g702
g702
g702
g5
g5
tp1792
a(g1443
g1443
S'NN'
p1793
S'B-NP'
p1794
g5
tp1795
a(g1447
g1447
S'JJR'
p1796
S'B-NP'
p1797
g5
tp1798
a(S'.001'
p1799
S'.001'
p1800
S'CD'
p1801
S'I-NP'
p1802
g5
tp1803
a(g709
g709
g709
g5
g5
tp1804
a(g109
g109
g109
g5
g5
tp1805
a(S'The'
p1806
S'The'
p1807
S'DT'
p1808
S'B-NP'
p1809
g5
tp1810
a(S'difference'
p1811
S'difference'
p1812
S'NN'
p1813
S'I-NP'
p1814
g5
tp1815
a(S'in'
p1816
S'in'
p1817
S'IN'
p1818
S'B-PP'
p1819
g5
tp1820
a(S'dropout'
p1821
S'dropout'
p1822
S'NN'
p1823
S'B-NP'
p1824
g5
tp1825
a(S'rate'
p1826
S'rate'
p1827
S'NN'
p1828
S'I-NP'
p1829
g5
tp1830
a(S'between'
p1831
S'between'
p1832
S'IN'
p1833
S'B-PP'
p1834
g5
tp1835
a(S'the'
p1836
S'the'
p1837
S'DT'
p1838
S'B-NP'
p1839
g5
tp1840
a(S'Web-based'
p1841
S'Web-based'
p1842
S'JJ'
p1843
S'I-NP'
p1844
g5
tp1845
a(S'and'
p1846
S'and'
p1847
S'CC'
p1848
g5
g5
tp1849
a(S'the'
p1850
S'the'
p1851
S'DT'
p1852
S'B-NP'
p1853
g5
tp1854
a(S'printed'
p1855
S'print'
p1856
S'VBN'
p1857
S'I-NP'
p1858
g5
tp1859
a(S'intervention'
p1860
S'intervention'
p1861
S'NN'
p1862
S'I-NP'
p1863
g5
tp1864
a(S'was'
p1865
S'be'
p1866
S'VBD'
p1867
S'B-VP'
p1868
g5
tp1869
a(S'not'
p1870
S'not'
p1871
S'RB'
p1872
S'I-VP'
p1873
g5
tp1874
a(S'explained'
p1875
S'explain'
p1876
S'VBN'
p1877
S'I-VP'
p1878
g5
tp1879
a(S'by'
p1880
S'by'
p1881
S'IN'
p1882
S'B-PP'
p1883
g5
tp1884
a(S'user'
p1885
S'user'
p1886
S'NN'
p1887
S'B-NP'
p1888
g5
tp1889
a(S'characteristics'
p1890
S'characteristic'
p1891
S'NNS'
p1892
S'I-NP'
p1893
g5
tp1894
a(g109
g109
g109
g5
g5
tp1895
a(S'CONCLUSIONS'
p1896
S'CONCLUSIONS'
p1897
S'NNS'
p1898
S'B-NP'
p1899
g5
tp1900
a(S'The'
p1901
S'The'
p1902
S'DT'
p1903
S'B-NP'
p1904
g5
tp1905
a(S'reach'
p1906
S'reach'
p1907
S'NN'
p1908
S'I-NP'
p1909
g5
tp1910
a(S'of'
p1911
S'of'
p1912
S'IN'
p1913
S'B-PP'
p1914
g5
tp1915
a(S'the'
p1916
S'the'
p1917
S'DT'
p1918
S'B-NP'
p1919
g5
tp1920
a(S'same'
p1921
S'same'
p1922
S'JJ'
p1923
S'I-NP'
p1924
g5
tp1925
a(S'tailored'
p1926
S'tailored'
p1927
S'JJ'
p1928
S'I-NP'
p1929
g5
tp1930
a(S'physical'
p1931
S'physical'
p1932
S'JJ'
p1933
S'I-NP'
p1934
g5
tp1935
a(S'activity'
p1936
S'activity'
p1937
S'NN'
p1938
S'I-NP'
p1939
g5
tp1940
a(g702
g702
g702
g5
g5
tp1941
a(S'PA'
p1942
S'PA'
p1943
S'NN'
p1944
S'B-NP'
p1945
g5
tp1946
a(g709
g709
g709
g5
g5
tp1947
a(S'intervention'
p1948
S'intervention'
p1949
S'NN'
p1950
S'B-NP'
p1951
g5
tp1952
a(S'in'
p1953
S'in'
p1954
S'IN'
p1955
S'B-PP'
p1956
g5
tp1957
a(g193
g193
S'DT'
p1958
S'B-NP'
p1959
g5
tp1960
a(S'printed'
p1961
S'print'
p1962
S'VBN'
p1963
S'I-NP'
p1964
g5
tp1965
a(S'or'
p1966
S'or'
p1967
S'CC'
p1968
S'I-NP'
p1969
g5
tp1970
a(S'Web-based'
p1971
S'Web-based'
p1972
S'JJ'
p1973
S'I-NP'
p1974
g5
tp1975
a(S'delivery'
p1976
S'delivery'
p1977
S'NN'
p1978
S'I-NP'
p1979
g5
tp1980
a(S'mode'
p1981
S'mode'
p1982
S'NN'
p1983
S'I-NP'
p1984
g5
tp1985
a(S'differed'
p1986
S'differ'
p1987
S'VBD'
p1988
S'B-VP'
p1989
g5
tp1990
a(S'between'
p1991
S'between'
p1992
S'IN'
p1993
S'B-PP'
p1994
g5
tp1995
a(S'sociodemographic'
p1996
S'sociodemographic'
p1997
S'JJ'
p1998
S'B-NP'
p1999
g5
tp2000
a(S'subgroups'
p2001
S'subgroup'
p2002
S'NNS'
p2003
S'I-NP'
p2004
g5
tp2005
a(S'of'
p2006
S'of'
p2007
S'IN'
p2008
S'B-PP'
p2009
g5
tp2010
a(S'participants'
p2011
S'participant'
p2012
S'NNS'
p2013
S'B-NP'
p2014
g5
tp2015
a(S'over'
p2016
S'over'
p2017
S'IN'
p2018
S'B-PP'
p2019
g5
tp2020
a(S'50'
p2021
S'50'
p2022
S'CD'
p2023
S'B-NP'
p2024
g5
tp2025
a(S'years'
p2026
S'year'
p2027
S'NNS'
p2028
S'I-NP'
p2029
g5
tp2030
a(S'of'
p2031
S'of'
p2032
S'IN'
p2033
S'B-PP'
p2034
g5
tp2035
a(S'age.'
p2036
S'age.'
p2037
S'NN'
p2038
S'B-NP'
p2039
g5
tp2040
a(S'Although'
p2041
S'Although'
p2042
S'IN'
p2043
S'B-SBAR'
p2044
g5
tp2045
a(S'the'
p2046
S'the'
p2047
S'DT'
p2048
S'B-NP'
p2049
g5
tp2050
a(S'reach'
p2051
S'reach'
p2052
S'NN'
p2053
S'I-NP'
p2054
g5
tp2055
a(S'of'
p2056
S'of'
p2057
S'IN'
p2058
S'B-PP'
p2059
g5
tp2060
a(S'the'
p2061
S'the'
p2062
S'DT'
p2063
S'B-NP'
p2064
g5
tp2065
a(S'Web-based'
p2066
S'Web-based'
p2067
S'JJ'
p2068
S'I-NP'
p2069
g5
tp2070
a(S'intervention'
p2071
S'intervention'
p2072
S'NN'
p2073
S'I-NP'
p2074
g5
tp2075
a(S'is'
p2076
S'be'
p2077
S'VBZ'
p2078
S'B-VP'
p2079
g5
tp2080
a(S'lower'
p2081
S'low'
p2082
S'JJR'
p2083
S'B-ADJP'
p2084
g5
tp2085
a(g247
g247
g247
g5
g5
tp2086
a(S'Web-based'
p2087
S'Web-based'
p2088
S'JJ'
p2089
S'B-NP'
p2090
g5
tp2091
a(S'interventions'
p2092
S'intervention'
p2093
S'NNS'
p2094
S'I-NP'
p2095
g5
tp2096
a(S'can'
p2097
S'can'
p2098
S'MD'
p2099
S'B-VP'
p2100
g5
tp2101
a(S'be'
p2102
S'be'
p2103
S'VB'
p2104
S'I-VP'
p2105
g5
tp2106
a(g193
g193
S'DT'
p2107
S'B-NP'
p2108
g5
tp2109
a(S'good'
p2110
S'good'
p2111
S'JJ'
p2112
S'I-NP'
p2113
g5
tp2114
a(S'channel'
p2115
S'channel'
p2116
S'NN'
p2117
S'I-NP'
p2118
g5
tp2119
a(S'to'
p2120
S'to'
p2121
S'TO'
p2122
S'B-VP'
p2123
g5
tp2124
a(S'reach'
p2125
S'reach'
p2126
S'VB'
p2127
S'I-VP'
p2128
g5
tp2129
a(S'high-risk'
p2130
S'high-risk'
p2131
S'JJ'
p2132
S'B-NP'
p2133
S'B-cell_type'
p2134
tp2135
a(S'populations'
p2136
S'population'
p2137
S'NNS'
p2138
S'I-NP'
p2139
S'I-cell_type'
p2140
tp2141
a(g702
g702
g702
g5
g5
tp2142
a(S'lower'
p2143
S'low'
p2144
S'JJR'
p2145
S'B-NP'
p2146
g5
tp2147
a(S'PA'
p2148
S'PA'
p2149
S'NN'
p2150
S'I-NP'
p2151
g5
tp2152
a(S'intention'
p2153
S'intention'
p2154
S'NN'
p2155
S'I-NP'
p2156
g5
tp2157
a(S'and'
p2158
S'and'
p2159
S'CC'
p2160
g5
g5
tp2161
a(S'higher'
p2162
S'high'
p2163
S'JJR'
p2164
S'B-NP'
p2165
g5
tp2166
a(S'BMI'
p2167
S'BMI'
p2168
S'NN'
p2169
S'I-NP'
p2170
g5
tp2171
a(g709
g709
g709
g5
g5
tp2172
a(g109
g109
g109
g5
g5
tp2173
a(S'While'
p2174
S'While'
p2175
S'IN'
p2176
S'B-SBAR'
p2177
g5
tp2178
a(S'the'
p2179
S'the'
p2180
S'DT'
p2181
S'B-NP'
p2182
g5
tp2183
a(S'dropout'
p2184
S'dropout'
p2185
S'NN'
p2186
S'I-NP'
p2187
g5
tp2188
a(S'rate'
p2189
S'rate'
p2190
S'NN'
p2191
S'I-NP'
p2192
g5
tp2193
a(S'was'
p2194
S'be'
p2195
S'VBD'
p2196
S'B-VP'
p2197
g5
tp2198
a(S'significantly'
p2199
S'significantly'
p2200
S'RB'
p2201
S'B-ADJP'
p2202
g5
tp2203
a(S'higher'
p2204
S'high'
p2205
S'JJR'
p2206
S'I-ADJP'
p2207
g5
tp2208
a(S'in'
p2209
S'in'
p2210
S'IN'
p2211
S'B-PP'
p2212
g5
tp2213
a(S'the'
p2214
S'the'
p2215
S'DT'
p2216
S'B-NP'
p2217
g5
tp2218
a(S'Web-based'
p2219
S'Web-based'
p2220
S'JJ'
p2221
S'I-NP'
p2222
g5
tp2223
a(S'intervention'
p2224
S'intervention'
p2225
S'NN'
p2226
S'I-NP'
p2227
g5
tp2228
a(S'group'
p2229
S'group'
p2230
S'NN'
p2231
S'I-NP'
p2232
g5
tp2233
a(g247
g247
g247
g5
g5
tp2234
a(S'no'
p2235
S'no'
p2236
S'DT'
p2237
S'B-NP'
p2238
g5
tp2239
a(S'specific'
p2240
S'specific'
p2241
S'JJ'
p2242
S'I-NP'
p2243
g5
tp2244
a(S'user'
p2245
S'user'
p2246
S'NN'
p2247
S'I-NP'
p2248
g5
tp2249
a(S'characteristics'
p2250
S'characteristic'
p2251
S'NNS'
p2252
S'I-NP'
p2253
g5
tp2254
a(S'explained'
p2255
S'explain'
p2256
S'VBD'
p2257
S'B-VP'
p2258
g5
tp2259
a(S'the'
p2260
S'the'
p2261
S'DT'
p2262
S'B-NP'
p2263
g5
tp2264
a(S'difference'
p2265
S'difference'
p2266
S'NN'
p2267
S'I-NP'
p2268
g5
tp2269
a(S'in'
p2270
S'in'
p2271
S'IN'
p2272
S'B-PP'
p2273
g5
tp2274
a(S'dropout'
p2275
S'dropout'
p2276
S'NN'
p2277
S'B-NP'
p2278
g5
tp2279
a(S'rates'
p2280
S'rate'
p2281
S'NNS'
p2282
S'I-NP'
p2283
g5
tp2284
a(S'between'
p2285
S'between'
p2286
S'IN'
p2287
S'B-PP'
p2288
g5
tp2289
a(S'the'
p2290
S'the'
p2291
S'DT'
p2292
S'B-NP'
p2293
g5
tp2294
a(S'delivery'
p2295
S'delivery'
p2296
S'NN'
p2297
S'I-NP'
p2298
g5
tp2299
a(S'modes.'
p2300
S'modes.'
p2301
S'NN'
p2302
S'I-NP'
p2303
g5
tp2304
a(S'More'
p2305
S'More'
p2306
S'JJR'
p2307
S'B-NP'
p2308
g5
tp2309
a(S'research'
p2310
S'research'
p2311
S'NN'
p2312
S'I-NP'
p2313
g5
tp2314
a(S'is'
p2315
S'be'
p2316
S'VBZ'
p2317
S'B-VP'
p2318
g5
tp2319
a(S'needed'
p2320
S'need'
p2321
S'VBN'
p2322
S'I-VP'
p2323
g5
tp2324
a(S'to'
p2325
S'to'
p2326
S'TO'
p2327
S'B-VP'
p2328
g5
tp2329
a(S'determine'
p2330
S'determine'
p2331
S'VB'
p2332
S'I-VP'
p2333
g5
tp2334
a(S'what'
p2335
S'what'
p2336
S'WP'
p2337
S'B-NP'
p2338
g5
tp2339
a(S'caused'
p2340
S'cause'
p2341
S'VBD'
p2342
S'B-VP'
p2343
g5
tp2344
a(S'the'
p2345
S'the'
p2346
S'DT'
p2347
S'B-NP'
p2348
g5
tp2349
a(S'high'
p2350
S'high'
p2351
S'JJ'
p2352
S'I-NP'
p2353
g5
tp2354
a(S'rate'
p2355
S'rate'
p2356
S'NN'
p2357
S'I-NP'
p2358
g5
tp2359
a(S'of'
p2360
S'of'
p2361
S'IN'
p2362
S'B-PP'
p2363
g5
tp2364
a(S'dropout'
p2365
S'dropout'
p2366
S'NN'
p2367
S'B-NP'
p2368
g5
tp2369
a(S'in'
p2370
S'in'
p2371
S'IN'
p2372
S'B-PP'
p2373
g5
tp2374
a(S'the'
p2375
S'the'
p2376
S'DT'
p2377
S'B-NP'
p2378
g5
tp2379
a(S'Web-based'
p2380
S'Web-based'
p2381
S'JJ'
p2382
S'I-NP'
p2383
g5
tp2384
a(S'intervention'
p2385
S'intervention'
p2386
S'NN'
p2387
S'I-NP'
p2388
g5
tp2389
a(g109
g109
g109
g5
g5
tp2390
a(S'TRIAL'
p2391
S'TRIAL'
p2392
S'NNP'
p2393
S'B-NP'
p2394
g5
tp2395
a(S'REGISTRATION'
p2396
S'REGISTRATION'
p2397
S'NNP'
p2398
S'I-NP'
p2399
g5
tp2400
a(S'Dutch'
p2401
S'Dutch'
p2402
S'NNP'
p2403
S'I-NP'
p2404
g5
tp2405
a(S'Trial'
p2406
S'Trial'
p2407
S'NNP'
p2408
S'I-NP'
p2409
g5
tp2410
a(S'Register'
p2411
S'Register'
p2412
S'NNP'
p2413
S'I-NP'
p2414
g5
tp2415
a(g702
g702
g702
g5
g5
tp2416
a(S'NTR'
p2417
S'NTR'
p2418
S'NN'
p2419
S'B-NP'
p2420
S'B-protein'
p2421
tp2422
a(g709
g709
g709
g5
g5
tp2423
a(g92
g92
g92
g5
g5
tp2424
a(S'2297'
p2425
S'2297'
p2426
S'CD'
p2427
S'B-NP'
p2428
g5
tp2429
a(g92
g92
g92
g5
g5
tp2430
a(S'http'
p2431
S'http'
p2432
S'NN'
p2433
S'B-NP'
p2434
g5
tp2435
a(g92
g92
g92
g5
g5
tp2436
a(S'//www.trialregister.nl/trialreg/admin/rctview.asp'
p2437
S'//www.trialregister.nl/trialreg/admin/rctview.asp'
p2438
S'VB'
p2439
S'B-VP'
p2440
g5
tp2441
a(S'?'
p2442
g2442
g109
g5
g5
tp2443
a(S'TC=2297'
p2444
S'TC=2297'
p2445
S'NN'
p2446
S'B-NP'
p2447
g5
tp2448
a(g702
g702
g702
g5
g5
tp2449
a(S'Archived'
p2450
S'Archive'
p2451
S'VBN'
p2452
S'B-VP'
p2453
g5
tp2454
a(S'by'
p2455
S'by'
p2456
S'IN'
p2457
S'B-PP'
p2458
g5
tp2459
a(S'WebCite'
p2460
S'WebCite'
p2461
S'NN'
p2462
S'B-NP'
p2463
g5
tp2464
a(S'at'
p2465
S'at'
p2466
S'IN'
p2467
S'B-PP'
p2468
g5
tp2469
a(S'http'
p2470
S'http'
p2471
S'NN'
p2472
S'B-NP'
p2473
g5
tp2474
a(g92
g92
g92
g5
g5
tp2475
a(S'//www.webcitation.org/65TkwoESp'
p2476
S'//www.webcitation.org/65TkwoESp'
p2477
S'NN'
p2478
S'B-NP'
p2479
S'B-protein'
p2480
tp2481
a(g709
g709
g709
g5
g5
tp2482
a(g109
g109
g109
g5
g5
tp2483
a.