(lp0
(S'BNP-guided'
p1
S'BNP-guided'
p2
S'JJ'
p3
S'B-ADJP'
p4
S'O'
p5
tp6
a(S'vs'
p7
S'vs'
p8
S'IN'
p9
S'B-PP'
p10
g5
tp11
a(S'symptom-guided'
p12
S'symptom-guided'
p13
S'JJ'
p14
S'B-NP'
p15
g5
tp16
a(S'heart'
p17
S'heart'
p18
S'NN'
p19
S'I-NP'
p20
g5
tp21
a(S'failure'
p22
S'failure'
p23
S'NN'
p24
S'I-NP'
p25
g5
tp26
a(S'therapy'
p27
S'therapy'
p28
S'NN'
p29
S'I-NP'
p30
g5
tp31
a(S':'
p32
g32
g32
g5
g5
tp33
a(S'the'
p34
S'the'
p35
S'DT'
p36
S'B-NP'
p37
g5
tp38
a(S'Trial'
p39
S'Trial'
p40
S'NNP'
p41
S'I-NP'
p42
g5
tp43
a(S'of'
p44
S'of'
p45
S'IN'
p46
S'B-PP'
p47
g5
tp48
a(S'Intensified'
p49
S'Intensified'
p50
S'NNP'
p51
S'B-NP'
p52
g5
tp53
a(S'vs'
p54
S'vs'
p55
S'CC'
p56
g5
g5
tp57
a(S'Standard'
p58
S'Standard'
p59
S'NNP'
p60
S'B-NP'
p61
g5
tp62
a(S'Medical'
p63
S'Medical'
p64
S'NNP'
p65
S'I-NP'
p66
g5
tp67
a(S'Therapy'
p68
S'Therapy'
p69
S'NN'
p70
S'I-NP'
p71
g5
tp72
a(S'in'
p73
S'in'
p74
S'IN'
p75
S'B-PP'
p76
g5
tp77
a(S'Elderly'
p78
S'Elderly'
p79
S'JJ'
p80
S'B-NP'
p81
g5
tp82
a(S'Patients'
p83
S'Patient'
p84
S'NNS'
p85
S'I-NP'
p86
g5
tp87
a(S'With'
p88
S'With'
p89
S'IN'
p90
S'B-PP'
p91
g5
tp92
a(S'Congestive'
p93
S'Congestive'
p94
S'JJ'
p95
S'B-NP'
p96
g5
tp97
a(S'Heart'
p98
S'Heart'
p99
S'NN'
p100
S'I-NP'
p101
g5
tp102
a(S'Failure'
p103
S'Failure'
p104
S'NN'
p105
S'I-NP'
p106
g5
tp107
a(S'('
p108
g108
g108
g5
g5
tp109
a(S'TIME-CHF'
p110
S'TIME-CHF'
p111
S'NN'
p112
S'B-NP'
p113
g5
tp114
a(S')'
p115
g115
g115
g5
g5
tp116
a(S'randomized'
p117
S'randomize'
p118
S'VBD'
p119
S'B-VP'
p120
g5
tp121
a(S'trial'
p122
S'trial'
p123
S'NN'
p124
S'B-NP'
p125
g5
tp126
a(S'.'
p127
g127
g127
g5
g5
tp128
a(S'CONTEXT'
p129
S'CONTEXT'
p130
S'NN'
p131
S'B-NP'
p132
g5
tp133
a(S'It'
p134
S'It'
p135
S'PRP'
p136
S'B-NP'
p137
g5
tp138
a(S'is'
p139
S'be'
p140
S'VBZ'
p141
S'B-VP'
p142
g5
tp143
a(S'uncertain'
p144
S'uncertain'
p145
S'JJ'
p146
S'B-ADJP'
p147
g5
tp148
a(S'whether'
p149
S'whether'
p150
S'IN'
p151
S'B-SBAR'
p152
g5
tp153
a(S'intensified'
p154
S'intensify'
p155
S'VBN'
p156
S'B-NP'
p157
g5
tp158
a(S'heart'
p159
S'heart'
p160
S'NN'
p161
S'I-NP'
p162
g5
tp163
a(S'failure'
p164
S'failure'
p165
S'NN'
p166
S'I-NP'
p167
g5
tp168
a(S'therapy'
p169
S'therapy'
p170
S'NN'
p171
S'I-NP'
p172
g5
tp173
a(S'guided'
p174
S'guide'
p175
S'VBN'
p176
S'B-VP'
p177
g5
tp178
a(S'by'
p179
S'by'
p180
S'IN'
p181
S'B-PP'
p182
g5
tp183
a(S'N-terminal'
p184
S'N-terminal'
p185
S'JJ'
p186
S'B-NP'
p187
S'B-protein'
p188
tp189
a(S'brain'
p190
S'brain'
p191
S'NN'
p192
S'I-NP'
p193
S'I-protein'
p194
tp195
a(S'natriuretic'
p196
S'natriuretic'
p197
S'JJ'
p198
S'I-NP'
p199
g5
tp200
a(S'peptide'
p201
S'peptide'
p202
S'NN'
p203
S'I-NP'
p204
g5
tp205
a(g108
g108
g108
g5
g5
tp206
a(S'BNP'
p207
S'BNP'
p208
S'NN'
p209
S'B-NP'
p210
S'B-protein'
p211
tp212
a(g115
g115
g115
g5
g5
tp213
a(S'is'
p214
S'be'
p215
S'VBZ'
p216
S'B-VP'
p217
g5
tp218
a(S'superior'
p219
S'superior'
p220
S'JJ'
p221
S'B-ADJP'
p222
g5
tp223
a(S'to'
p224
S'to'
p225
S'TO'
p226
S'B-PP'
p227
g5
tp228
a(S'symptom-guided'
p229
S'symptom-guided'
p230
S'JJ'
p231
S'B-NP'
p232
g5
tp233
a(S'therapy'
p234
S'therapy'
p235
S'NN'
p236
S'I-NP'
p237
g5
tp238
a(g127
g127
g127
g5
g5
tp239
a(S'OBJECTIVE'
p240
S'OBJECTIVE'
p241
S'NN'
p242
S'B-NP'
p243
g5
tp244
a(S'To'
p245
S'To'
p246
S'TO'
p247
S'B-VP'
p248
g5
tp249
a(S'compare'
p250
S'compare'
p251
S'VB'
p252
S'I-VP'
p253
g5
tp254
a(S'18-month'
p255
S'18-month'
p256
S'JJ'
p257
S'B-NP'
p258
g5
tp259
a(S'outcomes'
p260
S'outcome'
p261
S'NNS'
p262
S'I-NP'
p263
g5
tp264
a(S'of'
p265
S'of'
p266
S'IN'
p267
S'B-PP'
p268
g5
tp269
a(S'N-terminal'
p270
S'N-terminal'
p271
S'JJ'
p272
S'B-NP'
p273
g5
tp274
a(S'BNP-guided'
p275
S'BNP-guided'
p276
S'JJ'
p277
S'I-NP'
p278
g5
tp279
a(S'vs'
p280
S'vs'
p281
S'IN'
p282
S'B-PP'
p283
g5
tp284
a(S'symptom-guided'
p285
S'symptom-guided'
p286
S'JJ'
p287
S'B-NP'
p288
g5
tp289
a(S'heart'
p290
S'heart'
p291
S'NN'
p292
S'I-NP'
p293
g5
tp294
a(S'failure'
p295
S'failure'
p296
S'NN'
p297
S'I-NP'
p298
g5
tp299
a(S'therapy'
p300
S'therapy'
p301
S'NN'
p302
S'I-NP'
p303
g5
tp304
a(g127
g127
g127
g5
g5
tp305
a(S'DESIGN'
p306
S'DESIGN'
p307
S'NN'
p308
S'B-NP'
p309
g5
tp310
a(S','
p311
g311
g311
g5
g5
tp312
a(S'SETTING'
p313
S'SETTING'
p314
S'NN'
p315
S'B-NP'
p316
g5
tp317
a(g311
g311
g311
g5
g5
tp318
a(S'AND'
p319
S'AND'
p320
S'CC'
p321
g5
g5
tp322
a(S'PATIENTS'
p323
S'PATIENTS'
p324
S'NNP'
p325
S'B-NP'
p326
g5
tp327
a(S'Randomized'
p328
S'Randomized'
p329
S'NNP'
p330
S'I-NP'
p331
g5
tp332
a(S'controlled'
p333
S'control'
p334
S'VBD'
p335
S'B-VP'
p336
g5
tp337
a(S'multicenter'
p338
S'multicenter'
p339
S'JJ'
p340
S'B-NP'
p341
g5
tp342
a(S'Trial'
p343
S'Trial'
p344
S'NNP'
p345
S'I-NP'
p346
g5
tp347
a(S'of'
p348
S'of'
p349
S'IN'
p350
S'B-PP'
p351
g5
tp352
a(S'Intensified'
p353
S'Intensified'
p354
S'NNP'
p355
S'B-NP'
p356
g5
tp357
a(S'vs'
p358
S'vs'
p359
S'CC'
p360
g5
g5
tp361
a(S'Standard'
p362
S'Standard'
p363
S'NNP'
p364
S'B-NP'
p365
g5
tp366
a(S'Medical'
p367
S'Medical'
p368
S'NNP'
p369
S'I-NP'
p370
g5
tp371
a(S'Therapy'
p372
S'Therapy'
p373
S'NN'
p374
S'I-NP'
p375
g5
tp376
a(S'in'
p377
S'in'
p378
S'IN'
p379
S'B-PP'
p380
g5
tp381
a(S'Elderly'
p382
S'Elderly'
p383
S'JJ'
p384
S'B-NP'
p385
g5
tp386
a(S'Patients'
p387
S'Patient'
p388
S'NNS'
p389
S'I-NP'
p390
g5
tp391
a(S'With'
p392
S'With'
p393
S'IN'
p394
S'B-PP'
p395
g5
tp396
a(S'Congestive'
p397
S'Congestive'
p398
S'JJ'
p399
S'B-NP'
p400
g5
tp401
a(S'Heart'
p402
S'Heart'
p403
S'NN'
p404
S'I-NP'
p405
g5
tp406
a(S'Failure'
p407
S'Failure'
p408
S'NN'
p409
S'I-NP'
p410
g5
tp411
a(g108
g108
g108
g5
g5
tp412
a(S'TIME-CHF'
p413
S'TIME-CHF'
p414
S'NN'
p415
S'B-NP'
p416
S'B-protein'
p417
tp418
a(g115
g115
g115
g5
g5
tp419
a(S'of'
p420
S'of'
p421
S'IN'
p422
S'B-PP'
p423
g5
tp424
a(S'499'
p425
S'499'
p426
S'CD'
p427
S'B-NP'
p428
g5
tp429
a(S'patients'
p430
S'patient'
p431
S'NNS'
p432
S'I-NP'
p433
g5
tp434
a(S'aged'
p435
S'age'
p436
S'VBN'
p437
S'B-VP'
p438
g5
tp439
a(S'60'
p440
S'60'
p441
S'CD'
p442
S'B-NP'
p443
g5
tp444
a(S'years'
p445
S'year'
p446
S'NNS'
p447
S'I-NP'
p448
g5
tp449
a(S'or'
p450
S'or'
p451
S'CC'
p452
g5
g5
tp453
a(S'older'
p454
S'old'
p455
S'JJR'
p456
S'B-ADJP'
p457
g5
tp458
a(S'with'
p459
S'with'
p460
S'IN'
p461
S'B-PP'
p462
g5
tp463
a(S'systolic'
p464
S'systolic'
p465
S'JJ'
p466
S'B-NP'
p467
g5
tp468
a(S'heart'
p469
S'heart'
p470
S'NN'
p471
S'I-NP'
p472
g5
tp473
a(S'failure'
p474
S'failure'
p475
S'NN'
p476
S'I-NP'
p477
g5
tp478
a(g108
g108
g108
g5
g5
tp479
a(S'ejection'
p480
S'ejection'
p481
S'NN'
p482
S'B-NP'
p483
g5
tp484
a(S'fraction'
p485
S'fraction'
p486
S'NN'
p487
S'I-NP'
p488
g5
tp489
a(S'<'
p490
g490
S'SYM'
p491
S'B-VP'
p492
g5
tp493
a(S'or'
p494
S'or'
p495
S'CC'
p496
g5
g5
tp497
a(S'='
p498
g498
S'SYM'
p499
S'B-VP'
p500
g5
tp501
a(S'45'
p502
S'45'
p503
S'CD'
p504
S'B-NP'
p505
g5
tp506
a(S'%'
p507
g507
S'NN'
p508
S'I-NP'
p509
g5
tp510
a(g115
g115
g115
g5
g5
tp511
a(g311
g311
g311
g5
g5
tp512
a(S'New'
p513
S'New'
p514
S'NNP'
p515
S'B-NP'
p516
g5
tp517
a(S'York'
p518
S'York'
p519
S'NNP'
p520
S'I-NP'
p521
g5
tp522
a(S'Heart'
p523
S'Heart'
p524
S'NNP'
p525
S'I-NP'
p526
g5
tp527
a(S'Association'
p528
S'Association'
p529
S'NNP'
p530
S'I-NP'
p531
g5
tp532
a(g108
g108
g108
g5
g5
tp533
a(S'NYHA'
p534
S'NYHA'
p535
S'NNP'
p536
g5
g5
tp537
a(g115
g115
g115
g5
g5
tp538
a(S'class'
p539
S'class'
p540
S'NN'
p541
S'B-NP'
p542
g5
tp543
a(S'of'
p544
S'of'
p545
S'IN'
p546
S'B-PP'
p547
g5
tp548
a(S'II'
p549
S'II'
p550
S'CD'
p551
S'B-NP'
p552
g5
tp553
a(S'or'
p554
S'or'
p555
S'CC'
p556
S'I-NP'
p557
g5
tp558
a(S'greater'
p559
S'great'
p560
S'JJR'
p561
S'I-NP'
p562
g5
tp563
a(g311
g311
g311
S'I-NP'
p564
g5
tp565
a(S'prior'
p566
S'prior'
p567
S'JJ'
p568
S'I-NP'
p569
g5
tp570
a(S'hospitalization'
p571
S'hospitalization'
p572
S'NN'
p573
S'I-NP'
p574
g5
tp575
a(S'for'
p576
S'for'
p577
S'IN'
p578
S'B-PP'
p579
g5
tp580
a(S'heart'
p581
S'heart'
p582
S'NN'
p583
S'B-NP'
p584
g5
tp585
a(S'failure'
p586
S'failure'
p587
S'NN'
p588
S'I-NP'
p589
g5
tp590
a(S'within'
p591
S'within'
p592
S'IN'
p593
S'B-PP'
p594
g5
tp595
a(S'1'
p596
g596
S'CD'
p597
S'B-NP'
p598
g5
tp599
a(S'year'
p600
S'year'
p601
S'NN'
p602
S'I-NP'
p603
g5
tp604
a(g311
g311
g311
g5
g5
tp605
a(S'and'
p606
S'and'
p607
S'CC'
p608
g5
g5
tp609
a(S'N-terminal'
p610
S'N-terminal'
p611
S'JJ'
p612
S'B-NP'
p613
S'B-protein'
p614
tp615
a(S'BNP'
p616
S'BNP'
p617
S'NN'
p618
S'I-NP'
p619
S'I-protein'
p620
tp621
a(S'level'
p622
S'level'
p623
S'NN'
p624
S'I-NP'
p625
g5
tp626
a(S'of'
p627
S'of'
p628
S'IN'
p629
S'B-PP'
p630
g5
tp631
a(S'2'
p632
g632
S'CD'
p633
S'B-NP'
p634
g5
tp635
a(S'or'
p636
S'or'
p637
S'CC'
p638
S'I-NP'
p639
g5
tp640
a(S'more'
p641
S'more'
p642
S'JJR'
p643
S'I-NP'
p644
g5
tp645
a(S'times'
p646
S'time'
p647
S'NNS'
p648
S'I-NP'
p649
g5
tp650
a(S'the'
p651
S'the'
p652
S'DT'
p653
S'I-NP'
p654
g5
tp655
a(S'upper'
p656
S'upper'
p657
S'JJ'
p658
S'I-NP'
p659
g5
tp660
a(S'limit'
p661
S'limit'
p662
S'NN'
p663
S'I-NP'
p664
g5
tp665
a(S'of'
p666
S'of'
p667
S'IN'
p668
S'B-PP'
p669
g5
tp670
a(S'normal.'
p671
S'normal.'
p672
S'RB'
p673
S'B-ADVP'
p674
g5
tp675
a(S'The'
p676
S'The'
p677
S'DT'
p678
S'B-NP'
p679
g5
tp680
a(S'study'
p681
S'study'
p682
S'NN'
p683
S'I-NP'
p684
g5
tp685
a(S'had'
p686
S'have'
p687
S'VBD'
p688
S'B-VP'
p689
g5
tp690
a(S'an'
p691
S'an'
p692
S'DT'
p693
S'B-NP'
p694
g5
tp695
a(S'18-month'
p696
S'18-month'
p697
S'JJ'
p698
S'I-NP'
p699
g5
tp700
a(S'follow-up'
p701
S'follow-up'
p702
S'NN'
p703
S'I-NP'
p704
g5
tp705
a(S'and'
p706
S'and'
p707
S'CC'
p708
g5
g5
tp709
a(S'it'
p710
S'it'
p711
S'PRP'
p712
S'B-NP'
p713
g5
tp714
a(S'was'
p715
S'be'
p716
S'VBD'
p717
S'B-VP'
p718
g5
tp719
a(S'conducted'
p720
S'conduct'
p721
S'VBN'
p722
S'I-VP'
p723
g5
tp724
a(S'at'
p725
S'at'
p726
S'IN'
p727
S'B-PP'
p728
g5
tp729
a(S'15'
p730
S'15'
p731
S'CD'
p732
S'B-NP'
p733
g5
tp734
a(S'outpatient'
p735
S'outpatient'
p736
S'NN'
p737
S'I-NP'
p738
g5
tp739
a(S'centers'
p740
S'center'
p741
S'NNS'
p742
S'I-NP'
p743
g5
tp744
a(S'in'
p745
S'in'
p746
S'IN'
p747
S'B-PP'
p748
g5
tp749
a(S'Switzerland'
p750
S'Switzerland'
p751
S'NNP'
p752
S'B-NP'
p753
g5
tp754
a(S'and'
p755
S'and'
p756
S'CC'
p757
S'I-NP'
p758
g5
tp759
a(S'Germany'
p760
S'Germany'
p761
S'NNP'
p762
S'I-NP'
p763
g5
tp764
a(S'between'
p765
S'between'
p766
S'IN'
p767
S'B-PP'
p768
g5
tp769
a(S'January'
p770
S'January'
p771
S'NNP'
p772
S'B-NP'
p773
g5
tp774
a(S'2003'
p775
S'2003'
p776
S'CD'
p777
S'I-NP'
p778
g5
tp779
a(S'and'
p780
S'and'
p781
S'CC'
p782
g5
g5
tp783
a(S'June'
p784
S'June'
p785
S'NNP'
p786
S'B-NP'
p787
g5
tp788
a(S'2008'
p789
S'2008'
p790
S'CD'
p791
S'I-NP'
p792
g5
tp793
a(g127
g127
g127
g5
g5
tp794
a(S'INTERVENTION'
p795
S'INTERVENTION'
p796
S'NN'
p797
S'B-NP'
p798
g5
tp799
a(S'Uptitration'
p800
S'Uptitration'
p801
S'NN'
p802
S'I-NP'
p803
g5
tp804
a(S'of'
p805
S'of'
p806
S'IN'
p807
S'B-PP'
p808
g5
tp809
a(S'guideline-based'
p810
S'guideline-based'
p811
S'JJ'
p812
S'B-NP'
p813
g5
tp814
a(S'treatments'
p815
S'treatment'
p816
S'NNS'
p817
S'I-NP'
p818
g5
tp819
a(S'to'
p820
S'to'
p821
S'TO'
p822
S'B-VP'
p823
g5
tp824
a(S'reduce'
p825
S'reduce'
p826
S'VB'
p827
S'I-VP'
p828
g5
tp829
a(S'symptoms'
p830
S'symptom'
p831
S'NNS'
p832
S'B-NP'
p833
g5
tp834
a(S'to'
p835
S'to'
p836
S'TO'
p837
S'B-PP'
p838
g5
tp839
a(S'NYHA'
p840
S'NYHA'
p841
S'NNP'
p842
S'B-NP'
p843
g5
tp844
a(S'class'
p845
S'class'
p846
S'NN'
p847
S'I-NP'
p848
g5
tp849
a(S'of'
p850
S'of'
p851
S'IN'
p852
S'B-PP'
p853
g5
tp854
a(S'II'
p855
S'II'
p856
S'CD'
p857
S'B-NP'
p858
g5
tp859
a(S'or'
p860
S'or'
p861
S'CC'
p862
S'I-NP'
p863
g5
tp864
a(S'less'
p865
S'less'
p866
S'JJR'
p867
S'I-NP'
p868
g5
tp869
a(g108
g108
g108
g5
g5
tp870
a(S'symptom-guided'
p871
S'symptom-guided'
p872
S'JJ'
p873
S'B-NP'
p874
g5
tp875
a(S'therapy'
p876
S'therapy'
p877
S'NN'
p878
S'I-NP'
p879
g5
tp880
a(g115
g115
g115
g5
g5
tp881
a(S'and'
p882
S'and'
p883
S'CC'
p884
g5
g5
tp885
a(S'BNP'
p886
S'BNP'
p887
S'NN'
p888
S'B-NP'
p889
S'B-protein'
p890
tp891
a(S'level'
p892
S'level'
p893
S'NN'
p894
S'I-NP'
p895
g5
tp896
a(S'of'
p897
S'of'
p898
S'IN'
p899
S'B-PP'
p900
g5
tp901
a(g632
g632
S'CD'
p902
S'B-NP'
p903
g5
tp904
a(S'times'
p905
S'time'
p906
S'NNS'
p907
S'I-NP'
p908
g5
tp909
a(S'or'
p910
S'or'
p911
S'CC'
p912
S'I-NP'
p913
g5
tp914
a(S'less'
p915
S'less'
p916
S'JJR'
p917
S'I-NP'
p918
g5
tp919
a(S'the'
p920
S'the'
p921
S'DT'
p922
S'B-NP'
p923
g5
tp924
a(S'upper'
p925
S'upper'
p926
S'JJ'
p927
S'I-NP'
p928
g5
tp929
a(S'limit'
p930
S'limit'
p931
S'NN'
p932
S'I-NP'
p933
g5
tp934
a(S'of'
p935
S'of'
p936
S'IN'
p937
S'B-PP'
p938
g5
tp939
a(S'normal'
p940
S'normal'
p941
S'JJ'
p942
S'B-NP'
p943
g5
tp944
a(S'and'
p945
S'and'
p946
S'CC'
p947
g5
g5
tp948
a(S'symptoms'
p949
S'symptom'
p950
S'NNS'
p951
S'B-NP'
p952
g5
tp953
a(S'to'
p954
S'to'
p955
S'TO'
p956
S'B-PP'
p957
g5
tp958
a(S'NYHA'
p959
S'NYHA'
p960
S'NNP'
p961
S'B-NP'
p962
g5
tp963
a(S'class'
p964
S'class'
p965
S'NN'
p966
S'I-NP'
p967
g5
tp968
a(S'of'
p969
S'of'
p970
S'IN'
p971
S'B-PP'
p972
g5
tp973
a(S'II'
p974
S'II'
p975
S'CD'
p976
S'B-NP'
p977
g5
tp978
a(S'or'
p979
S'or'
p980
S'CC'
p981
S'I-NP'
p982
g5
tp983
a(S'less'
p984
S'less'
p985
S'JJR'
p986
S'I-NP'
p987
g5
tp988
a(g108
g108
g108
g5
g5
tp989
a(S'BNP-guided'
p990
S'BNP-guided'
p991
S'JJ'
p992
S'B-NP'
p993
g5
tp994
a(S'therapy'
p995
S'therapy'
p996
S'NN'
p997
S'I-NP'
p998
g5
tp999
a(g115
g115
g115
g5
g5
tp1000
a(g127
g127
g127
g5
g5
tp1001
a(S'MAIN'
p1002
S'MAIN'
p1003
S'NNP'
p1004
S'B-NP'
p1005
g5
tp1006
a(S'OUTCOME'
p1007
S'OUTCOME'
p1008
S'NNP'
p1009
S'I-NP'
p1010
g5
tp1011
a(S'MEASURES'
p1012
S'MEASURES'
p1013
S'NNP'
p1014
S'I-NP'
p1015
g5
tp1016
a(S'Primary'
p1017
S'Primary'
p1018
S'JJ'
p1019
S'I-NP'
p1020
g5
tp1021
a(S'outcomes'
p1022
S'outcome'
p1023
S'NNS'
p1024
S'I-NP'
p1025
g5
tp1026
a(S'were'
p1027
S'be'
p1028
S'VBD'
p1029
S'B-VP'
p1030
g5
tp1031
a(S'18-month'
p1032
S'18-month'
p1033
S'JJ'
p1034
S'B-NP'
p1035
g5
tp1036
a(S'survival'
p1037
S'survival'
p1038
S'NN'
p1039
S'I-NP'
p1040
g5
tp1041
a(S'free'
p1042
S'free'
p1043
S'JJ'
p1044
S'B-ADJP'
p1045
g5
tp1046
a(S'of'
p1047
S'of'
p1048
S'IN'
p1049
S'B-PP'
p1050
g5
tp1051
a(S'all-cause'
p1052
S'all-cause'
p1053
S'JJ'
p1054
S'B-NP'
p1055
g5
tp1056
a(S'hospitalizations'
p1057
S'hospitalization'
p1058
S'NNS'
p1059
S'I-NP'
p1060
g5
tp1061
a(S'and'
p1062
S'and'
p1063
S'CC'
p1064
g5
g5
tp1065
a(S'quality'
p1066
S'quality'
p1067
S'NN'
p1068
S'B-NP'
p1069
g5
tp1070
a(S'of'
p1071
S'of'
p1072
S'IN'
p1073
S'B-PP'
p1074
g5
tp1075
a(S'life'
p1076
S'life'
p1077
S'NN'
p1078
S'B-NP'
p1079
g5
tp1080
a(S'as'
p1081
S'as'
p1082
S'IN'
p1083
S'B-SBAR'
p1084
g5
tp1085
a(S'assessed'
p1086
S'assess'
p1087
S'VBN'
p1088
S'B-VP'
p1089
g5
tp1090
a(S'by'
p1091
S'by'
p1092
S'IN'
p1093
S'B-PP'
p1094
g5
tp1095
a(S'structured'
p1096
S'structure'
p1097
S'VBN'
p1098
S'B-NP'
p1099
g5
tp1100
a(S'validated'
p1101
S'validate'
p1102
S'VBN'
p1103
S'I-NP'
p1104
g5
tp1105
a(S'questionnaires'
p1106
S'questionnaire'
p1107
S'NNS'
p1108
S'I-NP'
p1109
g5
tp1110
a(g127
g127
g127
g5
g5
tp1111
a(S'RESULTS'
p1112
S'RESULTS'
p1113
S'NNS'
p1114
S'B-NP'
p1115
g5
tp1116
a(S'Heart'
p1117
S'Heart'
p1118
S'VBP'
p1119
S'B-VP'
p1120
g5
tp1121
a(S'failure'
p1122
S'failure'
p1123
S'NN'
p1124
S'B-NP'
p1125
g5
tp1126
a(S'therapy'
p1127
S'therapy'
p1128
S'NN'
p1129
S'I-NP'
p1130
g5
tp1131
a(S'guided'
p1132
S'guide'
p1133
S'VBN'
p1134
S'B-VP'
p1135
g5
tp1136
a(S'by'
p1137
S'by'
p1138
S'IN'
p1139
S'B-PP'
p1140
g5
tp1141
a(S'N-terminal'
p1142
S'N-terminal'
p1143
S'JJ'
p1144
S'B-NP'
p1145
S'B-protein'
p1146
tp1147
a(S'BNP'
p1148
S'BNP'
p1149
S'NN'
p1150
S'I-NP'
p1151
S'I-protein'
p1152
tp1153
a(S'and'
p1154
S'and'
p1155
S'CC'
p1156
g5
g5
tp1157
a(S'symptom-guided'
p1158
S'symptom-guided'
p1159
S'JJ'
p1160
S'B-NP'
p1161
g5
tp1162
a(S'therapy'
p1163
S'therapy'
p1164
S'NN'
p1165
S'I-NP'
p1166
g5
tp1167
a(S'resulted'
p1168
S'result'
p1169
S'VBD'
p1170
S'B-VP'
p1171
g5
tp1172
a(S'in'
p1173
S'in'
p1174
S'IN'
p1175
S'B-PP'
p1176
g5
tp1177
a(S'similar'
p1178
S'similar'
p1179
S'JJ'
p1180
S'B-NP'
p1181
g5
tp1182
a(S'rates'
p1183
S'rate'
p1184
S'NNS'
p1185
S'I-NP'
p1186
g5
tp1187
a(S'of'
p1188
S'of'
p1189
S'IN'
p1190
S'B-PP'
p1191
g5
tp1192
a(S'survival'
p1193
S'survival'
p1194
S'NN'
p1195
S'B-NP'
p1196
g5
tp1197
a(S'free'
p1198
S'free'
p1199
S'JJ'
p1200
S'B-ADJP'
p1201
g5
tp1202
a(S'of'
p1203
S'of'
p1204
S'IN'
p1205
S'B-PP'
p1206
g5
tp1207
a(S'all-cause'
p1208
S'all-cause'
p1209
S'JJ'
p1210
S'B-NP'
p1211
g5
tp1212
a(S'hospitalizations'
p1213
S'hospitalization'
p1214
S'NNS'
p1215
S'I-NP'
p1216
g5
tp1217
a(g108
g108
g108
g5
g5
tp1218
a(S'41'
p1219
S'41'
p1220
S'CD'
p1221
S'B-NP'
p1222
g5
tp1223
a(g507
g507
S'NN'
p1224
S'I-NP'
p1225
g5
tp1226
a(S'vs'
p1227
S'vs'
p1228
S'IN'
p1229
S'B-PP'
p1230
g5
tp1231
a(S'40'
p1232
S'40'
p1233
S'CD'
p1234
S'B-NP'
p1235
g5
tp1236
a(g507
g507
S'NN'
p1237
S'I-NP'
p1238
g5
tp1239
a(g311
g311
g311
g5
g5
tp1240
a(S'respectively'
p1241
S'respectively'
p1242
S'RB'
p1243
S'B-ADVP'
p1244
g5
tp1245
a(S';'
p1246
g1246
g32
g5
g5
tp1247
a(S'hazard'
p1248
S'hazard'
p1249
S'NN'
p1250
S'B-NP'
p1251
g5
tp1252
a(S'ratio'
p1253
S'ratio'
p1254
S'NN'
p1255
S'I-NP'
p1256
g5
tp1257
a(S'['
p1258
g1258
g108
g5
g5
tp1259
a(S'HR'
p1260
S'HR'
p1261
S'NN'
p1262
S'B-NP'
p1263
g5
tp1264
a(S']'
p1265
g1265
g115
g5
g5
tp1266
a(g311
g311
g311
g5
g5
tp1267
a(S'0.91'
p1268
S'0.91'
p1269
S'CD'
p1270
S'B-NP'
p1271
g5
tp1272
a(g1258
g1258
g108
g5
g5
tp1273
a(S'95'
p1274
S'95'
p1275
S'CD'
p1276
S'B-NP'
p1277
g5
tp1278
a(g507
g507
S'NN'
p1279
S'I-NP'
p1280
g5
tp1281
a(S'CI'
p1282
S'CI'
p1283
S'NN'
p1284
S'I-NP'
p1285
g5
tp1286
a(g311
g311
g311
g5
g5
tp1287
a(S'0.72-1.14'
p1288
S'0.72-1.14'
p1289
S'CD'
p1290
S'B-NP'
p1291
g5
tp1292
a(g1265
g1265
g115
g5
g5
tp1293
a(g1246
g1246
g32
g5
g5
tp1294
a(S'P'
p1295
g1295
S'NN'
p1296
S'B-NP'
p1297
g5
tp1298
a(g498
g498
S'SYM'
p1299
S'B-VP'
p1300
g5
tp1301
a(S'.39'
p1302
S'.39'
p1303
S'CD'
p1304
S'B-NP'
p1305
g5
tp1306
a(g115
g115
g115
g5
g5
tp1307
a(g127
g127
g127
g5
g5
tp1308
a(S'Patients'
p1309
S'Patient'
p1310
S'NNPS'
p1311
S'B-NP'
p1312
g5
tp1313
a(S"'"
p1314
g1314
S'POS'
p1315
S'B-NP'
p1316
g5
tp1317
a(S'quality-of-life'
p1318
S'quality-of-life'
p1319
S'JJ'
p1320
S'I-NP'
p1321
g5
tp1322
a(S'metrics'
p1323
S'metric'
p1324
S'NNS'
p1325
S'I-NP'
p1326
g5
tp1327
a(S'improved'
p1328
S'improve'
p1329
S'VBN'
p1330
S'B-VP'
p1331
g5
tp1332
a(S'over'
p1333
S'over'
p1334
S'IN'
p1335
S'B-PP'
p1336
g5
tp1337
a(S'18'
p1338
S'18'
p1339
S'CD'
p1340
S'B-NP'
p1341
g5
tp1342
a(S'months'
p1343
S'month'
p1344
S'NNS'
p1345
S'I-NP'
p1346
g5
tp1347
a(S'of'
p1348
S'of'
p1349
S'IN'
p1350
S'B-PP'
p1351
g5
tp1352
a(S'follow-up'
p1353
S'follow-up'
p1354
S'NN'
p1355
S'B-NP'
p1356
g5
tp1357
a(S'but'
p1358
S'but'
p1359
S'CC'
p1360
g5
g5
tp1361
a(S'these'
p1362
S'these'
p1363
S'DT'
p1364
S'B-NP'
p1365
g5
tp1366
a(S'improvements'
p1367
S'improvement'
p1368
S'NNS'
p1369
S'I-NP'
p1370
g5
tp1371
a(S'were'
p1372
S'be'
p1373
S'VBD'
p1374
S'B-VP'
p1375
g5
tp1376
a(S'similar'
p1377
S'similar'
p1378
S'JJ'
p1379
S'B-ADJP'
p1380
g5
tp1381
a(S'in'
p1382
S'in'
p1383
S'IN'
p1384
S'B-PP'
p1385
g5
tp1386
a(S'both'
p1387
S'both'
p1388
S'CC'
p1389
S'B-NP'
p1390
g5
tp1391
a(S'the'
p1392
S'the'
p1393
S'DT'
p1394
S'I-NP'
p1395
g5
tp1396
a(S'N-terminal'
p1397
S'N-terminal'
p1398
S'JJ'
p1399
S'I-NP'
p1400
g5
tp1401
a(S'BNP-guided'
p1402
S'BNP-guided'
p1403
S'JJ'
p1404
S'I-NP'
p1405
g5
tp1406
a(S'and'
p1407
S'and'
p1408
S'CC'
p1409
S'I-NP'
p1410
g5
tp1411
a(S'symptom-guided'
p1412
S'symptom-guided'
p1413
S'JJ'
p1414
S'I-NP'
p1415
g5
tp1416
a(S'strategies.'
p1417
S'strategies.'
p1418
S'NN'
p1419
S'I-NP'
p1420
g5
tp1421
a(S'Compared'
p1422
S'Compare'
p1423
S'VBN'
p1424
S'B-VP'
p1425
g5
tp1426
a(S'with'
p1427
S'with'
p1428
S'IN'
p1429
S'B-PP'
p1430
g5
tp1431
a(S'the'
p1432
S'the'
p1433
S'DT'
p1434
S'B-NP'
p1435
g5
tp1436
a(S'symptom-guided'
p1437
S'symptom-guided'
p1438
S'JJ'
p1439
S'I-NP'
p1440
g5
tp1441
a(S'group'
p1442
S'group'
p1443
S'NN'
p1444
S'I-NP'
p1445
g5
tp1446
a(g311
g311
g311
g5
g5
tp1447
a(S'survival'
p1448
S'survival'
p1449
S'NN'
p1450
S'B-NP'
p1451
g5
tp1452
a(S'free'
p1453
S'free'
p1454
S'JJ'
p1455
S'B-ADJP'
p1456
g5
tp1457
a(S'of'
p1458
S'of'
p1459
S'IN'
p1460
S'B-PP'
p1461
g5
tp1462
a(S'hospitalization'
p1463
S'hospitalization'
p1464
S'NN'
p1465
S'B-NP'
p1466
g5
tp1467
a(S'for'
p1468
S'for'
p1469
S'IN'
p1470
S'B-PP'
p1471
g5
tp1472
a(S'heart'
p1473
S'heart'
p1474
S'NN'
p1475
S'B-NP'
p1476
g5
tp1477
a(S'failure'
p1478
S'failure'
p1479
S'NN'
p1480
S'I-NP'
p1481
g5
tp1482
a(g311
g311
g311
g5
g5
tp1483
a(S'a'
p1484
g1484
S'DT'
p1485
S'B-NP'
p1486
g5
tp1487
a(S'secondary'
p1488
S'secondary'
p1489
S'JJ'
p1490
S'I-NP'
p1491
g5
tp1492
a(S'end'
p1493
S'end'
p1494
S'NN'
p1495
S'I-NP'
p1496
g5
tp1497
a(S'point'
p1498
S'point'
p1499
S'NN'
p1500
S'I-NP'
p1501
g5
tp1502
a(g311
g311
g311
g5
g5
tp1503
a(S'was'
p1504
S'be'
p1505
S'VBD'
p1506
S'B-VP'
p1507
g5
tp1508
a(S'higher'
p1509
S'high'
p1510
S'JJR'
p1511
S'B-ADJP'
p1512
g5
tp1513
a(S'among'
p1514
S'among'
p1515
S'IN'
p1516
S'B-PP'
p1517
g5
tp1518
a(S'those'
p1519
S'those'
p1520
S'DT'
p1521
S'B-NP'
p1522
g5
tp1523
a(S'in'
p1524
S'in'
p1525
S'IN'
p1526
S'B-PP'
p1527
g5
tp1528
a(S'the'
p1529
S'the'
p1530
S'DT'
p1531
S'B-NP'
p1532
g5
tp1533
a(S'N-terminal'
p1534
S'N-terminal'
p1535
S'JJ'
p1536
S'I-NP'
p1537
g5
tp1538
a(S'BNP-guided'
p1539
S'BNP-guided'
p1540
S'JJ'
p1541
S'I-NP'
p1542
g5
tp1543
a(S'group'
p1544
S'group'
p1545
S'NN'
p1546
S'I-NP'
p1547
g5
tp1548
a(g108
g108
g108
g5
g5
tp1549
a(S'72'
p1550
S'72'
p1551
S'CD'
p1552
S'B-NP'
p1553
g5
tp1554
a(g507
g507
S'NN'
p1555
S'I-NP'
p1556
g5
tp1557
a(S'vs'
p1558
S'vs'
p1559
S'IN'
p1560
S'B-PP'
p1561
g5
tp1562
a(S'62'
p1563
S'62'
p1564
S'CD'
p1565
S'B-NP'
p1566
g5
tp1567
a(g507
g507
S'NN'
p1568
S'I-NP'
p1569
g5
tp1570
a(g311
g311
g311
g5
g5
tp1571
a(S'respectively'
p1572
S'respectively'
p1573
S'RB'
p1574
S'B-ADVP'
p1575
g5
tp1576
a(g1246
g1246
g32
g5
g5
tp1577
a(S'HR'
p1578
S'HR'
p1579
S'NN'
p1580
S'B-NP'
p1581
g5
tp1582
a(g311
g311
g311
g5
g5
tp1583
a(S'0.68'
p1584
S'0.68'
p1585
S'CD'
p1586
S'B-NP'
p1587
g5
tp1588
a(g1258
g1258
g108
g5
g5
tp1589
a(S'95'
p1590
S'95'
p1591
S'CD'
p1592
S'B-NP'
p1593
g5
tp1594
a(g507
g507
S'NN'
p1595
S'I-NP'
p1596
g5
tp1597
a(S'CI'
p1598
S'CI'
p1599
S'NN'
p1600
S'I-NP'
p1601
g5
tp1602
a(g311
g311
g311
g5
g5
tp1603
a(S'0.50-0.92'
p1604
S'0.50-0.92'
p1605
S'CD'
p1606
S'B-NP'
p1607
g5
tp1608
a(g1265
g1265
g115
g5
g5
tp1609
a(g1246
g1246
g32
g5
g5
tp1610
a(g1295
g1295
S'NN'
p1611
S'B-NP'
p1612
g5
tp1613
a(g498
g498
S'SYM'
p1614
S'B-VP'
p1615
g5
tp1616
a(S'.01'
p1617
S'.01'
p1618
S'CD'
p1619
S'B-NP'
p1620
g5
tp1621
a(g115
g115
g115
g5
g5
tp1622
a(g127
g127
g127
g5
g5
tp1623
a(S'Heart'
p1624
S'Heart'
p1625
S'NN'
p1626
S'B-NP'
p1627
g5
tp1628
a(S'failure'
p1629
S'failure'
p1630
S'NN'
p1631
S'I-NP'
p1632
g5
tp1633
a(S'therapy'
p1634
S'therapy'
p1635
S'NN'
p1636
S'I-NP'
p1637
g5
tp1638
a(S'guided'
p1639
S'guide'
p1640
S'VBN'
p1641
S'B-VP'
p1642
g5
tp1643
a(S'by'
p1644
S'by'
p1645
S'IN'
p1646
S'B-PP'
p1647
g5
tp1648
a(S'N-terminal'
p1649
S'N-terminal'
p1650
S'JJ'
p1651
S'B-NP'
p1652
S'B-protein'
p1653
tp1654
a(S'BNP'
p1655
S'BNP'
p1656
S'NN'
p1657
S'I-NP'
p1658
S'I-protein'
p1659
tp1660
a(S'improved'
p1661
S'improve'
p1662
S'VBD'
p1663
S'B-VP'
p1664
g5
tp1665
a(S'outcomes'
p1666
S'outcome'
p1667
S'NNS'
p1668
S'B-NP'
p1669
g5
tp1670
a(S'in'
p1671
S'in'
p1672
S'IN'
p1673
S'B-PP'
p1674
g5
tp1675
a(S'patients'
p1676
S'patient'
p1677
S'NNS'
p1678
S'B-NP'
p1679
g5
tp1680
a(S'aged'
p1681
S'age'
p1682
S'VBN'
p1683
S'B-ADJP'
p1684
g5
tp1685
a(S'60'
p1686
S'60'
p1687
S'CD'
p1688
S'B-NP'
p1689
g5
tp1690
a(S'to'
p1691
S'to'
p1692
S'TO'
p1693
S'I-NP'
p1694
g5
tp1695
a(S'75'
p1696
S'75'
p1697
S'CD'
p1698
S'I-NP'
p1699
g5
tp1700
a(S'years'
p1701
S'year'
p1702
S'NNS'
p1703
S'I-NP'
p1704
g5
tp1705
a(S'but'
p1706
S'but'
p1707
S'CC'
p1708
S'B-PP'
p1709
g5
tp1710
a(S'not'
p1711
S'not'
p1712
S'RB'
p1713
S'B-PP'
p1714
g5
tp1715
a(S'in'
p1716
S'in'
p1717
S'IN'
p1718
S'I-PP'
p1719
g5
tp1720
a(S'those'
p1721
S'those'
p1722
S'DT'
p1723
S'B-NP'
p1724
g5
tp1725
a(S'aged'
p1726
S'aged'
p1727
S'JJ'
p1728
S'I-NP'
p1729
g5
tp1730
a(S'75'
p1731
S'75'
p1732
S'CD'
p1733
S'I-NP'
p1734
g5
tp1735
a(S'years'
p1736
S'year'
p1737
S'NNS'
p1738
S'I-NP'
p1739
g5
tp1740
a(S'or'
p1741
S'or'
p1742
S'CC'
p1743
g5
g5
tp1744
a(S'older'
p1745
S'old'
p1746
S'JJR'
p1747
g5
g5
tp1748
a(g108
g108
g108
g5
g5
tp1749
a(g1295
g1295
S'NN'
p1750
S'B-NP'
p1751
g5
tp1752
a(g490
g490
S'JJR'
p1753
S'B-NP'
p1754
g5
tp1755
a(S'.02'
p1756
S'.02'
p1757
S'CD'
p1758
S'I-NP'
p1759
g5
tp1760
a(S'for'
p1761
S'for'
p1762
S'IN'
p1763
S'B-PP'
p1764
g5
tp1765
a(S'interaction'
p1766
S'interaction'
p1767
S'NN'
p1768
S'B-NP'
p1769
g5
tp1770
a(g115
g115
g115
g5
g5
tp1771
a(S'CONCLUSION'
p1772
S'CONCLUSION'
p1773
S'NN'
p1774
S'B-NP'
p1775
g5
tp1776
a(S'Heart'
p1777
S'Heart'
p1778
S'NN'
p1779
S'I-NP'
p1780
g5
tp1781
a(S'failure'
p1782
S'failure'
p1783
S'NN'
p1784
S'I-NP'
p1785
g5
tp1786
a(S'therapy'
p1787
S'therapy'
p1788
S'NN'
p1789
S'I-NP'
p1790
g5
tp1791
a(S'guided'
p1792
S'guide'
p1793
S'VBN'
p1794
S'B-VP'
p1795
g5
tp1796
a(S'by'
p1797
S'by'
p1798
S'IN'
p1799
S'B-PP'
p1800
g5
tp1801
a(S'N-terminal'
p1802
S'N-terminal'
p1803
S'JJ'
p1804
S'B-NP'
p1805
S'B-protein'
p1806
tp1807
a(S'BNP'
p1808
S'BNP'
p1809
S'NN'
p1810
S'I-NP'
p1811
S'I-protein'
p1812
tp1813
a(S'did'
p1814
S'do'
p1815
S'VBD'
p1816
S'B-VP'
p1817
g5
tp1818
a(S'not'
p1819
S'not'
p1820
S'RB'
p1821
S'I-VP'
p1822
g5
tp1823
a(S'improve'
p1824
S'improve'
p1825
S'VB'
p1826
S'I-VP'
p1827
g5
tp1828
a(S'overall'
p1829
S'overall'
p1830
S'JJ'
p1831
S'B-NP'
p1832
g5
tp1833
a(S'clinical'
p1834
S'clinical'
p1835
S'JJ'
p1836
S'I-NP'
p1837
g5
tp1838
a(S'outcomes'
p1839
S'outcome'
p1840
S'NNS'
p1841
S'I-NP'
p1842
g5
tp1843
a(S'or'
p1844
S'or'
p1845
S'CC'
p1846
g5
g5
tp1847
a(S'quality'
p1848
S'quality'
p1849
S'NN'
p1850
S'B-NP'
p1851
g5
tp1852
a(S'of'
p1853
S'of'
p1854
S'IN'
p1855
S'B-PP'
p1856
g5
tp1857
a(S'life'
p1858
S'life'
p1859
S'NN'
p1860
S'B-NP'
p1861
g5
tp1862
a(S'compared'
p1863
S'compare'
p1864
S'VBN'
p1865
S'B-PP'
p1866
g5
tp1867
a(S'with'
p1868
S'with'
p1869
S'IN'
p1870
S'B-PP'
p1871
g5
tp1872
a(S'symptom-guided'
p1873
S'symptom-guided'
p1874
S'JJ'
p1875
S'B-NP'
p1876
g5
tp1877
a(S'treatment'
p1878
S'treatment'
p1879
S'NN'
p1880
S'I-NP'
p1881
g5
tp1882
a(g127
g127
g127
g5
g5
tp1883
a(S'TRIAL'
p1884
S'TRIAL'
p1885
S'NN'
p1886
S'B-NP'
p1887
g5
tp1888
a(S'REGISTRATION'
p1889
S'REGISTRATION'
p1890
S'NN'
p1891
S'I-NP'
p1892
g5
tp1893
a(S'isrctn.org'
p1894
S'isrctn.org'
p1895
S'NN'
p1896
S'I-NP'
p1897
g5
tp1898
a(S'Identifier'
p1899
S'Identifier'
p1900
S'NN'
p1901
S'I-NP'
p1902
g5
tp1903
a(g32
g32
g32
g5
g5
tp1904
a(S'ISRCTN43596477'
p1905
S'ISRCTN43596477'
p1906
S'NN'
p1907
S'B-NP'
p1908
g5
tp1909
a(g127
g127
g127
g5
g5
tp1910
a.