(lp0
(S'Brief'
p1
S'Brief'
p2
S'NNP'
p3
S'B-NP'
p4
S'O'
p5
tp6
a(S'Report'
p7
S'Report'
p8
S'NNP'
p9
S'I-NP'
p10
g5
tp11
a(S':'
p12
g12
g12
g5
g5
tp13
a(S'Randomized'
p14
S'Randomize'
p15
S'VBN'
p16
S'B-NP'
p17
g5
tp18
a(S'test'
p19
S'test'
p20
S'NN'
p21
S'I-NP'
p22
g5
tp23
a(S'of'
p24
S'of'
p25
S'IN'
p26
S'B-PP'
p27
g5
tp28
a(S'the'
p29
S'the'
p30
S'DT'
p31
S'B-NP'
p32
g5
tp33
a(S'efficacy'
p34
S'efficacy'
p35
S'NN'
p36
S'I-NP'
p37
g5
tp38
a(S'of'
p39
S'of'
p40
S'IN'
p41
S'B-PP'
p42
g5
tp43
a(S'picture'
p44
S'picture'
p45
S'NN'
p46
S'B-NP'
p47
g5
tp48
a(S'exchange'
p49
S'exchange'
p50
S'NN'
p51
S'I-NP'
p52
g5
tp53
a(S'communication'
p54
S'communication'
p55
S'NN'
p56
S'I-NP'
p57
g5
tp58
a(S'system'
p59
S'system'
p60
S'NN'
p61
S'I-NP'
p62
g5
tp63
a(S'on'
p64
S'on'
p65
S'IN'
p66
S'B-PP'
p67
g5
tp68
a(S'highly'
p69
S'highly'
p70
S'RB'
p71
S'B-NP'
p72
g5
tp73
a(S'generalized'
p74
S'generalize'
p75
S'VBN'
p76
S'I-NP'
p77
g5
tp78
a(S'picture'
p79
S'picture'
p80
S'NN'
p81
S'I-NP'
p82
g5
tp83
a(S'exchanges'
p84
S'exchange'
p85
S'NNS'
p86
S'I-NP'
p87
g5
tp88
a(S'in'
p89
S'in'
p90
S'IN'
p91
S'B-PP'
p92
g5
tp93
a(S'children'
p94
S'child'
p95
S'NNS'
p96
S'B-NP'
p97
g5
tp98
a(S'with'
p99
S'with'
p100
S'IN'
p101
S'B-PP'
p102
g5
tp103
a(S'ASD'
p104
S'ASD'
p105
S'NN'
p106
S'B-NP'
p107
g5
tp108
a(S'.'
p109
g109
g109
g5
g5
tp110
a(S'A'
p111
g111
S'DT'
p112
S'B-NP'
p113
g5
tp114
a(S'randomized'
p115
S'randomize'
p116
S'VBN'
p117
S'I-NP'
p118
g5
tp119
a(S'control'
p120
S'control'
p121
S'NN'
p122
S'I-NP'
p123
g5
tp124
a(S'trial'
p125
S'trial'
p126
S'NN'
p127
S'I-NP'
p128
g5
tp129
a(S'comparing'
p130
S'compare'
p131
S'VBG'
p132
S'B-VP'
p133
g5
tp134
a(S'two'
p135
S'two'
p136
S'CD'
p137
S'B-NP'
p138
g5
tp139
a(S'social-communication'
p140
S'social-communication'
p141
S'NN'
p142
S'I-NP'
p143
g5
tp144
a(S'interventions'
p145
S'intervention'
p146
S'NNS'
p147
S'I-NP'
p148
g5
tp149
a(S'in'
p150
S'in'
p151
S'IN'
p152
S'B-PP'
p153
g5
tp154
a(S'young'
p155
S'young'
p156
S'JJ'
p157
S'B-NP'
p158
g5
tp159
a(S'children'
p160
S'child'
p161
S'NNS'
p162
S'I-NP'
p163
g5
tp164
a(S'with'
p165
S'with'
p166
S'IN'
p167
S'B-PP'
p168
g5
tp169
a(S'autism'
p170
S'autism'
p171
S'NN'
p172
S'B-NP'
p173
g5
tp174
a(S'examined'
p175
S'examine'
p176
S'VBD'
p177
S'B-VP'
p178
g5
tp179
a(S'far-transfer'
p180
S'far-transfer'
p181
S'NN'
p182
S'B-NP'
p183
g5
tp184
a(S'of'
p185
S'of'
p186
S'IN'
p187
S'B-PP'
p188
g5
tp189
a(S'the'
p190
S'the'
p191
S'DT'
p192
S'B-NP'
p193
g5
tp194
a(S'use'
p195
S'use'
p196
S'NN'
p197
S'I-NP'
p198
g5
tp199
a(S'of'
p200
S'of'
p201
S'IN'
p202
S'B-PP'
p203
g5
tp204
a(S'picture'
p205
S'picture'
p206
S'NN'
p207
S'B-NP'
p208
g5
tp209
a(S'exchange'
p210
S'exchange'
p211
S'NN'
p212
S'I-NP'
p213
g5
tp214
a(S'to'
p215
S'to'
p216
S'TO'
p217
S'B-VP'
p218
g5
tp219
a(S'communicate.'
p220
S'communicate.'
p221
S'VB'
p222
S'I-VP'
p223
g5
tp224
a(S'Thirty-six'
p225
S'Thirty-six'
p226
S'CD'
p227
S'B-NP'
p228
g5
tp229
a(S'children'
p230
S'child'
p231
S'NNS'
p232
S'I-NP'
p233
g5
tp234
a(S'were'
p235
S'be'
p236
S'VBD'
p237
S'B-VP'
p238
g5
tp239
a(S'randomly'
p240
S'randomly'
p241
S'RB'
p242
S'I-VP'
p243
g5
tp244
a(S'assigned'
p245
S'assign'
p246
S'VBN'
p247
S'I-VP'
p248
g5
tp249
a(S'to'
p250
S'to'
p251
S'TO'
p252
S'B-PP'
p253
g5
tp254
a(S'one'
p255
S'one'
p256
S'CD'
p257
S'B-NP'
p258
g5
tp259
a(S'of'
p260
S'of'
p261
S'IN'
p262
S'B-PP'
p263
g5
tp264
a(S'two'
p265
S'two'
p266
S'CD'
p267
S'B-NP'
p268
g5
tp269
a(S'treatment'
p270
S'treatment'
p271
S'NN'
p272
S'I-NP'
p273
g5
tp274
a(S'conditions'
p275
S'condition'
p276
S'NNS'
p277
S'I-NP'
p278
g5
tp279
a(S','
p280
g280
g280
g5
g5
tp281
a(S'one'
p282
S'one'
p283
S'CD'
p284
S'B-NP'
p285
g5
tp286
a(S'of'
p287
S'of'
p288
S'IN'
p289
S'B-PP'
p290
g5
tp291
a(S'which'
p292
S'which'
p293
S'WDT'
p294
S'B-NP'
p295
g5
tp296
a(S'was'
p297
S'be'
p298
S'VBD'
p299
S'B-VP'
p300
g5
tp301
a(S'the'
p302
S'the'
p303
S'DT'
p304
S'B-NP'
p305
g5
tp306
a(S'Picture'
p307
S'Picture'
p308
S'NNP'
p309
S'I-NP'
p310
g5
tp311
a(S'Exchange'
p312
S'Exchange'
p313
S'NNP'
p314
S'I-NP'
p315
g5
tp316
a(S'Communication'
p317
S'Communication'
p318
S'NNP'
p319
S'I-NP'
p320
g5
tp321
a(S'System'
p322
S'System'
p323
S'NNP'
p324
S'I-NP'
p325
g5
tp326
a(S'('
p327
g327
g327
g5
g5
tp328
a(S'PECS'
p329
S'PECS'
p330
S'NN'
p331
S'B-NP'
p332
S'B-cell_line'
p333
tp334
a(S')'
p335
g335
g335
g5
g5
tp336
a(g109
g109
g109
g5
g5
tp337
a(S'All'
p338
S'All'
p339
S'DT'
p340
S'B-NP'
p341
g5
tp342
a(S'children'
p343
S'child'
p344
S'NNS'
p345
S'I-NP'
p346
g5
tp347
a(S'had'
p348
S'have'
p349
S'VBD'
p350
S'B-VP'
p351
g5
tp352
a(S'access'
p353
S'access'
p354
S'NN'
p355
S'B-NP'
p356
g5
tp357
a(S'to'
p358
S'to'
p359
S'TO'
p360
S'B-PP'
p361
g5
tp362
a(S'picture'
p363
S'picture'
p364
S'NN'
p365
S'B-NP'
p366
g5
tp367
a(S'symbols'
p368
S'symbol'
p369
S'NNS'
p370
S'I-NP'
p371
g5
tp372
a(S'during'
p373
S'during'
p374
S'IN'
p375
S'B-PP'
p376
g5
tp377
a(S'assessments.'
p378
S'assessments.'
p379
S'NN'
p380
S'B-NP'
p381
g5
tp382
a(S'Post-treatment'
p383
S'Post-treatment'
p384
S'NN'
p385
S'I-NP'
p386
g5
tp387
a(S'measurement'
p388
S'measurement'
p389
S'NN'
p390
S'I-NP'
p391
g5
tp392
a(S'of'
p393
S'of'
p394
S'IN'
p395
S'B-PP'
p396
g5
tp397
a(S'the'
p398
S'the'
p399
S'DT'
p400
S'B-NP'
p401
g5
tp402
a(S'number'
p403
S'number'
p404
S'NN'
p405
S'I-NP'
p406
g5
tp407
a(S'of'
p408
S'of'
p409
S'IN'
p410
S'B-PP'
p411
g5
tp412
a(S'picture'
p413
S'picture'
p414
S'NN'
p415
S'B-NP'
p416
g5
tp417
a(S'exchanges'
p418
S'exchange'
p419
S'NNS'
p420
S'I-NP'
p421
g5
tp422
a(S'in'
p423
S'in'
p424
S'IN'
p425
S'B-PP'
p426
g5
tp427
a(S'a'
p428
g428
S'DT'
p429
S'B-NP'
p430
g5
tp431
a(S'far-transfer'
p432
S'far-transfer'
p433
S'NN'
p434
S'I-NP'
p435
g5
tp436
a(g280
g280
g280
g5
g5
tp437
a(S'assessment'
p438
S'assessment'
p439
S'NN'
p440
S'B-NP'
p441
g5
tp442
a(S'context'
p443
S'context'
p444
S'NN'
p445
S'I-NP'
p446
g5
tp447
a(S'favored'
p448
S'favor'
p449
S'VBD'
p450
S'B-VP'
p451
g5
tp452
a(S'the'
p453
S'the'
p454
S'DT'
p455
S'B-NP'
p456
g5
tp457
a(S'PECS'
p458
S'PECS'
p459
S'NN'
p460
S'I-NP'
p461
S'B-protein'
p462
tp463
a(S'intervention.'
p464
S'intervention.'
p465
S'IN'
p466
S'B-PP'
p467
g5
tp468
a(S'These'
p469
S'These'
p470
S'DT'
p471
S'B-NP'
p472
g5
tp473
a(S'findings'
p474
S'finding'
p475
S'NNS'
p476
S'I-NP'
p477
g5
tp478
a(S'were'
p479
S'be'
p480
S'VBD'
p481
S'B-VP'
p482
g5
tp483
a(S'interpreted'
p484
S'interpret'
p485
S'VBN'
p486
S'I-VP'
p487
g5
tp488
a(S'as'
p489
S'as'
p490
S'IN'
p491
S'B-PP'
p492
g5
tp493
a(S'support'
p494
S'support'
p495
S'NN'
p496
S'B-NP'
p497
g5
tp498
a(S'for'
p499
S'for'
p500
S'IN'
p501
S'B-PP'
p502
g5
tp503
a(S'the'
p504
S'the'
p505
S'DT'
p506
S'B-NP'
p507
g5
tp508
a(S'hypothesis'
p509
S'hypothesis'
p510
S'NN'
p511
S'I-NP'
p512
g5
tp513
a(S'that'
p514
S'that'
p515
S'IN'
p516
S'B-SBAR'
p517
g5
tp518
a(S'the'
p519
S'the'
p520
S'DT'
p521
S'B-NP'
p522
g5
tp523
a(S'PECS'
p524
S'PECS'
p525
S'NN'
p526
S'I-NP'
p527
g5
tp528
a(S'curriculum'
p529
S'curriculum'
p530
S'NN'
p531
S'I-NP'
p532
g5
tp533
a(S'can'
p534
S'can'
p535
S'MD'
p536
S'B-VP'
p537
g5
tp538
a(S'successfully'
p539
S'successfully'
p540
S'RB'
p541
S'I-VP'
p542
g5
tp543
a(S'teach'
p544
S'teach'
p545
S'VB'
p546
S'I-VP'
p547
g5
tp548
a(g428
g428
S'DT'
p549
S'B-NP'
p550
g5
tp551
a(S'generalized'
p552
S'generalize'
p553
S'VBN'
p554
S'I-NP'
p555
g5
tp556
a(S'means'
p557
S'mean'
p558
S'NNS'
p559
S'I-NP'
p560
g5
tp561
a(S'of'
p562
S'of'
p563
S'IN'
p564
S'B-PP'
p565
g5
tp566
a(S'showing'
p567
S'show'
p568
S'VBG'
p569
S'B-VP'
p570
g5
tp571
a(S'coordinated'
p572
S'coordinate'
p573
S'VBN'
p574
S'B-NP'
p575
g5
tp576
a(S'attention'
p577
S'attention'
p578
S'NN'
p579
S'I-NP'
p580
g5
tp581
a(S'to'
p582
S'to'
p583
S'TO'
p584
S'B-PP'
p585
g5
tp586
a(S'object'
p587
S'object'
p588
S'NN'
p589
S'B-NP'
p590
g5
tp591
a(S'and'
p592
S'and'
p593
S'CC'
p594
S'I-NP'
p595
g5
tp596
a(S'person'
p597
S'person'
p598
S'NN'
p599
S'I-NP'
p600
g5
tp601
a(S'without'
p602
S'without'
p603
S'IN'
p604
S'B-PP'
p605
g5
tp606
a(S'requiring'
p607
S'require'
p608
S'VBG'
p609
S'B-VP'
p610
g5
tp611
a(S'eye'
p612
S'eye'
p613
S'NN'
p614
S'B-NP'
p615
g5
tp616
a(S'contact'
p617
S'contact'
p618
S'NN'
p619
S'I-NP'
p620
g5
tp621
a(S'to'
p622
S'to'
p623
S'TO'
p624
S'B-PP'
p625
g5
tp626
a(S'children'
p627
S'child'
p628
S'NNS'
p629
S'B-NP'
p630
g5
tp631
a(S'with'
p632
S'with'
p633
S'IN'
p634
S'B-PP'
p635
g5
tp636
a(S'ASD'
p637
S'ASD'
p638
S'NN'
p639
S'B-NP'
p640
g5
tp641
a(g109
g109
g109
g5
g5
tp642
a.