(lp0
(S'Clinical'
p1
S'Clinical'
p2
S'JJ'
p3
S'B-NP'
p4
S'O'
p5
tp6
a(S'impact'
p7
S'impact'
p8
S'NN'
p9
S'I-NP'
p10
g5
tp11
a(S'of'
p12
S'of'
p13
S'IN'
p14
S'B-PP'
p15
g5
tp16
a(S'leak'
p17
S'leak'
p18
S'NN'
p19
S'B-NP'
p20
g5
tp21
a(S'compensation'
p22
S'compensation'
p23
S'NN'
p24
S'I-NP'
p25
g5
tp26
a(S'during'
p27
S'during'
p28
S'IN'
p29
S'B-PP'
p30
g5
tp31
a(S'non-invasive'
p32
S'non-invasive'
p33
S'JJ'
p34
S'B-NP'
p35
g5
tp36
a(S'ventilation'
p37
S'ventilation'
p38
S'NN'
p39
S'I-NP'
p40
g5
tp41
a(S'.'
p42
g42
g42
g5
g5
tp43
a(S'BACKGROUND'
p44
S'BACKGROUND'
p45
S'NN'
p46
S'B-NP'
p47
g5
tp48
a(S'This'
p49
S'This'
p50
S'DT'
p51
S'B-NP'
p52
g5
tp53
a(S'study'
p54
S'study'
p55
S'NN'
p56
S'I-NP'
p57
g5
tp58
a(S'aimed'
p59
S'aim'
p60
S'VBD'
p61
S'B-VP'
p62
g5
tp63
a(S'to'
p64
S'to'
p65
S'TO'
p66
S'I-VP'
p67
g5
tp68
a(S'assess'
p69
S'assess'
p70
S'VB'
p71
S'I-VP'
p72
g5
tp73
a(S'the'
p74
S'the'
p75
S'DT'
p76
S'B-NP'
p77
g5
tp78
a(S'impact'
p79
S'impact'
p80
S'NN'
p81
S'I-NP'
p82
g5
tp83
a(S'of'
p84
S'of'
p85
S'IN'
p86
S'B-PP'
p87
g5
tp88
a(S'leak'
p89
S'leak'
p90
S'JJ'
p91
S'B-NP'
p92
g5
tp93
a(S'compensation'
p94
S'compensation'
p95
S'NN'
p96
S'I-NP'
p97
g5
tp98
a(S'capabilities'
p99
S'capability'
p100
S'NNS'
p101
S'I-NP'
p102
g5
tp103
a(S'during'
p104
S'during'
p105
S'IN'
p106
S'B-PP'
p107
g5
tp108
a(S'pressure-'
p109
S'pressure-'
p110
S'NN'
p111
S'B-NP'
p112
g5
tp113
a(S'and'
p114
S'and'
p115
S'CC'
p116
g5
g5
tp117
a(S'volume-limited'
p118
S'volume-limited'
p119
S'JJ'
p120
S'B-NP'
p121
g5
tp122
a(S'non-invasive'
p123
S'non-invasive'
p124
S'JJ'
p125
S'I-NP'
p126
g5
tp127
a(S'positive-pressure'
p128
S'positive-pressure'
p129
S'JJ'
p130
S'I-NP'
p131
g5
tp132
a(S'ventilation'
p133
S'ventilation'
p134
S'NN'
p135
S'I-NP'
p136
g5
tp137
a(S'('
p138
g138
g138
g5
g5
tp139
a(S'NPPV'
p140
S'NPPV'
p141
S'NN'
p142
S'B-NP'
p143
S'B-protein'
p144
tp145
a(S')'
p146
g146
g146
g5
g5
tp147
a(S'in'
p148
S'in'
p149
S'IN'
p150
S'B-PP'
p151
g5
tp152
a(S'COPD'
p153
S'COPD'
p154
S'NN'
p155
S'B-NP'
p156
g5
tp157
a(S'patients'
p158
S'patient'
p159
S'NNS'
p160
S'I-NP'
p161
g5
tp162
a(g42
g42
g42
g5
g5
tp163
a(S'METHODS'
p164
S'METHODS'
p165
S'NNS'
p166
S'B-NP'
p167
g5
tp168
a(S'Fourteen'
p169
S'Fourteen'
p170
S'CD'
p171
S'B-NP'
p172
g5
tp173
a(S'patients'
p174
S'patient'
p175
S'NNS'
p176
S'I-NP'
p177
g5
tp178
a(S'with'
p179
S'with'
p180
S'IN'
p181
S'B-PP'
p182
g5
tp183
a(S'stable'
p184
S'stable'
p185
S'JJ'
p186
S'B-NP'
p187
g5
tp188
a(S'hypercapnic'
p189
S'hypercapnic'
p190
S'JJ'
p191
S'I-NP'
p192
g5
tp193
a(S'COPD'
p194
S'COPD'
p195
S'NN'
p196
S'I-NP'
p197
g5
tp198
a(S'who'
p199
S'who'
p200
S'WP'
p201
S'B-NP'
p202
g5
tp203
a(S'were'
p204
S'be'
p205
S'VBD'
p206
S'B-VP'
p207
g5
tp208
a(S'receiving'
p209
S'receive'
p210
S'VBG'
p211
S'I-VP'
p212
g5
tp213
a(S'long-term'
p214
S'long-term'
p215
S'JJ'
p216
S'B-NP'
p217
g5
tp218
a(S'NPPV'
p219
S'NPPV'
p220
S'NN'
p221
S'I-NP'
p222
g5
tp223
a(S'were'
p224
S'be'
p225
S'VBD'
p226
S'B-VP'
p227
g5
tp228
a(S'included'
p229
S'include'
p230
S'VBN'
p231
S'I-VP'
p232
g5
tp233
a(S'in'
p234
S'in'
p235
S'IN'
p236
S'B-PP'
p237
g5
tp238
a(S'the'
p239
S'the'
p240
S'DT'
p241
S'B-NP'
p242
g5
tp243
a(S'study.'
p244
S'study.'
p245
S'NN'
p246
S'I-NP'
p247
g5
tp248
a(S'For'
p249
S'For'
p250
S'IN'
p251
S'B-PP'
p252
g5
tp253
a(S'both'
p254
S'both'
p255
S'DT'
p256
S'B-NP'
p257
g5
tp258
a(S'modes'
p259
S'mode'
p260
S'NNS'
p261
S'I-NP'
p262
g5
tp263
a(S'of'
p264
S'of'
p265
S'IN'
p266
S'B-PP'
p267
g5
tp268
a(S'NPPV'
p269
S'NPPV'
p270
S'NN'
p271
S'B-NP'
p272
S'B-protein'
p273
tp274
a(S','
p275
g275
g275
g5
g5
tp276
a(S'a'
p277
g277
S'DT'
p278
S'B-NP'
p279
g5
tp280
a(S'full'
p281
S'full'
p282
S'JJ'
p283
S'I-NP'
p284
g5
tp285
a(S'face'
p286
S'face'
p287
S'NN'
p288
S'I-NP'
p289
g5
tp290
a(S'mask'
p291
S'mask'
p292
S'NN'
p293
S'I-NP'
p294
g5
tp295
a(S'and'
p296
S'and'
p297
S'CC'
p298
g5
g5
tp299
a(S'an'
p300
S'an'
p301
S'DT'
p302
S'B-NP'
p303
g5
tp304
a(S'artificial'
p305
S'artificial'
p306
S'JJ'
p307
S'I-NP'
p308
g5
tp309
a(S'leak'
p310
S'leak'
p311
S'NN'
p312
S'I-NP'
p313
g5
tp314
a(S'in'
p315
S'in'
p316
S'IN'
p317
S'B-PP'
p318
g5
tp319
a(S'the'
p320
S'the'
p321
S'DT'
p322
S'B-NP'
p323
g5
tp324
a(S'ventilatory'
p325
S'ventilatory'
p326
S'JJ'
p327
S'I-NP'
p328
g5
tp329
a(S'circuit'
p330
S'circuit'
p331
S'NN'
p332
S'I-NP'
p333
g5
tp334
a(S'were'
p335
S'be'
p336
S'VBD'
p337
S'B-VP'
p338
g5
tp339
a(S'used'
p340
S'use'
p341
S'VBN'
p342
S'I-VP'
p343
g5
tp344
a(S'at'
p345
S'at'
p346
S'IN'
p347
S'B-PP'
p348
g5
tp349
a(S'three'
p350
S'three'
p351
S'CD'
p352
S'B-NP'
p353
g5
tp354
a(S'different'
p355
S'different'
p356
S'JJ'
p357
S'I-NP'
p358
g5
tp359
a(S'settings'
p360
S'setting'
p361
S'NNS'
p362
S'I-NP'
p363
g5
tp364
a(g275
g275
g275
g5
g5
tp365
a(S'and'
p366
S'and'
p367
S'CC'
p368
g5
g5
tp369
a(S'applied'
p370
S'apply'
p371
S'VBN'
p372
S'B-VP'
p373
g5
tp374
a(S'during'
p375
S'during'
p376
S'IN'
p377
S'B-PP'
p378
g5
tp379
a(S'daytime'
p380
S'daytime'
p381
S'NN'
p382
S'B-NP'
p383
g5
tp384
a(S'NPPV'
p385
S'NPPV'
p386
S'NN'
p387
S'I-NP'
p388
g5
tp389
a(g275
g275
g275
g5
g5
tp390
a(S'either'
p391
S'either'
p392
S'CC'
p393
g5
g5
tp394
a(S'without'
p395
S'without'
p396
S'IN'
p397
S'B-PP'
p398
g5
tp399
a(S'leakage'
p400
S'leakage'
p401
S'NN'
p402
S'B-NP'
p403
g5
tp404
a(g138
g138
g138
g5
g5
tp405
a(S'setting'
p406
S'set'
p407
S'VBG'
p408
S'B-VP'
p409
g5
tp410
a(S'I'
p411
g411
S'NN'
p412
S'B-NP'
p413
g5
tp414
a(g146
g146
g146
g5
g5
tp415
a(g275
g275
g275
g5
g5
tp416
a(S'with'
p417
S'with'
p418
S'IN'
p419
S'B-PP'
p420
g5
tp421
a(S'leakage'
p422
S'leakage'
p423
S'NN'
p424
S'B-NP'
p425
g5
tp426
a(S'during'
p427
S'during'
p428
S'IN'
p429
S'B-PP'
p430
g5
tp431
a(S'inspiration'
p432
S'inspiration'
p433
S'NN'
p434
S'B-NP'
p435
g5
tp436
a(S'only'
p437
S'only'
p438
S'RB'
p439
S'B-ADVP'
p440
g5
tp441
a(g138
g138
g138
g5
g5
tp442
a(S'setting'
p443
S'set'
p444
S'VBG'
p445
S'B-VP'
p446
g5
tp447
a(S'II'
p448
S'II'
p449
S'CD'
p450
S'B-NP'
p451
g5
tp452
a(g146
g146
g146
g5
g5
tp453
a(g275
g275
g275
g5
g5
tp454
a(S'and'
p455
S'and'
p456
S'CC'
p457
g5
g5
tp458
a(S'with'
p459
S'with'
p460
S'IN'
p461
S'B-PP'
p462
g5
tp463
a(S'leakage'
p464
S'leakage'
p465
S'NN'
p466
S'B-NP'
p467
g5
tp468
a(S'during'
p469
S'during'
p470
S'IN'
p471
S'B-PP'
p472
g5
tp473
a(S'inspiration'
p474
S'inspiration'
p475
S'NN'
p476
S'B-NP'
p477
g5
tp478
a(S'and'
p479
S'and'
p480
S'CC'
p481
S'I-NP'
p482
g5
tp483
a(S'expiration'
p484
S'expiration'
p485
S'NN'
p486
S'I-NP'
p487
g5
tp488
a(g138
g138
g138
g5
g5
tp489
a(S'setting'
p490
S'setting'
p491
S'NN'
p492
S'B-NP'
p493
g5
tp494
a(S'III'
p495
S'III'
p496
S'CD'
p497
S'I-NP'
p498
g5
tp499
a(g146
g146
g146
g5
g5
tp500
a(g42
g42
g42
g5
g5
tp501
a(S'Ventilation'
p502
S'Ventilation'
p503
S'NN'
p504
S'B-NP'
p505
g5
tp506
a(S'pattern'
p507
S'pattern'
p508
S'NN'
p509
S'I-NP'
p510
g5
tp511
a(S'was'
p512
S'be'
p513
S'VBD'
p514
S'B-VP'
p515
g5
tp516
a(S'pneumotachy-graphically'
p517
S'pneumotachy-graphically'
p518
S'RB'
p519
S'I-VP'
p520
g5
tp521
a(S'recorded'
p522
S'record'
p523
S'VBN'
p524
S'I-VP'
p525
g5
tp526
a(g42
g42
g42
g5
g5
tp527
a(S'RESULTS'
p528
S'RESULTS'
p529
S'NNS'
p530
S'B-NP'
p531
g5
tp532
a(S'NPPV'
p533
S'NPPV'
p534
S'NN'
p535
S'I-NP'
p536
S'B-protein'
p537
tp538
a(S'was'
p539
S'be'
p540
S'VBD'
p541
S'B-VP'
p542
g5
tp543
a(S'feasible'
p544
S'feasible'
p545
S'JJ'
p546
S'B-ADJP'
p547
g5
tp548
a(S'with'
p549
S'with'
p550
S'IN'
p551
S'B-PP'
p552
g5
tp553
a(S'negligible'
p554
S'negligible'
p555
S'JJ'
p556
S'B-NP'
p557
g5
tp558
a(S'leak'
p559
S'leak'
p560
S'NN'
p561
S'I-NP'
p562
g5
tp563
a(S'volumes'
p564
S'volume'
p565
S'NNS'
p566
S'I-NP'
p567
g5
tp568
a(g275
g275
g275
g5
g5
tp569
a(S'indicating'
p570
S'indicate'
p571
S'VBG'
p572
S'B-VP'
p573
g5
tp574
a(S'optimal'
p575
S'optimal'
p576
S'JJ'
p577
S'B-NP'
p578
g5
tp579
a(S'mask'
p580
S'mask'
p581
S'NN'
p582
S'I-NP'
p583
g5
tp584
a(S'fitting'
p585
S'fit'
p586
S'VBG'
p587
S'B-VP'
p588
g5
tp589
a(S'during'
p590
S'during'
p591
S'IN'
p592
S'B-PP'
p593
g5
tp594
a(S'the'
p595
S'the'
p596
S'DT'
p597
S'B-NP'
p598
g5
tp599
a(S'daytime'
p600
S'daytime'
p601
S'NN'
p602
S'I-NP'
p603
g5
tp604
a(g138
g138
g138
g5
g5
tp605
a(S'setting'
p606
S'set'
p607
S'VBG'
p608
S'B-VP'
p609
g5
tp610
a(g411
g411
S'NN'
p611
S'B-NP'
p612
g5
tp613
a(g146
g146
g146
g5
g5
tp614
a(g42
g42
g42
g5
g5
tp615
a(S'In'
p616
S'In'
p617
S'IN'
p618
S'B-PP'
p619
g5
tp620
a(S'the'
p621
S'the'
p622
S'DT'
p623
S'B-NP'
p624
g5
tp625
a(S'presence'
p626
S'presence'
p627
S'NN'
p628
S'I-NP'
p629
g5
tp630
a(S'of'
p631
S'of'
p632
S'IN'
p633
S'B-PP'
p634
g5
tp635
a(S'leakage'
p636
S'leakage'
p637
S'NN'
p638
S'B-NP'
p639
g5
tp640
a(g138
g138
g138
g5
g5
tp641
a(S'settings'
p642
S'setting'
p643
S'NNS'
p644
S'B-NP'
p645
g5
tp646
a(S'II'
p647
S'II'
p648
S'CD'
p649
S'B-NP'
p650
g5
tp651
a(S'and'
p652
S'and'
p653
S'CC'
p654
S'I-NP'
p655
g5
tp656
a(S'III'
p657
S'III'
p658
S'CD'
p659
S'I-NP'
p660
g5
tp661
a(g146
g146
g146
g5
g5
tp662
a(g275
g275
g275
g5
g5
tp663
a(S'the'
p664
S'the'
p665
S'DT'
p666
S'B-NP'
p667
g5
tp668
a(S'attempt'
p669
S'attempt'
p670
S'NN'
p671
S'I-NP'
p672
g5
tp673
a(S'to'
p674
S'to'
p675
S'TO'
p676
S'B-VP'
p677
g5
tp678
a(S'compensate'
p679
S'compensate'
p680
S'VB'
p681
S'I-VP'
p682
g5
tp683
a(S'for'
p684
S'for'
p685
S'IN'
p686
S'B-PP'
p687
g5
tp688
a(S'leak'
p689
S'leak'
p690
S'NN'
p691
S'B-NP'
p692
g5
tp693
a(S'was'
p694
S'be'
p695
S'VBD'
p696
S'B-VP'
p697
g5
tp698
a(S'only'
p699
S'only'
p700
S'RB'
p701
S'B-ADJP'
p702
g5
tp703
a(S'evident'
p704
S'evident'
p705
S'JJ'
p706
S'I-ADJP'
p707
g5
tp708
a(S'during'
p709
S'during'
p710
S'IN'
p711
S'B-PP'
p712
g5
tp713
a(S'pressure-limited'
p714
S'pressure-limited'
p715
S'JJ'
p716
S'B-NP'
p717
g5
tp718
a(S'NPPV'
p719
S'NPPV'
p720
S'NN'
p721
S'I-NP'
p722
g5
tp723
a(g275
g275
g275
g5
g5
tp724
a(S'since'
p725
S'since'
p726
S'IN'
p727
S'B-SBAR'
p728
g5
tp729
a(S'inspiratory'
p730
S'inspiratory'
p731
S'JJ'
p732
S'B-NP'
p733
g5
tp734
a(S'volumes'
p735
S'volume'
p736
S'NNS'
p737
S'I-NP'
p738
g5
tp739
a(S'delivered'
p740
S'deliver'
p741
S'VBN'
p742
S'B-VP'
p743
g5
tp744
a(S'by'
p745
S'by'
p746
S'IN'
p747
S'B-PP'
p748
g5
tp749
a(S'the'
p750
S'the'
p751
S'DT'
p752
S'B-NP'
p753
g5
tp754
a(S'ventilator'
p755
S'ventilator'
p756
S'NN'
p757
S'I-NP'
p758
g5
tp759
a(S'increased'
p760
S'increase'
p761
S'VBD'
p762
S'B-VP'
p763
g5
tp764
a(S'from'
p765
S'from'
p766
S'IN'
p767
S'B-PP'
p768
g5
tp769
a(S'726+/-129'
p770
S'726+/-129'
p771
S'CD'
p772
S'B-NP'
p773
g5
tp774
a(g138
g138
g138
g5
g5
tp775
a(S'setting'
p776
S'set'
p777
S'VBG'
p778
S'B-VP'
p779
g5
tp780
a(g411
g411
S'PRP'
p781
S'B-NP'
p782
g5
tp783
a(g146
g146
g146
g5
g5
tp784
a(S'to'
p785
S'to'
p786
S'TO'
p787
S'B-PP'
p788
g5
tp789
a(S'1104+/-164'
p790
S'1104+/-164'
p791
S'CD'
p792
S'B-NP'
p793
g5
tp794
a(g138
g138
g138
g5
g5
tp795
a(S'setting'
p796
S'setting'
p797
S'NN'
p798
S'B-NP'
p799
S'B-protein'
p800
tp801
a(S'II'
p802
S'II'
p803
S'CD'
p804
S'I-NP'
p805
S'I-protein'
p806
tp807
a(g146
g146
g146
g5
g5
tp808
a(g275
g275
g275
g5
g5
tp809
a(S'and'
p810
S'and'
p811
S'CC'
p812
S'B-PP'
p813
g5
tp814
a(S'to'
p815
S'to'
p816
S'TO'
p817
S'B-PP'
p818
g5
tp819
a(S'1257+/-166'
p820
S'1257+/-166'
p821
S'CD'
p822
S'B-NP'
p823
g5
tp824
a(g138
g138
g138
g5
g5
tp825
a(S'setting'
p826
S'setting'
p827
S'NN'
p828
g5
g5
tp829
a(S'III'
p830
S'III'
p831
S'CD'
p832
g5
g5
tp833
a(g146
g146
g146
g5
g5
tp834
a(S'ml'
p835
S'ml'
p836
S'NN'
p837
S'B-NP'
p838
g5
tp839
a(S'during'
p840
S'during'
p841
S'IN'
p842
S'B-PP'
p843
g5
tp844
a(S'pressure-limited'
p845
S'pressure-limited'
p846
S'JJ'
p847
S'B-NP'
p848
g5
tp849
a(S'NPPV'
p850
S'NPPV'
p851
S'NN'
p852
S'I-NP'
p853
g5
tp854
a(g275
g275
g275
g5
g5
tp855
a(S'respectively'
p856
S'respectively'
p857
S'RB'
p858
S'B-ADVP'
p859
g5
tp860
a(g138
g138
g138
g5
g5
tp861
a(S'all'
p862
S'all'
p863
S'DT'
p864
S'B-NP'
p865
g5
tp866
a(S'p'
p867
g867
S'NN'
p868
S'I-NP'
p869
g5
tp870
a(S'<'
p871
g871
S'JJR'
p872
S'B-NP'
p873
g5
tp874
a(S'0.001'
p875
S'0.001'
p876
S'CD'
p877
S'I-NP'
p878
g5
tp879
a(g146
g146
g146
g5
g5
tp880
a(S';'
p881
g881
S':'
p882
g5
g5
tp883
a(S'however'
p884
S'however'
p885
S'RB'
p886
S'B-ADVP'
p887
g5
tp888
a(g275
g275
g275
g5
g5
tp889
a(S'they'
p890
S'they'
p891
S'PRP'
p892
S'B-NP'
p893
g5
tp894
a(S'remained'
p895
S'remain'
p896
S'VBD'
p897
S'B-VP'
p898
g5
tp899
a(S'stable'
p900
S'stable'
p901
S'JJ'
p902
S'B-ADJP'
p903
g5
tp904
a(S'during'
p905
S'during'
p906
S'IN'
p907
S'B-PP'
p908
g5
tp909
a(S'volume-limited'
p910
S'volume-limited'
p911
S'JJ'
p912
S'B-NP'
p913
g5
tp914
a(S'NPPV.'
p915
S'NPPV.'
p916
S'NNP'
p917
S'I-NP'
p918
g5
tp919
a(S'Leak'
p920
S'Leak'
p921
S'NNP'
p922
S'I-NP'
p923
g5
tp924
a(S'compensation'
p925
S'compensation'
p926
S'NN'
p927
S'I-NP'
p928
g5
tp929
a(S'resulted'
p930
S'result'
p931
S'VBD'
p932
S'B-VP'
p933
g5
tp934
a(S'in'
p935
S'in'
p936
S'IN'
p937
S'B-PP'
p938
g5
tp939
a(g277
g277
S'DT'
p940
S'B-NP'
p941
g5
tp942
a(S'decrease'
p943
S'decrease'
p944
S'NN'
p945
S'I-NP'
p946
g5
tp947
a(S'in'
p948
S'in'
p949
S'IN'
p950
S'B-PP'
p951
g5
tp952
a(S'leakage-induced'
p953
S'leakage-induced'
p954
S'JJ'
p955
S'B-NP'
p956
g5
tp957
a(S'dyspnea.'
p958
S'dyspnea.'
p959
S'NN'
p960
S'I-NP'
p961
g5
tp962
a(S'However'
p963
S'However'
p964
S'RB'
p965
S'B-ADVP'
p966
g5
tp967
a(g275
g275
g275
g5
g5
tp968
a(S'83'
p969
S'83'
p970
S'CD'
p971
S'B-NP'
p972
g5
tp973
a(S'%'
p974
g974
S'NN'
p975
S'I-NP'
p976
g5
tp977
a(S'/87'
p978
S'/87'
p979
S'CD'
p980
S'B-NP'
p981
g5
tp982
a(g974
g974
S'NN'
p983
S'I-NP'
p984
g5
tp985
a(g138
g138
g138
g5
g5
tp986
a(S'setting'
p987
S'set'
p988
S'VBG'
p989
S'B-VP'
p990
g5
tp991
a(S'II/III'
p992
S'II/III'
p993
S'NN'
p994
S'B-NP'
p995
S'B-protein'
p996
tp997
a(g146
g146
g146
g5
g5
tp998
a(S'of'
p999
S'of'
p1000
S'IN'
p1001
S'B-PP'
p1002
g5
tp1003
a(S'the'
p1004
S'the'
p1005
S'DT'
p1006
S'B-NP'
p1007
g5
tp1008
a(S'additionally-delivered'
p1009
S'additionally-delivered'
p1010
S'JJ'
p1011
S'I-NP'
p1012
g5
tp1013
a(S'inspiratory'
p1014
S'inspiratory'
p1015
S'JJ'
p1016
S'I-NP'
p1017
g5
tp1018
a(S'volume'
p1019
S'volume'
p1020
S'NN'
p1021
S'I-NP'
p1022
g5
tp1023
a(S'during'
p1024
S'during'
p1025
S'IN'
p1026
S'B-PP'
p1027
g5
tp1028
a(S'pressure-limited'
p1029
S'pressure-limited'
p1030
S'JJ'
p1031
S'B-NP'
p1032
g5
tp1033
a(S'NPPV'
p1034
S'NPPV'
p1035
S'NN'
p1036
S'I-NP'
p1037
g5
tp1038
a(S'was'
p1039
S'be'
p1040
S'VBD'
p1041
S'B-VP'
p1042
g5
tp1043
a(S'also'
p1044
S'also'
p1045
S'RB'
p1046
S'I-VP'
p1047
g5
tp1048
a(S'lost'
p1049
S'lose'
p1050
S'VBN'
p1051
S'I-VP'
p1052
g5
tp1053
a(S'via'
p1054
S'via'
p1055
S'IN'
p1056
S'B-PP'
p1057
g5
tp1058
a(S'leakage.'
p1059
S'leakage.'
p1060
S'FW'
p1061
S'B-NP'
p1062
g5
tp1063
a(S'Expiratory'
p1064
S'Expiratory'
p1065
S'JJ'
p1066
S'I-NP'
p1067
g5
tp1068
a(S'volume'
p1069
S'volume'
p1070
S'NN'
p1071
S'I-NP'
p1072
g5
tp1073
a(S'was'
p1074
S'be'
p1075
S'VBD'
p1076
S'B-VP'
p1077
g5
tp1078
a(S'higher'
p1079
S'high'
p1080
S'JJR'
p1081
S'B-ADJP'
p1082
g5
tp1083
a(S'in'
p1084
S'in'
p1085
S'IN'
p1086
S'B-PP'
p1087
g5
tp1088
a(S'setting'
p1089
S'set'
p1090
S'VBG'
p1091
S'B-VP'
p1092
g5
tp1093
a(S'II'
p1094
S'II'
p1095
S'CD'
p1096
S'B-NP'
p1097
g5
tp1098
a(S'compared'
p1099
S'compare'
p1100
S'VBN'
p1101
S'B-VP'
p1102
g5
tp1103
a(S'to'
p1104
S'to'
p1105
S'TO'
p1106
S'B-PP'
p1107
g5
tp1108
a(S'setting'
p1109
S'setting'
p1110
S'NN'
p1111
S'B-NP'
p1112
g5
tp1113
a(S'III'
p1114
S'III'
p1115
S'CD'
p1116
S'I-NP'
p1117
g5
tp1118
a(g138
g138
g138
g5
g5
tp1119
a(S'both'
p1120
S'both'
p1121
S'CC'
p1122
g5
g5
tp1123
a(g867
g867
S'NN'
p1124
S'B-NP'
p1125
g5
tp1126
a(g871
g871
S'SYM'
p1127
g5
g5
tp1128
a(S'0.001'
p1129
S'0.001'
p1130
S'CD'
p1131
S'B-NP'
p1132
g5
tp1133
a(g146
g146
g146
g5
g5
tp1134
a(g275
g275
g275
g5
g5
tp1135
a(S'indicating'
p1136
S'indicate'
p1137
S'VBG'
p1138
S'B-VP'
p1139
g5
tp1140
a(S'the'
p1141
S'the'
p1142
S'DT'
p1143
S'B-NP'
p1144
g5
tp1145
a(S'presence'
p1146
S'presence'
p1147
S'NN'
p1148
S'I-NP'
p1149
g5
tp1150
a(S'of'
p1151
S'of'
p1152
S'IN'
p1153
S'B-PP'
p1154
g5
tp1155
a(S'significant'
p1156
S'significant'
p1157
S'JJ'
p1158
S'B-NP'
p1159
g5
tp1160
a(S'expiratory'
p1161
S'expiratory'
p1162
S'JJ'
p1163
S'I-NP'
p1164
g5
tp1165
a(S'leakage'
p1166
S'leakage'
p1167
S'NN'
p1168
S'I-NP'
p1169
g5
tp1170
a(g42
g42
g42
g5
g5
tp1171
a(S'CONCLUSIONS'
p1172
S'CONCLUSIONS'
p1173
S'NNS'
p1174
S'B-NP'
p1175
g5
tp1176
a(S'The'
p1177
S'The'
p1178
S'DT'
p1179
S'B-NP'
p1180
g5
tp1181
a(S'attempt'
p1182
S'attempt'
p1183
S'NN'
p1184
S'I-NP'
p1185
g5
tp1186
a(S'at'
p1187
S'at'
p1188
S'IN'
p1189
S'B-PP'
p1190
g5
tp1191
a(S'leak'
p1192
S'leak'
p1193
S'JJ'
p1194
S'B-NP'
p1195
g5
tp1196
a(S'compensation'
p1197
S'compensation'
p1198
S'NN'
p1199
S'I-NP'
p1200
g5
tp1201
a(S'largely'
p1202
S'largely'
p1203
S'RB'
p1204
S'B-VP'
p1205
g5
tp1206
a(S'feeds'
p1207
S'feed'
p1208
S'VBZ'
p1209
S'I-VP'
p1210
g5
tp1211
a(S'the'
p1212
S'the'
p1213
S'DT'
p1214
S'B-NP'
p1215
g5
tp1216
a(S'leakage'
p1217
S'leakage'
p1218
S'NN'
p1219
S'I-NP'
p1220
g5
tp1221
a(S'itself'
p1222
S'itself'
p1223
S'PRP'
p1224
S'B-NP'
p1225
g5
tp1226
a(S'and'
p1227
S'and'
p1228
S'CC'
p1229
g5
g5
tp1230
a(S'only'
p1231
S'only'
p1232
S'RB'
p1233
S'B-VP'
p1234
g5
tp1235
a(S'results'
p1236
S'result'
p1237
S'VBZ'
p1238
S'I-VP'
p1239
g5
tp1240
a(S'in'
p1241
S'in'
p1242
S'IN'
p1243
S'B-PP'
p1244
g5
tp1245
a(g277
g277
S'DT'
p1246
S'B-NP'
p1247
g5
tp1248
a(S'marginal'
p1249
S'marginal'
p1250
S'JJ'
p1251
S'I-NP'
p1252
g5
tp1253
a(S'increase'
p1254
S'increase'
p1255
S'NN'
p1256
S'I-NP'
p1257
g5
tp1258
a(S'of'
p1259
S'of'
p1260
S'IN'
p1261
S'B-PP'
p1262
g5
tp1263
a(S'tidal'
p1264
S'tidal'
p1265
S'JJ'
p1266
S'B-NP'
p1267
g5
tp1268
a(S'volume.'
p1269
S'volume.'
p1270
S'NN'
p1271
S'I-NP'
p1272
g5
tp1273
a(S'However'
p1274
S'However'
p1275
S'RB'
p1276
S'B-ADVP'
p1277
g5
tp1278
a(g275
g275
g275
g5
g5
tp1279
a(S'pressure-limited'
p1280
S'pressure-limited'
p1281
S'JJ'
p1282
S'B-ADJP'
p1283
g5
tp1284
a(S'--'
p1285
S'--'
p1286
g882
g5
g5
tp1287
a(S'but'
p1288
S'but'
p1289
S'CC'
p1290
g5
g5
tp1291
a(S'not'
p1292
S'not'
p1293
S'RB'
p1294
g5
g5
tp1295
a(S'volume-limited'
p1296
S'volume-limited'
p1297
S'JJ'
p1298
S'B-ADJP'
p1299
g5
tp1300
a(S'--'
p1301
S'--'
p1302
g882
g5
g5
tp1303
a(S'NPPV'
p1304
S'NPPV'
p1305
S'NN'
p1306
S'B-NP'
p1307
S'B-protein'
p1308
tp1309
a(S'results'
p1310
S'result'
p1311
S'VBZ'
p1312
S'B-VP'
p1313
g5
tp1314
a(S'in'
p1315
S'in'
p1316
S'IN'
p1317
S'B-PP'
p1318
g5
tp1319
a(g277
g277
S'DT'
p1320
S'B-NP'
p1321
g5
tp1322
a(S'clinically-important'
p1323
S'clinically-important'
p1324
S'JJ'
p1325
S'I-NP'
p1326
g5
tp1327
a(S'leak'
p1328
S'leak'
p1329
S'NN'
p1330
S'I-NP'
p1331
g5
tp1332
a(S'compensation'
p1333
S'compensation'
p1334
S'NN'
p1335
S'I-NP'
p1336
g5
tp1337
a(S'in'
p1338
S'in'
p1339
S'FW'
p1340
S'B-ADVP'
p1341
g5
tp1342
a(S'vivo'
p1343
S'vivo'
p1344
S'FW'
p1345
S'I-ADVP'
p1346
g5
tp1347
a(g42
g42
g42
g5
g5
tp1348
a(S'TRIAL'
p1349
S'TRIAL'
p1350
S'NN'
p1351
S'B-NP'
p1352
g5
tp1353
a(S'REGISTRATION'
p1354
S'REGISTRATION'
p1355
S'NN'
p1356
S'I-NP'
p1357
g5
tp1358
a(S'www.uniklinik-freiburg.de/zks/live/uklregister/Oeffentlich.html'
p1359
S'www.uniklinik-freiburg.de/zks/live/uklregister/Oeffentlich.html'
p1360
S'NN'
p1361
S'I-NP'
p1362
g5
tp1363
a(S'Identifier'
p1364
S'Identifier'
p1365
S'NN'
p1366
S'I-NP'
p1367
g5
tp1368
a(g882
g882
g882
g5
g5
tp1369
a(S'UKF001272'
p1370
S'UKF001272'
p1371
S'NN'
p1372
S'B-NP'
p1373
g5
tp1374
a(g42
g42
g42
g5
g5
tp1375
a.