(lp0
(S'Sustaining'
p1
S'Sustain'
p2
S'VBG'
p3
S'B-VP'
p4
S'O'
p5
tp6
a(S'control'
p7
S'control'
p8
S'NN'
p9
S'B-NP'
p10
g5
tp11
a(S'of'
p12
S'of'
p13
S'IN'
p14
S'B-PP'
p15
g5
tp16
a(S'schistosomiasis'
p17
S'schistosomiasis'
p18
S'NN'
p19
S'B-NP'
p20
S'B-protein'
p21
tp22
a(S'mansoni'
p23
S'mansoni'
p24
S'NN'
p25
S'I-NP'
p26
S'I-protein'
p27
tp28
a(S'in'
p29
S'in'
p30
S'IN'
p31
S'B-PP'
p32
g5
tp33
a(S'moderate'
p34
S'moderate'
p35
S'JJ'
p36
S'B-NP'
p37
g5
tp38
a(S'endemicity'
p39
S'endemicity'
p40
S'NN'
p41
S'I-NP'
p42
g5
tp43
a(S'areas'
p44
S'area'
p45
S'NNS'
p46
S'I-NP'
p47
g5
tp48
a(S'in'
p49
S'in'
p50
S'IN'
p51
S'B-PP'
p52
g5
tp53
a(S'western'
p54
S'western'
p55
S'JJ'
p56
S'B-NP'
p57
g5
tp58
a(S'C\xc3\xb4te'
p59
S'C\xc3\xb4te'
p60
S'NN'
p61
S'I-NP'
p62
g5
tp63
a(S"d'Ivoire"
p64
S"d'Ivoire"
p65
S'NN'
p66
S'I-NP'
p67
g5
tp68
a(S':'
p69
g69
g69
g5
g5
tp70
a(S'a'
p71
g71
S'DT'
p72
S'B-NP'
p73
g5
tp74
a(S'SCORE'
p75
S'SCORE'
p76
S'NN'
p77
S'I-NP'
p78
g5
tp79
a(S'study'
p80
S'study'
p81
S'NN'
p82
S'I-NP'
p83
g5
tp84
a(S'protocol'
p85
S'protocol'
p86
S'NN'
p87
S'I-NP'
p88
g5
tp89
a(S'.'
p90
g90
g90
g5
g5
tp91
a(S'BACKGROUND'
p92
S'BACKGROUND'
p93
S'NN'
p94
S'B-NP'
p95
g5
tp96
a(S'Schistosomiasis'
p97
S'Schistosomiasis'
p98
S'NN'
p99
S'I-NP'
p100
g5
tp101
a(S'is'
p102
S'be'
p103
S'VBZ'
p104
S'B-VP'
p105
g5
tp106
a(g71
g71
S'DT'
p107
S'B-NP'
p108
g5
tp109
a(S'parasitic'
p110
S'parasitic'
p111
S'JJ'
p112
S'I-NP'
p113
g5
tp114
a(S'disease'
p115
S'disease'
p116
S'NN'
p117
S'I-NP'
p118
g5
tp119
a(S'that'
p120
S'that'
p121
S'WDT'
p122
S'B-NP'
p123
g5
tp124
a(S'occurs'
p125
S'occur'
p126
S'VBZ'
p127
S'B-VP'
p128
g5
tp129
a(S'in'
p130
S'in'
p131
S'IN'
p132
S'B-PP'
p133
g5
tp134
a(S'the'
p135
S'the'
p136
S'DT'
p137
S'B-NP'
p138
g5
tp139
a(S'tropics'
p140
S'tropic'
p141
S'NNS'
p142
S'I-NP'
p143
g5
tp144
a(S'and'
p145
S'and'
p146
S'CC'
p147
g5
g5
tp148
a(S'subtropics.'
p149
S'subtropics.'
p150
S'VB'
p151
S'B-VP'
p152
g5
tp153
a(S'The'
p154
S'The'
p155
S'DT'
p156
S'B-NP'
p157
g5
tp158
a(S'mainstay'
p159
S'mainstay'
p160
S'NN'
p161
S'I-NP'
p162
g5
tp163
a(S'of'
p164
S'of'
p165
S'IN'
p166
S'B-PP'
p167
g5
tp168
a(S'control'
p169
S'control'
p170
S'NN'
p171
S'B-NP'
p172
g5
tp173
a(S'is'
p174
S'be'
p175
S'VBZ'
p176
S'B-VP'
p177
g5
tp178
a(S'preventive'
p179
S'preventive'
p180
S'JJ'
p181
S'B-NP'
p182
g5
tp183
a(S'chemotherapy'
p184
S'chemotherapy'
p185
S'NN'
p186
S'I-NP'
p187
g5
tp188
a(S'with'
p189
S'with'
p190
S'IN'
p191
S'B-PP'
p192
g5
tp193
a(S'praziquantel.'
p194
S'praziquantel.'
p195
S'NN'
p196
S'B-NP'
p197
g5
tp198
a(S'In'
p199
S'In'
p200
S'IN'
p201
S'B-PP'
p202
g5
tp203
a(S'Africa'
p204
S'Africa'
p205
S'NNP'
p206
S'B-NP'
p207
g5
tp208
a(S','
p209
g209
g209
g5
g5
tp210
a(S'an'
p211
S'an'
p212
S'DT'
p213
S'B-NP'
p214
g5
tp215
a(S'estimated'
p216
S'estimate'
p217
S'VBN'
p218
S'I-NP'
p219
g5
tp220
a(S'230'
p221
S'230'
p222
S'CD'
p223
S'I-NP'
p224
g5
tp225
a(S'million'
p226
S'million'
p227
S'CD'
p228
S'I-NP'
p229
g5
tp230
a(S'people'
p231
S'people'
p232
S'NNS'
p233
S'I-NP'
p234
g5
tp235
a(S'require'
p236
S'require'
p237
S'VBP'
p238
S'B-VP'
p239
g5
tp240
a(S'preventive'
p241
S'preventive'
p242
S'JJ'
p243
S'B-NP'
p244
g5
tp245
a(S'chemotherapy.'
p246
S'chemotherapy.'
p247
S'NN'
p248
S'I-NP'
p249
g5
tp250
a(S'In'
p251
S'In'
p252
S'IN'
p253
S'B-PP'
p254
g5
tp255
a(S'western'
p256
S'western'
p257
S'JJ'
p258
S'B-NP'
p259
g5
tp260
a(S'C\xc3\xb4te'
p261
S'C\xc3\xb4te'
p262
S'NNP'
p263
S'I-NP'
p264
g5
tp265
a(S"d'Ivoire"
p266
S"d'Ivoire"
p267
S'NN'
p268
S'I-NP'
p269
g5
tp270
a(g209
g209
g209
g5
g5
tp271
a(S'infections'
p272
S'infection'
p273
S'NNS'
p274
S'B-NP'
p275
g5
tp276
a(S'with'
p277
S'with'
p278
S'IN'
p279
S'B-PP'
p280
g5
tp281
a(S'Schistosoma'
p282
S'Schistosoma'
p283
S'NN'
p284
S'B-NP'
p285
g5
tp286
a(S'mansoni'
p287
S'mansoni'
p288
S'NNS'
p289
S'I-NP'
p290
g5
tp291
a(S'are'
p292
S'be'
p293
S'VBP'
p294
S'B-VP'
p295
g5
tp296
a(S'widespread.'
p297
S'widespread.'
p298
S'JJ'
p299
S'B-ADJP'
p300
g5
tp301
a(S'To'
p302
S'To'
p303
S'TO'
p304
S'B-VP'
p305
g5
tp306
a(S'provide'
p307
S'provide'
p308
S'VB'
p309
S'I-VP'
p310
g5
tp311
a(S'an'
p312
S'an'
p313
S'DT'
p314
S'B-NP'
p315
g5
tp316
a(S'evidence-base'
p317
S'evidence-base'
p318
S'NN'
p319
S'I-NP'
p320
g5
tp321
a(S'for'
p322
S'for'
p323
S'IN'
p324
S'B-PP'
p325
g5
tp326
a(S'programme'
p327
S'programme'
p328
S'NN'
p329
S'B-NP'
p330
g5
tp331
a(S'decisions'
p332
S'decision'
p333
S'NNS'
p334
S'I-NP'
p335
g5
tp336
a(S'about'
p337
S'about'
p338
S'IN'
p339
S'B-PP'
p340
g5
tp341
a(S'preventive'
p342
S'preventive'
p343
S'JJ'
p344
S'B-NP'
p345
g5
tp346
a(S'chemotherapy'
p347
S'chemotherapy'
p348
S'NN'
p349
S'I-NP'
p350
g5
tp351
a(S'to'
p352
S'to'
p353
S'TO'
p354
S'B-VP'
p355
g5
tp356
a(S'sustain'
p357
S'sustain'
p358
S'VB'
p359
S'I-VP'
p360
g5
tp361
a(S'control'
p362
S'control'
p363
S'NN'
p364
S'B-NP'
p365
g5
tp366
a(S'of'
p367
S'of'
p368
S'IN'
p369
S'B-PP'
p370
g5
tp371
a(S'schistosomiasis'
p372
S'schistosomiasis'
p373
S'NN'
p374
S'B-NP'
p375
g5
tp376
a(g209
g209
g209
g5
g5
tp377
a(g71
g71
S'DT'
p378
S'B-NP'
p379
g5
tp380
a(S'5-year'
p381
S'5-year'
p382
S'JJ'
p383
S'I-NP'
p384
g5
tp385
a(S'multi-country'
p386
S'multi-country'
p387
S'JJ'
p388
S'I-NP'
p389
g5
tp390
a(S'study'
p391
S'study'
p392
S'NN'
p393
S'I-NP'
p394
g5
tp395
a(S'with'
p396
S'with'
p397
S'IN'
p398
S'B-PP'
p399
g5
tp400
a(S'different'
p401
S'different'
p402
S'JJ'
p403
S'B-NP'
p404
g5
tp405
a(S'treatment'
p406
S'treatment'
p407
S'NN'
p408
S'I-NP'
p409
g5
tp410
a(S'arms'
p411
S'arm'
p412
S'NNS'
p413
S'I-NP'
p414
g5
tp415
a(S'has'
p416
S'have'
p417
S'VBZ'
p418
S'B-VP'
p419
g5
tp420
a(S'been'
p421
S'be'
p422
S'VBN'
p423
S'I-VP'
p424
g5
tp425
a(S'designed'
p426
S'design'
p427
S'VBN'
p428
S'I-VP'
p429
g5
tp430
a(S'by'
p431
S'by'
p432
S'IN'
p433
S'B-PP'
p434
g5
tp435
a(S'the'
p436
S'the'
p437
S'DT'
p438
S'B-NP'
p439
g5
tp440
a(S'Schistosomiasis'
p441
S'Schistosomiasis'
p442
S'NNP'
p443
S'I-NP'
p444
g5
tp445
a(S'Consortium'
p446
S'Consortium'
p447
S'NNP'
p448
S'I-NP'
p449
g5
tp450
a(S'for'
p451
S'for'
p452
S'IN'
p453
S'B-PP'
p454
g5
tp455
a(S'Operational'
p456
S'Operational'
p457
S'NNP'
p458
S'B-NP'
p459
g5
tp460
a(S'Research'
p461
S'Research'
p462
S'NNP'
p463
S'I-NP'
p464
g5
tp465
a(S'and'
p466
S'and'
p467
S'CC'
p468
g5
g5
tp469
a(S'Evaluation'
p470
S'Evaluation'
p471
S'NN'
p472
S'B-NP'
p473
g5
tp474
a(S'('
p475
g475
g475
g5
g5
tp476
a(S'SCORE'
p477
S'SCORE'
p478
S'NN'
p479
S'B-NP'
p480
S'B-DNA'
p481
tp482
a(S')'
p483
g483
g483
g5
g5
tp484
a(S'and'
p485
S'and'
p486
S'CC'
p487
g5
g5
tp488
a(S'is'
p489
S'be'
p490
S'VBZ'
p491
S'B-VP'
p492
g5
tp493
a(S'currently'
p494
S'currently'
p495
S'RB'
p496
S'I-VP'
p497
g5
tp498
a(S'being'
p499
S'be'
p500
S'VBG'
p501
S'I-VP'
p502
g5
tp503
a(S'implemented'
p504
S'implement'
p505
S'VBN'
p506
S'I-VP'
p507
g5
tp508
a(S'in'
p509
S'in'
p510
S'IN'
p511
S'B-PP'
p512
g5
tp513
a(S'various'
p514
S'various'
p515
S'JJ'
p516
S'B-NP'
p517
g5
tp518
a(S'African'
p519
S'African'
p520
S'JJ'
p521
S'I-NP'
p522
g5
tp523
a(S'settings'
p524
S'setting'
p525
S'NNS'
p526
S'I-NP'
p527
g5
tp528
a(g209
g209
g209
g5
g5
tp529
a(S'including'
p530
S'include'
p531
S'VBG'
p532
S'B-PP'
p533
g5
tp534
a(S'C\xc3\xb4te'
p535
S'C\xc3\xb4te'
p536
S'NN'
p537
S'B-NP'
p538
S'B-DNA'
p539
tp540
a(S"d'Ivoire"
p541
S"d'Ivoire"
p542
S'NN'
p543
S'I-NP'
p544
S'I-DNA'
p545
tp546
a(g90
g90
g90
g5
g5
tp547
a(S'METHODS/DESIGN'
p548
S'METHODS/DESIGN'
p549
S'NN'
p550
S'B-NP'
p551
g5
tp552
a(S'We'
p553
S'We'
p554
S'PRP'
p555
S'B-NP'
p556
g5
tp557
a(S'report'
p558
S'report'
p559
S'VBP'
p560
S'B-VP'
p561
g5
tp562
a(S'the'
p563
S'the'
p564
S'DT'
p565
S'B-NP'
p566
g5
tp567
a(S'study'
p568
S'study'
p569
S'NN'
p570
S'I-NP'
p571
g5
tp572
a(S'protocol'
p573
S'protocol'
p574
S'NN'
p575
S'I-NP'
p576
g5
tp577
a(g209
g209
g209
g5
g5
tp578
a(S'including'
p579
S'include'
p580
S'VBG'
p581
S'B-PP'
p582
g5
tp583
a(S'ethics'
p584
S'ethic'
p585
S'NNS'
p586
S'B-NP'
p587
g5
tp588
a(S'statement'
p589
S'statement'
p590
S'NN'
p591
S'I-NP'
p592
g5
tp593
a(S'and'
p594
S'and'
p595
S'CC'
p596
S'I-NP'
p597
g5
tp598
a(S'insight'
p599
S'insight'
p600
S'NN'
p601
S'I-NP'
p602
g5
tp603
a(S'from'
p604
S'from'
p605
S'IN'
p606
S'B-PP'
p607
g5
tp608
a(g71
g71
S'DT'
p609
S'B-NP'
p610
g5
tp611
a(S'large-scale'
p612
S'large-scale'
p613
S'JJ'
p614
S'I-NP'
p615
g5
tp616
a(S'eligibility'
p617
S'eligibility'
p618
S'NN'
p619
S'I-NP'
p620
g5
tp621
a(S'survey'
p622
S'survey'
p623
S'NN'
p624
S'I-NP'
p625
g5
tp626
a(S'carried'
p627
S'carry'
p628
S'VBD'
p629
S'B-VP'
p630
g5
tp631
a(S'out'
p632
S'out'
p633
S'RP'
p634
S'B-PRT'
p635
g5
tp636
a(S'in'
p637
S'in'
p638
S'IN'
p639
S'B-PP'
p640
g5
tp641
a(S'four'
p642
S'four'
p643
S'CD'
p644
S'B-NP'
p645
g5
tp646
a(S'provinces'
p647
S'province'
p648
S'NNS'
p649
S'I-NP'
p650
g5
tp651
a(S'in'
p652
S'in'
p653
S'IN'
p654
S'B-PP'
p655
g5
tp656
a(S'western'
p657
S'western'
p658
S'JJ'
p659
S'B-NP'
p660
g5
tp661
a(S'C\xc3\xb4te'
p662
S'C\xc3\xb4te'
p663
S'NNP'
p664
S'I-NP'
p665
g5
tp666
a(S"d'Ivoire."
p667
S"d'Ivoire."
p668
S'NNP'
p669
S'I-NP'
p670
g5
tp671
a(S'The'
p672
S'The'
p673
S'DT'
p674
S'B-NP'
p675
g5
tp676
a(S'study'
p677
S'study'
p678
S'NN'
p679
S'I-NP'
p680
g5
tp681
a(S'protocol'
p682
S'protocol'
p683
S'NN'
p684
S'I-NP'
p685
g5
tp686
a(S'has'
p687
S'have'
p688
S'VBZ'
p689
S'B-VP'
p690
g5
tp691
a(S'been'
p692
S'be'
p693
S'VBN'
p694
S'I-VP'
p695
g5
tp696
a(S'approved'
p697
S'approve'
p698
S'VBN'
p699
S'I-VP'
p700
g5
tp701
a(S'by'
p702
S'by'
p703
S'IN'
p704
S'B-PP'
p705
g5
tp706
a(S'the'
p707
S'the'
p708
S'DT'
p709
S'B-NP'
p710
g5
tp711
a(S'ethics'
p712
S'ethic'
p713
S'NNS'
p714
S'I-NP'
p715
g5
tp716
a(S'committees'
p717
S'committee'
p718
S'NNS'
p719
S'I-NP'
p720
g5
tp721
a(S'of'
p722
S'of'
p723
S'IN'
p724
S'B-PP'
p725
g5
tp726
a(S'Basel'
p727
S'Basel'
p728
S'NNP'
p729
S'B-NP'
p730
g5
tp731
a(S'and'
p732
S'and'
p733
S'CC'
p734
S'I-NP'
p735
g5
tp736
a(S'C\xc3\xb4te'
p737
S'C\xc3\xb4te'
p738
S'NNP'
p739
S'I-NP'
p740
g5
tp741
a(S"d'Ivoire."
p742
S"d'Ivoire."
p743
S'NNP'
p744
S'I-NP'
p745
g5
tp746
a(S'A'
p747
g747
S'NNP'
p748
S'I-NP'
p749
g5
tp750
a(S'total'
p751
S'total'
p752
S'NN'
p753
S'I-NP'
p754
g5
tp755
a(S'of'
p756
S'of'
p757
S'IN'
p758
S'B-PP'
p759
g5
tp760
a(S'12'
p761
S'12'
p762
S'CD'
p763
S'B-NP'
p764
g5
tp765
a(g209
g209
g209
g5
g5
tp766
a(S'110'
p767
S'110'
p768
S'CD'
p769
S'B-NP'
p770
g5
tp771
a(S'children'
p772
S'child'
p773
S'NNS'
p774
S'I-NP'
p775
g5
tp776
a(g209
g209
g209
g5
g5
tp777
a(S'aged'
p778
S'age'
p779
S'VBN'
p780
S'B-VP'
p781
g5
tp782
a(S'13-14'
p783
S'13-14'
p784
S'CD'
p785
S'B-NP'
p786
g5
tp787
a(S'years'
p788
S'year'
p789
S'NNS'
p790
S'I-NP'
p791
g5
tp792
a(g209
g209
g209
g5
g5
tp793
a(S'from'
p794
S'from'
p795
S'IN'
p796
S'B-PP'
p797
g5
tp798
a(S'264'
p799
S'264'
p800
S'CD'
p801
S'B-NP'
p802
g5
tp803
a(S'villages'
p804
S'village'
p805
S'NNS'
p806
S'I-NP'
p807
g5
tp808
a(S'were'
p809
S'be'
p810
S'VBD'
p811
S'B-VP'
p812
g5
tp813
a(S'screened'
p814
S'screen'
p815
S'VBN'
p816
S'I-VP'
p817
g5
tp818
a(S'for'
p819
S'for'
p820
S'IN'
p821
S'B-PP'
p822
g5
tp823
a(S'S.'
p824
S'S.'
p825
S'NNP'
p826
S'B-NP'
p827
g5
tp828
a(S'mansoni'
p829
S'mansoni'
p830
S'NN'
p831
S'I-NP'
p832
g5
tp833
a(S'using'
p834
S'use'
p835
S'VBG'
p836
S'B-VP'
p837
g5
tp838
a(S'duplicate'
p839
S'duplicate'
p840
S'NN'
p841
S'B-NP'
p842
g5
tp843
a(S'Kato-Katz'
p844
S'Kato-Katz'
p845
S'NNP'
p846
S'I-NP'
p847
g5
tp848
a(S'thick'
p849
S'thick'
p850
S'JJ'
p851
S'I-NP'
p852
g5
tp853
a(S'smears'
p854
S'smear'
p855
S'NNS'
p856
S'I-NP'
p857
g5
tp858
a(S'from'
p859
S'from'
p860
S'IN'
p861
S'B-PP'
p862
g5
tp863
a(S'single'
p864
S'single'
p865
S'JJ'
p866
S'B-NP'
p867
g5
tp868
a(S'stool'
p869
S'stool'
p870
S'NN'
p871
S'I-NP'
p872
g5
tp873
a(S'samples.'
p874
S'samples.'
p875
S'NN'
p876
S'I-NP'
p877
g5
tp878
a(S'Among'
p879
S'Among'
p880
S'IN'
p881
S'B-PP'
p882
g5
tp883
a(S'the'
p884
S'the'
p885
S'DT'
p886
S'B-NP'
p887
g5
tp888
a(S'schools'
p889
S'school'
p890
S'NNS'
p891
S'I-NP'
p892
g5
tp893
a(S'with'
p894
S'with'
p895
S'IN'
p896
S'B-PP'
p897
g5
tp898
a(g71
g71
S'DT'
p899
S'B-NP'
p900
g5
tp901
a(S'S.'
p902
S'S.'
p903
S'NNP'
p904
S'I-NP'
p905
g5
tp906
a(S'mansoni'
p907
S'mansoni'
p908
S'NN'
p909
S'I-NP'
p910
g5
tp911
a(S'prevalence'
p912
S'prevalence'
p913
S'NN'
p914
S'I-NP'
p915
g5
tp916
a(S'of'
p917
S'of'
p918
S'IN'
p919
S'B-PP'
p920
g5
tp921
a(S'10-24'
p922
S'10-24'
p923
S'CD'
p924
S'B-NP'
p925
g5
tp926
a(S'%'
p927
g927
S'NN'
p928
S'I-NP'
p929
g5
tp930
a(g209
g209
g209
g5
g5
tp931
a(S'75'
p932
S'75'
p933
S'CD'
p934
S'B-NP'
p935
g5
tp936
a(S'schools'
p937
S'school'
p938
S'NNS'
p939
S'I-NP'
p940
g5
tp941
a(S'were'
p942
S'be'
p943
S'VBD'
p944
S'B-VP'
p945
g5
tp946
a(S'selected'
p947
S'select'
p948
S'VBN'
p949
S'I-VP'
p950
g5
tp951
a(S'and'
p952
S'and'
p953
S'CC'
p954
g5
g5
tp955
a(S'randomly'
p956
S'randomly'
p957
S'RB'
p958
S'B-VP'
p959
g5
tp960
a(S'assigned'
p961
S'assign'
p962
S'VBN'
p963
S'I-VP'
p964
g5
tp965
a(S'to'
p966
S'to'
p967
S'TO'
p968
S'B-PP'
p969
g5
tp970
a(S'one'
p971
S'one'
p972
S'CD'
p973
S'B-NP'
p974
g5
tp975
a(S'of'
p976
S'of'
p977
S'IN'
p978
S'B-PP'
p979
g5
tp980
a(S'three'
p981
S'three'
p982
S'CD'
p983
S'B-NP'
p984
g5
tp985
a(S'treatment'
p986
S'treatment'
p987
S'NN'
p988
S'I-NP'
p989
g5
tp990
a(S'arms.'
p991
S'arms.'
p992
S'NN'
p993
S'I-NP'
p994
g5
tp995
a(S'In'
p996
S'In'
p997
S'IN'
p998
S'B-PP'
p999
g5
tp1000
a(S'each'
p1001
S'each'
p1002
S'DT'
p1003
S'B-NP'
p1004
g5
tp1005
a(S'school'
p1006
S'school'
p1007
S'NN'
p1008
S'I-NP'
p1009
g5
tp1010
a(g209
g209
g209
g5
g5
tp1011
a(S'three'
p1012
S'three'
p1013
S'CD'
p1014
S'B-NP'
p1015
g5
tp1016
a(S'stool'
p1017
S'stool'
p1018
S'NN'
p1019
S'I-NP'
p1020
g5
tp1021
a(S'samples'
p1022
S'sample'
p1023
S'NNS'
p1024
S'I-NP'
p1025
g5
tp1026
a(S'are'
p1027
S'be'
p1028
S'VBP'
p1029
S'B-VP'
p1030
g5
tp1031
a(S'being'
p1032
S'be'
p1033
S'VBG'
p1034
S'I-VP'
p1035
g5
tp1036
a(S'collected'
p1037
S'collect'
p1038
S'VBN'
p1039
S'I-VP'
p1040
g5
tp1041
a(S'from'
p1042
S'from'
p1043
S'IN'
p1044
S'B-PP'
p1045
g5
tp1046
a(S'100'
p1047
S'100'
p1048
S'CD'
p1049
S'B-NP'
p1050
g5
tp1051
a(S'children'
p1052
S'child'
p1053
S'NNS'
p1054
S'I-NP'
p1055
g5
tp1056
a(S'aged'
p1057
S'age'
p1058
S'VBN'
p1059
S'B-VP'
p1060
g5
tp1061
a(S'9-12'
p1062
S'9-12'
p1063
S'CD'
p1064
S'B-NP'
p1065
g5
tp1066
a(S'years'
p1067
S'year'
p1068
S'NNS'
p1069
S'I-NP'
p1070
g5
tp1071
a(S'annually'
p1072
S'annually'
p1073
S'RB'
p1074
S'B-ADVP'
p1075
g5
tp1076
a(S'and'
p1077
S'and'
p1078
S'CC'
p1079
g5
g5
tp1080
a(S'one'
p1081
S'one'
p1082
S'CD'
p1083
S'B-NP'
p1084
g5
tp1085
a(S'stool'
p1086
S'stool'
p1087
S'NN'
p1088
S'I-NP'
p1089
g5
tp1090
a(S'sample'
p1091
S'sample'
p1092
S'NN'
p1093
S'I-NP'
p1094
g5
tp1095
a(S'from'
p1096
S'from'
p1097
S'IN'
p1098
S'B-PP'
p1099
g5
tp1100
a(S'100'
p1101
S'100'
p1102
S'CD'
p1103
S'B-NP'
p1104
g5
tp1105
a(S'first-year'
p1106
S'first-year'
p1107
S'JJ'
p1108
S'I-NP'
p1109
g5
tp1110
a(S'students'
p1111
S'student'
p1112
S'NNS'
p1113
S'I-NP'
p1114
g5
tp1115
a(S'at'
p1116
S'at'
p1117
S'IN'
p1118
S'B-PP'
p1119
g5
tp1120
a(S'baseline'
p1121
S'baseline'
p1122
S'NN'
p1123
S'B-NP'
p1124
g5
tp1125
a(S'and'
p1126
S'and'
p1127
S'CC'
p1128
g5
g5
tp1129
a(S'in'
p1130
S'in'
p1131
S'IN'
p1132
S'B-PP'
p1133
g5
tp1134
a(S'the'
p1135
S'the'
p1136
S'DT'
p1137
S'B-NP'
p1138
g5
tp1139
a(S'final'
p1140
S'final'
p1141
S'JJ'
p1142
S'I-NP'
p1143
g5
tp1144
a(S'year'
p1145
S'year'
p1146
S'NN'
p1147
S'I-NP'
p1148
g5
tp1149
a(S'and'
p1150
S'and'
p1151
S'CC'
p1152
g5
g5
tp1153
a(S'subjected'
p1154
S'subject'
p1155
S'VBN'
p1156
S'B-VP'
p1157
g5
tp1158
a(S'to'
p1159
S'to'
p1160
S'TO'
p1161
S'I-VP'
p1162
g5
tp1163
a(S'duplicate'
p1164
S'duplicate'
p1165
S'VB'
p1166
S'I-VP'
p1167
g5
tp1168
a(S'Kato-Katz'
p1169
S'Kato-Katz'
p1170
S'NNP'
p1171
S'B-NP'
p1172
g5
tp1173
a(S'thick'
p1174
S'thick'
p1175
S'JJ'
p1176
S'I-NP'
p1177
g5
tp1178
a(S'smears.'
p1179
S'smears.'
p1180
S'NN'
p1181
S'I-NP'
p1182
g5
tp1183
a(S'Cost'
p1184
S'Cost'
p1185
S'NN'
p1186
S'I-NP'
p1187
g5
tp1188
a(S'and'
p1189
S'and'
p1190
S'CC'
p1191
S'I-NP'
p1192
g5
tp1193
a(S'coverage'
p1194
S'coverage'
p1195
S'NN'
p1196
S'I-NP'
p1197
g5
tp1198
a(S'data'
p1199
S'datum'
p1200
S'NNS'
p1201
S'I-NP'
p1202
g5
tp1203
a(S'for'
p1204
S'for'
p1205
S'IN'
p1206
S'B-PP'
p1207
g5
tp1208
a(S'the'
p1209
S'the'
p1210
S'DT'
p1211
S'B-NP'
p1212
g5
tp1213
a(S'different'
p1214
S'different'
p1215
S'JJ'
p1216
S'I-NP'
p1217
g5
tp1218
a(S'intervention'
p1219
S'intervention'
p1220
S'NN'
p1221
S'I-NP'
p1222
g5
tp1223
a(S'arms'
p1224
S'arm'
p1225
S'NNS'
p1226
S'I-NP'
p1227
g5
tp1228
a(g209
g209
g209
g5
g5
tp1229
a(S'along'
p1230
S'along'
p1231
S'IN'
p1232
S'B-ADVP'
p1233
g5
tp1234
a(S'with'
p1235
S'with'
p1236
S'IN'
p1237
S'B-PP'
p1238
g5
tp1239
a(S'environmental'
p1240
S'environmental'
p1241
S'JJ'
p1242
S'B-NP'
p1243
g5
tp1244
a(g209
g209
g209
S'I-NP'
p1245
g5
tp1246
a(S'political'
p1247
S'political'
p1248
S'JJ'
p1249
S'I-NP'
p1250
g5
tp1251
a(S'and'
p1252
S'and'
p1253
S'CC'
p1254
S'I-NP'
p1255
g5
tp1256
a(S'other'
p1257
S'other'
p1258
S'JJ'
p1259
S'I-NP'
p1260
g5
tp1261
a(S'characteristics'
p1262
S'characteristic'
p1263
S'NNS'
p1264
S'I-NP'
p1265
g5
tp1266
a(S'that'
p1267
S'that'
p1268
S'WDT'
p1269
S'B-NP'
p1270
g5
tp1271
a(S'might'
p1272
S'might'
p1273
S'MD'
p1274
S'B-VP'
p1275
g5
tp1276
a(S'impact'
p1277
S'impact'
p1278
S'VB'
p1279
S'I-VP'
p1280
g5
tp1281
a(S'on'
p1282
S'on'
p1283
S'IN'
p1284
S'B-PP'
p1285
g5
tp1286
a(S'the'
p1287
S'the'
p1288
S'DT'
p1289
S'B-NP'
p1290
g5
tp1291
a(S'infection'
p1292
S'infection'
p1293
S'NN'
p1294
S'I-NP'
p1295
g5
tp1296
a(S'prevalence'
p1297
S'prevalence'
p1298
S'NN'
p1299
S'I-NP'
p1300
g5
tp1301
a(S'and'
p1302
S'and'
p1303
S'CC'
p1304
S'I-NP'
p1305
g5
tp1306
a(S'intensity'
p1307
S'intensity'
p1308
S'NN'
p1309
S'I-NP'
p1310
g5
tp1311
a(S'will'
p1312
S'will'
p1313
S'MD'
p1314
S'B-VP'
p1315
g5
tp1316
a(S'be'
p1317
S'be'
p1318
S'VB'
p1319
S'I-VP'
p1320
g5
tp1321
a(S'recorded'
p1322
S'record'
p1323
S'VBN'
p1324
S'I-VP'
p1325
g5
tp1326
a(S'in'
p1327
S'in'
p1328
S'IN'
p1329
S'B-PP'
p1330
g5
tp1331
a(S'each'
p1332
S'each'
p1333
S'DT'
p1334
S'B-NP'
p1335
g5
tp1336
a(S'study'
p1337
S'study'
p1338
S'NN'
p1339
S'I-NP'
p1340
g5
tp1341
a(S'year'
p1342
S'year'
p1343
S'NN'
p1344
S'I-NP'
p1345
g5
tp1346
a(g209
g209
g209
g5
g5
tp1347
a(S'using'
p1348
S'use'
p1349
S'VBG'
p1350
S'B-VP'
p1351
g5
tp1352
a(g71
g71
S'DT'
p1353
S'B-NP'
p1354
g5
tp1355
a(S'pretested'
p1356
S'preteste'
p1357
S'VBN'
p1358
S'I-NP'
p1359
g5
tp1360
a(S'village'
p1361
S'village'
p1362
S'NN'
p1363
S'I-NP'
p1364
g5
tp1365
a(S'inventory'
p1366
S'inventory'
p1367
S'NN'
p1368
S'I-NP'
p1369
g5
tp1370
a(S'form'
p1371
S'form'
p1372
S'NN'
p1373
S'I-NP'
p1374
g5
tp1375
a(g90
g90
g90
g5
g5
tp1376
a(S'DISCUSSION'
p1377
S'DISCUSSION'
p1378
S'NN'
p1379
S'B-NP'
p1380
g5
tp1381
a(S'The'
p1382
S'The'
p1383
S'DT'
p1384
S'B-NP'
p1385
g5
tp1386
a(S'study'
p1387
S'study'
p1388
S'NN'
p1389
S'I-NP'
p1390
g5
tp1391
a(S'will'
p1392
S'will'
p1393
S'MD'
p1394
S'B-VP'
p1395
g5
tp1396
a(S'document'
p1397
S'document'
p1398
S'VB'
p1399
S'I-VP'
p1400
g5
tp1401
a(S'changes'
p1402
S'change'
p1403
S'NNS'
p1404
S'B-NP'
p1405
g5
tp1406
a(S'in'
p1407
S'in'
p1408
S'IN'
p1409
S'B-PP'
p1410
g5
tp1411
a(S'S.'
p1412
S'S.'
p1413
S'NNP'
p1414
S'B-NP'
p1415
g5
tp1416
a(S'mansoni'
p1417
S'mansoni'
p1418
S'NNP'
p1419
S'I-NP'
p1420
g5
tp1421
a(S'infection'
p1422
S'infection'
p1423
S'NN'
p1424
S'I-NP'
p1425
g5
tp1426
a(S'prevalence'
p1427
S'prevalence'
p1428
S'NN'
p1429
S'I-NP'
p1430
g5
tp1431
a(S'and'
p1432
S'and'
p1433
S'CC'
p1434
S'I-NP'
p1435
g5
tp1436
a(S'intensity'
p1437
S'intensity'
p1438
S'NN'
p1439
S'I-NP'
p1440
g5
tp1441
a(S'according'
p1442
S'accord'
p1443
S'VBG'
p1444
S'B-PP'
p1445
g5
tp1446
a(S'to'
p1447
S'to'
p1448
S'TO'
p1449
S'B-PP'
p1450
g5
tp1451
a(S'different'
p1452
S'different'
p1453
S'JJ'
p1454
S'B-NP'
p1455
g5
tp1456
a(S'treatment'
p1457
S'treatment'
p1458
S'NN'
p1459
S'I-NP'
p1460
g5
tp1461
a(S'schemes.'
p1462
S'schemes.'
p1463
S'NN'
p1464
S'I-NP'
p1465
g5
tp1466
a(S'Moreover'
p1467
S'Moreover'
p1468
S'RB'
p1469
S'B-ADVP'
p1470
g5
tp1471
a(g209
g209
g209
g5
g5
tp1472
a(S'factors'
p1473
S'factor'
p1474
S'NNS'
p1475
S'B-NP'
p1476
g5
tp1477
a(S'that'
p1478
S'that'
p1479
S'WDT'
p1480
S'B-NP'
p1481
g5
tp1482
a(S'determine'
p1483
S'determine'
p1484
S'VBP'
p1485
S'B-VP'
p1486
g5
tp1487
a(S'the'
p1488
S'the'
p1489
S'DT'
p1490
S'B-NP'
p1491
g5
tp1492
a(S'effectiveness'
p1493
S'effectiveness'
p1494
S'NN'
p1495
S'I-NP'
p1496
g5
tp1497
a(S'of'
p1498
S'of'
p1499
S'IN'
p1500
S'B-PP'
p1501
g5
tp1502
a(S'preventive'
p1503
S'preventive'
p1504
S'JJ'
p1505
S'B-NP'
p1506
g5
tp1507
a(S'chemotherapy'
p1508
S'chemotherapy'
p1509
S'NN'
p1510
S'I-NP'
p1511
g5
tp1512
a(S'will'
p1513
S'will'
p1514
S'MD'
p1515
S'B-VP'
p1516
g5
tp1517
a(S'be'
p1518
S'be'
p1519
S'VB'
p1520
S'I-VP'
p1521
g5
tp1522
a(S'identified.'
p1523
S'identified.'
p1524
S'VBN'
p1525
S'I-VP'
p1526
g5
tp1527
a(S'These'
p1528
S'These'
p1529
S'DT'
p1530
S'B-NP'
p1531
g5
tp1532
a(S'factors'
p1533
S'factor'
p1534
S'NNS'
p1535
S'I-NP'
p1536
g5
tp1537
a(S'will'
p1538
S'will'
p1539
S'MD'
p1540
S'B-VP'
p1541
g5
tp1542
a(S'help'
p1543
S'help'
p1544
S'VB'
p1545
S'I-VP'
p1546
g5
tp1547
a(S'to'
p1548
S'to'
p1549
S'TO'
p1550
S'I-VP'
p1551
g5
tp1552
a(S'develop'
p1553
S'develop'
p1554
S'VB'
p1555
S'I-VP'
p1556
g5
tp1557
a(S'reasonable'
p1558
S'reasonable'
p1559
S'JJ'
p1560
S'B-NP'
p1561
g5
tp1562
a(S'measures'
p1563
S'measure'
p1564
S'NNS'
p1565
S'I-NP'
p1566
g5
tp1567
a(S'of'
p1568
S'of'
p1569
S'IN'
p1570
S'B-PP'
p1571
g5
tp1572
a(S'force'
p1573
S'force'
p1574
S'NN'
p1575
S'B-NP'
p1576
g5
tp1577
a(S'of'
p1578
S'of'
p1579
S'IN'
p1580
S'B-PP'
p1581
g5
tp1582
a(S'transmission'
p1583
S'transmission'
p1584
S'NN'
p1585
S'B-NP'
p1586
g5
tp1587
a(S'that'
p1588
S'that'
p1589
S'WDT'
p1590
S'B-NP'
p1591
g5
tp1592
a(S'can'
p1593
S'can'
p1594
S'MD'
p1595
S'B-VP'
p1596
g5
tp1597
a(S'be'
p1598
S'be'
p1599
S'VB'
p1600
S'I-VP'
p1601
g5
tp1602
a(S'used'
p1603
S'use'
p1604
S'VBN'
p1605
S'I-VP'
p1606
g5
tp1607
a(S'to'
p1608
S'to'
p1609
S'TO'
p1610
S'B-VP'
p1611
g5
tp1612
a(S'make'
p1613
S'make'
p1614
S'VB'
p1615
S'I-VP'
p1616
g5
tp1617
a(S'decisions'
p1618
S'decision'
p1619
S'NNS'
p1620
S'B-NP'
p1621
g5
tp1622
a(S'about'
p1623
S'about'
p1624
S'IN'
p1625
S'B-PP'
p1626
g5
tp1627
a(S'the'
p1628
S'the'
p1629
S'DT'
p1630
S'B-NP'
p1631
g5
tp1632
a(S'most'
p1633
S'most'
p1634
S'RBS'
p1635
S'I-NP'
p1636
g5
tp1637
a(S'cost-effective'
p1638
S'cost-effective'
p1639
S'JJ'
p1640
S'I-NP'
p1641
g5
tp1642
a(S'means'
p1643
S'mean'
p1644
S'NNS'
p1645
S'I-NP'
p1646
g5
tp1647
a(S'of'
p1648
S'of'
p1649
S'IN'
p1650
S'B-PP'
p1651
g5
tp1652
a(S'lowering'
p1653
S'lower'
p1654
S'VBG'
p1655
S'B-VP'
p1656
g5
tp1657
a(S'prevalence'
p1658
S'prevalence'
p1659
S'NN'
p1660
S'B-NP'
p1661
g5
tp1662
a(g209
g209
g209
S'I-NP'
p1663
g5
tp1664
a(S'intensity'
p1665
S'intensity'
p1666
S'NN'
p1667
S'I-NP'
p1668
g5
tp1669
a(S'and'
p1670
S'and'
p1671
S'CC'
p1672
S'I-NP'
p1673
g5
tp1674
a(S'transmission'
p1675
S'transmission'
p1676
S'NN'
p1677
S'I-NP'
p1678
g5
tp1679
a(S'in'
p1680
S'in'
p1681
S'IN'
p1682
S'B-PP'
p1683
g5
tp1684
a(g71
g71
S'DT'
p1685
S'B-NP'
p1686
g5
tp1687
a(S'given'
p1688
S'give'
p1689
S'VBN'
p1690
S'I-NP'
p1691
g5
tp1692
a(S'setting.'
p1693
S'setting.'
p1694
S'NN'
p1695
S'I-NP'
p1696
g5
tp1697
a(S'The'
p1698
S'The'
p1699
S'DT'
p1700
S'B-NP'
p1701
g5
tp1702
a(S'gathered'
p1703
S'gather'
p1704
S'VBN'
p1705
S'I-NP'
p1706
g5
tp1707
a(S'information'
p1708
S'information'
p1709
S'NN'
p1710
S'I-NP'
p1711
g5
tp1712
a(S'and'
p1713
S'and'
p1714
S'CC'
p1715
S'I-NP'
p1716
g5
tp1717
a(S'results'
p1718
S'result'
p1719
S'NNS'
p1720
S'I-NP'
p1721
g5
tp1722
a(S'will'
p1723
S'will'
p1724
S'MD'
p1725
S'B-VP'
p1726
g5
tp1727
a(S'inform'
p1728
S'inform'
p1729
S'VB'
p1730
S'I-VP'
p1731
g5
tp1732
a(S'how'
p1733
S'how'
p1734
S'WRB'
p1735
S'B-ADVP'
p1736
g5
tp1737
a(S'to'
p1738
S'to'
p1739
S'TO'
p1740
S'B-VP'
p1741
g5
tp1742
a(S'effectively'
p1743
S'effectively'
p1744
S'RB'
p1745
S'I-VP'
p1746
g5
tp1747
a(S'sustain'
p1748
S'sustain'
p1749
S'VB'
p1750
S'I-VP'
p1751
g5
tp1752
a(S'control'
p1753
S'control'
p1754
S'NN'
p1755
S'B-NP'
p1756
g5
tp1757
a(S'of'
p1758
S'of'
p1759
S'IN'
p1760
S'B-PP'
p1761
g5
tp1762
a(S'schistosomiasis'
p1763
S'schistosomiasis'
p1764
S'NN'
p1765
S'B-NP'
p1766
g5
tp1767
a(S'at'
p1768
S'at'
p1769
S'IN'
p1770
S'B-PP'
p1771
g5
tp1772
a(g71
g71
S'DT'
p1773
S'B-NP'
p1774
g5
tp1775
a(S'low'
p1776
S'low'
p1777
S'JJ'
p1778
S'I-NP'
p1779
g5
tp1780
a(S'level'
p1781
S'level'
p1782
S'NN'
p1783
S'I-NP'
p1784
g5
tp1785
a(S'in'
p1786
S'in'
p1787
S'IN'
p1788
S'B-PP'
p1789
g5
tp1790
a(S'different'
p1791
S'different'
p1792
S'JJ'
p1793
S'B-NP'
p1794
g5
tp1795
a(S'social-ecological'
p1796
S'social-ecological'
p1797
S'JJ'
p1798
S'I-NP'
p1799
g5
tp1800
a(S'contexts'
p1801
S'context'
p1802
S'NNS'
p1803
S'I-NP'
p1804
g5
tp1805
a(g90
g90
g90
g5
g5
tp1806
a(S'TRIAL'
p1807
S'TRIAL'
p1808
S'NN'
p1809
S'B-NP'
p1810
g5
tp1811
a(S'REGISTRATION'
p1812
S'REGISTRATION'
p1813
S'NN'
p1814
S'I-NP'
p1815
g5
tp1816
a(S'ISRCTN99401114'
p1817
S'ISRCTN99401114'
p1818
S'NN'
p1819
S'I-NP'
p1820
g5
tp1821
a(g475
g475
g475
g5
g5
tp1822
a(S'date'
p1823
S'date'
p1824
S'NN'
p1825
S'B-NP'
p1826
g5
tp1827
a(S'assigned'
p1828
S'assign'
p1829
S'VBN'
p1830
S'B-VP'
p1831
g5
tp1832
a(g69
g69
g69
g5
g5
tp1833
a(S'12'
p1834
S'12'
p1835
S'CD'
p1836
S'B-NP'
p1837
g5
tp1838
a(S'November'
p1839
S'November'
p1840
S'NNP'
p1841
S'I-NP'
p1842
g5
tp1843
a(S'2014'
p1844
S'2014'
p1845
S'CD'
p1846
S'I-NP'
p1847
g5
tp1848
a(g483
g483
g483
g5
g5
tp1849
a(g90
g90
g90
g5
g5
tp1850
a.