(lp0
(S'Combination'
p1
S'Combination'
p2
S'NN'
p3
S'B-NP'
p4
S'O'
p5
tp6
a(S'of'
p7
S'of'
p8
S'IN'
p9
S'B-PP'
p10
g5
tp11
a(S'arteriovenous'
p12
S'arteriovenous'
p13
S'JJ'
p14
S'B-NP'
p15
g5
tp16
a(S'extracorporeal'
p17
S'extracorporeal'
p18
S'JJ'
p19
S'I-NP'
p20
g5
tp21
a(S'lung'
p22
S'lung'
p23
S'NN'
p24
S'I-NP'
p25
g5
tp26
a(S'assist'
p27
S'assist'
p28
S'NN'
p29
S'I-NP'
p30
g5
tp31
a(S'and'
p32
S'and'
p33
S'CC'
p34
g5
g5
tp35
a(S'high-frequency'
p36
S'high-frequency'
p37
S'NN'
p38
S'B-NP'
p39
g5
tp40
a(S'oscillatory'
p41
S'oscillatory'
p42
S'JJ'
p43
S'I-NP'
p44
g5
tp45
a(S'ventilation'
p46
S'ventilation'
p47
S'NN'
p48
S'I-NP'
p49
g5
tp50
a(S'in'
p51
S'in'
p52
S'IN'
p53
S'B-PP'
p54
g5
tp55
a(S'a'
p56
g56
S'DT'
p57
S'B-NP'
p58
g5
tp59
a(S'porcine'
p60
S'porcine'
p61
S'JJ'
p62
S'I-NP'
p63
g5
tp64
a(S'model'
p65
S'model'
p66
S'NN'
p67
S'I-NP'
p68
g5
tp69
a(S'of'
p70
S'of'
p71
S'IN'
p72
S'B-PP'
p73
g5
tp74
a(S'lavage-induced'
p75
S'lavage-induced'
p76
S'JJ'
p77
S'B-NP'
p78
g5
tp79
a(S'acute'
p80
S'acute'
p81
S'JJ'
p82
S'I-NP'
p83
g5
tp84
a(S'lung'
p85
S'lung'
p86
S'NN'
p87
S'I-NP'
p88
g5
tp89
a(S'injury'
p90
S'injury'
p91
S'NN'
p92
S'I-NP'
p93
g5
tp94
a(S':'
p95
g95
g95
g5
g5
tp96
a(g56
g56
S'DT'
p97
S'B-NP'
p98
g5
tp99
a(S'randomized'
p100
S'randomize'
p101
S'VBN'
p102
S'I-NP'
p103
g5
tp104
a(S'controlled'
p105
S'control'
p106
S'VBN'
p107
S'I-NP'
p108
g5
tp109
a(S'trial'
p110
S'trial'
p111
S'NN'
p112
S'I-NP'
p113
g5
tp114
a(S'.'
p115
g115
g115
g5
g5
tp116
a(S'BACKGROUND'
p117
S'BACKGROUND'
p118
S'NN'
p119
S'B-NP'
p120
g5
tp121
a(S'To'
p122
S'To'
p123
S'TO'
p124
S'B-VP'
p125
g5
tp126
a(S'compare'
p127
S'compare'
p128
S'VB'
p129
S'I-VP'
p130
g5
tp131
a(S'the'
p132
S'the'
p133
S'DT'
p134
S'B-NP'
p135
g5
tp136
a(S'combined'
p137
S'combine'
p138
S'VBN'
p139
S'I-NP'
p140
g5
tp141
a(S'effects'
p142
S'effect'
p143
S'NNS'
p144
S'I-NP'
p145
g5
tp146
a(S'of'
p147
S'of'
p148
S'IN'
p149
S'B-PP'
p150
g5
tp151
a(S'arteriovenous'
p152
S'arteriovenous'
p153
S'JJ'
p154
S'B-NP'
p155
g5
tp156
a(S'extracorporeal'
p157
S'extracorporeal'
p158
S'JJ'
p159
S'I-NP'
p160
g5
tp161
a(S'lung'
p162
S'lung'
p163
S'NN'
p164
S'I-NP'
p165
g5
tp166
a(S'assist'
p167
S'assist'
p168
S'NN'
p169
S'I-NP'
p170
g5
tp171
a(S'('
p172
g172
g172
g5
g5
tp173
a(S'AV-ECLA'
p174
S'AV-ECLA'
p175
S'NN'
p176
S'B-NP'
p177
g5
tp178
a(S')'
p179
g179
g179
g5
g5
tp180
a(S'and'
p181
S'and'
p182
S'CC'
p183
g5
g5
tp184
a(S'high-frequency'
p185
S'high-frequency'
p186
S'NN'
p187
S'B-NP'
p188
g5
tp189
a(S'oscillatory'
p190
S'oscillatory'
p191
S'JJ'
p192
S'I-NP'
p193
g5
tp194
a(S'ventilation'
p195
S'ventilation'
p196
S'NN'
p197
S'I-NP'
p198
g5
tp199
a(g172
g172
g172
g5
g5
tp200
a(S'HFOV'
p201
S'HFOV'
p202
S'NN'
p203
S'B-NP'
p204
S'B-protein'
p205
tp206
a(g179
g179
g179
g5
g5
tp207
a(S'on'
p208
S'on'
p209
S'IN'
p210
S'B-PP'
p211
g5
tp212
a(S'pulmonary'
p213
S'pulmonary'
p214
S'JJ'
p215
S'B-NP'
p216
g5
tp217
a(S'gas'
p218
S'gas'
p219
S'NN'
p220
S'I-NP'
p221
g5
tp222
a(S'exchange'
p223
S'exchange'
p224
S'NN'
p225
S'I-NP'
p226
g5
tp227
a(S','
p228
g228
g228
g5
g5
tp229
a(S'hemodynamics'
p230
S'hemodynamic'
p231
S'NNS'
p232
S'B-NP'
p233
g5
tp234
a(g228
g228
g228
g5
g5
tp235
a(S'and'
p236
S'and'
p237
S'CC'
p238
g5
g5
tp239
a(S'respiratory'
p240
S'respiratory'
p241
S'JJ'
p242
S'B-NP'
p243
g5
tp244
a(S'parameters'
p245
S'parameter'
p246
S'NNS'
p247
S'I-NP'
p248
g5
tp249
a(S'in'
p250
S'in'
p251
S'IN'
p252
S'B-PP'
p253
g5
tp254
a(g56
g56
S'DT'
p255
S'B-NP'
p256
g5
tp257
a(S'lavage-induced'
p258
S'lavage-induced'
p259
S'JJ'
p260
S'I-NP'
p261
g5
tp262
a(S'porcine'
p263
S'porcine'
p264
S'JJ'
p265
S'I-NP'
p266
g5
tp267
a(S'lung'
p268
S'lung'
p269
S'NN'
p270
S'I-NP'
p271
g5
tp272
a(S'injury'
p273
S'injury'
p274
S'NN'
p275
S'I-NP'
p276
g5
tp277
a(S'model'
p278
S'model'
p279
S'NN'
p280
S'I-NP'
p281
g5
tp282
a(g115
g115
g115
g5
g5
tp283
a(S'METHODS'
p284
S'METHODS'
p285
S'NNS'
p286
S'B-NP'
p287
g5
tp288
a(S'A'
p289
g289
S'DT'
p290
S'B-NP'
p291
g5
tp292
a(S'prospective'
p293
S'prospective'
p294
S'JJ'
p295
S'I-NP'
p296
g5
tp297
a(g228
g228
g228
S'I-NP'
p298
g5
tp299
a(S'randomized'
p300
S'randomize'
p301
S'VBN'
p302
S'I-NP'
p303
g5
tp304
a(S'animal'
p305
S'animal'
p306
S'NN'
p307
S'I-NP'
p308
g5
tp309
a(S'study.'
p310
S'study.'
p311
S'NN'
p312
S'I-NP'
p313
g5
tp314
a(S'Saline'
p315
S'Saline'
p316
S'NN'
p317
S'I-NP'
p318
g5
tp319
a(S'lung'
p320
S'lung'
p321
S'NN'
p322
S'I-NP'
p323
g5
tp324
a(S'lavage'
p325
S'lavage'
p326
S'NN'
p327
S'I-NP'
p328
g5
tp329
a(S'was'
p330
S'be'
p331
S'VBD'
p332
S'B-VP'
p333
g5
tp334
a(S'performed'
p335
S'perform'
p336
S'VBN'
p337
S'I-VP'
p338
g5
tp339
a(S'in'
p340
S'in'
p341
S'IN'
p342
S'B-PP'
p343
g5
tp344
a(S'33'
p345
S'33'
p346
S'CD'
p347
S'B-NP'
p348
g5
tp349
a(S'healthy'
p350
S'healthy'
p351
S'JJ'
p352
S'I-NP'
p353
g5
tp354
a(S'female'
p355
S'female'
p356
S'JJ'
p357
S'I-NP'
p358
g5
tp359
a(S'pigs'
p360
S'pig'
p361
S'NNS'
p362
S'I-NP'
p363
g5
tp364
a(g228
g228
g228
g5
g5
tp365
a(S'weighing'
p366
S'weigh'
p367
S'VBG'
p368
S'B-VP'
p369
g5
tp370
a(S'52'
p371
S'52'
p372
S'CD'
p373
S'B-NP'
p374
g5
tp375
a(S'+/-'
p376
S'+/-'
p377
S'SYM'
p378
S'I-NP'
p379
g5
tp380
a(S'4.1'
p381
S'4.1'
p382
S'CD'
p383
S'I-NP'
p384
g5
tp385
a(S'kg'
p386
S'kg'
p387
S'NN'
p388
S'I-NP'
p389
g5
tp390
a(g172
g172
g172
g5
g5
tp391
a(S'mean'
p392
S'mean'
p393
S'NN'
p394
S'B-NP'
p395
g5
tp396
a(S'+/-'
p397
S'+/-'
p398
S'SYM'
p399
g5
g5
tp400
a(S'SD'
p401
S'SD'
p402
S'NN'
p403
S'B-NP'
p404
g5
tp405
a(g179
g179
g179
g5
g5
tp406
a(g228
g228
g228
g5
g5
tp407
a(S'until'
p408
S'until'
p409
S'IN'
p410
S'B-SBAR'
p411
g5
tp412
a(S'the'
p413
S'the'
p414
S'DT'
p415
S'B-NP'
p416
g5
tp417
a(S'Pao2'
p418
S'Pao2'
p419
S'NN'
p420
S'I-NP'
p421
S'B-protein'
p422
tp423
a(S'decreased'
p424
S'decrease'
p425
S'VBD'
p426
S'B-VP'
p427
g5
tp428
a(S'to'
p429
S'to'
p430
S'TO'
p431
S'B-PP'
p432
g5
tp433
a(S'53'
p434
S'53'
p435
S'CD'
p436
S'B-NP'
p437
g5
tp438
a(S'+/-'
p439
S'+/-'
p440
S'SYM'
p441
S'I-NP'
p442
g5
tp443
a(S'8'
p444
g444
S'CD'
p445
S'I-NP'
p446
g5
tp447
a(S'mm'
p448
S'mm'
p449
S'NN'
p450
S'I-NP'
p451
g5
tp452
a(S'Hg.'
p453
S'Hg.'
p454
S'NN'
p455
S'I-NP'
p456
g5
tp457
a(S'After'
p458
S'After'
p459
S'IN'
p460
S'B-PP'
p461
g5
tp462
a(g56
g56
S'DT'
p463
S'B-NP'
p464
g5
tp465
a(S'stabilization'
p466
S'stabilization'
p467
S'NN'
p468
S'I-NP'
p469
g5
tp470
a(S'period'
p471
S'period'
p472
S'NN'
p473
S'I-NP'
p474
g5
tp475
a(S'of'
p476
S'of'
p477
S'IN'
p478
S'B-PP'
p479
g5
tp480
a(S'60'
p481
S'60'
p482
S'CD'
p483
S'B-NP'
p484
g5
tp485
a(S'minutes'
p486
S'minute'
p487
S'NNS'
p488
S'I-NP'
p489
g5
tp490
a(g228
g228
g228
g5
g5
tp491
a(S'the'
p492
S'the'
p493
S'DT'
p494
S'B-NP'
p495
g5
tp496
a(S'animals'
p497
S'animal'
p498
S'NNS'
p499
S'I-NP'
p500
g5
tp501
a(S'were'
p502
S'be'
p503
S'VBD'
p504
S'B-VP'
p505
g5
tp506
a(S'randomly'
p507
S'randomly'
p508
S'RB'
p509
S'I-VP'
p510
g5
tp511
a(S'assigned'
p512
S'assign'
p513
S'VBN'
p514
S'I-VP'
p515
g5
tp516
a(S'to'
p517
S'to'
p518
S'TO'
p519
S'B-PP'
p520
g5
tp521
a(S'four'
p522
S'four'
p523
S'CD'
p524
S'B-NP'
p525
g5
tp526
a(S'groups'
p527
S'group'
p528
S'NNS'
p529
S'I-NP'
p530
g5
tp531
a(g95
g95
g95
g5
g5
tp532
a(S'group'
p533
S'group'
p534
S'NN'
p535
S'B-NP'
p536
g5
tp537
a(S'1'
p538
g538
S'CD'
p539
S'I-NP'
p540
g5
tp541
a(g228
g228
g228
g5
g5
tp542
a(S'pressure-controlled'
p543
S'pressure-controlled'
p544
S'JJ'
p545
S'B-NP'
p546
g5
tp547
a(S'ventilation'
p548
S'ventilation'
p549
S'NN'
p550
S'I-NP'
p551
g5
tp552
a(g172
g172
g172
g5
g5
tp553
a(S'PCV'
p554
S'PCV'
p555
S'NN'
p556
S'B-NP'
p557
g5
tp558
a(g179
g179
g179
g5
g5
tp559
a(S'with'
p560
S'with'
p561
S'IN'
p562
S'B-PP'
p563
g5
tp564
a(g56
g56
S'DT'
p565
S'B-NP'
p566
g5
tp567
a(S'tidal'
p568
S'tidal'
p569
S'JJ'
p570
S'I-NP'
p571
g5
tp572
a(S'volume'
p573
S'volume'
p574
S'NN'
p575
S'I-NP'
p576
g5
tp577
a(S'of'
p578
S'of'
p579
S'IN'
p580
S'B-PP'
p581
g5
tp582
a(S'6'
p583
g583
S'CD'
p584
S'B-NP'
p585
g5
tp586
a(S'mL/kg'
p587
S'mL/kg'
p588
S'NN'
p589
S'I-NP'
p590
g5
tp591
a(S';'
p592
g592
g95
g5
g5
tp593
a(S'group'
p594
S'group'
p595
S'NN'
p596
S'B-NP'
p597
g5
tp598
a(S'2'
p599
g599
S'CD'
p600
S'I-NP'
p601
g5
tp602
a(g228
g228
g228
g5
g5
tp603
a(S'PCV'
p604
S'PCV'
p605
S'NN'
p606
S'B-NP'
p607
g5
tp608
a(S'with'
p609
S'with'
p610
S'IN'
p611
S'B-PP'
p612
g5
tp613
a(g56
g56
S'DT'
p614
S'B-NP'
p615
g5
tp616
a(S'tidal'
p617
S'tidal'
p618
S'JJ'
p619
S'I-NP'
p620
g5
tp621
a(S'volume'
p622
S'volume'
p623
S'NN'
p624
S'I-NP'
p625
g5
tp626
a(S'of'
p627
S'of'
p628
S'IN'
p629
S'B-PP'
p630
g5
tp631
a(g583
g583
S'CD'
p632
S'B-NP'
p633
g5
tp634
a(S'mL/kg'
p635
S'mL/kg'
p636
S'NN'
p637
S'I-NP'
p638
g5
tp639
a(S'and'
p640
S'and'
p641
S'CC'
p642
S'I-NP'
p643
g5
tp644
a(S'AV-ECLA'
p645
S'AV-ECLA'
p646
S'NN'
p647
S'I-NP'
p648
g5
tp649
a(g592
g592
g95
g5
g5
tp650
a(S'group'
p651
S'group'
p652
S'NN'
p653
S'B-NP'
p654
g5
tp655
a(S'3'
p656
g656
S'CD'
p657
S'I-NP'
p658
g5
tp659
a(g228
g228
g228
g5
g5
tp660
a(S'HFOV'
p661
S'HFOV'
p662
S'NN'
p663
S'B-NP'
p664
g5
tp665
a(g592
g592
g95
g5
g5
tp666
a(S'group'
p667
S'group'
p668
S'NN'
p669
S'B-NP'
p670
g5
tp671
a(S'4'
p672
g672
S'CD'
p673
S'I-NP'
p674
g5
tp675
a(g228
g228
g228
S'I-NP'
p676
g5
tp677
a(S'HFOV'
p678
S'HFOV'
p679
S'NN'
p680
S'I-NP'
p681
g5
tp682
a(S'and'
p683
S'and'
p684
S'CC'
p685
S'I-NP'
p686
g5
tp687
a(S'AV-ECLA.'
p688
S'AV-ECLA.'
p689
S'NN'
p690
S'I-NP'
p691
g5
tp692
a(S'In'
p693
S'In'
p694
S'IN'
p695
S'B-PP'
p696
g5
tp697
a(S'groups'
p698
S'group'
p699
S'NNS'
p700
S'B-NP'
p701
g5
tp702
a(g599
g599
S'CD'
p703
S'B-NP'
p704
g5
tp705
a(S'and'
p706
S'and'
p707
S'CC'
p708
S'I-NP'
p709
g5
tp710
a(g672
g672
S'CD'
p711
S'I-NP'
p712
g5
tp713
a(g228
g228
g228
g5
g5
tp714
a(S'the'
p715
S'the'
p716
S'DT'
p717
S'B-NP'
p718
g5
tp719
a(S'femoral'
p720
S'femoral'
p721
S'JJ'
p722
S'I-NP'
p723
g5
tp724
a(S'artery'
p725
S'artery'
p726
S'NN'
p727
S'I-NP'
p728
g5
tp729
a(S'and'
p730
S'and'
p731
S'CC'
p732
S'I-NP'
p733
g5
tp734
a(S'vein'
p735
S'vein'
p736
S'NN'
p737
S'I-NP'
p738
g5
tp739
a(S'were'
p740
S'be'
p741
S'VBD'
p742
S'B-VP'
p743
g5
tp744
a(S'cannulated'
p745
S'cannulate'
p746
S'VBN'
p747
S'I-VP'
p748
g5
tp749
a(S'and'
p750
S'and'
p751
S'CC'
p752
g5
g5
tp753
a(g56
g56
S'DT'
p754
S'B-NP'
p755
g5
tp756
a(S'low-resistance'
p757
S'low-resistance'
p758
S'JJ'
p759
S'I-NP'
p760
g5
tp761
a(S'membrane'
p762
S'membrane'
p763
S'NN'
p764
S'I-NP'
p765
g5
tp766
a(S'lung'
p767
S'lung'
p768
S'NN'
p769
S'I-NP'
p770
g5
tp771
a(S'was'
p772
S'be'
p773
S'VBD'
p774
S'B-VP'
p775
g5
tp776
a(S'interposed.'
p777
S'interposed.'
p778
S'JJ'
p779
S'B-ADJP'
p780
g5
tp781
a(S'After'
p782
S'After'
p783
S'IN'
p784
S'B-PP'
p785
g5
tp786
a(S'isolated'
p787
S'isolate'
p788
S'VBN'
p789
S'B-NP'
p790
g5
tp791
a(S'evaluation'
p792
S'evaluation'
p793
S'NN'
p794
S'I-NP'
p795
g5
tp796
a(S'of'
p797
S'of'
p798
S'IN'
p799
S'B-PP'
p800
g5
tp801
a(S'AV-ECLA'
p802
S'AV-ECLA'
p803
S'NN'
p804
S'B-NP'
p805
S'B-protein'
p806
tp807
a(g228
g228
g228
g5
g5
tp808
a(S'the'
p809
S'the'
p810
S'DT'
p811
S'B-NP'
p812
g5
tp813
a(S'mean'
p814
S'mean'
p815
S'JJ'
p816
S'I-NP'
p817
g5
tp818
a(S'airway'
p819
S'airway'
p820
S'NN'
p821
S'I-NP'
p822
g5
tp823
a(S'pressure'
p824
S'pressure'
p825
S'NN'
p826
S'I-NP'
p827
g5
tp828
a(S'was'
p829
S'be'
p830
S'VBD'
p831
S'B-VP'
p832
g5
tp833
a(S'increased'
p834
S'increase'
p835
S'VBN'
p836
S'I-VP'
p837
g5
tp838
a(S'by'
p839
S'by'
p840
S'IN'
p841
S'B-PP'
p842
g5
tp843
a(g656
g656
S'CD'
p844
S'B-NP'
p845
g5
tp846
a(S'cm'
p847
S'cm'
p848
S'NN'
p849
S'I-NP'
p850
g5
tp851
a(S'H2O'
p852
S'H2O'
p853
S'NN'
p854
S'I-NP'
p855
g5
tp856
a(S'from'
p857
S'from'
p858
S'IN'
p859
S'B-PP'
p860
g5
tp861
a(S'16'
p862
S'16'
p863
S'CD'
p864
S'B-NP'
p865
g5
tp866
a(S'to'
p867
S'to'
p868
S'TO'
p869
S'I-NP'
p870
g5
tp871
a(S'34'
p872
S'34'
p873
S'CD'
p874
S'I-NP'
p875
g5
tp876
a(S'cm'
p877
S'cm'
p878
S'NN'
p879
S'I-NP'
p880
g5
tp881
a(S'H2O'
p882
S'H2O'
p883
S'NN'
p884
S'I-NP'
p885
g5
tp886
a(S'every'
p887
S'every'
p888
S'DT'
p889
S'B-NP'
p890
g5
tp891
a(S'20'
p892
S'20'
p893
S'CD'
p894
S'I-NP'
p895
g5
tp896
a(S'minutes'
p897
S'minute'
p898
S'NNS'
p899
S'I-NP'
p900
g5
tp901
a(g228
g228
g228
g5
g5
tp902
a(S'accompanied'
p903
S'accompany'
p904
S'VBN'
p905
S'B-VP'
p906
g5
tp907
a(S'by'
p908
S'by'
p909
S'IN'
p910
S'B-PP'
p911
g5
tp912
a(S'blood'
p913
S'blood'
p914
S'NN'
p915
S'B-NP'
p916
g5
tp917
a(S'gas'
p918
S'gas'
p919
S'NN'
p920
S'I-NP'
p921
g5
tp922
a(S'analyses'
p923
S'analysis'
p924
S'NNS'
p925
S'I-NP'
p926
g5
tp927
a(S'and'
p928
S'and'
p929
S'CC'
p930
S'I-NP'
p931
g5
tp932
a(S'measurements'
p933
S'measurement'
p934
S'NNS'
p935
S'I-NP'
p936
g5
tp937
a(S'of'
p938
S'of'
p939
S'IN'
p940
S'B-PP'
p941
g5
tp942
a(S'respiratory'
p943
S'respiratory'
p944
S'JJ'
p945
S'B-NP'
p946
g5
tp947
a(S'and'
p948
S'and'
p949
S'CC'
p950
S'I-NP'
p951
g5
tp952
a(S'hemodynamic'
p953
S'hemodynamic'
p954
S'JJ'
p955
S'I-NP'
p956
g5
tp957
a(S'variables'
p958
S'variable'
p959
S'NNS'
p960
S'I-NP'
p961
g5
tp962
a(g115
g115
g115
g5
g5
tp963
a(S'RESULTS'
p964
S'RESULTS'
p965
S'NNS'
p966
S'B-NP'
p967
g5
tp968
a(S'Only'
p969
S'Only'
p970
S'RB'
p971
S'B-ADVP'
p972
g5
tp973
a(S'in'
p974
S'in'
p975
S'IN'
p976
S'B-PP'
p977
g5
tp978
a(S'AV-ECLA-treated'
p979
S'AV-ECLA-treated'
p980
S'JJ'
p981
S'B-NP'
p982
g5
tp983
a(S'animals'
p984
S'animal'
p985
S'NNS'
p986
S'I-NP'
p987
g5
tp988
a(S'was'
p989
S'be'
p990
S'VBD'
p991
S'B-VP'
p992
g5
tp993
a(S'normocapnia'
p994
S'normocapnia'
p995
S'NN'
p996
S'B-NP'
p997
g5
tp998
a(S'achieved.'
p999
S'achieved.'
p1000
S'IN'
p1001
S'B-PP'
p1002
g5
tp1003
a(S'No'
p1004
S'No'
p1005
S'DT'
p1006
S'B-NP'
p1007
g5
tp1008
a(S'significant'
p1009
S'significant'
p1010
S'JJ'
p1011
S'I-NP'
p1012
g5
tp1013
a(S'increase'
p1014
S'increase'
p1015
S'NN'
p1016
S'I-NP'
p1017
g5
tp1018
a(S'of'
p1019
S'of'
p1020
S'IN'
p1021
S'B-PP'
p1022
g5
tp1023
a(S'Pao2'
p1024
S'Pao2'
p1025
S'NN'
p1026
S'B-NP'
p1027
g5
tp1028
a(S'attributable'
p1029
S'attributable'
p1030
S'JJ'
p1031
S'B-ADJP'
p1032
g5
tp1033
a(S'to'
p1034
S'to'
p1035
S'TO'
p1036
S'B-PP'
p1037
g5
tp1038
a(S'AV-ECLA'
p1039
S'AV-ECLA'
p1040
S'NN'
p1041
S'B-NP'
p1042
g5
tp1043
a(S'alone'
p1044
S'alone'
p1045
S'RB'
p1046
S'B-ADVP'
p1047
g5
tp1048
a(S'was'
p1049
S'be'
p1050
S'VBD'
p1051
S'B-VP'
p1052
g5
tp1053
a(S'detected.'
p1054
S'detected.'
p1055
S'VBN'
p1056
S'I-VP'
p1057
g5
tp1058
a(S'Mean'
p1059
S'Mean'
p1060
S'NN'
p1061
S'B-NP'
p1062
g5
tp1063
a(S'airway'
p1064
S'airway'
p1065
S'NN'
p1066
S'I-NP'
p1067
g5
tp1068
a(S'pressure'
p1069
S'pressure'
p1070
S'NN'
p1071
S'I-NP'
p1072
g5
tp1073
a(S'augmentation'
p1074
S'augmentation'
p1075
S'NN'
p1076
S'I-NP'
p1077
g5
tp1078
a(S'resulted'
p1079
S'result'
p1080
S'VBD'
p1081
S'B-VP'
p1082
g5
tp1083
a(S'in'
p1084
S'in'
p1085
S'IN'
p1086
S'B-PP'
p1087
g5
tp1088
a(g56
g56
S'DT'
p1089
S'B-NP'
p1090
g5
tp1091
a(S'significant'
p1092
S'significant'
p1093
S'JJ'
p1094
S'I-NP'
p1095
g5
tp1096
a(S'increase'
p1097
S'increase'
p1098
S'NN'
p1099
S'I-NP'
p1100
g5
tp1101
a(S'in'
p1102
S'in'
p1103
S'IN'
p1104
S'B-PP'
p1105
g5
tp1106
a(S'Pao2'
p1107
S'Pao2'
p1108
S'NN'
p1109
S'B-NP'
p1110
S'B-protein'
p1111
tp1112
a(S'in'
p1113
S'in'
p1114
S'IN'
p1115
S'B-PP'
p1116
g5
tp1117
a(S'all'
p1118
S'all'
p1119
S'DT'
p1120
S'B-NP'
p1121
g5
tp1122
a(S'groups.'
p1123
S'groups.'
p1124
S'NNS'
p1125
S'I-NP'
p1126
g5
tp1127
a(S'Peak'
p1128
S'Peak'
p1129
S'NNP'
p1130
S'B-NP'
p1131
g5
tp1132
a(S'inspiratory'
p1133
S'inspiratory'
p1134
S'JJ'
p1135
S'I-NP'
p1136
g5
tp1137
a(S'pressure'
p1138
S'pressure'
p1139
S'NN'
p1140
S'I-NP'
p1141
g5
tp1142
a(S'was'
p1143
S'be'
p1144
S'VBD'
p1145
S'B-VP'
p1146
g5
tp1147
a(S'significantly'
p1148
S'significantly'
p1149
S'RB'
p1150
S'B-ADJP'
p1151
g5
tp1152
a(S'lower'
p1153
S'low'
p1154
S'JJR'
p1155
S'I-ADJP'
p1156
g5
tp1157
a(S'in'
p1158
S'in'
p1159
S'IN'
p1160
S'B-PP'
p1161
g5
tp1162
a(S'HFOV-treated'
p1163
S'HFOV-treated'
p1164
S'JJ'
p1165
S'B-NP'
p1166
S'B-cell_line'
p1167
tp1168
a(S'animals'
p1169
S'animal'
p1170
S'NNS'
p1171
S'I-NP'
p1172
S'I-cell_line'
p1173
tp1174
a(g115
g115
g115
g5
g5
tp1175
a(S'CONCLUSIONS'
p1176
S'CONCLUSIONS'
p1177
S'NNS'
p1178
S'B-NP'
p1179
g5
tp1180
a(S'The'
p1181
S'The'
p1182
S'DT'
p1183
S'B-NP'
p1184
g5
tp1185
a(S'combination'
p1186
S'combination'
p1187
S'NN'
p1188
S'I-NP'
p1189
g5
tp1190
a(S'of'
p1191
S'of'
p1192
S'IN'
p1193
S'B-PP'
p1194
g5
tp1195
a(S'AV-ECLA'
p1196
S'AV-ECLA'
p1197
S'NN'
p1198
S'B-NP'
p1199
g5
tp1200
a(S'and'
p1201
S'and'
p1202
S'CC'
p1203
S'I-NP'
p1204
g5
tp1205
a(S'HFOV'
p1206
S'HFOV'
p1207
S'NN'
p1208
S'I-NP'
p1209
g5
tp1210
a(S'resulted'
p1211
S'result'
p1212
S'VBD'
p1213
S'B-VP'
p1214
g5
tp1215
a(S'in'
p1216
S'in'
p1217
S'IN'
p1218
S'B-PP'
p1219
g5
tp1220
a(S'normocapnia'
p1221
S'normocapnia'
p1222
S'NN'
p1223
S'B-NP'
p1224
g5
tp1225
a(S'and'
p1226
S'and'
p1227
S'CC'
p1228
g5
g5
tp1229
a(S'comparable'
p1230
S'comparable'
p1231
S'JJ'
p1232
S'B-NP'
p1233
g5
tp1234
a(S'Pao2'
p1235
S'Pao2'
p1236
S'NN'
p1237
S'I-NP'
p1238
g5
tp1239
a(g228
g228
g228
g5
g5
tp1240
a(S'although'
p1241
S'although'
p1242
S'IN'
p1243
S'B-SBAR'
p1244
g5
tp1245
a(g56
g56
S'DT'
p1246
S'B-NP'
p1247
g5
tp1248
a(S'smaller'
p1249
S'small'
p1250
S'JJR'
p1251
S'I-NP'
p1252
g5
tp1253
a(S'ventilator'
p1254
S'ventilator'
p1255
S'NN'
p1256
S'I-NP'
p1257
g5
tp1258
a(S'pressure'
p1259
S'pressure'
p1260
S'NN'
p1261
S'I-NP'
p1262
g5
tp1263
a(S'amplitude'
p1264
S'amplitude'
p1265
S'NN'
p1266
S'I-NP'
p1267
g5
tp1268
a(S'was'
p1269
S'be'
p1270
S'VBD'
p1271
S'B-VP'
p1272
g5
tp1273
a(S'applied.'
p1274
S'applied.'
p1275
S'VBN'
p1276
S'I-VP'
p1277
g5
tp1278
a(S'Long-term'
p1279
S'Long-term'
p1280
S'JJ'
p1281
S'B-NP'
p1282
g5
tp1283
a(S'animal'
p1284
S'animal'
p1285
S'NN'
p1286
S'I-NP'
p1287
g5
tp1288
a(S'studies'
p1289
S'study'
p1290
S'NNS'
p1291
S'I-NP'
p1292
g5
tp1293
a(S'are'
p1294
S'be'
p1295
S'VBP'
p1296
S'B-VP'
p1297
g5
tp1298
a(S'needed'
p1299
S'need'
p1300
S'VBN'
p1301
S'I-VP'
p1302
g5
tp1303
a(S'to'
p1304
S'to'
p1305
S'TO'
p1306
S'B-VP'
p1307
g5
tp1308
a(S'assess'
p1309
S'assess'
p1310
S'VB'
p1311
S'I-VP'
p1312
g5
tp1313
a(S'whether'
p1314
S'whether'
p1315
S'IN'
p1316
S'B-SBAR'
p1317
g5
tp1318
a(S'this'
p1319
S'this'
p1320
S'DT'
p1321
S'B-NP'
p1322
g5
tp1323
a(S'approach'
p1324
S'approach'
p1325
S'NN'
p1326
S'I-NP'
p1327
g5
tp1328
a(S'results'
p1329
S'result'
p1330
S'VBZ'
p1331
S'B-VP'
p1332
g5
tp1333
a(S'in'
p1334
S'in'
p1335
S'IN'
p1336
S'B-PP'
p1337
g5
tp1338
a(S'further'
p1339
S'further'
p1340
S'JJ'
p1341
S'B-NP'
p1342
g5
tp1343
a(S'lung'
p1344
S'lung'
p1345
S'NN'
p1346
S'I-NP'
p1347
g5
tp1348
a(S'protection'
p1349
S'protection'
p1350
S'NN'
p1351
S'I-NP'
p1352
g5
tp1353
a(g115
g115
g115
g5
g5
tp1354
a.