(lp0
(S'Analgesic'
p1
S'Analgesic'
p2
S'JJ'
p3
S'B-NP'
p4
S'O'
p5
tp6
a(S'efficacy'
p7
S'efficacy'
p8
S'NN'
p9
S'I-NP'
p10
g5
tp11
a(S'of'
p12
S'of'
p13
S'IN'
p14
S'B-PP'
p15
g5
tp16
a(S'piroxicam'
p17
S'piroxicam'
p18
S'NN'
p19
S'B-NP'
p20
g5
tp21
a(S'in'
p22
S'in'
p23
S'IN'
p24
S'B-PP'
p25
g5
tp26
a(S'the'
p27
S'the'
p28
S'DT'
p29
S'B-NP'
p30
g5
tp31
a(S'treatment'
p32
S'treatment'
p33
S'NN'
p34
S'I-NP'
p35
g5
tp36
a(S'of'
p37
S'of'
p38
S'IN'
p39
S'B-PP'
p40
g5
tp41
a(S'postoperative'
p42
S'postoperative'
p43
S'JJ'
p44
S'B-NP'
p45
g5
tp46
a(S'pain'
p47
S'pain'
p48
S'NN'
p49
S'I-NP'
p50
g5
tp51
a(S'.'
p52
g52
g52
g5
g5
tp53
a(S'Two'
p54
S'Two'
p55
S'CD'
p56
S'B-NP'
p57
g5
tp58
a(S'randomized'
p59
S'randomize'
p60
S'VBN'
p61
S'I-NP'
p62
g5
tp63
a(S','
p64
g64
g64
S'I-NP'
p65
g5
tp66
a(S'double-blind'
p67
S'double-blind'
p68
S'JJ'
p69
S'I-NP'
p70
g5
tp71
a(g64
g64
g64
S'I-NP'
p72
g5
tp73
a(S'single-dose'
p74
S'single-dose'
p75
S'JJ'
p76
S'I-NP'
p77
g5
tp78
a(S'studies'
p79
S'study'
p80
S'NNS'
p81
S'I-NP'
p82
g5
tp83
a(S'were'
p84
S'be'
p85
S'VBD'
p86
S'B-VP'
p87
g5
tp88
a(S'conducted'
p89
S'conduct'
p90
S'VBN'
p91
S'I-VP'
p92
g5
tp93
a(S'to'
p94
S'to'
p95
S'TO'
p96
S'B-VP'
p97
g5
tp98
a(S'assess'
p99
S'assess'
p100
S'VB'
p101
S'I-VP'
p102
g5
tp103
a(S'the'
p104
S'the'
p105
S'DT'
p106
S'B-NP'
p107
g5
tp108
a(S'analgesic'
p109
S'analgesic'
p110
S'JJ'
p111
S'I-NP'
p112
g5
tp113
a(S'efficacy'
p114
S'efficacy'
p115
S'NN'
p116
S'I-NP'
p117
g5
tp118
a(S'and'
p119
S'and'
p120
S'CC'
p121
S'I-NP'
p122
g5
tp123
a(S'safety'
p124
S'safety'
p125
S'NN'
p126
S'I-NP'
p127
g5
tp128
a(S'of'
p129
S'of'
p130
S'IN'
p131
S'B-PP'
p132
g5
tp133
a(S'piroxicam'
p134
S'piroxicam'
p135
S'NN'
p136
S'B-NP'
p137
g5
tp138
a(S'for'
p139
S'for'
p140
S'IN'
p141
S'B-PP'
p142
g5
tp143
a(S'the'
p144
S'the'
p145
S'DT'
p146
S'B-NP'
p147
g5
tp148
a(S'treatment'
p149
S'treatment'
p150
S'NN'
p151
S'I-NP'
p152
g5
tp153
a(S'of'
p154
S'of'
p155
S'IN'
p156
S'B-PP'
p157
g5
tp158
a(S'moderate'
p159
S'moderate'
p160
S'JJ'
p161
S'B-NP'
p162
g5
tp163
a(S'or'
p164
S'or'
p165
S'CC'
p166
S'I-NP'
p167
g5
tp168
a(S'severe'
p169
S'severe'
p170
S'JJ'
p171
S'I-NP'
p172
g5
tp173
a(S'postoperative'
p174
S'postoperative'
p175
S'JJ'
p176
S'I-NP'
p177
g5
tp178
a(S'pain.'
p179
S'pain.'
p180
S'NN'
p181
S'I-NP'
p182
g5
tp183
a(S'Study'
p184
S'Study'
p185
S'NN'
p186
S'I-NP'
p187
g5
tp188
a(S'1'
p189
g189
S'CD'
p190
S'I-NP'
p191
g5
tp192
a(S'evaluated'
p193
S'evaluate'
p194
S'VBD'
p195
S'B-VP'
p196
g5
tp197
a(S'the'
p198
S'the'
p199
S'DT'
p200
S'B-NP'
p201
g5
tp202
a(S'analgesic'
p203
S'analgesic'
p204
S'JJ'
p205
S'I-NP'
p206
g5
tp207
a(S'efficacy'
p208
S'efficacy'
p209
S'NN'
p210
S'I-NP'
p211
g5
tp212
a(S'of'
p213
S'of'
p214
S'IN'
p215
S'B-PP'
p216
g5
tp217
a(S'piroxicam'
p218
S'piroxicam'
p219
S'NN'
p220
S'B-NP'
p221
g5
tp222
a(S'20'
p223
S'20'
p224
S'CD'
p225
S'I-NP'
p226
g5
tp227
a(S'mg'
p228
S'mg'
p229
S'NN'
p230
S'I-NP'
p231
g5
tp232
a(S'compared'
p233
S'compare'
p234
S'VBN'
p235
S'B-PP'
p236
g5
tp237
a(S'with'
p238
S'with'
p239
S'IN'
p240
S'B-PP'
p241
g5
tp242
a(S'that'
p243
S'that'
p244
S'DT'
p245
S'B-NP'
p246
g5
tp247
a(S'of'
p248
S'of'
p249
S'IN'
p250
S'B-PP'
p251
g5
tp252
a(S'codeine'
p253
S'codeine'
p254
S'NN'
p255
S'B-NP'
p256
g5
tp257
a(S'sulfate'
p258
S'sulfate'
p259
S'NN'
p260
S'I-NP'
p261
g5
tp262
a(S'60'
p263
S'60'
p264
S'CD'
p265
S'I-NP'
p266
g5
tp267
a(S'mg'
p268
S'mg'
p269
S'NN'
p270
S'I-NP'
p271
g5
tp272
a(S'and'
p273
S'and'
p274
S'CC'
p275
S'I-NP'
p276
g5
tp277
a(S'placebo.'
p278
S'placebo.'
p279
S'NN'
p280
S'I-NP'
p281
g5
tp282
a(S'A'
p283
g283
S'NN'
p284
S'I-NP'
p285
g5
tp286
a(S'final'
p287
S'final'
p288
S'JJ'
p289
S'I-NP'
p290
g5
tp291
a(S'patient'
p292
S'patient'
p293
S'NN'
p294
S'I-NP'
p295
g5
tp296
a(S'population'
p297
S'population'
p298
S'NN'
p299
S'I-NP'
p300
g5
tp301
a(S'of'
p302
S'of'
p303
S'IN'
p304
S'B-PP'
p305
g5
tp306
a(S'149'
p307
S'149'
p308
S'CD'
p309
S'B-NP'
p310
g5
tp311
a(S'subjects'
p312
S'subject'
p313
S'NNS'
p314
S'I-NP'
p315
g5
tp316
a(S'rated'
p317
S'rat'
p318
S'VBD'
p319
S'B-VP'
p320
g5
tp321
a(S'pain'
p322
S'pain'
p323
S'JJ'
p324
S'B-NP'
p325
g5
tp326
a(S'intensity'
p327
S'intensity'
p328
S'NN'
p329
S'I-NP'
p330
g5
tp331
a(S'and'
p332
S'and'
p333
S'CC'
p334
S'I-NP'
p335
g5
tp336
a(S'pain'
p337
S'pain'
p338
S'NN'
p339
S'I-NP'
p340
g5
tp341
a(S'relief'
p342
S'relief'
p343
S'NN'
p344
S'I-NP'
p345
g5
tp346
a(S'at'
p347
S'at'
p348
S'IN'
p349
S'B-PP'
p350
g5
tp351
a(S'one'
p352
S'one'
p353
S'CD'
p354
S'B-NP'
p355
g5
tp356
a(S'half'
p357
S'half'
p358
S'JJ'
p359
S'I-NP'
p360
g5
tp361
a(S'hour'
p362
S'hour'
p363
S'NN'
p364
S'I-NP'
p365
g5
tp366
a(S'and'
p367
S'and'
p368
S'CC'
p369
g5
g5
tp370
a(S'one'
p371
S'one'
p372
S'CD'
p373
S'B-NP'
p374
g5
tp375
a(S'hour'
p376
S'hour'
p377
S'NN'
p378
S'I-NP'
p379
g5
tp380
a(S'following'
p381
S'follow'
p382
S'VBG'
p383
S'B-PP'
p384
g5
tp385
a(S'treatment'
p386
S'treatment'
p387
S'NN'
p388
S'B-NP'
p389
g5
tp390
a(S'and'
p391
S'and'
p392
S'CC'
p393
g5
g5
tp394
a(S'then'
p395
S'then'
p396
S'RB'
p397
g5
g5
tp398
a(S'hourly'
p399
S'hourly'
p400
S'RB'
p401
S'B-ADVP'
p402
g5
tp403
a(S'for'
p404
S'for'
p405
S'IN'
p406
S'B-PP'
p407
g5
tp408
a(S'six'
p409
S'six'
p410
S'CD'
p411
S'B-NP'
p412
g5
tp413
a(S'hours'
p414
S'hour'
p415
S'NNS'
p416
S'I-NP'
p417
g5
tp418
a(g64
g64
g64
g5
g5
tp419
a(S'with'
p420
S'with'
p421
S'IN'
p422
S'B-PP'
p423
g5
tp424
a(S'a'
p425
g425
S'DT'
p426
S'B-NP'
p427
g5
tp428
a(S'global'
p429
S'global'
p430
S'JJ'
p431
S'I-NP'
p432
g5
tp433
a(S'assessment'
p434
S'assessment'
p435
S'NN'
p436
S'I-NP'
p437
g5
tp438
a(S'made'
p439
S'make'
p440
S'VBN'
p441
S'B-VP'
p442
g5
tp443
a(S'at'
p444
S'at'
p445
S'IN'
p446
S'B-PP'
p447
g5
tp448
a(S'the'
p449
S'the'
p450
S'DT'
p451
S'B-NP'
p452
g5
tp453
a(S'completion'
p454
S'completion'
p455
S'NN'
p456
S'I-NP'
p457
g5
tp458
a(S'of'
p459
S'of'
p460
S'IN'
p461
S'B-PP'
p462
g5
tp463
a(S'24'
p464
S'24'
p465
S'CD'
p466
S'B-NP'
p467
g5
tp468
a(S'hours.'
p469
S'hours.'
p470
S'NNS'
p471
S'I-NP'
p472
g5
tp473
a(S'Piroxicam'
p474
S'Piroxicam'
p475
S'NNP'
p476
S'B-NP'
p477
g5
tp478
a(S'20'
p479
S'20'
p480
S'CD'
p481
S'I-NP'
p482
g5
tp483
a(S'mg'
p484
S'mg'
p485
S'NN'
p486
S'I-NP'
p487
g5
tp488
a(S'was'
p489
S'be'
p490
S'VBD'
p491
S'B-VP'
p492
g5
tp493
a(S'significantly'
p494
S'significantly'
p495
S'RB'
p496
S'B-ADJP'
p497
g5
tp498
a(S'more'
p499
S'more'
p500
S'RBR'
p501
S'I-ADJP'
p502
g5
tp503
a(S'efficacious'
p504
S'efficacious'
p505
S'JJ'
p506
S'I-ADJP'
p507
g5
tp508
a(S'than'
p509
S'than'
p510
S'IN'
p511
S'B-PP'
p512
g5
tp513
a(S'placebo'
p514
S'placebo'
p515
S'NN'
p516
S'B-NP'
p517
g5
tp518
a(S'for'
p519
S'for'
p520
S'IN'
p521
S'B-PP'
p522
g5
tp523
a(S'all'
p524
S'all'
p525
S'DT'
p526
S'B-NP'
p527
g5
tp528
a(S'analgesic'
p529
S'analgesic'
p530
S'JJ'
p531
S'I-NP'
p532
g5
tp533
a(S'variables'
p534
S'variable'
p535
S'NNS'
p536
S'I-NP'
p537
g5
tp538
a(g64
g64
g64
g5
g5
tp539
a(S'including'
p540
S'include'
p541
S'VBG'
p542
S'B-PP'
p543
g5
tp544
a(S'the'
p545
S'the'
p546
S'DT'
p547
S'B-NP'
p548
g5
tp549
a(S'sum'
p550
S'sum'
p551
S'NN'
p552
S'I-NP'
p553
g5
tp554
a(S'of'
p555
S'of'
p556
S'IN'
p557
S'B-PP'
p558
g5
tp559
a(S'the'
p560
S'the'
p561
S'DT'
p562
S'B-NP'
p563
g5
tp564
a(S'pain'
p565
S'pain'
p566
S'NN'
p567
S'I-NP'
p568
g5
tp569
a(S'intensity'
p570
S'intensity'
p571
S'NN'
p572
S'I-NP'
p573
g5
tp574
a(S'differences'
p575
S'difference'
p576
S'NNS'
p577
S'I-NP'
p578
g5
tp579
a(S'('
p580
g580
g580
g5
g5
tp581
a(S'SPID'
p582
S'SPID'
p583
S'NN'
p584
S'B-NP'
p585
S'B-protein'
p586
tp587
a(S')'
p588
g588
g588
g5
g5
tp589
a(g64
g64
g64
g5
g5
tp590
a(S'total'
p591
S'total'
p592
S'JJ'
p593
S'B-NP'
p594
g5
tp595
a(S'pain'
p596
S'pain'
p597
S'NN'
p598
S'I-NP'
p599
g5
tp600
a(S'relief'
p601
S'relief'
p602
S'NN'
p603
S'I-NP'
p604
g5
tp605
a(g580
g580
g580
g5
g5
tp606
a(S'TOTAL'
p607
S'TOTAL'
p608
S'NN'
p609
S'B-NP'
p610
g5
tp611
a(g588
g588
g588
g5
g5
tp612
a(g64
g64
g64
g5
g5
tp613
a(S'percent'
p614
S'percent'
p615
S'NN'
p616
S'B-NP'
p617
g5
tp618
a(S'SPID'
p619
S'SPID'
p620
S'NN'
p621
S'I-NP'
p622
g5
tp623
a(g64
g64
g64
g5
g5
tp624
a(S'duration'
p625
S'duration'
p626
S'NN'
p627
S'B-NP'
p628
g5
tp629
a(S'of'
p630
S'of'
p631
S'IN'
p632
S'B-PP'
p633
g5
tp634
a(S'effect'
p635
S'effect'
p636
S'NN'
p637
S'B-NP'
p638
g5
tp639
a(g64
g64
g64
g5
g5
tp640
a(S'and'
p641
S'and'
p642
S'CC'
p643
g5
g5
tp644
a(S'time'
p645
S'time'
p646
S'NN'
p647
S'B-NP'
p648
g5
tp649
a(S'to'
p650
S'to'
p651
S'TO'
p652
S'B-VP'
p653
g5
tp654
a(S'remedication.'
p655
S'remedication.'
p656
S'VB'
p657
S'I-VP'
p658
g5
tp659
a(S'Codeine'
p660
S'Codeine'
p661
S'NN'
p662
S'B-NP'
p663
g5
tp664
a(S'60'
p665
S'60'
p666
S'CD'
p667
S'I-NP'
p668
g5
tp669
a(S'mg'
p670
S'mg'
p671
S'NN'
p672
S'I-NP'
p673
g5
tp674
a(S'was'
p675
S'be'
p676
S'VBD'
p677
S'B-VP'
p678
g5
tp679
a(S'significantly'
p680
S'significantly'
p681
S'RB'
p682
S'B-ADJP'
p683
g5
tp684
a(S'superior'
p685
S'superior'
p686
S'JJ'
p687
S'I-ADJP'
p688
g5
tp689
a(S'to'
p690
S'to'
p691
S'TO'
p692
S'B-PP'
p693
g5
tp694
a(S'placebo'
p695
S'placebo'
p696
S'NN'
p697
S'B-NP'
p698
g5
tp699
a(S'for'
p700
S'for'
p701
S'IN'
p702
S'B-PP'
p703
g5
tp704
a(S'percent'
p705
S'percent'
p706
S'NN'
p707
S'B-NP'
p708
g5
tp709
a(S'SPID'
p710
S'SPID'
p711
S'NN'
p712
S'I-NP'
p713
g5
tp714
a(S'and'
p715
S'and'
p716
S'CC'
p717
g5
g5
tp718
a(S'some'
p719
S'some'
p720
S'DT'
p721
S'B-NP'
p722
g5
tp723
a(S'hourly'
p724
S'hourly'
p725
S'JJ'
p726
S'I-NP'
p727
g5
tp728
a(S'measures.'
p729
S'measures.'
p730
S'NN'
p731
S'I-NP'
p732
g5
tp733
a(S'Piroxicam'
p734
S'Piroxicam'
p735
S'NN'
p736
S'I-NP'
p737
g5
tp738
a(S'20'
p739
S'20'
p740
S'CD'
p741
S'I-NP'
p742
g5
tp743
a(S'mg'
p744
S'mg'
p745
S'NN'
p746
S'I-NP'
p747
g5
tp748
a(S'was'
p749
S'be'
p750
S'VBD'
p751
S'B-VP'
p752
g5
tp753
a(S'significantly'
p754
S'significantly'
p755
S'RB'
p756
S'B-ADJP'
p757
g5
tp758
a(S'more'
p759
S'more'
p760
S'RBR'
p761
S'I-ADJP'
p762
g5
tp763
a(S'effective'
p764
S'effective'
p765
S'JJ'
p766
S'I-ADJP'
p767
g5
tp768
a(S'than'
p769
S'than'
p770
S'IN'
p771
S'B-PP'
p772
g5
tp773
a(S'codeine'
p774
S'codeine'
p775
S'NN'
p776
S'B-NP'
p777
g5
tp778
a(S'60'
p779
S'60'
p780
S'CD'
p781
S'I-NP'
p782
g5
tp783
a(S'mg'
p784
S'mg'
p785
S'NN'
p786
S'I-NP'
p787
g5
tp788
a(S'for'
p789
S'for'
p790
S'IN'
p791
S'B-PP'
p792
g5
tp793
a(S'percent'
p794
S'percent'
p795
S'NN'
p796
S'B-NP'
p797
g5
tp798
a(S'SPID'
p799
S'SPID'
p800
S'NN'
p801
S'I-NP'
p802
g5
tp803
a(S'and'
p804
S'and'
p805
S'CC'
p806
g5
g5
tp807
a(g425
g425
S'DT'
p808
S'B-NP'
p809
g5
tp810
a(S'few'
p811
S'few'
p812
S'JJ'
p813
S'I-NP'
p814
g5
tp815
a(S'hourly'
p816
S'hourly'
p817
S'JJ'
p818
S'I-NP'
p819
g5
tp820
a(S'measures'
p821
S'measure'
p822
S'NNS'
p823
S'I-NP'
p824
g5
tp825
a(S'including'
p826
S'include'
p827
S'VBG'
p828
S'B-PP'
p829
g5
tp830
a(S'time'
p831
S'time'
p832
S'NN'
p833
S'B-NP'
p834
g5
tp835
a(S'to'
p836
S'to'
p837
S'TO'
p838
S'B-VP'
p839
g5
tp840
a(S'remedication.'
p841
S'remedication.'
p842
S'VB'
p843
S'I-VP'
p844
g5
tp845
a(S'Study'
p846
S'Study'
p847
S'NN'
p848
S'B-NP'
p849
g5
tp850
a(S'2'
p851
g851
S'CD'
p852
S'I-NP'
p853
g5
tp854
a(S'assessed'
p855
S'assess'
p856
S'VBD'
p857
S'B-VP'
p858
g5
tp859
a(S'the'
p860
S'the'
p861
S'DT'
p862
S'B-NP'
p863
g5
tp864
a(S'efficacy'
p865
S'efficacy'
p866
S'NN'
p867
S'I-NP'
p868
g5
tp869
a(S'of'
p870
S'of'
p871
S'IN'
p872
S'B-PP'
p873
g5
tp874
a(S'piroxicam'
p875
S'piroxicam'
p876
S'NN'
p877
S'B-NP'
p878
g5
tp879
a(S'20'
p880
S'20'
p881
S'CD'
p882
S'I-NP'
p883
g5
tp884
a(S'mg'
p885
S'mg'
p886
S'NN'
p887
S'I-NP'
p888
g5
tp889
a(S'or'
p890
S'or'
p891
S'CC'
p892
S'I-NP'
p893
g5
tp894
a(S'40'
p895
S'40'
p896
S'CD'
p897
S'I-NP'
p898
g5
tp899
a(S'mg'
p900
S'mg'
p901
S'NN'
p902
S'I-NP'
p903
g5
tp904
a(S'compared'
p905
S'compare'
p906
S'VBN'
p907
S'B-PP'
p908
g5
tp909
a(S'with'
p910
S'with'
p911
S'IN'
p912
S'B-PP'
p913
g5
tp914
a(S'aspirin'
p915
S'aspirin'
p916
S'NN'
p917
S'B-NP'
p918
g5
tp919
a(S'648'
p920
S'648'
p921
S'CD'
p922
S'I-NP'
p923
g5
tp924
a(S'mg'
p925
S'mg'
p926
S'NN'
p927
S'I-NP'
p928
g5
tp929
a(S'and'
p930
S'and'
p931
S'CC'
p932
S'I-NP'
p933
g5
tp934
a(S'placebo.'
p935
S'placebo.'
p936
S'NN'
p937
S'I-NP'
p938
g5
tp939
a(S'Sixty'
p940
S'Sixty'
p941
S'CD'
p942
S'B-NP'
p943
g5
tp944
a(S'patients'
p945
S'patient'
p946
S'NNS'
p947
S'I-NP'
p948
g5
tp949
a(S'rated'
p950
S'rat'
p951
S'VBD'
p952
S'B-VP'
p953
g5
tp954
a(S'their'
p955
S'their'
p956
S'PRP$'
p957
S'B-NP'
p958
g5
tp959
a(S'pain'
p960
S'pain'
p961
S'NN'
p962
S'I-NP'
p963
g5
tp964
a(S'intensity'
p965
S'intensity'
p966
S'NN'
p967
S'I-NP'
p968
g5
tp969
a(S'and'
p970
S'and'
p971
S'CC'
p972
S'I-NP'
p973
g5
tp974
a(S'relief'
p975
S'relief'
p976
S'NN'
p977
S'I-NP'
p978
g5
tp979
a(S'hourly'
p980
S'hourly'
p981
S'RB'
p982
S'B-ADVP'
p983
g5
tp984
a(S'for'
p985
S'for'
p986
S'IN'
p987
S'B-PP'
p988
g5
tp989
a(S'12'
p990
S'12'
p991
S'CD'
p992
S'B-NP'
p993
g5
tp994
a(S'hours'
p995
S'hour'
p996
S'NNS'
p997
S'I-NP'
p998
g5
tp999
a(S'and'
p1000
S'and'
p1001
S'CC'
p1002
S'B-PP'
p1003
g5
tp1004
a(S'at'
p1005
S'at'
p1006
S'IN'
p1007
S'B-PP'
p1008
g5
tp1009
a(S'24'
p1010
S'24'
p1011
S'CD'
p1012
S'B-NP'
p1013
g5
tp1014
a(S'hours'
p1015
S'hour'
p1016
S'NNS'
p1017
S'I-NP'
p1018
g5
tp1019
a(S'after'
p1020
S'after'
p1021
S'IN'
p1022
S'B-PP'
p1023
g5
tp1024
a(S'administration'
p1025
S'administration'
p1026
S'NN'
p1027
S'B-NP'
p1028
g5
tp1029
a(S'of'
p1030
S'of'
p1031
S'IN'
p1032
S'B-PP'
p1033
g5
tp1034
a(S'study'
p1035
S'study'
p1036
S'NN'
p1037
S'B-NP'
p1038
g5
tp1039
a(S'medication.'
p1040
S'medication.'
p1041
S'VBP'
p1042
S'B-VP'
p1043
g5
tp1044
a(S'Both'
p1045
S'Both'
p1046
S'DT'
p1047
S'B-NP'
p1048
g5
tp1049
a(S'doses'
p1050
S'dose'
p1051
S'NNS'
p1052
S'I-NP'
p1053
g5
tp1054
a(S'of'
p1055
S'of'
p1056
S'IN'
p1057
S'B-PP'
p1058
g5
tp1059
a(S'piroxicam'
p1060
S'piroxicam'
p1061
S'NN'
p1062
S'B-NP'
p1063
g5
tp1064
a(S'were'
p1065
S'be'
p1066
S'VBD'
p1067
S'B-VP'
p1068
g5
tp1069
a(S'significantly'
p1070
S'significantly'
p1071
S'RB'
p1072
S'B-ADJP'
p1073
g5
tp1074
a(S'more'
p1075
S'more'
p1076
S'RBR'
p1077
S'I-ADJP'
p1078
g5
tp1079
a(S'effective'
p1080
S'effective'
p1081
S'JJ'
p1082
S'I-ADJP'
p1083
g5
tp1084
a(S'than'
p1085
S'than'
p1086
S'IN'
p1087
S'B-PP'
p1088
g5
tp1089
a(S'placebo'
p1090
S'placebo'
p1091
S'NN'
p1092
S'B-NP'
p1093
g5
tp1094
a(S'from'
p1095
S'from'
p1096
S'IN'
p1097
S'B-PP'
p1098
g5
tp1099
a(S'Hours'
p1100
S'Hour'
p1101
S'NNS'
p1102
S'B-NP'
p1103
g5
tp1104
a(g851
g851
S'CD'
p1105
S'B-NP'
p1106
g5
tp1107
a(S'to'
p1108
S'to'
p1109
S'TO'
p1110
S'B-PP'
p1111
g5
tp1112
a(S'12'
p1113
S'12'
p1114
S'CD'
p1115
S'B-NP'
p1116
g5
tp1117
a(S'for'
p1118
S'for'
p1119
S'IN'
p1120
S'B-PP'
p1121
g5
tp1122
a(S'pain'
p1123
S'pain'
p1124
S'NN'
p1125
S'B-NP'
p1126
g5
tp1127
a(S'intensity'
p1128
S'intensity'
p1129
S'NN'
p1130
S'I-NP'
p1131
g5
tp1132
a(S'difference'
p1133
S'difference'
p1134
S'NN'
p1135
S'I-NP'
p1136
g5
tp1137
a(g580
g580
g580
g5
g5
tp1138
a(S'PID'
p1139
S'PID'
p1140
S'NN'
p1141
S'B-NP'
p1142
g5
tp1143
a(g588
g588
g588
g5
g5
tp1144
a(S'and'
p1145
S'and'
p1146
S'CC'
p1147
g5
g5
tp1148
a(S'relief'
p1149
S'relief'
p1150
S'NN'
p1151
S'B-NP'
p1152
g5
tp1153
a(S'scores'
p1154
S'score'
p1155
S'NNS'
p1156
S'I-NP'
p1157
g5
tp1158
a(g64
g64
g64
g5
g5
tp1159
a(S'as'
p1160
S'as'
p1161
S'RB'
p1162
S'B-CONJP'
p1163
g5
tp1164
a(S'well'
p1165
S'well'
p1166
S'RB'
p1167
S'I-CONJP'
p1168
g5
tp1169
a(S'as'
p1170
S'as'
p1171
S'IN'
p1172
S'I-CONJP'
p1173
g5
tp1174
a(S'for'
p1175
S'for'
p1176
S'IN'
p1177
S'B-PP'
p1178
g5
tp1179
a(S'SPID'
p1180
S'SPID'
p1181
S'NNP'
p1182
S'B-NP'
p1183
g5
tp1184
a(S'and'
p1185
S'and'
p1186
S'CC'
p1187
g5
g5
tp1188
a(S'TOTAL.'
p1189
S'TOTAL.'
p1190
S'NNP'
p1191
S'B-NP'
p1192
g5
tp1193
a(S'Aspirin'
p1194
S'Aspirin'
p1195
S'NNP'
p1196
S'I-NP'
p1197
g5
tp1198
a(S'was'
p1199
S'be'
p1200
S'VBD'
p1201
S'B-VP'
p1202
g5
tp1203
a(S'significantly'
p1204
S'significantly'
p1205
S'RB'
p1206
S'B-ADJP'
p1207
g5
tp1208
a(S'more'
p1209
S'more'
p1210
S'RBR'
p1211
S'I-ADJP'
p1212
g5
tp1213
a(S'effective'
p1214
S'effective'
p1215
S'JJ'
p1216
S'I-ADJP'
p1217
g5
tp1218
a(S'than'
p1219
S'than'
p1220
S'IN'
p1221
S'B-PP'
p1222
g5
tp1223
a(S'placebo'
p1224
S'placebo'
p1225
S'NN'
p1226
S'B-NP'
p1227
g5
tp1228
a(S'from'
p1229
S'from'
p1230
S'IN'
p1231
S'B-PP'
p1232
g5
tp1233
a(S'Hours'
p1234
S'Hour'
p1235
S'NNS'
p1236
S'B-NP'
p1237
g5
tp1238
a(g851
g851
S'CD'
p1239
S'B-NP'
p1240
g5
tp1241
a(S'to'
p1242
S'to'
p1243
S'TO'
p1244
S'B-PP'
p1245
g5
tp1246
a(S'8'
p1247
g1247
S'CD'
p1248
S'B-NP'
p1249
g5
tp1250
a(S'for'
p1251
S'for'
p1252
S'IN'
p1253
S'B-PP'
p1254
g5
tp1255
a(S'relief'
p1256
S'relief'
p1257
S'NN'
p1258
S'B-NP'
p1259
g5
tp1260
a(S'and'
p1261
S'and'
p1262
S'CC'
p1263
S'I-NP'
p1264
g5
tp1265
a(S'Hours'
p1266
S'Hour'
p1267
S'NNS'
p1268
S'I-NP'
p1269
g5
tp1270
a(g851
g851
S'CD'
p1271
S'B-NP'
p1272
g5
tp1273
a(S'to'
p1274
S'to'
p1275
S'TO'
p1276
S'B-PP'
p1277
g5
tp1278
a(S'10'
p1279
S'10'
p1280
S'CD'
p1281
S'B-NP'
p1282
g5
tp1283
a(S'for'
p1284
S'for'
p1285
S'IN'
p1286
S'B-PP'
p1287
g5
tp1288
a(S'PID'
p1289
S'PID'
p1290
S'NN'
p1291
S'B-NP'
p1292
S'B-protein'
p1293
tp1294
a(S'as'
p1295
S'as'
p1296
S'RB'
p1297
S'B-CONJP'
p1298
g5
tp1299
a(S'well'
p1300
S'well'
p1301
S'RB'
p1302
S'I-CONJP'
p1303
g5
tp1304
a(S'as'
p1305
S'as'
p1306
S'IN'
p1307
S'I-CONJP'
p1308
g5
tp1309
a(S'SPID'
p1310
S'SPID'
p1311
S'NNP'
p1312
S'B-NP'
p1313
g5
tp1314
a(S'and'
p1315
S'and'
p1316
S'CC'
p1317
S'I-NP'
p1318
g5
tp1319
a(S'TOTAL.'
p1320
S'TOTAL.'
p1321
S'NNP'
p1322
S'I-NP'
p1323
g5
tp1324
a(S'Piroxicam'
p1325
S'Piroxicam'
p1326
S'NNP'
p1327
S'I-NP'
p1328
g5
tp1329
a(S'40'
p1330
S'40'
p1331
S'CD'
p1332
S'I-NP'
p1333
g5
tp1334
a(S'mg'
p1335
S'mg'
p1336
S'NN'
p1337
S'I-NP'
p1338
g5
tp1339
a(S'was'
p1340
S'be'
p1341
S'VBD'
p1342
S'B-VP'
p1343
g5
tp1344
a(S'significantly'
p1345
S'significantly'
p1346
S'RB'
p1347
S'B-ADJP'
p1348
g5
tp1349
a(S'more'
p1350
S'more'
p1351
S'RBR'
p1352
S'I-ADJP'
p1353
g5
tp1354
a(S'effective'
p1355
S'effective'
p1356
S'JJ'
p1357
S'I-ADJP'
p1358
g5
tp1359
a(S'than'
p1360
S'than'
p1361
S'IN'
p1362
S'B-PP'
p1363
g5
tp1364
a(S'aspirin'
p1365
S'aspirin'
p1366
S'NN'
p1367
S'B-NP'
p1368
g5
tp1369
a(S'648'
p1370
S'648'
p1371
S'CD'
p1372
S'I-NP'
p1373
g5
tp1374
a(S'mg'
p1375
S'mg'
p1376
S'NN'
p1377
S'I-NP'
p1378
g5
tp1379
a(S'for'
p1380
S'for'
p1381
S'IN'
p1382
S'B-PP'
p1383
g5
tp1384
a(S'SPID'
p1385
S'SPID'
p1386
S'NN'
p1387
S'B-NP'
p1388
S'B-protein'
p1389
tp1390
a(g64
g64
g64
g5
g5
tp1391
a(S'TOTAL'
p1392
S'TOTAL'
p1393
S'NN'
p1394
S'B-NP'
p1395
g5
tp1396
a(g64
g64
g64
g5
g5
tp1397
a(S'and'
p1398
S'and'
p1399
S'CC'
p1400
g5
g5
tp1401
a(S'hourly'
p1402
S'hourly'
p1403
S'JJ'
p1404
S'B-NP'
p1405
g5
tp1406
a(S'measures'
p1407
S'measure'
p1408
S'NNS'
p1409
S'I-NP'
p1410
g5
tp1411
a(S'beginning'
p1412
S'begin'
p1413
S'VBG'
p1414
S'B-VP'
p1415
g5
tp1416
a(S'with'
p1417
S'with'
p1418
S'IN'
p1419
S'B-PP'
p1420
g5
tp1421
a(S'Hour'
p1422
S'Hour'
p1423
S'NNP'
p1424
S'B-NP'
p1425
S'B-protein'
p1426
tp1427
a(S'6'
p1428
g1428
S'CD'
p1429
S'I-NP'
p1430
S'I-protein'
p1431
tp1432
a(S'through'
p1433
S'through'
p1434
S'IN'
p1435
S'B-PP'
p1436
g5
tp1437
a(S'Hour'
p1438
S'Hour'
p1439
S'NNP'
p1440
S'B-NP'
p1441
g5
tp1442
a(S'12.'
p1443
S'12.'
p1444
S'CD'
p1445
S'I-NP'
p1446
g5
tp1447
a(S'Piroxicam'
p1448
S'Piroxicam'
p1449
S'NNP'
p1450
S'I-NP'
p1451
g5
tp1452
a(S'20'
p1453
S'20'
p1454
S'CD'
p1455
S'I-NP'
p1456
g5
tp1457
a(S'mg'
p1458
S'mg'
p1459
S'NN'
p1460
S'I-NP'
p1461
g5
tp1462
a(S'was'
p1463
S'be'
p1464
S'VBD'
p1465
S'B-VP'
p1466
g5
tp1467
a(S'significantly'
p1468
S'significantly'
p1469
S'RB'
p1470
S'B-ADJP'
p1471
g5
tp1472
a(S'better'
p1473
S'good'
p1474
S'JJR'
p1475
S'I-ADJP'
p1476
g5
tp1477
a(S'than'
p1478
S'than'
p1479
S'IN'
p1480
S'B-PP'
p1481
g5
tp1482
a(S'aspirin'
p1483
S'aspirin'
p1484
S'NN'
p1485
S'B-NP'
p1486
g5
tp1487
a(S'for'
p1488
S'for'
p1489
S'IN'
p1490
S'B-PP'
p1491
g5
tp1492
a(g425
g425
S'DT'
p1493
S'B-NP'
p1494
g5
tp1495
a(S'few'
p1496
S'few'
p1497
S'JJ'
p1498
S'I-NP'
p1499
g5
tp1500
a(S'hourly'
p1501
S'hourly'
p1502
S'JJ'
p1503
S'I-NP'
p1504
g5
tp1505
a(S'measures'
p1506
S'measure'
p1507
S'NNS'
p1508
S'I-NP'
p1509
g5
tp1510
a(S':'
p1511
g1511
g1511
g5
g5
tp1512
a(S'Hours'
p1513
S'Hour'
p1514
S'NNS'
p1515
S'B-NP'
p1516
g5
tp1517
a(S'7'
p1518
g1518
S'CD'
p1519
S'B-NP'
p1520
g5
tp1521
a(S'to'
p1522
S'to'
p1523
S'TO'
p1524
S'B-PP'
p1525
g5
tp1526
a(S'9'
p1527
g1527
S'CD'
p1528
S'B-NP'
p1529
g5
tp1530
a(S'for'
p1531
S'for'
p1532
S'IN'
p1533
S'B-PP'
p1534
g5
tp1535
a(S'relief'
p1536
S'relief'
p1537
S'NN'
p1538
S'B-NP'
p1539
g5
tp1540
a(S'and'
p1541
S'and'
p1542
S'CC'
p1543
g5
g5
tp1544
a(S'Hour'
p1545
S'Hour'
p1546
S'PRP$'
p1547
S'B-NP'
p1548
S'B-protein'
p1549
tp1550
a(g1518
g1518
S'CD'
p1551
S'I-NP'
p1552
S'I-protein'
p1553
tp1554
a(S'for'
p1555
S'for'
p1556
S'IN'
p1557
S'B-PP'
p1558
g5
tp1559
a(S'PID.'
p1560
S'PID.'
p1561
S'NN'
p1562
S'B-NP'
p1563
S'B-protein'
p1564
tp1565
a(S'In'
p1566
S'In'
p1567
S'IN'
p1568
S'B-PP'
p1569
g5
tp1570
a(S'addition'
p1571
S'addition'
p1572
S'NN'
p1573
S'B-NP'
p1574
g5
tp1575
a(g64
g64
g64
g5
g5
tp1576
a(S'effects'
p1577
S'effect'
p1578
S'NNS'
p1579
S'B-NP'
p1580
g5
tp1581
a(S'of'
p1582
S'of'
p1583
S'IN'
p1584
S'B-PP'
p1585
g5
tp1586
a(S'piroxicam'
p1587
S'piroxicam'
p1588
S'NN'
p1589
S'B-NP'
p1590
g5
tp1591
a(S'20'
p1592
S'20'
p1593
S'CD'
p1594
S'I-NP'
p1595
g5
tp1596
a(S'mg'
p1597
S'mg'
p1598
S'NN'
p1599
S'I-NP'
p1600
g5
tp1601
a(S'had'
p1602
S'have'
p1603
S'VBD'
p1604
S'B-VP'
p1605
g5
tp1606
a(g425
g425
S'DT'
p1607
S'B-NP'
p1608
g5
tp1609
a(S'significantly'
p1610
S'significantly'
p1611
S'RB'
p1612
S'I-NP'
p1613
g5
tp1614
a(S'longer'
p1615
S'long'
p1616
S'JJR'
p1617
S'I-NP'
p1618
g5
tp1619
a(S'duration'
p1620
S'duration'
p1621
S'NN'
p1622
S'I-NP'
p1623
g5
tp1624
a(S'than'
p1625
S'than'
p1626
S'IN'
p1627
S'B-PP'
p1628
g5
tp1629
a(S'aspirin.'
p1630
S'aspirin.'
p1631
S'NN'
p1632
S'B-NP'
p1633
g5
tp1634
a(S'Similarly'
p1635
S'Similarly'
p1636
S'RB'
p1637
S'B-ADVP'
p1638
g5
tp1639
a(g64
g64
g64
g5
g5
tp1640
a(S'piroxicam'
p1641
S'piroxicam'
p1642
S'NN'
p1643
S'B-NP'
p1644
g5
tp1645
a(S'20'
p1646
S'20'
p1647
S'CD'
p1648
S'I-NP'
p1649
g5
tp1650
a(S'mg'
p1651
S'mg'
p1652
S'NN'
p1653
S'I-NP'
p1654
g5
tp1655
a(S'had'
p1656
S'have'
p1657
S'VBD'
p1658
S'B-VP'
p1659
g5
tp1660
a(g425
g425
S'DT'
p1661
S'B-NP'
p1662
g5
tp1663
a(S'significantly'
p1664
S'significantly'
p1665
S'RB'
p1666
S'I-NP'
p1667
g5
tp1668
a(S'longer'
p1669
S'long'
p1670
S'JJR'
p1671
S'I-NP'
p1672
g5
tp1673
a(S'time'
p1674
S'time'
p1675
S'NN'
p1676
S'I-NP'
p1677
g5
tp1678
a(S'to'
p1679
S'to'
p1680
S'TO'
p1681
S'B-PP'
p1682
g5
tp1683
a(S'remedication'
p1684
S'remedication'
p1685
S'NN'
p1686
S'B-NP'
p1687
g5
tp1688
a(S'compared'
p1689
S'compare'
p1690
S'VBN'
p1691
S'B-PP'
p1692
g5
tp1693
a(S'with'
p1694
S'with'
p1695
S'IN'
p1696
S'B-PP'
p1697
g5
tp1698
a(S'aspirin'
p1699
S'aspirin'
p1700
S'NN'
p1701
S'B-NP'
p1702
g5
tp1703
a(S'and'
p1704
S'and'
p1705
S'CC'
p1706
S'I-NP'
p1707
g5
tp1708
a(S'placebo.'
p1709
S'placebo.'
p1710
S'NN'
p1711
S'I-NP'
p1712
g5
tp1713
a(S'The'
p1714
S'The'
p1715
S'DT'
p1716
S'B-NP'
p1717
g5
tp1718
a(S'results'
p1719
S'result'
p1720
S'NNS'
p1721
S'I-NP'
p1722
g5
tp1723
a(S'of'
p1724
S'of'
p1725
S'IN'
p1726
S'B-PP'
p1727
g5
tp1728
a(S'these'
p1729
S'these'
p1730
S'DT'
p1731
S'B-NP'
p1732
g5
tp1733
a(S'studies'
p1734
S'study'
p1735
S'NNS'
p1736
S'I-NP'
p1737
g5
tp1738
a(S'provide'
p1739
S'provide'
p1740
S'VBP'
p1741
S'B-VP'
p1742
g5
tp1743
a(S'evidence'
p1744
S'evidence'
p1745
S'NN'
p1746
S'B-NP'
p1747
g5
tp1748
a(S'in'
p1749
S'in'
p1750
S'IN'
p1751
S'B-PP'
p1752
g5
tp1753
a(S'support'
p1754
S'support'
p1755
S'NN'
p1756
S'B-NP'
p1757
g5
tp1758
a(S'of'
p1759
S'of'
p1760
S'IN'
p1761
S'B-PP'
p1762
g5
tp1763
a(S'the'
p1764
S'the'
p1765
S'DT'
p1766
S'B-NP'
p1767
g5
tp1768
a(S'longer'
p1769
S'long'
p1770
S'JJR'
p1771
S'I-NP'
p1772
g5
tp1773
a(S'duration'
p1774
S'duration'
p1775
S'NN'
p1776
S'I-NP'
p1777
g5
tp1778
a(S'of'
p1779
S'of'
p1780
S'IN'
p1781
S'B-PP'
p1782
g5
tp1783
a(S'analgesic'
p1784
S'analgesic'
p1785
S'JJ'
p1786
S'B-NP'
p1787
g5
tp1788
a(S'efficacy'
p1789
S'efficacy'
p1790
S'NN'
p1791
S'I-NP'
p1792
g5
tp1793
a(S'of'
p1794
S'of'
p1795
S'IN'
p1796
S'B-PP'
p1797
g5
tp1798
a(S'piroxicam'
p1799
S'piroxicam'
p1800
S'NN'
p1801
S'B-NP'
p1802
g5
tp1803
a(S'compared'
p1804
S'compare'
p1805
S'VBN'
p1806
S'B-PP'
p1807
g5
tp1808
a(S'with'
p1809
S'with'
p1810
S'IN'
p1811
S'B-PP'
p1812
g5
tp1813
a(S'codeine'
p1814
S'codeine'
p1815
S'NN'
p1816
S'B-NP'
p1817
g5
tp1818
a(S'or'
p1819
S'or'
p1820
S'CC'
p1821
S'I-NP'
p1822
g5
tp1823
a(S'aspirin'
p1824
S'aspirin'
p1825
S'NN'
p1826
S'I-NP'
p1827
g5
tp1828
a(S'in'
p1829
S'in'
p1830
S'IN'
p1831
S'B-PP'
p1832
g5
tp1833
a(S'patients'
p1834
S'patient'
p1835
S'NNS'
p1836
S'B-NP'
p1837
g5
tp1838
a(S'with'
p1839
S'with'
p1840
S'IN'
p1841
S'B-PP'
p1842
g5
tp1843
a(S'postoperative'
p1844
S'postoperative'
p1845
S'JJ'
p1846
S'B-NP'
p1847
g5
tp1848
a(S'pain'
p1849
S'pain'
p1850
S'NN'
p1851
S'I-NP'
p1852
g5
tp1853
a(g52
g52
g52
g5
g5
tp1854
a.