(lp0
(S'Lanthanum'
p1
S'Lanthanum'
p2
S'NN'
p3
S'B-NP'
p4
S'O'
p5
tp6
a(S'carbonate'
p7
S'carbonate'
p8
S'NN'
p9
S'I-NP'
p10
g5
tp11
a(S'('
p12
g12
g12
g5
g5
tp13
a(S'Fosrenol'
p14
S'Fosrenol'
p15
S'NN'
p16
S'B-NP'
p17
g5
tp18
a(S')'
p19
g19
g19
g5
g5
tp20
a(S'efficacy'
p21
S'efficacy'
p22
S'NN'
p23
S'B-NP'
p24
g5
tp25
a(S'and'
p26
S'and'
p27
S'CC'
p28
S'I-NP'
p29
g5
tp30
a(S'tolerability'
p31
S'tolerability'
p32
S'NN'
p33
S'I-NP'
p34
g5
tp35
a(S'in'
p36
S'in'
p37
S'IN'
p38
S'B-PP'
p39
g5
tp40
a(S'the'
p41
S'the'
p42
S'DT'
p43
S'B-NP'
p44
g5
tp45
a(S'treatment'
p46
S'treatment'
p47
S'NN'
p48
S'I-NP'
p49
g5
tp50
a(S'of'
p51
S'of'
p52
S'IN'
p53
S'B-PP'
p54
g5
tp55
a(S'hyperphosphatemic'
p56
S'hyperphosphatemic'
p57
S'JJ'
p58
S'B-NP'
p59
g5
tp60
a(S'patients'
p61
S'patient'
p62
S'NNS'
p63
S'I-NP'
p64
g5
tp65
a(S'with'
p66
S'with'
p67
S'IN'
p68
S'B-PP'
p69
g5
tp70
a(S'end-stage'
p71
S'end-stage'
p72
S'JJ'
p73
S'B-NP'
p74
g5
tp75
a(S'renal'
p76
S'renal'
p77
S'JJ'
p78
S'I-NP'
p79
g5
tp80
a(S'disease'
p81
S'disease'
p82
S'NN'
p83
S'I-NP'
p84
g5
tp85
a(S'.'
p86
g86
g86
g5
g5
tp87
a(S'AIMS'
p88
S'AIMS'
p89
S'NNS'
p90
S'B-NP'
p91
g5
tp92
a(S'High'
p93
S'High'
p94
S'JJ'
p95
S'I-NP'
p96
g5
tp97
a(S'serum'
p98
S'serum'
p99
S'NN'
p100
S'I-NP'
p101
g5
tp102
a(S'phosphorus'
p103
S'phosphorus'
p104
S'NN'
p105
S'I-NP'
p106
g5
tp107
a(S'levels'
p108
S'level'
p109
S'NNS'
p110
S'I-NP'
p111
g5
tp112
a(S'are'
p113
S'be'
p114
S'VBP'
p115
S'B-VP'
p116
g5
tp117
a(S'a'
p118
g118
S'DT'
p119
S'B-NP'
p120
g5
tp121
a(S'common'
p122
S'common'
p123
S'JJ'
p124
S'I-NP'
p125
g5
tp126
a(S'problem'
p127
S'problem'
p128
S'NN'
p129
S'I-NP'
p130
g5
tp131
a(S'in'
p132
S'in'
p133
S'IN'
p134
S'B-PP'
p135
g5
tp136
a(S'patients'
p137
S'patient'
p138
S'NNS'
p139
S'B-NP'
p140
g5
tp141
a(S'receiving'
p142
S'receive'
p143
S'VBG'
p144
S'B-VP'
p145
g5
tp146
a(S'long-term'
p147
S'long-term'
p148
S'JJ'
p149
S'B-NP'
p150
g5
tp151
a(S'dialysis'
p152
S'dialysis'
p153
S'NN'
p154
S'I-NP'
p155
g5
tp156
a(S'treatment.'
p157
S'treatment.'
p158
S'NN'
p159
S'I-NP'
p160
g5
tp161
a(S'Lanthanum'
p162
S'Lanthanum'
p163
S'NN'
p164
S'I-NP'
p165
g5
tp166
a(S'carbonate'
p167
S'carbonate'
p168
S'NN'
p169
S'I-NP'
p170
g5
tp171
a(g12
g12
g12
g5
g5
tp172
a(S'Fosrenol'
p173
S'Fosrenol'
p174
S'NN'
p175
S'B-NP'
p176
g5
tp177
a(g19
g19
g19
g5
g5
tp178
a(S'is'
p179
S'be'
p180
S'VBZ'
p181
S'B-VP'
p182
g5
tp183
a(g118
g118
S'DT'
p184
S'B-NP'
p185
g5
tp186
a(S'new'
p187
S'new'
p188
S'JJ'
p189
S'I-NP'
p190
g5
tp191
a(S'non-aluminum'
p192
S'non-aluminum'
p193
S'JJ'
p194
S'I-NP'
p195
g5
tp196
a(S','
p197
g197
g197
S'I-NP'
p198
g5
tp199
a(S'non-calcium'
p200
S'non-calcium'
p201
S'JJ'
p202
S'I-NP'
p203
g5
tp204
a(S'phosphate'
p205
S'phosphate'
p206
S'NN'
p207
S'I-NP'
p208
g5
tp209
a(S'binder'
p210
S'binder'
p211
S'NN'
p212
S'I-NP'
p213
g5
tp214
a(S'developed'
p215
S'develop'
p216
S'VBN'
p217
S'B-VP'
p218
g5
tp219
a(S'for'
p220
S'for'
p221
S'IN'
p222
S'B-PP'
p223
g5
tp224
a(S'the'
p225
S'the'
p226
S'DT'
p227
S'B-NP'
p228
g5
tp229
a(S'treatment'
p230
S'treatment'
p231
S'NN'
p232
S'I-NP'
p233
g5
tp234
a(S'of'
p235
S'of'
p236
S'IN'
p237
S'B-PP'
p238
g5
tp239
a(S'hyperphosphatemia'
p240
S'hyperphosphatemia'
p241
S'NN'
p242
S'B-NP'
p243
g5
tp244
a(S'in'
p245
S'in'
p246
S'IN'
p247
S'B-PP'
p248
g5
tp249
a(S'patients'
p250
S'patient'
p251
S'NNS'
p252
S'B-NP'
p253
g5
tp254
a(S'with'
p255
S'with'
p256
S'IN'
p257
S'B-PP'
p258
g5
tp259
a(S'end-stage'
p260
S'end-stage'
p261
S'JJ'
p262
S'B-NP'
p263
g5
tp264
a(S'renal'
p265
S'renal'
p266
S'JJ'
p267
S'I-NP'
p268
g5
tp269
a(S'disease'
p270
S'disease'
p271
S'NN'
p272
S'I-NP'
p273
g5
tp274
a(g12
g12
g12
g5
g5
tp275
a(S'ESRD'
p276
S'ESRD'
p277
S'NN'
p278
S'B-NP'
p279
g5
tp280
a(g19
g19
g19
g5
g5
tp281
a(g86
g86
g86
g5
g5
tp282
a(S'We'
p283
S'We'
p284
S'PRP'
p285
S'B-NP'
p286
g5
tp287
a(S'report'
p288
S'report'
p289
S'VBP'
p290
S'B-VP'
p291
g5
tp292
a(S'data'
p293
S'datum'
p294
S'NNS'
p295
S'B-NP'
p296
g5
tp297
a(S'from'
p298
S'from'
p299
S'IN'
p300
S'B-PP'
p301
g5
tp302
a(g118
g118
S'DT'
p303
S'B-NP'
p304
g5
tp305
a(S'recent'
p306
S'recent'
p307
S'JJ'
p308
S'I-NP'
p309
g5
tp310
a(S'trial'
p311
S'trial'
p312
S'NN'
p313
S'I-NP'
p314
g5
tp315
a(g197
g197
g197
g5
g5
tp316
a(S'which'
p317
S'which'
p318
S'WDT'
p319
S'B-NP'
p320
g5
tp321
a(g197
g197
g197
g5
g5
tp322
a(S'for'
p323
S'for'
p324
S'IN'
p325
S'B-PP'
p326
g5
tp327
a(S'the'
p328
S'the'
p329
S'DT'
p330
S'B-NP'
p331
g5
tp332
a(S'first'
p333
S'first'
p334
S'JJ'
p335
S'I-NP'
p336
g5
tp337
a(S'time'
p338
S'time'
p339
S'NN'
p340
S'I-NP'
p341
g5
tp342
a(g197
g197
g197
g5
g5
tp343
a(S'assessed'
p344
S'assess'
p345
S'VBD'
p346
S'B-VP'
p347
g5
tp348
a(S'the'
p349
S'the'
p350
S'DT'
p351
S'B-NP'
p352
g5
tp353
a(S'efficacy'
p354
S'efficacy'
p355
S'NN'
p356
S'I-NP'
p357
g5
tp358
a(S'and'
p359
S'and'
p360
S'CC'
p361
S'I-NP'
p362
g5
tp363
a(S'tolerability'
p364
S'tolerability'
p365
S'NN'
p366
S'I-NP'
p367
g5
tp368
a(S'of'
p369
S'of'
p370
S'IN'
p371
S'B-PP'
p372
g5
tp373
a(S'lanthanum'
p374
S'lanthanum'
p375
S'NN'
p376
S'B-NP'
p377
g5
tp378
a(S'carbonate'
p379
S'carbonate'
p380
S'NN'
p381
S'I-NP'
p382
g5
tp383
a(S'treatment'
p384
S'treatment'
p385
S'NN'
p386
S'I-NP'
p387
g5
tp388
a(g197
g197
g197
g5
g5
tp389
a(S'compared'
p390
S'compare'
p391
S'VBN'
p392
S'B-PP'
p393
g5
tp394
a(S'with'
p395
S'with'
p396
S'IN'
p397
S'B-PP'
p398
g5
tp399
a(S'placebo'
p400
S'placebo'
p401
S'NN'
p402
S'B-NP'
p403
g5
tp404
a(g197
g197
g197
g5
g5
tp405
a(S'in'
p406
S'in'
p407
S'IN'
p408
S'B-PP'
p409
g5
tp410
a(S'Chinese'
p411
S'Chinese'
p412
S'JJ'
p413
S'B-NP'
p414
g5
tp415
a(S'patients'
p416
S'patient'
p417
S'NNS'
p418
S'I-NP'
p419
g5
tp420
a(S'with'
p421
S'with'
p422
S'IN'
p423
S'B-PP'
p424
g5
tp425
a(S'ESRD'
p426
S'ESRD'
p427
S'NN'
p428
S'B-NP'
p429
g5
tp430
a(g86
g86
g86
g5
g5
tp431
a(S'PATIENTS'
p432
S'PATIENTS'
p433
S'NNS'
p434
S'B-NP'
p435
g5
tp436
a(S'AND'
p437
S'AND'
p438
S'CC'
p439
S'I-NP'
p440
g5
tp441
a(S'METHODS'
p442
S'METHODS'
p443
S'NNS'
p444
S'I-NP'
p445
g5
tp446
a(S'Following'
p447
S'Follow'
p448
S'VBG'
p449
S'B-VP'
p450
g5
tp451
a(g118
g118
S'DT'
p452
S'B-NP'
p453
g5
tp454
a(S'one-'
p455
S'one-'
p456
S'CD'
p457
S'I-NP'
p458
g5
tp459
a(S'to'
p460
S'to'
p461
S'TO'
p462
S'B-PP'
p463
g5
tp464
a(S'three-week'
p465
S'three-week'
p466
S'JJ'
p467
S'B-NP'
p468
g5
tp469
a(S'washout'
p470
S'washout'
p471
S'NN'
p472
S'I-NP'
p473
g5
tp474
a(S'phase'
p475
S'phase'
p476
S'NN'
p477
S'I-NP'
p478
g5
tp479
a(S'and'
p480
S'and'
p481
S'CC'
p482
g5
g5
tp483
a(g118
g118
S'DT'
p484
S'B-NP'
p485
g5
tp486
a(S'four-week'
p487
S'four-week'
p488
S'JJ'
p489
S'I-NP'
p490
g5
tp491
a(g197
g197
g197
S'I-NP'
p492
g5
tp493
a(S'open-label'
p494
S'open-label'
p495
S'JJ'
p496
S'I-NP'
p497
g5
tp498
a(S'lanthanum'
p499
S'lanthanum'
p500
S'NN'
p501
S'I-NP'
p502
g5
tp503
a(S'carbonate'
p504
S'carbonate'
p505
S'NN'
p506
S'I-NP'
p507
g5
tp508
a(S'dose-titration'
p509
S'dose-titration'
p510
S'NN'
p511
S'I-NP'
p512
g5
tp513
a(S'phase'
p514
S'phase'
p515
S'NN'
p516
S'I-NP'
p517
g5
tp518
a(g197
g197
g197
g5
g5
tp519
a(S'male'
p520
S'male'
p521
S'JJ'
p522
S'B-NP'
p523
g5
tp524
a(S'and'
p525
S'and'
p526
S'CC'
p527
S'I-NP'
p528
g5
tp529
a(S'female'
p530
S'female'
p531
S'JJ'
p532
S'I-NP'
p533
g5
tp534
a(S'hemodialysis'
p535
S'hemodialysis'
p536
S'NN'
p537
S'I-NP'
p538
g5
tp539
a(S'patients'
p540
S'patient'
p541
S'NNS'
p542
S'I-NP'
p543
g5
tp544
a(S'were'
p545
S'be'
p546
S'VBD'
p547
S'B-VP'
p548
g5
tp549
a(S'randomized'
p550
S'randomize'
p551
S'VBN'
p552
S'I-VP'
p553
g5
tp554
a(g12
g12
g12
g5
g5
tp555
a(S'1'
p556
g556
S'CD'
p557
S'B-NP'
p558
g5
tp559
a(S':'
p560
g560
S'SYM'
p561
S'B-NP'
p562
g5
tp563
a(g556
g556
S'CD'
p564
S'I-NP'
p565
g5
tp566
a(g19
g19
g19
g5
g5
tp567
a(S'to'
p568
S'to'
p569
S'TO'
p570
S'B-VP'
p571
g5
tp572
a(S'receive'
p573
S'receive'
p574
S'VB'
p575
S'I-VP'
p576
g5
tp577
a(S'either'
p578
S'either'
p579
S'CC'
p580
S'I-VP'
p581
g5
tp582
a(S'lanthanum'
p583
S'lanthanum'
p584
S'VB'
p585
S'I-VP'
p586
g5
tp587
a(S'carbonate'
p588
S'carbonate'
p589
S'NN'
p590
S'B-NP'
p591
g5
tp592
a(S'or'
p593
S'or'
p594
S'CC'
p595
S'I-NP'
p596
g5
tp597
a(S'placebo'
p598
S'placebo'
p599
S'NN'
p600
S'I-NP'
p601
g5
tp602
a(S'for'
p603
S'for'
p604
S'IN'
p605
S'B-PP'
p606
g5
tp607
a(S'four'
p608
S'four'
p609
S'CD'
p610
S'B-NP'
p611
g5
tp612
a(S'weeks.'
p613
S'weeks.'
p614
S'NN'
p615
S'I-NP'
p616
g5
tp617
a(S'The'
p618
S'The'
p619
S'DT'
p620
S'B-NP'
p621
g5
tp622
a(S'primary'
p623
S'primary'
p624
S'JJ'
p625
S'I-NP'
p626
g5
tp627
a(S'efficacy'
p628
S'efficacy'
p629
S'NN'
p630
S'I-NP'
p631
g5
tp632
a(S'parameter'
p633
S'parameter'
p634
S'NN'
p635
S'I-NP'
p636
g5
tp637
a(S'of'
p638
S'of'
p639
S'IN'
p640
S'B-PP'
p641
g5
tp642
a(S'the'
p643
S'the'
p644
S'DT'
p645
S'B-NP'
p646
g5
tp647
a(S'study'
p648
S'study'
p649
S'NN'
p650
S'I-NP'
p651
g5
tp652
a(S'was'
p653
S'be'
p654
S'VBD'
p655
S'B-VP'
p656
g5
tp657
a(S'the'
p658
S'the'
p659
S'DT'
p660
S'B-NP'
p661
g5
tp662
a(S'control'
p663
S'control'
p664
S'NN'
p665
S'I-NP'
p666
g5
tp667
a(S'of'
p668
S'of'
p669
S'IN'
p670
S'B-PP'
p671
g5
tp672
a(S'serum'
p673
S'serum'
p674
S'NN'
p675
S'B-NP'
p676
g5
tp677
a(S'phosphorus'
p678
S'phosphorus'
p679
S'NN'
p680
S'I-NP'
p681
g5
tp682
a(S'levels'
p683
S'level'
p684
S'NNS'
p685
S'I-NP'
p686
g5
tp687
a(g12
g12
g12
g5
g5
tp688
a(S'<'
p689
g689
S'SYM'
p690
S'B-NP'
p691
g5
tp692
a(S'or'
p693
S'or'
p694
S'CC'
p695
g5
g5
tp696
a(S'=1.8'
p697
S'=1.8'
p698
S'CD'
p699
S'B-NP'
p700
g5
tp701
a(S'mmol/l'
p702
S'mmol/l'
p703
S'NN'
p704
S'I-NP'
p705
g5
tp706
a(S'['
p707
g707
g12
g5
g5
tp708
a(g689
g689
S'SYM'
p709
S'B-NP'
p710
g5
tp711
a(S'or'
p712
S'or'
p713
S'CC'
p714
g5
g5
tp715
a(S'='
p716
g716
S'SYM'
p717
S'B-VP'
p718
g5
tp719
a(S'5.6'
p720
S'5.6'
p721
S'CD'
p722
S'B-NP'
p723
g5
tp724
a(S'mg/dl'
p725
S'mg/dl'
p726
S'NN'
p727
S'I-NP'
p728
g5
tp729
a(S']'
p730
g730
g19
g5
g5
tp731
a(g19
g19
g19
g5
g5
tp732
a(g86
g86
g86
g5
g5
tp733
a(S'Secondary'
p734
S'Secondary'
p735
S'JJ'
p736
S'B-NP'
p737
g5
tp738
a(S'endpoints'
p739
S'endpoint'
p740
S'NNS'
p741
S'I-NP'
p742
g5
tp743
a(S'included'
p744
S'include'
p745
S'VBD'
p746
S'B-VP'
p747
g5
tp748
a(S'the'
p749
S'the'
p750
S'DT'
p751
S'B-NP'
p752
g5
tp753
a(S'profile'
p754
S'profile'
p755
S'NN'
p756
S'I-NP'
p757
g5
tp758
a(S'of'
p759
S'of'
p760
S'IN'
p761
S'B-PP'
p762
g5
tp763
a(S'serum'
p764
S'serum'
p765
S'NN'
p766
S'B-NP'
p767
g5
tp768
a(S'phosphorus'
p769
S'phosphorus'
p770
S'NN'
p771
S'I-NP'
p772
g5
tp773
a(S'during'
p774
S'during'
p775
S'IN'
p776
S'B-PP'
p777
g5
tp778
a(S'titration'
p779
S'titration'
p780
S'NN'
p781
S'B-NP'
p782
g5
tp783
a(S'and'
p784
S'and'
p785
S'CC'
p786
S'I-NP'
p787
g5
tp788
a(S'parathyroid'
p789
S'parathyroid'
p790
S'NN'
p791
S'I-NP'
p792
g5
tp793
a(S'hormone'
p794
S'hormone'
p795
S'NN'
p796
S'I-NP'
p797
g5
tp798
a(g197
g197
g197
g5
g5
tp799
a(S'calcium'
p800
S'calcium'
p801
S'NN'
p802
S'B-NP'
p803
g5
tp804
a(g197
g197
g197
g5
g5
tp805
a(S'and'
p806
S'and'
p807
S'CC'
p808
g5
g5
tp809
a(S'calcium'
p810
S'calcium'
p811
S'NN'
p812
S'B-NP'
p813
g5
tp814
a(S'x'
p815
g815
S'SYM'
p816
g5
g5
tp817
a(S'phosphorus'
p818
S'phosphorus'
p819
S'NN'
p820
S'B-NP'
p821
g5
tp822
a(g12
g12
g12
g5
g5
tp823
a(S'Ca'
p824
S'Ca'
p825
S'NN'
p826
S'B-NP'
p827
g5
tp828
a(g815
g815
S'SYM'
p829
S'B-NP'
p830
g5
tp831
a(S'P'
p832
g832
S'NN'
p833
S'I-NP'
p834
g5
tp835
a(g19
g19
g19
g5
g5
tp836
a(S'product'
p837
S'product'
p838
S'NN'
p839
S'B-NP'
p840
g5
tp841
a(S'levels.'
p842
S'levels.'
p843
S'NN'
p844
S'I-NP'
p845
g5
tp846
a(S'The'
p847
S'The'
p848
S'DT'
p849
S'B-NP'
p850
g5
tp851
a(S'safety'
p852
S'safety'
p853
S'NN'
p854
S'I-NP'
p855
g5
tp856
a(S'and'
p857
S'and'
p858
S'CC'
p859
S'I-NP'
p860
g5
tp861
a(S'tolerability'
p862
S'tolerability'
p863
S'NN'
p864
S'I-NP'
p865
g5
tp866
a(S'of'
p867
S'of'
p868
S'IN'
p869
S'B-PP'
p870
g5
tp871
a(S'lanthanum'
p872
S'lanthanum'
p873
S'NN'
p874
S'B-NP'
p875
g5
tp876
a(S'carbonate'
p877
S'carbonate'
p878
S'NN'
p879
S'I-NP'
p880
g5
tp881
a(S'were'
p882
S'be'
p883
S'VBD'
p884
S'B-VP'
p885
g5
tp886
a(S'assessed'
p887
S'assess'
p888
S'VBN'
p889
S'I-VP'
p890
g5
tp891
a(S'by'
p892
S'by'
p893
S'IN'
p894
S'B-PP'
p895
g5
tp896
a(S'monitoring'
p897
S'monitor'
p898
S'VBG'
p899
S'B-VP'
p900
g5
tp901
a(S'adverse'
p902
S'adverse'
p903
S'JJ'
p904
S'B-NP'
p905
g5
tp906
a(S'events'
p907
S'event'
p908
S'NNS'
p909
S'I-NP'
p910
g5
tp911
a(S'throughout'
p912
S'throughout'
p913
S'IN'
p914
S'B-PP'
p915
g5
tp916
a(S'the'
p917
S'the'
p918
S'DT'
p919
S'B-NP'
p920
g5
tp921
a(S'study'
p922
S'study'
p923
S'NN'
p924
S'I-NP'
p925
g5
tp926
a(g86
g86
g86
g5
g5
tp927
a(S'RESULTS'
p928
S'RESULTS'
p929
S'NNS'
p930
S'B-NP'
p931
g5
tp932
a(S'Mean'
p933
S'Mean'
p934
S'VBP'
p935
S'B-VP'
p936
g5
tp937
a(S'serum'
p938
S'serum'
p939
S'NN'
p940
S'B-NP'
p941
g5
tp942
a(S'phosphorus'
p943
S'phosphorus'
p944
S'NN'
p945
S'I-NP'
p946
g5
tp947
a(S'level'
p948
S'level'
p949
S'NN'
p950
S'I-NP'
p951
g5
tp952
a(S'at'
p953
S'at'
p954
S'IN'
p955
S'B-PP'
p956
g5
tp957
a(S'the'
p958
S'the'
p959
S'DT'
p960
S'B-NP'
p961
g5
tp962
a(S'end'
p963
S'end'
p964
S'NN'
p965
S'I-NP'
p966
g5
tp967
a(S'of'
p968
S'of'
p969
S'IN'
p970
S'B-PP'
p971
g5
tp972
a(S'washout'
p973
S'washout'
p974
S'NN'
p975
S'B-NP'
p976
g5
tp977
a(S'was'
p978
S'be'
p979
S'VBD'
p980
S'B-VP'
p981
g5
tp982
a(S'2.5'
p983
S'2.5'
p984
S'CD'
p985
S'B-NP'
p986
g5
tp987
a(S'+/-'
p988
S'+/-'
p989
S'SYM'
p990
S'I-NP'
p991
g5
tp992
a(S'0.5'
p993
S'0.5'
p994
S'CD'
p995
S'I-NP'
p996
g5
tp997
a(S'mmol/l'
p998
S'mmol/l'
p999
S'NN'
p1000
S'I-NP'
p1001
g5
tp1002
a(g12
g12
g12
g5
g5
tp1003
a(S'7.7'
p1004
S'7.7'
p1005
S'CD'
p1006
S'B-NP'
p1007
g5
tp1008
a(S'+/-'
p1009
S'+/-'
p1010
S'SYM'
p1011
S'I-NP'
p1012
g5
tp1013
a(S'1.5'
p1014
S'1.5'
p1015
S'CD'
p1016
S'I-NP'
p1017
g5
tp1018
a(S'mg/dl'
p1019
S'mg/dl'
p1020
S'NN'
p1021
S'I-NP'
p1022
g5
tp1023
a(S';'
p1024
g1024
g560
g5
g5
tp1025
a(S'n=73'
p1026
S'n=73'
p1027
S'NN'
p1028
S'B-NP'
p1029
g5
tp1030
a(g19
g19
g19
g5
g5
tp1031
a(g197
g197
g197
g5
g5
tp1032
a(S'and'
p1033
S'and'
p1034
S'CC'
p1035
g5
g5
tp1036
a(S'there'
p1037
S'there'
p1038
S'EX'
p1039
S'B-NP'
p1040
g5
tp1041
a(S'was'
p1042
S'be'
p1043
S'VBD'
p1044
S'B-VP'
p1045
g5
tp1046
a(S'no'
p1047
S'no'
p1048
S'DT'
p1049
S'B-NP'
p1050
g5
tp1051
a(S'evidence'
p1052
S'evidence'
p1053
S'NN'
p1054
S'I-NP'
p1055
g5
tp1056
a(S'of'
p1057
S'of'
p1058
S'IN'
p1059
S'B-PP'
p1060
g5
tp1061
a(g118
g118
S'DT'
p1062
S'B-NP'
p1063
g5
tp1064
a(S'difference'
p1065
S'difference'
p1066
S'NN'
p1067
S'I-NP'
p1068
g5
tp1069
a(S'in'
p1070
S'in'
p1071
S'IN'
p1072
S'B-PP'
p1073
g5
tp1074
a(S'levels'
p1075
S'level'
p1076
S'NNS'
p1077
S'B-NP'
p1078
g5
tp1079
a(S'between'
p1080
S'between'
p1081
S'IN'
p1082
S'B-PP'
p1083
g5
tp1084
a(S'the'
p1085
S'the'
p1086
S'DT'
p1087
S'B-NP'
p1088
g5
tp1089
a(S'treatment'
p1090
S'treatment'
p1091
S'NN'
p1092
S'I-NP'
p1093
g5
tp1094
a(S'groups'
p1095
S'group'
p1096
S'NNS'
p1097
S'I-NP'
p1098
g5
tp1099
a(S'pre-randomization.'
p1100
S'pre-randomization.'
p1101
S'JJ'
p1102
S'B-ADJP'
p1103
g5
tp1104
a(S'At'
p1105
S'At'
p1106
S'IN'
p1107
S'B-PP'
p1108
g5
tp1109
a(S'the'
p1110
S'the'
p1111
S'DT'
p1112
S'B-NP'
p1113
g5
tp1114
a(S'end'
p1115
S'end'
p1116
S'NN'
p1117
S'I-NP'
p1118
g5
tp1119
a(S'of'
p1120
S'of'
p1121
S'IN'
p1122
S'B-PP'
p1123
g5
tp1124
a(S'the'
p1125
S'the'
p1126
S'DT'
p1127
S'B-NP'
p1128
g5
tp1129
a(S'study'
p1130
S'study'
p1131
S'NN'
p1132
S'I-NP'
p1133
g5
tp1134
a(g197
g197
g197
g5
g5
tp1135
a(S'lanthanum'
p1136
S'lanthanum'
p1137
S'NN'
p1138
S'B-NP'
p1139
g5
tp1140
a(S'carbonate-treated'
p1141
S'carbonate-treated'
p1142
S'JJ'
p1143
S'I-NP'
p1144
g5
tp1145
a(S'patients'
p1146
S'patient'
p1147
S'NNS'
p1148
S'I-NP'
p1149
g5
tp1150
a(S'had'
p1151
S'have'
p1152
S'VBD'
p1153
S'B-VP'
p1154
g5
tp1155
a(S'significantly'
p1156
S'significantly'
p1157
S'RB'
p1158
S'B-NP'
p1159
g5
tp1160
a(S'lower'
p1161
S'low'
p1162
S'JJR'
p1163
S'I-NP'
p1164
g5
tp1165
a(S'phosphorus'
p1166
S'phosphorus'
p1167
S'NN'
p1168
S'I-NP'
p1169
g5
tp1170
a(S'levels'
p1171
S'level'
p1172
S'NNS'
p1173
S'I-NP'
p1174
g5
tp1175
a(g12
g12
g12
g5
g5
tp1176
a(S'1.6'
p1177
S'1.6'
p1178
S'CD'
p1179
S'B-NP'
p1180
g5
tp1181
a(S'+/-'
p1182
S'+/-'
p1183
S'SYM'
p1184
S'I-NP'
p1185
g5
tp1186
a(S'0.5'
p1187
S'0.5'
p1188
S'CD'
p1189
S'I-NP'
p1190
g5
tp1191
a(S'mmol/l'
p1192
S'mmol/l'
p1193
S'NN'
p1194
S'I-NP'
p1195
g5
tp1196
a(g707
g707
g12
g5
g5
tp1197
a(S'5.1'
p1198
S'5.1'
p1199
S'CD'
p1200
S'B-NP'
p1201
g5
tp1202
a(S'+/-'
p1203
S'+/-'
p1204
S'SYM'
p1205
S'I-NP'
p1206
g5
tp1207
a(S'1.5'
p1208
S'1.5'
p1209
S'CD'
p1210
S'I-NP'
p1211
g5
tp1212
a(S'mg/dl'
p1213
S'mg/dl'
p1214
S'NN'
p1215
S'I-NP'
p1216
g5
tp1217
a(g730
g730
g19
g5
g5
tp1218
a(g1024
g1024
g560
g5
g5
tp1219
a(S'n=30'
p1220
S'n=30'
p1221
S'NN'
p1222
S'B-NP'
p1223
g5
tp1224
a(g19
g19
g19
g5
g5
tp1225
a(S'than'
p1226
S'than'
p1227
S'IN'
p1228
S'B-PP'
p1229
g5
tp1230
a(S'those'
p1231
S'those'
p1232
S'DT'
p1233
S'B-NP'
p1234
g5
tp1235
a(S'receiving'
p1236
S'receive'
p1237
S'VBG'
p1238
S'I-NP'
p1239
g5
tp1240
a(S'placebo'
p1241
S'placebo'
p1242
S'NN'
p1243
S'I-NP'
p1244
g5
tp1245
a(g12
g12
g12
g5
g5
tp1246
a(S'2.3'
p1247
S'2.3'
p1248
S'CD'
p1249
S'B-NP'
p1250
g5
tp1251
a(S'+/-'
p1252
S'+/-'
p1253
S'CC'
p1254
S'I-NP'
p1255
g5
tp1256
a(S'0.4'
p1257
S'0.4'
p1258
S'CD'
p1259
S'I-NP'
p1260
g5
tp1261
a(S'mmol/l'
p1262
S'mmol/l'
p1263
S'NN'
p1264
S'I-NP'
p1265
g5
tp1266
a(g707
g707
g12
g5
g5
tp1267
a(S'7.2'
p1268
S'7.2'
p1269
S'CD'
p1270
S'B-NP'
p1271
g5
tp1272
a(S'+/-'
p1273
S'+/-'
p1274
S'SYM'
p1275
S'I-NP'
p1276
g5
tp1277
a(S'1.3'
p1278
S'1.3'
p1279
S'CD'
p1280
S'I-NP'
p1281
g5
tp1282
a(S'mg/dl'
p1283
S'mg/dl'
p1284
S'NN'
p1285
S'I-NP'
p1286
g5
tp1287
a(g730
g730
g19
g5
g5
tp1288
a(g1024
g1024
g560
g5
g5
tp1289
a(S'n=31'
p1290
S'n=31'
p1291
S'NN'
p1292
S'B-NP'
p1293
g5
tp1294
a(g1024
g1024
g560
g5
g5
tp1295
a(S'p'
p1296
g1296
S'NN'
p1297
S'B-NP'
p1298
g5
tp1299
a(g689
g689
S'SYM'
p1300
S'B-NP'
p1301
g5
tp1302
a(S'0.001'
p1303
S'0.001'
p1304
S'CD'
p1305
S'I-NP'
p1306
g5
tp1307
a(g19
g19
g19
g5
g5
tp1308
a(g86
g86
g86
g5
g5
tp1309
a(S'In'
p1310
S'In'
p1311
S'IN'
p1312
S'B-PP'
p1313
g5
tp1314
a(S'addition'
p1315
S'addition'
p1316
S'NN'
p1317
S'B-NP'
p1318
g5
tp1319
a(g197
g197
g197
g5
g5
tp1320
a(g118
g118
S'DT'
p1321
S'B-NP'
p1322
g5
tp1323
a(S'significantly'
p1324
S'significantly'
p1325
S'RB'
p1326
S'I-NP'
p1327
g5
tp1328
a(S'higher'
p1329
S'high'
p1330
S'JJR'
p1331
S'I-NP'
p1332
g5
tp1333
a(S'proportion'
p1334
S'proportion'
p1335
S'NN'
p1336
S'I-NP'
p1337
g5
tp1338
a(S'of'
p1339
S'of'
p1340
S'IN'
p1341
S'B-PP'
p1342
g5
tp1343
a(S'patients'
p1344
S'patient'
p1345
S'NNS'
p1346
S'B-NP'
p1347
g5
tp1348
a(S'receiving'
p1349
S'receive'
p1350
S'VBG'
p1351
S'B-VP'
p1352
g5
tp1353
a(S'lanthanum'
p1354
S'lanthanum'
p1355
S'NN'
p1356
S'B-NP'
p1357
g5
tp1358
a(S'carbonate'
p1359
S'carbonate'
p1360
S'NN'
p1361
S'I-NP'
p1362
g5
tp1363
a(S'had'
p1364
S'have'
p1365
S'VBD'
p1366
S'B-VP'
p1367
g5
tp1368
a(S'controlled'
p1369
S'control'
p1370
S'VBN'
p1371
S'I-VP'
p1372
g5
tp1373
a(S'serum'
p1374
S'serum'
p1375
S'NN'
p1376
S'B-NP'
p1377
g5
tp1378
a(S'phosphorus'
p1379
S'phosphorus'
p1380
S'NN'
p1381
S'I-NP'
p1382
g5
tp1383
a(S'levels'
p1384
S'level'
p1385
S'NNS'
p1386
S'I-NP'
p1387
g5
tp1388
a(g12
g12
g12
g5
g5
tp1389
a(S'60'
p1390
S'60'
p1391
S'CD'
p1392
S'B-NP'
p1393
g5
tp1394
a(S'%'
p1395
g1395
S'NN'
p1396
S'I-NP'
p1397
g5
tp1398
a(g19
g19
g19
g5
g5
tp1399
a(S'compared'
p1400
S'compare'
p1401
S'VBN'
p1402
S'B-PP'
p1403
g5
tp1404
a(S'with'
p1405
S'with'
p1406
S'IN'
p1407
S'B-PP'
p1408
g5
tp1409
a(S'the'
p1410
S'the'
p1411
S'DT'
p1412
S'B-NP'
p1413
g5
tp1414
a(S'placebo'
p1415
S'placebo'
p1416
S'NN'
p1417
S'I-NP'
p1418
g5
tp1419
a(S'group'
p1420
S'group'
p1421
S'NN'
p1422
S'I-NP'
p1423
g5
tp1424
a(g12
g12
g12
g5
g5
tp1425
a(S'10'
p1426
S'10'
p1427
S'CD'
p1428
S'B-NP'
p1429
g5
tp1430
a(g1395
g1395
S'NN'
p1431
S'I-NP'
p1432
g5
tp1433
a(g1024
g1024
g560
g5
g5
tp1434
a(g1296
g1296
S'NN'
p1435
S'B-NP'
p1436
g5
tp1437
a(g689
g689
S'SYM'
p1438
S'B-NP'
p1439
g5
tp1440
a(S'0.001'
p1441
S'0.001'
p1442
S'CD'
p1443
S'I-NP'
p1444
g5
tp1445
a(g19
g19
g19
g5
g5
tp1446
a(g86
g86
g86
g5
g5
tp1447
a(S'Ca'
p1448
S'Ca'
p1449
S'NN'
p1450
S'B-NP'
p1451
S'B-protein'
p1452
tp1453
a(g815
g815
S'SYM'
p1454
S'I-NP'
p1455
S'I-protein'
p1456
tp1457
a(g832
g832
S'NN'
p1458
S'I-NP'
p1459
S'I-protein'
p1460
tp1461
a(S'product'
p1462
S'product'
p1463
S'NN'
p1464
S'I-NP'
p1465
S'I-protein'
p1466
tp1467
a(S'levels'
p1468
S'level'
p1469
S'NNS'
p1470
S'I-NP'
p1471
g5
tp1472
a(S'were'
p1473
S'be'
p1474
S'VBD'
p1475
S'B-VP'
p1476
g5
tp1477
a(S'also'
p1478
S'also'
p1479
S'RB'
p1480
S'B-ADVP'
p1481
g5
tp1482
a(S'significantly'
p1483
S'significantly'
p1484
S'RB'
p1485
S'B-ADJP'
p1486
g5
tp1487
a(S'lower'
p1488
S'low'
p1489
S'JJR'
p1490
S'I-ADJP'
p1491
g5
tp1492
a(S'in'
p1493
S'in'
p1494
S'IN'
p1495
S'B-PP'
p1496
g5
tp1497
a(S'the'
p1498
S'the'
p1499
S'DT'
p1500
S'B-NP'
p1501
g5
tp1502
a(S'lanthanum'
p1503
S'lanthanum'
p1504
S'NN'
p1505
S'I-NP'
p1506
g5
tp1507
a(S'carbonate'
p1508
S'carbonate'
p1509
S'NN'
p1510
S'I-NP'
p1511
g5
tp1512
a(S'group'
p1513
S'group'
p1514
S'NN'
p1515
S'I-NP'
p1516
g5
tp1517
a(S'at'
p1518
S'at'
p1519
S'IN'
p1520
S'B-PP'
p1521
g5
tp1522
a(S'the'
p1523
S'the'
p1524
S'DT'
p1525
S'B-NP'
p1526
g5
tp1527
a(S'end'
p1528
S'end'
p1529
S'NN'
p1530
S'I-NP'
p1531
g5
tp1532
a(S'of'
p1533
S'of'
p1534
S'IN'
p1535
S'B-PP'
p1536
g5
tp1537
a(S'randomized'
p1538
S'randomize'
p1539
S'VBN'
p1540
S'B-NP'
p1541
g5
tp1542
a(S'treatment'
p1543
S'treatment'
p1544
S'NN'
p1545
S'I-NP'
p1546
g5
tp1547
a(g12
g12
g12
g5
g5
tp1548
a(g1296
g1296
S'NN'
p1549
S'B-NP'
p1550
g5
tp1551
a(g689
g689
S'SYM'
p1552
g5
g5
tp1553
a(S'0.001'
p1554
S'0.001'
p1555
S'CD'
p1556
S'B-NP'
p1557
g5
tp1558
a(g19
g19
g19
g5
g5
tp1559
a(g86
g86
g86
g5
g5
tp1560
a(S'Lanthanum'
p1561
S'Lanthanum'
p1562
S'NNP'
p1563
S'B-NP'
p1564
g5
tp1565
a(S'carbonate'
p1566
S'carbonate'
p1567
S'NN'
p1568
S'I-NP'
p1569
g5
tp1570
a(S'was'
p1571
S'be'
p1572
S'VBD'
p1573
S'B-VP'
p1574
g5
tp1575
a(S'well'
p1576
S'well'
p1577
S'RB'
p1578
S'I-VP'
p1579
g5
tp1580
a(S'tolerated'
p1581
S'tolerate'
p1582
S'VBN'
p1583
S'I-VP'
p1584
g5
tp1585
a(g1024
g1024
g560
g5
g5
tp1586
a(S'only'
p1587
S'only'
p1588
S'RB'
p1589
S'B-NP'
p1590
g5
tp1591
a(S'one'
p1592
S'one'
p1593
S'CD'
p1594
S'I-NP'
p1595
g5
tp1596
a(S'serious'
p1597
S'serious'
p1598
S'JJ'
p1599
S'I-NP'
p1600
g5
tp1601
a(S'adverse'
p1602
S'adverse'
p1603
S'JJ'
p1604
S'I-NP'
p1605
g5
tp1606
a(S'event'
p1607
S'event'
p1608
S'NN'
p1609
S'I-NP'
p1610
g5
tp1611
a(S'was'
p1612
S'be'
p1613
S'VBD'
p1614
S'B-VP'
p1615
g5
tp1616
a(S'reported'
p1617
S'report'
p1618
S'VBN'
p1619
S'I-VP'
p1620
g5
tp1621
a(g197
g197
g197
g5
g5
tp1622
a(S'which'
p1623
S'which'
p1624
S'WDT'
p1625
S'B-NP'
p1626
g5
tp1627
a(S'was'
p1628
S'be'
p1629
S'VBD'
p1630
S'B-VP'
p1631
g5
tp1632
a(S'unrelated'
p1633
S'unrelated'
p1634
S'JJ'
p1635
S'B-ADJP'
p1636
g5
tp1637
a(S'to'
p1638
S'to'
p1639
S'TO'
p1640
S'B-PP'
p1641
g5
tp1642
a(S'treatment'
p1643
S'treatment'
p1644
S'NN'
p1645
S'B-NP'
p1646
g5
tp1647
a(g86
g86
g86
g5
g5
tp1648
a(S'CONCLUSIONS'
p1649
S'CONCLUSIONS'
p1650
S'NNS'
p1651
S'B-NP'
p1652
g5
tp1653
a(S'Lanthanum'
p1654
S'Lanthanum'
p1655
S'NNP'
p1656
S'I-NP'
p1657
g5
tp1658
a(S'carbonate'
p1659
S'carbonate'
p1660
S'NN'
p1661
S'I-NP'
p1662
g5
tp1663
a(S'was'
p1664
S'be'
p1665
S'VBD'
p1666
S'B-VP'
p1667
g5
tp1668
a(S'shown'
p1669
S'show'
p1670
S'VBN'
p1671
S'I-VP'
p1672
g5
tp1673
a(S'to'
p1674
S'to'
p1675
S'TO'
p1676
S'I-VP'
p1677
g5
tp1678
a(S'be'
p1679
S'be'
p1680
S'VB'
p1681
S'I-VP'
p1682
g5
tp1683
a(S'an'
p1684
S'an'
p1685
S'DT'
p1686
S'B-NP'
p1687
g5
tp1688
a(S'effective'
p1689
S'effective'
p1690
S'JJ'
p1691
S'I-NP'
p1692
g5
tp1693
a(S'and'
p1694
S'and'
p1695
S'CC'
p1696
S'I-NP'
p1697
g5
tp1698
a(S'well-tolerated'
p1699
S'well-tolerated'
p1700
S'JJ'
p1701
S'I-NP'
p1702
g5
tp1703
a(S'phosphate'
p1704
S'phosphate'
p1705
S'NN'
p1706
S'I-NP'
p1707
g5
tp1708
a(S'binder'
p1709
S'binder'
p1710
S'NN'
p1711
S'I-NP'
p1712
g5
tp1713
a(S'for'
p1714
S'for'
p1715
S'IN'
p1716
S'B-PP'
p1717
g5
tp1718
a(S'the'
p1719
S'the'
p1720
S'DT'
p1721
S'B-NP'
p1722
g5
tp1723
a(S'treatment'
p1724
S'treatment'
p1725
S'NN'
p1726
S'I-NP'
p1727
g5
tp1728
a(S'of'
p1729
S'of'
p1730
S'IN'
p1731
S'B-PP'
p1732
g5
tp1733
a(S'hyperphosphatemia'
p1734
S'hyperphosphatemia'
p1735
S'NN'
p1736
S'B-NP'
p1737
g5
tp1738
a(S'in'
p1739
S'in'
p1740
S'IN'
p1741
S'B-PP'
p1742
g5
tp1743
a(S'Chinese'
p1744
S'Chinese'
p1745
S'JJ'
p1746
S'B-NP'
p1747
g5
tp1748
a(S'patients'
p1749
S'patient'
p1750
S'NNS'
p1751
S'I-NP'
p1752
g5
tp1753
a(S'with'
p1754
S'with'
p1755
S'IN'
p1756
S'B-PP'
p1757
g5
tp1758
a(S'ESRD.'
p1759
S'ESRD.'
p1760
S'NNP'
p1761
S'B-NP'
p1762
g5
tp1763
a(S'This'
p1764
S'This'
p1765
S'DT'
p1766
S'B-NP'
p1767
g5
tp1768
a(S'finding'
p1769
S'finding'
p1770
S'NN'
p1771
S'I-NP'
p1772
g5
tp1773
a(S'supports'
p1774
S'support'
p1775
S'VBZ'
p1776
S'B-VP'
p1777
g5
tp1778
a(S'the'
p1779
S'the'
p1780
S'DT'
p1781
S'B-NP'
p1782
g5
tp1783
a(S'results'
p1784
S'result'
p1785
S'NNS'
p1786
S'I-NP'
p1787
g5
tp1788
a(S'of'
p1789
S'of'
p1790
S'IN'
p1791
S'B-PP'
p1792
g5
tp1793
a(S'previous'
p1794
S'previous'
p1795
S'JJ'
p1796
S'B-NP'
p1797
g5
tp1798
a(S'US'
p1799
S'US'
p1800
S'NNS'
p1801
S'I-NP'
p1802
g5
tp1803
a(S'and'
p1804
S'and'
p1805
S'CC'
p1806
g5
g5
tp1807
a(S'European'
p1808
S'European'
p1809
S'JJ'
p1810
S'B-NP'
p1811
g5
tp1812
a(S'studies'
p1813
S'study'
p1814
S'NNS'
p1815
S'I-NP'
p1816
g5
tp1817
a(g197
g197
g197
g5
g5
tp1818
a(S'which'
p1819
S'which'
p1820
S'WDT'
p1821
S'B-NP'
p1822
g5
tp1823
a(S'have'
p1824
S'have'
p1825
S'VBP'
p1826
S'B-VP'
p1827
g5
tp1828
a(S'also'
p1829
S'also'
p1830
S'RB'
p1831
S'I-VP'
p1832
g5
tp1833
a(S'shown'
p1834
S'show'
p1835
S'VBN'
p1836
S'I-VP'
p1837
g5
tp1838
a(S'that'
p1839
S'that'
p1840
S'IN'
p1841
S'B-SBAR'
p1842
g5
tp1843
a(S'lanthanum'
p1844
S'lanthanum'
p1845
S'NN'
p1846
S'B-NP'
p1847
g5
tp1848
a(S'carbonate'
p1849
S'carbonate'
p1850
S'NN'
p1851
S'I-NP'
p1852
g5
tp1853
a(S'treatment'
p1854
S'treatment'
p1855
S'NN'
p1856
S'I-NP'
p1857
g5
tp1858
a(S'effectively'
p1859
S'effectively'
p1860
S'RB'
p1861
S'B-VP'
p1862
g5
tp1863
a(S'controls'
p1864
S'control'
p1865
S'VBZ'
p1866
S'I-VP'
p1867
g5
tp1868
a(S'serum'
p1869
S'serum'
p1870
S'NN'
p1871
S'B-NP'
p1872
g5
tp1873
a(S'phosphorus'
p1874
S'phosphorus'
p1875
S'NN'
p1876
S'I-NP'
p1877
g5
tp1878
a(S'levels'
p1879
S'level'
p1880
S'NNS'
p1881
S'I-NP'
p1882
g5
tp1883
a(g86
g86
g86
g5
g5
tp1884
a.