(lp0
(S'Effect'
p1
S'Effect'
p2
S'NN'
p3
S'B-NP'
p4
S'O'
p5
tp6
a(S'of'
p7
S'of'
p8
S'IN'
p9
S'B-PP'
p10
g5
tp11
a(S'cool'
p12
S'cool'
p13
S'JJ'
p14
S'B-NP'
p15
g5
tp16
a(S'vs.'
p17
S'vs.'
p18
S'IN'
p19
S'B-PP'
p20
g5
tp21
a(S'warm'
p22
S'warm'
p23
S'JJ'
p24
S'B-NP'
p25
g5
tp26
a(S'dialysate'
p27
S'dialysate'
p28
S'NN'
p29
S'I-NP'
p30
g5
tp31
a(S'on'
p32
S'on'
p33
S'IN'
p34
S'B-PP'
p35
g5
tp36
a(S'toxin'
p37
S'toxin'
p38
S'NN'
p39
S'B-NP'
p40
g5
tp41
a(S'removal'
p42
S'removal'
p43
S'NN'
p44
S'I-NP'
p45
g5
tp46
a(S':'
p47
g47
g47
g5
g5
tp48
a(S'rationale'
p49
S'rationale'
p50
S'NN'
p51
S'B-NP'
p52
g5
tp53
a(S'and'
p54
S'and'
p55
S'CC'
p56
S'I-NP'
p57
g5
tp58
a(S'study'
p59
S'study'
p60
S'NN'
p61
S'I-NP'
p62
g5
tp63
a(S'design'
p64
S'design'
p65
S'NN'
p66
S'I-NP'
p67
g5
tp68
a(S'.'
p69
g69
g69
g5
g5
tp70
a(S'BACKGROUND'
p71
S'BACKGROUND'
p72
S'NN'
p73
S'B-NP'
p74
g5
tp75
a(S'Cool'
p76
S'Cool'
p77
S'NNP'
p78
S'I-NP'
p79
g5
tp80
a(S'dialysate'
p81
S'dialysate'
p82
S'NN'
p83
S'I-NP'
p84
g5
tp85
a(S'is'
p86
S'be'
p87
S'VBZ'
p88
S'B-VP'
p89
g5
tp90
a(S'often'
p91
S'often'
p92
S'RB'
p93
S'I-VP'
p94
g5
tp95
a(S'recommended'
p96
S'recommend'
p97
S'VBN'
p98
S'I-VP'
p99
g5
tp100
a(S'for'
p101
S'for'
p102
S'IN'
p103
S'B-PP'
p104
g5
tp105
a(S'prevention'
p106
S'prevention'
p107
S'NN'
p108
S'B-NP'
p109
g5
tp110
a(S'of'
p111
S'of'
p112
S'IN'
p113
S'B-PP'
p114
g5
tp115
a(S'intra-dialytic'
p116
S'intra-dialytic'
p117
S'JJ'
p118
S'B-NP'
p119
g5
tp120
a(S'hypotensive'
p121
S'hypotensive'
p122
S'JJ'
p123
S'I-NP'
p124
g5
tp125
a(S'episodes'
p126
S'episode'
p127
S'NNS'
p128
S'I-NP'
p129
g5
tp130
a(S'in'
p131
S'in'
p132
S'IN'
p133
S'B-PP'
p134
g5
tp135
a(S'maintenance'
p136
S'maintenance'
p137
S'NN'
p138
S'B-NP'
p139
g5
tp140
a(S'hemodialysis'
p141
S'hemodialysis'
p142
S'NN'
p143
S'I-NP'
p144
g5
tp145
a(S'('
p146
g146
g146
g5
g5
tp147
a(S'HD'
p148
S'HD'
p149
S'NN'
p150
S'B-NP'
p151
g5
tp152
a(S')'
p153
g153
g153
g5
g5
tp154
a(S'patients.'
p155
S'patients.'
p156
S'NN'
p157
S'B-NP'
p158
g5
tp159
a(S'However'
p160
S'However'
p161
S'RB'
p162
S'B-ADVP'
p163
g5
tp164
a(S','
p165
g165
g165
g5
g5
tp166
a(S'its'
p167
S'its'
p168
S'PRP$'
p169
S'B-NP'
p170
g5
tp171
a(S'effect'
p172
S'effect'
p173
S'NN'
p174
S'I-NP'
p175
g5
tp176
a(S'on'
p177
S'on'
p178
S'IN'
p179
S'B-PP'
p180
g5
tp181
a(S'toxin'
p182
S'toxin'
p183
S'NN'
p184
S'B-NP'
p185
g5
tp186
a(S'removal'
p187
S'removal'
p188
S'NN'
p189
S'I-NP'
p190
g5
tp191
a(S'is'
p192
S'be'
p193
S'VBZ'
p194
S'B-VP'
p195
g5
tp196
a(S'not'
p197
S'not'
p198
S'RB'
p199
S'I-VP'
p200
g5
tp201
a(S'studied.'
p202
S'studied.'
p203
S'VBN'
p204
S'I-VP'
p205
g5
tp206
a(S'It'
p207
S'It'
p208
S'PRP'
p209
S'B-NP'
p210
g5
tp211
a(S'is'
p212
S'be'
p213
S'VBZ'
p214
S'B-VP'
p215
g5
tp216
a(S'known'
p217
S'know'
p218
S'VBN'
p219
S'I-VP'
p220
g5
tp221
a(S'that'
p222
S'that'
p223
S'IN'
p224
S'B-SBAR'
p225
g5
tp226
a(S'inter-compartmental'
p227
S'inter-compartmental'
p228
S'JJ'
p229
S'B-NP'
p230
g5
tp231
a(S'resistance'
p232
S'resistance'
p233
S'NN'
p234
S'I-NP'
p235
g5
tp236
a(S'is'
p237
S'be'
p238
S'VBZ'
p239
S'B-VP'
p240
g5
tp241
a(S'the'
p242
S'the'
p243
S'DT'
p244
S'B-NP'
p245
g5
tp246
a(S'main'
p247
S'main'
p248
S'JJ'
p249
S'I-NP'
p250
g5
tp251
a(S'barrier'
p252
S'barrier'
p253
S'NN'
p254
S'I-NP'
p255
g5
tp256
a(S'for'
p257
S'for'
p258
S'IN'
p259
S'B-PP'
p260
g5
tp261
a(S'toxin'
p262
S'toxin'
p263
S'NN'
p264
S'B-NP'
p265
g5
tp266
a(S'removal.'
p267
S'removal.'
p268
S'NN'
p269
S'I-NP'
p270
g5
tp271
a(S'Cool'
p272
S'Cool'
p273
S'NNP'
p274
S'I-NP'
p275
g5
tp276
a(S'dialysate'
p277
S'dialysate'
p278
S'NN'
p279
S'I-NP'
p280
g5
tp281
a(S'can'
p282
S'can'
p283
S'MD'
p284
S'B-VP'
p285
g5
tp286
a(S'potentially'
p287
S'potentially'
p288
S'RB'
p289
S'I-VP'
p290
g5
tp291
a(S'increase'
p292
S'increase'
p293
S'VB'
p294
S'I-VP'
p295
g5
tp296
a(S'this'
p297
S'this'
p298
S'DT'
p299
S'B-NP'
p300
g5
tp301
a(S'resistance'
p302
S'resistance'
p303
S'NN'
p304
S'I-NP'
p305
g5
tp306
a(S'by'
p307
S'by'
p308
S'IN'
p309
S'B-PP'
p310
g5
tp311
a(S'vasoconstriction'
p312
S'vasoconstriction'
p313
S'NN'
p314
S'B-NP'
p315
g5
tp316
a(S'and'
p317
S'and'
p318
S'CC'
p319
g5
g5
tp320
a(S'thus'
p321
S'thus'
p322
S'RB'
p323
g5
g5
tp324
a(S'impair'
p325
S'impair'
p326
S'VBP'
p327
S'B-VP'
p328
g5
tp329
a(S'the'
p330
S'the'
p331
S'DT'
p332
S'B-NP'
p333
g5
tp334
a(S'toxin'
p335
S'toxin'
p336
S'NN'
p337
S'I-NP'
p338
g5
tp339
a(S'removal.'
p340
S'removal.'
p341
S'NN'
p342
S'I-NP'
p343
g5
tp344
a(S'The'
p345
S'The'
p346
S'DT'
p347
S'B-NP'
p348
g5
tp349
a(S'aim'
p350
S'aim'
p351
S'NN'
p352
S'I-NP'
p353
g5
tp354
a(S'of'
p355
S'of'
p356
S'IN'
p357
S'B-PP'
p358
g5
tp359
a(S'this'
p360
S'this'
p361
S'DT'
p362
S'B-NP'
p363
g5
tp364
a(S'trial'
p365
S'trial'
p366
S'NN'
p367
S'I-NP'
p368
g5
tp369
a(S'is'
p370
S'be'
p371
S'VBZ'
p372
S'B-VP'
p373
g5
tp374
a(S'to'
p375
S'to'
p376
S'TO'
p377
S'B-VP'
p378
g5
tp379
a(S'compare'
p380
S'compare'
p381
S'VB'
p382
S'I-VP'
p383
g5
tp384
a(S'the'
p385
S'the'
p386
S'DT'
p387
S'B-NP'
p388
g5
tp389
a(S'toxin'
p390
S'toxin'
p391
S'NN'
p392
S'I-NP'
p393
g5
tp394
a(S'removal'
p395
S'removal'
p396
S'NN'
p397
S'I-NP'
p398
g5
tp399
a(S'outcome'
p400
S'outcome'
p401
S'NN'
p402
S'I-NP'
p403
g5
tp404
a(S'associated'
p405
S'associate'
p406
S'VBN'
p407
S'B-VP'
p408
g5
tp409
a(S'with'
p410
S'with'
p411
S'IN'
p412
S'B-PP'
p413
g5
tp414
a(S'cool'
p415
S'cool'
p416
S'JJ'
p417
S'B-NP'
p418
g5
tp419
a(S'vs.'
p420
S'vs.'
p421
S'IN'
p422
S'B-PP'
p423
g5
tp424
a(S'warm'
p425
S'warm'
p426
S'JJ'
p427
S'B-NP'
p428
g5
tp429
a(S'dialysate'
p430
S'dialysate'
p431
S'NN'
p432
S'I-NP'
p433
g5
tp434
a(g69
g69
g69
g5
g5
tp435
a(S'METHOD/DESIGN'
p436
S'METHOD/DESIGN'
p437
S'PDT'
p438
S'B-NP'
p439
g5
tp440
a(S'This'
p441
S'This'
p442
S'DT'
p443
S'I-NP'
p444
g5
tp445
a(S'study'
p446
S'study'
p447
S'NN'
p448
S'I-NP'
p449
g5
tp450
a(S'is'
p451
S'be'
p452
S'VBZ'
p453
S'B-VP'
p454
g5
tp455
a(S'based'
p456
S'base'
p457
S'VBN'
p458
S'I-VP'
p459
g5
tp460
a(S'on'
p461
S'on'
p462
S'IN'
p463
S'B-PP'
p464
g5
tp465
a(S'the'
p466
S'the'
p467
S'DT'
p468
S'B-NP'
p469
g5
tp470
a(S'hypothesis'
p471
S'hypothesis'
p472
S'NN'
p473
S'I-NP'
p474
g5
tp475
a(S'that'
p476
S'that'
p477
S'IN'
p478
S'B-SBAR'
p479
g5
tp480
a(S'dialysate'
p481
S'dialysate'
p482
S'NN'
p483
S'B-NP'
p484
g5
tp485
a(S'temperature'
p486
S'temperature'
p487
S'NN'
p488
S'I-NP'
p489
g5
tp490
a(g165
g165
g165
g5
g5
tp491
a(S'a'
p492
g492
S'DT'
p493
S'B-NP'
p494
g5
tp495
a(S'potential'
p496
S'potential'
p497
S'JJ'
p498
S'I-NP'
p499
g5
tp500
a(S'maneuver'
p501
S'maneuver'
p502
S'NN'
p503
S'I-NP'
p504
g5
tp505
a(S'to'
p506
S'to'
p507
S'TO'
p508
S'B-VP'
p509
g5
tp510
a(S'maintain'
p511
S'maintain'
p512
S'VB'
p513
S'I-VP'
p514
g5
tp515
a(S'hemodynamic'
p516
S'hemodynamic'
p517
S'JJ'
p518
S'B-NP'
p519
g5
tp520
a(S'stability'
p521
S'stability'
p522
S'NN'
p523
S'I-NP'
p524
g5
tp525
a(S'during'
p526
S'during'
p527
S'IN'
p528
S'B-PP'
p529
g5
tp530
a(S'HD'
p531
S'HD'
p532
S'NN'
p533
S'B-NP'
p534
g5
tp535
a(g165
g165
g165
g5
g5
tp536
a(S'may'
p537
S'may'
p538
S'MD'
p539
S'B-VP'
p540
g5
tp541
a(S'influence'
p542
S'influence'
p543
S'VB'
p544
S'I-VP'
p545
g5
tp546
a(S'inter-compartmental'
p547
S'inter-compartmental'
p548
S'JJ'
p549
S'B-NP'
p550
g5
tp551
a(S'resistance'
p552
S'resistance'
p553
S'NN'
p554
S'I-NP'
p555
g5
tp556
a(S'and'
p557
S'and'
p558
S'CC'
p559
g5
g5
tp560
a(S'hence'
p561
S'hence'
p562
S'RB'
p563
S'B-ADVP'
p564
g5
tp565
a(g165
g165
g165
g5
g5
tp566
a(S'toxin'
p567
S'toxin'
p568
S'NN'
p569
S'B-NP'
p570
g5
tp571
a(S'removal.'
p572
S'removal.'
p573
S'NN'
p574
S'I-NP'
p575
g5
tp576
a(S'Only'
p577
S'Only'
p578
S'RB'
p579
S'B-NP'
p580
g5
tp581
a(S'stable'
p582
S'stable'
p583
S'JJ'
p584
S'I-NP'
p585
g5
tp586
a(S'HD'
p587
S'HD'
p588
S'NN'
p589
S'I-NP'
p590
g5
tp591
a(S'patients'
p592
S'patient'
p593
S'NNS'
p594
S'I-NP'
p595
g5
tp596
a(S'will'
p597
S'will'
p598
S'MD'
p599
S'B-VP'
p600
g5
tp601
a(S'be'
p602
S'be'
p603
S'VB'
p604
S'I-VP'
p605
g5
tp606
a(S'recruited'
p607
S'recruit'
p608
S'VBN'
p609
S'I-VP'
p610
g5
tp611
a(S'for'
p612
S'for'
p613
S'IN'
p614
S'B-PP'
p615
g5
tp616
a(S'this'
p617
S'this'
p618
S'DT'
p619
S'B-NP'
p620
g5
tp621
a(S'study.'
p622
S'study.'
p623
S'NN'
p624
S'I-NP'
p625
g5
tp626
a(S'The'
p627
S'The'
p628
S'DT'
p629
S'B-NP'
p630
g5
tp631
a(S'quantum'
p632
S'quantum'
p633
S'NN'
p634
S'I-NP'
p635
g5
tp636
a(S'of'
p637
S'of'
p638
S'IN'
p639
S'B-PP'
p640
g5
tp641
a(S'removed'
p642
S'remove'
p643
S'VBN'
p644
S'B-NP'
p645
g5
tp646
a(S'toxins'
p647
S'toxin'
p648
S'NNS'
p649
S'I-NP'
p650
g5
tp651
a(S'will'
p652
S'will'
p653
S'MD'
p654
S'B-VP'
p655
g5
tp656
a(S'be'
p657
S'be'
p658
S'VB'
p659
S'I-VP'
p660
g5
tp661
a(S'assessed'
p662
S'assess'
p663
S'VBN'
p664
S'I-VP'
p665
g5
tp666
a(S'by'
p667
S'by'
p668
S'IN'
p669
S'B-PP'
p670
g5
tp671
a(S'the'
p672
S'the'
p673
S'DT'
p674
S'B-NP'
p675
g5
tp676
a(S'total'
p677
S'total'
p678
S'JJ'
p679
S'I-NP'
p680
g5
tp681
a(S'spent'
p682
S'spent'
p683
S'JJ'
p684
S'I-NP'
p685
g5
tp686
a(S'dialysate'
p687
S'dialysate'
p688
S'NN'
p689
S'I-NP'
p690
g5
tp691
a(g165
g165
g165
g5
g5
tp692
a(S'which'
p693
S'which'
p694
S'WDT'
p695
S'B-NP'
p696
g5
tp697
a(S'is'
p698
S'be'
p699
S'VBZ'
p700
S'B-VP'
p701
g5
tp702
a(g492
g492
S'DT'
p703
S'B-NP'
p704
g5
tp705
a(S'gold'
p706
S'gold'
p707
S'JJ'
p708
S'I-NP'
p709
g5
tp710
a(S'standard'
p711
S'standard'
p712
S'NN'
p713
S'I-NP'
p714
g5
tp715
a(S'to'
p716
S'to'
p717
S'TO'
p718
S'B-VP'
p719
g5
tp720
a(S'quantify'
p721
S'quantify'
p722
S'VB'
p723
S'I-VP'
p724
g5
tp725
a(S'the'
p726
S'the'
p727
S'DT'
p728
S'B-NP'
p729
g5
tp730
a(S'efficacy'
p731
S'efficacy'
p732
S'NN'
p733
S'I-NP'
p734
g5
tp735
a(S'of'
p736
S'of'
p737
S'IN'
p738
S'B-PP'
p739
g5
tp740
a(g492
g492
S'DT'
p741
S'B-NP'
p742
g5
tp743
a(S'single'
p744
S'single'
p745
S'JJ'
p746
S'I-NP'
p747
g5
tp748
a(S'dialysis'
p749
S'dialysis'
p750
S'NN'
p751
S'I-NP'
p752
g5
tp753
a(S'session.'
p754
S'session.'
p755
S'NN'
p756
S'I-NP'
p757
g5
tp758
a(S'Collected'
p759
S'Collect'
p760
S'VBN'
p761
S'B-NP'
p762
g5
tp763
a(S'samples'
p764
S'sample'
p765
S'NNS'
p766
S'I-NP'
p767
g5
tp768
a(S'will'
p769
S'will'
p770
S'MD'
p771
S'B-VP'
p772
g5
tp773
a(S'be'
p774
S'be'
p775
S'VB'
p776
S'I-VP'
p777
g5
tp778
a(S'analyzed'
p779
S'analyze'
p780
S'VBN'
p781
S'I-VP'
p782
g5
tp783
a(S'for'
p784
S'for'
p785
S'IN'
p786
S'B-PP'
p787
g5
tp788
a(S'urea'
p789
S'urea'
p790
S'NN'
p791
S'B-NP'
p792
g5
tp793
a(g165
g165
g165
g5
g5
tp794
a(S'creatinine'
p795
S'creatinine'
p796
S'NN'
p797
S'B-NP'
p798
g5
tp799
a(g165
g165
g165
g5
g5
tp800
a(S'phosphate'
p801
S'phosphate'
p802
S'NN'
p803
S'B-NP'
p804
g5
tp805
a(g165
g165
g165
g5
g5
tp806
a(S'\xce\xb22-microglobulin'
p807
S'\xce\xb22-microglobulin'
p808
S'NN'
p809
S'B-NP'
p810
S'B-protein'
p811
tp812
a(g165
g165
g165
g5
g5
tp813
a(S'and'
p814
S'and'
p815
S'CC'
p816
g5
g5
tp817
a(S'uric'
p818
S'uric'
p819
S'JJ'
p820
S'B-NP'
p821
g5
tp822
a(S'acid.'
p823
S'acid.'
p824
S'NN'
p825
S'I-NP'
p826
g5
tp827
a(S'The'
p828
S'The'
p829
S'DT'
p830
S'B-NP'
p831
g5
tp832
a(S'study'
p833
S'study'
p834
S'NN'
p835
S'I-NP'
p836
g5
tp837
a(S'is'
p838
S'be'
p839
S'VBZ'
p840
S'B-VP'
p841
g5
tp842
a(g492
g492
S'DT'
p843
S'B-NP'
p844
g5
tp845
a(S'single'
p846
S'single'
p847
S'JJ'
p848
S'I-NP'
p849
g5
tp850
a(S'center'
p851
S'center'
p852
S'NN'
p853
S'I-NP'
p854
g5
tp855
a(g165
g165
g165
g5
g5
tp856
a(S'self-controlled'
p857
S'self-controlled'
p858
S'JJ'
p859
S'B-ADJP'
p860
g5
tp861
a(g165
g165
g165
g5
g5
tp862
a(S'randomized'
p863
S'randomize'
p864
S'VBD'
p865
S'B-VP'
p866
g5
tp867
a(S'prospective'
p868
S'prospective'
p869
S'JJ'
p870
S'B-NP'
p871
g5
tp872
a(S'clinical'
p873
S'clinical'
p874
S'JJ'
p875
S'I-NP'
p876
g5
tp877
a(S'research'
p878
S'research'
p879
S'NN'
p880
S'I-NP'
p881
g5
tp882
a(S'where'
p883
S'where'
p884
S'WRB'
p885
S'B-ADVP'
p886
g5
tp887
a(S'20'
p888
S'20'
p889
S'CD'
p890
S'B-NP'
p891
g5
tp892
a(S'study'
p893
S'study'
p894
S'NN'
p895
S'I-NP'
p896
g5
tp897
a(S'subjects'
p898
S'subject'
p899
S'NNS'
p900
S'I-NP'
p901
g5
tp902
a(S'will'
p903
S'will'
p904
S'MD'
p905
S'B-VP'
p906
g5
tp907
a(S'undergo'
p908
S'undergo'
p909
S'VB'
p910
S'I-VP'
p911
g5
tp912
a(S'2'
p913
g913
S'CD'
p914
S'B-NP'
p915
g5
tp916
a(S'dialysis'
p917
S'dialysis'
p918
S'NN'
p919
S'I-NP'
p920
g5
tp921
a(S'sessions'
p922
S'session'
p923
S'NNS'
p924
S'I-NP'
p925
g5
tp926
a(g47
g47
g47
g5
g5
tp927
a(g146
g146
g146
S'B-LST'
p928
g5
tp929
a(g492
g492
S'LS'
p930
S'I-LST'
p931
g5
tp932
a(g153
g153
g153
g5
g5
tp933
a(S'cool'
p934
S'cool'
p935
S'VB'
p936
S'B-VP'
p937
g5
tp938
a(S'dialysis'
p939
S'dialysis'
p940
S'NN'
p941
S'B-NP'
p942
g5
tp943
a(S'with'
p944
S'with'
p945
S'IN'
p946
S'B-PP'
p947
g5
tp948
a(S'dialysate'
p949
S'dialysate'
p950
S'NN'
p951
S'B-NP'
p952
g5
tp953
a(S'at'
p954
S'at'
p955
S'IN'
p956
S'B-PP'
p957
g5
tp958
a(S'35.5\xc2\xb0C'
p959
S'35.5\xc2\xb0C'
p960
S'NN'
p961
S'B-NP'
p962
g5
tp963
a(g165
g165
g165
g5
g5
tp964
a(S'and'
p965
S'and'
p966
S'CC'
p967
g5
g5
tp968
a(g146
g146
g146
S'B-LST'
p969
g5
tp970
a(S'b'
p971
g971
S'LS'
p972
S'I-LST'
p973
g5
tp974
a(g153
g153
g153
g5
g5
tp975
a(S'warm'
p976
S'warm'
p977
S'JJ'
p978
S'B-NP'
p979
g5
tp980
a(S'dialysis'
p981
S'dialysis'
p982
S'NN'
p983
S'I-NP'
p984
g5
tp985
a(S'with'
p986
S'with'
p987
S'IN'
p988
S'B-PP'
p989
g5
tp990
a(S'dialysate'
p991
S'dialysate'
p992
S'NN'
p993
S'B-NP'
p994
g5
tp995
a(S'at'
p996
S'at'
p997
S'IN'
p998
S'B-PP'
p999
g5
tp1000
a(S'37\xc2\xb0C.'
p1001
S'37\xc2\xb0C.'
p1002
S'NNP'
p1003
S'B-NP'
p1004
g5
tp1005
a(S'Pre-'
p1006
S'Pre-'
p1007
S'NNP'
p1008
S'I-NP'
p1009
g5
tp1010
a(S'and'
p1011
S'and'
p1012
S'CC'
p1013
g5
g5
tp1014
a(S'post-dialysis'
p1015
S'post-dialysis'
p1016
S'JJ'
p1017
S'B-NP'
p1018
g5
tp1019
a(S'blood'
p1020
S'blood'
p1021
S'NN'
p1022
S'I-NP'
p1023
g5
tp1024
a(S'samples'
p1025
S'sample'
p1026
S'NNS'
p1027
S'I-NP'
p1028
g5
tp1029
a(S'will'
p1030
S'will'
p1031
S'MD'
p1032
S'B-VP'
p1033
g5
tp1034
a(S'be'
p1035
S'be'
p1036
S'VB'
p1037
S'I-VP'
p1038
g5
tp1039
a(S'collected'
p1040
S'collect'
p1041
S'VBN'
p1042
S'I-VP'
p1043
g5
tp1044
a(S'to'
p1045
S'to'
p1046
S'TO'
p1047
S'B-VP'
p1048
g5
tp1049
a(S'quantify'
p1050
S'quantify'
p1051
S'VB'
p1052
S'I-VP'
p1053
g5
tp1054
a(S'the'
p1055
S'the'
p1056
S'DT'
p1057
S'B-NP'
p1058
g5
tp1059
a(S'dialysis'
p1060
S'dialysis'
p1061
S'NN'
p1062
S'I-NP'
p1063
g5
tp1064
a(S'adequacy'
p1065
S'adequacy'
p1066
S'NN'
p1067
S'I-NP'
p1068
g5
tp1069
a(S'and'
p1070
S'and'
p1071
S'CC'
p1072
g5
g5
tp1073
a(S'toxin'
p1074
S'toxin'
p1075
S'NN'
p1076
S'B-NP'
p1077
g5
tp1078
a(S'reduction'
p1079
S'reduction'
p1080
S'NN'
p1081
S'I-NP'
p1082
g5
tp1083
a(S'ratio'
p1084
S'ratio'
p1085
S'NN'
p1086
S'I-NP'
p1087
g5
tp1088
a(g69
g69
g69
g5
g5
tp1089
a(S'DISCUSSION'
p1090
S'DISCUSSION'
p1091
S'NN'
p1092
S'B-NP'
p1093
g5
tp1094
a(S'This'
p1095
S'This'
p1096
S'DT'
p1097
S'B-NP'
p1098
g5
tp1099
a(S'is'
p1100
S'be'
p1101
S'VBZ'
p1102
S'B-VP'
p1103
g5
tp1104
a(S'the'
p1105
S'the'
p1106
S'DT'
p1107
S'B-NP'
p1108
g5
tp1109
a(S'first'
p1110
S'first'
p1111
S'JJ'
p1112
S'I-NP'
p1113
g5
tp1114
a(S'clinical'
p1115
S'clinical'
p1116
S'JJ'
p1117
S'I-NP'
p1118
g5
tp1119
a(S'research'
p1120
S'research'
p1121
S'NN'
p1122
S'I-NP'
p1123
g5
tp1124
a(S'to'
p1125
S'to'
p1126
S'TO'
p1127
S'B-VP'
p1128
g5
tp1129
a(S'investigate'
p1130
S'investigate'
p1131
S'VB'
p1132
S'I-VP'
p1133
g5
tp1134
a(S'the'
p1135
S'the'
p1136
S'DT'
p1137
S'B-NP'
p1138
g5
tp1139
a(S'effect'
p1140
S'effect'
p1141
S'NN'
p1142
S'I-NP'
p1143
g5
tp1144
a(S'of'
p1145
S'of'
p1146
S'IN'
p1147
S'B-PP'
p1148
g5
tp1149
a(S'dialysate'
p1150
S'dialysate'
p1151
S'NN'
p1152
S'B-NP'
p1153
g5
tp1154
a(S'temperature'
p1155
S'temperature'
p1156
S'NN'
p1157
S'I-NP'
p1158
g5
tp1159
a(S'on'
p1160
S'on'
p1161
S'IN'
p1162
S'B-PP'
p1163
g5
tp1164
a(S'removal'
p1165
S'removal'
p1166
S'NN'
p1167
S'B-NP'
p1168
g5
tp1169
a(S'of'
p1170
S'of'
p1171
S'IN'
p1172
S'B-PP'
p1173
g5
tp1174
a(S'both'
p1175
S'both'
p1176
S'CC'
p1177
g5
g5
tp1178
a(S'small'
p1179
S'small'
p1180
S'JJ'
p1181
S'B-NP'
p1182
g5
tp1183
a(S'and'
p1184
S'and'
p1185
S'CC'
p1186
S'I-NP'
p1187
g5
tp1188
a(S'large-sized'
p1189
S'large-sized'
p1190
S'JJ'
p1191
S'I-NP'
p1192
g5
tp1193
a(S'toxins.'
p1194
S'toxins.'
p1195
S'NN'
p1196
S'I-NP'
p1197
g5
tp1198
a(S'Successful'
p1199
S'Successful'
p1200
S'JJ'
p1201
S'I-NP'
p1202
g5
tp1203
a(S'completion'
p1204
S'completion'
p1205
S'NN'
p1206
S'I-NP'
p1207
g5
tp1208
a(S'of'
p1209
S'of'
p1210
S'IN'
p1211
S'B-PP'
p1212
g5
tp1213
a(S'this'
p1214
S'this'
p1215
S'DT'
p1216
S'B-NP'
p1217
g5
tp1218
a(S'research'
p1219
S'research'
p1220
S'NN'
p1221
S'I-NP'
p1222
g5
tp1223
a(S'will'
p1224
S'will'
p1225
S'MD'
p1226
S'B-VP'
p1227
g5
tp1228
a(S'provide'
p1229
S'provide'
p1230
S'VB'
p1231
S'I-VP'
p1232
g5
tp1233
a(S'important'
p1234
S'important'
p1235
S'JJ'
p1236
S'B-NP'
p1237
g5
tp1238
a(S'knowledge'
p1239
S'knowledge'
p1240
S'NN'
p1241
S'I-NP'
p1242
g5
tp1243
a(S'pertaining'
p1244
S'pertain'
p1245
S'VBG'
p1246
S'B-VP'
p1247
g5
tp1248
a(S'to'
p1249
S'to'
p1250
S'TO'
p1251
S'I-VP'
p1252
g5
tp1253
a(S'dialysate'
p1254
S'dialysate'
p1255
S'VB'
p1256
S'I-VP'
p1257
g5
tp1258
a(S'temperature'
p1259
S'temperature'
p1260
S'NN'
p1261
S'B-NP'
p1262
g5
tp1263
a(S'prescription.'
p1264
S'prescription.'
p1265
S'NN'
p1266
S'I-NP'
p1267
g5
tp1268
a(S'Results'
p1269
S'Result'
p1270
S'NNS'
p1271
S'I-NP'
p1272
g5
tp1273
a(S'can'
p1274
S'can'
p1275
S'MD'
p1276
S'B-VP'
p1277
g5
tp1278
a(S'also'
p1279
S'also'
p1280
S'RB'
p1281
S'I-VP'
p1282
g5
tp1283
a(S'lead'
p1284
S'lead'
p1285
S'VB'
p1286
S'I-VP'
p1287
g5
tp1288
a(S'to'
p1289
S'to'
p1290
S'TO'
p1291
S'B-PP'
p1292
g5
tp1293
a(S'the'
p1294
S'the'
p1295
S'DT'
p1296
S'B-NP'
p1297
g5
tp1298
a(S'hypothesis'
p1299
S'hypothesis'
p1300
S'NN'
p1301
S'I-NP'
p1302
g5
tp1303
a(S'that'
p1304
S'that'
p1305
S'IN'
p1306
S'B-SBAR'
p1307
g5
tp1308
a(S'cool'
p1309
S'cool'
p1310
S'JJ'
p1311
S'B-NP'
p1312
g5
tp1313
a(S'dialysate'
p1314
S'dialysate'
p1315
S'NN'
p1316
S'I-NP'
p1317
g5
tp1318
a(S'may'
p1319
S'may'
p1320
S'MD'
p1321
S'B-VP'
p1322
g5
tp1323
a(S'help'
p1324
S'help'
p1325
S'VB'
p1326
S'I-VP'
p1327
g5
tp1328
a(S'in'
p1329
S'in'
p1330
S'RP'
p1331
S'B-PRT'
p1332
g5
tp1333
a(S'by'
p1334
S'by'
p1335
S'IN'
p1336
S'B-PP'
p1337
g5
tp1338
a(S'preventing'
p1339
S'prevent'
p1340
S'VBG'
p1341
S'B-VP'
p1342
g5
tp1343
a(S'intra-dialytic'
p1344
S'intra-dialytic'
p1345
S'JJ'
p1346
S'B-NP'
p1347
g5
tp1348
a(S'hypotensive'
p1349
S'hypotensive'
p1350
S'JJ'
p1351
S'I-NP'
p1352
g5
tp1353
a(S'episodes'
p1354
S'episode'
p1355
S'NNS'
p1356
S'I-NP'
p1357
g5
tp1358
a(g165
g165
g165
g5
g5
tp1359
a(S'but'
p1360
S'but'
p1361
S'CC'
p1362
g5
g5
tp1363
a(S'prolonged'
p1364
S'prolong'
p1365
S'VBD'
p1366
S'B-VP'
p1367
g5
tp1368
a(S'prescription'
p1369
S'prescription'
p1370
S'NN'
p1371
S'B-NP'
p1372
g5
tp1373
a(S'of'
p1374
S'of'
p1375
S'IN'
p1376
S'B-PP'
p1377
g5
tp1378
a(S'cool'
p1379
S'cool'
p1380
S'JJ'
p1381
S'B-NP'
p1382
g5
tp1383
a(S'dialysate'
p1384
S'dialysate'
p1385
S'NN'
p1386
S'I-NP'
p1387
g5
tp1388
a(S'may'
p1389
S'may'
p1390
S'MD'
p1391
S'B-VP'
p1392
g5
tp1393
a(S'lead'
p1394
S'lead'
p1395
S'VB'
p1396
S'I-VP'
p1397
g5
tp1398
a(S'to'
p1399
S'to'
p1400
S'TO'
p1401
S'B-PP'
p1402
g5
tp1403
a(S'comorbidities'
p1404
S'comorbidity'
p1405
S'NNS'
p1406
S'B-NP'
p1407
g5
tp1408
a(S'associated'
p1409
S'associate'
p1410
S'VBN'
p1411
S'B-VP'
p1412
g5
tp1413
a(S'with'
p1414
S'with'
p1415
S'IN'
p1416
S'B-PP'
p1417
g5
tp1418
a(S'excess'
p1419
S'excess'
p1420
S'JJ'
p1421
S'B-NP'
p1422
g5
tp1423
a(S'toxin'
p1424
S'toxin'
p1425
S'NN'
p1426
S'I-NP'
p1427
g5
tp1428
a(S'accumulation.'
p1429
S'accumulation.'
p1430
S'NN'
p1431
S'I-NP'
p1432
g5
tp1433
a(S'The'
p1434
S'The'
p1435
S'DT'
p1436
S'B-NP'
p1437
g5
tp1438
a(S'new'
p1439
S'new'
p1440
S'JJ'
p1441
S'I-NP'
p1442
g5
tp1443
a(S'knowledge'
p1444
S'knowledge'
p1445
S'NN'
p1446
S'I-NP'
p1447
g5
tp1448
a(S'will'
p1449
S'will'
p1450
S'MD'
p1451
S'B-VP'
p1452
g5
tp1453
a(S'encourage'
p1454
S'encourage'
p1455
S'VB'
p1456
S'I-VP'
p1457
g5
tp1458
a(S'for'
p1459
S'for'
p1460
S'IN'
p1461
S'B-PP'
p1462
g5
tp1463
a(S'personalized'
p1464
S'personalize'
p1465
S'VBN'
p1466
S'B-NP'
p1467
g5
tp1468
a(S'dialysate'
p1469
S'dialysate'
p1470
S'NN'
p1471
S'I-NP'
p1472
g5
tp1473
a(S'temperature'
p1474
S'temperature'
p1475
S'NN'
p1476
S'I-NP'
p1477
g5
tp1478
a(S'profiling'
p1479
S'profiling'
p1480
S'NN'
p1481
S'I-NP'
p1482
g5
tp1483
a(g69
g69
g69
g5
g5
tp1484
a(S'TRIAL'
p1485
S'TRIAL'
p1486
S'NNP'
p1487
S'B-NP'
p1488
g5
tp1489
a(S'REGISTRATION'
p1490
S'REGISTRATION'
p1491
S'NNP'
p1492
S'I-NP'
p1493
g5
tp1494
a(S'Clinicaltrials.gov'
p1495
S'Clinicaltrials.gov'
p1496
S'NNP'
p1497
S'I-NP'
p1498
g5
tp1499
a(S'Identifier'
p1500
S'Identifier'
p1501
S'NNP'
p1502
S'I-NP'
p1503
g5
tp1504
a(S'--'
p1505
S'--'
p1506
g47
g5
g5
tp1507
a(S'NCT02064153'
p1508
S'NCT02064153'
p1509
S'NN'
p1510
S'B-NP'
p1511
g5
tp1512
a(g69
g69
g69
g5
g5
tp1513
a.