(lp0
(S'Randomized'
p1
S'Randomize'
p2
S'VBN'
p3
S'B-NP'
p4
S'O'
p5
tp6
a(S'controlled'
p7
S'control'
p8
S'VBN'
p9
S'I-NP'
p10
g5
tp11
a(S'study'
p12
S'study'
p13
S'NN'
p14
S'I-NP'
p15
g5
tp16
a(S'of'
p17
S'of'
p18
S'IN'
p19
S'B-PP'
p20
g5
tp21
a(S'chemoprophylaxis'
p22
S'chemoprophylaxis'
p23
S'NN'
p24
S'B-NP'
p25
g5
tp26
a(S'in'
p27
S'in'
p28
S'IN'
p29
S'B-PP'
p30
g5
tp31
a(S'transurethral'
p32
S'transurethral'
p33
S'JJ'
p34
S'B-NP'
p35
g5
tp36
a(S'prostatectomy'
p37
S'prostatectomy'
p38
S'NN'
p39
S'I-NP'
p40
g5
tp41
a(S'.'
p42
g42
g42
g5
g5
tp43
a(S'We'
p44
S'We'
p45
S'PRP'
p46
S'B-NP'
p47
g5
tp48
a(S'studied'
p49
S'study'
p50
S'VBD'
p51
S'B-VP'
p52
g5
tp53
a(S'599'
p54
S'599'
p55
S'CD'
p56
S'B-NP'
p57
g5
tp58
a(S'evaluable'
p59
S'evaluable'
p60
S'JJ'
p61
S'I-NP'
p62
g5
tp63
a(S'patients'
p64
S'patient'
p65
S'NNS'
p66
S'I-NP'
p67
g5
tp68
a(S'with'
p69
S'with'
p70
S'IN'
p71
S'B-PP'
p72
g5
tp73
a(S'benign'
p74
S'benign'
p75
S'JJ'
p76
S'B-NP'
p77
g5
tp78
a(S'prostatic'
p79
S'prostatic'
p80
S'JJ'
p81
S'I-NP'
p82
g5
tp83
a(S'hypertrophy'
p84
S'hypertrophy'
p85
S'NN'
p86
S'I-NP'
p87
g5
tp88
a(S'at'
p89
S'at'
p90
S'IN'
p91
S'B-PP'
p92
g5
tp93
a(S'7'
p94
g94
S'CD'
p95
S'B-NP'
p96
g5
tp97
a(S'urological'
p98
S'urological'
p99
S'JJ'
p100
S'I-NP'
p101
g5
tp102
a(S'units.'
p103
S'units.'
p104
S'NNS'
p105
S'I-NP'
p106
g5
tp107
a(S'Before'
p108
S'Before'
p109
S'IN'
p110
S'B-PP'
p111
g5
tp112
a(S'transurethral'
p113
S'transurethral'
p114
S'JJ'
p115
S'B-NP'
p116
g5
tp117
a(S'prostatectomy'
p118
S'prostatectomy'
p119
S'NN'
p120
S'I-NP'
p121
g5
tp122
a(S'the'
p123
S'the'
p124
S'DT'
p125
S'B-NP'
p126
g5
tp127
a(S'patients'
p128
S'patient'
p129
S'NNS'
p130
S'I-NP'
p131
g5
tp132
a(S'were'
p133
S'be'
p134
S'VBD'
p135
S'B-VP'
p136
g5
tp137
a(S'randomized'
p138
S'randomize'
p139
S'VBN'
p140
S'I-VP'
p141
g5
tp142
a(S'into'
p143
S'into'
p144
S'IN'
p145
S'B-PP'
p146
g5
tp147
a(S'3'
p148
g148
S'CD'
p149
S'B-NP'
p150
g5
tp151
a(S'groups'
p152
S'group'
p153
S'NNS'
p154
S'I-NP'
p155
g5
tp156
a(S':'
p157
g157
g157
g5
g5
tp158
a(S'group'
p159
S'group'
p160
S'NN'
p161
S'B-NP'
p162
g5
tp163
a(S'1'
p164
g164
S'CD'
p165
S'I-NP'
p166
g5
tp167
a(S'--'
p168
S'--'
p169
S'HYPH'
p170
g5
g5
tp171
a(S'197'
p172
S'197'
p173
S'CD'
p174
S'B-NP'
p175
g5
tp176
a(S'patients'
p177
S'patient'
p178
S'NNS'
p179
S'I-NP'
p180
g5
tp181
a(S'given'
p182
S'give'
p183
S'VBN'
p184
S'B-VP'
p185
g5
tp186
a(S'single-dose'
p187
S'single-dose'
p188
S'JJ'
p189
S'B-NP'
p190
g5
tp191
a(S'ceftriaxone'
p192
S'ceftriaxone'
p193
S'NN'
p194
S'I-NP'
p195
g5
tp196
a(S'('
p197
g197
g197
g5
g5
tp198
a(S'2'
p199
g199
S'CD'
p200
S'B-NP'
p201
g5
tp202
a(S'gm.'
p203
S'gm.'
p204
S'NN'
p205
S'I-NP'
p206
g5
tp207
a(S')'
p208
g208
g208
g5
g5
tp209
a(S','
p210
g210
g210
g5
g5
tp211
a(S'group'
p212
S'group'
p213
S'NN'
p214
S'B-NP'
p215
g5
tp216
a(g199
g199
S'CD'
p217
S'I-NP'
p218
g5
tp219
a(S'--'
p220
S'--'
p221
S'HYPH'
p222
g5
g5
tp223
a(S'203'
p224
S'203'
p225
S'CD'
p226
S'B-NP'
p227
g5
tp228
a(S'patients'
p229
S'patient'
p230
S'NNS'
p231
S'I-NP'
p232
g5
tp233
a(S'given'
p234
S'give'
p235
S'VBN'
p236
S'B-VP'
p237
g5
tp238
a(S'160/800'
p239
S'160/800'
p240
S'CD'
p241
S'B-NP'
p242
g5
tp243
a(S'mg.'
p244
S'mg.'
p245
S'NN'
p246
S'I-NP'
p247
g5
tp248
a(S'trimethoprimsulfamethoxazole'
p249
S'trimethoprimsulfamethoxazole'
p250
S'NN'
p251
S'I-NP'
p252
g5
tp253
a(S'and'
p254
S'and'
p255
S'CC'
p256
g5
g5
tp257
a(S'group'
p258
S'group'
p259
S'NN'
p260
S'B-NP'
p261
g5
tp262
a(g148
g148
S'CD'
p263
S'I-NP'
p264
g5
tp265
a(S'--'
p266
S'--'
p267
S'HYPH'
p268
S'I-NP'
p269
g5
tp270
a(S'199'
p271
S'199'
p272
S'CD'
p273
S'I-NP'
p274
g5
tp275
a(S'controls'
p276
S'control'
p277
S'NNS'
p278
S'I-NP'
p279
g5
tp280
a(S'given'
p281
S'give'
p282
S'VBN'
p283
S'B-PP'
p284
g5
tp285
a(S'no'
p286
S'no'
p287
S'DT'
p288
S'B-NP'
p289
g5
tp290
a(S'antimicrobial'
p291
S'antimicrobial'
p292
S'JJ'
p293
S'I-NP'
p294
g5
tp295
a(S'prophylaxis.'
p296
S'prophylaxis.'
p297
S'NN'
p298
S'I-NP'
p299
g5
tp300
a(S'Patients'
p301
S'Patient'
p302
S'NNS'
p303
S'I-NP'
p304
g5
tp305
a(S'with'
p306
S'with'
p307
S'IN'
p308
S'B-PP'
p309
g5
tp310
a(S'a'
p311
g311
S'DT'
p312
S'B-NP'
p313
g5
tp314
a(S'preoperative'
p315
S'preoperative'
p316
S'JJ'
p317
S'I-NP'
p318
g5
tp319
a(S'indwelling'
p320
S'indwell'
p321
S'VBG'
p322
S'I-NP'
p323
g5
tp324
a(S'catheter'
p325
S'catheter'
p326
S'NN'
p327
S'I-NP'
p328
g5
tp329
a(g210
g210
g210
g5
g5
tp330
a(S'positive'
p331
S'positive'
p332
S'JJ'
p333
S'B-NP'
p334
g5
tp335
a(S'urine'
p336
S'urine'
p337
S'NN'
p338
S'I-NP'
p339
g5
tp340
a(S'culture'
p341
S'culture'
p342
S'NN'
p343
S'I-NP'
p344
g5
tp345
a(g210
g210
g210
g5
g5
tp346
a(S'signs'
p347
S'sign'
p348
S'NNS'
p349
S'B-NP'
p350
g5
tp351
a(S'of'
p352
S'of'
p353
S'IN'
p354
S'B-PP'
p355
g5
tp356
a(S'active'
p357
S'active'
p358
S'JJ'
p359
S'B-NP'
p360
g5
tp361
a(S'infection'
p362
S'infection'
p363
S'NN'
p364
S'I-NP'
p365
g5
tp366
a(S'or'
p367
S'or'
p368
S'CC'
p369
g5
g5
tp370
a(S'preoperative'
p371
S'preoperative'
p372
S'JJ'
p373
S'B-NP'
p374
g5
tp375
a(S'antibiotic'
p376
S'antibiotic'
p377
S'JJ'
p378
S'I-NP'
p379
g5
tp380
a(S'treatment'
p381
S'treatment'
p382
S'NN'
p383
S'I-NP'
p384
g5
tp385
a(S'were'
p386
S'be'
p387
S'VBD'
p388
S'B-VP'
p389
g5
tp390
a(S'excluded.'
p391
S'excluded.'
p392
S'FW'
p393
S'B-NP'
p394
g5
tp395
a(S'Postoperative'
p396
S'Postoperative'
p397
S'JJ'
p398
S'I-NP'
p399
g5
tp400
a(S'infectious'
p401
S'infectious'
p402
S'JJ'
p403
S'I-NP'
p404
g5
tp405
a(S'complications'
p406
S'complication'
p407
S'NNS'
p408
S'I-NP'
p409
g5
tp410
a(S'were'
p411
S'be'
p412
S'VBD'
p413
S'B-VP'
p414
g5
tp415
a(S'demonstrated'
p416
S'demonstrate'
p417
S'VBN'
p418
S'I-VP'
p419
g5
tp420
a(S'in'
p421
S'in'
p422
S'IN'
p423
S'B-PP'
p424
g5
tp425
a(S'15'
p426
S'15'
p427
S'CD'
p428
S'B-NP'
p429
g5
tp430
a(S'of'
p431
S'of'
p432
S'IN'
p433
S'B-PP'
p434
g5
tp435
a(S'197'
p436
S'197'
p437
S'CD'
p438
S'B-NP'
p439
g5
tp440
a(g197
g197
g197
g5
g5
tp441
a(S'7.6'
p442
S'7.6'
p443
S'CD'
p444
S'B-NP'
p445
g5
tp446
a(S'%'
p447
g447
S'NN'
p448
S'I-NP'
p449
g5
tp450
a(g208
g208
g208
g5
g5
tp451
a(g210
g210
g210
g5
g5
tp452
a(S'25'
p453
S'25'
p454
S'CD'
p455
S'B-NP'
p456
g5
tp457
a(S'of'
p458
S'of'
p459
S'IN'
p460
S'B-PP'
p461
g5
tp462
a(S'203'
p463
S'203'
p464
S'CD'
p465
S'B-NP'
p466
g5
tp467
a(g197
g197
g197
g5
g5
tp468
a(S'12.3'
p469
S'12.3'
p470
S'CD'
p471
S'B-NP'
p472
g5
tp473
a(g447
g447
S'NN'
p474
S'I-NP'
p475
g5
tp476
a(g208
g208
g208
g5
g5
tp477
a(S'and'
p478
S'and'
p479
S'CC'
p480
g5
g5
tp481
a(S'43'
p482
S'43'
p483
S'CD'
p484
S'B-NP'
p485
g5
tp486
a(S'of'
p487
S'of'
p488
S'IN'
p489
S'B-PP'
p490
g5
tp491
a(S'199'
p492
S'199'
p493
S'CD'
p494
S'B-NP'
p495
g5
tp496
a(g197
g197
g197
g5
g5
tp497
a(S'21.6'
p498
S'21.6'
p499
S'CD'
p500
S'B-NP'
p501
g5
tp502
a(g447
g447
S'NN'
p503
S'I-NP'
p504
g5
tp505
a(g208
g208
g208
g5
g5
tp506
a(S'patients'
p507
S'patient'
p508
S'NNS'
p509
S'B-NP'
p510
g5
tp511
a(S'in'
p512
S'in'
p513
S'IN'
p514
S'B-PP'
p515
g5
tp516
a(S'the'
p517
S'the'
p518
S'DT'
p519
S'B-NP'
p520
g5
tp521
a(S'study'
p522
S'study'
p523
S'NN'
p524
S'I-NP'
p525
g5
tp526
a(S'groups'
p527
S'group'
p528
S'NNS'
p529
S'I-NP'
p530
g5
tp531
a(g210
g210
g210
g5
g5
tp532
a(S'respectively.'
p533
S'respectively.'
p534
S'VBP'
p535
S'B-VP'
p536
g5
tp537
a(S'The'
p538
S'The'
p539
S'DT'
p540
S'B-NP'
p541
g5
tp542
a(S'difference'
p543
S'difference'
p544
S'NN'
p545
S'I-NP'
p546
g5
tp547
a(S'in'
p548
S'in'
p549
S'IN'
p550
S'B-PP'
p551
g5
tp552
a(S'infectious'
p553
S'infectious'
p554
S'JJ'
p555
S'B-NP'
p556
g5
tp557
a(S'complications'
p558
S'complication'
p559
S'NNS'
p560
S'I-NP'
p561
g5
tp562
a(S'between'
p563
S'between'
p564
S'IN'
p565
S'B-PP'
p566
g5
tp567
a(S'groups'
p568
S'group'
p569
S'NNS'
p570
S'B-NP'
p571
g5
tp572
a(g164
g164
S'CD'
p573
S'I-NP'
p574
g5
tp575
a(S'and'
p576
S'and'
p577
S'CC'
p578
S'I-NP'
p579
g5
tp580
a(g148
g148
S'CD'
p581
S'I-NP'
p582
g5
tp583
a(S'was'
p584
S'be'
p585
S'VBD'
p586
S'B-VP'
p587
g5
tp588
a(S'statistically'
p589
S'statistically'
p590
S'RB'
p591
S'B-ADJP'
p592
g5
tp593
a(S'highly'
p594
S'highly'
p595
S'RB'
p596
S'I-ADJP'
p597
g5
tp598
a(S'significant'
p599
S'significant'
p600
S'JJ'
p601
S'I-ADJP'
p602
g5
tp603
a(g197
g197
g197
g5
g5
tp604
a(S'p'
p605
g605
S'NN'
p606
S'B-NP'
p607
g5
tp608
a(S'<'
p609
g609
S'SYM'
p610
g5
g5
tp611
a(S'0.01'
p612
S'0.01'
p613
S'CD'
p614
S'B-NP'
p615
g5
tp616
a(g208
g208
g208
g5
g5
tp617
a(S'and'
p618
S'and'
p619
S'CC'
p620
g5
g5
tp621
a(S'between'
p622
S'between'
p623
S'IN'
p624
S'B-PP'
p625
g5
tp626
a(S'groups'
p627
S'group'
p628
S'NNS'
p629
S'B-NP'
p630
g5
tp631
a(g199
g199
S'CD'
p632
S'I-NP'
p633
g5
tp634
a(S'and'
p635
S'and'
p636
S'CC'
p637
S'I-NP'
p638
g5
tp639
a(g148
g148
S'CD'
p640
S'I-NP'
p641
g5
tp642
a(S'it'
p643
S'it'
p644
S'PRP'
p645
S'B-NP'
p646
g5
tp647
a(S'was'
p648
S'be'
p649
S'VBD'
p650
S'B-VP'
p651
g5
tp652
a(S'significant'
p653
S'significant'
p654
S'JJ'
p655
S'B-ADJP'
p656
g5
tp657
a(g197
g197
g197
g5
g5
tp658
a(g605
g605
S'NN'
p659
S'B-NP'
p660
g5
tp661
a(g609
g609
S'SYM'
p662
g5
g5
tp663
a(S'0.05'
p664
S'0.05'
p665
S'CD'
p666
S'B-NP'
p667
g5
tp668
a(g208
g208
g208
g5
g5
tp669
a(g42
g42
g42
g5
g5
tp670
a(S'Single-dose'
p671
S'Single-dose'
p672
S'JJ'
p673
S'B-NP'
p674
g5
tp675
a(S'antibiotic'
p676
S'antibiotic'
p677
S'JJ'
p678
S'I-NP'
p679
g5
tp680
a(S'prophylaxis'
p681
S'prophylaxis'
p682
S'NN'
p683
S'I-NP'
p684
g5
tp685
a(S'proved'
p686
S'prove'
p687
S'VBD'
p688
S'B-VP'
p689
g5
tp690
a(S'to'
p691
S'to'
p692
S'TO'
p693
S'I-VP'
p694
g5
tp695
a(S'be'
p696
S'be'
p697
S'VB'
p698
S'I-VP'
p699
g5
tp700
a(S'useful'
p701
S'useful'
p702
S'JJ'
p703
S'B-ADJP'
p704
g5
tp705
a(S'in'
p706
S'in'
p707
S'IN'
p708
S'B-PP'
p709
g5
tp710
a(S'the'
p711
S'the'
p712
S'DT'
p713
S'B-NP'
p714
g5
tp715
a(S'prevention'
p716
S'prevention'
p717
S'NN'
p718
S'I-NP'
p719
g5
tp720
a(S'of'
p721
S'of'
p722
S'IN'
p723
S'B-PP'
p724
g5
tp725
a(S'serious'
p726
S'serious'
p727
S'JJ'
p728
S'B-NP'
p729
g5
tp730
a(S'infectious'
p731
S'infectious'
p732
S'JJ'
p733
S'I-NP'
p734
g5
tp735
a(S'complications'
p736
S'complication'
p737
S'NNS'
p738
S'I-NP'
p739
g5
tp740
a(S'after'
p741
S'after'
p742
S'IN'
p743
S'B-PP'
p744
g5
tp745
a(S'transurethral'
p746
S'transurethral'
p747
S'JJ'
p748
S'B-NP'
p749
g5
tp750
a(S'prostatectomy'
p751
S'prostatectomy'
p752
S'NN'
p753
S'I-NP'
p754
g5
tp755
a(g42
g42
g42
g5
g5
tp756
a.