(lp0
(S'Study'
p1
S'Study'
p2
S'NN'
p3
S'B-NP'
p4
S'O'
p5
tp6
a(S'protocol'
p7
S'protocol'
p8
S'NN'
p9
S'I-NP'
p10
g5
tp11
a(S':'
p12
g12
g12
g5
g5
tp13
a(S'Phase'
p14
S'Phase'
p15
S'NN'
p16
S'B-NP'
p17
g5
tp18
a(S'III'
p19
S'III'
p20
S'CD'
p21
S'I-NP'
p22
g5
tp23
a(S'single-blinded'
p24
S'single-blinded'
p25
S'JJ'
p26
S'I-NP'
p27
g5
tp28
a(S'fast-track'
p29
S'fast-track'
p30
S'JJ'
p31
S'I-NP'
p32
g5
tp33
a(S'pragmatic'
p34
S'pragmatic'
p35
S'JJ'
p36
S'I-NP'
p37
g5
tp38
a(S'randomised'
p39
S'randomise'
p40
S'VBN'
p41
S'I-NP'
p42
g5
tp43
a(S'controlled'
p44
S'control'
p45
S'VBN'
p46
S'I-NP'
p47
g5
tp48
a(S'trial'
p49
S'trial'
p50
S'NN'
p51
S'I-NP'
p52
g5
tp53
a(S'of'
p54
S'of'
p55
S'IN'
p56
S'B-PP'
p57
g5
tp58
a(S'a'
p59
g59
S'DT'
p60
S'B-NP'
p61
g5
tp62
a(S'complex'
p63
S'complex'
p64
S'JJ'
p65
S'I-NP'
p66
g5
tp67
a(S'intervention'
p68
S'intervention'
p69
S'NN'
p70
S'I-NP'
p71
g5
tp72
a(S'for'
p73
S'for'
p74
S'IN'
p75
S'B-PP'
p76
g5
tp77
a(S'breathlessness'
p78
S'breathlessness'
p79
S'NN'
p80
S'B-NP'
p81
g5
tp82
a(S'in'
p83
S'in'
p84
S'IN'
p85
S'B-PP'
p86
g5
tp87
a(S'advanced'
p88
S'advance'
p89
S'VBN'
p90
S'B-NP'
p91
g5
tp92
a(S'disease'
p93
S'disease'
p94
S'NN'
p95
S'I-NP'
p96
g5
tp97
a(S'.'
p98
g98
g98
g5
g5
tp99
a(S'BACKGROUND'
p100
S'BACKGROUND'
p101
S'NN'
p102
S'B-NP'
p103
g5
tp104
a(S'Breathlessness'
p105
S'Breathlessness'
p106
S'NN'
p107
S'I-NP'
p108
g5
tp109
a(S'in'
p110
S'in'
p111
S'IN'
p112
S'B-PP'
p113
g5
tp114
a(S'advanced'
p115
S'advance'
p116
S'VBN'
p117
S'B-NP'
p118
g5
tp119
a(S'disease'
p120
S'disease'
p121
S'NN'
p122
S'I-NP'
p123
g5
tp124
a(S'causes'
p125
S'cause'
p126
S'VBZ'
p127
S'B-VP'
p128
g5
tp129
a(S'significant'
p130
S'significant'
p131
S'JJ'
p132
S'B-NP'
p133
g5
tp134
a(S'distress'
p135
S'distress'
p136
S'NN'
p137
S'I-NP'
p138
g5
tp139
a(S'to'
p140
S'to'
p141
S'TO'
p142
S'B-PP'
p143
g5
tp144
a(S'patients'
p145
S'patient'
p146
S'NNS'
p147
S'B-NP'
p148
g5
tp149
a(S'and'
p150
S'and'
p151
S'CC'
p152
S'I-NP'
p153
g5
tp154
a(S'carers'
p155
S'carer'
p156
S'NNS'
p157
S'I-NP'
p158
g5
tp159
a(S'and'
p160
S'and'
p161
S'CC'
p162
g5
g5
tp163
a(S'presents'
p164
S'present'
p165
S'VBZ'
p166
S'B-VP'
p167
g5
tp168
a(S'management'
p169
S'management'
p170
S'NN'
p171
S'B-NP'
p172
g5
tp173
a(S'challenges'
p174
S'challenge'
p175
S'NNS'
p176
S'I-NP'
p177
g5
tp178
a(S'to'
p179
S'to'
p180
S'TO'
p181
S'B-PP'
p182
g5
tp183
a(S'health'
p184
S'health'
p185
S'NN'
p186
S'B-NP'
p187
g5
tp188
a(S'care'
p189
S'care'
p190
S'NN'
p191
S'I-NP'
p192
g5
tp193
a(S'professionals.'
p194
S'professionals.'
p195
S'NNS'
p196
S'I-NP'
p197
g5
tp198
a(S'The'
p199
S'The'
p200
S'DT'
p201
S'B-NP'
p202
g5
tp203
a(S'Breathlessness'
p204
S'Breathlessness'
p205
S'NNP'
p206
S'I-NP'
p207
g5
tp208
a(S'Intervention'
p209
S'Intervention'
p210
S'NNP'
p211
S'I-NP'
p212
g5
tp213
a(S'Service'
p214
S'Service'
p215
S'NNP'
p216
S'I-NP'
p217
g5
tp218
a(S'('
p219
g219
g219
g5
g5
tp220
a(S'BIS'
p221
S'BIS'
p222
S'NN'
p223
S'B-NP'
p224
g5
tp225
a(S')'
p226
g226
g226
g5
g5
tp227
a(S'seeks'
p228
S'seek'
p229
S'VBZ'
p230
S'B-VP'
p231
g5
tp232
a(S'to'
p233
S'to'
p234
S'TO'
p235
S'I-VP'
p236
g5
tp237
a(S'improve'
p238
S'improve'
p239
S'VB'
p240
S'I-VP'
p241
g5
tp242
a(S'the'
p243
S'the'
p244
S'DT'
p245
S'B-NP'
p246
g5
tp247
a(S'care'
p248
S'care'
p249
S'NN'
p250
S'I-NP'
p251
g5
tp252
a(S'of'
p253
S'of'
p254
S'IN'
p255
S'B-PP'
p256
g5
tp257
a(S'breathless'
p258
S'breathless'
p259
S'JJ'
p260
S'B-NP'
p261
g5
tp262
a(S'patients'
p263
S'patient'
p264
S'NNS'
p265
S'I-NP'
p266
g5
tp267
a(S'with'
p268
S'with'
p269
S'IN'
p270
S'B-PP'
p271
g5
tp272
a(S'advanced'
p273
S'advance'
p274
S'VBN'
p275
S'B-NP'
p276
g5
tp277
a(S'disease'
p278
S'disease'
p279
S'NN'
p280
S'I-NP'
p281
g5
tp282
a(g219
g219
g219
g5
g5
tp283
a(S'regardless'
p284
S'regardless'
p285
S'RB'
p286
S'B-ADVP'
p287
g5
tp288
a(S'of'
p289
S'of'
p290
S'IN'
p291
S'B-PP'
p292
g5
tp293
a(S'cause'
p294
S'cause'
p295
S'NN'
p296
S'B-NP'
p297
g5
tp298
a(g226
g226
g226
g5
g5
tp299
a(S'through'
p300
S'through'
p301
S'IN'
p302
S'B-PP'
p303
g5
tp304
a(S'the'
p305
S'the'
p306
S'DT'
p307
S'B-NP'
p308
g5
tp309
a(S'use'
p310
S'use'
p311
S'NN'
p312
S'I-NP'
p313
g5
tp314
a(S'of'
p315
S'of'
p316
S'IN'
p317
S'B-PP'
p318
g5
tp319
a(S'evidence-based'
p320
S'evidence-based'
p321
S'JJ'
p322
S'B-NP'
p323
g5
tp324
a(S'practice'
p325
S'practice'
p326
S'NN'
p327
S'I-NP'
p328
g5
tp329
a(S'and'
p330
S'and'
p331
S'CC'
p332
g5
g5
tp333
a(S'working'
p334
S'work'
p335
S'VBG'
p336
S'B-VP'
p337
g5
tp338
a(S'with'
p339
S'with'
p340
S'IN'
p341
S'B-PP'
p342
g5
tp343
a(S'other'
p344
S'other'
p345
S'JJ'
p346
S'B-NP'
p347
g5
tp348
a(S'healthcare'
p349
S'healthcare'
p350
S'NN'
p351
S'I-NP'
p352
g5
tp353
a(S'providers.'
p354
S'providers.'
p355
S'NN'
p356
S'I-NP'
p357
g5
tp358
a(S'BIS'
p359
S'BIS'
p360
S'NN'
p361
S'I-NP'
p362
g5
tp363
a(S'delivers'
p364
S'deliver'
p365
S'VBZ'
p366
S'B-VP'
p367
g5
tp368
a(g59
g59
S'DT'
p369
S'B-NP'
p370
g5
tp371
a(S'complex'
p372
S'complex'
p373
S'JJ'
p374
S'I-NP'
p375
g5
tp376
a(S'intervention'
p377
S'intervention'
p378
S'NN'
p379
S'I-NP'
p380
g5
tp381
a(g219
g219
g219
g5
g5
tp382
a(S'of'
p383
S'of'
p384
S'IN'
p385
S'B-PP'
p386
g5
tp387
a(S'non-pharmacological'
p388
S'non-pharmacological'
p389
S'JJ'
p390
S'B-NP'
p391
g5
tp392
a(S'and'
p393
S'and'
p394
S'CC'
p395
S'I-NP'
p396
g5
tp397
a(S'pharmacological'
p398
S'pharmacological'
p399
S'JJ'
p400
S'I-NP'
p401
g5
tp402
a(S'treatments'
p403
S'treatment'
p404
S'NNS'
p405
S'I-NP'
p406
g5
tp407
a(g226
g226
g226
g5
g5
tp408
a(S'via'
p409
S'via'
p410
S'IN'
p411
S'B-PP'
p412
g5
tp413
a(g59
g59
S'DT'
p414
S'B-NP'
p415
g5
tp416
a(S'multi-professional'
p417
S'multi-professional'
p418
S'JJ'
p419
S'I-NP'
p420
g5
tp421
a(S'team.'
p422
S'team.'
p423
S'NN'
p424
S'I-NP'
p425
g5
tp426
a(S'BIS'
p427
S'BIS'
p428
S'NN'
p429
S'I-NP'
p430
g5
tp431
a(S'is'
p432
S'be'
p433
S'VBZ'
p434
S'B-VP'
p435
g5
tp436
a(S'being'
p437
S'be'
p438
S'VBG'
p439
S'I-VP'
p440
g5
tp441
a(S'continuously'
p442
S'continuously'
p443
S'RB'
p444
S'I-VP'
p445
g5
tp446
a(S'developed'
p447
S'develop'
p448
S'VBN'
p449
S'I-VP'
p450
g5
tp451
a(S'and'
p452
S'and'
p453
S'CC'
p454
g5
g5
tp455
a(S'its'
p456
S'its'
p457
S'PRP$'
p458
S'B-NP'
p459
g5
tp460
a(S'impact'
p461
S'impact'
p462
S'NN'
p463
S'I-NP'
p464
g5
tp465
a(S'evaluated'
p466
S'evaluate'
p467
S'VBN'
p468
S'B-VP'
p469
g5
tp470
a(S'using'
p471
S'use'
p472
S'VBG'
p473
S'B-VP'
p474
g5
tp475
a(S'the'
p476
S'the'
p477
S'DT'
p478
S'B-NP'
p479
g5
tp480
a(S'MRC'
p481
S'MRC'
p482
S'NN'
p483
S'I-NP'
p484
g5
tp485
a(S"'s"
p486
S"'s"
p487
S'POS'
p488
S'B-NP'
p489
g5
tp490
a(S'framework'
p491
S'framework'
p492
S'NN'
p493
S'I-NP'
p494
g5
tp495
a(S'for'
p496
S'for'
p497
S'IN'
p498
S'B-PP'
p499
g5
tp500
a(S'complex'
p501
S'complex'
p502
S'JJ'
p503
S'B-NP'
p504
g5
tp505
a(S'interventions'
p506
S'intervention'
p507
S'NNS'
p508
S'I-NP'
p509
g5
tp510
a(g219
g219
g219
g5
g5
tp511
a(S'PreClinical'
p512
S'PreClinical'
p513
S'JJ'
p514
S'B-ADJP'
p515
g5
tp516
a(S','
p517
g517
g517
g5
g5
tp518
a(S'Phase'
p519
S'Phase'
p520
S'NN'
p521
S'B-NP'
p522
S'B-protein'
p523
tp524
a(S'I'
p525
g525
S'CD'
p526
S'I-NP'
p527
S'I-protein'
p528
tp529
a(S'and'
p530
S'and'
p531
S'CC'
p532
g5
g5
tp533
a(S'Phase'
p534
S'Phase'
p535
S'NN'
p536
S'B-NP'
p537
S'B-protein'
p538
tp539
a(S'II'
p540
S'II'
p541
S'CD'
p542
S'I-NP'
p543
S'I-protein'
p544
tp545
a(S'completed'
p546
S'complete'
p547
S'VBN'
p548
S'B-VP'
p549
g5
tp550
a(g226
g226
g226
g5
g5
tp551
a(g98
g98
g98
g5
g5
tp552
a(S'This'
p553
S'This'
p554
S'DT'
p555
S'B-NP'
p556
g5
tp557
a(S'paper'
p558
S'paper'
p559
S'NN'
p560
S'I-NP'
p561
g5
tp562
a(S'presents'
p563
S'present'
p564
S'VBZ'
p565
S'B-VP'
p566
g5
tp567
a(S'the'
p568
S'the'
p569
S'DT'
p570
S'B-NP'
p571
g5
tp572
a(S'protocol'
p573
S'protocol'
p574
S'NN'
p575
S'I-NP'
p576
g5
tp577
a(S'for'
p578
S'for'
p579
S'IN'
p580
S'B-PP'
p581
g5
tp582
a(S'Phase'
p583
S'Phase'
p584
S'NN'
p585
S'B-NP'
p586
S'B-protein'
p587
tp588
a(S'III'
p589
S'III'
p590
S'CD'
p591
S'I-NP'
p592
S'I-protein'
p593
tp594
a(g98
g98
g98
g5
g5
tp595
a(S'METHODS/DESIGN'
p596
S'METHODS/DESIGN'
p597
S'NN'
p598
S'B-NP'
p599
g5
tp600
a(S'Phase'
p601
S'Phase'
p602
S'NN'
p603
S'I-NP'
p604
g5
tp605
a(S'III'
p606
S'III'
p607
S'CD'
p608
S'I-NP'
p609
g5
tp610
a(S'comprises'
p611
S'comprise'
p612
S'VBZ'
p613
S'B-VP'
p614
g5
tp615
a(g59
g59
S'DT'
p616
S'B-NP'
p617
g5
tp618
a(S'pragmatic'
p619
S'pragmatic'
p620
S'JJ'
p621
S'I-NP'
p622
g5
tp623
a(g517
g517
g517
S'I-NP'
p624
g5
tp625
a(S'fast-track'
p626
S'fast-track'
p627
S'JJ'
p628
S'I-NP'
p629
g5
tp630
a(g517
g517
g517
S'I-NP'
p631
g5
tp632
a(S'single-blind'
p633
S'single-blind'
p634
S'JJ'
p635
S'I-NP'
p636
g5
tp637
a(S'randomised'
p638
S'randomise'
p639
S'VBN'
p640
S'I-NP'
p641
g5
tp642
a(S'controlled'
p643
S'control'
p644
S'VBN'
p645
S'I-NP'
p646
g5
tp647
a(S'trial'
p648
S'trial'
p649
S'NN'
p650
S'I-NP'
p651
g5
tp652
a(S'of'
p653
S'of'
p654
S'IN'
p655
S'B-PP'
p656
g5
tp657
a(S'BIS'
p658
S'BIS'
p659
S'NN'
p660
S'B-NP'
p661
g5
tp662
a(S'versus'
p663
S'versus'
p664
S'CC'
p665
g5
g5
tp666
a(S'standard'
p667
S'standard'
p668
S'JJ'
p669
S'B-NP'
p670
g5
tp671
a(S'care.'
p672
S'care.'
p673
S'NN'
p674
S'I-NP'
p675
g5
tp676
a(S'Due'
p677
S'Due'
p678
S'JJ'
p679
S'B-ADJP'
p680
g5
tp681
a(S'to'
p682
S'to'
p683
S'TO'
p684
S'B-PP'
p685
g5
tp686
a(S'differing'
p687
S'differ'
p688
S'VBG'
p689
S'B-VP'
p690
g5
tp691
a(S'disease'
p692
S'disease'
p693
S'NN'
p694
S'B-NP'
p695
g5
tp696
a(S'trajectories'
p697
S'trajectory'
p698
S'NNS'
p699
S'I-NP'
p700
g5
tp701
a(g517
g517
g517
g5
g5
tp702
a(S'the'
p703
S'the'
p704
S'DT'
p705
S'B-NP'
p706
g5
tp707
a(S'service'
p708
S'service'
p709
S'NN'
p710
S'I-NP'
p711
g5
tp712
a(S'uses'
p713
S'use'
p714
S'VBZ'
p715
S'B-VP'
p716
g5
tp717
a(S'two'
p718
S'two'
p719
S'CD'
p720
S'B-NP'
p721
g5
tp722
a(S'broad'
p723
S'broad'
p724
S'JJ'
p725
S'I-NP'
p726
g5
tp727
a(S'service'
p728
S'service'
p729
S'NN'
p730
S'I-NP'
p731
g5
tp732
a(S'models'
p733
S'model'
p734
S'NNS'
p735
S'I-NP'
p736
g5
tp737
a(g12
g12
g12
g5
g5
tp738
a(S'one'
p739
S'one'
p740
S'CD'
p741
S'B-NP'
p742
g5
tp743
a(S'for'
p744
S'for'
p745
S'IN'
p746
S'B-PP'
p747
g5
tp748
a(S'patients'
p749
S'patient'
p750
S'NNS'
p751
S'B-NP'
p752
g5
tp753
a(S'with'
p754
S'with'
p755
S'IN'
p756
S'B-PP'
p757
g5
tp758
a(S'malignant'
p759
S'malignant'
p760
S'JJ'
p761
S'B-NP'
p762
g5
tp763
a(S'disease'
p764
S'disease'
p765
S'NN'
p766
S'I-NP'
p767
g5
tp768
a(g219
g219
g219
g5
g5
tp769
a(S'intervention'
p770
S'intervention'
p771
S'NN'
p772
S'B-NP'
p773
g5
tp774
a(S'delivered'
p775
S'deliver'
p776
S'VBN'
p777
S'B-VP'
p778
g5
tp779
a(S'over'
p780
S'over'
p781
S'IN'
p782
S'B-PP'
p783
g5
tp784
a(S'two'
p785
S'two'
p786
S'CD'
p787
S'B-NP'
p788
g5
tp789
a(S'weeks'
p790
S'week'
p791
S'NNS'
p792
S'I-NP'
p793
g5
tp794
a(g226
g226
g226
g5
g5
tp795
a(S'and'
p796
S'and'
p797
S'CC'
p798
g5
g5
tp799
a(S'one'
p800
S'one'
p801
S'CD'
p802
S'B-NP'
p803
g5
tp804
a(S'for'
p805
S'for'
p806
S'IN'
p807
S'B-PP'
p808
g5
tp809
a(S'patients'
p810
S'patient'
p811
S'NNS'
p812
S'B-NP'
p813
g5
tp814
a(S'with'
p815
S'with'
p816
S'IN'
p817
S'B-PP'
p818
g5
tp819
a(S'non-malignant'
p820
S'non-malignant'
p821
S'JJ'
p822
S'B-NP'
p823
g5
tp824
a(S'disease'
p825
S'disease'
p826
S'NN'
p827
S'I-NP'
p828
g5
tp829
a(g219
g219
g219
g5
g5
tp830
a(S'intervention'
p831
S'intervention'
p832
S'NN'
p833
S'B-NP'
p834
g5
tp835
a(S'delivered'
p836
S'deliver'
p837
S'VBN'
p838
S'B-VP'
p839
g5
tp840
a(S'over'
p841
S'over'
p842
S'IN'
p843
S'B-PP'
p844
g5
tp845
a(S'four'
p846
S'four'
p847
S'CD'
p848
S'B-NP'
p849
g5
tp850
a(S'weeks'
p851
S'week'
p852
S'NNS'
p853
S'I-NP'
p854
g5
tp855
a(g226
g226
g226
g5
g5
tp856
a(g98
g98
g98
g5
g5
tp857
a(S'The'
p858
S'The'
p859
S'DT'
p860
S'B-NP'
p861
g5
tp862
a(S'Phase'
p863
S'Phase'
p864
S'NN'
p865
S'I-NP'
p866
g5
tp867
a(S'III'
p868
S'III'
p869
S'CD'
p870
S'I-NP'
p871
g5
tp872
a(S'trial'
p873
S'trial'
p874
S'NN'
p875
S'I-NP'
p876
g5
tp877
a(S'therefore'
p878
S'therefore'
p879
S'RB'
p880
S'B-ADVP'
p881
g5
tp882
a(S'consists'
p883
S'consist'
p884
S'VBZ'
p885
S'B-VP'
p886
g5
tp887
a(S'of'
p888
S'of'
p889
S'IN'
p890
S'B-PP'
p891
g5
tp892
a(S'two'
p893
S'two'
p894
S'CD'
p895
S'B-NP'
p896
g5
tp897
a(S'sub-protocols'
p898
S'sub-protocol'
p899
S'NNS'
p900
S'I-NP'
p901
g5
tp902
a(g12
g12
g12
g5
g5
tp903
a(S'one'
p904
S'one'
p905
S'CD'
p906
S'B-NP'
p907
g5
tp908
a(S'for'
p909
S'for'
p910
S'IN'
p911
S'B-PP'
p912
g5
tp913
a(S'patients'
p914
S'patient'
p915
S'NNS'
p916
S'B-NP'
p917
g5
tp918
a(S'with'
p919
S'with'
p920
S'IN'
p921
S'B-PP'
p922
g5
tp923
a(S'malignant'
p924
S'malignant'
p925
S'JJ'
p926
S'B-NP'
p927
g5
tp928
a(S'conditions'
p929
S'condition'
p930
S'NNS'
p931
S'I-NP'
p932
g5
tp933
a(g219
g219
g219
g5
g5
tp934
a(S'four'
p935
S'four'
p936
S'CD'
p937
S'B-NP'
p938
g5
tp939
a(S'week'
p940
S'week'
p941
S'NN'
p942
S'I-NP'
p943
g5
tp944
a(S'protocol'
p945
S'protocol'
p946
S'NN'
p947
S'I-NP'
p948
g5
tp949
a(g226
g226
g226
g5
g5
tp950
a(S'and'
p951
S'and'
p952
S'CC'
p953
g5
g5
tp954
a(S'one'
p955
S'one'
p956
S'CD'
p957
S'B-NP'
p958
g5
tp959
a(S'for'
p960
S'for'
p961
S'IN'
p962
S'B-PP'
p963
g5
tp964
a(S'patients'
p965
S'patient'
p966
S'NNS'
p967
S'B-NP'
p968
g5
tp969
a(S'with'
p970
S'with'
p971
S'IN'
p972
S'B-PP'
p973
g5
tp974
a(S'non-malignant'
p975
S'non-malignant'
p976
S'JJ'
p977
S'B-NP'
p978
g5
tp979
a(S'conditions'
p980
S'condition'
p981
S'NNS'
p982
S'I-NP'
p983
g5
tp984
a(g219
g219
g219
g5
g5
tp985
a(S'eight'
p986
S'eight'
p987
S'CD'
p988
S'B-NP'
p989
g5
tp990
a(S'week'
p991
S'week'
p992
S'NN'
p993
S'I-NP'
p994
g5
tp995
a(S'protocol'
p996
S'protocol'
p997
S'NN'
p998
S'I-NP'
p999
g5
tp1000
a(g226
g226
g226
g5
g5
tp1001
a(g98
g98
g98
g5
g5
tp1002
a(S'Mixed'
p1003
S'Mix'
p1004
S'VBN'
p1005
S'B-NP'
p1006
g5
tp1007
a(S'method'
p1008
S'method'
p1009
S'NN'
p1010
S'I-NP'
p1011
g5
tp1012
a(S'interviews'
p1013
S'interview'
p1014
S'NNS'
p1015
S'I-NP'
p1016
g5
tp1017
a(S'are'
p1018
S'be'
p1019
S'VBP'
p1020
S'B-VP'
p1021
g5
tp1022
a(S'conducted'
p1023
S'conduct'
p1024
S'VBN'
p1025
S'I-VP'
p1026
g5
tp1027
a(S'with'
p1028
S'with'
p1029
S'IN'
p1030
S'B-PP'
p1031
g5
tp1032
a(S'patients'
p1033
S'patient'
p1034
S'NNS'
p1035
S'B-NP'
p1036
g5
tp1037
a(S'and'
p1038
S'and'
p1039
S'CC'
p1040
g5
g5
tp1041
a(S'their'
p1042
S'their'
p1043
S'PRP$'
p1044
S'B-NP'
p1045
g5
tp1046
a(S'lay'
p1047
S'lay'
p1048
S'NN'
p1049
S'I-NP'
p1050
g5
tp1051
a(S'carers'
p1052
S'carer'
p1053
S'NNS'
p1054
S'I-NP'
p1055
g5
tp1056
a(S'at'
p1057
S'at'
p1058
S'IN'
p1059
S'B-PP'
p1060
g5
tp1061
a(S'three'
p1062
S'three'
p1063
S'CD'
p1064
S'B-NP'
p1065
g5
tp1066
a(S'to'
p1067
S'to'
p1068
S'TO'
p1069
S'I-NP'
p1070
g5
tp1071
a(S'five'
p1072
S'five'
p1073
S'CD'
p1074
S'I-NP'
p1075
g5
tp1076
a(S'measurement'
p1077
S'measurement'
p1078
S'NN'
p1079
S'I-NP'
p1080
g5
tp1081
a(S'points'
p1082
S'point'
p1083
S'NNS'
p1084
S'I-NP'
p1085
g5
tp1086
a(S'depending'
p1087
S'depend'
p1088
S'VBG'
p1089
S'B-PP'
p1090
g5
tp1091
a(S'on'
p1092
S'on'
p1093
S'IN'
p1094
S'B-PP'
p1095
g5
tp1096
a(S'randomisation'
p1097
S'randomisation'
p1098
S'NN'
p1099
S'B-NP'
p1100
g5
tp1101
a(S'and'
p1102
S'and'
p1103
S'CC'
p1104
g5
g5
tp1105
a(S'sub-protocol.'
p1106
S'sub-protocol.'
p1107
S'JJ'
p1108
S'B-NP'
p1109
g5
tp1110
a(S'Qualitative'
p1111
S'Qualitative'
p1112
S'JJ'
p1113
S'I-NP'
p1114
g5
tp1115
a(S'interviews'
p1116
S'interview'
p1117
S'NNS'
p1118
S'I-NP'
p1119
g5
tp1120
a(S'are'
p1121
S'be'
p1122
S'VBP'
p1123
S'B-VP'
p1124
g5
tp1125
a(S'conducted'
p1126
S'conduct'
p1127
S'VBN'
p1128
S'I-VP'
p1129
g5
tp1130
a(S'with'
p1131
S'with'
p1132
S'IN'
p1133
S'B-PP'
p1134
g5
tp1135
a(S'referring'
p1136
S'refer'
p1137
S'VBG'
p1138
S'B-NP'
p1139
g5
tp1140
a(S'and'
p1141
S'and'
p1142
S'CC'
p1143
g5
g5
tp1144
a(S'non-referring'
p1145
S'non-referring'
p1146
S'JJ'
p1147
S'B-NP'
p1148
g5
tp1149
a(S'health'
p1150
S'health'
p1151
S'NN'
p1152
S'I-NP'
p1153
g5
tp1154
a(S'care'
p1155
S'care'
p1156
S'NN'
p1157
S'I-NP'
p1158
g5
tp1159
a(S'professionals'
p1160
S'professional'
p1161
S'NNS'
p1162
S'I-NP'
p1163
g5
tp1164
a(g219
g219
g219
g5
g5
tp1165
a(S'malignant'
p1166
S'malignant'
p1167
S'JJ'
p1168
S'B-NP'
p1169
g5
tp1170
a(S'disease'
p1171
S'disease'
p1172
S'NN'
p1173
S'I-NP'
p1174
g5
tp1175
a(S'protocol'
p1176
S'protocol'
p1177
S'NN'
p1178
S'I-NP'
p1179
g5
tp1180
a(S'only'
p1181
S'only'
p1182
S'RB'
p1183
S'B-ADVP'
p1184
g5
tp1185
a(g226
g226
g226
g5
g5
tp1186
a(g98
g98
g98
g5
g5
tp1187
a(S'The'
p1188
S'The'
p1189
S'DT'
p1190
S'B-NP'
p1191
g5
tp1192
a(S'primary'
p1193
S'primary'
p1194
S'JJ'
p1195
S'I-NP'
p1196
g5
tp1197
a(S'outcome'
p1198
S'outcome'
p1199
S'NN'
p1200
S'I-NP'
p1201
g5
tp1202
a(S'measure'
p1203
S'measure'
p1204
S'NN'
p1205
S'I-NP'
p1206
g5
tp1207
a(S'is'
p1208
S'be'
p1209
S'VBZ'
p1210
S'B-VP'
p1211
g5
tp1212
a(S"'patient"
p1213
S"'patient"
p1214
S'JJ'
p1215
S'B-NP'
p1216
g5
tp1217
a(S'distress'
p1218
S'distress'
p1219
S'NN'
p1220
S'I-NP'
p1221
g5
tp1222
a(S'due'
p1223
S'due'
p1224
S'JJ'
p1225
S'B-ADJP'
p1226
g5
tp1227
a(S'to'
p1228
S'to'
p1229
S'TO'
p1230
S'B-PP'
p1231
g5
tp1232
a(S'breathlessness'
p1233
S'breathlessness'
p1234
S'NN'
p1235
S'B-NP'
p1236
g5
tp1237
a(S"'"
p1238
g1238
S"''"
p1239
g5
g5
tp1240
a(S'measured'
p1241
S'measure'
p1242
S'VBN'
p1243
S'B-VP'
p1244
g5
tp1245
a(S'on'
p1246
S'on'
p1247
S'IN'
p1248
S'B-PP'
p1249
g5
tp1250
a(g59
g59
S'DT'
p1251
S'B-NP'
p1252
g5
tp1253
a(S'numerical'
p1254
S'numerical'
p1255
S'JJ'
p1256
S'I-NP'
p1257
g5
tp1258
a(S'rating'
p1259
S'rating'
p1260
S'NN'
p1261
S'I-NP'
p1262
g5
tp1263
a(S'scale'
p1264
S'scale'
p1265
S'NN'
p1266
S'I-NP'
p1267
g5
tp1268
a(g219
g219
g219
g5
g5
tp1269
a(S'0-10'
p1270
S'0-10'
p1271
S'CD'
p1272
S'B-NP'
p1273
g5
tp1274
a(g226
g226
g226
g5
g5
tp1275
a(g98
g98
g98
g5
g5
tp1276
a(S'The'
p1277
S'The'
p1278
S'DT'
p1279
S'B-NP'
p1280
g5
tp1281
a(S'trial'
p1282
S'trial'
p1283
S'NN'
p1284
S'I-NP'
p1285
g5
tp1286
a(S'includes'
p1287
S'include'
p1288
S'VBZ'
p1289
S'B-VP'
p1290
g5
tp1291
a(S'economic'
p1292
S'economic'
p1293
S'JJ'
p1294
S'B-NP'
p1295
g5
tp1296
a(S'evaluation.'
p1297
S'evaluation.'
p1298
S'NN'
p1299
S'I-NP'
p1300
g5
tp1301
a(S'Analysis'
p1302
S'Analysis'
p1303
S'NN'
p1304
S'I-NP'
p1305
g5
tp1306
a(S'will'
p1307
S'will'
p1308
S'MD'
p1309
S'B-VP'
p1310
g5
tp1311
a(S'be'
p1312
S'be'
p1313
S'VB'
p1314
S'I-VP'
p1315
g5
tp1316
a(S'on'
p1317
S'on'
p1318
S'IN'
p1319
S'B-PP'
p1320
g5
tp1321
a(S'an'
p1322
S'an'
p1323
S'DT'
p1324
S'B-NP'
p1325
g5
tp1326
a(S'intention'
p1327
S'intention'
p1328
S'NN'
p1329
S'I-NP'
p1330
g5
tp1331
a(S'to'
p1332
S'to'
p1333
S'TO'
p1334
S'B-VP'
p1335
g5
tp1336
a(S'treat'
p1337
S'treat'
p1338
S'VB'
p1339
S'I-VP'
p1340
g5
tp1341
a(S'basis'
p1342
S'basis'
p1343
S'NN'
p1344
S'B-NP'
p1345
g5
tp1346
a(g98
g98
g98
g5
g5
tp1347
a(S'DISCUSSION'
p1348
S'DISCUSSION'
p1349
S'NN'
p1350
S'B-NP'
p1351
g5
tp1352
a(S'This'
p1353
S'This'
p1354
S'DT'
p1355
S'B-NP'
p1356
g5
tp1357
a(S'is'
p1358
S'be'
p1359
S'VBZ'
p1360
S'B-VP'
p1361
g5
tp1362
a(S'the'
p1363
S'the'
p1364
S'DT'
p1365
S'B-NP'
p1366
g5
tp1367
a(S'first'
p1368
S'first'
p1369
S'JJ'
p1370
S'I-NP'
p1371
g5
tp1372
a(S'evaluation'
p1373
S'evaluation'
p1374
S'NN'
p1375
S'I-NP'
p1376
g5
tp1377
a(S'of'
p1378
S'of'
p1379
S'IN'
p1380
S'B-PP'
p1381
g5
tp1382
a(g59
g59
S'DT'
p1383
S'B-NP'
p1384
g5
tp1385
a(S'breathlessness'
p1386
S'breathlessness'
p1387
S'NN'
p1388
S'I-NP'
p1389
g5
tp1390
a(S'intervention'
p1391
S'intervention'
p1392
S'NN'
p1393
S'I-NP'
p1394
g5
tp1395
a(S'for'
p1396
S'for'
p1397
S'IN'
p1398
S'B-PP'
p1399
g5
tp1400
a(S'advanced'
p1401
S'advance'
p1402
S'VBN'
p1403
S'B-NP'
p1404
g5
tp1405
a(S'disease'
p1406
S'disease'
p1407
S'NN'
p1408
S'I-NP'
p1409
g5
tp1410
a(S'to'
p1411
S'to'
p1412
S'TO'
p1413
S'B-VP'
p1414
g5
tp1415
a(S'have'
p1416
S'have'
p1417
S'VB'
p1418
S'I-VP'
p1419
g5
tp1420
a(S'followed'
p1421
S'follow'
p1422
S'VBN'
p1423
S'I-VP'
p1424
g5
tp1425
a(S'the'
p1426
S'the'
p1427
S'DT'
p1428
S'B-NP'
p1429
g5
tp1430
a(S'MRC'
p1431
S'MRC'
p1432
S'NN'
p1433
S'I-NP'
p1434
g5
tp1435
a(S'framework'
p1436
S'framework'
p1437
S'NN'
p1438
S'I-NP'
p1439
g5
tp1440
a(S'and'
p1441
S'and'
p1442
S'CC'
p1443
g5
g5
tp1444
a(S'one'
p1445
S'one'
p1446
S'CD'
p1447
S'B-NP'
p1448
g5
tp1449
a(S'of'
p1450
S'of'
p1451
S'IN'
p1452
S'B-PP'
p1453
g5
tp1454
a(S'the'
p1455
S'the'
p1456
S'DT'
p1457
S'B-NP'
p1458
g5
tp1459
a(S'first'
p1460
S'first'
p1461
S'JJ'
p1462
S'I-NP'
p1463
g5
tp1464
a(S'palliative'
p1465
S'palliative'
p1466
S'JJ'
p1467
S'I-NP'
p1468
g5
tp1469
a(S'care'
p1470
S'care'
p1471
S'NN'
p1472
S'I-NP'
p1473
g5
tp1474
a(S'trials'
p1475
S'trial'
p1476
S'NNS'
p1477
S'I-NP'
p1478
g5
tp1479
a(S'to'
p1480
S'to'
p1481
S'TO'
p1482
S'B-VP'
p1483
g5
tp1484
a(S'use'
p1485
S'use'
p1486
S'VB'
p1487
S'I-VP'
p1488
g5
tp1489
a(S'fast'
p1490
S'fast'
p1491
S'JJ'
p1492
S'B-NP'
p1493
g5
tp1494
a(S'track'
p1495
S'track'
p1496
S'NN'
p1497
S'I-NP'
p1498
g5
tp1499
a(S'methodology'
p1500
S'methodology'
p1501
S'NN'
p1502
S'I-NP'
p1503
g5
tp1504
a(S'and'
p1505
S'and'
p1506
S'CC'
p1507
g5
g5
tp1508
a(S'single-blinding.'
p1509
S'single-blinding.'
p1510
S'JJ'
p1511
S'B-ADJP'
p1512
g5
tp1513
a(S'The'
p1514
S'The'
p1515
S'DT'
p1516
S'B-NP'
p1517
g5
tp1518
a(S'results'
p1519
S'result'
p1520
S'NNS'
p1521
S'I-NP'
p1522
g5
tp1523
a(S'will'
p1524
S'will'
p1525
S'MD'
p1526
S'B-VP'
p1527
g5
tp1528
a(S'provide'
p1529
S'provide'
p1530
S'VB'
p1531
S'I-VP'
p1532
g5
tp1533
a(S'evidence'
p1534
S'evidence'
p1535
S'NN'
p1536
S'B-NP'
p1537
g5
tp1538
a(S'of'
p1539
S'of'
p1540
S'IN'
p1541
S'B-PP'
p1542
g5
tp1543
a(S'the'
p1544
S'the'
p1545
S'DT'
p1546
S'B-NP'
p1547
g5
tp1548
a(S'clinical'
p1549
S'clinical'
p1550
S'JJ'
p1551
S'I-NP'
p1552
g5
tp1553
a(S'and'
p1554
S'and'
p1555
S'CC'
p1556
S'I-NP'
p1557
g5
tp1558
a(S'cost-effectiveness'
p1559
S'cost-effectiveness'
p1560
S'NN'
p1561
S'I-NP'
p1562
g5
tp1563
a(S'of'
p1564
S'of'
p1565
S'IN'
p1566
S'B-PP'
p1567
g5
tp1568
a(S'the'
p1569
S'the'
p1570
S'DT'
p1571
S'B-NP'
p1572
g5
tp1573
a(S'service'
p1574
S'service'
p1575
S'NN'
p1576
S'I-NP'
p1577
g5
tp1578
a(g517
g517
g517
g5
g5
tp1579
a(S'informing'
p1580
S'inform'
p1581
S'VBG'
p1582
S'B-VP'
p1583
g5
tp1584
a(S'its'
p1585
S'its'
p1586
S'PRP$'
p1587
S'B-NP'
p1588
g5
tp1589
a(S'longer'
p1590
S'long'
p1591
S'JJR'
p1592
S'I-NP'
p1593
g5
tp1594
a(S'term'
p1595
S'term'
p1596
S'NN'
p1597
S'I-NP'
p1598
g5
tp1599
a(S'development'
p1600
S'development'
p1601
S'NN'
p1602
S'I-NP'
p1603
g5
tp1604
a(S'and'
p1605
S'and'
p1606
S'CC'
p1607
g5
g5
tp1608
a(S'implementation'
p1609
S'implementation'
p1610
S'NN'
p1611
S'B-NP'
p1612
g5
tp1613
a(S'of'
p1614
S'of'
p1615
S'IN'
p1616
S'B-PP'
p1617
g5
tp1618
a(S'the'
p1619
S'the'
p1620
S'DT'
p1621
S'B-NP'
p1622
g5
tp1623
a(S'model'
p1624
S'model'
p1625
S'NN'
p1626
S'I-NP'
p1627
g5
tp1628
a(S'in'
p1629
S'in'
p1630
S'IN'
p1631
S'B-PP'
p1632
g5
tp1633
a(S'other'
p1634
S'other'
p1635
S'JJ'
p1636
S'B-NP'
p1637
g5
tp1638
a(S'centres'
p1639
S'centre'
p1640
S'NNS'
p1641
S'I-NP'
p1642
g5
tp1643
a(S'nationally'
p1644
S'nationally'
p1645
S'RB'
p1646
S'B-ADVP'
p1647
g5
tp1648
a(S'and'
p1649
S'and'
p1650
S'CC'
p1651
g5
g5
tp1652
a(S'internationally.'
p1653
S'internationally.'
p1654
S'VB'
p1655
S'B-VP'
p1656
g5
tp1657
a(S'It'
p1658
S'It'
p1659
S'PRP'
p1660
S'B-NP'
p1661
g5
tp1662
a(S'adds'
p1663
S'add'
p1664
S'VBZ'
p1665
S'B-VP'
p1666
g5
tp1667
a(S'to'
p1668
S'to'
p1669
S'TO'
p1670
S'B-PP'
p1671
g5
tp1672
a(S'methodological'
p1673
S'methodological'
p1674
S'JJ'
p1675
S'B-NP'
p1676
g5
tp1677
a(S'developments'
p1678
S'development'
p1679
S'NNS'
p1680
S'I-NP'
p1681
g5
tp1682
a(S'in'
p1683
S'in'
p1684
S'IN'
p1685
S'B-PP'
p1686
g5
tp1687
a(S'palliative'
p1688
S'palliative'
p1689
S'JJ'
p1690
S'B-NP'
p1691
g5
tp1692
a(S'care'
p1693
S'care'
p1694
S'NN'
p1695
S'I-NP'
p1696
g5
tp1697
a(S'research'
p1698
S'research'
p1699
S'NN'
p1700
S'I-NP'
p1701
g5
tp1702
a(S'where'
p1703
S'where'
p1704
S'WRB'
p1705
S'B-ADVP'
p1706
g5
tp1707
a(S'complex'
p1708
S'complex'
p1709
S'JJ'
p1710
S'B-NP'
p1711
g5
tp1712
a(S'interventions'
p1713
S'intervention'
p1714
S'NNS'
p1715
S'I-NP'
p1716
g5
tp1717
a(S'are'
p1718
S'be'
p1719
S'VBP'
p1720
S'B-VP'
p1721
g5
tp1722
a(S'common'
p1723
S'common'
p1724
S'JJ'
p1725
S'B-ADJP'
p1726
g5
tp1727
a(S'but'
p1728
S'but'
p1729
S'CC'
p1730
g5
g5
tp1731
a(S'evidence'
p1732
S'evidence'
p1733
S'NN'
p1734
S'B-NP'
p1735
g5
tp1736
a(S'sparse'
p1737
S'sparse'
p1738
S'NN'
p1739
S'I-NP'
p1740
g5
tp1741
a(g98
g98
g98
g5
g5
tp1742
a(S'TRIAL'
p1743
S'TRIAL'
p1744
S'NNP'
p1745
S'B-NP'
p1746
g5
tp1747
a(S'REGISTRATION'
p1748
S'REGISTRATION'
p1749
S'NNP'
p1750
S'I-NP'
p1751
g5
tp1752
a(S'ClinicalTrials.gov'
p1753
S'ClinicalTrials.gov'
p1754
S'NNP'
p1755
S'I-NP'
p1756
g5
tp1757
a(g12
g12
g12
g5
g5
tp1758
a(S'NCT00678405ISRCTN'
p1759
S'NCT00678405ISRCTN'
p1760
S'NN'
p1761
S'B-NP'
p1762
g5
tp1763
a(g12
g12
g12
g5
g5
tp1764
a(S'ISRCTN04119516'
p1765
S'ISRCTN04119516'
p1766
S'NN'
p1767
S'B-NP'
p1768
g5
tp1769
a(g98
g98
g98
g5
g5
tp1770
a.