(lp0
(S'West'
p1
S'West'
p2
S'NNP'
p3
S'B-NP'
p4
S'O'
p5
tp6
a(S'vs.'
p7
S'vs.'
p8
S'IN'
p9
S'B-PP'
p10
g5
tp11
a(S'West'
p12
S'West'
p13
S'NNP'
p14
S'B-NP'
p15
g5
tp16
a(S'like'
p17
S'like'
p18
S'IN'
p19
S'B-PP'
p20
g5
tp21
a(S'East'
p22
S'East'
p23
S'NNP'
p24
S'B-NP'
p25
g5
tp26
a(S'vs.'
p27
S'vs.'
p28
S'IN'
p29
S'B-PP'
p30
g5
tp31
a(S'West'
p32
S'West'
p33
S'NNP'
p34
S'B-NP'
p35
g5
tp36
a(S'?'
p37
g37
S'.'
p38
S'I-NP'
p39
g5
tp40
a(S'A'
p41
g41
S'NNP'
p42
S'I-NP'
p43
g5
tp44
a(S'comparison'
p45
S'comparison'
p46
S'NN'
p47
S'I-NP'
p48
g5
tp49
a(S'between'
p50
S'between'
p51
S'IN'
p52
S'B-PP'
p53
g5
tp54
a(S'Italian'
p55
S'Italian'
p56
S'NNP'
p57
S'B-NP'
p58
g5
tp59
a(S'and'
p60
S'and'
p61
S'CC'
p62
g5
g5
tp63
a(S'US'
p64
S'US'
p65
S'NNP'
p66
S'B-NP'
p67
g5
tp68
a(S'American'
p69
S'American'
p70
S'NNP'
p71
S'I-NP'
p72
g5
tp73
a(S'context'
p74
S'context'
p75
S'NN'
p76
S'I-NP'
p77
g5
tp78
a(S'sensitivity'
p79
S'sensitivity'
p80
S'NN'
p81
S'I-NP'
p82
g5
tp83
a(S'and'
p84
S'and'
p85
S'CC'
p86
S'I-NP'
p87
g5
tp88
a(S'Fear'
p89
S'Fear'
p90
S'NN'
p91
S'I-NP'
p92
g5
tp93
a(S'of'
p94
S'of'
p95
S'IN'
p96
S'B-PP'
p97
g5
tp98
a(S'Isolation'
p99
S'Isolation'
p100
S'NN'
p101
S'B-NP'
p102
g5
tp103
a(g38
g38
g38
g5
g5
tp104
a(S'Easterners'
p105
S'Easterner'
p106
S'NNS'
p107
S'B-NP'
p108
g5
tp109
a(S'tend'
p110
S'tend'
p111
S'VBP'
p112
S'B-VP'
p113
g5
tp114
a(S'to'
p115
S'to'
p116
S'TO'
p117
S'I-VP'
p118
g5
tp119
a(S'process'
p120
S'process'
p121
S'VB'
p122
S'I-VP'
p123
g5
tp124
a(S'information'
p125
S'information'
p126
S'NN'
p127
S'B-NP'
p128
g5
tp129
a(S'more'
p130
S'more'
p131
S'RBR'
p132
S'B-ADVP'
p133
g5
tp134
a(S'holistically'
p135
S'holistically'
p136
S'RB'
p137
S'I-ADVP'
p138
g5
tp139
a(S'than'
p140
S'than'
p141
S'IN'
p142
S'B-PP'
p143
g5
tp144
a(S'Westerners.'
p145
S'Westerners.'
p146
S'NNP'
p147
S'B-NP'
p148
g5
tp149
a(S'Kim'
p150
S'Kim'
p151
S'NNP'
p152
S'I-NP'
p153
g5
tp154
a(S'and'
p155
S'and'
p156
S'CC'
p157
g5
g5
tp158
a(S'Markman'
p159
S'Markman'
p160
S'NNP'
p161
S'B-NP'
p162
g5
tp163
a(S'('
p164
g164
g164
g5
g5
tp165
a(S'J'
p166
g166
S'NNP'
p167
S'B-NP'
p168
g5
tp169
a(S'Exp'
p170
S'Exp'
p171
S'NNP'
p172
S'I-NP'
p173
g5
tp174
a(S'Soc'
p175
S'Soc'
p176
S'NNP'
p177
S'I-NP'
p178
g5
tp179
a(S'Psychol'
p180
S'Psychol'
p181
S'NNP'
p182
S'I-NP'
p183
g5
tp184
a(S'42'
p185
S'42'
p186
S'CD'
p187
S'I-NP'
p188
g5
tp189
a(g164
g164
g164
g5
g5
tp190
a(S'3'
p191
g191
S'CD'
p192
S'B-NP'
p193
g5
tp194
a(S')'
p195
g195
g195
g5
g5
tp196
a(S':'
p197
g197
g197
g5
g5
tp198
a(S'350-364'
p199
S'350-364'
p200
S'CD'
p201
S'B-NP'
p202
g5
tp203
a(S','
p204
g204
g204
S'I-NP'
p205
g5
tp206
a(S'2006'
p207
S'2006'
p208
S'CD'
p209
S'I-NP'
p210
g5
tp211
a(g195
g195
g195
g5
g5
tp212
a(S'suggest'
p213
S'suggest'
p214
S'VBP'
p215
S'B-VP'
p216
g5
tp217
a(S'that'
p218
S'that'
p219
S'IN'
p220
S'B-SBAR'
p221
g5
tp222
a(S'these'
p223
S'these'
p224
S'DT'
p225
S'B-NP'
p226
g5
tp227
a(S'differences'
p228
S'difference'
p229
S'NNS'
p230
S'I-NP'
p231
g5
tp232
a(S'are'
p233
S'be'
p234
S'VBP'
p235
S'B-VP'
p236
g5
tp237
a(S'rooted'
p238
S'root'
p239
S'VBN'
p240
S'I-VP'
p241
g5
tp242
a(S'in'
p243
S'in'
p244
S'IN'
p245
S'B-PP'
p246
g5
tp247
a(S'higher'
p248
S'high'
p249
S'JJR'
p250
S'B-NP'
p251
g5
tp252
a(S'chronic'
p253
S'chronic'
p254
S'JJ'
p255
S'I-NP'
p256
g5
tp257
a(S'levels'
p258
S'level'
p259
S'NNS'
p260
S'I-NP'
p261
g5
tp262
a(S'of'
p263
S'of'
p264
S'IN'
p265
S'B-PP'
p266
g5
tp267
a(S'Fear'
p268
S'Fear'
p269
S'NN'
p270
S'B-NP'
p271
g5
tp272
a(S'of'
p273
S'of'
p274
S'IN'
p275
S'B-PP'
p276
g5
tp277
a(S'Isolation'
p278
S'Isolation'
p279
S'NN'
p280
S'B-NP'
p281
g5
tp282
a(g164
g164
g164
g5
g5
tp283
a(S'FOI'
p284
S'FOI'
p285
S'NN'
p286
S'B-NP'
p287
g5
tp288
a(g195
g195
g195
g5
g5
tp289
a(S'for'
p290
S'for'
p291
S'IN'
p292
S'B-PP'
p293
g5
tp294
a(S'those'
p295
S'those'
p296
S'DT'
p297
S'B-NP'
p298
g5
tp299
a(S'cultures'
p300
S'culture'
p301
S'NNS'
p302
S'I-NP'
p303
g5
tp304
a(S'that'
p305
S'that'
p306
S'WDT'
p307
S'B-NP'
p308
g5
tp309
a(S'process'
p310
S'process'
p311
S'VBP'
p312
S'B-VP'
p313
g5
tp314
a(S'information'
p315
S'information'
p316
S'NN'
p317
S'B-NP'
p318
g5
tp319
a(S'more'
p320
S'more'
p321
S'RBR'
p322
S'B-VP'
p323
g5
tp324
a(S'holistically.'
p325
S'holistically.'
p326
S'VB'
p327
S'I-VP'
p328
g5
tp329
a(S'The'
p330
S'The'
p331
S'DT'
p332
S'B-NP'
p333
g5
tp334
a(S'goal'
p335
S'goal'
p336
S'NN'
p337
S'I-NP'
p338
g5
tp339
a(S'of'
p340
S'of'
p341
S'IN'
p342
S'B-PP'
p343
g5
tp344
a(S'this'
p345
S'this'
p346
S'DT'
p347
S'B-NP'
p348
g5
tp349
a(S'study'
p350
S'study'
p351
S'NN'
p352
S'I-NP'
p353
g5
tp354
a(S'was'
p355
S'be'
p356
S'VBD'
p357
S'B-VP'
p358
g5
tp359
a(S'to'
p360
S'to'
p361
S'TO'
p362
S'B-VP'
p363
g5
tp364
a(S'determine'
p365
S'determine'
p366
S'VB'
p367
S'I-VP'
p368
g5
tp369
a(S'if'
p370
S'if'
p371
S'IN'
p372
S'B-SBAR'
p373
g5
tp374
a(S'these'
p375
S'these'
p376
S'DT'
p377
S'B-NP'
p378
g5
tp379
a(S'differences'
p380
S'difference'
p381
S'NNS'
p382
S'I-NP'
p383
g5
tp384
a(S'and'
p385
S'and'
p386
S'CC'
p387
g5
g5
tp388
a(S'their'
p389
S'their'
p390
S'PRP$'
p391
S'B-NP'
p392
g5
tp393
a(S'suggested'
p394
S'suggest'
p395
S'VBN'
p396
S'I-NP'
p397
g5
tp398
a(S'cause'
p399
S'cause'
p400
S'NN'
p401
S'I-NP'
p402
g5
tp403
a(S'could'
p404
S'could'
p405
S'MD'
p406
S'B-VP'
p407
g5
tp408
a(S'be'
p409
S'be'
p410
S'VB'
p411
S'I-VP'
p412
g5
tp413
a(S'found'
p414
S'find'
p415
S'VBN'
p416
S'I-VP'
p417
g5
tp418
a(S'with'
p419
S'with'
p420
S'IN'
p421
S'B-PP'
p422
g5
tp423
a(S'two'
p424
S'two'
p425
S'CD'
p426
S'B-NP'
p427
g5
tp428
a(S'different'
p429
S'different'
p430
S'JJ'
p431
S'I-NP'
p432
g5
tp433
a(S'Western'
p434
S'Western'
p435
S'JJ'
p436
S'I-NP'
p437
g5
tp438
a(S'cultures.'
p439
S'cultures.'
p440
S'NN'
p441
S'I-NP'
p442
g5
tp443
a(S'Testing'
p444
S'Testing'
p445
S'NN'
p446
S'I-NP'
p447
g5
tp448
a(S'Italian'
p449
S'Italian'
p450
S'JJ'
p451
S'B-ADJP'
p452
g5
tp453
a(g164
g164
g164
g5
g5
tp454
a(S'IT'
p455
S'IT'
p456
S'NN'
p457
S'B-NP'
p458
g5
tp459
a(g195
g195
g195
g5
g5
tp460
a(S'and'
p461
S'and'
p462
S'CC'
p463
g5
g5
tp464
a(S'US'
p465
S'US'
p466
S'NNP'
p467
S'B-NP'
p468
g5
tp469
a(S'American'
p470
S'American'
p471
S'JJ'
p472
g5
g5
tp473
a(g164
g164
g164
g5
g5
tp474
a(S'US'
p475
S'US'
p476
S'JJ'
p477
S'B-ADJP'
p478
g5
tp479
a(g195
g195
g195
g5
g5
tp480
a(S'adults'
p481
S'adult'
p482
S'NNS'
p483
S'B-NP'
p484
g5
tp485
a(g204
g204
g204
g5
g5
tp486
a(S'we'
p487
S'we'
p488
S'PRP'
p489
S'B-NP'
p490
g5
tp491
a(S'found'
p492
S'find'
p493
S'VBD'
p494
S'B-VP'
p495
g5
tp496
a(S'that'
p497
S'that'
p498
S'IN'
p499
S'B-SBAR'
p500
g5
tp501
a(S'IT'
p502
S'IT'
p503
S'NN'
p504
S'B-NP'
p505
g5
tp506
a(S'participants'
p507
S'participant'
p508
S'NNS'
p509
S'I-NP'
p510
g5
tp511
a(S'processed'
p512
S'process'
p513
S'VBD'
p514
S'B-VP'
p515
g5
tp516
a(S'information'
p517
S'information'
p518
S'NN'
p519
S'B-NP'
p520
g5
tp521
a(S'more'
p522
S'more'
p523
S'RBR'
p524
S'B-ADVP'
p525
g5
tp526
a(S'holistically'
p527
S'holistically'
p528
S'RB'
p529
S'I-ADVP'
p530
g5
tp531
a(S'and'
p532
S'and'
p533
S'CC'
p534
g5
g5
tp535
a(S'had'
p536
S'have'
p537
S'VBD'
p538
S'B-VP'
p539
g5
tp540
a(S'a'
p541
g541
S'DT'
p542
S'B-NP'
p543
g5
tp544
a(S'higher'
p545
S'high'
p546
S'JJR'
p547
S'I-NP'
p548
g5
tp549
a(S'chronic'
p550
S'chronic'
p551
S'JJ'
p552
S'I-NP'
p553
g5
tp554
a(S'level'
p555
S'level'
p556
S'NN'
p557
S'I-NP'
p558
g5
tp559
a(S'of'
p560
S'of'
p561
S'IN'
p562
S'B-PP'
p563
g5
tp564
a(S'FOI'
p565
S'FOI'
p566
S'NN'
p567
S'B-NP'
p568
g5
tp569
a(S'than'
p570
S'than'
p571
S'IN'
p572
S'B-PP'
p573
g5
tp574
a(S'US'
p575
S'US'
p576
S'NNP'
p577
S'B-NP'
p578
g5
tp579
a(S'participants'
p580
S'participant'
p581
S'NNS'
p582
S'I-NP'
p583
g5
tp584
a(S';'
p585
g585
g197
g5
g5
tp586
a(S'furthermore'
p587
S'furthermore'
p588
S'RB'
p589
S'B-ADVP'
p590
g5
tp591
a(g204
g204
g204
g5
g5
tp592
a(S'the'
p593
S'the'
p594
S'DT'
p595
S'B-NP'
p596
g5
tp597
a(S'manipulation'
p598
S'manipulation'
p599
S'NN'
p600
S'I-NP'
p601
g5
tp602
a(S'of'
p603
S'of'
p604
S'IN'
p605
S'B-PP'
p606
g5
tp607
a(S'FOI'
p608
S'FOI'
p609
S'NN'
p610
S'B-NP'
p611
g5
tp612
a(S'affected'
p613
S'affect'
p614
S'VBD'
p615
S'B-VP'
p616
g5
tp617
a(S'context'
p618
S'context'
p619
S'NN'
p620
S'B-NP'
p621
g5
tp622
a(S'sensitivity'
p623
S'sensitivity'
p624
S'NN'
p625
S'I-NP'
p626
g5
tp627
a(S'more'
p628
S'more'
p629
S'JJR'
p630
S'I-NP'
p631
g5
tp632
a(S'for'
p633
S'for'
p634
S'IN'
p635
S'B-PP'
p636
g5
tp637
a(S'IT'
p638
S'IT'
p639
S'NN'
p640
S'B-NP'
p641
g5
tp642
a(S'than'
p643
S'than'
p644
S'IN'
p645
S'B-PP'
p646
g5
tp647
a(S'for'
p648
S'for'
p649
S'IN'
p650
S'B-PP'
p651
g5
tp652
a(S'US'
p653
S'US'
p654
S'NNP'
p655
S'B-NP'
p656
g5
tp657
a(S'participants.'
p658
S'participants.'
p659
S'VBD'
p660
S'B-VP'
p661
g5
tp662
a(S'The'
p663
S'The'
p664
S'DT'
p665
S'B-NP'
p666
g5
tp667
a(S'results'
p668
S'result'
p669
S'NNS'
p670
S'I-NP'
p671
g5
tp672
a(S'demonstrate'
p673
S'demonstrate'
p674
S'VBP'
p675
S'B-VP'
p676
g5
tp677
a(S'that'
p678
S'that'
p679
S'IN'
p680
S'B-SBAR'
p681
g5
tp682
a(S'IT'
p683
S'IT'
p684
S'NN'
p685
S'B-NP'
p686
g5
tp687
a(S'participants'
p688
S'participant'
p689
S'NNS'
p690
S'I-NP'
p691
g5
tp692
a(S'were'
p693
S'be'
p694
S'VBD'
p695
S'B-VP'
p696
g5
tp697
a(S'more'
p698
S'more'
p699
S'RBR'
p700
S'B-ADJP'
p701
g5
tp702
a(S'similar'
p703
S'similar'
p704
S'JJ'
p705
S'I-ADJP'
p706
g5
tp707
a(S'to'
p708
S'to'
p709
S'TO'
p710
S'B-PP'
p711
g5
tp712
a(S'previous'
p713
S'previous'
p714
S'JJ'
p715
S'B-NP'
p716
g5
tp717
a(S'research'
p718
S'research'
p719
S'NN'
p720
S'I-NP'
p721
g5
tp722
a(S'with'
p723
S'with'
p724
S'IN'
p725
S'B-PP'
p726
g5
tp727
a(S'Eastern'
p728
S'Eastern'
p729
S'JJ'
p730
S'B-NP'
p731
S'B-cell_type'
p732
tp733
a(S'populations'
p734
S'population'
p735
S'NNS'
p736
S'I-NP'
p737
S'I-cell_type'
p738
tp739
a(S'than'
p740
S'than'
p741
S'IN'
p742
S'B-PP'
p743
g5
tp744
a(S'with'
p745
S'with'
p746
S'IN'
p747
S'B-PP'
p748
g5
tp749
a(S'Western'
p750
S'Western'
p751
S'JJ'
p752
S'B-NP'
p753
S'B-cell_type'
p754
tp755
a(S'populations'
p756
S'population'
p757
S'NNS'
p758
S'I-NP'
p759
S'I-cell_type'
p760
tp761
a(g164
g164
g164
g5
g5
tp762
a(S'Kim'
p763
S'Kim'
p764
S'NNP'
p765
S'B-NP'
p766
g5
tp767
a(S'and'
p768
S'and'
p769
S'CC'
p770
S'I-NP'
p771
g5
tp772
a(S'Markman'
p773
S'Markman'
p774
S'NNP'
p775
S'I-NP'
p776
g5
tp777
a(S'in'
p778
S'in'
p779
S'IN'
p780
S'B-PP'
p781
g5
tp782
a(g166
g166
S'NNP'
p783
S'B-NP'
p784
g5
tp785
a(S'Exp'
p786
S'Exp'
p787
S'NNP'
p788
S'I-NP'
p789
g5
tp790
a(S'Soc'
p791
S'Soc'
p792
S'NNP'
p793
S'I-NP'
p794
g5
tp795
a(S'Psychol'
p796
S'Psychol'
p797
S'NNP'
p798
S'I-NP'
p799
g5
tp800
a(S'42'
p801
S'42'
p802
S'CD'
p803
S'I-NP'
p804
g5
tp805
a(g164
g164
g164
g5
g5
tp806
a(g191
g191
S'CD'
p807
S'B-NP'
p808
g5
tp809
a(g195
g195
g195
g5
g5
tp810
a(g197
g197
g197
g5
g5
tp811
a(S'350-364'
p812
S'350-364'
p813
S'CD'
p814
S'B-NP'
p815
g5
tp816
a(g204
g204
g204
S'I-NP'
p817
g5
tp818
a(S'2006'
p819
S'2006'
p820
S'CD'
p821
S'I-NP'
p822
g5
tp823
a(g195
g195
g195
g5
g5
tp824
a(S'and'
p825
S'and'
p826
S'CC'
p827
g5
g5
tp828
a(S'indicate'
p829
S'indicate'
p830
S'VBP'
p831
S'B-VP'
p832
g5
tp833
a(g541
g541
S'DT'
p834
S'B-NP'
p835
g5
tp836
a(S'within-Western'
p837
S'within-Western'
p838
S'JJ'
p839
S'I-NP'
p840
g5
tp841
a(S'culture'
p842
S'culture'
p843
S'NN'
p844
S'I-NP'
p845
g5
tp846
a(S'difference'
p847
S'difference'
p848
S'NN'
p849
S'I-NP'
p850
g5
tp851
a(S'for'
p852
S'for'
p853
S'IN'
p854
S'B-PP'
p855
g5
tp856
a(S'reasoning'
p857
S'reason'
p858
S'VBG'
p859
S'B-NP'
p860
g5
tp861
a(S'styles'
p862
S'style'
p863
S'NNS'
p864
S'I-NP'
p865
g5
tp866
a(S'and'
p867
S'and'
p868
S'CC'
p869
g5
g5
tp870
a(S'support'
p871
S'support'
p872
S'VBP'
p873
S'B-VP'
p874
g5
tp875
a(S'the'
p876
S'the'
p877
S'DT'
p878
S'B-NP'
p879
g5
tp880
a(S'hypothesis'
p881
S'hypothesis'
p882
S'NN'
p883
S'I-NP'
p884
g5
tp885
a(S'that'
p886
S'that'
p887
S'IN'
p888
S'B-SBAR'
p889
g5
tp890
a(S'this'
p891
S'this'
p892
S'DT'
p893
S'B-NP'
p894
g5
tp895
a(S'difference'
p896
S'difference'
p897
S'NN'
p898
S'I-NP'
p899
g5
tp900
a(S'is'
p901
S'be'
p902
S'VBZ'
p903
S'B-VP'
p904
g5
tp905
a(S'due'
p906
S'due'
p907
S'JJ'
p908
S'B-ADJP'
p909
g5
tp910
a(S'to'
p911
S'to'
p912
S'TO'
p913
S'B-PP'
p914
g5
tp915
a(S'different'
p916
S'different'
p917
S'JJ'
p918
S'B-NP'
p919
g5
tp920
a(S'chronic'
p921
S'chronic'
p922
S'JJ'
p923
S'I-NP'
p924
g5
tp925
a(S'levels'
p926
S'level'
p927
S'NNS'
p928
S'I-NP'
p929
g5
tp930
a(S'of'
p931
S'of'
p932
S'IN'
p933
S'B-PP'
p934
g5
tp935
a(S'FOI'
p936
S'FOI'
p937
S'NN'
p938
S'B-NP'
p939
S'B-protein'
p940
tp941
a(g38
g38
g38
g5
g5
tp942
a.