(lp0
(S'Efficacy'
p1
S'Efficacy'
p2
S'NN'
p3
S'B-NP'
p4
S'O'
p5
tp6
a(S'and'
p7
S'and'
p8
S'CC'
p9
S'I-NP'
p10
g5
tp11
a(S'safety'
p12
S'safety'
p13
S'NN'
p14
S'I-NP'
p15
g5
tp16
a(S'of'
p17
S'of'
p18
S'IN'
p19
S'B-PP'
p20
g5
tp21
a(S'recombinant'
p22
S'recombinant'
p23
S'JJ'
p24
S'B-NP'
p25
S'B-protein'
p26
tp27
a(S'human'
p28
S'human'
p29
S'JJ'
p30
S'I-NP'
p31
S'I-protein'
p32
tp33
a(S'nerve'
p34
S'nerve'
p35
S'NN'
p36
S'I-NP'
p37
S'I-protein'
p38
tp39
a(S'growth'
p40
S'growth'
p41
S'NN'
p42
S'I-NP'
p43
S'I-protein'
p44
tp45
a(S'factor'
p46
S'factor'
p47
S'NN'
p48
S'I-NP'
p49
S'I-protein'
p50
tp51
a(S'in'
p52
S'in'
p53
S'IN'
p54
S'B-PP'
p55
g5
tp56
a(S'patients'
p57
S'patient'
p58
S'NNS'
p59
S'B-NP'
p60
g5
tp61
a(S'with'
p62
S'with'
p63
S'IN'
p64
S'B-PP'
p65
g5
tp66
a(S'diabetic'
p67
S'diabetic'
p68
S'JJ'
p69
S'B-NP'
p70
g5
tp71
a(S'polyneuropathy'
p72
S'polyneuropathy'
p73
S'NN'
p74
S'I-NP'
p75
g5
tp76
a(S':'
p77
g77
g77
g5
g5
tp78
a(S'A'
p79
g79
S'DT'
p80
S'B-NP'
p81
g5
tp82
a(S'randomized'
p83
S'randomize'
p84
S'VBN'
p85
S'I-NP'
p86
g5
tp87
a(S'controlled'
p88
S'control'
p89
S'VBN'
p90
S'I-NP'
p91
g5
tp92
a(S'trial.'
p93
S'trial.'
p94
S'NN'
p95
S'I-NP'
p96
g5
tp97
a(S'rhNGF'
p98
S'rhNGF'
p99
S'NN'
p100
S'I-NP'
p101
g5
tp102
a(S'Clinical'
p103
S'Clinical'
p104
S'NNP'
p105
S'I-NP'
p106
g5
tp107
a(S'Investigator'
p108
S'Investigator'
p109
S'NNP'
p110
S'I-NP'
p111
g5
tp112
a(S'Group'
p113
S'Group'
p114
S'NNP'
p115
S'I-NP'
p116
g5
tp117
a(S'.'
p118
g118
g118
g5
g5
tp119
a(S'CONTEXT'
p120
S'CONTEXT'
p121
S'NN'
p122
S'B-NP'
p123
S'B-protein'
p124
tp125
a(S'Nerve'
p126
S'Nerve'
p127
S'NN'
p128
S'I-NP'
p129
S'I-protein'
p130
tp131
a(S'growth'
p132
S'growth'
p133
S'NN'
p134
S'I-NP'
p135
S'I-protein'
p136
tp137
a(S'factor'
p138
S'factor'
p139
S'NN'
p140
S'I-NP'
p141
S'I-protein'
p142
tp143
a(S'is'
p144
S'be'
p145
S'VBZ'
p146
S'B-VP'
p147
g5
tp148
a(S'a'
p149
g149
S'DT'
p150
S'B-NP'
p151
g5
tp152
a(S'neurotrophic'
p153
S'neurotrophic'
p154
S'JJ'
p155
S'I-NP'
p156
S'B-protein'
p157
tp158
a(S'factor'
p159
S'factor'
p160
S'NN'
p161
S'I-NP'
p162
S'I-protein'
p163
tp164
a(S'that'
p165
S'that'
p166
S'WDT'
p167
S'B-NP'
p168
g5
tp169
a(S'promotes'
p170
S'promote'
p171
S'VBZ'
p172
S'B-VP'
p173
g5
tp174
a(S'the'
p175
S'the'
p176
S'DT'
p177
S'B-NP'
p178
g5
tp179
a(S'survival'
p180
S'survival'
p181
S'NN'
p182
S'I-NP'
p183
g5
tp184
a(S'of'
p185
S'of'
p186
S'IN'
p187
S'B-PP'
p188
g5
tp189
a(S'small'
p190
S'small'
p191
S'JJ'
p192
S'B-NP'
p193
g5
tp194
a(S'fiber'
p195
S'fiber'
p196
S'NN'
p197
S'I-NP'
p198
g5
tp199
a(S'sensory'
p200
S'sensory'
p201
S'JJ'
p202
S'I-NP'
p203
g5
tp204
a(S'neurons'
p205
S'neuron'
p206
S'NNS'
p207
S'I-NP'
p208
g5
tp209
a(S'and'
p210
S'and'
p211
S'CC'
p212
g5
g5
tp213
a(S'sympathetic'
p214
S'sympathetic'
p215
S'JJ'
p216
S'B-NP'
p217
g5
tp218
a(S'neurons'
p219
S'neuron'
p220
S'NNS'
p221
S'I-NP'
p222
g5
tp223
a(S'in'
p224
S'in'
p225
S'IN'
p226
S'B-PP'
p227
g5
tp228
a(S'the'
p229
S'the'
p230
S'DT'
p231
S'B-NP'
p232
g5
tp233
a(S'peripheral'
p234
S'peripheral'
p235
S'JJ'
p236
S'I-NP'
p237
g5
tp238
a(S'nervous'
p239
S'nervous'
p240
S'JJ'
p241
S'I-NP'
p242
g5
tp243
a(S'system.'
p244
S'system.'
p245
S'NN'
p246
S'I-NP'
p247
g5
tp248
a(S'Recombinant'
p249
S'Recombinant'
p250
S'JJ'
p251
S'I-NP'
p252
g5
tp253
a(S'human'
p254
S'human'
p255
S'JJ'
p256
S'I-NP'
p257
g5
tp258
a(S'nerve'
p259
S'nerve'
p260
S'NN'
p261
S'I-NP'
p262
g5
tp263
a(S'growth'
p264
S'growth'
p265
S'NN'
p266
S'I-NP'
p267
g5
tp268
a(S'factor'
p269
S'factor'
p270
S'NN'
p271
S'I-NP'
p272
g5
tp273
a(S'('
p274
g274
g274
g5
g5
tp275
a(S'rhNGF'
p276
S'rhNGF'
p277
S'NN'
p278
S'B-NP'
p279
S'B-protein'
p280
tp281
a(S')'
p282
g282
g282
g5
g5
tp283
a(S'has'
p284
S'have'
p285
S'VBZ'
p286
S'B-VP'
p287
g5
tp288
a(S'demonstrated'
p289
S'demonstrate'
p290
S'VBN'
p291
S'I-VP'
p292
g5
tp293
a(S'efficacy'
p294
S'efficacy'
p295
S'NN'
p296
S'B-NP'
p297
g5
tp298
a(S'as'
p299
S'as'
p300
S'IN'
p301
S'B-PP'
p302
g5
tp303
a(S'treatment'
p304
S'treatment'
p305
S'NN'
p306
S'B-NP'
p307
g5
tp308
a(S'for'
p309
S'for'
p310
S'IN'
p311
S'B-PP'
p312
g5
tp313
a(S'peripheral'
p314
S'peripheral'
p315
S'JJ'
p316
S'B-NP'
p317
g5
tp318
a(S'neuropathy'
p319
S'neuropathy'
p320
S'NN'
p321
S'I-NP'
p322
g5
tp323
a(S'in'
p324
S'in'
p325
S'IN'
p326
S'B-PP'
p327
g5
tp328
a(S'experimental'
p329
S'experimental'
p330
S'JJ'
p331
S'B-NP'
p332
g5
tp333
a(S'models'
p334
S'model'
p335
S'NNS'
p336
S'I-NP'
p337
g5
tp338
a(S'and'
p339
S'and'
p340
S'CC'
p341
g5
g5
tp342
a(S'phase'
p343
S'phase'
p344
S'NN'
p345
S'B-NP'
p346
g5
tp347
a(S'2'
p348
g348
S'CD'
p349
S'I-NP'
p350
g5
tp351
a(S'clinical'
p352
S'clinical'
p353
S'JJ'
p354
S'I-NP'
p355
g5
tp356
a(S'trials'
p357
S'trial'
p358
S'NNS'
p359
S'I-NP'
p360
g5
tp361
a(g118
g118
g118
g5
g5
tp362
a(S'OBJECTIVE'
p363
S'OBJECTIVE'
p364
S'NN'
p365
S'B-NP'
p366
g5
tp367
a(S'To'
p368
S'To'
p369
S'TO'
p370
S'B-VP'
p371
g5
tp372
a(S'evaluate'
p373
S'evaluate'
p374
S'VB'
p375
S'I-VP'
p376
g5
tp377
a(S'the'
p378
S'the'
p379
S'DT'
p380
S'B-NP'
p381
g5
tp382
a(S'efficacy'
p383
S'efficacy'
p384
S'NN'
p385
S'I-NP'
p386
g5
tp387
a(S'and'
p388
S'and'
p389
S'CC'
p390
S'I-NP'
p391
g5
tp392
a(S'safety'
p393
S'safety'
p394
S'NN'
p395
S'I-NP'
p396
g5
tp397
a(S'of'
p398
S'of'
p399
S'IN'
p400
S'B-PP'
p401
g5
tp402
a(g149
g149
S'DT'
p403
S'B-NP'
p404
g5
tp405
a(S'12-month'
p406
S'12-month'
p407
S'JJ'
p408
S'I-NP'
p409
g5
tp410
a(S'regimen'
p411
S'regimen'
p412
S'NN'
p413
S'I-NP'
p414
g5
tp415
a(S'of'
p416
S'of'
p417
S'IN'
p418
S'B-PP'
p419
g5
tp420
a(S'rhNGF'
p421
S'rhNGF'
p422
S'NN'
p423
S'B-NP'
p424
S'B-protein'
p425
tp426
a(S'in'
p427
S'in'
p428
S'IN'
p429
S'B-PP'
p430
g5
tp431
a(S'patients'
p432
S'patient'
p433
S'NNS'
p434
S'B-NP'
p435
g5
tp436
a(S'with'
p437
S'with'
p438
S'IN'
p439
S'B-PP'
p440
g5
tp441
a(S'diabetic'
p442
S'diabetic'
p443
S'JJ'
p444
S'B-NP'
p445
g5
tp446
a(S'polyneuropathy'
p447
S'polyneuropathy'
p448
S'NN'
p449
S'I-NP'
p450
g5
tp451
a(g118
g118
g118
g5
g5
tp452
a(S'DESIGN'
p453
S'DESIGN'
p454
S'NNP'
p455
S'B-NP'
p456
g5
tp457
a(S'Randomized'
p458
S'Randomized'
p459
S'NNP'
p460
S'I-NP'
p461
g5
tp462
a(S','
p463
g463
g463
g5
g5
tp464
a(S'double-blind'
p465
S'double-blind'
p466
S'JJ'
p467
S'B-NP'
p468
g5
tp469
a(g463
g463
g463
S'I-NP'
p470
g5
tp471
a(S'placebo-controlled'
p472
S'placebo-controlled'
p473
S'JJ'
p474
S'I-NP'
p475
g5
tp476
a(S'phase'
p477
S'phase'
p478
S'NN'
p479
S'I-NP'
p480
g5
tp481
a(S'3'
p482
g482
S'CD'
p483
S'I-NP'
p484
g5
tp485
a(S'trial'
p486
S'trial'
p487
S'NN'
p488
S'I-NP'
p489
g5
tp490
a(S'conducted'
p491
S'conduct'
p492
S'VBN'
p493
S'B-VP'
p494
g5
tp495
a(S'from'
p496
S'from'
p497
S'IN'
p498
S'B-PP'
p499
g5
tp500
a(S'July'
p501
S'July'
p502
S'NNP'
p503
S'B-NP'
p504
g5
tp505
a(S'1997'
p506
S'1997'
p507
S'CD'
p508
S'I-NP'
p509
g5
tp510
a(S'through'
p511
S'through'
p512
S'IN'
p513
S'B-PP'
p514
g5
tp515
a(S'May'
p516
S'May'
p517
S'NNP'
p518
S'B-NP'
p519
g5
tp520
a(S'1999'
p521
S'1999'
p522
S'CD'
p523
S'I-NP'
p524
g5
tp525
a(g118
g118
g118
g5
g5
tp526
a(S'SETTING'
p527
S'SETTING'
p528
S'VBG'
p529
S'B-VP'
p530
g5
tp531
a(S'Eighty-four'
p532
S'Eighty-four'
p533
S'CD'
p534
S'B-NP'
p535
g5
tp536
a(S'outpatient'
p537
S'outpatient'
p538
S'NN'
p539
S'I-NP'
p540
g5
tp541
a(S'centers'
p542
S'center'
p543
S'NNS'
p544
S'I-NP'
p545
g5
tp546
a(S'throughout'
p547
S'throughout'
p548
S'IN'
p549
S'B-PP'
p550
g5
tp551
a(S'the'
p552
S'the'
p553
S'DT'
p554
S'B-NP'
p555
g5
tp556
a(S'United'
p557
S'United'
p558
S'NNP'
p559
S'I-NP'
p560
g5
tp561
a(S'States'
p562
S'State'
p563
S'NNPS'
p564
S'I-NP'
p565
g5
tp566
a(g118
g118
g118
g5
g5
tp567
a(S'PATIENTS'
p568
S'PATIENTS'
p569
S'NNS'
p570
S'B-NP'
p571
g5
tp572
a(g79
g79
S'DT'
p573
S'B-NP'
p574
g5
tp575
a(S'total'
p576
S'total'
p577
S'NN'
p578
S'I-NP'
p579
g5
tp580
a(S'of'
p581
S'of'
p582
S'IN'
p583
S'B-PP'
p584
g5
tp585
a(S'1019'
p586
S'1019'
p587
S'CD'
p588
S'B-NP'
p589
g5
tp590
a(S'men'
p591
S'man'
p592
S'NNS'
p593
S'I-NP'
p594
g5
tp595
a(S'and'
p596
S'and'
p597
S'CC'
p598
S'I-NP'
p599
g5
tp600
a(S'women'
p601
S'woman'
p602
S'NNS'
p603
S'I-NP'
p604
g5
tp605
a(S'aged'
p606
S'age'
p607
S'VBN'
p608
S'B-ADJP'
p609
g5
tp610
a(S'18'
p611
S'18'
p612
S'CD'
p613
S'B-NP'
p614
g5
tp615
a(S'to'
p616
S'to'
p617
S'TO'
p618
S'I-NP'
p619
g5
tp620
a(S'74'
p621
S'74'
p622
S'CD'
p623
S'I-NP'
p624
g5
tp625
a(S'years'
p626
S'year'
p627
S'NNS'
p628
S'I-NP'
p629
g5
tp630
a(S'with'
p631
S'with'
p632
S'IN'
p633
S'B-PP'
p634
g5
tp635
a(S'either'
p636
S'either'
p637
S'CC'
p638
g5
g5
tp639
a(S'type'
p640
S'type'
p641
S'NN'
p642
S'B-NP'
p643
g5
tp644
a(S'1'
p645
g645
S'CD'
p646
S'I-NP'
p647
g5
tp648
a(S'or'
p649
S'or'
p650
S'CC'
p651
S'I-NP'
p652
g5
tp653
a(S'type'
p654
S'type'
p655
S'NN'
p656
S'I-NP'
p657
g5
tp658
a(g348
g348
S'CD'
p659
S'I-NP'
p660
g5
tp661
a(S'diabetes'
p662
S'diabete'
p663
S'NNS'
p664
S'I-NP'
p665
g5
tp666
a(S'and'
p667
S'and'
p668
S'CC'
p669
g5
g5
tp670
a(g149
g149
S'DT'
p671
S'B-NP'
p672
g5
tp673
a(S'sensory'
p674
S'sensory'
p675
S'JJ'
p676
S'I-NP'
p677
g5
tp678
a(S'polyneuropathy'
p679
S'polyneuropathy'
p680
S'NN'
p681
S'I-NP'
p682
g5
tp683
a(S'attributable'
p684
S'attributable'
p685
S'JJ'
p686
S'B-ADJP'
p687
g5
tp688
a(S'to'
p689
S'to'
p690
S'TO'
p691
S'B-PP'
p692
g5
tp693
a(S'diabetes'
p694
S'diabete'
p695
S'NNS'
p696
S'B-NP'
p697
g5
tp698
a(g118
g118
g118
g5
g5
tp699
a(S'INTERVENTIONS'
p700
S'INTERVENTIONS'
p701
S'NNS'
p702
S'B-NP'
p703
g5
tp704
a(S'Patients'
p705
S'Patient'
p706
S'NNS'
p707
S'I-NP'
p708
g5
tp709
a(S'were'
p710
S'be'
p711
S'VBD'
p712
S'B-VP'
p713
g5
tp714
a(S'randomly'
p715
S'randomly'
p716
S'RB'
p717
S'I-VP'
p718
g5
tp719
a(S'assigned'
p720
S'assign'
p721
S'VBN'
p722
S'I-VP'
p723
g5
tp724
a(S'to'
p725
S'to'
p726
S'TO'
p727
S'I-VP'
p728
g5
tp729
a(S'receive'
p730
S'receive'
p731
S'VB'
p732
S'I-VP'
p733
g5
tp734
a(S'either'
p735
S'either'
p736
S'CC'
p737
g5
g5
tp738
a(S'rhNGF'
p739
S'rhNGF'
p740
S'NN'
p741
S'B-NP'
p742
S'B-protein'
p743
tp744
a(g463
g463
g463
g5
g5
tp745
a(S'0.1'
p746
S'0.1'
p747
S'CD'
p748
S'B-NP'
p749
g5
tp750
a(S'microg/kg'
p751
S'microg/kg'
p752
S'NN'
p753
S'I-NP'
p754
g5
tp755
a(g274
g274
g274
g5
g5
tp756
a(S'n'
p757
g757
S'NN'
p758
S'B-NP'
p759
g5
tp760
a(S'='
p761
g761
S'SYM'
p762
S'B-VP'
p763
g5
tp764
a(S'504'
p765
S'504'
p766
S'CD'
p767
S'B-NP'
p768
g5
tp769
a(g282
g282
g282
g5
g5
tp770
a(g463
g463
g463
g5
g5
tp771
a(S'or'
p772
S'or'
p773
S'CC'
p774
g5
g5
tp775
a(S'placebo'
p776
S'placebo'
p777
S'NN'
p778
S'B-NP'
p779
g5
tp780
a(g274
g274
g274
g5
g5
tp781
a(g757
g757
S'NN'
p782
S'B-NP'
p783
g5
tp784
a(g761
g761
S'SYM'
p785
S'B-VP'
p786
g5
tp787
a(S'515'
p788
S'515'
p789
S'CD'
p790
S'B-NP'
p791
g5
tp792
a(g282
g282
g282
g5
g5
tp793
a(S'by'
p794
S'by'
p795
S'IN'
p796
S'B-PP'
p797
g5
tp798
a(S'subcutaneous'
p799
S'subcutaneous'
p800
S'JJ'
p801
S'B-NP'
p802
g5
tp803
a(S'injection'
p804
S'injection'
p805
S'NN'
p806
S'I-NP'
p807
g5
tp808
a(g482
g482
S'CD'
p809
S'B-NP'
p810
g5
tp811
a(S'times'
p812
S'time'
p813
S'NNS'
p814
S'I-NP'
p815
g5
tp816
a(S'per'
p817
S'per'
p818
S'IN'
p819
S'B-PP'
p820
g5
tp821
a(S'week'
p822
S'week'
p823
S'NN'
p824
S'B-NP'
p825
g5
tp826
a(S'for'
p827
S'for'
p828
S'IN'
p829
S'B-PP'
p830
g5
tp831
a(S'48'
p832
S'48'
p833
S'CD'
p834
S'B-NP'
p835
g5
tp836
a(S'weeks.'
p837
S'weeks.'
p838
S'NN'
p839
S'I-NP'
p840
g5
tp841
a(S'Patients'
p842
S'Patient'
p843
S'NNS'
p844
S'I-NP'
p845
g5
tp846
a(S'were'
p847
S'be'
p848
S'VBD'
p849
S'B-VP'
p850
g5
tp851
a(S'assessed'
p852
S'assess'
p853
S'VBN'
p854
S'I-VP'
p855
g5
tp856
a(S'at'
p857
S'at'
p858
S'IN'
p859
S'B-PP'
p860
g5
tp861
a(S'baseline'
p862
S'baseline'
p863
S'NN'
p864
S'B-NP'
p865
g5
tp866
a(g463
g463
g463
g5
g5
tp867
a(S'12'
p868
S'12'
p869
S'CD'
p870
S'B-NP'
p871
g5
tp872
a(S'weeks'
p873
S'week'
p874
S'NNS'
p875
S'I-NP'
p876
g5
tp877
a(g463
g463
g463
g5
g5
tp878
a(S'24'
p879
S'24'
p880
S'CD'
p881
S'B-NP'
p882
g5
tp883
a(S'weeks'
p884
S'week'
p885
S'NNS'
p886
S'I-NP'
p887
g5
tp888
a(g463
g463
g463
g5
g5
tp889
a(S'and'
p890
S'and'
p891
S'CC'
p892
g5
g5
tp893
a(S'48'
p894
S'48'
p895
S'CD'
p896
S'B-NP'
p897
g5
tp898
a(S'weeks'
p899
S'week'
p900
S'NNS'
p901
S'I-NP'
p902
g5
tp903
a(g118
g118
g118
g5
g5
tp904
a(S'MAIN'
p905
S'MAIN'
p906
S'NNP'
p907
S'B-NP'
p908
g5
tp909
a(S'OUTCOME'
p910
S'OUTCOME'
p911
S'NNP'
p912
S'I-NP'
p913
g5
tp914
a(S'MEASURES'
p915
S'MEASURES'
p916
S'NNP'
p917
S'I-NP'
p918
g5
tp919
a(S'The'
p920
S'The'
p921
S'DT'
p922
S'B-NP'
p923
g5
tp924
a(S'primary'
p925
S'primary'
p926
S'JJ'
p927
S'I-NP'
p928
g5
tp929
a(S'outcome'
p930
S'outcome'
p931
S'NN'
p932
S'I-NP'
p933
g5
tp934
a(S'measure'
p935
S'measure'
p936
S'NN'
p937
S'I-NP'
p938
g5
tp939
a(S'was'
p940
S'be'
p941
S'VBD'
p942
S'B-VP'
p943
g5
tp944
a(g149
g149
S'DT'
p945
S'B-NP'
p946
g5
tp947
a(S'change'
p948
S'change'
p949
S'NN'
p950
S'I-NP'
p951
g5
tp952
a(S'in'
p953
S'in'
p954
S'IN'
p955
S'B-PP'
p956
g5
tp957
a(S'neuropathy'
p958
S'neuropathy'
p959
S'NN'
p960
S'B-NP'
p961
g5
tp962
a(S'between'
p963
S'between'
p964
S'IN'
p965
S'B-PP'
p966
g5
tp967
a(S'baseline'
p968
S'baseline'
p969
S'NN'
p970
S'B-NP'
p971
g5
tp972
a(S'and'
p973
S'and'
p974
S'CC'
p975
g5
g5
tp976
a(S'week'
p977
S'week'
p978
S'NN'
p979
S'B-NP'
p980
g5
tp981
a(S'48'
p982
S'48'
p983
S'CD'
p984
S'I-NP'
p985
g5
tp986
a(g463
g463
g463
g5
g5
tp987
a(S'demonstrated'
p988
S'demonstrate'
p989
S'VBN'
p990
S'B-VP'
p991
g5
tp992
a(S'by'
p993
S'by'
p994
S'IN'
p995
S'B-PP'
p996
g5
tp997
a(S'the'
p998
S'the'
p999
S'DT'
p1000
S'B-NP'
p1001
g5
tp1002
a(S'Neuropathy'
p1003
S'Neuropathy'
p1004
S'NN'
p1005
S'I-NP'
p1006
g5
tp1007
a(S'Impairment'
p1008
S'Impairment'
p1009
S'NN'
p1010
S'I-NP'
p1011
g5
tp1012
a(S'Score'
p1013
S'Score'
p1014
S'NN'
p1015
S'I-NP'
p1016
g5
tp1017
a(S'for'
p1018
S'for'
p1019
S'IN'
p1020
S'B-PP'
p1021
g5
tp1022
a(S'the'
p1023
S'the'
p1024
S'DT'
p1025
S'B-NP'
p1026
g5
tp1027
a(S'Lower'
p1028
S'Lower'
p1029
S'NNP'
p1030
S'I-NP'
p1031
g5
tp1032
a(S'Limbs'
p1033
S'Limbs'
p1034
S'NNP'
p1035
S'I-NP'
p1036
g5
tp1037
a(g463
g463
g463
g5
g5
tp1038
a(S'compared'
p1039
S'compare'
p1040
S'VBN'
p1041
S'B-PP'
p1042
g5
tp1043
a(S'between'
p1044
S'between'
p1045
S'IN'
p1046
S'B-PP'
p1047
g5
tp1048
a(S'the'
p1049
S'the'
p1050
S'DT'
p1051
S'B-NP'
p1052
g5
tp1053
a(g348
g348
S'CD'
p1054
S'I-NP'
p1055
g5
tp1056
a(S'groups.'
p1057
S'groups.'
p1058
S'NN'
p1059
S'I-NP'
p1060
g5
tp1061
a(S'Secondary'
p1062
S'Secondary'
p1063
S'JJ'
p1064
S'I-NP'
p1065
g5
tp1066
a(S'outcome'
p1067
S'outcome'
p1068
S'NN'
p1069
S'I-NP'
p1070
g5
tp1071
a(S'measures'
p1072
S'measure'
p1073
S'NNS'
p1074
S'I-NP'
p1075
g5
tp1076
a(S'included'
p1077
S'include'
p1078
S'VBD'
p1079
S'B-VP'
p1080
g5
tp1081
a(S'quantitative'
p1082
S'quantitative'
p1083
S'JJ'
p1084
S'B-NP'
p1085
g5
tp1086
a(S'sensory'
p1087
S'sensory'
p1088
S'JJ'
p1089
S'I-NP'
p1090
g5
tp1091
a(S'tests'
p1092
S'test'
p1093
S'NNS'
p1094
S'I-NP'
p1095
g5
tp1096
a(S'using'
p1097
S'use'
p1098
S'VBG'
p1099
S'B-VP'
p1100
g5
tp1101
a(S'the'
p1102
S'the'
p1103
S'DT'
p1104
S'B-NP'
p1105
g5
tp1106
a(S'CASE'
p1107
S'CASE'
p1108
S'NN'
p1109
S'I-NP'
p1110
g5
tp1111
a(S'IV'
p1112
S'IV'
p1113
S'CD'
p1114
S'I-NP'
p1115
g5
tp1116
a(S'System'
p1117
S'System'
p1118
S'NN'
p1119
S'I-NP'
p1120
g5
tp1121
a(g463
g463
g463
g5
g5
tp1122
a(S'the'
p1123
S'the'
p1124
S'DT'
p1125
S'B-NP'
p1126
g5
tp1127
a(S'Neuropathy'
p1128
S'Neuropathy'
p1129
S'NNP'
p1130
S'I-NP'
p1131
g5
tp1132
a(S'Symptom'
p1133
S'Symptom'
p1134
S'NNP'
p1135
S'I-NP'
p1136
g5
tp1137
a(S'and'
p1138
S'and'
p1139
S'CC'
p1140
g5
g5
tp1141
a(S'Change'
p1142
S'Change'
p1143
S'NNP'
p1144
S'B-NP'
p1145
g5
tp1146
a(S'questionnaire'
p1147
S'questionnaire'
p1148
S'NNP'
p1149
S'I-NP'
p1150
g5
tp1151
a(g463
g463
g463
g5
g5
tp1152
a(S'the'
p1153
S'the'
p1154
S'DT'
p1155
S'B-NP'
p1156
g5
tp1157
a(S'Patient'
p1158
S'Patient'
p1159
S'NNP'
p1160
S'I-NP'
p1161
g5
tp1162
a(S'Benefit'
p1163
S'Benefit'
p1164
S'NNP'
p1165
S'I-NP'
p1166
g5
tp1167
a(S'Questionnaire'
p1168
S'Questionnaire'
p1169
S'NNP'
p1170
S'I-NP'
p1171
g5
tp1172
a(g274
g274
g274
g5
g5
tp1173
a(S'PBQ'
p1174
S'PBQ'
p1175
S'NN'
p1176
S'B-NP'
p1177
S'B-protein'
p1178
tp1179
a(g282
g282
g282
g5
g5
tp1180
a(g463
g463
g463
g5
g5
tp1181
a(S'and'
p1182
S'and'
p1183
S'CC'
p1184
g5
g5
tp1185
a(g149
g149
S'DT'
p1186
S'B-NP'
p1187
g5
tp1188
a(S'global'
p1189
S'global'
p1190
S'JJ'
p1191
S'I-NP'
p1192
g5
tp1193
a(S'symptom'
p1194
S'symptom'
p1195
S'NN'
p1196
S'I-NP'
p1197
g5
tp1198
a(S'assessment'
p1199
S'assessment'
p1200
S'NN'
p1201
S'I-NP'
p1202
g5
tp1203
a(g463
g463
g463
g5
g5
tp1204
a(S'as'
p1205
S'as'
p1206
S'RB'
p1207
S'B-CONJP'
p1208
g5
tp1209
a(S'well'
p1210
S'well'
p1211
S'RB'
p1212
S'I-CONJP'
p1213
g5
tp1214
a(S'as'
p1215
S'as'
p1216
S'IN'
p1217
S'I-CONJP'
p1218
g5
tp1219
a(S'nerve'
p1220
S'nerve'
p1221
S'NN'
p1222
S'B-NP'
p1223
g5
tp1224
a(S'conduction'
p1225
S'conduction'
p1226
S'NN'
p1227
S'I-NP'
p1228
g5
tp1229
a(S'studies'
p1230
S'study'
p1231
S'NNS'
p1232
S'I-NP'
p1233
g5
tp1234
a(S'and'
p1235
S'and'
p1236
S'CC'
p1237
g5
g5
tp1238
a(S'occurrence'
p1239
S'occurrence'
p1240
S'NN'
p1241
S'B-NP'
p1242
g5
tp1243
a(S'of'
p1244
S'of'
p1245
S'IN'
p1246
S'B-PP'
p1247
g5
tp1248
a(S'new'
p1249
S'new'
p1250
S'JJ'
p1251
S'B-NP'
p1252
g5
tp1253
a(S'plantar'
p1254
S'plantar'
p1255
S'NN'
p1256
S'I-NP'
p1257
g5
tp1258
a(S'foot'
p1259
S'foot'
p1260
S'NN'
p1261
S'I-NP'
p1262
g5
tp1263
a(S'ulcers.'
p1264
S'ulcers.'
p1265
S'NN'
p1266
S'I-NP'
p1267
g5
tp1268
a(S'Patients'
p1269
S'Patient'
p1270
S'NNS'
p1271
S'I-NP'
p1272
g5
tp1273
a(S'also'
p1274
S'also'
p1275
S'RB'
p1276
S'B-ADVP'
p1277
g5
tp1278
a(S'were'
p1279
S'be'
p1280
S'VBD'
p1281
S'B-VP'
p1282
g5
tp1283
a(S'evaluated'
p1284
S'evaluate'
p1285
S'VBN'
p1286
S'I-VP'
p1287
g5
tp1288
a(S'for'
p1289
S'for'
p1290
S'IN'
p1291
S'B-PP'
p1292
g5
tp1293
a(S'presence'
p1294
S'presence'
p1295
S'NN'
p1296
S'B-NP'
p1297
g5
tp1298
a(S'of'
p1299
S'of'
p1300
S'IN'
p1301
S'B-PP'
p1302
g5
tp1303
a(S'adverse'
p1304
S'adverse'
p1305
S'JJ'
p1306
S'B-NP'
p1307
g5
tp1308
a(S'events'
p1309
S'event'
p1310
S'NNS'
p1311
S'I-NP'
p1312
g5
tp1313
a(g118
g118
g118
g5
g5
tp1314
a(S'RESULTS'
p1315
S'RESULTS'
p1316
S'NNS'
p1317
S'B-NP'
p1318
g5
tp1319
a(S'Among'
p1320
S'Among'
p1321
S'IN'
p1322
S'B-PP'
p1323
g5
tp1324
a(S'patients'
p1325
S'patient'
p1326
S'NNS'
p1327
S'B-NP'
p1328
g5
tp1329
a(S'who'
p1330
S'who'
p1331
S'WP'
p1332
S'B-NP'
p1333
g5
tp1334
a(S'received'
p1335
S'receive'
p1336
S'VBD'
p1337
S'B-VP'
p1338
g5
tp1339
a(S'rhNGF'
p1340
S'rhNGF'
p1341
S'NN'
p1342
S'B-NP'
p1343
g5
tp1344
a(g463
g463
g463
g5
g5
tp1345
a(S'418'
p1346
S'418'
p1347
S'CD'
p1348
S'B-NP'
p1349
g5
tp1350
a(g274
g274
g274
g5
g5
tp1351
a(S'83'
p1352
S'83'
p1353
S'CD'
p1354
S'B-NP'
p1355
g5
tp1356
a(S'%'
p1357
g1357
S'NN'
p1358
S'I-NP'
p1359
g5
tp1360
a(g282
g282
g282
g5
g5
tp1361
a(S'completed'
p1362
S'complete'
p1363
S'VBD'
p1364
S'B-VP'
p1365
g5
tp1366
a(S'the'
p1367
S'the'
p1368
S'DT'
p1369
S'B-NP'
p1370
g5
tp1371
a(S'regimen'
p1372
S'regimen'
p1373
S'NN'
p1374
S'I-NP'
p1375
g5
tp1376
a(S'compared'
p1377
S'compare'
p1378
S'VBN'
p1379
S'B-PP'
p1380
g5
tp1381
a(S'with'
p1382
S'with'
p1383
S'IN'
p1384
S'B-PP'
p1385
g5
tp1386
a(S'461'
p1387
S'461'
p1388
S'CD'
p1389
S'B-NP'
p1390
g5
tp1391
a(g274
g274
g274
g5
g5
tp1392
a(S'90'
p1393
S'90'
p1394
S'CD'
p1395
S'B-NP'
p1396
g5
tp1397
a(g1357
g1357
S'NN'
p1398
S'I-NP'
p1399
g5
tp1400
a(g282
g282
g282
g5
g5
tp1401
a(S'who'
p1402
S'who'
p1403
S'WP'
p1404
S'B-NP'
p1405
g5
tp1406
a(S'received'
p1407
S'receive'
p1408
S'VBD'
p1409
S'B-VP'
p1410
g5
tp1411
a(S'placebo.'
p1412
S'placebo.'
p1413
S'NN'
p1414
S'B-NP'
p1415
g5
tp1416
a(S'Administration'
p1417
S'Administration'
p1418
S'NN'
p1419
S'I-NP'
p1420
g5
tp1421
a(S'of'
p1422
S'of'
p1423
S'IN'
p1424
S'B-PP'
p1425
g5
tp1426
a(S'rhNGF'
p1427
S'rhNGF'
p1428
S'NN'
p1429
S'B-NP'
p1430
S'B-protein'
p1431
tp1432
a(S'was'
p1433
S'be'
p1434
S'VBD'
p1435
S'B-VP'
p1436
g5
tp1437
a(S'safe'
p1438
S'safe'
p1439
S'JJ'
p1440
S'B-ADJP'
p1441
g5
tp1442
a(g463
g463
g463
g5
g5
tp1443
a(S'with'
p1444
S'with'
p1445
S'IN'
p1446
S'B-PP'
p1447
g5
tp1448
a(S'few'
p1449
S'few'
p1450
S'JJ'
p1451
S'B-NP'
p1452
g5
tp1453
a(S'adverse'
p1454
S'adverse'
p1455
S'JJ'
p1456
S'I-NP'
p1457
g5
tp1458
a(S'events'
p1459
S'event'
p1460
S'NNS'
p1461
S'I-NP'
p1462
g5
tp1463
a(S'attributed'
p1464
S'attribute'
p1465
S'VBN'
p1466
S'B-VP'
p1467
g5
tp1468
a(S'to'
p1469
S'to'
p1470
S'TO'
p1471
S'B-PP'
p1472
g5
tp1473
a(S'treatment'
p1474
S'treatment'
p1475
S'NN'
p1476
S'B-NP'
p1477
g5
tp1478
a(S'apart'
p1479
S'apart'
p1480
S'RB'
p1481
S'B-ADVP'
p1482
g5
tp1483
a(S'from'
p1484
S'from'
p1485
S'IN'
p1486
S'B-PP'
p1487
g5
tp1488
a(S'injection'
p1489
S'injection'
p1490
S'NN'
p1491
S'B-NP'
p1492
g5
tp1493
a(S'site'
p1494
S'site'
p1495
S'NN'
p1496
S'I-NP'
p1497
g5
tp1498
a(S'pain/hyperalgesia'
p1499
S'pain/hyperalgesia'
p1500
S'NN'
p1501
S'I-NP'
p1502
g5
tp1503
a(S'and'
p1504
S'and'
p1505
S'CC'
p1506
g5
g5
tp1507
a(S'other'
p1508
S'other'
p1509
S'JJ'
p1510
S'B-NP'
p1511
g5
tp1512
a(S'pain'
p1513
S'pain'
p1514
S'NN'
p1515
S'I-NP'
p1516
g5
tp1517
a(S'syndromes.'
p1518
S'syndromes.'
p1519
S'NN'
p1520
S'I-NP'
p1521
g5
tp1522
a(S'However'
p1523
S'However'
p1524
S'RB'
p1525
S'B-ADVP'
p1526
g5
tp1527
a(g463
g463
g463
g5
g5
tp1528
a(S'neither'
p1529
S'neither'
p1530
S'CC'
p1531
g5
g5
tp1532
a(S'the'
p1533
S'the'
p1534
S'DT'
p1535
S'B-NP'
p1536
g5
tp1537
a(S'primary'
p1538
S'primary'
p1539
S'JJ'
p1540
S'I-NP'
p1541
g5
tp1542
a(S'end'
p1543
S'end'
p1544
S'NN'
p1545
S'I-NP'
p1546
g5
tp1547
a(S'point'
p1548
S'point'
p1549
S'NN'
p1550
S'I-NP'
p1551
g5
tp1552
a(g274
g274
g274
g5
g5
tp1553
a(S'P'
p1554
g1554
S'NN'
p1555
S'B-NP'
p1556
g5
tp1557
a(S'=.25'
p1558
S'=.25'
p1559
S'CD'
p1560
S'I-NP'
p1561
g5
tp1562
a(g282
g282
g282
g5
g5
tp1563
a(S'nor'
p1564
S'nor'
p1565
S'CC'
p1566
g5
g5
tp1567
a(S'most'
p1568
S'most'
p1569
S'JJS'
p1570
S'B-NP'
p1571
g5
tp1572
a(S'of'
p1573
S'of'
p1574
S'IN'
p1575
S'B-PP'
p1576
g5
tp1577
a(S'the'
p1578
S'the'
p1579
S'DT'
p1580
S'B-NP'
p1581
g5
tp1582
a(S'secondary'
p1583
S'secondary'
p1584
S'JJ'
p1585
S'I-NP'
p1586
g5
tp1587
a(S'end'
p1588
S'end'
p1589
S'NN'
p1590
S'I-NP'
p1591
g5
tp1592
a(S'points'
p1593
S'point'
p1594
S'NNS'
p1595
S'I-NP'
p1596
g5
tp1597
a(S'demonstrated'
p1598
S'demonstrate'
p1599
S'VBD'
p1600
S'B-VP'
p1601
g5
tp1602
a(g149
g149
S'DT'
p1603
S'B-NP'
p1604
g5
tp1605
a(S'significant'
p1606
S'significant'
p1607
S'JJ'
p1608
S'I-NP'
p1609
g5
tp1610
a(S'benefit'
p1611
S'benefit'
p1612
S'NN'
p1613
S'I-NP'
p1614
g5
tp1615
a(S'of'
p1616
S'of'
p1617
S'IN'
p1618
S'B-PP'
p1619
g5
tp1620
a(S'rhNGF.'
p1621
S'rhNGF.'
p1622
S'NN'
p1623
S'B-NP'
p1624
g5
tp1625
a(S'Exceptions'
p1626
S'Exception'
p1627
S'NNS'
p1628
S'I-NP'
p1629
g5
tp1630
a(S'were'
p1631
S'be'
p1632
S'VBD'
p1633
S'B-VP'
p1634
g5
tp1635
a(S'the'
p1636
S'the'
p1637
S'DT'
p1638
S'B-NP'
p1639
g5
tp1640
a(S'global'
p1641
S'global'
p1642
S'JJ'
p1643
S'I-NP'
p1644
g5
tp1645
a(S'symptom'
p1646
S'symptom'
p1647
S'NN'
p1648
S'I-NP'
p1649
g5
tp1650
a(S'assessment'
p1651
S'assessment'
p1652
S'NN'
p1653
S'I-NP'
p1654
g5
tp1655
a(g274
g274
g274
g5
g5
tp1656
a(g1554
g1554
S'NN'
p1657
S'B-NP'
p1658
g5
tp1659
a(S'=.03'
p1660
S'=.03'
p1661
S'NN'
p1662
S'I-NP'
p1663
g5
tp1664
a(g282
g282
g282
g5
g5
tp1665
a(S'and'
p1666
S'and'
p1667
S'CC'
p1668
g5
g5
tp1669
a(g348
g348
S'CD'
p1670
S'B-NP'
p1671
g5
tp1672
a(S'of'
p1673
S'of'
p1674
S'IN'
p1675
S'B-PP'
p1676
g5
tp1677
a(S'32'
p1678
S'32'
p1679
S'CD'
p1680
S'B-NP'
p1681
g5
tp1682
a(S'comparisons'
p1683
S'comparison'
p1684
S'NNS'
p1685
S'I-NP'
p1686
g5
tp1687
a(S'within'
p1688
S'within'
p1689
S'IN'
p1690
S'B-PP'
p1691
g5
tp1692
a(S'the'
p1693
S'the'
p1694
S'DT'
p1695
S'B-NP'
p1696
g5
tp1697
a(S'PBQ'
p1698
S'PBQ'
p1699
S'NN'
p1700
S'I-NP'
p1701
S'B-DNA'
p1702
tp1703
a(g463
g463
g463
g5
g5
tp1704
a(S'which'
p1705
S'which'
p1706
S'WDT'
p1707
S'B-NP'
p1708
g5
tp1709
a(S'showed'
p1710
S'show'
p1711
S'VBD'
p1712
S'B-VP'
p1713
g5
tp1714
a(g149
g149
S'DT'
p1715
S'B-NP'
p1716
g5
tp1717
a(S'modest'
p1718
S'modest'
p1719
S'JJ'
p1720
S'I-NP'
p1721
g5
tp1722
a(S'but'
p1723
S'but'
p1724
S'CC'
p1725
S'I-NP'
p1726
g5
tp1727
a(S'significant'
p1728
S'significant'
p1729
S'JJ'
p1730
S'I-NP'
p1731
g5
tp1732
a(S'benefit'
p1733
S'benefit'
p1734
S'NN'
p1735
S'I-NP'
p1736
g5
tp1737
a(S'of'
p1738
S'of'
p1739
S'IN'
p1740
S'B-PP'
p1741
g5
tp1742
a(S'rhNGF'
p1743
S'rhNGF'
p1744
S'NN'
p1745
S'B-NP'
p1746
S'B-protein'
p1747
tp1748
a(g274
g274
g274
g5
g5
tp1749
a(g1554
g1554
S'NN'
p1750
S'B-NP'
p1751
g5
tp1752
a(S'=.05'
p1753
S'=.05'
p1754
S'NN'
p1755
S'I-NP'
p1756
g5
tp1757
a(S'for'
p1758
S'for'
p1759
S'IN'
p1760
S'B-PP'
p1761
g5
tp1762
a(S'severity'
p1763
S'severity'
p1764
S'NN'
p1765
S'B-NP'
p1766
g5
tp1767
a(S'of'
p1768
S'of'
p1769
S'IN'
p1770
S'B-PP'
p1771
g5
tp1772
a(S'pain'
p1773
S'pain'
p1774
S'NN'
p1775
S'B-NP'
p1776
g5
tp1777
a(S'in'
p1778
S'in'
p1779
S'IN'
p1780
S'B-PP'
p1781
g5
tp1782
a(S'the'
p1783
S'the'
p1784
S'DT'
p1785
S'B-NP'
p1786
g5
tp1787
a(S'legs'
p1788
S'leg'
p1789
S'NNS'
p1790
S'I-NP'
p1791
g5
tp1792
a(S'and'
p1793
S'and'
p1794
S'CC'
p1795
g5
g5
tp1796
a(g1554
g1554
S'NN'
p1797
S'B-NP'
p1798
g5
tp1799
a(S'=.003'
p1800
S'=.003'
p1801
S'CD'
p1802
S'I-NP'
p1803
g5
tp1804
a(S'for'
p1805
S'for'
p1806
S'IN'
p1807
S'B-PP'
p1808
g5
tp1809
a(S'6-month'
p1810
S'6-month'
p1811
S'JJ'
p1812
S'B-NP'
p1813
g5
tp1814
a(S'symptoms'
p1815
S'symptom'
p1816
S'NNS'
p1817
S'I-NP'
p1818
g5
tp1819
a(S'in'
p1820
S'in'
p1821
S'IN'
p1822
S'B-PP'
p1823
g5
tp1824
a(S'the'
p1825
S'the'
p1826
S'DT'
p1827
S'B-NP'
p1828
g5
tp1829
a(S'feet'
p1830
S'foot'
p1831
S'NNS'
p1832
S'I-NP'
p1833
g5
tp1834
a(S'and'
p1835
S'and'
p1836
S'CC'
p1837
S'I-NP'
p1838
g5
tp1839
a(S'legs'
p1840
S'leg'
p1841
S'NNS'
p1842
S'I-NP'
p1843
g5
tp1844
a(g282
g282
g282
g5
g5
tp1845
a(g118
g118
g118
g5
g5
tp1846
a(S'CONCLUSION'
p1847
S'CONCLUSION'
p1848
S'NN'
p1849
S'B-NP'
p1850
g5
tp1851
a(S'Unlike'
p1852
S'Unlike'
p1853
S'IN'
p1854
S'B-PP'
p1855
g5
tp1856
a(S'previous'
p1857
S'previous'
p1858
S'JJ'
p1859
S'B-NP'
p1860
g5
tp1861
a(S'phase'
p1862
S'phase'
p1863
S'NN'
p1864
S'I-NP'
p1865
g5
tp1866
a(g348
g348
S'CD'
p1867
S'B-NP'
p1868
g5
tp1869
a(S'trials'
p1870
S'trial'
p1871
S'NNS'
p1872
S'I-NP'
p1873
g5
tp1874
a(g463
g463
g463
g5
g5
tp1875
a(S'this'
p1876
S'this'
p1877
S'DT'
p1878
S'B-NP'
p1879
g5
tp1880
a(S'phase'
p1881
S'phase'
p1882
S'NN'
p1883
S'I-NP'
p1884
g5
tp1885
a(g482
g482
S'CD'
p1886
S'I-NP'
p1887
g5
tp1888
a(S'clinical'
p1889
S'clinical'
p1890
S'JJ'
p1891
S'I-NP'
p1892
g5
tp1893
a(S'trial'
p1894
S'trial'
p1895
S'NN'
p1896
S'I-NP'
p1897
g5
tp1898
a(S'failed'
p1899
S'fail'
p1900
S'VBD'
p1901
S'B-VP'
p1902
g5
tp1903
a(S'to'
p1904
S'to'
p1905
S'TO'
p1906
S'I-VP'
p1907
g5
tp1908
a(S'demonstrate'
p1909
S'demonstrate'
p1910
S'VB'
p1911
S'I-VP'
p1912
g5
tp1913
a(g149
g149
S'DT'
p1914
S'B-NP'
p1915
g5
tp1916
a(S'significant'
p1917
S'significant'
p1918
S'JJ'
p1919
S'I-NP'
p1920
g5
tp1921
a(S'beneficial'
p1922
S'beneficial'
p1923
S'JJ'
p1924
S'I-NP'
p1925
g5
tp1926
a(S'effect'
p1927
S'effect'
p1928
S'NN'
p1929
S'I-NP'
p1930
g5
tp1931
a(S'of'
p1932
S'of'
p1933
S'IN'
p1934
S'B-PP'
p1935
g5
tp1936
a(S'rhNGF'
p1937
S'rhNGF'
p1938
S'NN'
p1939
S'B-NP'
p1940
S'B-protein'
p1941
tp1942
a(S'on'
p1943
S'on'
p1944
S'IN'
p1945
S'B-PP'
p1946
g5
tp1947
a(S'diabetic'
p1948
S'diabetic'
p1949
S'JJ'
p1950
S'B-NP'
p1951
g5
tp1952
a(S'polyneuropathy.'
p1953
S'polyneuropathy.'
p1954
S'NN'
p1955
S'I-NP'
p1956
g5
tp1957
a(S'JAMA.'
p1958
S'JAMA.'
p1959
S'NNP'
p1960
S'B-NP'
p1961
g5
tp1962
a(S'2000'
p1963
S'2000'
p1964
S'CD'
p1965
S'I-NP'
p1966
g5
tp1967
a(S';'
p1968
g1968
g77
g5
g5
tp1969
a(S'284'
p1970
S'284'
p1971
S'CD'
p1972
S'B-NP'
p1973
g5
tp1974
a(g77
g77
g77
g5
g5
tp1975
a(S'2215-2221'
p1976
S'2215-2221'
p1977
S'CD'
p1978
S'B-NP'
p1979
g5
tp1980
a(g118
g118
g118
g5
g5
tp1981
a.