(lp0
(S'Randomized'
p1
S'Randomize'
p2
S'VBN'
p3
S'B-NP'
p4
S'O'
p5
tp6
a(S'crossover'
p7
S'crossover'
p8
S'NN'
p9
S'I-NP'
p10
g5
tp11
a(S'study'
p12
S'study'
p13
S'NN'
p14
S'I-NP'
p15
g5
tp16
a(S'comparing'
p17
S'compare'
p18
S'VBG'
p19
S'B-VP'
p20
g5
tp21
a(S'efficacy'
p22
S'efficacy'
p23
S'NN'
p24
S'B-NP'
p25
g5
tp26
a(S'of'
p27
S'of'
p28
S'IN'
p29
S'B-PP'
p30
g5
tp31
a(S'transnasal'
p32
S'transnasal'
p33
S'JJ'
p34
S'B-NP'
p35
g5
tp36
a(S'endoscopy'
p37
S'endoscopy'
p38
S'NN'
p39
S'I-NP'
p40
g5
tp41
a(S'with'
p42
S'with'
p43
S'IN'
p44
S'B-PP'
p45
g5
tp46
a(S'that'
p47
S'that'
p48
S'DT'
p49
S'B-NP'
p50
g5
tp51
a(S'of'
p52
S'of'
p53
S'IN'
p54
S'B-PP'
p55
g5
tp56
a(S'standard'
p57
S'standard'
p58
S'JJ'
p59
S'B-NP'
p60
g5
tp61
a(S'endoscopy'
p62
S'endoscopy'
p63
S'NN'
p64
S'I-NP'
p65
g5
tp66
a(S'to'
p67
S'to'
p68
S'TO'
p69
S'B-VP'
p70
g5
tp71
a(S'detect'
p72
S'detect'
p73
S'VB'
p74
S'I-VP'
p75
g5
tp76
a(S'Barrett'
p77
S'Barrett'
p78
S'NNP'
p79
S'B-NP'
p80
g5
tp81
a(S"'s"
p82
S"'s"
p83
S'POS'
p84
S'B-NP'
p85
g5
tp86
a(S'esophagus'
p87
S'esophagus'
p88
S'NN'
p89
S'I-NP'
p90
g5
tp91
a(S'.'
p92
g92
g92
g5
g5
tp93
a(S'BACKGROUND'
p94
S'BACKGROUND'
p95
S'NN'
p96
S'B-NP'
p97
g5
tp98
a(S'Unsedated'
p99
S'Unsedate'
p100
S'VBD'
p101
S'B-VP'
p102
g5
tp103
a(S'transnasal'
p104
S'transnasal'
p105
S'JJ'
p106
S'B-NP'
p107
g5
tp108
a(S'endoscopy'
p109
S'endoscopy'
p110
S'NN'
p111
S'I-NP'
p112
g5
tp113
a(S'('
p114
g114
g114
g5
g5
tp115
a(S'TNE'
p116
S'TNE'
p117
S'NN'
p118
S'B-NP'
p119
g5
tp120
a(S')'
p121
g121
g121
g5
g5
tp122
a(S'may'
p123
S'may'
p124
S'MD'
p125
S'B-VP'
p126
g5
tp127
a(S'be'
p128
S'be'
p129
S'VB'
p130
S'I-VP'
p131
g5
tp132
a(S'safer'
p133
S'safe'
p134
S'JJR'
p135
S'B-ADJP'
p136
g5
tp137
a(S'and'
p138
S'and'
p139
S'CC'
p140
g5
g5
tp141
a(S'less'
p142
S'less'
p143
S'RBR'
p144
S'B-ADJP'
p145
g5
tp146
a(S'expensive'
p147
S'expensive'
p148
S'JJ'
p149
S'I-ADJP'
p150
g5
tp151
a(S'than'
p152
S'than'
p153
S'IN'
p154
S'B-PP'
p155
g5
tp156
a(S'standard'
p157
S'standard'
p158
S'JJ'
p159
S'B-NP'
p160
g5
tp161
a(S'endoscopy'
p162
S'endoscopy'
p163
S'NN'
p164
S'I-NP'
p165
g5
tp166
a(g114
g114
g114
g5
g5
tp167
a(S'SE'
p168
S'SE'
p169
S'NN'
p170
S'B-NP'
p171
S'B-protein'
p172
tp173
a(g121
g121
g121
g5
g5
tp174
a(S'for'
p175
S'for'
p176
S'IN'
p177
S'B-PP'
p178
g5
tp179
a(S'detecting'
p180
S'detect'
p181
S'VBG'
p182
S'B-VP'
p183
g5
tp184
a(S'Barrett'
p185
S'Barrett'
p186
S'NNP'
p187
S'B-NP'
p188
g5
tp189
a(S"'s"
p190
S"'s"
p191
S'POS'
p192
S'B-NP'
p193
g5
tp194
a(S'esophagus'
p195
S'esophagus'
p196
S'NN'
p197
S'I-NP'
p198
g5
tp199
a(g114
g114
g114
g5
g5
tp200
a(S'BE'
p201
S'BE'
p202
S'NN'
p203
S'B-NP'
p204
g5
tp205
a(g121
g121
g121
g5
g5
tp206
a(g92
g92
g92
g5
g5
tp207
a(S'Emerging'
p208
S'Emerge'
p209
S'VBG'
p210
S'B-NP'
p211
g5
tp212
a(S'technologies'
p213
S'technology'
p214
S'NNS'
p215
S'I-NP'
p216
g5
tp217
a(S'require'
p218
S'require'
p219
S'VBP'
p220
S'B-VP'
p221
g5
tp222
a(S'robust'
p223
S'robust'
p224
S'JJ'
p225
S'B-NP'
p226
g5
tp227
a(S'evaluation'
p228
S'evaluation'
p229
S'NN'
p230
S'I-NP'
p231
g5
tp232
a(S'before'
p233
S'before'
p234
S'IN'
p235
S'B-PP'
p236
g5
tp237
a(S'routine'
p238
S'routine'
p239
S'JJ'
p240
S'B-NP'
p241
g5
tp242
a(S'use'
p243
S'use'
p244
S'NN'
p245
S'I-NP'
p246
g5
tp247
a(g92
g92
g92
g5
g5
tp248
a(S'OBJECTIVE'
p249
S'OBJECTIVE'
p250
S'NN'
p251
S'B-NP'
p252
g5
tp253
a(S'To'
p254
S'To'
p255
S'TO'
p256
S'B-VP'
p257
g5
tp258
a(S'evaluate'
p259
S'evaluate'
p260
S'VB'
p261
S'I-VP'
p262
g5
tp263
a(S'the'
p264
S'the'
p265
S'DT'
p266
S'B-NP'
p267
g5
tp268
a(S'sensitivity'
p269
S'sensitivity'
p270
S'NN'
p271
S'I-NP'
p272
g5
tp273
a(S','
p274
g274
g274
g5
g5
tp275
a(S'specificity'
p276
S'specificity'
p277
S'NN'
p278
S'B-NP'
p279
g5
tp280
a(g274
g274
g274
g5
g5
tp281
a(S'and'
p282
S'and'
p283
S'CC'
p284
g5
g5
tp285
a(S'acceptability'
p286
S'acceptability'
p287
S'NN'
p288
S'B-NP'
p289
g5
tp290
a(S'of'
p291
S'of'
p292
S'IN'
p293
S'B-PP'
p294
g5
tp295
a(S'TNE'
p296
S'TNE'
p297
S'NN'
p298
S'B-NP'
p299
S'B-protein'
p300
tp301
a(S'in'
p302
S'in'
p303
S'IN'
p304
S'B-PP'
p305
g5
tp306
a(S'diagnosing'
p307
S'diagnose'
p308
S'VBG'
p309
S'B-VP'
p310
g5
tp311
a(S'BE'
p312
S'BE'
p313
S'NN'
p314
S'B-NP'
p315
g5
tp316
a(S'compared'
p317
S'compare'
p318
S'VBN'
p319
S'B-PP'
p320
g5
tp321
a(S'with'
p322
S'with'
p323
S'IN'
p324
S'B-PP'
p325
g5
tp326
a(S'those'
p327
S'those'
p328
S'DT'
p329
S'B-NP'
p330
g5
tp331
a(S'of'
p332
S'of'
p333
S'IN'
p334
S'B-PP'
p335
g5
tp336
a(S'SE'
p337
S'SE'
p338
S'NN'
p339
S'B-NP'
p340
S'B-protein'
p341
tp342
a(g92
g92
g92
g5
g5
tp343
a(S'DESIGN'
p344
S'DESIGN'
p345
S'NNP'
p346
S'B-NP'
p347
g5
tp348
a(S'Prospective'
p349
S'Prospective'
p350
S'NNP'
p351
S'I-NP'
p352
g5
tp353
a(g274
g274
g274
g5
g5
tp354
a(S'randomized'
p355
S'randomize'
p356
S'VBN'
p357
S'B-VP'
p358
g5
tp359
a(g274
g274
g274
g5
g5
tp360
a(S'crossover'
p361
S'crossover'
p362
S'NN'
p363
S'B-NP'
p364
g5
tp365
a(S'study'
p366
S'study'
p367
S'NN'
p368
S'I-NP'
p369
g5
tp370
a(g92
g92
g92
g5
g5
tp371
a(S'SETTING'
p372
S'SETTING'
p373
S'NNP'
p374
S'B-NP'
p375
g5
tp376
a(S'Single'
p377
S'Single'
p378
S'NNP'
p379
S'I-NP'
p380
g5
tp381
a(g274
g274
g274
g5
g5
tp382
a(S'tertiary-care'
p383
S'tertiary-care'
p384
S'JJ'
p385
S'B-NP'
p386
g5
tp387
a(S'referral'
p388
S'referral'
p389
S'JJ'
p390
S'I-NP'
p391
g5
tp392
a(S'center'
p393
S'center'
p394
S'NN'
p395
S'I-NP'
p396
g5
tp397
a(g92
g92
g92
g5
g5
tp398
a(S'PATIENTS'
p399
S'PATIENTS'
p400
S'NNS'
p401
S'B-NP'
p402
g5
tp403
a(S'This'
p404
S'This'
p405
S'DT'
p406
S'B-NP'
p407
g5
tp408
a(S'study'
p409
S'study'
p410
S'NN'
p411
S'I-NP'
p412
g5
tp413
a(S'enrolled'
p414
S'enrol'
p415
S'VBD'
p416
S'B-VP'
p417
g5
tp418
a(S'consecutive'
p419
S'consecutive'
p420
S'JJ'
p421
S'B-NP'
p422
g5
tp423
a(S'patients'
p424
S'patient'
p425
S'NNS'
p426
S'I-NP'
p427
g5
tp428
a(S'with'
p429
S'with'
p430
S'IN'
p431
S'B-PP'
p432
g5
tp433
a(S'BE'
p434
S'BE'
p435
S'NN'
p436
S'B-NP'
p437
g5
tp438
a(S'or'
p439
S'or'
p440
S'CC'
p441
g5
g5
tp442
a(S'those'
p443
S'those'
p444
S'DT'
p445
S'B-NP'
p446
g5
tp447
a(S'referred'
p448
S'refer'
p449
S'VBN'
p450
S'B-VP'
p451
g5
tp452
a(S'for'
p453
S'for'
p454
S'IN'
p455
S'B-PP'
p456
g5
tp457
a(S'diagnostic'
p458
S'diagnostic'
p459
S'JJ'
p460
S'B-NP'
p461
g5
tp462
a(S'assessment'
p463
S'assessment'
p464
S'NN'
p465
S'I-NP'
p466
g5
tp467
a(g92
g92
g92
g5
g5
tp468
a(S'INTERVENTION'
p469
S'INTERVENTION'
p470
S'NN'
p471
S'B-NP'
p472
g5
tp473
a(S'All'
p474
S'All'
p475
S'DT'
p476
S'B-NP'
p477
g5
tp478
a(S'patients'
p479
S'patient'
p480
S'NNS'
p481
S'I-NP'
p482
g5
tp483
a(S'underwent'
p484
S'undergo'
p485
S'VBD'
p486
S'B-VP'
p487
g5
tp488
a(S'TNE'
p489
S'TNE'
p490
S'NN'
p491
S'B-NP'
p492
g5
tp493
a(S'followed'
p494
S'follow'
p495
S'VBN'
p496
S'B-VP'
p497
g5
tp498
a(S'by'
p499
S'by'
p500
S'IN'
p501
S'B-PP'
p502
g5
tp503
a(S'SE'
p504
S'SE'
p505
S'NN'
p506
S'B-NP'
p507
S'B-protein'
p508
tp509
a(S'or'
p510
S'or'
p511
S'CC'
p512
g5
g5
tp513
a(S'the'
p514
S'the'
p515
S'DT'
p516
S'B-NP'
p517
g5
tp518
a(S'reverse.'
p519
S'reverse.'
p520
S'NN'
p521
S'I-NP'
p522
S'B-DNA'
p523
tp524
a(S'Spielberger'
p525
S'Spielberger'
p526
S'NNP'
p527
S'I-NP'
p528
S'I-DNA'
p529
tp530
a(S'State-Trait'
p531
S'State-Trait'
p532
S'NNP'
p533
S'I-NP'
p534
S'I-DNA'
p535
tp536
a(S'Anxiety'
p537
S'Anxiety'
p538
S'NNP'
p539
S'I-NP'
p540
S'I-DNA'
p541
tp542
a(S'Inventory'
p543
S'Inventory'
p544
S'NNP'
p545
S'I-NP'
p546
S'I-DNA'
p547
tp548
a(S'short-form'
p549
S'short-form'
p550
S'JJ'
p551
S'I-NP'
p552
S'I-DNA'
p553
tp554
a(S'questionnaires'
p555
S'questionnaire'
p556
S'NNS'
p557
S'I-NP'
p558
S'I-DNA'
p559
tp560
a(g274
g274
g274
g5
g5
tp561
a(S'a'
p562
g562
S'DT'
p563
S'B-NP'
p564
g5
tp565
a(S'visual'
p566
S'visual'
p567
S'JJ'
p568
S'I-NP'
p569
g5
tp570
a(S'analogue'
p571
S'analogue'
p572
S'NN'
p573
S'I-NP'
p574
g5
tp575
a(S'scale'
p576
S'scale'
p577
S'NN'
p578
S'I-NP'
p579
g5
tp580
a(g274
g274
g274
g5
g5
tp581
a(S'and'
p582
S'and'
p583
S'CC'
p584
g5
g5
tp585
a(g562
g562
S'DT'
p586
S'B-NP'
p587
g5
tp588
a(S'single'
p589
S'single'
p590
S'JJ'
p591
S'I-NP'
p592
g5
tp593
a(S'question'
p594
S'question'
p595
S'NN'
p596
S'I-NP'
p597
g5
tp598
a(S'addressing'
p599
S'address'
p600
S'VBG'
p601
S'B-VP'
p602
g5
tp603
a(S'preference'
p604
S'preference'
p605
S'NN'
p606
S'B-NP'
p607
g5
tp608
a(S'for'
p609
S'for'
p610
S'IN'
p611
S'B-PP'
p612
g5
tp613
a(S'endoscopy'
p614
S'endoscopy'
p615
S'NN'
p616
S'B-NP'
p617
g5
tp618
a(S'type'
p619
S'type'
p620
S'NN'
p621
S'I-NP'
p622
g5
tp623
a(S'were'
p624
S'be'
p625
S'VBD'
p626
S'B-VP'
p627
g5
tp628
a(S'administered'
p629
S'administer'
p630
S'VBN'
p631
S'I-VP'
p632
g5
tp633
a(g92
g92
g92
g5
g5
tp634
a(S'MAIN'
p635
S'MAIN'
p636
S'NN'
p637
S'B-NP'
p638
g5
tp639
a(S'OUTCOME'
p640
S'OUTCOME'
p641
S'NN'
p642
S'I-NP'
p643
g5
tp644
a(S'MEASUREMENTS'
p645
S'MEASUREMENTS'
p646
S'NNS'
p647
S'I-NP'
p648
g5
tp649
a(S'Diagnostic'
p650
S'Diagnostic'
p651
S'JJ'
p652
S'B-NP'
p653
g5
tp654
a(S'accuracy'
p655
S'accuracy'
p656
S'NN'
p657
S'I-NP'
p658
g5
tp659
a(S'and'
p660
S'and'
p661
S'CC'
p662
S'I-NP'
p663
g5
tp664
a(S'tolerability'
p665
S'tolerability'
p666
S'NN'
p667
S'I-NP'
p668
g5
tp669
a(S'of'
p670
S'of'
p671
S'IN'
p672
S'B-PP'
p673
g5
tp674
a(S'TNE'
p675
S'TNE'
p676
S'NN'
p677
S'B-NP'
p678
S'B-protein'
p679
tp680
a(S'were'
p681
S'be'
p682
S'VBD'
p683
S'B-VP'
p684
g5
tp685
a(S'compared'
p686
S'compare'
p687
S'VBN'
p688
S'I-VP'
p689
g5
tp690
a(S'with'
p691
S'with'
p692
S'IN'
p693
S'B-PP'
p694
g5
tp695
a(S'those'
p696
S'those'
p697
S'DT'
p698
S'B-NP'
p699
g5
tp700
a(S'of'
p701
S'of'
p702
S'IN'
p703
S'B-PP'
p704
g5
tp705
a(S'SE'
p706
S'SE'
p707
S'NN'
p708
S'B-NP'
p709
S'B-protein'
p710
tp711
a(g92
g92
g92
g5
g5
tp712
a(S'RESULTS'
p713
S'RESULTS'
p714
S'NNS'
p715
S'B-NP'
p716
g5
tp717
a(S'Of'
p718
S'Of'
p719
S'IN'
p720
S'B-PP'
p721
g5
tp722
a(S'95'
p723
S'95'
p724
S'CD'
p725
S'B-NP'
p726
g5
tp727
a(S'patients'
p728
S'patient'
p729
S'NNS'
p730
S'I-NP'
p731
g5
tp732
a(S'randomized'
p733
S'randomize'
p734
S'VBD'
p735
S'B-VP'
p736
g5
tp737
a(g274
g274
g274
g5
g5
tp738
a(S'82'
p739
S'82'
p740
S'CD'
p741
S'B-NP'
p742
g5
tp743
a(S'completed'
p744
S'complete'
p745
S'VBD'
p746
S'B-VP'
p747
g5
tp748
a(S'the'
p749
S'the'
p750
S'DT'
p751
S'B-NP'
p752
g5
tp753
a(S'study.'
p754
S'study.'
p755
S'NN'
p756
S'I-NP'
p757
g5
tp758
a(S'We'
p759
S'We'
p760
S'PRP'
p761
S'B-NP'
p762
g5
tp763
a(S'correctly'
p764
S'correctly'
p765
S'RB'
p766
S'B-ADVP'
p767
g5
tp768
a(S'diagnosed'
p769
S'diagnose'
p770
S'VBD'
p771
S'B-VP'
p772
g5
tp773
a(S'48'
p774
S'48'
p775
S'CD'
p776
S'B-NP'
p777
g5
tp778
a(S'of'
p779
S'of'
p780
S'IN'
p781
S'B-PP'
p782
g5
tp783
a(S'49'
p784
S'49'
p785
S'CD'
p786
S'B-NP'
p787
g5
tp788
a(S'BE'
p789
S'BE'
p790
S'NN'
p791
S'I-NP'
p792
g5
tp793
a(S'cases'
p794
S'case'
p795
S'NNS'
p796
S'I-NP'
p797
g5
tp798
a(S'by'
p799
S'by'
p800
S'IN'
p801
S'B-PP'
p802
g5
tp803
a(S'TNE'
p804
S'TNE'
p805
S'NN'
p806
S'B-NP'
p807
S'B-protein'
p808
tp809
a(S'for'
p810
S'for'
p811
S'IN'
p812
S'B-PP'
p813
g5
tp814
a(S'endoscopic'
p815
S'endoscopic'
p816
S'JJ'
p817
S'B-NP'
p818
g5
tp819
a(S'findings'
p820
S'finding'
p821
S'NNS'
p822
S'I-NP'
p823
g5
tp824
a(S'of'
p825
S'of'
p826
S'IN'
p827
S'B-PP'
p828
g5
tp829
a(S'columnar'
p830
S'columnar'
p831
S'JJ'
p832
S'B-NP'
p833
g5
tp834
a(S'lined'
p835
S'line'
p836
S'VBN'
p837
S'I-NP'
p838
g5
tp839
a(S'esophagus'
p840
S'esophagus'
p841
S'NN'
p842
S'I-NP'
p843
g5
tp844
a(S'compared'
p845
S'compare'
p846
S'VBN'
p847
S'B-PP'
p848
g5
tp849
a(S'with'
p850
S'with'
p851
S'IN'
p852
S'B-PP'
p853
g5
tp854
a(S'the'
p855
S'the'
p856
S'DT'
p857
S'B-NP'
p858
g5
tp859
a(S'criterion'
p860
S'criterion'
p861
S'NN'
p862
S'I-NP'
p863
g5
tp864
a(S'standard'
p865
S'standard'
p866
S'NN'
p867
S'I-NP'
p868
g5
tp869
a(g274
g274
g274
g5
g5
tp870
a(S'SE'
p871
S'SE'
p872
S'NN'
p873
S'B-NP'
p874
S'B-protein'
p875
tp876
a(g274
g274
g274
g5
g5
tp877
a(S'giving'
p878
S'give'
p879
S'VBG'
p880
S'B-VP'
p881
g5
tp882
a(g562
g562
S'DT'
p883
S'B-NP'
p884
g5
tp885
a(S'sensitivity'
p886
S'sensitivity'
p887
S'NN'
p888
S'I-NP'
p889
g5
tp890
a(S'and'
p891
S'and'
p892
S'CC'
p893
S'I-NP'
p894
g5
tp895
a(S'specificity'
p896
S'specificity'
p897
S'NN'
p898
S'I-NP'
p899
g5
tp900
a(S'of'
p901
S'of'
p902
S'IN'
p903
S'B-PP'
p904
g5
tp905
a(S'0.98'
p906
S'0.98'
p907
S'CD'
p908
S'B-NP'
p909
g5
tp910
a(S'and'
p911
S'and'
p912
S'CC'
p913
S'I-NP'
p914
g5
tp915
a(S'1.00'
p916
S'1.00'
p917
S'CD'
p918
S'I-NP'
p919
g5
tp920
a(g274
g274
g274
g5
g5
tp921
a(S'respectively.'
p922
S'respectively.'
p923
S'VBZ'
p924
S'B-VP'
p925
g5
tp926
a(S'The'
p927
S'The'
p928
S'DT'
p929
S'B-NP'
p930
g5
tp931
a(S'BE'
p932
S'BE'
p933
S'NN'
p934
S'I-NP'
p935
g5
tp936
a(S'median'
p937
S'median'
p938
S'JJ'
p939
S'I-NP'
p940
g5
tp941
a(S'length'
p942
S'length'
p943
S'NN'
p944
S'I-NP'
p945
g5
tp946
a(S'was'
p947
S'be'
p948
S'VBD'
p949
S'B-VP'
p950
g5
tp951
a(S'3'
p952
g952
S'CD'
p953
S'B-NP'
p954
g5
tp955
a(S'cm'
p956
S'cm'
p957
S'NN'
p958
S'I-NP'
p959
g5
tp960
a(g114
g114
g114
g5
g5
tp961
a(S'interquartile'
p962
S'interquartile'
p963
S'JJ'
p964
S'B-NP'
p965
g5
tp966
a(S'range'
p967
S'range'
p968
S'NN'
p969
S'I-NP'
p970
g5
tp971
a(S'['
p972
g972
g114
g5
g5
tp973
a(S'IQR'
p974
S'IQR'
p975
S'NN'
p976
S'B-NP'
p977
S'B-protein'
p978
tp979
a(S']'
p980
g980
g121
g5
g5
tp981
a(S'1-5'
p982
S'1-5'
p983
S'CD'
p984
S'B-NP'
p985
g5
tp986
a(S'cm'
p987
S'cm'
p988
S'NN'
p989
S'I-NP'
p990
g5
tp991
a(g121
g121
g121
g5
g5
tp992
a(S'with'
p993
S'with'
p994
S'IN'
p995
S'B-PP'
p996
g5
tp997
a(S'SE'
p998
S'SE'
p999
S'NN'
p1000
S'B-NP'
p1001
g5
tp1002
a(S'and'
p1003
S'and'
p1004
S'CC'
p1005
g5
g5
tp1006
a(g952
g952
S'CD'
p1007
S'B-NP'
p1008
g5
tp1009
a(S'cm'
p1010
S'cm'
p1011
S'NN'
p1012
S'I-NP'
p1013
g5
tp1014
a(g114
g114
g114
g5
g5
tp1015
a(S'IQR'
p1016
S'IQR'
p1017
S'NN'
p1018
S'B-NP'
p1019
g5
tp1020
a(S'2-4'
p1021
S'2-4'
p1022
S'CD'
p1023
S'I-NP'
p1024
g5
tp1025
a(S'cm'
p1026
S'cm'
p1027
S'NN'
p1028
S'I-NP'
p1029
g5
tp1030
a(g121
g121
g121
g5
g5
tp1031
a(S'with'
p1032
S'with'
p1033
S'IN'
p1034
S'B-PP'
p1035
g5
tp1036
a(S'TNE'
p1037
S'TNE'
p1038
S'NN'
p1039
S'B-NP'
p1040
S'B-protein'
p1041
tp1042
a(g274
g274
g274
g5
g5
tp1043
a(S'giving'
p1044
S'give'
p1045
S'VBG'
p1046
S'B-VP'
p1047
g5
tp1048
a(S'high'
p1049
S'high'
p1050
S'JJ'
p1051
S'B-NP'
p1052
g5
tp1053
a(S'correlations'
p1054
S'correlation'
p1055
S'NNS'
p1056
S'I-NP'
p1057
g5
tp1058
a(S'between'
p1059
S'between'
p1060
S'IN'
p1061
S'B-PP'
p1062
g5
tp1063
a(S'the'
p1064
S'the'
p1065
S'DT'
p1066
S'B-NP'
p1067
g5
tp1068
a(S'two'
p1069
S'two'
p1070
S'CD'
p1071
S'I-NP'
p1072
g5
tp1073
a(S'modalities'
p1074
S'modality'
p1075
S'NNS'
p1076
S'I-NP'
p1077
g5
tp1078
a(g114
g114
g114
g5
g5
tp1079
a(S'R'
p1080
g1080
S'NN'
p1081
S'B-NP'
p1082
g5
tp1083
a(g114
g114
g114
g5
g5
tp1084
a(S'2'
p1085
g1085
S'CD'
p1086
S'B-NP'
p1087
g5
tp1088
a(g121
g121
g121
g5
g5
tp1089
a(S'='
p1090
g1090
S'SYM'
p1091
S'B-VP'
p1092
g5
tp1093
a(S'0.97'
p1094
S'0.97'
p1095
S'CD'
p1096
S'B-NP'
p1097
g5
tp1098
a(S';'
p1099
g1099
S':'
p1100
g5
g5
tp1101
a(S'P'
p1102
g1102
S'NN'
p1103
S'B-NP'
p1104
g5
tp1105
a(S'<'
p1106
g1106
S'JJR'
p1107
S'B-NP'
p1108
g5
tp1109
a(S'.001'
p1110
S'.001'
p1111
S'CD'
p1112
S'I-NP'
p1113
g5
tp1114
a(g121
g121
g121
g5
g5
tp1115
a(g92
g92
g92
g5
g5
tp1116
a(S'The'
p1117
S'The'
p1118
S'DT'
p1119
S'B-NP'
p1120
g5
tp1121
a(S'sensitivity'
p1122
S'sensitivity'
p1123
S'NN'
p1124
S'I-NP'
p1125
g5
tp1126
a(S'and'
p1127
S'and'
p1128
S'CC'
p1129
S'I-NP'
p1130
g5
tp1131
a(S'specificity'
p1132
S'specificity'
p1133
S'NN'
p1134
S'I-NP'
p1135
g5
tp1136
a(S'for'
p1137
S'for'
p1138
S'IN'
p1139
S'B-PP'
p1140
g5
tp1141
a(S'detecting'
p1142
S'detect'
p1143
S'VBG'
p1144
S'B-VP'
p1145
g5
tp1146
a(S'intestinal'
p1147
S'intestinal'
p1148
S'JJ'
p1149
S'B-NP'
p1150
g5
tp1151
a(S'metaplasia'
p1152
S'metaplasia'
p1153
S'NN'
p1154
S'I-NP'
p1155
g5
tp1156
a(S'by'
p1157
S'by'
p1158
S'IN'
p1159
S'B-PP'
p1160
g5
tp1161
a(S'TNE'
p1162
S'TNE'
p1163
S'NN'
p1164
S'B-NP'
p1165
S'B-protein'
p1166
tp1167
a(S'compared'
p1168
S'compare'
p1169
S'VBN'
p1170
S'B-PP'
p1171
g5
tp1172
a(S'with'
p1173
S'with'
p1174
S'IN'
p1175
S'B-PP'
p1176
g5
tp1177
a(S'those'
p1178
S'those'
p1179
S'DT'
p1180
S'B-NP'
p1181
g5
tp1182
a(S'by'
p1183
S'by'
p1184
S'IN'
p1185
S'B-PP'
p1186
g5
tp1187
a(S'SE'
p1188
S'SE'
p1189
S'NN'
p1190
S'B-NP'
p1191
S'B-protein'
p1192
tp1193
a(S'was'
p1194
S'be'
p1195
S'VBD'
p1196
S'B-VP'
p1197
g5
tp1198
a(S'0.91'
p1199
S'0.91'
p1200
S'CD'
p1201
S'B-NP'
p1202
g5
tp1203
a(S'and'
p1204
S'and'
p1205
S'CC'
p1206
S'I-NP'
p1207
g5
tp1208
a(S'1.00'
p1209
S'1.00'
p1210
S'CD'
p1211
S'I-NP'
p1212
g5
tp1213
a(g274
g274
g274
g5
g5
tp1214
a(S'respectively.'
p1215
S'respectively.'
p1216
S'VBP'
p1217
S'B-VP'
p1218
g5
tp1219
a(S'The'
p1220
S'The'
p1221
S'DT'
p1222
S'B-NP'
p1223
g5
tp1224
a(S'mean'
p1225
S'mean'
p1226
S'JJ'
p1227
S'I-NP'
p1228
g5
tp1229
a(g114
g114
g114
g5
g5
tp1230
a(S'\xc2\xb1'
p1231
S'\xc2\xb1'
p1232
S'JJ'
p1233
S'B-NP'
p1234
g5
tp1235
a(S'standard'
p1236
S'standard'
p1237
S'JJ'
p1238
S'I-NP'
p1239
g5
tp1240
a(S'deviation'
p1241
S'deviation'
p1242
S'NN'
p1243
S'I-NP'
p1244
g5
tp1245
a(g121
g121
g121
S'I-NP'
p1246
g5
tp1247
a(S'post-endoscopy'
p1248
S'post-endoscopy'
p1249
S'JJ'
p1250
S'I-NP'
p1251
g5
tp1252
a(S'Spielberger'
p1253
S'Spielberger'
p1254
S'NN'
p1255
S'I-NP'
p1256
g5
tp1257
a(S'State-Trait'
p1258
S'State-Trait'
p1259
S'JJ'
p1260
S'I-NP'
p1261
g5
tp1262
a(S'Anxiety'
p1263
S'Anxiety'
p1264
S'NN'
p1265
S'I-NP'
p1266
g5
tp1267
a(S'Inventory'
p1268
S'Inventory'
p1269
S'NN'
p1270
S'I-NP'
p1271
g5
tp1272
a(S'short-form'
p1273
S'short-form'
p1274
S'JJ'
p1275
S'I-NP'
p1276
g5
tp1277
a(S'score'
p1278
S'score'
p1279
S'NN'
p1280
S'I-NP'
p1281
g5
tp1282
a(S'for'
p1283
S'for'
p1284
S'IN'
p1285
S'B-PP'
p1286
g5
tp1287
a(S'TNE'
p1288
S'TNE'
p1289
S'NN'
p1290
S'B-NP'
p1291
g5
tp1292
a(g114
g114
g114
g5
g5
tp1293
a(S'30.0'
p1294
S'30.0'
p1295
S'CD'
p1296
S'B-NP'
p1297
g5
tp1298
a(S'\xc2\xb1'
p1299
S'\xc2\xb1'
p1300
S'CC'
p1301
S'I-NP'
p1302
g5
tp1303
a(S'1.10'
p1304
S'1.10'
p1305
S'CD'
p1306
S'I-NP'
p1307
g5
tp1308
a(S'standard'
p1309
S'standard'
p1310
S'JJ'
p1311
S'I-NP'
p1312
g5
tp1313
a(S'error'
p1314
S'error'
p1315
S'NN'
p1316
S'I-NP'
p1317
g5
tp1318
a(S'of'
p1319
S'of'
p1320
S'IN'
p1321
S'B-PP'
p1322
g5
tp1323
a(S'the'
p1324
S'the'
p1325
S'DT'
p1326
S'B-NP'
p1327
g5
tp1328
a(S'mean'
p1329
S'mean'
p1330
S'NN'
p1331
S'I-NP'
p1332
g5
tp1333
a(g972
g972
g114
g5
g5
tp1334
a(S'SEM'
p1335
S'SEM'
p1336
S'NN'
p1337
S'B-NP'
p1338
g5
tp1339
a(g980
g980
g121
g5
g5
tp1340
a(g121
g121
g121
g5
g5
tp1341
a(S'was'
p1342
S'be'
p1343
S'VBD'
p1344
S'B-VP'
p1345
g5
tp1346
a(S'lower'
p1347
S'low'
p1348
S'JJR'
p1349
S'B-ADJP'
p1350
g5
tp1351
a(S'than'
p1352
S'than'
p1353
S'IN'
p1354
S'B-PP'
p1355
g5
tp1356
a(S'that'
p1357
S'that'
p1358
S'DT'
p1359
S'B-NP'
p1360
g5
tp1361
a(S'for'
p1362
S'for'
p1363
S'IN'
p1364
S'B-PP'
p1365
g5
tp1366
a(S'SE'
p1367
S'SE'
p1368
S'NN'
p1369
S'B-NP'
p1370
S'B-protein'
p1371
tp1372
a(g114
g114
g114
g5
g5
tp1373
a(S'30.7'
p1374
S'30.7'
p1375
S'CD'
p1376
S'B-NP'
p1377
g5
tp1378
a(S'\xc2\xb1'
p1379
S'\xc2\xb1'
p1380
S'SYM'
p1381
g5
g5
tp1382
a(S'1.29'
p1383
S'1.29'
p1384
S'CD'
p1385
S'B-NP'
p1386
g5
tp1387
a(S'SEM'
p1388
S'SEM'
p1389
S'NN'
p1390
S'I-NP'
p1391
g5
tp1392
a(g121
g121
g121
g5
g5
tp1393
a(g274
g274
g274
g5
g5
tp1394
a(g114
g114
g114
g5
g5
tp1395
a(g1102
g1102
S'NN'
p1396
S'B-NP'
p1397
g5
tp1398
a(g1090
g1090
S'SYM'
p1399
S'B-VP'
p1400
g5
tp1401
a(S'.054'
p1402
S'.054'
p1403
S'CD'
p1404
S'B-NP'
p1405
g5
tp1406
a(g121
g121
g121
g5
g5
tp1407
a(g92
g92
g92
g5
g5
tp1408
a(S'The'
p1409
S'The'
p1410
S'DT'
p1411
S'B-NP'
p1412
g5
tp1413
a(S'visual'
p1414
S'visual'
p1415
S'JJ'
p1416
S'I-NP'
p1417
g5
tp1418
a(S'analogue'
p1419
S'analogue'
p1420
S'NN'
p1421
S'I-NP'
p1422
g5
tp1423
a(S'scale'
p1424
S'scale'
p1425
S'NN'
p1426
S'I-NP'
p1427
g5
tp1428
a(S'scores'
p1429
S'score'
p1430
S'NNS'
p1431
S'I-NP'
p1432
g5
tp1433
a(S'were'
p1434
S'be'
p1435
S'VBD'
p1436
S'B-VP'
p1437
g5
tp1438
a(S'no'
p1439
S'no'
p1440
S'RB'
p1441
S'B-ADJP'
p1442
g5
tp1443
a(S'different'
p1444
S'different'
p1445
S'JJ'
p1446
S'I-ADJP'
p1447
g5
tp1448
a(g114
g114
g114
g5
g5
tp1449
a(g1102
g1102
S'NN'
p1450
S'B-NP'
p1451
g5
tp1452
a(g1090
g1090
S'SYM'
p1453
S'B-VP'
p1454
g5
tp1455
a(S'.07'
p1456
S'.07'
p1457
S'CD'
p1458
S'B-NP'
p1459
g5
tp1460
a(g121
g121
g121
g5
g5
tp1461
a(g92
g92
g92
g5
g5
tp1462
a(S'The'
p1463
S'The'
p1464
S'DT'
p1465
S'B-NP'
p1466
g5
tp1467
a(S'majority'
p1468
S'majority'
p1469
S'NN'
p1470
S'I-NP'
p1471
g5
tp1472
a(S'of'
p1473
S'of'
p1474
S'IN'
p1475
S'B-PP'
p1476
g5
tp1477
a(S'patients'
p1478
S'patient'
p1479
S'NNS'
p1480
S'B-NP'
p1481
g5
tp1482
a(g114
g114
g114
g5
g5
tp1483
a(S'59'
p1484
S'59'
p1485
S'CD'
p1486
S'B-NP'
p1487
g5
tp1488
a(S'%'
p1489
g1489
S'NN'
p1490
S'I-NP'
p1491
g5
tp1492
a(g121
g121
g121
g5
g5
tp1493
a(S'expressed'
p1494
S'express'
p1495
S'VBD'
p1496
S'B-VP'
p1497
g5
tp1498
a(g562
g562
S'DT'
p1499
S'B-NP'
p1500
g5
tp1501
a(S'preference'
p1502
S'preference'
p1503
S'NN'
p1504
S'I-NP'
p1505
g5
tp1506
a(S'for'
p1507
S'for'
p1508
S'IN'
p1509
S'B-PP'
p1510
g5
tp1511
a(S'TNE'
p1512
S'TNE'
p1513
S'NN'
p1514
S'B-NP'
p1515
S'B-protein'
p1516
tp1517
a(g92
g92
g92
g5
g5
tp1518
a(S'LIMITATIONS'
p1519
S'LIMITATIONS'
p1520
S'NNS'
p1521
S'B-NP'
p1522
g5
tp1523
a(S'This'
p1524
S'This'
p1525
S'DT'
p1526
S'B-NP'
p1527
g5
tp1528
a(S'is'
p1529
S'be'
p1530
S'VBZ'
p1531
S'B-VP'
p1532
g5
tp1533
a(g562
g562
S'DT'
p1534
S'B-NP'
p1535
g5
tp1536
a(S'small'
p1537
S'small'
p1538
S'JJ'
p1539
S'I-NP'
p1540
g5
tp1541
a(S'study'
p1542
S'study'
p1543
S'NN'
p1544
S'I-NP'
p1545
g5
tp1546
a(g274
g274
g274
g5
g5
tp1547
a(S'with'
p1548
S'with'
p1549
S'IN'
p1550
S'B-PP'
p1551
g5
tp1552
a(S'limited'
p1553
S'limited'
p1554
S'JJ'
p1555
S'B-NP'
p1556
g5
tp1557
a(S'generalizability'
p1558
S'generalizability'
p1559
S'NN'
p1560
S'I-NP'
p1561
g5
tp1562
a(g274
g274
g274
g5
g5
tp1563
a(g562
g562
S'DT'
p1564
S'B-NP'
p1565
g5
tp1566
a(S'high'
p1567
S'high'
p1568
S'JJ'
p1569
S'I-NP'
p1570
g5
tp1571
a(S'prevalence'
p1572
S'prevalence'
p1573
S'NN'
p1574
S'I-NP'
p1575
g5
tp1576
a(S'of'
p1577
S'of'
p1578
S'IN'
p1579
S'B-PP'
p1580
g5
tp1581
a(S'patients'
p1582
S'patient'
p1583
S'NNS'
p1584
S'B-NP'
p1585
g5
tp1586
a(S'with'
p1587
S'with'
p1588
S'IN'
p1589
S'B-PP'
p1590
g5
tp1591
a(S'BE'
p1592
S'BE'
p1593
S'NN'
p1594
S'B-NP'
p1595
g5
tp1596
a(g274
g274
g274
g5
g5
tp1597
a(S'differential'
p1598
S'differential'
p1599
S'JJ'
p1600
S'B-NP'
p1601
g5
tp1602
a(S'drop-out'
p1603
S'drop-out'
p1604
S'NN'
p1605
S'I-NP'
p1606
g5
tp1607
a(S'between'
p1608
S'between'
p1609
S'IN'
p1610
S'B-PP'
p1611
g5
tp1612
a(S'the'
p1613
S'the'
p1614
S'DT'
p1615
S'B-NP'
p1616
g5
tp1617
a(S'two'
p1618
S'two'
p1619
S'CD'
p1620
S'I-NP'
p1621
g5
tp1622
a(S'procedures'
p1623
S'procedure'
p1624
S'NNS'
p1625
S'I-NP'
p1626
g5
tp1627
a(g274
g274
g274
g5
g5
tp1628
a(S'and'
p1629
S'and'
p1630
S'CC'
p1631
g5
g5
tp1632
a(S'use'
p1633
S'use'
p1634
S'NN'
p1635
S'B-NP'
p1636
g5
tp1637
a(S'of'
p1638
S'of'
p1639
S'IN'
p1640
S'B-PP'
p1641
g5
tp1642
a(S'sedation'
p1643
S'sedation'
p1644
S'NN'
p1645
S'B-NP'
p1646
g5
tp1647
a(g92
g92
g92
g5
g5
tp1648
a(S'CONCLUSION'
p1649
S'CONCLUSION'
p1650
S'NN'
p1651
S'B-NP'
p1652
g5
tp1653
a(S'TNE'
p1654
S'TNE'
p1655
S'NN'
p1656
S'I-NP'
p1657
g5
tp1658
a(S'is'
p1659
S'be'
p1660
S'VBZ'
p1661
S'B-VP'
p1662
g5
tp1663
a(S'an'
p1664
S'an'
p1665
S'DT'
p1666
S'B-NP'
p1667
g5
tp1668
a(S'accurate'
p1669
S'accurate'
p1670
S'JJ'
p1671
S'I-NP'
p1672
g5
tp1673
a(S'and'
p1674
S'and'
p1675
S'CC'
p1676
S'I-NP'
p1677
g5
tp1678
a(S'well-tolerated'
p1679
S'well-tolerated'
p1680
S'JJ'
p1681
S'I-NP'
p1682
g5
tp1683
a(S'method'
p1684
S'method'
p1685
S'NN'
p1686
S'I-NP'
p1687
g5
tp1688
a(S'for'
p1689
S'for'
p1690
S'IN'
p1691
S'B-PP'
p1692
g5
tp1693
a(S'diagnosing'
p1694
S'diagnose'
p1695
S'VBG'
p1696
S'B-VP'
p1697
g5
tp1698
a(S'BE'
p1699
S'BE'
p1700
S'NN'
p1701
S'B-NP'
p1702
g5
tp1703
a(S'compared'
p1704
S'compare'
p1705
S'VBN'
p1706
S'B-PP'
p1707
g5
tp1708
a(S'with'
p1709
S'with'
p1710
S'IN'
p1711
S'B-PP'
p1712
g5
tp1713
a(S'SE.'
p1714
S'SE.'
p1715
S'NNP'
p1716
S'B-NP'
p1717
g5
tp1718
a(S'TNE'
p1719
S'TNE'
p1720
S'NN'
p1721
S'I-NP'
p1722
g5
tp1723
a(S'warrants'
p1724
S'warrant'
p1725
S'VBZ'
p1726
S'B-VP'
p1727
g5
tp1728
a(S'further'
p1729
S'far'
p1730
S'JJR'
p1731
S'B-NP'
p1732
g5
tp1733
a(S'evaluation'
p1734
S'evaluation'
p1735
S'NN'
p1736
S'I-NP'
p1737
g5
tp1738
a(S'as'
p1739
S'as'
p1740
S'IN'
p1741
S'B-PP'
p1742
g5
tp1743
a(g562
g562
S'DT'
p1744
S'B-NP'
p1745
g5
tp1746
a(S'screening'
p1747
S'screening'
p1748
S'NN'
p1749
S'I-NP'
p1750
g5
tp1751
a(S'tool'
p1752
S'tool'
p1753
S'NN'
p1754
S'I-NP'
p1755
g5
tp1756
a(S'for'
p1757
S'for'
p1758
S'IN'
p1759
S'B-PP'
p1760
g5
tp1761
a(S'BE'
p1762
S'BE'
p1763
S'NN'
p1764
S'B-NP'
p1765
g5
tp1766
a(g92
g92
g92
g5
g5
tp1767
a.