(lp0
(S'Scintigraphic'
p1
S'Scintigraphic'
p2
S'JJ'
p3
S'B-NP'
p4
S'O'
p5
tp6
a(S'evaluation'
p7
S'evaluation'
p8
S'NN'
p9
S'I-NP'
p10
g5
tp11
a(S'of'
p12
S'of'
p13
S'IN'
p14
S'B-PP'
p15
g5
tp16
a(S'a'
p17
g17
S'DT'
p18
S'B-NP'
p19
g5
tp20
a(S'new'
p21
S'new'
p22
S'JJ'
p23
S'I-NP'
p24
g5
tp25
a(S'capsule-type'
p26
S'capsule-type'
p27
S'JJ'
p28
S'I-NP'
p29
g5
tp30
a(S'colon'
p31
S'colon'
p32
S'NN'
p33
S'I-NP'
p34
g5
tp35
a(S'specific'
p36
S'specific'
p37
S'JJ'
p38
S'I-NP'
p39
g5
tp40
a(S'drug'
p41
S'drug'
p42
S'NN'
p43
S'I-NP'
p44
g5
tp45
a(S'delivery'
p46
S'delivery'
p47
S'NN'
p48
S'I-NP'
p49
g5
tp50
a(S'system'
p51
S'system'
p52
S'NN'
p53
S'I-NP'
p54
g5
tp55
a(S'in'
p56
S'in'
p57
S'IN'
p58
S'B-PP'
p59
g5
tp60
a(S'healthy'
p61
S'healthy'
p62
S'JJ'
p63
S'B-NP'
p64
g5
tp65
a(S'volunteers'
p66
S'volunteer'
p67
S'NNS'
p68
S'I-NP'
p69
g5
tp70
a(S'.'
p71
g71
g71
g5
g5
tp72
a(S'Colonic'
p73
S'Colonic'
p74
S'JJ'
p75
S'B-NP'
p76
g5
tp77
a(S'drug'
p78
S'drug'
p79
S'NN'
p80
S'I-NP'
p81
g5
tp82
a(S'delivery'
p83
S'delivery'
p84
S'NN'
p85
S'I-NP'
p86
g5
tp87
a(S'is'
p88
S'be'
p89
S'VBZ'
p90
S'B-VP'
p91
g5
tp92
a(S'intended'
p93
S'intend'
p94
S'VBN'
p95
S'I-VP'
p96
g5
tp97
a(S'for'
p98
S'for'
p99
S'IN'
p100
S'B-PP'
p101
g5
tp102
a(S'local'
p103
S'local'
p104
S'JJ'
p105
S'B-NP'
p106
g5
tp107
a(S'or'
p108
S'or'
p109
S'CC'
p110
S'I-NP'
p111
g5
tp112
a(S'systemic'
p113
S'systemic'
p114
S'JJ'
p115
S'I-NP'
p116
g5
tp117
a(S'therapies.'
p118
S'therapies.'
p119
S'RB'
p120
S'B-ADVP'
p121
g5
tp122
a(S'The'
p123
S'The'
p124
S'DT'
p125
S'B-NP'
p126
g5
tp127
a(S'lack'
p128
S'lack'
p129
S'NN'
p130
S'I-NP'
p131
g5
tp132
a(S'of'
p133
S'of'
p134
S'IN'
p135
S'B-PP'
p136
g5
tp137
a(S'predictive'
p138
S'predictive'
p139
S'JJ'
p140
S'B-NP'
p141
g5
tp142
a(S'in'
p143
S'in'
p144
S'FW'
p145
S'I-NP'
p146
g5
tp147
a(S'vitro'
p148
S'vitro'
p149
S'FW'
p150
S'I-NP'
p151
g5
tp152
a(S'or'
p153
S'or'
p154
S'CC'
p155
g5
g5
tp156
a(S'animal'
p157
S'animal'
p158
S'NN'
p159
S'B-NP'
p160
g5
tp161
a(S'model'
p162
S'model'
p163
S'NN'
p164
S'I-NP'
p165
g5
tp166
a(S'leads'
p167
S'lead'
p168
S'VBZ'
p169
S'B-VP'
p170
g5
tp171
a(S'to'
p172
S'to'
p173
S'TO'
p174
S'B-PP'
p175
g5
tp176
a(S'considerable'
p177
S'considerable'
p178
S'JJ'
p179
S'B-NP'
p180
g5
tp181
a(S'time'
p182
S'time'
p183
S'NN'
p184
S'I-NP'
p185
g5
tp186
a(S'delays'
p187
S'delay'
p188
S'NNS'
p189
S'I-NP'
p190
g5
tp191
a(S'in'
p192
S'in'
p193
S'IN'
p194
S'B-PP'
p195
g5
tp196
a(S'colonic'
p197
S'colonic'
p198
S'JJ'
p199
S'B-NP'
p200
g5
tp201
a(S'product'
p202
S'product'
p203
S'NN'
p204
S'I-NP'
p205
g5
tp206
a(S'development.'
p207
S'development.'
p208
S'NN'
p209
S'I-NP'
p210
g5
tp211
a(S'The'
p212
S'The'
p213
S'DT'
p214
S'B-NP'
p215
g5
tp216
a(S'objective'
p217
S'objective'
p218
S'NN'
p219
S'I-NP'
p220
g5
tp221
a(S'of'
p222
S'of'
p223
S'IN'
p224
S'B-PP'
p225
g5
tp226
a(S'this'
p227
S'this'
p228
S'DT'
p229
S'B-NP'
p230
g5
tp231
a(S'scintigraphic'
p232
S'scintigraphic'
p233
S'JJ'
p234
S'I-NP'
p235
g5
tp236
a(S'study'
p237
S'study'
p238
S'NN'
p239
S'I-NP'
p240
g5
tp241
a(S'was'
p242
S'be'
p243
S'VBD'
p244
S'B-VP'
p245
g5
tp246
a(S'to'
p247
S'to'
p248
S'TO'
p249
S'B-VP'
p250
g5
tp251
a(S'provide'
p252
S'provide'
p253
S'VB'
p254
S'I-VP'
p255
g5
tp256
a(S'``'
p257
S'``'
p258
S'``'
p259
g5
g5
tp260
a(S'proof'
p261
S'proof'
p262
S'NN'
p263
S'B-NP'
p264
g5
tp265
a(S'of'
p266
S'of'
p267
S'IN'
p268
S'B-PP'
p269
g5
tp270
a(S'concept'
p271
S'concept'
p272
S'NN'
p273
S'B-NP'
p274
g5
tp275
a(S"''"
p276
S"''"
p277
S"''"
p278
g5
g5
tp279
a(S'for'
p280
S'for'
p281
S'IN'
p282
S'B-PP'
p283
g5
tp284
a(g17
g17
S'DT'
p285
S'B-NP'
p286
g5
tp287
a(S'novel'
p288
S'novel'
p289
S'JJ'
p290
S'I-NP'
p291
g5
tp292
a(S'capsule-type'
p293
S'capsule-type'
p294
S'JJ'
p295
S'I-NP'
p296
g5
tp297
a(S'colonic'
p298
S'colonic'
p299
S'JJ'
p300
S'I-NP'
p301
g5
tp302
a(S'delivery'
p303
S'delivery'
p304
S'NN'
p305
S'I-NP'
p306
g5
tp307
a(S'system'
p308
S'system'
p309
S'NN'
p310
S'I-NP'
p311
g5
tp312
a(S'('
p313
g313
g313
g5
g5
tp314
a(S'Colon-Targeted'
p315
S'Colon-Targeted'
p316
S'JJ'
p317
S'B-NP'
p318
g5
tp319
a(S'Delivery'
p320
S'Delivery'
p321
S'NN'
p322
S'I-NP'
p323
g5
tp324
a(S'Capsule'
p325
S'Capsule'
p326
S'NN'
p327
S'I-NP'
p328
g5
tp329
a(S')'
p330
g330
g330
g5
g5
tp331
a(S'in'
p332
S'in'
p333
S'IN'
p334
S'B-PP'
p335
g5
tp336
a(S'healthy'
p337
S'healthy'
p338
S'JJ'
p339
S'B-NP'
p340
g5
tp341
a(S'volunteers.'
p342
S'volunteers.'
p343
S'NN'
p344
S'I-NP'
p345
g5
tp346
a(S'The'
p347
S'The'
p348
S'DT'
p349
S'B-NP'
p350
g5
tp351
a(S'human'
p352
S'human'
p353
S'JJ'
p354
S'I-NP'
p355
g5
tp356
a(S'data'
p357
S'datum'
p358
S'NNS'
p359
S'I-NP'
p360
g5
tp361
a(S'validates'
p362
S'validate'
p363
S'VBZ'
p364
S'B-VP'
p365
g5
tp366
a(S'the'
p367
S'the'
p368
S'DT'
p369
S'B-NP'
p370
g5
tp371
a(S'design'
p372
S'design'
p373
S'NN'
p374
S'I-NP'
p375
g5
tp376
a(S'concept'
p377
S'concept'
p378
S'NN'
p379
S'I-NP'
p380
g5
tp381
a(S'behind'
p382
S'behind'
p383
S'IN'
p384
S'B-PP'
p385
g5
tp386
a(S'the'
p387
S'the'
p388
S'DT'
p389
S'B-NP'
p390
g5
tp391
a(S'release'
p392
S'release'
p393
S'NN'
p394
S'I-NP'
p395
g5
tp396
a(S'mechanism'
p397
S'mechanism'
p398
S'NN'
p399
S'I-NP'
p400
g5
tp401
a(S','
p402
g402
g402
g5
g5
tp403
a(S'in'
p404
S'in'
p405
S'IN'
p406
S'B-PP'
p407
g5
tp408
a(S'that'
p409
S'that'
p410
S'IN'
p411
S'B-NP'
p412
g5
tp413
a(S'capsule'
p414
S'capsule'
p415
S'NN'
p416
S'B-NP'
p417
g5
tp418
a(S'disintegration'
p419
S'disintegration'
p420
S'NN'
p421
S'I-NP'
p422
g5
tp423
a(g402
g402
g402
g5
g5
tp424
a(S'and'
p425
S'and'
p426
S'CC'
p427
g5
g5
tp428
a(S'hence'
p429
S'hence'
p430
S'RB'
p431
S'B-ADVP'
p432
g5
tp433
a(S'drug'
p434
S'drug'
p435
S'NN'
p436
S'B-NP'
p437
g5
tp438
a(S'release'
p439
S'release'
p440
S'NN'
p441
S'I-NP'
p442
g5
tp443
a(g402
g402
g402
g5
g5
tp444
a(S'did'
p445
S'do'
p446
S'VBD'
p447
S'B-VP'
p448
g5
tp449
a(S'not'
p450
S'not'
p451
S'RB'
p452
S'I-VP'
p453
g5
tp454
a(S'start'
p455
S'start'
p456
S'VB'
p457
S'I-VP'
p458
g5
tp459
a(S'until'
p460
S'until'
p461
S'IN'
p462
S'B-NP'
p463
g5
tp464
a(S'5'
p465
g465
S'CD'
p466
S'I-NP'
p467
g5
tp468
a(S'h'
p469
g469
S'NN'
p470
S'I-NP'
p471
g5
tp472
a(S'after'
p473
S'after'
p474
S'IN'
p475
S'B-PP'
p476
g5
tp477
a(S'gastric'
p478
S'gastric'
p479
S'JJ'
p480
S'B-NP'
p481
g5
tp482
a(S'emptying'
p483
S'emptying'
p484
S'NN'
p485
S'I-NP'
p486
g5
tp487
a(g402
g402
g402
g5
g5
tp488
a(S'irrespective'
p489
S'irrespective'
p490
S'JJ'
p491
S'B-ADJP'
p492
g5
tp493
a(S'of'
p494
S'of'
p495
S'IN'
p496
S'B-PP'
p497
g5
tp498
a(S'whether'
p499
S'whether'
p500
S'IN'
p501
S'B-SBAR'
p502
g5
tp503
a(S'the'
p504
S'the'
p505
S'DT'
p506
S'B-NP'
p507
g5
tp508
a(S'product'
p509
S'product'
p510
S'NN'
p511
S'I-NP'
p512
g5
tp513
a(S'was'
p514
S'be'
p515
S'VBD'
p516
S'B-VP'
p517
g5
tp518
a(S'administered'
p519
S'administer'
p520
S'VBN'
p521
S'I-VP'
p522
g5
tp523
a(S'to'
p524
S'to'
p525
S'TO'
p526
S'B-VP'
p527
g5
tp528
a(S'fasted'
p529
S'fast'
p530
S'VBN'
p531
S'I-VP'
p532
g5
tp533
a(S'or'
p534
S'or'
p535
S'CC'
p536
S'I-VP'
p537
g5
tp538
a(S'fed'
p539
S'feed'
p540
S'VBN'
p541
S'I-VP'
p542
g5
tp543
a(S'subjects.'
p544
S'subjects.'
p545
S'NNS'
p546
S'B-NP'
p547
g5
tp548
a(S'However'
p549
S'However'
p550
S'RB'
p551
S'B-ADVP'
p552
g5
tp553
a(g402
g402
g402
g5
g5
tp554
a(S'the'
p555
S'the'
p556
S'DT'
p557
S'B-NP'
p558
g5
tp559
a(S'potential'
p560
S'potential'
p561
S'NN'
p562
S'I-NP'
p563
g5
tp564
a(S'for'
p565
S'for'
p566
S'IN'
p567
S'B-PP'
p568
g5
tp569
a(S'prolonged'
p570
S'prolonged'
p571
S'JJ'
p572
S'B-NP'
p573
g5
tp574
a(S'gastric'
p575
S'gastric'
p576
S'JJ'
p577
S'I-NP'
p578
g5
tp579
a(S'residence'
p580
S'residence'
p581
S'NN'
p582
S'I-NP'
p583
g5
tp584
a(S'for'
p585
S'for'
p586
S'IN'
p587
S'B-PP'
p588
g5
tp589
a(S'large'
p590
S'large'
p591
S'JJ'
p592
S'B-NP'
p593
g5
tp594
a(S'enteric'
p595
S'enteric'
p596
S'JJ'
p597
S'I-NP'
p598
g5
tp599
a(S'coated'
p600
S'coated'
p601
S'JJ'
p602
S'I-NP'
p603
g5
tp604
a(S'products'
p605
S'product'
p606
S'NNS'
p607
S'I-NP'
p608
g5
tp609
a(S'intended'
p610
S'intend'
p611
S'VBN'
p612
S'B-VP'
p613
g5
tp614
a(S'for'
p615
S'for'
p616
S'IN'
p617
S'B-PP'
p618
g5
tp619
a(S'intestinal'
p620
S'intestinal'
p621
S'JJ'
p622
S'B-NP'
p623
g5
tp624
a(S'targeting'
p625
S'targeting'
p626
S'NN'
p627
S'I-NP'
p628
g5
tp629
a(S'was'
p630
S'be'
p631
S'VBD'
p632
S'B-VP'
p633
g5
tp634
a(S'also'
p635
S'also'
p636
S'RB'
p637
S'I-VP'
p638
g5
tp639
a(S'observed'
p640
S'observe'
p641
S'VBN'
p642
S'I-VP'
p643
g5
tp644
a(S';'
p645
g645
S':'
p646
g5
g5
tp647
a(S'overall'
p648
S'overall'
p649
S'JJ'
p650
S'B-ADVP'
p651
g5
tp652
a(g402
g402
g402
g5
g5
tp653
a(S'the'
p654
S'the'
p655
S'DT'
p656
S'B-NP'
p657
g5
tp658
a(S'study'
p659
S'study'
p660
S'NN'
p661
S'I-NP'
p662
g5
tp663
a(S'provides'
p664
S'provide'
p665
S'VBZ'
p666
S'B-VP'
p667
g5
tp668
a(g17
g17
S'DT'
p669
S'B-NP'
p670
g5
tp671
a(S'focus'
p672
S'focus'
p673
S'NN'
p674
S'I-NP'
p675
g5
tp676
a(S'for'
p677
S'for'
p678
S'IN'
p679
S'B-PP'
p680
g5
tp681
a(S'subsequent'
p682
S'subsequent'
p683
S'JJ'
p684
S'B-NP'
p685
g5
tp686
a(S'product'
p687
S'product'
p688
S'NN'
p689
S'I-NP'
p690
g5
tp691
a(S'development'
p692
S'development'
p693
S'NN'
p694
S'I-NP'
p695
g5
tp696
a(S'and'
p697
S'and'
p698
S'CC'
p699
g5
g5
tp700
a(S'highlights'
p701
S'highlight'
p702
S'VBZ'
p703
S'B-VP'
p704
g5
tp705
a(S'the'
p706
S'the'
p707
S'DT'
p708
S'B-NP'
p709
g5
tp710
a(S'role'
p711
S'role'
p712
S'NN'
p713
S'I-NP'
p714
g5
tp715
a(S'of'
p716
S'of'
p717
S'IN'
p718
S'B-PP'
p719
g5
tp720
a(S'scintigraphy'
p721
S'scintigraphy'
p722
S'NN'
p723
S'B-NP'
p724
g5
tp725
a(S'in'
p726
S'in'
p727
S'IN'
p728
S'B-PP'
p729
g5
tp730
a(S'dynamically'
p731
S'dynamically'
p732
S'RB'
p733
S'B-ADVP'
p734
g5
tp735
a(S'visualizing'
p736
S'visualize'
p737
S'VBG'
p738
S'B-VP'
p739
g5
tp740
a(S'the'
p741
S'the'
p742
S'DT'
p743
S'B-NP'
p744
g5
tp745
a(S'drug'
p746
S'drug'
p747
S'NN'
p748
S'I-NP'
p749
g5
tp750
a(S'delivery'
p751
S'delivery'
p752
S'NN'
p753
S'I-NP'
p754
g5
tp755
a(S'process'
p756
S'process'
p757
S'NN'
p758
S'I-NP'
p759
g5
tp760
a(g71
g71
g71
g5
g5
tp761
a.