(lp0
(S'14'
p1
S'14'
p2
S'CD'
p3
S'B-NP'
p4
S'O'
p5
tp6
a(S'day'
p7
S'day'
p8
S'NN'
p9
S'I-NP'
p10
g5
tp11
a(S'endoscopy'
p12
S'endoscopy'
p13
S'NN'
p14
S'I-NP'
p15
g5
tp16
a(S'study'
p17
S'study'
p18
S'NN'
p19
S'I-NP'
p20
g5
tp21
a(S'comparing'
p22
S'compare'
p23
S'VBG'
p24
S'B-VP'
p25
g5
tp26
a(S'risedronate'
p27
S'risedronate'
p28
S'NN'
p29
S'B-NP'
p30
g5
tp31
a(S'and'
p32
S'and'
p33
S'CC'
p34
S'I-NP'
p35
g5
tp36
a(S'alendronate'
p37
S'alendronate'
p38
S'NN'
p39
S'I-NP'
p40
g5
tp41
a(S'in'
p42
S'in'
p43
S'IN'
p44
S'B-PP'
p45
g5
tp46
a(S'postmenopausal'
p47
S'postmenopausal'
p48
S'JJ'
p49
S'B-NP'
p50
g5
tp51
a(S'women'
p52
S'woman'
p53
S'NNS'
p54
S'I-NP'
p55
g5
tp56
a(S'stratified'
p57
S'stratify'
p58
S'VBN'
p59
S'B-VP'
p60
g5
tp61
a(S'by'
p62
S'by'
p63
S'IN'
p64
S'B-PP'
p65
g5
tp66
a(S'Helicobacter'
p67
S'Helicobacter'
p68
S'NN'
p69
S'B-NP'
p70
g5
tp71
a(S'pylori'
p72
S'pylori'
p73
S'NN'
p74
S'I-NP'
p75
g5
tp76
a(S'status'
p77
S'status'
p78
S'NN'
p79
S'I-NP'
p80
g5
tp81
a(S'.'
p82
g82
g82
g5
g5
tp83
a(S'OBJECTIVE'
p84
S'OBJECTIVE'
p85
S'NN'
p86
S'B-NP'
p87
g5
tp88
a(S'Bisphosphonates'
p89
S'Bisphosphonate'
p90
S'NNS'
p91
S'I-NP'
p92
g5
tp93
a(S'are'
p94
S'be'
p95
S'VBP'
p96
S'B-VP'
p97
g5
tp98
a(S'effective'
p99
S'effective'
p100
S'JJ'
p101
S'B-NP'
p102
g5
tp103
a(S'treatment'
p104
S'treatment'
p105
S'NN'
p106
S'I-NP'
p107
g5
tp108
a(S'for'
p109
S'for'
p110
S'IN'
p111
S'B-PP'
p112
g5
tp113
a(S'osteoporosis'
p114
S'osteoporosis'
p115
S'NN'
p116
S'B-NP'
p117
g5
tp118
a(S'but'
p119
S'but'
p120
S'CC'
p121
g5
g5
tp122
a(S'have'
p123
S'have'
p124
S'VBP'
p125
S'B-VP'
p126
g5
tp127
a(S'been'
p128
S'be'
p129
S'VBN'
p130
S'I-VP'
p131
g5
tp132
a(S'associated'
p133
S'associate'
p134
S'VBN'
p135
S'I-VP'
p136
g5
tp137
a(S'with'
p138
S'with'
p139
S'IN'
p140
S'B-PP'
p141
g5
tp142
a(S'gastrointestinal'
p143
S'gastrointestinal'
p144
S'JJ'
p145
S'B-NP'
p146
g5
tp147
a(S'('
p148
g148
g148
g5
g5
tp149
a(S'GI'
p150
S'GI'
p151
S'NN'
p152
S'B-NP'
p153
g5
tp154
a(S')'
p155
g155
g155
S'I-NP'
p156
g5
tp157
a(S'mucosal'
p158
S'mucosal'
p159
S'JJ'
p160
S'I-NP'
p161
g5
tp162
a(S'injury.'
p163
S'injury.'
p164
S'NN'
p165
S'I-NP'
p166
g5
tp167
a(S'This'
p168
S'This'
p169
S'DT'
p170
S'B-NP'
p171
g5
tp172
a(S'study'
p173
S'study'
p174
S'NN'
p175
S'I-NP'
p176
g5
tp177
a(S'compared'
p178
S'compare'
p179
S'VBD'
p180
S'B-VP'
p181
g5
tp182
a(S'the'
p183
S'the'
p184
S'DT'
p185
S'B-NP'
p186
g5
tp187
a(S'incidence'
p188
S'incidence'
p189
S'NN'
p190
S'I-NP'
p191
g5
tp192
a(S'of'
p193
S'of'
p194
S'IN'
p195
S'B-PP'
p196
g5
tp197
a(S'gastric'
p198
S'gastric'
p199
S'JJ'
p200
S'B-NP'
p201
g5
tp202
a(S'ulcers'
p203
S'ulcer'
p204
S'NNS'
p205
S'I-NP'
p206
g5
tp207
a(S'after'
p208
S'after'
p209
S'IN'
p210
S'B-PP'
p211
g5
tp212
a(S'treatment'
p213
S'treatment'
p214
S'NN'
p215
S'B-NP'
p216
g5
tp217
a(S'with'
p218
S'with'
p219
S'IN'
p220
S'B-PP'
p221
g5
tp222
a(S'risedronate'
p223
S'risedronate'
p224
S'NN'
p225
S'B-NP'
p226
g5
tp227
a(S','
p228
g228
g228
g5
g5
tp229
a(S'a'
p230
g230
S'DT'
p231
S'B-NP'
p232
g5
tp233
a(S'pyridinyl'
p234
S'pyridinyl'
p235
S'NN'
p236
S'I-NP'
p237
g5
tp238
a(S'bisphosphonate'
p239
S'bisphosphonate'
p240
S'NN'
p241
S'I-NP'
p242
g5
tp243
a(g228
g228
g228
g5
g5
tp244
a(S'or'
p245
S'or'
p246
S'CC'
p247
g5
g5
tp248
a(S'alendronate'
p249
S'alendronate'
p250
S'NN'
p251
S'B-NP'
p252
g5
tp253
a(g228
g228
g228
g5
g5
tp254
a(g230
g230
S'DT'
p255
S'B-NP'
p256
g5
tp257
a(S'primary'
p258
S'primary'
p259
S'JJ'
p260
S'I-NP'
p261
g5
tp262
a(S'amino'
p263
S'amino'
p264
S'JJ'
p265
S'I-NP'
p266
g5
tp267
a(S'bisphosphonate'
p268
S'bisphosphonate'
p269
S'NN'
p270
S'I-NP'
p271
g5
tp272
a(g228
g228
g228
g5
g5
tp273
a(S'in'
p274
S'in'
p275
S'IN'
p276
S'B-PP'
p277
g5
tp278
a(S'healthy'
p279
S'healthy'
p280
S'JJ'
p281
S'B-NP'
p282
g5
tp283
a(S'postmenopausal'
p284
S'postmenopausal'
p285
S'JJ'
p286
S'I-NP'
p287
g5
tp288
a(S'women'
p289
S'woman'
p290
S'NNS'
p291
S'I-NP'
p292
g5
tp293
a(S'stratified'
p294
S'stratify'
p295
S'VBN'
p296
S'B-VP'
p297
g5
tp298
a(S'by'
p299
S'by'
p300
S'IN'
p301
S'B-PP'
p302
g5
tp303
a(S'Helicobacter'
p304
S'Helicobacter'
p305
S'NN'
p306
S'B-NP'
p307
g5
tp308
a(S'pylori'
p309
S'pylori'
p310
S'NN'
p311
S'I-NP'
p312
g5
tp313
a(S'status'
p314
S'status'
p315
S'NN'
p316
S'I-NP'
p317
g5
tp318
a(g82
g82
g82
g5
g5
tp319
a(S'METHODS'
p320
S'METHODS'
p321
S'NNS'
p322
S'B-NP'
p323
g5
tp324
a(S'Subjects'
p325
S'Subject'
p326
S'NNS'
p327
S'I-NP'
p328
g5
tp329
a(S'were'
p330
S'be'
p331
S'VBD'
p332
S'B-VP'
p333
g5
tp334
a(S'randomized'
p335
S'randomize'
p336
S'VBN'
p337
S'I-VP'
p338
g5
tp339
a(S'to'
p340
S'to'
p341
S'TO'
p342
S'I-VP'
p343
g5
tp344
a(S'receive'
p345
S'receive'
p346
S'VB'
p347
S'I-VP'
p348
g5
tp349
a(S'risedronate'
p350
S'risedronate'
p351
S'NN'
p352
S'B-NP'
p353
g5
tp354
a(S'5'
p355
g355
S'CD'
p356
S'I-NP'
p357
g5
tp358
a(S'mg'
p359
S'mg'
p360
S'NN'
p361
S'I-NP'
p362
g5
tp363
a(g148
g148
g148
g5
g5
tp364
a(S'n'
p365
g365
S'NN'
p366
S'B-NP'
p367
g5
tp368
a(S'='
p369
g369
S'SYM'
p370
S'B-VP'
p371
g5
tp372
a(S'318'
p373
S'318'
p374
S'CD'
p375
S'B-NP'
p376
g5
tp377
a(g155
g155
g155
g5
g5
tp378
a(S'or'
p379
S'or'
p380
S'CC'
p381
g5
g5
tp382
a(S'alendronate'
p383
S'alendronate'
p384
S'NN'
p385
S'B-NP'
p386
g5
tp387
a(S'10'
p388
S'10'
p389
S'CD'
p390
S'I-NP'
p391
g5
tp392
a(S'mg'
p393
S'mg'
p394
S'NN'
p395
S'I-NP'
p396
g5
tp397
a(g148
g148
g148
g5
g5
tp398
a(g365
g365
S'NN'
p399
S'B-NP'
p400
g5
tp401
a(g369
g369
S'SYM'
p402
S'B-VP'
p403
g5
tp404
a(S'317'
p405
S'317'
p406
S'CD'
p407
S'B-NP'
p408
g5
tp409
a(g155
g155
g155
g5
g5
tp410
a(S'daily'
p411
S'daily'
p412
S'RB'
p413
S'B-ADVP'
p414
g5
tp415
a(S'for'
p416
S'for'
p417
S'IN'
p418
S'B-PP'
p419
g5
tp420
a(S'14'
p421
S'14'
p422
S'CD'
p423
S'B-NP'
p424
g5
tp425
a(S'days.'
p426
S'days.'
p427
S'NNS'
p428
S'I-NP'
p429
g5
tp430
a(S'Endoscopy'
p431
S'Endoscopy'
p432
S'NNP'
p433
S'I-NP'
p434
g5
tp435
a(S'and'
p436
S'and'
p437
S'CC'
p438
g5
g5
tp439
a(S'evaluator-blind'
p440
S'evaluator-blind'
p441
S'JJ'
p442
S'B-NP'
p443
g5
tp444
a(S'assessments'
p445
S'assessment'
p446
S'NNS'
p447
S'I-NP'
p448
g5
tp449
a(S'of'
p450
S'of'
p451
S'IN'
p452
S'B-PP'
p453
g5
tp454
a(S'the'
p455
S'the'
p456
S'DT'
p457
S'B-NP'
p458
g5
tp459
a(S'esophageal'
p460
S'esophageal'
p461
S'JJ'
p462
S'I-NP'
p463
g5
tp464
a(g228
g228
g228
S'I-NP'
p465
g5
tp466
a(S'gastric'
p467
S'gastric'
p468
S'JJ'
p469
S'I-NP'
p470
g5
tp471
a(g228
g228
g228
g5
g5
tp472
a(S'and'
p473
S'and'
p474
S'CC'
p475
g5
g5
tp476
a(S'duodenal'
p477
S'duodenal'
p478
S'JJ'
p479
S'B-NP'
p480
g5
tp481
a(S'mucosa'
p482
S'mucosa'
p483
S'NN'
p484
S'I-NP'
p485
g5
tp486
a(S'were'
p487
S'be'
p488
S'VBD'
p489
S'B-VP'
p490
g5
tp491
a(S'performed'
p492
S'perform'
p493
S'VBN'
p494
S'I-VP'
p495
g5
tp496
a(S'at'
p497
S'at'
p498
S'IN'
p499
S'B-PP'
p500
g5
tp501
a(S'baseline'
p502
S'baseline'
p503
S'NN'
p504
S'B-NP'
p505
g5
tp506
a(S'and'
p507
S'and'
p508
S'CC'
p509
S'B-PP'
p510
g5
tp511
a(S'on'
p512
S'on'
p513
S'IN'
p514
S'B-PP'
p515
g5
tp516
a(S'Days'
p517
S'Day'
p518
S'NNS'
p519
S'B-NP'
p520
g5
tp521
a(S'8'
p522
g522
S'CD'
p523
S'B-NP'
p524
g5
tp525
a(S'and'
p526
S'and'
p527
S'CC'
p528
S'I-NP'
p529
g5
tp530
a(S'15'
p531
S'15'
p532
S'CD'
p533
S'I-NP'
p534
g5
tp535
a(g82
g82
g82
g5
g5
tp536
a(S'RESULTS'
p537
S'RESULTS'
p538
S'NNS'
p539
S'B-NP'
p540
g5
tp541
a(S'Overall'
p542
S'Overall'
p543
S'JJ'
p544
S'B-ADVP'
p545
g5
tp546
a(g228
g228
g228
g5
g5
tp547
a(S'gastric'
p548
S'gastric'
p549
S'JJ'
p550
S'B-NP'
p551
g5
tp552
a(S'ulcers'
p553
S'ulcer'
p554
S'NNS'
p555
S'I-NP'
p556
g5
tp557
a(S'>'
p558
g558
S'SYM'
p559
S'B-NP'
p560
g5
tp561
a(S'or'
p562
S'or'
p563
S'CC'
p564
g5
g5
tp565
a(g369
g369
S'SYM'
p566
S'B-VP'
p567
g5
tp568
a(S'3'
p569
g569
S'CD'
p570
S'B-NP'
p571
g5
tp572
a(S'mm'
p573
S'mm'
p574
S'NN'
p575
S'I-NP'
p576
g5
tp577
a(S'were'
p578
S'be'
p579
S'VBD'
p580
S'B-VP'
p581
g5
tp582
a(S'observed'
p583
S'observe'
p584
S'VBN'
p585
S'I-VP'
p586
g5
tp587
a(S'in'
p588
S'in'
p589
S'IN'
p590
S'B-PP'
p591
g5
tp592
a(S'18'
p593
S'18'
p594
S'CD'
p595
S'B-NP'
p596
g5
tp597
a(g148
g148
g148
g5
g5
tp598
a(S'6.0'
p599
S'6.0'
p600
S'CD'
p601
S'B-NP'
p602
g5
tp603
a(S'%'
p604
g604
S'NN'
p605
S'I-NP'
p606
g5
tp607
a(g155
g155
g155
g5
g5
tp608
a(S'of'
p609
S'of'
p610
S'IN'
p611
S'B-PP'
p612
g5
tp613
a(S'300'
p614
S'300'
p615
S'CD'
p616
S'B-NP'
p617
g5
tp618
a(S'evaluable'
p619
S'evaluable'
p620
S'JJ'
p621
S'I-NP'
p622
g5
tp623
a(S'subjects'
p624
S'subject'
p625
S'NNS'
p626
S'I-NP'
p627
g5
tp628
a(S'in'
p629
S'in'
p630
S'IN'
p631
S'B-PP'
p632
g5
tp633
a(S'the'
p634
S'the'
p635
S'DT'
p636
S'B-NP'
p637
g5
tp638
a(S'risedronate'
p639
S'risedronate'
p640
S'NN'
p641
S'I-NP'
p642
g5
tp643
a(S'group'
p644
S'group'
p645
S'NN'
p646
S'I-NP'
p647
g5
tp648
a(S'and'
p649
S'and'
p650
S'CC'
p651
g5
g5
tp652
a(S'36'
p653
S'36'
p654
S'CD'
p655
S'B-NP'
p656
g5
tp657
a(g148
g148
g148
g5
g5
tp658
a(S'12.1'
p659
S'12.1'
p660
S'CD'
p661
S'B-NP'
p662
g5
tp663
a(g604
g604
S'NN'
p664
S'I-NP'
p665
g5
tp666
a(g155
g155
g155
g5
g5
tp667
a(S'of'
p668
S'of'
p669
S'IN'
p670
S'B-PP'
p671
g5
tp672
a(S'297'
p673
S'297'
p674
S'CD'
p675
S'B-NP'
p676
g5
tp677
a(S'in'
p678
S'in'
p679
S'IN'
p680
S'B-PP'
p681
g5
tp682
a(S'the'
p683
S'the'
p684
S'DT'
p685
S'B-NP'
p686
g5
tp687
a(S'alendronate'
p688
S'alendronate'
p689
S'JJ'
p690
S'I-NP'
p691
g5
tp692
a(S'group'
p693
S'group'
p694
S'NN'
p695
S'I-NP'
p696
g5
tp697
a(S'during'
p698
S'during'
p699
S'IN'
p700
S'B-PP'
p701
g5
tp702
a(S'treatment'
p703
S'treatment'
p704
S'NN'
p705
S'B-NP'
p706
g5
tp707
a(g148
g148
g148
g5
g5
tp708
a(S'p'
p709
g709
S'NN'
p710
S'B-NP'
p711
g5
tp712
a(g369
g369
S'SYM'
p713
S'B-VP'
p714
g5
tp715
a(S'0.013'
p716
S'0.013'
p717
S'CD'
p718
S'B-NP'
p719
g5
tp720
a(g155
g155
g155
g5
g5
tp721
a(g82
g82
g82
g5
g5
tp722
a(S'On'
p723
S'On'
p724
S'IN'
p725
S'B-PP'
p726
g5
tp727
a(S'Day'
p728
S'Day'
p729
S'NNP'
p730
S'B-NP'
p731
g5
tp732
a(g522
g522
S'CD'
p733
S'I-NP'
p734
g5
tp735
a(g228
g228
g228
g5
g5
tp736
a(S'the'
p737
S'the'
p738
S'DT'
p739
S'B-NP'
p740
g5
tp741
a(S'incidences'
p742
S'incidence'
p743
S'NNS'
p744
S'I-NP'
p745
g5
tp746
a(S'of'
p747
S'of'
p748
S'IN'
p749
S'B-PP'
p750
g5
tp751
a(S'gastric'
p752
S'gastric'
p753
S'JJ'
p754
S'B-NP'
p755
g5
tp756
a(S'ulcers'
p757
S'ulcer'
p758
S'NNS'
p759
S'I-NP'
p760
g5
tp761
a(S'in'
p762
S'in'
p763
S'IN'
p764
S'B-PP'
p765
g5
tp766
a(S'the'
p767
S'the'
p768
S'DT'
p769
S'B-NP'
p770
g5
tp771
a(S'risedronate'
p772
S'risedronate'
p773
S'NN'
p774
S'I-NP'
p775
g5
tp776
a(S'and'
p777
S'and'
p778
S'CC'
p779
S'I-NP'
p780
g5
tp781
a(S'alendronate'
p782
S'alendronate'
p783
S'NN'
p784
S'I-NP'
p785
g5
tp786
a(S'groups'
p787
S'group'
p788
S'NNS'
p789
S'I-NP'
p790
g5
tp791
a(S'were'
p792
S'be'
p793
S'VBD'
p794
S'B-VP'
p795
g5
tp796
a(S'3.6'
p797
S'3.6'
p798
S'CD'
p799
S'B-NP'
p800
g5
tp801
a(g604
g604
S'NN'
p802
S'I-NP'
p803
g5
tp804
a(S'and'
p805
S'and'
p806
S'CC'
p807
g5
g5
tp808
a(S'6.6'
p809
S'6.6'
p810
S'CD'
p811
S'B-NP'
p812
g5
tp813
a(g604
g604
S'NN'
p814
S'I-NP'
p815
g5
tp816
a(g228
g228
g228
g5
g5
tp817
a(S'respectively'
p818
S'respectively'
p819
S'RB'
p820
S'B-ADVP'
p821
g5
tp822
a(g148
g148
g148
g5
g5
tp823
a(g709
g709
S'NN'
p824
S'B-NP'
p825
g5
tp826
a(g369
g369
S'SYM'
p827
S'B-VP'
p828
g5
tp829
a(S'0.133'
p830
S'0.133'
p831
S'CD'
p832
S'B-NP'
p833
g5
tp834
a(g155
g155
g155
g5
g5
tp835
a(g228
g228
g228
g5
g5
tp836
a(S'and'
p837
S'and'
p838
S'CC'
p839
g5
g5
tp840
a(S'on'
p841
S'on'
p842
S'IN'
p843
S'B-PP'
p844
g5
tp845
a(S'Day'
p846
S'Day'
p847
S'NNP'
p848
S'B-NP'
p849
g5
tp850
a(S'15'
p851
S'15'
p852
S'CD'
p853
S'I-NP'
p854
g5
tp855
a(g228
g228
g228
g5
g5
tp856
a(S'they'
p857
S'they'
p858
S'PRP'
p859
S'B-NP'
p860
g5
tp861
a(S'were'
p862
S'be'
p863
S'VBD'
p864
S'B-VP'
p865
g5
tp866
a(S'3.3'
p867
S'3.3'
p868
S'CD'
p869
S'B-NP'
p870
g5
tp871
a(g604
g604
S'NN'
p872
S'I-NP'
p873
g5
tp874
a(S'and'
p875
S'and'
p876
S'CC'
p877
g5
g5
tp878
a(S'8.7'
p879
S'8.7'
p880
S'CD'
p881
S'B-NP'
p882
g5
tp883
a(g604
g604
S'NN'
p884
S'I-NP'
p885
g5
tp886
a(g148
g148
g148
g5
g5
tp887
a(g709
g709
S'NN'
p888
S'B-NP'
p889
g5
tp890
a(g369
g369
S'SYM'
p891
S'B-VP'
p892
g5
tp893
a(S'0.008'
p894
S'0.008'
p895
S'CD'
p896
S'B-NP'
p897
g5
tp898
a(g155
g155
g155
g5
g5
tp899
a(g82
g82
g82
g5
g5
tp900
a(S'The'
p901
S'The'
p902
S'DT'
p903
S'B-NP'
p904
g5
tp905
a(S'incidence'
p906
S'incidence'
p907
S'NN'
p908
S'I-NP'
p909
g5
tp910
a(S'of'
p911
S'of'
p912
S'IN'
p913
S'B-PP'
p914
g5
tp915
a(S'gastric'
p916
S'gastric'
p917
S'JJ'
p918
S'B-NP'
p919
g5
tp920
a(S'ulcers'
p921
S'ulcer'
p922
S'NNS'
p923
S'I-NP'
p924
g5
tp925
a(S'was'
p926
S'be'
p927
S'VBD'
p928
S'B-VP'
p929
g5
tp930
a(S'not'
p931
S'not'
p932
S'RB'
p933
S'I-VP'
p934
g5
tp935
a(S'affected'
p936
S'affect'
p937
S'VBN'
p938
S'I-VP'
p939
g5
tp940
a(S'by'
p941
S'by'
p942
S'IN'
p943
S'B-PP'
p944
g5
tp945
a(S'H.'
p946
S'H.'
p947
S'NN'
p948
S'B-NP'
p949
g5
tp950
a(S'pylori'
p951
S'pylori'
p952
S'NN'
p953
S'I-NP'
p954
g5
tp955
a(S'status.'
p956
S'status.'
p957
S'NN'
p958
S'I-NP'
p959
g5
tp960
a(S'Mean'
p961
S'Mean'
p962
S'NN'
p963
S'I-NP'
p964
g5
tp965
a(S'gastric'
p966
S'gastric'
p967
S'JJ'
p968
S'I-NP'
p969
g5
tp970
a(S'endoscopy'
p971
S'endoscopy'
p972
S'NN'
p973
S'I-NP'
p974
g5
tp975
a(S'scores'
p976
S'score'
p977
S'NNS'
p978
S'I-NP'
p979
g5
tp980
a(S'at'
p981
S'at'
p982
S'IN'
p983
S'B-PP'
p984
g5
tp985
a(S'Days'
p986
S'Day'
p987
S'NNS'
p988
S'B-NP'
p989
g5
tp990
a(g522
g522
S'CD'
p991
S'B-NP'
p992
g5
tp993
a(S'and'
p994
S'and'
p995
S'CC'
p996
S'I-NP'
p997
g5
tp998
a(S'15'
p999
S'15'
p1000
S'CD'
p1001
S'I-NP'
p1002
g5
tp1003
a(S'were'
p1004
S'be'
p1005
S'VBD'
p1006
S'B-VP'
p1007
g5
tp1008
a(S'significantly'
p1009
S'significantly'
p1010
S'RB'
p1011
S'B-ADJP'
p1012
g5
tp1013
a(S'lower'
p1014
S'low'
p1015
S'JJR'
p1016
S'I-ADJP'
p1017
g5
tp1018
a(S'in'
p1019
S'in'
p1020
S'IN'
p1021
S'B-PP'
p1022
g5
tp1023
a(S'the'
p1024
S'the'
p1025
S'DT'
p1026
S'B-NP'
p1027
g5
tp1028
a(S'risedronate'
p1029
S'risedronate'
p1030
S'NN'
p1031
S'I-NP'
p1032
g5
tp1033
a(S'group'
p1034
S'group'
p1035
S'NN'
p1036
S'I-NP'
p1037
g5
tp1038
a(S'than'
p1039
S'than'
p1040
S'IN'
p1041
S'B-PP'
p1042
g5
tp1043
a(S'in'
p1044
S'in'
p1045
S'IN'
p1046
S'B-PP'
p1047
g5
tp1048
a(S'the'
p1049
S'the'
p1050
S'DT'
p1051
S'B-NP'
p1052
g5
tp1053
a(S'alendronate'
p1054
S'alendronate'
p1055
S'NN'
p1056
S'I-NP'
p1057
g5
tp1058
a(S'group'
p1059
S'group'
p1060
S'NN'
p1061
S'I-NP'
p1062
g5
tp1063
a(g148
g148
g148
g5
g5
tp1064
a(g709
g709
S'NN'
p1065
S'B-NP'
p1066
g5
tp1067
a(S'<'
p1068
g1068
S'SYM'
p1069
g5
g5
tp1070
a(S'0.001'
p1071
S'0.001'
p1072
S'CD'
p1073
S'B-NP'
p1074
g5
tp1075
a(g155
g155
g155
g5
g5
tp1076
a(g82
g82
g82
g5
g5
tp1077
a(S'Mean'
p1078
S'Mean'
p1079
S'JJ'
p1080
S'B-NP'
p1081
g5
tp1082
a(S'esophageal'
p1083
S'esophageal'
p1084
S'JJ'
p1085
S'I-NP'
p1086
g5
tp1087
a(S'and'
p1088
S'and'
p1089
S'CC'
p1090
S'I-NP'
p1091
g5
tp1092
a(S'duodenal'
p1093
S'duodenal'
p1094
S'JJ'
p1095
S'I-NP'
p1096
g5
tp1097
a(S'endoscopy'
p1098
S'endoscopy'
p1099
S'NN'
p1100
S'I-NP'
p1101
g5
tp1102
a(S'scores'
p1103
S'score'
p1104
S'NNS'
p1105
S'I-NP'
p1106
g5
tp1107
a(S'were'
p1108
S'be'
p1109
S'VBD'
p1110
S'B-VP'
p1111
g5
tp1112
a(S'similar'
p1113
S'similar'
p1114
S'JJ'
p1115
S'B-ADJP'
p1116
g5
tp1117
a(S'in'
p1118
S'in'
p1119
S'IN'
p1120
S'B-PP'
p1121
g5
tp1122
a(S'the'
p1123
S'the'
p1124
S'DT'
p1125
S'B-NP'
p1126
g5
tp1127
a(S'2'
p1128
g1128
S'CD'
p1129
S'I-NP'
p1130
g5
tp1131
a(S'groups'
p1132
S'group'
p1133
S'NNS'
p1134
S'I-NP'
p1135
g5
tp1136
a(S'at'
p1137
S'at'
p1138
S'IN'
p1139
S'B-PP'
p1140
g5
tp1141
a(S'Days'
p1142
S'Day'
p1143
S'NNS'
p1144
S'B-NP'
p1145
g5
tp1146
a(g522
g522
S'CD'
p1147
S'B-NP'
p1148
g5
tp1149
a(S'and'
p1150
S'and'
p1151
S'CC'
p1152
S'I-NP'
p1153
g5
tp1154
a(S'15.'
p1155
S'15.'
p1156
S'CD'
p1157
S'I-NP'
p1158
g5
tp1159
a(S'When'
p1160
S'When'
p1161
S'WRB'
p1162
S'B-ADVP'
p1163
g5
tp1164
a(S'the'
p1165
S'the'
p1166
S'DT'
p1167
S'B-NP'
p1168
g5
tp1169
a(S'treatment'
p1170
S'treatment'
p1171
S'NN'
p1172
S'I-NP'
p1173
g5
tp1174
a(S'groups'
p1175
S'group'
p1176
S'NNS'
p1177
S'I-NP'
p1178
g5
tp1179
a(S'were'
p1180
S'be'
p1181
S'VBD'
p1182
S'B-VP'
p1183
g5
tp1184
a(S'combined'
p1185
S'combine'
p1186
S'VBN'
p1187
S'I-VP'
p1188
g5
tp1189
a(g228
g228
g228
g5
g5
tp1190
a(S'gastric'
p1191
S'gastric'
p1192
S'JJ'
p1193
S'B-NP'
p1194
g5
tp1195
a(S'endoscopy'
p1196
S'endoscopy'
p1197
S'NN'
p1198
S'I-NP'
p1199
g5
tp1200
a(S'scores'
p1201
S'score'
p1202
S'NNS'
p1203
S'I-NP'
p1204
g5
tp1205
a(S'were'
p1206
S'be'
p1207
S'VBD'
p1208
S'B-VP'
p1209
g5
tp1210
a(S'significantly'
p1211
S'significantly'
p1212
S'RB'
p1213
S'B-ADJP'
p1214
g5
tp1215
a(S'higher'
p1216
S'high'
p1217
S'JJR'
p1218
S'I-ADJP'
p1219
g5
tp1220
a(S'among'
p1221
S'among'
p1222
S'IN'
p1223
S'B-PP'
p1224
g5
tp1225
a(S'H.'
p1226
S'H.'
p1227
S'NN'
p1228
S'B-NP'
p1229
g5
tp1230
a(S'pylori'
p1231
S'pylori'
p1232
S'NN'
p1233
S'I-NP'
p1234
g5
tp1235
a(S'negative'
p1236
S'negative'
p1237
S'JJ'
p1238
S'B-ADJP'
p1239
g5
tp1240
a(S'than'
p1241
S'than'
p1242
S'IN'
p1243
S'B-PP'
p1244
g5
tp1245
a(S'H.'
p1246
S'H.'
p1247
S'NN'
p1248
S'B-NP'
p1249
g5
tp1250
a(S'pylori'
p1251
S'pylori'
p1252
S'NN'
p1253
S'I-NP'
p1254
g5
tp1255
a(S'positive'
p1256
S'positive'
p1257
S'JJ'
p1258
S'I-NP'
p1259
g5
tp1260
a(S'subjects'
p1261
S'subject'
p1262
S'NNS'
p1263
S'I-NP'
p1264
g5
tp1265
a(S'at'
p1266
S'at'
p1267
S'IN'
p1268
S'B-PP'
p1269
g5
tp1270
a(S'Days'
p1271
S'Day'
p1272
S'NNS'
p1273
S'B-NP'
p1274
g5
tp1275
a(g522
g522
S'CD'
p1276
S'B-NP'
p1277
g5
tp1278
a(S'and'
p1279
S'and'
p1280
S'CC'
p1281
S'I-NP'
p1282
g5
tp1283
a(S'15'
p1284
S'15'
p1285
S'CD'
p1286
S'I-NP'
p1287
g5
tp1288
a(g148
g148
g148
g5
g5
tp1289
a(g709
g709
S'NN'
p1290
S'B-NP'
p1291
g5
tp1292
a(g1068
g1068
S'SYM'
p1293
g5
g5
tp1294
a(S'0.05'
p1295
S'0.05'
p1296
S'CD'
p1297
S'B-NP'
p1298
g5
tp1299
a(g155
g155
g155
g5
g5
tp1300
a(g82
g82
g82
g5
g5
tp1301
a(S'Upper'
p1302
S'Upper'
p1303
S'NNP'
p1304
S'B-NP'
p1305
g5
tp1306
a(S'GI'
p1307
S'GI'
p1308
S'NNP'
p1309
S'I-NP'
p1310
g5
tp1311
a(S'adverse'
p1312
S'adverse'
p1313
S'JJ'
p1314
S'I-NP'
p1315
g5
tp1316
a(S'events'
p1317
S'event'
p1318
S'NNS'
p1319
S'I-NP'
p1320
g5
tp1321
a(S'were'
p1322
S'be'
p1323
S'VBD'
p1324
S'B-VP'
p1325
g5
tp1326
a(S'reported'
p1327
S'report'
p1328
S'VBN'
p1329
S'I-VP'
p1330
g5
tp1331
a(S'by'
p1332
S'by'
p1333
S'IN'
p1334
S'B-PP'
p1335
g5
tp1336
a(S'18'
p1337
S'18'
p1338
S'CD'
p1339
S'B-NP'
p1340
g5
tp1341
a(g148
g148
g148
g5
g5
tp1342
a(S'5.7'
p1343
S'5.7'
p1344
S'CD'
p1345
S'B-NP'
p1346
g5
tp1347
a(g604
g604
S'NN'
p1348
S'I-NP'
p1349
g5
tp1350
a(g155
g155
g155
g5
g5
tp1351
a(S'subjects'
p1352
S'subject'
p1353
S'NNS'
p1354
S'B-NP'
p1355
g5
tp1356
a(S'in'
p1357
S'in'
p1358
S'IN'
p1359
S'B-PP'
p1360
g5
tp1361
a(S'the'
p1362
S'the'
p1363
S'DT'
p1364
S'B-NP'
p1365
g5
tp1366
a(S'risedronate'
p1367
S'risedronate'
p1368
S'NN'
p1369
S'I-NP'
p1370
g5
tp1371
a(S'group'
p1372
S'group'
p1373
S'NN'
p1374
S'I-NP'
p1375
g5
tp1376
a(g148
g148
g148
g5
g5
tp1377
a(S'19'
p1378
S'19'
p1379
S'CD'
p1380
S'B-NP'
p1381
g5
tp1382
a(S'events'
p1383
S'event'
p1384
S'NNS'
p1385
S'I-NP'
p1386
g5
tp1387
a(g155
g155
g155
g5
g5
tp1388
a(S'and'
p1389
S'and'
p1390
S'CC'
p1391
g5
g5
tp1392
a(S'28'
p1393
S'28'
p1394
S'CD'
p1395
S'B-NP'
p1396
g5
tp1397
a(g148
g148
g148
g5
g5
tp1398
a(S'8.8'
p1399
S'8.8'
p1400
S'CD'
p1401
S'B-NP'
p1402
g5
tp1403
a(g604
g604
S'NN'
p1404
S'I-NP'
p1405
g5
tp1406
a(g155
g155
g155
g5
g5
tp1407
a(S'subjects'
p1408
S'subject'
p1409
S'NNS'
p1410
S'B-NP'
p1411
g5
tp1412
a(S'in'
p1413
S'in'
p1414
S'IN'
p1415
S'B-PP'
p1416
g5
tp1417
a(S'the'
p1418
S'the'
p1419
S'DT'
p1420
S'B-NP'
p1421
g5
tp1422
a(S'alendronate'
p1423
S'alendronate'
p1424
S'NN'
p1425
S'I-NP'
p1426
g5
tp1427
a(S'group'
p1428
S'group'
p1429
S'NN'
p1430
S'I-NP'
p1431
g5
tp1432
a(g148
g148
g148
g5
g5
tp1433
a(S'32'
p1434
S'32'
p1435
S'CD'
p1436
S'B-NP'
p1437
g5
tp1438
a(S'events'
p1439
S'event'
p1440
S'NNS'
p1441
S'I-NP'
p1442
g5
tp1443
a(g155
g155
g155
g5
g5
tp1444
a(g82
g82
g82
g5
g5
tp1445
a(S'Symptoms'
p1446
S'Symptom'
p1447
S'NNPS'
p1448
S'B-NP'
p1449
g5
tp1450
a(S'did'
p1451
S'do'
p1452
S'VBD'
p1453
S'B-VP'
p1454
g5
tp1455
a(S'not'
p1456
S'not'
p1457
S'RB'
p1458
S'I-VP'
p1459
g5
tp1460
a(S'predict'
p1461
S'predict'
p1462
S'VB'
p1463
S'I-VP'
p1464
g5
tp1465
a(S'the'
p1466
S'the'
p1467
S'DT'
p1468
S'B-NP'
p1469
g5
tp1470
a(S'presence'
p1471
S'presence'
p1472
S'NN'
p1473
S'I-NP'
p1474
g5
tp1475
a(S'of'
p1476
S'of'
p1477
S'IN'
p1478
S'B-PP'
p1479
g5
tp1480
a(S'mucosal'
p1481
S'mucosal'
p1482
S'JJ'
p1483
S'B-NP'
p1484
g5
tp1485
a(S'damage'
p1486
S'damage'
p1487
S'NN'
p1488
S'I-NP'
p1489
g5
tp1490
a(g82
g82
g82
g5
g5
tp1491
a(S'CONCLUSION'
p1492
S'CONCLUSION'
p1493
S'NN'
p1494
S'B-NP'
p1495
g5
tp1496
a(S'Risedronate'
p1497
S'Risedronate'
p1498
S'NN'
p1499
S'I-NP'
p1500
g5
tp1501
a(S'was'
p1502
S'be'
p1503
S'VBD'
p1504
S'B-VP'
p1505
g5
tp1506
a(S'associated'
p1507
S'associate'
p1508
S'VBN'
p1509
S'I-VP'
p1510
g5
tp1511
a(S'with'
p1512
S'with'
p1513
S'IN'
p1514
S'B-PP'
p1515
g5
tp1516
a(g230
g230
S'DT'
p1517
S'B-NP'
p1518
g5
tp1519
a(S'significantly'
p1520
S'significantly'
p1521
S'RB'
p1522
S'I-NP'
p1523
g5
tp1524
a(S'lower'
p1525
S'low'
p1526
S'JJR'
p1527
S'I-NP'
p1528
g5
tp1529
a(S'incidence'
p1530
S'incidence'
p1531
S'NN'
p1532
S'I-NP'
p1533
g5
tp1534
a(S'of'
p1535
S'of'
p1536
S'IN'
p1537
S'B-PP'
p1538
g5
tp1539
a(S'gastric'
p1540
S'gastric'
p1541
S'JJ'
p1542
S'B-NP'
p1543
g5
tp1544
a(S'ulcers'
p1545
S'ulcer'
p1546
S'NNS'
p1547
S'I-NP'
p1548
g5
tp1549
a(S'than'
p1550
S'than'
p1551
S'IN'
p1552
S'B-PP'
p1553
g5
tp1554
a(S'alendronate.'
p1555
S'alendronate.'
p1556
S'NN'
p1557
S'B-NP'
p1558
g5
tp1559
a(S'H.'
p1560
S'H.'
p1561
S'NN'
p1562
S'I-NP'
p1563
g5
tp1564
a(S'pylori'
p1565
S'pylori'
p1566
S'NN'
p1567
S'I-NP'
p1568
g5
tp1569
a(S'infection'
p1570
S'infection'
p1571
S'NN'
p1572
S'I-NP'
p1573
g5
tp1574
a(S'did'
p1575
S'do'
p1576
S'VBD'
p1577
S'B-VP'
p1578
g5
tp1579
a(S'not'
p1580
S'not'
p1581
S'RB'
p1582
S'I-VP'
p1583
g5
tp1584
a(S'increase'
p1585
S'increase'
p1586
S'VB'
p1587
S'I-VP'
p1588
g5
tp1589
a(S'the'
p1590
S'the'
p1591
S'DT'
p1592
S'B-NP'
p1593
g5
tp1594
a(S'incidence'
p1595
S'incidence'
p1596
S'NN'
p1597
S'I-NP'
p1598
g5
tp1599
a(S'of'
p1600
S'of'
p1601
S'IN'
p1602
S'B-PP'
p1603
g5
tp1604
a(S'bisphosphonate'
p1605
S'bisphosphonate'
p1606
S'NN'
p1607
S'B-NP'
p1608
g5
tp1609
a(S'related'
p1610
S'related'
p1611
S'JJ'
p1612
S'I-NP'
p1613
g5
tp1614
a(S'gastric'
p1615
S'gastric'
p1616
S'JJ'
p1617
S'I-NP'
p1618
g5
tp1619
a(S'ulcers.'
p1620
S'ulcers.'
p1621
S'NN'
p1622
S'I-NP'
p1623
g5
tp1624
a(S'The'
p1625
S'The'
p1626
S'DT'
p1627
S'B-NP'
p1628
g5
tp1629
a(S'findings'
p1630
S'finding'
p1631
S'NNS'
p1632
S'I-NP'
p1633
g5
tp1634
a(S'from'
p1635
S'from'
p1636
S'IN'
p1637
S'B-PP'
p1638
g5
tp1639
a(S'this'
p1640
S'this'
p1641
S'DT'
p1642
S'B-NP'
p1643
g5
tp1644
a(S'14'
p1645
S'14'
p1646
S'CD'
p1647
S'I-NP'
p1648
g5
tp1649
a(S'day'
p1650
S'day'
p1651
S'NN'
p1652
S'I-NP'
p1653
g5
tp1654
a(S'study'
p1655
S'study'
p1656
S'NN'
p1657
S'I-NP'
p1658
g5
tp1659
a(S'in'
p1660
S'in'
p1661
S'IN'
p1662
S'B-PP'
p1663
g5
tp1664
a(S'healthy'
p1665
S'healthy'
p1666
S'JJ'
p1667
S'B-NP'
p1668
g5
tp1669
a(S'volunteers'
p1670
S'volunteer'
p1671
S'NNS'
p1672
S'I-NP'
p1673
g5
tp1674
a(S'support'
p1675
S'support'
p1676
S'VBP'
p1677
S'B-VP'
p1678
g5
tp1679
a(S'the'
p1680
S'the'
p1681
S'DT'
p1682
S'B-NP'
p1683
g5
tp1684
a(S'hypothesis'
p1685
S'hypothesis'
p1686
S'NN'
p1687
S'I-NP'
p1688
g5
tp1689
a(S'that'
p1690
S'that'
p1691
S'IN'
p1692
S'B-SBAR'
p1693
g5
tp1694
a(S'bisphosphonates'
p1695
S'bisphosphonate'
p1696
S'NNS'
p1697
S'B-NP'
p1698
g5
tp1699
a(S'may'
p1700
S'may'
p1701
S'MD'
p1702
S'B-VP'
p1703
g5
tp1704
a(S'differ'
p1705
S'differ'
p1706
S'VB'
p1707
S'I-VP'
p1708
g5
tp1709
a(S'from'
p1710
S'from'
p1711
S'IN'
p1712
S'B-PP'
p1713
g5
tp1714
a(S'one'
p1715
S'one'
p1716
S'CD'
p1717
S'B-NP'
p1718
g5
tp1719
a(S'another'
p1720
S'another'
p1721
S'DT'
p1722
S'I-NP'
p1723
g5
tp1724
a(S'in'
p1725
S'in'
p1726
S'IN'
p1727
S'B-PP'
p1728
g5
tp1729
a(S'their'
p1730
S'their'
p1731
S'PRP$'
p1732
S'B-NP'
p1733
g5
tp1734
a(S'potential'
p1735
S'potential'
p1736
S'NN'
p1737
S'I-NP'
p1738
g5
tp1739
a(S'to'
p1740
S'to'
p1741
S'TO'
p1742
S'B-VP'
p1743
g5
tp1744
a(S'produce'
p1745
S'produce'
p1746
S'VB'
p1747
S'I-VP'
p1748
g5
tp1749
a(S'upper'
p1750
S'upper'
p1751
S'JJ'
p1752
S'B-NP'
p1753
g5
tp1754
a(S'GI'
p1755
S'GI'
p1756
S'NN'
p1757
S'I-NP'
p1758
g5
tp1759
a(S'mucosal'
p1760
S'mucosal'
p1761
S'JJ'
p1762
S'I-NP'
p1763
g5
tp1764
a(S'damage'
p1765
S'damage'
p1766
S'NN'
p1767
S'I-NP'
p1768
g5
tp1769
a(g82
g82
g82
g5
g5
tp1770
a.