(lp0
(S'Netilmicin'
p1
S'Netilmicin'
p2
S'NN'
p3
S'B-NP'
p4
S'O'
p5
tp6
a(S'versus'
p7
S'versus'
p8
S'CC'
p9
S'I-NP'
p10
g5
tp11
a(S'tobramycin'
p12
S'tobramycin'
p13
S'NN'
p14
S'I-NP'
p15
g5
tp16
a(S'in'
p17
S'in'
p18
S'IN'
p19
S'B-PP'
p20
g5
tp21
a(S'multi-centre'
p22
S'multi-centre'
p23
S'JJ'
p24
S'B-NP'
p25
g5
tp26
a(S'studies'
p27
S'study'
p28
S'NNS'
p29
S'I-NP'
p30
g5
tp31
a(S'.'
p32
g32
g32
g5
g5
tp33
a(S'In'
p34
S'In'
p35
S'IN'
p36
S'B-PP'
p37
g5
tp38
a(S'two'
p39
S'two'
p40
S'CD'
p41
S'B-NP'
p42
g5
tp43
a(S'prospective'
p44
S'prospective'
p45
S'JJ'
p46
S'I-NP'
p47
g5
tp48
a(S','
p49
g49
g49
S'I-NP'
p50
g5
tp51
a(S'randomized'
p52
S'randomize'
p53
S'VBN'
p54
S'I-NP'
p55
g5
tp56
a(S'studies'
p57
S'study'
p58
S'NNS'
p59
S'I-NP'
p60
g5
tp61
a(S'conducted'
p62
S'conduct'
p63
S'VBN'
p64
S'B-VP'
p65
g5
tp66
a(S'in'
p67
S'in'
p68
S'IN'
p69
S'B-PP'
p70
g5
tp71
a(S'West'
p72
S'West'
p73
S'NNP'
p74
S'B-NP'
p75
g5
tp76
a(S'Germany'
p77
S'Germany'
p78
S'NNP'
p79
S'I-NP'
p80
g5
tp81
a(S'and'
p82
S'and'
p83
S'CC'
p84
g5
g5
tp85
a(S'involving'
p86
S'involve'
p87
S'VBG'
p88
S'B-VP'
p89
g5
tp90
a(S'80'
p91
S'80'
p92
S'CD'
p93
S'B-NP'
p94
g5
tp95
a(S'patients'
p96
S'patient'
p97
S'NNS'
p98
S'I-NP'
p99
g5
tp100
a(g49
g49
g49
g5
g5
tp101
a(S'netilmicin-ticarcillin'
p102
S'netilmicin-ticarcillin'
p103
S'NN'
p104
S'B-NP'
p105
S'B-protein'
p106
tp107
a(S'was'
p108
S'be'
p109
S'VBD'
p110
S'B-VP'
p111
g5
tp112
a(S'compared'
p113
S'compare'
p114
S'VBN'
p115
S'I-VP'
p116
g5
tp117
a(S'to'
p118
S'to'
p119
S'TO'
p120
S'B-PP'
p121
g5
tp122
a(S'tobramycin-ticarcillin'
p123
S'tobramycin-ticarcillin'
p124
S'NN'
p125
S'B-NP'
p126
S'B-protein'
p127
tp128
a(S'in'
p129
S'in'
p130
S'IN'
p131
S'B-PP'
p132
g5
tp133
a(S'the'
p134
S'the'
p135
S'DT'
p136
S'B-NP'
p137
g5
tp138
a(S'treatment'
p139
S'treatment'
p140
S'NN'
p141
S'I-NP'
p142
g5
tp143
a(S'of'
p144
S'of'
p145
S'IN'
p146
S'B-PP'
p147
g5
tp148
a(S'serious'
p149
S'serious'
p150
S'JJ'
p151
S'B-NP'
p152
g5
tp153
a(S'systemic'
p154
S'systemic'
p155
S'JJ'
p156
S'I-NP'
p157
g5
tp158
a(S'infections.'
p159
S'infections.'
p160
S'NN'
p161
S'I-NP'
p162
g5
tp163
a(S'Both'
p164
S'Both'
p165
S'DT'
p166
S'B-NP'
p167
g5
tp168
a(S'regimens'
p169
S'regimen'
p170
S'NNS'
p171
S'I-NP'
p172
g5
tp173
a(S'were'
p174
S'be'
p175
S'VBD'
p176
S'B-VP'
p177
g5
tp178
a(S'essentially'
p179
S'essentially'
p180
S'RB'
p181
S'B-ADJP'
p182
g5
tp183
a(S'identical'
p184
S'identical'
p185
S'JJ'
p186
S'I-ADJP'
p187
g5
tp188
a(S'with'
p189
S'with'
p190
S'IN'
p191
S'B-PP'
p192
g5
tp193
a(S'respect'
p194
S'respect'
p195
S'NN'
p196
S'B-NP'
p197
g5
tp198
a(S'to'
p199
S'to'
p200
S'TO'
p201
S'B-PP'
p202
g5
tp203
a(S'the'
p204
S'the'
p205
S'DT'
p206
S'B-NP'
p207
g5
tp208
a(S'clinical'
p209
S'clinical'
p210
S'JJ'
p211
S'I-NP'
p212
g5
tp213
a(S'and'
p214
S'and'
p215
S'CC'
p216
S'I-NP'
p217
g5
tp218
a(S'bacteriological'
p219
S'bacteriological'
p220
S'JJ'
p221
S'I-NP'
p222
g5
tp223
a(S'results'
p224
S'result'
p225
S'NNS'
p226
S'I-NP'
p227
g5
tp228
a(S'they'
p229
S'they'
p230
S'PRP'
p231
S'B-NP'
p232
g5
tp233
a(S'produced.'
p234
S'produced.'
p235
S'VBP'
p236
S'B-VP'
p237
g5
tp238
a(S'The'
p239
S'The'
p240
S'DT'
p241
S'B-NP'
p242
g5
tp243
a(S'netilmicin'
p244
S'netilmicin'
p245
S'NN'
p246
S'I-NP'
p247
g5
tp248
a(S'group'
p249
S'group'
p250
S'NN'
p251
S'I-NP'
p252
g5
tp253
a(S'developed'
p254
S'develop'
p255
S'VBD'
p256
S'B-VP'
p257
g5
tp258
a(S'significantly'
p259
S'significantly'
p260
S'RB'
p261
S'B-NP'
p262
g5
tp263
a(S'less'
p264
S'less'
p265
S'JJR'
p266
S'I-NP'
p267
g5
tp268
a(S'nephrotoxicity'
p269
S'nephrotoxicity'
p270
S'NN'
p271
S'I-NP'
p272
g5
tp273
a(S'than'
p274
S'than'
p275
S'IN'
p276
S'B-PP'
p277
g5
tp278
a(S'the'
p279
S'the'
p280
S'DT'
p281
S'B-NP'
p282
g5
tp283
a(S'tobramycin'
p284
S'tobramycin'
p285
S'NN'
p286
S'I-NP'
p287
g5
tp288
a(S'group'
p289
S'group'
p290
S'NN'
p291
S'I-NP'
p292
g5
tp293
a(S'('
p294
g294
g294
g5
g5
tp295
a(S'0'
p296
g296
S'CD'
p297
S'B-NP'
p298
g5
tp299
a(S'%'
p300
g300
S'NN'
p301
S'I-NP'
p302
g5
tp303
a(S'versus'
p304
S'versus'
p305
S'IN'
p306
S'B-PP'
p307
g5
tp308
a(S'15'
p309
S'15'
p310
S'CD'
p311
S'B-NP'
p312
g5
tp313
a(g300
g300
S'NN'
p314
S'I-NP'
p315
g5
tp316
a(g49
g49
g49
g5
g5
tp317
a(S'P'
p318
g318
S'NN'
p319
S'B-NP'
p320
g5
tp321
a(S'='
p322
g322
S'SYM'
p323
S'B-VP'
p324
g5
tp325
a(S'0.03'
p326
S'0.03'
p327
S'CD'
p328
S'B-NP'
p329
g5
tp330
a(S')'
p331
g331
g331
g5
g5
tp332
a(g32
g32
g32
g5
g5
tp333
a(S'Ototoxicity'
p334
S'Ototoxicity'
p335
S'NN'
p336
S'B-NP'
p337
g5
tp338
a(S'also'
p339
S'also'
p340
S'RB'
p341
S'B-ADVP'
p342
g5
tp343
a(S'occurred'
p344
S'occur'
p345
S'VBD'
p346
S'B-VP'
p347
g5
tp348
a(S'less'
p349
S'less'
p350
S'RBR'
p351
S'B-ADVP'
p352
g5
tp353
a(S'frequently'
p354
S'frequently'
p355
S'RB'
p356
S'I-ADVP'
p357
g5
tp358
a(S'in'
p359
S'in'
p360
S'IN'
p361
S'B-PP'
p362
g5
tp363
a(S'the'
p364
S'the'
p365
S'DT'
p366
S'B-NP'
p367
g5
tp368
a(S'netilmicin-treated'
p369
S'netilmicin-treated'
p370
S'JJ'
p371
S'I-NP'
p372
g5
tp373
a(S'patients'
p374
S'patient'
p375
S'NNS'
p376
S'I-NP'
p377
g5
tp378
a(g294
g294
g294
g5
g5
tp379
a(S'3'
p380
g380
S'CD'
p381
S'B-NP'
p382
g5
tp383
a(g300
g300
S'NN'
p384
S'I-NP'
p385
g5
tp386
a(S'versus'
p387
S'versus'
p388
S'IN'
p389
S'B-PP'
p390
g5
tp391
a(S'10'
p392
S'10'
p393
S'CD'
p394
S'B-NP'
p395
g5
tp396
a(g300
g300
S'NN'
p397
S'I-NP'
p398
g5
tp399
a(g49
g49
g49
g5
g5
tp400
a(g318
g318
S'NN'
p401
S'B-NP'
p402
g5
tp403
a(g322
g322
S'SYM'
p404
S'B-VP'
p405
g5
tp406
a(S'0.4'
p407
S'0.4'
p408
S'CD'
p409
S'B-NP'
p410
g5
tp411
a(g331
g331
g331
g5
g5
tp412
a(g32
g32
g32
g5
g5
tp413
a(S'In'
p414
S'In'
p415
S'IN'
p416
S'B-PP'
p417
g5
tp418
a(S'a'
p419
g419
S'DT'
p420
S'B-NP'
p421
g5
tp422
a(S'large'
p423
S'large'
p424
S'JJ'
p425
S'I-NP'
p426
g5
tp427
a(S'collaborative'
p428
S'collaborative'
p429
S'JJ'
p430
S'I-NP'
p431
g5
tp432
a(S'study'
p433
S'study'
p434
S'NN'
p435
S'I-NP'
p436
g5
tp437
a(S'involving'
p438
S'involve'
p439
S'VBG'
p440
S'B-VP'
p441
g5
tp442
a(S'15'
p443
S'15'
p444
S'CD'
p445
S'B-NP'
p446
g5
tp447
a(S'centres'
p448
S'centre'
p449
S'NNS'
p450
S'I-NP'
p451
g5
tp452
a(g49
g49
g49
g5
g5
tp453
a(S'254'
p454
S'254'
p455
S'CD'
p456
S'B-NP'
p457
g5
tp458
a(S'patients'
p459
S'patient'
p460
S'NNS'
p461
S'I-NP'
p462
g5
tp463
a(S'were'
p464
S'be'
p465
S'VBD'
p466
S'B-VP'
p467
g5
tp468
a(S'enrolled.'
p469
S'enrolled.'
p470
S'VBN'
p471
S'I-VP'
p472
g5
tp473
a(S'Clinical'
p474
S'Clinical'
p475
S'JJ'
p476
S'B-NP'
p477
g5
tp478
a(S'and'
p479
S'and'
p480
S'CC'
p481
S'I-NP'
p482
g5
tp483
a(S'bacteriological'
p484
S'bacteriological'
p485
S'JJ'
p486
S'I-NP'
p487
g5
tp488
a(S'responses'
p489
S'response'
p490
S'NNS'
p491
S'I-NP'
p492
g5
tp493
a(S'were'
p494
S'be'
p495
S'VBD'
p496
S'B-VP'
p497
g5
tp498
a(S'excellent'
p499
S'excellent'
p500
S'JJ'
p501
S'B-ADJP'
p502
g5
tp503
a(g49
g49
g49
g5
g5
tp504
a(S'with'
p505
S'with'
p506
S'IN'
p507
S'B-PP'
p508
g5
tp509
a(S'netilmicin'
p510
S'netilmicin'
p511
S'NN'
p512
S'B-NP'
p513
g5
tp514
a(S'and'
p515
S'and'
p516
S'CC'
p517
S'I-NP'
p518
g5
tp519
a(S'tobramycin'
p520
S'tobramycin'
p521
S'NN'
p522
S'I-NP'
p523
g5
tp524
a(S'equally'
p525
S'equally'
p526
S'RB'
p527
S'B-ADJP'
p528
g5
tp529
a(S'effective'
p530
S'effective'
p531
S'JJ'
p532
S'I-ADJP'
p533
g5
tp534
a(g49
g49
g49
g5
g5
tp535
a(S'but'
p536
S'but'
p537
S'CC'
p538
g5
g5
tp539
a(S'the'
p540
S'the'
p541
S'DT'
p542
S'B-NP'
p543
g5
tp544
a(S'incidences'
p545
S'incidence'
p546
S'NNS'
p547
S'I-NP'
p548
g5
tp549
a(S'of'
p550
S'of'
p551
S'IN'
p552
S'B-PP'
p553
g5
tp554
a(S'nephrotoxicity'
p555
S'nephrotoxicity'
p556
S'NN'
p557
S'B-NP'
p558
g5
tp559
a(S'and'
p560
S'and'
p561
S'CC'
p562
S'I-NP'
p563
g5
tp564
a(S'ototoxicity'
p565
S'ototoxicity'
p566
S'NN'
p567
S'I-NP'
p568
g5
tp569
a(S'were'
p570
S'be'
p571
S'VBD'
p572
S'B-VP'
p573
g5
tp574
a(S'lower'
p575
S'low'
p576
S'JJR'
p577
S'B-ADJP'
p578
g5
tp579
a(S'in'
p580
S'in'
p581
S'IN'
p582
S'B-PP'
p583
g5
tp584
a(S'patients'
p585
S'patient'
p586
S'NNS'
p587
S'B-NP'
p588
g5
tp589
a(S'treated'
p590
S'treat'
p591
S'VBN'
p592
S'B-VP'
p593
g5
tp594
a(S'with'
p595
S'with'
p596
S'IN'
p597
S'B-PP'
p598
g5
tp599
a(S'netilmicin'
p600
S'netilmicin'
p601
S'NN'
p602
S'B-NP'
p603
g5
tp604
a(S'than'
p605
S'than'
p606
S'IN'
p607
S'B-PP'
p608
g5
tp609
a(S'those'
p610
S'those'
p611
S'DT'
p612
S'B-NP'
p613
g5
tp614
a(S'receiving'
p615
S'receive'
p616
S'VBG'
p617
S'I-NP'
p618
g5
tp619
a(S'tobramycin'
p620
S'tobramycin'
p621
S'NN'
p622
S'I-NP'
p623
g5
tp624
a(g32
g32
g32
g5
g5
tp625
a.