(lp0
(S'Assessment'
p1
S'Assessment'
p2
S'NN'
p3
S'B-NP'
p4
S'O'
p5
tp6
a(S'of'
p7
S'of'
p8
S'IN'
p9
S'B-PP'
p10
g5
tp11
a(S'paravalvular'
p12
S'paravalvular'
p13
S'JJ'
p14
S'B-NP'
p15
g5
tp16
a(S'aortic'
p17
S'aortic'
p18
S'JJ'
p19
S'I-NP'
p20
g5
tp21
a(S'regurgitation'
p22
S'regurgitation'
p23
S'NN'
p24
S'I-NP'
p25
g5
tp26
a(S'after'
p27
S'after'
p28
S'IN'
p29
S'B-PP'
p30
g5
tp31
a(S'transcatheter'
p32
S'transcatheter'
p33
S'NN'
p34
S'B-NP'
p35
g5
tp36
a(S'aortic'
p37
S'aortic'
p38
S'JJ'
p39
S'I-NP'
p40
g5
tp41
a(S'valve'
p42
S'valve'
p43
S'NN'
p44
S'I-NP'
p45
g5
tp46
a(S'replacement'
p47
S'replacement'
p48
S'NN'
p49
S'I-NP'
p50
g5
tp51
a(S':'
p52
g52
g52
g5
g5
tp53
a(S'intra-core'
p54
S'intra-core'
p55
S'JJ'
p56
S'B-NP'
p57
g5
tp58
a(S'laboratory'
p59
S'laboratory'
p60
S'NN'
p61
S'I-NP'
p62
g5
tp63
a(S'variability'
p64
S'variability'
p65
S'NN'
p66
S'I-NP'
p67
g5
tp68
a(S'.'
p69
g69
g69
g5
g5
tp70
a(S'BACKGROUND'
p71
S'BACKGROUND'
p72
S'NN'
p73
S'B-NP'
p74
g5
tp75
a(S'There'
p76
S'There'
p77
S'EX'
p78
S'B-NP'
p79
g5
tp80
a(S'is'
p81
S'be'
p82
S'VBZ'
p83
S'B-VP'
p84
g5
tp85
a(S'significant'
p86
S'significant'
p87
S'JJ'
p88
S'B-NP'
p89
g5
tp90
a(S'disparity'
p91
S'disparity'
p92
S'NN'
p93
S'I-NP'
p94
g5
tp95
a(S'in'
p96
S'in'
p97
S'IN'
p98
S'B-PP'
p99
g5
tp100
a(S'the'
p101
S'the'
p102
S'DT'
p103
S'B-NP'
p104
g5
tp105
a(S'reported'
p106
S'report'
p107
S'VBN'
p108
S'I-NP'
p109
g5
tp110
a(S'incidence'
p111
S'incidence'
p112
S'NN'
p113
S'I-NP'
p114
g5
tp115
a(S'of'
p116
S'of'
p117
S'IN'
p118
S'B-PP'
p119
g5
tp120
a(S'moderate'
p121
S'moderate'
p122
S'JJ'
p123
S'B-NP'
p124
g5
tp125
a(S'and'
p126
S'and'
p127
S'CC'
p128
S'I-NP'
p129
g5
tp130
a(S'severe'
p131
S'severe'
p132
S'JJ'
p133
S'I-NP'
p134
g5
tp135
a(S'paravalvular'
p136
S'paravalvular'
p137
S'JJ'
p138
S'I-NP'
p139
g5
tp140
a(S'aortic'
p141
S'aortic'
p142
S'JJ'
p143
S'I-NP'
p144
g5
tp145
a(S'regurgitation'
p146
S'regurgitation'
p147
S'NN'
p148
S'I-NP'
p149
g5
tp150
a(S'('
p151
g151
g151
g5
g5
tp152
a(S'PAR'
p153
S'PAR'
p154
S'NN'
p155
S'B-NP'
p156
S'B-protein'
p157
tp158
a(S')'
p159
g159
g159
g5
g5
tp160
a(S'between'
p161
S'between'
p162
S'IN'
p163
S'B-PP'
p164
g5
tp165
a(S'the'
p166
S'the'
p167
S'DT'
p168
S'B-NP'
p169
g5
tp170
a(S'Placement'
p171
S'Placement'
p172
S'NN'
p173
S'I-NP'
p174
g5
tp175
a(S'of'
p176
S'of'
p177
S'IN'
p178
S'B-PP'
p179
g5
tp180
a(S'Aortic'
p181
S'Aortic'
p182
S'JJ'
p183
S'B-NP'
p184
g5
tp185
a(S'Transcatheter'
p186
S'Transcatheter'
p187
S'NN'
p188
S'I-NP'
p189
g5
tp190
a(S'Valves'
p191
S'Valve'
p192
S'NNS'
p193
S'I-NP'
p194
g5
tp195
a(g151
g151
g151
g5
g5
tp196
a(S'PARTNER'
p197
S'PARTNER'
p198
S'NN'
p199
S'B-NP'
p200
g5
tp201
a(g159
g159
g159
g5
g5
tp202
a(S'I'
p203
g203
S'NN'
p204
S'B-NP'
p205
g5
tp206
a(S'and'
p207
S'and'
p208
S'CC'
p209
g5
g5
tp210
a(S'PARTNER'
p211
S'PARTNER'
p212
S'NN'
p213
S'B-NP'
p214
g5
tp215
a(S'II'
p216
S'II'
p217
S'CD'
p218
S'B-NP'
p219
g5
tp220
a(S'trials'
p221
S'trial'
p222
S'NNS'
p223
S'I-NP'
p224
g5
tp225
a(S','
p226
g226
g226
g5
g5
tp227
a(S'which'
p228
S'which'
p229
S'WDT'
p230
S'B-NP'
p231
g5
tp232
a(S'may'
p233
S'may'
p234
S'MD'
p235
S'B-VP'
p236
g5
tp237
a(S'be'
p238
S'be'
p239
S'VB'
p240
S'I-VP'
p241
g5
tp242
a(S'related'
p243
S'related'
p244
S'JJ'
p245
S'B-ADJP'
p246
g5
tp247
a(S'to'
p248
S'to'
p249
S'TO'
p250
S'B-PP'
p251
g5
tp252
a(S'the'
p253
S'the'
p254
S'DT'
p255
S'B-NP'
p256
g5
tp257
a(S'echocardiographic'
p258
S'echocardiographic'
p259
S'JJ'
p260
S'I-NP'
p261
g5
tp262
a(S'methodologies'
p263
S'methodology'
p264
S'NNS'
p265
S'I-NP'
p266
g5
tp267
a(S'used'
p268
S'use'
p269
S'VBN'
p270
S'B-VP'
p271
g5
tp272
a(S'by'
p273
S'by'
p274
S'IN'
p275
S'B-PP'
p276
g5
tp277
a(S'separate'
p278
S'separate'
p279
S'JJ'
p280
S'B-NP'
p281
g5
tp282
a(S'core'
p283
S'core'
p284
S'NN'
p285
S'I-NP'
p286
g5
tp287
a(S'laboratories.'
p288
S'laboratories.'
p289
S'NN'
p290
S'I-NP'
p291
g5
tp292
a(S'To'
p293
S'To'
p294
S'TO'
p295
S'B-VP'
p296
g5
tp297
a(S'further'
p298
S'further'
p299
S'RB'
p300
S'I-VP'
p301
g5
tp302
a(S'explore'
p303
S'explore'
p304
S'VB'
p305
S'I-VP'
p306
g5
tp307
a(S'the'
p308
S'the'
p309
S'DT'
p310
S'B-NP'
p311
g5
tp312
a(S'variability'
p313
S'variability'
p314
S'NN'
p315
S'I-NP'
p316
g5
tp317
a(S'in'
p318
S'in'
p319
S'IN'
p320
S'B-PP'
p321
g5
tp322
a(S'echocardiographic'
p323
S'echocardiographic'
p324
S'JJ'
p325
S'B-NP'
p326
g5
tp327
a(S'interpretation'
p328
S'interpretation'
p329
S'NN'
p330
S'I-NP'
p331
g5
tp332
a(S'of'
p333
S'of'
p334
S'IN'
p335
S'B-PP'
p336
g5
tp337
a(S'PAR'
p338
S'PAR'
p339
S'NN'
p340
S'B-NP'
p341
S'B-protein'
p342
tp343
a(g226
g226
g226
g5
g5
tp344
a(S'agreement'
p345
S'agreement'
p346
S'NN'
p347
S'B-NP'
p348
g5
tp349
a(S'between'
p350
S'between'
p351
S'IN'
p352
S'B-PP'
p353
g5
tp354
a(S'the'
p355
S'the'
p356
S'DT'
p357
S'B-NP'
p358
g5
tp359
a(S'grading'
p360
S'grading'
p361
S'NN'
p362
S'I-NP'
p363
g5
tp364
a(S'of'
p365
S'of'
p366
S'IN'
p367
S'B-PP'
p368
g5
tp369
a(S'PAR'
p370
S'PAR'
p371
S'NN'
p372
S'B-NP'
p373
S'B-protein'
p374
tp375
a(S'by'
p376
S'by'
p377
S'IN'
p378
S'B-PP'
p379
g5
tp380
a(S'the'
p381
S'the'
p382
S'DT'
p383
S'B-NP'
p384
g5
tp385
a(S'core'
p386
S'core'
p387
S'NN'
p388
S'I-NP'
p389
g5
tp390
a(S'laboratory'
p391
S'laboratory'
p392
S'NN'
p393
S'I-NP'
p394
g5
tp395
a(S'of'
p396
S'of'
p397
S'IN'
p398
S'B-PP'
p399
g5
tp400
a(S'PARTNER'
p401
S'PARTNER'
p402
S'NN'
p403
S'B-NP'
p404
S'B-protein'
p405
tp406
a(S'IIB'
p407
S'IIB'
p408
S'NN'
p409
S'I-NP'
p410
S'I-protein'
p411
tp412
a(S'was'
p413
S'be'
p414
S'VBD'
p415
S'B-VP'
p416
g5
tp417
a(S'compared'
p418
S'compare'
p419
S'VBN'
p420
S'I-VP'
p421
g5
tp422
a(S'with'
p423
S'with'
p424
S'IN'
p425
S'B-PP'
p426
g5
tp427
a(S'that'
p428
S'that'
p429
S'DT'
p430
S'B-NP'
p431
g5
tp432
a(S'by'
p433
S'by'
p434
S'IN'
p435
S'B-PP'
p436
g5
tp437
a(S'a'
p438
g438
S'DT'
p439
S'B-NP'
p440
g5
tp441
a(S'consortium'
p442
S'consortium'
p443
S'NN'
p444
S'I-NP'
p445
g5
tp446
a(S'of'
p447
S'of'
p448
S'IN'
p449
S'B-PP'
p450
g5
tp451
a(S'echocardiography'
p452
S'echocardiography'
p453
S'NN'
p454
S'B-NP'
p455
g5
tp456
a(S'core'
p457
S'core'
p458
S'NN'
p459
S'I-NP'
p460
g5
tp461
a(S'laboratory'
p462
S'laboratory'
p463
S'NN'
p464
S'I-NP'
p465
g5
tp466
a(S'directors'
p467
S'director'
p468
S'NNS'
p469
S'I-NP'
p470
g5
tp471
a(g69
g69
g69
g5
g5
tp472
a(S'METHODS'
p473
S'METHODS'
p474
S'NNS'
p475
S'B-NP'
p476
g5
tp477
a(S'The'
p478
S'The'
p479
S'DT'
p480
S'B-NP'
p481
g5
tp482
a(S'PARTNER'
p483
S'PARTNER'
p484
S'NN'
p485
S'I-NP'
p486
g5
tp487
a(S'IIB'
p488
S'IIB'
p489
S'NN'
p490
S'I-NP'
p491
g5
tp492
a(S'core'
p493
S'core'
p494
S'NN'
p495
S'I-NP'
p496
g5
tp497
a(S'laboratory'
p498
S'laboratory'
p499
S'NN'
p500
S'I-NP'
p501
g5
tp502
a(S'reevaluated'
p503
S'reevaluate'
p504
S'VBD'
p505
S'B-VP'
p506
g5
tp507
a(S'patients'
p508
S'patient'
p509
S'NNS'
p510
S'B-NP'
p511
g5
tp512
a(S'using'
p513
S'use'
p514
S'VBG'
p515
S'B-VP'
p516
g5
tp517
a(S'primarily'
p518
S'primarily'
p519
S'RB'
p520
S'B-ADVP'
p521
g5
tp522
a(S'the'
p523
S'the'
p524
S'DT'
p525
S'B-NP'
p526
g5
tp527
a(S'circumferential'
p528
S'circumferential'
p529
S'JJ'
p530
S'I-NP'
p531
g5
tp532
a(S'extent'
p533
S'extent'
p534
S'NN'
p535
S'I-NP'
p536
g5
tp537
a(S'of'
p538
S'of'
p539
S'IN'
p540
S'B-PP'
p541
g5
tp542
a(S'the'
p543
S'the'
p544
S'DT'
p545
S'B-NP'
p546
g5
tp547
a(S'regurgitant'
p548
S'regurgitant'
p549
S'JJ'
p550
S'I-NP'
p551
g5
tp552
a(S'jet'
p553
S'jet'
p554
S'NN'
p555
S'I-NP'
p556
g5
tp557
a(S'for'
p558
S'for'
p559
S'IN'
p560
S'B-PP'
p561
g5
tp562
a(S'PAR.'
p563
S'PAR.'
p564
S'NNP'
p565
S'B-NP'
p566
g5
tp567
a(S'A'
p568
g568
S'NNP'
p569
S'I-NP'
p570
g5
tp571
a(S'consortium'
p572
S'consortium'
p573
S'NN'
p574
S'I-NP'
p575
g5
tp576
a(S'of'
p577
S'of'
p578
S'IN'
p579
S'B-PP'
p580
g5
tp581
a(S'echocardiography'
p582
S'echocardiography'
p583
S'NN'
p584
S'B-NP'
p585
g5
tp586
a(S'core'
p587
S'core'
p588
S'NN'
p589
S'I-NP'
p590
g5
tp591
a(S'laboratory'
p592
S'laboratory'
p593
S'NN'
p594
S'I-NP'
p595
g5
tp596
a(S'directors'
p597
S'director'
p598
S'NNS'
p599
S'I-NP'
p600
g5
tp601
a(S'was'
p602
S'be'
p603
S'VBD'
p604
S'B-VP'
p605
g5
tp606
a(S'formed'
p607
S'form'
p608
S'VBN'
p609
S'I-VP'
p610
g5
tp611
a(S'to'
p612
S'to'
p613
S'TO'
p614
S'I-VP'
p615
g5
tp616
a(S'evaluate'
p617
S'evaluate'
p618
S'VB'
p619
S'I-VP'
p620
g5
tp621
a(S'the'
p622
S'the'
p623
S'DT'
p624
S'B-NP'
p625
g5
tp626
a(S'echocardiographic'
p627
S'echocardiographic'
p628
S'JJ'
p629
S'I-NP'
p630
g5
tp631
a(S'images'
p632
S'image'
p633
S'NNS'
p634
S'I-NP'
p635
g5
tp636
a(S'and'
p637
S'and'
p638
S'CC'
p639
S'B-PP'
p640
g5
tp641
a(S'to'
p642
S'to'
p643
S'TO'
p644
S'B-PP'
p645
g5
tp646
a(S'grade'
p647
S'grade'
p648
S'NN'
p649
S'B-NP'
p650
S'B-protein'
p651
tp652
a(S'PAR'
p653
S'PAR'
p654
S'NN'
p655
S'I-NP'
p656
S'I-protein'
p657
tp658
a(S'and'
p659
S'and'
p660
S'CC'
p661
g5
g5
tp662
a(S'central'
p663
S'central'
p664
S'JJ'
p665
S'B-NP'
p666
g5
tp667
a(S'and'
p668
S'and'
p669
S'CC'
p670
S'I-NP'
p671
g5
tp672
a(S'total'
p673
S'total'
p674
S'JJ'
p675
S'I-NP'
p676
g5
tp677
a(S'aortic'
p678
S'aortic'
p679
S'JJ'
p680
S'I-NP'
p681
g5
tp682
a(S'regurgitation'
p683
S'regurgitation'
p684
S'NN'
p685
S'I-NP'
p686
g5
tp687
a(S'in'
p688
S'in'
p689
S'IN'
p690
S'B-PP'
p691
g5
tp692
a(g438
g438
S'DT'
p693
S'B-NP'
p694
g5
tp695
a(S'randomly'
p696
S'randomly'
p697
S'RB'
p698
S'I-NP'
p699
g5
tp700
a(S'chosen'
p701
S'choose'
p702
S'VBN'
p703
S'I-NP'
p704
g5
tp705
a(S'subset'
p706
S'subset'
p707
S'NN'
p708
S'I-NP'
p709
g5
tp710
a(S'of'
p711
S'of'
p712
S'IN'
p713
S'B-PP'
p714
g5
tp715
a(S'the'
p716
S'the'
p717
S'DT'
p718
S'B-NP'
p719
g5
tp720
a(S'randomized'
p721
S'randomize'
p722
S'VBN'
p723
S'I-NP'
p724
g5
tp725
a(S'patients'
p726
S'patient'
p727
S'NNS'
p728
S'I-NP'
p729
g5
tp730
a(S'in'
p731
S'in'
p732
S'IN'
p733
S'B-PP'
p734
g5
tp735
a(S'the'
p736
S'the'
p737
S'DT'
p738
S'B-NP'
p739
g5
tp740
a(S'PARTNER'
p741
S'PARTNER'
p742
S'NN'
p743
S'I-NP'
p744
g5
tp745
a(S'IIB'
p746
S'IIB'
p747
S'NN'
p748
S'I-NP'
p749
g5
tp750
a(S'trial'
p751
S'trial'
p752
S'NN'
p753
S'I-NP'
p754
g5
tp755
a(S'using'
p756
S'use'
p757
S'VBG'
p758
S'B-VP'
p759
g5
tp760
a(g438
g438
S'DT'
p761
S'B-NP'
p762
g5
tp763
a(S'multiwindow'
p764
S'multiwindow'
p765
S'JJ'
p766
S'I-NP'
p767
g5
tp768
a(g226
g226
g226
S'I-NP'
p769
g5
tp770
a(S'multiparametric'
p771
S'multiparametric'
p772
S'JJ'
p773
S'I-NP'
p774
g5
tp775
a(S'approach.'
p776
S'approach.'
p777
S'NN'
p778
S'I-NP'
p779
g5
tp780
a(S'Both'
p781
S'Both'
p782
S'CC'
p783
g5
g5
tp784
a(g438
g438
S'DT'
p785
S'B-NP'
p786
g5
tp787
a(S'four-class'
p788
S'four-class'
p789
S'JJ'
p790
S'I-NP'
p791
g5
tp792
a(S'scale'
p793
S'scale'
p794
S'NN'
p795
S'I-NP'
p796
g5
tp797
a(g151
g151
g151
g5
g5
tp798
a(S'none'
p799
S'none'
p800
S'NN'
p801
S'B-NP'
p802
g5
tp803
a(S'or'
p804
S'or'
p805
S'CC'
p806
g5
g5
tp807
a(S'trace'
p808
S'trace'
p809
S'NN'
p810
S'B-NP'
p811
g5
tp812
a(g226
g226
g226
g5
g5
tp813
a(S'mild'
p814
S'mild'
p815
S'JJ'
p816
S'B-NP'
p817
g5
tp818
a(g226
g226
g226
S'I-NP'
p819
g5
tp820
a(S'moderate'
p821
S'moderate'
p822
S'JJ'
p823
S'I-NP'
p824
g5
tp825
a(g226
g226
g226
g5
g5
tp826
a(S'and'
p827
S'and'
p828
S'CC'
p829
g5
g5
tp830
a(S'severe'
p831
S'severe'
p832
S'JJ'
p833
S'B-ADJP'
p834
g5
tp835
a(g159
g159
g159
g5
g5
tp836
a(S'and'
p837
S'and'
p838
S'CC'
p839
g5
g5
tp840
a(g438
g438
S'DT'
p841
S'B-NP'
p842
g5
tp843
a(S'seven-class'
p844
S'seven-class'
p845
S'JJ'
p846
S'I-NP'
p847
g5
tp848
a(g151
g151
g151
g5
g5
tp849
a(S'none'
p850
S'none'
p851
S'NN'
p852
S'B-NP'
p853
g5
tp854
a(g226
g226
g226
g5
g5
tp855
a(S'trace'
p856
S'trace'
p857
S'NN'
p858
S'B-NP'
p859
g5
tp860
a(g226
g226
g226
g5
g5
tp861
a(S'mild'
p862
S'mild'
p863
S'JJ'
p864
S'B-ADJP'
p865
g5
tp866
a(g226
g226
g226
g5
g5
tp867
a(S'mild'
p868
S'mild'
p869
S'JJ'
p870
S'B-ADJP'
p871
g5
tp872
a(S'to'
p873
S'to'
p874
S'TO'
p875
S'B-PP'
p876
g5
tp877
a(S'moderate'
p878
S'moderate'
p879
S'JJ'
p880
S'B-NP'
p881
g5
tp882
a(g226
g226
g226
S'I-NP'
p883
g5
tp884
a(S'moderate'
p885
S'moderate'
p886
S'JJ'
p887
S'I-NP'
p888
g5
tp889
a(g226
g226
g226
S'I-NP'
p890
g5
tp891
a(S'moderate'
p892
S'moderate'
p893
S'JJ'
p894
S'I-NP'
p895
g5
tp896
a(S'to'
p897
S'to'
p898
S'TO'
p899
S'B-VP'
p900
g5
tp901
a(S'severe'
p902
S'severe'
p903
S'VB'
p904
S'I-VP'
p905
g5
tp906
a(g226
g226
g226
g5
g5
tp907
a(S'and'
p908
S'and'
p909
S'CC'
p910
g5
g5
tp911
a(S'severe'
p912
S'severe'
p913
S'JJ'
p914
S'B-ADJP'
p915
g5
tp916
a(g159
g159
g159
g5
g5
tp917
a(S'scale'
p918
S'scale'
p919
S'NN'
p920
S'B-NP'
p921
g5
tp922
a(S'were'
p923
S'be'
p924
S'VBD'
p925
S'B-VP'
p926
g5
tp927
a(S'used.'
p928
S'used.'
p929
S'VBN'
p930
S'I-VP'
p931
g5
tp932
a(S'Levels'
p933
S'Level'
p934
S'NNS'
p935
S'B-NP'
p936
g5
tp937
a(S'of'
p938
S'of'
p939
S'IN'
p940
S'B-PP'
p941
g5
tp942
a(S'grading'
p943
S'grade'
p944
S'VBG'
p945
S'B-VP'
p946
g5
tp947
a(S'agreement'
p948
S'agreement'
p949
S'NN'
p950
S'B-NP'
p951
g5
tp952
a(S'between'
p953
S'between'
p954
S'IN'
p955
S'B-PP'
p956
g5
tp957
a(S'the'
p958
S'the'
p959
S'DT'
p960
S'B-NP'
p961
g5
tp962
a(S'consortium'
p963
S'consortium'
p964
S'NN'
p965
S'I-NP'
p966
g5
tp967
a(S'and'
p968
S'and'
p969
S'CC'
p970
S'I-NP'
p971
g5
tp972
a(S'original'
p973
S'original'
p974
S'JJ'
p975
S'I-NP'
p976
g5
tp977
a(S'core'
p978
S'core'
p979
S'NN'
p980
S'I-NP'
p981
g5
tp982
a(S'laboratory'
p983
S'laboratory'
p984
S'NN'
p985
S'I-NP'
p986
g5
tp987
a(S'in'
p988
S'in'
p989
S'IN'
p990
S'B-PP'
p991
g5
tp992
a(S'both'
p993
S'both'
p994
S'DT'
p995
S'B-NP'
p996
g5
tp997
a(S'scales'
p998
S'scale'
p999
S'NNS'
p1000
S'I-NP'
p1001
g5
tp1002
a(S'were'
p1003
S'be'
p1004
S'VBD'
p1005
S'B-VP'
p1006
g5
tp1007
a(S'determined'
p1008
S'determine'
p1009
S'VBN'
p1010
S'I-VP'
p1011
g5
tp1012
a(S'using'
p1013
S'use'
p1014
S'VBG'
p1015
S'B-VP'
p1016
g5
tp1017
a(S'weighted'
p1018
S'weighted'
p1019
S'JJ'
p1020
S'B-NP'
p1021
g5
tp1022
a(S'\xce\xba'
p1023
S'\xce\xba'
p1024
S'NN'
p1025
S'I-NP'
p1026
g5
tp1027
a(S'statistics'
p1028
S'statistic'
p1029
S'NNS'
p1030
S'I-NP'
p1031
g5
tp1032
a(g69
g69
g69
g5
g5
tp1033
a(S'RESULTS'
p1034
S'RESULTS'
p1035
S'NNS'
p1036
S'B-NP'
p1037
g5
tp1038
a(S'Only'
p1039
S'Only'
p1040
S'RB'
p1041
S'B-NP'
p1042
g5
tp1043
a(S'87'
p1044
S'87'
p1045
S'CD'
p1046
S'I-NP'
p1047
g5
tp1048
a(S'patients'
p1049
S'patient'
p1050
S'NNS'
p1051
S'I-NP'
p1052
g5
tp1053
a(S'assessed'
p1054
S'assess'
p1055
S'VBN'
p1056
S'B-VP'
p1057
g5
tp1058
a(S'for'
p1059
S'for'
p1060
S'IN'
p1061
S'B-PP'
p1062
g5
tp1063
a(S'PAR'
p1064
S'PAR'
p1065
S'NN'
p1066
S'B-NP'
p1067
S'B-protein'
p1068
tp1069
a(S'by'
p1070
S'by'
p1071
S'IN'
p1072
S'B-PP'
p1073
g5
tp1074
a(S'the'
p1075
S'the'
p1076
S'DT'
p1077
S'B-NP'
p1078
g5
tp1079
a(S'consortium'
p1080
S'consortium'
p1081
S'NN'
p1082
S'I-NP'
p1083
g5
tp1084
a(S'could'
p1085
S'could'
p1086
S'MD'
p1087
S'B-VP'
p1088
g5
tp1089
a(S'be'
p1090
S'be'
p1091
S'VB'
p1092
S'I-VP'
p1093
g5
tp1094
a(S'paired'
p1095
S'pair'
p1096
S'VBN'
p1097
S'I-VP'
p1098
g5
tp1099
a(S'with'
p1100
S'with'
p1101
S'IN'
p1102
S'B-PP'
p1103
g5
tp1104
a(S'readings'
p1105
S'reading'
p1106
S'NNS'
p1107
S'B-NP'
p1108
g5
tp1109
a(S'by'
p1110
S'by'
p1111
S'IN'
p1112
S'B-PP'
p1113
g5
tp1114
a(S'the'
p1115
S'the'
p1116
S'DT'
p1117
S'B-NP'
p1118
g5
tp1119
a(S'PARTNER'
p1120
S'PARTNER'
p1121
S'NN'
p1122
S'I-NP'
p1123
g5
tp1124
a(S'IIB'
p1125
S'IIB'
p1126
S'NN'
p1127
S'I-NP'
p1128
g5
tp1129
a(S'core'
p1130
S'core'
p1131
S'NN'
p1132
S'I-NP'
p1133
g5
tp1134
a(S'laboratory.'
p1135
S'laboratory.'
p1136
S'NN'
p1137
S'I-NP'
p1138
g5
tp1139
a(S'Using'
p1140
S'Use'
p1141
S'VBG'
p1142
S'B-VP'
p1143
g5
tp1144
a(S'the'
p1145
S'the'
p1146
S'DT'
p1147
S'B-NP'
p1148
g5
tp1149
a(S'four-class'
p1150
S'four-class'
p1151
S'JJ'
p1152
S'I-NP'
p1153
g5
tp1154
a(S'grading'
p1155
S'grading'
p1156
S'NN'
p1157
S'I-NP'
p1158
g5
tp1159
a(S'scheme'
p1160
S'scheme'
p1161
S'NN'
p1162
S'I-NP'
p1163
g5
tp1164
a(S'the'
p1165
S'the'
p1166
S'DT'
p1167
S'B-NP'
p1168
g5
tp1169
a(S'weighted'
p1170
S'weighted'
p1171
S'JJ'
p1172
S'I-NP'
p1173
g5
tp1174
a(S'\xce\xba'
p1175
S'\xce\xba'
p1176
S'NN'
p1177
S'I-NP'
p1178
g5
tp1179
a(S'statistic'
p1180
S'statistic'
p1181
S'JJ'
p1182
S'B-ADJP'
p1183
g5
tp1184
a(S'for'
p1185
S'for'
p1186
S'IN'
p1187
S'B-PP'
p1188
g5
tp1189
a(S'PAR'
p1190
S'PAR'
p1191
S'NN'
p1192
S'B-NP'
p1193
S'B-protein'
p1194
tp1195
a(S'was'
p1196
S'be'
p1197
S'VBD'
p1198
S'B-VP'
p1199
g5
tp1200
a(S'0.481'
p1201
S'0.481'
p1202
S'CD'
p1203
S'B-NP'
p1204
g5
tp1205
a(g151
g151
g151
g5
g5
tp1206
a(S'95'
p1207
S'95'
p1208
S'CD'
p1209
S'B-NP'
p1210
g5
tp1211
a(S'%'
p1212
g1212
S'NN'
p1213
S'I-NP'
p1214
g5
tp1215
a(S'confidence'
p1216
S'confidence'
p1217
S'NN'
p1218
S'I-NP'
p1219
g5
tp1220
a(S'limits'
p1221
S'limit'
p1222
S'NNS'
p1223
S'I-NP'
p1224
g5
tp1225
a(g226
g226
g226
g5
g5
tp1226
a(S'0.367'
p1227
S'0.367'
p1228
S'CD'
p1229
S'B-NP'
p1230
g5
tp1231
a(g226
g226
g226
S'I-NP'
p1232
g5
tp1233
a(S'0.595'
p1234
S'0.595'
p1235
S'CD'
p1236
S'I-NP'
p1237
g5
tp1238
a(g159
g159
g159
g5
g5
tp1239
a(g69
g69
g69
g5
g5
tp1240
a(S'Using'
p1241
S'Use'
p1242
S'VBG'
p1243
S'B-VP'
p1244
g5
tp1245
a(S'the'
p1246
S'the'
p1247
S'DT'
p1248
S'B-NP'
p1249
g5
tp1250
a(S'seven-class'
p1251
S'seven-class'
p1252
S'JJ'
p1253
S'I-NP'
p1254
g5
tp1255
a(S'scale'
p1256
S'scale'
p1257
S'NN'
p1258
S'I-NP'
p1259
g5
tp1260
a(g226
g226
g226
g5
g5
tp1261
a(S'the'
p1262
S'the'
p1263
S'DT'
p1264
S'B-NP'
p1265
g5
tp1266
a(S'weighted'
p1267
S'weighted'
p1268
S'JJ'
p1269
S'I-NP'
p1270
g5
tp1271
a(S'\xce\xba'
p1272
S'\xce\xba'
p1273
S'NN'
p1274
S'I-NP'
p1275
g5
tp1276
a(S'statistic'
p1277
S'statistic'
p1278
S'JJ'
p1279
S'B-ADJP'
p1280
g5
tp1281
a(S'for'
p1282
S'for'
p1283
S'IN'
p1284
S'B-PP'
p1285
g5
tp1286
a(S'PAR'
p1287
S'PAR'
p1288
S'NN'
p1289
S'B-NP'
p1290
S'B-protein'
p1291
tp1292
a(S'was'
p1293
S'be'
p1294
S'VBD'
p1295
S'B-VP'
p1296
g5
tp1297
a(S'0.517'
p1298
S'0.517'
p1299
S'CD'
p1300
S'B-NP'
p1301
g5
tp1302
a(g151
g151
g151
g5
g5
tp1303
a(S'95'
p1304
S'95'
p1305
S'CD'
p1306
S'B-NP'
p1307
g5
tp1308
a(g1212
g1212
S'NN'
p1309
S'I-NP'
p1310
g5
tp1311
a(S'confidence'
p1312
S'confidence'
p1313
S'NN'
p1314
S'I-NP'
p1315
g5
tp1316
a(S'limits'
p1317
S'limit'
p1318
S'NNS'
p1319
S'I-NP'
p1320
g5
tp1321
a(g226
g226
g226
g5
g5
tp1322
a(S'0.431'
p1323
S'0.431'
p1324
S'CD'
p1325
S'B-NP'
p1326
g5
tp1327
a(g226
g226
g226
S'I-NP'
p1328
g5
tp1329
a(S'0.607'
p1330
S'0.607'
p1331
S'CD'
p1332
S'I-NP'
p1333
g5
tp1334
a(g159
g159
g159
g5
g5
tp1335
a(g69
g69
g69
g5
g5
tp1336
a(S'For'
p1337
S'For'
p1338
S'IN'
p1339
S'B-PP'
p1340
g5
tp1341
a(S'either'
p1342
S'either'
p1343
S'CC'
p1344
g5
g5
tp1345
a(S'grading'
p1346
S'grade'
p1347
S'VBG'
p1348
S'B-VP'
p1349
g5
tp1350
a(S'scheme'
p1351
S'scheme'
p1352
S'NN'
p1353
S'B-NP'
p1354
g5
tp1355
a(g226
g226
g226
g5
g5
tp1356
a(S'15.9'
p1357
S'15.9'
p1358
S'CD'
p1359
S'B-NP'
p1360
g5
tp1361
a(g1212
g1212
S'NN'
p1362
S'I-NP'
p1363
g5
tp1364
a(S'of'
p1365
S'of'
p1366
S'IN'
p1367
S'B-PP'
p1368
g5
tp1369
a(S'patients'
p1370
S'patient'
p1371
S'NNS'
p1372
S'B-NP'
p1373
g5
tp1374
a(S'graded'
p1375
S'grade'
p1376
S'VBN'
p1377
S'B-VP'
p1378
g5
tp1379
a(S'by'
p1380
S'by'
p1381
S'IN'
p1382
S'B-PP'
p1383
g5
tp1384
a(S'the'
p1385
S'the'
p1386
S'DT'
p1387
S'B-NP'
p1388
g5
tp1389
a(S'PARTNER'
p1390
S'PARTNER'
p1391
S'NN'
p1392
S'I-NP'
p1393
g5
tp1394
a(S'IIB'
p1395
S'IIB'
p1396
S'NN'
p1397
S'I-NP'
p1398
g5
tp1399
a(S'core'
p1400
S'core'
p1401
S'NN'
p1402
S'I-NP'
p1403
g5
tp1404
a(S'laboratory'
p1405
S'laboratory'
p1406
S'NN'
p1407
S'I-NP'
p1408
g5
tp1409
a(S'as'
p1410
S'as'
p1411
S'IN'
p1412
S'B-PP'
p1413
g5
tp1414
a(S'having'
p1415
S'have'
p1416
S'VBG'
p1417
S'B-VP'
p1418
g5
tp1419
a(S'moderate'
p1420
S'moderate'
p1421
S'JJ'
p1422
S'B-NP'
p1423
g5
tp1424
a(S'PAR'
p1425
S'PAR'
p1426
S'NN'
p1427
S'I-NP'
p1428
S'B-protein'
p1429
tp1430
a(S'would'
p1431
S'would'
p1432
S'MD'
p1433
S'B-VP'
p1434
g5
tp1435
a(S'have'
p1436
S'have'
p1437
S'VB'
p1438
S'I-VP'
p1439
g5
tp1440
a(S'been'
p1441
S'be'
p1442
S'VBN'
p1443
S'I-VP'
p1444
g5
tp1445
a(S'graded'
p1446
S'grade'
p1447
S'VBN'
p1448
S'I-VP'
p1449
g5
tp1450
a(S'as'
p1451
S'as'
p1452
S'IN'
p1453
S'B-PP'
p1454
g5
tp1455
a(S'having'
p1456
S'have'
p1457
S'VBG'
p1458
S'B-VP'
p1459
g5
tp1460
a(S'mild'
p1461
S'mild'
p1462
S'JJ'
p1463
S'B-NP'
p1464
g5
tp1465
a(S'PAR'
p1466
S'PAR'
p1467
S'NN'
p1468
S'I-NP'
p1469
g5
tp1470
a(S'using'
p1471
S'use'
p1472
S'VBG'
p1473
S'B-VP'
p1474
g5
tp1475
a(S'the'
p1476
S'the'
p1477
S'DT'
p1478
S'B-NP'
p1479
g5
tp1480
a(S'multiparametric'
p1481
S'multiparametric'
p1482
S'JJ'
p1483
S'I-NP'
p1484
g5
tp1485
a(S'approach.'
p1486
S'approach.'
p1487
S'NN'
p1488
S'I-NP'
p1489
g5
tp1490
a(S'Similar'
p1491
S'Similar'
p1492
S'JJ'
p1493
S'I-NP'
p1494
g5
tp1495
a(S'results'
p1496
S'result'
p1497
S'NNS'
p1498
S'I-NP'
p1499
g5
tp1500
a(S'were'
p1501
S'be'
p1502
S'VBD'
p1503
S'B-VP'
p1504
g5
tp1505
a(S'seen'
p1506
S'see'
p1507
S'VBN'
p1508
S'I-VP'
p1509
g5
tp1510
a(S'for'
p1511
S'for'
p1512
S'IN'
p1513
S'B-PP'
p1514
g5
tp1515
a(S'central'
p1516
S'central'
p1517
S'JJ'
p1518
S'B-NP'
p1519
g5
tp1520
a(S'and'
p1521
S'and'
p1522
S'CC'
p1523
S'I-NP'
p1524
g5
tp1525
a(S'total'
p1526
S'total'
p1527
S'JJ'
p1528
S'I-NP'
p1529
g5
tp1530
a(S'aortic'
p1531
S'aortic'
p1532
S'JJ'
p1533
S'I-NP'
p1534
g5
tp1535
a(S'regurgitation'
p1536
S'regurgitation'
p1537
S'NN'
p1538
S'I-NP'
p1539
g5
tp1540
a(S'assessments'
p1541
S'assessment'
p1542
S'NNS'
p1543
S'I-NP'
p1544
g5
tp1545
a(g69
g69
g69
g5
g5
tp1546
a(S'CONCLUSIONS'
p1547
S'CONCLUSIONS'
p1548
S'NNS'
p1549
S'B-NP'
p1550
g5
tp1551
a(S'Using'
p1552
S'Use'
p1553
S'VBG'
p1554
S'B-VP'
p1555
g5
tp1556
a(S'primarily'
p1557
S'primarily'
p1558
S'RB'
p1559
S'B-ADVP'
p1560
g5
tp1561
a(S'the'
p1562
S'the'
p1563
S'DT'
p1564
S'B-NP'
p1565
g5
tp1566
a(S'circumferential'
p1567
S'circumferential'
p1568
S'JJ'
p1569
S'I-NP'
p1570
g5
tp1571
a(S'extent'
p1572
S'extent'
p1573
S'NN'
p1574
S'I-NP'
p1575
g5
tp1576
a(S'criteria'
p1577
S'criterion'
p1578
S'NNS'
p1579
S'I-NP'
p1580
g5
tp1581
a(g226
g226
g226
g5
g5
tp1582
a(S'the'
p1583
S'the'
p1584
S'DT'
p1585
S'B-NP'
p1586
g5
tp1587
a(S'PARTNER'
p1588
S'PARTNER'
p1589
S'NN'
p1590
S'I-NP'
p1591
g5
tp1592
a(S'IIB'
p1593
S'IIB'
p1594
S'NN'
p1595
S'I-NP'
p1596
g5
tp1597
a(S'core'
p1598
S'core'
p1599
S'NN'
p1600
S'I-NP'
p1601
g5
tp1602
a(S'laboratory'
p1603
S'laboratory'
p1604
S'NN'
p1605
S'I-NP'
p1606
g5
tp1607
a(S'overestimated'
p1608
S'overestimate'
p1609
S'VBD'
p1610
S'B-VP'
p1611
g5
tp1612
a(S'the'
p1613
S'the'
p1614
S'DT'
p1615
S'B-NP'
p1616
g5
tp1617
a(S'severity'
p1618
S'severity'
p1619
S'NN'
p1620
S'I-NP'
p1621
g5
tp1622
a(S'of'
p1623
S'of'
p1624
S'IN'
p1625
S'B-PP'
p1626
g5
tp1627
a(S'PAR'
p1628
S'PAR'
p1629
S'NN'
p1630
S'B-NP'
p1631
S'B-protein'
p1632
tp1633
a(S'compared'
p1634
S'compare'
p1635
S'VBN'
p1636
S'B-VP'
p1637
g5
tp1638
a(S'to'
p1639
S'to'
p1640
S'TO'
p1641
S'B-PP'
p1642
g5
tp1643
a(S'the'
p1644
S'the'
p1645
S'DT'
p1646
S'B-NP'
p1647
g5
tp1648
a(S'consortium'
p1649
S'consortium'
p1650
S'NN'
p1651
S'I-NP'
p1652
g5
tp1653
a(S'using'
p1654
S'use'
p1655
S'VBG'
p1656
S'B-VP'
p1657
g5
tp1658
a(g438
g438
S'DT'
p1659
S'B-NP'
p1660
g5
tp1661
a(S'multi-parametric'
p1662
S'multi-parametric'
p1663
S'JJ'
p1664
S'I-NP'
p1665
g5
tp1666
a(S'approach.'
p1667
S'approach.'
p1668
S'NN'
p1669
S'I-NP'
p1670
g5
tp1671
a(S'Although'
p1672
S'Although'
p1673
S'IN'
p1674
S'B-PP'
p1675
g5
tp1676
a(g438
g438
S'DT'
p1677
S'B-NP'
p1678
g5
tp1679
a(S'more'
p1680
S'more'
p1681
S'RBR'
p1682
S'I-NP'
p1683
g5
tp1684
a(S'granular'
p1685
S'granular'
p1686
S'JJ'
p1687
S'I-NP'
p1688
g5
tp1689
a(S'classification'
p1690
S'classification'
p1691
S'NN'
p1692
S'I-NP'
p1693
g5
tp1694
a(S'scheme'
p1695
S'scheme'
p1696
S'NN'
p1697
S'I-NP'
p1698
g5
tp1699
a(S'for'
p1700
S'for'
p1701
S'IN'
p1702
S'B-PP'
p1703
g5
tp1704
a(S'PAR'
p1705
S'PAR'
p1706
S'NN'
p1707
S'B-NP'
p1708
S'B-protein'
p1709
tp1710
a(S'may'
p1711
S'may'
p1712
S'MD'
p1713
S'B-VP'
p1714
g5
tp1715
a(S'slightly'
p1716
S'slightly'
p1717
S'RB'
p1718
S'I-VP'
p1719
g5
tp1720
a(S'improve'
p1721
S'improve'
p1722
S'VB'
p1723
S'I-VP'
p1724
g5
tp1725
a(S'concordance'
p1726
S'concordance'
p1727
S'NN'
p1728
S'B-NP'
p1729
g5
tp1730
a(S'between'
p1731
S'between'
p1732
S'IN'
p1733
S'B-PP'
p1734
g5
tp1735
a(S'core'
p1736
S'core'
p1737
S'NN'
p1738
S'B-NP'
p1739
g5
tp1740
a(S'laboratories'
p1741
S'laboratory'
p1742
S'NNS'
p1743
S'I-NP'
p1744
g5
tp1745
a(g226
g226
g226
g5
g5
tp1746
a(S'differences'
p1747
S'difference'
p1748
S'NNS'
p1749
S'B-NP'
p1750
g5
tp1751
a(S'in'
p1752
S'in'
p1753
S'IN'
p1754
S'B-PP'
p1755
g5
tp1756
a(S'the'
p1757
S'the'
p1758
S'DT'
p1759
S'B-NP'
p1760
g5
tp1761
a(S'incidence'
p1762
S'incidence'
p1763
S'NN'
p1764
S'I-NP'
p1765
g5
tp1766
a(S'of'
p1767
S'of'
p1768
S'IN'
p1769
S'B-PP'
p1770
g5
tp1771
a(S'moderate'
p1772
S'moderate'
p1773
S'JJ'
p1774
S'B-NP'
p1775
g5
tp1776
a(S'or'
p1777
S'or'
p1778
S'CC'
p1779
S'I-NP'
p1780
g5
tp1781
a(S'severe'
p1782
S'severe'
p1783
S'JJ'
p1784
S'I-NP'
p1785
g5
tp1786
a(S'PAR'
p1787
S'PAR'
p1788
S'NN'
p1789
S'I-NP'
p1790
g5
tp1791
a(S'are'
p1792
S'be'
p1793
S'VBP'
p1794
S'B-VP'
p1795
g5
tp1796
a(S'likely'
p1797
S'likely'
p1798
S'RB'
p1799
S'B-ADJP'
p1800
g5
tp1801
a(S'related'
p1802
S'relate'
p1803
S'VBN'
p1804
S'I-ADJP'
p1805
g5
tp1806
a(S'to'
p1807
S'to'
p1808
S'TO'
p1809
S'B-PP'
p1810
g5
tp1811
a(S'differences'
p1812
S'difference'
p1813
S'NNS'
p1814
S'B-NP'
p1815
g5
tp1816
a(S'in'
p1817
S'in'
p1818
S'IN'
p1819
S'B-PP'
p1820
g5
tp1821
a(S'grading'
p1822
S'grade'
p1823
S'VBG'
p1824
S'B-VP'
p1825
g5
tp1826
a(S'methodology.'
p1827
S'methodology.'
p1828
S'NN'
p1829
S'B-NP'
p1830
g5
tp1831
a(g568
g568
S'NN'
p1832
S'I-NP'
p1833
g5
tp1834
a(S'multiparametric'
p1835
S'multiparametric'
p1836
S'JJ'
p1837
S'I-NP'
p1838
g5
tp1839
a(S'approach'
p1840
S'approach'
p1841
S'NN'
p1842
S'I-NP'
p1843
g5
tp1844
a(S'is'
p1845
S'be'
p1846
S'VBZ'
p1847
S'B-VP'
p1848
g5
tp1849
a(S'advocated'
p1850
S'advocate'
p1851
S'VBN'
p1852
S'I-VP'
p1853
g5
tp1854
a(g226
g226
g226
g5
g5
tp1855
a(S'and'
p1856
S'and'
p1857
S'CC'
p1858
g5
g5
tp1859
a(S'other'
p1860
S'other'
p1861
S'JJ'
p1862
S'B-NP'
p1863
g5
tp1864
a(S'echocardiographic'
p1865
S'echocardiographic'
p1866
S'JJ'
p1867
S'I-NP'
p1868
g5
tp1869
a(S'methods'
p1870
S'method'
p1871
S'NNS'
p1872
S'I-NP'
p1873
g5
tp1874
a(S'for'
p1875
S'for'
p1876
S'IN'
p1877
S'B-PP'
p1878
g5
tp1879
a(S'assessing'
p1880
S'assess'
p1881
S'VBG'
p1882
S'B-VP'
p1883
g5
tp1884
a(S'PAR'
p1885
S'PAR'
p1886
S'NN'
p1887
S'B-NP'
p1888
g5
tp1889
a(S'deserve'
p1890
S'deserve'
p1891
S'NN'
p1892
S'I-NP'
p1893
g5
tp1894
a(S'further'
p1895
S'further'
p1896
S'JJ'
p1897
S'I-NP'
p1898
g5
tp1899
a(S'study'
p1900
S'study'
p1901
S'NN'
p1902
S'I-NP'
p1903
g5
tp1904
a(g69
g69
g69
g5
g5
tp1905
a.