(lp0
(S'Feasibility'
p1
S'Feasibility'
p2
S'NN'
p3
S'B-NP'
p4
S'O'
p5
tp6
a(S'of'
p7
S'of'
p8
S'IN'
p9
S'B-PP'
p10
g5
tp11
a(S'a'
p12
g12
S'DT'
p13
S'B-NP'
p14
g5
tp15
a(S'sensory-adapted'
p16
S'sensory-adapted'
p17
S'JJ'
p18
S'I-NP'
p19
g5
tp20
a(S'dental'
p21
S'dental'
p22
S'JJ'
p23
S'I-NP'
p24
g5
tp25
a(S'environment'
p26
S'environment'
p27
S'NN'
p28
S'I-NP'
p29
g5
tp30
a(S'for'
p31
S'for'
p32
S'IN'
p33
S'B-PP'
p34
g5
tp35
a(S'children'
p36
S'child'
p37
S'NNS'
p38
S'B-NP'
p39
g5
tp40
a(S'with'
p41
S'with'
p42
S'IN'
p43
S'B-PP'
p44
g5
tp45
a(S'autism'
p46
S'autism'
p47
S'NN'
p48
S'B-NP'
p49
g5
tp50
a(S'.'
p51
g51
g51
g5
g5
tp52
a(S'OBJECTIVE'
p53
S'OBJECTIVE'
p54
S'NN'
p55
S'B-NP'
p56
g5
tp57
a(S'To'
p58
S'To'
p59
S'TO'
p60
S'B-VP'
p61
g5
tp62
a(S'provide'
p63
S'provide'
p64
S'VB'
p65
S'I-VP'
p66
g5
tp67
a(S'an'
p68
S'an'
p69
S'DT'
p70
S'B-NP'
p71
g5
tp72
a(S'example'
p73
S'example'
p74
S'NN'
p75
S'I-NP'
p76
g5
tp77
a(S'of'
p78
S'of'
p79
S'IN'
p80
S'B-PP'
p81
g5
tp82
a(S'an'
p83
S'an'
p84
S'DT'
p85
S'B-NP'
p86
g5
tp87
a(S'occupational'
p88
S'occupational'
p89
S'JJ'
p90
S'I-NP'
p91
g5
tp92
a(S'therapy'
p93
S'therapy'
p94
S'NN'
p95
S'I-NP'
p96
g5
tp97
a(S'feasibility'
p98
S'feasibility'
p99
S'NN'
p100
S'I-NP'
p101
g5
tp102
a(S'study'
p103
S'study'
p104
S'NN'
p105
S'I-NP'
p106
g5
tp107
a(S'and'
p108
S'and'
p109
S'CC'
p110
g5
g5
tp111
a(S'evaluate'
p112
S'evaluate'
p113
S'VB'
p114
S'B-VP'
p115
g5
tp116
a(S'the'
p117
S'the'
p118
S'DT'
p119
S'B-NP'
p120
g5
tp121
a(S'implementation'
p122
S'implementation'
p123
S'NN'
p124
S'I-NP'
p125
g5
tp126
a(S'of'
p127
S'of'
p128
S'IN'
p129
S'B-PP'
p130
g5
tp131
a(g12
g12
S'DT'
p132
S'B-NP'
p133
g5
tp134
a(S'randomized'
p135
S'randomize'
p136
S'VBN'
p137
S'I-NP'
p138
S'B-protein'
p139
tp140
a(S'controlled'
p141
S'control'
p142
S'VBN'
p143
S'I-NP'
p144
S'I-protein'
p145
tp146
a(S'pilot'
p147
S'pilot'
p148
S'NN'
p149
S'I-NP'
p150
S'I-protein'
p151
tp152
a(S'and'
p153
S'and'
p154
S'CC'
p155
S'I-NP'
p156
g5
tp157
a(S'feasibility'
p158
S'feasibility'
p159
S'NN'
p160
S'I-NP'
p161
g5
tp162
a(S'trial'
p163
S'trial'
p164
S'NN'
p165
S'I-NP'
p166
g5
tp167
a(S'examining'
p168
S'examine'
p169
S'VBG'
p170
S'B-VP'
p171
g5
tp172
a(S'the'
p173
S'the'
p174
S'DT'
p175
S'B-NP'
p176
g5
tp177
a(S'impact'
p178
S'impact'
p179
S'NN'
p180
S'I-NP'
p181
g5
tp182
a(S'of'
p183
S'of'
p184
S'IN'
p185
S'B-PP'
p186
g5
tp187
a(g12
g12
S'DT'
p188
S'B-NP'
p189
g5
tp190
a(S'sensory-adapted'
p191
S'sensory-adapted'
p192
S'JJ'
p193
S'I-NP'
p194
g5
tp195
a(S'dental'
p196
S'dental'
p197
S'JJ'
p198
S'I-NP'
p199
g5
tp200
a(S'environment'
p201
S'environment'
p202
S'NN'
p203
S'I-NP'
p204
g5
tp205
a(S'('
p206
g206
g206
g5
g5
tp207
a(S'SADE'
p208
S'SADE'
p209
S'NN'
p210
S'B-NP'
p211
g5
tp212
a(S')'
p213
g213
g213
g5
g5
tp214
a(S'to'
p215
S'to'
p216
S'TO'
p217
S'B-VP'
p218
g5
tp219
a(S'enhance'
p220
S'enhance'
p221
S'VB'
p222
S'I-VP'
p223
g5
tp224
a(S'oral'
p225
S'oral'
p226
S'JJ'
p227
S'B-NP'
p228
g5
tp229
a(S'care'
p230
S'care'
p231
S'NN'
p232
S'I-NP'
p233
g5
tp234
a(S'for'
p235
S'for'
p236
S'IN'
p237
S'B-PP'
p238
g5
tp239
a(S'children'
p240
S'child'
p241
S'NNS'
p242
S'B-NP'
p243
g5
tp244
a(S'with'
p245
S'with'
p246
S'IN'
p247
S'B-PP'
p248
g5
tp249
a(S'autism'
p250
S'autism'
p251
S'NN'
p252
S'B-NP'
p253
g5
tp254
a(S'spectrum'
p255
S'spectrum'
p256
S'NN'
p257
S'I-NP'
p258
g5
tp259
a(S'disorder'
p260
S'disorder'
p261
S'NN'
p262
S'I-NP'
p263
g5
tp264
a(g206
g206
g206
g5
g5
tp265
a(S'ASD'
p266
S'ASD'
p267
S'NN'
p268
S'B-NP'
p269
g5
tp270
a(g213
g213
g213
g5
g5
tp271
a(g51
g51
g51
g5
g5
tp272
a(S'METHOD'
p273
S'METHOD'
p274
S'NN'
p275
S'B-NP'
p276
g5
tp277
a(S'Twenty-two'
p278
S'Twenty-two'
p279
S'CD'
p280
S'B-NP'
p281
g5
tp282
a(S'children'
p283
S'child'
p284
S'NNS'
p285
S'I-NP'
p286
g5
tp287
a(S'with'
p288
S'with'
p289
S'IN'
p290
S'B-PP'
p291
g5
tp292
a(S'ASD'
p293
S'ASD'
p294
S'NN'
p295
S'B-NP'
p296
g5
tp297
a(S'and'
p298
S'and'
p299
S'CC'
p300
g5
g5
tp301
a(S'22'
p302
S'22'
p303
S'CD'
p304
S'B-NP'
p305
g5
tp306
a(S'typically'
p307
S'typically'
p308
S'RB'
p309
S'I-NP'
p310
g5
tp311
a(S'developing'
p312
S'develop'
p313
S'VBG'
p314
S'I-NP'
p315
g5
tp316
a(S'children'
p317
S'child'
p318
S'NNS'
p319
S'B-NP'
p320
g5
tp321
a(S','
p322
g322
g322
g5
g5
tp323
a(S'ages'
p324
S'age'
p325
S'NNS'
p326
S'B-NP'
p327
g5
tp328
a(S'6-12'
p329
S'6-12'
p330
S'CD'
p331
S'B-NP'
p332
g5
tp333
a(S'yr'
p334
S'yr'
p335
S'NN'
p336
S'I-NP'
p337
g5
tp338
a(g322
g322
g322
g5
g5
tp339
a(S'attended'
p340
S'attend'
p341
S'VBD'
p342
S'B-VP'
p343
g5
tp344
a(g12
g12
S'DT'
p345
S'B-NP'
p346
g5
tp347
a(S'dental'
p348
S'dental'
p349
S'JJ'
p350
S'I-NP'
p351
g5
tp352
a(S'clinic'
p353
S'clinic'
p354
S'NN'
p355
S'I-NP'
p356
g5
tp357
a(S'in'
p358
S'in'
p359
S'IN'
p360
S'B-PP'
p361
g5
tp362
a(S'an'
p363
S'an'
p364
S'DT'
p365
S'B-NP'
p366
g5
tp367
a(S'urban'
p368
S'urban'
p369
S'JJ'
p370
S'I-NP'
p371
g5
tp372
a(S'hospital.'
p373
S'hospital.'
p374
S'NN'
p375
S'I-NP'
p376
g5
tp377
a(S'Participants'
p378
S'Participant'
p379
S'NNS'
p380
S'I-NP'
p381
g5
tp382
a(S'completed'
p383
S'complete'
p384
S'VBD'
p385
S'B-VP'
p386
g5
tp387
a(S'two'
p388
S'two'
p389
S'CD'
p390
S'B-NP'
p391
g5
tp392
a(S'dental'
p393
S'dental'
p394
S'JJ'
p395
S'I-NP'
p396
g5
tp397
a(S'cleanings'
p398
S'cleaning'
p399
S'NNS'
p400
S'I-NP'
p401
g5
tp402
a(g322
g322
g322
g5
g5
tp403
a(S'3-4'
p404
S'3-4'
p405
S'CD'
p406
S'B-NP'
p407
g5
tp408
a(S'mo'
p409
S'mo'
p410
S'NN'
p411
S'I-NP'
p412
g5
tp413
a(S'apart'
p414
S'apart'
p415
S'RB'
p416
S'B-ADVP'
p417
g5
tp418
a(g322
g322
g322
g5
g5
tp419
a(S'one'
p420
S'one'
p421
S'CD'
p422
S'B-NP'
p423
g5
tp424
a(S'in'
p425
S'in'
p426
S'IN'
p427
S'B-PP'
p428
g5
tp429
a(g12
g12
S'DT'
p430
S'B-NP'
p431
g5
tp432
a(S'regular'
p433
S'regular'
p434
S'JJ'
p435
S'I-NP'
p436
g5
tp437
a(S'environment'
p438
S'environment'
p439
S'NN'
p440
S'I-NP'
p441
g5
tp442
a(S'and'
p443
S'and'
p444
S'CC'
p445
g5
g5
tp446
a(S'one'
p447
S'one'
p448
S'CD'
p449
S'B-NP'
p450
g5
tp451
a(S'in'
p452
S'in'
p453
S'IN'
p454
S'B-PP'
p455
g5
tp456
a(g12
g12
S'DT'
p457
S'B-NP'
p458
g5
tp459
a(S'SADE.'
p460
S'SADE.'
p461
S'NNP'
p462
S'I-NP'
p463
g5
tp464
a(S'Feasibility'
p465
S'Feasibility'
p466
S'NN'
p467
S'I-NP'
p468
g5
tp469
a(S'outcome'
p470
S'outcome'
p471
S'NN'
p472
S'I-NP'
p473
g5
tp474
a(S'measures'
p475
S'measure'
p476
S'NNS'
p477
S'I-NP'
p478
g5
tp479
a(S'were'
p480
S'be'
p481
S'VBD'
p482
S'B-VP'
p483
g5
tp484
a(S'recruitment'
p485
S'recruitment'
p486
S'NN'
p487
S'B-NP'
p488
g5
tp489
a(g322
g322
g322
g5
g5
tp490
a(S'retention'
p491
S'retention'
p492
S'NN'
p493
S'B-NP'
p494
g5
tp495
a(g322
g322
g322
g5
g5
tp496
a(S'accrual'
p497
S'accrual'
p498
S'NN'
p499
S'B-NP'
p500
g5
tp501
a(g322
g322
g322
g5
g5
tp502
a(S'dropout'
p503
S'dropout'
p504
S'NN'
p505
S'B-NP'
p506
g5
tp507
a(g322
g322
g322
g5
g5
tp508
a(S'and'
p509
S'and'
p510
S'CC'
p511
g5
g5
tp512
a(S'protocol'
p513
S'protocol'
p514
S'NN'
p515
S'B-NP'
p516
g5
tp517
a(S'adherence.'
p518
S'adherence.'
p519
S'NN'
p520
S'I-NP'
p521
g5
tp522
a(S'Intervention'
p523
S'Intervention'
p524
S'NN'
p525
S'I-NP'
p526
g5
tp527
a(S'outcome'
p528
S'outcome'
p529
S'NN'
p530
S'I-NP'
p531
g5
tp532
a(S'measures'
p533
S'measure'
p534
S'NNS'
p535
S'I-NP'
p536
g5
tp537
a(S'were'
p538
S'be'
p539
S'VBD'
p540
S'B-VP'
p541
g5
tp542
a(S'physiological'
p543
S'physiological'
p544
S'JJ'
p545
S'B-NP'
p546
g5
tp547
a(S'stress'
p548
S'stress'
p549
S'NN'
p550
S'I-NP'
p551
g5
tp552
a(g322
g322
g322
g5
g5
tp553
a(S'behavioral'
p554
S'behavioral'
p555
S'JJ'
p556
S'B-NP'
p557
g5
tp558
a(S'distress'
p559
S'distress'
p560
S'NN'
p561
S'I-NP'
p562
g5
tp563
a(g322
g322
g322
g5
g5
tp564
a(S'pain'
p565
S'pain'
p566
S'NN'
p567
S'B-NP'
p568
g5
tp569
a(g322
g322
g322
g5
g5
tp570
a(S'and'
p571
S'and'
p572
S'CC'
p573
g5
g5
tp574
a(S'cost'
p575
S'cost'
p576
S'NN'
p577
S'B-NP'
p578
g5
tp579
a(g51
g51
g51
g5
g5
tp580
a(S'RESULTS'
p581
S'RESULTS'
p582
S'NNS'
p583
S'B-NP'
p584
g5
tp585
a(S'We'
p586
S'We'
p587
S'PRP'
p588
S'B-NP'
p589
g5
tp590
a(S'successfully'
p591
S'successfully'
p592
S'RB'
p593
S'B-VP'
p594
g5
tp595
a(S'recruited'
p596
S'recruit'
p597
S'VBD'
p598
S'I-VP'
p599
g5
tp600
a(S'and'
p601
S'and'
p602
S'CC'
p603
S'I-VP'
p604
g5
tp605
a(S'retained'
p606
S'retain'
p607
S'VBD'
p608
S'I-VP'
p609
g5
tp610
a(S'participants.'
p611
S'participants.'
p612
S'NN'
p613
S'B-NP'
p614
g5
tp615
a(S'Parents'
p616
S'Parent'
p617
S'NNS'
p618
S'I-NP'
p619
g5
tp620
a(S'expressed'
p621
S'express'
p622
S'VBD'
p623
S'B-VP'
p624
g5
tp625
a(S'satisfaction'
p626
S'satisfaction'
p627
S'NN'
p628
S'B-NP'
p629
g5
tp630
a(S'with'
p631
S'with'
p632
S'IN'
p633
S'B-PP'
p634
g5
tp635
a(S'research'
p636
S'research'
p637
S'NN'
p638
S'B-NP'
p639
g5
tp640
a(S'study'
p641
S'study'
p642
S'NN'
p643
S'I-NP'
p644
g5
tp645
a(S'participation.'
p646
S'participation.'
p647
S'NN'
p648
S'I-NP'
p649
g5
tp650
a(S'Dentists'
p651
S'Dentist'
p652
S'NNS'
p653
S'I-NP'
p654
g5
tp655
a(S'stated'
p656
S'state'
p657
S'VBD'
p658
S'B-VP'
p659
g5
tp660
a(S'that'
p661
S'that'
p662
S'IN'
p663
S'B-SBAR'
p664
g5
tp665
a(S'the'
p666
S'the'
p667
S'DT'
p668
S'B-NP'
p669
g5
tp670
a(S'intervention'
p671
S'intervention'
p672
S'NN'
p673
S'I-NP'
p674
g5
tp675
a(S'could'
p676
S'could'
p677
S'MD'
p678
S'B-VP'
p679
g5
tp680
a(S'be'
p681
S'be'
p682
S'VB'
p683
S'I-VP'
p684
g5
tp685
a(S'incorporated'
p686
S'incorporate'
p687
S'VBN'
p688
S'I-VP'
p689
g5
tp690
a(S'in'
p691
S'in'
p692
S'IN'
p693
S'B-PP'
p694
g5
tp695
a(S'normal'
p696
S'normal'
p697
S'JJ'
p698
S'B-NP'
p699
g5
tp700
a(S'practice.'
p701
S'practice.'
p702
S'NN'
p703
S'I-NP'
p704
g5
tp705
a(S'Intervention'
p706
S'Intervention'
p707
S'NN'
p708
S'I-NP'
p709
g5
tp710
a(S'outcome'
p711
S'outcome'
p712
S'NN'
p713
S'I-NP'
p714
g5
tp715
a(S'measures'
p716
S'measure'
p717
S'NNS'
p718
S'I-NP'
p719
g5
tp720
a(S'favored'
p721
S'favor'
p722
S'VBD'
p723
S'B-VP'
p724
g5
tp725
a(S'the'
p726
S'the'
p727
S'DT'
p728
S'B-NP'
p729
g5
tp730
a(S'SADE'
p731
S'SADE'
p732
S'NNP'
p733
S'I-NP'
p734
g5
tp735
a(S'condition'
p736
S'condition'
p737
S'NN'
p738
S'I-NP'
p739
g5
tp740
a(g51
g51
g51
g5
g5
tp741
a(S'CONCLUSION'
p742
S'CONCLUSION'
p743
S'NN'
p744
S'B-NP'
p745
g5
tp746
a(S'Preliminary'
p747
S'Preliminary'
p748
S'JJ'
p749
S'I-NP'
p750
g5
tp751
a(S'positive'
p752
S'positive'
p753
S'JJ'
p754
S'I-NP'
p755
g5
tp756
a(S'benefit'
p757
S'benefit'
p758
S'NN'
p759
S'I-NP'
p760
g5
tp761
a(S'of'
p762
S'of'
p763
S'IN'
p764
S'B-PP'
p765
g5
tp766
a(S'SADE'
p767
S'SADE'
p768
S'NN'
p769
S'B-NP'
p770
S'B-protein'
p771
tp772
a(S'in'
p773
S'in'
p774
S'IN'
p775
S'B-PP'
p776
g5
tp777
a(S'children'
p778
S'child'
p779
S'NNS'
p780
S'B-NP'
p781
g5
tp782
a(S'with'
p783
S'with'
p784
S'IN'
p785
S'B-PP'
p786
g5
tp787
a(S'ASD'
p788
S'ASD'
p789
S'NN'
p790
S'B-NP'
p791
g5
tp792
a(S'warrants'
p793
S'warrant'
p794
S'NNS'
p795
S'I-NP'
p796
g5
tp797
a(S'moving'
p798
S'move'
p799
S'VBG'
p800
S'B-VP'
p801
g5
tp802
a(S'forward'
p803
S'forward'
p804
S'RB'
p805
S'B-ADVP'
p806
g5
tp807
a(S'with'
p808
S'with'
p809
S'IN'
p810
S'B-PP'
p811
g5
tp812
a(g12
g12
S'DT'
p813
S'B-NP'
p814
g5
tp815
a(S'large-scale'
p816
S'large-scale'
p817
S'JJ'
p818
S'I-NP'
p819
g5
tp820
a(S'clinical'
p821
S'clinical'
p822
S'JJ'
p823
S'I-NP'
p824
g5
tp825
a(S'trial'
p826
S'trial'
p827
S'NN'
p828
S'I-NP'
p829
g5
tp830
a(g51
g51
g51
g5
g5
tp831
a.