(lp0
(S'Effects'
p1
S'Effect'
p2
S'NNS'
p3
S'B-NP'
p4
S'O'
p5
tp6
a(S'of'
p7
S'of'
p8
S'IN'
p9
S'B-PP'
p10
g5
tp11
a(S'resistance'
p12
S'resistance'
p13
S'NN'
p14
S'B-NP'
p15
g5
tp16
a(S'versus'
p17
S'versus'
p18
S'CC'
p19
S'I-NP'
p20
g5
tp21
a(S'endurance'
p22
S'endurance'
p23
S'NN'
p24
S'I-NP'
p25
g5
tp26
a(S'training'
p27
S'training'
p28
S'NN'
p29
S'I-NP'
p30
g5
tp31
a(S'on'
p32
S'on'
p33
S'IN'
p34
S'B-PP'
p35
g5
tp36
a(S'serum'
p37
S'serum'
p38
S'NN'
p39
S'B-NP'
p40
S'B-protein'
p41
tp42
a(S'adiponectin'
p43
S'adiponectin'
p44
S'NN'
p45
S'I-NP'
p46
S'I-protein'
p47
tp48
a(S'and'
p49
S'and'
p50
S'CC'
p51
g5
g5
tp52
a(S'insulin'
p53
S'insulin'
p54
S'NN'
p55
S'B-NP'
p56
g5
tp57
a(S'resistance'
p58
S'resistance'
p59
S'NN'
p60
S'I-NP'
p61
g5
tp62
a(S'index'
p63
S'index'
p64
S'NN'
p65
S'I-NP'
p66
g5
tp67
a(S'.'
p68
g68
g68
g5
g5
tp69
a(S'PURPOSE'
p70
S'PURPOSE'
p71
S'NN'
p72
S'B-NP'
p73
g5
tp74
a(S'The'
p75
S'The'
p76
S'DT'
p77
S'B-NP'
p78
g5
tp79
a(S'purpose'
p80
S'purpose'
p81
S'NN'
p82
S'I-NP'
p83
g5
tp84
a(S'of'
p85
S'of'
p86
S'IN'
p87
S'B-PP'
p88
g5
tp89
a(S'the'
p90
S'the'
p91
S'DT'
p92
S'B-NP'
p93
g5
tp94
a(S'present'
p95
S'present'
p96
S'JJ'
p97
S'I-NP'
p98
g5
tp99
a(S'study'
p100
S'study'
p101
S'NN'
p102
S'I-NP'
p103
g5
tp104
a(S'was'
p105
S'be'
p106
S'VBD'
p107
S'B-VP'
p108
g5
tp109
a(S'to'
p110
S'to'
p111
S'TO'
p112
S'B-VP'
p113
g5
tp114
a(S'investigate'
p115
S'investigate'
p116
S'VB'
p117
S'I-VP'
p118
g5
tp119
a(S'the'
p120
S'the'
p121
S'DT'
p122
S'B-NP'
p123
g5
tp124
a(S'effects'
p125
S'effect'
p126
S'NNS'
p127
S'I-NP'
p128
g5
tp129
a(S'of'
p130
S'of'
p131
S'IN'
p132
S'B-PP'
p133
g5
tp134
a(S'resistance'
p135
S'resistance'
p136
S'NN'
p137
S'B-NP'
p138
g5
tp139
a(S'and'
p140
S'and'
p141
S'CC'
p142
S'I-NP'
p143
g5
tp144
a(S'endurance'
p145
S'endurance'
p146
S'NN'
p147
S'I-NP'
p148
g5
tp149
a(S'training'
p150
S'training'
p151
S'NN'
p152
S'I-NP'
p153
g5
tp154
a(S'on'
p155
S'on'
p156
S'IN'
p157
S'B-PP'
p158
g5
tp159
a(S'serum'
p160
S'serum'
p161
S'NN'
p162
S'B-NP'
p163
S'B-protein'
p164
tp165
a(S'adiponectin'
p166
S'adiponectin'
p167
S'NN'
p168
S'I-NP'
p169
S'I-protein'
p170
tp171
a(S'and'
p172
S'and'
p173
S'CC'
p174
g5
g5
tp175
a(S'insulin'
p176
S'insulin'
p177
S'NN'
p178
S'B-NP'
p179
g5
tp180
a(S'resistance'
p181
S'resistance'
p182
S'NN'
p183
S'I-NP'
p184
g5
tp185
a(S'index'
p186
S'index'
p187
S'NN'
p188
S'I-NP'
p189
g5
tp190
a(S'('
p191
g191
g191
g5
g5
tp192
a(S'SI'
p193
S'SI'
p194
S'NN'
p195
S'B-NP'
p196
g5
tp197
a(S')'
p198
g198
g198
g5
g5
tp199
a(S'in'
p200
S'in'
p201
S'IN'
p202
S'B-PP'
p203
g5
tp204
a(S'healthy'
p205
S'healthy'
p206
S'JJ'
p207
S'B-NP'
p208
g5
tp209
a(S'men'
p210
S'man'
p211
S'NNS'
p212
S'I-NP'
p213
g5
tp214
a(g68
g68
g68
g5
g5
tp215
a(S'METHODS'
p216
S'METHODS'
p217
S'NNS'
p218
S'B-NP'
p219
g5
tp220
a(S'Twenty-four'
p221
S'Twenty-four'
p222
S'CD'
p223
S'B-NP'
p224
g5
tp225
a(S'healthy'
p226
S'healthy'
p227
S'JJ'
p228
S'I-NP'
p229
g5
tp230
a(S'males'
p231
S'male'
p232
S'NNS'
p233
S'I-NP'
p234
g5
tp235
a(g191
g191
g191
g5
g5
tp236
a(S'age'
p237
S'age'
p238
S'NN'
p239
S'B-NP'
p240
g5
tp241
a(S','
p242
g242
g242
g5
g5
tp243
a(S'35-48'
p244
S'35-48'
p245
S'CD'
p246
S'B-NP'
p247
g5
tp248
a(S'years'
p249
S'year'
p250
S'NNS'
p251
S'I-NP'
p252
g5
tp253
a(g198
g198
g198
g5
g5
tp254
a(S'participated'
p255
S'participate'
p256
S'VBN'
p257
S'B-VP'
p258
g5
tp259
a(S'in'
p260
S'in'
p261
S'IN'
p262
S'B-PP'
p263
g5
tp264
a(S'the'
p265
S'the'
p266
S'DT'
p267
S'B-NP'
p268
g5
tp269
a(S'study.'
p270
S'study.'
p271
S'NN'
p272
S'I-NP'
p273
g5
tp274
a(S'The'
p275
S'The'
p276
S'DT'
p277
S'B-NP'
p278
g5
tp279
a(S'subjects'
p280
S'subject'
p281
S'NNS'
p282
S'I-NP'
p283
g5
tp284
a(S'were'
p285
S'be'
p286
S'VBD'
p287
S'B-VP'
p288
g5
tp289
a(S'randomly'
p290
S'randomly'
p291
S'RB'
p292
S'I-VP'
p293
g5
tp294
a(S'assigned'
p295
S'assign'
p296
S'VBN'
p297
S'I-VP'
p298
g5
tp299
a(S'to'
p300
S'to'
p301
S'TO'
p302
S'B-PP'
p303
g5
tp304
a(S'one'
p305
S'one'
p306
S'CD'
p307
S'B-NP'
p308
g5
tp309
a(S'of'
p310
S'of'
p311
S'IN'
p312
S'B-PP'
p313
g5
tp314
a(S'three'
p315
S'three'
p316
S'CD'
p317
S'B-NP'
p318
g5
tp319
a(S'groups'
p320
S'group'
p321
S'NNS'
p322
S'I-NP'
p323
g5
tp324
a(S':'
p325
g325
g325
g5
g5
tp326
a(S'endurance'
p327
S'endurance'
p328
S'NN'
p329
S'B-NP'
p330
g5
tp331
a(S'training'
p332
S'training'
p333
S'NN'
p334
S'I-NP'
p335
g5
tp336
a(S'group'
p337
S'group'
p338
S'NN'
p339
S'I-NP'
p340
g5
tp341
a(g191
g191
g191
g5
g5
tp342
a(S'n=8'
p343
S'n=8'
p344
S'NN'
p345
S'B-NP'
p346
g5
tp347
a(g198
g198
g198
g5
g5
tp348
a(g242
g242
g242
g5
g5
tp349
a(S'resistance'
p350
S'resistance'
p351
S'NN'
p352
S'B-NP'
p353
g5
tp354
a(S'training'
p355
S'training'
p356
S'NN'
p357
S'I-NP'
p358
g5
tp359
a(S'group'
p360
S'group'
p361
S'NN'
p362
S'I-NP'
p363
g5
tp364
a(g191
g191
g191
g5
g5
tp365
a(S'n=8'
p366
S'n=8'
p367
S'NN'
p368
S'B-NP'
p369
g5
tp370
a(g198
g198
g198
g5
g5
tp371
a(S'and'
p372
S'and'
p373
S'CC'
p374
g5
g5
tp375
a(S'control'
p376
S'control'
p377
S'NN'
p378
S'B-NP'
p379
g5
tp380
a(S'group'
p381
S'group'
p382
S'NN'
p383
S'I-NP'
p384
g5
tp385
a(g191
g191
g191
g5
g5
tp386
a(S'n=8'
p387
S'n=8'
p388
S'NN'
p389
S'B-NP'
p390
g5
tp391
a(g198
g198
g198
g5
g5
tp392
a(g68
g68
g68
g5
g5
tp393
a(S'Blood'
p394
S'Blood'
p395
S'NN'
p396
S'B-NP'
p397
S'B-cell_type'
p398
tp399
a(S'samples'
p400
S'sample'
p401
S'NNS'
p402
S'I-NP'
p403
S'I-cell_type'
p404
tp405
a(S'were'
p406
S'be'
p407
S'VBD'
p408
S'B-VP'
p409
g5
tp410
a(S'taken'
p411
S'take'
p412
S'VBN'
p413
S'I-VP'
p414
g5
tp415
a(S'in'
p416
S'in'
p417
S'IN'
p418
S'B-PP'
p419
g5
tp420
a(S'fasting'
p421
S'fast'
p422
S'VBG'
p423
S'B-VP'
p424
g5
tp425
a(S'state'
p426
S'state'
p427
S'NN'
p428
S'B-NP'
p429
g5
tp430
a(S'from'
p431
S'from'
p432
S'IN'
p433
S'B-PP'
p434
g5
tp435
a(S'all'
p436
S'all'
p437
S'DT'
p438
S'B-NP'
p439
g5
tp440
a(S'subjects.'
p441
S'subjects.'
p442
S'NN'
p443
S'I-NP'
p444
g5
tp445
a(S'The'
p446
S'The'
p447
S'DT'
p448
S'B-NP'
p449
g5
tp450
a(S'experimental'
p451
S'experimental'
p452
S'JJ'
p453
S'I-NP'
p454
g5
tp455
a(S'groups'
p456
S'group'
p457
S'NNS'
p458
S'I-NP'
p459
g5
tp460
a(S'performed'
p461
S'perform'
p462
S'VBN'
p463
S'B-VP'
p464
g5
tp465
a(S'either'
p466
S'either'
p467
S'CC'
p468
g5
g5
tp469
a(S'endurance'
p470
S'endurance'
p471
S'NN'
p472
S'B-NP'
p473
g5
tp474
a(S'or'
p475
S'or'
p476
S'CC'
p477
S'I-NP'
p478
g5
tp479
a(S'resistance'
p480
S'resistance'
p481
S'NN'
p482
S'I-NP'
p483
g5
tp484
a(S'training'
p485
S'training'
p486
S'NN'
p487
S'I-NP'
p488
g5
tp489
a(S'3'
p490
g490
S'CD'
p491
S'B-NP'
p492
g5
tp493
a(S'days'
p494
S'day'
p495
S'NNS'
p496
S'I-NP'
p497
g5
tp498
a(S'a'
p499
g499
S'DT'
p500
S'B-NP'
p501
g5
tp502
a(S'week'
p503
S'week'
p504
S'NN'
p505
S'I-NP'
p506
g5
tp507
a(S'for'
p508
S'for'
p509
S'IN'
p510
S'B-PP'
p511
g5
tp512
a(S'12'
p513
S'12'
p514
S'CD'
p515
S'B-NP'
p516
g5
tp517
a(S'weeks.'
p518
S'weeks.'
p519
S'NNS'
p520
S'I-NP'
p521
g5
tp522
a(S'The'
p523
S'The'
p524
S'DT'
p525
S'B-NP'
p526
g5
tp527
a(S'endurance'
p528
S'endurance'
p529
S'NN'
p530
S'I-NP'
p531
g5
tp532
a(S'training'
p533
S'training'
p534
S'NN'
p535
S'I-NP'
p536
g5
tp537
a(S'programme'
p538
S'programme'
p539
S'NN'
p540
S'I-NP'
p541
g5
tp542
a(S'included'
p543
S'include'
p544
S'VBD'
p545
S'B-VP'
p546
g5
tp547
a(S'continuous'
p548
S'continuous'
p549
S'JJ'
p550
S'B-NP'
p551
g5
tp552
a(S'running'
p553
S'running'
p554
S'NN'
p555
S'I-NP'
p556
g5
tp557
a(S'at'
p558
S'at'
p559
S'IN'
p560
S'B-PP'
p561
g5
tp562
a(S'an'
p563
S'an'
p564
S'DT'
p565
S'B-NP'
p566
g5
tp567
a(S'intensity'
p568
S'intensity'
p569
S'NN'
p570
S'I-NP'
p571
g5
tp572
a(S'corresponding'
p573
S'correspond'
p574
S'VBG'
p575
S'B-VP'
p576
g5
tp577
a(S'to'
p578
S'to'
p579
S'TO'
p580
S'B-PP'
p581
g5
tp582
a(S'75-85'
p583
S'75-85'
p584
S'CD'
p585
S'B-NP'
p586
g5
tp587
a(S'%'
p588
g588
S'NN'
p589
S'I-NP'
p590
g5
tp591
a(S'of'
p592
S'of'
p593
S'IN'
p594
S'B-PP'
p595
g5
tp596
a(S'maximal'
p597
S'maximal'
p598
S'JJ'
p599
S'B-NP'
p600
g5
tp601
a(S'heart'
p602
S'heart'
p603
S'NN'
p604
S'I-NP'
p605
g5
tp606
a(S'rate'
p607
S'rate'
p608
S'NN'
p609
S'I-NP'
p610
g5
tp611
a(g242
g242
g242
g5
g5
tp612
a(S'while'
p613
S'while'
p614
S'IN'
p615
S'B-SBAR'
p616
g5
tp617
a(S'resistance'
p618
S'resistance'
p619
S'NN'
p620
S'B-NP'
p621
g5
tp622
a(S'training'
p623
S'training'
p624
S'NN'
p625
S'I-NP'
p626
g5
tp627
a(S'consisted'
p628
S'consist'
p629
S'VBD'
p630
S'B-VP'
p631
g5
tp632
a(S'of'
p633
S'of'
p634
S'IN'
p635
S'B-PP'
p636
g5
tp637
a(S'four'
p638
S'four'
p639
S'CD'
p640
S'B-NP'
p641
g5
tp642
a(S'sets'
p643
S'set'
p644
S'NNS'
p645
S'I-NP'
p646
g5
tp647
a(S'of'
p648
S'of'
p649
S'IN'
p650
S'B-PP'
p651
g5
tp652
a(S'circuit'
p653
S'circuit'
p654
S'NN'
p655
S'B-NP'
p656
g5
tp657
a(S'weight'
p658
S'weight'
p659
S'NN'
p660
S'I-NP'
p661
g5
tp662
a(S'training'
p663
S'training'
p664
S'NN'
p665
S'I-NP'
p666
g5
tp667
a(S'for'
p668
S'for'
p669
S'IN'
p670
S'B-PP'
p671
g5
tp672
a(S'11'
p673
S'11'
p674
S'CD'
p675
S'B-NP'
p676
g5
tp677
a(S'stations'
p678
S'station'
p679
S'NNS'
p680
S'I-NP'
p681
g5
tp682
a(S'and'
p683
S'and'
p684
S'CC'
p685
S'B-PP'
p686
g5
tp687
a(S'at'
p688
S'at'
p689
S'IN'
p690
S'B-PP'
p691
g5
tp692
a(S'an'
p693
S'an'
p694
S'DT'
p695
S'B-NP'
p696
g5
tp697
a(S'intensity'
p698
S'intensity'
p699
S'NN'
p700
S'I-NP'
p701
g5
tp702
a(S'corresponding'
p703
S'correspond'
p704
S'VBG'
p705
S'B-VP'
p706
g5
tp707
a(S'to'
p708
S'to'
p709
S'TO'
p710
S'B-PP'
p711
g5
tp712
a(S'50-60'
p713
S'50-60'
p714
S'CD'
p715
S'B-NP'
p716
g5
tp717
a(g588
g588
S'NN'
p718
S'I-NP'
p719
g5
tp720
a(S'of'
p721
S'of'
p722
S'IN'
p723
S'B-PP'
p724
g5
tp725
a(S'one-repetition'
p726
S'one-repetition'
p727
S'NN'
p728
S'B-NP'
p729
g5
tp730
a(S'maximum.'
p731
S'maximum.'
p732
S'NN'
p733
S'I-NP'
p734
g5
tp735
a(S'The'
p736
S'The'
p737
S'DT'
p738
S'B-NP'
p739
g5
tp740
a(S'maximum'
p741
S'maximum'
p742
S'JJ'
p743
S'I-NP'
p744
g5
tp745
a(S'numbers'
p746
S'number'
p747
S'NNS'
p748
S'I-NP'
p749
g5
tp750
a(S'of'
p751
S'of'
p752
S'IN'
p753
S'B-PP'
p754
g5
tp755
a(S'repetitions'
p756
S'repetition'
p757
S'NNS'
p758
S'B-NP'
p759
g5
tp760
a(S'in'
p761
S'in'
p762
S'IN'
p763
S'B-PP'
p764
g5
tp765
a(S'each'
p766
S'each'
p767
S'DT'
p768
S'B-NP'
p769
g5
tp770
a(S'station'
p771
S'station'
p772
S'NN'
p773
S'I-NP'
p774
g5
tp775
a(S'was'
p776
S'be'
p777
S'VBD'
p778
S'B-VP'
p779
g5
tp780
a(S'12'
p781
S'12'
p782
S'CD'
p783
S'B-NP'
p784
g5
tp785
a(g68
g68
g68
g5
g5
tp786
a(S'RESULTS'
p787
S'RESULTS'
p788
S'NNS'
p789
S'B-NP'
p790
g5
tp791
a(S'There'
p792
S'There'
p793
S'EX'
p794
S'B-NP'
p795
g5
tp796
a(S'were'
p797
S'be'
p798
S'VBD'
p799
S'B-VP'
p800
g5
tp801
a(S'significant'
p802
S'significant'
p803
S'JJ'
p804
S'B-NP'
p805
g5
tp806
a(S'negative'
p807
S'negative'
p808
S'JJ'
p809
S'I-NP'
p810
g5
tp811
a(S'correlations'
p812
S'correlation'
p813
S'NNS'
p814
S'I-NP'
p815
g5
tp816
a(S'between'
p817
S'between'
p818
S'IN'
p819
S'B-PP'
p820
g5
tp821
a(S'serum'
p822
S'serum'
p823
S'NN'
p824
S'B-NP'
p825
S'B-protein'
p826
tp827
a(S'adiponectin'
p828
S'adiponectin'
p829
S'NN'
p830
S'I-NP'
p831
S'I-protein'
p832
tp833
a(S'and'
p834
S'and'
p835
S'CC'
p836
g5
g5
tp837
a(S'body'
p838
S'body'
p839
S'NN'
p840
S'B-NP'
p841
g5
tp842
a(S'fat'
p843
S'fat'
p844
S'NN'
p845
S'I-NP'
p846
g5
tp847
a(S'percentage'
p848
S'percentage'
p849
S'NN'
p850
S'I-NP'
p851
g5
tp852
a(g242
g242
g242
g5
g5
tp853
a(S'waist-to-hip'
p854
S'waist-to-hip'
p855
S'NN'
p856
S'B-NP'
p857
g5
tp858
a(S'ratio'
p859
S'ratio'
p860
S'NN'
p861
S'I-NP'
p862
g5
tp863
a(g242
g242
g242
g5
g5
tp864
a(S'body'
p865
S'body'
p866
S'NN'
p867
S'B-NP'
p868
g5
tp869
a(S'mass'
p870
S'mass'
p871
S'NN'
p872
S'I-NP'
p873
g5
tp874
a(S'index'
p875
S'index'
p876
S'NN'
p877
S'I-NP'
p878
g5
tp879
a(S'and'
p880
S'and'
p881
S'CC'
p882
g5
g5
tp883
a(S'the'
p884
S'the'
p885
S'DT'
p886
S'B-NP'
p887
g5
tp888
a(S'insulin'
p889
S'insulin'
p890
S'NN'
p891
S'I-NP'
p892
g5
tp893
a(S'resistance'
p894
S'resistance'
p895
S'NN'
p896
S'I-NP'
p897
g5
tp898
a(S'index'
p899
S'index'
p900
S'NN'
p901
S'I-NP'
p902
g5
tp903
a(S'at'
p904
S'at'
p905
S'IN'
p906
S'B-PP'
p907
g5
tp908
a(S'baseline'
p909
S'baseline'
p910
S'NN'
p911
S'B-NP'
p912
g5
tp913
a(g242
g242
g242
g5
g5
tp914
a(S'whereas'
p915
S'whereas'
p916
S'IN'
p917
g5
g5
tp918
a(S'changes'
p919
S'change'
p920
S'NNS'
p921
S'B-NP'
p922
g5
tp923
a(S'in'
p924
S'in'
p925
S'IN'
p926
S'B-PP'
p927
g5
tp928
a(S'response'
p929
S'response'
p930
S'NN'
p931
S'B-NP'
p932
g5
tp933
a(S'to'
p934
S'to'
p935
S'TO'
p936
S'B-PP'
p937
g5
tp938
a(S'training'
p939
S'training'
p940
S'NN'
p941
S'B-NP'
p942
g5
tp943
a(S'were'
p944
S'be'
p945
S'VBD'
p946
S'B-VP'
p947
g5
tp948
a(S'not'
p949
S'not'
p950
S'RB'
p951
S'I-VP'
p952
g5
tp953
a(S'significantly'
p954
S'significantly'
p955
S'RB'
p956
S'I-VP'
p957
g5
tp958
a(S'correlated.'
p959
S'correlated.'
p960
S'VB'
p961
S'I-VP'
p962
g5
tp963
a(S'Both'
p964
S'Both'
p965
S'CC'
p966
g5
g5
tp967
a(S'endurance'
p968
S'endurance'
p969
S'NN'
p970
S'B-NP'
p971
g5
tp972
a(S'and'
p973
S'and'
p974
S'CC'
p975
S'I-NP'
p976
g5
tp977
a(S'resistance'
p978
S'resistance'
p979
S'NN'
p980
S'I-NP'
p981
g5
tp982
a(S'training'
p983
S'training'
p984
S'NN'
p985
S'I-NP'
p986
g5
tp987
a(S'resulted'
p988
S'result'
p989
S'VBD'
p990
S'B-VP'
p991
g5
tp992
a(S'in'
p993
S'in'
p994
S'IN'
p995
S'B-PP'
p996
g5
tp997
a(g499
g499
S'DT'
p998
S'B-NP'
p999
g5
tp1000
a(S'significant'
p1001
S'significant'
p1002
S'JJ'
p1003
S'I-NP'
p1004
g5
tp1005
a(S'decrease'
p1006
S'decrease'
p1007
S'NN'
p1008
S'I-NP'
p1009
g5
tp1010
a(S'in'
p1011
S'in'
p1012
S'IN'
p1013
S'B-PP'
p1014
g5
tp1015
a(S'the'
p1016
S'the'
p1017
S'DT'
p1018
S'B-NP'
p1019
g5
tp1020
a(S'SI'
p1021
S'SI'
p1022
S'NN'
p1023
S'I-NP'
p1024
g5
tp1025
a(S'in'
p1026
S'in'
p1027
S'IN'
p1028
S'B-PP'
p1029
g5
tp1030
a(S'comparison'
p1031
S'comparison'
p1032
S'NN'
p1033
S'B-NP'
p1034
g5
tp1035
a(S'with'
p1036
S'with'
p1037
S'IN'
p1038
S'B-PP'
p1039
g5
tp1040
a(S'the'
p1041
S'the'
p1042
S'DT'
p1043
S'B-NP'
p1044
g5
tp1045
a(S'control'
p1046
S'control'
p1047
S'NN'
p1048
S'I-NP'
p1049
g5
tp1050
a(S'group.'
p1051
S'group.'
p1052
S'RB'
p1053
S'B-ADVP'
p1054
g5
tp1055
a(S'However'
p1056
S'However'
p1057
S'RB'
p1058
S'I-ADVP'
p1059
g5
tp1060
a(g242
g242
g242
g5
g5
tp1061
a(S'serum'
p1062
S'serum'
p1063
S'NN'
p1064
S'B-NP'
p1065
S'B-protein'
p1066
tp1067
a(S'adiponectin'
p1068
S'adiponectin'
p1069
S'NN'
p1070
S'I-NP'
p1071
S'I-protein'
p1072
tp1073
a(S'did'
p1074
S'do'
p1075
S'VBD'
p1076
S'B-VP'
p1077
g5
tp1078
a(S'not'
p1079
S'not'
p1080
S'RB'
p1081
S'I-VP'
p1082
g5
tp1083
a(S'change'
p1084
S'change'
p1085
S'VB'
p1086
S'I-VP'
p1087
g5
tp1088
a(S'significantly'
p1089
S'significantly'
p1090
S'RB'
p1091
S'B-ADVP'
p1092
g5
tp1093
a(S'in'
p1094
S'in'
p1095
S'IN'
p1096
S'B-PP'
p1097
g5
tp1098
a(S'response'
p1099
S'response'
p1100
S'NN'
p1101
S'B-NP'
p1102
g5
tp1103
a(S'to'
p1104
S'to'
p1105
S'TO'
p1106
S'B-PP'
p1107
g5
tp1108
a(S'resistance'
p1109
S'resistance'
p1110
S'NN'
p1111
S'B-NP'
p1112
g5
tp1113
a(S'and'
p1114
S'and'
p1115
S'CC'
p1116
S'I-NP'
p1117
g5
tp1118
a(S'endurance'
p1119
S'endurance'
p1120
S'NN'
p1121
S'I-NP'
p1122
g5
tp1123
a(S'training'
p1124
S'training'
p1125
S'NN'
p1126
S'I-NP'
p1127
g5
tp1128
a(g68
g68
g68
g5
g5
tp1129
a(S'CONCLUSION'
p1130
S'CONCLUSION'
p1131
S'NN'
p1132
S'B-NP'
p1133
g5
tp1134
a(S'Endurance'
p1135
S'Endurance'
p1136
S'NN'
p1137
S'I-NP'
p1138
g5
tp1139
a(S'and'
p1140
S'and'
p1141
S'CC'
p1142
g5
g5
tp1143
a(S'resistance'
p1144
S'resistance'
p1145
S'NN'
p1146
S'B-NP'
p1147
g5
tp1148
a(S'training'
p1149
S'training'
p1150
S'NN'
p1151
S'I-NP'
p1152
g5
tp1153
a(S'caused'
p1154
S'cause'
p1155
S'VBD'
p1156
S'B-VP'
p1157
g5
tp1158
a(S'an'
p1159
S'an'
p1160
S'DT'
p1161
S'B-NP'
p1162
g5
tp1163
a(S'improvement'
p1164
S'improvement'
p1165
S'NN'
p1166
S'I-NP'
p1167
g5
tp1168
a(S'in'
p1169
S'in'
p1170
S'IN'
p1171
S'B-PP'
p1172
g5
tp1173
a(S'insulin'
p1174
S'insulin'
p1175
S'NN'
p1176
S'B-NP'
p1177
g5
tp1178
a(S'resistance'
p1179
S'resistance'
p1180
S'NN'
p1181
S'I-NP'
p1182
g5
tp1183
a(S'in'
p1184
S'in'
p1185
S'IN'
p1186
S'B-PP'
p1187
g5
tp1188
a(S'healthy'
p1189
S'healthy'
p1190
S'JJ'
p1191
S'B-NP'
p1192
g5
tp1193
a(S'men'
p1194
S'man'
p1195
S'NNS'
p1196
S'I-NP'
p1197
g5
tp1198
a(g242
g242
g242
g5
g5
tp1199
a(S'but'
p1200
S'but'
p1201
S'CC'
p1202
g5
g5
tp1203
a(S'this'
p1204
S'this'
p1205
S'DT'
p1206
S'B-NP'
p1207
g5
tp1208
a(S'improvement'
p1209
S'improvement'
p1210
S'NN'
p1211
S'I-NP'
p1212
g5
tp1213
a(S'was'
p1214
S'be'
p1215
S'VBD'
p1216
S'B-VP'
p1217
g5
tp1218
a(S'not'
p1219
S'not'
p1220
S'RB'
p1221
S'I-VP'
p1222
g5
tp1223
a(S'accompanied'
p1224
S'accompany'
p1225
S'VBN'
p1226
S'I-VP'
p1227
g5
tp1228
a(S'by'
p1229
S'by'
p1230
S'IN'
p1231
S'B-PP'
p1232
g5
tp1233
a(S'increased'
p1234
S'increase'
p1235
S'VBN'
p1236
S'B-NP'
p1237
g5
tp1238
a(S'adiponectin'
p1239
S'adiponectin'
p1240
S'NN'
p1241
S'I-NP'
p1242
g5
tp1243
a(S'levels'
p1244
S'level'
p1245
S'NNS'
p1246
S'I-NP'
p1247
g5
tp1248
a(g68
g68
g68
g5
g5
tp1249
a.