(lp0
(S'Internet-based'
p1
S'Internet-based'
p2
S'JJ'
p3
S'B-NP'
p4
S'O'
p5
tp6
a(S'Mindfulness'
p7
S'Mindfulness'
p8
S'NNP'
p9
S'I-NP'
p10
g5
tp11
a(S'Meditation'
p12
S'Meditation'
p13
S'NNP'
p14
S'I-NP'
p15
g5
tp16
a(S'for'
p17
S'for'
p18
S'IN'
p19
S'B-PP'
p20
g5
tp21
a(S'Cognition'
p22
S'Cognition'
p23
S'NNP'
p24
S'B-NP'
p25
g5
tp26
a(S'and'
p27
S'and'
p28
S'CC'
p29
S'I-NP'
p30
g5
tp31
a(S'Mood'
p32
S'Mood'
p33
S'NNP'
p34
S'I-NP'
p35
g5
tp36
a(S'in'
p37
S'in'
p38
S'IN'
p39
S'B-PP'
p40
g5
tp41
a(S'Older'
p42
S'Older'
p43
S'NNP'
p44
S'B-NP'
p45
g5
tp46
a(S'Adults'
p47
S'Adults'
p48
S'NNP'
p49
S'I-NP'
p50
g5
tp51
a(S':'
p52
g52
g52
g5
g5
tp53
a(S'A'
p54
g54
S'DT'
p55
S'B-NP'
p56
g5
tp57
a(S'Pilot'
p58
S'Pilot'
p59
S'NNP'
p60
S'I-NP'
p61
g5
tp62
a(S'Study'
p63
S'Study'
p64
S'NNP'
p65
S'I-NP'
p66
g5
tp67
a(S'.'
p68
g68
g68
g5
g5
tp69
a(S'CONTEXT'
p70
S'CONTEXT'
p71
S'NN'
p72
S'B-NP'
p73
g5
tp74
a(S'Older'
p75
S'Old'
p76
S'JJR'
p77
S'I-NP'
p78
g5
tp79
a(S'adults'
p80
S'adult'
p81
S'NNS'
p82
S'I-NP'
p83
g5
tp84
a(S'are'
p85
S'be'
p86
S'VBP'
p87
S'B-VP'
p88
g5
tp89
a(S'at'
p90
S'at'
p91
S'IN'
p92
S'B-PP'
p93
g5
tp94
a(S'risk'
p95
S'risk'
p96
S'NN'
p97
S'B-NP'
p98
g5
tp99
a(S'for'
p100
S'for'
p101
S'IN'
p102
S'B-PP'
p103
g5
tp104
a(S'greater'
p105
S'great'
p106
S'JJR'
p107
S'B-NP'
p108
g5
tp109
a(S'chronic'
p110
S'chronic'
p111
S'JJ'
p112
S'I-NP'
p113
g5
tp114
a(S'stress'
p115
S'stress'
p116
S'NN'
p117
S'I-NP'
p118
g5
tp119
a(S'and'
p120
S'and'
p121
S'CC'
p122
g5
g5
tp123
a(S'cognitive'
p124
S'cognitive'
p125
S'JJ'
p126
S'B-NP'
p127
g5
tp128
a(S'decline.'
p129
S'decline.'
p130
S'FW'
p131
S'I-NP'
p132
g5
tp133
a(S'Training'
p134
S'Training'
p135
S'NN'
p136
S'I-NP'
p137
g5
tp138
a(S'in'
p139
S'in'
p140
S'IN'
p141
S'B-PP'
p142
g5
tp143
a(S'mindfulness'
p144
S'mindfulness'
p145
S'NN'
p146
S'B-NP'
p147
g5
tp148
a(S'meditation'
p149
S'meditation'
p150
S'NN'
p151
S'I-NP'
p152
g5
tp153
a(S'('
p154
g154
g154
g5
g5
tp155
a(S'MM'
p156
S'MM'
p157
S'NN'
p158
S'B-NP'
p159
g5
tp160
a(S')'
p161
g161
g161
g5
g5
tp162
a(S'may'
p163
S'may'
p164
S'MD'
p165
S'B-VP'
p166
g5
tp167
a(S'help'
p168
S'help'
p169
S'VB'
p170
S'I-VP'
p171
g5
tp172
a(S'reduce'
p173
S'reduce'
p174
S'VB'
p175
S'I-VP'
p176
g5
tp177
a(S'stress'
p178
S'stress'
p179
S'NN'
p180
S'B-NP'
p181
g5
tp182
a(S'and'
p183
S'and'
p184
S'CC'
p185
g5
g5
tp186
a(S','
p187
g187
g187
g5
g5
tp188
a(S'thus'
p189
S'thus'
p190
S'RB'
p191
S'B-ADVP'
p192
g5
tp193
a(g187
g187
g187
g5
g5
tp194
a(S'cognitive'
p195
S'cognitive'
p196
S'JJ'
p197
S'B-NP'
p198
g5
tp199
a(S'decline'
p200
S'decline'
p201
S'NN'
p202
S'I-NP'
p203
g5
tp204
a(S'in'
p205
S'in'
p206
S'IN'
p207
S'B-PP'
p208
g5
tp209
a(S'older'
p210
S'old'
p211
S'JJR'
p212
S'B-NP'
p213
g5
tp214
a(S'adults'
p215
S'adult'
p216
S'NNS'
p217
S'I-NP'
p218
g5
tp219
a(g187
g187
g187
g5
g5
tp220
a(S'but'
p221
S'but'
p222
S'CC'
p223
g5
g5
tp224
a(S'little'
p225
S'little'
p226
S'JJ'
p227
S'B-NP'
p228
g5
tp229
a(S'research'
p230
S'research'
p231
S'NN'
p232
S'I-NP'
p233
g5
tp234
a(S'has'
p235
S'have'
p236
S'VBZ'
p237
S'B-VP'
p238
g5
tp239
a(S'explored'
p240
S'explore'
p241
S'VBN'
p242
S'I-VP'
p243
g5
tp244
a(S'that'
p245
S'that'
p246
S'DT'
p247
S'B-NP'
p248
g5
tp249
a(S'hypothesis'
p250
S'hypothesis'
p251
S'NN'
p252
S'I-NP'
p253
g5
tp254
a(g68
g68
g68
g5
g5
tp255
a(S'OBJECTIVE'
p256
S'OBJECTIVE'
p257
S'NN'
p258
S'B-NP'
p259
g5
tp260
a(S'The'
p261
S'The'
p262
S'DT'
p263
S'B-NP'
p264
g5
tp265
a(S'current'
p266
S'current'
p267
S'JJ'
p268
S'I-NP'
p269
g5
tp270
a(S'study'
p271
S'study'
p272
S'NN'
p273
S'I-NP'
p274
g5
tp275
a(S"'s"
p276
S"'s"
p277
S'POS'
p278
S'B-NP'
p279
g5
tp280
a(S'primary'
p281
S'primary'
p282
S'JJ'
p283
S'I-NP'
p284
g5
tp285
a(S'aim'
p286
S'aim'
p287
S'NN'
p288
S'I-NP'
p289
g5
tp290
a(S'was'
p291
S'be'
p292
S'VBD'
p293
S'B-VP'
p294
g5
tp295
a(S'to'
p296
S'to'
p297
S'TO'
p298
S'B-VP'
p299
g5
tp300
a(S'evaluate'
p301
S'evaluate'
p302
S'VB'
p303
S'I-VP'
p304
g5
tp305
a(S'the'
p306
S'the'
p307
S'DT'
p308
S'B-NP'
p309
g5
tp310
a(S'feasibility'
p311
S'feasibility'
p312
S'NN'
p313
S'I-NP'
p314
g5
tp315
a(S'and'
p316
S'and'
p317
S'CC'
p318
S'I-NP'
p319
g5
tp320
a(S'acceptability'
p321
S'acceptability'
p322
S'NN'
p323
S'I-NP'
p324
g5
tp325
a(S'for'
p326
S'for'
p327
S'IN'
p328
S'B-PP'
p329
g5
tp330
a(S'use'
p331
S'use'
p332
S'NN'
p333
S'B-NP'
p334
g5
tp335
a(S'by'
p336
S'by'
p337
S'IN'
p338
S'B-PP'
p339
g5
tp340
a(S'older'
p341
S'old'
p342
S'JJR'
p343
S'B-NP'
p344
g5
tp345
a(S'adults'
p346
S'adult'
p347
S'NNS'
p348
S'I-NP'
p349
g5
tp350
a(S'of'
p351
S'of'
p352
S'IN'
p353
S'B-PP'
p354
g5
tp355
a(S'the'
p356
S'the'
p357
S'DT'
p358
S'B-NP'
p359
g5
tp360
a(S'Internet'
p361
S'Internet'
p362
S'NNP'
p363
S'I-NP'
p364
g5
tp365
a(S'Mindfulness'
p366
S'Mindfulness'
p367
S'NNP'
p368
S'I-NP'
p369
g5
tp370
a(S'Meditation'
p371
S'Meditation'
p372
S'NNP'
p373
S'I-NP'
p374
g5
tp375
a(S'Intervention'
p376
S'Intervention'
p377
S'NNP'
p378
S'I-NP'
p379
g5
tp380
a(g154
g154
g154
g5
g5
tp381
a(S'IMMI'
p382
S'IMMI'
p383
S'NNP'
p384
S'B-NP'
p385
g5
tp386
a(g161
g161
g161
g5
g5
tp387
a(g187
g187
g187
g5
g5
tp388
a(S'a'
p389
g389
S'DT'
p390
S'B-NP'
p391
g5
tp392
a(S'program'
p393
S'program'
p394
S'NN'
p395
S'I-NP'
p396
g5
tp397
a(S'that'
p398
S'that'
p399
S'WDT'
p400
S'B-NP'
p401
g5
tp402
a(S'had'
p403
S'have'
p404
S'VBD'
p405
S'B-VP'
p406
g5
tp407
a(S'been'
p408
S'be'
p409
S'VBN'
p410
S'I-VP'
p411
g5
tp412
a(S'developed'
p413
S'develop'
p414
S'VBN'
p415
S'I-VP'
p416
g5
tp417
a(S'by'
p418
S'by'
p419
S'IN'
p420
S'B-PP'
p421
g5
tp422
a(S'the'
p423
S'the'
p424
S'DT'
p425
S'B-NP'
p426
g5
tp427
a(S'research'
p428
S'research'
p429
S'NN'
p430
S'I-NP'
p431
g5
tp432
a(S'team'
p433
S'team'
p434
S'NN'
p435
S'I-NP'
p436
g5
tp437
a(g187
g187
g187
g5
g5
tp438
a(S'as'
p439
S'as'
p440
S'RB'
p441
S'B-CONJP'
p442
g5
tp443
a(S'well'
p444
S'well'
p445
S'RB'
p446
S'I-CONJP'
p447
g5
tp448
a(S'as'
p449
S'as'
p450
S'IN'
p451
S'I-CONJP'
p452
g5
tp453
a(S'of'
p454
S'of'
p455
S'IN'
p456
S'B-PP'
p457
g5
tp458
a(S'an'
p459
S'an'
p460
S'DT'
p461
S'B-NP'
p462
g5
tp463
a(S'Internet-based'
p464
S'Internet-based'
p465
S'JJ'
p466
S'I-NP'
p467
g5
tp468
a(S'health-and-wellness'
p469
S'health-and-wellness'
p470
S'NN'
p471
S'I-NP'
p472
g5
tp473
a(S'education'
p474
S'education'
p475
S'NN'
p476
S'I-NP'
p477
g5
tp478
a(S'program'
p479
S'program'
p480
S'NN'
p481
S'I-NP'
p482
g5
tp483
a(g187
g187
g187
g5
g5
tp484
a(S'the'
p485
S'the'
p486
S'DT'
p487
S'B-NP'
p488
g5
tp489
a(S'control.'
p490
S'control.'
p491
S'NN'
p492
S'I-NP'
p493
g5
tp494
a(S'The'
p495
S'The'
p496
S'DT'
p497
S'B-NP'
p498
g5
tp499
a(S'secondary'
p500
S'secondary'
p501
S'JJ'
p502
S'I-NP'
p503
g5
tp504
a(S'aim'
p505
S'aim'
p506
S'NN'
p507
S'I-NP'
p508
g5
tp509
a(S'was'
p510
S'be'
p511
S'VBD'
p512
S'B-VP'
p513
g5
tp514
a(S'to'
p515
S'to'
p516
S'TO'
p517
S'B-VP'
p518
g5
tp519
a(S'collect'
p520
S'collect'
p521
S'VB'
p522
S'I-VP'
p523
g5
tp524
a(S'preliminary'
p525
S'preliminary'
p526
S'JJ'
p527
S'B-NP'
p528
g5
tp529
a(S'pre-'
p530
S'pre-'
p531
S'NN'
p532
S'I-NP'
p533
g5
tp534
a(S'and'
p535
S'and'
p536
S'CC'
p537
S'I-NP'
p538
g5
tp539
a(S'postintervention'
p540
S'postintervention'
p541
S'NN'
p542
S'I-NP'
p543
g5
tp544
a(S'data'
p545
S'datum'
p546
S'NNS'
p547
S'I-NP'
p548
g5
tp549
a(S'on'
p550
S'on'
p551
S'IN'
p552
S'B-PP'
p553
g5
tp554
a(S'mood'
p555
S'mood'
p556
S'NN'
p557
S'B-NP'
p558
g5
tp559
a(S'and'
p560
S'and'
p561
S'CC'
p562
g5
g5
tp563
a(S'cognitive'
p564
S'cognitive'
p565
S'JJ'
p566
S'B-NP'
p567
g5
tp568
a(S'function'
p569
S'function'
p570
S'NN'
p571
S'I-NP'
p572
g5
tp573
a(g68
g68
g68
g5
g5
tp574
a(S'DESIGN'
p575
S'DESIGN'
p576
S'NN'
p577
S'B-NP'
p578
g5
tp579
a(S'The'
p580
S'The'
p581
S'DT'
p582
S'B-NP'
p583
g5
tp584
a(S'study'
p585
S'study'
p586
S'NN'
p587
S'I-NP'
p588
g5
tp589
a(S'was'
p590
S'be'
p591
S'VBD'
p592
S'B-VP'
p593
g5
tp594
a(g389
g389
S'DT'
p595
S'B-NP'
p596
g5
tp597
a(S'randomized'
p598
S'randomize'
p599
S'VBN'
p600
S'I-NP'
p601
g5
tp602
a(g187
g187
g187
S'I-NP'
p603
g5
tp604
a(S'controlled'
p605
S'control'
p606
S'VBN'
p607
S'I-NP'
p608
g5
tp609
a(S'trial'
p610
S'trial'
p611
S'NN'
p612
S'I-NP'
p613
g5
tp614
a(g154
g154
g154
g5
g5
tp615
a(S'RCT'
p616
S'RCT'
p617
S'NN'
p618
S'B-NP'
p619
S'B-protein'
p620
tp621
a(g161
g161
g161
g5
g5
tp622
a(g187
g187
g187
g5
g5
tp623
a(g389
g389
S'DT'
p624
S'B-NP'
p625
g5
tp626
a(S'pilot'
p627
S'pilot'
p628
S'NN'
p629
S'I-NP'
p630
g5
tp631
a(S'study'
p632
S'study'
p633
S'NN'
p634
S'I-NP'
p635
g5
tp636
a(g187
g187
g187
g5
g5
tp637
a(S'with'
p638
S'with'
p639
S'IN'
p640
S'B-PP'
p641
g5
tp642
a(S'participants'
p643
S'participant'
p644
S'NNS'
p645
S'B-NP'
p646
g5
tp647
a(S'randomized'
p648
S'randomize'
p649
S'VBD'
p650
S'B-VP'
p651
g5
tp652
a(S'either'
p653
S'either'
p654
S'CC'
p655
g5
g5
tp656
a(S'to'
p657
S'to'
p658
S'TO'
p659
S'B-PP'
p660
g5
tp661
a(S'the'
p662
S'the'
p663
S'DT'
p664
S'B-NP'
p665
g5
tp666
a(S'meditation'
p667
S'meditation'
p668
S'NN'
p669
S'I-NP'
p670
g5
tp671
a(S'group'
p672
S'group'
p673
S'NN'
p674
S'I-NP'
p675
g5
tp676
a(S'or'
p677
S'or'
p678
S'CC'
p679
g5
g5
tp680
a(S'the'
p681
S'the'
p682
S'DT'
p683
S'B-NP'
p684
g5
tp685
a(S'education'
p686
S'education'
p687
S'NN'
p688
S'I-NP'
p689
g5
tp690
a(S'group'
p691
S'group'
p692
S'NN'
p693
S'I-NP'
p694
g5
tp695
a(g68
g68
g68
g5
g5
tp696
a(S'SETTING'
p697
S'SETTING'
p698
S'VBG'
p699
S'B-NP'
p700
g5
tp701
a(S'Participants'
p702
S'Participant'
p703
S'NNS'
p704
S'I-NP'
p705
g5
tp706
a(S'obtained'
p707
S'obtain'
p708
S'VBD'
p709
S'B-VP'
p710
g5
tp711
a(S'access'
p712
S'access'
p713
S'NN'
p714
S'B-NP'
p715
g5
tp716
a(S'to'
p717
S'to'
p718
S'TO'
p719
S'B-PP'
p720
g5
tp721
a(S'the'
p722
S'the'
p723
S'DT'
p724
S'B-NP'
p725
g5
tp726
a(S'programs'
p727
S'program'
p728
S'NNS'
p729
S'I-NP'
p730
g5
tp731
a(S'from'
p732
S'from'
p733
S'IN'
p734
S'B-PP'
p735
g5
tp736
a(S'their'
p737
S'their'
p738
S'PRP$'
p739
S'B-NP'
p740
g5
tp741
a(S'homes'
p742
S'home'
p743
S'NNS'
p744
S'I-NP'
p745
g5
tp746
a(g187
g187
g187
g5
g5
tp747
a(S'and'
p748
S'and'
p749
S'CC'
p750
g5
g5
tp751
a(S'the'
p752
S'the'
p753
S'DT'
p754
S'B-NP'
p755
g5
tp756
a(S'baseline'
p757
S'baseline'
p758
S'NN'
p759
S'I-NP'
p760
g5
tp761
a(S'and'
p762
S'and'
p763
S'CC'
p764
S'I-NP'
p765
g5
tp766
a(S'endpoint'
p767
S'endpoint'
p768
S'NN'
p769
S'I-NP'
p770
g5
tp771
a(S'assessments'
p772
S'assessment'
p773
S'NNS'
p774
S'I-NP'
p775
g5
tp776
a(S'occurred'
p777
S'occur'
p778
S'VBD'
p779
S'B-VP'
p780
g5
tp781
a(S'in'
p782
S'in'
p783
S'IN'
p784
S'B-PP'
p785
g5
tp786
a(S'their'
p787
S'their'
p788
S'PRP$'
p789
S'B-NP'
p790
g5
tp791
a(S'homes'
p792
S'home'
p793
S'NNS'
p794
S'I-NP'
p795
g5
tp796
a(S'as'
p797
S'as'
p798
S'RB'
p799
S'B-ADVP'
p800
g5
tp801
a(S'well'
p802
S'well'
p803
S'RB'
p804
S'I-ADVP'
p805
g5
tp806
a(g68
g68
g68
g5
g5
tp807
a(S'PARTICIPANTS'
p808
S'PARTICIPANTS'
p809
S'NNS'
p810
S'B-NP'
p811
g5
tp812
a(S'Older'
p813
S'Old'
p814
S'JJR'
p815
S'B-NP'
p816
g5
tp817
a(S'adults'
p818
S'adult'
p819
S'NNS'
p820
S'I-NP'
p821
g5
tp822
a(S'aged'
p823
S'age'
p824
S'VBN'
p825
S'B-VP'
p826
g5
tp827
a(S'65-90'
p828
S'65-90'
p829
S'CD'
p830
S'B-NP'
p831
g5
tp832
a(S'y'
p833
g833
S'NN'
p834
S'I-NP'
p835
g5
tp836
a(S'were'
p837
S'be'
p838
S'VBD'
p839
S'B-VP'
p840
g5
tp841
a(S'recruited'
p842
S'recruit'
p843
S'VBN'
p844
S'I-VP'
p845
g5
tp846
a(S'from'
p847
S'from'
p848
S'IN'
p849
S'B-PP'
p850
g5
tp851
a(S'the'
p852
S'the'
p853
S'DT'
p854
S'B-NP'
p855
g5
tp856
a(S'Portland'
p857
S'Portland'
p858
S'NNP'
p859
S'I-NP'
p860
g5
tp861
a(g187
g187
g187
g5
g5
tp862
a(S'OR'
p863
S'OR'
p864
S'NNP'
p865
S'B-NP'
p866
g5
tp867
a(g187
g187
g187
g5
g5
tp868
a(S'metropolitan'
p869
S'metropolitan'
p870
S'JJ'
p871
S'B-NP'
p872
g5
tp873
a(S'area.'
p874
S'area.'
p875
S'NN'
p876
S'I-NP'
p877
g5
tp878
a(S'Twenty-one'
p879
S'Twenty-one'
p880
S'CD'
p881
S'B-NP'
p882
g5
tp883
a(S'people'
p884
S'people'
p885
S'NNS'
p886
S'I-NP'
p887
g5
tp888
a(S'enrolled'
p889
S'enrol'
p890
S'VBN'
p891
S'B-VP'
p892
g5
tp893
a(S'in'
p894
S'in'
p895
S'IN'
p896
S'B-PP'
p897
g5
tp898
a(S'the'
p899
S'the'
p900
S'DT'
p901
S'B-NP'
p902
g5
tp903
a(S'study'
p904
S'study'
p905
S'NN'
p906
S'I-NP'
p907
g5
tp908
a(g68
g68
g68
g5
g5
tp909
a(S'INTERVENTION'
p910
S'INTERVENTION'
p911
S'NN'
p912
S'B-NP'
p913
g5
tp914
a(S'Participants'
p915
S'Participant'
p916
S'NNS'
p917
S'I-NP'
p918
g5
tp919
a(S'in'
p920
S'in'
p921
S'IN'
p922
S'B-PP'
p923
g5
tp924
a(S'both'
p925
S'both'
p926
S'DT'
p927
S'B-NP'
p928
g5
tp929
a(S'groups'
p930
S'group'
p931
S'NNS'
p932
S'I-NP'
p933
g5
tp934
a(S'took'
p935
S'take'
p936
S'VBD'
p937
S'B-VP'
p938
g5
tp939
a(S'part'
p940
S'part'
p941
S'NN'
p942
S'B-NP'
p943
g5
tp944
a(S'in'
p945
S'in'
p946
S'IN'
p947
S'B-PP'
p948
g5
tp949
a(g389
g389
S'DT'
p950
S'B-NP'
p951
g5
tp952
a(S'1-h'
p953
S'1-h'
p954
S'JJ'
p955
S'I-NP'
p956
g5
tp957
a(S'online'
p958
S'online'
p959
S'NN'
p960
S'I-NP'
p961
g5
tp962
a(S'session'
p963
S'session'
p964
S'NN'
p965
S'I-NP'
p966
g5
tp967
a(S'each'
p968
S'each'
p969
S'DT'
p970
S'B-NP'
p971
g5
tp972
a(S'week'
p973
S'week'
p974
S'NN'
p975
S'I-NP'
p976
g5
tp977
a(S'for'
p978
S'for'
p979
S'IN'
p980
S'B-PP'
p981
g5
tp982
a(S'6'
p983
g983
S'CD'
p984
S'B-NP'
p985
g5
tp986
a(S'wk'
p987
S'wk'
p988
S'NN'
p989
S'I-NP'
p990
g5
tp991
a(g187
g187
g187
g5
g5
tp992
a(S'with'
p993
S'with'
p994
S'IN'
p995
S'B-PP'
p996
g5
tp997
a(S'30'
p998
S'30'
p999
S'CD'
p1000
S'B-NP'
p1001
g5
tp1002
a(S'min'
p1003
S'min'
p1004
S'NN'
p1005
S'I-NP'
p1006
g5
tp1007
a(S'of'
p1008
S'of'
p1009
S'IN'
p1010
S'B-PP'
p1011
g5
tp1012
a(S'daily'
p1013
S'daily'
p1014
S'JJ'
p1015
S'B-NP'
p1016
g5
tp1017
a(S'home'
p1018
S'home'
p1019
S'NN'
p1020
S'I-NP'
p1021
g5
tp1022
a(S'practice'
p1023
S'practice'
p1024
S'NN'
p1025
S'I-NP'
p1026
g5
tp1027
a(g68
g68
g68
g5
g5
tp1028
a(S'OUTCOME'
p1029
S'OUTCOME'
p1030
S'NN'
p1031
S'B-NP'
p1032
g5
tp1033
a(S'MEASURES'
p1034
S'MEASURES'
p1035
S'NNS'
p1036
S'I-NP'
p1037
g5
tp1038
a(S'Feasibility'
p1039
S'Feasibility'
p1040
S'NN'
p1041
S'I-NP'
p1042
g5
tp1043
a(S'and'
p1044
S'and'
p1045
S'CC'
p1046
S'I-NP'
p1047
g5
tp1048
a(S'acceptability'
p1049
S'acceptability'
p1050
S'NN'
p1051
S'I-NP'
p1052
g5
tp1053
a(S'were'
p1054
S'be'
p1055
S'VBD'
p1056
S'B-VP'
p1057
g5
tp1058
a(S'assessed'
p1059
S'assess'
p1060
S'VBN'
p1061
S'I-VP'
p1062
g5
tp1063
a(S'through'
p1064
S'through'
p1065
S'IN'
p1066
S'B-PP'
p1067
g5
tp1068
a(S'measures'
p1069
S'measure'
p1070
S'NNS'
p1071
S'B-NP'
p1072
g5
tp1073
a(S'of'
p1074
S'of'
p1075
S'IN'
p1076
S'B-PP'
p1077
g5
tp1078
a(S'adherence'
p1079
S'adherence'
p1080
S'NN'
p1081
S'B-NP'
p1082
g5
tp1083
a(S'to'
p1084
S'to'
p1085
S'TO'
p1086
S'B-PP'
p1087
g5
tp1088
a(S'the'
p1089
S'the'
p1090
S'DT'
p1091
S'B-NP'
p1092
g5
tp1093
a(S'protocol'
p1094
S'protocol'
p1095
S'NN'
p1096
S'I-NP'
p1097
g5
tp1098
a(S'and'
p1099
S'and'
p1100
S'CC'
p1101
g5
g5
tp1102
a(g389
g389
S'DT'
p1103
S'B-NP'
p1104
g5
tp1105
a(S'client'
p1106
S'client'
p1107
S'NN'
p1108
S'I-NP'
p1109
g5
tp1110
a(S'satisfaction'
p1111
S'satisfaction'
p1112
S'NN'
p1113
S'I-NP'
p1114
g5
tp1115
a(S'questionnaire.'
p1116
S'questionnaire.'
p1117
S'NN'
p1118
S'I-NP'
p1119
g5
tp1120
a(S'Mood'
p1121
S'Mood'
p1122
S'NN'
p1123
S'I-NP'
p1124
g5
tp1125
a(S'and'
p1126
S'and'
p1127
S'CC'
p1128
g5
g5
tp1129
a(S'cognitive'
p1130
S'cognitive'
p1131
S'JJ'
p1132
S'B-NP'
p1133
g5
tp1134
a(S'outcomes'
p1135
S'outcome'
p1136
S'NNS'
p1137
S'I-NP'
p1138
g5
tp1139
a(S'were'
p1140
S'be'
p1141
S'VBD'
p1142
S'B-VP'
p1143
g5
tp1144
a(S'also'
p1145
S'also'
p1146
S'RB'
p1147
S'I-VP'
p1148
g5
tp1149
a(S'evaluated'
p1150
S'evaluate'
p1151
S'VBN'
p1152
S'I-VP'
p1153
g5
tp1154
a(S'before'
p1155
S'before'
p1156
S'IN'
p1157
S'B-PP'
p1158
g5
tp1159
a(S'and'
p1160
S'and'
p1161
S'CC'
p1162
S'I-PP'
p1163
g5
tp1164
a(S'after'
p1165
S'after'
p1166
S'IN'
p1167
S'I-PP'
p1168
g5
tp1169
a(S'the'
p1170
S'the'
p1171
S'DT'
p1172
S'B-NP'
p1173
g5
tp1174
a(S'interventions'
p1175
S'intervention'
p1176
S'NNS'
p1177
S'I-NP'
p1178
g5
tp1179
a(g68
g68
g68
g5
g5
tp1180
a(S'RESULTS'
p1181
S'RESULTS'
p1182
S'NNS'
p1183
S'B-NP'
p1184
g5
tp1185
a(S'Sixteen'
p1186
S'Sixteen'
p1187
S'CD'
p1188
S'B-NP'
p1189
g5
tp1190
a(S'participants'
p1191
S'participant'
p1192
S'NNS'
p1193
S'I-NP'
p1194
g5
tp1195
a(S'completed'
p1196
S'complete'
p1197
S'VBD'
p1198
S'B-VP'
p1199
g5
tp1200
a(S'the'
p1201
S'the'
p1202
S'DT'
p1203
S'B-NP'
p1204
g5
tp1205
a(S'study'
p1206
S'study'
p1207
S'NN'
p1208
S'I-NP'
p1209
g5
tp1210
a(g187
g187
g187
g5
g5
tp1211
a(S'8'
p1212
g1212
S'CD'
p1213
S'B-NP'
p1214
g5
tp1215
a(S'in'
p1216
S'in'
p1217
S'IN'
p1218
S'B-PP'
p1219
g5
tp1220
a(S'each'
p1221
S'each'
p1222
S'DT'
p1223
S'B-NP'
p1224
g5
tp1225
a(S'group'
p1226
S'group'
p1227
S'NN'
p1228
S'I-NP'
p1229
g5
tp1230
a(g187
g187
g187
g5
g5
tp1231
a(S'and'
p1232
S'and'
p1233
S'CC'
p1234
g5
g5
tp1235
a(S'5'
p1236
g1236
S'CD'
p1237
S'B-NP'
p1238
g5
tp1239
a(S'dropped'
p1240
S'drop'
p1241
S'VBD'
p1242
S'B-VP'
p1243
g5
tp1244
a(S'out'
p1245
S'out'
p1246
S'RP'
p1247
S'B-PRT'
p1248
g5
tp1249
a(g187
g187
g187
g5
g5
tp1250
a(S'for'
p1251
S'for'
p1252
S'IN'
p1253
S'B-PP'
p1254
g5
tp1255
a(g389
g389
S'DT'
p1256
S'B-NP'
p1257
g5
tp1258
a(S'76'
p1259
S'76'
p1260
S'CD'
p1261
S'I-NP'
p1262
g5
tp1263
a(S'%'
p1264
g1264
S'NN'
p1265
S'I-NP'
p1266
g5
tp1267
a(S'completion'
p1268
S'completion'
p1269
S'NN'
p1270
S'I-NP'
p1271
g5
tp1272
a(S'rate.'
p1273
S'rate.'
p1274
S'NN'
p1275
S'I-NP'
p1276
g5
tp1277
a(S'Participants'
p1278
S'Participant'
p1279
S'NNS'
p1280
S'I-NP'
p1281
g5
tp1282
a(S"'"
p1283
g1283
S'POS'
p1284
S'B-NP'
p1285
g5
tp1286
a(S'mean'
p1287
S'mean'
p1288
S'JJ'
p1289
S'I-NP'
p1290
g5
tp1291
a(S'age'
p1292
S'age'
p1293
S'NN'
p1294
S'I-NP'
p1295
g5
tp1296
a(S'was'
p1297
S'be'
p1298
S'VBD'
p1299
S'B-VP'
p1300
g5
tp1301
a(S'76.2'
p1302
S'76.2'
p1303
S'CD'
p1304
S'B-NP'
p1305
g5
tp1306
a(g833
g833
S'NN'
p1307
S'I-NP'
p1308
g5
tp1309
a(S';'
p1310
g1310
g52
g5
g5
tp1311
a(S'88'
p1312
S'88'
p1313
S'CD'
p1314
S'B-NP'
p1315
g5
tp1316
a(g1264
g1264
S'NN'
p1317
S'I-NP'
p1318
g5
tp1319
a(S'were'
p1320
S'be'
p1321
S'VBD'
p1322
S'B-VP'
p1323
g5
tp1324
a(S'Caucasian'
p1325
S'Caucasian'
p1326
S'JJ'
p1327
S'B-ADJP'
p1328
g5
tp1329
a(g187
g187
g187
g5
g5
tp1330
a(S'and'
p1331
S'and'
p1332
S'CC'
p1333
g5
g5
tp1334
a(S'50'
p1335
S'50'
p1336
S'CD'
p1337
S'B-NP'
p1338
g5
tp1339
a(g1264
g1264
S'NN'
p1340
S'I-NP'
p1341
g5
tp1342
a(S'were'
p1343
S'be'
p1344
S'VBD'
p1345
S'B-VP'
p1346
g5
tp1347
a(S'female.'
p1348
S'female.'
p1349
S'JJ'
p1350
S'B-NP'
p1351
g5
tp1352
a(S'Acceptability'
p1353
S'Acceptability'
p1354
S'NN'
p1355
S'I-NP'
p1356
g5
tp1357
a(S'was'
p1358
S'be'
p1359
S'VBD'
p1360
S'B-VP'
p1361
g5
tp1362
a(S'high'
p1363
S'high'
p1364
S'JJ'
p1365
S'B-ADJP'
p1366
g5
tp1367
a(S'for'
p1368
S'for'
p1369
S'IN'
p1370
S'B-PP'
p1371
g5
tp1372
a(S'the'
p1373
S'the'
p1374
S'DT'
p1375
S'B-NP'
p1376
g5
tp1377
a(S'interventions'
p1378
S'intervention'
p1379
S'NNS'
p1380
S'I-NP'
p1381
g5
tp1382
a(g187
g187
g187
g5
g5
tp1383
a(S'based'
p1384
S'base'
p1385
S'VBN'
p1386
S'B-PP'
p1387
g5
tp1388
a(S'on'
p1389
S'on'
p1390
S'IN'
p1391
S'B-PP'
p1392
g5
tp1393
a(S'above-average'
p1394
S'above-average'
p1395
S'JJ'
p1396
S'B-NP'
p1397
g5
tp1398
a(S'scores'
p1399
S'score'
p1400
S'NNS'
p1401
S'I-NP'
p1402
g5
tp1403
a(S'on'
p1404
S'on'
p1405
S'IN'
p1406
S'B-PP'
p1407
g5
tp1408
a(S'the'
p1409
S'the'
p1410
S'DT'
p1411
S'B-NP'
p1412
g5
tp1413
a(S'client'
p1414
S'client'
p1415
S'NN'
p1416
S'I-NP'
p1417
g5
tp1418
a(S'satisfaction'
p1419
S'satisfaction'
p1420
S'NN'
p1421
S'I-NP'
p1422
g5
tp1423
a(S'questionnaire.'
p1424
S'questionnaire.'
p1425
S'VBP'
p1426
S'B-VP'
p1427
g5
tp1428
a(S'The'
p1429
S'The'
p1430
S'DT'
p1431
S'B-NP'
p1432
g5
tp1433
a(S'IMMI'
p1434
S'IMMI'
p1435
S'NNP'
p1436
S'I-NP'
p1437
g5
tp1438
a(S'participants'
p1439
S'participant'
p1440
S'NNS'
p1441
S'I-NP'
p1442
g5
tp1443
a(S'completed'
p1444
S'complete'
p1445
S'VBN'
p1446
S'B-VP'
p1447
g5
tp1448
a(g154
g154
g154
g5
g5
tp1449
a(S'1'
p1450
g1450
S'CD'
p1451
S'B-NP'
p1452
g5
tp1453
a(g161
g161
g161
g5
g5
tp1454
a(S'4.25'
p1455
S'4.25'
p1456
S'CD'
p1457
S'B-NP'
p1458
g5
tp1459
a(S'\xc2\xb1'
p1460
S'\xc2\xb1'
p1461
S'IN'
p1462
S'I-NP'
p1463
g5
tp1464
a(S'2.4'
p1465
S'2.4'
p1466
S'CD'
p1467
S'I-NP'
p1468
g5
tp1469
a(S'sessions'
p1470
S'session'
p1471
S'NNS'
p1472
S'I-NP'
p1473
g5
tp1474
a(g187
g187
g187
g5
g5
tp1475
a(S'with'
p1476
S'with'
p1477
S'IN'
p1478
S'B-PP'
p1479
g5
tp1480
a(g389
g389
S'DT'
p1481
S'B-NP'
p1482
g5
tp1483
a(S'range'
p1484
S'range'
p1485
S'NN'
p1486
S'I-NP'
p1487
g5
tp1488
a(S'of'
p1489
S'of'
p1490
S'IN'
p1491
S'B-PP'
p1492
g5
tp1493
a(S'0-6'
p1494
S'0-6'
p1495
S'CD'
p1496
S'B-NP'
p1497
g5
tp1498
a(g1310
g1310
g52
g5
g5
tp1499
a(g154
g154
g154
g5
g5
tp1500
a(S'2'
p1501
g1501
S'CD'
p1502
S'B-NP'
p1503
g5
tp1504
a(g161
g161
g161
g5
g5
tp1505
a(S'604'
p1506
S'604'
p1507
S'CD'
p1508
S'B-NP'
p1509
g5
tp1510
a(S'\xc2\xb1'
p1511
S'\xc2\xb1'
p1512
S'IN'
p1513
S'B-NP'
p1514
g5
tp1515
a(S'506'
p1516
S'506'
p1517
S'CD'
p1518
S'I-NP'
p1519
g5
tp1520
a(S'home-practice'
p1521
S'home-practice'
p1522
S'NN'
p1523
S'I-NP'
p1524
g5
tp1525
a(S'minutes'
p1526
S'minute'
p1527
S'NNS'
p1528
S'I-NP'
p1529
g5
tp1530
a(g187
g187
g187
g5
g5
tp1531
a(S'with'
p1532
S'with'
p1533
S'IN'
p1534
S'B-PP'
p1535
g5
tp1536
a(g389
g389
S'DT'
p1537
S'B-NP'
p1538
g5
tp1539
a(S'range'
p1540
S'range'
p1541
S'NN'
p1542
S'I-NP'
p1543
g5
tp1544
a(S'0-1432'
p1545
S'0-1432'
p1546
S'CD'
p1547
S'I-NP'
p1548
g5
tp1549
a(g1310
g1310
g52
g5
g5
tp1550
a(S'and'
p1551
S'and'
p1552
S'CC'
p1553
g5
g5
tp1554
a(g154
g154
g154
g5
g5
tp1555
a(S'3'
p1556
g1556
S'CD'
p1557
S'B-NP'
p1558
g5
tp1559
a(g161
g161
g161
g5
g5
tp1560
a(S'21.3'
p1561
S'21.3'
p1562
S'CD'
p1563
S'B-NP'
p1564
g5
tp1565
a(S'\xc2\xb1'
p1566
S'\xc2\xb1'
p1567
S'IN'
p1568
S'I-NP'
p1569
g5
tp1570
a(S'15.5'
p1571
S'15.5'
p1572
S'CD'
p1573
S'I-NP'
p1574
g5
tp1575
a(S'd'
p1576
g1576
S'NN'
p1577
S'I-NP'
p1578
g5
tp1579
a(S'of'
p1580
S'of'
p1581
S'IN'
p1582
S'B-PP'
p1583
g5
tp1584
a(S'practice'
p1585
S'practice'
p1586
S'NN'
p1587
S'B-NP'
p1588
g5
tp1589
a(g187
g187
g187
g5
g5
tp1590
a(S'with'
p1591
S'with'
p1592
S'IN'
p1593
S'B-PP'
p1594
g5
tp1595
a(g389
g389
S'DT'
p1596
S'B-NP'
p1597
g5
tp1598
a(S'range'
p1599
S'range'
p1600
S'NN'
p1601
S'I-NP'
p1602
g5
tp1603
a(S'of'
p1604
S'of'
p1605
S'IN'
p1606
S'B-PP'
p1607
g5
tp1608
a(S'0-46.'
p1609
S'0-46.'
p1610
S'CD'
p1611
S'B-NP'
p1612
g5
tp1613
a(S'The'
p1614
S'The'
p1615
S'DT'
p1616
S'B-NP'
p1617
g5
tp1618
a(S'education'
p1619
S'education'
p1620
S'NN'
p1621
S'I-NP'
p1622
g5
tp1623
a(S'group'
p1624
S'group'
p1625
S'NN'
p1626
S'I-NP'
p1627
g5
tp1628
a(S'completed'
p1629
S'complete'
p1630
S'VBN'
p1631
S'B-VP'
p1632
g5
tp1633
a(g154
g154
g154
g5
g5
tp1634
a(g1450
g1450
S'CD'
p1635
S'B-NP'
p1636
g5
tp1637
a(g161
g161
g161
g5
g5
tp1638
a(S'4.75'
p1639
S'4.75'
p1640
S'CD'
p1641
S'B-NP'
p1642
g5
tp1643
a(S'\xc2\xb1'
p1644
S'\xc2\xb1'
p1645
S'IN'
p1646
S'I-NP'
p1647
g5
tp1648
a(S'1.8'
p1649
S'1.8'
p1650
S'CD'
p1651
S'I-NP'
p1652
g5
tp1653
a(S'sessions'
p1654
S'session'
p1655
S'NNS'
p1656
S'I-NP'
p1657
g5
tp1658
a(g187
g187
g187
g5
g5
tp1659
a(S'with'
p1660
S'with'
p1661
S'IN'
p1662
S'B-PP'
p1663
g5
tp1664
a(g389
g389
S'DT'
p1665
S'B-NP'
p1666
g5
tp1667
a(S'range'
p1668
S'range'
p1669
S'NN'
p1670
S'I-NP'
p1671
g5
tp1672
a(S'of'
p1673
S'of'
p1674
S'IN'
p1675
S'B-PP'
p1676
g5
tp1677
a(S'2-6'
p1678
S'2-6'
p1679
S'CD'
p1680
S'B-NP'
p1681
g5
tp1682
a(g1310
g1310
g52
g5
g5
tp1683
a(g154
g154
g154
g5
g5
tp1684
a(g1501
g1501
S'CD'
p1685
S'B-NP'
p1686
g5
tp1687
a(g161
g161
g161
g5
g5
tp1688
a(S'873'
p1689
S'873'
p1690
S'CD'
p1691
S'B-NP'
p1692
g5
tp1693
a(S'\xc2\xb1'
p1694
S'\xc2\xb1'
p1695
S'IN'
p1696
S'B-NP'
p1697
g5
tp1698
a(S'395'
p1699
S'395'
p1700
S'CD'
p1701
S'I-NP'
p1702
g5
tp1703
a(S'home-practice'
p1704
S'home-practice'
p1705
S'NN'
p1706
S'I-NP'
p1707
g5
tp1708
a(S'minutes'
p1709
S'minute'
p1710
S'NNS'
p1711
S'I-NP'
p1712
g5
tp1713
a(g187
g187
g187
g5
g5
tp1714
a(S'with'
p1715
S'with'
p1716
S'IN'
p1717
S'B-PP'
p1718
g5
tp1719
a(g389
g389
S'DT'
p1720
S'B-NP'
p1721
g5
tp1722
a(S'range'
p1723
S'range'
p1724
S'NN'
p1725
S'I-NP'
p1726
g5
tp1727
a(S'of'
p1728
S'of'
p1729
S'IN'
p1730
S'B-PP'
p1731
g5
tp1732
a(S'327-1524'
p1733
S'327-1524'
p1734
S'CD'
p1735
S'B-NP'
p1736
g5
tp1737
a(g1310
g1310
g52
g5
g5
tp1738
a(S'and'
p1739
S'and'
p1740
S'CC'
p1741
g5
g5
tp1742
a(g154
g154
g154
g5
g5
tp1743
a(g1556
g1556
S'CD'
p1744
S'B-NP'
p1745
g5
tp1746
a(g161
g161
g161
g5
g5
tp1747
a(S'25.6'
p1748
S'25.6'
p1749
S'CD'
p1750
S'B-NP'
p1751
g5
tp1752
a(g1576
g1576
S'NN'
p1753
S'I-NP'
p1754
g5
tp1755
a(S'of'
p1756
S'of'
p1757
S'IN'
p1758
S'B-PP'
p1759
g5
tp1760
a(S'practice'
p1761
S'practice'
p1762
S'NN'
p1763
S'B-NP'
p1764
g5
tp1765
a(g187
g187
g187
g5
g5
tp1766
a(S'with'
p1767
S'with'
p1768
S'IN'
p1769
S'B-PP'
p1770
g5
tp1771
a(g389
g389
S'DT'
p1772
S'B-NP'
p1773
g5
tp1774
a(S'range'
p1775
S'range'
p1776
S'NN'
p1777
S'I-NP'
p1778
g5
tp1779
a(S'of'
p1780
S'of'
p1781
S'IN'
p1782
S'B-PP'
p1783
g5
tp1784
a(S'11-35.'
p1785
S'11-35.'
p1786
S'CD'
p1787
S'B-NP'
p1788
g5
tp1789
a(S'The'
p1790
S'The'
p1791
S'DT'
p1792
S'B-NP'
p1793
g5
tp1794
a(S'intervention'
p1795
S'intervention'
p1796
S'NN'
p1797
S'I-NP'
p1798
g5
tp1799
a(S'and'
p1800
S'and'
p1801
S'CC'
p1802
g5
g5
tp1803
a(S'control'
p1804
S'control'
p1805
S'NN'
p1806
S'B-NP'
p1807
g5
tp1808
a(S'formats'
p1809
S'format'
p1810
S'NNS'
p1811
S'I-NP'
p1812
g5
tp1813
a(S'were'
p1814
S'be'
p1815
S'VBD'
p1816
S'B-VP'
p1817
g5
tp1818
a(S'both'
p1819
S'both'
p1820
S'DT'
p1821
g5
g5
tp1822
a(S'feasible'
p1823
S'feasible'
p1824
S'JJ'
p1825
g5
g5
tp1826
a(g187
g187
g187
g5
g5
tp1827
a(S'and'
p1828
S'and'
p1829
S'CC'
p1830
g5
g5
tp1831
a(S'the'
p1832
S'the'
p1833
S'DT'
p1834
S'B-NP'
p1835
g5
tp1836
a(S'control'
p1837
S'control'
p1838
S'NN'
p1839
S'I-NP'
p1840
g5
tp1841
a(S'group'
p1842
S'group'
p1843
S'NN'
p1844
S'I-NP'
p1845
g5
tp1846
a(S'was'
p1847
S'be'
p1848
S'VBD'
p1849
S'B-VP'
p1850
g5
tp1851
a(S'appropriate.'
p1852
S'appropriate.'
p1853
S'JJ'
p1854
S'B-ADJP'
p1855
g5
tp1856
a(S'As'
p1857
S'As'
p1858
S'IN'
p1859
S'B-SBAR'
p1860
g5
tp1861
a(S'expected'
p1862
S'expect'
p1863
S'VBN'
p1864
S'B-VP'
p1865
g5
tp1866
a(S'due'
p1867
S'due'
p1868
S'JJ'
p1869
S'B-PP'
p1870
g5
tp1871
a(S'to'
p1872
S'to'
p1873
S'TO'
p1874
S'B-PP'
p1875
g5
tp1876
a(S'the'
p1877
S'the'
p1878
S'DT'
p1879
S'B-NP'
p1880
g5
tp1881
a(S'pilot'
p1882
S'pilot'
p1883
S'NN'
p1884
S'I-NP'
p1885
g5
tp1886
a(S'nature'
p1887
S'nature'
p1888
S'NN'
p1889
S'I-NP'
p1890
g5
tp1891
a(S'of'
p1892
S'of'
p1893
S'IN'
p1894
S'B-PP'
p1895
g5
tp1896
a(S'the'
p1897
S'the'
p1898
S'DT'
p1899
S'B-NP'
p1900
g5
tp1901
a(S'study'
p1902
S'study'
p1903
S'NN'
p1904
S'I-NP'
p1905
g5
tp1906
a(g187
g187
g187
g5
g5
tp1907
a(S'no'
p1908
S'no'
p1909
S'DT'
p1910
S'B-NP'
p1911
g5
tp1912
a(S'differences'
p1913
S'difference'
p1914
S'NNS'
p1915
S'I-NP'
p1916
g5
tp1917
a(S'existed'
p1918
S'exist'
p1919
S'VBD'
p1920
S'B-VP'
p1921
g5
tp1922
a(S'between'
p1923
S'between'
p1924
S'IN'
p1925
S'B-PP'
p1926
g5
tp1927
a(S'groups'
p1928
S'group'
p1929
S'NNS'
p1930
S'B-NP'
p1931
g5
tp1932
a(S'for'
p1933
S'for'
p1934
S'IN'
p1935
S'B-PP'
p1936
g5
tp1937
a(S'the'
p1938
S'the'
p1939
S'DT'
p1940
S'B-NP'
p1941
g5
tp1942
a(S'mood'
p1943
S'mood'
p1944
S'NN'
p1945
S'I-NP'
p1946
g5
tp1947
a(S'or'
p1948
S'or'
p1949
S'CC'
p1950
S'I-NP'
p1951
g5
tp1952
a(S'cognitive'
p1953
S'cognitive'
p1954
S'JJ'
p1955
S'I-NP'
p1956
g5
tp1957
a(S'outcomes'
p1958
S'outcome'
p1959
S'NNS'
p1960
S'I-NP'
p1961
g5
tp1962
a(g68
g68
g68
g5
g5
tp1963
a(S'CONCLUSIONS'
p1964
S'CONCLUSIONS'
p1965
S'NNS'
p1966
S'B-NP'
p1967
g5
tp1968
a(S'Administering'
p1969
S'Administer'
p1970
S'VBG'
p1971
S'B-VP'
p1972
g5
tp1973
a(S'interventions'
p1974
S'intervention'
p1975
S'NNS'
p1976
S'B-NP'
p1977
g5
tp1978
a(S'via'
p1979
S'via'
p1980
S'IN'
p1981
S'B-PP'
p1982
g5
tp1983
a(S'the'
p1984
S'the'
p1985
S'DT'
p1986
S'B-NP'
p1987
g5
tp1988
a(S'Internet'
p1989
S'Internet'
p1990
S'NNP'
p1991
S'I-NP'
p1992
g5
tp1993
a(S'to'
p1994
S'to'
p1995
S'TO'
p1996
S'B-PP'
p1997
g5
tp1998
a(S'older'
p1999
S'old'
p2000
S'JJR'
p2001
S'B-NP'
p2002
g5
tp2003
a(S'adults'
p2004
S'adult'
p2005
S'NNS'
p2006
S'I-NP'
p2007
g5
tp2008
a(S'is'
p2009
S'be'
p2010
S'VBZ'
p2011
S'B-VP'
p2012
g5
tp2013
a(S'feasible.'
p2014
S'feasible.'
p2015
S'VBN'
p2016
S'I-VP'
p2017
g5
tp2018
a(S'The'
p2019
S'The'
p2020
S'DT'
p2021
S'B-NP'
p2022
g5
tp2023
a(g1501
g1501
S'CD'
p2024
S'I-NP'
p2025
g5
tp2026
a(S'interventions'
p2027
S'intervention'
p2028
S'NNS'
p2029
S'I-NP'
p2030
g5
tp2031
a(S'were'
p2032
S'be'
p2033
S'VBD'
p2034
S'B-VP'
p2035
g5
tp2036
a(S'acceptable'
p2037
S'acceptable'
p2038
S'JJ'
p2039
S'B-ADJP'
p2040
g5
tp2041
a(S'to'
p2042
S'to'
p2043
S'TO'
p2044
S'B-PP'
p2045
g5
tp2046
a(S'participants'
p2047
S'participant'
p2048
S'NNS'
p2049
S'B-NP'
p2050
g5
tp2051
a(S'and'
p2052
S'and'
p2053
S'CC'
p2054
g5
g5
tp2055
a(S'equal'
p2056
S'equal'
p2057
S'JJ'
p2058
S'B-ADJP'
p2059
g5
tp2060
a(S'with'
p2061
S'with'
p2062
S'IN'
p2063
S'B-PP'
p2064
g5
tp2065
a(S'regard'
p2066
S'regard'
p2067
S'NN'
p2068
S'B-NP'
p2069
g5
tp2070
a(S'to'
p2071
S'to'
p2072
S'TO'
p2073
S'B-PP'
p2074
g5
tp2075
a(S'perceived'
p2076
S'perceive'
p2077
S'VBN'
p2078
S'B-NP'
p2079
g5
tp2080
a(S'credibility'
p2081
S'credibility'
p2082
S'NN'
p2083
S'I-NP'
p2084
g5
tp2085
a(S'and'
p2086
S'and'
p2087
S'CC'
p2088
g5
g5
tp2089
a(S'acceptability.'
p2090
S'acceptability.'
p2091
S'VB'
p2092
S'B-VP'
p2093
g5
tp2094
a(S'Future'
p2095
S'Future'
p2096
S'JJ'
p2097
S'B-NP'
p2098
g5
tp2099
a(S'RCTs'
p2100
S'RCT'
p2101
S'NNS'
p2102
S'I-NP'
p2103
g5
tp2104
a(S'are'
p2105
S'be'
p2106
S'VBP'
p2107
S'B-VP'
p2108
g5
tp2109
a(S'planned'
p2110
S'plan'
p2111
S'VBN'
p2112
S'I-VP'
p2113
g5
tp2114
a(S'to'
p2115
S'to'
p2116
S'TO'
p2117
S'I-VP'
p2118
g5
tp2119
a(S'evaluate'
p2120
S'evaluate'
p2121
S'VB'
p2122
S'I-VP'
p2123
g5
tp2124
a(S'the'
p2125
S'the'
p2126
S'DT'
p2127
S'B-NP'
p2128
g5
tp2129
a(S'clinical'
p2130
S'clinical'
p2131
S'JJ'
p2132
S'I-NP'
p2133
g5
tp2134
a(S'efficacy'
p2135
S'efficacy'
p2136
S'NN'
p2137
S'I-NP'
p2138
g5
tp2139
a(S'of'
p2140
S'of'
p2141
S'IN'
p2142
S'B-PP'
p2143
g5
tp2144
a(S'the'
p2145
S'the'
p2146
S'DT'
p2147
S'B-NP'
p2148
g5
tp2149
a(g1501
g1501
S'CD'
p2150
S'I-NP'
p2151
g5
tp2152
a(S'interventions'
p2153
S'intervention'
p2154
S'NNS'
p2155
S'I-NP'
p2156
g5
tp2157
a(g68
g68
g68
g5
g5
tp2158
a.