(lp0
(S'['
p1
g1
S'('
p2
S'O'
p3
g3
tp4
a(S'Effect'
p5
S'Effect'
p6
S'NN'
p7
S'B-NP'
p8
g3
tp9
a(S'of'
p10
S'of'
p11
S'IN'
p12
S'B-PP'
p13
g3
tp14
a(S'probucol'
p15
S'probucol'
p16
S'NN'
p17
S'B-NP'
p18
g3
tp19
a(S'on'
p20
S'on'
p21
S'IN'
p22
S'B-PP'
p23
g3
tp24
a(S'serum'
p25
S'serum'
p26
S'NN'
p27
S'B-NP'
p28
g3
tp29
a(S'malondialdehyde'
p30
S'malondialdehyde'
p31
S'NN'
p32
S'I-NP'
p33
g3
tp34
a(S'and'
p35
S'and'
p36
S'CC'
p37
g3
g3
tp38
a(S'superoxide'
p39
S'superoxide'
p40
S'NN'
p41
S'B-NP'
p42
S'B-protein'
p43
tp44
a(S'dismutase'
p45
S'dismutase'
p46
S'NN'
p47
S'I-NP'
p48
S'I-protein'
p49
tp50
a(S'in'
p51
S'in'
p52
S'IN'
p53
S'B-PP'
p54
g3
tp55
a(S'patients'
p56
S'patient'
p57
S'NNS'
p58
S'B-NP'
p59
g3
tp60
a(S'with'
p61
S'with'
p62
S'IN'
p63
S'B-PP'
p64
g3
tp65
a(S'primary'
p66
S'primary'
p67
S'JJ'
p68
S'B-NP'
p69
g3
tp70
a(S'hypertension'
p71
S'hypertension'
p72
S'NN'
p73
S'I-NP'
p74
g3
tp75
a(S']'
p76
g76
S')'
p77
g3
g3
tp78
a(S'.'
p79
g79
g79
g3
g3
tp80
a(S'OBJECTIVE'
p81
S'OBJECTIVE'
p82
S'NN'
p83
S'B-NP'
p84
g3
tp85
a(S'To'
p86
S'To'
p87
S'TO'
p88
S'B-VP'
p89
g3
tp90
a(S'observe'
p91
S'observe'
p92
S'VB'
p93
S'I-VP'
p94
g3
tp95
a(S'the'
p96
S'the'
p97
S'DT'
p98
S'B-NP'
p99
g3
tp100
a(S'therapeutic'
p101
S'therapeutic'
p102
S'JJ'
p103
S'I-NP'
p104
g3
tp105
a(S'effect'
p106
S'effect'
p107
S'NN'
p108
S'I-NP'
p109
g3
tp110
a(S'of'
p111
S'of'
p112
S'IN'
p113
S'B-PP'
p114
g3
tp115
a(S'probucol'
p116
S'probucol'
p117
S'NN'
p118
S'B-NP'
p119
g3
tp120
a(S'on'
p121
S'on'
p122
S'IN'
p123
S'B-PP'
p124
g3
tp125
a(S'serum'
p126
S'serum'
p127
S'NN'
p128
S'B-NP'
p129
g3
tp130
a(S'malondialdehyde'
p131
S'malondialdehyde'
p132
S'NN'
p133
S'I-NP'
p134
g3
tp135
a(g2
g2
g2
g3
g3
tp136
a(S'MDA'
p137
S'MDA'
p138
S'NN'
p139
S'B-NP'
p140
S'B-protein'
p141
tp142
a(g77
g77
g77
g3
g3
tp143
a(S'and'
p144
S'and'
p145
S'CC'
p146
g3
g3
tp147
a(S'superoxide'
p148
S'superoxide'
p149
S'NN'
p150
S'B-NP'
p151
S'B-protein'
p152
tp153
a(S'dismutase'
p154
S'dismutase'
p155
S'NN'
p156
S'I-NP'
p157
S'I-protein'
p158
tp159
a(g2
g2
g2
g3
g3
tp160
a(S'SOD'
p161
S'SOD'
p162
S'NN'
p163
S'B-NP'
p164
S'B-protein'
p165
tp166
a(g77
g77
g77
g3
g3
tp167
a(S'in'
p168
S'in'
p169
S'IN'
p170
S'B-PP'
p171
g3
tp172
a(S'patients'
p173
S'patient'
p174
S'NNS'
p175
S'B-NP'
p176
g3
tp177
a(S'with'
p178
S'with'
p179
S'IN'
p180
S'B-PP'
p181
g3
tp182
a(S'primary'
p183
S'primary'
p184
S'JJ'
p185
S'B-NP'
p186
g3
tp187
a(S'hypertension'
p188
S'hypertension'
p189
S'NN'
p190
S'I-NP'
p191
g3
tp192
a(g79
g79
g79
g3
g3
tp193
a(S'METHODS'
p194
S'METHODS'
p195
S'NNS'
p196
S'B-NP'
p197
g3
tp198
a(S'A'
p199
g199
S'DT'
p200
S'B-NP'
p201
g3
tp202
a(S'randomized'
p203
S'randomize'
p204
S'VBN'
p205
S'I-NP'
p206
g3
tp207
a(S'study'
p208
S'study'
p209
S'NN'
p210
S'I-NP'
p211
g3
tp212
a(S'was'
p213
S'be'
p214
S'VBD'
p215
S'B-VP'
p216
g3
tp217
a(S'performed'
p218
S'perform'
p219
S'VBN'
p220
S'I-VP'
p221
g3
tp222
a(S'on'
p223
S'on'
p224
S'IN'
p225
S'B-PP'
p226
g3
tp227
a(S'40'
p228
S'40'
p229
S'CD'
p230
S'B-NP'
p231
g3
tp232
a(S'patients'
p233
S'patient'
p234
S'NNS'
p235
S'I-NP'
p236
g3
tp237
a(S'with'
p238
S'with'
p239
S'IN'
p240
S'B-PP'
p241
g3
tp242
a(S'hypertension.'
p243
S'hypertension.'
p244
S'NN'
p245
S'B-NP'
p246
g3
tp247
a(S'The'
p248
S'The'
p249
S'DT'
p250
S'B-NP'
p251
g3
tp252
a(S'patients'
p253
S'patient'
p254
S'NNS'
p255
S'I-NP'
p256
g3
tp257
a(S'were'
p258
S'be'
p259
S'VBD'
p260
S'B-VP'
p261
g3
tp262
a(S'randomly'
p263
S'randomly'
p264
S'RB'
p265
S'I-VP'
p266
g3
tp267
a(S'assigned'
p268
S'assign'
p269
S'VBN'
p270
S'I-VP'
p271
g3
tp272
a(S'to'
p273
S'to'
p274
S'TO'
p275
S'B-PP'
p276
g3
tp277
a(S'the'
p278
S'the'
p279
S'DT'
p280
S'B-NP'
p281
g3
tp282
a(S'control'
p283
S'control'
p284
S'NN'
p285
S'I-NP'
p286
g3
tp287
a(g2
g2
g2
g3
g3
tp288
a(S'levamlodipine'
p289
S'levamlodipine'
p290
S'NN'
p291
S'B-NP'
p292
g3
tp293
a(S'besylate'
p294
S'besylate'
p295
S'NN'
p296
S'I-NP'
p297
g3
tp298
a(S'2.5'
p299
S'2.5'
p300
S'CD'
p301
S'B-NP'
p302
g3
tp303
a(S'mg/d'
p304
S'mg/d'
p305
S'NN'
p306
S'I-NP'
p307
g3
tp308
a(S'plus'
p309
S'plus'
p310
S'CC'
p311
g3
g3
tp312
a(S'benazepril'
p313
S'benazepril'
p314
S'NN'
p315
S'B-NP'
p316
g3
tp317
a(S'10'
p318
S'10'
p319
S'CD'
p320
S'I-NP'
p321
g3
tp322
a(S'mg/d'
p323
S'mg/d'
p324
S'NN'
p325
S'I-NP'
p326
g3
tp327
a(S','
p328
g328
g328
g3
g3
tp329
a(S'n=20'
p330
S'n=20'
p331
S'NN'
p332
S'B-NP'
p333
S'B-protein'
p334
tp335
a(g77
g77
g77
g3
g3
tp336
a(S'or'
p337
S'or'
p338
S'CC'
p339
g3
g3
tp340
a(S'probucol'
p341
S'probucol'
p342
S'NN'
p343
S'B-NP'
p344
g3
tp345
a(S'group'
p346
S'group'
p347
S'NN'
p348
S'I-NP'
p349
g3
tp350
a(g2
g2
g2
g3
g3
tp351
a(S'levamlodipine'
p352
S'levamlodipine'
p353
S'NN'
p354
S'B-NP'
p355
g3
tp356
a(S'besylate'
p357
S'besylate'
p358
S'NN'
p359
S'I-NP'
p360
g3
tp361
a(S'2.5'
p362
S'2.5'
p363
S'CD'
p364
S'B-NP'
p365
g3
tp366
a(S'mg/d'
p367
S'mg/d'
p368
S'NN'
p369
S'I-NP'
p370
g3
tp371
a(S'plus'
p372
S'plus'
p373
S'CC'
p374
g3
g3
tp375
a(S'benazepril'
p376
S'benazepril'
p377
S'NN'
p378
S'B-NP'
p379
g3
tp380
a(S'10'
p381
S'10'
p382
S'CD'
p383
S'I-NP'
p384
g3
tp385
a(S'mg/d'
p386
S'mg/d'
p387
S'NN'
p388
S'I-NP'
p389
g3
tp390
a(S'plus'
p391
S'plus'
p392
S'CC'
p393
g3
g3
tp394
a(S'probucol'
p395
S'probucol'
p396
S'NN'
p397
S'B-NP'
p398
g3
tp399
a(S'500'
p400
S'500'
p401
S'CD'
p402
S'I-NP'
p403
g3
tp404
a(S'mg/d'
p405
S'mg/d'
p406
S'NN'
p407
S'I-NP'
p408
g3
tp409
a(g328
g328
g328
g3
g3
tp410
a(S'n=20'
p411
S'n=20'
p412
S'NN'
p413
S'B-NP'
p414
S'B-protein'
p415
tp416
a(g77
g77
g77
g3
g3
tp417
a(g79
g79
g79
g3
g3
tp418
a(S'An'
p419
S'An'
p420
S'DT'
p421
S'B-NP'
p422
g3
tp423
a(S'additional'
p424
S'additional'
p425
S'JJ'
p426
S'I-NP'
p427
g3
tp428
a(S'twenty'
p429
S'twenty'
p430
S'CD'
p431
S'I-NP'
p432
g3
tp433
a(S'healthy'
p434
S'healthy'
p435
S'JJ'
p436
S'I-NP'
p437
g3
tp438
a(S'people'
p439
S'people'
p440
S'NNS'
p441
S'I-NP'
p442
g3
tp443
a(S'were'
p444
S'be'
p445
S'VBD'
p446
S'B-VP'
p447
g3
tp448
a(S'enrolled'
p449
S'enrol'
p450
S'VBN'
p451
S'I-VP'
p452
g3
tp453
a(S'in'
p454
S'in'
p455
S'IN'
p456
S'B-PP'
p457
g3
tp458
a(S'the'
p459
S'the'
p460
S'DT'
p461
S'B-NP'
p462
g3
tp463
a(S'study'
p464
S'study'
p465
S'NN'
p466
S'I-NP'
p467
g3
tp468
a(g2
g2
g2
g3
g3
tp469
a(S'normal'
p470
S'normal'
p471
S'JJ'
p472
S'B-NP'
p473
g3
tp474
a(S'group'
p475
S'group'
p476
S'NN'
p477
S'I-NP'
p478
g3
tp479
a(g77
g77
g77
g3
g3
tp480
a(g79
g79
g79
g3
g3
tp481
a(S'All'
p482
S'All'
p483
S'DT'
p484
S'B-NP'
p485
g3
tp486
a(S'subjects'
p487
S'subject'
p488
S'NNS'
p489
S'I-NP'
p490
g3
tp491
a(S'were'
p492
S'be'
p493
S'VBD'
p494
S'B-VP'
p495
g3
tp496
a(S'followed'
p497
S'follow'
p498
S'VBN'
p499
S'I-VP'
p500
g3
tp501
a(S'up'
p502
S'up'
p503
S'RP'
p504
S'B-PRT'
p505
g3
tp506
a(S'for'
p507
S'for'
p508
S'IN'
p509
S'B-PP'
p510
g3
tp511
a(S'a'
p512
g512
S'DT'
p513
S'B-NP'
p514
g3
tp515
a(S'period'
p516
S'period'
p517
S'NN'
p518
S'I-NP'
p519
g3
tp520
a(S'of'
p521
S'of'
p522
S'IN'
p523
S'B-PP'
p524
g3
tp525
a(S'four'
p526
S'four'
p527
S'CD'
p528
S'B-NP'
p529
g3
tp530
a(S'weeks.'
p531
S'weeks.'
p532
S'NN'
p533
S'I-NP'
p534
g3
tp535
a(S'Lipids'
p536
S'Lipid'
p537
S'NNS'
p538
S'I-NP'
p539
g3
tp540
a(S'and'
p541
S'and'
p542
S'CC'
p543
g3
g3
tp544
a(S'hepatic/renal'
p545
S'hepatic/renal'
p546
S'JJ'
p547
S'B-NP'
p548
g3
tp549
a(S'function'
p550
S'function'
p551
S'NN'
p552
S'I-NP'
p553
g3
tp554
a(S'were'
p555
S'be'
p556
S'VBD'
p557
S'B-VP'
p558
g3
tp559
a(S'measured'
p560
S'measure'
p561
S'VBN'
p562
S'I-VP'
p563
g3
tp564
a(S'at'
p565
S'at'
p566
S'IN'
p567
S'B-PP'
p568
g3
tp569
a(S'baseline'
p570
S'baseline'
p571
S'NN'
p572
S'B-NP'
p573
g3
tp574
a(S'and'
p575
S'and'
p576
S'CC'
p577
g3
g3
tp578
a(S'after'
p579
S'after'
p580
S'IN'
p581
S'B-PP'
p582
g3
tp583
a(S'4'
p584
g584
S'CD'
p585
S'B-NP'
p586
g3
tp587
a(S'weeks.'
p588
S'weeks.'
p589
S'NN'
p590
S'I-NP'
p591
g3
tp592
a(S'The'
p593
S'The'
p594
S'DT'
p595
S'B-NP'
p596
g3
tp597
a(S'levels'
p598
S'level'
p599
S'NNS'
p600
S'I-NP'
p601
g3
tp602
a(S'of'
p603
S'of'
p604
S'IN'
p605
S'B-PP'
p606
g3
tp607
a(S'serum'
p608
S'serum'
p609
S'NN'
p610
S'B-NP'
p611
S'B-protein'
p612
tp613
a(S'MDA'
p614
S'MDA'
p615
S'NN'
p616
S'I-NP'
p617
S'I-protein'
p618
tp619
a(S'and'
p620
S'and'
p621
S'CC'
p622
g3
g3
tp623
a(S'SOD'
p624
S'SOD'
p625
S'NN'
p626
S'B-NP'
p627
S'B-protein'
p628
tp629
a(S'activity'
p630
S'activity'
p631
S'NN'
p632
S'I-NP'
p633
g3
tp634
a(S'were'
p635
S'be'
p636
S'VBD'
p637
S'B-VP'
p638
g3
tp639
a(S'assayed'
p640
S'assay'
p641
S'VBN'
p642
S'I-VP'
p643
g3
tp644
a(S'by'
p645
S'by'
p646
S'IN'
p647
S'B-PP'
p648
g3
tp649
a(S'chemical'
p650
S'chemical'
p651
S'JJ'
p652
S'B-NP'
p653
g3
tp654
a(S'colorimetry'
p655
S'colorimetry'
p656
S'NN'
p657
S'I-NP'
p658
g3
tp659
a(g328
g328
g328
g3
g3
tp660
a(S'and'
p661
S'and'
p662
S'CC'
p663
g3
g3
tp664
a(S'other'
p665
S'other'
p666
S'JJ'
p667
S'B-NP'
p668
g3
tp669
a(S'indices'
p670
S'index'
p671
S'NNS'
p672
S'I-NP'
p673
g3
tp674
a(g328
g328
g328
g3
g3
tp675
a(S'including'
p676
S'include'
p677
S'VBG'
p678
S'B-PP'
p679
g3
tp680
a(S'blood'
p681
S'blood'
p682
S'NN'
p683
S'B-NP'
p684
g3
tp685
a(S'pressure'
p686
S'pressure'
p687
S'NN'
p688
S'I-NP'
p689
g3
tp690
a(g328
g328
g328
g3
g3
tp691
a(S'lipids'
p692
S'lipid'
p693
S'NNS'
p694
S'B-NP'
p695
g3
tp696
a(S'and'
p697
S'and'
p698
S'CC'
p699
g3
g3
tp700
a(S'hepatic/renal'
p701
S'hepatic/renal'
p702
S'JJ'
p703
S'B-NP'
p704
g3
tp705
a(S'function'
p706
S'function'
p707
S'NN'
p708
S'I-NP'
p709
g3
tp710
a(g328
g328
g328
g3
g3
tp711
a(S'were'
p712
S'be'
p713
S'VBD'
p714
S'B-VP'
p715
g3
tp716
a(S'measured'
p717
S'measure'
p718
S'VBN'
p719
S'I-VP'
p720
g3
tp721
a(S'at'
p722
S'at'
p723
S'IN'
p724
S'B-PP'
p725
g3
tp726
a(S'baseline'
p727
S'baseline'
p728
S'NN'
p729
S'B-NP'
p730
g3
tp731
a(S'and'
p732
S'and'
p733
S'CC'
p734
g3
g3
tp735
a(S'after'
p736
S'after'
p737
S'IN'
p738
S'B-PP'
p739
g3
tp740
a(g584
g584
S'CD'
p741
S'B-NP'
p742
g3
tp743
a(S'weeks'
p744
S'week'
p745
S'NNS'
p746
S'I-NP'
p747
g3
tp748
a(g79
g79
g79
g3
g3
tp749
a(S'RESULTS'
p750
S'RESULTS'
p751
S'NNS'
p752
S'B-NP'
p753
g3
tp754
a(S'Compared'
p755
S'Compare'
p756
S'VBN'
p757
S'B-VP'
p758
g3
tp759
a(S'to'
p760
S'to'
p761
S'TO'
p762
S'B-PP'
p763
g3
tp764
a(S'the'
p765
S'the'
p766
S'DT'
p767
S'B-NP'
p768
g3
tp769
a(S'normal'
p770
S'normal'
p771
S'JJ'
p772
S'I-NP'
p773
g3
tp774
a(S'group'
p775
S'group'
p776
S'NN'
p777
S'I-NP'
p778
g3
tp779
a(g328
g328
g328
g3
g3
tp780
a(S'the'
p781
S'the'
p782
S'DT'
p783
S'B-NP'
p784
g3
tp785
a(S'levels'
p786
S'level'
p787
S'NNS'
p788
S'I-NP'
p789
g3
tp790
a(S'of'
p791
S'of'
p792
S'IN'
p793
S'B-PP'
p794
g3
tp795
a(S'MDA'
p796
S'MDA'
p797
S'NN'
p798
S'B-NP'
p799
S'B-protein'
p800
tp801
a(S'in'
p802
S'in'
p803
S'IN'
p804
S'B-PP'
p805
g3
tp806
a(S'all'
p807
S'all'
p808
S'DT'
p809
S'B-NP'
p810
g3
tp811
a(S'of'
p812
S'of'
p813
S'IN'
p814
S'B-PP'
p815
g3
tp816
a(S'the'
p817
S'the'
p818
S'DT'
p819
S'B-NP'
p820
g3
tp821
a(S'hypertension'
p822
S'hypertension'
p823
S'NN'
p824
S'I-NP'
p825
g3
tp826
a(S'patient'
p827
S'patient'
p828
S'NN'
p829
S'I-NP'
p830
g3
tp831
a(S'groups'
p832
S'group'
p833
S'NNS'
p834
S'I-NP'
p835
g3
tp836
a(S'were'
p837
S'be'
p838
S'VBD'
p839
S'B-VP'
p840
g3
tp841
a(S'higher'
p842
S'high'
p843
S'JJR'
p844
S'B-ADJP'
p845
g3
tp846
a(g328
g328
g328
g3
g3
tp847
a(S'SOD'
p848
S'SOD'
p849
S'NN'
p850
S'B-NP'
p851
S'B-protein'
p852
tp853
a(S'was'
p854
S'be'
p855
S'VBD'
p856
S'B-VP'
p857
g3
tp858
a(S'lower.'
p859
S'lower.'
p860
S'RB'
p861
S'B-ADVP'
p862
g3
tp863
a(S'The'
p864
S'The'
p865
S'DT'
p866
S'B-NP'
p867
g3
tp868
a(S'antihypertensive'
p869
S'antihypertensive'
p870
S'JJ'
p871
S'I-NP'
p872
g3
tp873
a(S'treatment'
p874
S'treatment'
p875
S'NN'
p876
S'I-NP'
p877
g3
tp878
a(S'decreased'
p879
S'decrease'
p880
S'VBD'
p881
S'B-VP'
p882
g3
tp883
a(S'serum'
p884
S'serum'
p885
S'NN'
p886
S'B-NP'
p887
g3
tp888
a(S'MDA'
p889
S'MDA'
p890
S'NN'
p891
S'I-NP'
p892
g3
tp893
a(S'levels'
p894
S'level'
p895
S'NNS'
p896
S'I-NP'
p897
g3
tp898
a(S'but'
p899
S'but'
p900
S'CC'
p901
g3
g3
tp902
a(S'increased'
p903
S'increase'
p904
S'VBD'
p905
S'B-VP'
p906
g3
tp907
a(S'SOD'
p908
S'SOD'
p909
S'NN'
p910
S'B-NP'
p911
S'B-protein'
p912
tp913
a(S'content'
p914
S'content'
p915
S'NN'
p916
S'I-NP'
p917
g3
tp918
a(g328
g328
g328
g3
g3
tp919
a(S'and'
p920
S'and'
p921
S'CC'
p922
g3
g3
tp923
a(S'probucol'
p924
S'probucol'
p925
S'NN'
p926
S'B-NP'
p927
g3
tp928
a(S'treatment'
p929
S'treatment'
p930
S'NN'
p931
S'I-NP'
p932
g3
tp933
a(S'exaggerated'
p934
S'exaggerate'
p935
S'VBD'
p936
S'B-VP'
p937
g3
tp938
a(S'these'
p939
S'these'
p940
S'DT'
p941
S'B-NP'
p942
g3
tp943
a(S'effects'
p944
S'effect'
p945
S'NNS'
p946
S'I-NP'
p947
g3
tp948
a(g328
g328
g328
g3
g3
tp949
a(S'with'
p950
S'with'
p951
S'IN'
p952
S'B-PP'
p953
g3
tp954
a(S'greater'
p955
S'great'
p956
S'JJR'
p957
S'B-NP'
p958
g3
tp959
a(S'reduction'
p960
S'reduction'
p961
S'NN'
p962
S'I-NP'
p963
g3
tp964
a(S'of'
p965
S'of'
p966
S'IN'
p967
S'B-PP'
p968
g3
tp969
a(S'serum'
p970
S'serum'
p971
S'NN'
p972
S'B-NP'
p973
g3
tp974
a(S'MDA'
p975
S'MDA'
p976
S'NN'
p977
S'I-NP'
p978
g3
tp979
a(S'levels'
p980
S'level'
p981
S'NNS'
p982
S'I-NP'
p983
g3
tp984
a(S'and'
p985
S'and'
p986
S'CC'
p987
g3
g3
tp988
a(S'greater'
p989
S'great'
p990
S'JJR'
p991
S'B-NP'
p992
g3
tp993
a(S'increase'
p994
S'increase'
p995
S'NN'
p996
S'I-NP'
p997
g3
tp998
a(S'of'
p999
S'of'
p1000
S'IN'
p1001
S'B-PP'
p1002
g3
tp1003
a(S'SOD'
p1004
S'SOD'
p1005
S'NN'
p1006
S'B-NP'
p1007
S'B-protein'
p1008
tp1009
a(S'content'
p1010
S'content'
p1011
S'NN'
p1012
S'I-NP'
p1013
g3
tp1014
a(g79
g79
g79
g3
g3
tp1015
a(S'CONCLUSION'
p1016
S'CONCLUSION'
p1017
S'NN'
p1018
S'B-NP'
p1019
g3
tp1020
a(S'The'
p1021
S'The'
p1022
S'DT'
p1023
S'B-NP'
p1024
g3
tp1025
a(S'treatment'
p1026
S'treatment'
p1027
S'NN'
p1028
S'I-NP'
p1029
g3
tp1030
a(S'with'
p1031
S'with'
p1032
S'IN'
p1033
S'B-PP'
p1034
g3
tp1035
a(S'probucol'
p1036
S'probucol'
p1037
S'NN'
p1038
S'B-NP'
p1039
g3
tp1040
a(S'can'
p1041
S'can'
p1042
S'MD'
p1043
S'B-VP'
p1044
g3
tp1045
a(S'improve'
p1046
S'improve'
p1047
S'VB'
p1048
S'I-VP'
p1049
g3
tp1050
a(S'oxidative'
p1051
S'oxidative'
p1052
S'JJ'
p1053
S'B-NP'
p1054
g3
tp1055
a(S'stress'
p1056
S'stress'
p1057
S'NN'
p1058
S'I-NP'
p1059
g3
tp1060
a(S'in'
p1061
S'in'
p1062
S'IN'
p1063
S'B-PP'
p1064
g3
tp1065
a(S'hypertension'
p1066
S'hypertension'
p1067
S'NN'
p1068
S'B-NP'
p1069
g3
tp1070
a(S'patients'
p1071
S'patient'
p1072
S'NNS'
p1073
S'I-NP'
p1074
g3
tp1075
a(g328
g328
g328
g3
g3
tp1076
a(S'resulting'
p1077
S'result'
p1078
S'VBG'
p1079
S'B-VP'
p1080
g3
tp1081
a(S'in'
p1082
S'in'
p1083
S'IN'
p1084
S'B-PP'
p1085
g3
tp1086
a(S'reduced'
p1087
S'reduce'
p1088
S'VBN'
p1089
S'B-NP'
p1090
g3
tp1091
a(S'serum'
p1092
S'serum'
p1093
S'NN'
p1094
S'I-NP'
p1095
g3
tp1096
a(S'MDA'
p1097
S'MDA'
p1098
S'NN'
p1099
S'I-NP'
p1100
g3
tp1101
a(S'levels'
p1102
S'level'
p1103
S'NNS'
p1104
S'I-NP'
p1105
g3
tp1106
a(S'and'
p1107
S'and'
p1108
S'CC'
p1109
g3
g3
tp1110
a(S'improved'
p1111
S'improve'
p1112
S'VBN'
p1113
S'B-NP'
p1114
g3
tp1115
a(S'SOD'
p1116
S'SOD'
p1117
S'NN'
p1118
S'I-NP'
p1119
S'B-protein'
p1120
tp1121
a(S'activity'
p1122
S'activity'
p1123
S'NN'
p1124
S'I-NP'
p1125
g3
tp1126
a(g328
g328
g328
g3
g3
tp1127
a(S'thus'
p1128
S'thus'
p1129
S'RB'
p1130
S'B-ADVP'
p1131
g3
tp1132
a(S'contributing'
p1133
S'contribute'
p1134
S'VBG'
p1135
S'B-VP'
p1136
g3
tp1137
a(S'agreater'
p1138
S'agreater'
p1139
S'RBR'
p1140
S'B-NP'
p1141
g3
tp1142
a(S'antihypertensive'
p1143
S'antihypertensive'
p1144
S'JJ'
p1145
S'I-NP'
p1146
g3
tp1147
a(S'effect'
p1148
S'effect'
p1149
S'NN'
p1150
S'I-NP'
p1151
g3
tp1152
a(g79
g79
g79
g3
g3
tp1153
a.