(lp0
(S'Prediction'
p1
S'Prediction'
p2
S'NN'
p3
S'B-NP'
p4
S'O'
p5
tp6
a(S'of'
p7
S'of'
p8
S'IN'
p9
S'B-PP'
p10
g5
tp11
a(S'creatinine'
p12
S'creatinine'
p13
S'NN'
p14
S'B-NP'
p15
g5
tp16
a(S'clearance'
p17
S'clearance'
p18
S'NN'
p19
S'I-NP'
p20
g5
tp21
a(S'from'
p22
S'from'
p23
S'IN'
p24
S'B-PP'
p25
g5
tp26
a(S'serum'
p27
S'serum'
p28
S'NN'
p29
S'B-NP'
p30
g5
tp31
a(S'creatinine'
p32
S'creatinine'
p33
S'NN'
p34
S'I-NP'
p35
g5
tp36
a(S'in'
p37
S'in'
p38
S'IN'
p39
S'B-PP'
p40
g5
tp41
a(S'patients'
p42
S'patient'
p43
S'NNS'
p44
S'B-NP'
p45
g5
tp46
a(S'with'
p47
S'with'
p48
S'IN'
p49
S'B-PP'
p50
g5
tp51
a(S'rheumatoid'
p52
S'rheumatoid'
p53
S'JJ'
p54
S'B-NP'
p55
g5
tp56
a(S'arthritis'
p57
S'arthritis'
p58
S'NN'
p59
S'I-NP'
p60
g5
tp61
a(S':'
p62
g62
g62
g5
g5
tp63
a(S'comparison'
p64
S'comparison'
p65
S'NN'
p66
S'B-NP'
p67
g5
tp68
a(S'of'
p69
S'of'
p70
S'IN'
p71
S'B-PP'
p72
g5
tp73
a(S'six'
p74
S'six'
p75
S'CD'
p76
S'B-NP'
p77
g5
tp78
a(S'formulae'
p79
S'formula'
p80
S'NNS'
p81
S'I-NP'
p82
g5
tp83
a(S'and'
p84
S'and'
p85
S'CC'
p86
g5
g5
tp87
a(S'one'
p88
S'one'
p89
S'CD'
p90
S'B-NP'
p91
g5
tp92
a(S'nomogram'
p93
S'nomogram'
p94
S'NN'
p95
S'I-NP'
p96
g5
tp97
a(S'.'
p98
g98
g98
g5
g5
tp99
a(S'The'
p100
S'The'
p101
S'DT'
p102
S'B-NP'
p103
g5
tp104
a(S'estimation'
p105
S'estimation'
p106
S'NN'
p107
S'I-NP'
p108
g5
tp109
a(S'of'
p110
S'of'
p111
S'IN'
p112
S'B-PP'
p113
g5
tp114
a(S'glomerular'
p115
S'glomerular'
p116
S'JJ'
p117
S'B-NP'
p118
g5
tp119
a(S'filtration'
p120
S'filtration'
p121
S'NN'
p122
S'I-NP'
p123
g5
tp124
a(S'rate'
p125
S'rate'
p126
S'NN'
p127
S'I-NP'
p128
g5
tp129
a(S'is'
p130
S'be'
p131
S'VBZ'
p132
S'B-VP'
p133
g5
tp134
a(S'important'
p135
S'important'
p136
S'JJ'
p137
S'B-ADJP'
p138
g5
tp139
a(S'for'
p140
S'for'
p141
S'IN'
p142
S'B-PP'
p143
g5
tp144
a(S'the'
p145
S'the'
p146
S'DT'
p147
S'B-NP'
p148
g5
tp149
a(S'medical'
p150
S'medical'
p151
S'JJ'
p152
S'I-NP'
p153
g5
tp154
a(S'treatment'
p155
S'treatment'
p156
S'NN'
p157
S'I-NP'
p158
g5
tp159
a(S'of'
p160
S'of'
p161
S'IN'
p162
S'B-PP'
p163
g5
tp164
a(S'patients'
p165
S'patient'
p166
S'NNS'
p167
S'B-NP'
p168
g5
tp169
a(S'with'
p170
S'with'
p171
S'IN'
p172
S'B-PP'
p173
g5
tp174
a(S'rheumatoid'
p175
S'rheumatoid'
p176
S'JJ'
p177
S'B-NP'
p178
g5
tp179
a(S'arthritis'
p180
S'arthritis'
p181
S'NN'
p182
S'I-NP'
p183
g5
tp184
a(S'('
p185
g185
g185
g5
g5
tp186
a(S'RA'
p187
S'RA'
p188
S'NN'
p189
S'B-NP'
p190
g5
tp191
a(S')'
p192
g192
g192
g5
g5
tp193
a(g98
g98
g98
g5
g5
tp194
a(S'However'
p195
S'However'
p196
S'RB'
p197
S'B-ADVP'
p198
g5
tp199
a(S','
p200
g200
g200
g5
g5
tp201
a(S'the'
p202
S'the'
p203
S'DT'
p204
S'B-NP'
p205
g5
tp206
a(S'determination'
p207
S'determination'
p208
S'NN'
p209
S'I-NP'
p210
g5
tp211
a(S'of'
p212
S'of'
p213
S'IN'
p214
S'B-PP'
p215
g5
tp216
a(S'endogenous'
p217
S'endogenous'
p218
S'JJ'
p219
S'B-NP'
p220
g5
tp221
a(S'creatinine'
p222
S'creatinine'
p223
S'NN'
p224
S'I-NP'
p225
g5
tp226
a(S'clearance'
p227
S'clearance'
p228
S'NN'
p229
S'I-NP'
p230
g5
tp231
a(g185
g185
g185
g5
g5
tp232
a(S'Clcr'
p233
S'Clcr'
p234
S'NN'
p235
S'B-NP'
p236
g5
tp237
a(g192
g192
g192
g5
g5
tp238
a(S'from'
p239
S'from'
p240
S'IN'
p241
S'B-PP'
p242
g5
tp243
a(S'a'
p244
g244
S'DT'
p245
S'B-NP'
p246
g5
tp247
a(S'24-h'
p248
S'24-h'
p249
S'JJ'
p250
S'I-NP'
p251
g5
tp252
a(S'urine'
p253
S'urine'
p254
S'NN'
p255
S'I-NP'
p256
g5
tp257
a(S'collection'
p258
S'collection'
p259
S'NN'
p260
S'I-NP'
p261
g5
tp262
a(S'is'
p263
S'be'
p264
S'VBZ'
p265
S'B-VP'
p266
g5
tp267
a(S'an'
p268
S'an'
p269
S'DT'
p270
S'B-NP'
p271
g5
tp272
a(S'unreliable'
p273
S'unreliable'
p274
S'JJ'
p275
S'I-NP'
p276
g5
tp277
a(S'and'
p278
S'and'
p279
S'CC'
p280
S'I-NP'
p281
g5
tp282
a(S'time-consuming'
p283
S'time-consuming'
p284
S'JJ'
p285
S'I-NP'
p286
g5
tp287
a(S'procedure.'
p288
S'procedure.'
p289
S'NN'
p290
S'I-NP'
p291
g5
tp292
a(S'We'
p293
S'We'
p294
S'PRP'
p295
S'B-NP'
p296
g5
tp297
a(S'therefore'
p298
S'therefore'
p299
S'RB'
p300
S'B-ADVP'
p301
g5
tp302
a(S'tested'
p303
S'test'
p304
S'VBD'
p305
S'B-VP'
p306
g5
tp307
a(S'the'
p308
S'the'
p309
S'DT'
p310
S'B-NP'
p311
g5
tp312
a(S'accuracy'
p313
S'accuracy'
p314
S'NN'
p315
S'I-NP'
p316
g5
tp317
a(S'of'
p318
S'of'
p319
S'IN'
p320
S'B-PP'
p321
g5
tp322
a(S'six'
p323
S'six'
p324
S'CD'
p325
S'B-NP'
p326
g5
tp327
a(S'equations'
p328
S'equation'
p329
S'NNS'
p330
S'I-NP'
p331
g5
tp332
a(S'and'
p333
S'and'
p334
S'CC'
p335
g5
g5
tp336
a(S'one'
p337
S'one'
p338
S'CD'
p339
S'B-NP'
p340
g5
tp341
a(S'nomogram'
p342
S'nomogram'
p343
S'NN'
p344
S'I-NP'
p345
g5
tp346
a(S'for'
p347
S'for'
p348
S'IN'
p349
S'B-PP'
p350
g5
tp351
a(S'the'
p352
S'the'
p353
S'DT'
p354
S'B-NP'
p355
g5
tp356
a(S'prediction'
p357
S'prediction'
p358
S'NN'
p359
S'I-NP'
p360
g5
tp361
a(S'of'
p362
S'of'
p363
S'IN'
p364
S'B-PP'
p365
g5
tp366
a(S'Clcr'
p367
S'Clcr'
p368
S'NN'
p369
S'B-NP'
p370
g5
tp371
a(S'from'
p372
S'from'
p373
S'IN'
p374
S'B-PP'
p375
g5
tp376
a(S'serum'
p377
S'serum'
p378
S'NN'
p379
S'B-NP'
p380
g5
tp381
a(S'creatinine'
p382
S'creatinine'
p383
S'NN'
p384
S'I-NP'
p385
g5
tp386
a(g185
g185
g185
g5
g5
tp387
a(S'Scr'
p388
S'Scr'
p389
S'NN'
p390
S'B-NP'
p391
S'B-protein'
p392
tp393
a(g192
g192
g192
g5
g5
tp394
a(S'in'
p395
S'in'
p396
S'IN'
p397
S'B-PP'
p398
g5
tp399
a(S'38'
p400
S'38'
p401
S'CD'
p402
S'B-NP'
p403
g5
tp404
a(S'patients'
p405
S'patient'
p406
S'NNS'
p407
S'I-NP'
p408
g5
tp409
a(S'with'
p410
S'with'
p411
S'IN'
p412
S'B-PP'
p413
g5
tp414
a(S'RA'
p415
S'RA'
p416
S'NN'
p417
S'B-NP'
p418
g5
tp419
a(S'and'
p420
S'and'
p421
S'CC'
p422
g5
g5
tp423
a(S'20'
p424
S'20'
p425
S'CD'
p426
S'B-NP'
p427
g5
tp428
a(S'controls.'
p429
S'controls.'
p430
S'NN'
p431
S'I-NP'
p432
g5
tp433
a(S'A'
p434
g434
S'DT'
p435
S'B-NP'
p436
g5
tp437
a(S'positive'
p438
S'positive'
p439
S'JJ'
p440
S'I-NP'
p441
g5
tp442
a(S'correlation'
p443
S'correlation'
p444
S'NN'
p445
S'I-NP'
p446
g5
tp447
a(S'was'
p448
S'be'
p449
S'VBD'
p450
S'B-VP'
p451
g5
tp452
a(S'found'
p453
S'find'
p454
S'VBN'
p455
S'I-VP'
p456
g5
tp457
a(S'for'
p458
S'for'
p459
S'IN'
p460
S'B-PP'
p461
g5
tp462
a(S'all'
p463
S'all'
p464
S'DT'
p465
S'B-NP'
p466
g5
tp467
a(S'methods'
p468
S'method'
p469
S'NNS'
p470
S'I-NP'
p471
g5
tp472
a(S'in'
p473
S'in'
p474
S'IN'
p475
S'B-PP'
p476
g5
tp477
a(S'the'
p478
S'the'
p479
S'DT'
p480
S'B-NP'
p481
g5
tp482
a(S'controls'
p483
S'control'
p484
S'NNS'
p485
S'I-NP'
p486
g5
tp487
a(g185
g185
g185
g5
g5
tp488
a(S'r'
p489
g489
S'NN'
p490
S'B-NP'
p491
g5
tp492
a(S'='
p493
g493
S'SYM'
p494
S'B-VP'
p495
g5
tp496
a(S'0.83-0.94'
p497
S'0.83-0.94'
p498
S'CD'
p499
S'B-NP'
p500
g5
tp501
a(g192
g192
g192
g5
g5
tp502
a(S'and'
p503
S'and'
p504
S'CC'
p505
g5
g5
tp506
a(S'RA'
p507
S'RA'
p508
S'NN'
p509
S'B-NP'
p510
g5
tp511
a(S'patients'
p512
S'patient'
p513
S'NNS'
p514
S'I-NP'
p515
g5
tp516
a(g185
g185
g185
g5
g5
tp517
a(g489
g489
S'NN'
p518
S'B-NP'
p519
g5
tp520
a(g493
g493
S'SYM'
p521
S'B-VP'
p522
g5
tp523
a(S'0.51-0.69'
p524
S'0.51-0.69'
p525
S'CD'
p526
S'B-NP'
p527
g5
tp528
a(g192
g192
g192
g5
g5
tp529
a(g98
g98
g98
g5
g5
tp530
a(S'The'
p531
S'The'
p532
S'DT'
p533
S'B-NP'
p534
g5
tp535
a(S'methods'
p536
S'method'
p537
S'NNS'
p538
S'I-NP'
p539
g5
tp540
a(S'did'
p541
S'do'
p542
S'VBD'
p543
S'B-VP'
p544
g5
tp545
a(S'not'
p546
S'not'
p547
S'RB'
p548
S'B-NP'
p549
g5
tp550
a(S'overestimate'
p551
S'overestimate'
p552
S'JJ'
p553
S'I-NP'
p554
g5
tp555
a(S'Clcr'
p556
S'Clcr'
p557
S'NN'
p558
S'I-NP'
p559
g5
tp560
a(S'in'
p561
S'in'
p562
S'IN'
p563
S'B-PP'
p564
g5
tp565
a(S'RA.'
p566
S'RA.'
p567
S'NN'
p568
S'B-NP'
p569
g5
tp570
a(S'In'
p571
S'In'
p572
S'IN'
p573
S'B-PP'
p574
g5
tp575
a(S'the'
p576
S'the'
p577
S'DT'
p578
S'B-NP'
p579
g5
tp580
a(S'RA'
p581
S'RA'
p582
S'NN'
p583
S'I-NP'
p584
g5
tp585
a(S'group'
p586
S'group'
p587
S'NN'
p588
S'I-NP'
p589
g5
tp590
a(S'the'
p591
S'the'
p592
S'DT'
p593
S'B-NP'
p594
g5
tp595
a(S'simple'
p596
S'simple'
p597
S'JJ'
p598
S'I-NP'
p599
g5
tp600
a(S'formula'
p601
S'formula'
p602
S'NN'
p603
S'I-NP'
p604
g5
tp605
a(S'published'
p606
S'publish'
p607
S'VBN'
p608
S'B-VP'
p609
g5
tp610
a(S'by'
p611
S'by'
p612
S'IN'
p613
S'B-PP'
p614
g5
tp615
a(S'Cockcroft'
p616
S'Cockcroft'
p617
S'NNP'
p618
S'B-NP'
p619
g5
tp620
a(S'['
p621
g621
g185
g5
g5
tp622
a(S'Clcr'
p623
S'Clcr'
p624
S'NN'
p625
S'B-NP'
p626
g5
tp627
a(g493
g493
S'SYM'
p628
g5
g5
tp629
a(g185
g185
g185
g5
g5
tp630
a(g185
g185
g185
g5
g5
tp631
a(S'140'
p632
S'140'
p633
S'CD'
p634
S'B-NP'
p635
g5
tp636
a(S'-'
p637
g637
S'HYPH'
p638
S'I-NP'
p639
g5
tp640
a(S'age'
p641
S'age'
p642
S'NN'
p643
S'I-NP'
p644
g5
tp645
a(g192
g192
g192
g5
g5
tp646
a(S'x'
p647
g647
S'NN'
p648
S'B-NP'
p649
g5
tp650
a(S'body'
p651
S'body'
p652
S'NN'
p653
S'I-NP'
p654
g5
tp655
a(S'weight'
p656
S'weight'
p657
S'NN'
p658
S'I-NP'
p659
g5
tp660
a(g192
g192
g192
g5
g5
tp661
a(S'/'
p662
g662
S'SYM'
p663
S'B-NP'
p664
g5
tp665
a(g185
g185
g185
g5
g5
tp666
a(S'72'
p667
S'72'
p668
S'CD'
p669
S'B-NP'
p670
g5
tp671
a(g647
g647
S'SYM'
p672
S'I-NP'
p673
g5
tp674
a(S'Scr'
p675
S'Scr'
p676
S'NN'
p677
S'I-NP'
p678
S'B-protein'
p679
tp680
a(g192
g192
g192
g5
g5
tp681
a(g200
g200
g200
g5
g5
tp682
a(g647
g647
S'NN'
p683
S'B-NP'
p684
g5
tp685
a(S'0.85'
p686
S'0.85'
p687
S'CD'
p688
S'I-NP'
p689
g5
tp690
a(S'for'
p691
S'for'
p692
S'IN'
p693
S'B-PP'
p694
g5
tp695
a(S'females'
p696
S'female'
p697
S'NNS'
p698
S'B-NP'
p699
g5
tp700
a(S']'
p701
g701
g192
g5
g5
tp702
a(S'showed'
p703
S'show'
p704
S'VBD'
p705
S'B-VP'
p706
g5
tp707
a(S'the'
p708
S'the'
p709
S'DT'
p710
S'B-NP'
p711
g5
tp712
a(S'best'
p713
S'good'
p714
S'JJS'
p715
S'I-NP'
p716
g5
tp717
a(S'correlation'
p718
S'correlation'
p719
S'NN'
p720
S'I-NP'
p721
g5
tp722
a(S'with'
p723
S'with'
p724
S'IN'
p725
S'B-PP'
p726
g5
tp727
a(S'the'
p728
S'the'
p729
S'DT'
p730
S'B-NP'
p731
g5
tp732
a(S'measured'
p733
S'measure'
p734
S'VBN'
p735
S'I-NP'
p736
g5
tp737
a(S'Clcr.'
p738
S'Clcr.'
p739
S'NNP'
p740
S'I-NP'
p741
g5
tp742
a(S'In'
p743
S'In'
p744
S'IN'
p745
S'B-PP'
p746
g5
tp747
a(S'RA'
p748
S'RA'
p749
S'NNP'
p750
S'B-NP'
p751
g5
tp752
a(S'the'
p753
S'the'
p754
S'DT'
p755
S'B-NP'
p756
g5
tp757
a(S'Cockroft'
p758
S'Cockroft'
p759
S'NNP'
p760
S'I-NP'
p761
g5
tp762
a(S'formula'
p763
S'formula'
p764
S'NN'
p765
S'I-NP'
p766
g5
tp767
a(S'can'
p768
S'can'
p769
S'MD'
p770
S'B-VP'
p771
g5
tp772
a(S'reliably'
p773
S'reliably'
p774
S'RB'
p775
S'I-VP'
p776
g5
tp777
a(S'be'
p778
S'be'
p779
S'VB'
p780
S'I-VP'
p781
g5
tp782
a(S'used'
p783
S'use'
p784
S'VBN'
p785
S'I-VP'
p786
g5
tp787
a(S'to'
p788
S'to'
p789
S'TO'
p790
S'B-VP'
p791
g5
tp792
a(S'predict'
p793
S'predict'
p794
S'VB'
p795
S'I-VP'
p796
g5
tp797
a(S'Clcr'
p798
S'Clcr'
p799
S'NNP'
p800
S'B-NP'
p801
g5
tp802
a(S'from'
p803
S'from'
p804
S'IN'
p805
S'B-PP'
p806
g5
tp807
a(S'Scr'
p808
S'Scr'
p809
S'NNP'
p810
S'B-NP'
p811
S'B-protein'
p812
tp813
a(g98
g98
g98
g5
g5
tp814
a.