(lp0
(S'Effects'
p1
S'Effect'
p2
S'NNS'
p3
S'B-NP'
p4
S'O'
p5
tp6
a(S'of'
p7
S'of'
p8
S'IN'
p9
S'B-PP'
p10
g5
tp11
a(S'oral'
p12
S'oral'
p13
S'JJ'
p14
S'B-NP'
p15
g5
tp16
a(S'Lactobacillus'
p17
S'Lactobacillus'
p18
S'NN'
p19
S'I-NP'
p20
g5
tp21
a(S'GG'
p22
S'GG'
p23
S'NN'
p24
S'I-NP'
p25
g5
tp26
a(S'on'
p27
S'on'
p28
S'IN'
p29
S'B-PP'
p30
g5
tp31
a(S'enteric'
p32
S'enteric'
p33
S'JJ'
p34
S'B-NP'
p35
g5
tp36
a(S'microflora'
p37
S'microflora'
p38
S'NNS'
p39
S'I-NP'
p40
g5
tp41
a(S'in'
p42
S'in'
p43
S'IN'
p44
S'B-PP'
p45
g5
tp46
a(S'low-birth-weight'
p47
S'low-birth-weight'
p48
S'JJ'
p49
S'B-NP'
p50
g5
tp51
a(S'neonates'
p52
S'neonate'
p53
S'NNS'
p54
S'I-NP'
p55
g5
tp56
a(S'.'
p57
g57
g57
g5
g5
tp58
a(S'BACKGROUND'
p59
S'BACKGROUND'
p60
S'NN'
p61
S'B-NP'
p62
g5
tp63
a(S'Colonization'
p64
S'Colonization'
p65
S'NN'
p66
S'I-NP'
p67
g5
tp68
a(S'patterns'
p69
S'pattern'
p70
S'NNS'
p71
S'I-NP'
p72
g5
tp73
a(S','
p74
g74
g74
g5
g5
tp75
a(S'especially'
p76
S'especially'
p77
S'RB'
p78
S'B-ADVP'
p79
g5
tp80
a(S'by'
p81
S'by'
p82
S'IN'
p83
S'B-PP'
p84
g5
tp85
a(S'anaerobic'
p86
S'anaerobic'
p87
S'JJ'
p88
S'B-NP'
p89
g5
tp90
a(S'flora'
p91
S'flora'
p92
S'NN'
p93
S'I-NP'
p94
g5
tp95
a(g74
g74
g74
g5
g5
tp96
a(S'may'
p97
S'may'
p98
S'MD'
p99
S'B-VP'
p100
g5
tp101
a(S'play'
p102
S'play'
p103
S'VB'
p104
S'I-VP'
p105
g5
tp106
a(S'an'
p107
S'an'
p108
S'DT'
p109
S'B-NP'
p110
g5
tp111
a(S'important'
p112
S'important'
p113
S'JJ'
p114
S'I-NP'
p115
g5
tp116
a(S'role'
p117
S'role'
p118
S'NN'
p119
S'I-NP'
p120
g5
tp121
a(S'in'
p122
S'in'
p123
S'IN'
p124
S'B-PP'
p125
g5
tp126
a(S'neonatal'
p127
S'neonatal'
p128
S'JJ'
p129
S'B-NP'
p130
g5
tp131
a(S'gut'
p132
S'gut'
p133
S'NN'
p134
S'I-NP'
p135
g5
tp136
a(S'function.'
p137
S'function.'
p138
S'NN'
p139
S'I-NP'
p140
g5
tp141
a(S'Probiotics'
p142
S'Probiotic'
p143
S'NNS'
p144
S'I-NP'
p145
g5
tp146
a(S'could'
p147
S'could'
p148
S'MD'
p149
S'B-VP'
p150
g5
tp151
a(S'affect'
p152
S'affect'
p153
S'VB'
p154
S'I-VP'
p155
g5
tp156
a(S'disease'
p157
S'disease'
p158
S'NN'
p159
S'B-NP'
p160
g5
tp161
a(S'risk'
p162
S'risk'
p163
S'NN'
p164
S'I-NP'
p165
g5
tp166
a(S'either'
p167
S'either'
p168
S'CC'
p169
g5
g5
tp170
a(S'directly'
p171
S'directly'
p172
S'RB'
p173
S'B-ADVP'
p174
g5
tp175
a(S'through'
p176
S'through'
p177
S'IN'
p178
S'B-PP'
p179
g5
tp180
a(S'colonization'
p181
S'colonization'
p182
S'NN'
p183
S'B-NP'
p184
g5
tp185
a(S'or'
p186
S'or'
p187
S'CC'
p188
g5
g5
tp189
a(S'indirectly'
p190
S'indirectly'
p191
S'RB'
p192
S'B-ADVP'
p193
g5
tp194
a(S'by'
p195
S'by'
p196
S'IN'
p197
S'B-PP'
p198
g5
tp199
a(S'promoting'
p200
S'promote'
p201
S'VBG'
p202
S'B-VP'
p203
g5
tp204
a(S'changes'
p205
S'change'
p206
S'NNS'
p207
S'B-NP'
p208
g5
tp209
a(S'in'
p210
S'in'
p211
S'IN'
p212
S'B-PP'
p213
g5
tp214
a(S'gut'
p215
S'gut'
p216
S'NN'
p217
S'B-NP'
p218
g5
tp219
a(S'microbial'
p220
S'microbial'
p221
S'JJ'
p222
S'I-NP'
p223
g5
tp224
a(S'ecology'
p225
S'ecology'
p226
S'NN'
p227
S'I-NP'
p228
g5
tp229
a(g57
g57
g57
g5
g5
tp230
a(S'METHODS'
p231
S'METHODS'
p232
S'NNS'
p233
S'B-NP'
p234
g5
tp235
a(S'To'
p236
S'To'
p237
S'TO'
p238
S'B-VP'
p239
g5
tp240
a(S'study'
p241
S'study'
p242
S'VB'
p243
S'I-VP'
p244
g5
tp245
a(S'the'
p246
S'the'
p247
S'DT'
p248
S'B-NP'
p249
g5
tp250
a(S'ability'
p251
S'ability'
p252
S'NN'
p253
S'I-NP'
p254
g5
tp255
a(S'of'
p256
S'of'
p257
S'IN'
p258
S'B-PP'
p259
g5
tp260
a(S'Lactobacillus'
p261
S'Lactobacillus'
p262
S'NN'
p263
S'B-NP'
p264
g5
tp265
a(S'GG'
p266
S'GG'
p267
S'NN'
p268
S'I-NP'
p269
g5
tp270
a(S'('
p271
g271
g271
g5
g5
tp272
a(S'LGG'
p273
S'LGG'
p274
S'NN'
p275
S'B-NP'
p276
S'B-protein'
p277
tp278
a(S')'
p279
g279
g279
g5
g5
tp280
a(S'to'
p281
S'to'
p282
S'TO'
p283
S'B-VP'
p284
g5
tp285
a(S'colonize'
p286
S'colonize'
p287
S'VB'
p288
S'I-VP'
p289
g5
tp290
a(S'the'
p291
S'the'
p292
S'DT'
p293
S'B-NP'
p294
g5
tp295
a(S'neonatal'
p296
S'neonatal'
p297
S'JJ'
p298
S'I-NP'
p299
g5
tp300
a(S'gut'
p301
S'gut'
p302
S'NN'
p303
S'I-NP'
p304
g5
tp305
a(S'and'
p306
S'and'
p307
S'CC'
p308
g5
g5
tp309
a(S'modify'
p310
S'modify'
p311
S'VB'
p312
S'B-VP'
p313
g5
tp314
a(S'its'
p315
S'its'
p316
S'PRP$'
p317
S'B-NP'
p318
g5
tp319
a(S'microbial'
p320
S'microbial'
p321
S'JJ'
p322
S'I-NP'
p323
g5
tp324
a(S'ecology'
p325
S'ecology'
p326
S'NN'
p327
S'I-NP'
p328
g5
tp329
a(g74
g74
g74
g5
g5
tp330
a(S'a'
p331
g331
S'DT'
p332
S'B-NP'
p333
g5
tp334
a(S'prospective'
p335
S'prospective'
p336
S'JJ'
p337
S'I-NP'
p338
g5
tp339
a(g74
g74
g74
S'I-NP'
p340
g5
tp341
a(S'randomized'
p342
S'randomize'
p343
S'VBN'
p344
S'I-NP'
p345
g5
tp346
a(S'study'
p347
S'study'
p348
S'NN'
p349
S'I-NP'
p350
g5
tp351
a(S'was'
p352
S'be'
p353
S'VBD'
p354
S'B-VP'
p355
g5
tp356
a(S'performed'
p357
S'perform'
p358
S'VBN'
p359
S'I-VP'
p360
g5
tp361
a(S'in'
p362
S'in'
p363
S'IN'
p364
S'B-PP'
p365
g5
tp366
a(S'71'
p367
S'71'
p368
S'CD'
p369
S'B-NP'
p370
g5
tp371
a(S'preterm'
p372
S'preterm'
p373
S'JJ'
p374
S'I-NP'
p375
g5
tp376
a(S'infants'
p377
S'infant'
p378
S'NNS'
p379
S'I-NP'
p380
g5
tp381
a(S'of'
p382
S'of'
p383
S'IN'
p384
S'B-PP'
p385
g5
tp386
a(S'less'
p387
S'less'
p388
S'JJR'
p389
S'B-NP'
p390
g5
tp391
a(S'than'
p392
S'than'
p393
S'IN'
p394
S'I-NP'
p395
g5
tp396
a(S'2000'
p397
S'2000'
p398
S'CD'
p399
S'I-NP'
p400
g5
tp401
a(S'g'
p402
g402
S'NN'
p403
S'I-NP'
p404
g5
tp405
a(S'birth'
p406
S'birth'
p407
S'NN'
p408
S'I-NP'
p409
g5
tp410
a(S'weight.'
p411
S'weight.'
p412
S'NN'
p413
S'I-NP'
p414
g5
tp415
a(S'Infants'
p416
S'Infant'
p417
S'NNS'
p418
S'I-NP'
p419
g5
tp420
a(S'less'
p421
S'less'
p422
S'JJR'
p423
S'B-NP'
p424
g5
tp425
a(S'than'
p426
S'than'
p427
S'IN'
p428
S'I-NP'
p429
g5
tp430
a(S'1500'
p431
S'1500'
p432
S'CD'
p433
S'I-NP'
p434
g5
tp435
a(g402
g402
S'NN'
p436
S'I-NP'
p437
g5
tp438
a(g271
g271
g271
g5
g5
tp439
a(S'24'
p440
S'24'
p441
S'CD'
p442
S'B-NP'
p443
g5
tp444
a(S'treated'
p445
S'treat'
p446
S'VBN'
p447
S'B-VP'
p448
g5
tp449
a(g74
g74
g74
g5
g5
tp450
a(S'15'
p451
S'15'
p452
S'CD'
p453
S'B-NP'
p454
g5
tp455
a(S'control'
p456
S'control'
p457
S'NN'
p458
S'I-NP'
p459
g5
tp460
a(g279
g279
g279
g5
g5
tp461
a(S'received'
p462
S'receive'
p463
S'VBD'
p464
S'B-VP'
p465
g5
tp466
a(S'10'
p467
S'10'
p468
S'CD'
p469
S'B-NP'
p470
g5
tp471
a(g271
g271
g271
g5
g5
tp472
a(S'9'
p473
g473
S'CD'
p474
S'B-NP'
p475
g5
tp476
a(g279
g279
g279
g5
g5
tp477
a(S'LGG'
p478
S'LGG'
p479
S'NN'
p480
S'B-NP'
p481
g5
tp482
a(S'orally'
p483
S'orally'
p484
S'RB'
p485
S'B-ADVP'
p486
g5
tp487
a(S'twice'
p488
S'twice'
p489
S'RB'
p490
S'B-ADVP'
p491
g5
tp492
a(S'daily'
p493
S'daily'
p494
S'RB'
p495
S'I-ADVP'
p496
g5
tp497
a(S'for'
p498
S'for'
p499
S'IN'
p500
S'B-PP'
p501
g5
tp502
a(S'21'
p503
S'21'
p504
S'CD'
p505
S'B-NP'
p506
g5
tp507
a(S'days.'
p508
S'days.'
p509
S'NNS'
p510
S'I-NP'
p511
g5
tp512
a(S'Those'
p513
S'Those'
p514
S'DT'
p515
S'B-NP'
p516
g5
tp517
a(S'infants'
p518
S'infant'
p519
S'NNS'
p520
S'I-NP'
p521
g5
tp522
a(S'weighing'
p523
S'weigh'
p524
S'VBG'
p525
S'B-VP'
p526
g5
tp527
a(S'1500'
p528
S'1500'
p529
S'CD'
p530
S'B-NP'
p531
g5
tp532
a(S'to'
p533
S'to'
p534
S'TO'
p535
S'B-PP'
p536
g5
tp537
a(S'1999'
p538
S'1999'
p539
S'CD'
p540
S'B-NP'
p541
g5
tp542
a(g402
g402
S'NN'
p543
S'I-NP'
p544
g5
tp545
a(g271
g271
g271
g5
g5
tp546
a(S'23'
p547
S'23'
p548
S'CD'
p549
S'B-NP'
p550
g5
tp551
a(S'treated'
p552
S'treat'
p553
S'VBN'
p554
S'B-VP'
p555
g5
tp556
a(g74
g74
g74
g5
g5
tp557
a(g473
g473
S'CD'
p558
S'B-NP'
p559
g5
tp560
a(S'control'
p561
S'control'
p562
S'NN'
p563
S'I-NP'
p564
g5
tp565
a(g279
g279
g279
g5
g5
tp566
a(S'were'
p567
S'be'
p568
S'VBD'
p569
S'B-VP'
p570
g5
tp571
a(S'treated'
p572
S'treat'
p573
S'VBN'
p574
S'I-VP'
p575
g5
tp576
a(S'for'
p577
S'for'
p578
S'IN'
p579
S'B-PP'
p580
g5
tp581
a(S'8'
p582
g582
S'CD'
p583
S'B-NP'
p584
g5
tp585
a(S'days.'
p586
S'days.'
p587
S'JJ'
p588
S'I-NP'
p589
g5
tp590
a(S'Stools'
p591
S'Stool'
p592
S'NNS'
p593
S'I-NP'
p594
g5
tp595
a(S'were'
p596
S'be'
p597
S'VBD'
p598
S'B-VP'
p599
g5
tp600
a(S'collected'
p601
S'collect'
p602
S'VBN'
p603
S'I-VP'
p604
g5
tp605
a(S'before'
p606
S'before'
p607
S'IN'
p608
S'B-PP'
p609
g5
tp610
a(S'treatment'
p611
S'treatment'
p612
S'NN'
p613
S'B-NP'
p614
g5
tp615
a(S'and'
p616
S'and'
p617
S'CC'
p618
S'B-PP'
p619
g5
tp620
a(S'on'
p621
S'on'
p622
S'IN'
p623
S'B-PP'
p624
g5
tp625
a(S'day'
p626
S'day'
p627
S'NN'
p628
S'B-NP'
p629
g5
tp630
a(S'7'
p631
g631
S'CD'
p632
S'I-NP'
p633
g5
tp634
a(S'to'
p635
S'to'
p636
S'TO'
p637
S'I-NP'
p638
g5
tp639
a(g582
g582
S'CD'
p640
S'I-NP'
p641
g5
tp642
a(g271
g271
g271
g5
g5
tp643
a(S'and'
p644
S'and'
p645
S'CC'
p646
g5
g5
tp647
a(S'day'
p648
S'day'
p649
S'NN'
p650
S'B-NP'
p651
g5
tp652
a(S'14'
p653
S'14'
p654
S'CD'
p655
S'I-NP'
p656
g5
tp657
a(S'and'
p658
S'and'
p659
S'CC'
p660
S'I-NP'
p661
g5
tp662
a(S'21'
p663
S'21'
p664
S'CD'
p665
S'I-NP'
p666
g5
tp667
a(g74
g74
g74
g5
g5
tp668
a(S'in'
p669
S'in'
p670
S'IN'
p671
S'B-PP'
p672
g5
tp673
a(S'the'
p674
S'the'
p675
S'DT'
p676
S'B-NP'
p677
g5
tp678
a(S'infants'
p679
S'infant'
p680
S'NNS'
p681
S'I-NP'
p682
g5
tp683
a(S'weighing'
p684
S'weigh'
p685
S'VBG'
p686
S'B-VP'
p687
g5
tp688
a(S'less'
p689
S'less'
p690
S'JJR'
p691
S'B-NP'
p692
g5
tp693
a(S'than'
p694
S'than'
p695
S'IN'
p696
S'I-NP'
p697
g5
tp698
a(S'1500'
p699
S'1500'
p700
S'CD'
p701
S'I-NP'
p702
g5
tp703
a(g402
g402
S'NN'
p704
S'I-NP'
p705
g5
tp706
a(g279
g279
g279
g5
g5
tp707
a(S'for'
p708
S'for'
p709
S'IN'
p710
S'B-PP'
p711
g5
tp712
a(S'quantitative'
p713
S'quantitative'
p714
S'JJ'
p715
S'B-NP'
p716
g5
tp717
a(S'aerobic'
p718
S'aerobic'
p719
S'JJ'
p720
S'I-NP'
p721
g5
tp722
a(S'and'
p723
S'and'
p724
S'CC'
p725
S'I-NP'
p726
g5
tp727
a(S'anaerobic'
p728
S'anaerobic'
p729
S'JJ'
p730
S'I-NP'
p731
g5
tp732
a(S'cultures'
p733
S'culture'
p734
S'NNS'
p735
S'I-NP'
p736
g5
tp737
a(g57
g57
g57
g5
g5
tp738
a(S'RESULTS'
p739
S'RESULTS'
p740
S'NNS'
p741
S'B-NP'
p742
g5
tp743
a(S'Colonization'
p744
S'Colonization'
p745
S'NN'
p746
S'I-NP'
p747
g5
tp748
a(S'with'
p749
S'with'
p750
S'IN'
p751
S'B-PP'
p752
g5
tp753
a(S'LGG'
p754
S'LGG'
p755
S'NN'
p756
S'B-NP'
p757
S'B-protein'
p758
tp759
a(S'occurred'
p760
S'occur'
p761
S'VBD'
p762
S'B-VP'
p763
g5
tp764
a(S'in'
p765
S'in'
p766
S'IN'
p767
S'B-PP'
p768
g5
tp769
a(S'5'
p770
g770
S'CD'
p771
S'B-NP'
p772
g5
tp773
a(S'of'
p774
S'of'
p775
S'IN'
p776
S'B-PP'
p777
g5
tp778
a(S'24'
p779
S'24'
p780
S'CD'
p781
S'B-NP'
p782
g5
tp783
a(g271
g271
g271
g5
g5
tp784
a(S'21'
p785
S'21'
p786
S'CD'
p787
S'B-NP'
p788
g5
tp789
a(S'%'
p790
g790
S'NN'
p791
S'I-NP'
p792
g5
tp793
a(g279
g279
g279
g5
g5
tp794
a(S'infants'
p795
S'infant'
p796
S'NNS'
p797
S'B-NP'
p798
g5
tp799
a(S'who'
p800
S'who'
p801
S'WP'
p802
S'B-NP'
p803
g5
tp804
a(S'weighed'
p805
S'weigh'
p806
S'VBD'
p807
S'B-VP'
p808
g5
tp809
a(S'less'
p810
S'less'
p811
S'JJR'
p812
S'B-NP'
p813
g5
tp814
a(S'than'
p815
S'than'
p816
S'IN'
p817
S'I-NP'
p818
g5
tp819
a(S'1500'
p820
S'1500'
p821
S'CD'
p822
S'I-NP'
p823
g5
tp824
a(g402
g402
S'NN'
p825
S'I-NP'
p826
g5
tp827
a(S'versus'
p828
S'versus'
p829
S'IN'
p830
S'B-PP'
p831
g5
tp832
a(S'11'
p833
S'11'
p834
S'CD'
p835
S'B-NP'
p836
g5
tp837
a(S'of'
p838
S'of'
p839
S'IN'
p840
S'B-PP'
p841
g5
tp842
a(S'23'
p843
S'23'
p844
S'CD'
p845
S'B-NP'
p846
g5
tp847
a(g271
g271
g271
g5
g5
tp848
a(S'47'
p849
S'47'
p850
S'CD'
p851
S'B-NP'
p852
g5
tp853
a(g790
g790
S'NN'
p854
S'I-NP'
p855
g5
tp856
a(g279
g279
g279
g5
g5
tp857
a(S'in'
p858
S'in'
p859
S'IN'
p860
S'B-PP'
p861
g5
tp862
a(S'larger'
p863
S'large'
p864
S'JJR'
p865
S'B-NP'
p866
g5
tp867
a(S'infants.'
p868
S'infants.'
p869
S'NN'
p870
S'I-NP'
p871
g5
tp872
a(S'Colonization'
p873
S'Colonization'
p874
S'NN'
p875
S'I-NP'
p876
g5
tp877
a(S'was'
p878
S'be'
p879
S'VBD'
p880
S'B-VP'
p881
g5
tp882
a(S'limited'
p883
S'limit'
p884
S'VBN'
p885
S'I-VP'
p886
g5
tp887
a(S'to'
p888
S'to'
p889
S'TO'
p890
S'B-PP'
p891
g5
tp892
a(S'infants'
p893
S'infant'
p894
S'NNS'
p895
S'B-NP'
p896
g5
tp897
a(S'who'
p898
S'who'
p899
S'WP'
p900
S'B-NP'
p901
g5
tp902
a(S'were'
p903
S'be'
p904
S'VBD'
p905
S'B-VP'
p906
g5
tp907
a(S'not'
p908
S'not'
p909
S'RB'
p910
g5
g5
tp911
a(S'on'
p912
S'on'
p913
S'IN'
p914
S'B-PP'
p915
g5
tp916
a(S'antibiotics'
p917
S'antibiotic'
p918
S'NNS'
p919
S'B-NP'
p920
g5
tp921
a(S'within'
p922
S'within'
p923
S'IN'
p924
S'B-PP'
p925
g5
tp926
a(g631
g631
S'CD'
p927
S'B-NP'
p928
g5
tp929
a(S'days'
p930
S'day'
p931
S'NNS'
p932
S'I-NP'
p933
g5
tp934
a(S'of'
p935
S'of'
p936
S'IN'
p937
S'B-PP'
p938
g5
tp939
a(S'treatment'
p940
S'treatment'
p941
S'NN'
p942
S'B-NP'
p943
g5
tp944
a(S'with'
p945
S'with'
p946
S'IN'
p947
S'B-PP'
p948
g5
tp949
a(S'LGG.'
p950
S'LGG.'
p951
S'NNP'
p952
S'B-NP'
p953
g5
tp954
a(S'There'
p955
S'There'
p956
S'EX'
p957
S'B-NP'
p958
g5
tp959
a(S'was'
p960
S'be'
p961
S'VBD'
p962
S'B-VP'
p963
g5
tp964
a(g331
g331
S'DT'
p965
S'B-NP'
p966
g5
tp967
a(S'paucity'
p968
S'paucity'
p969
S'NN'
p970
S'I-NP'
p971
g5
tp972
a(S'of'
p973
S'of'
p974
S'IN'
p975
S'B-PP'
p976
g5
tp977
a(S'bacterial'
p978
S'bacterial'
p979
S'JJ'
p980
S'B-NP'
p981
g5
tp982
a(S'species'
p983
S'specie'
p984
S'NNS'
p985
S'I-NP'
p986
g5
tp987
a(S'at'
p988
S'at'
p989
S'IN'
p990
S'B-PP'
p991
g5
tp992
a(S'baseline'
p993
S'baseline'
p994
S'NN'
p995
S'B-NP'
p996
g5
tp997
a(g74
g74
g74
g5
g5
tp998
a(S'although'
p999
S'although'
p1000
S'IN'
p1001
S'B-SBAR'
p1002
g5
tp1003
a(S'larger'
p1004
S'large'
p1005
S'JJR'
p1006
S'B-NP'
p1007
g5
tp1008
a(S'infants'
p1009
S'infant'
p1010
S'NNS'
p1011
S'I-NP'
p1012
g5
tp1013
a(S'had'
p1014
S'have'
p1015
S'VBD'
p1016
S'B-VP'
p1017
g5
tp1018
a(S'more'
p1019
S'more'
p1020
S'RBR'
p1021
S'B-NP'
p1022
g5
tp1023
a(S'bacterial'
p1024
S'bacterial'
p1025
S'JJ'
p1026
S'I-NP'
p1027
g5
tp1028
a(S'species'
p1029
S'specie'
p1030
S'NNS'
p1031
S'I-NP'
p1032
g5
tp1033
a(g271
g271
g271
g5
g5
tp1034
a(S'1.59'
p1035
S'1.59'
p1036
S'CD'
p1037
S'B-NP'
p1038
g5
tp1039
a(S'+/-'
p1040
S'+/-'
p1041
S'CC'
p1042
S'I-NP'
p1043
g5
tp1044
a(S'0.13'
p1045
S'0.13'
p1046
S'CD'
p1047
S'I-NP'
p1048
g5
tp1049
a(g271
g271
g271
g5
g5
tp1050
a(S'SEM'
p1051
S'SEM'
p1052
S'NN'
p1053
S'B-NP'
p1054
g5
tp1055
a(g279
g279
g279
g5
g5
tp1056
a(S'vs'
p1057
S'vs'
p1058
S'IN'
p1059
S'B-PP'
p1060
g5
tp1061
a(S'1.11'
p1062
S'1.11'
p1063
S'CD'
p1064
S'B-NP'
p1065
g5
tp1066
a(S'+/-'
p1067
S'+/-'
p1068
S'SYM'
p1069
S'I-NP'
p1070
g5
tp1071
a(S'0.12'
p1072
S'0.12'
p1073
S'CD'
p1074
S'I-NP'
p1075
g5
tp1076
a(S';'
p1077
g1077
S':'
p1078
g5
g5
tp1079
a(S'P'
p1080
g1080
S'NN'
p1081
S'B-NP'
p1082
g5
tp1083
a(S'<'
p1084
g1084
S'SYM'
p1085
S'B-NP'
p1086
g5
tp1087
a(S'0.03'
p1088
S'0.03'
p1089
S'CD'
p1090
S'I-NP'
p1091
g5
tp1092
a(g279
g279
g279
g5
g5
tp1093
a(S'and'
p1094
S'and'
p1095
S'CC'
p1096
g5
g5
tp1097
a(S'higher'
p1098
S'high'
p1099
S'JJR'
p1100
S'B-NP'
p1101
g5
tp1102
a(S'mean'
p1103
S'mean'
p1104
S'JJ'
p1105
S'I-NP'
p1106
g5
tp1107
a(S'log'
p1108
S'log'
p1109
S'NN'
p1110
S'I-NP'
p1111
g5
tp1112
a(S'colony'
p1113
S'colony'
p1114
S'NN'
p1115
S'I-NP'
p1116
g5
tp1117
a(S'forming'
p1118
S'form'
p1119
S'VBG'
p1120
S'B-VP'
p1121
g5
tp1122
a(S'units'
p1123
S'unit'
p1124
S'NNS'
p1125
S'B-NP'
p1126
g5
tp1127
a(g271
g271
g271
g5
g5
tp1128
a(S'CFU'
p1129
S'CFU'
p1130
S'NN'
p1131
S'B-NP'
p1132
g5
tp1133
a(g279
g279
g279
g5
g5
tp1134
a(g271
g271
g271
g5
g5
tp1135
a(S'8.79'
p1136
S'8.79'
p1137
S'CD'
p1138
S'B-NP'
p1139
g5
tp1140
a(S'+/-'
p1141
S'+/-'
p1142
S'SYM'
p1143
S'I-NP'
p1144
g5
tp1145
a(S'0.43'
p1146
S'0.43'
p1147
S'CD'
p1148
S'I-NP'
p1149
g5
tp1150
a(S'vs'
p1151
S'vs'
p1152
S'IN'
p1153
S'B-PP'
p1154
g5
tp1155
a(S'7.22'
p1156
S'7.22'
p1157
S'CD'
p1158
S'B-NP'
p1159
g5
tp1160
a(S'+/-'
p1161
S'+/-'
p1162
S'SYM'
p1163
S'I-NP'
p1164
g5
tp1165
a(S'0.63'
p1166
S'0.63'
p1167
S'CD'
p1168
S'I-NP'
p1169
g5
tp1170
a(g1077
g1077
g1078
g5
g5
tp1171
a(g1080
g1080
S'NN'
p1172
S'B-NP'
p1173
g5
tp1174
a(g1084
g1084
S'SYM'
p1175
S'B-NP'
p1176
g5
tp1177
a(S'0.05'
p1178
S'0.05'
p1179
S'CD'
p1180
S'I-NP'
p1181
g5
tp1182
a(g279
g279
g279
g5
g5
tp1183
a(S'compared'
p1184
S'compare'
p1185
S'VBN'
p1186
S'B-PP'
p1187
g5
tp1188
a(S'with'
p1189
S'with'
p1190
S'IN'
p1191
S'B-PP'
p1192
g5
tp1193
a(S'infants'
p1194
S'infant'
p1195
S'NNS'
p1196
S'B-NP'
p1197
g5
tp1198
a(S'weighing'
p1199
S'weigh'
p1200
S'VBG'
p1201
S'B-VP'
p1202
g5
tp1203
a(S'less'
p1204
S'less'
p1205
S'JJR'
p1206
S'B-NP'
p1207
g5
tp1208
a(S'than'
p1209
S'than'
p1210
S'IN'
p1211
S'I-NP'
p1212
g5
tp1213
a(S'1500'
p1214
S'1500'
p1215
S'CD'
p1216
S'I-NP'
p1217
g5
tp1218
a(g402
g402
S'NN'
p1219
S'I-NP'
p1220
g5
tp1221
a(S'LGG.'
p1222
S'LGG.'
p1223
S'NNP'
p1224
S'I-NP'
p1225
g5
tp1226
a(S'Treatment'
p1227
S'Treatment'
p1228
S'NNP'
p1229
S'I-NP'
p1230
g5
tp1231
a(S'in'
p1232
S'in'
p1233
S'IN'
p1234
S'B-PP'
p1235
g5
tp1236
a(S'infants'
p1237
S'infant'
p1238
S'NNS'
p1239
S'B-NP'
p1240
g5
tp1241
a(S'weighing'
p1242
S'weigh'
p1243
S'VBG'
p1244
S'B-VP'
p1245
g5
tp1246
a(S'less'
p1247
S'less'
p1248
S'JJR'
p1249
S'B-NP'
p1250
g5
tp1251
a(S'than'
p1252
S'than'
p1253
S'IN'
p1254
S'I-NP'
p1255
g5
tp1256
a(S'1500'
p1257
S'1500'
p1258
S'CD'
p1259
S'I-NP'
p1260
g5
tp1261
a(g402
g402
S'NN'
p1262
S'I-NP'
p1263
g5
tp1264
a(S'resulted'
p1265
S'result'
p1266
S'VBD'
p1267
S'B-VP'
p1268
g5
tp1269
a(S'in'
p1270
S'in'
p1271
S'IN'
p1272
S'B-PP'
p1273
g5
tp1274
a(g331
g331
S'DT'
p1275
S'B-NP'
p1276
g5
tp1277
a(S'significant'
p1278
S'significant'
p1279
S'JJ'
p1280
S'I-NP'
p1281
g5
tp1282
a(S'increase'
p1283
S'increase'
p1284
S'NN'
p1285
S'I-NP'
p1286
g5
tp1287
a(S'in'
p1288
S'in'
p1289
S'IN'
p1290
S'B-PP'
p1291
g5
tp1292
a(S'species'
p1293
S'specie'
p1294
S'NNS'
p1295
S'B-NP'
p1296
g5
tp1297
a(S'number'
p1298
S'number'
p1299
S'NN'
p1300
S'I-NP'
p1301
g5
tp1302
a(S'by'
p1303
S'by'
p1304
S'IN'
p1305
S'B-PP'
p1306
g5
tp1307
a(S'day'
p1308
S'day'
p1309
S'NN'
p1310
S'B-NP'
p1311
g5
tp1312
a(g631
g631
S'CD'
p1313
S'I-NP'
p1314
g5
tp1315
a(g74
g74
g74
g5
g5
tp1316
a(S'with'
p1317
S'with'
p1318
S'IN'
p1319
S'B-PP'
p1320
g5
tp1321
a(S'further'
p1322
S'further'
p1323
S'JJ'
p1324
S'B-NP'
p1325
g5
tp1326
a(S'increases'
p1327
S'increase'
p1328
S'NNS'
p1329
S'I-NP'
p1330
g5
tp1331
a(S'by'
p1332
S'by'
p1333
S'IN'
p1334
S'B-PP'
p1335
g5
tp1336
a(S'day'
p1337
S'day'
p1338
S'NN'
p1339
S'B-NP'
p1340
g5
tp1341
a(S'21.'
p1342
S'21.'
p1343
S'CD'
p1344
S'I-NP'
p1345
g5
tp1346
a(S'This'
p1347
S'This'
p1348
S'DT'
p1349
S'B-NP'
p1350
g5
tp1351
a(S'increase'
p1352
S'increase'
p1353
S'NN'
p1354
S'I-NP'
p1355
g5
tp1356
a(S'was'
p1357
S'be'
p1358
S'VBD'
p1359
S'B-VP'
p1360
g5
tp1361
a(S'mainly'
p1362
S'mainly'
p1363
S'RB'
p1364
S'B-ADVP'
p1365
g5
tp1366
a(S'the'
p1367
S'the'
p1368
S'DT'
p1369
S'B-NP'
p1370
g5
tp1371
a(S'result'
p1372
S'result'
p1373
S'NN'
p1374
S'I-NP'
p1375
g5
tp1376
a(S'of'
p1377
S'of'
p1378
S'IN'
p1379
S'B-PP'
p1380
g5
tp1381
a(S'increased'
p1382
S'increase'
p1383
S'VBN'
p1384
S'B-NP'
p1385
g5
tp1386
a(S'Gram'
p1387
S'Gram'
p1388
S'NN'
p1389
S'I-NP'
p1390
g5
tp1391
a(g271
g271
g271
g5
g5
tp1392
a(S'+'
p1393
g1393
S'SYM'
p1394
S'B-NP'
p1395
g5
tp1396
a(g279
g279
g279
g5
g5
tp1397
a(S'and'
p1398
S'and'
p1399
S'CC'
p1400
g5
g5
tp1401
a(S'anaerobic'
p1402
S'anaerobic'
p1403
S'JJ'
p1404
S'B-NP'
p1405
g5
tp1406
a(S'species.'
p1407
S'species.'
p1408
S'NN'
p1409
S'I-NP'
p1410
g5
tp1411
a(S'No'
p1412
S'No'
p1413
S'DT'
p1414
S'B-NP'
p1415
g5
tp1416
a(S'difference'
p1417
S'difference'
p1418
S'NN'
p1419
S'I-NP'
p1420
g5
tp1421
a(S'in'
p1422
S'in'
p1423
S'IN'
p1424
S'B-PP'
p1425
g5
tp1426
a(S'species'
p1427
S'specie'
p1428
S'NNS'
p1429
S'B-NP'
p1430
g5
tp1431
a(S'number'
p1432
S'number'
p1433
S'NN'
p1434
S'I-NP'
p1435
g5
tp1436
a(S'was'
p1437
S'be'
p1438
S'VBD'
p1439
S'B-VP'
p1440
g5
tp1441
a(S'noted'
p1442
S'note'
p1443
S'VBN'
p1444
S'I-VP'
p1445
g5
tp1446
a(S'in'
p1447
S'in'
p1448
S'IN'
p1449
S'B-PP'
p1450
g5
tp1451
a(S'controls.'
p1452
S'controls.'
p1453
S'NN'
p1454
S'B-NP'
p1455
g5
tp1456
a(S'Mean'
p1457
S'Mean'
p1458
S'NN'
p1459
S'I-NP'
p1460
g5
tp1461
a(S'log'
p1462
S'log'
p1463
S'NN'
p1464
S'I-NP'
p1465
g5
tp1466
a(S'CFU'
p1467
S'CFU'
p1468
S'NN'
p1469
S'I-NP'
p1470
g5
tp1471
a(S'of'
p1472
S'of'
p1473
S'IN'
p1474
S'B-PP'
p1475
g5
tp1476
a(S'Gram'
p1477
S'Gram'
p1478
S'NN'
p1479
S'B-NP'
p1480
g5
tp1481
a(g271
g271
g271
g5
g5
tp1482
a(S'-'
p1483
g1483
S'SYM'
p1484
g5
g5
tp1485
a(g279
g279
g279
g5
g5
tp1486
a(S'bacteria'
p1487
S'bacteria'
p1488
S'NNS'
p1489
S'B-NP'
p1490
g5
tp1491
a(S'did'
p1492
S'do'
p1493
S'VBD'
p1494
S'B-VP'
p1495
g5
tp1496
a(S'not'
p1497
S'not'
p1498
S'RB'
p1499
S'I-VP'
p1500
g5
tp1501
a(S'change'
p1502
S'change'
p1503
S'VB'
p1504
S'I-VP'
p1505
g5
tp1506
a(S'in'
p1507
S'in'
p1508
S'IN'
p1509
S'B-PP'
p1510
g5
tp1511
a(S'treated'
p1512
S'treat'
p1513
S'VBN'
p1514
S'B-NP'
p1515
g5
tp1516
a(S'infants'
p1517
S'infant'
p1518
S'NNS'
p1519
S'I-NP'
p1520
g5
tp1521
a(S'weighing'
p1522
S'weigh'
p1523
S'VBG'
p1524
S'B-VP'
p1525
g5
tp1526
a(S'less'
p1527
S'less'
p1528
S'JJR'
p1529
S'B-NP'
p1530
g5
tp1531
a(S'than'
p1532
S'than'
p1533
S'IN'
p1534
S'I-NP'
p1535
g5
tp1536
a(S'1500'
p1537
S'1500'
p1538
S'CD'
p1539
S'I-NP'
p1540
g5
tp1541
a(S'g.'
p1542
S'g.'
p1543
S'NN'
p1544
S'I-NP'
p1545
g5
tp1546
a(S'However'
p1547
S'However'
p1548
S'RB'
p1549
S'B-ADVP'
p1550
g5
tp1551
a(g74
g74
g74
g5
g5
tp1552
a(S'Gram'
p1553
S'Gram'
p1554
S'NN'
p1555
S'B-NP'
p1556
g5
tp1557
a(g271
g271
g271
g5
g5
tp1558
a(g1393
g1393
S'SYM'
p1559
g5
g5
tp1560
a(g279
g279
g279
g5
g5
tp1561
a(S'mean'
p1562
S'mean'
p1563
S'JJ'
p1564
S'B-NP'
p1565
g5
tp1566
a(S'log'
p1567
S'log'
p1568
S'NN'
p1569
S'I-NP'
p1570
g5
tp1571
a(S'CFU'
p1572
S'CFU'
p1573
S'NN'
p1574
S'I-NP'
p1575
g5
tp1576
a(S'showed'
p1577
S'show'
p1578
S'VBD'
p1579
S'B-VP'
p1580
g5
tp1581
a(g331
g331
S'DT'
p1582
S'B-NP'
p1583
g5
tp1584
a(S'significant'
p1585
S'significant'
p1586
S'JJ'
p1587
S'I-NP'
p1588
g5
tp1589
a(S'increase'
p1590
S'increase'
p1591
S'NN'
p1592
S'I-NP'
p1593
g5
tp1594
a(S'on'
p1595
S'on'
p1596
S'IN'
p1597
S'B-PP'
p1598
g5
tp1599
a(S'day'
p1600
S'day'
p1601
S'NN'
p1602
S'B-NP'
p1603
g5
tp1604
a(S'21'
p1605
S'21'
p1606
S'CD'
p1607
S'I-NP'
p1608
g5
tp1609
a(g271
g271
g271
g5
g5
tp1610
a(S'6.1'
p1611
S'6.1'
p1612
S'CD'
p1613
S'B-NP'
p1614
g5
tp1615
a(S'+/-'
p1616
S'+/-'
p1617
S'CC'
p1618
S'I-NP'
p1619
g5
tp1620
a(S'0.9'
p1621
S'0.9'
p1622
S'CD'
p1623
S'I-NP'
p1624
g5
tp1625
a(g279
g279
g279
g5
g5
tp1626
a(S'compared'
p1627
S'compare'
p1628
S'VBN'
p1629
S'B-PP'
p1630
g5
tp1631
a(S'with'
p1632
S'with'
p1633
S'IN'
p1634
S'B-PP'
p1635
g5
tp1636
a(S'day'
p1637
S'day'
p1638
S'NN'
p1639
S'B-NP'
p1640
g5
tp1641
a(S'0'
p1642
g1642
S'CD'
p1643
S'I-NP'
p1644
g5
tp1645
a(g271
g271
g271
g5
g5
tp1646
a(S'3.5'
p1647
S'3.5'
p1648
S'CD'
p1649
S'B-NP'
p1650
g5
tp1651
a(S'+/-'
p1652
S'+/-'
p1653
S'CC'
p1654
S'I-NP'
p1655
g5
tp1656
a(S'0.9'
p1657
S'0.9'
p1658
S'CD'
p1659
S'I-NP'
p1660
g5
tp1661
a(g279
g279
g279
g5
g5
tp1662
a(g271
g271
g271
g5
g5
tp1663
a(g1080
g1080
S'NN'
p1664
S'B-NP'
p1665
g5
tp1666
a(g1084
g1084
S'SYM'
p1667
g5
g5
tp1668
a(S'0.05'
p1669
S'0.05'
p1670
S'CD'
p1671
S'B-NP'
p1672
g5
tp1673
a(g279
g279
g279
g5
g5
tp1674
a(g57
g57
g57
g5
g5
tp1675
a(S'No'
p1676
S'No'
p1677
S'DT'
p1678
S'B-NP'
p1679
g5
tp1680
a(S'significant'
p1681
S'significant'
p1682
S'JJ'
p1683
S'I-NP'
p1684
g5
tp1685
a(S'changes'
p1686
S'change'
p1687
S'NNS'
p1688
S'I-NP'
p1689
g5
tp1690
a(S'in'
p1691
S'in'
p1692
S'IN'
p1693
S'B-PP'
p1694
g5
tp1695
a(S'species'
p1696
S'specie'
p1697
S'NNS'
p1698
S'B-NP'
p1699
g5
tp1700
a(S'number'
p1701
S'number'
p1702
S'NN'
p1703
S'I-NP'
p1704
g5
tp1705
a(S'or'
p1706
S'or'
p1707
S'CC'
p1708
g5
g5
tp1709
a(S'quantitative'
p1710
S'quantitative'
p1711
S'JJ'
p1712
S'B-NP'
p1713
g5
tp1714
a(S'counts'
p1715
S'count'
p1716
S'NNS'
p1717
S'I-NP'
p1718
g5
tp1719
a(S'were'
p1720
S'be'
p1721
S'VBD'
p1722
S'B-VP'
p1723
g5
tp1724
a(S'noted'
p1725
S'note'
p1726
S'VBN'
p1727
S'I-VP'
p1728
g5
tp1729
a(S'after'
p1730
S'after'
p1731
S'IN'
p1732
S'B-PP'
p1733
g5
tp1734
a(S'LGG'
p1735
S'LGG'
p1736
S'NN'
p1737
S'B-NP'
p1738
S'B-protein'
p1739
tp1740
a(S'treatment'
p1741
S'treatment'
p1742
S'NN'
p1743
S'I-NP'
p1744
g5
tp1745
a(S'in'
p1746
S'in'
p1747
S'IN'
p1748
S'B-PP'
p1749
g5
tp1750
a(S'the'
p1751
S'the'
p1752
S'DT'
p1753
S'B-NP'
p1754
g5
tp1755
a(S'infants'
p1756
S'infant'
p1757
S'NNS'
p1758
S'I-NP'
p1759
g5
tp1760
a(S'weighing'
p1761
S'weigh'
p1762
S'VBG'
p1763
S'B-VP'
p1764
g5
tp1765
a(S'1500'
p1766
S'1500'
p1767
S'CD'
p1768
S'B-NP'
p1769
g5
tp1770
a(S'to'
p1771
S'to'
p1772
S'TO'
p1773
S'I-NP'
p1774
g5
tp1775
a(S'1999'
p1776
S'1999'
p1777
S'CD'
p1778
S'I-NP'
p1779
g5
tp1780
a(g402
g402
S'NN'
p1781
S'I-NP'
p1782
g5
tp1783
a(S'LGG'
p1784
S'LGG'
p1785
S'NN'
p1786
S'I-NP'
p1787
g5
tp1788
a(S'was'
p1789
S'be'
p1790
S'VBD'
p1791
S'B-VP'
p1792
g5
tp1793
a(S'well'
p1794
S'well'
p1795
S'RB'
p1796
S'I-VP'
p1797
g5
tp1798
a(S'tolerated'
p1799
S'tolerate'
p1800
S'VBN'
p1801
S'I-VP'
p1802
g5
tp1803
a(S'in'
p1804
S'in'
p1805
S'IN'
p1806
S'B-PP'
p1807
g5
tp1808
a(S'all'
p1809
S'all'
p1810
S'DT'
p1811
S'B-NP'
p1812
g5
tp1813
a(S'infants'
p1814
S'infant'
p1815
S'NNS'
p1816
S'I-NP'
p1817
g5
tp1818
a(g57
g57
g57
g5
g5
tp1819
a(S'CONCLUSION'
p1820
S'CONCLUSION'
p1821
S'NN'
p1822
S'B-NP'
p1823
g5
tp1824
a(S'The'
p1825
S'The'
p1826
S'DT'
p1827
S'B-NP'
p1828
g5
tp1829
a(S'neonatal'
p1830
S'neonatal'
p1831
S'JJ'
p1832
S'I-NP'
p1833
g5
tp1834
a(S'response'
p1835
S'response'
p1836
S'NN'
p1837
S'I-NP'
p1838
g5
tp1839
a(S'to'
p1840
S'to'
p1841
S'TO'
p1842
S'B-PP'
p1843
g5
tp1844
a(g331
g331
S'DT'
p1845
S'B-NP'
p1846
g5
tp1847
a(S'probiotic'
p1848
S'probiotic'
p1849
S'JJ'
p1850
S'I-NP'
p1851
g5
tp1852
a(S'preparation'
p1853
S'preparation'
p1854
S'NN'
p1855
S'I-NP'
p1856
g5
tp1857
a(S'is'
p1858
S'be'
p1859
S'VBZ'
p1860
S'B-VP'
p1861
g5
tp1862
a(S'dependent'
p1863
S'dependent'
p1864
S'JJ'
p1865
S'B-ADJP'
p1866
g5
tp1867
a(S'on'
p1868
S'on'
p1869
S'IN'
p1870
S'B-PP'
p1871
g5
tp1872
a(S'gestational'
p1873
S'gestational'
p1874
S'JJ'
p1875
S'B-NP'
p1876
g5
tp1877
a(S'and'
p1878
S'and'
p1879
S'CC'
p1880
S'I-NP'
p1881
g5
tp1882
a(S'post-natal'
p1883
S'post-natal'
p1884
S'JJ'
p1885
S'I-NP'
p1886
g5
tp1887
a(S'age'
p1888
S'age'
p1889
S'NN'
p1890
S'I-NP'
p1891
g5
tp1892
a(S'and'
p1893
S'and'
p1894
S'CC'
p1895
g5
g5
tp1896
a(S'prior'
p1897
S'prior'
p1898
S'JJ'
p1899
S'B-NP'
p1900
g5
tp1901
a(S'antibiotic'
p1902
S'antibiotic'
p1903
S'JJ'
p1904
S'I-NP'
p1905
g5
tp1906
a(S'exposure.'
p1907
S'exposure.'
p1908
S'NN'
p1909
S'I-NP'
p1910
g5
tp1911
a(S'Although'
p1912
S'Although'
p1913
S'IN'
p1914
S'B-SBAR'
p1915
g5
tp1916
a(S'LGG'
p1917
S'LGG'
p1918
S'NN'
p1919
S'B-NP'
p1920
S'B-protein'
p1921
tp1922
a(S'is'
p1923
S'be'
p1924
S'VBZ'
p1925
S'B-VP'
p1926
g5
tp1927
a(g331
g331
S'DT'
p1928
S'B-NP'
p1929
g5
tp1930
a(S'relatively'
p1931
S'relatively'
p1932
S'RB'
p1933
S'I-NP'
p1934
g5
tp1935
a(S'poor'
p1936
S'poor'
p1937
S'JJ'
p1938
S'I-NP'
p1939
g5
tp1940
a(S'colonizer'
p1941
S'colonizer'
p1942
S'NN'
p1943
S'I-NP'
p1944
g5
tp1945
a(S'in'
p1946
S'in'
p1947
S'IN'
p1948
S'B-PP'
p1949
g5
tp1950
a(S'infants'
p1951
S'infant'
p1952
S'NNS'
p1953
S'B-NP'
p1954
g5
tp1955
a(g74
g74
g74
g5
g5
tp1956
a(S'especially'
p1957
S'especially'
p1958
S'RB'
p1959
S'B-ADVP'
p1960
g5
tp1961
a(S'those'
p1962
S'those'
p1963
S'DT'
p1964
S'B-NP'
p1965
g5
tp1966
a(S'infants'
p1967
S'infant'
p1968
S'NNS'
p1969
S'I-NP'
p1970
g5
tp1971
a(S'weighing'
p1972
S'weigh'
p1973
S'VBG'
p1974
S'B-VP'
p1975
g5
tp1976
a(S'less'
p1977
S'less'
p1978
S'JJR'
p1979
S'B-NP'
p1980
g5
tp1981
a(S'than'
p1982
S'than'
p1983
S'IN'
p1984
S'I-NP'
p1985
g5
tp1986
a(S'1500'
p1987
S'1500'
p1988
S'CD'
p1989
S'I-NP'
p1990
g5
tp1991
a(g402
g402
S'NN'
p1992
S'I-NP'
p1993
g5
tp1994
a(S'at'
p1995
S'at'
p1996
S'IN'
p1997
S'B-PP'
p1998
g5
tp1999
a(S'birth'
p2000
S'birth'
p2001
S'NN'
p2002
S'B-NP'
p2003
g5
tp2004
a(g74
g74
g74
g5
g5
tp2005
a(S'it'
p2006
S'it'
p2007
S'PRP'
p2008
S'B-NP'
p2009
g5
tp2010
a(S'does'
p2011
S'do'
p2012
S'VBZ'
p2013
S'B-VP'
p2014
g5
tp2015
a(S'appear'
p2016
S'appear'
p2017
S'VB'
p2018
S'I-VP'
p2019
g5
tp2020
a(S'to'
p2021
S'to'
p2022
S'TO'
p2023
S'I-VP'
p2024
g5
tp2025
a(S'affect'
p2026
S'affect'
p2027
S'VB'
p2028
S'I-VP'
p2029
g5
tp2030
a(S'neonatal'
p2031
S'neonatal'
p2032
S'JJ'
p2033
S'B-NP'
p2034
g5
tp2035
a(S'intestinal'
p2036
S'intestinal'
p2037
S'JJ'
p2038
S'I-NP'
p2039
g5
tp2040
a(S'colonization'
p2041
S'colonization'
p2042
S'NN'
p2043
S'I-NP'
p2044
g5
tp2045
a(S'patterns'
p2046
S'pattern'
p2047
S'NNS'
p2048
S'I-NP'
p2049
g5
tp2050
a(g57
g57
g57
g5
g5
tp2051
a.