(lp0
(S'Recovery'
p1
S'Recovery'
p2
S'NN'
p3
S'B-NP'
p4
S'O'
p5
tp6
a(S'following'
p7
S'follow'
p8
S'VBG'
p9
S'B-PP'
p10
g5
tp11
a(S'outpatient'
p12
S'outpatient'
p13
S'NN'
p14
S'B-NP'
p15
g5
tp16
a(S'anesthesia'
p17
S'anesthesia'
p18
S'NN'
p19
S'I-NP'
p20
g5
tp21
a(S':'
p22
g22
g22
g5
g5
tp23
a(S'use'
p24
S'use'
p25
S'NN'
p26
S'B-NP'
p27
g5
tp28
a(S'of'
p29
S'of'
p30
S'IN'
p31
S'B-PP'
p32
g5
tp33
a(S'enflurane'
p34
S'enflurane'
p35
S'NN'
p36
S'B-NP'
p37
g5
tp38
a(S'versus'
p39
S'versus'
p40
S'IN'
p41
S'B-PP'
p42
g5
tp43
a(S'propofol'
p44
S'propofol'
p45
S'NN'
p46
S'B-NP'
p47
g5
tp48
a(S'.'
p49
g49
g49
g5
g5
tp50
a(S'STUDY'
p51
S'STUDY'
p52
S'NN'
p53
S'B-NP'
p54
g5
tp55
a(S'OBJECTIVE'
p56
S'OBJECTIVE'
p57
S'NN'
p58
S'I-NP'
p59
g5
tp60
a(S'To'
p61
S'To'
p62
S'TO'
p63
S'B-VP'
p64
g5
tp65
a(S'compare'
p66
S'compare'
p67
S'VB'
p68
S'I-VP'
p69
g5
tp70
a(S'the'
p71
S'the'
p72
S'DT'
p73
S'B-NP'
p74
g5
tp75
a(S'intraoperative'
p76
S'intraoperative'
p77
S'JJ'
p78
S'I-NP'
p79
g5
tp80
a(S'conditions'
p81
S'condition'
p82
S'NNS'
p83
S'I-NP'
p84
g5
tp85
a(S'and'
p86
S'and'
p87
S'CC'
p88
g5
g5
tp89
a(S'postoperative'
p90
S'postoperative'
p91
S'JJ'
p92
S'B-NP'
p93
g5
tp94
a(S'recovery'
p95
S'recovery'
p96
S'NN'
p97
S'I-NP'
p98
g5
tp99
a(S'of'
p100
S'of'
p101
S'IN'
p102
S'B-PP'
p103
g5
tp104
a(S'patients'
p105
S'patient'
p106
S'NNS'
p107
S'B-NP'
p108
g5
tp109
a(S'following'
p110
S'follow'
p111
S'VBG'
p112
S'B-PP'
p113
g5
tp114
a(S'the'
p115
S'the'
p116
S'DT'
p117
S'B-NP'
p118
g5
tp119
a(S'use'
p120
S'use'
p121
S'NN'
p122
S'I-NP'
p123
g5
tp124
a(S'of'
p125
S'of'
p126
S'IN'
p127
S'B-PP'
p128
g5
tp129
a(S'either'
p130
S'either'
p131
S'CC'
p132
S'B-NP'
p133
g5
tp134
a(S'propofol-nitrous'
p135
S'propofol-nitrous'
p136
S'JJ'
p137
S'I-NP'
p138
g5
tp139
a(S'oxide'
p140
S'oxide'
p141
S'NN'
p142
S'I-NP'
p143
g5
tp144
a(S'('
p145
g145
g145
g5
g5
tp146
a(S'N2O'
p147
S'N2O'
p148
S'NN'
p149
S'B-NP'
p150
S'B-protein'
p151
tp152
a(S')'
p153
g153
g153
g5
g5
tp154
a(S'or'
p155
S'or'
p156
S'CC'
p157
g5
g5
tp158
a(S'enflurane-N2O'
p159
S'enflurane-N2O'
p160
S'NN'
p161
S'B-NP'
p162
g5
tp163
a(S'for'
p164
S'for'
p165
S'IN'
p166
S'B-PP'
p167
g5
tp168
a(S'maintenance'
p169
S'maintenance'
p170
S'NN'
p171
S'B-NP'
p172
g5
tp173
a(S'of'
p174
S'of'
p175
S'IN'
p176
S'B-PP'
p177
g5
tp178
a(S'outpatient'
p179
S'outpatient'
p180
S'NN'
p181
S'B-NP'
p182
g5
tp183
a(S'anesthesia'
p184
S'anesthesia'
p185
S'NN'
p186
S'I-NP'
p187
g5
tp188
a(g49
g49
g49
g5
g5
tp189
a(S'DESIGN'
p190
S'DESIGN'
p191
S'NNP'
p192
S'B-NP'
p193
g5
tp194
a(S'Randomized'
p195
S'Randomized'
p196
S'NNP'
p197
S'I-NP'
p198
g5
tp199
a(S','
p200
g200
g200
g5
g5
tp201
a(S'single-blind'
p202
S'single-blind'
p203
S'JJ'
p204
S'B-NP'
p205
g5
tp206
a(S'study'
p207
S'study'
p208
S'NN'
p209
S'I-NP'
p210
g5
tp211
a(g49
g49
g49
g5
g5
tp212
a(S'SETTING'
p213
S'SETTING'
p214
S'VBG'
p215
S'B-VP'
p216
g5
tp217
a(S'University'
p218
S'University'
p219
S'NNP'
p220
S'B-NP'
p221
g5
tp222
a(S'hospital'
p223
S'hospital'
p224
S'NN'
p225
S'I-NP'
p226
g5
tp227
a(S'outpatient'
p228
S'outpatient'
p229
S'NN'
p230
S'I-NP'
p231
g5
tp232
a(S'surgery'
p233
S'surgery'
p234
S'NN'
p235
S'I-NP'
p236
g5
tp237
a(S'center'
p238
S'center'
p239
S'NN'
p240
S'I-NP'
p241
g5
tp242
a(g49
g49
g49
g5
g5
tp243
a(S'PATIENTS'
p244
S'PATIENTS'
p245
S'NNS'
p246
S'B-NP'
p247
g5
tp248
a(S'61'
p249
S'61'
p250
S'CD'
p251
S'B-NP'
p252
g5
tp253
a(S'ASA'
p254
S'ASA'
p255
S'NN'
p256
S'I-NP'
p257
g5
tp258
a(S'physical'
p259
S'physical'
p260
S'JJ'
p261
S'I-NP'
p262
g5
tp263
a(S'status'
p264
S'status'
p265
S'NN'
p266
S'I-NP'
p267
g5
tp268
a(S'I'
p269
g269
S'CD'
p270
S'I-NP'
p271
g5
tp272
a(S'and'
p273
S'and'
p274
S'CC'
p275
S'I-NP'
p276
g5
tp277
a(S'II'
p278
S'II'
p279
S'CD'
p280
S'I-NP'
p281
g5
tp282
a(g200
g200
g200
g5
g5
tp283
a(S'healthy'
p284
S'healthy'
p285
S'JJ'
p286
S'B-NP'
p287
g5
tp288
a(S'female'
p289
S'female'
p290
S'JJ'
p291
S'I-NP'
p292
g5
tp293
a(S'outpatients'
p294
S'outpatient'
p295
S'NNS'
p296
S'I-NP'
p297
g5
tp298
a(S'undergoing'
p299
S'undergo'
p300
S'VBG'
p301
S'B-VP'
p302
g5
tp303
a(S'laparoscopic'
p304
S'laparoscopic'
p305
S'JJ'
p306
S'B-NP'
p307
g5
tp308
a(S'surgery'
p309
S'surgery'
p310
S'NN'
p311
S'I-NP'
p312
g5
tp313
a(g49
g49
g49
g5
g5
tp314
a(S'INTERVENTIONS'
p315
S'INTERVENTIONS'
p316
S'NNS'
p317
S'B-NP'
p318
g5
tp319
a(S'Patients'
p320
S'Patient'
p321
S'NNS'
p322
S'I-NP'
p323
g5
tp324
a(S'were'
p325
S'be'
p326
S'VBD'
p327
S'B-VP'
p328
g5
tp329
a(S'randomly'
p330
S'randomly'
p331
S'RB'
p332
S'I-VP'
p333
g5
tp334
a(S'assigned'
p335
S'assign'
p336
S'VBN'
p337
S'I-VP'
p338
g5
tp339
a(S'to'
p340
S'to'
p341
S'TO'
p342
S'B-PP'
p343
g5
tp344
a(S'one'
p345
S'one'
p346
S'CD'
p347
S'B-NP'
p348
g5
tp349
a(S'of'
p350
S'of'
p351
S'IN'
p352
S'B-PP'
p353
g5
tp354
a(S'three'
p355
S'three'
p356
S'CD'
p357
S'B-NP'
p358
g5
tp359
a(S'anesthetic'
p360
S'anesthetic'
p361
S'JJ'
p362
S'I-NP'
p363
g5
tp364
a(S'regimens.'
p365
S'regimens.'
p366
S'NN'
p367
S'I-NP'
p368
g5
tp369
a(S'Group'
p370
S'Group'
p371
S'NN'
p372
S'I-NP'
p373
g5
tp374
a(S'1'
p375
g375
S'CD'
p376
S'I-NP'
p377
g5
tp378
a(g145
g145
g145
g5
g5
tp379
a(S'control'
p380
S'control'
p381
S'NN'
p382
S'B-NP'
p383
g5
tp384
a(g153
g153
g153
g5
g5
tp385
a(S'received'
p386
S'receive'
p387
S'VBD'
p388
S'B-VP'
p389
g5
tp390
a(S'thiopental'
p391
S'thiopental'
p392
S'JJ'
p393
S'B-NP'
p394
g5
tp395
a(S'sodium'
p396
S'sodium'
p397
S'NN'
p398
S'I-NP'
p399
g5
tp400
a(S'4'
p401
g401
S'CD'
p402
S'I-NP'
p403
g5
tp404
a(S'mg/kg'
p405
S'mg/kg'
p406
S'NN'
p407
S'I-NP'
p408
g5
tp409
a(S'intravenously'
p410
S'intravenously'
p411
S'RB'
p412
S'B-ADVP'
p413
g5
tp414
a(g145
g145
g145
g5
g5
tp415
a(S'i.v.'
p416
S'i.v.'
p417
S'RB'
p418
S'B-ADVP'
p419
g5
tp420
a(g153
g153
g153
g5
g5
tp421
a(g200
g200
g200
g5
g5
tp422
a(S'followed'
p423
S'follow'
p424
S'VBN'
p425
S'B-VP'
p426
g5
tp427
a(S'by'
p428
S'by'
p429
S'IN'
p430
S'B-PP'
p431
g5
tp432
a(S'0.5'
p433
S'0.5'
p434
S'CD'
p435
S'B-NP'
p436
g5
tp437
a(S'%'
p438
g438
S'NN'
p439
S'I-NP'
p440
g5
tp441
a(S'to'
p442
S'to'
p443
S'TO'
p444
S'I-NP'
p445
g5
tp446
a(S'1.5'
p447
S'1.5'
p448
S'CD'
p449
S'I-NP'
p450
g5
tp451
a(g438
g438
S'NN'
p452
S'I-NP'
p453
g5
tp454
a(S'enflurane'
p455
S'enflurane'
p456
S'NN'
p457
S'I-NP'
p458
g5
tp459
a(S'and'
p460
S'and'
p461
S'CC'
p462
g5
g5
tp463
a(S'67'
p464
S'67'
p465
S'CD'
p466
S'B-NP'
p467
g5
tp468
a(g438
g438
S'NN'
p469
S'I-NP'
p470
g5
tp471
a(S'N2O'
p472
S'N2O'
p473
S'NN'
p474
S'I-NP'
p475
g5
tp476
a(S'in'
p477
S'in'
p478
S'IN'
p479
S'B-PP'
p480
g5
tp481
a(S'oxygen'
p482
S'oxygen'
p483
S'NN'
p484
S'B-NP'
p485
g5
tp486
a(g145
g145
g145
g5
g5
tp487
a(S'O2'
p488
S'O2'
p489
S'NN'
p490
S'B-NP'
p491
S'B-protein'
p492
tp493
a(g153
g153
g153
g5
g5
tp494
a(g49
g49
g49
g5
g5
tp495
a(S'Group'
p496
S'Group'
p497
S'NN'
p498
S'B-NP'
p499
S'B-protein'
p500
tp501
a(S'2'
p502
g502
S'CD'
p503
S'I-NP'
p504
S'I-protein'
p505
tp506
a(S'received'
p507
S'receive'
p508
S'VBD'
p509
S'B-VP'
p510
g5
tp511
a(S'propofol'
p512
S'propofol'
p513
S'NN'
p514
S'B-NP'
p515
g5
tp516
a(g502
g502
S'CD'
p517
S'I-NP'
p518
g5
tp519
a(S'mg/kg'
p520
S'mg/kg'
p521
S'NN'
p522
S'I-NP'
p523
g5
tp524
a(S'i.v.'
p525
S'i.v.'
p526
S'JJ'
p527
S'B-ADJP'
p528
g5
tp529
a(g200
g200
g200
g5
g5
tp530
a(S'followed'
p531
S'follow'
p532
S'VBN'
p533
S'B-VP'
p534
g5
tp535
a(S'by'
p536
S'by'
p537
S'IN'
p538
S'B-PP'
p539
g5
tp540
a(S'0.5'
p541
S'0.5'
p542
S'CD'
p543
S'B-NP'
p544
g5
tp545
a(g438
g438
S'NN'
p546
S'I-NP'
p547
g5
tp548
a(S'to'
p549
S'to'
p550
S'TO'
p551
S'I-NP'
p552
g5
tp553
a(S'1.5'
p554
S'1.5'
p555
S'CD'
p556
S'I-NP'
p557
g5
tp558
a(g438
g438
S'NN'
p559
S'I-NP'
p560
g5
tp561
a(S'enflurane'
p562
S'enflurane'
p563
S'NN'
p564
S'I-NP'
p565
g5
tp566
a(S'and'
p567
S'and'
p568
S'CC'
p569
g5
g5
tp570
a(S'67'
p571
S'67'
p572
S'CD'
p573
S'B-NP'
p574
g5
tp575
a(g438
g438
S'NN'
p576
S'I-NP'
p577
g5
tp578
a(S'N2O'
p579
S'N2O'
p580
S'NN'
p581
S'I-NP'
p582
g5
tp583
a(S'in'
p584
S'in'
p585
S'IN'
p586
S'B-PP'
p587
g5
tp588
a(S'O2.'
p589
S'O2.'
p590
S'NNP'
p591
S'B-NP'
p592
g5
tp593
a(S'Group'
p594
S'Group'
p595
S'NNP'
p596
S'I-NP'
p597
g5
tp598
a(S'3'
p599
g599
S'CD'
p600
S'I-NP'
p601
g5
tp602
a(S'received'
p603
S'receive'
p604
S'VBD'
p605
S'B-VP'
p606
g5
tp607
a(S'propofol'
p608
S'propofol'
p609
S'NN'
p610
S'B-NP'
p611
g5
tp612
a(g502
g502
S'CD'
p613
S'I-NP'
p614
g5
tp615
a(S'mg/kg'
p616
S'mg/kg'
p617
S'NN'
p618
S'I-NP'
p619
g5
tp620
a(S'i.v.'
p621
S'i.v.'
p622
S'JJ'
p623
S'B-ADJP'
p624
g5
tp625
a(g200
g200
g200
g5
g5
tp626
a(S'followed'
p627
S'follow'
p628
S'VBN'
p629
S'B-VP'
p630
g5
tp631
a(S'by'
p632
S'by'
p633
S'IN'
p634
S'B-PP'
p635
g5
tp636
a(S'propofol'
p637
S'propofol'
p638
S'NN'
p639
S'B-NP'
p640
g5
tp641
a(S'50'
p642
S'50'
p643
S'CD'
p644
S'I-NP'
p645
g5
tp646
a(S'to'
p647
S'to'
p648
S'TO'
p649
S'I-NP'
p650
g5
tp651
a(S'160'
p652
S'160'
p653
S'CD'
p654
S'I-NP'
p655
g5
tp656
a(S'micrograms/kg/min'
p657
S'micrograms/kg/min'
p658
S'NN'
p659
S'I-NP'
p660
g5
tp661
a(S'i.v.'
p662
S'i.v.'
p663
S'JJ'
p664
S'B-ADJP'
p665
g5
tp666
a(S'and'
p667
S'and'
p668
S'CC'
p669
g5
g5
tp670
a(S'67'
p671
S'67'
p672
S'CD'
p673
S'B-NP'
p674
g5
tp675
a(g438
g438
S'NN'
p676
S'I-NP'
p677
g5
tp678
a(S'N2O'
p679
S'N2O'
p680
S'NN'
p681
S'I-NP'
p682
g5
tp683
a(S'in'
p684
S'in'
p685
S'IN'
p686
S'B-PP'
p687
g5
tp688
a(S'O2.'
p689
S'O2.'
p690
S'NN'
p691
S'B-NP'
p692
g5
tp693
a(S'All'
p694
S'All'
p695
S'DT'
p696
S'B-NP'
p697
g5
tp698
a(S'patients'
p699
S'patient'
p700
S'NNS'
p701
S'I-NP'
p702
g5
tp703
a(S'received'
p704
S'receive'
p705
S'VBD'
p706
S'B-VP'
p707
g5
tp708
a(S'succinylcholine'
p709
S'succinylcholine'
p710
S'NN'
p711
S'B-NP'
p712
g5
tp713
a(g375
g375
S'CD'
p714
S'I-NP'
p715
g5
tp716
a(S'mg/kg'
p717
S'mg/kg'
p718
S'NN'
p719
S'I-NP'
p720
g5
tp721
a(S'i.v.'
p722
S'i.v.'
p723
S'JJ'
p724
S'B-ADJP'
p725
g5
tp726
a(S'to'
p727
S'to'
p728
S'TO'
p729
S'B-VP'
p730
g5
tp731
a(S'facilitate'
p732
S'facilitate'
p733
S'VB'
p734
S'I-VP'
p735
g5
tp736
a(S'tracheal'
p737
S'tracheal'
p738
S'JJ'
p739
S'B-NP'
p740
g5
tp741
a(S'intubation'
p742
S'intubation'
p743
S'NN'
p744
S'I-NP'
p745
g5
tp746
a(S'and'
p747
S'and'
p748
S'CC'
p749
S'I-NP'
p750
g5
tp751
a(S'atracurium'
p752
S'atracurium'
p753
S'NN'
p754
S'I-NP'
p755
g5
tp756
a(S'10'
p757
S'10'
p758
S'CD'
p759
S'B-NP'
p760
g5
tp761
a(S'to'
p762
S'to'
p763
S'TO'
p764
S'I-NP'
p765
g5
tp766
a(S'20'
p767
S'20'
p768
S'CD'
p769
S'I-NP'
p770
g5
tp771
a(S'mg'
p772
S'mg'
p773
S'NN'
p774
S'I-NP'
p775
g5
tp776
a(S'i.v.'
p777
S'i.v.'
p778
S'JJ'
p779
S'B-ADJP'
p780
g5
tp781
a(S'to'
p782
S'to'
p783
S'TO'
p784
S'B-VP'
p785
g5
tp786
a(S'provide'
p787
S'provide'
p788
S'VB'
p789
S'I-VP'
p790
g5
tp791
a(S'adequate'
p792
S'adequate'
p793
S'JJ'
p794
S'B-NP'
p795
g5
tp796
a(S'relaxation'
p797
S'relaxation'
p798
S'NN'
p799
S'I-NP'
p800
g5
tp801
a(S'during'
p802
S'during'
p803
S'IN'
p804
S'B-PP'
p805
g5
tp806
a(S'the'
p807
S'the'
p808
S'DT'
p809
S'B-NP'
p810
g5
tp811
a(S'maintenance'
p812
S'maintenance'
p813
S'NN'
p814
S'I-NP'
p815
g5
tp816
a(S'period'
p817
S'period'
p818
S'NN'
p819
S'I-NP'
p820
g5
tp821
a(g49
g49
g49
g5
g5
tp822
a(S'MEASUREMENTS'
p823
S'MEASUREMENTS'
p824
S'NNS'
p825
S'B-NP'
p826
g5
tp827
a(S'AND'
p828
S'AND'
p829
S'CC'
p830
S'I-NP'
p831
g5
tp832
a(S'MAIN'
p833
S'MAIN'
p834
S'NN'
p835
S'I-NP'
p836
g5
tp837
a(S'RESULTS'
p838
S'RESULTS'
p839
S'NNS'
p840
S'I-NP'
p841
g5
tp842
a(S'Recovery'
p843
S'Recovery'
p844
S'NN'
p845
S'I-NP'
p846
g5
tp847
a(S'from'
p848
S'from'
p849
S'IN'
p850
S'B-PP'
p851
g5
tp852
a(S'anesthesia'
p853
S'anesthesia'
p854
S'NN'
p855
S'B-NP'
p856
g5
tp857
a(S'was'
p858
S'be'
p859
S'VBD'
p860
S'B-VP'
p861
g5
tp862
a(S'assessed'
p863
S'assess'
p864
S'VBN'
p865
S'I-VP'
p866
g5
tp867
a(S'by'
p868
S'by'
p869
S'IN'
p870
S'B-PP'
p871
g5
tp872
a(S'a'
p873
g873
S'DT'
p874
S'B-NP'
p875
g5
tp876
a(S'research'
p877
S'research'
p878
S'NN'
p879
S'I-NP'
p880
g5
tp881
a(S'nurse'
p882
S'nurse'
p883
S'NN'
p884
S'I-NP'
p885
g5
tp886
a(S'who'
p887
S'who'
p888
S'WP'
p889
S'B-NP'
p890
g5
tp891
a(S'was'
p892
S'be'
p893
S'VBD'
p894
S'B-VP'
p895
g5
tp896
a(S'unaware'
p897
S'unaware'
p898
S'JJ'
p899
S'B-ADJP'
p900
g5
tp901
a(S'of'
p902
S'of'
p903
S'IN'
p904
S'B-PP'
p905
g5
tp906
a(S'the'
p907
S'the'
p908
S'DT'
p909
S'B-NP'
p910
g5
tp911
a(S'anesthetic'
p912
S'anesthetic'
p913
S'JJ'
p914
S'I-NP'
p915
g5
tp916
a(S'technique'
p917
S'technique'
p918
S'NN'
p919
S'I-NP'
p920
g5
tp921
a(S'used.'
p922
S'used.'
p923
S'IN'
p924
S'B-PP'
p925
g5
tp926
a(S'The'
p927
S'The'
p928
S'DT'
p929
S'B-NP'
p930
g5
tp931
a(S'mean'
p932
S'mean'
p933
S'NN'
p934
S'I-NP'
p935
g5
tp936
a(S'+/-'
p937
S'+/-'
p938
S'SYM'
p939
S'B-VP'
p940
g5
tp941
a(S'SD'
p942
S'SD'
p943
S'NN'
p944
S'B-NP'
p945
g5
tp946
a(S'time'
p947
S'time'
p948
S'NN'
p949
S'I-NP'
p950
g5
tp951
a(S'to'
p952
S'to'
p953
S'TO'
p954
S'B-PP'
p955
g5
tp956
a(S'eye'
p957
S'eye'
p958
S'NN'
p959
S'B-NP'
p960
g5
tp961
a(S'opening'
p962
S'opening'
p963
S'NN'
p964
S'I-NP'
p965
g5
tp966
a(S'was'
p967
S'be'
p968
S'VBD'
p969
S'B-VP'
p970
g5
tp971
a(S'significantly'
p972
S'significantly'
p973
S'RB'
p974
S'B-ADVP'
p975
g5
tp976
a(S'longer'
p977
S'longer'
p978
S'RBR'
p979
S'I-ADVP'
p980
g5
tp981
a(S'in'
p982
S'in'
p983
S'IN'
p984
S'B-PP'
p985
g5
tp986
a(S'the'
p987
S'the'
p988
S'DT'
p989
S'B-NP'
p990
g5
tp991
a(S'thiopental-enflurane-N2O'
p992
S'thiopental-enflurane-N2O'
p993
S'NN'
p994
S'I-NP'
p995
g5
tp996
a(S'group'
p997
S'group'
p998
S'NN'
p999
S'I-NP'
p1000
g5
tp1001
a(g145
g145
g145
g5
g5
tp1002
a(S'Group'
p1003
S'Group'
p1004
S'NN'
p1005
S'B-NP'
p1006
g5
tp1007
a(g375
g375
S'CD'
p1008
S'I-NP'
p1009
g5
tp1010
a(g153
g153
g153
g5
g5
tp1011
a(S'than'
p1012
S'than'
p1013
S'IN'
p1014
S'B-PP'
p1015
g5
tp1016
a(S'in'
p1017
S'in'
p1018
S'IN'
p1019
S'B-PP'
p1020
g5
tp1021
a(S'the'
p1022
S'the'
p1023
S'DT'
p1024
S'B-NP'
p1025
g5
tp1026
a(S'propofol-propofol-N2O'
p1027
S'propofol-propofol-N2O'
p1028
S'NN'
p1029
S'I-NP'
p1030
g5
tp1031
a(S'group'
p1032
S'group'
p1033
S'NN'
p1034
S'I-NP'
p1035
g5
tp1036
a(g145
g145
g145
g5
g5
tp1037
a(S'Group'
p1038
S'Group'
p1039
S'NN'
p1040
S'B-NP'
p1041
g5
tp1042
a(g599
g599
S'CD'
p1043
S'I-NP'
p1044
g5
tp1045
a(g153
g153
g153
g5
g5
tp1046
a(g145
g145
g145
g5
g5
tp1047
a(S'6.1'
p1048
S'6.1'
p1049
S'CD'
p1050
S'B-NP'
p1051
g5
tp1052
a(S'+/-'
p1053
S'+/-'
p1054
S'CC'
p1055
S'I-NP'
p1056
g5
tp1057
a(S'2.5'
p1058
S'2.5'
p1059
S'CD'
p1060
S'I-NP'
p1061
g5
tp1062
a(S'minutes'
p1063
S'minute'
p1064
S'NNS'
p1065
S'I-NP'
p1066
g5
tp1067
a(S'vs.'
p1068
S'vs.'
p1069
S'IN'
p1070
S'B-PP'
p1071
g5
tp1072
a(S'3.5'
p1073
S'3.5'
p1074
S'CD'
p1075
S'B-NP'
p1076
g5
tp1077
a(S'+/-'
p1078
S'+/-'
p1079
S'SYM'
p1080
S'I-NP'
p1081
g5
tp1082
a(S'2.8'
p1083
S'2.8'
p1084
S'CD'
p1085
S'I-NP'
p1086
g5
tp1087
a(S'minutes'
p1088
S'minute'
p1089
S'NNS'
p1090
S'I-NP'
p1091
g5
tp1092
a(g200
g200
g200
g5
g5
tp1093
a(S'respectively'
p1094
S'respectively'
p1095
S'RB'
p1096
S'B-ADVP'
p1097
g5
tp1098
a(g153
g153
g153
g5
g5
tp1099
a(g49
g49
g49
g5
g5
tp1100
a(S'In'
p1101
S'In'
p1102
S'IN'
p1103
S'B-PP'
p1104
g5
tp1105
a(S'addition'
p1106
S'addition'
p1107
S'NN'
p1108
S'B-NP'
p1109
g5
tp1110
a(g200
g200
g200
g5
g5
tp1111
a(S'the'
p1112
S'the'
p1113
S'DT'
p1114
S'B-NP'
p1115
g5
tp1116
a(S'mean'
p1117
S'mean'
p1118
S'JJ'
p1119
S'I-NP'
p1120
g5
tp1121
a(S'time'
p1122
S'time'
p1123
S'NN'
p1124
S'I-NP'
p1125
g5
tp1126
a(S'to'
p1127
S'to'
p1128
S'TO'
p1129
S'B-VP'
p1130
g5
tp1131
a(S'respond'
p1132
S'respond'
p1133
S'VB'
p1134
S'I-VP'
p1135
g5
tp1136
a(S'to'
p1137
S'to'
p1138
S'TO'
p1139
S'B-PP'
p1140
g5
tp1141
a(S'verbal'
p1142
S'verbal'
p1143
S'JJ'
p1144
S'B-NP'
p1145
g5
tp1146
a(S'commands'
p1147
S'command'
p1148
S'NNS'
p1149
S'I-NP'
p1150
g5
tp1151
a(S'was'
p1152
S'be'
p1153
S'VBD'
p1154
S'B-VP'
p1155
g5
tp1156
a(S'significantly'
p1157
S'significantly'
p1158
S'RB'
p1159
S'B-ADJP'
p1160
g5
tp1161
a(S'shorter'
p1162
S'short'
p1163
S'JJR'
p1164
S'I-ADJP'
p1165
g5
tp1166
a(S'in'
p1167
S'in'
p1168
S'IN'
p1169
S'B-PP'
p1170
g5
tp1171
a(S'the'
p1172
S'the'
p1173
S'DT'
p1174
S'B-NP'
p1175
g5
tp1176
a(S'propofol'
p1177
S'propofol'
p1178
S'NN'
p1179
S'I-NP'
p1180
g5
tp1181
a(S'induction'
p1182
S'induction'
p1183
S'NN'
p1184
S'I-NP'
p1185
g5
tp1186
a(S'groups'
p1187
S'group'
p1188
S'NNS'
p1189
S'I-NP'
p1190
g5
tp1191
a(S'compared'
p1192
S'compare'
p1193
S'VBN'
p1194
S'B-PP'
p1195
g5
tp1196
a(S'with'
p1197
S'with'
p1198
S'IN'
p1199
S'B-PP'
p1200
g5
tp1201
a(S'the'
p1202
S'the'
p1203
S'DT'
p1204
S'B-NP'
p1205
g5
tp1206
a(S'thiopental'
p1207
S'thiopental'
p1208
S'JJ'
p1209
S'I-NP'
p1210
g5
tp1211
a(S'induction'
p1212
S'induction'
p1213
S'NN'
p1214
S'I-NP'
p1215
g5
tp1216
a(S'group.'
p1217
S'group.'
p1218
S'NN'
p1219
S'I-NP'
p1220
g5
tp1221
a(S'However'
p1222
S'However'
p1223
S'RB'
p1224
S'B-ADVP'
p1225
g5
tp1226
a(g200
g200
g200
g5
g5
tp1227
a(S'the'
p1228
S'the'
p1229
S'DT'
p1230
S'B-NP'
p1231
g5
tp1232
a(S'use'
p1233
S'use'
p1234
S'NN'
p1235
S'I-NP'
p1236
g5
tp1237
a(S'of'
p1238
S'of'
p1239
S'IN'
p1240
S'B-PP'
p1241
g5
tp1242
a(S'enflurane'
p1243
S'enflurane'
p1244
S'NN'
p1245
S'B-NP'
p1246
g5
tp1247
a(S'versus'
p1248
S'versus'
p1249
S'CC'
p1250
S'I-NP'
p1251
g5
tp1252
a(S'propofol'
p1253
S'propofol'
p1254
S'NN'
p1255
S'I-NP'
p1256
g5
tp1257
a(S'for'
p1258
S'for'
p1259
S'IN'
p1260
S'B-PP'
p1261
g5
tp1262
a(S'maintenance'
p1263
S'maintenance'
p1264
S'NN'
p1265
S'B-NP'
p1266
g5
tp1267
a(S'of'
p1268
S'of'
p1269
S'IN'
p1270
S'B-PP'
p1271
g5
tp1272
a(S'anesthesia'
p1273
S'anesthesia'
p1274
S'NN'
p1275
S'B-NP'
p1276
g5
tp1277
a(S'did'
p1278
S'do'
p1279
S'VBD'
p1280
S'B-VP'
p1281
g5
tp1282
a(S'not'
p1283
S'not'
p1284
S'RB'
p1285
S'I-VP'
p1286
g5
tp1287
a(S'significantly'
p1288
S'significantly'
p1289
S'RB'
p1290
S'I-VP'
p1291
g5
tp1292
a(S'prolong'
p1293
S'prolong'
p1294
S'VB'
p1295
S'I-VP'
p1296
g5
tp1297
a(S'the'
p1298
S'the'
p1299
S'DT'
p1300
S'B-NP'
p1301
g5
tp1302
a(S'time'
p1303
S'time'
p1304
S'NN'
p1305
S'I-NP'
p1306
g5
tp1307
a(S'from'
p1308
S'from'
p1309
S'IN'
p1310
S'B-PP'
p1311
g5
tp1312
a(S'arrival'
p1313
S'arrival'
p1314
S'NN'
p1315
S'B-NP'
p1316
g5
tp1317
a(S'in'
p1318
S'in'
p1319
S'IN'
p1320
S'B-PP'
p1321
g5
tp1322
a(S'the'
p1323
S'the'
p1324
S'DT'
p1325
S'B-NP'
p1326
g5
tp1327
a(S'recovery'
p1328
S'recovery'
p1329
S'NN'
p1330
S'I-NP'
p1331
g5
tp1332
a(S'room'
p1333
S'room'
p1334
S'NN'
p1335
S'I-NP'
p1336
g5
tp1337
a(S'to'
p1338
S'to'
p1339
S'TO'
p1340
S'B-PP'
p1341
g5
tp1342
a(S'sitting'
p1343
S'sit'
p1344
S'VBG'
p1345
S'B-VP'
p1346
g5
tp1347
a(g200
g200
g200
g5
g5
tp1348
a(S'tolerating'
p1349
S'tolerate'
p1350
S'VBG'
p1351
S'B-VP'
p1352
g5
tp1353
a(S'oral'
p1354
S'oral'
p1355
S'JJ'
p1356
S'B-NP'
p1357
g5
tp1358
a(S'fluids'
p1359
S'fluid'
p1360
S'NNS'
p1361
S'I-NP'
p1362
g5
tp1363
a(g200
g200
g200
g5
g5
tp1364
a(S'walking'
p1365
S'walk'
p1366
S'VBG'
p1367
S'B-VP'
p1368
g5
tp1369
a(g200
g200
g200
g5
g5
tp1370
a(S'or'
p1371
S'or'
p1372
S'CC'
p1373
g5
g5
tp1374
a(S'being'
p1375
S'be'
p1376
S'VBG'
p1377
S'B-VP'
p1378
g5
tp1379
a(S'judged'
p1380
S'judge'
p1381
S'VBN'
p1382
S'I-VP'
p1383
g5
tp1384
a(S'``'
p1385
S'``'
p1386
S'``'
p1387
g5
g5
tp1388
a(S'fit'
p1389
S'fit'
p1390
S'NN'
p1391
S'B-NP'
p1392
g5
tp1393
a(S'for'
p1394
S'for'
p1395
S'IN'
p1396
S'B-PP'
p1397
g5
tp1398
a(S'discharge.'
p1399
S'discharge.'
p1400
S'NN'
p1401
S'B-NP'
p1402
g5
tp1403
a(S"''"
p1404
S"''"
p1405
S"''"
p1406
g5
g5
tp1407
a(S'There'
p1408
S'There'
p1409
S'EX'
p1410
S'B-NP'
p1411
g5
tp1412
a(S'were'
p1413
S'be'
p1414
S'VBD'
p1415
S'B-VP'
p1416
g5
tp1417
a(S'no'
p1418
S'no'
p1419
S'DT'
p1420
S'B-NP'
p1421
g5
tp1422
a(S'differences'
p1423
S'difference'
p1424
S'NNS'
p1425
S'I-NP'
p1426
g5
tp1427
a(S'among'
p1428
S'among'
p1429
S'IN'
p1430
S'B-PP'
p1431
g5
tp1432
a(S'the'
p1433
S'the'
p1434
S'DT'
p1435
S'B-NP'
p1436
g5
tp1437
a(S'three'
p1438
S'three'
p1439
S'CD'
p1440
S'I-NP'
p1441
g5
tp1442
a(S'groups'
p1443
S'group'
p1444
S'NNS'
p1445
S'I-NP'
p1446
g5
tp1447
a(S'with'
p1448
S'with'
p1449
S'IN'
p1450
S'B-PP'
p1451
g5
tp1452
a(S'respect'
p1453
S'respect'
p1454
S'NN'
p1455
S'B-NP'
p1456
g5
tp1457
a(S'to'
p1458
S'to'
p1459
S'TO'
p1460
S'B-PP'
p1461
g5
tp1462
a(S'postoperative'
p1463
S'postoperative'
p1464
S'JJ'
p1465
S'B-NP'
p1466
g5
tp1467
a(S'pain'
p1468
S'pain'
p1469
S'NN'
p1470
S'I-NP'
p1471
g5
tp1472
a(S'or'
p1473
S'or'
p1474
S'CC'
p1475
g5
g5
tp1476
a(S'analgesic'
p1477
S'analgesic'
p1478
S'JJ'
p1479
S'B-NP'
p1480
g5
tp1481
a(S'requirements.'
p1482
S'requirements.'
p1483
S'NNS'
p1484
S'I-NP'
p1485
g5
tp1486
a(S'Finally'
p1487
S'Finally'
p1488
S'RB'
p1489
S'B-ADVP'
p1490
g5
tp1491
a(g200
g200
g200
g5
g5
tp1492
a(S'patients'
p1493
S'patient'
p1494
S'NNS'
p1495
S'B-NP'
p1496
g5
tp1497
a(S'who'
p1498
S'who'
p1499
S'WP'
p1500
S'B-NP'
p1501
g5
tp1502
a(S'received'
p1503
S'receive'
p1504
S'VBD'
p1505
S'B-VP'
p1506
g5
tp1507
a(S'enflurane'
p1508
S'enflurane'
p1509
S'NN'
p1510
S'B-NP'
p1511
g5
tp1512
a(S'for'
p1513
S'for'
p1514
S'IN'
p1515
S'B-PP'
p1516
g5
tp1517
a(S'maintenance'
p1518
S'maintenance'
p1519
S'NN'
p1520
S'B-NP'
p1521
g5
tp1522
a(S'of'
p1523
S'of'
p1524
S'IN'
p1525
S'B-PP'
p1526
g5
tp1527
a(S'anesthesia'
p1528
S'anesthesia'
p1529
S'NN'
p1530
S'B-NP'
p1531
g5
tp1532
a(S'had'
p1533
S'have'
p1534
S'VBD'
p1535
S'B-VP'
p1536
g5
tp1537
a(g873
g873
S'DT'
p1538
S'B-NP'
p1539
g5
tp1540
a(S'significantly'
p1541
S'significantly'
p1542
S'RB'
p1543
S'I-NP'
p1544
g5
tp1545
a(S'higher'
p1546
S'high'
p1547
S'JJR'
p1548
S'I-NP'
p1549
g5
tp1550
a(S'frequency'
p1551
S'frequency'
p1552
S'NN'
p1553
S'I-NP'
p1554
g5
tp1555
a(S'of'
p1556
S'of'
p1557
S'IN'
p1558
S'B-PP'
p1559
g5
tp1560
a(S'nausea'
p1561
S'nausea'
p1562
S'NN'
p1563
S'B-NP'
p1564
g5
tp1565
a(S'and'
p1566
S'and'
p1567
S'CC'
p1568
g5
g5
tp1569
a(S'vomiting'
p1570
S'vomit'
p1571
S'VBG'
p1572
S'B-VP'
p1573
g5
tp1574
a(S'than'
p1575
S'than'
p1576
S'IN'
p1577
S'B-PP'
p1578
g5
tp1579
a(S'the'
p1580
S'the'
p1581
S'DT'
p1582
S'B-NP'
p1583
g5
tp1584
a(S'propofol'
p1585
S'propofol'
p1586
S'NN'
p1587
S'I-NP'
p1588
g5
tp1589
a(S'maintenance'
p1590
S'maintenance'
p1591
S'NN'
p1592
S'I-NP'
p1593
g5
tp1594
a(S'group'
p1595
S'group'
p1596
S'NN'
p1597
S'I-NP'
p1598
g5
tp1599
a(g49
g49
g49
g5
g5
tp1600
a(S'CONCLUSION'
p1601
S'CONCLUSION'
p1602
S'NN'
p1603
S'B-NP'
p1604
g5
tp1605
a(S'Induction'
p1606
S'Induction'
p1607
S'NN'
p1608
S'I-NP'
p1609
g5
tp1610
a(S'of'
p1611
S'of'
p1612
S'IN'
p1613
S'B-PP'
p1614
g5
tp1615
a(S'anesthesia'
p1616
S'anesthesia'
p1617
S'NN'
p1618
S'B-NP'
p1619
g5
tp1620
a(S'with'
p1621
S'with'
p1622
S'IN'
p1623
S'B-PP'
p1624
g5
tp1625
a(S'propofol'
p1626
S'propofol'
p1627
S'NN'
p1628
S'B-NP'
p1629
g5
tp1630
a(S'is'
p1631
S'be'
p1632
S'VBZ'
p1633
S'B-VP'
p1634
g5
tp1635
a(S'associated'
p1636
S'associate'
p1637
S'VBN'
p1638
S'I-VP'
p1639
g5
tp1640
a(S'with'
p1641
S'with'
p1642
S'IN'
p1643
S'B-PP'
p1644
g5
tp1645
a(g873
g873
S'DT'
p1646
S'B-NP'
p1647
g5
tp1648
a(S'more'
p1649
S'more'
p1650
S'RBR'
p1651
S'I-NP'
p1652
g5
tp1653
a(S'rapid'
p1654
S'rapid'
p1655
S'JJ'
p1656
S'I-NP'
p1657
g5
tp1658
a(S'emergence'
p1659
S'emergence'
p1660
S'NN'
p1661
S'I-NP'
p1662
g5
tp1663
a(S'from'
p1664
S'from'
p1665
S'IN'
p1666
S'B-PP'
p1667
g5
tp1668
a(S'anesthesia'
p1669
S'anesthesia'
p1670
S'NN'
p1671
S'B-NP'
p1672
g5
tp1673
a(S'than'
p1674
S'than'
p1675
S'IN'
p1676
S'B-PP'
p1677
g5
tp1678
a(S'induction'
p1679
S'induction'
p1680
S'NN'
p1681
S'B-NP'
p1682
g5
tp1683
a(S'with'
p1684
S'with'
p1685
S'IN'
p1686
S'B-PP'
p1687
g5
tp1688
a(S'thiopental.'
p1689
S'thiopental.'
p1690
S'NN'
p1691
S'B-NP'
p1692
g5
tp1693
a(S'Maintenance'
p1694
S'Maintenance'
p1695
S'NN'
p1696
S'I-NP'
p1697
g5
tp1698
a(S'of'
p1699
S'of'
p1700
S'IN'
p1701
S'B-PP'
p1702
g5
tp1703
a(S'anesthesia'
p1704
S'anesthesia'
p1705
S'NN'
p1706
S'B-NP'
p1707
g5
tp1708
a(S'with'
p1709
S'with'
p1710
S'IN'
p1711
S'B-PP'
p1712
g5
tp1713
a(S'enflurane'
p1714
S'enflurane'
p1715
S'NN'
p1716
S'B-NP'
p1717
g5
tp1718
a(S'did'
p1719
S'do'
p1720
S'VBD'
p1721
S'B-VP'
p1722
g5
tp1723
a(S'not'
p1724
S'not'
p1725
S'RB'
p1726
S'I-VP'
p1727
g5
tp1728
a(S'prolong'
p1729
S'prolong'
p1730
S'VB'
p1731
S'I-VP'
p1732
g5
tp1733
a(S'recovery'
p1734
S'recovery'
p1735
S'NN'
p1736
S'B-NP'
p1737
g5
tp1738
a(S'compared'
p1739
S'compare'
p1740
S'VBN'
p1741
S'B-PP'
p1742
g5
tp1743
a(S'with'
p1744
S'with'
p1745
S'IN'
p1746
S'B-PP'
p1747
g5
tp1748
a(S'maintenance'
p1749
S'maintenance'
p1750
S'NN'
p1751
S'B-NP'
p1752
g5
tp1753
a(S'with'
p1754
S'with'
p1755
S'IN'
p1756
S'B-PP'
p1757
g5
tp1758
a(S'propofol'
p1759
S'propofol'
p1760
S'NN'
p1761
S'B-NP'
p1762
g5
tp1763
a(g200
g200
g200
g5
g5
tp1764
a(S'but'
p1765
S'but'
p1766
S'CC'
p1767
g5
g5
tp1768
a(S'enflurane'
p1769
S'enflurane'
p1770
S'NN'
p1771
S'B-NP'
p1772
g5
tp1773
a(S'was'
p1774
S'be'
p1775
S'VBD'
p1776
S'B-VP'
p1777
g5
tp1778
a(S'associated'
p1779
S'associate'
p1780
S'VBN'
p1781
S'I-VP'
p1782
g5
tp1783
a(S'with'
p1784
S'with'
p1785
S'IN'
p1786
S'B-PP'
p1787
g5
tp1788
a(S'increased'
p1789
S'increase'
p1790
S'VBN'
p1791
S'B-NP'
p1792
g5
tp1793
a(S'frequency'
p1794
S'frequency'
p1795
S'NN'
p1796
S'I-NP'
p1797
g5
tp1798
a(S'of'
p1799
S'of'
p1800
S'IN'
p1801
S'B-PP'
p1802
g5
tp1803
a(S'postoperative'
p1804
S'postoperative'
p1805
S'JJ'
p1806
S'B-NP'
p1807
g5
tp1808
a(S'nausea'
p1809
S'nausea'
p1810
S'NN'
p1811
S'I-NP'
p1812
g5
tp1813
a(S'and'
p1814
S'and'
p1815
S'CC'
p1816
S'I-NP'
p1817
g5
tp1818
a(S'vomiting'
p1819
S'vomiting'
p1820
S'NN'
p1821
S'I-NP'
p1822
g5
tp1823
a(g49
g49
g49
g5
g5
tp1824
a.