(lp0
(S'Combined'
p1
S'Combine'
p2
S'VBN'
p3
S'B-NP'
p4
S'O'
p5
tp6
a(S'therapy'
p7
S'therapy'
p8
S'NN'
p9
S'I-NP'
p10
g5
tp11
a(S'in'
p12
S'in'
p13
S'IN'
p14
S'B-PP'
p15
g5
tp16
a(S'the'
p17
S'the'
p18
S'DT'
p19
S'B-NP'
p20
g5
tp21
a(S'treatment'
p22
S'treatment'
p23
S'NN'
p24
S'I-NP'
p25
g5
tp26
a(S'of'
p27
S'of'
p28
S'IN'
p29
S'B-PP'
p30
g5
tp31
a(S'primary'
p32
S'primary'
p33
S'JJ'
p34
S'B-NP'
p35
g5
tp36
a(S'mediastinal'
p37
S'mediastinal'
p38
S'JJ'
p39
S'I-NP'
p40
g5
tp41
a(S'B-cell'
p42
S'B-cell'
p43
S'NN'
p44
S'I-NP'
p45
g5
tp46
a(S'lymphoma'
p47
S'lymphoma'
p48
S'NN'
p49
S'I-NP'
p50
g5
tp51
a(S':'
p52
g52
g52
g5
g5
tp53
a(S'conventional'
p54
S'conventional'
p55
S'JJ'
p56
S'B-NP'
p57
g5
tp58
a(S'versus'
p59
S'versus'
p60
S'CC'
p61
S'I-NP'
p62
g5
tp63
a(S'escalated'
p64
S'escalate'
p65
S'VBN'
p66
S'I-NP'
p67
g5
tp68
a(S'chemotherapy'
p69
S'chemotherapy'
p70
S'NN'
p71
S'I-NP'
p72
g5
tp73
a(S'.'
p74
g74
g74
g5
g5
tp75
a(S'Treatment'
p76
S'Treatment'
p77
S'NN'
p78
S'B-NP'
p79
g5
tp80
a(S'of'
p81
S'of'
p82
S'IN'
p83
S'B-PP'
p84
g5
tp85
a(S'patients'
p86
S'patient'
p87
S'NNS'
p88
S'B-NP'
p89
g5
tp90
a(S'with'
p91
S'with'
p92
S'IN'
p93
S'B-PP'
p94
g5
tp95
a(S'primary'
p96
S'primary'
p97
S'JJ'
p98
S'B-NP'
p99
g5
tp100
a(S'mediastinal'
p101
S'mediastinal'
p102
S'JJ'
p103
S'I-NP'
p104
g5
tp105
a(S'B-cell'
p106
S'B-cell'
p107
S'NN'
p108
S'I-NP'
p109
g5
tp110
a(S'lymphoma'
p111
S'lymphoma'
p112
S'NN'
p113
S'I-NP'
p114
g5
tp115
a(S'('
p116
g116
g116
g5
g5
tp117
a(S'PMBCL'
p118
S'PMBCL'
p119
S'NN'
p120
S'B-NP'
p121
g5
tp122
a(S')'
p123
g123
g123
g5
g5
tp124
a(S'remains'
p125
S'remain'
p126
S'VBZ'
p127
S'B-VP'
p128
g5
tp129
a(S'controversial.'
p130
S'controversial.'
p131
S'NN'
p132
S'B-NP'
p133
g5
tp134
a(S'We'
p135
S'We'
p136
S'PRP'
p137
S'B-NP'
p138
g5
tp139
a(S'started'
p140
S'start'
p141
S'VBD'
p142
S'B-VP'
p143
g5
tp144
a(S'a'
p145
g145
S'DT'
p146
S'B-NP'
p147
g5
tp148
a(S'controlled'
p149
S'controlled'
p150
S'JJ'
p151
S'I-NP'
p152
g5
tp153
a(S'clinical'
p154
S'clinical'
p155
S'JJ'
p156
S'I-NP'
p157
g5
tp158
a(S'trial'
p159
S'trial'
p160
S'NN'
p161
S'I-NP'
p162
g5
tp163
a(S'to'
p164
S'to'
p165
S'TO'
p166
S'B-VP'
p167
g5
tp168
a(S'evaluate'
p169
S'evaluate'
p170
S'VB'
p171
S'I-VP'
p172
g5
tp173
a(S'the'
p174
S'the'
p175
S'DT'
p176
S'B-NP'
p177
g5
tp178
a(S'efficacy'
p179
S'efficacy'
p180
S'NN'
p181
S'I-NP'
p182
g5
tp183
a(S'and'
p184
S'and'
p185
S'CC'
p186
S'I-NP'
p187
g5
tp188
a(S'toxicity'
p189
S'toxicity'
p190
S'NN'
p191
S'I-NP'
p192
g5
tp193
a(S'of'
p194
S'of'
p195
S'IN'
p196
S'B-PP'
p197
g5
tp198
a(g145
g145
S'DT'
p199
S'B-NP'
p200
g5
tp201
a(S'conventional'
p202
S'conventional'
p203
S'JJ'
p204
S'I-NP'
p205
g5
tp206
a(S'versus'
p207
S'versus'
p208
S'CC'
p209
S'I-NP'
p210
g5
tp211
a(S'more'
p212
S'more'
p213
S'RBR'
p214
S'I-NP'
p215
g5
tp216
a(S'intensive'
p217
S'intensive'
p218
S'JJ'
p219
S'I-NP'
p220
g5
tp221
a(S'regimen'
p222
S'regimen'
p223
S'NN'
p224
S'I-NP'
p225
g5
tp226
a(S'of'
p227
S'of'
p228
S'IN'
p229
S'B-PP'
p230
g5
tp231
a(S'combined'
p232
S'combine'
p233
S'VBN'
p234
S'B-NP'
p235
g5
tp236
a(S'chemotherapy'
p237
S'chemotherapy'
p238
S'NN'
p239
S'I-NP'
p240
g5
tp241
a(S'followed'
p242
S'follow'
p243
S'VBN'
p244
S'B-VP'
p245
g5
tp246
a(S'by'
p247
S'by'
p248
S'IN'
p249
S'B-PP'
p250
g5
tp251
a(S'radiotherapy'
p252
S'radiotherapy'
p253
S'NN'
p254
S'B-NP'
p255
g5
tp256
a(S'to'
p257
S'to'
p258
S'TO'
p259
S'B-PP'
p260
g5
tp261
a(S'the'
p262
S'the'
p263
S'DT'
p264
S'B-NP'
p265
g5
tp266
a(S'mediastinum'
p267
S'mediastinum'
p268
S'NN'
p269
S'I-NP'
p270
g5
tp271
a(S'with'
p272
S'with'
p273
S'IN'
p274
S'B-PP'
p275
g5
tp276
a(S'the'
p277
S'the'
p278
S'DT'
p279
S'B-NP'
p280
g5
tp281
a(S'mantle'
p282
S'mantle'
p283
S'NN'
p284
S'I-NP'
p285
g5
tp286
a(S'technique.'
p287
S'technique.'
p288
S'NN'
p289
S'I-NP'
p290
g5
tp291
a(S'From'
p292
S'From'
p293
S'IN'
p294
S'B-PP'
p295
g5
tp296
a(S'1989'
p297
S'1989'
p298
S'CD'
p299
S'B-NP'
p300
g5
tp301
a(S'to'
p302
S'to'
p303
S'TO'
p304
S'B-PP'
p305
g5
tp306
a(S'1997'
p307
S'1997'
p308
S'CD'
p309
S'B-NP'
p310
g5
tp311
a(S','
p312
g312
g312
g5
g5
tp313
a(S'68'
p314
S'68'
p315
S'CD'
p316
S'B-NP'
p317
g5
tp318
a(S'patients'
p319
S'patient'
p320
S'NNS'
p321
S'I-NP'
p322
g5
tp323
a(S'diagnosed'
p324
S'diagnose'
p325
S'VBN'
p326
S'B-VP'
p327
g5
tp328
a(S'with'
p329
S'with'
p330
S'IN'
p331
S'B-PP'
p332
g5
tp333
a(S'previously'
p334
S'previously'
p335
S'RB'
p336
S'B-NP'
p337
g5
tp338
a(S'untreated'
p339
S'untreated'
p340
S'JJ'
p341
S'I-NP'
p342
g5
tp343
a(S'PMBCL'
p344
S'PMBCL'
p345
S'NN'
p346
S'I-NP'
p347
g5
tp348
a(g312
g312
g312
g5
g5
tp349
a(S'aged'
p350
S'aged'
p351
S'JJ'
p352
S'B-ADJP'
p353
g5
tp354
a(S'18-65'
p355
S'18-65'
p356
S'CD'
p357
S'B-NP'
p358
g5
tp359
a(S'years'
p360
S'year'
p361
S'NNS'
p362
S'I-NP'
p363
g5
tp364
a(S'and'
p365
S'and'
p366
S'CC'
p367
g5
g5
tp368
a(S'negative'
p369
S'negative'
p370
S'JJ'
p371
S'B-NP'
p372
g5
tp373
a(S'for'
p374
S'for'
p375
S'IN'
p376
S'B-PP'
p377
g5
tp378
a(S'immunodeficiency'
p379
S'immunodeficiency'
p380
S'NN'
p381
S'B-NP'
p382
g5
tp383
a(S'virus'
p384
S'virus'
p385
S'NN'
p386
S'I-NP'
p387
g5
tp388
a(S'test'
p389
S'test'
p390
S'NN'
p391
S'I-NP'
p392
g5
tp393
a(g312
g312
g312
g5
g5
tp394
a(S'were'
p395
S'be'
p396
S'VBD'
p397
S'B-VP'
p398
g5
tp399
a(S'considered'
p400
S'consider'
p401
S'VBN'
p402
S'I-VP'
p403
g5
tp404
a(S'candidates'
p405
S'candidate'
p406
S'NNS'
p407
S'B-NP'
p408
g5
tp409
a(S'to'
p410
S'to'
p411
S'TO'
p412
S'B-VP'
p413
g5
tp414
a(S'receive'
p415
S'receive'
p416
S'VB'
p417
S'I-VP'
p418
g5
tp419
a(S'either'
p420
S'either'
p421
S'CC'
p422
g5
g5
tp423
a(S'conventional'
p424
S'conventional'
p425
S'JJ'
p426
S'B-NP'
p427
g5
tp428
a(S'chemotherapy'
p429
S'chemotherapy'
p430
S'NN'
p431
S'I-NP'
p432
g5
tp433
a(S'with'
p434
S'with'
p435
S'IN'
p436
S'B-PP'
p437
g5
tp438
a(S'CEOP-Bleo'
p439
S'CEOP-Bleo'
p440
S'NN'
p441
S'B-NP'
p442
g5
tp443
a(g116
g116
g116
g5
g5
tp444
a(S'cyclophosphamide'
p445
S'cyclophosphamide'
p446
S'NN'
p447
S'B-NP'
p448
g5
tp449
a(S'750'
p450
S'750'
p451
S'CD'
p452
S'B-NP'
p453
g5
tp454
a(S'mg/m'
p455
S'mg/m'
p456
S'NN'
p457
S'I-NP'
p458
g5
tp459
a(g116
g116
g116
g5
g5
tp460
a(S'2'
p461
g461
S'CD'
p462
S'B-NP'
p463
g5
tp464
a(g123
g123
g123
g5
g5
tp465
a(g312
g312
g312
g5
g5
tp466
a(S'vincristine'
p467
S'vincristine'
p468
S'NN'
p469
S'B-NP'
p470
g5
tp471
a(S'1.4'
p472
S'1.4'
p473
S'CD'
p474
S'I-NP'
p475
g5
tp476
a(S'mg/m'
p477
S'mg/m'
p478
S'NN'
p479
S'I-NP'
p480
g5
tp481
a(g116
g116
g116
g5
g5
tp482
a(g461
g461
S'CD'
p483
S'B-NP'
p484
g5
tp485
a(g123
g123
g123
g5
g5
tp486
a(g312
g312
g312
g5
g5
tp487
a(S'prednisone'
p488
S'prednisone'
p489
S'NN'
p490
S'B-NP'
p491
g5
tp492
a(S'40'
p493
S'40'
p494
S'CD'
p495
S'I-NP'
p496
g5
tp497
a(S'mg/m'
p498
S'mg/m'
p499
S'NN'
p500
S'I-NP'
p501
g5
tp502
a(g116
g116
g116
g5
g5
tp503
a(g461
g461
S'CD'
p504
S'B-NP'
p505
g5
tp506
a(g123
g123
g123
g5
g5
tp507
a(g312
g312
g312
g5
g5
tp508
a(S'epirubicin'
p509
S'epirubicin'
p510
S'NN'
p511
S'B-NP'
p512
g5
tp513
a(S'70'
p514
S'70'
p515
S'CD'
p516
S'I-NP'
p517
g5
tp518
a(S'mg/m'
p519
S'mg/m'
p520
S'NN'
p521
S'I-NP'
p522
g5
tp523
a(g116
g116
g116
g5
g5
tp524
a(g461
g461
S'CD'
p525
S'B-NP'
p526
g5
tp527
a(g123
g123
g123
g5
g5
tp528
a(g312
g312
g312
g5
g5
tp529
a(S'and'
p530
S'and'
p531
S'CC'
p532
g5
g5
tp533
a(S'bleomycin'
p534
S'bleomycin'
p535
S'NN'
p536
S'B-NP'
p537
g5
tp538
a(S'10'
p539
S'10'
p540
S'CD'
p541
S'I-NP'
p542
g5
tp543
a(S'mg/m'
p544
S'mg/m'
p545
S'NN'
p546
S'I-NP'
p547
g5
tp548
a(g116
g116
g116
g5
g5
tp549
a(g461
g461
S'CD'
p550
S'B-NP'
p551
g5
tp552
a(g123
g123
g123
g5
g5
tp553
a(g123
g123
g123
g5
g5
tp554
a(S'or'
p555
S'or'
p556
S'CC'
p557
g5
g5
tp558
a(S'mega'
p559
S'mega'
p560
S'JJ'
p561
S'B-NP'
p562
g5
tp563
a(S'CEOP-Bleo'
p564
S'CEOP-Bleo'
p565
S'NN'
p566
S'I-NP'
p567
g5
tp568
a(g116
g116
g116
g5
g5
tp569
a(S'cyclophosphamide'
p570
S'cyclophosphamide'
p571
S'NN'
p572
S'B-NP'
p573
g5
tp574
a(S'1000'
p575
S'1000'
p576
S'CD'
p577
S'I-NP'
p578
g5
tp579
a(S'mg/m'
p580
S'mg/m'
p581
S'NN'
p582
S'I-NP'
p583
g5
tp584
a(g116
g116
g116
g5
g5
tp585
a(g461
g461
S'CD'
p586
S'B-NP'
p587
g5
tp588
a(g123
g123
g123
g5
g5
tp589
a(g312
g312
g312
g5
g5
tp590
a(S'epirubicin'
p591
S'epirubicin'
p592
S'NN'
p593
S'B-NP'
p594
g5
tp595
a(S'120'
p596
S'120'
p597
S'CD'
p598
S'I-NP'
p599
g5
tp600
a(S'mg/m'
p601
S'mg/m'
p602
S'NN'
p603
S'I-NP'
p604
g5
tp605
a(g116
g116
g116
g5
g5
tp606
a(g461
g461
S'CD'
p607
S'B-NP'
p608
g5
tp609
a(g123
g123
g123
g5
g5
tp610
a(g312
g312
g312
g5
g5
tp611
a(S'vincristine'
p612
S'vincristine'
p613
S'NN'
p614
S'B-NP'
p615
g5
tp616
a(g312
g312
g312
g5
g5
tp617
a(S'prednisone'
p618
S'prednisone'
p619
S'NN'
p620
S'B-NP'
p621
g5
tp622
a(g312
g312
g312
g5
g5
tp623
a(S'and'
p624
S'and'
p625
S'CC'
p626
g5
g5
tp627
a(S'bleomycin'
p628
S'bleomycin'
p629
S'NN'
p630
S'B-NP'
p631
g5
tp632
a(S'at'
p633
S'at'
p634
S'IN'
p635
S'B-PP'
p636
g5
tp637
a(S'the'
p638
S'the'
p639
S'DT'
p640
S'B-NP'
p641
g5
tp642
a(S'same'
p643
S'same'
p644
S'JJ'
p645
S'I-NP'
p646
g5
tp647
a(S'doses'
p648
S'dose'
p649
S'NNS'
p650
S'I-NP'
p651
g5
tp652
a(g123
g123
g123
g5
g5
tp653
a(S'every'
p654
S'every'
p655
S'DT'
p656
S'B-NP'
p657
g5
tp658
a(S'21'
p659
S'21'
p660
S'CD'
p661
S'I-NP'
p662
g5
tp663
a(S'days'
p664
S'day'
p665
S'NNS'
p666
S'I-NP'
p667
g5
tp668
a(S'for'
p669
S'for'
p670
S'IN'
p671
S'B-PP'
p672
g5
tp673
a(S'six'
p674
S'six'
p675
S'CD'
p676
S'B-NP'
p677
g5
tp678
a(S'cycles'
p679
S'cycle'
p680
S'NNS'
p681
S'I-NP'
p682
g5
tp683
a(g312
g312
g312
g5
g5
tp684
a(S'followed'
p685
S'follow'
p686
S'VBN'
p687
S'B-VP'
p688
g5
tp689
a(S'by'
p690
S'by'
p691
S'IN'
p692
S'B-PP'
p693
g5
tp694
a(S'radiotherapy'
p695
S'radiotherapy'
p696
S'NN'
p697
S'B-NP'
p698
g5
tp699
a(S'to'
p700
S'to'
p701
S'TO'
p702
S'B-PP'
p703
g5
tp704
a(S'the'
p705
S'the'
p706
S'DT'
p707
S'B-NP'
p708
g5
tp709
a(S'mediastinum'
p710
S'mediastinum'
p711
S'NN'
p712
S'I-NP'
p713
g5
tp714
a(S'with'
p715
S'with'
p716
S'IN'
p717
S'B-PP'
p718
g5
tp719
a(S'the'
p720
S'the'
p721
S'DT'
p722
S'B-NP'
p723
g5
tp724
a(S'mantle'
p725
S'mantle'
p726
S'NN'
p727
S'I-NP'
p728
g5
tp729
a(S'technique'
p730
S'technique'
p731
S'NN'
p732
S'I-NP'
p733
g5
tp734
a(g116
g116
g116
g5
g5
tp735
a(S'35-45'
p736
S'35-45'
p737
S'CD'
p738
S'B-NP'
p739
g5
tp740
a(S'Gy'
p741
S'Gy'
p742
S'NN'
p743
S'I-NP'
p744
g5
tp745
a(g312
g312
g312
g5
g5
tp746
a(S'mean'
p747
S'mean'
p748
S'NN'
p749
S'B-NP'
p750
g5
tp751
a(S'38'
p752
S'38'
p753
S'CD'
p754
S'I-NP'
p755
g5
tp756
a(S'Gy'
p757
S'Gy'
p758
S'NN'
p759
S'I-NP'
p760
g5
tp761
a(g123
g123
g123
g5
g5
tp762
a(g74
g74
g74
g5
g5
tp763
a(S'Complete'
p764
S'Complete'
p765
S'JJ'
p766
S'B-NP'
p767
g5
tp768
a(S'response'
p769
S'response'
p770
S'NN'
p771
S'I-NP'
p772
g5
tp773
a(g116
g116
g116
g5
g5
tp774
a(S'CR'
p775
S'CR'
p776
S'NN'
p777
S'B-NP'
p778
g5
tp779
a(g123
g123
g123
g5
g5
tp780
a(S'rates'
p781
S'rate'
p782
S'NNS'
p783
S'B-NP'
p784
g5
tp785
a(S'were'
p786
S'be'
p787
S'VBD'
p788
S'B-VP'
p789
g5
tp790
a(S'not'
p791
S'not'
p792
S'RB'
p793
S'I-VP'
p794
g5
tp795
a(S'statistically'
p796
S'statistically'
p797
S'RB'
p798
S'I-VP'
p799
g5
tp800
a(S'different'
p801
S'different'
p802
S'JJ'
p803
S'I-VP'
p804
g5
tp805
a(g52
g52
g52
g5
g5
tp806
a(S'64'
p807
S'64'
p808
S'CD'
p809
S'B-NP'
p810
g5
tp811
a(S'%'
p812
g812
S'NN'
p813
S'I-NP'
p814
g5
tp815
a(S'['
p816
g816
g116
g5
g5
tp817
a(S'95'
p818
S'95'
p819
S'CD'
p820
S'B-NP'
p821
g5
tp822
a(S'percent'
p823
S'percent'
p824
S'NN'
p825
S'I-NP'
p826
g5
tp827
a(S'confidence'
p828
S'confidence'
p829
S'NN'
p830
S'I-NP'
p831
g5
tp832
a(S'interval'
p833
S'interval'
p834
S'NN'
p835
S'I-NP'
p836
g5
tp837
a(g116
g116
g116
g5
g5
tp838
a(S'CI'
p839
S'CI'
p840
S'NN'
p841
S'B-NP'
p842
g5
tp843
a(g123
g123
g123
g5
g5
tp844
a(g52
g52
g52
g5
g5
tp845
a(S'58'
p846
S'58'
p847
S'CD'
p848
S'B-NP'
p849
g5
tp850
a(S'percent'
p851
S'percent'
p852
S'NN'
p853
S'I-NP'
p854
g5
tp855
a(S'to'
p856
S'to'
p857
S'TO'
p858
S'B-PP'
p859
g5
tp860
a(S'70'
p861
S'70'
p862
S'CD'
p863
S'B-NP'
p864
g5
tp865
a(S'percent'
p866
S'percent'
p867
S'NN'
p868
S'I-NP'
p869
g5
tp870
a(S']'
p871
g871
g123
g5
g5
tp872
a(S'for'
p873
S'for'
p874
S'IN'
p875
S'B-PP'
p876
g5
tp877
a(S'conventional'
p878
S'conventional'
p879
S'JJ'
p880
S'B-NP'
p881
g5
tp882
a(S'arm'
p883
S'arm'
p884
S'NN'
p885
S'I-NP'
p886
g5
tp887
a(S'vs'
p888
S'vs'
p889
S'IN'
p890
S'B-PP'
p891
g5
tp892
a(S'81'
p893
S'81'
p894
S'CD'
p895
S'B-NP'
p896
g5
tp897
a(S'percent'
p898
S'percent'
p899
S'NN'
p900
S'I-NP'
p901
g5
tp902
a(g116
g116
g116
g5
g5
tp903
a(S'95'
p904
S'95'
p905
S'CD'
p906
S'B-NP'
p907
g5
tp908
a(S'CI'
p909
S'CI'
p910
S'NNP'
p911
S'I-NP'
p912
g5
tp913
a(g52
g52
g52
g5
g5
tp914
a(S'77-86'
p915
S'77-86'
p916
S'CD'
p917
S'B-NP'
p918
g5
tp919
a(S'percent'
p920
S'percent'
p921
S'NN'
p922
S'I-NP'
p923
g5
tp924
a(g123
g123
g123
g5
g5
tp925
a(S'in'
p926
S'in'
p927
S'IN'
p928
S'B-PP'
p929
g5
tp930
a(S'the'
p931
S'the'
p932
S'DT'
p933
S'B-NP'
p934
g5
tp935
a(S'intensive'
p936
S'intensive'
p937
S'JJ'
p938
S'I-NP'
p939
g5
tp940
a(S'group'
p941
S'group'
p942
S'NN'
p943
S'I-NP'
p944
g5
tp945
a(g116
g116
g116
g5
g5
tp946
a(S'p=0.2'
p947
S'p=0.2'
p948
S'NN'
p949
S'B-NP'
p950
S'B-protein'
p951
tp952
a(g123
g123
g123
g5
g5
tp953
a(g74
g74
g74
g5
g5
tp954
a(S'However'
p955
S'However'
p956
S'RB'
p957
S'B-ADVP'
p958
g5
tp959
a(g312
g312
g312
g5
g5
tp960
a(S'failure-free'
p961
S'failure-free'
p962
S'JJ'
p963
S'B-NP'
p964
g5
tp965
a(S'survival'
p966
S'survival'
p967
S'NN'
p968
S'I-NP'
p969
g5
tp970
a(g116
g116
g116
g5
g5
tp971
a(S'FFS'
p972
S'FFS'
p973
S'NN'
p974
S'B-NP'
p975
S'B-protein'
p976
tp977
a(g123
g123
g123
g5
g5
tp978
a(S'and'
p979
S'and'
p980
S'CC'
p981
g5
g5
tp982
a(S'overall'
p983
S'overall'
p984
S'JJ'
p985
S'B-NP'
p986
g5
tp987
a(S'survival'
p988
S'survival'
p989
S'NN'
p990
S'I-NP'
p991
g5
tp992
a(g116
g116
g116
g5
g5
tp993
a(S'OS'
p994
S'OS'
p995
S'NN'
p996
S'B-NP'
p997
g5
tp998
a(g123
g123
g123
g5
g5
tp999
a(S'had'
p1000
S'have'
p1001
S'VBD'
p1002
S'B-VP'
p1003
g5
tp1004
a(S'statistical'
p1005
S'statistical'
p1006
S'JJ'
p1007
S'B-NP'
p1008
g5
tp1009
a(S'differences.'
p1010
S'differences.'
p1011
S'NNS'
p1012
S'I-NP'
p1013
g5
tp1014
a(S'At'
p1015
S'At'
p1016
S'IN'
p1017
S'B-PP'
p1018
g5
tp1019
a(S'5'
p1020
g1020
S'CD'
p1021
S'B-NP'
p1022
g5
tp1023
a(S'years'
p1024
S'year'
p1025
S'NNS'
p1026
S'I-NP'
p1027
g5
tp1028
a(g312
g312
g312
g5
g5
tp1029
a(S'actuarial'
p1030
S'actuarial'
p1031
S'JJ'
p1032
S'B-NP'
p1033
g5
tp1034
a(S'FFS'
p1035
S'FFS'
p1036
S'NN'
p1037
S'I-NP'
p1038
g5
tp1039
a(S'for'
p1040
S'for'
p1041
S'IN'
p1042
S'B-PP'
p1043
g5
tp1044
a(S'patients'
p1045
S'patient'
p1046
S'NNS'
p1047
S'B-NP'
p1048
g5
tp1049
a(S'treated'
p1050
S'treat'
p1051
S'VBN'
p1052
S'B-VP'
p1053
g5
tp1054
a(S'with'
p1055
S'with'
p1056
S'IN'
p1057
S'B-PP'
p1058
g5
tp1059
a(S'conventional'
p1060
S'conventional'
p1061
S'JJ'
p1062
S'B-NP'
p1063
g5
tp1064
a(S'chemotherapy'
p1065
S'chemotherapy'
p1066
S'NN'
p1067
S'I-NP'
p1068
g5
tp1069
a(S'was'
p1070
S'be'
p1071
S'VBD'
p1072
S'B-VP'
p1073
g5
tp1074
a(S'51'
p1075
S'51'
p1076
S'CD'
p1077
S'B-NP'
p1078
g5
tp1079
a(S'percent'
p1080
S'percent'
p1081
S'NN'
p1082
S'I-NP'
p1083
g5
tp1084
a(g116
g116
g116
g5
g5
tp1085
a(S'95'
p1086
S'95'
p1087
S'CD'
p1088
S'B-NP'
p1089
g5
tp1090
a(S'percent'
p1091
S'percent'
p1092
S'NN'
p1093
S'I-NP'
p1094
g5
tp1095
a(S'CI'
p1096
S'CI'
p1097
S'NN'
p1098
S'I-NP'
p1099
g5
tp1100
a(g52
g52
g52
g5
g5
tp1101
a(S'44-59'
p1102
S'44-59'
p1103
S'CD'
p1104
S'B-NP'
p1105
g5
tp1106
a(S'percent'
p1107
S'percent'
p1108
S'NN'
p1109
S'I-NP'
p1110
g5
tp1111
a(g123
g123
g123
g5
g5
tp1112
a(S'compared'
p1113
S'compare'
p1114
S'VBN'
p1115
S'B-PP'
p1116
g5
tp1117
a(S'to'
p1118
S'to'
p1119
S'TO'
p1120
S'B-PP'
p1121
g5
tp1122
a(S'70'
p1123
S'70'
p1124
S'CD'
p1125
S'B-NP'
p1126
g5
tp1127
a(S'percent'
p1128
S'percent'
p1129
S'NN'
p1130
S'I-NP'
p1131
g5
tp1132
a(g116
g116
g116
g5
g5
tp1133
a(S'95'
p1134
S'95'
p1135
S'CD'
p1136
S'B-NP'
p1137
g5
tp1138
a(S'percent'
p1139
S'percent'
p1140
S'NN'
p1141
S'I-NP'
p1142
g5
tp1143
a(S'CI'
p1144
S'CI'
p1145
S'NN'
p1146
S'I-NP'
p1147
g5
tp1148
a(g52
g52
g52
g5
g5
tp1149
a(S'65-76'
p1150
S'65-76'
p1151
S'CD'
p1152
S'B-NP'
p1153
g5
tp1154
a(S'percent'
p1155
S'percent'
p1156
S'NN'
p1157
S'I-NP'
p1158
g5
tp1159
a(g123
g123
g123
g5
g5
tp1160
a(S'in'
p1161
S'in'
p1162
S'IN'
p1163
S'B-PP'
p1164
g5
tp1165
a(S'the'
p1166
S'the'
p1167
S'DT'
p1168
S'B-NP'
p1169
g5
tp1170
a(S'intensive'
p1171
S'intensive'
p1172
S'JJ'
p1173
S'I-NP'
p1174
g5
tp1175
a(S'arm'
p1176
S'arm'
p1177
S'NN'
p1178
S'I-NP'
p1179
g5
tp1180
a(g116
g116
g116
g5
g5
tp1181
a(S'p'
p1182
g1182
S'NN'
p1183
S'B-NP'
p1184
g5
tp1185
a(S'>'
p1186
g1186
S'SYM'
p1187
g5
g5
tp1188
a(S'0.01'
p1189
S'0.01'
p1190
S'CD'
p1191
S'B-NP'
p1192
g5
tp1193
a(g123
g123
g123
g5
g5
tp1194
a(g74
g74
g74
g5
g5
tp1195
a(S'OS'
p1196
S'OS'
p1197
S'NN'
p1198
S'B-NP'
p1199
g5
tp1200
a(S'rates'
p1201
S'rate'
p1202
S'NNS'
p1203
S'I-NP'
p1204
g5
tp1205
a(S'were'
p1206
S'be'
p1207
S'VBD'
p1208
S'B-VP'
p1209
g5
tp1210
a(S'also'
p1211
S'also'
p1212
S'RB'
p1213
S'B-ADVP'
p1214
g5
tp1215
a(S'different'
p1216
S'different'
p1217
S'JJ'
p1218
S'B-ADJP'
p1219
g5
tp1220
a(g52
g52
g52
g5
g5
tp1221
a(S'54'
p1222
S'54'
p1223
S'CD'
p1224
S'B-NP'
p1225
g5
tp1226
a(S'percent'
p1227
S'percent'
p1228
S'NN'
p1229
S'I-NP'
p1230
g5
tp1231
a(g116
g116
g116
g5
g5
tp1232
a(S'95'
p1233
S'95'
p1234
S'CD'
p1235
S'B-NP'
p1236
g5
tp1237
a(S'percent'
p1238
S'percent'
p1239
S'NN'
p1240
S'I-NP'
p1241
g5
tp1242
a(S'CI'
p1243
S'CI'
p1244
S'NN'
p1245
S'I-NP'
p1246
g5
tp1247
a(g52
g52
g52
g5
g5
tp1248
a(S'48-57'
p1249
S'48-57'
p1250
S'CD'
p1251
S'B-NP'
p1252
g5
tp1253
a(S'percent'
p1254
S'percent'
p1255
S'NN'
p1256
S'I-NP'
p1257
g5
tp1258
a(g123
g123
g123
g5
g5
tp1259
a(S'vs'
p1260
S'vs'
p1261
S'IN'
p1262
S'B-PP'
p1263
g5
tp1264
a(S'70'
p1265
S'70'
p1266
S'CD'
p1267
S'B-NP'
p1268
g5
tp1269
a(S'percent'
p1270
S'percent'
p1271
S'NN'
p1272
S'I-NP'
p1273
g5
tp1274
a(g116
g116
g116
g5
g5
tp1275
a(S'95'
p1276
S'95'
p1277
S'CD'
p1278
S'B-NP'
p1279
g5
tp1280
a(S'percent'
p1281
S'percent'
p1282
S'NN'
p1283
S'I-NP'
p1284
g5
tp1285
a(S'CI'
p1286
S'CI'
p1287
S'NN'
p1288
S'I-NP'
p1289
g5
tp1290
a(g52
g52
g52
g5
g5
tp1291
a(S'65-76'
p1292
S'65-76'
p1293
S'CD'
p1294
S'B-NP'
p1295
g5
tp1296
a(S'percent'
p1297
S'percent'
p1298
S'NN'
p1299
S'I-NP'
p1300
g5
tp1301
a(g123
g123
g123
g5
g5
tp1302
a(g312
g312
g312
g5
g5
tp1303
a(S'respectively'
p1304
S'respectively'
p1305
S'RB'
p1306
S'B-ADVP'
p1307
g5
tp1308
a(g116
g116
g116
g5
g5
tp1309
a(g1182
g1182
S'NN'
p1310
S'B-NP'
p1311
g5
tp1312
a(S'<'
p1313
g1313
S'SYM'
p1314
g5
g5
tp1315
a(S'0.01'
p1316
S'0.01'
p1317
S'CD'
p1318
S'B-NP'
p1319
g5
tp1320
a(g123
g123
g123
g5
g5
tp1321
a(g74
g74
g74
g5
g5
tp1322
a(S'Toxicity'
p1323
S'Toxicity'
p1324
S'NN'
p1325
S'B-NP'
p1326
g5
tp1327
a(S'was'
p1328
S'be'
p1329
S'VBD'
p1330
S'B-VP'
p1331
g5
tp1332
a(S'mild'
p1333
S'mild'
p1334
S'JJ'
p1335
S'B-ADJP'
p1336
g5
tp1337
a(S'and'
p1338
S'and'
p1339
S'CC'
p1340
g5
g5
tp1341
a(S'no'
p1342
S'no'
p1343
S'DT'
p1344
S'B-NP'
p1345
g5
tp1346
a(S'therapy-related'
p1347
S'therapy-related'
p1348
S'JJ'
p1349
S'I-NP'
p1350
g5
tp1351
a(S'deaths'
p1352
S'death'
p1353
S'NNS'
p1354
S'I-NP'
p1355
g5
tp1356
a(S'were'
p1357
S'be'
p1358
S'VBD'
p1359
S'B-VP'
p1360
g5
tp1361
a(S'observed.'
p1362
S'observed.'
p1363
S'VBN'
p1364
S'I-VP'
p1365
g5
tp1366
a(S'At'
p1367
S'At'
p1368
S'IN'
p1369
S'B-PP'
p1370
g5
tp1371
a(g145
g145
S'DT'
p1372
S'B-NP'
p1373
g5
tp1374
a(S'median'
p1375
S'median'
p1376
S'JJ'
p1377
S'I-NP'
p1378
g5
tp1379
a(S'follow-up'
p1380
S'follow-up'
p1381
S'NN'
p1382
S'I-NP'
p1383
g5
tp1384
a(S'of'
p1385
S'of'
p1386
S'IN'
p1387
S'B-PP'
p1388
g5
tp1389
a(S'7.3'
p1390
S'7.3'
p1391
S'CD'
p1392
S'B-NP'
p1393
g5
tp1394
a(S'years'
p1395
S'year'
p1396
S'NNS'
p1397
S'I-NP'
p1398
g5
tp1399
a(g312
g312
g312
g5
g5
tp1400
a(S'no'
p1401
S'no'
p1402
S'DT'
p1403
S'B-NP'
p1404
g5
tp1405
a(S'second'
p1406
S'second'
p1407
S'JJ'
p1408
S'I-NP'
p1409
g5
tp1410
a(S'neoplasia'
p1411
S'neoplasia'
p1412
S'NN'
p1413
S'I-NP'
p1414
g5
tp1415
a(S'or'
p1416
S'or'
p1417
S'CC'
p1418
g5
g5
tp1419
a(S'acute'
p1420
S'acute'
p1421
S'JJ'
p1422
S'B-NP'
p1423
g5
tp1424
a(S'leukemia'
p1425
S'leukemia'
p1426
S'NN'
p1427
S'I-NP'
p1428
g5
tp1429
a(S'has'
p1430
S'have'
p1431
S'VBZ'
p1432
S'B-VP'
p1433
g5
tp1434
a(S'been'
p1435
S'be'
p1436
S'VBN'
p1437
S'I-VP'
p1438
g5
tp1439
a(S'observed.'
p1440
S'observed.'
p1441
S'VBN'
p1442
S'I-VP'
p1443
g5
tp1444
a(S'The'
p1445
S'The'
p1446
S'DT'
p1447
S'B-NP'
p1448
g5
tp1449
a(S'international'
p1450
S'international'
p1451
S'JJ'
p1452
S'I-NP'
p1453
g5
tp1454
a(S'prognostic'
p1455
S'prognostic'
p1456
S'JJ'
p1457
S'I-NP'
p1458
g5
tp1459
a(S'index'
p1460
S'index'
p1461
S'NN'
p1462
S'I-NP'
p1463
g5
tp1464
a(S'was'
p1465
S'be'
p1466
S'VBD'
p1467
S'B-VP'
p1468
g5
tp1469
a(S'not'
p1470
S'not'
p1471
S'RB'
p1472
g5
g5
tp1473
a(S'useful'
p1474
S'useful'
p1475
S'JJ'
p1476
S'B-ADJP'
p1477
g5
tp1478
a(S'to'
p1479
S'to'
p1480
S'TO'
p1481
S'B-VP'
p1482
g5
tp1483
a(S'define'
p1484
S'define'
p1485
S'VB'
p1486
S'I-VP'
p1487
g5
tp1488
a(S'clinical'
p1489
S'clinical'
p1490
S'JJ'
p1491
S'B-NP'
p1492
g5
tp1493
a(S'risk'
p1494
S'risk'
p1495
S'NN'
p1496
S'I-NP'
p1497
g5
tp1498
a(S'in'
p1499
S'in'
p1500
S'IN'
p1501
S'B-PP'
p1502
g5
tp1503
a(S'this'
p1504
S'this'
p1505
S'DT'
p1506
S'B-NP'
p1507
g5
tp1508
a(S'selected'
p1509
S'select'
p1510
S'VBN'
p1511
S'I-NP'
p1512
g5
tp1513
a(S'group'
p1514
S'group'
p1515
S'NN'
p1516
S'I-NP'
p1517
g5
tp1518
a(S'of'
p1519
S'of'
p1520
S'IN'
p1521
S'B-PP'
p1522
g5
tp1523
a(S'patients.'
p1524
S'patients.'
p1525
S'NN'
p1526
S'B-NP'
p1527
g5
tp1528
a(S'Multivariate'
p1529
S'Multivariate'
p1530
S'JJ'
p1531
S'I-NP'
p1532
g5
tp1533
a(S'analysis'
p1534
S'analysis'
p1535
S'NN'
p1536
S'I-NP'
p1537
g5
tp1538
a(S'identified'
p1539
S'identify'
p1540
S'VBD'
p1541
S'B-VP'
p1542
g5
tp1543
a(S'pleural'
p1544
S'pleural'
p1545
S'JJ'
p1546
S'B-NP'
p1547
g5
tp1548
a(S'and'
p1549
S'and'
p1550
S'CC'
p1551
S'I-NP'
p1552
g5
tp1553
a(S'pericardial'
p1554
S'pericardial'
p1555
S'JJ'
p1556
S'I-NP'
p1557
g5
tp1558
a(S'effusion'
p1559
S'effusion'
p1560
S'NN'
p1561
S'I-NP'
p1562
g5
tp1563
a(S'and'
p1564
S'and'
p1565
S'CC'
p1566
S'I-NP'
p1567
g5
tp1568
a(S'chemotherapy'
p1569
S'chemotherapy'
p1570
S'NN'
p1571
S'I-NP'
p1572
g5
tp1573
a(S'regimen'
p1574
S'regimen'
p1575
S'NN'
p1576
S'I-NP'
p1577
g5
tp1578
a(S'as'
p1579
S'as'
p1580
S'IN'
p1581
S'B-PP'
p1582
g5
tp1583
a(S'prognostic'
p1584
S'prognostic'
p1585
S'JJ'
p1586
S'B-NP'
p1587
S'B-protein'
p1588
tp1589
a(S'factors'
p1590
S'factor'
p1591
S'NNS'
p1592
S'I-NP'
p1593
S'I-protein'
p1594
tp1595
a(S'influencing'
p1596
S'influence'
p1597
S'VBG'
p1598
S'B-VP'
p1599
g5
tp1600
a(S'FFS'
p1601
S'FFS'
p1602
S'NNP'
p1603
S'B-NP'
p1604
g5
tp1605
a(S'and'
p1606
S'and'
p1607
S'CC'
p1608
S'I-NP'
p1609
g5
tp1610
a(S'OS.'
p1611
S'OS.'
p1612
S'NNP'
p1613
S'I-NP'
p1614
g5
tp1615
a(S'We'
p1616
S'We'
p1617
S'PRP'
p1618
S'B-NP'
p1619
g5
tp1620
a(S'feel'
p1621
S'feel'
p1622
S'VBP'
p1623
S'B-VP'
p1624
g5
tp1625
a(S'that'
p1626
S'that'
p1627
S'IN'
p1628
S'B-SBAR'
p1629
g5
tp1630
a(S'patients'
p1631
S'patient'
p1632
S'NNS'
p1633
S'B-NP'
p1634
g5
tp1635
a(S'with'
p1636
S'with'
p1637
S'IN'
p1638
S'B-PP'
p1639
g5
tp1640
a(S'PMBCL'
p1641
S'PMBCL'
p1642
S'NN'
p1643
S'B-NP'
p1644
g5
tp1645
a(S'should'
p1646
S'should'
p1647
S'MD'
p1648
S'B-VP'
p1649
g5
tp1650
a(S'be'
p1651
S'be'
p1652
S'VB'
p1653
S'I-VP'
p1654
g5
tp1655
a(S'treated'
p1656
S'treat'
p1657
S'VBN'
p1658
S'I-VP'
p1659
g5
tp1660
a(S'with'
p1661
S'with'
p1662
S'IN'
p1663
S'B-PP'
p1664
g5
tp1665
a(S'more'
p1666
S'more'
p1667
S'RBR'
p1668
S'B-NP'
p1669
g5
tp1670
a(S'intensive'
p1671
S'intensive'
p1672
S'JJ'
p1673
S'I-NP'
p1674
g5
tp1675
a(g312
g312
g312
g5
g5
tp1676
a(S'but'
p1677
S'but'
p1678
S'CC'
p1679
g5
g5
tp1680
a(S'not'
p1681
S'not'
p1682
S'RB'
p1683
g5
g5
tp1684
a(S'myeloablative'
p1685
S'myeloablative'
p1686
S'JJ'
p1687
S'B-NP'
p1688
g5
tp1689
a(S'chemotherapy'
p1690
S'chemotherapy'
p1691
S'NN'
p1692
S'I-NP'
p1693
g5
tp1694
a(g312
g312
g312
g5
g5
tp1695
a(S'followed'
p1696
S'follow'
p1697
S'VBN'
p1698
S'B-VP'
p1699
g5
tp1700
a(S'by'
p1701
S'by'
p1702
S'IN'
p1703
S'B-PP'
p1704
g5
tp1705
a(S'adjuvant'
p1706
S'adjuvant'
p1707
S'JJ'
p1708
S'B-NP'
p1709
g5
tp1710
a(S'radiotherapy'
p1711
S'radiotherapy'
p1712
S'NN'
p1713
S'I-NP'
p1714
g5
tp1715
a(S'to'
p1716
S'to'
p1717
S'TO'
p1718
S'B-VP'
p1719
g5
tp1720
a(S'achieve'
p1721
S'achieve'
p1722
S'VB'
p1723
S'I-VP'
p1724
g5
tp1725
a(S'an'
p1726
S'an'
p1727
S'DT'
p1728
S'B-NP'
p1729
g5
tp1730
a(S'improvement'
p1731
S'improvement'
p1732
S'NN'
p1733
S'I-NP'
p1734
g5
tp1735
a(S'in'
p1736
S'in'
p1737
S'IN'
p1738
S'B-PP'
p1739
g5
tp1740
a(S'outcome'
p1741
S'outcome'
p1742
S'NN'
p1743
S'B-NP'
p1744
g5
tp1745
a(S'in'
p1746
S'in'
p1747
S'IN'
p1748
S'B-PP'
p1749
g5
tp1750
a(S'this'
p1751
S'this'
p1752
S'DT'
p1753
S'B-NP'
p1754
g5
tp1755
a(S'setting'
p1756
S'setting'
p1757
S'NN'
p1758
S'I-NP'
p1759
g5
tp1760
a(S'of'
p1761
S'of'
p1762
S'IN'
p1763
S'B-PP'
p1764
g5
tp1765
a(S'patients.'
p1766
S'patients.'
p1767
S'NN'
p1768
S'B-NP'
p1769
g5
tp1770
a(S'Patients'
p1771
S'Patient'
p1772
S'NNS'
p1773
S'I-NP'
p1774
g5
tp1775
a(S'with'
p1776
S'with'
p1777
S'IN'
p1778
S'B-PP'
p1779
g5
tp1780
a(S'pleural'
p1781
S'pleural'
p1782
S'JJ'
p1783
S'B-NP'
p1784
g5
tp1785
a(S'or'
p1786
S'or'
p1787
S'CC'
p1788
S'I-NP'
p1789
g5
tp1790
a(S'pericardial'
p1791
S'pericardial'
p1792
S'JJ'
p1793
S'I-NP'
p1794
g5
tp1795
a(S'effusion'
p1796
S'effusion'
p1797
S'NN'
p1798
S'I-NP'
p1799
g5
tp1800
a(S'are'
p1801
S'be'
p1802
S'VBP'
p1803
S'B-VP'
p1804
g5
tp1805
a(S'considered'
p1806
S'consider'
p1807
S'VBN'
p1808
S'I-VP'
p1809
g5
tp1810
a(S'at'
p1811
S'at'
p1812
S'IN'
p1813
S'B-PP'
p1814
g5
tp1815
a(S'high'
p1816
S'high'
p1817
S'JJ'
p1818
S'B-NP'
p1819
g5
tp1820
a(S'risk'
p1821
S'risk'
p1822
S'NN'
p1823
S'I-NP'
p1824
g5
tp1825
a(S'for'
p1826
S'for'
p1827
S'IN'
p1828
S'B-PP'
p1829
g5
tp1830
a(S'failure'
p1831
S'failure'
p1832
S'NN'
p1833
S'B-NP'
p1834
g5
tp1835
a(S'with'
p1836
S'with'
p1837
S'IN'
p1838
S'B-PP'
p1839
g5
tp1840
a(S'the'
p1841
S'the'
p1842
S'DT'
p1843
S'B-NP'
p1844
g5
tp1845
a(S'actual'
p1846
S'actual'
p1847
S'JJ'
p1848
S'I-NP'
p1849
g5
tp1850
a(S'programs'
p1851
S'program'
p1852
S'NNS'
p1853
S'I-NP'
p1854
g5
tp1855
a(S'of'
p1856
S'of'
p1857
S'IN'
p1858
S'B-PP'
p1859
g5
tp1860
a(S'treatment'
p1861
S'treatment'
p1862
S'NN'
p1863
S'B-NP'
p1864
g5
tp1865
a(S'and'
p1866
S'and'
p1867
S'CC'
p1868
g5
g5
tp1869
a(S'probably'
p1870
S'probably'
p1871
S'RB'
p1872
S'B-VP'
p1873
g5
tp1874
a(S'will'
p1875
S'will'
p1876
S'MD'
p1877
S'I-VP'
p1878
g5
tp1879
a(S'be'
p1880
S'be'
p1881
S'VB'
p1882
S'I-VP'
p1883
g5
tp1884
a(S'considered'
p1885
S'consider'
p1886
S'VBN'
p1887
S'I-VP'
p1888
g5
tp1889
a(S'for'
p1890
S'for'
p1891
S'IN'
p1892
S'B-PP'
p1893
g5
tp1894
a(S'experimental'
p1895
S'experimental'
p1896
S'JJ'
p1897
S'B-NP'
p1898
g5
tp1899
a(S'therapeutic'
p1900
S'therapeutic'
p1901
S'JJ'
p1902
S'I-NP'
p1903
g5
tp1904
a(S'approaches'
p1905
S'approach'
p1906
S'NNS'
p1907
S'I-NP'
p1908
g5
tp1909
a(g74
g74
g74
g5
g5
tp1910
a.