(lp0
(S'['
p1
g1
S'('
p2
S'O'
p3
g3
tp4
a(S'Effects'
p5
S'Effect'
p6
S'NNS'
p7
S'B-NP'
p8
g3
tp9
a(S'of'
p10
S'of'
p11
S'IN'
p12
S'B-PP'
p13
g3
tp14
a(S'dujieqing'
p15
S'dujieqe'
p16
S'VBG'
p17
S'B-VP'
p18
g3
tp19
a(S'oral'
p20
S'oral'
p21
S'JJ'
p22
S'B-NP'
p23
g3
tp24
a(S'liquid'
p25
S'liquid'
p26
S'NN'
p27
S'I-NP'
p28
g3
tp29
a(S'on'
p30
S'on'
p31
S'IN'
p32
S'B-PP'
p33
g3
tp34
a(S'the'
p35
S'the'
p36
S'DT'
p37
S'B-NP'
p38
g3
tp39
a(S'promoter'
p40
S'promoter'
p41
S'NN'
p42
S'I-NP'
p43
g3
tp44
a(S'methylation'
p45
S'methylation'
p46
S'NN'
p47
S'I-NP'
p48
g3
tp49
a(S'of'
p50
S'of'
p51
S'IN'
p52
S'B-PP'
p53
g3
tp54
a(S'the'
p55
S'the'
p56
S'DT'
p57
S'B-NP'
p58
g3
tp59
a(S'MGMT'
p60
S'MGMT'
p61
S'NN'
p62
S'I-NP'
p63
S'B-DNA'
p64
tp65
a(S'gene'
p66
S'gene'
p67
S'NN'
p68
S'I-NP'
p69
S'I-DNA'
p70
tp71
a(S'in'
p72
S'in'
p73
S'IN'
p74
S'B-PP'
p75
g3
tp76
a(S'middle-and-late'
p77
S'middle-and-late'
p78
S'JJ'
p79
S'B-NP'
p80
g3
tp81
a(S'stage'
p82
S'stage'
p83
S'NN'
p84
S'I-NP'
p85
g3
tp86
a(S'tumor'
p87
S'tumor'
p88
S'NN'
p89
S'I-NP'
p90
g3
tp91
a(S'patients'
p92
S'patient'
p93
S'NNS'
p94
S'I-NP'
p95
g3
tp96
a(S'receiving'
p97
S'receive'
p98
S'VBG'
p99
S'B-VP'
p100
g3
tp101
a(S'chemotherapy'
p102
S'chemotherapy'
p103
S'NN'
p104
S'B-NP'
p105
g3
tp106
a(S']'
p107
g107
S')'
p108
g3
g3
tp109
a(S'.'
p110
g110
g110
g3
g3
tp111
a(S'OBJECTIVE'
p112
S'OBJECTIVE'
p113
S'NN'
p114
S'B-NP'
p115
g3
tp116
a(S'To'
p117
S'To'
p118
S'TO'
p119
S'B-VP'
p120
g3
tp121
a(S'observe'
p122
S'observe'
p123
S'VB'
p124
S'I-VP'
p125
g3
tp126
a(S'the'
p127
S'the'
p128
S'DT'
p129
S'B-NP'
p130
g3
tp131
a(S'effects'
p132
S'effect'
p133
S'NNS'
p134
S'I-NP'
p135
g3
tp136
a(S'of'
p137
S'of'
p138
S'IN'
p139
S'B-PP'
p140
g3
tp141
a(S'Dujieqing'
p142
S'Dujieqe'
p143
S'VBG'
p144
S'B-VP'
p145
g3
tp146
a(S'Oral'
p147
S'Oral'
p148
S'JJ'
p149
S'B-NP'
p150
g3
tp151
a(S'Liquid'
p152
S'Liquid'
p153
S'NN'
p154
S'I-NP'
p155
g3
tp156
a(g2
g2
g2
g3
g3
tp157
a(S'DJQ'
p158
S'DJQ'
p159
S'NN'
p160
S'B-NP'
p161
S'B-protein'
p162
tp163
a(g108
g108
g108
g3
g3
tp164
a(S'on'
p165
S'on'
p166
S'IN'
p167
S'B-PP'
p168
g3
tp169
a(S'the'
p170
S'the'
p171
S'DT'
p172
S'B-NP'
p173
g3
tp174
a(S'promoter'
p175
S'promoter'
p176
S'NN'
p177
S'I-NP'
p178
g3
tp179
a(S'methylation'
p180
S'methylation'
p181
S'NN'
p182
S'I-NP'
p183
g3
tp184
a(S'of'
p185
S'of'
p186
S'IN'
p187
S'B-PP'
p188
g3
tp189
a(S'the'
p190
S'the'
p191
S'DT'
p192
S'B-NP'
p193
g3
tp194
a(S'O6-methylguanine-DNA'
p195
S'O6-methylguanine-DNA'
p196
S'NN'
p197
S'I-NP'
p198
S'B-DNA'
p199
tp200
a(S'methyltransferase'
p201
S'methyltransferase'
p202
S'NN'
p203
S'I-NP'
p204
S'I-DNA'
p205
tp206
a(g2
g2
g2
g3
S'I-DNA'
p207
tp208
a(S'MGMT'
p209
S'MGMT'
p210
S'NN'
p211
S'B-NP'
p212
S'I-DNA'
p213
tp214
a(g108
g108
g108
g3
S'I-DNA'
p215
tp216
a(S'gene'
p217
S'gene'
p218
S'NN'
p219
S'B-NP'
p220
S'I-DNA'
p221
tp222
a(S'in'
p223
S'in'
p224
S'IN'
p225
S'B-PP'
p226
g3
tp227
a(S'the'
p228
S'the'
p229
S'DT'
p230
S'B-NP'
p231
g3
tp232
a(S'plasma'
p233
S'plasma'
p234
S'NN'
p235
S'I-NP'
p236
g3
tp237
a(S'DNA'
p238
S'DNA'
p239
S'NN'
p240
S'I-NP'
p241
g3
tp242
a(S'samples'
p243
S'sample'
p244
S'NNS'
p245
S'I-NP'
p246
g3
tp247
a(S'from'
p248
S'from'
p249
S'IN'
p250
S'B-PP'
p251
g3
tp252
a(S'middle-and-late'
p253
S'middle-and-late'
p254
S'JJ'
p255
S'B-NP'
p256
g3
tp257
a(S'stage'
p258
S'stage'
p259
S'NN'
p260
S'I-NP'
p261
g3
tp262
a(S'tumor'
p263
S'tumor'
p264
S'NN'
p265
S'I-NP'
p266
g3
tp267
a(S'patients'
p268
S'patient'
p269
S'NNS'
p270
S'I-NP'
p271
g3
tp272
a(S'receiving'
p273
S'receive'
p274
S'VBG'
p275
S'B-VP'
p276
g3
tp277
a(S'chemotherapy'
p278
S'chemotherapy'
p279
S'NN'
p280
S'B-NP'
p281
g3
tp282
a(g110
g110
g110
g3
g3
tp283
a(S'METHODS'
p284
S'METHODS'
p285
S'NNS'
p286
S'B-NP'
p287
g3
tp288
a(S'Recruited'
p289
S'Recruit'
p290
S'VBD'
p291
S'B-VP'
p292
g3
tp293
a(S'60'
p294
S'60'
p295
S'CD'
p296
S'B-NP'
p297
g3
tp298
a(S'patients'
p299
S'patient'
p300
S'NNS'
p301
S'I-NP'
p302
g3
tp303
a(S'were'
p304
S'be'
p305
S'VBD'
p306
S'B-VP'
p307
g3
tp308
a(S'randomly'
p309
S'randomly'
p310
S'RB'
p311
S'I-VP'
p312
g3
tp313
a(S'assigned'
p314
S'assign'
p315
S'VBN'
p316
S'I-VP'
p317
g3
tp318
a(S'to'
p319
S'to'
p320
S'TO'
p321
S'B-PP'
p322
g3
tp323
a(S'the'
p324
S'the'
p325
S'DT'
p326
S'B-NP'
p327
g3
tp328
a(S'treatment'
p329
S'treatment'
p330
S'NN'
p331
S'I-NP'
p332
g3
tp333
a(S'group'
p334
S'group'
p335
S'NN'
p336
S'I-NP'
p337
g3
tp338
a(g2
g2
g2
g3
g3
tp339
a(S'treated'
p340
S'treat'
p341
S'VBN'
p342
S'B-VP'
p343
g3
tp344
a(S'by'
p345
S'by'
p346
S'IN'
p347
S'B-PP'
p348
g3
tp349
a(S'conventional'
p350
S'conventional'
p351
S'JJ'
p352
S'B-NP'
p353
g3
tp354
a(S'chemotherapy'
p355
S'chemotherapy'
p356
S'NN'
p357
S'I-NP'
p358
g3
tp359
a(S'combined'
p360
S'combine'
p361
S'VBN'
p362
S'I-NP'
p363
g3
tp364
a(S'DJQ'
p365
S'DJQ'
p366
S'NN'
p367
S'I-NP'
p368
g3
tp369
a(S','
p370
g370
g370
g3
g3
tp371
a(S'20'
p372
S'20'
p373
S'CD'
p374
S'B-NP'
p375
g3
tp376
a(S'mL'
p377
S'mL'
p378
S'NN'
p379
S'I-NP'
p380
g3
tp381
a(S'each'
p382
S'each'
p383
S'DT'
p384
S'B-NP'
p385
g3
tp386
a(S'time'
p387
S'time'
p388
S'NN'
p389
S'I-NP'
p390
g3
tp391
a(g370
g370
g370
g3
g3
tp392
a(S'three'
p393
S'three'
p394
S'CD'
p395
S'B-NP'
p396
g3
tp397
a(S'times'
p398
S'time'
p399
S'NNS'
p400
S'I-NP'
p401
g3
tp402
a(S'daily'
p403
S'daily'
p404
S'RB'
p405
S'I-NP'
p406
g3
tp407
a(g108
g108
g108
g3
g3
tp408
a(S'and'
p409
S'and'
p410
S'CC'
p411
g3
g3
tp412
a(S'the'
p413
S'the'
p414
S'DT'
p415
S'B-NP'
p416
g3
tp417
a(S'control'
p418
S'control'
p419
S'NN'
p420
S'I-NP'
p421
g3
tp422
a(S'group'
p423
S'group'
p424
S'NN'
p425
S'I-NP'
p426
g3
tp427
a(g2
g2
g2
g3
g3
tp428
a(S'treated'
p429
S'treat'
p430
S'VBN'
p431
S'B-VP'
p432
g3
tp433
a(S'by'
p434
S'by'
p435
S'IN'
p436
S'B-PP'
p437
g3
tp438
a(S'chemotherapy'
p439
S'chemotherapy'
p440
S'NN'
p441
S'B-NP'
p442
g3
tp443
a(S'alone'
p444
S'alone'
p445
S'RB'
p446
S'B-ADVP'
p447
g3
tp448
a(g108
g108
g108
g3
g3
tp449
a(g370
g370
g370
g3
g3
tp450
a(S'30'
p451
S'30'
p452
S'CD'
p453
S'B-NP'
p454
g3
tp455
a(S'in'
p456
S'in'
p457
S'IN'
p458
S'B-PP'
p459
g3
tp460
a(S'each'
p461
S'each'
p462
S'DT'
p463
S'B-NP'
p464
g3
tp465
a(S'group.'
p466
S'group.'
p467
S'NN'
p468
S'I-NP'
p469
g3
tp470
a(S'The'
p471
S'The'
p472
S'DT'
p473
S'B-NP'
p474
g3
tp475
a(S'therapeutic'
p476
S'therapeutic'
p477
S'JJ'
p478
S'I-NP'
p479
g3
tp480
a(S'course'
p481
S'course'
p482
S'NN'
p483
S'I-NP'
p484
g3
tp485
a(S'was'
p486
S'be'
p487
S'VBD'
p488
S'B-VP'
p489
g3
tp490
a(S'8'
p491
g491
S'CD'
p492
S'B-NP'
p493
g3
tp494
a(S'weeks.'
p495
S'weeks.'
p496
S'NN'
p497
S'I-NP'
p498
g3
tp499
a(S'The'
p500
S'The'
p501
S'DT'
p502
S'B-NP'
p503
g3
tp504
a(S'promoter'
p505
S'promoter'
p506
S'NN'
p507
S'I-NP'
p508
g3
tp509
a(S'methylation'
p510
S'methylation'
p511
S'NN'
p512
S'I-NP'
p513
g3
tp514
a(S'of'
p515
S'of'
p516
S'IN'
p517
S'B-PP'
p518
g3
tp519
a(S'the'
p520
S'the'
p521
S'DT'
p522
S'B-NP'
p523
g3
tp524
a(S'MGMT'
p525
S'MGMT'
p526
S'NN'
p527
S'I-NP'
p528
S'B-DNA'
p529
tp530
a(S'gene'
p531
S'gene'
p532
S'NN'
p533
S'I-NP'
p534
S'I-DNA'
p535
tp536
a(S'in'
p537
S'in'
p538
S'IN'
p539
S'B-PP'
p540
g3
tp541
a(S'the'
p542
S'the'
p543
S'DT'
p544
S'B-NP'
p545
g3
tp546
a(S'plasma'
p547
S'plasma'
p548
S'NN'
p549
S'I-NP'
p550
g3
tp551
a(S'DNA'
p552
S'DNA'
p553
S'NN'
p554
S'I-NP'
p555
g3
tp556
a(S'samples'
p557
S'sample'
p558
S'NNS'
p559
S'I-NP'
p560
g3
tp561
a(S'form'
p562
S'form'
p563
S'VBP'
p564
S'B-VP'
p565
g3
tp566
a(S'middle-and-late'
p567
S'middle-and-late'
p568
S'JJ'
p569
S'B-NP'
p570
g3
tp571
a(S'stage'
p572
S'stage'
p573
S'NN'
p574
S'I-NP'
p575
g3
tp576
a(S'tumor'
p577
S'tumor'
p578
S'NN'
p579
S'I-NP'
p580
g3
tp581
a(S'patients'
p582
S'patient'
p583
S'NNS'
p584
S'I-NP'
p585
g3
tp586
a(S'receiving'
p587
S'receive'
p588
S'VBG'
p589
S'B-VP'
p590
g3
tp591
a(S'chemotherapy'
p592
S'chemotherapy'
p593
S'NN'
p594
S'B-NP'
p595
g3
tp596
a(S'was'
p597
S'be'
p598
S'VBD'
p599
S'B-VP'
p600
g3
tp601
a(S'detected'
p602
S'detect'
p603
S'VBN'
p604
S'I-VP'
p605
g3
tp606
a(S'before'
p607
S'before'
p608
S'IN'
p609
S'B-PP'
p610
g3
tp611
a(S'and'
p612
S'and'
p613
S'CC'
p614
S'I-PP'
p615
g3
tp616
a(S'after'
p617
S'after'
p618
S'IN'
p619
S'I-PP'
p620
g3
tp621
a(S'treatment'
p622
S'treatment'
p623
S'NN'
p624
S'B-NP'
p625
g3
tp626
a(S'using'
p627
S'use'
p628
S'VBG'
p629
S'B-VP'
p630
g3
tp631
a(S'nested'
p632
S'nest'
p633
S'VBN'
p634
S'B-NP'
p635
g3
tp636
a(S'methylation-specific'
p637
S'methylation-specific'
p638
S'JJ'
p639
S'I-NP'
p640
g3
tp641
a(S'polymerase'
p642
S'polymerase'
p643
S'NN'
p644
S'I-NP'
p645
g3
tp646
a(S'chain'
p647
S'chain'
p648
S'NN'
p649
S'I-NP'
p650
g3
tp651
a(S'reaction'
p652
S'reaction'
p653
S'NN'
p654
S'I-NP'
p655
g3
tp656
a(g2
g2
g2
g3
g3
tp657
a(S'MSP'
p658
S'MSP'
p659
S'NN'
p660
S'B-NP'
p661
S'B-protein'
p662
tp663
a(g108
g108
g108
g3
g3
tp664
a(g110
g110
g110
g3
g3
tp665
a(S'Meanwhile'
p666
S'Meanwhile'
p667
S'RB'
p668
S'B-ADVP'
p669
g3
tp670
a(g370
g370
g370
g3
g3
tp671
a(S'the'
p672
S'the'
p673
S'DT'
p674
S'B-NP'
p675
g3
tp676
a(S'peripheral'
p677
S'peripheral'
p678
S'JJ'
p679
S'I-NP'
p680
g3
tp681
a(S'hemogram'
p682
S'hemogram'
p683
S'NN'
p684
S'I-NP'
p685
g3
tp686
a(S'was'
p687
S'be'
p688
S'VBD'
p689
S'B-VP'
p690
g3
tp691
a(S'detected.'
p692
S'detected.'
p693
S'VBN'
p694
S'I-VP'
p695
g3
tp696
a(S'The'
p697
S'The'
p698
S'DT'
p699
S'B-NP'
p700
g3
tp701
a(S'clinical'
p702
S'clinical'
p703
S'JJ'
p704
S'I-NP'
p705
g3
tp706
a(S'efficacy'
p707
S'efficacy'
p708
S'NN'
p709
S'I-NP'
p710
g3
tp711
a(S'and'
p712
S'and'
p713
S'CC'
p714
g3
g3
tp715
a(S'toxic/adverse'
p716
S'toxic/adverse'
p717
S'JJ'
p718
S'B-NP'
p719
g3
tp720
a(S'reactions'
p721
S'reaction'
p722
S'NNS'
p723
S'I-NP'
p724
g3
tp725
a(S'were'
p726
S'be'
p727
S'VBD'
p728
S'B-VP'
p729
g3
tp730
a(S'assessed'
p731
S'assess'
p732
S'VBN'
p733
S'I-VP'
p734
g3
tp735
a(S'using'
p736
S'use'
p737
S'VBG'
p738
S'B-VP'
p739
g3
tp740
a(S'Karnofsky'
p741
S'Karnofsky'
p742
S'NNP'
p743
S'B-NP'
p744
g3
tp745
a(S'performance'
p746
S'performance'
p747
S'NN'
p748
S'I-NP'
p749
g3
tp750
a(S'scale'
p751
S'scale'
p752
S'NN'
p753
S'I-NP'
p754
g3
tp755
a(g2
g2
g2
g3
g3
tp756
a(S'KPS'
p757
S'KPS'
p758
S'NN'
p759
S'B-NP'
p760
S'B-protein'
p761
tp762
a(g108
g108
g108
g3
g3
tp763
a(g110
g110
g110
g3
g3
tp764
a(S'RESULTS'
p765
S'RESULTS'
p766
S'NNS'
p767
S'B-NP'
p768
g3
tp769
a(S'Results'
p770
S'Result'
p771
S'NNS'
p772
S'I-NP'
p773
g3
tp774
a(S'of'
p775
S'of'
p776
S'IN'
p777
S'B-PP'
p778
g3
tp779
a(S'the'
p780
S'the'
p781
S'DT'
p782
S'B-NP'
p783
g3
tp784
a(S'promoter'
p785
S'promoter'
p786
S'NN'
p787
S'I-NP'
p788
g3
tp789
a(S'methylation'
p790
S'methylation'
p791
S'NN'
p792
S'I-NP'
p793
g3
tp794
a(S'of'
p795
S'of'
p796
S'IN'
p797
S'B-PP'
p798
g3
tp799
a(S'MGMT'
p800
S'MGMT'
p801
S'NN'
p802
S'B-NP'
p803
S'B-DNA'
p804
tp805
a(S'genes'
p806
S'gene'
p807
S'NNS'
p808
S'I-NP'
p809
S'I-DNA'
p810
tp811
a(S'showed'
p812
S'show'
p813
S'VBD'
p814
S'B-VP'
p815
g3
tp816
a(S'that'
p817
S'that'
p818
S'IN'
p819
S'B-SBAR'
p820
g3
tp821
a(S'methylation'
p822
S'methylation'
p823
S'NN'
p824
S'B-NP'
p825
g3
tp826
a(S'rate'
p827
S'rate'
p828
S'NN'
p829
S'I-NP'
p830
g3
tp831
a(S'was'
p832
S'be'
p833
S'VBD'
p834
S'B-VP'
p835
g3
tp836
a(S'20.00'
p837
S'20.00'
p838
S'CD'
p839
S'B-NP'
p840
g3
tp841
a(S'%'
p842
g842
S'NN'
p843
S'I-NP'
p844
g3
tp845
a(S'in'
p846
S'in'
p847
S'IN'
p848
S'B-PP'
p849
g3
tp850
a(S'the'
p851
S'the'
p852
S'DT'
p853
S'B-NP'
p854
g3
tp855
a(S'treatment'
p856
S'treatment'
p857
S'NN'
p858
S'I-NP'
p859
g3
tp860
a(S'group'
p861
S'group'
p862
S'NN'
p863
S'I-NP'
p864
g3
tp865
a(S'and'
p866
S'and'
p867
S'CC'
p868
g3
g3
tp869
a(S'46.67'
p870
S'46.67'
p871
S'CD'
p872
S'B-NP'
p873
g3
tp874
a(g842
g842
S'NN'
p875
S'I-NP'
p876
g3
tp877
a(S'in'
p878
S'in'
p879
S'IN'
p880
S'B-PP'
p881
g3
tp882
a(S'the'
p883
S'the'
p884
S'DT'
p885
S'B-NP'
p886
g3
tp887
a(S'control'
p888
S'control'
p889
S'NN'
p890
S'I-NP'
p891
g3
tp892
a(S'group'
p893
S'group'
p894
S'NN'
p895
S'I-NP'
p896
g3
tp897
a(g2
g2
g2
g3
g3
tp898
a(S'P'
p899
g899
S'NN'
p900
S'B-NP'
p901
g3
tp902
a(S'<'
p903
g903
S'SYM'
p904
g3
g3
tp905
a(S'0.05'
p906
S'0.05'
p907
S'CD'
p908
S'B-NP'
p909
g3
tp910
a(g108
g108
g108
g3
g3
tp911
a(g110
g110
g110
g3
g3
tp912
a(S'Compared'
p913
S'Compare'
p914
S'VBN'
p915
S'B-VP'
p916
g3
tp917
a(S'with'
p918
S'with'
p919
S'IN'
p920
S'B-PP'
p921
g3
tp922
a(S'before'
p923
S'before'
p924
S'IN'
p925
S'B-PP'
p926
g3
tp927
a(S'treatment'
p928
S'treatment'
p929
S'NN'
p930
S'B-NP'
p931
g3
tp932
a(g370
g370
g370
g3
g3
tp933
a(S'the'
p934
S'the'
p935
S'DT'
p936
S'B-NP'
p937
g3
tp938
a(S'KPS'
p939
S'KPS'
p940
S'NNP'
p941
S'I-NP'
p942
g3
tp943
a(S'was'
p944
S'be'
p945
S'VBD'
p946
S'B-VP'
p947
g3
tp948
a(S'significantly'
p949
S'significantly'
p950
S'RB'
p951
S'I-VP'
p952
g3
tp953
a(S'improved'
p954
S'improve'
p955
S'VBN'
p956
S'I-VP'
p957
g3
tp958
a(S'in'
p959
S'in'
p960
S'IN'
p961
S'B-PP'
p962
g3
tp963
a(S'the'
p964
S'the'
p965
S'DT'
p966
S'B-NP'
p967
g3
tp968
a(S'treatment'
p969
S'treatment'
p970
S'NN'
p971
S'I-NP'
p972
g3
tp973
a(S'group'
p974
S'group'
p975
S'NN'
p976
S'I-NP'
p977
g3
tp978
a(S'after'
p979
S'after'
p980
S'IN'
p981
S'B-PP'
p982
g3
tp983
a(S'treatment'
p984
S'treatment'
p985
S'NN'
p986
S'B-NP'
p987
g3
tp988
a(g370
g370
g370
g3
g3
tp989
a(S'while'
p990
S'while'
p991
S'IN'
p992
S'B-SBAR'
p993
g3
tp994
a(S'it'
p995
S'it'
p996
S'PRP'
p997
S'B-NP'
p998
g3
tp999
a(S'significantly'
p1000
S'significantly'
p1001
S'RB'
p1002
S'B-ADVP'
p1003
g3
tp1004
a(S'decreased'
p1005
S'decrease'
p1006
S'VBD'
p1007
S'B-VP'
p1008
g3
tp1009
a(S'in'
p1010
S'in'
p1011
S'IN'
p1012
S'B-PP'
p1013
g3
tp1014
a(S'the'
p1015
S'the'
p1016
S'DT'
p1017
S'B-NP'
p1018
g3
tp1019
a(S'control'
p1020
S'control'
p1021
S'NN'
p1022
S'I-NP'
p1023
g3
tp1024
a(S'group'
p1025
S'group'
p1026
S'NN'
p1027
S'I-NP'
p1028
g3
tp1029
a(S'after'
p1030
S'after'
p1031
S'IN'
p1032
S'B-PP'
p1033
g3
tp1034
a(S'treatment'
p1035
S'treatment'
p1036
S'NN'
p1037
S'B-NP'
p1038
g3
tp1039
a(g2
g2
g2
g3
g3
tp1040
a(S'both'
p1041
S'both'
p1042
S'DT'
p1043
S'B-NP'
p1044
g3
tp1045
a(g899
g899
S'NN'
p1046
S'I-NP'
p1047
g3
tp1048
a(g903
g903
S'JJR'
p1049
S'B-NP'
p1050
g3
tp1051
a(S'0.05'
p1052
S'0.05'
p1053
S'CD'
p1054
S'I-NP'
p1055
g3
tp1056
a(g108
g108
g108
g3
g3
tp1057
a(g110
g110
g110
g3
g3
tp1058
a(S'There'
p1059
S'There'
p1060
S'EX'
p1061
S'B-NP'
p1062
g3
tp1063
a(S'was'
p1064
S'be'
p1065
S'VBD'
p1066
S'B-VP'
p1067
g3
tp1068
a(S'statistical'
p1069
S'statistical'
p1070
S'JJ'
p1071
S'B-NP'
p1072
g3
tp1073
a(S'difference'
p1074
S'difference'
p1075
S'NN'
p1076
S'I-NP'
p1077
g3
tp1078
a(S'in'
p1079
S'in'
p1080
S'IN'
p1081
S'B-PP'
p1082
g3
tp1083
a(S'the'
p1084
S'the'
p1085
S'DT'
p1086
S'B-NP'
p1087
g3
tp1088
a(S'KPS'
p1089
S'KPS'
p1090
S'NN'
p1091
S'I-NP'
p1092
S'B-DNA'
p1093
tp1094
a(S'between'
p1095
S'between'
p1096
S'IN'
p1097
S'B-PP'
p1098
g3
tp1099
a(S'the'
p1100
S'the'
p1101
S'DT'
p1102
S'B-NP'
p1103
g3
tp1104
a(S'two'
p1105
S'two'
p1106
S'CD'
p1107
S'I-NP'
p1108
g3
tp1109
a(S'groups'
p1110
S'group'
p1111
S'NNS'
p1112
S'I-NP'
p1113
g3
tp1114
a(S'after'
p1115
S'after'
p1116
S'IN'
p1117
S'B-PP'
p1118
g3
tp1119
a(S'treatment'
p1120
S'treatment'
p1121
S'NN'
p1122
S'B-NP'
p1123
g3
tp1124
a(g2
g2
g2
g3
g3
tp1125
a(g899
g899
S'NN'
p1126
S'B-NP'
p1127
g3
tp1128
a(g903
g903
S'SYM'
p1129
g3
g3
tp1130
a(S'0.01'
p1131
S'0.01'
p1132
S'CD'
p1133
S'B-NP'
p1134
g3
tp1135
a(g108
g108
g108
g3
g3
tp1136
a(g110
g110
g110
g3
g3
tp1137
a(S'The'
p1138
S'The'
p1139
S'DT'
p1140
S'B-NP'
p1141
g3
tp1142
a(S'toxic/adverse'
p1143
S'toxic/adverse'
p1144
S'JJ'
p1145
S'I-NP'
p1146
g3
tp1147
a(S'reactions'
p1148
S'reaction'
p1149
S'NNS'
p1150
S'I-NP'
p1151
g3
tp1152
a(S'were'
p1153
S'be'
p1154
S'VBD'
p1155
S'B-VP'
p1156
g3
tp1157
a(S'milder'
p1158
S'mild'
p1159
S'JJR'
p1160
S'B-ADJP'
p1161
g3
tp1162
a(S'in'
p1163
S'in'
p1164
S'IN'
p1165
S'B-PP'
p1166
g3
tp1167
a(S'the'
p1168
S'the'
p1169
S'DT'
p1170
S'B-NP'
p1171
g3
tp1172
a(S'treatment'
p1173
S'treatment'
p1174
S'NN'
p1175
S'I-NP'
p1176
g3
tp1177
a(S'group'
p1178
S'group'
p1179
S'NN'
p1180
S'I-NP'
p1181
g3
tp1182
a(S'than'
p1183
S'than'
p1184
S'IN'
p1185
S'B-PP'
p1186
g3
tp1187
a(S'in'
p1188
S'in'
p1189
S'IN'
p1190
S'B-PP'
p1191
g3
tp1192
a(S'the'
p1193
S'the'
p1194
S'DT'
p1195
S'B-NP'
p1196
g3
tp1197
a(S'control'
p1198
S'control'
p1199
S'NN'
p1200
S'I-NP'
p1201
g3
tp1202
a(S'group'
p1203
S'group'
p1204
S'NN'
p1205
S'I-NP'
p1206
g3
tp1207
a(g2
g2
g2
g3
g3
tp1208
a(g899
g899
S'NN'
p1209
S'B-NP'
p1210
g3
tp1211
a(g903
g903
S'SYM'
p1212
g3
g3
tp1213
a(S'0.01'
p1214
S'0.01'
p1215
S'CD'
p1216
S'B-NP'
p1217
g3
tp1218
a(g108
g108
g108
g3
g3
tp1219
a(g110
g110
g110
g3
g3
tp1220
a(S'CONCLUSIONS'
p1221
S'CONCLUSIONS'
p1222
S'NNS'
p1223
S'B-NP'
p1224
g3
tp1225
a(S'DJQ'
p1226
S'DJQ'
p1227
S'NN'
p1228
S'I-NP'
p1229
g3
tp1230
a(S'showed'
p1231
S'show'
p1232
S'VBD'
p1233
S'B-VP'
p1234
g3
tp1235
a(S'efficiency'
p1236
S'efficiency'
p1237
S'NN'
p1238
S'B-NP'
p1239
g3
tp1240
a(S'synergism'
p1241
S'synergism'
p1242
S'NN'
p1243
S'I-NP'
p1244
g3
tp1245
a(S'and'
p1246
S'and'
p1247
S'CC'
p1248
g3
g3
tp1249
a(S'toxicity'
p1250
S'toxicity'
p1251
S'NN'
p1252
S'B-NP'
p1253
g3
tp1254
a(S'reducing'
p1255
S'reducing'
p1256
S'NN'
p1257
S'I-NP'
p1258
g3
tp1259
a(S'effects'
p1260
S'effect'
p1261
S'NNS'
p1262
S'I-NP'
p1263
g3
tp1264
a(g370
g370
g370
g3
g3
tp1265
a(S'but'
p1266
S'but'
p1267
S'CC'
p1268
g3
g3
tp1269
a(S'with'
p1270
S'with'
p1271
S'IN'
p1272
S'B-PP'
p1273
g3
tp1274
a(S'no'
p1275
S'no'
p1276
S'DT'
p1277
S'B-NP'
p1278
g3
tp1279
a(S'effect'
p1280
S'effect'
p1281
S'NN'
p1282
S'I-NP'
p1283
g3
tp1284
a(S'on'
p1285
S'on'
p1286
S'IN'
p1287
S'B-PP'
p1288
g3
tp1289
a(S'the'
p1290
S'the'
p1291
S'DT'
p1292
S'B-NP'
p1293
g3
tp1294
a(S'hematopoietic'
p1295
S'hematopoietic'
p1296
S'JJ'
p1297
S'I-NP'
p1298
g3
tp1299
a(S'function'
p1300
S'function'
p1301
S'NN'
p1302
S'I-NP'
p1303
g3
tp1304
a(S'of'
p1305
S'of'
p1306
S'IN'
p1307
S'B-PP'
p1308
g3
tp1309
a(S'the'
p1310
S'the'
p1311
S'DT'
p1312
S'B-NP'
p1313
g3
tp1314
a(S'bone'
p1315
S'bone'
p1316
S'NN'
p1317
S'I-NP'
p1318
S'B-DNA'
p1319
tp1320
a(S'marrow.'
p1321
S'marrow.'
p1322
S'NN'
p1323
S'I-NP'
p1324
S'I-DNA'
p1325
tp1326
a(S'MGMT'
p1327
S'MGMT'
p1328
S'NN'
p1329
S'I-NP'
p1330
S'I-DNA'
p1331
tp1332
a(S'gene'
p1333
S'gene'
p1334
S'NN'
p1335
S'I-NP'
p1336
S'I-DNA'
p1337
tp1338
a(S'was'
p1339
S'be'
p1340
S'VBD'
p1341
S'B-VP'
p1342
g3
tp1343
a(S'indicated'
p1344
S'indicate'
p1345
S'VBN'
p1346
S'I-VP'
p1347
g3
tp1348
a(S'as'
p1349
S'as'
p1350
S'IN'
p1351
S'B-PP'
p1352
g3
tp1353
a(S'DJQ'
p1354
S'DJQ'
p1355
S'NNP'
p1356
S'B-NP'
p1357
g3
tp1358
a(S"'s"
p1359
S"'s"
p1360
S'POS'
p1361
S'B-NP'
p1362
g3
tp1363
a(S'target'
p1364
S'target'
p1365
S'NN'
p1366
S'I-NP'
p1367
g3
tp1368
a(S'point'
p1369
S'point'
p1370
S'NN'
p1371
S'I-NP'
p1372
g3
tp1373
a(S'for'
p1374
S'for'
p1375
S'IN'
p1376
S'B-PP'
p1377
g3
tp1378
a(S'efficiency'
p1379
S'efficiency'
p1380
S'NN'
p1381
S'B-NP'
p1382
g3
tp1383
a(S'synergism'
p1384
S'synergism'
p1385
S'NN'
p1386
S'I-NP'
p1387
g3
tp1388
a(S'and'
p1389
S'and'
p1390
S'CC'
p1391
g3
g3
tp1392
a(S'toxicity'
p1393
S'toxicity'
p1394
S'NN'
p1395
S'B-NP'
p1396
g3
tp1397
a(S'reducing.'
p1398
S'reducing.'
p1399
S'NN'
p1400
S'I-NP'
p1401
g3
tp1402
a(S'The'
p1403
S'The'
p1404
S'DT'
p1405
S'B-NP'
p1406
g3
tp1407
a(S'efficiency'
p1408
S'efficiency'
p1409
S'NN'
p1410
S'I-NP'
p1411
g3
tp1412
a(S'synergism'
p1413
S'synergism'
p1414
S'NN'
p1415
S'I-NP'
p1416
g3
tp1417
a(S'and'
p1418
S'and'
p1419
S'CC'
p1420
g3
g3
tp1421
a(S'toxicity'
p1422
S'toxicity'
p1423
S'NN'
p1424
S'B-NP'
p1425
g3
tp1426
a(S'reducing'
p1427
S'reducing'
p1428
S'NN'
p1429
S'I-NP'
p1430
g3
tp1431
a(S'effects'
p1432
S'effect'
p1433
S'NNS'
p1434
S'I-NP'
p1435
g3
tp1436
a(S'were'
p1437
S'be'
p1438
S'VBD'
p1439
S'B-VP'
p1440
g3
tp1441
a(S'achieved'
p1442
S'achieve'
p1443
S'VBN'
p1444
S'I-VP'
p1445
g3
tp1446
a(S'by'
p1447
S'by'
p1448
S'IN'
p1449
S'B-PP'
p1450
g3
tp1451
a(S'regulating'
p1452
S'regulate'
p1453
S'VBG'
p1454
S'B-VP'
p1455
g3
tp1456
a(S'the'
p1457
S'the'
p1458
S'DT'
p1459
S'B-NP'
p1460
g3
tp1461
a(S'activities'
p1462
S'activity'
p1463
S'NNS'
p1464
S'I-NP'
p1465
g3
tp1466
a(S'of'
p1467
S'of'
p1468
S'IN'
p1469
S'B-PP'
p1470
g3
tp1471
a(S'MGMT'
p1472
S'MGMT'
p1473
S'NN'
p1474
S'B-NP'
p1475
S'B-DNA'
p1476
tp1477
a(S'gene'
p1478
S'gene'
p1479
S'NN'
p1480
S'I-NP'
p1481
S'I-DNA'
p1482
tp1483
a(g110
g110
g110
g3
g3
tp1484
a.