(lp0
(S'Brief'
p1
S'Brief'
p2
S'NNP'
p3
S'B-NP'
p4
S'O'
p5
tp6
a(S'Report'
p7
S'Report'
p8
S'NNP'
p9
S'I-NP'
p10
g5
tp11
a(S':'
p12
g12
g12
g5
g5
tp13
a(S'Cobicistat'
p14
S'Cobicistat'
p15
S'NN'
p16
S'B-NP'
p17
g5
tp18
a(S'Compared'
p19
S'Compare'
p20
S'VBN'
p21
S'B-VP'
p22
g5
tp23
a(S'With'
p24
S'With'
p25
S'IN'
p26
S'B-PP'
p27
g5
tp28
a(S'Ritonavir'
p29
S'Ritonavir'
p30
S'NN'
p31
S'B-NP'
p32
g5
tp33
a(S'as'
p34
S'as'
p35
S'IN'
p36
S'B-PP'
p37
g5
tp38
a(S'a'
p39
g39
S'DT'
p40
S'B-NP'
p41
g5
tp42
a(S'Pharmacoenhancer'
p43
S'Pharmacoenhancer'
p44
S'NNP'
p45
S'I-NP'
p46
g5
tp47
a(S'for'
p48
S'for'
p49
S'IN'
p50
S'B-PP'
p51
g5
tp52
a(S'Atazanavir'
p53
S'Atazanavir'
p54
S'NNP'
p55
S'B-NP'
p56
g5
tp57
a(S'in'
p58
S'in'
p59
S'IN'
p60
S'B-PP'
p61
g5
tp62
a(S'Combination'
p63
S'Combination'
p64
S'NNP'
p65
S'B-NP'
p66
g5
tp67
a(S'With'
p68
S'With'
p69
S'IN'
p70
S'B-PP'
p71
g5
tp72
a(S'Emtricitabine/Tenofovir'
p73
S'Emtricitabine/Tenofovir'
p74
S'NNP'
p75
S'B-NP'
p76
g5
tp77
a(S'Disoproxil'
p78
S'Disoproxil'
p79
S'NNP'
p80
S'I-NP'
p81
g5
tp82
a(S'Fumarate'
p83
S'Fumarate'
p84
S'NNP'
p85
S'I-NP'
p86
g5
tp87
a(g12
g12
g12
g5
g5
tp88
a(S'Week'
p89
S'Week'
p90
S'NNP'
p91
S'B-NP'
p92
g5
tp93
a(S'144'
p94
S'144'
p95
S'CD'
p96
S'B-NP'
p97
g5
tp98
a(S'Results'
p99
S'Result'
p100
S'NNS'
p101
S'I-NP'
p102
g5
tp103
a(S'.'
p104
g104
g104
g5
g5
tp105
a(S'BACKGROUND'
p106
S'BACKGROUND'
p107
S'NN'
p108
S'B-NP'
p109
g5
tp110
a(S'Cobicistat'
p111
S'Cobicistat'
p112
S'NN'
p113
S'I-NP'
p114
g5
tp115
a(S'('
p116
g116
g116
g5
g5
tp117
a(S'COBI'
p118
S'COBI'
p119
S'NN'
p120
S'B-NP'
p121
g5
tp122
a(S')'
p123
g123
g123
g5
g5
tp124
a(S'is'
p125
S'be'
p126
S'VBZ'
p127
S'B-VP'
p128
g5
tp129
a(g39
g39
S'DT'
p130
S'B-NP'
p131
g5
tp132
a(S'pharmacoenhancer'
p133
S'pharmacoenhancer'
p134
S'NN'
p135
S'I-NP'
p136
g5
tp137
a(S'with'
p138
S'with'
p139
S'IN'
p140
S'B-PP'
p141
g5
tp142
a(S'no'
p143
S'no'
p144
S'DT'
p145
S'B-NP'
p146
g5
tp147
a(S'antiretroviral'
p148
S'antiretroviral'
p149
S'JJ'
p150
S'I-NP'
p151
g5
tp152
a(S'activity'
p153
S'activity'
p154
S'NN'
p155
S'I-NP'
p156
g5
tp157
a(g104
g104
g104
g5
g5
tp158
a(S'METHODS'
p159
S'METHODS'
p160
S'NNS'
p161
S'B-NP'
p162
g5
tp163
a(S'International'
p164
S'International'
p165
S'NNP'
p166
S'I-NP'
p167
g5
tp168
a(S','
p169
g169
g169
g5
g5
tp170
a(S'randomized'
p171
S'randomize'
p172
S'VBD'
p173
S'B-VP'
p174
g5
tp175
a(S'double-blind'
p176
S'double-blind'
p177
S'JJ'
p178
S'B-NP'
p179
g5
tp180
a(S'active-controlled'
p181
S'active-controlled'
p182
S'JJ'
p183
S'I-NP'
p184
g5
tp185
a(S'trial'
p186
S'trial'
p187
S'NN'
p188
S'I-NP'
p189
g5
tp190
a(S'to'
p191
S'to'
p192
S'TO'
p193
S'B-VP'
p194
g5
tp195
a(S'evaluate'
p196
S'evaluate'
p197
S'VB'
p198
S'I-VP'
p199
g5
tp200
a(S'the'
p201
S'the'
p202
S'DT'
p203
S'B-NP'
p204
g5
tp205
a(S'efficacy'
p206
S'efficacy'
p207
S'NN'
p208
S'I-NP'
p209
g5
tp210
a(S'and'
p211
S'and'
p212
S'CC'
p213
S'I-NP'
p214
g5
tp215
a(S'safety'
p216
S'safety'
p217
S'NN'
p218
S'I-NP'
p219
g5
tp220
a(S'of'
p221
S'of'
p222
S'IN'
p223
S'B-PP'
p224
g5
tp225
a(S'COBI'
p226
S'COBI'
p227
S'NN'
p228
S'B-NP'
p229
g5
tp230
a(S'vs'
p231
S'vs'
p232
S'CC'
p233
g5
g5
tp234
a(S'ritonavir'
p235
S'ritonavir'
p236
S'NN'
p237
S'B-NP'
p238
g5
tp239
a(g116
g116
g116
g5
g5
tp240
a(S'RTV'
p241
S'RTV'
p242
S'NN'
p243
S'B-NP'
p244
g5
tp245
a(g123
g123
g123
g5
g5
tp246
a(S'as'
p247
S'as'
p248
S'IN'
p249
S'B-PP'
p250
g5
tp251
a(g39
g39
S'DT'
p252
S'B-NP'
p253
g5
tp254
a(S'pharmacoenhancer'
p255
S'pharmacoenhancer'
p256
S'NN'
p257
S'I-NP'
p258
g5
tp259
a(S'of'
p260
S'of'
p261
S'IN'
p262
S'B-PP'
p263
g5
tp264
a(S'atazanavir'
p265
S'atazanavir'
p266
S'NN'
p267
S'B-NP'
p268
g5
tp269
a(S'in'
p270
S'in'
p271
S'IN'
p272
S'B-PP'
p273
g5
tp274
a(S'combination'
p275
S'combination'
p276
S'NN'
p277
S'B-NP'
p278
g5
tp279
a(S'with'
p280
S'with'
p281
S'IN'
p282
S'B-PP'
p283
g5
tp284
a(S'emtricitabine/tenofovir'
p285
S'emtricitabine/tenofovir'
p286
S'NN'
p287
S'B-NP'
p288
g5
tp289
a(S'disoproxil'
p290
S'disoproxil'
p291
S'NN'
p292
S'I-NP'
p293
g5
tp294
a(S'fumarate'
p295
S'fumarate'
p296
S'NN'
p297
S'I-NP'
p298
g5
tp299
a(S'in'
p300
S'in'
p301
S'IN'
p302
S'B-PP'
p303
g5
tp304
a(S'HIV'
p305
S'HIV'
p306
S'NN'
p307
S'B-NP'
p308
g5
tp309
a(S'treatment-naive'
p310
S'treatment-naive'
p311
S'JJ'
p312
S'I-NP'
p313
g5
tp314
a(S'patients'
p315
S'patient'
p316
S'NNS'
p317
S'I-NP'
p318
g5
tp319
a(S'followed'
p320
S'follow'
p321
S'VBN'
p322
S'B-VP'
p323
g5
tp324
a(S'through'
p325
S'through'
p326
S'IN'
p327
S'B-PP'
p328
g5
tp329
a(S'week'
p330
S'week'
p331
S'NN'
p332
S'B-NP'
p333
g5
tp334
a(S'144'
p335
S'144'
p336
S'CD'
p337
S'I-NP'
p338
g5
tp339
a(g104
g104
g104
g5
g5
tp340
a(S'RESULTS'
p341
S'RESULTS'
p342
S'NNS'
p343
S'B-NP'
p344
g5
tp345
a(S'At'
p346
S'At'
p347
S'IN'
p348
S'B-PP'
p349
g5
tp350
a(S'Week'
p351
S'Week'
p352
S'NNP'
p353
S'B-NP'
p354
g5
tp355
a(S'144'
p356
S'144'
p357
S'CD'
p358
S'I-NP'
p359
g5
tp360
a(g169
g169
g169
g5
g5
tp361
a(S'virologic'
p362
S'virologic'
p363
S'JJ'
p364
S'B-NP'
p365
g5
tp366
a(S'suppression'
p367
S'suppression'
p368
S'NN'
p369
S'I-NP'
p370
g5
tp371
a(S'was'
p372
S'be'
p373
S'VBD'
p374
S'B-VP'
p375
g5
tp376
a(S'achieved'
p377
S'achieve'
p378
S'VBN'
p379
S'I-VP'
p380
g5
tp381
a(S'in'
p382
S'in'
p383
S'IN'
p384
S'B-PP'
p385
g5
tp386
a(S'72'
p387
S'72'
p388
S'CD'
p389
S'B-NP'
p390
g5
tp391
a(S'%'
p392
g392
S'NN'
p393
S'I-NP'
p394
g5
tp395
a(g116
g116
g116
g5
g5
tp396
a(S'COBI'
p397
S'COBI'
p398
S'NN'
p399
S'B-NP'
p400
g5
tp401
a(g123
g123
g123
g5
g5
tp402
a(S'and'
p403
S'and'
p404
S'CC'
p405
g5
g5
tp406
a(S'74'
p407
S'74'
p408
S'CD'
p409
S'B-NP'
p410
g5
tp411
a(g392
g392
S'NN'
p412
S'I-NP'
p413
g5
tp414
a(g116
g116
g116
g5
g5
tp415
a(S'RTV'
p416
S'RTV'
p417
S'NN'
p418
S'B-NP'
p419
g5
tp420
a(g123
g123
g123
g5
g5
tp421
a(S'of'
p422
S'of'
p423
S'IN'
p424
S'B-PP'
p425
g5
tp426
a(S'patients.'
p427
S'patients.'
p428
S'NN'
p429
S'B-NP'
p430
g5
tp431
a(S'Adverse'
p432
S'Adverse'
p433
S'JJ'
p434
S'I-NP'
p435
g5
tp436
a(S'events'
p437
S'event'
p438
S'NNS'
p439
S'I-NP'
p440
g5
tp441
a(S'leading'
p442
S'lead'
p443
S'VBG'
p444
S'B-VP'
p445
g5
tp446
a(S'to'
p447
S'to'
p448
S'TO'
p449
S'I-VP'
p450
g5
tp451
a(S'study'
p452
S'study'
p453
S'VB'
p454
S'I-VP'
p455
g5
tp456
a(S'drug'
p457
S'drug'
p458
S'NN'
p459
S'B-NP'
p460
g5
tp461
a(S'discontinuation'
p462
S'discontinuation'
p463
S'NN'
p464
S'I-NP'
p465
g5
tp466
a(S'occurred'
p467
S'occur'
p468
S'VBD'
p469
S'B-VP'
p470
g5
tp471
a(S'in'
p472
S'in'
p473
S'IN'
p474
S'B-PP'
p475
g5
tp476
a(S'11'
p477
S'11'
p478
S'CD'
p479
S'B-NP'
p480
g5
tp481
a(g392
g392
S'NN'
p482
S'I-NP'
p483
g5
tp484
a(S'of'
p485
S'of'
p486
S'IN'
p487
S'B-PP'
p488
g5
tp489
a(S'patients'
p490
S'patient'
p491
S'NNS'
p492
S'B-NP'
p493
g5
tp494
a(S'in'
p495
S'in'
p496
S'IN'
p497
S'B-PP'
p498
g5
tp499
a(S'each'
p500
S'each'
p501
S'DT'
p502
S'B-NP'
p503
g5
tp504
a(S'group.'
p505
S'group.'
p506
S'NN'
p507
S'I-NP'
p508
g5
tp509
a(S'Median'
p510
S'Median'
p511
S'NN'
p512
S'I-NP'
p513
g5
tp514
a(S'changes'
p515
S'change'
p516
S'NNS'
p517
S'I-NP'
p518
g5
tp519
a(S'in'
p520
S'in'
p521
S'IN'
p522
S'B-PP'
p523
g5
tp524
a(S'serum'
p525
S'serum'
p526
S'NN'
p527
S'B-NP'
p528
g5
tp529
a(S'creatinine'
p530
S'creatinine'
p531
S'NN'
p532
S'I-NP'
p533
g5
tp534
a(g116
g116
g116
g5
g5
tp535
a(S'mg/dL'
p536
S'mg/dL'
p537
S'NN'
p538
S'B-NP'
p539
g5
tp540
a(g123
g123
g123
g5
g5
tp541
a(S'were'
p542
S'be'
p543
S'VBD'
p544
S'B-VP'
p545
g5
tp546
a(S'+0.13'
p547
S'+0.13'
p548
S'CD'
p549
S'B-NP'
p550
g5
tp551
a(g116
g116
g116
g5
g5
tp552
a(S'COBI'
p553
S'COBI'
p554
S'NN'
p555
S'B-NP'
p556
g5
tp557
a(g123
g123
g123
g5
g5
tp558
a(S'and'
p559
S'and'
p560
S'CC'
p561
g5
g5
tp562
a(S'+0.07'
p563
S'+0.07'
p564
S'CD'
p565
S'B-NP'
p566
g5
tp567
a(g116
g116
g116
g5
g5
tp568
a(S'RTV'
p569
S'RTV'
p570
S'NN'
p571
S'B-NP'
p572
g5
tp573
a(g123
g123
g123
g5
g5
tp574
a(S'and'
p575
S'and'
p576
S'CC'
p577
g5
g5
tp578
a(S'were'
p579
S'be'
p580
S'VBD'
p581
S'B-VP'
p582
g5
tp583
a(S'unchanged'
p584
S'unchanged'
p585
S'JJ'
p586
S'B-ADJP'
p587
g5
tp588
a(S'from'
p589
S'from'
p590
S'IN'
p591
S'B-PP'
p592
g5
tp593
a(S'week'
p594
S'week'
p595
S'NN'
p596
S'B-NP'
p597
g5
tp598
a(S'48'
p599
S'48'
p600
S'CD'
p601
S'I-NP'
p602
g5
tp603
a(g104
g104
g104
g5
g5
tp604
a(S'CONCLUSIONS'
p605
S'CONCLUSIONS'
p606
S'NNS'
p607
S'B-NP'
p608
g5
tp609
a(S'Once-daily'
p610
S'Once-daily'
p611
S'RB'
p612
S'B-ADVP'
p613
g5
tp614
a(S'COBI'
p615
S'COBI'
p616
S'NNP'
p617
S'B-NP'
p618
g5
tp619
a(S'is'
p620
S'be'
p621
S'VBZ'
p622
S'B-VP'
p623
g5
tp624
a(g39
g39
S'DT'
p625
S'B-NP'
p626
g5
tp627
a(S'safe'
p628
S'safe'
p629
S'JJ'
p630
S'I-NP'
p631
g5
tp632
a(S'and'
p633
S'and'
p634
S'CC'
p635
S'I-NP'
p636
g5
tp637
a(S'effective'
p638
S'effective'
p639
S'JJ'
p640
S'I-NP'
p641
g5
tp642
a(S'pharmacoenhancer'
p643
S'pharmacoenhancer'
p644
S'NN'
p645
S'I-NP'
p646
g5
tp647
a(S'of'
p648
S'of'
p649
S'IN'
p650
S'B-PP'
p651
g5
tp652
a(S'the'
p653
S'the'
p654
S'DT'
p655
S'B-NP'
p656
g5
tp657
a(S'protease'
p658
S'protease'
p659
S'NN'
p660
S'I-NP'
p661
g5
tp662
a(S'inhibitor'
p663
S'inhibitor'
p664
S'NN'
p665
S'I-NP'
p666
g5
tp667
a(S'atazanavir'
p668
S'atazanavir'
p669
S'NN'
p670
S'I-NP'
p671
g5
tp672
a(g104
g104
g104
g5
g5
tp673
a.