(lp0
(S'Comparison'
p1
S'Comparison'
p2
S'NN'
p3
S'B-NP'
p4
S'O'
p5
tp6
a(S'of'
p7
S'of'
p8
S'IN'
p9
S'B-PP'
p10
g5
tp11
a(S'coronary'
p12
S'coronary'
p13
S'JJ'
p14
S'B-NP'
p15
g5
tp16
a(S'bypass'
p17
S'bypass'
p18
S'NN'
p19
S'I-NP'
p20
g5
tp21
a(S'surgery'
p22
S'surgery'
p23
S'NN'
p24
S'I-NP'
p25
g5
tp26
a(S'with'
p27
S'with'
p28
S'IN'
p29
S'B-PP'
p30
g5
tp31
a(S'angioplasty'
p32
S'angioplasty'
p33
S'NN'
p34
S'B-NP'
p35
g5
tp36
a(S'in'
p37
S'in'
p38
S'IN'
p39
S'B-PP'
p40
g5
tp41
a(S'patients'
p42
S'patient'
p43
S'NNS'
p44
S'B-NP'
p45
g5
tp46
a(S'with'
p47
S'with'
p48
S'IN'
p49
S'B-PP'
p50
g5
tp51
a(S'multivessel'
p52
S'multivessel'
p53
S'JJ'
p54
S'B-NP'
p55
g5
tp56
a(S'disease.'
p57
S'disease.'
p58
S'NN'
p59
S'I-NP'
p60
g5
tp61
a(S'The'
p62
S'The'
p63
S'DT'
p64
S'B-NP'
p65
g5
tp66
a(S'Bypass'
p67
S'Bypass'
p68
S'NNP'
p69
S'I-NP'
p70
g5
tp71
a(S'Angioplasty'
p72
S'Angioplasty'
p73
S'NNP'
p74
S'I-NP'
p75
g5
tp76
a(S'Revascularization'
p77
S'Revascularization'
p78
S'NNP'
p79
S'I-NP'
p80
g5
tp81
a(S'Investigation'
p82
S'Investigation'
p83
S'NNP'
p84
S'I-NP'
p85
g5
tp86
a(S'('
p87
g87
g87
g5
g5
tp88
a(S'BARI'
p89
S'BARI'
p90
S'NN'
p91
S'B-NP'
p92
g5
tp93
a(S')'
p94
g94
g94
g5
g5
tp95
a(S'Investigators'
p96
S'Investigator'
p97
S'NNS'
p98
S'B-NP'
p99
g5
tp100
a(S'.'
p101
g101
g101
g5
g5
tp102
a(S'BACKGROUND'
p103
S'BACKGROUND'
p104
S'NN'
p105
S'B-NP'
p106
g5
tp107
a(S'Coronary-artery'
p108
S'Coronary-artery'
p109
S'NN'
p110
S'I-NP'
p111
g5
tp112
a(S'bypass'
p113
S'bypass'
p114
S'NN'
p115
S'I-NP'
p116
g5
tp117
a(S'grafting'
p118
S'grafting'
p119
S'NN'
p120
S'I-NP'
p121
g5
tp122
a(g87
g87
g87
g5
g5
tp123
a(S'CABG'
p124
S'CABG'
p125
S'NN'
p126
S'B-NP'
p127
S'B-protein'
p128
tp129
a(g94
g94
g94
g5
g5
tp130
a(S'and'
p131
S'and'
p132
S'CC'
p133
g5
g5
tp134
a(S'percutaneous'
p135
S'percutaneous'
p136
S'JJ'
p137
S'B-NP'
p138
g5
tp139
a(S'transluminal'
p140
S'transluminal'
p141
S'JJ'
p142
S'I-NP'
p143
g5
tp144
a(S'coronary'
p145
S'coronary'
p146
S'JJ'
p147
S'I-NP'
p148
g5
tp149
a(S'angioplasty'
p150
S'angioplasty'
p151
S'NN'
p152
S'I-NP'
p153
g5
tp154
a(g87
g87
g87
g5
g5
tp155
a(S'PTCA'
p156
S'PTCA'
p157
S'NN'
p158
S'B-NP'
p159
S'B-protein'
p160
tp161
a(g94
g94
g94
g5
g5
tp162
a(S'are'
p163
S'be'
p164
S'VBP'
p165
S'B-VP'
p166
g5
tp167
a(S'alternative'
p168
S'alternative'
p169
S'JJ'
p170
S'B-NP'
p171
g5
tp172
a(S'methods'
p173
S'method'
p174
S'NNS'
p175
S'I-NP'
p176
g5
tp177
a(S'of'
p178
S'of'
p179
S'IN'
p180
S'B-PP'
p181
g5
tp182
a(S'revascularization'
p183
S'revascularization'
p184
S'NN'
p185
S'B-NP'
p186
g5
tp187
a(S'in'
p188
S'in'
p189
S'IN'
p190
S'B-PP'
p191
g5
tp192
a(S'patients'
p193
S'patient'
p194
S'NNS'
p195
S'B-NP'
p196
g5
tp197
a(S'with'
p198
S'with'
p199
S'IN'
p200
S'B-PP'
p201
g5
tp202
a(S'coronary'
p203
S'coronary'
p204
S'JJ'
p205
S'B-NP'
p206
g5
tp207
a(S'artery'
p208
S'artery'
p209
S'NN'
p210
S'I-NP'
p211
g5
tp212
a(S'disease.'
p213
S'disease.'
p214
S'NN'
p215
S'I-NP'
p216
g5
tp217
a(S'We'
p218
S'We'
p219
S'PRP'
p220
S'B-NP'
p221
g5
tp222
a(S'tested'
p223
S'test'
p224
S'VBD'
p225
S'B-VP'
p226
g5
tp227
a(S'the'
p228
S'the'
p229
S'DT'
p230
S'B-NP'
p231
g5
tp232
a(S'hypothesis'
p233
S'hypothesis'
p234
S'NN'
p235
S'I-NP'
p236
g5
tp237
a(S'that'
p238
S'that'
p239
S'IN'
p240
S'B-SBAR'
p241
g5
tp242
a(S'in'
p243
S'in'
p244
S'IN'
p245
S'B-PP'
p246
g5
tp247
a(S'selected'
p248
S'select'
p249
S'VBN'
p250
S'B-NP'
p251
g5
tp252
a(S'patients'
p253
S'patient'
p254
S'NNS'
p255
S'I-NP'
p256
g5
tp257
a(S'with'
p258
S'with'
p259
S'IN'
p260
S'B-PP'
p261
g5
tp262
a(S'multivessel'
p263
S'multivessel'
p264
S'JJ'
p265
S'B-NP'
p266
g5
tp267
a(S'disease'
p268
S'disease'
p269
S'NN'
p270
S'I-NP'
p271
g5
tp272
a(S'suitable'
p273
S'suitable'
p274
S'JJ'
p275
S'B-ADJP'
p276
g5
tp277
a(S'for'
p278
S'for'
p279
S'IN'
p280
S'B-PP'
p281
g5
tp282
a(S'treatment'
p283
S'treatment'
p284
S'NN'
p285
S'B-NP'
p286
g5
tp287
a(S'with'
p288
S'with'
p289
S'IN'
p290
S'B-PP'
p291
g5
tp292
a(S'either'
p293
S'either'
p294
S'CC'
p295
g5
g5
tp296
a(S'procedure'
p297
S'procedure'
p298
S'NN'
p299
S'B-NP'
p300
g5
tp301
a(S','
p302
g302
g302
g5
g5
tp303
a(S'an'
p304
S'an'
p305
S'DT'
p306
S'B-NP'
p307
g5
tp308
a(S'initial'
p309
S'initial'
p310
S'JJ'
p311
S'I-NP'
p312
g5
tp313
a(S'strategy'
p314
S'strategy'
p315
S'NN'
p316
S'I-NP'
p317
g5
tp318
a(S'of'
p319
S'of'
p320
S'IN'
p321
S'B-PP'
p322
g5
tp323
a(S'PTCA'
p324
S'PTCA'
p325
S'NN'
p326
S'B-NP'
p327
S'B-protein'
p328
tp329
a(S'does'
p330
S'do'
p331
S'VBZ'
p332
S'B-VP'
p333
g5
tp334
a(S'not'
p335
S'not'
p336
S'RB'
p337
S'I-VP'
p338
g5
tp339
a(S'result'
p340
S'result'
p341
S'VB'
p342
S'I-VP'
p343
g5
tp344
a(S'in'
p345
S'in'
p346
S'IN'
p347
S'B-PP'
p348
g5
tp349
a(S'a'
p350
g350
S'DT'
p351
S'B-NP'
p352
g5
tp353
a(S'poorer'
p354
S'poor'
p355
S'JJR'
p356
S'I-NP'
p357
g5
tp358
a(S'five-year'
p359
S'five-year'
p360
S'JJ'
p361
S'I-NP'
p362
g5
tp363
a(S'clinical'
p364
S'clinical'
p365
S'JJ'
p366
S'I-NP'
p367
g5
tp368
a(S'outcome'
p369
S'outcome'
p370
S'NN'
p371
S'I-NP'
p372
g5
tp373
a(S'than'
p374
S'than'
p375
S'IN'
p376
S'B-PP'
p377
g5
tp378
a(S'CABG'
p379
S'CABG'
p380
S'NN'
p381
S'B-NP'
p382
S'B-protein'
p383
tp384
a(g101
g101
g101
g5
g5
tp385
a(S'METHODS'
p386
S'METHODS'
p387
S'NNS'
p388
S'B-NP'
p389
g5
tp390
a(S'Patients'
p391
S'Patient'
p392
S'NNS'
p393
S'I-NP'
p394
g5
tp395
a(S'with'
p396
S'with'
p397
S'IN'
p398
S'B-PP'
p399
g5
tp400
a(S'multivessel'
p401
S'multivessel'
p402
S'JJ'
p403
S'B-NP'
p404
g5
tp405
a(S'disease'
p406
S'disease'
p407
S'NN'
p408
S'I-NP'
p409
g5
tp410
a(S'were'
p411
S'be'
p412
S'VBD'
p413
S'B-VP'
p414
g5
tp415
a(S'randomly'
p416
S'randomly'
p417
S'RB'
p418
S'I-VP'
p419
g5
tp420
a(S'assigned'
p421
S'assign'
p422
S'VBN'
p423
S'I-VP'
p424
g5
tp425
a(S'to'
p426
S'to'
p427
S'TO'
p428
S'B-PP'
p429
g5
tp430
a(S'an'
p431
S'an'
p432
S'DT'
p433
S'B-NP'
p434
g5
tp435
a(S'initial'
p436
S'initial'
p437
S'JJ'
p438
S'I-NP'
p439
g5
tp440
a(S'treatment'
p441
S'treatment'
p442
S'NN'
p443
S'I-NP'
p444
g5
tp445
a(S'strategy'
p446
S'strategy'
p447
S'NN'
p448
S'I-NP'
p449
g5
tp450
a(S'of'
p451
S'of'
p452
S'IN'
p453
S'B-PP'
p454
g5
tp455
a(S'CABG'
p456
S'CABG'
p457
S'NN'
p458
S'B-NP'
p459
S'B-protein'
p460
tp461
a(g87
g87
g87
g5
g5
tp462
a(S'n'
p463
g463
S'NN'
p464
S'B-NP'
p465
g5
tp466
a(S'='
p467
g467
S'SYM'
p468
S'B-VP'
p469
g5
tp470
a(S'914'
p471
S'914'
p472
S'CD'
p473
S'B-NP'
p474
g5
tp475
a(g94
g94
g94
g5
g5
tp476
a(S'or'
p477
S'or'
p478
S'CC'
p479
g5
g5
tp480
a(S'PTCA'
p481
S'PTCA'
p482
S'NN'
p483
S'B-NP'
p484
g5
tp485
a(g87
g87
g87
g5
g5
tp486
a(g463
g463
S'NN'
p487
S'B-NP'
p488
g5
tp489
a(g467
g467
S'SYM'
p490
S'B-VP'
p491
g5
tp492
a(S'915'
p493
S'915'
p494
S'CD'
p495
S'B-NP'
p496
g5
tp497
a(g94
g94
g94
g5
g5
tp498
a(S'and'
p499
S'and'
p500
S'CC'
p501
g5
g5
tp502
a(S'were'
p503
S'be'
p504
S'VBD'
p505
S'B-VP'
p506
g5
tp507
a(S'followed'
p508
S'follow'
p509
S'VBN'
p510
S'I-VP'
p511
g5
tp512
a(S'for'
p513
S'for'
p514
S'IN'
p515
S'B-PP'
p516
g5
tp517
a(S'an'
p518
S'an'
p519
S'DT'
p520
S'B-NP'
p521
g5
tp522
a(S'average'
p523
S'average'
p524
S'NN'
p525
S'I-NP'
p526
g5
tp527
a(S'of'
p528
S'of'
p529
S'IN'
p530
S'B-PP'
p531
g5
tp532
a(S'5.4'
p533
S'5.4'
p534
S'CD'
p535
S'B-NP'
p536
g5
tp537
a(S'years.'
p538
S'years.'
p539
S'NN'
p540
S'I-NP'
p541
g5
tp542
a(S'Analysis'
p543
S'Analysis'
p544
S'NN'
p545
S'I-NP'
p546
g5
tp547
a(S'of'
p548
S'of'
p549
S'IN'
p550
S'B-PP'
p551
g5
tp552
a(S'outcome'
p553
S'outcome'
p554
S'NN'
p555
S'B-NP'
p556
g5
tp557
a(S'events'
p558
S'event'
p559
S'NNS'
p560
S'I-NP'
p561
g5
tp562
a(S'was'
p563
S'be'
p564
S'VBD'
p565
S'B-VP'
p566
g5
tp567
a(S'performed'
p568
S'perform'
p569
S'VBN'
p570
S'I-VP'
p571
g5
tp572
a(S'according'
p573
S'accord'
p574
S'VBG'
p575
S'B-PP'
p576
g5
tp577
a(S'to'
p578
S'to'
p579
S'TO'
p580
S'B-PP'
p581
g5
tp582
a(S'the'
p583
S'the'
p584
S'DT'
p585
S'B-NP'
p586
g5
tp587
a(S'intention'
p588
S'intention'
p589
S'NN'
p590
S'I-NP'
p591
g5
tp592
a(S'to'
p593
S'to'
p594
S'TO'
p595
S'B-VP'
p596
g5
tp597
a(S'treat'
p598
S'treat'
p599
S'VB'
p600
S'I-VP'
p601
g5
tp602
a(g101
g101
g101
g5
g5
tp603
a(S'RESULTS'
p604
S'RESULTS'
p605
S'NNS'
p606
S'B-NP'
p607
g5
tp608
a(S'The'
p609
S'The'
p610
S'DT'
p611
S'B-NP'
p612
g5
tp613
a(S'respective'
p614
S'respective'
p615
S'JJ'
p616
S'I-NP'
p617
g5
tp618
a(S'in-hospital'
p619
S'in-hospital'
p620
S'JJ'
p621
S'I-NP'
p622
g5
tp623
a(S'event'
p624
S'event'
p625
S'NN'
p626
S'I-NP'
p627
g5
tp628
a(S'rates'
p629
S'rate'
p630
S'NNS'
p631
S'I-NP'
p632
g5
tp633
a(S'for'
p634
S'for'
p635
S'IN'
p636
S'B-PP'
p637
g5
tp638
a(S'CABG'
p639
S'CABG'
p640
S'NN'
p641
S'B-NP'
p642
S'B-protein'
p643
tp644
a(S'and'
p645
S'and'
p646
S'CC'
p647
S'I-NP'
p648
g5
tp649
a(S'PTCA'
p650
S'PTCA'
p651
S'NN'
p652
S'I-NP'
p653
S'B-protein'
p654
tp655
a(S'were'
p656
S'be'
p657
S'VBD'
p658
S'B-VP'
p659
g5
tp660
a(S'1.3'
p661
S'1.3'
p662
S'CD'
p663
S'B-NP'
p664
g5
tp665
a(S'percent'
p666
S'percent'
p667
S'NN'
p668
S'I-NP'
p669
g5
tp670
a(S'and'
p671
S'and'
p672
S'CC'
p673
g5
g5
tp674
a(S'1.1'
p675
S'1.1'
p676
S'CD'
p677
S'B-NP'
p678
g5
tp679
a(S'percent'
p680
S'percent'
p681
S'NN'
p682
S'I-NP'
p683
g5
tp684
a(S'for'
p685
S'for'
p686
S'IN'
p687
S'B-PP'
p688
g5
tp689
a(S'mortality'
p690
S'mortality'
p691
S'NN'
p692
S'B-NP'
p693
g5
tp694
a(g302
g302
g302
g5
g5
tp695
a(S'4.6'
p696
S'4.6'
p697
S'CD'
p698
S'B-NP'
p699
g5
tp700
a(S'percent'
p701
S'percent'
p702
S'NN'
p703
S'I-NP'
p704
g5
tp705
a(S'and'
p706
S'and'
p707
S'CC'
p708
g5
g5
tp709
a(S'2.1'
p710
S'2.1'
p711
S'CD'
p712
S'B-NP'
p713
g5
tp714
a(S'percent'
p715
S'percent'
p716
S'NN'
p717
S'I-NP'
p718
g5
tp719
a(S'for'
p720
S'for'
p721
S'IN'
p722
S'B-PP'
p723
g5
tp724
a(S'Q-wave'
p725
S'Q-wave'
p726
S'JJ'
p727
S'B-NP'
p728
g5
tp729
a(S'myocardial'
p730
S'myocardial'
p731
S'JJ'
p732
S'I-NP'
p733
g5
tp734
a(S'infarction'
p735
S'infarction'
p736
S'NN'
p737
S'I-NP'
p738
g5
tp739
a(g87
g87
g87
g5
g5
tp740
a(S'P'
p741
g741
S'NN'
p742
S'B-NP'
p743
g5
tp744
a(S'<'
p745
g745
S'SYM'
p746
g5
g5
tp747
a(S'0.01'
p748
S'0.01'
p749
S'CD'
p750
S'B-NP'
p751
g5
tp752
a(g94
g94
g94
g5
g5
tp753
a(g302
g302
g302
g5
g5
tp754
a(S'and'
p755
S'and'
p756
S'CC'
p757
g5
g5
tp758
a(S'0.8'
p759
S'0.8'
p760
S'CD'
p761
S'B-NP'
p762
g5
tp763
a(S'percent'
p764
S'percent'
p765
S'NN'
p766
S'I-NP'
p767
g5
tp768
a(S'and'
p769
S'and'
p770
S'CC'
p771
g5
g5
tp772
a(S'0.2'
p773
S'0.2'
p774
S'CD'
p775
S'B-NP'
p776
g5
tp777
a(S'percent'
p778
S'percent'
p779
S'NN'
p780
S'I-NP'
p781
g5
tp782
a(S'for'
p783
S'for'
p784
S'IN'
p785
S'B-PP'
p786
g5
tp787
a(S'stroke.'
p788
S'stroke.'
p789
S'NN'
p790
S'B-NP'
p791
g5
tp792
a(S'The'
p793
S'The'
p794
S'DT'
p795
S'B-NP'
p796
g5
tp797
a(S'five-year'
p798
S'five-year'
p799
S'JJ'
p800
S'I-NP'
p801
g5
tp802
a(S'survival'
p803
S'survival'
p804
S'NN'
p805
S'I-NP'
p806
g5
tp807
a(S'rate'
p808
S'rate'
p809
S'NN'
p810
S'I-NP'
p811
g5
tp812
a(S'was'
p813
S'be'
p814
S'VBD'
p815
S'B-VP'
p816
g5
tp817
a(S'89.3'
p818
S'89.3'
p819
S'CD'
p820
S'B-NP'
p821
g5
tp822
a(S'percent'
p823
S'percent'
p824
S'NN'
p825
S'I-NP'
p826
g5
tp827
a(S'for'
p828
S'for'
p829
S'IN'
p830
S'B-PP'
p831
g5
tp832
a(S'those'
p833
S'those'
p834
S'DT'
p835
S'B-NP'
p836
g5
tp837
a(S'assigned'
p838
S'assign'
p839
S'VBN'
p840
S'B-VP'
p841
g5
tp842
a(S'to'
p843
S'to'
p844
S'TO'
p845
S'B-PP'
p846
g5
tp847
a(S'CABG'
p848
S'CABG'
p849
S'NN'
p850
S'B-NP'
p851
S'B-protein'
p852
tp853
a(S'and'
p854
S'and'
p855
S'CC'
p856
g5
g5
tp857
a(S'86.3'
p858
S'86.3'
p859
S'CD'
p860
S'B-NP'
p861
g5
tp862
a(S'percent'
p863
S'percent'
p864
S'NN'
p865
S'I-NP'
p866
g5
tp867
a(S'for'
p868
S'for'
p869
S'IN'
p870
S'B-PP'
p871
g5
tp872
a(S'those'
p873
S'those'
p874
S'DT'
p875
S'B-NP'
p876
g5
tp877
a(S'assigned'
p878
S'assign'
p879
S'VBN'
p880
S'B-VP'
p881
g5
tp882
a(S'to'
p883
S'to'
p884
S'TO'
p885
S'B-PP'
p886
g5
tp887
a(S'PTCA'
p888
S'PTCA'
p889
S'NN'
p890
S'B-NP'
p891
g5
tp892
a(g87
g87
g87
g5
g5
tp893
a(g741
g741
S'NN'
p894
S'B-NP'
p895
g5
tp896
a(g467
g467
S'SYM'
p897
S'B-VP'
p898
g5
tp899
a(S'0.19'
p900
S'0.19'
p901
S'CD'
p902
S'B-NP'
p903
g5
tp904
a(S';'
p905
g905
S':'
p906
g5
g5
tp907
a(S'95'
p908
S'95'
p909
S'CD'
p910
S'B-NP'
p911
g5
tp912
a(S'percent'
p913
S'percent'
p914
S'NN'
p915
S'I-NP'
p916
g5
tp917
a(S'confidence'
p918
S'confidence'
p919
S'NN'
p920
S'I-NP'
p921
g5
tp922
a(S'interval'
p923
S'interval'
p924
S'NN'
p925
S'I-NP'
p926
g5
tp927
a(S'of'
p928
S'of'
p929
S'IN'
p930
S'B-PP'
p931
g5
tp932
a(S'the'
p933
S'the'
p934
S'DT'
p935
S'B-NP'
p936
g5
tp937
a(S'difference'
p938
S'difference'
p939
S'NN'
p940
S'I-NP'
p941
g5
tp942
a(S'in'
p943
S'in'
p944
S'IN'
p945
S'B-PP'
p946
g5
tp947
a(S'survival'
p948
S'survival'
p949
S'NN'
p950
S'B-NP'
p951
g5
tp952
a(g302
g302
g302
g5
g5
tp953
a(S'-0.2'
p954
S'-0.2'
p955
S'CD'
p956
S'B-NP'
p957
g5
tp958
a(S'percent'
p959
S'percent'
p960
S'NN'
p961
S'I-NP'
p962
g5
tp963
a(S'to'
p964
S'to'
p965
S'TO'
p966
S'B-PP'
p967
g5
tp968
a(S'6.0'
p969
S'6.0'
p970
S'CD'
p971
S'B-NP'
p972
g5
tp973
a(S'percent'
p974
S'percent'
p975
S'NN'
p976
S'I-NP'
p977
g5
tp978
a(g94
g94
g94
g5
g5
tp979
a(g101
g101
g101
g5
g5
tp980
a(S'The'
p981
S'The'
p982
S'DT'
p983
S'B-NP'
p984
g5
tp985
a(S'respective'
p986
S'respective'
p987
S'JJ'
p988
S'I-NP'
p989
g5
tp990
a(S'five-year'
p991
S'five-year'
p992
S'JJ'
p993
S'I-NP'
p994
g5
tp995
a(S'survival'
p996
S'survival'
p997
S'NN'
p998
S'I-NP'
p999
g5
tp1000
a(S'rates'
p1001
S'rate'
p1002
S'NNS'
p1003
S'I-NP'
p1004
g5
tp1005
a(S'free'
p1006
S'free'
p1007
S'JJ'
p1008
S'B-ADJP'
p1009
g5
tp1010
a(S'from'
p1011
S'from'
p1012
S'IN'
p1013
S'B-PP'
p1014
g5
tp1015
a(S'Q-wave'
p1016
S'Q-wave'
p1017
S'JJ'
p1018
S'B-NP'
p1019
g5
tp1020
a(S'myocardial'
p1021
S'myocardial'
p1022
S'JJ'
p1023
S'I-NP'
p1024
g5
tp1025
a(S'infarction'
p1026
S'infarction'
p1027
S'NN'
p1028
S'I-NP'
p1029
g5
tp1030
a(S'were'
p1031
S'be'
p1032
S'VBD'
p1033
S'B-VP'
p1034
g5
tp1035
a(S'80.4'
p1036
S'80.4'
p1037
S'CD'
p1038
S'B-NP'
p1039
g5
tp1040
a(S'percent'
p1041
S'percent'
p1042
S'NN'
p1043
S'I-NP'
p1044
g5
tp1045
a(S'and'
p1046
S'and'
p1047
S'CC'
p1048
g5
g5
tp1049
a(S'78.7'
p1050
S'78.7'
p1051
S'CD'
p1052
S'B-NP'
p1053
g5
tp1054
a(S'percent.'
p1055
S'percent.'
p1056
S'NN'
p1057
S'I-NP'
p1058
g5
tp1059
a(S'By'
p1060
S'By'
p1061
S'IN'
p1062
S'B-PP'
p1063
g5
tp1064
a(S'five'
p1065
S'five'
p1066
S'CD'
p1067
S'B-NP'
p1068
g5
tp1069
a(S'years'
p1070
S'year'
p1071
S'NNS'
p1072
S'I-NP'
p1073
g5
tp1074
a(S'after'
p1075
S'after'
p1076
S'IN'
p1077
S'B-SBAR'
p1078
g5
tp1079
a(S'study'
p1080
S'study'
p1081
S'NN'
p1082
S'B-NP'
p1083
g5
tp1084
a(S'entry'
p1085
S'entry'
p1086
S'NN'
p1087
S'I-NP'
p1088
g5
tp1089
a(g302
g302
g302
g5
g5
tp1090
a(S'8'
p1091
g1091
S'CD'
p1092
S'B-NP'
p1093
g5
tp1094
a(S'percent'
p1095
S'percent'
p1096
S'NN'
p1097
S'I-NP'
p1098
g5
tp1099
a(S'of'
p1100
S'of'
p1101
S'IN'
p1102
S'B-PP'
p1103
g5
tp1104
a(S'the'
p1105
S'the'
p1106
S'DT'
p1107
S'B-NP'
p1108
g5
tp1109
a(S'patients'
p1110
S'patient'
p1111
S'NNS'
p1112
S'I-NP'
p1113
g5
tp1114
a(S'assigned'
p1115
S'assign'
p1116
S'VBN'
p1117
S'B-VP'
p1118
g5
tp1119
a(S'to'
p1120
S'to'
p1121
S'TO'
p1122
S'B-PP'
p1123
g5
tp1124
a(S'CABG'
p1125
S'CABG'
p1126
S'NN'
p1127
S'B-NP'
p1128
S'B-protein'
p1129
tp1130
a(S'had'
p1131
S'have'
p1132
S'VBD'
p1133
S'B-VP'
p1134
g5
tp1135
a(S'undergone'
p1136
S'undergo'
p1137
S'VBN'
p1138
S'I-VP'
p1139
g5
tp1140
a(S'additional'
p1141
S'additional'
p1142
S'JJ'
p1143
S'B-NP'
p1144
g5
tp1145
a(S'revascularization'
p1146
S'revascularization'
p1147
S'NN'
p1148
S'I-NP'
p1149
g5
tp1150
a(S'procedures'
p1151
S'procedure'
p1152
S'NNS'
p1153
S'I-NP'
p1154
g5
tp1155
a(g302
g302
g302
g5
g5
tp1156
a(S'as'
p1157
S'as'
p1158
S'IN'
p1159
S'B-SBAR'
p1160
g5
tp1161
a(S'compared'
p1162
S'compare'
p1163
S'VBN'
p1164
S'B-PP'
p1165
g5
tp1166
a(S'with'
p1167
S'with'
p1168
S'IN'
p1169
S'B-PP'
p1170
g5
tp1171
a(S'54'
p1172
S'54'
p1173
S'CD'
p1174
S'B-NP'
p1175
g5
tp1176
a(S'percent'
p1177
S'percent'
p1178
S'NN'
p1179
S'I-NP'
p1180
g5
tp1181
a(S'of'
p1182
S'of'
p1183
S'IN'
p1184
S'B-PP'
p1185
g5
tp1186
a(S'those'
p1187
S'those'
p1188
S'DT'
p1189
S'B-NP'
p1190
g5
tp1191
a(S'assigned'
p1192
S'assign'
p1193
S'VBN'
p1194
S'B-VP'
p1195
g5
tp1196
a(S'to'
p1197
S'to'
p1198
S'TO'
p1199
S'B-PP'
p1200
g5
tp1201
a(S'PTCA'
p1202
S'PTCA'
p1203
S'NN'
p1204
S'B-NP'
p1205
S'B-protein'
p1206
tp1207
a(g905
g905
g906
g5
g5
tp1208
a(S'69'
p1209
S'69'
p1210
S'CD'
p1211
S'B-NP'
p1212
g5
tp1213
a(S'percent'
p1214
S'percent'
p1215
S'NN'
p1216
S'I-NP'
p1217
g5
tp1218
a(S'of'
p1219
S'of'
p1220
S'IN'
p1221
S'B-PP'
p1222
g5
tp1223
a(S'those'
p1224
S'those'
p1225
S'DT'
p1226
S'B-NP'
p1227
g5
tp1228
a(S'assigned'
p1229
S'assign'
p1230
S'VBN'
p1231
S'B-VP'
p1232
g5
tp1233
a(S'to'
p1234
S'to'
p1235
S'TO'
p1236
S'B-PP'
p1237
g5
tp1238
a(S'PTCA'
p1239
S'PTCA'
p1240
S'NN'
p1241
S'B-NP'
p1242
S'B-protein'
p1243
tp1244
a(S'did'
p1245
S'do'
p1246
S'VBD'
p1247
S'B-VP'
p1248
g5
tp1249
a(S'not'
p1250
S'not'
p1251
S'RB'
p1252
S'I-VP'
p1253
g5
tp1254
a(S'subsequently'
p1255
S'subsequently'
p1256
S'RB'
p1257
S'I-VP'
p1258
g5
tp1259
a(S'undergo'
p1260
S'undergo'
p1261
S'VBP'
p1262
S'I-VP'
p1263
g5
tp1264
a(S'CABG.'
p1265
S'CABG.'
p1266
S'NNP'
p1267
S'B-NP'
p1268
g5
tp1269
a(S'Among'
p1270
S'Among'
p1271
S'IN'
p1272
S'B-PP'
p1273
g5
tp1274
a(S'diabetic'
p1275
S'diabetic'
p1276
S'JJ'
p1277
S'B-NP'
p1278
g5
tp1279
a(S'patients'
p1280
S'patient'
p1281
S'NNS'
p1282
S'I-NP'
p1283
g5
tp1284
a(S'who'
p1285
S'who'
p1286
S'WP'
p1287
S'B-NP'
p1288
g5
tp1289
a(S'were'
p1290
S'be'
p1291
S'VBD'
p1292
S'B-VP'
p1293
g5
tp1294
a(S'being'
p1295
S'be'
p1296
S'VBG'
p1297
S'I-VP'
p1298
g5
tp1299
a(S'treated'
p1300
S'treat'
p1301
S'VBN'
p1302
S'I-VP'
p1303
g5
tp1304
a(S'with'
p1305
S'with'
p1306
S'IN'
p1307
S'B-PP'
p1308
g5
tp1309
a(S'insulin'
p1310
S'insulin'
p1311
S'NN'
p1312
S'B-NP'
p1313
S'B-protein'
p1314
tp1315
a(S'or'
p1316
S'or'
p1317
S'CC'
p1318
g5
g5
tp1319
a(S'oral'
p1320
S'oral'
p1321
S'JJ'
p1322
S'B-NP'
p1323
g5
tp1324
a(S'hypoglycemic'
p1325
S'hypoglycemic'
p1326
S'JJ'
p1327
S'I-NP'
p1328
g5
tp1329
a(S'agents'
p1330
S'agent'
p1331
S'NNS'
p1332
S'I-NP'
p1333
g5
tp1334
a(S'at'
p1335
S'at'
p1336
S'IN'
p1337
S'B-PP'
p1338
g5
tp1339
a(S'base'
p1340
S'base'
p1341
S'NN'
p1342
S'B-NP'
p1343
g5
tp1344
a(S'line'
p1345
S'line'
p1346
S'NN'
p1347
S'I-NP'
p1348
g5
tp1349
a(g302
g302
g302
g5
g5
tp1350
a(g350
g350
S'DT'
p1351
S'B-NP'
p1352
g5
tp1353
a(S'subgroup'
p1354
S'subgroup'
p1355
S'NN'
p1356
S'I-NP'
p1357
g5
tp1358
a(S'not'
p1359
S'not'
p1360
S'RB'
p1361
S'B-VP'
p1362
g5
tp1363
a(S'specified'
p1364
S'specify'
p1365
S'VBN'
p1366
S'I-VP'
p1367
g5
tp1368
a(S'by'
p1369
S'by'
p1370
S'IN'
p1371
S'B-PP'
p1372
g5
tp1373
a(S'the'
p1374
S'the'
p1375
S'DT'
p1376
S'B-NP'
p1377
g5
tp1378
a(S'protocol'
p1379
S'protocol'
p1380
S'NN'
p1381
S'I-NP'
p1382
g5
tp1383
a(g302
g302
g302
g5
g5
tp1384
a(S'five-year'
p1385
S'five-year'
p1386
S'JJ'
p1387
S'B-NP'
p1388
g5
tp1389
a(S'survival'
p1390
S'survival'
p1391
S'NN'
p1392
S'I-NP'
p1393
g5
tp1394
a(S'was'
p1395
S'be'
p1396
S'VBD'
p1397
S'B-VP'
p1398
g5
tp1399
a(S'80.6'
p1400
S'80.6'
p1401
S'CD'
p1402
S'B-NP'
p1403
g5
tp1404
a(S'percent'
p1405
S'percent'
p1406
S'NN'
p1407
S'I-NP'
p1408
g5
tp1409
a(S'for'
p1410
S'for'
p1411
S'IN'
p1412
S'B-PP'
p1413
g5
tp1414
a(S'the'
p1415
S'the'
p1416
S'DT'
p1417
S'B-NP'
p1418
g5
tp1419
a(S'CABG'
p1420
S'CABG'
p1421
S'NN'
p1422
S'I-NP'
p1423
g5
tp1424
a(S'group'
p1425
S'group'
p1426
S'NN'
p1427
S'I-NP'
p1428
g5
tp1429
a(S'as'
p1430
S'as'
p1431
S'IN'
p1432
S'B-PP'
p1433
g5
tp1434
a(S'compared'
p1435
S'compare'
p1436
S'VBN'
p1437
S'B-PP'
p1438
g5
tp1439
a(S'with'
p1440
S'with'
p1441
S'IN'
p1442
S'B-PP'
p1443
g5
tp1444
a(S'65.5'
p1445
S'65.5'
p1446
S'CD'
p1447
S'B-NP'
p1448
g5
tp1449
a(S'percent'
p1450
S'percent'
p1451
S'NN'
p1452
S'I-NP'
p1453
g5
tp1454
a(S'for'
p1455
S'for'
p1456
S'IN'
p1457
S'B-PP'
p1458
g5
tp1459
a(S'the'
p1460
S'the'
p1461
S'DT'
p1462
S'B-NP'
p1463
g5
tp1464
a(S'PTCA'
p1465
S'PTCA'
p1466
S'NN'
p1467
S'I-NP'
p1468
g5
tp1469
a(S'group'
p1470
S'group'
p1471
S'NN'
p1472
S'I-NP'
p1473
g5
tp1474
a(g87
g87
g87
g5
g5
tp1475
a(g741
g741
S'NN'
p1476
S'B-NP'
p1477
g5
tp1478
a(g467
g467
S'SYM'
p1479
S'B-VP'
p1480
g5
tp1481
a(S'0.003'
p1482
S'0.003'
p1483
S'CD'
p1484
S'B-NP'
p1485
g5
tp1486
a(g94
g94
g94
g5
g5
tp1487
a(g101
g101
g101
g5
g5
tp1488
a(S'CONCLUSIONS'
p1489
S'CONCLUSIONS'
p1490
S'NNS'
p1491
S'B-NP'
p1492
g5
tp1493
a(S'As'
p1494
S'As'
p1495
S'IN'
p1496
S'B-PP'
p1497
g5
tp1498
a(S'compared'
p1499
S'compare'
p1500
S'VBN'
p1501
S'B-PP'
p1502
g5
tp1503
a(S'with'
p1504
S'with'
p1505
S'IN'
p1506
S'B-PP'
p1507
g5
tp1508
a(S'CABG'
p1509
S'CABG'
p1510
S'NN'
p1511
S'B-NP'
p1512
S'B-protein'
p1513
tp1514
a(g302
g302
g302
g5
g5
tp1515
a(S'an'
p1516
S'an'
p1517
S'DT'
p1518
S'B-NP'
p1519
g5
tp1520
a(S'initial'
p1521
S'initial'
p1522
S'JJ'
p1523
S'I-NP'
p1524
g5
tp1525
a(S'strategy'
p1526
S'strategy'
p1527
S'NN'
p1528
S'I-NP'
p1529
g5
tp1530
a(S'of'
p1531
S'of'
p1532
S'IN'
p1533
S'B-PP'
p1534
g5
tp1535
a(S'PTCA'
p1536
S'PTCA'
p1537
S'NN'
p1538
S'B-NP'
p1539
S'B-protein'
p1540
tp1541
a(S'did'
p1542
S'do'
p1543
S'VBD'
p1544
S'B-VP'
p1545
g5
tp1546
a(S'not'
p1547
S'not'
p1548
S'RB'
p1549
S'I-VP'
p1550
g5
tp1551
a(S'significantly'
p1552
S'significantly'
p1553
S'RB'
p1554
S'I-VP'
p1555
g5
tp1556
a(S'compromise'
p1557
S'compromise'
p1558
S'VB'
p1559
S'I-VP'
p1560
g5
tp1561
a(S'five-year'
p1562
S'five-year'
p1563
S'JJ'
p1564
S'B-NP'
p1565
g5
tp1566
a(S'survival'
p1567
S'survival'
p1568
S'NN'
p1569
S'I-NP'
p1570
g5
tp1571
a(S'in'
p1572
S'in'
p1573
S'IN'
p1574
S'B-PP'
p1575
g5
tp1576
a(S'patients'
p1577
S'patient'
p1578
S'NNS'
p1579
S'B-NP'
p1580
g5
tp1581
a(S'with'
p1582
S'with'
p1583
S'IN'
p1584
S'B-PP'
p1585
g5
tp1586
a(S'multivessel'
p1587
S'multivessel'
p1588
S'JJ'
p1589
S'B-NP'
p1590
g5
tp1591
a(S'disease'
p1592
S'disease'
p1593
S'NN'
p1594
S'I-NP'
p1595
g5
tp1596
a(g302
g302
g302
g5
g5
tp1597
a(S'although'
p1598
S'although'
p1599
S'IN'
p1600
S'B-SBAR'
p1601
g5
tp1602
a(S'subsequent'
p1603
S'subsequent'
p1604
S'JJ'
p1605
S'B-NP'
p1606
g5
tp1607
a(S'revascularization'
p1608
S'revascularization'
p1609
S'NN'
p1610
S'I-NP'
p1611
g5
tp1612
a(S'was'
p1613
S'be'
p1614
S'VBD'
p1615
S'B-VP'
p1616
g5
tp1617
a(S'required'
p1618
S'require'
p1619
S'VBN'
p1620
S'I-VP'
p1621
g5
tp1622
a(S'more'
p1623
S'more'
p1624
S'RBR'
p1625
S'B-ADVP'
p1626
g5
tp1627
a(S'often'
p1628
S'often'
p1629
S'RB'
p1630
S'I-ADVP'
p1631
g5
tp1632
a(S'with'
p1633
S'with'
p1634
S'IN'
p1635
S'B-PP'
p1636
g5
tp1637
a(S'this'
p1638
S'this'
p1639
S'DT'
p1640
S'B-NP'
p1641
g5
tp1642
a(S'strategy.'
p1643
S'strategy.'
p1644
S'NN'
p1645
S'I-NP'
p1646
g5
tp1647
a(S'For'
p1648
S'For'
p1649
S'IN'
p1650
S'B-PP'
p1651
g5
tp1652
a(S'treated'
p1653
S'treat'
p1654
S'VBN'
p1655
S'B-NP'
p1656
g5
tp1657
a(S'diabetics'
p1658
S'diabetic'
p1659
S'NNS'
p1660
S'I-NP'
p1661
g5
tp1662
a(g302
g302
g302
g5
g5
tp1663
a(S'five-year'
p1664
S'five-year'
p1665
S'JJ'
p1666
S'B-NP'
p1667
g5
tp1668
a(S'survival'
p1669
S'survival'
p1670
S'NN'
p1671
S'I-NP'
p1672
g5
tp1673
a(S'was'
p1674
S'be'
p1675
S'VBD'
p1676
S'B-VP'
p1677
g5
tp1678
a(S'significantly'
p1679
S'significantly'
p1680
S'RB'
p1681
S'B-ADJP'
p1682
g5
tp1683
a(S'better'
p1684
S'good'
p1685
S'JJR'
p1686
S'I-ADJP'
p1687
g5
tp1688
a(S'after'
p1689
S'after'
p1690
S'IN'
p1691
S'B-PP'
p1692
g5
tp1693
a(S'CABG'
p1694
S'CABG'
p1695
S'NN'
p1696
S'B-NP'
p1697
S'B-protein'
p1698
tp1699
a(S'than'
p1700
S'than'
p1701
S'IN'
p1702
S'B-PP'
p1703
g5
tp1704
a(S'after'
p1705
S'after'
p1706
S'IN'
p1707
S'B-PP'
p1708
g5
tp1709
a(S'PTCA'
p1710
S'PTCA'
p1711
S'NN'
p1712
S'B-NP'
p1713
S'B-protein'
p1714
tp1715
a(g101
g101
g101
g5
g5
tp1716
a.