(lp0
(S'The'
p1
S'The'
p2
S'DT'
p3
S'B-NP'
p4
S'O'
p5
tp6
a(S'problem'
p7
S'problem'
p8
S'NN'
p9
S'I-NP'
p10
g5
tp11
a(S'of'
p12
S'of'
p13
S'IN'
p14
S'B-PP'
p15
g5
tp16
a(S'measurement'
p17
S'measurement'
p18
S'NN'
p19
S'B-NP'
p20
g5
tp21
a(S'error'
p22
S'error'
p23
S'NN'
p24
S'I-NP'
p25
g5
tp26
a(S'in'
p27
S'in'
p28
S'IN'
p29
S'B-PP'
p30
g5
tp31
a(S'multisite'
p32
S'multisite'
p33
S'JJ'
p34
S'B-NP'
p35
g5
tp36
a(S'clinical'
p37
S'clinical'
p38
S'JJ'
p39
S'I-NP'
p40
g5
tp41
a(S'trials'
p42
S'trial'
p43
S'NNS'
p44
S'I-NP'
p45
g5
tp46
a(S'.'
p47
g47
g47
g5
g5
tp48
a(S'The'
p49
S'The'
p50
S'DT'
p51
S'B-NP'
p52
g5
tp53
a(S'implementation'
p54
S'implementation'
p55
S'NN'
p56
S'I-NP'
p57
g5
tp58
a(S'of'
p59
S'of'
p60
S'IN'
p61
S'B-PP'
p62
g5
tp63
a(S'a'
p64
g64
S'DT'
p65
S'B-NP'
p66
g5
tp67
a(S'multisite'
p68
S'multisite'
p69
S'JJ'
p70
S'I-NP'
p71
g5
tp72
a(S','
p73
g73
g73
S'I-NP'
p74
g5
tp75
a(S'randomized'
p76
S'randomize'
p77
S'VBN'
p78
S'I-NP'
p79
g5
tp80
a(g73
g73
g73
S'I-NP'
p81
g5
tp82
a(S'clinical'
p83
S'clinical'
p84
S'JJ'
p85
S'I-NP'
p86
g5
tp87
a(S'psychopharmacologic'
p88
S'psychopharmacologic'
p89
S'JJ'
p90
S'I-NP'
p91
g5
tp92
a(S'trial'
p93
S'trial'
p94
S'NN'
p95
S'I-NP'
p96
g5
tp97
a(S'involves'
p98
S'involve'
p99
S'VBZ'
p100
S'B-VP'
p101
g5
tp102
a(g64
g64
S'DT'
p103
S'B-NP'
p104
g5
tp105
a(S'substantial'
p106
S'substantial'
p107
S'JJ'
p108
S'I-NP'
p109
g5
tp110
a(S'investment'
p111
S'investment'
p112
S'NN'
p113
S'I-NP'
p114
g5
tp115
a(S'of'
p116
S'of'
p117
S'IN'
p118
S'B-PP'
p119
g5
tp120
a(S'time'
p121
S'time'
p122
S'NN'
p123
S'B-NP'
p124
g5
tp125
a(S'and'
p126
S'and'
p127
S'CC'
p128
S'I-NP'
p129
g5
tp130
a(S'effort'
p131
S'effort'
p132
S'NN'
p133
S'I-NP'
p134
g5
tp135
a(S'on'
p136
S'on'
p137
S'IN'
p138
S'B-PP'
p139
g5
tp140
a(S'the'
p141
S'the'
p142
S'DT'
p143
S'B-NP'
p144
g5
tp145
a(S'part'
p146
S'part'
p147
S'NN'
p148
S'I-NP'
p149
g5
tp150
a(S'of'
p151
S'of'
p152
S'IN'
p153
S'B-PP'
p154
g5
tp155
a(S'all'
p156
S'all'
p157
S'DT'
p158
S'B-NP'
p159
g5
tp160
a(S'participants.'
p161
S'participants.'
p162
S'NN'
p163
S'I-NP'
p164
g5
tp165
a(S'Because'
p166
S'Because'
p167
S'IN'
p168
S'B-PP'
p169
g5
tp170
a(S'of'
p171
S'of'
p172
S'IN'
p173
S'I-PP'
p174
g5
tp175
a(S'their'
p176
S'their'
p177
S'PRP$'
p178
S'B-NP'
p179
g5
tp180
a(S'complexity'
p181
S'complexity'
p182
S'NN'
p183
S'I-NP'
p184
g5
tp185
a(g73
g73
g73
g5
g5
tp186
a(S'such'
p187
S'such'
p188
S'JJ'
p189
S'B-NP'
p190
g5
tp191
a(S'clinical'
p192
S'clinical'
p193
S'JJ'
p194
S'I-NP'
p195
g5
tp196
a(S'trials'
p197
S'trial'
p198
S'NNS'
p199
S'I-NP'
p200
g5
tp201
a(S'present'
p202
S'present'
p203
S'VBP'
p204
S'B-VP'
p205
g5
tp206
a(S'unique'
p207
S'unique'
p208
S'JJ'
p209
S'B-NP'
p210
g5
tp211
a(S'methodological'
p212
S'methodological'
p213
S'JJ'
p214
S'I-NP'
p215
g5
tp216
a(S'and'
p217
S'and'
p218
S'CC'
p219
S'I-NP'
p220
g5
tp221
a(S'design'
p222
S'design'
p223
S'NN'
p224
S'I-NP'
p225
g5
tp226
a(S'challenges.'
p227
S'challenges.'
p228
S'NN'
p229
S'I-NP'
p230
g5
tp231
a(S'Indeed'
p232
S'Indeed'
p233
S'RB'
p234
S'B-ADVP'
p235
g5
tp236
a(g73
g73
g73
g5
g5
tp237
a(S'it'
p238
S'it'
p239
S'PRP'
p240
S'B-NP'
p241
g5
tp242
a(S'is'
p243
S'be'
p244
S'VBZ'
p245
S'B-VP'
p246
g5
tp247
a(S'not'
p248
S'not'
p249
S'RB'
p250
g5
g5
tp251
a(S'uncommon'
p252
S'uncommon'
p253
S'JJ'
p254
S'B-ADJP'
p255
g5
tp256
a(S'for'
p257
S'for'
p258
S'IN'
p259
S'B-SBAR'
p260
g5
tp261
a(S'such'
p262
S'such'
p263
S'JJ'
p264
S'B-NP'
p265
g5
tp266
a(S'studies'
p267
S'study'
p268
S'NNS'
p269
S'I-NP'
p270
g5
tp271
a(S'to'
p272
S'to'
p273
S'TO'
p274
S'B-VP'
p275
g5
tp276
a(S'conclude'
p277
S'conclude'
p278
S'VB'
p279
S'I-VP'
p280
g5
tp281
a(S'with'
p282
S'with'
p283
S'IN'
p284
S'B-PP'
p285
g5
tp286
a(S'uninterpretable'
p287
S'uninterpretable'
p288
S'JJ'
p289
S'B-NP'
p290
g5
tp291
a(S'results'
p292
S'result'
p293
S'NNS'
p294
S'I-NP'
p295
g5
tp296
a(g73
g73
g73
g5
g5
tp297
a(S'due'
p298
S'due'
p299
S'JJ'
p300
S'B-ADJP'
p301
g5
tp302
a(S'in'
p303
S'in'
p304
S'IN'
p305
S'B-PP'
p306
g5
tp307
a(S'part'
p308
S'part'
p309
S'NN'
p310
S'B-NP'
p311
g5
tp312
a(S'to'
p313
S'to'
p314
S'TO'
p315
S'B-PP'
p316
g5
tp317
a(S'such'
p318
S'such'
p319
S'JJ'
p320
S'B-NP'
p321
g5
tp322
a(S'methodological'
p323
S'methodological'
p324
S'JJ'
p325
S'I-NP'
p326
g5
tp327
a(S'pitfalls.'
p328
S'pitfalls.'
p329
S'NN'
p330
S'I-NP'
p331
g5
tp332
a(S'It'
p333
S'It'
p334
S'PRP'
p335
S'B-NP'
p336
g5
tp337
a(S'has'
p338
S'have'
p339
S'VBZ'
p340
S'B-VP'
p341
g5
tp342
a(S'been'
p343
S'be'
p344
S'VBN'
p345
S'I-VP'
p346
g5
tp347
a(S'suggested'
p348
S'suggest'
p349
S'VBN'
p350
S'I-VP'
p351
g5
tp352
a(S'that'
p353
S'that'
p354
S'IN'
p355
S'B-SBAR'
p356
g5
tp357
a(S'clarification'
p358
S'clarification'
p359
S'NN'
p360
S'B-NP'
p361
g5
tp362
a(S'of'
p363
S'of'
p364
S'IN'
p365
S'B-PP'
p366
g5
tp367
a(S'such'
p368
S'such'
p369
S'JJ'
p370
S'B-NP'
p371
g5
tp372
a(S'methodologic'
p373
S'methodologic'
p374
S'JJ'
p375
S'I-NP'
p376
g5
tp377
a(S'dilemmas'
p378
S'dilemma'
p379
S'NNS'
p380
S'I-NP'
p381
g5
tp382
a(S'is'
p383
S'be'
p384
S'VBZ'
p385
S'B-VP'
p386
g5
tp387
a(S'one'
p388
S'one'
p389
S'CD'
p390
S'B-NP'
p391
g5
tp392
a(S'of'
p393
S'of'
p394
S'IN'
p395
S'B-PP'
p396
g5
tp397
a(S'the'
p398
S'the'
p399
S'DT'
p400
S'B-NP'
p401
g5
tp402
a(S'most'
p403
S'most'
p404
S'RBS'
p405
S'I-NP'
p406
g5
tp407
a(S'important'
p408
S'important'
p409
S'JJ'
p410
S'I-NP'
p411
g5
tp412
a(S'challenges'
p413
S'challenge'
p414
S'NNS'
p415
S'I-NP'
p416
g5
tp417
a(S'facing'
p418
S'face'
p419
S'VBG'
p420
S'B-VP'
p421
g5
tp422
a(S'the'
p423
S'the'
p424
S'DT'
p425
S'B-NP'
p426
g5
tp427
a(S'future'
p428
S'future'
p429
S'NN'
p430
S'I-NP'
p431
g5
tp432
a(S'of'
p433
S'of'
p434
S'IN'
p435
S'B-PP'
p436
g5
tp437
a(S'industry-sponsored'
p438
S'industry-sponsored'
p439
S'JJ'
p440
S'B-NP'
p441
g5
tp442
a(S'psychopharmacologic'
p443
S'psychopharmacologic'
p444
S'JJ'
p445
S'I-NP'
p446
g5
tp447
a(S'drug'
p448
S'drug'
p449
S'NN'
p450
S'I-NP'
p451
g5
tp452
a(S'development.'
p453
S'development.'
p454
S'NN'
p455
S'I-NP'
p456
g5
tp457
a(S'Among'
p458
S'Among'
p459
S'IN'
p460
S'B-PP'
p461
g5
tp462
a(S'the'
p463
S'the'
p464
S'DT'
p465
S'B-NP'
p466
g5
tp467
a(S'many'
p468
S'many'
p469
S'JJ'
p470
S'I-NP'
p471
g5
tp472
a(S'factors'
p473
S'factor'
p474
S'NNS'
p475
S'I-NP'
p476
g5
tp477
a(S'that'
p478
S'that'
p479
S'WDT'
p480
S'B-NP'
p481
g5
tp482
a(S'may'
p483
S'may'
p484
S'MD'
p485
S'B-VP'
p486
g5
tp487
a(S'contribute'
p488
S'contribute'
p489
S'VB'
p490
S'I-VP'
p491
g5
tp492
a(S'to'
p493
S'to'
p494
S'TO'
p495
S'B-PP'
p496
g5
tp497
a(S'problematic'
p498
S'problematic'
p499
S'JJ'
p500
S'B-NP'
p501
g5
tp502
a(S'clinical'
p503
S'clinical'
p504
S'JJ'
p505
S'I-NP'
p506
g5
tp507
a(S'trial'
p508
S'trial'
p509
S'NN'
p510
S'I-NP'
p511
g5
tp512
a(S'results'
p513
S'result'
p514
S'NNS'
p515
S'I-NP'
p516
g5
tp517
a(g73
g73
g73
g5
g5
tp518
a(S'error'
p519
S'error'
p520
S'NN'
p521
S'B-NP'
p522
g5
tp523
a(S'in'
p524
S'in'
p525
S'IN'
p526
S'B-PP'
p527
g5
tp528
a(S'measuring'
p529
S'measure'
p530
S'VBG'
p531
S'B-VP'
p532
g5
tp533
a(S'the'
p534
S'the'
p535
S'DT'
p536
S'B-NP'
p537
g5
tp538
a(S'phenomena'
p539
S'phenomenon'
p540
S'NNS'
p541
S'I-NP'
p542
g5
tp543
a(S'being'
p544
S'be'
p545
S'VBG'
p546
S'B-VP'
p547
g5
tp548
a(S'studied'
p549
S'study'
p550
S'VBN'
p551
S'I-VP'
p552
g5
tp553
a(S'is'
p554
S'be'
p555
S'VBZ'
p556
S'B-VP'
p557
g5
tp558
a(S'of'
p559
S'of'
p560
S'IN'
p561
S'B-PP'
p562
g5
tp563
a(S'particular'
p564
S'particular'
p565
S'JJ'
p566
S'B-NP'
p567
g5
tp568
a(S'concern.'
p569
S'concern.'
p570
S'NN'
p571
S'I-NP'
p572
g5
tp573
a(S'In'
p574
S'In'
p575
S'IN'
p576
S'B-PP'
p577
g5
tp578
a(S'this'
p579
S'this'
p580
S'DT'
p581
S'B-NP'
p582
g5
tp583
a(S'article'
p584
S'article'
p585
S'NN'
p586
S'I-NP'
p587
g5
tp588
a(g73
g73
g73
g5
g5
tp589
a(S'we'
p590
S'we'
p591
S'PRP'
p592
S'B-NP'
p593
g5
tp594
a(S'describe'
p595
S'describe'
p596
S'VBP'
p597
S'B-VP'
p598
g5
tp599
a(S'the'
p600
S'the'
p601
S'DT'
p602
S'B-NP'
p603
g5
tp604
a(S'outcome'
p605
S'outcome'
p606
S'NN'
p607
S'I-NP'
p608
g5
tp609
a(S'of'
p610
S'of'
p611
S'IN'
p612
S'B-PP'
p613
g5
tp614
a(S'an'
p615
S'an'
p616
S'DT'
p617
S'B-NP'
p618
g5
tp619
a(S'intensive'
p620
S'intensive'
p621
S'JJ'
p622
S'I-NP'
p623
g5
tp624
a(S'series'
p625
S'series'
p626
S'NN'
p627
S'I-NP'
p628
g5
tp629
a(S'of'
p630
S'of'
p631
S'IN'
p632
S'B-PP'
p633
g5
tp634
a(S'interrater'
p635
S'interrater'
p636
S'NN'
p637
S'B-NP'
p638
g5
tp639
a(S'reliability'
p640
S'reliability'
p641
S'NN'
p642
S'I-NP'
p643
g5
tp644
a(S'training'
p645
S'training'
p646
S'NN'
p647
S'I-NP'
p648
g5
tp649
a(S'sessions'
p650
S'session'
p651
S'NNS'
p652
S'I-NP'
p653
g5
tp654
a(S'for'
p655
S'for'
p656
S'IN'
p657
S'B-PP'
p658
g5
tp659
a(S'the'
p660
S'the'
p661
S'DT'
p662
S'B-NP'
p663
g5
tp664
a(S'17-item'
p665
S'17-item'
p666
S'JJ'
p667
S'I-NP'
p668
g5
tp669
a(S'Hamilton'
p670
S'Hamilton'
p671
S'NNP'
p672
S'I-NP'
p673
g5
tp674
a(S'Depression'
p675
S'Depression'
p676
S'NNP'
p677
S'I-NP'
p678
g5
tp679
a(S'Rating'
p680
S'Rating'
p681
S'NNP'
p682
S'I-NP'
p683
g5
tp684
a(S'Scale'
p685
S'Scale'
p686
S'NNP'
p687
S'I-NP'
p688
g5
tp689
a(S'conducted'
p690
S'conduct'
p691
S'VBD'
p692
S'B-VP'
p693
g5
tp694
a(S'at'
p695
S'at'
p696
S'IN'
p697
S'B-PP'
p698
g5
tp699
a(S'the'
p700
S'the'
p701
S'DT'
p702
S'B-NP'
p703
g5
tp704
a(S'start'
p705
S'start'
p706
S'NN'
p707
S'I-NP'
p708
g5
tp709
a(S'of'
p710
S'of'
p711
S'IN'
p712
S'B-PP'
p713
g5
tp714
a(g64
g64
S'DT'
p715
S'B-NP'
p716
g5
tp717
a(S'Phase'
p718
S'Phase'
p719
S'NN'
p720
S'I-NP'
p721
S'B-protein'
p722
tp723
a(S'II'
p724
S'II'
p725
S'CD'
p726
S'I-NP'
p727
S'I-protein'
p728
tp729
a(S'multisite'
p730
S'multisite'
p731
S'JJ'
p732
S'I-NP'
p733
g5
tp734
a(S'clinical'
p735
S'clinical'
p736
S'JJ'
p737
S'I-NP'
p738
g5
tp739
a(S'drug'
p740
S'drug'
p741
S'NN'
p742
S'I-NP'
p743
g5
tp744
a(S'trial.'
p745
S'trial.'
p746
S'NN'
p747
S'I-NP'
p748
g5
tp749
a(S'The'
p750
S'The'
p751
S'DT'
p752
S'B-NP'
p753
g5
tp754
a(S'data'
p755
S'datum'
p756
S'NNS'
p757
S'I-NP'
p758
g5
tp759
a(S'underscore'
p760
S'underscore'
p761
S'VBP'
p762
S'B-VP'
p763
g5
tp764
a(S'the'
p765
S'the'
p766
S'DT'
p767
S'B-NP'
p768
g5
tp769
a(S'magnitude'
p770
S'magnitude'
p771
S'NN'
p772
S'I-NP'
p773
g5
tp774
a(S'of'
p775
S'of'
p776
S'IN'
p777
S'B-PP'
p778
g5
tp779
a(S'error'
p780
S'error'
p781
S'NN'
p782
S'B-NP'
p783
g5
tp784
a(S'present'
p785
S'present'
p786
S'JJ'
p787
S'B-ADJP'
p788
g5
tp789
a(S'in'
p790
S'in'
p791
S'IN'
p792
S'B-PP'
p793
g5
tp794
a(S'such'
p795
S'such'
p796
S'JJ'
p797
S'B-NP'
p798
g5
tp799
a(g64
g64
S'DT'
p800
S'I-NP'
p801
g5
tp802
a(S'test'
p803
S'test'
p804
S'NN'
p805
S'I-NP'
p806
g5
tp807
a(S'setting'
p808
S'setting'
p809
S'NN'
p810
S'I-NP'
p811
g5
tp812
a(S'and'
p813
S'and'
p814
S'CC'
p815
g5
g5
tp816
a(S'provide'
p817
S'provide'
p818
S'VBP'
p819
S'B-VP'
p820
g5
tp821
a(S'preliminary'
p822
S'preliminary'
p823
S'JJ'
p824
S'B-NP'
p825
g5
tp826
a(S'evidence'
p827
S'evidence'
p828
S'NN'
p829
S'I-NP'
p830
g5
tp831
a(S'for'
p832
S'for'
p833
S'IN'
p834
S'B-PP'
p835
g5
tp836
a(S'the'
p837
S'the'
p838
S'DT'
p839
S'B-NP'
p840
g5
tp841
a(S'potential'
p842
S'potential'
p843
S'JJ'
p844
S'I-NP'
p845
g5
tp846
a(S'effect'
p847
S'effect'
p848
S'NN'
p849
S'I-NP'
p850
g5
tp851
a(S'of'
p852
S'of'
p853
S'IN'
p854
S'B-PP'
p855
g5
tp856
a(S'this'
p857
S'this'
p858
S'DT'
p859
S'B-NP'
p860
g5
tp861
a(S'problem'
p862
S'problem'
p863
S'NN'
p864
S'I-NP'
p865
g5
tp866
a(S'on'
p867
S'on'
p868
S'IN'
p869
S'B-PP'
p870
g5
tp871
a(S'the'
p872
S'the'
p873
S'DT'
p874
S'B-NP'
p875
g5
tp876
a(S'detection'
p877
S'detection'
p878
S'NN'
p879
S'I-NP'
p880
g5
tp881
a(S'of'
p882
S'of'
p883
S'IN'
p884
S'B-PP'
p885
g5
tp886
a(S'clinical'
p887
S'clinical'
p888
S'JJ'
p889
S'B-NP'
p890
g5
tp891
a(S'change'
p892
S'change'
p893
S'NN'
p894
S'I-NP'
p895
g5
tp896
a(g47
g47
g47
g5
g5
tp897
a.