(lp0
(S'Effect'
p1
S'Effect'
p2
S'NN'
p3
S'B-NP'
p4
S'O'
p5
tp6
a(S'of'
p7
S'of'
p8
S'IN'
p9
S'B-PP'
p10
g5
tp11
a(S'zoledronic'
p12
S'zoledronic'
p13
S'JJ'
p14
S'B-NP'
p15
g5
tp16
a(S'acid'
p17
S'acid'
p18
S'NN'
p19
S'I-NP'
p20
g5
tp21
a(S'on'
p22
S'on'
p23
S'IN'
p24
S'B-PP'
p25
g5
tp26
a(S'disseminated'
p27
S'disseminate'
p28
S'VBN'
p29
S'B-NP'
p30
S'B-cell_type'
p31
tp32
a(S'tumour'
p33
S'tumour'
p34
S'NN'
p35
S'I-NP'
p36
S'I-cell_type'
p37
tp38
a(S'cells'
p39
S'cell'
p40
S'NNS'
p41
S'I-NP'
p42
S'I-cell_type'
p43
tp44
a(S'in'
p45
S'in'
p46
S'IN'
p47
S'B-PP'
p48
g5
tp49
a(S'women'
p50
S'woman'
p51
S'NNS'
p52
S'B-NP'
p53
g5
tp54
a(S'with'
p55
S'with'
p56
S'IN'
p57
S'B-PP'
p58
g5
tp59
a(S'locally'
p60
S'locally'
p61
S'RB'
p62
S'B-NP'
p63
g5
tp64
a(S'advanced'
p65
S'advance'
p66
S'VBN'
p67
S'I-NP'
p68
g5
tp69
a(S'breast'
p70
S'breast'
p71
S'NN'
p72
S'I-NP'
p73
g5
tp74
a(S'cancer'
p75
S'cancer'
p76
S'NN'
p77
S'I-NP'
p78
g5
tp79
a(S':'
p80
g80
g80
g5
g5
tp81
a(S'an'
p82
S'an'
p83
S'DT'
p84
S'B-NP'
p85
g5
tp86
a(S'open'
p87
S'open'
p88
S'JJ'
p89
S'I-NP'
p90
g5
tp91
a(S'label'
p92
S'label'
p93
S'NN'
p94
S'I-NP'
p95
g5
tp96
a(S','
p97
g97
g97
g5
g5
tp98
a(S'randomised'
p99
S'randomise'
p100
S'VBN'
p101
S'B-VP'
p102
g5
tp103
a(g97
g97
g97
g5
g5
tp104
a(S'phase'
p105
S'phase'
p106
S'NN'
p107
S'B-NP'
p108
g5
tp109
a(S'2'
p110
g110
S'CD'
p111
S'I-NP'
p112
g5
tp113
a(S'trial'
p114
S'trial'
p115
S'NN'
p116
S'I-NP'
p117
g5
tp118
a(S'.'
p119
g119
g119
g5
g5
tp120
a(S'BACKGROUND'
p121
S'BACKGROUND'
p122
S'NN'
p123
S'B-NP'
p124
g5
tp125
a(S'Treatment'
p126
S'Treatment'
p127
S'NN'
p128
S'I-NP'
p129
g5
tp130
a(S'with'
p131
S'with'
p132
S'IN'
p133
S'B-PP'
p134
g5
tp135
a(S'bisphosphonates'
p136
S'bisphosphonate'
p137
S'NNS'
p138
S'B-NP'
p139
g5
tp140
a(S'decreases'
p141
S'decrease'
p142
S'VBZ'
p143
S'B-VP'
p144
g5
tp145
a(S'bone'
p146
S'bone'
p147
S'NN'
p148
S'B-NP'
p149
g5
tp150
a(S'loss'
p151
S'loss'
p152
S'NN'
p153
S'I-NP'
p154
g5
tp155
a(S'and'
p156
S'and'
p157
S'CC'
p158
g5
g5
tp159
a(S'can'
p160
S'can'
p161
S'MD'
p162
S'B-VP'
p163
g5
tp164
a(S'increase'
p165
S'increase'
p166
S'VB'
p167
S'I-VP'
p168
g5
tp169
a(S'disease-free'
p170
S'disease-free'
p171
S'JJ'
p172
S'B-NP'
p173
g5
tp174
a(S'survival'
p175
S'survival'
p176
S'NN'
p177
S'I-NP'
p178
g5
tp179
a(S'in'
p180
S'in'
p181
S'IN'
p182
S'B-PP'
p183
g5
tp184
a(S'patients'
p185
S'patient'
p186
S'NNS'
p187
S'B-NP'
p188
g5
tp189
a(S'with'
p190
S'with'
p191
S'IN'
p192
S'B-PP'
p193
g5
tp194
a(S'breast'
p195
S'breast'
p196
S'NN'
p197
S'B-NP'
p198
g5
tp199
a(S'cancer.'
p200
S'cancer.'
p201
S'MD'
p202
g5
g5
tp203
a(S'The'
p204
S'The'
p205
S'DT'
p206
S'B-NP'
p207
g5
tp208
a(S'aim'
p209
S'aim'
p210
S'NN'
p211
S'I-NP'
p212
g5
tp213
a(S'of'
p214
S'of'
p215
S'IN'
p216
S'B-PP'
p217
g5
tp218
a(S'our'
p219
S'our'
p220
S'PRP$'
p221
S'B-NP'
p222
g5
tp223
a(S'study'
p224
S'study'
p225
S'NN'
p226
S'I-NP'
p227
g5
tp228
a(S'was'
p229
S'be'
p230
S'VBD'
p231
S'B-VP'
p232
g5
tp233
a(S'to'
p234
S'to'
p235
S'TO'
p236
S'B-VP'
p237
g5
tp238
a(S'assess'
p239
S'assess'
p240
S'VB'
p241
S'I-VP'
p242
g5
tp243
a(S'the'
p244
S'the'
p245
S'DT'
p246
S'B-NP'
p247
g5
tp248
a(S'effect'
p249
S'effect'
p250
S'NN'
p251
S'I-NP'
p252
g5
tp253
a(S'of'
p254
S'of'
p255
S'IN'
p256
S'B-PP'
p257
g5
tp258
a(S'zoledronic'
p259
S'zoledronic'
p260
S'JJ'
p261
S'B-NP'
p262
g5
tp263
a(S'acid'
p264
S'acid'
p265
S'NN'
p266
S'I-NP'
p267
g5
tp268
a(S'on'
p269
S'on'
p270
S'IN'
p271
S'B-PP'
p272
g5
tp273
a(S'clearance'
p274
S'clearance'
p275
S'NN'
p276
S'B-NP'
p277
g5
tp278
a(S'of'
p279
S'of'
p280
S'IN'
p281
S'B-PP'
p282
g5
tp283
a(S'disseminated'
p284
S'disseminate'
p285
S'VBN'
p286
S'B-NP'
p287
g5
tp288
a(S'tumour'
p289
S'tumour'
p290
S'NN'
p291
S'I-NP'
p292
S'B-cell_type'
p293
tp294
a(S'cells'
p295
S'cell'
p296
S'NNS'
p297
S'I-NP'
p298
S'I-cell_type'
p299
tp300
a(S'('
p301
g301
g301
g5
g5
tp302
a(S'DTCs'
p303
S'DTC'
p304
S'NNS'
p305
S'B-NP'
p306
S'B-cell_type'
p307
tp308
a(S')'
p309
g309
g309
g5
g5
tp310
a(S'from'
p311
S'from'
p312
S'IN'
p313
S'B-PP'
p314
g5
tp315
a(S'the'
p316
S'the'
p317
S'DT'
p318
S'B-NP'
p319
g5
tp320
a(S'bone'
p321
S'bone'
p322
S'NN'
p323
S'I-NP'
p324
g5
tp325
a(S'marrow'
p326
S'marrow'
p327
S'NN'
p328
S'I-NP'
p329
g5
tp330
a(S'in'
p331
S'in'
p332
S'IN'
p333
S'B-PP'
p334
g5
tp335
a(S'women'
p336
S'woman'
p337
S'NNS'
p338
S'B-NP'
p339
g5
tp340
a(S'undergoing'
p341
S'undergo'
p342
S'VBG'
p343
S'B-VP'
p344
g5
tp345
a(S'neoadjuvant'
p346
S'neoadjuvant'
p347
S'JJ'
p348
S'B-NP'
p349
g5
tp350
a(S'chemotherapy'
p351
S'chemotherapy'
p352
S'NN'
p353
S'I-NP'
p354
g5
tp355
a(S'for'
p356
S'for'
p357
S'IN'
p358
S'B-PP'
p359
g5
tp360
a(S'breast'
p361
S'breast'
p362
S'NN'
p363
S'B-NP'
p364
g5
tp365
a(S'cancer'
p366
S'cancer'
p367
S'NN'
p368
S'I-NP'
p369
g5
tp370
a(g119
g119
g119
g5
g5
tp371
a(S'METHODS'
p372
S'METHODS'
p373
S'NNS'
p374
S'B-NP'
p375
g5
tp376
a(S'Patients'
p377
S'Patient'
p378
S'NNS'
p379
S'I-NP'
p380
g5
tp381
a(S'were'
p382
S'be'
p383
S'VBD'
p384
S'B-VP'
p385
g5
tp386
a(S'recruited'
p387
S'recruit'
p388
S'VBN'
p389
S'I-VP'
p390
g5
tp391
a(S'for'
p392
S'for'
p393
S'IN'
p394
S'B-PP'
p395
g5
tp396
a(S'this'
p397
S'this'
p398
S'DT'
p399
S'B-NP'
p400
g5
tp401
a(S'open-label'
p402
S'open-label'
p403
S'NN'
p404
S'I-NP'
p405
g5
tp406
a(g97
g97
g97
g5
g5
tp407
a(S'phase'
p408
S'phase'
p409
S'NN'
p410
S'B-NP'
p411
g5
tp412
a(g110
g110
S'CD'
p413
S'I-NP'
p414
g5
tp415
a(S'randomised'
p416
S'randomise'
p417
S'VBD'
p418
S'B-VP'
p419
g5
tp420
a(S'trial'
p421
S'trial'
p422
S'NN'
p423
S'B-NP'
p424
g5
tp425
a(S'between'
p426
S'between'
p427
S'IN'
p428
S'B-PP'
p429
g5
tp430
a(S'March'
p431
S'March'
p432
S'NNP'
p433
S'B-NP'
p434
g5
tp435
a(S'17'
p436
S'17'
p437
S'CD'
p438
S'I-NP'
p439
g5
tp440
a(g97
g97
g97
S'I-NP'
p441
g5
tp442
a(S'2003'
p443
S'2003'
p444
S'CD'
p445
S'I-NP'
p446
g5
tp447
a(g97
g97
g97
g5
g5
tp448
a(S'and'
p449
S'and'
p450
S'CC'
p451
g5
g5
tp452
a(S'May'
p453
S'May'
p454
S'NNP'
p455
S'B-NP'
p456
g5
tp457
a(S'19'
p458
S'19'
p459
S'CD'
p460
S'I-NP'
p461
g5
tp462
a(g97
g97
g97
S'I-NP'
p463
g5
tp464
a(S'2006'
p465
S'2006'
p466
S'CD'
p467
S'I-NP'
p468
g5
tp469
a(g97
g97
g97
g5
g5
tp470
a(S'at'
p471
S'at'
p472
S'IN'
p473
S'B-PP'
p474
g5
tp475
a(S'a'
p476
g476
S'DT'
p477
S'B-NP'
p478
g5
tp479
a(S'single'
p480
S'single'
p481
S'JJ'
p482
S'I-NP'
p483
g5
tp484
a(S'centre.'
p485
S'centre.'
p486
S'NN'
p487
S'I-NP'
p488
g5
tp489
a(S'Eligible'
p490
S'Eligible'
p491
S'JJ'
p492
S'I-NP'
p493
g5
tp494
a(S'patients'
p495
S'patient'
p496
S'NNS'
p497
S'I-NP'
p498
g5
tp499
a(S'had'
p500
S'have'
p501
S'VBD'
p502
S'B-VP'
p503
g5
tp504
a(S'clinical'
p505
S'clinical'
p506
S'JJ'
p507
S'B-NP'
p508
g5
tp509
a(S'stage'
p510
S'stage'
p511
S'NN'
p512
S'I-NP'
p513
g5
tp514
a(S'II-III'
p515
S'II-III'
p516
S'CD'
p517
S'I-NP'
p518
g5
tp519
a(g301
g301
g301
g5
g5
tp520
a(S'>'
p521
g521
S'SYM'
p522
S'B-NP'
p523
g5
tp524
a(S'or'
p525
S'or'
p526
S'CC'
p527
g5
g5
tp528
a(S'='
p529
g529
S'SYM'
p530
S'B-VP'
p531
g5
tp532
a(S'T2'
p533
S'T2'
p534
S'NN'
p535
S'B-NP'
p536
g5
tp537
a(S'and/or'
p538
S'and/or'
p539
S'CC'
p540
g5
g5
tp541
a(g521
g521
S'SYM'
p542
S'B-NP'
p543
g5
tp544
a(S'or'
p545
S'or'
p546
S'CC'
p547
g5
g5
tp548
a(g529
g529
S'SYM'
p549
S'B-VP'
p550
g5
tp551
a(S'N1'
p552
S'N1'
p553
S'NN'
p554
S'B-NP'
p555
g5
tp556
a(g309
g309
g309
g5
g5
tp557
a(S'newly'
p558
S'newly'
p559
S'RB'
p560
S'B-NP'
p561
g5
tp562
a(S'diagnosed'
p563
S'diagnose'
p564
S'VBN'
p565
S'I-NP'
p566
g5
tp567
a(S'breast'
p568
S'breast'
p569
S'NN'
p570
S'I-NP'
p571
g5
tp572
a(S'cancer'
p573
S'cancer'
p574
S'NN'
p575
S'I-NP'
p576
g5
tp577
a(g97
g97
g97
g5
g5
tp578
a(S'Eastern'
p579
S'Eastern'
p580
S'NNP'
p581
S'B-NP'
p582
g5
tp583
a(S'Cooperative'
p584
S'Cooperative'
p585
S'NNP'
p586
S'I-NP'
p587
g5
tp588
a(S'Oncology'
p589
S'Oncology'
p590
S'NNP'
p591
S'I-NP'
p592
g5
tp593
a(S'Group'
p594
S'Group'
p595
S'NNP'
p596
S'I-NP'
p597
g5
tp598
a(S'performance'
p599
S'performance'
p600
S'NN'
p601
S'I-NP'
p602
g5
tp603
a(S'status'
p604
S'status'
p605
S'NN'
p606
S'I-NP'
p607
g5
tp608
a(S'of'
p609
S'of'
p610
S'IN'
p611
S'B-PP'
p612
g5
tp613
a(S'0'
p614
g614
S'CD'
p615
S'B-NP'
p616
g5
tp617
a(S'or'
p618
S'or'
p619
S'CC'
p620
S'I-NP'
p621
g5
tp622
a(S'1'
p623
g623
S'CD'
p624
S'I-NP'
p625
g5
tp626
a(g97
g97
g97
g5
g5
tp627
a(S'and'
p628
S'and'
p629
S'CC'
p630
g5
g5
tp631
a(S'normal'
p632
S'normal'
p633
S'JJ'
p634
S'B-NP'
p635
g5
tp636
a(S'cardiac'
p637
S'cardiac'
p638
S'JJ'
p639
S'I-NP'
p640
g5
tp641
a(g97
g97
g97
S'I-NP'
p642
g5
tp643
a(S'renal'
p644
S'renal'
p645
S'JJ'
p646
S'I-NP'
p647
g5
tp648
a(g97
g97
g97
g5
g5
tp649
a(S'and'
p650
S'and'
p651
S'CC'
p652
g5
g5
tp653
a(S'liver'
p654
S'liver'
p655
S'NN'
p656
S'B-NP'
p657
g5
tp658
a(S'function.'
p659
S'function.'
p660
S'NN'
p661
S'I-NP'
p662
g5
tp663
a(S'120'
p664
S'120'
p665
S'CD'
p666
S'B-NP'
p667
g5
tp668
a(S'women'
p669
S'woman'
p670
S'NNS'
p671
S'I-NP'
p672
g5
tp673
a(S'were'
p674
S'be'
p675
S'VBD'
p676
S'B-VP'
p677
g5
tp678
a(S'randomly'
p679
S'randomly'
p680
S'RB'
p681
S'I-VP'
p682
g5
tp683
a(S'assigned'
p684
S'assign'
p685
S'VBN'
p686
S'I-VP'
p687
g5
tp688
a(g97
g97
g97
g5
g5
tp689
a(S'using'
p690
S'use'
p691
S'VBG'
p692
S'B-VP'
p693
g5
tp694
a(S'allocation'
p695
S'allocation'
p696
S'NN'
p697
S'B-NP'
p698
g5
tp699
a(S'concealment'
p700
S'concealment'
p701
S'NN'
p702
S'I-NP'
p703
g5
tp704
a(g97
g97
g97
g5
g5
tp705
a(S'to'
p706
S'to'
p707
S'TO'
p708
S'B-VP'
p709
g5
tp710
a(S'receive'
p711
S'receive'
p712
S'VB'
p713
S'I-VP'
p714
g5
tp715
a(S'4'
p716
g716
S'CD'
p717
S'B-NP'
p718
g5
tp719
a(S'mg'
p720
S'mg'
p721
S'NN'
p722
S'I-NP'
p723
g5
tp724
a(S'zoledronic'
p725
S'zoledronic'
p726
S'JJ'
p727
S'I-NP'
p728
g5
tp729
a(S'acid'
p730
S'acid'
p731
S'NN'
p732
S'I-NP'
p733
g5
tp734
a(S'intravenously'
p735
S'intravenously'
p736
S'RB'
p737
S'B-NP'
p738
g5
tp739
a(S'every'
p740
S'every'
p741
S'DT'
p742
S'I-NP'
p743
g5
tp744
a(S'3'
p745
g745
S'CD'
p746
S'I-NP'
p747
g5
tp748
a(S'weeks'
p749
S'week'
p750
S'NNS'
p751
S'I-NP'
p752
g5
tp753
a(g301
g301
g301
g5
g5
tp754
a(S'n=60'
p755
S'n=60'
p756
S'NN'
p757
S'B-NP'
p758
S'B-protein'
p759
tp760
a(g309
g309
g309
g5
g5
tp761
a(g97
g97
g97
g5
g5
tp762
a(S'or'
p763
S'or'
p764
S'CC'
p765
g5
g5
tp766
a(S'no'
p767
S'no'
p768
S'DT'
p769
S'B-NP'
p770
g5
tp771
a(S'zoledronic'
p772
S'zoledronic'
p773
S'JJ'
p774
S'I-NP'
p775
g5
tp776
a(S'acid'
p777
S'acid'
p778
S'NN'
p779
S'I-NP'
p780
g5
tp781
a(g301
g301
g301
g5
g5
tp782
a(S'n=60'
p783
S'n=60'
p784
S'NN'
p785
S'B-NP'
p786
S'B-protein'
p787
tp788
a(g309
g309
g309
g5
g5
tp789
a(g97
g97
g97
g5
g5
tp790
a(S'for'
p791
S'for'
p792
S'IN'
p793
S'B-PP'
p794
g5
tp795
a(g623
g623
S'CD'
p796
S'B-NP'
p797
g5
tp798
a(S'year'
p799
S'year'
p800
S'NN'
p801
S'I-NP'
p802
g5
tp803
a(S'concomitant'
p804
S'concomitant'
p805
S'JJ'
p806
S'B-ADJP'
p807
g5
tp808
a(S'with'
p809
S'with'
p810
S'IN'
p811
S'B-PP'
p812
g5
tp813
a(S'four'
p814
S'four'
p815
S'CD'
p816
S'B-NP'
p817
g5
tp818
a(S'cycles'
p819
S'cycle'
p820
S'NNS'
p821
S'I-NP'
p822
g5
tp823
a(S'of'
p824
S'of'
p825
S'IN'
p826
S'B-PP'
p827
g5
tp828
a(S'neoadjuvant'
p829
S'neoadjuvant'
p830
S'JJ'
p831
S'B-NP'
p832
g5
tp833
a(S'epirubicin'
p834
S'epirubicin'
p835
S'NN'
p836
S'I-NP'
p837
g5
tp838
a(g301
g301
g301
g5
g5
tp839
a(S'75'
p840
S'75'
p841
S'CD'
p842
S'B-NP'
p843
g5
tp844
a(S'mg/m'
p845
S'mg/m'
p846
S'NN'
p847
S'I-NP'
p848
g5
tp849
a(g301
g301
g301
g5
g5
tp850
a(g110
g110
S'CD'
p851
S'B-NP'
p852
g5
tp853
a(g309
g309
g309
g5
g5
tp854
a(g309
g309
g309
g5
g5
tp855
a(S'plus'
p856
S'plus'
p857
S'CC'
p858
g5
g5
tp859
a(S'docetaxel'
p860
S'docetaxel'
p861
S'NN'
p862
S'B-NP'
p863
g5
tp864
a(g301
g301
g301
g5
g5
tp865
a(S'75'
p866
S'75'
p867
S'CD'
p868
S'B-NP'
p869
g5
tp870
a(S'mg/m'
p871
S'mg/m'
p872
S'NN'
p873
S'I-NP'
p874
g5
tp875
a(g301
g301
g301
g5
g5
tp876
a(g110
g110
S'CD'
p877
S'B-NP'
p878
g5
tp879
a(g309
g309
g309
g5
g5
tp880
a(g309
g309
g309
g5
g5
tp881
a(S'and'
p882
S'and'
p883
S'CC'
p884
g5
g5
tp885
a(S'two'
p886
S'two'
p887
S'CD'
p888
S'B-NP'
p889
g5
tp890
a(S'cycles'
p891
S'cycle'
p892
S'NNS'
p893
S'I-NP'
p894
g5
tp895
a(S'of'
p896
S'of'
p897
S'IN'
p898
S'B-PP'
p899
g5
tp900
a(S'adjuvant'
p901
S'adjuvant'
p902
S'JJ'
p903
S'B-NP'
p904
g5
tp905
a(S'epirubicin'
p906
S'epirubicin'
p907
S'NN'
p908
S'I-NP'
p909
g5
tp910
a(S'plus'
p911
S'plus'
p912
S'CC'
p913
g5
g5
tp914
a(S'docetaxel.'
p915
S'docetaxel.'
p916
S'RB'
p917
S'B-ADVP'
p918
g5
tp919
a(S'The'
p920
S'The'
p921
S'DT'
p922
S'B-NP'
p923
g5
tp924
a(S'primary'
p925
S'primary'
p926
S'JJ'
p927
S'I-NP'
p928
g5
tp929
a(S'endpoint'
p930
S'endpoint'
p931
S'NN'
p932
S'I-NP'
p933
g5
tp934
a(S'was'
p935
S'be'
p936
S'VBD'
p937
S'B-VP'
p938
g5
tp939
a(S'the'
p940
S'the'
p941
S'DT'
p942
S'B-NP'
p943
g5
tp944
a(S'number'
p945
S'number'
p946
S'NN'
p947
S'I-NP'
p948
g5
tp949
a(S'of'
p950
S'of'
p951
S'IN'
p952
S'B-PP'
p953
g5
tp954
a(S'patients'
p955
S'patient'
p956
S'NNS'
p957
S'B-NP'
p958
g5
tp959
a(S'with'
p960
S'with'
p961
S'IN'
p962
S'B-PP'
p963
g5
tp964
a(S'detectable'
p965
S'detectable'
p966
S'JJ'
p967
S'B-NP'
p968
g5
tp969
a(S'DTCs'
p970
S'DTC'
p971
S'NNS'
p972
S'I-NP'
p973
g5
tp974
a(S'at'
p975
S'at'
p976
S'IN'
p977
S'B-PP'
p978
g5
tp979
a(g745
g745
S'CD'
p980
S'B-NP'
p981
g5
tp982
a(S'months.'
p983
S'months.'
p984
S'NN'
p985
S'I-NP'
p986
g5
tp987
a(S'Final'
p988
S'Final'
p989
S'JJ'
p990
S'I-NP'
p991
g5
tp992
a(S'analysis'
p993
S'analysis'
p994
S'NN'
p995
S'I-NP'
p996
g5
tp997
a(S'was'
p998
S'be'
p999
S'VBD'
p1000
S'B-VP'
p1001
g5
tp1002
a(S'done'
p1003
S'do'
p1004
S'VBN'
p1005
S'I-VP'
p1006
g5
tp1007
a(g623
g623
S'CD'
p1008
S'B-NP'
p1009
g5
tp1010
a(S'year'
p1011
S'year'
p1012
S'NN'
p1013
S'I-NP'
p1014
g5
tp1015
a(S'after'
p1016
S'after'
p1017
S'IN'
p1018
S'B-PP'
p1019
g5
tp1020
a(S'the'
p1021
S'the'
p1022
S'DT'
p1023
S'B-NP'
p1024
g5
tp1025
a(S'last'
p1026
S'last'
p1027
S'JJ'
p1028
S'I-NP'
p1029
g5
tp1030
a(S'patient'
p1031
S'patient'
p1032
S'NN'
p1033
S'I-NP'
p1034
g5
tp1035
a(S'was'
p1036
S'be'
p1037
S'VBD'
p1038
S'B-VP'
p1039
g5
tp1040
a(S'enrolled.'
p1041
S'enrolled.'
p1042
S'VBN'
p1043
S'I-VP'
p1044
g5
tp1045
a(S'Analyses'
p1046
S'Analysis'
p1047
S'NNS'
p1048
S'B-NP'
p1049
g5
tp1050
a(S'were'
p1051
S'be'
p1052
S'VBD'
p1053
S'B-VP'
p1054
g5
tp1055
a(S'done'
p1056
S'do'
p1057
S'VBN'
p1058
S'I-VP'
p1059
g5
tp1060
a(S'for'
p1061
S'for'
p1062
S'IN'
p1063
S'B-PP'
p1064
g5
tp1065
a(S'all'
p1066
S'all'
p1067
S'DT'
p1068
S'B-NP'
p1069
g5
tp1070
a(S'patients'
p1071
S'patient'
p1072
S'NNS'
p1073
S'I-NP'
p1074
g5
tp1075
a(S'with'
p1076
S'with'
p1077
S'IN'
p1078
S'B-PP'
p1079
g5
tp1080
a(S'available'
p1081
S'available'
p1082
S'JJ'
p1083
S'B-NP'
p1084
g5
tp1085
a(S'data'
p1086
S'datum'
p1087
S'NNS'
p1088
S'I-NP'
p1089
g5
tp1090
a(S'at'
p1091
S'at'
p1092
S'IN'
p1093
S'B-PP'
p1094
g5
tp1095
a(g745
g745
S'CD'
p1096
S'B-NP'
p1097
g5
tp1098
a(S'months.'
p1099
S'months.'
p1100
S'NN'
p1101
S'I-NP'
p1102
g5
tp1103
a(S'This'
p1104
S'This'
p1105
S'DT'
p1106
S'B-NP'
p1107
g5
tp1108
a(S'study'
p1109
S'study'
p1110
S'NN'
p1111
S'I-NP'
p1112
g5
tp1113
a(S'is'
p1114
S'be'
p1115
S'VBZ'
p1116
S'B-VP'
p1117
g5
tp1118
a(S'registered'
p1119
S'register'
p1120
S'VBN'
p1121
S'I-VP'
p1122
g5
tp1123
a(S'with'
p1124
S'with'
p1125
S'IN'
p1126
S'B-PP'
p1127
g5
tp1128
a(S'ClinicalTrials.gov'
p1129
S'ClinicalTrials.gov'
p1130
S'NN'
p1131
S'B-NP'
p1132
g5
tp1133
a(g97
g97
g97
g5
g5
tp1134
a(S'number'
p1135
S'number'
p1136
S'NN'
p1137
S'B-NP'
p1138
g5
tp1139
a(S'NCT00242203'
p1140
S'NCT00242203'
p1141
S'NN'
p1142
S'I-NP'
p1143
g5
tp1144
a(g119
g119
g119
g5
g5
tp1145
a(S'FINDINGS'
p1146
S'FINDINGS'
p1147
S'NNS'
p1148
S'B-NP'
p1149
g5
tp1150
a(S'Of'
p1151
S'Of'
p1152
S'IN'
p1153
S'B-PP'
p1154
g5
tp1155
a(S'the'
p1156
S'the'
p1157
S'DT'
p1158
S'B-NP'
p1159
g5
tp1160
a(S'120'
p1161
S'120'
p1162
S'CD'
p1163
S'I-NP'
p1164
g5
tp1165
a(S'patients'
p1166
S'patient'
p1167
S'NNS'
p1168
S'I-NP'
p1169
g5
tp1170
a(S'initially'
p1171
S'initially'
p1172
S'RB'
p1173
S'B-VP'
p1174
g5
tp1175
a(S'enrolled'
p1176
S'enrol'
p1177
S'VBN'
p1178
S'I-VP'
p1179
g5
tp1180
a(g97
g97
g97
g5
g5
tp1181
a(S'one'
p1182
S'one'
p1183
S'CD'
p1184
S'B-NP'
p1185
g5
tp1186
a(S'withdrew'
p1187
S'withdraw'
p1188
S'VBD'
p1189
S'B-VP'
p1190
g5
tp1191
a(S'after'
p1192
S'after'
p1193
S'IN'
p1194
S'B-PP'
p1195
g5
tp1196
a(S'signing'
p1197
S'sign'
p1198
S'VBG'
p1199
S'B-VP'
p1200
g5
tp1201
a(S'consent'
p1202
S'consent'
p1203
S'NN'
p1204
S'B-NP'
p1205
g5
tp1206
a(S'and'
p1207
S'and'
p1208
S'CC'
p1209
g5
g5
tp1210
a(S'one'
p1211
S'one'
p1212
S'CD'
p1213
S'B-NP'
p1214
g5
tp1215
a(S'patient'
p1216
S'patient'
p1217
S'NN'
p1218
S'I-NP'
p1219
g5
tp1220
a(S"'s"
p1221
S"'s"
p1222
S'POS'
p1223
S'B-NP'
p1224
g5
tp1225
a(S'baseline'
p1226
S'baseline'
p1227
S'NN'
p1228
S'I-NP'
p1229
g5
tp1230
a(S'bone'
p1231
S'bone'
p1232
S'NN'
p1233
S'I-NP'
p1234
g5
tp1235
a(S'marrow'
p1236
S'marrow'
p1237
S'NN'
p1238
S'I-NP'
p1239
g5
tp1240
a(S'was'
p1241
S'be'
p1242
S'VBD'
p1243
S'B-VP'
p1244
g5
tp1245
a(S'not'
p1246
S'not'
p1247
S'RB'
p1248
S'I-VP'
p1249
g5
tp1250
a(S'available.'
p1251
S'available.'
p1252
S'VB'
p1253
S'I-VP'
p1254
g5
tp1255
a(S'Both'
p1256
S'Both'
p1257
S'DT'
p1258
S'B-NP'
p1259
g5
tp1260
a(S'of'
p1261
S'of'
p1262
S'IN'
p1263
S'B-PP'
p1264
g5
tp1265
a(S'these'
p1266
S'these'
p1267
S'DT'
p1268
S'B-NP'
p1269
g5
tp1270
a(S'patients'
p1271
S'patient'
p1272
S'NNS'
p1273
S'I-NP'
p1274
g5
tp1275
a(S'were'
p1276
S'be'
p1277
S'VBD'
p1278
S'B-VP'
p1279
g5
tp1280
a(S'in'
p1281
S'in'
p1282
S'IN'
p1283
S'B-PP'
p1284
g5
tp1285
a(S'the'
p1286
S'the'
p1287
S'DT'
p1288
S'B-NP'
p1289
g5
tp1290
a(S'control'
p1291
S'control'
p1292
S'NN'
p1293
S'I-NP'
p1294
g5
tp1295
a(S'group.'
p1296
S'group.'
p1297
S'NN'
p1298
S'I-NP'
p1299
g5
tp1300
a(S'At'
p1301
S'At'
p1302
S'IN'
p1303
S'B-PP'
p1304
g5
tp1305
a(g745
g745
S'CD'
p1306
S'B-NP'
p1307
g5
tp1308
a(S'months'
p1309
S'month'
p1310
S'NNS'
p1311
S'I-NP'
p1312
g5
tp1313
a(g97
g97
g97
g5
g5
tp1314
a(S'109'
p1315
S'109'
p1316
S'CD'
p1317
S'B-NP'
p1318
g5
tp1319
a(S'bone-marrow'
p1320
S'bone-marrow'
p1321
S'NN'
p1322
S'I-NP'
p1323
g5
tp1324
a(S'samples'
p1325
S'sample'
p1326
S'NNS'
p1327
S'I-NP'
p1328
g5
tp1329
a(S'were'
p1330
S'be'
p1331
S'VBD'
p1332
S'B-VP'
p1333
g5
tp1334
a(S'available'
p1335
S'available'
p1336
S'JJ'
p1337
S'B-ADJP'
p1338
g5
tp1339
a(S'for'
p1340
S'for'
p1341
S'IN'
p1342
S'B-PP'
p1343
g5
tp1344
a(S'analysis.'
p1345
S'analysis.'
p1346
S'NN'
p1347
S'B-NP'
p1348
g5
tp1349
a(S'In'
p1350
S'In'
p1351
S'IN'
p1352
S'B-PP'
p1353
g5
tp1354
a(S'the'
p1355
S'the'
p1356
S'DT'
p1357
S'B-NP'
p1358
g5
tp1359
a(S'zoledronic'
p1360
S'zoledronic'
p1361
S'JJ'
p1362
S'I-NP'
p1363
g5
tp1364
a(S'acid'
p1365
S'acid'
p1366
S'NN'
p1367
S'I-NP'
p1368
g5
tp1369
a(S'group'
p1370
S'group'
p1371
S'NN'
p1372
S'I-NP'
p1373
g5
tp1374
a(g97
g97
g97
g5
g5
tp1375
a(S'bone'
p1376
S'bone'
p1377
S'NN'
p1378
S'B-NP'
p1379
g5
tp1380
a(S'marrow'
p1381
S'marrow'
p1382
S'NN'
p1383
S'I-NP'
p1384
g5
tp1385
a(S'was'
p1386
S'be'
p1387
S'VBD'
p1388
S'B-VP'
p1389
g5
tp1390
a(S'not'
p1391
S'not'
p1392
S'RB'
p1393
S'I-VP'
p1394
g5
tp1395
a(S'collected'
p1396
S'collect'
p1397
S'VBN'
p1398
S'I-VP'
p1399
g5
tp1400
a(S'from'
p1401
S'from'
p1402
S'IN'
p1403
S'B-PP'
p1404
g5
tp1405
a(S'one'
p1406
S'one'
p1407
S'CD'
p1408
S'B-NP'
p1409
g5
tp1410
a(S'patient'
p1411
S'patient'
p1412
S'NN'
p1413
S'I-NP'
p1414
g5
tp1415
a(S'because'
p1416
S'because'
p1417
S'IN'
p1418
S'B-PP'
p1419
g5
tp1420
a(S'of'
p1421
S'of'
p1422
S'IN'
p1423
S'I-PP'
p1424
g5
tp1425
a(S'disease'
p1426
S'disease'
p1427
S'NN'
p1428
S'B-NP'
p1429
g5
tp1430
a(S'progression'
p1431
S'progression'
p1432
S'NN'
p1433
S'I-NP'
p1434
g5
tp1435
a(g97
g97
g97
g5
g5
tp1436
a(S'one'
p1437
S'one'
p1438
S'CD'
p1439
S'B-NP'
p1440
g5
tp1441
a(S'patient'
p1442
S'patient'
p1443
S'NN'
p1444
S'I-NP'
p1445
g5
tp1446
a(S'was'
p1447
S'be'
p1448
S'VBD'
p1449
S'B-VP'
p1450
g5
tp1451
a(S'taken'
p1452
S'take'
p1453
S'VBN'
p1454
S'I-VP'
p1455
g5
tp1456
a(S'off'
p1457
S'off'
p1458
S'RP'
p1459
S'B-PRT'
p1460
g5
tp1461
a(S'study'
p1462
S'study'
p1463
S'NN'
p1464
S'B-NP'
p1465
g5
tp1466
a(S'because'
p1467
S'because'
p1468
S'IN'
p1469
S'B-PP'
p1470
g5
tp1471
a(S'of'
p1472
S'of'
p1473
S'IN'
p1474
S'I-PP'
p1475
g5
tp1476
a(S'severe'
p1477
S'severe'
p1478
S'JJ'
p1479
S'B-NP'
p1480
g5
tp1481
a(S'diarrhoea'
p1482
S'diarrhoea'
p1483
S'NN'
p1484
S'I-NP'
p1485
g5
tp1486
a(g97
g97
g97
g5
g5
tp1487
a(S'and'
p1488
S'and'
p1489
S'CC'
p1490
g5
g5
tp1491
a(S'two'
p1492
S'two'
p1493
S'CD'
p1494
S'B-NP'
p1495
g5
tp1496
a(S'patients'
p1497
S'patient'
p1498
S'NNS'
p1499
S'I-NP'
p1500
g5
tp1501
a(S'had'
p1502
S'have'
p1503
S'VBD'
p1504
S'B-VP'
p1505
g5
tp1506
a(S'not'
p1507
S'not'
p1508
S'RB'
p1509
S'I-VP'
p1510
g5
tp1511
a(S'consented'
p1512
S'consent'
p1513
S'VBN'
p1514
S'I-VP'
p1515
g5
tp1516
a(S'at'
p1517
S'at'
p1518
S'IN'
p1519
S'B-PP'
p1520
g5
tp1521
a(S'the'
p1522
S'the'
p1523
S'DT'
p1524
S'B-NP'
p1525
g5
tp1526
a(S'time'
p1527
S'time'
p1528
S'NN'
p1529
S'I-NP'
p1530
g5
tp1531
a(S'of'
p1532
S'of'
p1533
S'IN'
p1534
S'B-PP'
p1535
g5
tp1536
a(S'surgery.'
p1537
S'surgery.'
p1538
S'NN'
p1539
S'B-NP'
p1540
g5
tp1541
a(S'In'
p1542
S'In'
p1543
S'IN'
p1544
S'B-PP'
p1545
g5
tp1546
a(S'the'
p1547
S'the'
p1548
S'DT'
p1549
S'B-NP'
p1550
g5
tp1551
a(S'control'
p1552
S'control'
p1553
S'NN'
p1554
S'I-NP'
p1555
g5
tp1556
a(S'group'
p1557
S'group'
p1558
S'NN'
p1559
S'I-NP'
p1560
g5
tp1561
a(g97
g97
g97
g5
g5
tp1562
a(S'bone'
p1563
S'bone'
p1564
S'NN'
p1565
S'B-NP'
p1566
g5
tp1567
a(S'marrow'
p1568
S'marrow'
p1569
S'NN'
p1570
S'I-NP'
p1571
g5
tp1572
a(S'was'
p1573
S'be'
p1574
S'VBD'
p1575
S'B-VP'
p1576
g5
tp1577
a(S'not'
p1578
S'not'
p1579
S'RB'
p1580
S'I-VP'
p1581
g5
tp1582
a(S'collected'
p1583
S'collect'
p1584
S'VBN'
p1585
S'I-VP'
p1586
g5
tp1587
a(S'from'
p1588
S'from'
p1589
S'IN'
p1590
S'B-PP'
p1591
g5
tp1592
a(S'two'
p1593
S'two'
p1594
S'CD'
p1595
S'B-NP'
p1596
g5
tp1597
a(S'patients'
p1598
S'patient'
p1599
S'NNS'
p1600
S'I-NP'
p1601
g5
tp1602
a(S'because'
p1603
S'because'
p1604
S'IN'
p1605
S'B-PP'
p1606
g5
tp1607
a(S'of'
p1608
S'of'
p1609
S'IN'
p1610
S'I-PP'
p1611
g5
tp1612
a(S'disease'
p1613
S'disease'
p1614
S'NN'
p1615
S'B-NP'
p1616
g5
tp1617
a(S'progression'
p1618
S'progression'
p1619
S'NN'
p1620
S'I-NP'
p1621
g5
tp1622
a(g97
g97
g97
g5
g5
tp1623
a(S'one'
p1624
S'one'
p1625
S'CD'
p1626
S'B-NP'
p1627
g5
tp1628
a(S'patient'
p1629
S'patient'
p1630
S'NN'
p1631
S'I-NP'
p1632
g5
tp1633
a(S'withdrew'
p1634
S'withdraw'
p1635
S'VBD'
p1636
S'B-VP'
p1637
g5
tp1638
a(S'consent'
p1639
S'consent'
p1640
S'NN'
p1641
S'B-NP'
p1642
g5
tp1643
a(g97
g97
g97
g5
g5
tp1644
a(S'and'
p1645
S'and'
p1646
S'CC'
p1647
g5
g5
tp1648
a(S'three'
p1649
S'three'
p1650
S'CD'
p1651
S'B-NP'
p1652
g5
tp1653
a(S'patients'
p1654
S'patient'
p1655
S'NNS'
p1656
S'I-NP'
p1657
g5
tp1658
a(S'were'
p1659
S'be'
p1660
S'VBD'
p1661
S'B-VP'
p1662
g5
tp1663
a(S'not'
p1664
S'not'
p1665
S'RB'
p1666
S'I-VP'
p1667
g5
tp1668
a(S'consented'
p1669
S'consent'
p1670
S'VBN'
p1671
S'I-VP'
p1672
g5
tp1673
a(S'at'
p1674
S'at'
p1675
S'IN'
p1676
S'B-PP'
p1677
g5
tp1678
a(S'the'
p1679
S'the'
p1680
S'DT'
p1681
S'B-NP'
p1682
g5
tp1683
a(S'time'
p1684
S'time'
p1685
S'NN'
p1686
S'I-NP'
p1687
g5
tp1688
a(S'of'
p1689
S'of'
p1690
S'IN'
p1691
S'B-PP'
p1692
g5
tp1693
a(S'surgery.'
p1694
S'surgery.'
p1695
S'NN'
p1696
S'B-NP'
p1697
g5
tp1698
a(S'At'
p1699
S'At'
p1700
S'IN'
p1701
S'B-PP'
p1702
g5
tp1703
a(S'baseline'
p1704
S'baseline'
p1705
S'NN'
p1706
S'B-NP'
p1707
g5
tp1708
a(g97
g97
g97
g5
g5
tp1709
a(S'DTCs'
p1710
S'DTC'
p1711
S'NNS'
p1712
S'B-NP'
p1713
g5
tp1714
a(S'were'
p1715
S'be'
p1716
S'VBD'
p1717
S'B-VP'
p1718
g5
tp1719
a(S'detected'
p1720
S'detect'
p1721
S'VBN'
p1722
S'I-VP'
p1723
g5
tp1724
a(S'in'
p1725
S'in'
p1726
S'IN'
p1727
S'B-PP'
p1728
g5
tp1729
a(S'26'
p1730
S'26'
p1731
S'CD'
p1732
S'B-NP'
p1733
g5
tp1734
a(S'of'
p1735
S'of'
p1736
S'IN'
p1737
S'B-PP'
p1738
g5
tp1739
a(S'60'
p1740
S'60'
p1741
S'CD'
p1742
S'B-NP'
p1743
g5
tp1744
a(S'patients'
p1745
S'patient'
p1746
S'NNS'
p1747
S'I-NP'
p1748
g5
tp1749
a(S'in'
p1750
S'in'
p1751
S'IN'
p1752
S'B-PP'
p1753
g5
tp1754
a(S'the'
p1755
S'the'
p1756
S'DT'
p1757
S'B-NP'
p1758
g5
tp1759
a(S'zoledronic'
p1760
S'zoledronic'
p1761
S'JJ'
p1762
S'I-NP'
p1763
g5
tp1764
a(S'acid'
p1765
S'acid'
p1766
S'NN'
p1767
S'I-NP'
p1768
g5
tp1769
a(S'group'
p1770
S'group'
p1771
S'NN'
p1772
S'I-NP'
p1773
g5
tp1774
a(S'and'
p1775
S'and'
p1776
S'CC'
p1777
g5
g5
tp1778
a(S'28'
p1779
S'28'
p1780
S'CD'
p1781
S'B-NP'
p1782
g5
tp1783
a(S'of'
p1784
S'of'
p1785
S'IN'
p1786
S'B-PP'
p1787
g5
tp1788
a(S'58'
p1789
S'58'
p1790
S'CD'
p1791
S'B-NP'
p1792
g5
tp1793
a(S'patients'
p1794
S'patient'
p1795
S'NNS'
p1796
S'I-NP'
p1797
g5
tp1798
a(S'in'
p1799
S'in'
p1800
S'IN'
p1801
S'B-PP'
p1802
g5
tp1803
a(S'the'
p1804
S'the'
p1805
S'DT'
p1806
S'B-NP'
p1807
g5
tp1808
a(S'control'
p1809
S'control'
p1810
S'NN'
p1811
S'I-NP'
p1812
g5
tp1813
a(S'group.'
p1814
S'group.'
p1815
S'NN'
p1816
S'I-NP'
p1817
g5
tp1818
a(S'At'
p1819
S'At'
p1820
S'IN'
p1821
S'B-PP'
p1822
g5
tp1823
a(g745
g745
S'CD'
p1824
S'B-NP'
p1825
g5
tp1826
a(S'months'
p1827
S'month'
p1828
S'NNS'
p1829
S'I-NP'
p1830
g5
tp1831
a(g97
g97
g97
g5
g5
tp1832
a(S'17'
p1833
S'17'
p1834
S'CD'
p1835
S'B-NP'
p1836
g5
tp1837
a(S'of'
p1838
S'of'
p1839
S'IN'
p1840
S'B-PP'
p1841
g5
tp1842
a(S'56'
p1843
S'56'
p1844
S'CD'
p1845
S'B-NP'
p1846
g5
tp1847
a(S'patients'
p1848
S'patient'
p1849
S'NNS'
p1850
S'I-NP'
p1851
g5
tp1852
a(S'receiving'
p1853
S'receive'
p1854
S'VBG'
p1855
S'B-VP'
p1856
g5
tp1857
a(S'zoledronic'
p1858
S'zoledronic'
p1859
S'JJ'
p1860
S'B-NP'
p1861
g5
tp1862
a(S'acid'
p1863
S'acid'
p1864
S'NN'
p1865
S'I-NP'
p1866
g5
tp1867
a(S'versus'
p1868
S'versus'
p1869
S'IN'
p1870
S'B-PP'
p1871
g5
tp1872
a(S'25'
p1873
S'25'
p1874
S'CD'
p1875
S'B-NP'
p1876
g5
tp1877
a(S'of'
p1878
S'of'
p1879
S'IN'
p1880
S'B-PP'
p1881
g5
tp1882
a(S'53'
p1883
S'53'
p1884
S'CD'
p1885
S'B-NP'
p1886
g5
tp1887
a(S'patients'
p1888
S'patient'
p1889
S'NNS'
p1890
S'I-NP'
p1891
g5
tp1892
a(S'who'
p1893
S'who'
p1894
S'WP'
p1895
S'B-NP'
p1896
g5
tp1897
a(S'did'
p1898
S'do'
p1899
S'VBD'
p1900
S'B-VP'
p1901
g5
tp1902
a(S'not'
p1903
S'not'
p1904
S'RB'
p1905
S'I-VP'
p1906
g5
tp1907
a(S'receive'
p1908
S'receive'
p1909
S'VB'
p1910
S'I-VP'
p1911
g5
tp1912
a(S'zoledronic'
p1913
S'zoledronic'
p1914
S'JJ'
p1915
S'B-NP'
p1916
g5
tp1917
a(S'acid'
p1918
S'acid'
p1919
S'NN'
p1920
S'I-NP'
p1921
g5
tp1922
a(S'had'
p1923
S'have'
p1924
S'VBD'
p1925
S'B-VP'
p1926
g5
tp1927
a(S'detectable'
p1928
S'detectable'
p1929
S'JJ'
p1930
S'B-NP'
p1931
g5
tp1932
a(S'DTCs'
p1933
S'DTC'
p1934
S'NNS'
p1935
S'I-NP'
p1936
g5
tp1937
a(g301
g301
g301
g5
g5
tp1938
a(S'p=0.054'
p1939
S'p=0.054'
p1940
S'NN'
p1941
S'B-NP'
p1942
g5
tp1943
a(g309
g309
g309
g5
g5
tp1944
a(g119
g119
g119
g5
g5
tp1945
a(S'The'
p1946
S'The'
p1947
S'DT'
p1948
S'B-NP'
p1949
g5
tp1950
a(S'most'
p1951
S'most'
p1952
S'RBS'
p1953
S'I-NP'
p1954
g5
tp1955
a(S'common'
p1956
S'common'
p1957
S'JJ'
p1958
S'I-NP'
p1959
g5
tp1960
a(S'grade'
p1961
S'grade'
p1962
S'NN'
p1963
S'I-NP'
p1964
g5
tp1965
a(S'3-4'
p1966
S'3-4'
p1967
S'CD'
p1968
S'B-NP'
p1969
g5
tp1970
a(S'toxicities'
p1971
S'toxicity'
p1972
S'NNS'
p1973
S'I-NP'
p1974
g5
tp1975
a(S'were'
p1976
S'be'
p1977
S'VBD'
p1978
S'B-VP'
p1979
g5
tp1980
a(S'infection'
p1981
S'infection'
p1982
S'NN'
p1983
S'B-NP'
p1984
g5
tp1985
a(g301
g301
g301
g5
g5
tp1986
a(S'five'
p1987
S'five'
p1988
S'CD'
p1989
S'B-NP'
p1990
g5
tp1991
a(S'of'
p1992
S'of'
p1993
S'IN'
p1994
S'B-PP'
p1995
g5
tp1996
a(S'60'
p1997
S'60'
p1998
S'CD'
p1999
S'B-NP'
p2000
g5
tp2001
a(S'patients'
p2002
S'patient'
p2003
S'NNS'
p2004
S'I-NP'
p2005
g5
tp2006
a(S'in'
p2007
S'in'
p2008
S'IN'
p2009
S'B-PP'
p2010
g5
tp2011
a(S'the'
p2012
S'the'
p2013
S'DT'
p2014
S'B-NP'
p2015
g5
tp2016
a(S'zoledronic'
p2017
S'zoledronic'
p2018
S'JJ'
p2019
S'I-NP'
p2020
g5
tp2021
a(S'acid'
p2022
S'acid'
p2023
S'NN'
p2024
S'I-NP'
p2025
g5
tp2026
a(S'group'
p2027
S'group'
p2028
S'NN'
p2029
S'I-NP'
p2030
g5
tp2031
a(S'and'
p2032
S'and'
p2033
S'CC'
p2034
g5
g5
tp2035
a(S'six'
p2036
S'six'
p2037
S'CD'
p2038
S'B-NP'
p2039
g5
tp2040
a(S'of'
p2041
S'of'
p2042
S'IN'
p2043
S'B-PP'
p2044
g5
tp2045
a(S'59'
p2046
S'59'
p2047
S'CD'
p2048
S'B-NP'
p2049
g5
tp2050
a(S'in'
p2051
S'in'
p2052
S'IN'
p2053
S'B-PP'
p2054
g5
tp2055
a(S'the'
p2056
S'the'
p2057
S'DT'
p2058
S'B-NP'
p2059
g5
tp2060
a(S'control'
p2061
S'control'
p2062
S'NN'
p2063
S'I-NP'
p2064
g5
tp2065
a(S'group'
p2066
S'group'
p2067
S'NN'
p2068
S'I-NP'
p2069
g5
tp2070
a(g309
g309
g309
g5
g5
tp2071
a(S'and'
p2072
S'and'
p2073
S'CC'
p2074
g5
g5
tp2075
a(S'thrombosis'
p2076
S'thrombosis'
p2077
S'NN'
p2078
S'B-NP'
p2079
g5
tp2080
a(g301
g301
g301
g5
g5
tp2081
a(S'five'
p2082
S'five'
p2083
S'CD'
p2084
S'B-NP'
p2085
g5
tp2086
a(S'of'
p2087
S'of'
p2088
S'IN'
p2089
S'B-PP'
p2090
g5
tp2091
a(S'60'
p2092
S'60'
p2093
S'CD'
p2094
S'B-NP'
p2095
g5
tp2096
a(S'in'
p2097
S'in'
p2098
S'IN'
p2099
S'B-PP'
p2100
g5
tp2101
a(S'the'
p2102
S'the'
p2103
S'DT'
p2104
S'B-NP'
p2105
g5
tp2106
a(S'zoledronic'
p2107
S'zoledronic'
p2108
S'JJ'
p2109
S'I-NP'
p2110
g5
tp2111
a(S'acid'
p2112
S'acid'
p2113
S'NN'
p2114
S'I-NP'
p2115
g5
tp2116
a(S'and'
p2117
S'and'
p2118
S'CC'
p2119
g5
g5
tp2120
a(S'two'
p2121
S'two'
p2122
S'CD'
p2123
S'B-NP'
p2124
g5
tp2125
a(S'of'
p2126
S'of'
p2127
S'IN'
p2128
S'B-PP'
p2129
g5
tp2130
a(S'59'
p2131
S'59'
p2132
S'CD'
p2133
S'B-NP'
p2134
g5
tp2135
a(S'in'
p2136
S'in'
p2137
S'IN'
p2138
S'B-PP'
p2139
g5
tp2140
a(S'the'
p2141
S'the'
p2142
S'DT'
p2143
S'B-NP'
p2144
g5
tp2145
a(S'control'
p2146
S'control'
p2147
S'NN'
p2148
S'I-NP'
p2149
g5
tp2150
a(S'group'
p2151
S'group'
p2152
S'NN'
p2153
S'I-NP'
p2154
g5
tp2155
a(g309
g309
g309
g5
g5
tp2156
a(g119
g119
g119
g5
g5
tp2157
a(S'There'
p2158
S'There'
p2159
S'EX'
p2160
S'B-NP'
p2161
g5
tp2162
a(S'was'
p2163
S'be'
p2164
S'VBD'
p2165
S'B-VP'
p2166
g5
tp2167
a(S'one'
p2168
S'one'
p2169
S'CD'
p2170
S'B-NP'
p2171
g5
tp2172
a(S'documented'
p2173
S'document'
p2174
S'VBN'
p2175
S'I-NP'
p2176
g5
tp2177
a(S'case'
p2178
S'case'
p2179
S'NN'
p2180
S'I-NP'
p2181
g5
tp2182
a(S'of'
p2183
S'of'
p2184
S'IN'
p2185
S'B-PP'
p2186
g5
tp2187
a(S'osteonecrosis'
p2188
S'osteonecrosis'
p2189
S'NN'
p2190
S'B-NP'
p2191
g5
tp2192
a(S'in'
p2193
S'in'
p2194
S'IN'
p2195
S'B-PP'
p2196
g5
tp2197
a(S'the'
p2198
S'the'
p2199
S'DT'
p2200
S'B-NP'
p2201
g5
tp2202
a(S'zoledronic'
p2203
S'zoledronic'
p2204
S'JJ'
p2205
S'I-NP'
p2206
g5
tp2207
a(S'acid'
p2208
S'acid'
p2209
S'NN'
p2210
S'I-NP'
p2211
g5
tp2212
a(S'group'
p2213
S'group'
p2214
S'NN'
p2215
S'I-NP'
p2216
g5
tp2217
a(g119
g119
g119
g5
g5
tp2218
a(S'INTERPRETATION'
p2219
S'INTERPRETATION'
p2220
S'NN'
p2221
S'B-NP'
p2222
g5
tp2223
a(S'Zoledronic'
p2224
S'Zoledronic'
p2225
S'JJ'
p2226
S'I-NP'
p2227
g5
tp2228
a(S'acid'
p2229
S'acid'
p2230
S'NN'
p2231
S'I-NP'
p2232
g5
tp2233
a(S'administered'
p2234
S'administer'
p2235
S'VBN'
p2236
S'B-VP'
p2237
g5
tp2238
a(S'with'
p2239
S'with'
p2240
S'IN'
p2241
S'B-PP'
p2242
g5
tp2243
a(S'chemotherapy'
p2244
S'chemotherapy'
p2245
S'NN'
p2246
S'B-NP'
p2247
g5
tp2248
a(S'resulted'
p2249
S'result'
p2250
S'VBD'
p2251
S'B-VP'
p2252
g5
tp2253
a(S'in'
p2254
S'in'
p2255
S'IN'
p2256
S'B-PP'
p2257
g5
tp2258
a(g476
g476
S'DT'
p2259
S'B-NP'
p2260
g5
tp2261
a(S'decreased'
p2262
S'decrease'
p2263
S'VBN'
p2264
S'I-NP'
p2265
g5
tp2266
a(S'proportion'
p2267
S'proportion'
p2268
S'NN'
p2269
S'I-NP'
p2270
g5
tp2271
a(S'of'
p2272
S'of'
p2273
S'IN'
p2274
S'B-PP'
p2275
g5
tp2276
a(S'patients'
p2277
S'patient'
p2278
S'NNS'
p2279
S'B-NP'
p2280
g5
tp2281
a(S'with'
p2282
S'with'
p2283
S'IN'
p2284
S'B-PP'
p2285
g5
tp2286
a(S'DTCs'
p2287
S'DTC'
p2288
S'NNS'
p2289
S'B-NP'
p2290
g5
tp2291
a(S'detected'
p2292
S'detect'
p2293
S'VBN'
p2294
S'B-VP'
p2295
g5
tp2296
a(S'in'
p2297
S'in'
p2298
S'IN'
p2299
S'B-PP'
p2300
g5
tp2301
a(S'the'
p2302
S'the'
p2303
S'DT'
p2304
S'B-NP'
p2305
g5
tp2306
a(S'bone'
p2307
S'bone'
p2308
S'NN'
p2309
S'I-NP'
p2310
g5
tp2311
a(S'marrow'
p2312
S'marrow'
p2313
S'NN'
p2314
S'I-NP'
p2315
g5
tp2316
a(S'at'
p2317
S'at'
p2318
S'IN'
p2319
S'B-PP'
p2320
g5
tp2321
a(S'the'
p2322
S'the'
p2323
S'DT'
p2324
S'B-NP'
p2325
g5
tp2326
a(S'time'
p2327
S'time'
p2328
S'NN'
p2329
S'I-NP'
p2330
g5
tp2331
a(S'of'
p2332
S'of'
p2333
S'IN'
p2334
S'B-PP'
p2335
g5
tp2336
a(S'surgery.'
p2337
S'surgery.'
p2338
S'NN'
p2339
S'B-NP'
p2340
g5
tp2341
a(S'Our'
p2342
S'Our'
p2343
S'PRP$'
p2344
S'B-NP'
p2345
g5
tp2346
a(S'study'
p2347
S'study'
p2348
S'NN'
p2349
S'I-NP'
p2350
g5
tp2351
a(S'supports'
p2352
S'support'
p2353
S'VBZ'
p2354
S'B-VP'
p2355
g5
tp2356
a(S'the'
p2357
S'the'
p2358
S'DT'
p2359
S'B-NP'
p2360
g5
tp2361
a(S'hypothesis'
p2362
S'hypothesis'
p2363
S'NN'
p2364
S'I-NP'
p2365
g5
tp2366
a(S'that'
p2367
S'that'
p2368
S'IN'
p2369
S'B-SBAR'
p2370
g5
tp2371
a(S'the'
p2372
S'the'
p2373
S'DT'
p2374
S'B-NP'
p2375
g5
tp2376
a(S'antimetastatic'
p2377
S'antimetastatic'
p2378
S'JJ'
p2379
S'I-NP'
p2380
g5
tp2381
a(S'effects'
p2382
S'effect'
p2383
S'NNS'
p2384
S'I-NP'
p2385
g5
tp2386
a(S'of'
p2387
S'of'
p2388
S'IN'
p2389
S'B-PP'
p2390
g5
tp2391
a(S'zoledronic'
p2392
S'zoledronic'
p2393
S'JJ'
p2394
S'B-NP'
p2395
g5
tp2396
a(S'acid'
p2397
S'acid'
p2398
S'NN'
p2399
S'I-NP'
p2400
g5
tp2401
a(S'may'
p2402
S'may'
p2403
S'MD'
p2404
S'B-VP'
p2405
g5
tp2406
a(S'be'
p2407
S'be'
p2408
S'VB'
p2409
S'I-VP'
p2410
g5
tp2411
a(S'through'
p2412
S'through'
p2413
S'IN'
p2414
S'B-PP'
p2415
g5
tp2416
a(S'effects'
p2417
S'effect'
p2418
S'NNS'
p2419
S'B-NP'
p2420
g5
tp2421
a(S'on'
p2422
S'on'
p2423
S'IN'
p2424
S'B-PP'
p2425
g5
tp2426
a(S'DTCs'
p2427
S'DTC'
p2428
S'NNS'
p2429
S'B-NP'
p2430
S'B-cell_type'
p2431
tp2432
a(g119
g119
g119
g5
g5
tp2433
a(S'FUNDING'
p2434
S'FUNDING'
p2435
S'VBG'
p2436
S'B-VP'
p2437
g5
tp2438
a(S'Novartis'
p2439
S'Novartis'
p2440
S'NNP'
p2441
S'B-NP'
p2442
g5
tp2443
a(S'Pharmaceuticals'
p2444
S'Pharmaceuticals'
p2445
S'NNP'
p2446
S'I-NP'
p2447
g5
tp2448
a(S'and'
p2449
S'and'
p2450
S'CC'
p2451
g5
g5
tp2452
a(S'Pfizer'
p2453
S'Pfizer'
p2454
S'NNP'
p2455
S'B-NP'
p2456
g5
tp2457
a(S'Inc'
p2458
S'Inc'
p2459
S'NNP'
p2460
S'I-NP'
p2461
g5
tp2462
a(g119
g119
g119
g5
g5
tp2463
a.