(lp0
(S'Population'
p1
S'Population'
p2
S'NN'
p3
S'B-NP'
p4
S'O'
p5
tp6
a(S'pharmacokinetic/pharmacodynamic'
p7
S'pharmacokinetic/pharmacodynamic'
p8
S'JJ'
p9
S'I-NP'
p10
g5
tp11
a(S'analysis'
p12
S'analysis'
p13
S'NN'
p14
S'I-NP'
p15
g5
tp16
a(S'of'
p17
S'of'
p18
S'IN'
p19
S'B-PP'
p20
g5
tp21
a(S'the'
p22
S'the'
p23
S'DT'
p24
S'B-NP'
p25
g5
tp26
a(S'DPP-4'
p27
S'DPP-4'
p28
S'NN'
p29
S'I-NP'
p30
S'B-protein'
p31
tp32
a(S'inhibitor'
p33
S'inhibitor'
p34
S'NN'
p35
S'I-NP'
p36
g5
tp37
a(S'linagliptin'
p38
S'linagliptin'
p39
S'NN'
p40
S'I-NP'
p41
g5
tp42
a(S'in'
p43
S'in'
p44
S'IN'
p45
S'B-PP'
p46
g5
tp47
a(S'Japanese'
p48
S'Japanese'
p49
S'JJ'
p50
S'B-NP'
p51
g5
tp52
a(S'patients'
p53
S'patient'
p54
S'NNS'
p55
S'I-NP'
p56
g5
tp57
a(S'with'
p58
S'with'
p59
S'IN'
p60
S'B-PP'
p61
g5
tp62
a(S'type'
p63
S'type'
p64
S'NN'
p65
S'B-NP'
p66
g5
tp67
a(S'2'
p68
g68
S'CD'
p69
S'I-NP'
p70
g5
tp71
a(S'diabetes'
p72
S'diabetes'
p73
S'NN'
p74
S'I-NP'
p75
g5
tp76
a(S'mellitus'
p77
S'mellitus'
p78
S'NN'
p79
S'I-NP'
p80
g5
tp81
a(S'.'
p82
g82
g82
g5
g5
tp83
a(S'OBJECTIVES'
p84
S'OBJECTIVES'
p85
S'NNS'
p86
S'B-NP'
p87
S'B-protein'
p88
tp89
a(S'Linagliptin'
p90
S'Linagliptin'
p91
S'NN'
p92
S'I-NP'
p93
S'I-protein'
p94
tp95
a(S'is'
p96
S'be'
p97
S'VBZ'
p98
S'B-VP'
p99
g5
tp100
a(S'a'
p101
g101
S'DT'
p102
S'B-NP'
p103
g5
tp104
a(S'novel'
p105
S'novel'
p106
S'JJ'
p107
S'I-NP'
p108
g5
tp109
a(S','
p110
g110
g110
S'I-NP'
p111
g5
tp112
a(S'highly'
p113
S'highly'
p114
S'RB'
p115
S'I-NP'
p116
g5
tp117
a(S'selective'
p118
S'selective'
p119
S'JJ'
p120
S'I-NP'
p121
g5
tp122
a(S'and'
p123
S'and'
p124
S'CC'
p125
S'I-NP'
p126
g5
tp127
a(S'long'
p128
S'long'
p129
S'JJ'
p130
S'I-NP'
p131
g5
tp132
a(S'acting'
p133
S'act'
p134
S'VBG'
p135
S'I-NP'
p136
g5
tp137
a(S'DPP-4'
p138
S'DPP-4'
p139
S'NN'
p140
S'I-NP'
p141
S'B-protein'
p142
tp143
a(S'inhibitor'
p144
S'inhibitor'
p145
S'NN'
p146
S'I-NP'
p147
g5
tp148
a(S'for'
p149
S'for'
p150
S'IN'
p151
S'B-PP'
p152
g5
tp153
a(S'the'
p154
S'the'
p155
S'DT'
p156
S'B-NP'
p157
g5
tp158
a(S'treatment'
p159
S'treatment'
p160
S'NN'
p161
S'I-NP'
p162
g5
tp163
a(S'of'
p164
S'of'
p165
S'IN'
p166
S'B-PP'
p167
g5
tp168
a(S'type'
p169
S'type'
p170
S'NN'
p171
S'B-NP'
p172
g5
tp173
a(g68
g68
S'CD'
p174
S'I-NP'
p175
g5
tp176
a(S'diabetes'
p177
S'diabetes'
p178
S'NN'
p179
S'I-NP'
p180
g5
tp181
a(S'mellitus'
p182
S'mellitus'
p183
S'NN'
p184
S'I-NP'
p185
g5
tp186
a(S'('
p187
g187
g187
g5
g5
tp188
a(S'T2DM'
p189
S'T2DM'
p190
S'NN'
p191
S'B-NP'
p192
g5
tp193
a(S')'
p194
g194
g194
g5
g5
tp195
a(g82
g82
g82
g5
g5
tp196
a(S'Linagliptin'
p197
S'Linagliptin'
p198
S'NN'
p199
S'B-NP'
p200
S'B-protein'
p201
tp202
a(S'exhibits'
p203
S'exhibit'
p204
S'VBZ'
p205
S'B-VP'
p206
g5
tp207
a(S'non-linear'
p208
S'non-linear'
p209
S'JJ'
p210
S'B-NP'
p211
g5
tp212
a(S'pharmacokinetics'
p213
S'pharmacokinetic'
p214
S'NNS'
p215
S'I-NP'
p216
g5
tp217
a(g187
g187
g187
g5
g5
tp218
a(S'PK'
p219
S'PK'
p220
S'NN'
p221
S'B-NP'
p222
S'B-protein'
p223
tp224
a(g194
g194
g194
g5
g5
tp225
a(S'due'
p226
S'due'
p227
S'JJ'
p228
S'B-PP'
p229
g5
tp230
a(S'to'
p231
S'to'
p232
S'TO'
p233
S'B-PP'
p234
g5
tp235
a(S'saturable'
p236
S'saturable'
p237
S'JJ'
p238
S'B-NP'
p239
g5
tp240
a(S'binding'
p241
S'binding'
p242
S'NN'
p243
S'I-NP'
p244
g5
tp245
a(S'to'
p246
S'to'
p247
S'TO'
p248
S'B-PP'
p249
g5
tp250
a(S'plasma'
p251
S'plasma'
p252
S'NN'
p253
S'B-NP'
p254
g5
tp255
a(S'and'
p256
S'and'
p257
S'CC'
p258
S'I-NP'
p259
g5
tp260
a(S'tissue'
p261
S'tissue'
p262
S'NN'
p263
S'I-NP'
p264
g5
tp265
a(S'DPP-4.'
p266
S'DPP-4.'
p267
S'NN'
p268
S'I-NP'
p269
g5
tp270
a(S'The'
p271
S'The'
p272
S'DT'
p273
S'B-NP'
p274
g5
tp275
a(S'aim'
p276
S'aim'
p277
S'NN'
p278
S'I-NP'
p279
g5
tp280
a(S'of'
p281
S'of'
p282
S'IN'
p283
S'B-PP'
p284
g5
tp285
a(S'this'
p286
S'this'
p287
S'DT'
p288
S'B-NP'
p289
g5
tp290
a(S'study'
p291
S'study'
p292
S'NN'
p293
S'I-NP'
p294
g5
tp295
a(S'was'
p296
S'be'
p297
S'VBD'
p298
S'B-VP'
p299
g5
tp300
a(S'to'
p301
S'to'
p302
S'TO'
p303
S'B-VP'
p304
g5
tp305
a(S'characterize'
p306
S'characterize'
p307
S'VB'
p308
S'I-VP'
p309
g5
tp310
a(S'the'
p311
S'the'
p312
S'DT'
p313
S'B-NP'
p314
g5
tp315
a(S'PK'
p316
S'PK'
p317
S'NN'
p318
S'I-NP'
p319
S'B-protein'
p320
tp321
a(S'and'
p322
S'and'
p323
S'CC'
p324
S'I-NP'
p325
g5
tp326
a(S'PK/DPP-4'
p327
S'PK/DPP-4'
p328
S'NN'
p329
S'I-NP'
p330
S'B-protein'
p331
tp332
a(S'inhibition'
p333
S'inhibition'
p334
S'NN'
p335
S'I-NP'
p336
g5
tp337
a(S'relationship'
p338
S'relationship'
p339
S'NN'
p340
S'I-NP'
p341
g5
tp342
a(S'of'
p343
S'of'
p344
S'IN'
p345
S'B-PP'
p346
g5
tp347
a(S'linagliptin'
p348
S'linagliptin'
p349
S'NN'
p350
S'B-NP'
p351
S'B-protein'
p352
tp353
a(S'in'
p354
S'in'
p355
S'IN'
p356
S'B-PP'
p357
g5
tp358
a(S'Japanese'
p359
S'Japanese'
p360
S'JJ'
p361
S'B-NP'
p362
g5
tp363
a(S'patients'
p364
S'patient'
p365
S'NNS'
p366
S'I-NP'
p367
g5
tp368
a(S'with'
p369
S'with'
p370
S'IN'
p371
S'B-PP'
p372
g5
tp373
a(S'T2DM'
p374
S'T2DM'
p375
S'NN'
p376
S'B-NP'
p377
g5
tp378
a(S'using'
p379
S'use'
p380
S'VBG'
p381
S'B-VP'
p382
g5
tp383
a(g101
g101
S'DT'
p384
S'B-NP'
p385
g5
tp386
a(S'population'
p387
S'population'
p388
S'NN'
p389
S'I-NP'
p390
g5
tp391
a(S'PK/DPP-4'
p392
S'PK/DPP-4'
p393
S'NN'
p394
S'I-NP'
p395
g5
tp396
a(S'model'
p397
S'model'
p398
S'NN'
p399
S'I-NP'
p400
g5
tp401
a(S'and'
p402
S'and'
p403
S'CC'
p404
g5
g5
tp405
a(S'to'
p406
S'to'
p407
S'TO'
p408
S'B-VP'
p409
g5
tp410
a(S'support'
p411
S'support'
p412
S'VB'
p413
S'I-VP'
p414
g5
tp415
a(S'the'
p416
S'the'
p417
S'DT'
p418
S'B-NP'
p419
g5
tp420
a(S'rationale'
p421
S'rationale'
p422
S'NN'
p423
S'I-NP'
p424
g5
tp425
a(S'for'
p426
S'for'
p427
S'IN'
p428
S'B-PP'
p429
g5
tp430
a(S'the'
p431
S'the'
p432
S'DT'
p433
S'B-NP'
p434
g5
tp435
a(S'therapeutic'
p436
S'therapeutic'
p437
S'JJ'
p438
S'I-NP'
p439
g5
tp440
a(S'dose'
p441
S'dose'
p442
S'NN'
p443
S'I-NP'
p444
g5
tp445
a(S'in'
p446
S'in'
p447
S'IN'
p448
S'B-PP'
p449
g5
tp450
a(S'Japanese'
p451
S'Japanese'
p452
S'JJ'
p453
S'B-NP'
p454
g5
tp455
a(S'patients'
p456
S'patient'
p457
S'NNS'
p458
S'I-NP'
p459
g5
tp460
a(S'by'
p461
S'by'
p462
S'IN'
p463
S'B-PP'
p464
g5
tp465
a(S'simulation'
p466
S'simulation'
p467
S'NN'
p468
S'B-NP'
p469
g5
tp470
a(g82
g82
g82
g5
g5
tp471
a(S'METHODS'
p472
S'METHODS'
p473
S'NNS'
p474
S'B-NP'
p475
g5
tp476
a(S'Linagliptin'
p477
S'Linagliptin'
p478
S'NN'
p479
S'I-NP'
p480
g5
tp481
a(S'plasma'
p482
S'plasma'
p483
S'NN'
p484
S'I-NP'
p485
g5
tp486
a(S'concentration'
p487
S'concentration'
p488
S'NN'
p489
S'I-NP'
p490
g5
tp491
a(S'and'
p492
S'and'
p493
S'CC'
p494
g5
g5
tp495
a(S'DPP-4'
p496
S'DPP-4'
p497
S'NN'
p498
S'B-NP'
p499
S'B-protein'
p500
tp501
a(S'inhibition'
p502
S'inhibition'
p503
S'NN'
p504
S'I-NP'
p505
g5
tp506
a(S'measurements'
p507
S'measurement'
p508
S'NNS'
p509
S'I-NP'
p510
g5
tp511
a(S'from'
p512
S'from'
p513
S'IN'
p514
S'B-PP'
p515
g5
tp516
a(g101
g101
S'DT'
p517
S'B-NP'
p518
g5
tp519
a(S'placebo-controlled'
p520
S'placebo-controlled'
p521
S'JJ'
p522
S'I-NP'
p523
g5
tp524
a(g110
g110
g110
S'I-NP'
p525
g5
tp526
a(S'parallel'
p527
S'parallel'
p528
S'JJ'
p529
S'I-NP'
p530
g5
tp531
a(S'group'
p532
S'group'
p533
S'NN'
p534
S'I-NP'
p535
g5
tp536
a(S'multiple'
p537
S'multiple'
p538
S'JJ'
p539
S'B-ADJP'
p540
g5
tp541
a(g187
g187
g187
g5
g5
tp542
a(S'28'
p543
S'28'
p544
S'CD'
p545
S'B-NP'
p546
g5
tp547
a(S'days'
p548
S'day'
p549
S'NNS'
p550
S'I-NP'
p551
g5
tp552
a(g194
g194
g194
g5
g5
tp553
a(S'dose'
p554
S'dose'
p555
S'NN'
p556
S'B-NP'
p557
g5
tp558
a(S'trial'
p559
S'trial'
p560
S'NN'
p561
S'I-NP'
p562
g5
tp563
a(S'that'
p564
S'that'
p565
S'WDT'
p566
S'B-NP'
p567
g5
tp568
a(S'included'
p569
S'include'
p570
S'VBD'
p571
S'B-VP'
p572
g5
tp573
a(S'36'
p574
S'36'
p575
S'CD'
p576
S'B-NP'
p577
g5
tp578
a(S'T2DM'
p579
S'T2DM'
p580
S'NN'
p581
S'I-NP'
p582
g5
tp583
a(S'patients'
p584
S'patient'
p585
S'NNS'
p586
S'I-NP'
p587
g5
tp588
a(g187
g187
g187
g5
g5
tp589
a(S'18'
p590
S'18'
p591
S'CD'
p592
S'B-NP'
p593
g5
tp594
a(S'patients'
p595
S'patient'
p596
S'NNS'
p597
S'I-NP'
p598
g5
tp599
a(S'each'
p600
S'each'
p601
S'DT'
p602
S'B-NP'
p603
g5
tp604
a(S'in'
p605
S'in'
p606
S'IN'
p607
S'B-PP'
p608
g5
tp609
a(S'2.5'
p610
S'2.5'
p611
S'CD'
p612
S'B-NP'
p613
g5
tp614
a(S'mg'
p615
S'mg'
p616
S'NN'
p617
S'I-NP'
p618
g5
tp619
a(S'and'
p620
S'and'
p621
S'CC'
p622
g5
g5
tp623
a(S'10'
p624
S'10'
p625
S'CD'
p626
S'B-NP'
p627
g5
tp628
a(S'mg'
p629
S'mg'
p630
S'NN'
p631
S'I-NP'
p632
g5
tp633
a(S'dose'
p634
S'dose'
p635
S'NN'
p636
S'I-NP'
p637
g5
tp638
a(S'group'
p639
S'group'
p640
S'NN'
p641
S'I-NP'
p642
g5
tp643
a(g194
g194
g194
g5
g5
tp644
a(S'were'
p645
S'be'
p646
S'VBD'
p647
S'B-VP'
p648
g5
tp649
a(S'used'
p650
S'use'
p651
S'VBN'
p652
S'I-VP'
p653
g5
tp654
a(S'for'
p655
S'for'
p656
S'IN'
p657
S'B-PP'
p658
g5
tp659
a(S'analysis.'
p660
S'analysis.'
p661
S'NN'
p662
S'B-NP'
p663
g5
tp664
a(S'Modeling'
p665
S'Modeling'
p666
S'NN'
p667
S'I-NP'
p668
g5
tp669
a(S'was'
p670
S'be'
p671
S'VBD'
p672
S'B-VP'
p673
g5
tp674
a(S'performed'
p675
S'perform'
p676
S'VBN'
p677
S'I-VP'
p678
g5
tp679
a(S'using'
p680
S'use'
p681
S'VBG'
p682
S'B-VP'
p683
g5
tp684
a(S'FOCE'
p685
S'FOCE'
p686
S'NN'
p687
S'B-NP'
p688
g5
tp689
a(S'INTERACTION'
p690
S'INTERACTION'
p691
S'NN'
p692
S'I-NP'
p693
g5
tp694
a(S'estimation'
p695
S'estimation'
p696
S'NN'
p697
S'I-NP'
p698
g5
tp699
a(S'method'
p700
S'method'
p701
S'NN'
p702
S'I-NP'
p703
g5
tp704
a(S'implemented'
p705
S'implement'
p706
S'VBN'
p707
S'B-VP'
p708
g5
tp709
a(S'in'
p710
S'in'
p711
S'IN'
p712
S'B-PP'
p713
g5
tp714
a(S'NONMEM'
p715
S'NONMEM'
p716
S'NNP'
p717
S'B-NP'
p718
g5
tp719
a(S'V.'
p720
S'V.'
p721
S'NNP'
p722
S'I-NP'
p723
g5
tp724
a(S'The'
p725
S'The'
p726
S'DT'
p727
S'B-NP'
p728
g5
tp729
a(S'linagliptin'
p730
S'linagliptin'
p731
S'NN'
p732
S'I-NP'
p733
g5
tp734
a(S'plasma'
p735
S'plasma'
p736
S'NN'
p737
S'I-NP'
p738
g5
tp739
a(S'concentration-'
p740
S'concentration-'
p741
S'NN'
p742
S'I-NP'
p743
g5
tp744
a(S'and'
p745
S'and'
p746
S'CC'
p747
g5
g5
tp748
a(S'DPP-4'
p749
S'DPP-4'
p750
S'NN'
p751
S'B-NP'
p752
S'B-protein'
p753
tp754
a(S'inhibition-'
p755
S'inhibition-'
p756
S'NN'
p757
S'I-NP'
p758
g5
tp759
a(S'time'
p760
S'time'
p761
S'NN'
p762
S'I-NP'
p763
g5
tp764
a(S'profiles'
p765
S'profile'
p766
S'NNS'
p767
S'I-NP'
p768
g5
tp769
a(S'were'
p770
S'be'
p771
S'VBD'
p772
S'B-VP'
p773
g5
tp774
a(S'simulated'
p775
S'simulate'
p776
S'VBN'
p777
S'I-VP'
p778
g5
tp779
a(S'for'
p780
S'for'
p781
S'IN'
p782
S'B-PP'
p783
g5
tp784
a(S'Japanese'
p785
S'Japanese'
p786
S'JJ'
p787
S'B-NP'
p788
S'B-protein'
p789
tp790
a(S'patients'
p791
S'patient'
p792
S'NNS'
p793
S'I-NP'
p794
S'I-protein'
p795
tp796
a(S'receiving'
p797
S'receive'
p798
S'VBG'
p799
S'B-VP'
p800
S'I-protein'
p801
tp802
a(S'5'
p803
g803
S'CD'
p804
S'B-NP'
p805
S'I-protein'
p806
tp807
a(S'mg'
p808
S'mg'
p809
S'NN'
p810
S'I-NP'
p811
S'I-protein'
p812
tp813
a(S'linagliptin'
p814
S'linagliptin'
p815
S'NN'
p816
S'I-NP'
p817
S'I-protein'
p818
tp819
a(S'once'
p820
S'once'
p821
S'RB'
p822
S'B-ADVP'
p823
g5
tp824
a(S'daily'
p825
S'daily'
p826
S'RB'
p827
S'I-ADVP'
p828
g5
tp829
a(S'by'
p830
S'by'
p831
S'IN'
p832
S'B-PP'
p833
g5
tp834
a(S'the'
p835
S'the'
p836
S'DT'
p837
S'B-NP'
p838
g5
tp839
a(S'model'
p840
S'model'
p841
S'NN'
p842
S'I-NP'
p843
g5
tp844
a(S'established'
p845
S'establish'
p846
S'VBN'
p847
S'B-VP'
p848
g5
tp849
a(g82
g82
g82
g5
g5
tp850
a(S'RESULTS'
p851
S'RESULTS'
p852
S'NNS'
p853
S'B-NP'
p854
g5
tp855
a(S'Nonlinear'
p856
S'Nonlinear'
p857
S'JJ'
p858
S'I-NP'
p859
g5
tp860
a(S'PK'
p861
S'PK'
p862
S'NN'
p863
S'I-NP'
p864
g5
tp865
a(S'of'
p866
S'of'
p867
S'IN'
p868
S'B-PP'
p869
g5
tp870
a(S'linagliptin'
p871
S'linagliptin'
p872
S'NN'
p873
S'B-NP'
p874
S'B-protein'
p875
tp876
a(S'in'
p877
S'in'
p878
S'IN'
p879
S'B-PP'
p880
g5
tp881
a(S'T2DM'
p882
S'T2DM'
p883
S'NN'
p884
S'B-NP'
p885
g5
tp886
a(S'patients'
p887
S'patient'
p888
S'NNS'
p889
S'I-NP'
p890
g5
tp891
a(S'were'
p892
S'be'
p893
S'VBD'
p894
S'B-VP'
p895
g5
tp896
a(S'well'
p897
S'well'
p898
S'RB'
p899
S'I-VP'
p900
g5
tp901
a(S'described'
p902
S'describe'
p903
S'VBN'
p904
S'I-VP'
p905
g5
tp906
a(S'by'
p907
S'by'
p908
S'IN'
p909
S'B-PP'
p910
g5
tp911
a(g101
g101
S'DT'
p912
S'B-NP'
p913
g5
tp914
a(S'2-compartment'
p915
S'2-compartment'
p916
S'NN'
p917
S'I-NP'
p918
g5
tp919
a(S'model'
p920
S'model'
p921
S'NN'
p922
S'I-NP'
p923
g5
tp924
a(S'assuming'
p925
S'assume'
p926
S'VBG'
p927
S'B-VP'
p928
g5
tp929
a(S'concentration-dependent'
p930
S'concentration-dependent'
p931
S'JJ'
p932
S'B-NP'
p933
g5
tp934
a(S'binding'
p935
S'binding'
p936
S'NN'
p937
S'I-NP'
p938
g5
tp939
a(S'to'
p940
S'to'
p941
S'TO'
p942
S'B-PP'
p943
g5
tp944
a(S'DPP-4'
p945
S'DPP-4'
p946
S'NN'
p947
S'B-NP'
p948
S'B-protein'
p949
tp950
a(S'in'
p951
S'in'
p952
S'IN'
p953
S'B-PP'
p954
g5
tp955
a(S'the'
p956
S'the'
p957
S'DT'
p958
S'B-NP'
p959
g5
tp960
a(S'central'
p961
S'central'
p962
S'JJ'
p963
S'I-NP'
p964
g5
tp965
a(S'and'
p966
S'and'
p967
S'CC'
p968
S'I-NP'
p969
g5
tp970
a(S'peripheral'
p971
S'peripheral'
p972
S'JJ'
p973
S'I-NP'
p974
g5
tp975
a(S'compartment.'
p976
S'compartment.'
p977
S'NN'
p978
S'I-NP'
p979
g5
tp980
a(S'Plasma'
p981
S'Plasma'
p982
S'NN'
p983
S'I-NP'
p984
g5
tp985
a(S'DPP-4'
p986
S'DPP-4'
p987
S'NN'
p988
S'I-NP'
p989
g5
tp990
a(S'inhibition'
p991
S'inhibition'
p992
S'NN'
p993
S'I-NP'
p994
g5
tp995
a(S'was'
p996
S'be'
p997
S'VBD'
p998
S'B-VP'
p999
g5
tp1000
a(S'integrated'
p1001
S'integrate'
p1002
S'VBN'
p1003
S'I-VP'
p1004
g5
tp1005
a(S'in'
p1006
S'in'
p1007
S'IN'
p1008
S'B-PP'
p1009
g5
tp1010
a(S'the'
p1011
S'the'
p1012
S'DT'
p1013
S'B-NP'
p1014
g5
tp1015
a(S'model'
p1016
S'model'
p1017
S'NN'
p1018
S'I-NP'
p1019
g5
tp1020
a(S'by'
p1021
S'by'
p1022
S'IN'
p1023
S'B-PP'
p1024
g5
tp1025
a(S'relating'
p1026
S'relate'
p1027
S'VBG'
p1028
S'B-VP'
p1029
g5
tp1030
a(S'the'
p1031
S'the'
p1032
S'DT'
p1033
S'B-NP'
p1034
g5
tp1035
a(S'model-predicted'
p1036
S'model-predicted'
p1037
S'JJ'
p1038
S'I-NP'
p1039
g5
tp1040
a(S'DPP-4'
p1041
S'DPP-4'
p1042
S'NN'
p1043
S'I-NP'
p1044
g5
tp1045
a(S'occupancy'
p1046
S'occupancy'
p1047
S'NN'
p1048
S'I-NP'
p1049
g5
tp1050
a(S'with'
p1051
S'with'
p1052
S'IN'
p1053
S'B-PP'
p1054
g5
tp1055
a(S'linagliptin'
p1056
S'linagliptin'
p1057
S'NN'
p1058
S'B-NP'
p1059
g5
tp1060
a(S'linearly'
p1061
S'linearly'
p1062
S'RB'
p1063
S'B-ADVP'
p1064
g5
tp1065
a(S'to'
p1066
S'to'
p1067
S'TO'
p1068
S'B-PP'
p1069
g5
tp1070
a(S'DPP-4'
p1071
S'DPP-4'
p1072
S'NN'
p1073
S'B-NP'
p1074
S'B-protein'
p1075
tp1076
a(S'inhibition.'
p1077
S'inhibition.'
p1078
S'IN'
p1079
S'B-PP'
p1080
g5
tp1081
a(S'The'
p1082
S'The'
p1083
S'DT'
p1084
S'B-NP'
p1085
g5
tp1086
a(S'simulation'
p1087
S'simulation'
p1088
S'NN'
p1089
S'I-NP'
p1090
g5
tp1091
a(S'predicted'
p1092
S'predict'
p1093
S'VBD'
p1094
S'B-VP'
p1095
g5
tp1096
a(S'that'
p1097
S'that'
p1098
S'IN'
p1099
S'B-SBAR'
p1100
g5
tp1101
a(S'for'
p1102
S'for'
p1103
S'IN'
p1104
S'B-PP'
p1105
g5
tp1106
a(S'the'
p1107
S'the'
p1108
S'DT'
p1109
S'B-NP'
p1110
g5
tp1111
a(g803
g803
S'CD'
p1112
S'I-NP'
p1113
g5
tp1114
a(S'mg'
p1115
S'mg'
p1116
S'NN'
p1117
S'I-NP'
p1118
g5
tp1119
a(S'dose'
p1120
S'dose'
p1121
S'NN'
p1122
S'I-NP'
p1123
g5
tp1124
a(S'group'
p1125
S'group'
p1126
S'NN'
p1127
S'I-NP'
p1128
g5
tp1129
a(S'the'
p1130
S'the'
p1131
S'DT'
p1132
S'B-NP'
p1133
g5
tp1134
a(S'trough'
p1135
S'trough'
p1136
S'NN'
p1137
S'I-NP'
p1138
g5
tp1139
a(S'DPP-4'
p1140
S'DPP-4'
p1141
S'NN'
p1142
S'I-NP'
p1143
g5
tp1144
a(S'inhibition'
p1145
S'inhibition'
p1146
S'NN'
p1147
S'I-NP'
p1148
g5
tp1149
a(S'at'
p1150
S'at'
p1151
S'IN'
p1152
S'B-PP'
p1153
g5
tp1154
a(S'steady-state'
p1155
S'steady-state'
p1156
S'JJ'
p1157
S'B-NP'
p1158
g5
tp1159
a(S'was'
p1160
S'be'
p1161
S'VBD'
p1162
S'B-VP'
p1163
g5
tp1164
a(S'84.2'
p1165
S'84.2'
p1166
S'CD'
p1167
S'B-NP'
p1168
g5
tp1169
a(S'%'
p1170
g1170
S'NN'
p1171
S'I-NP'
p1172
g5
tp1173
a(g110
g110
g110
g5
g5
tp1174
a(S'which'
p1175
S'which'
p1176
S'WDT'
p1177
S'B-NP'
p1178
g5
tp1179
a(S'is'
p1180
S'be'
p1181
S'VBZ'
p1182
S'B-VP'
p1183
g5
tp1184
a(S'higher'
p1185
S'high'
p1186
S'JJR'
p1187
S'B-ADJP'
p1188
g5
tp1189
a(S'than'
p1190
S'than'
p1191
S'IN'
p1192
S'B-PP'
p1193
g5
tp1194
a(S'the'
p1195
S'the'
p1196
S'DT'
p1197
S'B-NP'
p1198
g5
tp1199
a(S'target'
p1200
S'target'
p1201
S'NN'
p1202
S'I-NP'
p1203
g5
tp1204
a(S'inhibition'
p1205
S'inhibition'
p1206
S'NN'
p1207
S'I-NP'
p1208
g5
tp1209
a(g187
g187
g187
g5
g5
tp1210
a(S'\xe2\x89\xa580'
p1211
S'\xe2\x89\xa580'
p1212
S'CD'
p1213
S'B-NP'
p1214
g5
tp1215
a(g1170
g1170
S'NN'
p1216
S'I-NP'
p1217
g5
tp1218
a(g194
g194
g194
g5
g5
tp1219
a(S'for'
p1220
S'for'
p1221
S'IN'
p1222
S'B-PP'
p1223
g5
tp1224
a(S'an'
p1225
S'an'
p1226
S'DT'
p1227
S'B-NP'
p1228
g5
tp1229
a(S'effective'
p1230
S'effective'
p1231
S'JJ'
p1232
S'I-NP'
p1233
g5
tp1234
a(S'dose'
p1235
S'dose'
p1236
S'NN'
p1237
S'I-NP'
p1238
g5
tp1239
a(S'of'
p1240
S'of'
p1241
S'IN'
p1242
S'B-PP'
p1243
g5
tp1244
a(S'DPP-4'
p1245
S'DPP-4'
p1246
S'NN'
p1247
S'B-NP'
p1248
g5
tp1249
a(S'inhibitor.'
p1250
S'inhibitor.'
p1251
S'NN'
p1252
S'I-NP'
p1253
g5
tp1254
a(S'In'
p1255
S'In'
p1256
S'IN'
p1257
S'B-PP'
p1258
g5
tp1259
a(S'2.5'
p1260
S'2.5'
p1261
S'CD'
p1262
S'B-NP'
p1263
g5
tp1264
a(S'mg'
p1265
S'mg'
p1266
S'NN'
p1267
S'I-NP'
p1268
g5
tp1269
a(S'dose'
p1270
S'dose'
p1271
S'NN'
p1272
S'I-NP'
p1273
g5
tp1274
a(S'group'
p1275
S'group'
p1276
S'NN'
p1277
S'I-NP'
p1278
g5
tp1279
a(g110
g110
g110
g5
g5
tp1280
a(S'steady-state'
p1281
S'steady-state'
p1282
S'JJ'
p1283
S'B-NP'
p1284
g5
tp1285
a(S'DPP-4'
p1286
S'DPP-4'
p1287
S'NN'
p1288
S'I-NP'
p1289
g5
tp1290
a(S'inhibition'
p1291
S'inhibition'
p1292
S'NN'
p1293
S'I-NP'
p1294
g5
tp1295
a(S'of'
p1296
S'of'
p1297
S'IN'
p1298
S'B-PP'
p1299
g5
tp1300
a(S'>'
p1301
g1301
S'JJR'
p1302
S'B-NP'
p1303
g5
tp1304
a(S'80'
p1305
S'80'
p1306
S'CD'
p1307
S'I-NP'
p1308
g5
tp1309
a(g1170
g1170
S'NN'
p1310
S'I-NP'
p1311
g5
tp1312
a(S'was'
p1313
S'be'
p1314
S'VBD'
p1315
S'B-VP'
p1316
g5
tp1317
a(S'not'
p1318
S'not'
p1319
S'RB'
p1320
S'I-VP'
p1321
g5
tp1322
a(S'maintained'
p1323
S'maintain'
p1324
S'VBN'
p1325
S'I-VP'
p1326
g5
tp1327
a(S'over'
p1328
S'over'
p1329
S'IN'
p1330
S'B-NP'
p1331
g5
tp1332
a(S'24'
p1333
S'24'
p1334
S'CD'
p1335
S'I-NP'
p1336
g5
tp1337
a(S'hours'
p1338
S'hour'
p1339
S'NNS'
p1340
S'I-NP'
p1341
g5
tp1342
a(g187
g187
g187
g5
g5
tp1343
a(S'observed'
p1344
S'observe'
p1345
S'VBN'
p1346
S'B-VP'
p1347
g5
tp1348
a(S'and'
p1349
S'and'
p1350
S'CC'
p1351
S'I-VP'
p1352
g5
tp1353
a(S'simulated'
p1354
S'simulate'
p1355
S'VBN'
p1356
S'I-VP'
p1357
g5
tp1358
a(g194
g194
g194
g5
g5
tp1359
a(g82
g82
g82
g5
g5
tp1360
a(S'CONCLUSIONS'
p1361
S'CONCLUSIONS'
p1362
S'NNS'
p1363
S'B-NP'
p1364
g5
tp1365
a(S'The'
p1366
S'The'
p1367
S'DT'
p1368
S'B-NP'
p1369
g5
tp1370
a(S'nonlinear'
p1371
S'nonlinear'
p1372
S'JJ'
p1373
S'I-NP'
p1374
g5
tp1375
a(S'PK'
p1376
S'PK'
p1377
S'NN'
p1378
S'I-NP'
p1379
g5
tp1380
a(S'of'
p1381
S'of'
p1382
S'IN'
p1383
S'B-PP'
p1384
g5
tp1385
a(S'linagliptin'
p1386
S'linagliptin'
p1387
S'NN'
p1388
S'B-NP'
p1389
g5
tp1390
a(S'and'
p1391
S'and'
p1392
S'CC'
p1393
g5
g5
tp1394
a(S'its'
p1395
S'its'
p1396
S'PRP$'
p1397
S'B-NP'
p1398
g5
tp1399
a(S'plasma'
p1400
S'plasma'
p1401
S'NN'
p1402
S'I-NP'
p1403
g5
tp1404
a(S'DPP-4'
p1405
S'DPP-4'
p1406
S'NN'
p1407
S'I-NP'
p1408
g5
tp1409
a(S'inhibition'
p1410
S'inhibition'
p1411
S'NN'
p1412
S'I-NP'
p1413
g5
tp1414
a(S'in'
p1415
S'in'
p1416
S'IN'
p1417
S'B-PP'
p1418
g5
tp1419
a(S'patients'
p1420
S'patient'
p1421
S'NNS'
p1422
S'B-NP'
p1423
g5
tp1424
a(S'were'
p1425
S'be'
p1426
S'VBD'
p1427
S'B-VP'
p1428
g5
tp1429
a(S'well'
p1430
S'well'
p1431
S'RB'
p1432
S'I-VP'
p1433
g5
tp1434
a(S'characterized'
p1435
S'characterize'
p1436
S'VBN'
p1437
S'I-VP'
p1438
g5
tp1439
a(S'by'
p1440
S'by'
p1441
S'IN'
p1442
S'B-PP'
p1443
g5
tp1444
a(g101
g101
S'DT'
p1445
S'B-NP'
p1446
g5
tp1447
a(S'target-mediated'
p1448
S'target-mediated'
p1449
S'JJ'
p1450
S'I-NP'
p1451
g5
tp1452
a(S'drug'
p1453
S'drug'
p1454
S'NN'
p1455
S'I-NP'
p1456
g5
tp1457
a(S'disposition'
p1458
S'disposition'
p1459
S'NN'
p1460
S'I-NP'
p1461
g5
tp1462
a(S'model'
p1463
S'model'
p1464
S'NN'
p1465
S'I-NP'
p1466
g5
tp1467
a(S'relating'
p1468
S'relate'
p1469
S'VBG'
p1470
S'B-VP'
p1471
g5
tp1472
a(S'DPP-4'
p1473
S'DPP-4'
p1474
S'NN'
p1475
S'B-NP'
p1476
S'B-protein'
p1477
tp1478
a(S'occupancy'
p1479
S'occupancy'
p1480
S'NN'
p1481
S'I-NP'
p1482
g5
tp1483
a(S'with'
p1484
S'with'
p1485
S'IN'
p1486
S'B-PP'
p1487
g5
tp1488
a(S'linagliptin'
p1489
S'linagliptin'
p1490
S'NN'
p1491
S'B-NP'
p1492
g5
tp1493
a(S'to'
p1494
S'to'
p1495
S'TO'
p1496
S'B-PP'
p1497
g5
tp1498
a(S'DPP-4'
p1499
S'DPP-4'
p1500
S'NN'
p1501
S'B-NP'
p1502
S'B-protein'
p1503
tp1504
a(S'inhibition.'
p1505
S'inhibition.'
p1506
S'NN'
p1507
S'I-NP'
p1508
g5
tp1509
a(S'Simulations'
p1510
S'Simulation'
p1511
S'NNS'
p1512
S'I-NP'
p1513
g5
tp1514
a(S'of'
p1515
S'of'
p1516
S'IN'
p1517
S'B-PP'
p1518
g5
tp1519
a(S'plasma'
p1520
S'plasma'
p1521
S'NN'
p1522
S'B-NP'
p1523
g5
tp1524
a(S'DPP-4'
p1525
S'DPP-4'
p1526
S'NN'
p1527
S'I-NP'
p1528
g5
tp1529
a(S'inhibition'
p1530
S'inhibition'
p1531
S'NN'
p1532
S'I-NP'
p1533
g5
tp1534
a(S'suggest'
p1535
S'suggest'
p1536
S'VBP'
p1537
S'B-VP'
p1538
g5
tp1539
a(S'that'
p1540
S'that'
p1541
S'IN'
p1542
S'B-SBAR'
p1543
g5
tp1544
a(g803
g803
S'CD'
p1545
S'B-NP'
p1546
g5
tp1547
a(S'mg'
p1548
S'mg'
p1549
S'NN'
p1550
S'I-NP'
p1551
g5
tp1552
a(S'linagliptin'
p1553
S'linagliptin'
p1554
S'NN'
p1555
S'I-NP'
p1556
g5
tp1557
a(S'once'
p1558
S'once'
p1559
S'RB'
p1560
S'B-ADVP'
p1561
g5
tp1562
a(S'daily'
p1563
S'daily'
p1564
S'RB'
p1565
S'I-ADVP'
p1566
g5
tp1567
a(S'is'
p1568
S'be'
p1569
S'VBZ'
p1570
S'B-VP'
p1571
g5
tp1572
a(S'an'
p1573
S'an'
p1574
S'DT'
p1575
S'B-NP'
p1576
g5
tp1577
a(S'appropriate'
p1578
S'appropriate'
p1579
S'JJ'
p1580
S'I-NP'
p1581
g5
tp1582
a(S'therapeutic'
p1583
S'therapeutic'
p1584
S'JJ'
p1585
S'I-NP'
p1586
g5
tp1587
a(S'dose'
p1588
S'dose'
p1589
S'NN'
p1590
S'I-NP'
p1591
g5
tp1592
a(S'for'
p1593
S'for'
p1594
S'IN'
p1595
S'B-PP'
p1596
g5
tp1597
a(S'Japanese'
p1598
S'Japanese'
p1599
S'JJ'
p1600
S'B-NP'
p1601
g5
tp1602
a(S'patients'
p1603
S'patient'
p1604
S'NNS'
p1605
S'I-NP'
p1606
g5
tp1607
a(S'with'
p1608
S'with'
p1609
S'IN'
p1610
S'B-PP'
p1611
g5
tp1612
a(S'T2DM'
p1613
S'T2DM'
p1614
S'NN'
p1615
S'B-NP'
p1616
g5
tp1617
a(g82
g82
g82
g5
g5
tp1618
a.