(lp0
(S'The'
p1
S'The'
p2
S'DT'
p3
S'B-NP'
p4
S'O'
p5
tp6
a(S'durability'
p7
S'durability'
p8
S'NN'
p9
S'I-NP'
p10
g5
tp11
a(S'of'
p12
S'of'
p13
S'IN'
p14
S'B-PP'
p15
g5
tp16
a(S'endovascular'
p17
S'endovascular'
p18
S'JJ'
p19
S'B-NP'
p20
g5
tp21
a(S'coiling'
p22
S'coiling'
p23
S'NN'
p24
S'I-NP'
p25
g5
tp26
a(S'versus'
p27
S'versus'
p28
S'IN'
p29
S'B-PP'
p30
g5
tp31
a(S'neurosurgical'
p32
S'neurosurgical'
p33
S'JJ'
p34
S'B-NP'
p35
g5
tp36
a(S'clipping'
p37
S'clipping'
p38
S'NN'
p39
S'I-NP'
p40
g5
tp41
a(S'of'
p42
S'of'
p43
S'IN'
p44
S'B-PP'
p45
g5
tp46
a(S'ruptured'
p47
S'ruptured'
p48
S'JJ'
p49
S'B-NP'
p50
g5
tp51
a(S'cerebral'
p52
S'cerebral'
p53
S'JJ'
p54
S'I-NP'
p55
g5
tp56
a(S'aneurysms'
p57
S'aneurysm'
p58
S'NNS'
p59
S'I-NP'
p60
g5
tp61
a(S':'
p62
g62
g62
g5
g5
tp63
a(S'18'
p64
S'18'
p65
S'CD'
p66
S'B-NP'
p67
g5
tp68
a(S'year'
p69
S'year'
p70
S'NN'
p71
S'I-NP'
p72
g5
tp73
a(S'follow-up'
p74
S'follow-up'
p75
S'NN'
p76
S'I-NP'
p77
g5
tp78
a(S'of'
p79
S'of'
p80
S'IN'
p81
S'B-PP'
p82
g5
tp83
a(S'the'
p84
S'the'
p85
S'DT'
p86
S'B-NP'
p87
g5
tp88
a(S'UK'
p89
S'UK'
p90
S'NNP'
p91
S'I-NP'
p92
g5
tp93
a(S'cohort'
p94
S'cohort'
p95
S'NN'
p96
S'I-NP'
p97
g5
tp98
a(S'of'
p99
S'of'
p100
S'IN'
p101
S'B-PP'
p102
g5
tp103
a(S'the'
p104
S'the'
p105
S'DT'
p106
S'B-NP'
p107
g5
tp108
a(S'International'
p109
S'International'
p110
S'NNP'
p111
S'I-NP'
p112
g5
tp113
a(S'Subarachnoid'
p114
S'Subarachnoid'
p115
S'NNP'
p116
S'I-NP'
p117
g5
tp118
a(S'Aneurysm'
p119
S'Aneurysm'
p120
S'NNP'
p121
S'I-NP'
p122
g5
tp123
a(S'Trial'
p124
S'Trial'
p125
S'NNP'
p126
S'I-NP'
p127
g5
tp128
a(S'('
p129
g129
g129
g5
g5
tp130
a(S'ISAT'
p131
S'ISAT'
p132
S'NN'
p133
S'B-NP'
p134
S'B-protein'
p135
tp136
a(S')'
p137
g137
g137
g5
g5
tp138
a(S'.'
p139
g139
g139
g5
g5
tp140
a(S'BACKGROUND'
p141
S'BACKGROUND'
p142
S'NN'
p143
S'B-NP'
p144
g5
tp145
a(S'Previous'
p146
S'Previous'
p147
S'JJ'
p148
S'I-NP'
p149
g5
tp150
a(S'analyses'
p151
S'analysis'
p152
S'NNS'
p153
S'I-NP'
p154
g5
tp155
a(S'of'
p156
S'of'
p157
S'IN'
p158
S'B-PP'
p159
g5
tp160
a(S'the'
p161
S'the'
p162
S'DT'
p163
S'B-NP'
p164
g5
tp165
a(S'International'
p166
S'International'
p167
S'NNP'
p168
S'I-NP'
p169
g5
tp170
a(S'Subarachnoid'
p171
S'Subarachnoid'
p172
S'NNP'
p173
S'I-NP'
p174
g5
tp175
a(S'Aneurysm'
p176
S'Aneurysm'
p177
S'NNP'
p178
S'I-NP'
p179
g5
tp180
a(S'Trial'
p181
S'Trial'
p182
S'NNP'
p183
S'I-NP'
p184
g5
tp185
a(g129
g129
g129
g5
g5
tp186
a(S'ISAT'
p187
S'ISAT'
p188
S'NN'
p189
S'B-NP'
p190
g5
tp191
a(g137
g137
g137
g5
g5
tp192
a(S'cohort'
p193
S'cohort'
p194
S'NN'
p195
S'B-NP'
p196
g5
tp197
a(S'have'
p198
S'have'
p199
S'VBP'
p200
S'B-VP'
p201
g5
tp202
a(S'reported'
p203
S'report'
p204
S'VBN'
p205
S'I-VP'
p206
g5
tp207
a(S'on'
p208
S'on'
p209
S'IN'
p210
S'B-PP'
p211
g5
tp212
a(S'the'
p213
S'the'
p214
S'DT'
p215
S'B-NP'
p216
g5
tp217
a(S'risks'
p218
S'risk'
p219
S'NNS'
p220
S'I-NP'
p221
g5
tp222
a(S'of'
p223
S'of'
p224
S'IN'
p225
S'B-PP'
p226
g5
tp227
a(S'recurrent'
p228
S'recurrent'
p229
S'JJ'
p230
S'B-NP'
p231
g5
tp232
a(S'subarachnoid'
p233
S'subarachnoid'
p234
S'JJ'
p235
S'I-NP'
p236
g5
tp237
a(S'haemorrhage'
p238
S'haemorrhage'
p239
S'NN'
p240
S'I-NP'
p241
g5
tp242
a(S'and'
p243
S'and'
p244
S'CC'
p245
S'I-NP'
p246
g5
tp247
a(S'death'
p248
S'death'
p249
S'NN'
p250
S'I-NP'
p251
g5
tp252
a(S'or'
p253
S'or'
p254
S'CC'
p255
S'I-NP'
p256
g5
tp257
a(S'dependency'
p258
S'dependency'
p259
S'NN'
p260
S'I-NP'
p261
g5
tp262
a(S'for'
p263
S'for'
p264
S'IN'
p265
S'B-PP'
p266
g5
tp267
a(S'a'
p268
g268
S'DT'
p269
S'B-NP'
p270
g5
tp271
a(S'minimum'
p272
S'minimum'
p273
S'NN'
p274
S'I-NP'
p275
g5
tp276
a(S'of'
p277
S'of'
p278
S'IN'
p279
S'B-PP'
p280
g5
tp281
a(S'5'
p282
g282
S'CD'
p283
S'B-NP'
p284
g5
tp285
a(S'years'
p286
S'year'
p287
S'NNS'
p288
S'I-NP'
p289
g5
tp290
a(S'and'
p291
S'and'
p292
S'CC'
p293
g5
g5
tp294
a(S'up'
p295
S'up'
p296
S'RB'
p297
S'B-ADVP'
p298
g5
tp299
a(S'to'
p300
S'to'
p301
S'TO'
p302
S'B-PP'
p303
g5
tp304
a(g268
g268
S'DT'
p305
S'B-NP'
p306
g5
tp307
a(S'maximum'
p308
S'maximum'
p309
S'NN'
p310
S'I-NP'
p311
g5
tp312
a(S'of'
p313
S'of'
p314
S'IN'
p315
S'B-PP'
p316
g5
tp317
a(S'14'
p318
S'14'
p319
S'CD'
p320
S'B-NP'
p321
g5
tp322
a(S'years'
p323
S'year'
p324
S'NNS'
p325
S'I-NP'
p326
g5
tp327
a(S'after'
p328
S'after'
p329
S'IN'
p330
S'B-PP'
p331
g5
tp332
a(S'treatment'
p333
S'treatment'
p334
S'NN'
p335
S'B-NP'
p336
g5
tp337
a(S'of'
p338
S'of'
p339
S'IN'
p340
S'B-PP'
p341
g5
tp342
a(g268
g268
S'DT'
p343
S'B-NP'
p344
g5
tp345
a(S'ruptured'
p346
S'ruptured'
p347
S'JJ'
p348
S'I-NP'
p349
g5
tp350
a(S'intracranial'
p351
S'intracranial'
p352
S'JJ'
p353
S'I-NP'
p354
g5
tp355
a(S'aneurysm'
p356
S'aneurysm'
p357
S'NN'
p358
S'I-NP'
p359
g5
tp360
a(S'with'
p361
S'with'
p362
S'IN'
p363
S'B-PP'
p364
g5
tp365
a(S'either'
p366
S'either'
p367
S'CC'
p368
S'B-NP'
p369
g5
tp370
a(S'neurosurgical'
p371
S'neurosurgical'
p372
S'JJ'
p373
S'I-NP'
p374
g5
tp375
a(S'clipping'
p376
S'clipping'
p377
S'NN'
p378
S'I-NP'
p379
g5
tp380
a(S'or'
p381
S'or'
p382
S'CC'
p383
g5
g5
tp384
a(S'endovascular'
p385
S'endovascular'
p386
S'JJ'
p387
S'B-NP'
p388
g5
tp389
a(S'coiling.'
p390
S'coiling.'
p391
S'NN'
p392
S'I-NP'
p393
g5
tp394
a(S'At'
p395
S'At'
p396
S'IN'
p397
S'B-PP'
p398
g5
tp399
a(S'1'
p400
g400
S'CD'
p401
S'B-NP'
p402
g5
tp403
a(S'year'
p404
S'year'
p405
S'NN'
p406
S'I-NP'
p407
g5
tp408
a(S'there'
p409
S'there'
p410
S'EX'
p411
S'B-NP'
p412
g5
tp413
a(S'was'
p414
S'be'
p415
S'VBD'
p416
S'B-VP'
p417
g5
tp418
a(g268
g268
S'DT'
p419
S'B-NP'
p420
g5
tp421
a(S'7'
p422
g422
S'CD'
p423
S'I-NP'
p424
g5
tp425
a(S'%'
p426
g426
S'NN'
p427
S'I-NP'
p428
g5
tp429
a(S'absolute'
p430
S'absolute'
p431
S'NN'
p432
S'I-NP'
p433
g5
tp434
a(S'and'
p435
S'and'
p436
S'CC'
p437
g5
g5
tp438
a(g268
g268
S'DT'
p439
S'B-NP'
p440
g5
tp441
a(S'24'
p442
S'24'
p443
S'CD'
p444
S'I-NP'
p445
g5
tp446
a(g426
g426
S'NN'
p447
S'I-NP'
p448
g5
tp449
a(S'relative'
p450
S'relative'
p451
S'JJ'
p452
S'I-NP'
p453
g5
tp454
a(S'risk'
p455
S'risk'
p456
S'NN'
p457
S'I-NP'
p458
g5
tp459
a(S'reduction'
p460
S'reduction'
p461
S'NN'
p462
S'I-NP'
p463
g5
tp464
a(S'of'
p465
S'of'
p466
S'IN'
p467
S'B-PP'
p468
g5
tp469
a(S'death'
p470
S'death'
p471
S'NN'
p472
S'B-NP'
p473
g5
tp474
a(S'and'
p475
S'and'
p476
S'CC'
p477
S'I-NP'
p478
g5
tp479
a(S'dependency'
p480
S'dependency'
p481
S'NN'
p482
S'I-NP'
p483
g5
tp484
a(S'in'
p485
S'in'
p486
S'IN'
p487
S'B-PP'
p488
g5
tp489
a(S'the'
p490
S'the'
p491
S'DT'
p492
S'B-NP'
p493
g5
tp494
a(S'coiling'
p495
S'coil'
p496
S'VBG'
p497
S'I-NP'
p498
g5
tp499
a(S'group'
p500
S'group'
p501
S'NN'
p502
S'I-NP'
p503
g5
tp504
a(S'compared'
p505
S'compare'
p506
S'VBN'
p507
S'B-PP'
p508
g5
tp509
a(S'with'
p510
S'with'
p511
S'IN'
p512
S'B-PP'
p513
g5
tp514
a(S'the'
p515
S'the'
p516
S'DT'
p517
S'B-NP'
p518
g5
tp519
a(S'clipping'
p520
S'clip'
p521
S'VBG'
p522
S'I-NP'
p523
g5
tp524
a(S'group'
p525
S'group'
p526
S'NN'
p527
S'I-NP'
p528
g5
tp529
a(S','
p530
g530
g530
g5
g5
tp531
a(S'but'
p532
S'but'
p533
S'CC'
p534
g5
g5
tp535
a(S'the'
p536
S'the'
p537
S'DT'
p538
S'B-NP'
p539
g5
tp540
a(S'medium-term'
p541
S'medium-term'
p542
S'JJ'
p543
S'I-NP'
p544
g5
tp545
a(S'results'
p546
S'result'
p547
S'NNS'
p548
S'I-NP'
p549
g5
tp550
a(S'showed'
p551
S'show'
p552
S'VBD'
p553
S'B-VP'
p554
g5
tp555
a(S'the'
p556
S'the'
p557
S'DT'
p558
S'B-NP'
p559
g5
tp560
a(S'increased'
p561
S'increase'
p562
S'VBN'
p563
S'I-NP'
p564
g5
tp565
a(S'need'
p566
S'need'
p567
S'NN'
p568
S'I-NP'
p569
g5
tp570
a(S'for'
p571
S'for'
p572
S'IN'
p573
S'B-PP'
p574
g5
tp575
a(S're-treatment'
p576
S're-treatment'
p577
S'NN'
p578
S'B-NP'
p579
g5
tp580
a(S'of'
p581
S'of'
p582
S'IN'
p583
S'B-PP'
p584
g5
tp585
a(S'the'
p586
S'the'
p587
S'DT'
p588
S'B-NP'
p589
g5
tp590
a(S'target'
p591
S'target'
p592
S'NN'
p593
S'I-NP'
p594
g5
tp595
a(S'aneurysm'
p596
S'aneurysm'
p597
S'NN'
p598
S'I-NP'
p599
g5
tp600
a(S'in'
p601
S'in'
p602
S'IN'
p603
S'B-PP'
p604
g5
tp605
a(S'the'
p606
S'the'
p607
S'DT'
p608
S'B-NP'
p609
g5
tp610
a(S'patients'
p611
S'patient'
p612
S'NNS'
p613
S'I-NP'
p614
g5
tp615
a(S'given'
p616
S'give'
p617
S'VBN'
p618
S'B-VP'
p619
g5
tp620
a(S'coiling.'
p621
S'coiling.'
p622
S'FW'
p623
S'B-NP'
p624
g5
tp625
a(S'We'
p626
S'We'
p627
S'PRP'
p628
S'B-NP'
p629
g5
tp630
a(S'report'
p631
S'report'
p632
S'VBP'
p633
S'B-VP'
p634
g5
tp635
a(S'the'
p636
S'the'
p637
S'DT'
p638
S'B-NP'
p639
g5
tp640
a(S'long-term'
p641
S'long-term'
p642
S'JJ'
p643
S'I-NP'
p644
g5
tp645
a(S'follow-up'
p646
S'follow-up'
p647
S'NN'
p648
S'I-NP'
p649
g5
tp650
a(S'of'
p651
S'of'
p652
S'IN'
p653
S'B-PP'
p654
g5
tp655
a(S'patients'
p656
S'patient'
p657
S'NNS'
p658
S'B-NP'
p659
g5
tp660
a(S'in'
p661
S'in'
p662
S'IN'
p663
S'B-PP'
p664
g5
tp665
a(S'this'
p666
S'this'
p667
S'DT'
p668
S'B-NP'
p669
g5
tp670
a(S'UK'
p671
S'UK'
p672
S'NN'
p673
S'I-NP'
p674
g5
tp675
a(S'cohort'
p676
S'cohort'
p677
S'NN'
p678
S'I-NP'
p679
g5
tp680
a(g139
g139
g139
g5
g5
tp681
a(S'METHODS'
p682
S'METHODS'
p683
S'NNS'
p684
S'B-NP'
p685
g5
tp686
a(S'In'
p687
S'In'
p688
S'IN'
p689
S'B-PP'
p690
g5
tp691
a(S'ISAT'
p692
S'ISAT'
p693
S'NN'
p694
S'B-NP'
p695
S'B-protein'
p696
tp697
a(g530
g530
g530
g5
g5
tp698
a(S'patients'
p699
S'patient'
p700
S'NNS'
p701
S'B-NP'
p702
g5
tp703
a(S'were'
p704
S'be'
p705
S'VBD'
p706
S'B-VP'
p707
g5
tp708
a(S'randomly'
p709
S'randomly'
p710
S'RB'
p711
S'I-VP'
p712
g5
tp713
a(S'allocated'
p714
S'allocate'
p715
S'VBN'
p716
S'I-VP'
p717
g5
tp718
a(S'to'
p719
S'to'
p720
S'TO'
p721
S'B-PP'
p722
g5
tp723
a(S'either'
p724
S'either'
p725
S'CC'
p726
g5
g5
tp727
a(S'neurosurgical'
p728
S'neurosurgical'
p729
S'JJ'
p730
S'B-NP'
p731
g5
tp732
a(S'clipping'
p733
S'clipping'
p734
S'NN'
p735
S'I-NP'
p736
g5
tp737
a(S'or'
p738
S'or'
p739
S'CC'
p740
g5
g5
tp741
a(S'endovascular'
p742
S'endovascular'
p743
S'JJ'
p744
S'B-NP'
p745
g5
tp746
a(S'coiling'
p747
S'coiling'
p748
S'NN'
p749
S'I-NP'
p750
g5
tp751
a(S'after'
p752
S'after'
p753
S'IN'
p754
S'B-PP'
p755
g5
tp756
a(g268
g268
S'DT'
p757
S'B-NP'
p758
g5
tp759
a(S'subarachnoid'
p760
S'subarachnoid'
p761
S'JJ'
p762
S'I-NP'
p763
g5
tp764
a(S'haemorrhage'
p765
S'haemorrhage'
p766
S'NN'
p767
S'I-NP'
p768
g5
tp769
a(g530
g530
g530
g5
g5
tp770
a(S'assuming'
p771
S'assume'
p772
S'VBG'
p773
S'B-VP'
p774
g5
tp775
a(S'treatment'
p776
S'treatment'
p777
S'NN'
p778
S'B-NP'
p779
g5
tp780
a(S'equipoise'
p781
S'equipoise'
p782
S'NN'
p783
S'I-NP'
p784
g5
tp785
a(g530
g530
g530
g5
g5
tp786
a(S'between'
p787
S'between'
p788
S'IN'
p789
S'B-PP'
p790
g5
tp791
a(S'Sept'
p792
S'Sept'
p793
S'NNP'
p794
S'B-NP'
p795
g5
tp796
a(S'12'
p797
S'12'
p798
S'CD'
p799
S'I-NP'
p800
g5
tp801
a(g530
g530
g530
S'I-NP'
p802
g5
tp803
a(S'1994'
p804
S'1994'
p805
S'CD'
p806
S'I-NP'
p807
g5
tp808
a(g530
g530
g530
g5
g5
tp809
a(S'and'
p810
S'and'
p811
S'CC'
p812
g5
g5
tp813
a(S'May'
p814
S'May'
p815
S'NNP'
p816
S'B-NP'
p817
S'B-protein'
p818
tp819
a(g400
g400
S'CD'
p820
S'I-NP'
p821
S'I-protein'
p822
tp823
a(g530
g530
g530
S'I-NP'
p824
g5
tp825
a(S'2002.'
p826
S'2002.'
p827
S'CD'
p828
S'I-NP'
p829
g5
tp830
a(S'We'
p831
S'We'
p832
S'PRP'
p833
S'B-NP'
p834
g5
tp835
a(S'followed'
p836
S'follow'
p837
S'VBD'
p838
S'B-VP'
p839
g5
tp840
a(S'up'
p841
S'up'
p842
S'RB'
p843
S'B-ADVP'
p844
g5
tp845
a(S'1644'
p846
S'1644'
p847
S'CD'
p848
S'B-NP'
p849
g5
tp850
a(S'patients'
p851
S'patient'
p852
S'NNS'
p853
S'I-NP'
p854
g5
tp855
a(S'in'
p856
S'in'
p857
S'IN'
p858
S'B-PP'
p859
g5
tp860
a(S'22'
p861
S'22'
p862
S'CD'
p863
S'B-NP'
p864
g5
tp865
a(S'UK'
p866
S'UK'
p867
S'NN'
p868
S'I-NP'
p869
g5
tp870
a(S'neurosurgical'
p871
S'neurosurgical'
p872
S'JJ'
p873
S'I-NP'
p874
g5
tp875
a(S'centres'
p876
S'centre'
p877
S'NNS'
p878
S'I-NP'
p879
g5
tp880
a(S'for'
p881
S'for'
p882
S'IN'
p883
S'B-PP'
p884
g5
tp885
a(S'death'
p886
S'death'
p887
S'NN'
p888
S'B-NP'
p889
g5
tp890
a(S'and'
p891
S'and'
p892
S'CC'
p893
g5
g5
tp894
a(S'clinical'
p895
S'clinical'
p896
S'JJ'
p897
S'B-NP'
p898
g5
tp899
a(S'outcomes'
p900
S'outcome'
p901
S'NNS'
p902
S'I-NP'
p903
g5
tp904
a(S'for'
p905
S'for'
p906
S'IN'
p907
S'B-PP'
p908
g5
tp909
a(S'10\xc2\xb70-18\xc2\xb75'
p910
S'10\xc2\xb70-18\xc2\xb75'
p911
S'CD'
p912
S'B-NP'
p913
g5
tp914
a(S'years.'
p915
S'years.'
p916
S'NNS'
p917
S'I-NP'
p918
g5
tp919
a(S'We'
p920
S'We'
p921
S'PRP'
p922
S'B-NP'
p923
g5
tp924
a(S'assessed'
p925
S'assess'
p926
S'VBD'
p927
S'B-VP'
p928
g5
tp929
a(S'dependency'
p930
S'dependency'
p931
S'NN'
p932
S'B-NP'
p933
g5
tp934
a(S'as'
p935
S'as'
p936
S'IN'
p937
S'B-PP'
p938
g5
tp939
a(S'self-reported'
p940
S'self-reported'
p941
S'JJ'
p942
S'B-NP'
p943
g5
tp944
a(S'modified'
p945
S'modify'
p946
S'VBN'
p947
S'I-NP'
p948
g5
tp949
a(S'Rankin'
p950
S'Rankin'
p951
S'NNP'
p952
S'I-NP'
p953
g5
tp954
a(S'scale'
p955
S'scale'
p956
S'NN'
p957
S'I-NP'
p958
g5
tp959
a(S'score'
p960
S'score'
p961
S'NN'
p962
S'I-NP'
p963
g5
tp964
a(S'obtained'
p965
S'obtain'
p966
S'VBN'
p967
S'B-VP'
p968
g5
tp969
a(S'through'
p970
S'through'
p971
S'IN'
p972
S'B-PP'
p973
g5
tp974
a(S'yearly'
p975
S'yearly'
p976
S'JJ'
p977
S'B-NP'
p978
g5
tp979
a(S'questionnaires.'
p980
S'questionnaires.'
p981
S'NN'
p982
S'I-NP'
p983
g5
tp984
a(S'Data'
p985
S'Data'
p986
S'NNP'
p987
S'I-NP'
p988
g5
tp989
a(S'for'
p990
S'for'
p991
S'IN'
p992
S'B-PP'
p993
g5
tp994
a(S'recurrent'
p995
S'recurrent'
p996
S'JJ'
p997
S'B-NP'
p998
g5
tp999
a(S'aneurysms'
p1000
S'aneurysm'
p1001
S'NNS'
p1002
S'I-NP'
p1003
g5
tp1004
a(S'and'
p1005
S'and'
p1006
S'CC'
p1007
g5
g5
tp1008
a(S'rebleeding'
p1009
S'rebleede'
p1010
S'VBG'
p1011
S'B-NP'
p1012
g5
tp1013
a(S'events'
p1014
S'event'
p1015
S'NNS'
p1016
S'I-NP'
p1017
g5
tp1018
a(S'were'
p1019
S'be'
p1020
S'VBD'
p1021
S'B-VP'
p1022
g5
tp1023
a(S'collected'
p1024
S'collect'
p1025
S'VBN'
p1026
S'I-VP'
p1027
g5
tp1028
a(S'from'
p1029
S'from'
p1030
S'IN'
p1031
S'B-PP'
p1032
g5
tp1033
a(S'questionnaires'
p1034
S'questionnaire'
p1035
S'NNS'
p1036
S'B-NP'
p1037
g5
tp1038
a(S'and'
p1039
S'and'
p1040
S'CC'
p1041
S'B-PP'
p1042
g5
tp1043
a(S'from'
p1044
S'from'
p1045
S'IN'
p1046
S'B-PP'
p1047
g5
tp1048
a(S'hospital'
p1049
S'hospital'
p1050
S'NN'
p1051
S'B-NP'
p1052
g5
tp1053
a(S'and'
p1054
S'and'
p1055
S'CC'
p1056
g5
g5
tp1057
a(S'general'
p1058
S'general'
p1059
S'JJ'
p1060
S'B-NP'
p1061
g5
tp1062
a(S'practitioner'
p1063
S'practitioner'
p1064
S'NN'
p1065
S'I-NP'
p1066
g5
tp1067
a(S'records.'
p1068
S'records.'
p1069
S'NN'
p1070
S'I-NP'
p1071
g5
tp1072
a(S'The'
p1073
S'The'
p1074
S'DT'
p1075
S'B-NP'
p1076
g5
tp1077
a(S'Office'
p1078
S'Office'
p1079
S'NNP'
p1080
S'I-NP'
p1081
g5
tp1082
a(S'for'
p1083
S'for'
p1084
S'IN'
p1085
S'B-PP'
p1086
g5
tp1087
a(S'National'
p1088
S'National'
p1089
S'NNP'
p1090
S'B-NP'
p1091
g5
tp1092
a(S'Statistics'
p1093
S'Statistic'
p1094
S'NNPS'
p1095
S'I-NP'
p1096
g5
tp1097
a(S'supplied'
p1098
S'supply'
p1099
S'VBD'
p1100
S'B-VP'
p1101
g5
tp1102
a(S'data'
p1103
S'datum'
p1104
S'NNS'
p1105
S'B-NP'
p1106
g5
tp1107
a(S'on'
p1108
S'on'
p1109
S'IN'
p1110
S'B-PP'
p1111
g5
tp1112
a(S'deaths.'
p1113
S'deaths.'
p1114
S'NN'
p1115
S'B-NP'
p1116
g5
tp1117
a(S'This'
p1118
S'This'
p1119
S'DT'
p1120
S'B-NP'
p1121
g5
tp1122
a(S'study'
p1123
S'study'
p1124
S'NN'
p1125
S'I-NP'
p1126
g5
tp1127
a(S'is'
p1128
S'be'
p1129
S'VBZ'
p1130
S'B-VP'
p1131
g5
tp1132
a(S'registered'
p1133
S'register'
p1134
S'VBN'
p1135
S'I-VP'
p1136
g5
tp1137
a(g530
g530
g530
g5
g5
tp1138
a(S'number'
p1139
S'number'
p1140
S'NN'
p1141
S'B-NP'
p1142
g5
tp1143
a(S'ISRCTN49866681'
p1144
S'ISRCTN49866681'
p1145
S'NN'
p1146
S'I-NP'
p1147
g5
tp1148
a(g139
g139
g139
g5
g5
tp1149
a(S'FINDINGS'
p1150
S'FINDINGS'
p1151
S'NNS'
p1152
S'B-NP'
p1153
g5
tp1154
a(S'At'
p1155
S'At'
p1156
S'IN'
p1157
S'B-PP'
p1158
g5
tp1159
a(S'10'
p1160
S'10'
p1161
S'CD'
p1162
S'B-NP'
p1163
g5
tp1164
a(S'years'
p1165
S'year'
p1166
S'NNS'
p1167
S'I-NP'
p1168
g5
tp1169
a(g530
g530
g530
g5
g5
tp1170
a(S'674'
p1171
S'674'
p1172
S'CD'
p1173
S'B-NP'
p1174
g5
tp1175
a(g129
g129
g129
g5
g5
tp1176
a(S'83'
p1177
S'83'
p1178
S'CD'
p1179
S'B-NP'
p1180
g5
tp1181
a(g426
g426
S'NN'
p1182
S'I-NP'
p1183
g5
tp1184
a(g137
g137
g137
g5
g5
tp1185
a(S'of'
p1186
S'of'
p1187
S'IN'
p1188
S'B-PP'
p1189
g5
tp1190
a(S'809'
p1191
S'809'
p1192
S'CD'
p1193
S'B-NP'
p1194
g5
tp1195
a(S'patients'
p1196
S'patient'
p1197
S'NNS'
p1198
S'I-NP'
p1199
g5
tp1200
a(S'allocated'
p1201
S'allocate'
p1202
S'VBD'
p1203
S'B-VP'
p1204
g5
tp1205
a(S'endovascular'
p1206
S'endovascular'
p1207
S'JJ'
p1208
S'B-NP'
p1209
g5
tp1210
a(S'coiling'
p1211
S'coiling'
p1212
S'NN'
p1213
S'I-NP'
p1214
g5
tp1215
a(S'and'
p1216
S'and'
p1217
S'CC'
p1218
g5
g5
tp1219
a(S'657'
p1220
S'657'
p1221
S'CD'
p1222
S'B-NP'
p1223
g5
tp1224
a(g129
g129
g129
g5
g5
tp1225
a(S'79'
p1226
S'79'
p1227
S'CD'
p1228
S'B-NP'
p1229
g5
tp1230
a(g426
g426
S'NN'
p1231
S'I-NP'
p1232
g5
tp1233
a(g137
g137
g137
g5
g5
tp1234
a(S'of'
p1235
S'of'
p1236
S'IN'
p1237
S'B-PP'
p1238
g5
tp1239
a(S'835'
p1240
S'835'
p1241
S'CD'
p1242
S'B-NP'
p1243
g5
tp1244
a(S'patients'
p1245
S'patient'
p1246
S'NNS'
p1247
S'I-NP'
p1248
g5
tp1249
a(S'allocated'
p1250
S'allocate'
p1251
S'VBD'
p1252
S'B-VP'
p1253
g5
tp1254
a(S'neurosurgical'
p1255
S'neurosurgical'
p1256
S'JJ'
p1257
S'B-NP'
p1258
g5
tp1259
a(S'clipping'
p1260
S'clipping'
p1261
S'NN'
p1262
S'I-NP'
p1263
g5
tp1264
a(S'were'
p1265
S'be'
p1266
S'VBD'
p1267
S'B-VP'
p1268
g5
tp1269
a(S'alive'
p1270
S'alive'
p1271
S'JJ'
p1272
S'B-ADJP'
p1273
g5
tp1274
a(g129
g129
g129
g5
g5
tp1275
a(S'odds'
p1276
S'odd'
p1277
S'NNS'
p1278
S'B-NP'
p1279
g5
tp1280
a(S'ratio'
p1281
S'ratio'
p1282
S'NN'
p1283
S'I-NP'
p1284
g5
tp1285
a(S'['
p1286
g1286
g129
g5
g5
tp1287
a(S'OR'
p1288
S'OR'
p1289
S'NN'
p1290
S'B-NP'
p1291
g5
tp1292
a(S']'
p1293
g1293
g137
g5
g5
tp1294
a(S'1\xc2\xb735'
p1295
S'1\xc2\xb735'
p1296
S'CD'
p1297
S'B-NP'
p1298
g5
tp1299
a(g530
g530
g530
g5
g5
tp1300
a(S'95'
p1301
S'95'
p1302
S'CD'
p1303
S'B-NP'
p1304
g5
tp1305
a(g426
g426
S'NN'
p1306
S'I-NP'
p1307
g5
tp1308
a(S'CI'
p1309
S'CI'
p1310
S'NN'
p1311
S'I-NP'
p1312
g5
tp1313
a(S'1\xc2\xb706-1\xc2\xb773'
p1314
S'1\xc2\xb706-1\xc2\xb773'
p1315
S'CD'
p1316
S'I-NP'
p1317
g5
tp1318
a(g137
g137
g137
g5
g5
tp1319
a(g139
g139
g139
g5
g5
tp1320
a(S'Of'
p1321
S'Of'
p1322
S'IN'
p1323
S'B-PP'
p1324
g5
tp1325
a(S'1003'
p1326
S'1003'
p1327
S'CD'
p1328
S'B-NP'
p1329
g5
tp1330
a(S'individuals'
p1331
S'individual'
p1332
S'NNS'
p1333
S'I-NP'
p1334
g5
tp1335
a(S'who'
p1336
S'who'
p1337
S'WP'
p1338
S'B-NP'
p1339
g5
tp1340
a(S'returned'
p1341
S'return'
p1342
S'VBD'
p1343
S'B-VP'
p1344
g5
tp1345
a(g268
g268
S'DT'
p1346
S'B-NP'
p1347
g5
tp1348
a(S'questionnaire'
p1349
S'questionnaire'
p1350
S'NN'
p1351
S'I-NP'
p1352
g5
tp1353
a(S'at'
p1354
S'at'
p1355
S'IN'
p1356
S'B-PP'
p1357
g5
tp1358
a(S'10'
p1359
S'10'
p1360
S'CD'
p1361
S'B-NP'
p1362
g5
tp1363
a(S'years'
p1364
S'year'
p1365
S'NNS'
p1366
S'I-NP'
p1367
g5
tp1368
a(g530
g530
g530
g5
g5
tp1369
a(S'435'
p1370
S'435'
p1371
S'CD'
p1372
S'B-NP'
p1373
g5
tp1374
a(g129
g129
g129
g5
g5
tp1375
a(S'82'
p1376
S'82'
p1377
S'CD'
p1378
S'B-NP'
p1379
g5
tp1380
a(g426
g426
S'NN'
p1381
S'I-NP'
p1382
g5
tp1383
a(g137
g137
g137
g5
g5
tp1384
a(S'patients'
p1385
S'patient'
p1386
S'NNS'
p1387
S'B-NP'
p1388
g5
tp1389
a(S'treated'
p1390
S'treat'
p1391
S'VBN'
p1392
S'B-VP'
p1393
g5
tp1394
a(S'with'
p1395
S'with'
p1396
S'IN'
p1397
S'B-PP'
p1398
g5
tp1399
a(S'endovascular'
p1400
S'endovascular'
p1401
S'JJ'
p1402
S'B-NP'
p1403
g5
tp1404
a(S'coiling'
p1405
S'coiling'
p1406
S'NN'
p1407
S'I-NP'
p1408
g5
tp1409
a(S'and'
p1410
S'and'
p1411
S'CC'
p1412
g5
g5
tp1413
a(S'370'
p1414
S'370'
p1415
S'CD'
p1416
S'B-NP'
p1417
g5
tp1418
a(g129
g129
g129
g5
g5
tp1419
a(S'78'
p1420
S'78'
p1421
S'CD'
p1422
S'B-NP'
p1423
g5
tp1424
a(g426
g426
S'NN'
p1425
S'I-NP'
p1426
g5
tp1427
a(g137
g137
g137
g5
g5
tp1428
a(S'patients'
p1429
S'patient'
p1430
S'NNS'
p1431
S'B-NP'
p1432
g5
tp1433
a(S'treated'
p1434
S'treat'
p1435
S'VBN'
p1436
S'B-VP'
p1437
g5
tp1438
a(S'with'
p1439
S'with'
p1440
S'IN'
p1441
S'B-PP'
p1442
g5
tp1443
a(S'neurosurgical'
p1444
S'neurosurgical'
p1445
S'JJ'
p1446
S'B-NP'
p1447
g5
tp1448
a(S'clipping'
p1449
S'clipping'
p1450
S'NN'
p1451
S'I-NP'
p1452
g5
tp1453
a(S'were'
p1454
S'be'
p1455
S'VBD'
p1456
S'B-VP'
p1457
g5
tp1458
a(S'independent'
p1459
S'independent'
p1460
S'JJ'
p1461
S'B-ADJP'
p1462
g5
tp1463
a(g129
g129
g129
g5
g5
tp1464
a(S'modified'
p1465
S'modify'
p1466
S'VBN'
p1467
S'B-VP'
p1468
g5
tp1469
a(S'Rankin'
p1470
S'Rankin'
p1471
S'NNP'
p1472
S'B-NP'
p1473
g5
tp1474
a(S'scale'
p1475
S'scale'
p1476
S'NN'
p1477
S'I-NP'
p1478
g5
tp1479
a(S'score'
p1480
S'score'
p1481
S'NN'
p1482
S'I-NP'
p1483
g5
tp1484
a(S'0-2'
p1485
S'0-2'
p1486
S'CD'
p1487
S'I-NP'
p1488
g5
tp1489
a(S';'
p1490
g1490
g62
g5
g5
tp1491
a(S'OR'
p1492
S'OR'
p1493
S'NN'
p1494
S'B-NP'
p1495
g5
tp1496
a(S'1\xc2\xb725'
p1497
S'1\xc2\xb725'
p1498
S'CD'
p1499
S'I-NP'
p1500
g5
tp1501
a(g1490
g1490
g62
g5
g5
tp1502
a(S'95'
p1503
S'95'
p1504
S'CD'
p1505
S'B-NP'
p1506
g5
tp1507
a(g426
g426
S'NN'
p1508
S'I-NP'
p1509
g5
tp1510
a(S'CI'
p1511
S'CI'
p1512
S'NN'
p1513
S'I-NP'
p1514
g5
tp1515
a(S'0\xc2\xb792-1\xc2\xb771'
p1516
S'0\xc2\xb792-1\xc2\xb771'
p1517
S'CD'
p1518
S'I-NP'
p1519
g5
tp1520
a(g137
g137
g137
g5
g5
tp1521
a(g139
g139
g139
g5
g5
tp1522
a(S'Patients'
p1523
S'Patient'
p1524
S'NNPS'
p1525
S'B-NP'
p1526
g5
tp1527
a(S'in'
p1528
S'in'
p1529
S'IN'
p1530
S'B-PP'
p1531
g5
tp1532
a(S'the'
p1533
S'the'
p1534
S'DT'
p1535
S'B-NP'
p1536
g5
tp1537
a(S'endovascular'
p1538
S'endovascular'
p1539
S'JJ'
p1540
S'I-NP'
p1541
g5
tp1542
a(S'treatment'
p1543
S'treatment'
p1544
S'NN'
p1545
S'I-NP'
p1546
g5
tp1547
a(S'group'
p1548
S'group'
p1549
S'NN'
p1550
S'I-NP'
p1551
g5
tp1552
a(S'were'
p1553
S'be'
p1554
S'VBD'
p1555
S'B-VP'
p1556
g5
tp1557
a(S'more'
p1558
S'more'
p1559
S'RBR'
p1560
S'B-ADJP'
p1561
g5
tp1562
a(S'likely'
p1563
S'likely'
p1564
S'JJ'
p1565
S'I-ADJP'
p1566
g5
tp1567
a(S'to'
p1568
S'to'
p1569
S'TO'
p1570
S'B-VP'
p1571
g5
tp1572
a(S'be'
p1573
S'be'
p1574
S'VB'
p1575
S'I-VP'
p1576
g5
tp1577
a(S'alive'
p1578
S'alive'
p1579
S'JJ'
p1580
S'B-ADJP'
p1581
g5
tp1582
a(S'and'
p1583
S'and'
p1584
S'CC'
p1585
S'I-ADJP'
p1586
g5
tp1587
a(S'independent'
p1588
S'independent'
p1589
S'JJ'
p1590
S'I-ADJP'
p1591
g5
tp1592
a(S'at'
p1593
S'at'
p1594
S'IN'
p1595
S'B-PP'
p1596
g5
tp1597
a(S'10'
p1598
S'10'
p1599
S'CD'
p1600
S'B-NP'
p1601
g5
tp1602
a(S'years'
p1603
S'year'
p1604
S'NNS'
p1605
S'I-NP'
p1606
g5
tp1607
a(S'than'
p1608
S'than'
p1609
S'IN'
p1610
S'B-SBAR'
p1611
g5
tp1612
a(S'were'
p1613
S'be'
p1614
S'VBD'
p1615
S'B-VP'
p1616
g5
tp1617
a(S'patients'
p1618
S'patient'
p1619
S'NNS'
p1620
S'B-NP'
p1621
g5
tp1622
a(S'in'
p1623
S'in'
p1624
S'IN'
p1625
S'B-PP'
p1626
g5
tp1627
a(S'the'
p1628
S'the'
p1629
S'DT'
p1630
S'B-NP'
p1631
g5
tp1632
a(S'neurosurgery'
p1633
S'neurosurgery'
p1634
S'NN'
p1635
S'I-NP'
p1636
g5
tp1637
a(S'group'
p1638
S'group'
p1639
S'NN'
p1640
S'I-NP'
p1641
g5
tp1642
a(g129
g129
g129
g5
g5
tp1643
a(S'OR'
p1644
S'OR'
p1645
S'NN'
p1646
S'B-NP'
p1647
S'B-DNA'
p1648
tp1649
a(S'1\xc2\xb734'
p1650
S'1\xc2\xb734'
p1651
S'CD'
p1652
S'I-NP'
p1653
S'I-DNA'
p1654
tp1655
a(g530
g530
g530
g5
g5
tp1656
a(S'95'
p1657
S'95'
p1658
S'CD'
p1659
S'B-NP'
p1660
g5
tp1661
a(g426
g426
S'NN'
p1662
S'I-NP'
p1663
g5
tp1664
a(S'CI'
p1665
S'CI'
p1666
S'NN'
p1667
S'I-NP'
p1668
g5
tp1669
a(S'1\xc2\xb707-1\xc2\xb767'
p1670
S'1\xc2\xb707-1\xc2\xb767'
p1671
S'CD'
p1672
S'I-NP'
p1673
g5
tp1674
a(g137
g137
g137
g5
g5
tp1675
a(g139
g139
g139
g5
g5
tp1676
a(S'33'
p1677
S'33'
p1678
S'CD'
p1679
S'B-NP'
p1680
g5
tp1681
a(S'patients'
p1682
S'patient'
p1683
S'NNS'
p1684
S'I-NP'
p1685
g5
tp1686
a(S'had'
p1687
S'have'
p1688
S'VBD'
p1689
S'B-VP'
p1690
g5
tp1691
a(g268
g268
S'DT'
p1692
S'B-NP'
p1693
g5
tp1694
a(S'recurrent'
p1695
S'recurrent'
p1696
S'JJ'
p1697
S'I-NP'
p1698
g5
tp1699
a(S'subarachnoid'
p1700
S'subarachnoid'
p1701
S'JJ'
p1702
S'I-NP'
p1703
g5
tp1704
a(S'haemorrhage'
p1705
S'haemorrhage'
p1706
S'NN'
p1707
S'I-NP'
p1708
g5
tp1709
a(S'more'
p1710
S'more'
p1711
S'JJR'
p1712
S'B-NP'
p1713
g5
tp1714
a(S'than'
p1715
S'than'
p1716
S'IN'
p1717
S'I-NP'
p1718
g5
tp1719
a(g400
g400
S'CD'
p1720
S'I-NP'
p1721
g5
tp1722
a(S'year'
p1723
S'year'
p1724
S'NN'
p1725
S'I-NP'
p1726
g5
tp1727
a(S'after'
p1728
S'after'
p1729
S'IN'
p1730
S'B-PP'
p1731
g5
tp1732
a(S'their'
p1733
S'their'
p1734
S'PRP$'
p1735
S'B-NP'
p1736
g5
tp1737
a(S'initial'
p1738
S'initial'
p1739
S'JJ'
p1740
S'I-NP'
p1741
g5
tp1742
a(S'haemorrhage'
p1743
S'haemorrhage'
p1744
S'NN'
p1745
S'I-NP'
p1746
g5
tp1747
a(g129
g129
g129
g5
g5
tp1748
a(S'17'
p1749
S'17'
p1750
S'CD'
p1751
S'B-NP'
p1752
g5
tp1753
a(S'from'
p1754
S'from'
p1755
S'IN'
p1756
S'B-PP'
p1757
g5
tp1758
a(S'the'
p1759
S'the'
p1760
S'DT'
p1761
S'B-NP'
p1762
g5
tp1763
a(S'target'
p1764
S'target'
p1765
S'NN'
p1766
S'I-NP'
p1767
g5
tp1768
a(S'aneurysm'
p1769
S'aneurysm'
p1770
S'NN'
p1771
S'I-NP'
p1772
g5
tp1773
a(g137
g137
g137
g5
g5
tp1774
a(g139
g139
g139
g5
g5
tp1775
a(S'INTERPRETATION'
p1776
S'INTERPRETATION'
p1777
S'NN'
p1778
S'B-NP'
p1779
g5
tp1780
a(S'Although'
p1781
S'Although'
p1782
S'IN'
p1783
S'B-PP'
p1784
g5
tp1785
a(S'rates'
p1786
S'rate'
p1787
S'NNS'
p1788
S'B-NP'
p1789
g5
tp1790
a(S'of'
p1791
S'of'
p1792
S'IN'
p1793
S'B-PP'
p1794
g5
tp1795
a(S'increased'
p1796
S'increase'
p1797
S'VBN'
p1798
S'B-NP'
p1799
g5
tp1800
a(S'dependency'
p1801
S'dependency'
p1802
S'NN'
p1803
S'I-NP'
p1804
g5
tp1805
a(S'alone'
p1806
S'alone'
p1807
S'RB'
p1808
S'B-ADVP'
p1809
g5
tp1810
a(S'did'
p1811
S'do'
p1812
S'VBD'
p1813
S'B-VP'
p1814
g5
tp1815
a(S'not'
p1816
S'not'
p1817
S'RB'
p1818
S'I-VP'
p1819
g5
tp1820
a(S'differ'
p1821
S'differ'
p1822
S'VB'
p1823
S'I-VP'
p1824
g5
tp1825
a(S'between'
p1826
S'between'
p1827
S'IN'
p1828
S'B-PP'
p1829
g5
tp1830
a(S'groups'
p1831
S'group'
p1832
S'NNS'
p1833
S'B-NP'
p1834
g5
tp1835
a(g530
g530
g530
g5
g5
tp1836
a(S'the'
p1837
S'the'
p1838
S'DT'
p1839
S'B-NP'
p1840
g5
tp1841
a(S'probability'
p1842
S'probability'
p1843
S'NN'
p1844
S'I-NP'
p1845
g5
tp1846
a(S'of'
p1847
S'of'
p1848
S'IN'
p1849
S'B-PP'
p1850
g5
tp1851
a(S'death'
p1852
S'death'
p1853
S'NN'
p1854
S'B-NP'
p1855
g5
tp1856
a(S'or'
p1857
S'or'
p1858
S'CC'
p1859
S'I-NP'
p1860
g5
tp1861
a(S'dependency'
p1862
S'dependency'
p1863
S'NN'
p1864
S'I-NP'
p1865
g5
tp1866
a(S'was'
p1867
S'be'
p1868
S'VBD'
p1869
S'B-VP'
p1870
g5
tp1871
a(S'significantly'
p1872
S'significantly'
p1873
S'RB'
p1874
S'B-ADJP'
p1875
g5
tp1876
a(S'greater'
p1877
S'great'
p1878
S'JJR'
p1879
S'I-ADJP'
p1880
g5
tp1881
a(S'in'
p1882
S'in'
p1883
S'IN'
p1884
S'B-PP'
p1885
g5
tp1886
a(S'the'
p1887
S'the'
p1888
S'DT'
p1889
S'B-NP'
p1890
g5
tp1891
a(S'neurosurgical'
p1892
S'neurosurgical'
p1893
S'JJ'
p1894
S'I-NP'
p1895
g5
tp1896
a(S'group'
p1897
S'group'
p1898
S'NN'
p1899
S'I-NP'
p1900
g5
tp1901
a(S'than'
p1902
S'than'
p1903
S'IN'
p1904
S'B-PP'
p1905
g5
tp1906
a(S'in'
p1907
S'in'
p1908
S'IN'
p1909
S'B-PP'
p1910
g5
tp1911
a(S'the'
p1912
S'the'
p1913
S'DT'
p1914
S'B-NP'
p1915
g5
tp1916
a(S'endovascular'
p1917
S'endovascular'
p1918
S'JJ'
p1919
S'I-NP'
p1920
g5
tp1921
a(S'group.'
p1922
S'group.'
p1923
S'NN'
p1924
S'I-NP'
p1925
g5
tp1926
a(S'Rebleeding'
p1927
S'Rebleeding'
p1928
S'NN'
p1929
S'I-NP'
p1930
g5
tp1931
a(S'was'
p1932
S'be'
p1933
S'VBD'
p1934
S'B-VP'
p1935
g5
tp1936
a(S'more'
p1937
S'more'
p1938
S'RBR'
p1939
S'B-ADJP'
p1940
g5
tp1941
a(S'likely'
p1942
S'likely'
p1943
S'JJ'
p1944
S'I-ADJP'
p1945
g5
tp1946
a(S'after'
p1947
S'after'
p1948
S'IN'
p1949
S'B-PP'
p1950
g5
tp1951
a(S'endovascular'
p1952
S'endovascular'
p1953
S'JJ'
p1954
S'B-NP'
p1955
g5
tp1956
a(S'coiling'
p1957
S'coiling'
p1958
S'NN'
p1959
S'I-NP'
p1960
g5
tp1961
a(S'than'
p1962
S'than'
p1963
S'IN'
p1964
S'B-PP'
p1965
g5
tp1966
a(S'after'
p1967
S'after'
p1968
S'IN'
p1969
S'B-PP'
p1970
g5
tp1971
a(S'neurosurgical'
p1972
S'neurosurgical'
p1973
S'JJ'
p1974
S'B-NP'
p1975
g5
tp1976
a(S'clipping'
p1977
S'clipping'
p1978
S'NN'
p1979
S'I-NP'
p1980
g5
tp1981
a(g530
g530
g530
g5
g5
tp1982
a(S'but'
p1983
S'but'
p1984
S'CC'
p1985
g5
g5
tp1986
a(S'the'
p1987
S'the'
p1988
S'DT'
p1989
S'B-NP'
p1990
g5
tp1991
a(S'risk'
p1992
S'risk'
p1993
S'NN'
p1994
S'I-NP'
p1995
g5
tp1996
a(S'was'
p1997
S'be'
p1998
S'VBD'
p1999
S'B-VP'
p2000
g5
tp2001
a(S'small'
p2002
S'small'
p2003
S'JJ'
p2004
S'B-ADJP'
p2005
g5
tp2006
a(S'and'
p2007
S'and'
p2008
S'CC'
p2009
g5
g5
tp2010
a(S'the'
p2011
S'the'
p2012
S'DT'
p2013
S'B-NP'
p2014
g5
tp2015
a(S'probability'
p2016
S'probability'
p2017
S'NN'
p2018
S'I-NP'
p2019
g5
tp2020
a(S'of'
p2021
S'of'
p2022
S'IN'
p2023
S'B-PP'
p2024
g5
tp2025
a(S'disability-free'
p2026
S'disability-free'
p2027
S'JJ'
p2028
S'B-NP'
p2029
g5
tp2030
a(S'survival'
p2031
S'survival'
p2032
S'NN'
p2033
S'I-NP'
p2034
g5
tp2035
a(S'was'
p2036
S'be'
p2037
S'VBD'
p2038
S'B-VP'
p2039
g5
tp2040
a(S'significantly'
p2041
S'significantly'
p2042
S'RB'
p2043
S'B-ADJP'
p2044
g5
tp2045
a(S'greater'
p2046
S'great'
p2047
S'JJR'
p2048
S'I-ADJP'
p2049
g5
tp2050
a(S'in'
p2051
S'in'
p2052
S'IN'
p2053
S'B-PP'
p2054
g5
tp2055
a(S'the'
p2056
S'the'
p2057
S'DT'
p2058
S'B-NP'
p2059
g5
tp2060
a(S'endovascular'
p2061
S'endovascular'
p2062
S'JJ'
p2063
S'I-NP'
p2064
g5
tp2065
a(S'group'
p2066
S'group'
p2067
S'NN'
p2068
S'I-NP'
p2069
g5
tp2070
a(S'than'
p2071
S'than'
p2072
S'IN'
p2073
S'B-PP'
p2074
g5
tp2075
a(S'in'
p2076
S'in'
p2077
S'IN'
p2078
S'B-PP'
p2079
g5
tp2080
a(S'the'
p2081
S'the'
p2082
S'DT'
p2083
S'B-NP'
p2084
g5
tp2085
a(S'neurosurgical'
p2086
S'neurosurgical'
p2087
S'JJ'
p2088
S'I-NP'
p2089
g5
tp2090
a(S'group'
p2091
S'group'
p2092
S'NN'
p2093
S'I-NP'
p2094
g5
tp2095
a(S'at'
p2096
S'at'
p2097
S'IN'
p2098
S'B-PP'
p2099
g5
tp2100
a(S'10'
p2101
S'10'
p2102
S'CD'
p2103
S'B-NP'
p2104
g5
tp2105
a(S'years'
p2106
S'year'
p2107
S'NNS'
p2108
S'I-NP'
p2109
g5
tp2110
a(g139
g139
g139
g5
g5
tp2111
a(S'FUNDING'
p2112
S'FUNDING'
p2113
S'VBG'
p2114
S'B-VP'
p2115
g5
tp2116
a(S'UK'
p2117
S'UK'
p2118
S'NNP'
p2119
S'B-NP'
p2120
g5
tp2121
a(S'Medical'
p2122
S'Medical'
p2123
S'NNP'
p2124
S'I-NP'
p2125
g5
tp2126
a(S'Research'
p2127
S'Research'
p2128
S'NNP'
p2129
S'I-NP'
p2130
g5
tp2131
a(S'Council'
p2132
S'Council'
p2133
S'NNP'
p2134
S'I-NP'
p2135
g5
tp2136
a(g139
g139
g139
g5
g5
tp2137
a.