(lp0
(S'Comparison'
p1
S'Comparison'
p2
S'NN'
p3
S'B-NP'
p4
S'O'
p5
tp6
a(S'of'
p7
S'of'
p8
S'IN'
p9
S'B-PP'
p10
g5
tp11
a(S'thiopentone/guaifenesin'
p12
S'thiopentone/guaifenesin'
p13
S'NN'
p14
S'B-NP'
p15
S'B-protein'
p16
tp17
a(S','
p18
g18
g18
S'I-NP'
p19
g5
tp20
a(S'ketamine/guaifenesin'
p21
S'ketamine/guaifenesin'
p22
S'NN'
p23
S'I-NP'
p24
g5
tp25
a(S'and'
p26
S'and'
p27
S'CC'
p28
S'I-NP'
p29
g5
tp30
a(S'ketamine/midazolam'
p31
S'ketamine/midazolam'
p32
S'NN'
p33
S'I-NP'
p34
g5
tp35
a(S'for'
p36
S'for'
p37
S'IN'
p38
S'B-PP'
p39
g5
tp40
a(S'the'
p41
S'the'
p42
S'DT'
p43
S'B-NP'
p44
g5
tp45
a(S'induction'
p46
S'induction'
p47
S'NN'
p48
S'I-NP'
p49
g5
tp50
a(S'of'
p51
S'of'
p52
S'IN'
p53
S'B-PP'
p54
g5
tp55
a(S'horses'
p56
S'horse'
p57
S'NNS'
p58
S'B-NP'
p59
g5
tp60
a(S'to'
p61
S'to'
p62
S'TO'
p63
S'B-VP'
p64
g5
tp65
a(S'be'
p66
S'be'
p67
S'VB'
p68
S'I-VP'
p69
g5
tp70
a(S'anaesthetised'
p71
S'anaesthetise'
p72
S'VBN'
p73
S'I-VP'
p74
g5
tp75
a(S'with'
p76
S'with'
p77
S'IN'
p78
S'B-PP'
p79
g5
tp80
a(S'isoflurane'
p81
S'isoflurane'
p82
S'NN'
p83
S'B-NP'
p84
g5
tp85
a(S'.'
p86
g86
g86
g5
g5
tp87
a(S'Forty-eight'
p88
S'Forty-eight'
p89
S'CD'
p90
S'B-NP'
p91
g5
tp92
a(S'horses'
p93
S'horse'
p94
S'NNS'
p95
S'I-NP'
p96
g5
tp97
a(S'subjected'
p98
S'subject'
p99
S'VBN'
p100
S'B-VP'
p101
g5
tp102
a(S'to'
p103
S'to'
p104
S'TO'
p105
S'B-PP'
p106
g5
tp107
a(S'elective'
p108
S'elective'
p109
S'JJ'
p110
S'B-NP'
p111
g5
tp112
a(S'surgery'
p113
S'surgery'
p114
S'NN'
p115
S'I-NP'
p116
g5
tp117
a(S'were'
p118
S'be'
p119
S'VBD'
p120
S'B-VP'
p121
g5
tp122
a(S'randomly'
p123
S'randomly'
p124
S'RB'
p125
S'I-VP'
p126
g5
tp127
a(S'assigned'
p128
S'assign'
p129
S'VBN'
p130
S'I-VP'
p131
g5
tp132
a(S'to'
p133
S'to'
p134
S'TO'
p135
S'B-PP'
p136
g5
tp137
a(S'three'
p138
S'three'
p139
S'CD'
p140
S'B-NP'
p141
g5
tp142
a(S'groups'
p143
S'group'
p144
S'NNS'
p145
S'I-NP'
p146
g5
tp147
a(S'of'
p148
S'of'
p149
S'IN'
p150
S'B-PP'
p151
g5
tp152
a(S'16'
p153
S'16'
p154
S'CD'
p155
S'B-NP'
p156
g5
tp157
a(S'horses.'
p158
S'horses.'
p159
S'NN'
p160
S'I-NP'
p161
g5
tp162
a(S'After'
p163
S'After'
p164
S'IN'
p165
S'B-PP'
p166
g5
tp167
a(S'premedication'
p168
S'premedication'
p169
S'NN'
p170
S'B-NP'
p171
g5
tp172
a(S'with'
p173
S'with'
p174
S'IN'
p175
S'B-PP'
p176
g5
tp177
a(S'0.1'
p178
S'0.1'
p179
S'CD'
p180
S'B-NP'
p181
g5
tp182
a(S'mg/kg'
p183
S'mg/kg'
p184
S'NN'
p185
S'I-NP'
p186
g5
tp187
a(S'acepromazine'
p188
S'acepromazine'
p189
S'NN'
p190
S'I-NP'
p191
g5
tp192
a(S'intramuscularly'
p193
S'intramuscularly'
p194
S'RB'
p195
S'B-ADVP'
p196
g5
tp197
a(S'and'
p198
S'and'
p199
S'CC'
p200
g5
g5
tp201
a(S'0.6'
p202
S'0.6'
p203
S'CD'
p204
S'B-NP'
p205
g5
tp206
a(S'mg/kg'
p207
S'mg/kg'
p208
S'NN'
p209
S'I-NP'
p210
g5
tp211
a(S'xylazine'
p212
S'xylazine'
p213
S'NN'
p214
S'I-NP'
p215
g5
tp216
a(S'intravenously'
p217
S'intravenously'
p218
S'RB'
p219
S'B-ADVP'
p220
g5
tp221
a(g18
g18
g18
g5
g5
tp222
a(S'anaesthesia'
p223
S'anaesthesia'
p224
S'NN'
p225
S'B-NP'
p226
g5
tp227
a(S'was'
p228
S'be'
p229
S'VBD'
p230
S'B-VP'
p231
g5
tp232
a(S'induced'
p233
S'induce'
p234
S'VBN'
p235
S'I-VP'
p236
g5
tp237
a(S'either'
p238
S'either'
p239
S'CC'
p240
S'B-PP'
p241
g5
tp242
a(S'with'
p243
S'with'
p244
S'IN'
p245
S'I-PP'
p246
g5
tp247
a(S'2'
p248
g248
S'CD'
p249
S'B-NP'
p250
g5
tp251
a(S'g'
p252
g252
S'NN'
p253
S'I-NP'
p254
g5
tp255
a(S'thiopentone'
p256
S'thiopentone'
p257
S'NN'
p258
S'I-NP'
p259
g5
tp260
a(S'in'
p261
S'in'
p262
S'IN'
p263
S'B-PP'
p264
g5
tp265
a(S'500'
p266
S'500'
p267
S'CD'
p268
S'B-NP'
p269
g5
tp270
a(S'ml'
p271
S'ml'
p272
S'NN'
p273
S'I-NP'
p274
g5
tp275
a(S'of'
p276
S'of'
p277
S'IN'
p278
S'B-PP'
p279
g5
tp280
a(S'a'
p281
g281
S'DT'
p282
S'B-NP'
p283
g5
tp284
a(S'10'
p285
S'10'
p286
S'CD'
p287
S'I-NP'
p288
g5
tp289
a(S'per'
p290
S'per'
p291
S'IN'
p292
S'B-PP'
p293
g5
tp294
a(S'cent'
p295
S'cent'
p296
S'NN'
p297
S'B-NP'
p298
g5
tp299
a(S'guaifenesin'
p300
S'guaifenesin'
p301
S'NN'
p302
S'I-NP'
p303
g5
tp304
a(S'solution'
p305
S'solution'
p306
S'NN'
p307
S'I-NP'
p308
g5
tp309
a(g18
g18
g18
g5
g5
tp310
a(S'given'
p311
S'give'
p312
S'VBN'
p313
S'B-VP'
p314
g5
tp315
a(S'intravenously'
p316
S'intravenously'
p317
S'RB'
p318
S'B-ADVP'
p319
g5
tp320
a(S'at'
p321
S'at'
p322
S'IN'
p323
S'B-PP'
p324
g5
tp325
a(g281
g281
S'DT'
p326
S'B-NP'
p327
g5
tp328
a(S'dose'
p329
S'dose'
p330
S'NN'
p331
S'I-NP'
p332
g5
tp333
a(S'of'
p334
S'of'
p335
S'IN'
p336
S'B-PP'
p337
g5
tp338
a(S'1'
p339
g339
S'CD'
p340
S'B-NP'
p341
g5
tp342
a(S'ml/kg'
p343
S'ml/kg'
p344
S'NN'
p345
S'I-NP'
p346
g5
tp347
a(S'('
p348
g348
g348
g5
g5
tp349
a(S'group'
p350
S'group'
p351
S'NN'
p352
S'B-NP'
p353
g5
tp354
a(S'TG'
p355
S'TG'
p356
S'NN'
p357
S'I-NP'
p358
g5
tp359
a(S')'
p360
g360
g360
g5
g5
tp361
a(g18
g18
g18
g5
g5
tp362
a(S'or'
p363
S'or'
p364
S'CC'
p365
g5
g5
tp366
a(S'with'
p367
S'with'
p368
S'IN'
p369
S'B-PP'
p370
g5
tp371
a(S'100'
p372
S'100'
p373
S'CD'
p374
S'B-NP'
p375
g5
tp376
a(S'mg/kg'
p377
S'mg/kg'
p378
S'NN'
p379
S'I-NP'
p380
g5
tp381
a(S'guaifenesin'
p382
S'guaifenesin'
p383
S'NN'
p384
S'I-NP'
p385
g5
tp386
a(S'and'
p387
S'and'
p388
S'CC'
p389
g5
g5
tp390
a(S'2.2'
p391
S'2.2'
p392
S'CD'
p393
S'B-NP'
p394
g5
tp395
a(S'mg/kg'
p396
S'mg/kg'
p397
S'NN'
p398
S'I-NP'
p399
g5
tp400
a(S'ketamine'
p401
S'ketamine'
p402
S'NN'
p403
S'I-NP'
p404
g5
tp405
a(S'given'
p406
S'give'
p407
S'VBN'
p408
S'B-VP'
p409
g5
tp410
a(S'intravenously'
p411
S'intravenously'
p412
S'RB'
p413
S'B-ADVP'
p414
g5
tp415
a(g348
g348
g348
g5
g5
tp416
a(S'group'
p417
S'group'
p418
S'NN'
p419
S'B-NP'
p420
g5
tp421
a(S'KG'
p422
S'KG'
p423
S'NN'
p424
S'I-NP'
p425
g5
tp426
a(g360
g360
g360
g5
g5
tp427
a(g18
g18
g18
g5
g5
tp428
a(S'or'
p429
S'or'
p430
S'CC'
p431
g5
g5
tp432
a(S'with'
p433
S'with'
p434
S'IN'
p435
S'B-PP'
p436
g5
tp437
a(S'0.06'
p438
S'0.06'
p439
S'CD'
p440
S'B-NP'
p441
g5
tp442
a(S'mg/kg'
p443
S'mg/kg'
p444
S'NN'
p445
S'I-NP'
p446
g5
tp447
a(S'midazolam'
p448
S'midazolam'
p449
S'NN'
p450
S'I-NP'
p451
g5
tp452
a(g18
g18
g18
g5
g5
tp453
a(S'and'
p454
S'and'
p455
S'CC'
p456
g5
g5
tp457
a(S'2.2'
p458
S'2.2'
p459
S'CD'
p460
S'B-NP'
p461
g5
tp462
a(S'mg/kg'
p463
S'mg/kg'
p464
S'NN'
p465
S'I-NP'
p466
g5
tp467
a(S'ketamine'
p468
S'ketamine'
p469
S'NN'
p470
S'I-NP'
p471
g5
tp472
a(S'given'
p473
S'give'
p474
S'VBN'
p475
S'B-VP'
p476
g5
tp477
a(S'intravenously'
p478
S'intravenously'
p479
S'RB'
p480
S'B-ADVP'
p481
g5
tp482
a(g348
g348
g348
g5
g5
tp483
a(S'group'
p484
S'group'
p485
S'NN'
p486
S'B-NP'
p487
g5
tp488
a(S'KM'
p489
S'KM'
p490
S'NN'
p491
S'I-NP'
p492
g5
tp493
a(g360
g360
g360
g5
g5
tp494
a(g86
g86
g86
g5
g5
tp495
a(S'Anaesthesia'
p496
S'Anaesthesia'
p497
S'NN'
p498
S'B-NP'
p499
g5
tp500
a(S'was'
p501
S'be'
p502
S'VBD'
p503
S'B-VP'
p504
g5
tp505
a(S'maintained'
p506
S'maintain'
p507
S'VBN'
p508
S'I-VP'
p509
g5
tp510
a(S'with'
p511
S'with'
p512
S'IN'
p513
S'B-PP'
p514
g5
tp515
a(S'isoflurane.'
p516
S'isoflurane.'
p517
S'NN'
p518
S'B-NP'
p519
g5
tp520
a(S'The'
p521
S'The'
p522
S'DT'
p523
S'B-NP'
p524
g5
tp525
a(S'mean'
p526
S'mean'
p527
S'JJ'
p528
S'I-NP'
p529
g5
tp530
a(g348
g348
g348
g5
g5
tp531
a(S'sd'
p532
S'sd'
p533
S'NN'
p534
S'B-NP'
p535
g5
tp536
a(g360
g360
g360
g5
g5
tp537
a(S'end'
p538
S'end'
p539
S'VBP'
p540
S'B-VP'
p541
g5
tp542
a(S'tidal'
p543
S'tidal'
p544
S'JJ'
p545
S'B-NP'
p546
g5
tp547
a(S'isoflurane'
p548
S'isoflurane'
p549
S'NN'
p550
S'I-NP'
p551
g5
tp552
a(S'concentration'
p553
S'concentration'
p554
S'NN'
p555
S'I-NP'
p556
g5
tp557
a(g348
g348
g348
g5
g5
tp558
a(S'per'
p559
S'per'
p560
S'IN'
p561
S'B-PP'
p562
g5
tp563
a(S'cent'
p564
S'cent'
p565
S'NN'
p566
S'B-NP'
p567
g5
tp568
a(g360
g360
g360
g5
g5
tp569
a(S'needed'
p570
S'need'
p571
S'VBN'
p572
S'B-VP'
p573
g5
tp574
a(S'to'
p575
S'to'
p576
S'TO'
p577
S'B-VP'
p578
g5
tp579
a(S'maintain'
p580
S'maintain'
p581
S'VB'
p582
S'I-VP'
p583
g5
tp584
a(g281
g281
S'DT'
p585
S'B-NP'
p586
g5
tp587
a(S'light'
p588
S'light'
p589
S'JJ'
p590
S'I-NP'
p591
g5
tp592
a(S'surgical'
p593
S'surgical'
p594
S'JJ'
p595
S'I-NP'
p596
g5
tp597
a(S'anaesthesia'
p598
S'anaesthesia'
p599
S'NN'
p600
S'I-NP'
p601
g5
tp602
a(g348
g348
g348
g5
g5
tp603
a(S'stage'
p604
S'stage'
p605
S'NN'
p606
S'B-NP'
p607
g5
tp608
a(S'III'
p609
S'III'
p610
S'CD'
p611
S'I-NP'
p612
g5
tp613
a(g18
g18
g18
g5
g5
tp614
a(S'plane'
p615
S'plane'
p616
S'NN'
p617
S'B-NP'
p618
g5
tp619
a(g248
g248
S'CD'
p620
S'I-NP'
p621
g5
tp622
a(g360
g360
g360
g5
g5
tp623
a(S'was'
p624
S'be'
p625
S'VBD'
p626
S'B-VP'
p627
g5
tp628
a(S'significantly'
p629
S'significantly'
p630
S'RB'
p631
S'B-ADJP'
p632
g5
tp633
a(S'lower'
p634
S'low'
p635
S'JJR'
p636
S'I-ADJP'
p637
g5
tp638
a(S'in'
p639
S'in'
p640
S'IN'
p641
S'B-PP'
p642
g5
tp643
a(S'group'
p644
S'group'
p645
S'NN'
p646
S'B-NP'
p647
g5
tp648
a(S'KM'
p649
S'KM'
p650
S'NN'
p651
S'I-NP'
p652
g5
tp653
a(g348
g348
g348
g5
g5
tp654
a(S'0.91'
p655
S'0.91'
p656
S'CD'
p657
S'B-NP'
p658
g5
tp659
a(S'['
p660
g660
g348
g5
g5
tp661
a(S'0.03'
p662
S'0.03'
p663
S'CD'
p664
S'B-NP'
p665
g5
tp666
a(S']'
p667
g667
g360
g5
g5
tp668
a(g360
g360
g360
g5
g5
tp669
a(S'than'
p670
S'than'
p671
S'IN'
p672
S'B-PP'
p673
g5
tp674
a(S'in'
p675
S'in'
p676
S'IN'
p677
S'B-PP'
p678
g5
tp679
a(S'groups'
p680
S'group'
p681
S'NNS'
p682
S'B-NP'
p683
g5
tp684
a(S'TG'
p685
S'TG'
p686
S'NN'
p687
S'I-NP'
p688
g5
tp689
a(g348
g348
g348
g5
g5
tp690
a(S'1.11'
p691
S'1.11'
p692
S'CD'
p693
S'B-NP'
p694
g5
tp695
a(g660
g660
g348
g5
g5
tp696
a(S'0.03'
p697
S'0.03'
p698
S'CD'
p699
S'B-NP'
p700
g5
tp701
a(g667
g667
g360
g5
g5
tp702
a(g360
g360
g360
g5
g5
tp703
a(S'and'
p704
S'and'
p705
S'CC'
p706
g5
g5
tp707
a(S'KG'
p708
S'KG'
p709
S'NN'
p710
S'B-NP'
p711
g5
tp712
a(g348
g348
g348
g5
g5
tp713
a(S'1.14'
p714
S'1.14'
p715
S'CD'
p716
S'B-NP'
p717
g5
tp718
a(g660
g660
g348
g5
g5
tp719
a(S'0.03'
p720
S'0.03'
p721
S'CD'
p722
S'B-NP'
p723
g5
tp724
a(g667
g667
g360
g5
g5
tp725
a(g360
g360
g360
g5
g5
tp726
a(g86
g86
g86
g5
g5
tp727
a(S'The'
p728
S'The'
p729
S'DT'
p730
S'B-NP'
p731
g5
tp732
a(S'mean'
p733
S'mean'
p734
S'JJ'
p735
S'I-NP'
p736
g5
tp737
a(g348
g348
g348
g5
g5
tp738
a(S'sd'
p739
S'sd'
p740
S'NN'
p741
S'B-NP'
p742
g5
tp743
a(g360
g360
g360
g5
g5
tp744
a(S'arterial'
p745
S'arterial'
p746
S'JJ'
p747
S'B-NP'
p748
g5
tp749
a(S'pressure'
p750
S'pressure'
p751
S'NN'
p752
S'I-NP'
p753
g5
tp754
a(g348
g348
g348
g5
g5
tp755
a(S'mmHg'
p756
S'mmHg'
p757
S'NN'
p758
S'B-NP'
p759
g5
tp760
a(g360
g360
g360
g5
g5
tp761
a(S'was'
p762
S'be'
p763
S'VBD'
p764
S'B-VP'
p765
g5
tp766
a(S'significantly'
p767
S'significantly'
p768
S'RB'
p769
S'B-ADJP'
p770
g5
tp771
a(S'lower'
p772
S'low'
p773
S'JJR'
p774
S'I-ADJP'
p775
g5
tp776
a(S'in'
p777
S'in'
p778
S'IN'
p779
S'B-PP'
p780
g5
tp781
a(S'group'
p782
S'group'
p783
S'NN'
p784
S'B-NP'
p785
g5
tp786
a(S'KG'
p787
S'KG'
p788
S'NN'
p789
S'I-NP'
p790
g5
tp791
a(g348
g348
g348
g5
g5
tp792
a(S'67.4'
p793
S'67.4'
p794
S'CD'
p795
S'B-NP'
p796
g5
tp797
a(g660
g660
g348
g5
g5
tp798
a(S'2.07'
p799
S'2.07'
p800
S'CD'
p801
S'B-NP'
p802
g5
tp803
a(g667
g667
g360
g5
g5
tp804
a(g360
g360
g360
g5
g5
tp805
a(S'than'
p806
S'than'
p807
S'IN'
p808
S'B-PP'
p809
g5
tp810
a(S'in'
p811
S'in'
p812
S'IN'
p813
S'B-PP'
p814
g5
tp815
a(S'groups'
p816
S'group'
p817
S'NNS'
p818
S'B-NP'
p819
g5
tp820
a(S'TC'
p821
S'TC'
p822
S'NN'
p823
S'I-NP'
p824
g5
tp825
a(g348
g348
g348
g5
g5
tp826
a(S'75.6'
p827
S'75.6'
p828
S'CD'
p829
S'B-NP'
p830
g5
tp831
a(g660
g660
g348
g5
g5
tp832
a(S'2.23'
p833
S'2.23'
p834
S'CD'
p835
S'B-NP'
p836
g5
tp837
a(g667
g667
g360
g5
g5
tp838
a(g360
g360
g360
g5
g5
tp839
a(S'and'
p840
S'and'
p841
S'CC'
p842
g5
g5
tp843
a(S'KM'
p844
S'KM'
p845
S'NN'
p846
S'B-NP'
p847
g5
tp848
a(g348
g348
g348
g5
g5
tp849
a(S'81.0'
p850
S'81.0'
p851
S'CD'
p852
S'B-NP'
p853
g5
tp854
a(g660
g660
g348
g5
g5
tp855
a(S'2.16'
p856
S'2.16'
p857
S'CD'
p858
S'B-NP'
p859
g5
tp860
a(g667
g667
g360
g5
g5
tp861
a(g360
g360
g360
g5
g5
tp862
a(g86
g86
g86
g5
g5
tp863
a(S'There'
p864
S'There'
p865
S'EX'
p866
S'B-NP'
p867
g5
tp868
a(S'were'
p869
S'be'
p870
S'VBD'
p871
S'B-VP'
p872
g5
tp873
a(S'no'
p874
S'no'
p875
S'DT'
p876
S'B-NP'
p877
g5
tp878
a(S'significant'
p879
S'significant'
p880
S'JJ'
p881
S'I-NP'
p882
g5
tp883
a(S'differences'
p884
S'difference'
p885
S'NNS'
p886
S'I-NP'
p887
g5
tp888
a(S'in'
p889
S'in'
p890
S'IN'
p891
S'B-PP'
p892
g5
tp893
a(S'the'
p894
S'the'
p895
S'DT'
p896
S'B-NP'
p897
g5
tp898
a(S'logarithm'
p899
S'logarithm'
p900
S'NN'
p901
S'I-NP'
p902
g5
tp903
a(S'of'
p904
S'of'
p905
S'IN'
p906
S'B-PP'
p907
g5
tp908
a(S'the'
p909
S'the'
p910
S'DT'
p911
S'B-NP'
p912
g5
tp913
a(S'heart'
p914
S'heart'
p915
S'NN'
p916
S'I-NP'
p917
g5
tp918
a(S'rate'
p919
S'rate'
p920
S'NN'
p921
S'I-NP'
p922
g5
tp923
a(g18
g18
g18
g5
g5
tp924
a(S'recovery'
p925
S'recovery'
p926
S'NN'
p927
S'B-NP'
p928
g5
tp929
a(S'time'
p930
S'time'
p931
S'NN'
p932
S'I-NP'
p933
g5
tp934
a(S'or'
p935
S'or'
p936
S'CC'
p937
g5
g5
tp938
a(S'quality'
p939
S'quality'
p940
S'NN'
p941
S'B-NP'
p942
g5
tp943
a(S'of'
p944
S'of'
p945
S'IN'
p946
S'B-PP'
p947
g5
tp948
a(S'recovery'
p949
S'recovery'
p950
S'NN'
p951
S'B-NP'
p952
g5
tp953
a(S'between'
p954
S'between'
p955
S'IN'
p956
S'B-PP'
p957
g5
tp958
a(S'the'
p959
S'the'
p960
S'DT'
p961
S'B-NP'
p962
g5
tp963
a(S'three'
p964
S'three'
p965
S'CD'
p966
S'I-NP'
p967
g5
tp968
a(S'induction'
p969
S'induction'
p970
S'NN'
p971
S'I-NP'
p972
g5
tp973
a(S'groups.'
p974
S'groups.'
p975
S'NNS'
p976
S'I-NP'
p977
g5
tp978
a(S'However'
p979
S'However'
p980
S'RB'
p981
S'B-ADVP'
p982
g5
tp983
a(g18
g18
g18
g5
g5
tp984
a(S'pronounced'
p985
S'pronounced'
p986
S'JJ'
p987
S'B-NP'
p988
g5
tp989
a(S'ataxia'
p990
S'ataxia'
p991
S'NN'
p992
S'I-NP'
p993
g5
tp994
a(S'was'
p995
S'be'
p996
S'VBD'
p997
S'B-VP'
p998
g5
tp999
a(S'observed'
p1000
S'observe'
p1001
S'VBN'
p1002
S'I-VP'
p1003
g5
tp1004
a(S'in'
p1005
S'in'
p1006
S'IN'
p1007
S'B-PP'
p1008
g5
tp1009
a(S'the'
p1010
S'the'
p1011
S'DT'
p1012
S'B-NP'
p1013
g5
tp1014
a(S'horses'
p1015
S'horse'
p1016
S'NNS'
p1017
S'I-NP'
p1018
g5
tp1019
a(S'of'
p1020
S'of'
p1021
S'IN'
p1022
S'B-PP'
p1023
g5
tp1024
a(S'group'
p1025
S'group'
p1026
S'NN'
p1027
S'B-NP'
p1028
g5
tp1029
a(S'KM'
p1030
S'KM'
p1031
S'NN'
p1032
S'I-NP'
p1033
g5
tp1034
a(g18
g18
g18
g5
g5
tp1035
a(S'especially'
p1036
S'especially'
p1037
S'RB'
p1038
S'B-ADVP'
p1039
g5
tp1040
a(S'after'
p1041
S'after'
p1042
S'IN'
p1043
S'B-SBAR'
p1044
g5
tp1045
a(S'periods'
p1046
S'period'
p1047
S'NNS'
p1048
S'B-NP'
p1049
g5
tp1050
a(S'of'
p1051
S'of'
p1052
S'IN'
p1053
S'B-PP'
p1054
g5
tp1055
a(S'anaesthesia'
p1056
S'anaesthesia'
p1057
S'NN'
p1058
S'B-NP'
p1059
g5
tp1060
a(S'lasting'
p1061
S'last'
p1062
S'VBG'
p1063
S'B-VP'
p1064
g5
tp1065
a(S'less'
p1066
S'less'
p1067
S'JJR'
p1068
S'B-NP'
p1069
g5
tp1070
a(S'than'
p1071
S'than'
p1072
S'IN'
p1073
S'I-NP'
p1074
g5
tp1075
a(S'75'
p1076
S'75'
p1077
S'CD'
p1078
S'I-NP'
p1079
g5
tp1080
a(S'minutes'
p1081
S'minute'
p1082
S'NNS'
p1083
S'I-NP'
p1084
g5
tp1085
a(g86
g86
g86
g5
g5
tp1086
a.