(lp0
(S'Amiodarone'
p1
S'Amiodarone'
p2
S'NN'
p3
S'B-NP'
p4
S'O'
p5
tp6
a(S'versus'
p7
S'versus'
p8
S'CC'
p9
S'I-NP'
p10
g5
tp11
a(S'digoxin'
p12
S'digoxin'
p13
S'NN'
p14
S'I-NP'
p15
g5
tp16
a(S'and'
p17
S'and'
p18
S'CC'
p19
S'I-NP'
p20
g5
tp21
a(S'metoprolol'
p22
S'metoprolol'
p23
S'NN'
p24
S'I-NP'
p25
g5
tp26
a(S'combination'
p27
S'combination'
p28
S'NN'
p29
S'I-NP'
p30
g5
tp31
a(S'for'
p32
S'for'
p33
S'IN'
p34
S'B-PP'
p35
g5
tp36
a(S'the'
p37
S'the'
p38
S'DT'
p39
S'B-NP'
p40
g5
tp41
a(S'prevention'
p42
S'prevention'
p43
S'NN'
p44
S'I-NP'
p45
g5
tp46
a(S'of'
p47
S'of'
p48
S'IN'
p49
S'B-PP'
p50
g5
tp51
a(S'postcoronary'
p52
S'postcoronary'
p53
S'JJ'
p54
S'B-NP'
p55
g5
tp56
a(S'bypass'
p57
S'bypass'
p58
S'IN'
p59
S'B-PP'
p60
g5
tp61
a(S'atrial'
p62
S'atrial'
p63
S'JJ'
p64
S'B-NP'
p65
g5
tp66
a(S'fibrillation'
p67
S'fibrillation'
p68
S'NN'
p69
S'I-NP'
p70
g5
tp71
a(S'.'
p72
g72
g72
g5
g5
tp73
a(S'OBJECTIVE'
p74
S'OBJECTIVE'
p75
S'NN'
p76
S'B-NP'
p77
g5
tp78
a(S'This'
p79
S'This'
p80
S'DT'
p81
S'B-NP'
p82
g5
tp83
a(S'prospective'
p84
S'prospective'
p85
S'JJ'
p86
S'I-NP'
p87
g5
tp88
a(S'randomized'
p89
S'randomize'
p90
S'VBN'
p91
S'I-NP'
p92
g5
tp93
a(S'study'
p94
S'study'
p95
S'NN'
p96
S'I-NP'
p97
g5
tp98
a(S'aims'
p99
S'aim'
p100
S'VBZ'
p101
S'B-VP'
p102
g5
tp103
a(S'at'
p104
S'at'
p105
S'IN'
p106
S'B-PP'
p107
g5
tp108
a(S'evaluation'
p109
S'evaluation'
p110
S'NN'
p111
S'B-NP'
p112
g5
tp113
a(S'and'
p114
S'and'
p115
S'CC'
p116
S'I-NP'
p117
g5
tp118
a(S'comparison'
p119
S'comparison'
p120
S'NN'
p121
S'I-NP'
p122
g5
tp123
a(S'of'
p124
S'of'
p125
S'IN'
p126
S'B-PP'
p127
g5
tp128
a(S'the'
p129
S'the'
p130
S'DT'
p131
S'B-NP'
p132
g5
tp133
a(S'prophylactic'
p134
S'prophylactic'
p135
S'JJ'
p136
S'I-NP'
p137
g5
tp138
a(S'effects'
p139
S'effect'
p140
S'NNS'
p141
S'I-NP'
p142
g5
tp143
a(S'of'
p144
S'of'
p145
S'IN'
p146
S'B-PP'
p147
g5
tp148
a(S'amiodarone'
p149
S'amiodarone'
p150
S'NN'
p151
S'B-NP'
p152
S'B-protein'
p153
tp154
a(S'versus'
p155
S'versus'
p156
S'CC'
p157
S'I-NP'
p158
S'I-protein'
p159
tp160
a(S'digoxin'
p161
S'digoxin'
p162
S'NN'
p163
S'I-NP'
p164
S'I-protein'
p165
tp166
a(S'and'
p167
S'and'
p168
S'CC'
p169
S'I-NP'
p170
g5
tp171
a(S'metoprolol'
p172
S'metoprolol'
p173
S'NN'
p174
S'I-NP'
p175
g5
tp176
a(S'combination'
p177
S'combination'
p178
S'NN'
p179
S'I-NP'
p180
g5
tp181
a(S'in'
p182
S'in'
p183
S'IN'
p184
S'B-PP'
p185
g5
tp186
a(S'postcoronary'
p187
S'postcoronary'
p188
S'JJ'
p189
S'B-NP'
p190
g5
tp191
a(S'bypass'
p192
S'bypass'
p193
S'IN'
p194
S'B-PP'
p195
g5
tp196
a(S'atrial'
p197
S'atrial'
p198
S'JJ'
p199
S'B-NP'
p200
g5
tp201
a(S'fibrillation'
p202
S'fibrillation'
p203
S'NN'
p204
S'I-NP'
p205
g5
tp206
a(g72
g72
g72
g5
g5
tp207
a(S'METHODS'
p208
S'METHODS'
p209
S'NNS'
p210
S'B-NP'
p211
g5
tp212
a(S'A'
p213
g213
S'DT'
p214
S'B-NP'
p215
g5
tp216
a(S'total'
p217
S'total'
p218
S'NN'
p219
S'I-NP'
p220
g5
tp221
a(S'of'
p222
S'of'
p223
S'IN'
p224
S'B-PP'
p225
g5
tp226
a(S'241'
p227
S'241'
p228
S'CD'
p229
S'B-NP'
p230
g5
tp231
a(S'consecutive'
p232
S'consecutive'
p233
S'JJ'
p234
S'I-NP'
p235
g5
tp236
a(S'patients'
p237
S'patient'
p238
S'NNS'
p239
S'I-NP'
p240
g5
tp241
a(S'undergoing'
p242
S'undergo'
p243
S'VBG'
p244
S'B-VP'
p245
g5
tp246
a(S'elective'
p247
S'elective'
p248
S'JJ'
p249
S'B-NP'
p250
g5
tp251
a(S'coronary'
p252
S'coronary'
p253
S'JJ'
p254
S'I-NP'
p255
g5
tp256
a(S'artery'
p257
S'artery'
p258
S'NN'
p259
S'I-NP'
p260
g5
tp261
a(S'bypass'
p262
S'bypass'
p263
S'IN'
p264
S'B-PP'
p265
g5
tp266
a(S'grafting'
p267
S'grafting'
p268
S'NN'
p269
S'B-NP'
p270
g5
tp271
a(S'were'
p272
S'be'
p273
S'VBD'
p274
S'B-VP'
p275
g5
tp276
a(S'randomly'
p277
S'randomly'
p278
S'RB'
p279
S'I-VP'
p280
g5
tp281
a(S'allocated'
p282
S'allocate'
p283
S'VBN'
p284
S'I-VP'
p285
g5
tp286
a(S'into'
p287
S'into'
p288
S'IN'
p289
S'B-PP'
p290
g5
tp291
a(S'three'
p292
S'three'
p293
S'CD'
p294
S'B-NP'
p295
g5
tp296
a(S'groups.'
p297
S'groups.'
p298
S'NN'
p299
S'I-NP'
p300
g5
tp301
a(S'Patients'
p302
S'Patient'
p303
S'NNS'
p304
S'I-NP'
p305
g5
tp306
a(S'in'
p307
S'in'
p308
S'IN'
p309
S'B-PP'
p310
g5
tp311
a(S'Group1'
p312
S'Group1'
p313
S'NN'
p314
S'B-NP'
p315
g5
tp316
a(S'('
p317
g317
g317
g5
g5
tp318
a(S'n=77'
p319
S'n=77'
p320
S'NN'
p321
S'B-NP'
p322
g5
tp323
a(S')'
p324
g324
g324
g5
g5
tp325
a(S'received'
p326
S'receive'
p327
S'VBD'
p328
S'B-VP'
p329
g5
tp330
a(S'metoprolol'
p331
S'metoprolol'
p332
S'NN'
p333
S'B-NP'
p334
g5
tp335
a(S'100'
p336
S'100'
p337
S'CD'
p338
S'I-NP'
p339
g5
tp340
a(S'mg/24'
p341
S'mg/24'
p342
S'NN'
p343
S'I-NP'
p344
g5
tp345
a(S'h'
p346
g346
S'NN'
p347
S'I-NP'
p348
g5
tp349
a(S'per'
p350
S'per'
p351
S'IN'
p352
S'B-PP'
p353
g5
tp354
a(S'oral'
p355
S'oral'
p356
S'JJ'
p357
S'B-NP'
p358
g5
tp359
a(g317
g317
g317
g5
g5
tp360
a(S'P.O.'
p361
S'P.O.'
p362
S'NN'
p363
S'B-NP'
p364
g5
tp365
a(g324
g324
g324
g5
g5
tp366
a(S','
p367
g367
g367
g5
g5
tp368
a(S'preoperatively'
p369
S'preoperatively'
p370
S'RB'
p371
S'B-ADVP'
p372
g5
tp373
a(g367
g367
g367
g5
g5
tp374
a(S'2x0.5'
p375
S'2x0.5'
p376
S'CD'
p377
S'B-NP'
p378
g5
tp379
a(S'mg'
p380
S'mg'
p381
S'NN'
p382
S'I-NP'
p383
g5
tp384
a(S'digoxin'
p385
S'digoxin'
p386
S'NN'
p387
S'I-NP'
p388
g5
tp389
a(S'intravenously'
p390
S'intravenously'
p391
S'RB'
p392
S'B-ADVP'
p393
g5
tp394
a(S'on'
p395
S'on'
p396
S'IN'
p397
S'B-PP'
p398
g5
tp399
a(S'the'
p400
S'the'
p401
S'DT'
p402
S'B-NP'
p403
g5
tp404
a(S'operating'
p405
S'operating'
p406
S'NN'
p407
S'I-NP'
p408
g5
tp409
a(S'day'
p410
S'day'
p411
S'NN'
p412
S'I-NP'
p413
g5
tp414
a(S'and'
p415
S'and'
p416
S'CC'
p417
g5
g5
tp418
a(S'digoxin'
p419
S'digoxin'
p420
S'NN'
p421
S'B-NP'
p422
g5
tp423
a(S'0.25'
p424
S'0.25'
p425
S'CD'
p426
S'I-NP'
p427
g5
tp428
a(S'mg'
p429
S'mg'
p430
S'NN'
p431
S'I-NP'
p432
g5
tp433
a(S'P.O.+metoprolol'
p434
S'P.O.+metoprolol'
p435
S'NN'
p436
S'I-NP'
p437
g5
tp438
a(S'100'
p439
S'100'
p440
S'CD'
p441
S'I-NP'
p442
g5
tp443
a(S'mg'
p444
S'mg'
p445
S'NN'
p446
S'I-NP'
p447
g5
tp448
a(S'P.O.'
p449
S'P.O.'
p450
S'NNP'
p451
S'I-NP'
p452
g5
tp453
a(S'on'
p454
S'on'
p455
S'IN'
p456
S'B-PP'
p457
g5
tp458
a(S'the'
p459
S'the'
p460
S'DT'
p461
S'B-NP'
p462
g5
tp463
a(S'first'
p464
S'first'
p465
S'JJ'
p466
S'I-NP'
p467
g5
tp468
a(S'postoperative'
p469
S'postoperative'
p470
S'JJ'
p471
S'I-NP'
p472
g5
tp473
a(S'day'
p474
S'day'
p475
S'NN'
p476
S'I-NP'
p477
g5
tp478
a(S'until'
p479
S'until'
p480
S'IN'
p481
S'B-SBAR'
p482
g5
tp483
a(S'discharge.'
p484
S'discharge.'
p485
S'NN'
p486
S'B-NP'
p487
g5
tp488
a(S'Patients'
p489
S'Patient'
p490
S'NNS'
p491
S'I-NP'
p492
g5
tp493
a(S'in'
p494
S'in'
p495
S'IN'
p496
S'B-PP'
p497
g5
tp498
a(S'Group'
p499
S'Group'
p500
S'NN'
p501
S'B-NP'
p502
g5
tp503
a(S'2'
p504
g504
S'CD'
p505
S'I-NP'
p506
g5
tp507
a(g317
g317
g317
g5
g5
tp508
a(S'n=72'
p509
S'n=72'
p510
S'NN'
p511
S'B-NP'
p512
g5
tp513
a(g324
g324
g324
g5
g5
tp514
a(S'received'
p515
S'receive'
p516
S'VBD'
p517
S'B-VP'
p518
g5
tp519
a(S'totally'
p520
S'totally'
p521
S'RB'
p522
S'B-NP'
p523
g5
tp524
a(S'1200'
p525
S'1200'
p526
S'CD'
p527
S'I-NP'
p528
g5
tp529
a(S'mg'
p530
S'mg'
p531
S'NN'
p532
S'I-NP'
p533
g5
tp534
a(S'intravenous/24'
p535
S'intravenous/24'
p536
S'NN'
p537
S'I-NP'
p538
g5
tp539
a(g346
g346
S'NN'
p540
S'I-NP'
p541
g5
tp542
a(S'amiodarone'
p543
S'amiodarone'
p544
S'NN'
p545
S'I-NP'
p546
g5
tp547
a(S'which'
p548
S'which'
p549
S'WDT'
p550
S'B-NP'
p551
g5
tp552
a(S'the'
p553
S'the'
p554
S'DT'
p555
S'B-NP'
p556
g5
tp557
a(S'300'
p558
S'300'
p559
S'CD'
p560
S'I-NP'
p561
g5
tp562
a(S'mg'
p563
S'mg'
p564
S'NN'
p565
S'I-NP'
p566
g5
tp567
a(S'-'
p568
g568
S'HYPH'
p569
S'I-NP'
p570
g5
tp571
a(S'bolus'
p572
S'bolus'
p573
S'NN'
p574
S'I-NP'
p575
g5
tp576
a(S'dose/1'
p577
S'dose/1'
p578
S'NN'
p579
S'I-NP'
p580
g5
tp581
a(g346
g346
S'NN'
p582
S'I-NP'
p583
g5
tp584
a(S'was'
p585
S'be'
p586
S'VBD'
p587
S'B-VP'
p588
g5
tp589
a(S'given'
p590
S'give'
p591
S'VBN'
p592
S'I-VP'
p593
g5
tp594
a(S'as'
p595
S'as'
p596
S'RB'
p597
S'B-ADVP'
p598
g5
tp599
a(S'soon'
p600
S'soon'
p601
S'RB'
p602
S'I-ADVP'
p603
g5
tp604
a(S'as'
p605
S'as'
p606
S'IN'
p607
S'B-SBAR'
p608
g5
tp609
a(S'the'
p610
S'the'
p611
S'DT'
p612
S'B-NP'
p613
g5
tp614
a(S'operation'
p615
S'operation'
p616
S'NN'
p617
S'I-NP'
p618
g5
tp619
a(S'had'
p620
S'have'
p621
S'VBD'
p622
S'B-VP'
p623
g5
tp624
a(S'been'
p625
S'be'
p626
S'VBN'
p627
S'I-VP'
p628
g5
tp629
a(S'finished.'
p630
S'finished.'
p631
S'RB'
p632
S'B-ADVP'
p633
g5
tp634
a(S'On'
p635
S'On'
p636
S'IN'
p637
S'B-PP'
p638
g5
tp639
a(S'the'
p640
S'the'
p641
S'DT'
p642
S'B-NP'
p643
g5
tp644
a(S'next'
p645
S'next'
p646
S'JJ'
p647
S'I-NP'
p648
g5
tp649
a(S'day'
p650
S'day'
p651
S'NN'
p652
S'I-NP'
p653
g5
tp654
a(S'patients'
p655
S'patient'
p656
S'NNS'
p657
S'I-NP'
p658
g5
tp659
a(S'were'
p660
S'be'
p661
S'VBD'
p662
S'B-VP'
p663
g5
tp664
a(S'administered'
p665
S'administer'
p666
S'VBN'
p667
S'I-VP'
p668
g5
tp669
a(S'450'
p670
S'450'
p671
S'CD'
p672
S'B-NP'
p673
g5
tp674
a(S'mg/24'
p675
S'mg/24'
p676
S'NN'
p677
S'I-NP'
p678
g5
tp679
a(g346
g346
S'NN'
p680
S'I-NP'
p681
g5
tp682
a(S'amiodarone'
p683
S'amiodarone'
p684
S'NN'
p685
S'I-NP'
p686
g5
tp687
a(S'i.v.'
p688
S'i.v.'
p689
S'JJ'
p690
S'B-ADJP'
p691
g5
tp692
a(S'and'
p693
S'and'
p694
S'CC'
p695
g5
g5
tp696
a(S'600'
p697
S'600'
p698
S'CD'
p699
S'B-NP'
p700
g5
tp701
a(S'mg/day'
p702
S'mg/day'
p703
S'NN'
p704
S'I-NP'
p705
g5
tp706
a(S'in'
p707
S'in'
p708
S'IN'
p709
S'B-PP'
p710
g5
tp711
a(S'three'
p712
S'three'
p713
S'CD'
p714
S'B-NP'
p715
g5
tp716
a(S'doses'
p717
S'dose'
p718
S'NNS'
p719
S'I-NP'
p720
g5
tp721
a(S'P.O.'
p722
S'P.O.'
p723
S'NNP'
p724
S'B-NP'
p725
g5
tp726
a(S'were'
p727
S'be'
p728
S'VBD'
p729
S'B-VP'
p730
g5
tp731
a(S'given'
p732
S'give'
p733
S'VBN'
p734
S'I-VP'
p735
g5
tp736
a(S'until'
p737
S'until'
p738
S'IN'
p739
S'B-PP'
p740
g5
tp741
a(S'discharge.'
p742
S'discharge.'
p743
S'NN'
p744
S'B-NP'
p745
g5
tp746
a(S'Group'
p747
S'Group'
p748
S'NNP'
p749
S'B-NP'
p750
g5
tp751
a(S'3'
p752
g752
S'CD'
p753
S'I-NP'
p754
g5
tp755
a(g317
g317
g317
g5
g5
tp756
a(S'n=92'
p757
S'n=92'
p758
S'NN'
p759
S'B-NP'
p760
S'B-protein'
p761
tp762
a(g324
g324
g324
g5
g5
tp763
a(S'was'
p764
S'be'
p765
S'VBD'
p766
S'B-VP'
p767
g5
tp768
a(S'the'
p769
S'the'
p770
S'DT'
p771
S'B-NP'
p772
g5
tp773
a(S'control'
p774
S'control'
p775
S'NN'
p776
S'I-NP'
p777
g5
tp778
a(S'group'
p779
S'group'
p780
S'NN'
p781
S'I-NP'
p782
g5
tp783
a(S'with'
p784
S'with'
p785
S'IN'
p786
S'B-PP'
p787
g5
tp788
a(S'no'
p789
S'no'
p790
S'DT'
p791
S'B-NP'
p792
g5
tp793
a(S'antiarrhythmic'
p794
S'antiarrhythmic'
p795
S'JJ'
p796
S'I-NP'
p797
g5
tp798
a(S'prophylaxis'
p799
S'prophylaxis'
p800
S'NN'
p801
S'I-NP'
p802
g5
tp803
a(g72
g72
g72
g5
g5
tp804
a(S'RESULTS'
p805
S'RESULTS'
p806
S'NNS'
p807
S'B-NP'
p808
g5
tp809
a(S'Preoperative'
p810
S'Preoperative'
p811
S'JJ'
p812
S'I-NP'
p813
g5
tp814
a(S'patient'
p815
S'patient'
p816
S'NN'
p817
S'I-NP'
p818
g5
tp819
a(S'characteristics'
p820
S'characteristic'
p821
S'NNS'
p822
S'I-NP'
p823
g5
tp824
a(S'and'
p825
S'and'
p826
S'CC'
p827
g5
g5
tp828
a(S'operative'
p829
S'operative'
p830
S'JJ'
p831
S'B-NP'
p832
g5
tp833
a(S'parameters'
p834
S'parameter'
p835
S'NNS'
p836
S'I-NP'
p837
g5
tp838
a(S'were'
p839
S'be'
p840
S'VBD'
p841
S'B-VP'
p842
g5
tp843
a(S'similar'
p844
S'similar'
p845
S'JJ'
p846
S'B-ADJP'
p847
g5
tp848
a(S'in'
p849
S'in'
p850
S'IN'
p851
S'B-PP'
p852
g5
tp853
a(S'three'
p854
S'three'
p855
S'CD'
p856
S'B-NP'
p857
g5
tp858
a(S'groups.'
p859
S'groups.'
p860
S'NN'
p861
S'I-NP'
p862
g5
tp863
a(S'Atrial'
p864
S'Atrial'
p865
S'JJ'
p866
S'I-NP'
p867
g5
tp868
a(S'fibrillation'
p869
S'fibrillation'
p870
S'NN'
p871
S'I-NP'
p872
g5
tp873
a(S'occurred'
p874
S'occur'
p875
S'VBD'
p876
S'B-VP'
p877
g5
tp878
a(S'in'
p879
S'in'
p880
S'IN'
p881
S'B-PP'
p882
g5
tp883
a(S'13'
p884
S'13'
p885
S'CD'
p886
S'B-NP'
p887
g5
tp888
a(S'patients'
p889
S'patient'
p890
S'NNS'
p891
S'I-NP'
p892
g5
tp893
a(g317
g317
g317
g5
g5
tp894
a(S'16.8'
p895
S'16.8'
p896
S'CD'
p897
S'B-NP'
p898
g5
tp899
a(S'%'
p900
g900
S'NN'
p901
S'I-NP'
p902
g5
tp903
a(g324
g324
g324
g5
g5
tp904
a(S'in'
p905
S'in'
p906
S'IN'
p907
S'B-PP'
p908
g5
tp909
a(S'Group'
p910
S'Group'
p911
S'NN'
p912
S'B-NP'
p913
g5
tp914
a(S'1'
p915
g915
S'CD'
p916
S'I-NP'
p917
g5
tp918
a(g367
g367
g367
g5
g5
tp919
a(S'six'
p920
S'six'
p921
S'CD'
p922
S'B-NP'
p923
g5
tp924
a(S'patients'
p925
S'patient'
p926
S'NNS'
p927
S'I-NP'
p928
g5
tp929
a(g317
g317
g317
g5
g5
tp930
a(S'8.3'
p931
S'8.3'
p932
S'CD'
p933
S'B-NP'
p934
g5
tp935
a(g900
g900
S'NN'
p936
S'I-NP'
p937
g5
tp938
a(g324
g324
g324
g5
g5
tp939
a(S'in'
p940
S'in'
p941
S'IN'
p942
S'B-PP'
p943
g5
tp944
a(S'Group'
p945
S'Group'
p946
S'NN'
p947
S'B-NP'
p948
g5
tp949
a(g504
g504
S'CD'
p950
S'I-NP'
p951
g5
tp952
a(S'and'
p953
S'and'
p954
S'CC'
p955
S'I-NP'
p956
g5
tp957
a(S'31'
p958
S'31'
p959
S'CD'
p960
S'I-NP'
p961
g5
tp962
a(S'patients'
p963
S'patient'
p964
S'NNS'
p965
S'I-NP'
p966
g5
tp967
a(g317
g317
g317
g5
g5
tp968
a(S'33.6'
p969
S'33.6'
p970
S'CD'
p971
S'B-NP'
p972
g5
tp973
a(g900
g900
S'NN'
p974
S'I-NP'
p975
g5
tp976
a(g324
g324
g324
g5
g5
tp977
a(S'in'
p978
S'in'
p979
S'IN'
p980
S'B-PP'
p981
g5
tp982
a(S'Group'
p983
S'Group'
p984
S'NN'
p985
S'B-NP'
p986
g5
tp987
a(g752
g752
S'CD'
p988
S'I-NP'
p989
g5
tp990
a(g72
g72
g72
g5
g5
tp991
a(S'CONCLUSION'
p992
S'CONCLUSION'
p993
S'NN'
p994
S'B-NP'
p995
g5
tp996
a(S'Both'
p997
S'Both'
p998
S'CC'
p999
S'I-NP'
p1000
g5
tp1001
a(S'study'
p1002
S'study'
p1003
S'NN'
p1004
S'I-NP'
p1005
g5
tp1006
a(S'groups'
p1007
S'group'
p1008
S'NNS'
p1009
S'I-NP'
p1010
g5
tp1011
a(S'were'
p1012
S'be'
p1013
S'VBD'
p1014
S'B-VP'
p1015
g5
tp1016
a(S'effective'
p1017
S'effective'
p1018
S'JJ'
p1019
S'B-ADJP'
p1020
g5
tp1021
a(S'in'
p1022
S'in'
p1023
S'IN'
p1024
S'B-PP'
p1025
g5
tp1026
a(S'the'
p1027
S'the'
p1028
S'DT'
p1029
S'B-NP'
p1030
g5
tp1031
a(S'prevention'
p1032
S'prevention'
p1033
S'NN'
p1034
S'I-NP'
p1035
g5
tp1036
a(S'of'
p1037
S'of'
p1038
S'IN'
p1039
S'B-PP'
p1040
g5
tp1041
a(S'postcoronary'
p1042
S'postcoronary'
p1043
S'JJ'
p1044
S'B-NP'
p1045
g5
tp1046
a(S'bypass'
p1047
S'bypass'
p1048
S'IN'
p1049
S'B-PP'
p1050
g5
tp1051
a(S'atrial'
p1052
S'atrial'
p1053
S'JJ'
p1054
S'B-NP'
p1055
g5
tp1056
a(S'fibrillation'
p1057
S'fibrillation'
p1058
S'NN'
p1059
S'I-NP'
p1060
g5
tp1061
a(S'with'
p1062
S'with'
p1063
S'IN'
p1064
S'B-PP'
p1065
g5
tp1066
a(S'respect'
p1067
S'respect'
p1068
S'NN'
p1069
S'B-NP'
p1070
g5
tp1071
a(S'to'
p1072
S'to'
p1073
S'TO'
p1074
S'B-PP'
p1075
g5
tp1076
a(S'control'
p1077
S'control'
p1078
S'NN'
p1079
S'B-NP'
p1080
g5
tp1081
a(g317
g317
g317
g5
g5
tp1082
a(S'P'
p1083
g1083
S'NN'
p1084
S'B-NP'
p1085
g5
tp1086
a(S'<'
p1087
g1087
S'JJR'
p1088
S'B-NP'
p1089
g5
tp1090
a(S'0.01'
p1091
S'0.01'
p1092
S'CD'
p1093
S'I-NP'
p1094
g5
tp1095
a(S'in'
p1096
S'in'
p1097
S'IN'
p1098
S'B-PP'
p1099
g5
tp1100
a(S'Group'
p1101
S'Group'
p1102
S'NN'
p1103
S'B-NP'
p1104
g5
tp1105
a(g915
g915
S'CD'
p1106
S'I-NP'
p1107
g5
tp1108
a(S'and'
p1109
S'and'
p1110
S'CC'
p1111
S'I-NP'
p1112
g5
tp1113
a(g1083
g1083
S'NN'
p1114
S'I-NP'
p1115
g5
tp1116
a(g1087
g1087
S'SYM'
p1117
S'B-NP'
p1118
g5
tp1119
a(S'0.001'
p1120
S'0.001'
p1121
S'CD'
p1122
S'B-NP'
p1123
g5
tp1124
a(S'in'
p1125
S'in'
p1126
S'IN'
p1127
S'B-PP'
p1128
g5
tp1129
a(S'Group'
p1130
S'Group'
p1131
S'NN'
p1132
S'B-NP'
p1133
g5
tp1134
a(g504
g504
S'CD'
p1135
S'I-NP'
p1136
g5
tp1137
a(g324
g324
g324
g5
g5
tp1138
a(g72
g72
g72
g5
g5
tp1139
a.