(lp0
(S'Should'
p1
S'Should'
p2
S'MD'
p3
S'B-VP'
p4
S'O'
p5
tp6
a(S'angioplasty'
p7
S'angioplasty'
p8
S'RB'
p9
S'I-VP'
p10
g5
tp11
a(S'be'
p12
S'be'
p13
S'VB'
p14
S'I-VP'
p15
g5
tp16
a(S'deferred'
p17
S'defer'
p18
S'VBN'
p19
S'I-VP'
p20
g5
tp21
a(S'after'
p22
S'after'
p23
S'IN'
p24
S'B-PP'
p25
g5
tp26
a(S'infarction'
p27
S'infarction'
p28
S'NN'
p29
S'B-NP'
p30
g5
tp31
a(S'?'
p32
g32
S'.'
p33
g5
g5
tp34
a.