(lp0
(S'The'
p1
S'The'
p2
S'DT'
p3
S'B-NP'
p4
S'O'
p5
tp6
a(S'prophylactic'
p7
S'prophylactic'
p8
S'JJ'
p9
S'I-NP'
p10
g5
tp11
a(S'effect'
p12
S'effect'
p13
S'NN'
p14
S'I-NP'
p15
g5
tp16
a(S'of'
p17
S'of'
p18
S'IN'
p19
S'B-PP'
p20
g5
tp21
a(S'valproate'
p22
S'valproate'
p23
S'NN'
p24
S'B-NP'
p25
g5
tp26
a(S'on'
p27
S'on'
p28
S'IN'
p29
S'B-PP'
p30
g5
tp31
a(S'glyceryltrinitrate'
p32
S'glyceryltrinitrate'
p33
S'NN'
p34
S'B-NP'
p35
g5
tp36
a(S'induced'
p37
S'induced'
p38
S'JJ'
p39
S'I-NP'
p40
g5
tp41
a(S'migraine'
p42
S'migraine'
p43
S'NN'
p44
S'I-NP'
p45
g5
tp46
a(S'.'
p47
g47
g47
g5
g5
tp48
a(S'In'
p49
S'In'
p50
S'IN'
p51
S'B-PP'
p52
g5
tp53
a(S'this'
p54
S'this'
p55
S'DT'
p56
S'B-NP'
p57
g5
tp58
a(S'study'
p59
S'study'
p60
S'NN'
p61
S'I-NP'
p62
g5
tp63
a(S'the'
p64
S'the'
p65
S'DT'
p66
S'B-NP'
p67
g5
tp68
a(S'human'
p69
S'human'
p70
S'JJ'
p71
S'I-NP'
p72
g5
tp73
a(S'glyceryltrinitrate'
p74
S'glyceryltrinitrate'
p75
S'NN'
p76
S'I-NP'
p77
g5
tp78
a(S'('
p79
g79
g79
g5
g5
tp80
a(S'GTN'
p81
S'GTN'
p82
S'NN'
p83
S'B-NP'
p84
S'B-protein'
p85
tp86
a(S')'
p87
g87
g87
g5
g5
tp88
a(S'model'
p89
S'model'
p90
S'NN'
p91
S'B-NP'
p92
g5
tp93
a(S'of'
p94
S'of'
p95
S'IN'
p96
S'B-PP'
p97
g5
tp98
a(S'migraine'
p99
S'migraine'
p100
S'NN'
p101
S'B-NP'
p102
g5
tp103
a(S'was'
p104
S'be'
p105
S'VBD'
p106
S'B-VP'
p107
g5
tp108
a(S'for'
p109
S'for'
p110
S'IN'
p111
S'B-PP'
p112
g5
tp113
a(S'the'
p114
S'the'
p115
S'DT'
p116
S'B-NP'
p117
g5
tp118
a(S'first'
p119
S'first'
p120
S'JJ'
p121
S'I-NP'
p122
g5
tp123
a(S'time'
p124
S'time'
p125
S'NN'
p126
S'I-NP'
p127
g5
tp128
a(S'used'
p129
S'use'
p130
S'VBN'
p131
S'B-VP'
p132
g5
tp133
a(S'to'
p134
S'to'
p135
S'TO'
p136
S'B-VP'
p137
g5
tp138
a(S'test'
p139
S'test'
p140
S'VB'
p141
S'I-VP'
p142
g5
tp143
a(S'the'
p144
S'the'
p145
S'DT'
p146
S'B-NP'
p147
g5
tp148
a(S'effect'
p149
S'effect'
p150
S'NN'
p151
S'I-NP'
p152
g5
tp153
a(S'of'
p154
S'of'
p155
S'IN'
p156
S'B-PP'
p157
g5
tp158
a(S'a'
p159
g159
S'DT'
p160
S'B-NP'
p161
g5
tp162
a(S'prophylactic'
p163
S'prophylactic'
p164
S'JJ'
p165
S'I-NP'
p166
g5
tp167
a(S'drug.'
p168
S'drug.'
p169
S'NN'
p170
S'I-NP'
p171
g5
tp172
a(S'We'
p173
S'We'
p174
S'PRP'
p175
S'B-NP'
p176
g5
tp177
a(S'chose'
p178
S'choose'
p179
S'VBD'
p180
S'B-VP'
p181
g5
tp182
a(S'to'
p183
S'to'
p184
S'TO'
p185
S'I-VP'
p186
g5
tp187
a(S'test'
p188
S'test'
p189
S'VB'
p190
S'I-VP'
p191
g5
tp192
a(S'valproate'
p193
S'valproate'
p194
S'NN'
p195
S'B-NP'
p196
g5
tp197
a(S'due'
p198
S'due'
p199
S'IN'
p200
S'B-PP'
p201
g5
tp202
a(S'to'
p203
S'to'
p204
S'TO'
p205
S'B-PP'
p206
g5
tp207
a(S'its'
p208
S'its'
p209
S'PRP$'
p210
S'B-NP'
p211
g5
tp212
a(S'well'
p213
S'well'
p214
S'RB'
p215
S'I-NP'
p216
g5
tp217
a(S'documented'
p218
S'document'
p219
S'VBN'
p220
S'I-NP'
p221
g5
tp222
a(S'effect'
p223
S'effect'
p224
S'NN'
p225
S'I-NP'
p226
g5
tp227
a(S'as'
p228
S'as'
p229
S'IN'
p230
S'B-PP'
p231
g5
tp232
a(g159
g159
S'DT'
p233
S'B-NP'
p234
g5
tp235
a(S'migraine'
p236
S'migraine'
p237
S'NN'
p238
S'I-NP'
p239
g5
tp240
a(S'prophylactic'
p241
S'prophylactic'
p242
S'JJ'
p243
S'I-NP'
p244
g5
tp245
a(S'drug.'
p246
S'drug.'
p247
S'NN'
p248
S'I-NP'
p249
g5
tp250
a(S'Efficacy'
p251
S'Efficacy'
p252
S'NN'
p253
S'I-NP'
p254
g5
tp255
a(S'of'
p256
S'of'
p257
S'IN'
p258
S'B-PP'
p259
g5
tp260
a(S'this'
p261
S'this'
p262
S'DT'
p263
S'B-NP'
p264
g5
tp265
a(S'compound'
p266
S'compound'
p267
S'NN'
p268
S'I-NP'
p269
g5
tp270
a(S'would'
p271
S'would'
p272
S'MD'
p273
S'B-VP'
p274
g5
tp275
a(S'support'
p276
S'support'
p277
S'VB'
p278
S'I-VP'
p279
g5
tp280
a(S'the'
p281
S'the'
p282
S'DT'
p283
S'B-NP'
p284
g5
tp285
a(S'usefulness'
p286
S'usefulness'
p287
S'NN'
p288
S'I-NP'
p289
g5
tp290
a(S'of'
p291
S'of'
p292
S'IN'
p293
S'B-PP'
p294
g5
tp295
a(S'the'
p296
S'the'
p297
S'DT'
p298
S'B-NP'
p299
g5
tp300
a(S'model'
p301
S'model'
p302
S'NN'
p303
S'I-NP'
p304
g5
tp305
a(S'in'
p306
S'in'
p307
S'IN'
p308
S'B-PP'
p309
g5
tp310
a(S'prophylactic'
p311
S'prophylactic'
p312
S'JJ'
p313
S'B-NP'
p314
g5
tp315
a(S'antimigraine'
p316
S'antimigraine'
p317
S'JJ'
p318
S'I-NP'
p319
g5
tp320
a(S'drug'
p321
S'drug'
p322
S'NN'
p323
S'I-NP'
p324
g5
tp325
a(S'development.'
p326
S'development.'
p327
S'NN'
p328
S'I-NP'
p329
g5
tp330
a(S'Twelve'
p331
S'Twelve'
p332
S'CD'
p333
S'B-NP'
p334
g5
tp335
a(S'patients'
p336
S'patient'
p337
S'NNS'
p338
S'I-NP'
p339
g5
tp340
a(S'with'
p341
S'with'
p342
S'IN'
p343
S'B-PP'
p344
g5
tp345
a(S'migraine'
p346
S'migraine'
p347
S'NN'
p348
S'B-NP'
p349
g5
tp350
a(S'without'
p351
S'without'
p352
S'IN'
p353
S'B-PP'
p354
g5
tp355
a(S'aura'
p356
S'aura'
p357
S'NN'
p358
S'B-NP'
p359
g5
tp360
a(S'were'
p361
S'be'
p362
S'VBD'
p363
S'B-VP'
p364
g5
tp365
a(S'included'
p366
S'include'
p367
S'VBN'
p368
S'I-VP'
p369
g5
tp370
a(S'in'
p371
S'in'
p372
S'IN'
p373
S'B-PP'
p374
g5
tp375
a(g159
g159
S'DT'
p376
S'B-NP'
p377
g5
tp378
a(S'randomized'
p379
S'randomize'
p380
S'VBN'
p381
S'I-NP'
p382
g5
tp383
a(S'double'
p384
S'double'
p385
S'JJ'
p386
S'I-NP'
p387
g5
tp388
a(S'blind'
p389
S'blind'
p390
S'JJ'
p391
S'I-NP'
p392
g5
tp393
a(S'crossover'
p394
S'crossover'
p395
S'NN'
p396
S'I-NP'
p397
g5
tp398
a(S'study.'
p399
S'study.'
p400
S'NN'
p401
S'I-NP'
p402
g5
tp403
a(S'Valproate'
p404
S'Valproate'
p405
S'NN'
p406
S'I-NP'
p407
g5
tp408
a(S'1000'
p409
S'1000'
p410
S'CD'
p411
S'I-NP'
p412
g5
tp413
a(S'mg'
p414
S'mg'
p415
S'NN'
p416
S'I-NP'
p417
g5
tp418
a(S'or'
p419
S'or'
p420
S'CC'
p421
S'I-NP'
p422
g5
tp423
a(S'placebo'
p424
S'placebo'
p425
S'NN'
p426
S'I-NP'
p427
g5
tp428
a(S'was'
p429
S'be'
p430
S'VBD'
p431
S'B-VP'
p432
g5
tp433
a(S'given'
p434
S'give'
p435
S'VBN'
p436
S'I-VP'
p437
g5
tp438
a(S'daily'
p439
S'daily'
p440
S'RB'
p441
S'B-ADVP'
p442
g5
tp443
a(S','
p444
g444
g444
g5
g5
tp445
a(S'each'
p446
S'each'
p447
S'DT'
p448
S'B-NP'
p449
g5
tp450
a(S'for'
p451
S'for'
p452
S'IN'
p453
S'B-PP'
p454
g5
tp455
a(g159
g159
S'DT'
p456
S'B-NP'
p457
g5
tp458
a(S'minimum'
p459
S'minimum'
p460
S'NN'
p461
S'I-NP'
p462
g5
tp463
a(S'of'
p464
S'of'
p465
S'IN'
p466
S'B-PP'
p467
g5
tp468
a(S'13'
p469
S'13'
p470
S'CD'
p471
S'B-NP'
p472
g5
tp473
a(S'days.'
p474
S'days.'
p475
S'NNS'
p476
S'I-NP'
p477
g5
tp478
a(S'On'
p479
S'On'
p480
S'IN'
p481
S'B-PP'
p482
g5
tp483
a(S'the'
p484
S'the'
p485
S'DT'
p486
S'B-NP'
p487
g5
tp488
a(S'last'
p489
S'last'
p490
S'JJ'
p491
S'I-NP'
p492
g5
tp493
a(S'treatment'
p494
S'treatment'
p495
S'NN'
p496
S'I-NP'
p497
g5
tp498
a(S'day'
p499
S'day'
p500
S'NN'
p501
S'I-NP'
p502
g5
tp503
a(S'of'
p504
S'of'
p505
S'IN'
p506
S'B-PP'
p507
g5
tp508
a(S'each'
p509
S'each'
p510
S'DT'
p511
S'B-NP'
p512
g5
tp513
a(S'arm'
p514
S'arm'
p515
S'NN'
p516
S'I-NP'
p517
g5
tp518
a(g159
g159
S'DT'
p519
S'B-NP'
p520
g5
tp521
a(S'20'
p522
S'20'
p523
S'CD'
p524
S'I-NP'
p525
g5
tp526
a(S'min'
p527
S'min'
p528
S'NN'
p529
S'I-NP'
p530
g5
tp531
a(S'intravenous'
p532
S'intravenous'
p533
S'JJ'
p534
S'I-NP'
p535
g5
tp536
a(S'infusion'
p537
S'infusion'
p538
S'NN'
p539
S'I-NP'
p540
g5
tp541
a(S'of'
p542
S'of'
p543
S'IN'
p544
S'B-PP'
p545
g5
tp546
a(S'GTN'
p547
S'GTN'
p548
S'NN'
p549
S'B-NP'
p550
S'B-protein'
p551
tp552
a(g79
g79
g79
g5
g5
tp553
a(S'0.25'
p554
S'0.25'
p555
S'CD'
p556
S'B-NP'
p557
g5
tp558
a(S'microg/kg/min'
p559
S'microg/kg/min'
p560
S'NN'
p561
S'I-NP'
p562
g5
tp563
a(g87
g87
g87
g5
g5
tp564
a(S'was'
p565
S'be'
p566
S'VBD'
p567
S'B-VP'
p568
g5
tp569
a(S'given.'
p570
S'given.'
p571
S'VBN'
p572
S'I-VP'
p573
g5
tp574
a(S'Headache'
p575
S'Headache'
p576
S'NNP'
p577
S'B-NP'
p578
g5
tp579
a(S'was'
p580
S'be'
p581
S'VBD'
p582
S'B-VP'
p583
g5
tp584
a(S'registered'
p585
S'register'
p586
S'VBN'
p587
S'I-VP'
p588
g5
tp589
a(S'for'
p590
S'for'
p591
S'IN'
p592
S'B-PP'
p593
g5
tp594
a(S'12'
p595
S'12'
p596
S'CD'
p597
S'B-NP'
p598
g5
tp599
a(S'h'
p600
g600
S'NN'
p601
S'I-NP'
p602
g5
tp603
a(S'after'
p604
S'after'
p605
S'IN'
p606
S'B-PP'
p607
g5
tp608
a(S'the'
p609
S'the'
p610
S'DT'
p611
S'B-NP'
p612
g5
tp613
a(S'infusion'
p614
S'infusion'
p615
S'NN'
p616
S'I-NP'
p617
g5
tp618
a(S'and'
p619
S'and'
p620
S'CC'
p621
S'I-NP'
p622
g5
tp623
a(S'headache'
p624
S'headache'
p625
S'NN'
p626
S'I-NP'
p627
g5
tp628
a(S'intensity'
p629
S'intensity'
p630
S'NN'
p631
S'I-NP'
p632
g5
tp633
a(S'was'
p634
S'be'
p635
S'VBD'
p636
S'B-VP'
p637
g5
tp638
a(S'scored'
p639
S'score'
p640
S'VBN'
p641
S'I-VP'
p642
g5
tp643
a(S'on'
p644
S'on'
p645
S'IN'
p646
S'B-PP'
p647
g5
tp648
a(g159
g159
S'DT'
p649
S'B-NP'
p650
g5
tp651
a(S'scale'
p652
S'scale'
p653
S'NN'
p654
S'I-NP'
p655
g5
tp656
a(S'from'
p657
S'from'
p658
S'IN'
p659
S'B-PP'
p660
g5
tp661
a(S'0'
p662
g662
S'CD'
p663
S'B-NP'
p664
g5
tp665
a(S'to'
p666
S'to'
p667
S'TO'
p668
S'I-NP'
p669
g5
tp670
a(S'10.'
p671
S'10.'
p672
S'CD'
p673
S'I-NP'
p674
g5
tp675
a(S'Fulfillment'
p676
S'Fulfillment'
p677
S'NN'
p678
S'I-NP'
p679
g5
tp680
a(S'of'
p681
S'of'
p682
S'IN'
p683
S'B-PP'
p684
g5
tp685
a(S'IHS'
p686
S'IHS'
p687
S'NN'
p688
S'B-NP'
p689
g5
tp690
a(S'criteria'
p691
S'criterion'
p692
S'NNS'
p693
S'I-NP'
p694
g5
tp695
a(S'was'
p696
S'be'
p697
S'VBD'
p698
S'B-VP'
p699
g5
tp700
a(S'recorded'
p701
S'record'
p702
S'VBN'
p703
S'I-VP'
p704
g5
tp705
a(S'for'
p706
S'for'
p707
S'IN'
p708
S'B-PP'
p709
g5
tp710
a(S'24'
p711
S'24'
p712
S'CD'
p713
S'B-NP'
p714
g5
tp715
a(S'h.'
p716
S'h.'
p717
S'NN'
p718
S'I-NP'
p719
g5
tp720
a(S'The'
p721
S'The'
p722
S'DT'
p723
S'B-NP'
p724
g5
tp725
a(S'middle'
p726
S'middle'
p727
S'JJ'
p728
S'I-NP'
p729
g5
tp730
a(S'cerebral'
p731
S'cerebral'
p732
S'JJ'
p733
S'I-NP'
p734
g5
tp735
a(S'arteries'
p736
S'artery'
p737
S'NNS'
p738
S'I-NP'
p739
g5
tp740
a(S'were'
p741
S'be'
p742
S'VBD'
p743
S'B-VP'
p744
g5
tp745
a(S'evaluated'
p746
S'evaluate'
p747
S'VBN'
p748
S'I-VP'
p749
g5
tp750
a(S'by'
p751
S'by'
p752
S'IN'
p753
S'B-PP'
p754
g5
tp755
a(S'transcranial'
p756
S'transcranial'
p757
S'JJ'
p758
S'B-NP'
p759
g5
tp760
a(S'Doppler'
p761
S'Doppler'
p762
S'NNP'
p763
S'I-NP'
p764
g5
tp765
a(S'and'
p766
S'and'
p767
S'CC'
p768
g5
g5
tp769
a(S'the'
p770
S'the'
p771
S'DT'
p772
S'B-NP'
p773
g5
tp774
a(S'diameter'
p775
S'diameter'
p776
S'NN'
p777
S'I-NP'
p778
g5
tp779
a(S'of'
p780
S'of'
p781
S'IN'
p782
S'B-PP'
p783
g5
tp784
a(S'the'
p785
S'the'
p786
S'DT'
p787
S'B-NP'
p788
g5
tp789
a(S'superficial'
p790
S'superficial'
p791
S'JJ'
p792
S'I-NP'
p793
g5
tp794
a(S'temporal'
p795
S'temporal'
p796
S'JJ'
p797
S'I-NP'
p798
g5
tp799
a(S'and'
p800
S'and'
p801
S'CC'
p802
S'I-NP'
p803
g5
tp804
a(S'radial'
p805
S'radial'
p806
S'JJ'
p807
S'I-NP'
p808
g5
tp809
a(S'arteries'
p810
S'artery'
p811
S'NNS'
p812
S'I-NP'
p813
g5
tp814
a(S'were'
p815
S'be'
p816
S'VBD'
p817
S'B-VP'
p818
g5
tp819
a(S'measured'
p820
S'measure'
p821
S'VBN'
p822
S'I-VP'
p823
g5
tp824
a(S'with'
p825
S'with'
p826
S'IN'
p827
S'B-PP'
p828
g5
tp829
a(S'high'
p830
S'high'
p831
S'JJ'
p832
S'B-NP'
p833
g5
tp834
a(S'frequency'
p835
S'frequency'
p836
S'NN'
p837
S'I-NP'
p838
g5
tp839
a(S'ultrasound.'
p840
S'ultrasound.'
p841
S'NN'
p842
S'I-NP'
p843
g5
tp844
a(S'GTN'
p845
S'GTN'
p846
S'NN'
p847
S'I-NP'
p848
g5
tp849
a(S'evoked'
p850
S'evoke'
p851
S'VBD'
p852
S'B-VP'
p853
g5
tp854
a(S'migraine'
p855
S'migraine'
p856
S'NN'
p857
S'B-NP'
p858
g5
tp859
a(S'fulfilling'
p860
S'fulfilling'
p861
S'NN'
p862
S'I-NP'
p863
g5
tp864
a(S'IHS'
p865
S'IHS'
p866
S'NN'
p867
S'I-NP'
p868
g5
tp869
a(S'criteria'
p870
S'criterion'
p871
S'NNS'
p872
S'I-NP'
p873
g5
tp874
a(S'1.1'
p875
S'1.1'
p876
S'CD'
p877
S'B-NP'
p878
g5
tp879
a(S'in'
p880
S'in'
p881
S'IN'
p882
S'B-PP'
p883
g5
tp884
a(S'6'
p885
g885
S'CD'
p886
S'B-NP'
p887
g5
tp888
a(S'patients'
p889
S'patient'
p890
S'NNS'
p891
S'I-NP'
p892
g5
tp893
a(S'after'
p894
S'after'
p895
S'IN'
p896
S'B-PP'
p897
g5
tp898
a(S'placebo'
p899
S'placebo'
p900
S'NN'
p901
S'B-NP'
p902
g5
tp903
a(S'and'
p904
S'and'
p905
S'CC'
p906
g5
g5
tp907
a(S'in'
p908
S'in'
p909
S'IN'
p910
S'B-PP'
p911
g5
tp912
a(S'2'
p913
g913
S'CD'
p914
S'B-NP'
p915
g5
tp916
a(S'patients'
p917
S'patient'
p918
S'NNS'
p919
S'I-NP'
p920
g5
tp921
a(S'after'
p922
S'after'
p923
S'IN'
p924
S'B-PP'
p925
g5
tp926
a(S'valproate'
p927
S'valproate'
p928
S'NN'
p929
S'B-NP'
p930
g5
tp931
a(g79
g79
g79
g5
g5
tp932
a(S'P'
p933
g933
S'NN'
p934
S'B-NP'
p935
g5
tp936
a(S'='
p937
g937
S'SYM'
p938
S'B-VP'
p939
g5
tp940
a(S'0.125'
p941
S'0.125'
p942
S'CD'
p943
S'B-NP'
p944
g5
tp945
a(g87
g87
g87
g5
g5
tp946
a(g47
g47
g47
g5
g5
tp947
a(S'Including'
p948
S'Include'
p949
S'VBG'
p950
S'B-VP'
p951
g5
tp952
a(S'additionally'
p953
S'additionally'
p954
S'RB'
p955
S'B-NP'
p956
g5
tp957
a(S'3'
p958
g958
S'CD'
p959
S'I-NP'
p960
g5
tp961
a(S'patients'
p962
S'patient'
p963
S'NNS'
p964
S'I-NP'
p965
g5
tp966
a(S'on'
p967
S'on'
p968
S'IN'
p969
S'B-PP'
p970
g5
tp971
a(S'placebo'
p972
S'placebo'
p973
S'NN'
p974
S'B-NP'
p975
g5
tp976
a(S'and'
p977
S'and'
p978
S'CC'
p979
g5
g5
tp980
a(S'1'
p981
g981
S'CD'
p982
S'B-NP'
p983
g5
tp984
a(S'patient'
p985
S'patient'
p986
S'NN'
p987
S'I-NP'
p988
g5
tp989
a(S'on'
p990
S'on'
p991
S'IN'
p992
S'B-PP'
p993
g5
tp994
a(S'valproate'
p995
S'valproate'
p996
S'NN'
p997
S'B-NP'
p998
g5
tp999
a(S'who'
p1000
S'who'
p1001
S'WP'
p1002
S'B-NP'
p1003
g5
tp1004
a(S'felt'
p1005
S'feel'
p1006
S'VBD'
p1007
S'B-VP'
p1008
g5
tp1009
a(S'they'
p1010
S'they'
p1011
S'PRP'
p1012
S'B-NP'
p1013
g5
tp1014
a(S'had'
p1015
S'have'
p1016
S'VBD'
p1017
S'B-VP'
p1018
g5
tp1019
a(S'suffered'
p1020
S'suffer'
p1021
S'VBN'
p1022
S'I-VP'
p1023
g5
tp1024
a(g159
g159
S'DT'
p1025
S'B-NP'
p1026
g5
tp1027
a(S'migraine'
p1028
S'migraine'
p1029
S'NN'
p1030
S'I-NP'
p1031
g5
tp1032
a(S'attack'
p1033
S'attack'
p1034
S'NN'
p1035
S'I-NP'
p1036
g5
tp1037
a(g444
g444
g444
g5
g5
tp1038
a(S'but'
p1039
S'but'
p1040
S'CC'
p1041
g5
g5
tp1042
a(S'who'
p1043
S'who'
p1044
S'WP'
p1045
S'B-NP'
p1046
g5
tp1047
a(S'had'
p1048
S'have'
p1049
S'VBD'
p1050
S'B-VP'
p1051
g5
tp1052
a(S'as'
p1053
S'as'
p1054
S'IN'
p1055
S'B-PP'
p1056
g5
tp1057
a(S'associated'
p1058
S'associate'
p1059
S'VBN'
p1060
S'B-NP'
p1061
g5
tp1062
a(S'symptoms'
p1063
S'symptom'
p1064
S'NNS'
p1065
S'I-NP'
p1066
g5
tp1067
a(S'only'
p1068
S'only'
p1069
S'RB'
p1070
S'B-NP'
p1071
g5
tp1072
a(S'photophobia'
p1073
S'photophobia'
p1074
S'NN'
p1075
S'I-NP'
p1076
g5
tp1077
a(S'or'
p1078
S'or'
p1079
S'CC'
p1080
S'I-NP'
p1081
g5
tp1082
a(S'phonophobia'
p1083
S'phonophobia'
p1084
S'NN'
p1085
S'I-NP'
p1086
g5
tp1087
a(g444
g444
g444
g5
g5
tp1088
a(g159
g159
S'DT'
p1089
S'B-NP'
p1090
g5
tp1091
a(S'significant'
p1092
S'significant'
p1093
S'JJ'
p1094
S'I-NP'
p1095
g5
tp1096
a(S'reduction'
p1097
S'reduction'
p1098
S'NN'
p1099
S'I-NP'
p1100
g5
tp1101
a(S'in'
p1102
S'in'
p1103
S'IN'
p1104
S'B-PP'
p1105
g5
tp1106
a(S'the'
p1107
S'the'
p1108
S'DT'
p1109
S'B-NP'
p1110
g5
tp1111
a(S'number'
p1112
S'number'
p1113
S'NN'
p1114
S'I-NP'
p1115
g5
tp1116
a(S'of'
p1117
S'of'
p1118
S'IN'
p1119
S'B-PP'
p1120
g5
tp1121
a(S'patients'
p1122
S'patient'
p1123
S'NNS'
p1124
S'B-NP'
p1125
g5
tp1126
a(S'with'
p1127
S'with'
p1128
S'IN'
p1129
S'B-PP'
p1130
g5
tp1131
a(S'induced'
p1132
S'induce'
p1133
S'VBN'
p1134
S'B-NP'
p1135
g5
tp1136
a(S'migraine'
p1137
S'migraine'
p1138
S'NN'
p1139
S'I-NP'
p1140
g5
tp1141
a(S'after'
p1142
S'after'
p1143
S'IN'
p1144
S'B-PP'
p1145
g5
tp1146
a(S'valproate'
p1147
S'valproate'
p1148
S'NN'
p1149
S'B-NP'
p1150
g5
tp1151
a(S'was'
p1152
S'be'
p1153
S'VBD'
p1154
S'B-VP'
p1155
g5
tp1156
a(S'seen'
p1157
S'see'
p1158
S'VBN'
p1159
S'I-VP'
p1160
g5
tp1161
a(g79
g79
g79
g5
g5
tp1162
a(g933
g933
S'NN'
p1163
S'B-NP'
p1164
g5
tp1165
a(g937
g937
S'SYM'
p1166
S'B-VP'
p1167
g5
tp1168
a(S'0.031'
p1169
S'0.031'
p1170
S'CD'
p1171
S'B-NP'
p1172
g5
tp1173
a(g87
g87
g87
g5
g5
tp1174
a(g47
g47
g47
g5
g5
tp1175
a(S'Median'
p1176
S'Median'
p1177
S'JJ'
p1178
S'B-NP'
p1179
S'B-protein'
p1180
tp1181
a(S'peak'
p1182
S'peak'
p1183
S'JJ'
p1184
S'I-NP'
p1185
S'I-protein'
p1186
tp1187
a(S'headache'
p1188
S'headache'
p1189
S'NN'
p1190
S'I-NP'
p1191
S'I-protein'
p1192
tp1193
a(S'intensity'
p1194
S'intensity'
p1195
S'NN'
p1196
S'I-NP'
p1197
S'I-protein'
p1198
tp1199
a(S'was'
p1200
S'be'
p1201
S'VBD'
p1202
S'B-VP'
p1203
S'I-protein'
p1204
tp1205
a(g981
g981
S'CD'
p1206
S'B-NP'
p1207
S'I-protein'
p1208
tp1209
a(g79
g79
g79
g5
g5
tp1210
a(S'range'
p1211
S'range'
p1212
S'NN'
p1213
S'B-NP'
p1214
g5
tp1215
a(S'0-9'
p1216
S'0-9'
p1217
S'CD'
p1218
S'I-NP'
p1219
g5
tp1220
a(g87
g87
g87
g5
g5
tp1221
a(S'after'
p1222
S'after'
p1223
S'IN'
p1224
S'B-PP'
p1225
g5
tp1226
a(S'valproate'
p1227
S'valproate'
p1228
S'NN'
p1229
S'B-NP'
p1230
g5
tp1231
a(S'compared'
p1232
S'compare'
p1233
S'VBN'
p1234
S'B-VP'
p1235
g5
tp1236
a(S'to'
p1237
S'to'
p1238
S'TO'
p1239
S'B-PP'
p1240
g5
tp1241
a(S'4.5'
p1242
S'4.5'
p1243
S'CD'
p1244
S'B-NP'
p1245
g5
tp1246
a(g79
g79
g79
g5
g5
tp1247
a(S'range'
p1248
S'range'
p1249
S'NN'
p1250
S'B-NP'
p1251
g5
tp1252
a(S'0-8'
p1253
S'0-8'
p1254
S'CD'
p1255
S'I-NP'
p1256
g5
tp1257
a(g87
g87
g87
g5
g5
tp1258
a(S'after'
p1259
S'after'
p1260
S'IN'
p1261
S'B-PP'
p1262
g5
tp1263
a(S'placebo'
p1264
S'placebo'
p1265
S'NN'
p1266
S'B-NP'
p1267
g5
tp1268
a(g79
g79
g79
g5
g5
tp1269
a(g933
g933
S'NN'
p1270
S'B-NP'
p1271
g5
tp1272
a(g937
g937
S'SYM'
p1273
S'B-VP'
p1274
g5
tp1275
a(S'0.120'
p1276
S'0.120'
p1277
S'CD'
p1278
S'B-NP'
p1279
g5
tp1280
a(g87
g87
g87
g5
g5
tp1281
a(g47
g47
g47
g5
g5
tp1282
a(S'Pretreatment'
p1283
S'Pretreatment'
p1284
S'NN'
p1285
S'B-NP'
p1286
g5
tp1287
a(S'with'
p1288
S'with'
p1289
S'IN'
p1290
S'B-PP'
p1291
g5
tp1292
a(S'valproate'
p1293
S'valproate'
p1294
S'NN'
p1295
S'B-NP'
p1296
g5
tp1297
a(S'as'
p1298
S'as'
p1299
S'IN'
p1300
S'B-SBAR'
p1301
g5
tp1302
a(S'compared'
p1303
S'compare'
p1304
S'VBN'
p1305
S'B-PP'
p1306
g5
tp1307
a(S'to'
p1308
S'to'
p1309
S'TO'
p1310
S'B-PP'
p1311
g5
tp1312
a(S'placebo'
p1313
S'placebo'
p1314
S'NN'
p1315
S'B-NP'
p1316
g5
tp1317
a(S'reduced'
p1318
S'reduce'
p1319
S'VBD'
p1320
S'B-VP'
p1321
g5
tp1322
a(S'the'
p1323
S'the'
p1324
S'DT'
p1325
S'B-NP'
p1326
g5
tp1327
a(S'velocity'
p1328
S'velocity'
p1329
S'NN'
p1330
S'I-NP'
p1331
g5
tp1332
a(S'in'
p1333
S'in'
p1334
S'IN'
p1335
S'B-PP'
p1336
g5
tp1337
a(S'both'
p1338
S'both'
p1339
S'CC'
p1340
S'B-NP'
p1341
g5
tp1342
a(S'middle'
p1343
S'middle'
p1344
S'JJ'
p1345
S'I-NP'
p1346
g5
tp1347
a(S'cerebral'
p1348
S'cerebral'
p1349
S'JJ'
p1350
S'I-NP'
p1351
g5
tp1352
a(S'arteries'
p1353
S'artery'
p1354
S'NNS'
p1355
S'I-NP'
p1356
g5
tp1357
a(S'after'
p1358
S'after'
p1359
S'IN'
p1360
S'B-PP'
p1361
g5
tp1362
a(S'GTN'
p1363
S'GTN'
p1364
S'NN'
p1365
S'B-NP'
p1366
S'B-protein'
p1367
tp1368
a(g79
g79
g79
g5
g5
tp1369
a(S'left'
p1370
S'leave'
p1371
S'VBN'
p1372
S'B-VP'
p1373
g5
tp1374
a(g933
g933
S'NN'
p1375
S'B-NP'
p1376
g5
tp1377
a(g937
g937
S'SYM'
p1378
S'B-VP'
p1379
g5
tp1380
a(S'0.021'
p1381
S'0.021'
p1382
S'CD'
p1383
S'B-NP'
p1384
g5
tp1385
a(g444
g444
g444
g5
g5
tp1386
a(S'right'
p1387
S'right'
p1388
S'JJ'
p1389
S'B-NP'
p1390
g5
tp1391
a(g933
g933
S'NN'
p1392
S'I-NP'
p1393
g5
tp1394
a(g937
g937
S'SYM'
p1395
S'B-VP'
p1396
g5
tp1397
a(S'0.031'
p1398
S'0.031'
p1399
S'CD'
p1400
S'B-NP'
p1401
g5
tp1402
a(g87
g87
g87
g5
g5
tp1403
a(g47
g47
g47
g5
g5
tp1404
a(S'No'
p1405
S'No'
p1406
S'DT'
p1407
S'B-NP'
p1408
g5
tp1409
a(S'effect'
p1410
S'effect'
p1411
S'NN'
p1412
S'I-NP'
p1413
g5
tp1414
a(S'of'
p1415
S'of'
p1416
S'IN'
p1417
S'B-PP'
p1418
g5
tp1419
a(S'valproate'
p1420
S'valproate'
p1421
S'NN'
p1422
S'B-NP'
p1423
g5
tp1424
a(S'was'
p1425
S'be'
p1426
S'VBD'
p1427
S'B-VP'
p1428
g5
tp1429
a(S'seen'
p1430
S'see'
p1431
S'VBN'
p1432
S'I-VP'
p1433
g5
tp1434
a(S'in'
p1435
S'in'
p1436
S'IN'
p1437
S'B-PP'
p1438
g5
tp1439
a(S'the'
p1440
S'the'
p1441
S'DT'
p1442
S'B-NP'
p1443
g5
tp1444
a(S'diameter'
p1445
S'diameter'
p1446
S'NN'
p1447
S'I-NP'
p1448
g5
tp1449
a(S'of'
p1450
S'of'
p1451
S'IN'
p1452
S'B-PP'
p1453
g5
tp1454
a(S'the'
p1455
S'the'
p1456
S'DT'
p1457
S'B-NP'
p1458
g5
tp1459
a(S'superficial'
p1460
S'superficial'
p1461
S'JJ'
p1462
S'I-NP'
p1463
g5
tp1464
a(S'temporal'
p1465
S'temporal'
p1466
S'JJ'
p1467
S'I-NP'
p1468
g5
tp1469
a(S'artery'
p1470
S'artery'
p1471
S'NN'
p1472
S'I-NP'
p1473
g5
tp1474
a(g79
g79
g79
g5
g5
tp1475
a(g933
g933
S'NN'
p1476
S'B-NP'
p1477
g5
tp1478
a(g937
g937
S'SYM'
p1479
S'B-VP'
p1480
g5
tp1481
a(S'0.781'
p1482
S'0.781'
p1483
S'CD'
p1484
S'B-NP'
p1485
g5
tp1486
a(g87
g87
g87
g5
g5
tp1487
a(S'or'
p1488
S'or'
p1489
S'CC'
p1490
g5
g5
tp1491
a(S'the'
p1492
S'the'
p1493
S'DT'
p1494
S'B-NP'
p1495
g5
tp1496
a(S'radial'
p1497
S'radial'
p1498
S'JJ'
p1499
S'I-NP'
p1500
g5
tp1501
a(S'artery'
p1502
S'artery'
p1503
S'NN'
p1504
S'I-NP'
p1505
g5
tp1506
a(g79
g79
g79
g5
g5
tp1507
a(g933
g933
S'NN'
p1508
S'B-NP'
p1509
g5
tp1510
a(g937
g937
S'SYM'
p1511
S'B-VP'
p1512
g5
tp1513
a(S'0.367'
p1514
S'0.367'
p1515
S'CD'
p1516
S'B-NP'
p1517
g5
tp1518
a(g87
g87
g87
g5
g5
tp1519
a(S'before'
p1520
S'before'
p1521
S'IN'
p1522
S'B-PP'
p1523
g5
tp1524
a(S'or'
p1525
S'or'
p1526
S'CC'
p1527
S'I-PP'
p1528
g5
tp1529
a(S'after'
p1530
S'after'
p1531
S'IN'
p1532
S'I-PP'
p1533
g5
tp1534
a(S'GTN.'
p1535
S'GTN.'
p1536
S'NNP'
p1537
S'B-NP'
p1538
g5
tp1539
a(S'The'
p1540
S'The'
p1541
S'DT'
p1542
S'B-NP'
p1543
g5
tp1544
a(S'study'
p1545
S'study'
p1546
S'NN'
p1547
S'I-NP'
p1548
g5
tp1549
a(S'indicates'
p1550
S'indicate'
p1551
S'VBZ'
p1552
S'B-VP'
p1553
g5
tp1554
a(S'that'
p1555
S'that'
p1556
S'IN'
p1557
S'B-SBAR'
p1558
g5
tp1559
a(g159
g159
S'DT'
p1560
S'B-NP'
p1561
g5
tp1562
a(S'prophylactic'
p1563
S'prophylactic'
p1564
S'JJ'
p1565
S'I-NP'
p1566
g5
tp1567
a(S'effect'
p1568
S'effect'
p1569
S'NN'
p1570
S'I-NP'
p1571
g5
tp1572
a(S'of'
p1573
S'of'
p1574
S'IN'
p1575
S'B-PP'
p1576
g5
tp1577
a(S'valproate'
p1578
S'valproate'
p1579
S'NN'
p1580
S'B-NP'
p1581
g5
tp1582
a(S'may'
p1583
S'may'
p1584
S'MD'
p1585
S'B-VP'
p1586
g5
tp1587
a(S'be'
p1588
S'be'
p1589
S'VB'
p1590
S'I-VP'
p1591
g5
tp1592
a(S'demonstrated'
p1593
S'demonstrate'
p1594
S'VBN'
p1595
S'I-VP'
p1596
g5
tp1597
a(S'using'
p1598
S'use'
p1599
S'VBG'
p1600
S'B-VP'
p1601
g5
tp1602
a(S'the'
p1603
S'the'
p1604
S'DT'
p1605
S'B-NP'
p1606
g5
tp1607
a(S'GTN'
p1608
S'GTN'
p1609
S'NN'
p1610
S'I-NP'
p1611
g5
tp1612
a(S'human'
p1613
S'human'
p1614
S'JJ'
p1615
S'I-NP'
p1616
g5
tp1617
a(S'migraine'
p1618
S'migraine'
p1619
S'NN'
p1620
S'I-NP'
p1621
g5
tp1622
a(S'model.'
p1623
S'model.'
p1624
S'NN'
p1625
S'I-NP'
p1626
g5
tp1627
a(S'Although'
p1628
S'Although'
p1629
S'IN'
p1630
S'B-ADVP'
p1631
g5
tp1632
a(g444
g444
g444
g5
g5
tp1633
a(S'all'
p1634
S'all'
p1635
S'DT'
p1636
S'B-NP'
p1637
g5
tp1638
a(S'headache'
p1639
S'headache'
p1640
S'NN'
p1641
S'I-NP'
p1642
g5
tp1643
a(S'parameters'
p1644
S'parameter'
p1645
S'NNS'
p1646
S'I-NP'
p1647
g5
tp1648
a(S'were'
p1649
S'be'
p1650
S'VBD'
p1651
S'B-VP'
p1652
g5
tp1653
a(S'reduced'
p1654
S'reduce'
p1655
S'VBN'
p1656
S'I-VP'
p1657
g5
tp1658
a(S'after'
p1659
S'after'
p1660
S'IN'
p1661
S'B-PP'
p1662
g5
tp1663
a(S'valproate'
p1664
S'valproate'
p1665
S'NN'
p1666
S'B-NP'
p1667
g5
tp1668
a(S'compared'
p1669
S'compare'
p1670
S'VBN'
p1671
S'B-VP'
p1672
g5
tp1673
a(S'to'
p1674
S'to'
p1675
S'TO'
p1676
S'B-PP'
p1677
g5
tp1678
a(S'placebo'
p1679
S'placebo'
p1680
S'NN'
p1681
S'B-NP'
p1682
g5
tp1683
a(g444
g444
g444
g5
g5
tp1684
a(S'only'
p1685
S'only'
p1686
S'RB'
p1687
S'B-NP'
p1688
g5
tp1689
a(S'one'
p1690
S'one'
p1691
S'CD'
p1692
S'I-NP'
p1693
g5
tp1694
a(S'parameter'
p1695
S'parameter'
p1696
S'NN'
p1697
S'I-NP'
p1698
g5
tp1699
a(S'was'
p1700
S'be'
p1701
S'VBD'
p1702
S'B-VP'
p1703
g5
tp1704
a(S'statistically'
p1705
S'statistically'
p1706
S'RB'
p1707
S'B-VP'
p1708
g5
tp1709
a(S'significantly'
p1710
S'significantly'
p1711
S'RB'
p1712
S'I-VP'
p1713
g5
tp1714
a(S'reduced'
p1715
S'reduce'
p1716
S'VBN'
p1717
S'I-VP'
p1718
g5
tp1719
a(S'probably'
p1720
S'probably'
p1721
S'RB'
p1722
S'B-ADVP'
p1723
g5
tp1724
a(S'because'
p1725
S'because'
p1726
S'IN'
p1727
S'B-PP'
p1728
g5
tp1729
a(S'of'
p1730
S'of'
p1731
S'IN'
p1732
S'I-PP'
p1733
g5
tp1734
a(S'the'
p1735
S'the'
p1736
S'DT'
p1737
S'B-NP'
p1738
g5
tp1739
a(S'small'
p1740
S'small'
p1741
S'JJ'
p1742
S'I-NP'
p1743
g5
tp1744
a(S'number'
p1745
S'number'
p1746
S'NN'
p1747
S'I-NP'
p1748
g5
tp1749
a(S'of'
p1750
S'of'
p1751
S'IN'
p1752
S'B-PP'
p1753
g5
tp1754
a(S'patients.'
p1755
S'patients.'
p1756
S'NNS'
p1757
S'B-NP'
p1758
g5
tp1759
a(S'The'
p1760
S'The'
p1761
S'DT'
p1762
S'B-NP'
p1763
g5
tp1764
a(S'size'
p1765
S'size'
p1766
S'NN'
p1767
S'I-NP'
p1768
g5
tp1769
a(S'of'
p1770
S'of'
p1771
S'IN'
p1772
S'B-PP'
p1773
g5
tp1774
a(S'the'
p1775
S'the'
p1776
S'DT'
p1777
S'B-NP'
p1778
g5
tp1779
a(S'effect'
p1780
S'effect'
p1781
S'NN'
p1782
S'I-NP'
p1783
g5
tp1784
a(S'was'
p1785
S'be'
p1786
S'VBD'
p1787
S'B-VP'
p1788
g5
tp1789
a(S'similar'
p1790
S'similar'
p1791
S'JJ'
p1792
S'B-ADJP'
p1793
g5
tp1794
a(S'to'
p1795
S'to'
p1796
S'TO'
p1797
S'B-PP'
p1798
g5
tp1799
a(S'that'
p1800
S'that'
p1801
S'DT'
p1802
S'B-NP'
p1803
g5
tp1804
a(S'of'
p1805
S'of'
p1806
S'IN'
p1807
S'B-PP'
p1808
g5
tp1809
a(S'valproate'
p1810
S'valproate'
p1811
S'NN'
p1812
S'B-NP'
p1813
g5
tp1814
a(S'in'
p1815
S'in'
p1816
S'IN'
p1817
S'B-PP'
p1818
g5
tp1819
a(S'clinical'
p1820
S'clinical'
p1821
S'JJ'
p1822
S'B-NP'
p1823
g5
tp1824
a(S'trials.'
p1825
S'trials.'
p1826
S'NN'
p1827
S'I-NP'
p1828
g5
tp1829
a(S'The'
p1830
S'The'
p1831
S'DT'
p1832
S'B-NP'
p1833
g5
tp1834
a(S'GTN'
p1835
S'GTN'
p1836
S'NN'
p1837
S'I-NP'
p1838
g5
tp1839
a(S'model'
p1840
S'model'
p1841
S'NN'
p1842
S'I-NP'
p1843
g5
tp1844
a(S'may'
p1845
S'may'
p1846
S'MD'
p1847
S'B-VP'
p1848
g5
tp1849
a(S'therefore'
p1850
S'therefore'
p1851
S'RB'
p1852
S'I-VP'
p1853
g5
tp1854
a(S'be'
p1855
S'be'
p1856
S'VB'
p1857
S'I-VP'
p1858
g5
tp1859
a(g159
g159
S'DT'
p1860
S'B-NP'
p1861
g5
tp1862
a(S'valid'
p1863
S'valid'
p1864
S'JJ'
p1865
S'I-NP'
p1866
g5
tp1867
a(S'tool'
p1868
S'tool'
p1869
S'NN'
p1870
S'I-NP'
p1871
g5
tp1872
a(S'for'
p1873
S'for'
p1874
S'IN'
p1875
S'B-PP'
p1876
g5
tp1877
a(S'testing'
p1878
S'test'
p1879
S'VBG'
p1880
S'B-VP'
p1881
g5
tp1882
a(S'new'
p1883
S'new'
p1884
S'JJ'
p1885
S'B-NP'
p1886
g5
tp1887
a(S'prophylactic'
p1888
S'prophylactic'
p1889
S'JJ'
p1890
S'I-NP'
p1891
g5
tp1892
a(S'antimigraine'
p1893
S'antimigraine'
p1894
S'NN'
p1895
S'I-NP'
p1896
g5
tp1897
a(S'drugs'
p1898
S'drug'
p1899
S'NNS'
p1900
S'I-NP'
p1901
g5
tp1902
a(g47
g47
g47
g5
g5
tp1903
a.