(lp0
(S'Control'
p1
S'Control'
p2
S'NN'
p3
S'B-NP'
p4
S'O'
p5
tp6
a(S'of'
p7
S'of'
p8
S'IN'
p9
S'B-PP'
p10
g5
tp11
a(S'the'
p12
S'the'
p13
S'DT'
p14
S'B-NP'
p15
g5
tp16
a(S'lumbar'
p17
S'lumbar'
p18
S'NN'
p19
S'I-NP'
p20
g5
tp21
a(S'neutral'
p22
S'neutral'
p23
S'JJ'
p24
S'I-NP'
p25
g5
tp26
a(S'zone'
p27
S'zone'
p28
S'NN'
p29
S'I-NP'
p30
g5
tp31
a(S'decreases'
p32
S'decrease'
p33
S'VBZ'
p34
S'B-VP'
p35
g5
tp36
a(S'low'
p37
S'low'
p38
S'JJ'
p39
S'B-NP'
p40
g5
tp41
a(S'back'
p42
S'back'
p43
S'JJ'
p44
S'I-NP'
p45
g5
tp46
a(S'pain'
p47
S'pain'
p48
S'NN'
p49
S'I-NP'
p50
g5
tp51
a(S'and'
p52
S'and'
p53
S'CC'
p54
g5
g5
tp55
a(S'improves'
p56
S'improve'
p57
S'VBZ'
p58
S'B-VP'
p59
g5
tp60
a(S'self-evaluated'
p61
S'self-evaluated'
p62
S'JJ'
p63
S'B-NP'
p64
g5
tp65
a(S'work'
p66
S'work'
p67
S'NN'
p68
S'I-NP'
p69
g5
tp70
a(S'ability'
p71
S'ability'
p72
S'NN'
p73
S'I-NP'
p74
g5
tp75
a(S':'
p76
g76
g76
g5
g5
tp77
a(S'a'
p78
g78
S'DT'
p79
S'B-NP'
p80
g5
tp81
a(S'12-month'
p82
S'12-month'
p83
S'JJ'
p84
S'I-NP'
p85
g5
tp86
a(S'randomized'
p87
S'randomize'
p88
S'VBN'
p89
S'I-NP'
p90
g5
tp91
a(S'controlled'
p92
S'controlled'
p93
S'JJ'
p94
S'I-NP'
p95
g5
tp96
a(S'study'
p97
S'study'
p98
S'NN'
p99
S'I-NP'
p100
g5
tp101
a(S'.'
p102
g102
g102
g5
g5
tp103
a(S'STUDY'
p104
S'STUDY'
p105
S'NN'
p106
S'B-NP'
p107
g5
tp108
a(S'DESIGN'
p109
S'DESIGN'
p110
S'NN'
p111
S'I-NP'
p112
g5
tp113
a(S'A'
p114
g114
S'NN'
p115
S'I-NP'
p116
g5
tp117
a(S'randomized'
p118
S'randomize'
p119
S'VBN'
p120
S'B-VP'
p121
g5
tp122
a(S'controlled'
p123
S'controlled'
p124
S'JJ'
p125
S'B-NP'
p126
g5
tp127
a(S'study'
p128
S'study'
p129
S'NN'
p130
S'I-NP'
p131
g5
tp132
a(S'with'
p133
S'with'
p134
S'IN'
p135
S'B-PP'
p136
g5
tp137
a(S'12'
p138
S'12'
p139
S'CD'
p140
S'B-NP'
p141
g5
tp142
a(S'months'
p143
S'month'
p144
S'NNS'
p145
S'I-NP'
p146
g5
tp147
a(S'intervention'
p148
S'intervention'
p149
S'NN'
p150
S'I-NP'
p151
g5
tp152
a(g102
g102
g102
g5
g5
tp153
a(S'OBJECTIVE'
p154
S'OBJECTIVE'
p155
S'NN'
p156
S'B-NP'
p157
g5
tp158
a(S'To'
p159
S'To'
p160
S'TO'
p161
S'B-VP'
p162
g5
tp163
a(S'study'
p164
S'study'
p165
S'VB'
p166
S'I-VP'
p167
g5
tp168
a(S'the'
p169
S'the'
p170
S'DT'
p171
S'B-NP'
p172
g5
tp173
a(S'effectiveness'
p174
S'effectiveness'
p175
S'NN'
p176
S'I-NP'
p177
g5
tp178
a(S'of'
p179
S'of'
p180
S'IN'
p181
S'B-PP'
p182
g5
tp183
a(g78
g78
S'DT'
p184
S'B-NP'
p185
g5
tp186
a(S'training'
p187
S'training'
p188
S'NN'
p189
S'I-NP'
p190
g5
tp191
a(S'intervention'
p192
S'intervention'
p193
S'NN'
p194
S'I-NP'
p195
g5
tp196
a(S'with'
p197
S'with'
p198
S'IN'
p199
S'B-PP'
p200
g5
tp201
a(S'emphases'
p202
S'emphasis'
p203
S'NNS'
p204
S'B-NP'
p205
g5
tp206
a(S'on'
p207
S'on'
p208
S'IN'
p209
S'B-PP'
p210
g5
tp211
a(S'the'
p212
S'the'
p213
S'DT'
p214
S'B-NP'
p215
g5
tp216
a(S'control'
p217
S'control'
p218
S'NN'
p219
S'I-NP'
p220
g5
tp221
a(S'of'
p222
S'of'
p223
S'IN'
p224
S'B-PP'
p225
g5
tp226
a(S'lumbar'
p227
S'lumbar'
p228
S'JJ'
p229
S'B-NP'
p230
g5
tp231
a(S'neutral'
p232
S'neutral'
p233
S'JJ'
p234
S'I-NP'
p235
g5
tp236
a(S'zone'
p237
S'zone'
p238
S'NN'
p239
S'I-NP'
p240
g5
tp241
a(S'('
p242
g242
g242
g5
g5
tp243
a(S'NZ'
p244
S'NZ'
p245
S'NN'
p246
S'B-NP'
p247
S'B-protein'
p248
tp249
a(S')'
p250
g250
g250
g5
g5
tp251
a(S'and'
p252
S'and'
p253
S'CC'
p254
g5
g5
tp255
a(S'behavior'
p256
S'behavior'
p257
S'NN'
p258
S'B-NP'
p259
g5
tp260
a(S'modeling'
p261
S'modeling'
p262
S'NN'
p263
S'I-NP'
p264
g5
tp265
a(S'as'
p266
S'as'
p267
S'IN'
p268
S'B-PP'
p269
g5
tp270
a(S'secondary'
p271
S'secondary'
p272
S'JJ'
p273
S'B-NP'
p274
g5
tp275
a(S'prevention'
p276
S'prevention'
p277
S'NN'
p278
S'I-NP'
p279
g5
tp280
a(S'of'
p281
S'of'
p282
S'IN'
p283
S'B-PP'
p284
g5
tp285
a(S'low'
p286
S'low'
p287
S'JJ'
p288
S'B-NP'
p289
g5
tp290
a(S'back'
p291
S'back'
p292
S'JJ'
p293
S'I-NP'
p294
g5
tp295
a(S'pain'
p296
S'pain'
p297
S'NN'
p298
S'I-NP'
p299
g5
tp300
a(g242
g242
g242
g5
g5
tp301
a(S'LBP'
p302
S'LBP'
p303
S'NN'
p304
S'B-NP'
p305
S'B-protein'
p306
tp307
a(g250
g250
g250
g5
g5
tp308
a(S'and'
p309
S'and'
p310
S'CC'
p311
g5
g5
tp312
a(S'disability'
p313
S'disability'
p314
S'NN'
p315
S'B-NP'
p316
g5
tp317
a(g102
g102
g102
g5
g5
tp318
a(S'SUMMARY'
p319
S'SUMMARY'
p320
S'NN'
p321
S'B-NP'
p322
g5
tp323
a(S'OF'
p324
S'OF'
p325
S'IN'
p326
S'B-PP'
p327
g5
tp328
a(S'BACKGROUND'
p329
S'BACKGROUND'
p330
S'NN'
p331
S'B-NP'
p332
g5
tp333
a(S'DATA'
p334
S'DATA'
p335
S'NN'
p336
S'I-NP'
p337
g5
tp338
a(S'Improving'
p339
S'Improve'
p340
S'VBG'
p341
S'B-VP'
p342
g5
tp343
a(S'the'
p344
S'the'
p345
S'DT'
p346
S'B-NP'
p347
g5
tp348
a(S'control'
p349
S'control'
p350
S'NN'
p351
S'I-NP'
p352
g5
tp353
a(S'of'
p354
S'of'
p355
S'IN'
p356
S'B-PP'
p357
g5
tp358
a(S'lumbar'
p359
S'lumbar'
p360
S'NN'
p361
S'B-NP'
p362
S'B-protein'
p363
tp364
a(S'NZ'
p365
S'NZ'
p366
S'NN'
p367
S'I-NP'
p368
S'I-protein'
p369
tp370
a(S'and'
p371
S'and'
p372
S'CC'
p373
g5
g5
tp374
a(S'enhancing'
p375
S'enhance'
p376
S'VBG'
p377
S'B-VP'
p378
g5
tp379
a(S'muscle'
p380
S'muscle'
p381
S'NN'
p382
S'B-NP'
p383
g5
tp384
a(S'activation'
p385
S'activation'
p386
S'NN'
p387
S'I-NP'
p388
g5
tp389
a(S'patterns'
p390
S'pattern'
p391
S'NNS'
p392
S'I-NP'
p393
g5
tp394
a(S'ensuring'
p395
S'ensure'
p396
S'VBG'
p397
S'B-VP'
p398
g5
tp399
a(S'spinal'
p400
S'spinal'
p401
S'JJ'
p402
S'B-NP'
p403
g5
tp404
a(S'stability'
p405
S'stability'
p406
S'NN'
p407
S'I-NP'
p408
g5
tp409
a(S'have'
p410
S'have'
p411
S'VBP'
p412
S'B-VP'
p413
g5
tp414
a(S'been'
p415
S'be'
p416
S'VBN'
p417
S'I-VP'
p418
g5
tp419
a(S'proposed'
p420
S'propose'
p421
S'VBN'
p422
S'I-VP'
p423
g5
tp424
a(S'as'
p425
S'as'
p426
S'IN'
p427
S'B-PP'
p428
g5
tp429
a(S'means'
p430
S'mean'
p431
S'NNS'
p432
S'B-NP'
p433
g5
tp434
a(S'for'
p435
S'for'
p436
S'IN'
p437
S'B-PP'
p438
g5
tp439
a(S'secondary'
p440
S'secondary'
p441
S'JJ'
p442
S'B-NP'
p443
g5
tp444
a(S'prevention'
p445
S'prevention'
p446
S'NN'
p447
S'I-NP'
p448
g5
tp449
a(S'of'
p450
S'of'
p451
S'IN'
p452
S'B-PP'
p453
g5
tp454
a(S'LBP'
p455
S'LBP'
p456
S'NN'
p457
S'B-NP'
p458
S'B-protein'
p459
tp460
a(S'and'
p461
S'and'
p462
S'CC'
p463
S'I-NP'
p464
g5
tp465
a(S'disability.'
p466
S'disability.'
p467
S'NN'
p468
S'I-NP'
p469
g5
tp470
a(S'In'
p471
S'In'
p472
S'IN'
p473
S'B-PP'
p474
g5
tp475
a(S'addition'
p476
S'addition'
p477
S'NN'
p478
S'B-NP'
p479
g5
tp480
a(S','
p481
g481
g481
g5
g5
tp482
a(S'cognitive'
p483
S'cognitive'
p484
S'JJ'
p485
S'B-NP'
p486
g5
tp487
a(S'behavior'
p488
S'behavior'
p489
S'NN'
p490
S'I-NP'
p491
g5
tp492
a(S'interventions'
p493
S'intervention'
p494
S'NNS'
p495
S'I-NP'
p496
g5
tp497
a(S'have'
p498
S'have'
p499
S'VBP'
p500
S'B-VP'
p501
g5
tp502
a(S'been'
p503
S'be'
p504
S'VBN'
p505
S'I-VP'
p506
g5
tp507
a(S'shown'
p508
S'show'
p509
S'VBN'
p510
S'I-VP'
p511
g5
tp512
a(S'to'
p513
S'to'
p514
S'TO'
p515
S'I-VP'
p516
g5
tp517
a(S'lower'
p518
S'lower'
p519
S'VB'
p520
S'I-VP'
p521
g5
tp522
a(S'the'
p523
S'the'
p524
S'DT'
p525
S'B-NP'
p526
g5
tp527
a(S'risk'
p528
S'risk'
p529
S'NN'
p530
S'I-NP'
p531
g5
tp532
a(S'of'
p533
S'of'
p534
S'IN'
p535
S'B-PP'
p536
g5
tp537
a(S'recurrence'
p538
S'recurrence'
p539
S'NN'
p540
S'B-NP'
p541
g5
tp542
a(S'of'
p543
S'of'
p544
S'IN'
p545
S'B-PP'
p546
g5
tp547
a(S'LBP'
p548
S'LBP'
p549
S'NN'
p550
S'B-NP'
p551
S'B-protein'
p552
tp553
a(S'and'
p554
S'and'
p555
S'CC'
p556
g5
g5
tp557
a(S'long-term'
p558
S'long-term'
p559
S'JJ'
p560
S'B-NP'
p561
g5
tp562
a(S'disability'
p563
S'disability'
p564
S'NN'
p565
S'I-NP'
p566
g5
tp567
a(g102
g102
g102
g5
g5
tp568
a(S'METHODS'
p569
S'METHODS'
p570
S'NNS'
p571
S'B-NP'
p572
g5
tp573
a(S'Middle-aged'
p574
S'Middle-aged'
p575
S'JJ'
p576
S'B-ADJP'
p577
g5
tp578
a(S'working'
p579
S'work'
p580
S'VBG'
p581
S'B-NP'
p582
g5
tp583
a(S'men'
p584
S'man'
p585
S'NNS'
p586
S'I-NP'
p587
g5
tp588
a(S'with'
p589
S'with'
p590
S'IN'
p591
S'B-PP'
p592
g5
tp593
a(S'recent'
p594
S'recent'
p595
S'JJ'
p596
S'B-NP'
p597
g5
tp598
a(S'LBP'
p599
S'LBP'
p600
S'NN'
p601
S'I-NP'
p602
g5
tp603
a(S'but'
p604
S'but'
p605
S'CC'
p606
S'B-PP'
p607
g5
tp608
a(S'without'
p609
S'without'
p610
S'IN'
p611
S'B-PP'
p612
g5
tp613
a(S'severe'
p614
S'severe'
p615
S'JJ'
p616
S'B-NP'
p617
g5
tp618
a(S'disability'
p619
S'disability'
p620
S'NN'
p621
S'I-NP'
p622
g5
tp623
a(S'were'
p624
S'be'
p625
S'VBD'
p626
S'B-VP'
p627
g5
tp628
a(S'randomly'
p629
S'randomly'
p630
S'RB'
p631
S'I-VP'
p632
g5
tp633
a(S'allocated'
p634
S'allocate'
p635
S'VBN'
p636
S'I-VP'
p637
g5
tp638
a(S'to'
p639
S'to'
p640
S'TO'
p641
S'B-PP'
p642
g5
tp643
a(S'either'
p644
S'either'
p645
S'CC'
p646
g5
g5
tp647
a(g78
g78
S'DT'
p648
S'B-NP'
p649
g5
tp650
a(S'training'
p651
S'training'
p652
S'NN'
p653
S'I-NP'
p654
g5
tp655
a(g242
g242
g242
g5
g5
tp656
a(S'TG'
p657
S'TG'
p658
S'NN'
p659
S'B-NP'
p660
S'B-protein'
p661
tp662
a(g481
g481
g481
g5
g5
tp663
a(S'n'
p664
g664
S'NN'
p665
S'B-NP'
p666
g5
tp667
a(S'='
p668
g668
S'SYM'
p669
S'B-VP'
p670
g5
tp671
a(S'52'
p672
S'52'
p673
S'CD'
p674
S'B-NP'
p675
g5
tp676
a(g250
g250
g250
g5
g5
tp677
a(S'or'
p678
S'or'
p679
S'CC'
p680
g5
g5
tp681
a(S'control'
p682
S'control'
p683
S'NN'
p684
S'B-NP'
p685
g5
tp686
a(S'group'
p687
S'group'
p688
S'NN'
p689
S'I-NP'
p690
g5
tp691
a(g242
g242
g242
g5
g5
tp692
a(S'CG'
p693
S'CG'
p694
S'NN'
p695
S'B-NP'
p696
g5
tp697
a(g481
g481
g481
g5
g5
tp698
a(g664
g664
S'NN'
p699
S'B-NP'
p700
g5
tp701
a(g668
g668
S'SYM'
p702
S'B-VP'
p703
g5
tp704
a(S'54'
p705
S'54'
p706
S'CD'
p707
S'B-NP'
p708
g5
tp709
a(g250
g250
g250
g5
g5
tp710
a(g102
g102
g102
g5
g5
tp711
a(S'The'
p712
S'The'
p713
S'DT'
p714
S'B-NP'
p715
g5
tp716
a(S'aim'
p717
S'aim'
p718
S'NN'
p719
S'I-NP'
p720
g5
tp721
a(S'was'
p722
S'be'
p723
S'VBD'
p724
S'B-VP'
p725
g5
tp726
a(S'to'
p727
S'to'
p728
S'TO'
p729
S'B-VP'
p730
g5
tp731
a(S'exercise'
p732
S'exercise'
p733
S'VB'
p734
S'I-VP'
p735
g5
tp736
a(S'twice'
p737
S'twice'
p738
S'RB'
p739
S'B-NP'
p740
g5
tp741
a(g78
g78
S'DT'
p742
S'I-NP'
p743
g5
tp744
a(S'week'
p745
S'week'
p746
S'NN'
p747
S'I-NP'
p748
g5
tp749
a(S'for'
p750
S'for'
p751
S'IN'
p752
S'B-PP'
p753
g5
tp754
a(S'12'
p755
S'12'
p756
S'CD'
p757
S'B-NP'
p758
g5
tp759
a(S'months'
p760
S'month'
p761
S'NNS'
p762
S'I-NP'
p763
g5
tp764
a(g481
g481
g481
g5
g5
tp765
a(S'once'
p766
S'once'
p767
S'RB'
p768
S'B-VP'
p769
g5
tp770
a(S'guided'
p771
S'guide'
p772
S'VBN'
p773
S'I-VP'
p774
g5
tp775
a(S'and'
p776
S'and'
p777
S'CC'
p778
g5
g5
tp779
a(S'once'
p780
S'once'
p781
S'RB'
p782
S'B-VP'
p783
g5
tp784
a(S'independently.'
p785
S'independently.'
p786
S'VB'
p787
S'I-VP'
p788
g5
tp789
a(S'The'
p790
S'The'
p791
S'DT'
p792
S'B-NP'
p793
g5
tp794
a(S'outcome'
p795
S'outcome'
p796
S'NN'
p797
S'I-NP'
p798
g5
tp799
a(S'measures'
p800
S'measure'
p801
S'NNS'
p802
S'I-NP'
p803
g5
tp804
a(S'were'
p805
S'be'
p806
S'VBD'
p807
S'B-VP'
p808
g5
tp809
a(S'the'
p810
S'the'
p811
S'DT'
p812
S'B-NP'
p813
g5
tp814
a(S'changes'
p815
S'change'
p816
S'NNS'
p817
S'I-NP'
p818
g5
tp819
a(S'in'
p820
S'in'
p821
S'IN'
p822
S'B-PP'
p823
g5
tp824
a(S'intensity'
p825
S'intensity'
p826
S'NN'
p827
S'B-NP'
p828
g5
tp829
a(S'of'
p830
S'of'
p831
S'IN'
p832
S'B-PP'
p833
g5
tp834
a(S'LBP'
p835
S'LBP'
p836
S'NN'
p837
S'B-NP'
p838
S'B-protein'
p839
tp840
a(g481
g481
g481
g5
g5
tp841
a(S'disability'
p842
S'disability'
p843
S'NN'
p844
S'B-NP'
p845
g5
tp846
a(g481
g481
g481
g5
g5
tp847
a(S'self-evaluated'
p848
S'self-evaluated'
p849
S'JJ'
p850
S'B-NP'
p851
g5
tp852
a(S'future'
p853
S'future'
p854
S'JJ'
p855
S'I-NP'
p856
g5
tp857
a(S'work'
p858
S'work'
p859
S'NN'
p860
S'I-NP'
p861
g5
tp862
a(S'ability'
p863
S'ability'
p864
S'NN'
p865
S'I-NP'
p866
g5
tp867
a(g481
g481
g481
g5
g5
tp868
a(S'and'
p869
S'and'
p870
S'CC'
p871
g5
g5
tp872
a(S'neuromuscular'
p873
S'neuromuscular'
p874
S'JJ'
p875
S'B-NP'
p876
g5
tp877
a(S'fitness'
p878
S'fitness'
p879
S'NN'
p880
S'I-NP'
p881
g5
tp882
a(g102
g102
g102
g5
g5
tp883
a(S'RESULTS'
p884
S'RESULTS'
p885
S'NNS'
p886
S'B-NP'
p887
g5
tp888
a(S'The'
p889
S'The'
p890
S'DT'
p891
S'B-NP'
p892
g5
tp893
a(S'intensity'
p894
S'intensity'
p895
S'NN'
p896
S'I-NP'
p897
g5
tp898
a(S'of'
p899
S'of'
p900
S'IN'
p901
S'B-PP'
p902
g5
tp903
a(S'LBP'
p904
S'LBP'
p905
S'NN'
p906
S'B-NP'
p907
S'B-protein'
p908
tp909
a(S'decreased'
p910
S'decrease'
p911
S'VBD'
p912
S'B-VP'
p913
g5
tp914
a(S'significantly'
p915
S'significantly'
p916
S'RB'
p917
S'B-ADVP'
p918
g5
tp919
a(S'more'
p920
S'more'
p921
S'JJR'
p922
S'I-ADVP'
p923
g5
tp924
a(g242
g242
g242
g5
g5
tp925
a(S'39'
p926
S'39'
p927
S'CD'
p928
S'B-NP'
p929
g5
tp930
a(S'%'
p931
g931
S'NN'
p932
S'I-NP'
p933
g5
tp934
a(g250
g250
g250
g5
g5
tp935
a(S'in'
p936
S'in'
p937
S'IN'
p938
S'B-PP'
p939
g5
tp940
a(S'the'
p941
S'the'
p942
S'DT'
p943
S'B-NP'
p944
g5
tp945
a(S'TG'
p946
S'TG'
p947
S'NN'
p948
S'I-NP'
p949
g5
tp950
a(S'than'
p951
S'than'
p952
S'IN'
p953
S'B-PP'
p954
g5
tp955
a(S'in'
p956
S'in'
p957
S'IN'
p958
S'B-PP'
p959
g5
tp960
a(S'CG'
p961
S'CG'
p962
S'NN'
p963
S'B-NP'
p964
g5
tp965
a(S'at'
p966
S'at'
p967
S'IN'
p968
S'B-PP'
p969
g5
tp970
a(S'12'
p971
S'12'
p972
S'CD'
p973
S'B-NP'
p974
g5
tp975
a(S'months.'
p976
S'months.'
p977
S'NNS'
p978
S'I-NP'
p979
g5
tp980
a(S'The'
p981
S'The'
p982
S'DT'
p983
S'B-NP'
p984
g5
tp985
a(S'proportion'
p986
S'proportion'
p987
S'NN'
p988
S'I-NP'
p989
g5
tp990
a(S'of'
p991
S'of'
p992
S'IN'
p993
S'B-PP'
p994
g5
tp995
a(S'subjects'
p996
S'subject'
p997
S'NNS'
p998
S'B-NP'
p999
g5
tp1000
a(S'with'
p1001
S'with'
p1002
S'IN'
p1003
S'B-PP'
p1004
g5
tp1005
a(S'negative'
p1006
S'negative'
p1007
S'JJ'
p1008
S'B-NP'
p1009
g5
tp1010
a(S'expectations'
p1011
S'expectation'
p1012
S'NNS'
p1013
S'I-NP'
p1014
g5
tp1015
a(S'about'
p1016
S'about'
p1017
S'IN'
p1018
S'B-PP'
p1019
g5
tp1020
a(S'their'
p1021
S'their'
p1022
S'PRP$'
p1023
S'B-NP'
p1024
g5
tp1025
a(S'future'
p1026
S'future'
p1027
S'JJ'
p1028
S'I-NP'
p1029
g5
tp1030
a(S'work'
p1031
S'work'
p1032
S'NN'
p1033
S'I-NP'
p1034
g5
tp1035
a(S'ability'
p1036
S'ability'
p1037
S'NN'
p1038
S'I-NP'
p1039
g5
tp1040
a(S'decreased'
p1041
S'decrease'
p1042
S'VBD'
p1043
S'B-VP'
p1044
g5
tp1045
a(S'in'
p1046
S'in'
p1047
S'IN'
p1048
S'B-PP'
p1049
g5
tp1050
a(S'both'
p1051
S'both'
p1052
S'DT'
p1053
S'B-NP'
p1054
g5
tp1055
a(S'groups'
p1056
S'group'
p1057
S'NNS'
p1058
S'I-NP'
p1059
g5
tp1060
a(S'at'
p1061
S'at'
p1062
S'IN'
p1063
S'B-PP'
p1064
g5
tp1065
a(S'6'
p1066
g1066
S'CD'
p1067
S'B-NP'
p1068
g5
tp1069
a(S'and'
p1070
S'and'
p1071
S'CC'
p1072
S'I-NP'
p1073
g5
tp1074
a(S'12'
p1075
S'12'
p1076
S'CD'
p1077
S'I-NP'
p1078
g5
tp1079
a(S'months'
p1080
S'month'
p1081
S'NNS'
p1082
S'I-NP'
p1083
g5
tp1084
a(S';'
p1085
g1085
g76
g5
g5
tp1086
a(S'however'
p1087
S'however'
p1088
S'RB'
p1089
S'B-ADVP'
p1090
g5
tp1091
a(g481
g481
g481
g5
g5
tp1092
a(S'the'
p1093
S'the'
p1094
S'DT'
p1095
S'B-NP'
p1096
g5
tp1097
a(S'proportion'
p1098
S'proportion'
p1099
S'NN'
p1100
S'I-NP'
p1101
g5
tp1102
a(S'was'
p1103
S'be'
p1104
S'VBD'
p1105
S'B-VP'
p1106
g5
tp1107
a(S'significantly'
p1108
S'significantly'
p1109
S'RB'
p1110
S'B-ADJP'
p1111
g5
tp1112
a(S'bigger'
p1113
S'big'
p1114
S'JJR'
p1115
S'I-ADJP'
p1116
g5
tp1117
a(S'in'
p1118
S'in'
p1119
S'IN'
p1120
S'B-PP'
p1121
g5
tp1122
a(S'TG'
p1123
S'TG'
p1124
S'NN'
p1125
S'B-NP'
p1126
S'B-protein'
p1127
tp1128
a(S'compared'
p1129
S'compare'
p1130
S'VBN'
p1131
S'B-PP'
p1132
g5
tp1133
a(S'with'
p1134
S'with'
p1135
S'IN'
p1136
S'B-PP'
p1137
g5
tp1138
a(S'CG'
p1139
S'CG'
p1140
S'NN'
p1141
S'B-NP'
p1142
g5
tp1143
a(g242
g242
g242
g5
g5
tp1144
a(S'P'
p1145
g1145
S'NN'
p1146
S'B-NP'
p1147
g5
tp1148
a(g668
g668
S'SYM'
p1149
S'B-VP'
p1150
g5
tp1151
a(S'0.028'
p1152
S'0.028'
p1153
S'CD'
p1154
S'B-NP'
p1155
g5
tp1156
a(g250
g250
g250
g5
g5
tp1157
a(g102
g102
g102
g5
g5
tp1158
a(S'There'
p1159
S'There'
p1160
S'EX'
p1161
S'B-NP'
p1162
g5
tp1163
a(S'effects'
p1164
S'effect'
p1165
S'NNS'
p1166
S'I-NP'
p1167
g5
tp1168
a(S'on'
p1169
S'on'
p1170
S'IN'
p1171
S'B-PP'
p1172
g5
tp1173
a(S'disability'
p1174
S'disability'
p1175
S'NN'
p1176
S'B-NP'
p1177
g5
tp1178
a(S'indexes'
p1179
S'index'
p1180
S'NNS'
p1181
S'I-NP'
p1182
g5
tp1183
a(S'and'
p1184
S'and'
p1185
S'CC'
p1186
g5
g5
tp1187
a(S'fitness'
p1188
S'fitness'
p1189
S'NN'
p1190
S'B-NP'
p1191
g5
tp1192
a(S'were'
p1193
S'be'
p1194
S'VBD'
p1195
S'B-VP'
p1196
g5
tp1197
a(S'not'
p1198
S'not'
p1199
S'RB'
p1200
g5
g5
tp1201
a(S'statistically'
p1202
S'statistically'
p1203
S'RB'
p1204
S'B-ADJP'
p1205
g5
tp1206
a(S'significant'
p1207
S'significant'
p1208
S'JJ'
p1209
S'I-ADJP'
p1210
g5
tp1211
a(g102
g102
g102
g5
g5
tp1212
a(S'CONCLUSIONS'
p1213
S'CONCLUSIONS'
p1214
S'NNS'
p1215
S'B-NP'
p1216
g5
tp1217
a(S'Controlling'
p1218
S'Control'
p1219
S'VBG'
p1220
S'B-VP'
p1221
g5
tp1222
a(S'lumbar'
p1223
S'lumbar'
p1224
S'NN'
p1225
S'B-NP'
p1226
S'B-protein'
p1227
tp1228
a(S'NZ'
p1229
S'NZ'
p1230
S'NN'
p1231
S'I-NP'
p1232
S'I-protein'
p1233
tp1234
a(S'is'
p1235
S'be'
p1236
S'VBZ'
p1237
S'B-VP'
p1238
g5
tp1239
a(g78
g78
S'DT'
p1240
S'B-NP'
p1241
g5
tp1242
a(S'specific'
p1243
S'specific'
p1244
S'JJ'
p1245
S'I-NP'
p1246
g5
tp1247
a(S'form'
p1248
S'form'
p1249
S'NN'
p1250
S'I-NP'
p1251
g5
tp1252
a(S'of'
p1253
S'of'
p1254
S'IN'
p1255
S'B-PP'
p1256
g5
tp1257
a(S'exercise'
p1258
S'exercise'
p1259
S'NN'
p1260
S'B-NP'
p1261
g5
tp1262
a(S'and'
p1263
S'and'
p1264
S'CC'
p1265
g5
g5
tp1266
a(S'daily'
p1267
S'daily'
p1268
S'JJ'
p1269
S'B-NP'
p1270
g5
tp1271
a(S'self-care'
p1272
S'self-care'
p1273
S'NN'
p1274
S'I-NP'
p1275
g5
tp1276
a(S'with'
p1277
S'with'
p1278
S'IN'
p1279
S'B-PP'
p1280
g5
tp1281
a(S'potential'
p1282
S'potential'
p1283
S'NN'
p1284
S'B-NP'
p1285
g5
tp1286
a(S'for'
p1287
S'for'
p1288
S'IN'
p1289
S'B-PP'
p1290
g5
tp1291
a(S'prevention'
p1292
S'prevention'
p1293
S'NN'
p1294
S'B-NP'
p1295
g5
tp1296
a(S'of'
p1297
S'of'
p1298
S'IN'
p1299
S'B-PP'
p1300
g5
tp1301
a(S'recurrent'
p1302
S'recurrent'
p1303
S'JJ'
p1304
S'B-NP'
p1305
g5
tp1306
a(S'nonspecific'
p1307
S'nonspecific'
p1308
S'JJ'
p1309
S'I-NP'
p1310
g5
tp1311
a(S'LBP'
p1312
S'LBP'
p1313
S'NN'
p1314
S'I-NP'
p1315
g5
tp1316
a(S'and'
p1317
S'and'
p1318
S'CC'
p1319
S'I-NP'
p1320
g5
tp1321
a(S'disability'
p1322
S'disability'
p1323
S'NN'
p1324
S'I-NP'
p1325
g5
tp1326
a(S'among'
p1327
S'among'
p1328
S'IN'
p1329
S'B-PP'
p1330
g5
tp1331
a(S'middle'
p1332
S'middle'
p1333
S'JJ'
p1334
S'B-NP'
p1335
g5
tp1336
a(S'aged'
p1337
S'aged'
p1338
S'JJ'
p1339
S'I-NP'
p1340
g5
tp1341
a(S'working'
p1342
S'work'
p1343
S'VBG'
p1344
S'I-NP'
p1345
g5
tp1346
a(S'men'
p1347
S'man'
p1348
S'NNS'
p1349
S'I-NP'
p1350
g5
tp1351
a(g102
g102
g102
g5
g5
tp1352
a.