(lp0
(S'Video-feedback'
p1
S'Video-feedback'
p2
S'JJ'
p3
S'B-NP'
p4
S'O'
p5
tp6
a(S'Intervention'
p7
S'Intervention'
p8
S'NN'
p9
S'I-NP'
p10
g5
tp11
a(S'to'
p12
S'to'
p13
S'TO'
p14
S'B-VP'
p15
g5
tp16
a(S'promote'
p17
S'promote'
p18
S'VB'
p19
S'I-VP'
p20
g5
tp21
a(S'Positive'
p22
S'Positive'
p23
S'JJ'
p24
S'B-NP'
p25
g5
tp26
a(S'Parenting'
p27
S'Parenting'
p28
S'NN'
p29
S'I-NP'
p30
g5
tp31
a(S'adapted'
p32
S'adapt'
p33
S'VBN'
p34
S'B-VP'
p35
g5
tp36
a(S'to'
p37
S'to'
p38
S'TO'
p39
S'B-PP'
p40
g5
tp41
a(S'Autism'
p42
S'Autism'
p43
S'NN'
p44
S'B-NP'
p45
g5
tp46
a(S'('
p47
g47
g47
g5
g5
tp48
a(S'VIPP-AUTI'
p49
S'VIPP-AUTI'
p50
S'NN'
p51
S'B-NP'
p52
g5
tp53
a(S')'
p54
g54
g54
g5
g5
tp55
a(S':'
p56
g56
g56
g5
g5
tp57
a(S'A'
p58
g58
S'DT'
p59
S'B-NP'
p60
g5
tp61
a(S'randomized'
p62
S'randomize'
p63
S'VBN'
p64
S'I-NP'
p65
g5
tp66
a(S'controlled'
p67
S'control'
p68
S'VBN'
p69
S'I-NP'
p70
g5
tp71
a(S'trial'
p72
S'trial'
p73
S'NN'
p74
S'I-NP'
p75
g5
tp76
a(S'.'
p77
g77
g77
g5
g5
tp78
a(S'In'
p79
S'In'
p80
S'IN'
p81
S'B-PP'
p82
g5
tp83
a(S'a'
p84
g84
S'DT'
p85
S'B-NP'
p86
g5
tp87
a(S'randomized'
p88
S'randomize'
p89
S'VBN'
p90
S'I-NP'
p91
g5
tp92
a(S'controlled'
p93
S'control'
p94
S'VBN'
p95
S'I-NP'
p96
g5
tp97
a(S'trial'
p98
S'trial'
p99
S'NN'
p100
S'I-NP'
p101
g5
tp102
a(S','
p103
g103
g103
g5
g5
tp104
a(S'we'
p105
S'we'
p106
S'PRP'
p107
S'B-NP'
p108
g5
tp109
a(S'evaluated'
p110
S'evaluate'
p111
S'VBD'
p112
S'B-VP'
p113
g5
tp114
a(S'the'
p115
S'the'
p116
S'DT'
p117
S'B-NP'
p118
g5
tp119
a(S'early'
p120
S'early'
p121
S'JJ'
p122
S'I-NP'
p123
g5
tp124
a(S'intervention'
p125
S'intervention'
p126
S'NN'
p127
S'I-NP'
p128
g5
tp129
a(S'program'
p130
S'program'
p131
S'NN'
p132
S'I-NP'
p133
g5
tp134
a(S'Video-feedback'
p135
S'Video-feedback'
p136
S'JJ'
p137
S'I-NP'
p138
g5
tp139
a(S'Intervention'
p140
S'Intervention'
p141
S'NN'
p142
S'I-NP'
p143
g5
tp144
a(S'to'
p145
S'to'
p146
S'TO'
p147
S'B-VP'
p148
g5
tp149
a(S'promote'
p150
S'promote'
p151
S'VB'
p152
S'I-VP'
p153
g5
tp154
a(S'Positive'
p155
S'Positive'
p156
S'JJ'
p157
S'B-NP'
p158
g5
tp159
a(S'Parenting'
p160
S'Parenting'
p161
S'NN'
p162
S'I-NP'
p163
g5
tp164
a(S'adapted'
p165
S'adapt'
p166
S'VBN'
p167
S'B-VP'
p168
g5
tp169
a(S'to'
p170
S'to'
p171
S'TO'
p172
S'B-PP'
p173
g5
tp174
a(S'Autism'
p175
S'Autism'
p176
S'NN'
p177
S'B-NP'
p178
g5
tp179
a(g47
g47
g47
g5
g5
tp180
a(S'VIPP-AUTI'
p181
S'VIPP-AUTI'
p182
S'NN'
p183
S'B-NP'
p184
g5
tp185
a(g54
g54
g54
g5
g5
tp186
a(S'with'
p187
S'with'
p188
S'IN'
p189
S'B-PP'
p190
g5
tp191
a(S'78'
p192
S'78'
p193
S'CD'
p194
S'B-NP'
p195
g5
tp196
a(S'primary'
p197
S'primary'
p198
S'JJ'
p199
S'I-NP'
p200
g5
tp201
a(S'caregivers'
p202
S'caregiver'
p203
S'NNS'
p204
S'I-NP'
p205
g5
tp206
a(S'and'
p207
S'and'
p208
S'CC'
p209
g5
g5
tp210
a(S'their'
p211
S'their'
p212
S'PRP$'
p213
S'B-NP'
p214
g5
tp215
a(S'child'
p216
S'child'
p217
S'NN'
p218
S'I-NP'
p219
g5
tp220
a(g47
g47
g47
g5
g5
tp221
a(S'16-61'
p222
S'16-61'
p223
S'CD'
p224
S'B-NP'
p225
g5
tp226
a(S'months'
p227
S'month'
p228
S'NNS'
p229
S'I-NP'
p230
g5
tp231
a(g54
g54
g54
g5
g5
tp232
a(S'with'
p233
S'with'
p234
S'IN'
p235
S'B-PP'
p236
g5
tp237
a(S'Autism'
p238
S'Autism'
p239
S'NNP'
p240
S'B-NP'
p241
g5
tp242
a(S'Spectrum'
p243
S'Spectrum'
p244
S'NNP'
p245
S'I-NP'
p246
g5
tp247
a(S'Disorder.'
p248
S'Disorder.'
p249
S'NNP'
p250
S'I-NP'
p251
g5
tp252
a(S'VIPP-AUTI'
p253
S'VIPP-AUTI'
p254
S'NNP'
p255
S'I-NP'
p256
g5
tp257
a(S'is'
p258
S'be'
p259
S'VBZ'
p260
S'B-VP'
p261
g5
tp262
a(g84
g84
S'DT'
p263
S'B-NP'
p264
g5
tp265
a(S'brief'
p266
S'brief'
p267
S'JJ'
p268
S'I-NP'
p269
g5
tp270
a(S'attachment-based'
p271
S'attachment-based'
p272
S'JJ'
p273
S'I-NP'
p274
g5
tp275
a(S'intervention'
p276
S'intervention'
p277
S'NN'
p278
S'I-NP'
p279
g5
tp280
a(S'program'
p281
S'program'
p282
S'NN'
p283
S'I-NP'
p284
g5
tp285
a(g103
g103
g103
g5
g5
tp286
a(S'focusing'
p287
S'focus'
p288
S'VBG'
p289
S'B-VP'
p290
g5
tp291
a(S'on'
p292
S'on'
p293
S'IN'
p294
S'B-PP'
p295
g5
tp296
a(S'improving'
p297
S'improve'
p298
S'VBG'
p299
S'B-VP'
p300
g5
tp301
a(S'parent-child'
p302
S'parent-child'
p303
S'JJ'
p304
S'B-NP'
p305
g5
tp306
a(S'interaction'
p307
S'interaction'
p308
S'NN'
p309
S'I-NP'
p310
g5
tp311
a(S'and'
p312
S'and'
p313
S'CC'
p314
g5
g5
tp315
a(S'reducing'
p316
S'reduce'
p317
S'VBG'
p318
S'B-VP'
p319
g5
tp320
a(S'the'
p321
S'the'
p322
S'DT'
p323
S'B-NP'
p324
g5
tp325
a(S'child'
p326
S'child'
p327
S'NN'
p328
S'I-NP'
p329
g5
tp330
a(S"'s"
p331
S"'s"
p332
S'POS'
p333
S'B-NP'
p334
g5
tp335
a(S'individual'
p336
S'individual'
p337
S'JJ'
p338
S'I-NP'
p339
g5
tp340
a(S'Autism'
p341
S'Autism'
p342
S'NNP'
p343
S'I-NP'
p344
g5
tp345
a(S'Spectrum'
p346
S'Spectrum'
p347
S'NNP'
p348
S'I-NP'
p349
g5
tp350
a(S'Disorder-related'
p351
S'Disorder-related'
p352
S'JJ'
p353
S'I-NP'
p354
g5
tp355
a(S'symptomatology'
p356
S'symptomatology'
p357
S'NN'
p358
S'I-NP'
p359
g5
tp360
a(S'in'
p361
S'in'
p362
S'IN'
p363
S'B-PP'
p364
g5
tp365
a(S'five'
p366
S'five'
p367
S'CD'
p368
S'B-NP'
p369
g5
tp370
a(S'home'
p371
S'home'
p372
S'NN'
p373
S'I-NP'
p374
g5
tp375
a(S'visits.'
p376
S'visits.'
p377
S'NN'
p378
S'I-NP'
p379
g5
tp380
a(S'VIPP-AUTI'
p381
S'VIPP-AUTI'
p382
S'NN'
p383
S'I-NP'
p384
g5
tp385
a(g103
g103
g103
g5
g5
tp386
a(S'as'
p387
S'as'
p388
S'IN'
p389
S'B-SBAR'
p390
g5
tp391
a(S'compared'
p392
S'compare'
p393
S'VBN'
p394
S'B-PP'
p395
g5
tp396
a(S'with'
p397
S'with'
p398
S'IN'
p399
S'B-PP'
p400
g5
tp401
a(S'usual'
p402
S'usual'
p403
S'JJ'
p404
S'B-NP'
p405
g5
tp406
a(S'care'
p407
S'care'
p408
S'NN'
p409
S'I-NP'
p410
g5
tp411
a(g103
g103
g103
g5
g5
tp412
a(S'demonstrated'
p413
S'demonstrate'
p414
S'VBD'
p415
S'B-VP'
p416
g5
tp417
a(S'efficacy'
p418
S'efficacy'
p419
S'NN'
p420
S'B-NP'
p421
g5
tp422
a(S'in'
p423
S'in'
p424
S'IN'
p425
S'B-PP'
p426
g5
tp427
a(S'reducing'
p428
S'reduce'
p429
S'VBG'
p430
S'B-VP'
p431
g5
tp432
a(S'parental'
p433
S'parental'
p434
S'JJ'
p435
S'B-NP'
p436
g5
tp437
a(S'intrusiveness.'
p438
S'intrusiveness.'
p439
S'NNS'
p440
S'I-NP'
p441
g5
tp442
a(S'Moreover'
p443
S'Moreover'
p444
S'RB'
p445
S'B-ADVP'
p446
g5
tp447
a(g103
g103
g103
g5
g5
tp448
a(S'parents'
p449
S'parent'
p450
S'NNS'
p451
S'B-NP'
p452
g5
tp453
a(S'who'
p454
S'who'
p455
S'WP'
p456
S'B-NP'
p457
g5
tp458
a(S'received'
p459
S'receive'
p460
S'VBD'
p461
S'B-VP'
p462
g5
tp463
a(S'VIPP-AUTI'
p464
S'VIPP-AUTI'
p465
S'NN'
p466
S'B-NP'
p467
g5
tp468
a(S'showed'
p469
S'show'
p470
S'VBD'
p471
S'B-VP'
p472
g5
tp473
a(S'increased'
p474
S'increase'
p475
S'VBN'
p476
S'B-NP'
p477
g5
tp478
a(S'feelings'
p479
S'feeling'
p480
S'NNS'
p481
S'I-NP'
p482
g5
tp483
a(S'of'
p484
S'of'
p485
S'IN'
p486
S'B-PP'
p487
g5
tp488
a(S'self-efficacy'
p489
S'self-efficacy'
p490
S'NN'
p491
S'B-NP'
p492
g5
tp493
a(S'in'
p494
S'in'
p495
S'IN'
p496
S'B-PP'
p497
g5
tp498
a(S'child'
p499
S'child'
p500
S'NN'
p501
S'B-NP'
p502
g5
tp503
a(S'rearing.'
p504
S'rearing.'
p505
S'VBP'
p506
S'B-VP'
p507
g5
tp508
a(S'No'
p509
S'No'
p510
S'DT'
p511
S'B-NP'
p512
g5
tp513
a(S'significant'
p514
S'significant'
p515
S'JJ'
p516
S'I-NP'
p517
g5
tp518
a(S'group'
p519
S'group'
p520
S'NN'
p521
S'I-NP'
p522
g5
tp523
a(S'differences'
p524
S'difference'
p525
S'NNS'
p526
S'I-NP'
p527
g5
tp528
a(S'were'
p529
S'be'
p530
S'VBD'
p531
S'B-VP'
p532
g5
tp533
a(S'found'
p534
S'find'
p535
S'VBN'
p536
S'I-VP'
p537
g5
tp538
a(S'on'
p539
S'on'
p540
S'IN'
p541
S'B-PP'
p542
g5
tp543
a(S'other'
p544
S'other'
p545
S'JJ'
p546
S'B-NP'
p547
g5
tp548
a(S'aspects'
p549
S'aspect'
p550
S'NNS'
p551
S'I-NP'
p552
g5
tp553
a(S'of'
p554
S'of'
p555
S'IN'
p556
S'B-PP'
p557
g5
tp558
a(S'parent-child'
p559
S'parent-child'
p560
S'JJ'
p561
S'B-NP'
p562
g5
tp563
a(S'interaction'
p564
S'interaction'
p565
S'NN'
p566
S'I-NP'
p567
g5
tp568
a(S'or'
p569
S'or'
p570
S'CC'
p571
S'B-PP'
p572
g5
tp573
a(S'on'
p574
S'on'
p575
S'IN'
p576
S'B-PP'
p577
g5
tp578
a(S'child'
p579
S'child'
p580
S'NN'
p581
S'B-NP'
p582
g5
tp583
a(S'play'
p584
S'play'
p585
S'NN'
p586
S'I-NP'
p587
g5
tp588
a(S'behavior.'
p589
S'behavior.'
p590
S'NN'
p591
S'I-NP'
p592
g5
tp593
a(S'At'
p594
S'At'
p595
S'IN'
p596
S'B-PP'
p597
g5
tp598
a(S'3-months'
p599
S'3-month'
p600
S'NNS'
p601
S'B-NP'
p602
g5
tp603
a(S'follow-up'
p604
S'follow-up'
p605
S'NN'
p606
S'I-NP'
p607
g5
tp608
a(g103
g103
g103
g5
g5
tp609
a(S'intervention'
p610
S'intervention'
p611
S'NN'
p612
S'B-NP'
p613
g5
tp614
a(S'effects'
p615
S'effect'
p616
S'NNS'
p617
S'I-NP'
p618
g5
tp619
a(S'were'
p620
S'be'
p621
S'VBD'
p622
S'B-VP'
p623
g5
tp624
a(S'found'
p625
S'find'
p626
S'VBN'
p627
S'I-VP'
p628
g5
tp629
a(S'on'
p630
S'on'
p631
S'IN'
p632
S'B-PP'
p633
g5
tp634
a(S'child-initiated'
p635
S'child-initiated'
p636
S'JJ'
p637
S'B-NP'
p638
g5
tp639
a(S'joint'
p640
S'joint'
p641
S'JJ'
p642
S'I-NP'
p643
g5
tp644
a(S'attention'
p645
S'attention'
p646
S'NN'
p647
S'I-NP'
p648
g5
tp649
a(S'skills'
p650
S'skill'
p651
S'NNS'
p652
S'I-NP'
p653
g5
tp654
a(g103
g103
g103
g5
g5
tp655
a(S'not'
p656
S'not'
p657
S'RB'
p658
S'B-VP'
p659
g5
tp660
a(S'mediated'
p661
S'mediate'
p662
S'VBN'
p663
S'I-VP'
p664
g5
tp665
a(S'by'
p666
S'by'
p667
S'IN'
p668
S'B-PP'
p669
g5
tp670
a(S'intervention'
p671
S'intervention'
p672
S'NN'
p673
S'B-NP'
p674
g5
tp675
a(S'effects'
p676
S'effect'
p677
S'NNS'
p678
S'I-NP'
p679
g5
tp680
a(S'on'
p681
S'on'
p682
S'IN'
p683
S'B-PP'
p684
g5
tp685
a(S'parenting.'
p686
S'parenting.'
p687
S'NN'
p688
S'B-NP'
p689
g5
tp690
a(S'Implementation'
p691
S'Implementation'
p692
S'NN'
p693
S'I-NP'
p694
g5
tp695
a(S'of'
p696
S'of'
p697
S'IN'
p698
S'B-PP'
p699
g5
tp700
a(S'VIPP-AUTI'
p701
S'VIPP-AUTI'
p702
S'NN'
p703
S'B-NP'
p704
S'B-protein'
p705
tp706
a(S'in'
p707
S'in'
p708
S'IN'
p709
S'B-PP'
p710
g5
tp711
a(S'clinical'
p712
S'clinical'
p713
S'JJ'
p714
S'B-NP'
p715
g5
tp716
a(S'practice'
p717
S'practice'
p718
S'NN'
p719
S'I-NP'
p720
g5
tp721
a(S'is'
p722
S'be'
p723
S'VBZ'
p724
S'B-VP'
p725
g5
tp726
a(S'facilitated'
p727
S'facilitate'
p728
S'VBN'
p729
S'I-VP'
p730
g5
tp731
a(S'by'
p732
S'by'
p733
S'IN'
p734
S'B-PP'
p735
g5
tp736
a(S'the'
p737
S'the'
p738
S'DT'
p739
S'B-NP'
p740
g5
tp741
a(S'use'
p742
S'use'
p743
S'NN'
p744
S'I-NP'
p745
g5
tp746
a(S'of'
p747
S'of'
p748
S'IN'
p749
S'B-PP'
p750
g5
tp751
a(g84
g84
S'DT'
p752
S'B-NP'
p753
g5
tp754
a(S'detailed'
p755
S'detailed'
p756
S'JJ'
p757
S'I-NP'
p758
g5
tp759
a(S'manual'
p760
S'manual'
p761
S'NN'
p762
S'I-NP'
p763
g5
tp764
a(S'and'
p765
S'and'
p766
S'CC'
p767
g5
g5
tp768
a(g84
g84
S'DT'
p769
S'B-NP'
p770
g5
tp771
a(S'relatively'
p772
S'relatively'
p773
S'RB'
p774
S'I-NP'
p775
g5
tp776
a(S'brief'
p777
S'brief'
p778
S'JJ'
p779
S'I-NP'
p780
g5
tp781
a(S'training'
p782
S'training'
p783
S'NN'
p784
S'I-NP'
p785
g5
tp786
a(S'of'
p787
S'of'
p788
S'IN'
p789
S'B-PP'
p790
g5
tp791
a(S'interveners'
p792
S'intervener'
p793
S'NNS'
p794
S'B-NP'
p795
g5
tp796
a(g77
g77
g77
g5
g5
tp797
a.