(lp0
(S'Low'
p1
S'Low'
p2
S'JJ'
p3
S'B-NP'
p4
S'O'
p5
tp6
a(S'intensity'
p7
S'intensity'
p8
S'NN'
p9
S'I-NP'
p10
g5
tp11
a(S'physical'
p12
S'physical'
p13
S'JJ'
p14
S'I-NP'
p15
g5
tp16
a(S'training'
p17
S'training'
p18
S'NN'
p19
S'I-NP'
p20
g5
tp21
a(S'in'
p22
S'in'
p23
S'IN'
p24
S'B-PP'
p25
g5
tp26
a(S'older'
p27
S'old'
p28
S'JJR'
p29
S'B-NP'
p30
g5
tp31
a(S'subjects'
p32
S'subject'
p33
S'NNS'
p34
S'I-NP'
p35
g5
tp36
a(S'.'
p37
g37
g37
g5
g5
tp38
a(S'BACKGROUND'
p39
S'BACKGROUND'
p40
S'NN'
p41
S'B-NP'
p42
g5
tp43
a(S'This'
p44
S'This'
p45
S'DT'
p46
S'B-NP'
p47
g5
tp48
a(S'study'
p49
S'study'
p50
S'NN'
p51
S'I-NP'
p52
g5
tp53
a(S'was'
p54
S'be'
p55
S'VBD'
p56
S'B-VP'
p57
g5
tp58
a(S'designed'
p59
S'design'
p60
S'VBN'
p61
S'I-VP'
p62
g5
tp63
a(S'to'
p64
S'to'
p65
S'TO'
p66
S'B-VP'
p67
g5
tp68
a(S'evaluate'
p69
S'evaluate'
p70
S'VB'
p71
S'I-VP'
p72
g5
tp73
a(S'the'
p74
S'the'
p75
S'DT'
p76
S'B-NP'
p77
g5
tp78
a(S'effects'
p79
S'effect'
p80
S'NNS'
p81
S'I-NP'
p82
g5
tp83
a(S'of'
p84
S'of'
p85
S'IN'
p86
S'B-PP'
p87
g5
tp88
a(S'a'
p89
g89
S'DT'
p90
S'B-NP'
p91
g5
tp92
a(S'low'
p93
S'low'
p94
S'JJ'
p95
S'I-NP'
p96
g5
tp97
a(S'intensity'
p98
S'intensity'
p99
S'NN'
p100
S'I-NP'
p101
g5
tp102
a(S'general'
p103
S'general'
p104
S'JJ'
p105
S'I-NP'
p106
g5
tp107
a(S'training'
p108
S'training'
p109
S'NN'
p110
S'I-NP'
p111
g5
tp112
a(S'program'
p113
S'program'
p114
S'NN'
p115
S'I-NP'
p116
g5
tp117
a(S'('
p118
g118
g118
g5
g5
tp119
a(S'<'
p120
g120
S'SYM'
p121
S'B-NP'
p122
g5
tp123
a(S'50'
p124
S'50'
p125
S'CD'
p126
S'B-NP'
p127
g5
tp128
a(S'%'
p129
g129
S'NN'
p130
S'I-NP'
p131
g5
tp132
a(S'of'
p133
S'of'
p134
S'IN'
p135
S'B-PP'
p136
g5
tp137
a(S'heart'
p138
S'heart'
p139
S'NN'
p140
S'B-NP'
p141
g5
tp142
a(S'rate'
p143
S'rate'
p144
S'NN'
p145
S'I-NP'
p146
g5
tp147
a(S'reserve'
p148
S'reserve'
p149
S'NN'
p150
S'I-NP'
p151
g5
tp152
a(S')'
p153
g153
g153
g5
g5
tp154
a(S'on'
p155
S'on'
p156
S'IN'
p157
S'B-PP'
p158
g5
tp159
a(S'physical'
p160
S'physical'
p161
S'JJ'
p162
S'B-NP'
p163
g5
tp164
a(S'fitness'
p165
S'fitness'
p166
S'NN'
p167
S'I-NP'
p168
g5
tp169
a(S'of'
p170
S'of'
p171
S'IN'
p172
S'B-PP'
p173
g5
tp174
a(S'healthy'
p175
S'healthy'
p176
S'JJ'
p177
S'B-NP'
p178
g5
tp179
a(S'older'
p180
S'old'
p181
S'JJR'
p182
S'I-NP'
p183
g5
tp184
a(S'subjects'
p185
S'subject'
p186
S'NNS'
p187
S'I-NP'
p188
g5
tp189
a(S','
p190
g190
g190
g5
g5
tp191
a(S'by'
p192
S'by'
p193
S'IN'
p194
S'B-PP'
p195
g5
tp196
a(S'comparing'
p197
S'compare'
p198
S'VBG'
p199
S'B-VP'
p200
g5
tp201
a(S'maximal'
p202
S'maximal'
p203
S'JJ'
p204
S'B-NP'
p205
g5
tp206
a(S'and'
p207
S'and'
p208
S'CC'
p209
S'I-NP'
p210
g5
tp211
a(S'submaximal'
p212
S'submaximal'
p213
S'JJ'
p214
S'I-NP'
p215
g5
tp216
a(S'indices'
p217
S'index'
p218
S'NNS'
p219
S'I-NP'
p220
g5
tp221
a(S'of'
p222
S'of'
p223
S'IN'
p224
S'B-PP'
p225
g5
tp226
a(S'training'
p227
S'training'
p228
S'NN'
p229
S'B-NP'
p230
g5
tp231
a(S'response'
p232
S'response'
p233
S'NN'
p234
S'I-NP'
p235
g5
tp236
a(g37
g37
g37
g5
g5
tp237
a(S'METHODS'
p238
S'METHODS'
p239
S'NNS'
p240
S'B-NP'
p241
g5
tp242
a(S'Twenty-two'
p243
S'Twenty-two'
p244
S'CD'
p245
S'B-NP'
p246
g5
tp247
a(S'volunteers'
p248
S'volunteer'
p249
S'NNS'
p250
S'I-NP'
p251
g5
tp252
a(S'over'
p253
S'over'
p254
S'IN'
p255
S'B-PP'
p256
g5
tp257
a(S'60'
p258
S'60'
p259
S'CD'
p260
S'B-NP'
p261
g5
tp262
a(S'years'
p263
S'year'
p264
S'NNS'
p265
S'I-NP'
p266
g5
tp267
a(S'of'
p268
S'of'
p269
S'IN'
p270
S'B-PP'
p271
g5
tp272
a(S'age'
p273
S'age'
p274
S'NN'
p275
S'B-NP'
p276
g5
tp277
a(S'participated'
p278
S'participate'
p279
S'VBD'
p280
S'B-VP'
p281
g5
tp282
a(S'in'
p283
S'in'
p284
S'IN'
p285
S'B-PP'
p286
g5
tp287
a(S'the'
p288
S'the'
p289
S'DT'
p290
S'B-NP'
p291
g5
tp292
a(S'present'
p293
S'present'
p294
S'JJ'
p295
S'I-NP'
p296
g5
tp297
a(S'study.'
p298
S'study.'
p299
S'NN'
p300
S'I-NP'
p301
g5
tp302
a(S'The'
p303
S'The'
p304
S'DT'
p305
S'B-NP'
p306
g5
tp307
a(S'sample'
p308
S'sample'
p309
S'NN'
p310
S'I-NP'
p311
g5
tp312
a(S'was'
p313
S'be'
p314
S'VBD'
p315
S'B-VP'
p316
g5
tp317
a(S'randomly'
p318
S'randomly'
p319
S'RB'
p320
S'I-VP'
p321
g5
tp322
a(S'divided'
p323
S'divide'
p324
S'VBN'
p325
S'I-VP'
p326
g5
tp327
a(S'in'
p328
S'in'
p329
S'IN'
p330
S'B-PP'
p331
g5
tp332
a(S'an'
p333
S'an'
p334
S'DT'
p335
S'B-NP'
p336
g5
tp337
a(S'experimental'
p338
S'experimental'
p339
S'JJ'
p340
S'I-NP'
p341
g5
tp342
a(S'group'
p343
S'group'
p344
S'NN'
p345
S'I-NP'
p346
g5
tp347
a(S'of'
p348
S'of'
p349
S'IN'
p350
S'B-PP'
p351
g5
tp352
a(S'13'
p353
S'13'
p354
S'CD'
p355
S'B-NP'
p356
g5
tp357
a(S'older'
p358
S'old'
p359
S'JJR'
p360
S'I-NP'
p361
g5
tp362
a(S'subjects'
p363
S'subject'
p364
S'NNS'
p365
S'I-NP'
p366
g5
tp367
a(g118
g118
g118
g5
g5
tp368
a(S'3'
p369
g369
S'CD'
p370
S'B-NP'
p371
g5
tp372
a(S'men'
p373
S'man'
p374
S'NNS'
p375
S'I-NP'
p376
g5
tp377
a(S'and'
p378
S'and'
p379
S'CC'
p380
g5
g5
tp381
a(S'10'
p382
S'10'
p383
S'CD'
p384
S'B-NP'
p385
g5
tp386
a(S'women'
p387
S'woman'
p388
S'NNS'
p389
S'I-NP'
p390
g5
tp391
a(g190
g190
g190
g5
g5
tp392
a(S'mean'
p393
S'mean'
p394
S'JJ'
p395
S'B-NP'
p396
g5
tp397
a(S'age'
p398
S'age'
p399
S'NN'
p400
S'I-NP'
p401
g5
tp402
a(S'63.5'
p403
S'63.5'
p404
S'CD'
p405
S'B-NP'
p406
g5
tp407
a(S'+/-'
p408
S'+/-'
p409
S'CC'
p410
S'I-NP'
p411
g5
tp412
a(g369
g369
S'CD'
p413
S'I-NP'
p414
g5
tp415
a(S'years'
p416
S'year'
p417
S'NNS'
p418
S'I-NP'
p419
g5
tp420
a(g153
g153
g153
g5
g5
tp421
a(S'while'
p422
S'while'
p423
S'IN'
p424
S'B-SBAR'
p425
g5
tp426
a(S'the'
p427
S'the'
p428
S'DT'
p429
S'B-NP'
p430
g5
tp431
a(S'remaining'
p432
S'remain'
p433
S'VBG'
p434
S'I-NP'
p435
g5
tp436
a(S'9'
p437
g437
S'CD'
p438
S'I-NP'
p439
g5
tp440
a(S'subjects'
p441
S'subject'
p442
S'NNS'
p443
S'I-NP'
p444
g5
tp445
a(g118
g118
g118
g5
g5
tp446
a(g369
g369
S'CD'
p447
S'B-NP'
p448
g5
tp449
a(S'men'
p450
S'man'
p451
S'NNS'
p452
S'I-NP'
p453
g5
tp454
a(S'and'
p455
S'and'
p456
S'CC'
p457
g5
g5
tp458
a(S'6'
p459
g459
S'CD'
p460
S'B-NP'
p461
g5
tp462
a(S'women'
p463
S'woman'
p464
S'NNS'
p465
S'I-NP'
p466
g5
tp467
a(g190
g190
g190
g5
g5
tp468
a(S'mean'
p469
S'mean'
p470
S'JJ'
p471
S'B-NP'
p472
g5
tp473
a(S'age'
p474
S'age'
p475
S'NN'
p476
S'I-NP'
p477
g5
tp478
a(S'64.2'
p479
S'64.2'
p480
S'CD'
p481
S'B-NP'
p482
g5
tp483
a(S'+/-'
p484
S'+/-'
p485
S'CC'
p486
S'I-NP'
p487
g5
tp488
a(S'4'
p489
g489
S'CD'
p490
S'I-NP'
p491
g5
tp492
a(S'years'
p493
S'year'
p494
S'NNS'
p495
S'I-NP'
p496
g5
tp497
a(g153
g153
g153
g5
g5
tp498
a(S'served'
p499
S'serve'
p500
S'VBD'
p501
S'B-VP'
p502
g5
tp503
a(S'as'
p504
S'as'
p505
S'IN'
p506
S'B-PP'
p507
g5
tp508
a(S'inactive'
p509
S'inactive'
p510
S'JJ'
p511
S'B-NP'
p512
g5
tp513
a(S'control'
p514
S'control'
p515
S'NN'
p516
S'I-NP'
p517
g5
tp518
a(S'group.'
p519
S'group.'
p520
S'NN'
p521
S'I-NP'
p522
g5
tp523
a(S'After'
p524
S'After'
p525
S'IN'
p526
S'B-PP'
p527
g5
tp528
a(S'medical'
p529
S'medical'
p530
S'JJ'
p531
S'B-NP'
p532
g5
tp533
a(S'screening'
p534
S'screening'
p535
S'NN'
p536
S'I-NP'
p537
g5
tp538
a(S'all'
p539
S'all'
p540
S'DT'
p541
S'B-NP'
p542
g5
tp543
a(S'participants'
p544
S'participant'
p545
S'NNS'
p546
S'I-NP'
p547
g5
tp548
a(S'were'
p549
S'be'
p550
S'VBD'
p551
S'B-VP'
p552
g5
tp553
a(S'evaluated'
p554
S'evaluate'
p555
S'VBN'
p556
S'I-VP'
p557
g5
tp558
a(S'before'
p559
S'before'
p560
S'IN'
p561
S'B-PP'
p562
g5
tp563
a(S'and'
p564
S'and'
p565
S'CC'
p566
S'I-PP'
p567
g5
tp568
a(S'after'
p569
S'after'
p570
S'IN'
p571
S'I-PP'
p572
g5
tp573
a(S'12'
p574
S'12'
p575
S'CD'
p576
S'B-NP'
p577
g5
tp578
a(S'weeks'
p579
S'week'
p580
S'NNS'
p581
S'I-NP'
p582
g5
tp583
a(S'in'
p584
S'in'
p585
S'IN'
p586
S'B-PP'
p587
g5
tp588
a(S'which'
p589
S'which'
p590
S'WDT'
p591
S'B-NP'
p592
g5
tp593
a(S'the'
p594
S'the'
p595
S'DT'
p596
S'B-NP'
p597
g5
tp598
a(S'experimental'
p599
S'experimental'
p600
S'JJ'
p601
S'I-NP'
p602
g5
tp603
a(S'subjects'
p604
S'subject'
p605
S'NNS'
p606
S'I-NP'
p607
g5
tp608
a(S'underwent'
p609
S'undergo'
p610
S'VBD'
p611
S'B-VP'
p612
g5
tp613
a(g89
g89
S'DT'
p614
S'B-NP'
p615
g5
tp616
a(S'low'
p617
S'low'
p618
S'JJ'
p619
S'I-NP'
p620
g5
tp621
a(S'intensity'
p622
S'intensity'
p623
S'NN'
p624
S'I-NP'
p625
g5
tp626
a(S'training.'
p627
S'training.'
p628
S'NN'
p629
S'I-NP'
p630
g5
tp631
a(S'Each'
p632
S'Each'
p633
S'DT'
p634
S'B-NP'
p635
g5
tp636
a(S'subjects-either'
p637
S'subjects-either'
p638
S'JJ'
p639
S'I-NP'
p640
g5
tp641
a(S'inactive'
p642
S'inactive'
p643
S'JJ'
p644
S'I-NP'
p645
g5
tp646
a(S'or'
p647
S'or'
p648
S'CC'
p649
S'I-NP'
p650
g5
tp651
a(S'active-performed'
p652
S'active-performed'
p653
S'JJ'
p654
S'I-NP'
p655
g5
tp656
a(S'two'
p657
S'two'
p658
S'CD'
p659
S'I-NP'
p660
g5
tp661
a(S'treadmill'
p662
S'treadmill'
p663
S'NN'
p664
S'I-NP'
p665
g5
tp666
a(S'tests'
p667
S'test'
p668
S'NNS'
p669
S'I-NP'
p670
g5
tp671
a(S'at'
p672
S'at'
p673
S'IN'
p674
S'B-PP'
p675
g5
tp676
a(S'two-days'
p677
S'two-days'
p678
S'JJ'
p679
S'B-NP'
p680
g5
tp681
a(S'interval'
p682
S'interval'
p683
S'NN'
p684
S'I-NP'
p685
g5
tp686
a(g190
g190
g190
g5
g5
tp687
a(S'to'
p688
S'to'
p689
S'TO'
p690
S'B-VP'
p691
g5
tp692
a(S'measure'
p693
S'measure'
p694
S'VB'
p695
S'I-VP'
p696
g5
tp697
a(S'maximal'
p698
S'maximal'
p699
S'JJ'
p700
S'B-NP'
p701
g5
tp702
a(S'and'
p703
S'and'
p704
S'CC'
p705
S'I-NP'
p706
g5
tp707
a(S'submaximal'
p708
S'submaximal'
p709
S'JJ'
p710
S'I-NP'
p711
g5
tp712
a(S'responses'
p713
S'response'
p714
S'NNS'
p715
S'I-NP'
p716
g5
tp717
a(S'to'
p718
S'to'
p719
S'TO'
p720
S'B-VP'
p721
g5
tp722
a(S'exercise'
p723
S'exercise'
p724
S'VB'
p725
S'I-VP'
p726
g5
tp727
a(g190
g190
g190
S'I-VP'
p728
g5
tp729
a(S'respectively.'
p730
S'respectively.'
p731
S'VB'
p732
S'I-VP'
p733
g5
tp734
a(S'Heart'
p735
S'Heart'
p736
S'NNP'
p737
S'B-NP'
p738
g5
tp739
a(S'rate'
p740
S'rate'
p741
S'NN'
p742
S'I-NP'
p743
g5
tp744
a(g118
g118
g118
g5
g5
tp745
a(S'HR'
p746
S'HR'
p747
S'NN'
p748
S'B-NP'
p749
S'B-protein'
p750
tp751
a(g153
g153
g153
g5
g5
tp752
a(g190
g190
g190
g5
g5
tp753
a(S'oxygen'
p754
S'oxygen'
p755
S'NN'
p756
S'B-NP'
p757
g5
tp758
a(S'uptake'
p759
S'uptake'
p760
S'NN'
p761
S'I-NP'
p762
g5
tp763
a(g118
g118
g118
g5
g5
tp764
a(S'VO2'
p765
S'VO2'
p766
S'NN'
p767
S'B-NP'
p768
S'B-protein'
p769
tp770
a(g153
g153
g153
g5
g5
tp771
a(S'and'
p772
S'and'
p773
S'CC'
p774
g5
g5
tp775
a(S'pulmonary'
p776
S'pulmonary'
p777
S'JJ'
p778
S'B-NP'
p779
g5
tp780
a(S'ventilation'
p781
S'ventilation'
p782
S'NN'
p783
S'I-NP'
p784
g5
tp785
a(g118
g118
g118
g5
g5
tp786
a(S'VE'
p787
S'VE'
p788
S'NN'
p789
S'B-NP'
p790
g5
tp791
a(g153
g153
g153
g5
g5
tp792
a(S'were'
p793
S'be'
p794
S'VBD'
p795
S'B-VP'
p796
g5
tp797
a(S'measured'
p798
S'measure'
p799
S'VBN'
p800
S'I-VP'
p801
g5
tp802
a(S'using'
p803
S'use'
p804
S'VBG'
p805
S'B-VP'
p806
g5
tp807
a(g89
g89
S'DT'
p808
S'B-NP'
p809
g5
tp810
a(S'telemetric'
p811
S'telemetric'
p812
S'JJ'
p813
S'I-NP'
p814
g5
tp815
a(S'apparatus'
p816
S'apparatus'
p817
S'NN'
p818
S'I-NP'
p819
g5
tp820
a(g37
g37
g37
g5
g5
tp821
a(S'RESULTS'
p822
S'RESULTS'
p823
S'NNS'
p824
S'B-NP'
p825
g5
tp826
a(S'The'
p827
S'The'
p828
S'DT'
p829
S'B-NP'
p830
g5
tp831
a(S'major'
p832
S'major'
p833
S'JJ'
p834
S'I-NP'
p835
g5
tp836
a(S'finding'
p837
S'finding'
p838
S'NN'
p839
S'I-NP'
p840
g5
tp841
a(S'of'
p842
S'of'
p843
S'IN'
p844
S'B-PP'
p845
g5
tp846
a(S'the'
p847
S'the'
p848
S'DT'
p849
S'B-NP'
p850
g5
tp851
a(S'study'
p852
S'study'
p853
S'NN'
p854
S'I-NP'
p855
g5
tp856
a(S'was'
p857
S'be'
p858
S'VBD'
p859
S'B-VP'
p860
g5
tp861
a(S'the'
p862
S'the'
p863
S'DT'
p864
S'B-NP'
p865
g5
tp866
a(S'significant'
p867
S'significant'
p868
S'JJ'
p869
S'I-NP'
p870
g5
tp871
a(S'improvement'
p872
S'improvement'
p873
S'NN'
p874
S'I-NP'
p875
g5
tp876
a(S'in'
p877
S'in'
p878
S'IN'
p879
S'B-PP'
p880
g5
tp881
a(S'submaximal'
p882
S'submaximal'
p883
S'JJ'
p884
S'B-NP'
p885
g5
tp886
a(S'response'
p887
S'response'
p888
S'NN'
p889
S'I-NP'
p890
g5
tp891
a(S'to'
p892
S'to'
p893
S'TO'
p894
S'B-VP'
p895
g5
tp896
a(S'exercise'
p897
S'exercise'
p898
S'VB'
p899
S'I-VP'
p900
g5
tp901
a(S'of'
p902
S'of'
p903
S'IN'
p904
S'B-PP'
p905
g5
tp906
a(S'experimental'
p907
S'experimental'
p908
S'JJ'
p909
S'B-NP'
p910
g5
tp911
a(S'subjects'
p912
S'subject'
p913
S'NNS'
p914
S'I-NP'
p915
g5
tp916
a(g190
g190
g190
g5
g5
tp917
a(S'expressed'
p918
S'express'
p919
S'VBN'
p920
S'B-VP'
p921
g5
tp922
a(S'by'
p923
S'by'
p924
S'IN'
p925
S'B-PP'
p926
g5
tp927
a(S'the'
p928
S'the'
p929
S'DT'
p930
S'B-NP'
p931
g5
tp932
a(S'reduction'
p933
S'reduction'
p934
S'NN'
p935
S'I-NP'
p936
g5
tp937
a(S'in'
p938
S'in'
p939
S'IN'
p940
S'B-PP'
p941
g5
tp942
a(S'HR'
p943
S'HR'
p944
S'NN'
p945
S'B-NP'
p946
g5
tp947
a(g190
g190
g190
g5
g5
tp948
a(S'VO2'
p949
S'VO2'
p950
S'NN'
p951
S'B-NP'
p952
S'B-protein'
p953
tp954
a(S'VE'
p955
S'VE'
p956
S'NN'
p957
S'I-NP'
p958
g5
tp959
a(S'while'
p960
S'while'
p961
S'IN'
p962
S'B-SBAR'
p963
g5
tp964
a(S'VO2'
p965
S'VO2'
p966
S'NN'
p967
S'B-NP'
p968
S'B-protein'
p969
tp970
a(S'max'
p971
S'max'
p972
S'NN'
p973
S'I-NP'
p974
g5
tp975
a(S'did'
p976
S'do'
p977
S'VBD'
p978
S'B-VP'
p979
g5
tp980
a(S'not'
p981
S'not'
p982
S'RB'
p983
S'I-VP'
p984
g5
tp985
a(S'change'
p986
S'change'
p987
S'VB'
p988
S'I-VP'
p989
g5
tp990
a(g37
g37
g37
g5
g5
tp991
a(S'CONCLUSIONS'
p992
S'CONCLUSIONS'
p993
S'NNS'
p994
S'B-NP'
p995
g5
tp996
a(S'Thus'
p997
S'Thus'
p998
S'RB'
p999
S'B-ADVP'
p1000
g5
tp1001
a(g190
g190
g190
g5
g5
tp1002
a(S'it'
p1003
S'it'
p1004
S'PRP'
p1005
S'B-NP'
p1006
g5
tp1007
a(S'appears'
p1008
S'appear'
p1009
S'VBZ'
p1010
S'B-VP'
p1011
g5
tp1012
a(S'that'
p1013
S'that'
p1014
S'IN'
p1015
S'B-SBAR'
p1016
g5
tp1017
a(g89
g89
S'DT'
p1018
S'B-NP'
p1019
g5
tp1020
a(S'low'
p1021
S'low'
p1022
S'JJ'
p1023
S'I-NP'
p1024
g5
tp1025
a(S'intensity'
p1026
S'intensity'
p1027
S'NN'
p1028
S'I-NP'
p1029
g5
tp1030
a(S'general'
p1031
S'general'
p1032
S'JJ'
p1033
S'I-NP'
p1034
g5
tp1035
a(S'training'
p1036
S'training'
p1037
S'NN'
p1038
S'I-NP'
p1039
g5
tp1040
a(S'similar'
p1041
S'similar'
p1042
S'JJ'
p1043
S'B-ADJP'
p1044
g5
tp1045
a(S'to'
p1046
S'to'
p1047
S'TO'
p1048
S'B-PP'
p1049
g5
tp1050
a(S'that'
p1051
S'that'
p1052
S'DT'
p1053
S'B-NP'
p1054
g5
tp1055
a(S'followed'
p1056
S'follow'
p1057
S'VBN'
p1058
S'B-VP'
p1059
g5
tp1060
a(S'in'
p1061
S'in'
p1062
S'IN'
p1063
S'B-PP'
p1064
g5
tp1065
a(S'the'
p1066
S'the'
p1067
S'DT'
p1068
S'B-NP'
p1069
g5
tp1070
a(S'present'
p1071
S'present'
p1072
S'JJ'
p1073
S'I-NP'
p1074
g5
tp1075
a(S'study'
p1076
S'study'
p1077
S'NN'
p1078
S'I-NP'
p1079
g5
tp1080
a(S'may'
p1081
S'may'
p1082
S'MD'
p1083
S'B-VP'
p1084
g5
tp1085
a(S'represent'
p1086
S'represent'
p1087
S'VB'
p1088
S'I-VP'
p1089
g5
tp1090
a(g89
g89
S'DT'
p1091
S'B-NP'
p1092
g5
tp1093
a(S'good'
p1094
S'good'
p1095
S'JJ'
p1096
S'I-NP'
p1097
g5
tp1098
a(S'means'
p1099
S'mean'
p1100
S'NNS'
p1101
S'I-NP'
p1102
g5
tp1103
a(S'to'
p1104
S'to'
p1105
S'TO'
p1106
S'B-VP'
p1107
g5
tp1108
a(S'improve'
p1109
S'improve'
p1110
S'VB'
p1111
S'I-VP'
p1112
g5
tp1113
a(S'physical'
p1114
S'physical'
p1115
S'JJ'
p1116
S'B-NP'
p1117
g5
tp1118
a(S'fitness'
p1119
S'fitness'
p1120
S'NN'
p1121
S'I-NP'
p1122
g5
tp1123
a(S'in'
p1124
S'in'
p1125
S'IN'
p1126
S'B-PP'
p1127
g5
tp1128
a(S'healthy'
p1129
S'healthy'
p1130
S'JJ'
p1131
S'B-NP'
p1132
g5
tp1133
a(S'elderly'
p1134
S'elderly'
p1135
S'JJ'
p1136
S'I-NP'
p1137
g5
tp1138
a(S'people.'
p1139
S'people.'
p1140
S'NN'
p1141
S'I-NP'
p1142
g5
tp1143
a(S'Similarly'
p1144
S'Similarly'
p1145
S'RB'
p1146
S'B-ADVP'
p1147
g5
tp1148
a(g190
g190
g190
g5
g5
tp1149
a(S'this'
p1150
S'this'
p1151
S'DT'
p1152
S'B-NP'
p1153
g5
tp1154
a(S'study'
p1155
S'study'
p1156
S'NN'
p1157
S'I-NP'
p1158
g5
tp1159
a(S'supports'
p1160
S'support'
p1161
S'VBZ'
p1162
S'B-VP'
p1163
g5
tp1164
a(S'the'
p1165
S'the'
p1166
S'DT'
p1167
S'B-NP'
p1168
g5
tp1169
a(S'effectiveness'
p1170
S'effectiveness'
p1171
S'NN'
p1172
S'I-NP'
p1173
g5
tp1174
a(S'of'
p1175
S'of'
p1176
S'IN'
p1177
S'B-PP'
p1178
g5
tp1179
a(S'evaluation'
p1180
S'evaluation'
p1181
S'NN'
p1182
S'B-NP'
p1183
g5
tp1184
a(S'tests'
p1185
S'test'
p1186
S'NNS'
p1187
S'I-NP'
p1188
g5
tp1189
a(S'based'
p1190
S'base'
p1191
S'VBN'
p1192
S'B-VP'
p1193
g5
tp1194
a(S'on'
p1195
S'on'
p1196
S'IN'
p1197
S'B-PP'
p1198
g5
tp1199
a(S'submaximal'
p1200
S'submaximal'
p1201
S'JJ'
p1202
S'B-NP'
p1203
g5
tp1204
a(S'responses'
p1205
S'response'
p1206
S'NNS'
p1207
S'I-NP'
p1208
g5
tp1209
a(S'to'
p1210
S'to'
p1211
S'TO'
p1212
S'B-VP'
p1213
g5
tp1214
a(S'exercise'
p1215
S'exercise'
p1216
S'VB'
p1217
S'I-VP'
p1218
g5
tp1219
a(S'in'
p1220
S'in'
p1221
S'IN'
p1222
S'B-PP'
p1223
g5
tp1224
a(S'this'
p1225
S'this'
p1226
S'DT'
p1227
S'B-NP'
p1228
g5
tp1229
a(S'population'
p1230
S'population'
p1231
S'NN'
p1232
S'I-NP'
p1233
g5
tp1234
a(g37
g37
g37
g5
g5
tp1235
a.