(lp0
(S'Unpacking'
p1
S'Unpack'
p2
S'VBG'
p3
S'B-VP'
p4
S'O'
p5
tp6
a(S'attitude'
p7
S'attitude'
p8
S'NN'
p9
S'B-NP'
p10
g5
tp11
a(S'certainty'
p12
S'certainty'
p13
S'NN'
p14
S'I-NP'
p15
g5
tp16
a(S':'
p17
g17
g17
g5
g5
tp18
a(S'attitude'
p19
S'attitude'
p20
S'NN'
p21
S'B-NP'
p22
g5
tp23
a(S'clarity'
p24
S'clarity'
p25
S'NN'
p26
S'I-NP'
p27
g5
tp28
a(S'and'
p29
S'and'
p30
S'CC'
p31
g5
g5
tp32
a(S'attitude'
p33
S'attitude'
p34
S'NN'
p35
S'B-NP'
p36
g5
tp37
a(S'correctness'
p38
S'correctness'
p39
S'NN'
p40
S'I-NP'
p41
g5
tp42
a(S'.'
p43
g43
g43
g5
g5
tp44
a(S'Attitude'
p45
S'Attitude'
p46
S'NN'
p47
S'B-NP'
p48
g5
tp49
a(S'certainty'
p50
S'certainty'
p51
S'NN'
p52
S'I-NP'
p53
g5
tp54
a(S'has'
p55
S'have'
p56
S'VBZ'
p57
S'B-VP'
p58
g5
tp59
a(S'been'
p60
S'be'
p61
S'VBN'
p62
S'I-VP'
p63
g5
tp64
a(S'the'
p65
S'the'
p66
S'DT'
p67
S'B-NP'
p68
g5
tp69
a(S'subject'
p70
S'subject'
p71
S'NN'
p72
S'I-NP'
p73
g5
tp74
a(S'of'
p75
S'of'
p76
S'IN'
p77
S'B-PP'
p78
g5
tp79
a(S'considerable'
p80
S'considerable'
p81
S'JJ'
p82
S'B-NP'
p83
g5
tp84
a(S'attention'
p85
S'attention'
p86
S'NN'
p87
S'I-NP'
p88
g5
tp89
a(S'in'
p90
S'in'
p91
S'IN'
p92
S'B-PP'
p93
g5
tp94
a(S'the'
p95
S'the'
p96
S'DT'
p97
S'B-NP'
p98
g5
tp99
a(S'attitudes'
p100
S'attitude'
p101
S'NNS'
p102
S'I-NP'
p103
g5
tp104
a(S'and'
p105
S'and'
p106
S'CC'
p107
S'I-NP'
p108
g5
tp109
a(S'persuasion'
p110
S'persuasion'
p111
S'NN'
p112
S'I-NP'
p113
g5
tp114
a(S'literature.'
p115
S'literature.'
p116
S'NN'
p117
S'I-NP'
p118
g5
tp119
a(S'The'
p120
S'The'
p121
S'DT'
p122
S'B-NP'
p123
g5
tp124
a(S'present'
p125
S'present'
p126
S'JJ'
p127
S'I-NP'
p128
g5
tp129
a(S'research'
p130
S'research'
p131
S'NN'
p132
S'I-NP'
p133
g5
tp134
a(S'identifies'
p135
S'identify'
p136
S'VBZ'
p137
S'B-VP'
p138
g5
tp139
a(S'2'
p140
g140
S'CD'
p141
S'B-NP'
p142
g5
tp143
a(S'aspects'
p144
S'aspect'
p145
S'NNS'
p146
S'I-NP'
p147
g5
tp148
a(S'of'
p149
S'of'
p150
S'IN'
p151
S'B-PP'
p152
g5
tp153
a(S'attitude'
p154
S'attitude'
p155
S'NN'
p156
S'B-NP'
p157
g5
tp158
a(S'certainty'
p159
S'certainty'
p160
S'NN'
p161
S'I-NP'
p162
g5
tp163
a(S'and'
p164
S'and'
p165
S'CC'
p166
g5
g5
tp167
a(S'provides'
p168
S'provide'
p169
S'VBZ'
p170
S'B-VP'
p171
g5
tp172
a(S'evidence'
p173
S'evidence'
p174
S'NN'
p175
S'B-NP'
p176
g5
tp177
a(S'for'
p178
S'for'
p179
S'IN'
p180
S'B-PP'
p181
g5
tp182
a(S'the'
p183
S'the'
p184
S'DT'
p185
S'B-NP'
p186
g5
tp187
a(S'distinctness'
p188
S'distinctness'
p189
S'NN'
p190
S'I-NP'
p191
g5
tp192
a(S'of'
p193
S'of'
p194
S'IN'
p195
S'B-PP'
p196
g5
tp197
a(S'the'
p198
S'the'
p199
S'DT'
p200
S'B-NP'
p201
g5
tp202
a(S'constructs.'
p203
S'constructs.'
p204
S'NN'
p205
S'I-NP'
p206
g5
tp207
a(S'Specifically'
p208
S'Specifically'
p209
S'RB'
p210
S'B-ADVP'
p211
g5
tp212
a(S','
p213
g213
g213
g5
g5
tp214
a(S'it'
p215
S'it'
p216
S'PRP'
p217
S'B-NP'
p218
g5
tp219
a(S'is'
p220
S'be'
p221
S'VBZ'
p222
S'B-VP'
p223
g5
tp224
a(S'proposed'
p225
S'propose'
p226
S'VBN'
p227
S'I-VP'
p228
g5
tp229
a(S'that'
p230
S'that'
p231
S'IN'
p232
S'B-SBAR'
p233
g5
tp234
a(S'attitude'
p235
S'attitude'
p236
S'NN'
p237
S'B-NP'
p238
g5
tp239
a(S'certainty'
p240
S'certainty'
p241
S'NN'
p242
S'I-NP'
p243
g5
tp244
a(S'can'
p245
S'can'
p246
S'MD'
p247
S'B-VP'
p248
g5
tp249
a(S'be'
p250
S'be'
p251
S'VB'
p252
S'I-VP'
p253
g5
tp254
a(S'conceptualized'
p255
S'conceptualize'
p256
S'VBN'
p257
S'I-VP'
p258
g5
tp259
a(g213
g213
g213
g5
g5
tp260
a(S'and'
p261
S'and'
p262
S'CC'
p263
g5
g5
tp264
a(S'empirically'
p265
S'empirically'
p266
S'RB'
p267
S'B-VP'
p268
g5
tp269
a(S'separated'
p270
S'separate'
p271
S'VBN'
p272
S'I-VP'
p273
g5
tp274
a(g213
g213
g213
g5
g5
tp275
a(S'in'
p276
S'in'
p277
S'IN'
p278
S'B-PP'
p279
g5
tp280
a(S'terms'
p281
S'term'
p282
S'NNS'
p283
S'B-NP'
p284
g5
tp285
a(S'of'
p286
S'of'
p287
S'IN'
p288
S'B-PP'
p289
g5
tp290
a(S'attitude'
p291
S'attitude'
p292
S'NN'
p293
S'B-NP'
p294
g5
tp295
a(S'clarity'
p296
S'clarity'
p297
S'NN'
p298
S'I-NP'
p299
g5
tp300
a(S'('
p301
g301
g301
g5
g5
tp302
a(S'the'
p303
S'the'
p304
S'DT'
p305
S'B-NP'
p306
g5
tp307
a(S'subjective'
p308
S'subjective'
p309
S'JJ'
p310
S'I-NP'
p311
g5
tp312
a(S'sense'
p313
S'sense'
p314
S'NN'
p315
S'I-NP'
p316
g5
tp317
a(S'that'
p318
S'that'
p319
S'IN'
p320
S'B-SBAR'
p321
g5
tp322
a(S'one'
p323
S'one'
p324
S'CD'
p325
S'B-NP'
p326
g5
tp327
a(S'knows'
p328
S'know'
p329
S'VBZ'
p330
S'B-VP'
p331
g5
tp332
a(S'what'
p333
S'what'
p334
S'WP'
p335
S'B-NP'
p336
g5
tp337
a(S'one'
p338
S'one'
p339
S'NN'
p340
S'I-NP'
p341
g5
tp342
a(S"'s"
p343
S"'s"
p344
S'POS'
p345
S'B-NP'
p346
g5
tp347
a(S'attitude'
p348
S'attitude'
p349
S'NN'
p350
S'I-NP'
p351
g5
tp352
a(S'is'
p353
S'be'
p354
S'VBZ'
p355
S'B-VP'
p356
g5
tp357
a(S')'
p358
g358
g358
g5
g5
tp359
a(S'and'
p360
S'and'
p361
S'CC'
p362
g5
g5
tp363
a(S'attitude'
p364
S'attitude'
p365
S'NN'
p366
S'B-NP'
p367
g5
tp368
a(S'correctness'
p369
S'correctness'
p370
S'NN'
p371
S'I-NP'
p372
g5
tp373
a(g301
g301
g301
g5
g5
tp374
a(S'the'
p375
S'the'
p376
S'DT'
p377
S'B-NP'
p378
g5
tp379
a(S'subjective'
p380
S'subjective'
p381
S'JJ'
p382
S'I-NP'
p383
g5
tp384
a(S'sense'
p385
S'sense'
p386
S'NN'
p387
S'I-NP'
p388
g5
tp389
a(S'that'
p390
S'that'
p391
S'IN'
p392
S'B-SBAR'
p393
g5
tp394
a(S'one'
p395
S'one'
p396
S'NN'
p397
S'B-NP'
p398
g5
tp399
a(S"'s"
p400
S"'s"
p401
S'POS'
p402
S'B-NP'
p403
g5
tp404
a(S'attitude'
p405
S'attitude'
p406
S'NN'
p407
S'I-NP'
p408
g5
tp409
a(S'is'
p410
S'be'
p411
S'VBZ'
p412
S'B-VP'
p413
g5
tp414
a(S'correct'
p415
S'correct'
p416
S'JJ'
p417
S'B-ADJP'
p418
g5
tp419
a(S'or'
p420
S'or'
p421
S'CC'
p422
S'I-ADJP'
p423
g5
tp424
a(S'valid'
p425
S'valid'
p426
S'JJ'
p427
S'I-ADJP'
p428
g5
tp429
a(g358
g358
g358
g5
g5
tp430
a(g43
g43
g43
g5
g5
tp431
a(S'Experiment'
p432
S'Experiment'
p433
S'NN'
p434
S'B-NP'
p435
S'B-protein'
p436
tp437
a(S'1'
p438
g438
S'CD'
p439
S'I-NP'
p440
S'I-protein'
p441
tp442
a(S'uses'
p443
S'use'
p444
S'VBZ'
p445
S'B-VP'
p446
g5
tp447
a(S'factor'
p448
S'factor'
p449
S'NN'
p450
S'B-NP'
p451
g5
tp452
a(S'analysis'
p453
S'analysis'
p454
S'NN'
p455
S'I-NP'
p456
g5
tp457
a(S'and'
p458
S'and'
p459
S'CC'
p460
g5
g5
tp461
a(S'correlational'
p462
S'correlational'
p463
S'JJ'
p464
S'B-NP'
p465
g5
tp466
a(S'data'
p467
S'datum'
p468
S'NNS'
p469
S'I-NP'
p470
g5
tp471
a(S'to'
p472
S'to'
p473
S'TO'
p474
S'B-VP'
p475
g5
tp476
a(S'provide'
p477
S'provide'
p478
S'VB'
p479
S'I-VP'
p480
g5
tp481
a(S'evidence'
p482
S'evidence'
p483
S'NN'
p484
S'B-NP'
p485
g5
tp486
a(S'for'
p487
S'for'
p488
S'IN'
p489
S'B-PP'
p490
g5
tp491
a(S'viewing'
p492
S'view'
p493
S'VBG'
p494
S'B-VP'
p495
g5
tp496
a(S'attitude'
p497
S'attitude'
p498
S'NN'
p499
S'B-NP'
p500
g5
tp501
a(S'clarity'
p502
S'clarity'
p503
S'NN'
p504
S'I-NP'
p505
g5
tp506
a(S'and'
p507
S'and'
p508
S'CC'
p509
g5
g5
tp510
a(S'attitude'
p511
S'attitude'
p512
S'NN'
p513
S'B-NP'
p514
g5
tp515
a(S'correctness'
p516
S'correctness'
p517
S'NN'
p518
S'I-NP'
p519
g5
tp520
a(S'as'
p521
S'as'
p522
S'IN'
p523
S'B-PP'
p524
g5
tp525
a(S'separate'
p526
S'separate'
p527
S'JJ'
p528
S'B-NP'
p529
g5
tp530
a(S'constructs.'
p531
S'constructs.'
p532
S'NN'
p533
S'I-NP'
p534
g5
tp535
a(S'Experiments'
p536
S'Experiment'
p537
S'NNS'
p538
S'I-NP'
p539
g5
tp540
a(g140
g140
S'CD'
p541
S'I-NP'
p542
g5
tp543
a(S'and'
p544
S'and'
p545
S'CC'
p546
S'I-NP'
p547
g5
tp548
a(S'3'
p549
g549
S'CD'
p550
S'I-NP'
p551
g5
tp552
a(S'demonstrate'
p553
S'demonstrate'
p554
S'VBP'
p555
S'B-VP'
p556
g5
tp557
a(S'that'
p558
S'that'
p559
S'IN'
p560
S'B-SBAR'
p561
g5
tp562
a(S'attitude'
p563
S'attitude'
p564
S'NN'
p565
S'B-NP'
p566
g5
tp567
a(S'clarity'
p568
S'clarity'
p569
S'NN'
p570
S'I-NP'
p571
g5
tp572
a(S'and'
p573
S'and'
p574
S'CC'
p575
g5
g5
tp576
a(S'attitude'
p577
S'attitude'
p578
S'NN'
p579
S'B-NP'
p580
g5
tp581
a(S'correctness'
p582
S'correctness'
p583
S'NN'
p584
S'I-NP'
p585
g5
tp586
a(S'can'
p587
S'can'
p588
S'MD'
p589
S'B-VP'
p590
g5
tp591
a(S'have'
p592
S'have'
p593
S'VB'
p594
S'I-VP'
p595
g5
tp596
a(S'distinct'
p597
S'distinct'
p598
S'JJ'
p599
S'B-NP'
p600
g5
tp601
a(S'antecedents'
p602
S'antecedent'
p603
S'NNS'
p604
S'I-NP'
p605
g5
tp606
a(g301
g301
g301
g5
g5
tp607
a(S'repeated'
p608
S'repeat'
p609
S'VBN'
p610
S'B-VP'
p611
g5
tp612
a(S'expression'
p613
S'expression'
p614
S'NN'
p615
S'B-NP'
p616
g5
tp617
a(S'and'
p618
S'and'
p619
S'CC'
p620
g5
g5
tp621
a(S'consensus'
p622
S'consensus'
p623
S'NN'
p624
S'B-NP'
p625
g5
tp626
a(S'feedback'
p627
S'feedback'
p628
S'NN'
p629
S'I-NP'
p630
g5
tp631
a(g213
g213
g213
g5
g5
tp632
a(S'respectively'
p633
S'respectively'
p634
S'RB'
p635
S'B-ADVP'
p636
g5
tp637
a(g358
g358
g358
g5
g5
tp638
a(g43
g43
g43
g5
g5
tp639
a(S'Experiment'
p640
S'Experiment'
p641
S'NN'
p642
S'B-NP'
p643
S'B-protein'
p644
tp645
a(S'4'
p646
g646
S'CD'
p647
S'I-NP'
p648
S'I-protein'
p649
tp650
a(S'reveals'
p651
S'reveal'
p652
S'VBZ'
p653
S'B-VP'
p654
g5
tp655
a(S'that'
p656
S'that'
p657
S'IN'
p658
S'B-SBAR'
p659
g5
tp660
a(S'these'
p661
S'these'
p662
S'DT'
p663
S'B-NP'
p664
g5
tp665
a(S'constructs'
p666
S'construct'
p667
S'NNS'
p668
S'I-NP'
p669
g5
tp670
a(S'each'
p671
S'each'
p672
S'DT'
p673
S'B-ADVP'
p674
g5
tp675
a(S'play'
p676
S'play'
p677
S'VBP'
p678
S'B-VP'
p679
g5
tp680
a(S'an'
p681
S'an'
p682
S'DT'
p683
S'B-NP'
p684
g5
tp685
a(S'independent'
p686
S'independent'
p687
S'JJ'
p688
S'I-NP'
p689
g5
tp690
a(S'role'
p691
S'role'
p692
S'NN'
p693
S'I-NP'
p694
g5
tp695
a(S'in'
p696
S'in'
p697
S'IN'
p698
S'B-PP'
p699
g5
tp700
a(S'persuasion'
p701
S'persuasion'
p702
S'NN'
p703
S'B-NP'
p704
g5
tp705
a(S'and'
p706
S'and'
p707
S'CC'
p708
S'I-NP'
p709
g5
tp710
a(S'resistance'
p711
S'resistance'
p712
S'NN'
p713
S'I-NP'
p714
g5
tp715
a(S'situations.'
p716
S'situations.'
p717
S'NN'
p718
S'I-NP'
p719
g5
tp720
a(S'As'
p721
S'As'
p722
S'IN'
p723
S'B-PP'
p724
g5
tp725
a(S'clarity'
p726
S'clarity'
p727
S'NN'
p728
S'B-NP'
p729
g5
tp730
a(S'and'
p731
S'and'
p732
S'CC'
p733
S'I-NP'
p734
g5
tp735
a(S'correctness'
p736
S'correctness'
p737
S'NN'
p738
S'I-NP'
p739
g5
tp740
a(S'increase'
p741
S'increase'
p742
S'NN'
p743
S'I-NP'
p744
g5
tp745
a(g213
g213
g213
g5
g5
tp746
a(S'attitudes'
p747
S'attitude'
p748
S'VBZ'
p749
S'B-VP'
p750
g5
tp751
a(S'become'
p752
S'become'
p753
S'VB'
p754
S'I-VP'
p755
g5
tp756
a(S'more'
p757
S'more'
p758
S'RBR'
p759
S'B-ADJP'
p760
g5
tp761
a(S'resistant'
p762
S'resistant'
p763
S'JJ'
p764
S'I-ADJP'
p765
g5
tp766
a(S'to'
p767
S'to'
p768
S'TO'
p769
S'B-PP'
p770
g5
tp771
a(S'counterattitudinal'
p772
S'counterattitudinal'
p773
S'JJ'
p774
S'B-NP'
p775
g5
tp776
a(S'persuasive'
p777
S'persuasive'
p778
S'JJ'
p779
S'I-NP'
p780
g5
tp781
a(S'messages.'
p782
S'messages.'
p783
S'NN'
p784
S'I-NP'
p785
g5
tp786
a(S'These'
p787
S'These'
p788
S'DT'
p789
S'B-NP'
p790
g5
tp791
a(S'findings'
p792
S'finding'
p793
S'NNS'
p794
S'I-NP'
p795
g5
tp796
a(S'are'
p797
S'be'
p798
S'VBP'
p799
S'B-VP'
p800
g5
tp801
a(S'discussed'
p802
S'discuss'
p803
S'VBN'
p804
S'I-VP'
p805
g5
tp806
a(S'in'
p807
S'in'
p808
S'IN'
p809
S'B-PP'
p810
g5
tp811
a(S'relation'
p812
S'relation'
p813
S'NN'
p814
S'B-NP'
p815
g5
tp816
a(S'to'
p817
S'to'
p818
S'TO'
p819
S'B-PP'
p820
g5
tp821
a(S'the'
p822
S'the'
p823
S'DT'
p824
S'B-NP'
p825
g5
tp826
a(S'existing'
p827
S'exist'
p828
S'VBG'
p829
S'I-NP'
p830
g5
tp831
a(S'attitude'
p832
S'attitude'
p833
S'NN'
p834
S'I-NP'
p835
g5
tp836
a(S'strength'
p837
S'strength'
p838
S'NN'
p839
S'I-NP'
p840
g5
tp841
a(S'literature'
p842
S'literature'
p843
S'NN'
p844
S'I-NP'
p845
g5
tp846
a(g43
g43
g43
g5
g5
tp847
a.