(lp0
(S'A'
p1
g1
S'DT'
p2
S'B-NP'
p3
S'O'
p4
tp5
a(S'double'
p6
S'double'
p7
S'JJ'
p8
S'I-NP'
p9
g4
tp10
a(S'blind'
p11
S'blind'
p12
S'JJ'
p13
S'I-NP'
p14
g4
tp15
a(S'trial'
p16
S'trial'
p17
S'NN'
p18
S'I-NP'
p19
g4
tp20
a(S'of'
p21
S'of'
p22
S'IN'
p23
S'B-PP'
p24
g4
tp25
a(S'terfenadine'
p26
S'terfenadine'
p27
S'NN'
p28
S'B-NP'
p29
g4
tp30
a(S'and'
p31
S'and'
p32
S'CC'
p33
S'I-NP'
p34
g4
tp35
a(S'placebo'
p36
S'placebo'
p37
S'NN'
p38
S'I-NP'
p39
g4
tp40
a(S'in'
p41
S'in'
p42
S'IN'
p43
S'B-PP'
p44
g4
tp45
a(S'hay'
p46
S'hay'
p47
S'NN'
p48
S'B-NP'
p49
g4
tp50
a(S'fever'
p51
S'fever'
p52
S'NN'
p53
S'I-NP'
p54
g4
tp55
a(S'using'
p56
S'use'
p57
S'VBG'
p58
S'B-VP'
p59
g4
tp60
a(S'a'
p61
g61
S'DT'
p62
S'B-NP'
p63
g4
tp64
a(S'substitution'
p65
S'substitution'
p66
S'NN'
p67
S'I-NP'
p68
g4
tp69
a(S'technique'
p70
S'technique'
p71
S'NN'
p72
S'I-NP'
p73
g4
tp74
a(S'for'
p75
S'for'
p76
S'IN'
p77
S'B-PP'
p78
g4
tp79
a(S'non-responders'
p80
S'non-responder'
p81
S'NNS'
p82
S'B-NP'
p83
g4
tp84
a(S'.'
p85
g85
g85
g4
g4
tp86
a(g1
g1
S'DT'
p87
S'B-NP'
p88
g4
tp89
a(S'double-blind'
p90
S'double-blind'
p91
S'JJ'
p92
S'I-NP'
p93
g4
tp94
a(S'study'
p95
S'study'
p96
S'NN'
p97
S'I-NP'
p98
g4
tp99
a(S'of'
p100
S'of'
p101
S'IN'
p102
S'B-PP'
p103
g4
tp104
a(S'terfenadine'
p105
S'terfenadine'
p106
S'NN'
p107
S'B-NP'
p108
g4
tp109
a(S'and'
p110
S'and'
p111
S'CC'
p112
S'I-NP'
p113
g4
tp114
a(S'placebo'
p115
S'placebo'
p116
S'NN'
p117
S'I-NP'
p118
g4
tp119
a(S'in'
p120
S'in'
p121
S'IN'
p122
S'B-PP'
p123
g4
tp124
a(S'110'
p125
S'110'
p126
S'CD'
p127
S'B-NP'
p128
g4
tp129
a(S'patients'
p130
S'patient'
p131
S'NNS'
p132
S'I-NP'
p133
g4
tp134
a(S'suffering'
p135
S'suffer'
p136
S'VBG'
p137
S'B-VP'
p138
g4
tp139
a(S'from'
p140
S'from'
p141
S'IN'
p142
S'B-PP'
p143
g4
tp144
a(S'hay'
p145
S'hay'
p146
S'NN'
p147
S'B-NP'
p148
g4
tp149
a(S'fever'
p150
S'fever'
p151
S'NN'
p152
S'I-NP'
p153
g4
tp154
a(S'('
p155
g155
g155
g4
g4
tp156
a(S'confirmed'
p157
S'confirm'
p158
S'VBN'
p159
S'B-VP'
p160
g4
tp161
a(S'by'
p162
S'by'
p163
S'IN'
p164
S'B-PP'
p165
g4
tp166
a(S'skin'
p167
S'skin'
p168
S'NN'
p169
S'B-NP'
p170
g4
tp171
a(S'tests'
p172
S'test'
p173
S'NNS'
p174
S'I-NP'
p175
g4
tp176
a(S')'
p177
g177
g177
g4
g4
tp178
a(S'was'
p179
S'be'
p180
S'VBD'
p181
S'B-VP'
p182
g4
tp183
a(S'conducted.'
p184
S'conducted.'
p185
S'VBN'
p186
S'I-VP'
p187
g4
tp188
a(g1
g1
S'DT'
p189
S'B-NP'
p190
g4
tp191
a(S'novel'
p192
S'novel'
p193
S'JJ'
p194
S'I-NP'
p195
g4
tp196
a(S'technique'
p197
S'technique'
p198
S'NN'
p199
S'I-NP'
p200
g4
tp201
a(S'was'
p202
S'be'
p203
S'VBD'
p204
S'B-VP'
p205
g4
tp206
a(S'applied'
p207
S'apply'
p208
S'VBN'
p209
S'I-VP'
p210
g4
tp211
a(S'using'
p212
S'use'
p213
S'VBG'
p214
S'I-VP'
p215
g4
tp216
a(S'an'
p217
S'an'
p218
S'DT'
p219
S'B-NP'
p220
g4
tp221
a(S'escape'
p222
S'escape'
p223
S'NN'
p224
S'I-NP'
p225
g4
tp226
a(S'envelope'
p227
S'envelope'
p228
S'NN'
p229
S'I-NP'
p230
g4
tp231
a(S'containing'
p232
S'contain'
p233
S'VBG'
p234
S'B-VP'
p235
g4
tp236
a(g61
g61
S'DT'
p237
S'B-NP'
p238
g4
tp239
a(S'reference'
p240
S'reference'
p241
S'NN'
p242
S'I-NP'
p243
g4
tp244
a(S'drug'
p245
S'drug'
p246
S'NN'
p247
S'I-NP'
p248
g4
tp249
a(S'which'
p250
S'which'
p251
S'WDT'
p252
S'B-NP'
p253
g4
tp254
a(S'could'
p255
S'could'
p256
S'MD'
p257
S'B-VP'
p258
g4
tp259
a(S'be'
p260
S'be'
p261
S'VB'
p262
S'I-VP'
p263
g4
tp264
a(S'taken'
p265
S'take'
p266
S'VBN'
p267
S'I-VP'
p268
g4
tp269
a(S'under'
p270
S'under'
p271
S'IN'
p272
S'B-PP'
p273
g4
tp274
a(S'controlled'
p275
S'controlled'
p276
S'JJ'
p277
S'B-NP'
p278
g4
tp279
a(S'conditions'
p280
S'condition'
p281
S'NNS'
p282
S'I-NP'
p283
g4
tp284
a(S'if'
p285
S'if'
p286
S'IN'
p287
S'B-SBAR'
p288
g4
tp289
a(S','
p290
g290
g290
g4
g4
tp291
a(S'after'
p292
S'after'
p293
S'IN'
p294
S'B-PP'
p295
g4
tp296
a(S'48'
p297
S'48'
p298
S'CD'
p299
S'B-NP'
p300
g4
tp301
a(S'hours'
p302
S'hour'
p303
S'NNS'
p304
S'I-NP'
p305
g4
tp306
a(g290
g290
g290
g4
g4
tp307
a(S'the'
p308
S'the'
p309
S'DT'
p310
S'B-NP'
p311
g4
tp312
a(S'patient'
p313
S'patient'
p314
S'NN'
p315
S'I-NP'
p316
g4
tp317
a(S'experienced'
p318
S'experience'
p319
S'VBD'
p320
S'B-VP'
p321
g4
tp322
a(S'no'
p323
S'no'
p324
S'DT'
p325
S'B-NP'
p326
g4
tp327
a(S'relief.'
p328
S'relief.'
p329
S'NN'
p330
S'I-NP'
p331
g4
tp332
a(S'Significantly'
p333
S'Significantly'
p334
S'RB'
p335
S'B-NP'
p336
g4
tp337
a(S'more'
p338
S'more'
p339
S'JJR'
p340
S'I-NP'
p341
g4
tp342
a(S'patients'
p343
S'patient'
p344
S'NNS'
p345
S'I-NP'
p346
g4
tp347
a(S'on'
p348
S'on'
p349
S'IN'
p350
S'B-PP'
p351
g4
tp352
a(S'placebo'
p353
S'placebo'
p354
S'NN'
p355
S'B-NP'
p356
g4
tp357
a(S'opened'
p358
S'open'
p359
S'VBD'
p360
S'B-VP'
p361
g4
tp362
a(S'the'
p363
S'the'
p364
S'DT'
p365
S'B-NP'
p366
g4
tp367
a(S'envelope'
p368
S'envelope'
p369
S'NN'
p370
S'I-NP'
p371
g4
tp372
a(S'than'
p373
S'than'
p374
S'IN'
p375
S'B-PP'
p376
g4
tp377
a(S'patients'
p378
S'patient'
p379
S'NNS'
p380
S'B-NP'
p381
g4
tp382
a(S'taking'
p383
S'take'
p384
S'VBG'
p385
S'B-VP'
p386
g4
tp387
a(S'the'
p388
S'the'
p389
S'DT'
p390
S'B-NP'
p391
g4
tp392
a(S'active'
p393
S'active'
p394
S'JJ'
p395
S'I-NP'
p396
g4
tp397
a(S'drug.'
p398
S'drug.'
p399
S'NN'
p400
S'I-NP'
p401
g4
tp402
a(S'Terfenadine'
p403
S'Terfenadine'
p404
S'NN'
p405
S'I-NP'
p406
g4
tp407
a(S'was'
p408
S'be'
p409
S'VBD'
p410
S'B-VP'
p411
g4
tp412
a(S'demonstrated'
p413
S'demonstrate'
p414
S'VBN'
p415
S'I-VP'
p416
g4
tp417
a(S'to'
p418
S'to'
p419
S'TO'
p420
S'I-VP'
p421
g4
tp422
a(S'be'
p423
S'be'
p424
S'VB'
p425
S'I-VP'
p426
g4
tp427
a(S'an'
p428
S'an'
p429
S'DT'
p430
S'B-NP'
p431
g4
tp432
a(S'effective'
p433
S'effective'
p434
S'JJ'
p435
S'I-NP'
p436
g4
tp437
a(S'drug'
p438
S'drug'
p439
S'NN'
p440
S'I-NP'
p441
g4
tp442
a(S'in'
p443
S'in'
p444
S'IN'
p445
S'B-PP'
p446
g4
tp447
a(S'hay'
p448
S'hay'
p449
S'NN'
p450
S'B-NP'
p451
g4
tp452
a(S'fever'
p453
S'fever'
p454
S'NN'
p455
S'I-NP'
p456
g4
tp457
a(S'and'
p458
S'and'
p459
S'CC'
p460
g4
g4
tp461
a(S'produced'
p462
S'produce'
p463
S'VBD'
p464
S'B-VP'
p465
g4
tp466
a(S'no'
p467
S'no'
p468
S'DT'
p469
S'B-NP'
p470
g4
tp471
a(S'more'
p472
S'more'
p473
S'JJR'
p474
S'I-NP'
p475
g4
tp476
a(S'drowsiness'
p477
S'drowsiness'
p478
S'NN'
p479
S'I-NP'
p480
g4
tp481
a(S'than'
p482
S'than'
p483
S'IN'
p484
S'B-PP'
p485
g4
tp486
a(S'placebo'
p487
S'placebo'
p488
S'NN'
p489
S'B-NP'
p490
g4
tp491
a(g85
g85
g85
g4
g4
tp492
a.