(lp0
(S'Effect'
p1
S'Effect'
p2
S'NN'
p3
S'B-NP'
p4
S'O'
p5
tp6
a(S'of'
p7
S'of'
p8
S'IN'
p9
S'B-PP'
p10
g5
tp11
a(S'step'
p12
S'step'
p13
S'NN'
p14
S'B-NP'
p15
g5
tp16
a(S'aerobics'
p17
S'aerobics'
p18
S'NN'
p19
S'I-NP'
p20
g5
tp21
a(S'training'
p22
S'training'
p23
S'NN'
p24
S'I-NP'
p25
g5
tp26
a(S'on'
p27
S'on'
p28
S'IN'
p29
S'B-PP'
p30
g5
tp31
a(S'anaerobic'
p32
S'anaerobic'
p33
S'JJ'
p34
S'B-NP'
p35
g5
tp36
a(S'performance'
p37
S'performance'
p38
S'NN'
p39
S'I-NP'
p40
g5
tp41
a(S'of'
p42
S'of'
p43
S'IN'
p44
S'B-PP'
p45
g5
tp46
a(S'men'
p47
S'man'
p48
S'NNS'
p49
S'B-NP'
p50
g5
tp51
a(S'and'
p52
S'and'
p53
S'CC'
p54
S'I-NP'
p55
g5
tp56
a(S'women'
p57
S'woman'
p58
S'NNS'
p59
S'I-NP'
p60
g5
tp61
a(S'.'
p62
g62
g62
g5
g5
tp63
a(S'The'
p64
S'The'
p65
S'DT'
p66
S'B-NP'
p67
g5
tp68
a(S'purpose'
p69
S'purpose'
p70
S'NN'
p71
S'I-NP'
p72
g5
tp73
a(S'of'
p74
S'of'
p75
S'IN'
p76
S'B-PP'
p77
g5
tp78
a(S'this'
p79
S'this'
p80
S'DT'
p81
S'B-NP'
p82
g5
tp83
a(S'study'
p84
S'study'
p85
S'NN'
p86
S'I-NP'
p87
g5
tp88
a(S'was'
p89
S'be'
p90
S'VBD'
p91
S'B-VP'
p92
g5
tp93
a(S'to'
p94
S'to'
p95
S'TO'
p96
S'B-VP'
p97
g5
tp98
a(S'investigate'
p99
S'investigate'
p100
S'VB'
p101
S'I-VP'
p102
g5
tp103
a(S'the'
p104
S'the'
p105
S'DT'
p106
S'B-NP'
p107
g5
tp108
a(S'effects'
p109
S'effect'
p110
S'NNS'
p111
S'I-NP'
p112
g5
tp113
a(S'of'
p114
S'of'
p115
S'IN'
p116
S'B-PP'
p117
g5
tp118
a(S'10'
p119
S'10'
p120
S'CD'
p121
S'B-NP'
p122
g5
tp123
a(S'weeks'
p124
S'week'
p125
S'NNS'
p126
S'I-NP'
p127
g5
tp128
a(S'of'
p129
S'of'
p130
S'IN'
p131
S'B-PP'
p132
g5
tp133
a(S'step'
p134
S'step'
p135
S'NN'
p136
S'B-NP'
p137
g5
tp138
a(S'aerobics'
p139
S'aerobics'
p140
S'NN'
p141
S'I-NP'
p142
g5
tp143
a(S'training'
p144
S'training'
p145
S'NN'
p146
S'I-NP'
p147
g5
tp148
a(S'on'
p149
S'on'
p150
S'IN'
p151
S'B-PP'
p152
g5
tp153
a(S'anaerobic'
p154
S'anaerobic'
p155
S'JJ'
p156
S'B-NP'
p157
g5
tp158
a(S'performance'
p159
S'performance'
p160
S'NN'
p161
S'I-NP'
p162
g5
tp163
a(S'of'
p164
S'of'
p165
S'IN'
p166
S'B-PP'
p167
g5
tp168
a(S'men'
p169
S'man'
p170
S'NNS'
p171
S'B-NP'
p172
g5
tp173
a(S'and'
p174
S'and'
p175
S'CC'
p176
g5
g5
tp177
a(S'women.'
p178
S'women.'
p179
S'VB'
p180
S'B-VP'
p181
g5
tp182
a(S'College-age'
p183
S'College-age'
p184
S'JJ'
p185
S'B-NP'
p186
g5
tp187
a(S'volunteers'
p188
S'volunteer'
p189
S'NNS'
p190
S'I-NP'
p191
g5
tp192
a(S'('
p193
g193
g193
g5
g5
tp194
a(S'64'
p195
S'64'
p196
S'CD'
p197
S'B-NP'
p198
g5
tp199
a(S'women'
p200
S'woman'
p201
S'NNS'
p202
S'I-NP'
p203
g5
tp204
a(S'and'
p205
S'and'
p206
S'CC'
p207
g5
g5
tp208
a(S'54'
p209
S'54'
p210
S'CD'
p211
S'B-NP'
p212
g5
tp213
a(S'men'
p214
S'man'
p215
S'NNS'
p216
S'I-NP'
p217
g5
tp218
a(S')'
p219
g219
g219
g5
g5
tp220
a(S'were'
p221
S'be'
p222
S'VBD'
p223
S'B-VP'
p224
g5
tp225
a(S'divided'
p226
S'divide'
p227
S'VBN'
p228
S'I-VP'
p229
g5
tp230
a(S'into'
p231
S'into'
p232
S'IN'
p233
S'B-PP'
p234
g5
tp235
a(S'step'
p236
S'step'
p237
S'NN'
p238
S'B-NP'
p239
g5
tp240
a(S'aerobics'
p241
S'aerobics'
p242
S'NN'
p243
S'I-NP'
p244
g5
tp245
a(g193
g193
g193
g5
g5
tp246
a(S'33'
p247
S'33'
p248
S'CD'
p249
S'B-NP'
p250
g5
tp251
a(S'women'
p252
S'woman'
p253
S'NNS'
p254
S'I-NP'
p255
g5
tp256
a(S','
p257
g257
g257
g5
g5
tp258
a(S'27'
p259
S'27'
p260
S'CD'
p261
S'B-NP'
p262
g5
tp263
a(S'men'
p264
S'man'
p265
S'NNS'
p266
S'I-NP'
p267
g5
tp268
a(g219
g219
g219
g5
g5
tp269
a(S'and'
p270
S'and'
p271
S'CC'
p272
g5
g5
tp273
a(S'control'
p274
S'control'
p275
S'NN'
p276
S'B-NP'
p277
g5
tp278
a(g193
g193
g193
g5
g5
tp279
a(S'31'
p280
S'31'
p281
S'CD'
p282
S'B-NP'
p283
g5
tp284
a(S'women'
p285
S'woman'
p286
S'NNS'
p287
S'I-NP'
p288
g5
tp289
a(g257
g257
g257
g5
g5
tp290
a(S'27'
p291
S'27'
p292
S'CD'
p293
S'B-NP'
p294
g5
tp295
a(S'men'
p296
S'man'
p297
S'NNS'
p298
S'I-NP'
p299
g5
tp300
a(g219
g219
g219
g5
g5
tp301
a(S'groups.'
p302
S'groups.'
p303
S'NNS'
p304
S'B-NP'
p305
g5
tp306
a(S'Before'
p307
S'Before'
p308
S'IN'
p309
S'B-PP'
p310
g5
tp311
a(S'and'
p312
S'and'
p313
S'CC'
p314
S'I-PP'
p315
g5
tp316
a(S'after'
p317
S'after'
p318
S'IN'
p319
S'I-PP'
p320
g5
tp321
a(S'the'
p322
S'the'
p323
S'DT'
p324
S'B-NP'
p325
g5
tp326
a(S'10-week'
p327
S'10-week'
p328
S'JJ'
p329
S'I-NP'
p330
g5
tp331
a(S'period'
p332
S'period'
p333
S'NN'
p334
S'I-NP'
p335
g5
tp336
a(g257
g257
g257
g5
g5
tp337
a(S'the'
p338
S'the'
p339
S'DT'
p340
S'B-NP'
p341
g5
tp342
a(S'subjects'
p343
S'subject'
p344
S'NNS'
p345
S'I-NP'
p346
g5
tp347
a(S"'"
p348
g348
S'POS'
p349
S'B-NP'
p350
g5
tp351
a(S'body'
p352
S'body'
p353
S'NN'
p354
S'I-NP'
p355
g5
tp356
a(S'composition'
p357
S'composition'
p358
S'NN'
p359
S'I-NP'
p360
g5
tp361
a(g257
g257
g257
g5
g5
tp362
a(S'muscular'
p363
S'muscular'
p364
S'JJ'
p365
S'B-NP'
p366
g5
tp367
a(S'strength'
p368
S'strength'
p369
S'NN'
p370
S'I-NP'
p371
g5
tp372
a(g257
g257
g257
g5
g5
tp373
a(S'Wingate'
p374
S'Wingate'
p375
S'NNP'
p376
S'B-NP'
p377
g5
tp378
a(S'anaerobic'
p379
S'anaerobic'
p380
S'JJ'
p381
S'I-NP'
p382
g5
tp383
a(S'performance'
p384
S'performance'
p385
S'NN'
p386
S'I-NP'
p387
g5
tp388
a(g257
g257
g257
g5
g5
tp389
a(S'and'
p390
S'and'
p391
S'CC'
p392
g5
g5
tp393
a(S'vertical'
p394
S'vertical'
p395
S'JJ'
p396
S'B-NP'
p397
g5
tp398
a(S'jump'
p399
S'jump'
p400
S'NN'
p401
S'I-NP'
p402
g5
tp403
a(S'anaerobic'
p404
S'anaerobic'
p405
S'JJ'
p406
S'I-NP'
p407
g5
tp408
a(S'performance'
p409
S'performance'
p410
S'NN'
p411
S'I-NP'
p412
g5
tp413
a(S'were'
p414
S'be'
p415
S'VBD'
p416
S'B-VP'
p417
g5
tp418
a(S'determined.'
p419
S'determined.'
p420
S'VBN'
p421
S'I-VP'
p422
g5
tp423
a(S'The'
p424
S'The'
p425
S'DT'
p426
S'B-NP'
p427
g5
tp428
a(S'step'
p429
S'step'
p430
S'NN'
p431
S'I-NP'
p432
g5
tp433
a(S'aerobics'
p434
S'aerobics'
p435
S'NN'
p436
S'I-NP'
p437
g5
tp438
a(S'group'
p439
S'group'
p440
S'NN'
p441
S'I-NP'
p442
g5
tp443
a(S'participated'
p444
S'participate'
p445
S'VBD'
p446
S'B-VP'
p447
g5
tp448
a(S'in'
p449
S'in'
p450
S'IN'
p451
S'B-PP'
p452
g5
tp453
a(S'step'
p454
S'step'
p455
S'NN'
p456
S'B-NP'
p457
g5
tp458
a(S'aerobics'
p459
S'aerobics'
p460
S'NN'
p461
S'I-NP'
p462
g5
tp463
a(S'sessions'
p464
S'session'
p465
S'NNS'
p466
S'I-NP'
p467
g5
tp468
a(S'of'
p469
S'of'
p470
S'IN'
p471
S'B-PP'
p472
g5
tp473
a(S'50'
p474
S'50'
p475
S'CD'
p476
S'B-NP'
p477
g5
tp478
a(S'minutes'
p479
S'minute'
p480
S'NNS'
p481
S'I-NP'
p482
g5
tp483
a(S'per'
p484
S'per'
p485
S'IN'
p486
S'B-PP'
p487
g5
tp488
a(S'day'
p489
S'day'
p490
S'NN'
p491
S'B-NP'
p492
g5
tp493
a(g257
g257
g257
g5
g5
tp494
a(S'3'
p495
g495
S'CD'
p496
S'B-NP'
p497
g5
tp498
a(S'days'
p499
S'day'
p500
S'NNS'
p501
S'I-NP'
p502
g5
tp503
a(S'per'
p504
S'per'
p505
S'IN'
p506
S'B-PP'
p507
g5
tp508
a(S'week'
p509
S'week'
p510
S'NN'
p511
S'B-NP'
p512
g5
tp513
a(S'for'
p514
S'for'
p515
S'IN'
p516
S'B-PP'
p517
g5
tp518
a(S'10'
p519
S'10'
p520
S'CD'
p521
S'B-NP'
p522
g5
tp523
a(S'weeks'
p524
S'week'
p525
S'NNS'
p526
S'I-NP'
p527
g5
tp528
a(g257
g257
g257
g5
g5
tp529
a(S'at'
p530
S'at'
p531
S'IN'
p532
S'B-PP'
p533
g5
tp534
a(S'60-80'
p535
S'60-80'
p536
S'CD'
p537
S'B-NP'
p538
g5
tp539
a(S'%'
p540
g540
S'NN'
p541
S'I-NP'
p542
g5
tp543
a(S'of'
p544
S'of'
p545
S'IN'
p546
S'B-PP'
p547
g5
tp548
a(S'their'
p549
S'their'
p550
S'PRP$'
p551
S'B-NP'
p552
g5
tp553
a(S'heart'
p554
S'heart'
p555
S'NN'
p556
S'I-NP'
p557
g5
tp558
a(S'rate'
p559
S'rate'
p560
S'NN'
p561
S'I-NP'
p562
g5
tp563
a(S'reserve.'
p564
S'reserve.'
p565
S'NN'
p566
S'I-NP'
p567
g5
tp568
a(S'Results'
p569
S'Result'
p570
S'NNS'
p571
S'I-NP'
p572
g5
tp573
a(S'of'
p574
S'of'
p575
S'IN'
p576
S'B-PP'
p577
g5
tp578
a(S'2'
p579
g579
S'CD'
p580
S'B-NP'
p581
g5
tp582
a(S'x'
p583
g583
S'SYM'
p584
S'I-NP'
p585
g5
tp586
a(g579
g579
S'CD'
p587
S'I-NP'
p588
g5
tp589
a(S'analysis'
p590
S'analysis'
p591
S'NN'
p592
S'I-NP'
p593
g5
tp594
a(S'of'
p595
S'of'
p596
S'IN'
p597
S'B-PP'
p598
g5
tp599
a(S'covariance'
p600
S'covariance'
p601
S'NN'
p602
S'B-NP'
p603
g5
tp604
a(S'with'
p605
S'with'
p606
S'IN'
p607
S'B-PP'
p608
g5
tp609
a(S'repeated'
p610
S'repeat'
p611
S'VBN'
p612
S'B-NP'
p613
g5
tp614
a(S'measures'
p615
S'measure'
p616
S'NNS'
p617
S'I-NP'
p618
g5
tp619
a(S'indicated'
p620
S'indicate'
p621
S'VBD'
p622
S'B-VP'
p623
g5
tp624
a(S'significant'
p625
S'significant'
p626
S'JJ'
p627
S'B-NP'
p628
g5
tp629
a(S'sex'
p630
S'sex'
p631
S'NN'
p632
S'I-NP'
p633
g5
tp634
a(S'differences'
p635
S'difference'
p636
S'NNS'
p637
S'I-NP'
p638
g5
tp639
a(S'in'
p640
S'in'
p641
S'IN'
p642
S'B-PP'
p643
g5
tp644
a(S'percentage'
p645
S'percentage'
p646
S'NN'
p647
S'B-NP'
p648
g5
tp649
a(S'body'
p650
S'body'
p651
S'NN'
p652
S'I-NP'
p653
g5
tp654
a(S'fat'
p655
S'fat'
p656
S'NN'
p657
S'I-NP'
p658
g5
tp659
a(g257
g257
g257
g5
g5
tp660
a(S'lean'
p661
S'lean'
p662
S'JJ'
p663
S'B-NP'
p664
g5
tp665
a(S'body'
p666
S'body'
p667
S'NN'
p668
S'I-NP'
p669
g5
tp670
a(S'mass'
p671
S'mass'
p672
S'NN'
p673
S'I-NP'
p674
g5
tp675
a(g257
g257
g257
g5
g5
tp676
a(S'muscular'
p677
S'muscular'
p678
S'JJ'
p679
S'B-NP'
p680
g5
tp681
a(S'strength'
p682
S'strength'
p683
S'NN'
p684
S'I-NP'
p685
g5
tp686
a(g257
g257
g257
g5
g5
tp687
a(S'and'
p688
S'and'
p689
S'CC'
p690
g5
g5
tp691
a(S'in'
p692
S'in'
p693
S'IN'
p694
S'B-PP'
p695
g5
tp696
a(S'all'
p697
S'all'
p698
S'DT'
p699
S'B-NP'
p700
g5
tp701
a(S'of'
p702
S'of'
p703
S'IN'
p704
S'B-PP'
p705
g5
tp706
a(S'the'
p707
S'the'
p708
S'DT'
p709
S'B-NP'
p710
g5
tp711
a(S'measured'
p712
S'measure'
p713
S'VBN'
p714
S'I-NP'
p715
g5
tp716
a(S'indices'
p717
S'index'
p718
S'NNS'
p719
S'I-NP'
p720
g5
tp721
a(S'of'
p722
S'of'
p723
S'IN'
p724
S'B-PP'
p725
g5
tp726
a(S'the'
p727
S'the'
p728
S'DT'
p729
S'B-NP'
p730
g5
tp731
a(S'Wingate'
p732
S'Wingate'
p733
S'NNP'
p734
S'I-NP'
p735
g5
tp736
a(S'Anaerobic'
p737
S'Anaerobic'
p738
S'NNP'
p739
S'I-NP'
p740
g5
tp741
a(S'Test.'
p742
S'Test.'
p743
S'NNP'
p744
S'I-NP'
p745
g5
tp746
a(S'The'
p747
S'The'
p748
S'DT'
p749
S'B-NP'
p750
g5
tp751
a(S'step'
p752
S'step'
p753
S'NN'
p754
S'I-NP'
p755
g5
tp756
a(S'aerobics'
p757
S'aerobics'
p758
S'NN'
p759
S'I-NP'
p760
g5
tp761
a(S'group'
p762
S'group'
p763
S'NN'
p764
S'I-NP'
p765
g5
tp766
a(S'showed'
p767
S'show'
p768
S'VBD'
p769
S'B-VP'
p770
g5
tp771
a(S'significant'
p772
S'significant'
p773
S'JJ'
p774
S'B-NP'
p775
g5
tp776
a(S'improvement'
p777
S'improvement'
p778
S'NN'
p779
S'I-NP'
p780
g5
tp781
a(S'only'
p782
S'only'
p783
S'RB'
p784
S'B-PP'
p785
g5
tp786
a(S'in'
p787
S'in'
p788
S'IN'
p789
S'I-PP'
p790
g5
tp791
a(S'mean'
p792
S'mean'
p793
S'JJ'
p794
S'B-NP'
p795
g5
tp796
a(S'power'
p797
S'power'
p798
S'NN'
p799
S'I-NP'
p800
g5
tp801
a(S'relative'
p802
S'relative'
p803
S'JJ'
p804
S'B-ADJP'
p805
g5
tp806
a(S'to'
p807
S'to'
p808
S'TO'
p809
S'B-PP'
p810
g5
tp811
a(S'body'
p812
S'body'
p813
S'NN'
p814
S'B-NP'
p815
g5
tp816
a(S'weight'
p817
S'weight'
p818
S'NN'
p819
S'I-NP'
p820
g5
tp821
a(S'compared'
p822
S'compare'
p823
S'VBN'
p824
S'B-PP'
p825
g5
tp826
a(S'with'
p827
S'with'
p828
S'IN'
p829
S'B-PP'
p830
g5
tp831
a(S'the'
p832
S'the'
p833
S'DT'
p834
S'B-NP'
p835
g5
tp836
a(S'control'
p837
S'control'
p838
S'NN'
p839
S'I-NP'
p840
g5
tp841
a(S'group'
p842
S'group'
p843
S'NN'
p844
S'I-NP'
p845
g5
tp846
a(S'and'
p847
S'and'
p848
S'CC'
p849
g5
g5
tp850
a(S'women'
p851
S'woman'
p852
S'NNS'
p853
S'B-NP'
p854
g5
tp855
a(S'showed'
p856
S'show'
p857
S'VBD'
p858
S'B-VP'
p859
g5
tp860
a(S'significant'
p861
S'significant'
p862
S'JJ'
p863
S'B-NP'
p864
g5
tp865
a(S'improvement'
p866
S'improvement'
p867
S'NN'
p868
S'I-NP'
p869
g5
tp870
a(S'only'
p871
S'only'
p872
S'RB'
p873
S'B-PP'
p874
g5
tp875
a(S'in'
p876
S'in'
p877
S'IN'
p878
S'I-PP'
p879
g5
tp880
a(S'anaerobic'
p881
S'anaerobic'
p882
S'JJ'
p883
S'B-NP'
p884
g5
tp885
a(S'power'
p886
S'power'
p887
S'NN'
p888
S'I-NP'
p889
g5
tp890
a(S'of'
p891
S'of'
p892
S'IN'
p893
S'B-PP'
p894
g5
tp895
a(S'vertical'
p896
S'vertical'
p897
S'JJ'
p898
S'B-NP'
p899
g5
tp900
a(S'jump'
p901
S'jump'
p902
S'NN'
p903
S'I-NP'
p904
g5
tp905
a(S'when'
p906
S'when'
p907
S'WRB'
p908
S'B-ADVP'
p909
g5
tp910
a(S'compared'
p911
S'compare'
p912
S'VBN'
p913
S'B-PP'
p914
g5
tp915
a(S'with'
p916
S'with'
p917
S'IN'
p918
S'B-PP'
p919
g5
tp920
a(S'men.'
p921
S'men.'
p922
S'NN'
p923
S'B-NP'
p924
g5
tp925
a(S'It'
p926
S'It'
p927
S'PRP'
p928
S'B-NP'
p929
g5
tp930
a(S'can'
p931
S'can'
p932
S'MD'
p933
S'B-VP'
p934
g5
tp935
a(S'be'
p936
S'be'
p937
S'VB'
p938
S'I-VP'
p939
g5
tp940
a(S'concluded'
p941
S'conclude'
p942
S'VBN'
p943
S'I-VP'
p944
g5
tp945
a(S'that'
p946
S'that'
p947
S'IN'
p948
S'B-SBAR'
p949
g5
tp950
a(S'10'
p951
S'10'
p952
S'CD'
p953
S'B-NP'
p954
g5
tp955
a(S'weeks'
p956
S'week'
p957
S'NNS'
p958
S'I-NP'
p959
g5
tp960
a(S'of'
p961
S'of'
p962
S'IN'
p963
S'B-PP'
p964
g5
tp965
a(S'step'
p966
S'step'
p967
S'NN'
p968
S'B-NP'
p969
g5
tp970
a(S'aerobics'
p971
S'aerobic'
p972
S'NNS'
p973
S'I-NP'
p974
g5
tp975
a(S'was'
p976
S'be'
p977
S'VBD'
p978
S'B-VP'
p979
g5
tp980
a(S'not'
p981
S'not'
p982
S'RB'
p983
g5
g5
tp984
a(S'effective'
p985
S'effective'
p986
S'JJ'
p987
S'B-ADJP'
p988
g5
tp989
a(S'in'
p990
S'in'
p991
S'IN'
p992
S'B-PP'
p993
g5
tp994
a(S'improving'
p995
S'improve'
p996
S'VBG'
p997
S'B-VP'
p998
g5
tp999
a(S'all'
p1000
S'all'
p1001
S'DT'
p1002
S'B-NP'
p1003
g5
tp1004
a(S'of'
p1005
S'of'
p1006
S'IN'
p1007
S'B-PP'
p1008
g5
tp1009
a(S'the'
p1010
S'the'
p1011
S'DT'
p1012
S'B-NP'
p1013
g5
tp1014
a(S'measured'
p1015
S'measure'
p1016
S'VBN'
p1017
S'I-NP'
p1018
g5
tp1019
a(S'anaerobic'
p1020
S'anaerobic'
p1021
S'JJ'
p1022
S'I-NP'
p1023
g5
tp1024
a(S'indices'
p1025
S'index'
p1026
S'NNS'
p1027
S'I-NP'
p1028
g5
tp1029
a(S'in'
p1030
S'in'
p1031
S'IN'
p1032
S'B-PP'
p1033
g5
tp1034
a(S'men'
p1035
S'man'
p1036
S'NNS'
p1037
S'B-NP'
p1038
g5
tp1039
a(S'and'
p1040
S'and'
p1041
S'CC'
p1042
S'I-NP'
p1043
g5
tp1044
a(S'women'
p1045
S'woman'
p1046
S'NNS'
p1047
S'I-NP'
p1048
g5
tp1049
a(g62
g62
g62
g5
g5
tp1050
a.