(lp0
(S'Plasma'
p1
S'Plasma'
p2
S'NN'
p3
S'B-NP'
p4
S'O'
p5
tp6
a(S'pH'
p7
S'pH'
p8
S'NN'
p9
S'I-NP'
p10
g5
tp11
a(S'does'
p12
S'do'
p13
S'VBZ'
p14
S'B-VP'
p15
g5
tp16
a(S'not'
p17
S'not'
p18
S'RB'
p19
S'I-VP'
p20
g5
tp21
a(S'influence'
p22
S'influence'
p23
S'VB'
p24
S'I-VP'
p25
g5
tp26
a(S'the'
p27
S'the'
p28
S'DT'
p29
S'B-NP'
p30
g5
tp31
a(S'cerebral'
p32
S'cerebral'
p33
S'JJ'
p34
S'I-NP'
p35
g5
tp36
a(S'metabolic'
p37
S'metabolic'
p38
S'JJ'
p39
S'I-NP'
p40
g5
tp41
a(S'ratio'
p42
S'ratio'
p43
S'NN'
p44
S'I-NP'
p45
g5
tp46
a(S'during'
p47
S'during'
p48
S'IN'
p49
S'B-PP'
p50
g5
tp51
a(S'maximal'
p52
S'maximal'
p53
S'JJ'
p54
S'B-NP'
p55
g5
tp56
a(S'whole'
p57
S'whole'
p58
S'JJ'
p59
S'I-NP'
p60
g5
tp61
a(S'body'
p62
S'body'
p63
S'NN'
p64
S'I-NP'
p65
g5
tp66
a(S'exercise'
p67
S'exercise'
p68
S'NN'
p69
S'I-NP'
p70
g5
tp71
a(S'.'
p72
g72
g72
g5
g5
tp73
a(S'Exercise'
p74
S'Exercise'
p75
S'NN'
p76
S'B-NP'
p77
g5
tp78
a(S'lowers'
p79
S'lower'
p80
S'VBZ'
p81
S'B-VP'
p82
g5
tp83
a(S'the'
p84
S'the'
p85
S'DT'
p86
S'B-NP'
p87
g5
tp88
a(S'cerebral'
p89
S'cerebral'
p90
S'JJ'
p91
S'I-NP'
p92
g5
tp93
a(S'metabolic'
p94
S'metabolic'
p95
S'JJ'
p96
S'I-NP'
p97
g5
tp98
a(S'ratio'
p99
S'ratio'
p100
S'NN'
p101
S'I-NP'
p102
g5
tp103
a(S'of'
p104
S'of'
p105
S'IN'
p106
S'B-PP'
p107
g5
tp108
a(S'O2'
p109
S'O2'
p110
S'NN'
p111
S'B-NP'
p112
S'B-protein'
p113
tp114
a(S'to'
p115
S'to'
p116
S'TO'
p117
S'B-PP'
p118
g5
tp119
a(S'carbohydrate'
p120
S'carbohydrate'
p121
S'NN'
p122
S'B-NP'
p123
g5
tp124
a(S'('
p125
g125
g125
g5
g5
tp126
a(S'glucose+1/2'
p127
S'glucose+1/2'
p128
S'NN'
p129
S'B-NP'
p130
g5
tp131
a(S'lactate'
p132
S'lactate'
p133
S'NN'
p134
S'I-NP'
p135
g5
tp136
a(S')'
p137
g137
g137
g5
g5
tp138
a(S'and'
p139
S'and'
p140
S'CC'
p141
g5
g5
tp142
a(S'metabolic'
p143
S'metabolic'
p144
S'JJ'
p145
S'B-NP'
p146
g5
tp147
a(S'acidosis'
p148
S'acidosis'
p149
S'NN'
p150
S'I-NP'
p151
g5
tp152
a(S'appears'
p153
S'appear'
p154
S'VBZ'
p155
S'B-VP'
p156
g5
tp157
a(S'to'
p158
S'to'
p159
S'TO'
p160
S'I-VP'
p161
g5
tp162
a(S'promote'
p163
S'promote'
p164
S'VB'
p165
S'I-VP'
p166
g5
tp167
a(S'cerebral'
p168
S'cerebral'
p169
S'JJ'
p170
S'B-NP'
p171
g5
tp172
a(S'lactate'
p173
S'lactate'
p174
S'NN'
p175
S'I-NP'
p176
g5
tp177
a(S'uptake.'
p178
S'uptake.'
p179
S'RB'
p180
S'B-ADVP'
p181
g5
tp182
a(S'However'
p183
S'However'
p184
S'RB'
p185
S'I-ADVP'
p186
g5
tp187
a(S','
p188
g188
g188
g5
g5
tp189
a(S'the'
p190
S'the'
p191
S'DT'
p192
S'B-NP'
p193
g5
tp194
a(S'influence'
p195
S'influence'
p196
S'NN'
p197
S'I-NP'
p198
g5
tp199
a(S'of'
p200
S'of'
p201
S'IN'
p202
S'B-PP'
p203
g5
tp204
a(S'pH'
p205
S'pH'
p206
S'NN'
p207
S'B-NP'
p208
g5
tp209
a(S'on'
p210
S'on'
p211
S'IN'
p212
S'B-PP'
p213
g5
tp214
a(S'cerebral'
p215
S'cerebral'
p216
S'JJ'
p217
S'B-NP'
p218
g5
tp219
a(S'lactate'
p220
S'lactate'
p221
S'NN'
p222
S'I-NP'
p223
g5
tp224
a(S'uptake'
p225
S'uptake'
p226
S'NN'
p227
S'I-NP'
p228
g5
tp229
a(S'and'
p230
S'and'
p231
S'CC'
p232
g5
g5
tp233
a(g188
g188
g188
g5
g5
tp234
a(S'in'
p235
S'in'
p236
S'IN'
p237
S'B-PP'
p238
g5
tp239
a(S'turn'
p240
S'turn'
p241
S'NN'
p242
S'B-NP'
p243
g5
tp244
a(g188
g188
g188
g5
g5
tp245
a(S'on'
p246
S'on'
p247
S'IN'
p248
S'B-PP'
p249
g5
tp250
a(S'the'
p251
S'the'
p252
S'DT'
p253
S'B-NP'
p254
g5
tp255
a(S'cerebral'
p256
S'cerebral'
p257
S'JJ'
p258
S'I-NP'
p259
g5
tp260
a(S'metabolic'
p261
S'metabolic'
p262
S'JJ'
p263
S'I-NP'
p264
g5
tp265
a(S'ratio'
p266
S'ratio'
p267
S'NN'
p268
S'I-NP'
p269
g5
tp270
a(S'during'
p271
S'during'
p272
S'IN'
p273
S'B-PP'
p274
g5
tp275
a(S'exercise'
p276
S'exercise'
p277
S'NN'
p278
S'B-NP'
p279
g5
tp280
a(S'is'
p281
S'be'
p282
S'VBZ'
p283
S'B-VP'
p284
g5
tp285
a(S'not'
p286
S'not'
p287
S'RB'
p288
g5
g5
tp289
a(S'known.'
p290
S'known.'
p291
S'JJ'
p292
S'B-NP'
p293
g5
tp294
a(S'Sodium'
p295
S'Sodium'
p296
S'NN'
p297
S'I-NP'
p298
g5
tp299
a(S'bicarbonate'
p300
S'bicarbonate'
p301
S'NN'
p302
S'I-NP'
p303
g5
tp304
a(g125
g125
g125
g5
g5
tp305
a(S'Bicarb'
p306
S'Bicarb'
p307
S'NN'
p308
S'B-NP'
p309
g5
tp310
a(g188
g188
g188
g5
g5
tp311
a(S'1'
p312
g312
S'CD'
p313
S'B-NP'
p314
g5
tp315
a(S'M'
p316
g316
S'NN'
p317
S'I-NP'
p318
g5
tp319
a(S';'
p320
g320
S':'
p321
g5
g5
tp322
a(S'350-500'
p323
S'350-500'
p324
S'CD'
p325
S'B-NP'
p326
g5
tp327
a(S'ml'
p328
S'ml'
p329
S'NN'
p330
S'I-NP'
p331
g5
tp332
a(g137
g137
g137
g5
g5
tp333
a(S'or'
p334
S'or'
p335
S'CC'
p336
g5
g5
tp337
a(S'an'
p338
S'an'
p339
S'DT'
p340
S'B-NP'
p341
g5
tp342
a(S'equal'
p343
S'equal'
p344
S'JJ'
p345
S'I-NP'
p346
g5
tp347
a(S'volume'
p348
S'volume'
p349
S'NN'
p350
S'I-NP'
p351
g5
tp352
a(S'of'
p353
S'of'
p354
S'IN'
p355
S'B-PP'
p356
g5
tp357
a(S'normal'
p358
S'normal'
p359
S'JJ'
p360
S'B-NP'
p361
g5
tp362
a(S'saline'
p363
S'saline'
p364
S'NN'
p365
S'I-NP'
p366
g5
tp367
a(g125
g125
g125
g5
g5
tp368
a(S'Sal'
p369
S'Sal'
p370
S'NN'
p371
S'B-NP'
p372
S'B-protein'
p373
tp374
a(g137
g137
g137
g5
g5
tp375
a(S'was'
p376
S'be'
p377
S'VBD'
p378
S'B-VP'
p379
g5
tp380
a(S'infused'
p381
S'infuse'
p382
S'VBN'
p383
S'I-VP'
p384
g5
tp385
a(S'intravenously'
p386
S'intravenously'
p387
S'RB'
p388
S'B-ADVP'
p389
g5
tp390
a(S'at'
p391
S'at'
p392
S'IN'
p393
S'B-PP'
p394
g5
tp395
a(S'a'
p396
g396
S'DT'
p397
S'B-NP'
p398
g5
tp399
a(S'constant'
p400
S'constant'
p401
S'JJ'
p402
S'I-NP'
p403
g5
tp404
a(S'rate'
p405
S'rate'
p406
S'NN'
p407
S'I-NP'
p408
g5
tp409
a(S'during'
p410
S'during'
p411
S'IN'
p412
S'B-PP'
p413
g5
tp414
a(g396
g396
S'DT'
p415
S'B-NP'
p416
g5
tp417
a(S"'2000"
p418
S"'2000"
p419
S'CD'
p420
S'I-NP'
p421
g5
tp422
a(S'm'
p423
g423
S'NN'
p424
S'I-NP'
p425
g5
tp426
a(S"'"
p427
g427
S'POS'
p428
S'B-NP'
p429
g5
tp430
a(S'maximal'
p431
S'maximal'
p432
S'JJ'
p433
S'I-NP'
p434
g5
tp435
a(S'ergometer'
p436
S'ergometer'
p437
S'NN'
p438
S'I-NP'
p439
g5
tp440
a(S'row'
p441
S'row'
p442
S'NN'
p443
S'I-NP'
p444
g5
tp445
a(S'in'
p446
S'in'
p447
S'IN'
p448
S'B-PP'
p449
g5
tp450
a(S'six'
p451
S'six'
p452
S'CD'
p453
S'B-NP'
p454
g5
tp455
a(S'male'
p456
S'male'
p457
S'JJ'
p458
S'I-NP'
p459
g5
tp460
a(S'oarsmen'
p461
S'oarsman'
p462
S'NNS'
p463
S'I-NP'
p464
g5
tp465
a(g125
g125
g125
g5
g5
tp466
a(S'23\xc2\xb12'
p467
S'23\xc2\xb12'
p468
S'CD'
p469
S'B-NP'
p470
g5
tp471
a(S'years'
p472
S'year'
p473
S'NNS'
p474
S'I-NP'
p475
g5
tp476
a(g320
g320
g321
g5
g5
tp477
a(S'mean\xc2\xb1S.D.'
p478
S'mean\xc2\xb1S.D.'
p479
S'NN'
p480
S'B-NP'
p481
g5
tp482
a(g137
g137
g137
g5
g5
tp483
a(g72
g72
g72
g5
g5
tp484
a(S'During'
p485
S'During'
p486
S'IN'
p487
S'B-PP'
p488
g5
tp489
a(S'the'
p490
S'the'
p491
S'DT'
p492
S'B-NP'
p493
g5
tp494
a(S'Sal'
p495
S'Sal'
p496
S'JJ'
p497
S'I-NP'
p498
g5
tp499
a(S'trial'
p500
S'trial'
p501
S'NN'
p502
S'I-NP'
p503
g5
tp504
a(g188
g188
g188
g5
g5
tp505
a(S'pH'
p506
S'pH'
p507
S'NN'
p508
S'B-NP'
p509
g5
tp510
a(S'decreased'
p511
S'decrease'
p512
S'VBD'
p513
S'B-VP'
p514
g5
tp515
a(S'from'
p516
S'from'
p517
S'IN'
p518
S'B-PP'
p519
g5
tp520
a(S'7.41\xc2\xb10.01'
p521
S'7.41\xc2\xb10.01'
p522
S'CD'
p523
S'B-NP'
p524
g5
tp525
a(S'at'
p526
S'at'
p527
S'IN'
p528
S'B-PP'
p529
g5
tp530
a(S'rest'
p531
S'rest'
p532
S'NN'
p533
S'B-NP'
p534
g5
tp535
a(S'to'
p536
S'to'
p537
S'TO'
p538
S'B-PP'
p539
g5
tp540
a(S'7.02\xc2\xb10.02'
p541
S'7.02\xc2\xb10.02'
p542
S'CD'
p543
S'B-NP'
p544
g5
tp545
a(S'but'
p546
S'but'
p547
S'CC'
p548
g5
g5
tp549
a(S'only'
p550
S'only'
p551
S'RB'
p552
S'B-ADVP'
p553
g5
tp554
a(S'to'
p555
S'to'
p556
S'TO'
p557
S'B-PP'
p558
g5
tp559
a(S'7.36\xc2\xb10.02'
p560
S'7.36\xc2\xb10.02'
p561
S'CD'
p562
S'B-NP'
p563
g5
tp564
a(g125
g125
g125
g5
g5
tp565
a(S'P'
p566
g566
S'NN'
p567
S'B-NP'
p568
g5
tp569
a(S'<'
p570
g570
S'SYM'
p571
g5
g5
tp572
a(S'0.05'
p573
S'0.05'
p574
S'CD'
p575
S'B-NP'
p576
g5
tp577
a(g137
g137
g137
g5
g5
tp578
a(S'during'
p579
S'during'
p580
S'IN'
p581
S'B-PP'
p582
g5
tp583
a(S'the'
p584
S'the'
p585
S'DT'
p586
S'B-NP'
p587
g5
tp588
a(S'Bicarb'
p589
S'Bicarb'
p590
S'NN'
p591
S'I-NP'
p592
g5
tp593
a(S'trial.'
p594
S'trial.'
p595
S'NN'
p596
S'I-NP'
p597
g5
tp598
a(S'Arterial'
p599
S'Arterial'
p600
S'JJ'
p601
S'I-NP'
p602
g5
tp603
a(S'lactate'
p604
S'lactate'
p605
S'NN'
p606
S'I-NP'
p607
g5
tp608
a(S'increased'
p609
S'increase'
p610
S'VBD'
p611
S'B-VP'
p612
g5
tp613
a(S'to'
p614
S'to'
p615
S'TO'
p616
S'B-PP'
p617
g5
tp618
a(S'21.4\xc2\xb10.8'
p619
S'21.4\xc2\xb10.8'
p620
S'CD'
p621
S'B-NP'
p622
g5
tp623
a(S'and'
p624
S'and'
p625
S'CC'
p626
S'I-NP'
p627
g5
tp628
a(S'32.7\xc2\xb12.3'
p629
S'32.7\xc2\xb12.3'
p630
S'CD'
p631
S'I-NP'
p632
g5
tp633
a(S'mM'
p634
S'mM'
p635
S'NN'
p636
S'I-NP'
p637
g5
tp638
a(S'during'
p639
S'during'
p640
S'IN'
p641
S'B-PP'
p642
g5
tp643
a(S'the'
p644
S'the'
p645
S'DT'
p646
S'B-NP'
p647
g5
tp648
a(S'Sal'
p649
S'Sal'
p650
S'NNP'
p651
S'I-NP'
p652
g5
tp653
a(S'and'
p654
S'and'
p655
S'CC'
p656
S'I-NP'
p657
g5
tp658
a(S'Bicarb'
p659
S'Bicarb'
p660
S'NNP'
p661
S'I-NP'
p662
g5
tp663
a(S'trials'
p664
S'trial'
p665
S'NNS'
p666
S'I-NP'
p667
g5
tp668
a(g188
g188
g188
g5
g5
tp669
a(S'respectively'
p670
S'respectively'
p671
S'RB'
p672
S'B-ADVP'
p673
g5
tp674
a(g125
g125
g125
g5
g5
tp675
a(g566
g566
S'NN'
p676
S'B-NP'
p677
g5
tp678
a(g570
g570
S'SYM'
p679
g5
g5
tp680
a(S'0.05'
p681
S'0.05'
p682
S'CD'
p683
S'B-NP'
p684
g5
tp685
a(g137
g137
g137
g5
g5
tp686
a(g72
g72
g72
g5
g5
tp687
a(S'Also'
p688
S'Also'
p689
S'RB'
p690
S'B-ADVP'
p691
g5
tp692
a(g188
g188
g188
g5
g5
tp693
a(S'the'
p694
S'the'
p695
S'DT'
p696
S'B-NP'
p697
g5
tp698
a(S'arterial-jugular'
p699
S'arterial-jugular'
p700
S'JJ'
p701
S'I-NP'
p702
g5
tp703
a(S'venous'
p704
S'venous'
p705
S'JJ'
p706
S'I-NP'
p707
g5
tp708
a(S'lactate'
p709
S'lactate'
p710
S'NN'
p711
S'I-NP'
p712
g5
tp713
a(S'difference'
p714
S'difference'
p715
S'NN'
p716
S'I-NP'
p717
g5
tp718
a(S'increased'
p719
S'increase'
p720
S'VBD'
p721
S'B-VP'
p722
g5
tp723
a(S'from-0.03\xc2\xb10.01'
p724
S'from-0.03\xc2\xb10.01'
p725
S'NN'
p726
S'B-NP'
p727
g5
tp728
a(S'mM'
p729
S'mM'
p730
S'NN'
p731
S'I-NP'
p732
g5
tp733
a(S'at'
p734
S'at'
p735
S'IN'
p736
S'B-PP'
p737
g5
tp738
a(S'rest'
p739
S'rest'
p740
S'NN'
p741
S'B-NP'
p742
g5
tp743
a(S'to'
p744
S'to'
p745
S'TO'
p746
S'B-PP'
p747
g5
tp748
a(S'3.2\xc2\xb10.9'
p749
S'3.2\xc2\xb10.9'
p750
S'CD'
p751
S'B-NP'
p752
g5
tp753
a(S'mM'
p754
S'mM'
p755
S'NN'
p756
S'I-NP'
p757
g5
tp758
a(g125
g125
g125
g5
g5
tp759
a(g566
g566
S'NN'
p760
S'B-NP'
p761
g5
tp762
a(g570
g570
S'SYM'
p763
g5
g5
tp764
a(S'0.05'
p765
S'0.05'
p766
S'CD'
p767
S'B-NP'
p768
g5
tp769
a(g137
g137
g137
g5
g5
tp770
a(S'and'
p771
S'and'
p772
S'CC'
p773
g5
g5
tp774
a(S'3.4\xc2\xb11.4'
p775
S'3.4\xc2\xb11.4'
p776
S'CD'
p777
S'B-NP'
p778
g5
tp779
a(S'mM'
p780
S'mM'
p781
S'NN'
p782
S'I-NP'
p783
g5
tp784
a(g125
g125
g125
g5
g5
tp785
a(g566
g566
S'NN'
p786
S'B-NP'
p787
g5
tp788
a(g570
g570
S'SYM'
p789
S'B-NP'
p790
g5
tp791
a(S'0.05'
p792
S'0.05'
p793
S'CD'
p794
S'I-NP'
p795
g5
tp796
a(g137
g137
g137
g5
g5
tp797
a(S'following'
p798
S'follow'
p799
S'VBG'
p800
S'B-PP'
p801
g5
tp802
a(S'the'
p803
S'the'
p804
S'DT'
p805
S'B-NP'
p806
g5
tp807
a(S'Sal'
p808
S'Sal'
p809
S'NNP'
p810
S'I-NP'
p811
g5
tp812
a(S'and'
p813
S'and'
p814
S'CC'
p815
g5
g5
tp816
a(S'Bicarb'
p817
S'Bicarb'
p818
S'NN'
p819
S'B-NP'
p820
g5
tp821
a(S'trials'
p822
S'trial'
p823
S'NNS'
p824
S'I-NP'
p825
g5
tp826
a(g188
g188
g188
g5
g5
tp827
a(S'respectively.'
p828
S'respectively.'
p829
S'VB'
p830
S'B-VP'
p831
g5
tp832
a(S'Accordingly'
p833
S'Accordingly'
p834
S'RB'
p835
S'B-ADVP'
p836
g5
tp837
a(g188
g188
g188
g5
g5
tp838
a(S'the'
p839
S'the'
p840
S'DT'
p841
S'B-NP'
p842
g5
tp843
a(S'cerebral'
p844
S'cerebral'
p845
S'JJ'
p846
S'I-NP'
p847
g5
tp848
a(S'metabolic'
p849
S'metabolic'
p850
S'JJ'
p851
S'I-NP'
p852
g5
tp853
a(S'ratio'
p854
S'ratio'
p855
S'NN'
p856
S'I-NP'
p857
g5
tp858
a(S'decreased'
p859
S'decrease'
p860
S'VBD'
p861
S'B-VP'
p862
g5
tp863
a(S'equally'
p864
S'equally'
p865
S'RB'
p866
S'B-ADVP'
p867
g5
tp868
a(S'during'
p869
S'during'
p870
S'IN'
p871
S'B-PP'
p872
g5
tp873
a(S'the'
p874
S'the'
p875
S'DT'
p876
S'B-NP'
p877
g5
tp878
a(S'Sal'
p879
S'Sal'
p880
S'NNP'
p881
S'I-NP'
p882
g5
tp883
a(S'and'
p884
S'and'
p885
S'CC'
p886
S'I-NP'
p887
g5
tp888
a(S'Bicarb'
p889
S'Bicarb'
p890
S'NNP'
p891
S'I-NP'
p892
g5
tp893
a(S'trials'
p894
S'trial'
p895
S'NNS'
p896
S'I-NP'
p897
g5
tp898
a(g321
g321
g321
g5
g5
tp899
a(S'from'
p900
S'from'
p901
S'IN'
p902
S'B-PP'
p903
g5
tp904
a(S'5.8\xc2\xb10.6'
p905
S'5.8\xc2\xb10.6'
p906
S'CD'
p907
S'B-NP'
p908
g5
tp909
a(S'at'
p910
S'at'
p911
S'IN'
p912
S'B-PP'
p913
g5
tp914
a(S'rest'
p915
S'rest'
p916
S'NN'
p917
S'B-NP'
p918
g5
tp919
a(S'to'
p920
S'to'
p921
S'TO'
p922
S'B-PP'
p923
g5
tp924
a(S'1.7\xc2\xb10.1'
p925
S'1.7\xc2\xb10.1'
p926
S'CD'
p927
S'B-NP'
p928
g5
tp929
a(S'and'
p930
S'and'
p931
S'CC'
p932
S'I-NP'
p933
g5
tp934
a(S'1.8\xc2\xb10.2'
p935
S'1.8\xc2\xb10.2'
p936
S'CD'
p937
S'I-NP'
p938
g5
tp939
a(g188
g188
g188
g5
g5
tp940
a(S'respectively.'
p941
S'respectively.'
p942
S'VBP'
p943
S'B-VP'
p944
g5
tp945
a(S'The'
p946
S'The'
p947
S'DT'
p948
S'B-NP'
p949
g5
tp950
a(S'enlarged'
p951
S'enlarged'
p952
S'JJ'
p953
S'I-NP'
p954
g5
tp955
a(S'blood-buffering'
p956
S'blood-buffering'
p957
S'NN'
p958
S'I-NP'
p959
g5
tp960
a(S'capacity'
p961
S'capacity'
p962
S'NN'
p963
S'I-NP'
p964
g5
tp965
a(S'after'
p966
S'after'
p967
S'IN'
p968
S'B-PP'
p969
g5
tp970
a(S'infusion'
p971
S'infusion'
p972
S'NN'
p973
S'B-NP'
p974
g5
tp975
a(S'of'
p976
S'of'
p977
S'IN'
p978
S'B-PP'
p979
g5
tp980
a(S'Bicarb'
p981
S'Bicarb'
p982
S'NN'
p983
S'B-NP'
p984
S'B-protein'
p985
tp986
a(S'eliminated'
p987
S'eliminate'
p988
S'VBD'
p989
S'B-VP'
p990
g5
tp991
a(S'metabolic'
p992
S'metabolic'
p993
S'JJ'
p994
S'B-NP'
p995
g5
tp996
a(S'acidosis'
p997
S'acidosis'
p998
S'NN'
p999
S'I-NP'
p1000
g5
tp1001
a(S'during'
p1002
S'during'
p1003
S'IN'
p1004
S'B-PP'
p1005
g5
tp1006
a(S'maximal'
p1007
S'maximal'
p1008
S'JJ'
p1009
S'B-NP'
p1010
g5
tp1011
a(S'exercise'
p1012
S'exercise'
p1013
S'NN'
p1014
S'I-NP'
p1015
g5
tp1016
a(S'but'
p1017
S'but'
p1018
S'CC'
p1019
g5
g5
tp1020
a(S'that'
p1021
S'that'
p1022
S'WDT'
p1023
S'B-NP'
p1024
g5
tp1025
a(S'did'
p1026
S'do'
p1027
S'VBD'
p1028
S'B-VP'
p1029
g5
tp1030
a(S'not'
p1031
S'not'
p1032
S'RB'
p1033
S'I-VP'
p1034
g5
tp1035
a(S'affect'
p1036
S'affect'
p1037
S'VB'
p1038
S'I-VP'
p1039
g5
tp1040
a(S'the'
p1041
S'the'
p1042
S'DT'
p1043
S'B-NP'
p1044
g5
tp1045
a(S'cerebral'
p1046
S'cerebral'
p1047
S'JJ'
p1048
S'I-NP'
p1049
g5
tp1050
a(S'lactate'
p1051
S'lactate'
p1052
S'NN'
p1053
S'I-NP'
p1054
g5
tp1055
a(S'uptake'
p1056
S'uptake'
p1057
S'NN'
p1058
S'I-NP'
p1059
g5
tp1060
a(S'and'
p1061
S'and'
p1062
S'CC'
p1063
g5
g5
tp1064
a(g188
g188
g188
g5
g5
tp1065
a(S'therefore'
p1066
S'therefore'
p1067
S'RB'
p1068
S'B-ADVP'
p1069
g5
tp1070
a(g188
g188
g188
g5
g5
tp1071
a(S'the'
p1072
S'the'
p1073
S'DT'
p1074
S'B-NP'
p1075
g5
tp1076
a(S'decrease'
p1077
S'decrease'
p1078
S'NN'
p1079
S'I-NP'
p1080
g5
tp1081
a(S'in'
p1082
S'in'
p1083
S'IN'
p1084
S'B-PP'
p1085
g5
tp1086
a(S'the'
p1087
S'the'
p1088
S'DT'
p1089
S'B-NP'
p1090
g5
tp1091
a(S'cerebral'
p1092
S'cerebral'
p1093
S'JJ'
p1094
S'I-NP'
p1095
g5
tp1096
a(S'metabolic'
p1097
S'metabolic'
p1098
S'JJ'
p1099
S'I-NP'
p1100
g5
tp1101
a(S'ratio'
p1102
S'ratio'
p1103
S'NN'
p1104
S'I-NP'
p1105
g5
tp1106
a(g72
g72
g72
g5
g5
tp1107
a.