(lp0
(S'Nasal'
p1
S'Nasal'
p2
S'JJ'
p3
S'B-ADJP'
p4
S'O'
p5
tp6
a(S'versus'
p7
S'versus'
p8
S'IN'
p9
S'B-PP'
p10
g5
tp11
a(S'oronasal'
p12
S'oronasal'
p13
S'JJ'
p14
S'B-NP'
p15
g5
tp16
a(S'continuous'
p17
S'continuous'
p18
S'JJ'
p19
S'I-NP'
p20
g5
tp21
a(S'positive'
p22
S'positive'
p23
S'JJ'
p24
S'I-NP'
p25
g5
tp26
a(S'airway'
p27
S'airway'
p28
S'NN'
p29
S'I-NP'
p30
g5
tp31
a(S'pressure'
p32
S'pressure'
p33
S'NN'
p34
S'I-NP'
p35
g5
tp36
a(S'masks'
p37
S'mask'
p38
S'NNS'
p39
S'I-NP'
p40
g5
tp41
a(S'for'
p42
S'for'
p43
S'IN'
p44
S'B-PP'
p45
g5
tp46
a(S'obstructive'
p47
S'obstructive'
p48
S'JJ'
p49
S'B-NP'
p50
g5
tp51
a(S'sleep'
p52
S'sleep'
p53
S'NN'
p54
S'I-NP'
p55
g5
tp56
a(S'apnea'
p57
S'apnea'
p58
S'NN'
p59
S'I-NP'
p60
g5
tp61
a(S':'
p62
g62
g62
g5
g5
tp63
a(S'a'
p64
g64
S'DT'
p65
S'B-NP'
p66
g5
tp67
a(S'pilot'
p68
S'pilot'
p69
S'NN'
p70
S'I-NP'
p71
g5
tp72
a(S'investigation'
p73
S'investigation'
p74
S'NN'
p75
S'I-NP'
p76
g5
tp77
a(S'of'
p78
S'of'
p79
S'IN'
p80
S'B-PP'
p81
g5
tp82
a(S'pressure'
p83
S'pressure'
p84
S'NN'
p85
S'B-NP'
p86
g5
tp87
a(S'requirement'
p88
S'requirement'
p89
S'NN'
p90
S'I-NP'
p91
g5
tp92
a(S','
p93
g93
g93
g5
g5
tp94
a(S'residual'
p95
S'residual'
p96
S'JJ'
p97
S'B-NP'
p98
g5
tp99
a(S'disease'
p100
S'disease'
p101
S'NN'
p102
S'I-NP'
p103
g5
tp104
a(g93
g93
g93
g5
g5
tp105
a(S'and'
p106
S'and'
p107
S'CC'
p108
g5
g5
tp109
a(S'leak'
p110
S'leak'
p111
S'NN'
p112
S'B-NP'
p113
g5
tp114
a(S'.'
p115
g115
g115
g5
g5
tp116
a(S'PURPOSE'
p117
S'PURPOSE'
p118
S'NN'
p119
S'B-NP'
p120
g5
tp121
a(S'This'
p122
S'This'
p123
S'DT'
p124
S'B-NP'
p125
g5
tp126
a(S'single-blinded'
p127
S'single-blinded'
p128
S'JJ'
p129
S'I-NP'
p130
g5
tp131
a(g93
g93
g93
S'I-NP'
p132
g5
tp133
a(S'randomized'
p134
S'randomize'
p135
S'VBN'
p136
S'I-NP'
p137
g5
tp138
a(g93
g93
g93
S'I-NP'
p139
g5
tp140
a(S'controlled'
p141
S'control'
p142
S'VBN'
p143
S'I-NP'
p144
g5
tp145
a(S'pilot'
p146
S'pilot'
p147
S'NN'
p148
S'I-NP'
p149
g5
tp150
a(S'study'
p151
S'study'
p152
S'NN'
p153
S'I-NP'
p154
g5
tp155
a(S'aimed'
p156
S'aim'
p157
S'VBD'
p158
S'B-VP'
p159
g5
tp160
a(S'to'
p161
S'to'
p162
S'TO'
p163
S'I-VP'
p164
g5
tp165
a(S'investigate'
p166
S'investigate'
p167
S'VB'
p168
S'I-VP'
p169
g5
tp170
a(S'whether'
p171
S'whether'
p172
S'IN'
p173
S'B-SBAR'
p174
g5
tp175
a(S'there'
p176
S'there'
p177
S'EX'
p178
S'B-NP'
p179
g5
tp180
a(S'is'
p181
S'be'
p182
S'VBZ'
p183
S'B-VP'
p184
g5
tp185
a(g64
g64
S'DT'
p186
S'B-NP'
p187
g5
tp188
a(S'difference'
p189
S'difference'
p190
S'NN'
p191
S'I-NP'
p192
g5
tp193
a(S'between'
p194
S'between'
p195
S'IN'
p196
S'B-PP'
p197
g5
tp198
a(S'nasal'
p199
S'nasal'
p200
S'JJ'
p201
S'B-NP'
p202
g5
tp203
a(S'and'
p204
S'and'
p205
S'CC'
p206
S'I-NP'
p207
g5
tp208
a(S'oronasal'
p209
S'oronasal'
p210
S'JJ'
p211
S'I-NP'
p212
g5
tp213
a(S'masks'
p214
S'mask'
p215
S'NNS'
p216
S'I-NP'
p217
g5
tp218
a(S'in'
p219
S'in'
p220
S'IN'
p221
S'B-PP'
p222
g5
tp223
a(S'therapeutic'
p224
S'therapeutic'
p225
S'JJ'
p226
S'B-NP'
p227
g5
tp228
a(S'continuous'
p229
S'continuous'
p230
S'JJ'
p231
S'I-NP'
p232
g5
tp233
a(S'positive'
p234
S'positive'
p235
S'JJ'
p236
S'I-NP'
p237
g5
tp238
a(S'airway'
p239
S'airway'
p240
S'NN'
p241
S'I-NP'
p242
g5
tp243
a(S'pressure'
p244
S'pressure'
p245
S'NN'
p246
S'I-NP'
p247
g5
tp248
a(S'('
p249
g249
g249
g5
g5
tp250
a(S'CPAP'
p251
S'CPAP'
p252
S'NN'
p253
S'B-NP'
p254
S'B-protein'
p255
tp256
a(S')'
p257
g257
g257
g5
g5
tp258
a(S'requirement'
p259
S'requirement'
p260
S'NN'
p261
S'B-NP'
p262
g5
tp263
a(g93
g93
g93
g5
g5
tp264
a(S'residual'
p265
S'residual'
p266
S'JJ'
p267
S'B-NP'
p268
g5
tp269
a(S'disease'
p270
S'disease'
p271
S'NN'
p272
S'I-NP'
p273
g5
tp274
a(g93
g93
g93
g5
g5
tp275
a(S'or'
p276
S'or'
p277
S'CC'
p278
g5
g5
tp279
a(S'leak'
p280
S'leak'
p281
S'NN'
p282
S'B-NP'
p283
g5
tp284
a(S'when'
p285
S'when'
p286
S'WRB'
p287
S'B-ADVP'
p288
g5
tp289
a(S'treating'
p290
S'treat'
p291
S'VBG'
p292
S'B-VP'
p293
g5
tp294
a(S'obstructive'
p295
S'obstructive'
p296
S'JJ'
p297
S'B-NP'
p298
g5
tp299
a(S'sleep'
p300
S'sleep'
p301
S'NN'
p302
S'I-NP'
p303
g5
tp304
a(S'apnea'
p305
S'apnea'
p306
S'NN'
p307
S'I-NP'
p308
g5
tp309
a(g249
g249
g249
g5
g5
tp310
a(S'OSA'
p311
S'OSA'
p312
S'NN'
p313
S'B-NP'
p314
S'B-protein'
p315
tp316
a(g257
g257
g257
g5
g5
tp317
a(S'and'
p318
S'and'
p319
S'CC'
p320
g5
g5
tp321
a(S'if'
p322
S'if'
p323
S'IN'
p324
S'B-SBAR'
p325
g5
tp326
a(S'differences'
p327
S'difference'
p328
S'NNS'
p329
S'B-NP'
p330
g5
tp331
a(S'were'
p332
S'be'
p333
S'VBD'
p334
S'B-VP'
p335
g5
tp336
a(S'related'
p337
S'related'
p338
S'JJ'
p339
S'B-ADJP'
p340
g5
tp341
a(S'to'
p342
S'to'
p343
S'TO'
p344
S'B-PP'
p345
g5
tp346
a(S'measures'
p347
S'measure'
p348
S'NNS'
p349
S'B-NP'
p350
g5
tp351
a(S'of'
p352
S'of'
p353
S'IN'
p354
S'B-PP'
p355
g5
tp356
a(S'upper'
p357
S'upper'
p358
S'JJ'
p359
S'B-NP'
p360
g5
tp361
a(S'airway'
p362
S'airway'
p363
S'NN'
p364
S'I-NP'
p365
g5
tp366
a(S'size'
p367
S'size'
p368
S'NN'
p369
S'I-NP'
p370
g5
tp371
a(g115
g115
g115
g5
g5
tp372
a(S'METHODS'
p373
S'METHODS'
p374
S'NNS'
p375
S'B-NP'
p376
g5
tp377
a(S'Patients'
p378
S'Patient'
p379
S'NNS'
p380
S'I-NP'
p381
g5
tp382
a(S'with'
p383
S'with'
p384
S'IN'
p385
S'B-PP'
p386
g5
tp387
a(S'severe'
p388
S'severe'
p389
S'JJ'
p390
S'B-NP'
p391
g5
tp392
a(S'OSA'
p393
S'OSA'
p394
S'NN'
p395
S'I-NP'
p396
g5
tp397
a(S'currently'
p398
S'currently'
p399
S'RB'
p400
S'B-ADVP'
p401
g5
tp402
a(S'using'
p403
S'use'
p404
S'VBG'
p405
S'B-VP'
p406
g5
tp407
a(S'CPAP'
p408
S'CPAP'
p409
S'NN'
p410
S'B-NP'
p411
S'B-protein'
p412
tp413
a(S'at'
p414
S'at'
p415
S'IN'
p416
S'B-PP'
p417
g5
tp418
a(S'\xe2\x89\xa54'
p419
S'\xe2\x89\xa54'
p420
S'CD'
p421
S'B-NP'
p422
g5
tp423
a(S'h/night'
p424
S'h/night'
p425
S'NN'
p426
S'I-NP'
p427
g5
tp428
a(S'with'
p429
S'with'
p430
S'IN'
p431
S'B-PP'
p432
g5
tp433
a(g64
g64
S'DT'
p434
S'B-NP'
p435
g5
tp436
a(S'nasal'
p437
S'nasal'
p438
S'JJ'
p439
S'I-NP'
p440
g5
tp441
a(S'mask'
p442
S'mask'
p443
S'NN'
p444
S'I-NP'
p445
g5
tp446
a(S'were'
p447
S'be'
p448
S'VBD'
p449
S'B-VP'
p450
g5
tp451
a(S'examined'
p452
S'examine'
p453
S'VBN'
p454
S'I-VP'
p455
g5
tp456
a(g249
g249
g249
g5
g5
tp457
a(S'including'
p458
S'include'
p459
S'VBG'
p460
S'B-PP'
p461
g5
tp462
a(S'Mallampati'
p463
S'Mallampati'
p464
S'NNP'
p465
S'B-NP'
p466
g5
tp467
a(S'scale'
p468
S'scale'
p469
S'NN'
p470
S'I-NP'
p471
g5
tp472
a(g93
g93
g93
g5
g5
tp473
a(S'incisal'
p474
S'incisal'
p475
S'JJ'
p476
S'B-NP'
p477
g5
tp478
a(S'relationship'
p479
S'relationship'
p480
S'NN'
p481
S'I-NP'
p482
g5
tp483
a(g93
g93
g93
g5
g5
tp484
a(S'and'
p485
S'and'
p486
S'CC'
p487
g5
g5
tp488
a(S'mandibular'
p489
S'mandibular'
p490
S'JJ'
p491
S'B-NP'
p492
g5
tp493
a(S'protrusion'
p494
S'protrusion'
p495
S'NN'
p496
S'I-NP'
p497
g5
tp498
a(g257
g257
g257
g5
g5
tp499
a(S'and'
p500
S'and'
p501
S'CC'
p502
g5
g5
tp503
a(S'then'
p504
S'then'
p505
S'RB'
p506
S'B-VP'
p507
g5
tp508
a(S'randomized'
p509
S'randomize'
p510
S'VBD'
p511
S'I-VP'
p512
g5
tp513
a(S'to'
p514
S'to'
p515
S'TO'
p516
S'I-VP'
p517
g5
tp518
a(S'receive'
p519
S'receive'
p520
S'VB'
p521
S'I-VP'
p522
g5
tp523
a(S'auto-positive'
p524
S'auto-positive'
p525
S'JJ'
p526
S'B-NP'
p527
g5
tp528
a(S'airway'
p529
S'airway'
p530
S'NN'
p531
S'I-NP'
p532
g5
tp533
a(S'pressure'
p534
S'pressure'
p535
S'NN'
p536
S'I-NP'
p537
g5
tp538
a(g249
g249
g249
g5
g5
tp539
a(S'PAP'
p540
S'PAP'
p541
S'NN'
p542
S'B-NP'
p543
S'B-protein'
p544
tp545
a(g257
g257
g257
g5
g5
tp546
a(S'or'
p547
S'or'
p548
S'CC'
p549
g5
g5
tp550
a(S'fixed'
p551
S'fix'
p552
S'VBN'
p553
S'B-NP'
p554
g5
tp555
a(S'CPAP'
p556
S'CPAP'
p557
S'NN'
p558
S'I-NP'
p559
S'B-protein'
p560
tp561
a(S'at'
p562
S'at'
p563
S'IN'
p564
S'B-PP'
p565
g5
tp566
a(g64
g64
S'DT'
p567
S'B-NP'
p568
g5
tp569
a(S'manually'
p570
S'manually'
p571
S'RB'
p572
S'I-NP'
p573
g5
tp574
a(S'titrated'
p575
S'titrate'
p576
S'VBN'
p577
S'I-NP'
p578
g5
tp579
a(S'pressure'
p580
S'pressure'
p581
S'NN'
p582
S'I-NP'
p583
g5
tp584
a(S'for'
p585
S'for'
p586
S'IN'
p587
S'B-PP'
p588
g5
tp589
a(S'1'
p590
g590
S'CD'
p591
S'B-NP'
p592
g5
tp593
a(S'week'
p594
S'week'
p595
S'NN'
p596
S'I-NP'
p597
g5
tp598
a(S'each'
p599
S'each'
p600
S'DT'
p601
S'B-NP'
p602
g5
tp603
a(S'at'
p604
S'at'
p605
S'IN'
p606
S'B-PP'
p607
g5
tp608
a(S'home'
p609
S'home'
p610
S'NN'
p611
S'B-NP'
p612
g5
tp613
a(g93
g93
g93
g5
g5
tp614
a(S'with'
p615
S'with'
p616
S'IN'
p617
S'B-PP'
p618
g5
tp619
a(S'immediate'
p620
S'immediate'
p621
S'JJ'
p622
S'B-NP'
p623
g5
tp624
a(S'crossover.'
p625
S'crossover.'
p626
S'NN'
p627
S'I-NP'
p628
g5
tp629
a(S'Within'
p630
S'Within'
p631
S'IN'
p632
S'B-PP'
p633
g5
tp634
a(S'each'
p635
S'each'
p636
S'DT'
p637
S'B-NP'
p638
g5
tp639
a(S'week'
p640
S'week'
p641
S'NN'
p642
S'I-NP'
p643
g5
tp644
a(g93
g93
g93
g5
g5
tp645
a(g64
g64
S'DT'
p646
S'B-NP'
p647
g5
tp648
a(S'nasal'
p649
S'nasal'
p650
S'JJ'
p651
S'I-NP'
p652
g5
tp653
a(S'mask'
p654
S'mask'
p655
S'NN'
p656
S'I-NP'
p657
g5
tp658
a(S'and'
p659
S'and'
p660
S'CC'
p661
g5
g5
tp662
a(S'two'
p663
S'two'
p664
S'CD'
p665
S'B-NP'
p666
g5
tp667
a(S'oronasal'
p668
S'oronasal'
p669
S'JJ'
p670
S'I-NP'
p671
g5
tp672
a(S'masks'
p673
S'mask'
p674
S'NNS'
p675
S'I-NP'
p676
g5
tp677
a(S'were'
p678
S'be'
p679
S'VBD'
p680
S'B-VP'
p681
g5
tp682
a(S'to'
p683
S'to'
p684
S'TO'
p685
S'I-VP'
p686
g5
tp687
a(S'be'
p688
S'be'
p689
S'VB'
p690
S'I-VP'
p691
g5
tp692
a(S'used'
p693
S'use'
p694
S'VBN'
p695
S'I-VP'
p696
g5
tp697
a(S'for'
p698
S'for'
p699
S'IN'
p700
S'B-PP'
p701
g5
tp702
a(S'two'
p703
S'two'
p704
S'CD'
p705
S'B-NP'
p706
g5
tp707
a(S'or'
p708
S'or'
p709
S'CC'
p710
S'I-NP'
p711
g5
tp712
a(S'three'
p713
S'three'
p714
S'CD'
p715
S'I-NP'
p716
g5
tp717
a(S'nights'
p718
S'night'
p719
S'NNS'
p720
S'I-NP'
p721
g5
tp722
a(S'each'
p723
S'each'
p724
S'DT'
p725
S'B-NP'
p726
g5
tp727
a(S'in'
p728
S'in'
p729
S'IN'
p730
S'B-PP'
p731
g5
tp732
a(S'random'
p733
S'random'
p734
S'JJ'
p735
S'B-NP'
p736
g5
tp737
a(S'order.'
p738
S'order.'
p739
S'NN'
p740
S'I-NP'
p741
g5
tp742
a(S'Data'
p743
S'Datum'
p744
S'NNS'
p745
S'I-NP'
p746
g5
tp747
a(S'were'
p748
S'be'
p749
S'VBD'
p750
S'B-VP'
p751
g5
tp752
a(S'downloaded'
p753
S'downloade'
p754
S'VBN'
p755
S'I-VP'
p756
g5
tp757
a(S'from'
p758
S'from'
p759
S'IN'
p760
S'B-PP'
p761
g5
tp762
a(S'the'
p763
S'the'
p764
S'DT'
p765
S'B-NP'
p766
g5
tp767
a(S'device'
p768
S'device'
p769
S'NN'
p770
S'I-NP'
p771
g5
tp772
a(g115
g115
g115
g5
g5
tp773
a(S'RESULTS'
p774
S'RESULTS'
p775
S'NNS'
p776
S'B-NP'
p777
g5
tp778
a(S'Twelve'
p779
S'Twelve'
p780
S'CD'
p781
S'B-NP'
p782
g5
tp783
a(S'patients'
p784
S'patient'
p785
S'NNS'
p786
S'I-NP'
p787
g5
tp788
a(S'completed'
p789
S'complete'
p790
S'VBD'
p791
S'B-VP'
p792
g5
tp793
a(S'the'
p794
S'the'
p795
S'DT'
p796
S'B-NP'
p797
g5
tp798
a(S'trial'
p799
S'trial'
p800
S'NN'
p801
S'I-NP'
p802
g5
tp803
a(g249
g249
g249
g5
g5
tp804
a(S'mean'
p805
S'mean'
p806
S'NN'
p807
S'B-NP'
p808
g5
tp809
a(S'\xc2\xb1'
p810
S'\xc2\xb1'
p811
S'NN'
p812
S'I-NP'
p813
g5
tp814
a(S'SD'
p815
S'SD'
p816
S'NNP'
p817
S'I-NP'
p818
g5
tp819
a(S'AHI'
p820
S'AHI'
p821
S'NNP'
p822
S'I-NP'
p823
g5
tp824
a(S'59.8'
p825
S'59.8'
p826
S'CD'
p827
S'I-NP'
p828
g5
tp829
a(S'\xc2\xb1'
p830
S'\xc2\xb1'
p831
S'CD'
p832
S'I-NP'
p833
g5
tp834
a(S'28.6'
p835
S'28.6'
p836
S'CD'
p837
S'I-NP'
p838
g5
tp839
a(S'events/h'
p840
S'events/h'
p841
S'NN'
p842
S'I-NP'
p843
g5
tp844
a(S';'
p845
g845
g62
g5
g5
tp846
a(S'CPAP'
p847
S'CPAP'
p848
S'NN'
p849
S'B-NP'
p850
S'B-DNA'
p851
tp852
a(S'11.1'
p853
S'11.1'
p854
S'CD'
p855
S'I-NP'
p856
S'I-DNA'
p857
tp858
a(S'\xc2\xb1'
p859
S'\xc2\xb1'
p860
S'HYPH'
p861
S'I-NP'
p862
g5
tp863
a(S'3.2'
p864
S'3.2'
p865
S'CD'
p866
S'I-NP'
p867
g5
tp868
a(S'cmH'
p869
S'cmH'
p870
S'NN'
p871
S'I-NP'
p872
g5
tp873
a(g249
g249
g249
g5
g5
tp874
a(S'2'
p875
g875
S'CD'
p876
S'B-NP'
p877
g5
tp878
a(g257
g257
g257
g5
g5
tp879
a(g5
g5
S'NN'
p880
S'B-NP'
p881
g5
tp882
a(g845
g845
g62
g5
g5
tp883
a(S'BMI'
p884
S'BMI'
p885
S'NN'
p886
S'B-NP'
p887
S'B-DNA'
p888
tp889
a(S'37.7'
p890
S'37.7'
p891
S'CD'
p892
S'I-NP'
p893
S'I-DNA'
p894
tp895
a(S'\xc2\xb1'
p896
S'\xc2\xb1'
p897
S'HYPH'
p898
S'I-NP'
p899
g5
tp900
a(S'5.0'
p901
S'5.0'
p902
S'CD'
p903
S'I-NP'
p904
g5
tp905
a(S'kg/m'
p906
S'kg/m'
p907
S'NN'
p908
S'I-NP'
p909
g5
tp910
a(g249
g249
g249
g5
g5
tp911
a(g875
g875
S'CD'
p912
S'B-NP'
p913
g5
tp914
a(g257
g257
g257
g5
g5
tp915
a(g257
g257
g257
g5
g5
tp916
a(g115
g115
g115
g5
g5
tp917
a(S'During'
p918
S'During'
p919
S'IN'
p920
S'B-PP'
p921
g5
tp922
a(S'auto-PAP'
p923
S'auto-PAP'
p924
S'NN'
p925
S'B-NP'
p926
S'B-protein'
p927
tp928
a(g93
g93
g93
g5
g5
tp929
a(S'the'
p930
S'the'
p931
S'DT'
p932
S'B-NP'
p933
g5
tp934
a(S'median'
p935
S'median'
p936
S'JJ'
p937
S'I-NP'
p938
g5
tp939
a(S'95th'
p940
S'95th'
p941
S'JJ'
p942
S'I-NP'
p943
g5
tp944
a(S'percentile'
p945
S'percentile'
p946
S'NN'
p947
S'I-NP'
p948
g5
tp949
a(S'pressure'
p950
S'pressure'
p951
S'NN'
p952
S'I-NP'
p953
g5
tp954
a(S'delivered'
p955
S'deliver'
p956
S'VBN'
p957
S'B-VP'
p958
g5
tp959
a(S'with'
p960
S'with'
p961
S'IN'
p962
S'B-PP'
p963
g5
tp964
a(S'all'
p965
S'all'
p966
S'DT'
p967
S'B-NP'
p968
g5
tp969
a(S'masks'
p970
S'mask'
p971
S'NNS'
p972
S'I-NP'
p973
g5
tp974
a(S'was'
p975
S'be'
p976
S'VBD'
p977
S'B-VP'
p978
g5
tp979
a(S'within'
p980
S'within'
p981
S'IN'
p982
S'B-PP'
p983
g5
tp984
a(S'0.5'
p985
S'0.5'
p986
S'CD'
p987
S'B-NP'
p988
g5
tp989
a(S'cmH'
p990
S'cmH'
p991
S'NN'
p992
S'I-NP'
p993
g5
tp994
a(g249
g249
g249
g5
g5
tp995
a(g875
g875
S'CD'
p996
S'B-NP'
p997
g5
tp998
a(g257
g257
g257
g5
g5
tp999
a(g5
g5
S'NN'
p1000
S'B-NP'
p1001
g5
tp1002
a(g249
g249
g249
g5
g5
tp1003
a(S'p'
p1004
g1004
S'NN'
p1005
S'B-NP'
p1006
g5
tp1007
a(S'>'
p1008
g1008
S'SYM'
p1009
g5
g5
tp1010
a(S'0.05'
p1011
S'0.05'
p1012
S'CD'
p1013
S'B-NP'
p1014
g5
tp1015
a(g257
g257
g257
g5
g5
tp1016
a(g115
g115
g115
g5
g5
tp1017
a(S'During'
p1018
S'During'
p1019
S'IN'
p1020
S'B-PP'
p1021
g5
tp1022
a(S'CPAP'
p1023
S'CPAP'
p1024
S'NN'
p1025
S'B-NP'
p1026
S'B-protein'
p1027
tp1028
a(g93
g93
g93
g5
g5
tp1029
a(S'median'
p1030
S'median'
p1031
S'JJ'
p1032
S'B-NP'
p1033
g5
tp1034
a(S'residual'
p1035
S'residual'
p1036
S'JJ'
p1037
S'I-NP'
p1038
g5
tp1039
a(S'AHI'
p1040
S'AHI'
p1041
S'NN'
p1042
S'I-NP'
p1043
g5
tp1044
a(S'was'
p1045
S'be'
p1046
S'VBD'
p1047
S'B-VP'
p1048
g5
tp1049
a(S'0.61'
p1050
S'0.61'
p1051
S'CD'
p1052
S'B-NP'
p1053
g5
tp1054
a(g249
g249
g249
g5
g5
tp1055
a(S'IQR'
p1056
S'IQR'
p1057
S'NN'
p1058
S'B-NP'
p1059
g5
tp1060
a(S'='
p1061
g1061
S'SYM'
p1062
S'B-VP'
p1063
g5
tp1064
a(S'1.18'
p1065
S'1.18'
p1066
S'CD'
p1067
S'B-NP'
p1068
g5
tp1069
a(g257
g257
g257
g5
g5
tp1070
a(S'for'
p1071
S'for'
p1072
S'IN'
p1073
S'B-PP'
p1074
g5
tp1075
a(S'the'
p1076
S'the'
p1077
S'DT'
p1078
S'B-NP'
p1079
g5
tp1080
a(S'nasal'
p1081
S'nasal'
p1082
S'JJ'
p1083
S'I-NP'
p1084
g5
tp1085
a(S'mask'
p1086
S'mask'
p1087
S'NN'
p1088
S'I-NP'
p1089
g5
tp1090
a(g93
g93
g93
g5
g5
tp1091
a(S'1.70'
p1092
S'1.70'
p1093
S'CD'
p1094
S'B-NP'
p1095
g5
tp1096
a(g249
g249
g249
g5
g5
tp1097
a(S'IQR'
p1098
S'IQR'
p1099
S'NN'
p1100
S'B-NP'
p1101
g5
tp1102
a(g1061
g1061
S'SYM'
p1103
S'B-VP'
p1104
g5
tp1105
a(S'4.04'
p1106
S'4.04'
p1107
S'CD'
p1108
S'B-NP'
p1109
g5
tp1110
a(g257
g257
g257
g5
g5
tp1111
a(S'for'
p1112
S'for'
p1113
S'IN'
p1114
S'B-PP'
p1115
g5
tp1116
a(S'oronasal'
p1117
S'oronasal'
p1118
S'JJ'
p1119
S'B-NP'
p1120
g5
tp1121
a(S'mask'
p1122
S'mask'
p1123
S'NN'
p1124
S'I-NP'
p1125
g5
tp1126
a(g590
g590
S'CD'
p1127
S'I-NP'
p1128
g5
tp1129
a(g93
g93
g93
g5
g5
tp1130
a(S'and'
p1131
S'and'
p1132
S'CC'
p1133
g5
g5
tp1134
a(S'2.48'
p1135
S'2.48'
p1136
S'CD'
p1137
S'B-NP'
p1138
g5
tp1139
a(g249
g249
g249
g5
g5
tp1140
a(S'IQR'
p1141
S'IQR'
p1142
S'NN'
p1143
S'B-NP'
p1144
g5
tp1145
a(g1061
g1061
S'SYM'
p1146
S'B-VP'
p1147
g5
tp1148
a(S'3.74'
p1149
S'3.74'
p1150
S'CD'
p1151
S'B-NP'
p1152
g5
tp1153
a(g257
g257
g257
g5
g5
tp1154
a(S'for'
p1155
S'for'
p1156
S'IN'
p1157
S'B-PP'
p1158
g5
tp1159
a(S'oronasal'
p1160
S'oronasal'
p1161
S'JJ'
p1162
S'B-NP'
p1163
g5
tp1164
a(S'mask'
p1165
S'mask'
p1166
S'NN'
p1167
S'I-NP'
p1168
g5
tp1169
a(g875
g875
S'CD'
p1170
S'I-NP'
p1171
g5
tp1172
a(g249
g249
g249
g5
g5
tp1173
a(g1004
g1004
S'NN'
p1174
S'B-NP'
p1175
g5
tp1176
a(g1061
g1061
S'SYM'
p1177
S'B-VP'
p1178
g5
tp1179
a(S'0.03'
p1180
S'0.03'
p1181
S'CD'
p1182
S'B-NP'
p1183
g5
tp1184
a(g257
g257
g257
g5
g5
tp1185
a(g115
g115
g115
g5
g5
tp1186
a(S'The'
p1187
S'The'
p1188
S'DT'
p1189
S'B-NP'
p1190
g5
tp1191
a(S'95th'
p1192
S'95th'
p1193
S'JJ'
p1194
S'I-NP'
p1195
g5
tp1196
a(S'percentile'
p1197
S'percentile'
p1198
S'NN'
p1199
S'I-NP'
p1200
g5
tp1201
a(S'leak'
p1202
S'leak'
p1203
S'NN'
p1204
S'I-NP'
p1205
g5
tp1206
a(S'was'
p1207
S'be'
p1208
S'VBD'
p1209
S'B-VP'
p1210
g5
tp1211
a(S'lowest'
p1212
S'low'
p1213
S'JJS'
p1214
S'B-ADJP'
p1215
g5
tp1216
a(S'with'
p1217
S'with'
p1218
S'IN'
p1219
S'B-PP'
p1220
g5
tp1221
a(S'the'
p1222
S'the'
p1223
S'DT'
p1224
S'B-NP'
p1225
g5
tp1226
a(S'nasal'
p1227
S'nasal'
p1228
S'JJ'
p1229
S'I-NP'
p1230
g5
tp1231
a(S'mask'
p1232
S'mask'
p1233
S'NN'
p1234
S'I-NP'
p1235
g5
tp1236
a(S'during'
p1237
S'during'
p1238
S'IN'
p1239
S'B-PP'
p1240
g5
tp1241
a(S'both'
p1242
S'both'
p1243
S'CC'
p1244
g5
g5
tp1245
a(S'CPAP'
p1246
S'CPAP'
p1247
S'NN'
p1248
S'B-NP'
p1249
S'B-protein'
p1250
tp1251
a(S'and'
p1252
S'and'
p1253
S'CC'
p1254
g5
g5
tp1255
a(S'auto-PAP'
p1256
S'auto-PAP'
p1257
S'NN'
p1258
S'B-NP'
p1259
S'B-protein'
p1260
tp1261
a(g249
g249
g249
g5
g5
tp1262
a(S'both'
p1263
S'both'
p1264
S'CC'
p1265
g5
g5
tp1266
a(g1004
g1004
S'NN'
p1267
S'B-NP'
p1268
g5
tp1269
a(S'<'
p1270
g1270
S'SYM'
p1271
g5
g5
tp1272
a(S'0.01'
p1273
S'0.01'
p1274
S'CD'
p1275
S'B-NP'
p1276
g5
tp1277
a(g257
g257
g257
g5
g5
tp1278
a(g115
g115
g115
g5
g5
tp1279
a(S'Differences'
p1280
S'Difference'
p1281
S'NNS'
p1282
S'B-NP'
p1283
g5
tp1284
a(S'in'
p1285
S'in'
p1286
S'IN'
p1287
S'B-PP'
p1288
g5
tp1289
a(S'pressure'
p1290
S'pressure'
p1291
S'NN'
p1292
S'B-NP'
p1293
g5
tp1294
a(S'or'
p1295
S'or'
p1296
S'CC'
p1297
g5
g5
tp1298
a(S'residual'
p1299
S'residual'
p1300
S'JJ'
p1301
S'B-NP'
p1302
g5
tp1303
a(S'disease'
p1304
S'disease'
p1305
S'NN'
p1306
S'I-NP'
p1307
g5
tp1308
a(S'were'
p1309
S'be'
p1310
S'VBD'
p1311
S'B-VP'
p1312
g5
tp1313
a(S'not'
p1314
S'not'
p1315
S'RB'
p1316
g5
g5
tp1317
a(S'related'
p1318
S'related'
p1319
S'JJ'
p1320
S'B-ADJP'
p1321
g5
tp1322
a(S'to'
p1323
S'to'
p1324
S'TO'
p1325
S'B-PP'
p1326
g5
tp1327
a(S'measures'
p1328
S'measure'
p1329
S'NNS'
p1330
S'B-NP'
p1331
g5
tp1332
a(S'of'
p1333
S'of'
p1334
S'IN'
p1335
S'B-PP'
p1336
g5
tp1337
a(S'upper'
p1338
S'upper'
p1339
S'JJ'
p1340
S'B-NP'
p1341
g5
tp1342
a(S'airway'
p1343
S'airway'
p1344
S'NN'
p1345
S'I-NP'
p1346
g5
tp1347
a(S'shape'
p1348
S'shape'
p1349
S'NN'
p1350
S'I-NP'
p1351
g5
tp1352
a(S'or'
p1353
S'or'
p1354
S'CC'
p1355
g5
g5
tp1356
a(S'body'
p1357
S'body'
p1358
S'NN'
p1359
S'B-NP'
p1360
g5
tp1361
a(S'habitus'
p1362
S'habitus'
p1363
S'NN'
p1364
S'I-NP'
p1365
g5
tp1366
a(g115
g115
g115
g5
g5
tp1367
a(S'CONCLUSIONS'
p1368
S'CONCLUSIONS'
p1369
S'NNS'
p1370
S'B-NP'
p1371
g5
tp1372
a(S'In'
p1373
S'In'
p1374
S'IN'
p1375
S'B-PP'
p1376
g5
tp1377
a(S'obese'
p1378
S'obese'
p1379
S'JJ'
p1380
S'B-NP'
p1381
g5
tp1382
a(S'OSA'
p1383
S'OSA'
p1384
S'NN'
p1385
S'I-NP'
p1386
g5
tp1387
a(S'patients'
p1388
S'patient'
p1389
S'NNS'
p1390
S'I-NP'
p1391
g5
tp1392
a(S'changing'
p1393
S'change'
p1394
S'VBG'
p1395
S'B-VP'
p1396
g5
tp1397
a(S'from'
p1398
S'from'
p1399
S'IN'
p1400
S'B-PP'
p1401
g5
tp1402
a(g64
g64
S'DT'
p1403
S'B-NP'
p1404
g5
tp1405
a(S'nasal'
p1406
S'nasal'
p1407
S'JJ'
p1408
S'I-NP'
p1409
g5
tp1410
a(S'to'
p1411
S'to'
p1412
S'TO'
p1413
S'B-PP'
p1414
g5
tp1415
a(S'oronasal'
p1416
S'oronasal'
p1417
S'JJ'
p1418
S'B-NP'
p1419
g5
tp1420
a(S'mask'
p1421
S'mask'
p1422
S'NN'
p1423
S'I-NP'
p1424
g5
tp1425
a(S'increased'
p1426
S'increase'
p1427
S'VBD'
p1428
S'B-VP'
p1429
g5
tp1430
a(S'leak'
p1431
S'leak'
p1432
S'NN'
p1433
S'B-NP'
p1434
g5
tp1435
a(S'and'
p1436
S'and'
p1437
S'CC'
p1438
g5
g5
tp1439
a(S'residual'
p1440
S'residual'
p1441
S'JJ'
p1442
S'B-NP'
p1443
g5
tp1444
a(S'AHI'
p1445
S'AHI'
p1446
S'NN'
p1447
S'I-NP'
p1448
g5
tp1449
a(S'but'
p1450
S'but'
p1451
S'CC'
p1452
g5
g5
tp1453
a(S'did'
p1454
S'do'
p1455
S'VBD'
p1456
S'B-VP'
p1457
g5
tp1458
a(S'not'
p1459
S'not'
p1460
S'RB'
p1461
S'I-VP'
p1462
g5
tp1463
a(S'affect'
p1464
S'affect'
p1465
S'VB'
p1466
S'I-VP'
p1467
g5
tp1468
a(S'the'
p1469
S'the'
p1470
S'DT'
p1471
S'B-NP'
p1472
g5
tp1473
a(S'therapeutic'
p1474
S'therapeutic'
p1475
S'JJ'
p1476
S'I-NP'
p1477
g5
tp1478
a(S'pressure'
p1479
S'pressure'
p1480
S'NN'
p1481
S'I-NP'
p1482
g5
tp1483
a(S'requirement.'
p1484
S'requirement.'
p1485
S'VB'
p1486
S'B-VP'
p1487
g5
tp1488
a(S'The'
p1489
S'The'
p1490
S'DT'
p1491
S'B-NP'
p1492
g5
tp1493
a(S'findings'
p1494
S'finding'
p1495
S'NNS'
p1496
S'I-NP'
p1497
g5
tp1498
a(S'of'
p1499
S'of'
p1500
S'IN'
p1501
S'B-PP'
p1502
g5
tp1503
a(S'the'
p1504
S'the'
p1505
S'DT'
p1506
S'B-NP'
p1507
g5
tp1508
a(S'current'
p1509
S'current'
p1510
S'JJ'
p1511
S'I-NP'
p1512
g5
tp1513
a(S'study'
p1514
S'study'
p1515
S'NN'
p1516
S'I-NP'
p1517
g5
tp1518
a(S'highlight'
p1519
S'highlight'
p1520
S'NN'
p1521
S'I-NP'
p1522
g5
tp1523
a(S'mask'
p1524
S'mask'
p1525
S'NN'
p1526
S'I-NP'
p1527
g5
tp1528
a(S'leak'
p1529
S'leak'
p1530
S'NN'
p1531
S'I-NP'
p1532
g5
tp1533
a(S'as'
p1534
S'as'
p1535
S'IN'
p1536
S'B-PP'
p1537
g5
tp1538
a(S'the'
p1539
S'the'
p1540
S'DT'
p1541
S'B-NP'
p1542
g5
tp1543
a(S'major'
p1544
S'major'
p1545
S'JJ'
p1546
S'I-NP'
p1547
g5
tp1548
a(S'difficulty'
p1549
S'difficulty'
p1550
S'NN'
p1551
S'I-NP'
p1552
g5
tp1553
a(S'in'
p1554
S'in'
p1555
S'IN'
p1556
S'B-PP'
p1557
g5
tp1558
a(S'the'
p1559
S'the'
p1560
S'DT'
p1561
S'B-NP'
p1562
g5
tp1563
a(S'use'
p1564
S'use'
p1565
S'NN'
p1566
S'I-NP'
p1567
g5
tp1568
a(S'of'
p1569
S'of'
p1570
S'IN'
p1571
S'B-PP'
p1572
g5
tp1573
a(S'oronasal'
p1574
S'oronasal'
p1575
S'JJ'
p1576
S'B-NP'
p1577
g5
tp1578
a(S'masks'
p1579
S'mask'
p1580
S'NNS'
p1581
S'I-NP'
p1582
g5
tp1583
a(g115
g115
g115
g5
g5
tp1584
a.