(lp0
(S'Intestinal'
p1
S'Intestinal'
p2
S'JJ'
p3
S'B-NP'
p4
S'O'
p5
tp6
a(S'absorption'
p7
S'absorption'
p8
S'NN'
p9
S'I-NP'
p10
g5
tp11
a(S'of'
p12
S'of'
p13
S'IN'
p14
S'B-PP'
p15
g5
tp16
a(S'dietary'
p17
S'dietary'
p18
S'JJ'
p19
S'B-NP'
p20
g5
tp21
a(S'fat'
p22
S'fat'
p23
S'NN'
p24
S'I-NP'
p25
g5
tp26
a(S'in'
p27
S'in'
p28
S'IN'
p29
S'B-PP'
p30
g5
tp31
a(S'patients'
p32
S'patient'
p33
S'NNS'
p34
S'B-NP'
p35
g5
tp36
a(S'with'
p37
S'with'
p38
S'IN'
p39
S'B-PP'
p40
g5
tp41
a(S'multiple'
p42
S'multiple'
p43
S'JJ'
p44
S'B-NP'
p45
g5
tp46
a(S'sclerosis'
p47
S'sclerosis'
p48
S'NN'
p49
S'I-NP'
p50
g5
tp51
a(S'.'
p52
g52
g52
g5
g5
tp53
a(S'Fat'
p54
S'Fat'
p55
S'NN'
p56
S'B-NP'
p57
g5
tp58
a(S'absorption'
p59
S'absorption'
p60
S'NN'
p61
S'I-NP'
p62
g5
tp63
a(S'was'
p64
S'be'
p65
S'VBD'
p66
S'B-VP'
p67
g5
tp68
a(S'studied'
p69
S'study'
p70
S'VBN'
p71
S'I-VP'
p72
g5
tp73
a(S'in'
p74
S'in'
p75
S'IN'
p76
S'B-PP'
p77
g5
tp78
a(S'24'
p79
S'24'
p80
S'CD'
p81
S'B-NP'
p82
g5
tp83
a(S'patients'
p84
S'patient'
p85
S'NNS'
p86
S'I-NP'
p87
g5
tp88
a(S'with'
p89
S'with'
p90
S'IN'
p91
S'B-PP'
p92
g5
tp93
a(S'clinically'
p94
S'clinically'
p95
S'RB'
p96
S'B-NP'
p97
g5
tp98
a(S'definite'
p99
S'definite'
p100
S'JJ'
p101
S'I-NP'
p102
g5
tp103
a(S'multiple'
p104
S'multiple'
p105
S'JJ'
p106
S'I-NP'
p107
g5
tp108
a(S'sclerosis'
p109
S'sclerosis'
p110
S'NN'
p111
S'I-NP'
p112
g5
tp113
a(S'and'
p114
S'and'
p115
S'CC'
p116
g5
g5
tp117
a(S'in'
p118
S'in'
p119
S'IN'
p120
S'B-PP'
p121
g5
tp122
a(S'36'
p123
S'36'
p124
S'CD'
p125
S'B-NP'
p126
g5
tp127
a(S'healthy'
p128
S'healthy'
p129
S'JJ'
p130
S'I-NP'
p131
g5
tp132
a(S'control'
p133
S'control'
p134
S'NN'
p135
S'I-NP'
p136
g5
tp137
a(S'subjects.'
p138
S'subjects.'
p139
S'NN'
p140
S'I-NP'
p141
g5
tp142
a(S'Beta-carotene'
p143
S'Beta-carotene'
p144
S'NN'
p145
S'I-NP'
p146
g5
tp147
a(S'and'
p148
S'and'
p149
S'CC'
p150
g5
g5
tp151
a(S'vitamin'
p152
S'vitamin'
p153
S'NN'
p154
S'B-NP'
p155
g5
tp156
a(S'A'
p157
g157
S'NN'
p158
S'I-NP'
p159
g5
tp160
a(S'in'
p161
S'in'
p162
S'IN'
p163
S'B-PP'
p164
g5
tp165
a(S'their'
p166
S'their'
p167
S'PRP$'
p168
S'B-NP'
p169
g5
tp170
a(S'plasma'
p171
S'plasma'
p172
S'NN'
p173
S'I-NP'
p174
g5
tp175
a(S'were'
p176
S'be'
p177
S'VBD'
p178
S'B-VP'
p179
g5
tp180
a(S'also'
p181
S'also'
p182
S'RB'
p183
S'I-VP'
p184
g5
tp185
a(S'measured.'
p186
S'measured.'
p187
S'VBN'
p188
S'I-VP'
p189
g5
tp190
a(S'This'
p191
S'This'
p192
S'DT'
p193
S'B-NP'
p194
g5
tp195
a(S'double-blind'
p196
S'double-blind'
p197
S'JJ'
p198
S'I-NP'
p199
g5
tp200
a(S'and'
p201
S'and'
p202
S'CC'
p203
S'I-NP'
p204
g5
tp205
a(S'randomized'
p206
S'randomize'
p207
S'VBN'
p208
S'I-NP'
p209
g5
tp210
a(S'study'
p211
S'study'
p212
S'NN'
p213
S'I-NP'
p214
g5
tp215
a(S'showed'
p216
S'show'
p217
S'VBD'
p218
S'B-VP'
p219
g5
tp220
a(S'no'
p221
S'no'
p222
S'DT'
p223
S'B-NP'
p224
g5
tp225
a(S'differences'
p226
S'difference'
p227
S'NNS'
p228
S'I-NP'
p229
g5
tp230
a(S'between'
p231
S'between'
p232
S'IN'
p233
S'B-PP'
p234
g5
tp235
a(S'these'
p236
S'these'
p237
S'DT'
p238
S'B-NP'
p239
g5
tp240
a(S'two'
p241
S'two'
p242
S'CD'
p243
S'I-NP'
p244
g5
tp245
a(S'populations'
p246
S'population'
p247
S'NNS'
p248
S'I-NP'
p249
g5
tp250
a(S'with'
p251
S'with'
p252
S'IN'
p253
S'B-PP'
p254
g5
tp255
a(S'regard'
p256
S'regard'
p257
S'NN'
p258
S'B-NP'
p259
g5
tp260
a(S'to'
p261
S'to'
p262
S'TO'
p263
S'B-PP'
p264
g5
tp265
a(S'the'
p266
S'the'
p267
S'DT'
p268
S'B-NP'
p269
g5
tp270
a(S'three'
p271
S'three'
p272
S'CD'
p273
S'I-NP'
p274
g5
tp275
a(S'parameters.'
p276
S'parameters.'
p277
S'NN'
p278
S'I-NP'
p279
g5
tp280
a(S'We'
p281
S'We'
p282
S'PRP'
p283
S'B-NP'
p284
g5
tp285
a(S'did'
p286
S'do'
p287
S'VBD'
p288
S'B-VP'
p289
g5
tp290
a(S'not'
p291
S'not'
p292
S'RB'
p293
S'I-VP'
p294
g5
tp295
a(S'find'
p296
S'find'
p297
S'VB'
p298
S'I-VP'
p299
g5
tp300
a(S'evidence'
p301
S'evidence'
p302
S'NN'
p303
S'B-NP'
p304
g5
tp305
a(S'for'
p306
S'for'
p307
S'IN'
p308
S'B-PP'
p309
g5
tp310
a(S'fat'
p311
S'fat'
p312
S'JJ'
p313
S'B-NP'
p314
g5
tp315
a(S'malabsorption'
p316
S'malabsorption'
p317
S'NN'
p318
S'I-NP'
p319
g5
tp320
a(S'in'
p321
S'in'
p322
S'IN'
p323
S'B-PP'
p324
g5
tp325
a(S'multiple'
p326
S'multiple'
p327
S'JJ'
p328
S'B-NP'
p329
g5
tp330
a(S'sclerosis'
p331
S'sclerosis'
p332
S'NN'
p333
S'I-NP'
p334
g5
tp335
a(g52
g52
g52
g5
g5
tp336
a.