(lp0
(S'A'
p1
g1
S'DT'
p2
S'B-NP'
p3
S'O'
p4
tp5
a(S'prospective'
p6
S'prospective'
p7
S'JJ'
p8
S'I-NP'
p9
g4
tp10
a(S','
p11
g11
g11
S'I-NP'
p12
g4
tp13
a(S'placebo-controlled'
p14
S'placebo-controlled'
p15
S'JJ'
p16
S'I-NP'
p17
g4
tp18
a(g11
g11
g11
S'I-NP'
p19
g4
tp20
a(S'randomized'
p21
S'randomize'
p22
S'VBN'
p23
S'I-NP'
p24
g4
tp25
a(S'trial'
p26
S'trial'
p27
S'NN'
p28
S'I-NP'
p29
g4
tp30
a(S'of'
p31
S'of'
p32
S'IN'
p33
S'B-PP'
p34
g4
tp35
a(S'intravenous'
p36
S'intravenous'
p37
S'JJ'
p38
S'B-NP'
p39
S'B-protein'
p40
tp41
a(S'streptokinase'
p42
S'streptokinase'
p43
S'NN'
p44
S'I-NP'
p45
S'I-protein'
p46
tp47
a(S'and'
p48
S'and'
p49
S'CC'
p50
g4
g4
tp51
a(S'angioplasty'
p52
S'angioplasty'
p53
S'JJ'
p54
S'B-ADJP'
p55
g4
tp56
a(S'versus'
p57
S'versus'
p58
S'IN'
p59
S'B-PP'
p60
g4
tp61
a(S'lone'
p62
S'lone'
p63
S'JJ'
p64
S'B-NP'
p65
g4
tp66
a(S'angioplasty'
p67
S'angioplasty'
p68
S'JJ'
p69
S'I-NP'
p70
g4
tp71
a(S'therapy'
p72
S'therapy'
p73
S'NN'
p74
S'I-NP'
p75
g4
tp76
a(S'of'
p77
S'of'
p78
S'IN'
p79
S'B-PP'
p80
g4
tp81
a(S'acute'
p82
S'acute'
p83
S'JJ'
p84
S'B-NP'
p85
g4
tp86
a(S'myocardial'
p87
S'myocardial'
p88
S'JJ'
p89
S'I-NP'
p90
g4
tp91
a(S'infarction'
p92
S'infarction'
p93
S'NN'
p94
S'I-NP'
p95
g4
tp96
a(S'.'
p97
g97
g97
g4
g4
tp98
a(S'BACKGROUND'
p99
S'BACKGROUND'
p100
S'NN'
p101
S'B-NP'
p102
g4
tp103
a(S'The'
p104
S'The'
p105
S'DT'
p106
S'B-NP'
p107
g4
tp108
a(S'value'
p109
S'value'
p110
S'NN'
p111
S'I-NP'
p112
g4
tp113
a(S'of'
p114
S'of'
p115
S'IN'
p116
S'B-PP'
p117
g4
tp118
a(S'routine'
p119
S'routine'
p120
S'JJ'
p121
S'B-NP'
p122
g4
tp123
a(S'administration'
p124
S'administration'
p125
S'NN'
p126
S'I-NP'
p127
g4
tp128
a(S'of'
p129
S'of'
p130
S'IN'
p131
S'B-PP'
p132
g4
tp133
a(S'intravenous'
p134
S'intravenous'
p135
S'JJ'
p136
S'B-NP'
p137
g4
tp138
a(S'thrombolytic'
p139
S'thrombolytic'
p140
S'JJ'
p141
S'I-NP'
p142
g4
tp143
a(S'agents'
p144
S'agent'
p145
S'NNS'
p146
S'I-NP'
p147
g4
tp148
a(S'during'
p149
S'during'
p150
S'IN'
p151
S'B-PP'
p152
g4
tp153
a(S'percutaneous'
p154
S'percutaneous'
p155
S'JJ'
p156
S'B-NP'
p157
g4
tp158
a(S'transluminal'
p159
S'transluminal'
p160
S'JJ'
p161
S'I-NP'
p162
g4
tp163
a(S'coronary'
p164
S'coronary'
p165
S'JJ'
p166
S'I-NP'
p167
g4
tp168
a(S'angioplasty'
p169
S'angioplasty'
p170
S'NN'
p171
S'I-NP'
p172
g4
tp173
a(S'('
p174
g174
g174
g4
g4
tp175
a(S'PTCA'
p176
S'PTCA'
p177
S'NN'
p178
S'B-NP'
p179
g4
tp180
a(S')'
p181
g181
g181
g4
g4
tp182
a(S'therapy'
p183
S'therapy'
p184
S'NN'
p185
S'B-NP'
p186
g4
tp187
a(S'of'
p188
S'of'
p189
S'IN'
p190
S'B-PP'
p191
g4
tp192
a(S'acute'
p193
S'acute'
p194
S'JJ'
p195
S'B-NP'
p196
g4
tp197
a(S'myocardial'
p198
S'myocardial'
p199
S'JJ'
p200
S'I-NP'
p201
g4
tp202
a(S'infarction'
p203
S'infarction'
p204
S'NN'
p205
S'I-NP'
p206
g4
tp207
a(g174
g174
g174
g4
g4
tp208
a(S'MI'
p209
S'MI'
p210
S'NN'
p211
S'B-NP'
p212
g4
tp213
a(g181
g181
g181
g4
g4
tp214
a(S'has'
p215
S'have'
p216
S'VBZ'
p217
S'B-VP'
p218
g4
tp219
a(S'not'
p220
S'not'
p221
S'RB'
p222
S'I-VP'
p223
g4
tp224
a(S'been'
p225
S'be'
p226
S'VBN'
p227
S'I-VP'
p228
g4
tp229
a(S'determined.'
p230
S'determined.'
p231
S'VBN'
p232
S'I-VP'
p233
g4
tp234
a(S'Therefore'
p235
S'Therefore'
p236
S'RB'
p237
S'B-ADVP'
p238
g4
tp239
a(g11
g11
g11
g4
g4
tp240
a(S'we'
p241
S'we'
p242
S'PRP'
p243
S'B-NP'
p244
g4
tp245
a(S'prospectively'
p246
S'prospectively'
p247
S'RB'
p248
S'B-ADVP'
p249
g4
tp250
a(S'randomized'
p251
S'randomize'
p252
S'VBD'
p253
S'B-VP'
p254
g4
tp255
a(S'122'
p256
S'122'
p257
S'CD'
p258
S'B-NP'
p259
g4
tp260
a(S'patients'
p261
S'patient'
p262
S'NNS'
p263
S'I-NP'
p264
g4
tp265
a(S'with'
p266
S'with'
p267
S'IN'
p268
S'B-PP'
p269
g4
tp270
a(S'evolving'
p271
S'evolve'
p272
S'VBG'
p273
S'B-VP'
p274
g4
tp275
a(S'MI'
p276
S'MI'
p277
S'NN'
p278
S'B-NP'
p279
g4
tp280
a(S'to'
p281
S'to'
p282
S'TO'
p283
S'B-PP'
p284
g4
tp285
a(S'PTCA'
p286
S'PTCA'
p287
S'NN'
p288
S'B-NP'
p289
g4
tp290
a(S'therapy'
p291
S'therapy'
p292
S'NN'
p293
S'I-NP'
p294
g4
tp295
a(S'with'
p296
S'with'
p297
S'IN'
p298
S'B-PP'
p299
g4
tp300
a(S'or'
p301
S'or'
p302
S'CC'
p303
S'B-PP'
p304
g4
tp305
a(S'without'
p306
S'without'
p307
S'IN'
p308
S'B-PP'
p309
g4
tp310
a(S'adjunctive'
p311
S'adjunctive'
p312
S'JJ'
p313
S'B-NP'
p314
g4
tp315
a(S'intravenous'
p316
S'intravenous'
p317
S'JJ'
p318
S'I-NP'
p319
g4
tp320
a(S'streptokinase'
p321
S'streptokinase'
p322
S'NN'
p323
S'I-NP'
p324
g4
tp325
a(S'therapy'
p326
S'therapy'
p327
S'NN'
p328
S'I-NP'
p329
g4
tp330
a(g97
g97
g97
g4
g4
tp331
a(S'METHODS'
p332
S'METHODS'
p333
S'NNS'
p334
S'B-NP'
p335
g4
tp336
a(S'AND'
p337
S'AND'
p338
S'CC'
p339
S'I-NP'
p340
g4
tp341
a(S'RESULTS'
p342
S'RESULTS'
p343
S'NNS'
p344
S'I-NP'
p345
g4
tp346
a(S'Patients'
p347
S'Patient'
p348
S'NNS'
p349
S'I-NP'
p350
g4
tp351
a(S'with'
p352
S'with'
p353
S'IN'
p354
S'B-PP'
p355
g4
tp356
a(S'ECG'
p357
S'ECG'
p358
S'NN'
p359
S'B-NP'
p360
g4
tp361
a(S'ST'
p362
S'ST'
p363
S'NN'
p364
S'I-NP'
p365
g4
tp366
a(S'segment'
p367
S'segment'
p368
S'NN'
p369
S'I-NP'
p370
g4
tp371
a(S'elevation'
p372
S'elevation'
p373
S'NN'
p374
S'I-NP'
p375
g4
tp376
a(S'who'
p377
S'who'
p378
S'WP'
p379
S'B-NP'
p380
g4
tp381
a(S'presented'
p382
S'present'
p383
S'VBD'
p384
S'B-VP'
p385
g4
tp386
a(S'within'
p387
S'within'
p388
S'IN'
p389
S'B-PP'
p390
g4
tp391
a(S'4'
p392
g392
S'CD'
p393
S'B-NP'
p394
g4
tp395
a(S'hours'
p396
S'hour'
p397
S'NNS'
p398
S'I-NP'
p399
g4
tp400
a(S'of'
p401
S'of'
p402
S'IN'
p403
S'B-PP'
p404
g4
tp405
a(S'symptom'
p406
S'symptom'
p407
S'NN'
p408
S'B-NP'
p409
g4
tp410
a(S'onset'
p411
S'onset'
p412
S'NN'
p413
S'I-NP'
p414
g4
tp415
a(g11
g11
g11
g4
g4
tp416
a(S'had'
p417
S'have'
p418
S'VBD'
p419
S'B-VP'
p420
g4
tp421
a(S'no'
p422
S'no'
p423
S'DT'
p424
S'B-NP'
p425
g4
tp426
a(S'contraindication'
p427
S'contraindication'
p428
S'NN'
p429
S'I-NP'
p430
g4
tp431
a(S'to'
p432
S'to'
p433
S'TO'
p434
S'B-PP'
p435
g4
tp436
a(S'thrombolytic'
p437
S'thrombolytic'
p438
S'JJ'
p439
S'B-NP'
p440
g4
tp441
a(S'therapy'
p442
S'therapy'
p443
S'NN'
p444
S'I-NP'
p445
g4
tp446
a(g11
g11
g11
g4
g4
tp447
a(S'and'
p448
S'and'
p449
S'CC'
p450
g4
g4
tp451
a(S'were'
p452
S'be'
p453
S'VBD'
p454
S'B-VP'
p455
g4
tp456
a(S'not'
p457
S'not'
p458
S'RB'
p459
g4
g4
tp460
a(S'in'
p461
S'in'
p462
S'IN'
p463
S'B-PP'
p464
g4
tp465
a(S'cardiogenic'
p466
S'cardiogenic'
p467
S'JJ'
p468
S'B-NP'
p469
g4
tp470
a(S'shock'
p471
S'shock'
p472
S'NN'
p473
S'I-NP'
p474
g4
tp475
a(S'were'
p476
S'be'
p477
S'VBD'
p478
S'B-VP'
p479
g4
tp480
a(S'enrolled.'
p481
S'enrolled.'
p482
S'FW'
p483
S'B-NP'
p484
g4
tp485
a(S'They'
p486
S'They'
p487
S'PRP'
p488
S'B-NP'
p489
g4
tp490
a(S'were'
p491
S'be'
p492
S'VBD'
p493
S'B-VP'
p494
g4
tp495
a(S'treated'
p496
S'treat'
p497
S'VBN'
p498
S'I-VP'
p499
g4
tp500
a(S'immediately'
p501
S'immediately'
p502
S'RB'
p503
S'B-ADVP'
p504
g4
tp505
a(S'with'
p506
S'with'
p507
S'IN'
p508
S'B-PP'
p509
g4
tp510
a(S'intravenous'
p511
S'intravenous'
p512
S'JJ'
p513
S'B-NP'
p514
g4
tp515
a(S'heparin'
p516
S'heparin'
p517
S'NN'
p518
S'I-NP'
p519
g4
tp520
a(g174
g174
g174
g4
g4
tp521
a(S'10'
p522
S'10'
p523
S'CD'
p524
S'B-NP'
p525
g4
tp526
a(g11
g11
g11
g4
g4
tp527
a(S'000'
p528
S'000'
p529
S'CD'
p530
S'B-NP'
p531
g4
tp532
a(S'units'
p533
S'unit'
p534
S'NNS'
p535
S'I-NP'
p536
g4
tp537
a(g181
g181
g181
g4
g4
tp538
a(S'and'
p539
S'and'
p540
S'CC'
p541
g4
g4
tp542
a(S'oral'
p543
S'oral'
p544
S'JJ'
p545
S'B-NP'
p546
g4
tp547
a(S'aspirin'
p548
S'aspirin'
p549
S'NN'
p550
S'I-NP'
p551
g4
tp552
a(g174
g174
g174
g4
g4
tp553
a(S'325'
p554
S'325'
p555
S'CD'
p556
S'B-NP'
p557
g4
tp558
a(S'mg'
p559
S'mg'
p560
S'NN'
p561
S'I-NP'
p562
g4
tp563
a(g181
g181
g181
g4
g4
tp564
a(S'and'
p565
S'and'
p566
S'CC'
p567
g4
g4
tp568
a(S'randomized'
p569
S'randomize'
p570
S'VBN'
p571
S'B-VP'
p572
g4
tp573
a(S'to'
p574
S'to'
p575
S'TO'
p576
S'B-PP'
p577
g4
tp578
a(S'treatment'
p579
S'treatment'
p580
S'NN'
p581
S'B-NP'
p582
g4
tp583
a(S'with'
p584
S'with'
p585
S'IN'
p586
S'B-PP'
p587
g4
tp588
a(S'placebo'
p589
S'placebo'
p590
S'NN'
p591
S'B-NP'
p592
g4
tp593
a(S'or'
p594
S'or'
p595
S'CC'
p596
S'I-NP'
p597
g4
tp598
a(S'streptokinase'
p599
S'streptokinase'
p600
S'NN'
p601
S'I-NP'
p602
S'B-protein'
p603
tp604
a(g174
g174
g174
g4
g4
tp605
a(S'1.5'
p606
S'1.5'
p607
S'CD'
p608
S'B-NP'
p609
g4
tp610
a(S'M'
p611
g611
S'NN'
p612
S'I-NP'
p613
g4
tp614
a(S'units'
p615
S'unit'
p616
S'NNS'
p617
S'I-NP'
p618
g4
tp619
a(g181
g181
g181
g4
g4
tp620
a(S'administered'
p621
S'administer'
p622
S'VBN'
p623
S'B-VP'
p624
g4
tp625
a(S'intravenously'
p626
S'intravenously'
p627
S'RB'
p628
S'B-ADVP'
p629
g4
tp630
a(S'over'
p631
S'over'
p632
S'IN'
p633
S'B-NP'
p634
g4
tp635
a(S'30'
p636
S'30'
p637
S'CD'
p638
S'I-NP'
p639
g4
tp640
a(S'minutes.'
p641
S'minutes.'
p642
S'NNS'
p643
S'I-NP'
p644
g4
tp645
a(S'Patients'
p646
S'Patient'
p647
S'NNS'
p648
S'I-NP'
p649
g4
tp650
a(S'then'
p651
S'then'
p652
S'RB'
p653
S'B-ADVP'
p654
g4
tp655
a(S'were'
p656
S'be'
p657
S'VBD'
p658
S'B-VP'
p659
g4
tp660
a(S'taken'
p661
S'take'
p662
S'VBN'
p663
S'I-VP'
p664
g4
tp665
a(S'immediately'
p666
S'immediately'
p667
S'RB'
p668
S'B-ADVP'
p669
g4
tp670
a(S'to'
p671
S'to'
p672
S'TO'
p673
S'B-PP'
p674
g4
tp675
a(S'the'
p676
S'the'
p677
S'DT'
p678
S'B-NP'
p679
g4
tp680
a(S'catheterization'
p681
S'catheterization'
p682
S'NN'
p683
S'I-NP'
p684
g4
tp685
a(S'laboratory'
p686
S'laboratory'
p687
S'NN'
p688
S'I-NP'
p689
g4
tp690
a(g11
g11
g11
g4
g4
tp691
a(S'and'
p692
S'and'
p693
S'CC'
p694
g4
g4
tp695
a(S'those'
p696
S'those'
p697
S'DT'
p698
S'B-NP'
p699
g4
tp700
a(S'with'
p701
S'with'
p702
S'IN'
p703
S'B-PP'
p704
g4
tp705
a(S'suitable'
p706
S'suitable'
p707
S'JJ'
p708
S'B-NP'
p709
g4
tp710
a(S'coronary'
p711
S'coronary'
p712
S'JJ'
p713
S'I-NP'
p714
g4
tp715
a(S'anatomy'
p716
S'anatomy'
p717
S'NN'
p718
S'I-NP'
p719
g4
tp720
a(S'underwent'
p721
S'undergo'
p722
S'VBD'
p723
S'B-VP'
p724
g4
tp725
a(S'immediate'
p726
S'immediate'
p727
S'JJ'
p728
S'B-NP'
p729
g4
tp730
a(S'PTCA.'
p731
S'PTCA.'
p732
S'NN'
p733
S'I-NP'
p734
g4
tp735
a(S'Subsequent'
p736
S'Subsequent'
p737
S'JJ'
p738
S'I-NP'
p739
g4
tp740
a(S'clinical'
p741
S'clinical'
p742
S'JJ'
p743
S'I-NP'
p744
g4
tp745
a(S'course'
p746
S'course'
p747
S'NN'
p748
S'I-NP'
p749
g4
tp750
a(g11
g11
g11
g4
g4
tp751
a(S'serial'
p752
S'serial'
p753
S'JJ'
p754
S'B-NP'
p755
g4
tp756
a(S'radionuclide'
p757
S'radionuclide'
p758
S'NN'
p759
S'I-NP'
p760
g4
tp761
a(S'ventriculography'
p762
S'ventriculography'
p763
S'NN'
p764
S'I-NP'
p765
g4
tp766
a(g11
g11
g11
g4
g4
tp767
a(S'and'
p768
S'and'
p769
S'CC'
p770
g4
g4
tp771
a(S'6-month'
p772
S'6-month'
p773
S'JJ'
p774
S'B-NP'
p775
g4
tp776
a(S'repeat'
p777
S'repeat'
p778
S'NN'
p779
S'I-NP'
p780
g4
tp781
a(S'angiography'
p782
S'angiography'
p783
S'NN'
p784
S'I-NP'
p785
g4
tp786
a(S'were'
p787
S'be'
p788
S'VBD'
p789
S'B-VP'
p790
g4
tp791
a(S'analyzed.'
p792
S'analyzed.'
p793
S'VBN'
p794
S'I-VP'
p795
g4
tp796
a(g1
g1
S'DT'
p797
S'B-NP'
p798
g4
tp799
a(S'total'
p800
S'total'
p801
S'NN'
p802
S'I-NP'
p803
g4
tp804
a(S'of'
p805
S'of'
p806
S'IN'
p807
S'B-PP'
p808
g4
tp809
a(S'106'
p810
S'106'
p811
S'CD'
p812
S'B-NP'
p813
g4
tp814
a(S'patients'
p815
S'patient'
p816
S'NNS'
p817
S'I-NP'
p818
g4
tp819
a(S'were'
p820
S'be'
p821
S'VBD'
p822
S'B-VP'
p823
g4
tp824
a(S'treated'
p825
S'treat'
p826
S'VBN'
p827
S'I-VP'
p828
g4
tp829
a(S'with'
p830
S'with'
p831
S'IN'
p832
S'B-PP'
p833
g4
tp834
a(S'PTCA.'
p835
S'PTCA.'
p836
S'NN'
p837
S'B-NP'
p838
g4
tp839
a(S'Use'
p840
S'Use'
p841
S'NN'
p842
S'I-NP'
p843
g4
tp844
a(S'of'
p845
S'of'
p846
S'IN'
p847
S'B-PP'
p848
g4
tp849
a(S'PTCA'
p850
S'PTCA'
p851
S'NN'
p852
S'B-NP'
p853
S'B-protein'
p854
tp855
a(S'was'
p856
S'be'
p857
S'VBD'
p858
S'B-VP'
p859
g4
tp860
a(S'similar'
p861
S'similar'
p862
S'JJ'
p863
S'B-ADJP'
p864
g4
tp865
a(S'for'
p866
S'for'
p867
S'IN'
p868
S'B-PP'
p869
g4
tp870
a(S'placebo'
p871
S'placebo'
p872
S'NN'
p873
S'B-NP'
p874
g4
tp875
a(g174
g174
g174
g4
g4
tp876
a(S'92'
p877
S'92'
p878
S'CD'
p879
S'B-NP'
p880
g4
tp881
a(S'%'
p882
g882
S'NN'
p883
S'I-NP'
p884
g4
tp885
a(g181
g181
g181
g4
g4
tp886
a(S'and'
p887
S'and'
p888
S'CC'
p889
g4
g4
tp890
a(S'streptokinase'
p891
S'streptokinase'
p892
S'NN'
p893
S'B-NP'
p894
S'B-protein'
p895
tp896
a(g174
g174
g174
g4
g4
tp897
a(S'83'
p898
S'83'
p899
S'CD'
p900
S'B-NP'
p901
g4
tp902
a(g882
g882
S'NN'
p903
S'I-NP'
p904
g4
tp905
a(g181
g181
g181
g4
g4
tp906
a(S'groups.'
p907
S'groups.'
p908
S'NN'
p909
S'B-NP'
p910
g4
tp911
a(S'Angioplasty'
p912
S'Angioplasty'
p913
S'NNP'
p914
S'I-NP'
p915
g4
tp916
a(S'was'
p917
S'be'
p918
S'VBD'
p919
S'B-VP'
p920
g4
tp921
a(S'successful'
p922
S'successful'
p923
S'JJ'
p924
S'B-ADJP'
p925
g4
tp926
a(S'in'
p927
S'in'
p928
S'IN'
p929
S'B-PP'
p930
g4
tp931
a(S'95'
p932
S'95'
p933
S'CD'
p934
S'B-NP'
p935
g4
tp936
a(g882
g882
S'NN'
p937
S'I-NP'
p938
g4
tp939
a(S'of'
p940
S'of'
p941
S'IN'
p942
S'B-PP'
p943
g4
tp944
a(S'patients'
p945
S'patient'
p946
S'NNS'
p947
S'B-NP'
p948
g4
tp949
a(g11
g11
g11
g4
g4
tp950
a(S'with'
p951
S'with'
p952
S'IN'
p953
S'B-PP'
p954
g4
tp955
a(S'no'
p956
S'no'
p957
S'DT'
p958
S'B-NP'
p959
g4
tp960
a(S'difference'
p961
S'difference'
p962
S'NN'
p963
S'I-NP'
p964
g4
tp965
a(S'in'
p966
S'in'
p967
S'IN'
p968
S'B-PP'
p969
g4
tp970
a(S'placebo'
p971
S'placebo'
p972
S'NN'
p973
S'B-NP'
p974
g4
tp975
a(g174
g174
g174
g4
g4
tp976
a(S'93'
p977
S'93'
p978
S'CD'
p979
S'B-NP'
p980
g4
tp981
a(g882
g882
S'NN'
p982
S'I-NP'
p983
g4
tp984
a(g181
g181
g181
g4
g4
tp985
a(S'and'
p986
S'and'
p987
S'CC'
p988
g4
g4
tp989
a(S'streptokinase'
p990
S'streptokinase'
p991
S'NN'
p992
S'B-NP'
p993
S'B-protein'
p994
tp995
a(g174
g174
g174
g4
g4
tp996
a(S'98'
p997
S'98'
p998
S'CD'
p999
S'B-NP'
p1000
g4
tp1001
a(g882
g882
S'NN'
p1002
S'I-NP'
p1003
g4
tp1004
a(g181
g181
g181
g4
g4
tp1005
a(S'groups.'
p1006
S'groups.'
p1007
S'NN'
p1008
S'B-NP'
p1009
g4
tp1010
a(S'Serial'
p1011
S'Serial'
p1012
S'JJ'
p1013
S'I-NP'
p1014
g4
tp1015
a(S'radionuclide'
p1016
S'radionuclide'
p1017
S'NN'
p1018
S'I-NP'
p1019
g4
tp1020
a(S'ventriculography'
p1021
S'ventriculography'
p1022
S'NN'
p1023
S'I-NP'
p1024
g4
tp1025
a(S'demonstrated'
p1026
S'demonstrate'
p1027
S'VBD'
p1028
S'B-VP'
p1029
g4
tp1030
a(S'no'
p1031
S'no'
p1032
S'DT'
p1033
S'B-NP'
p1034
g4
tp1035
a(S'difference'
p1036
S'difference'
p1037
S'NN'
p1038
S'I-NP'
p1039
g4
tp1040
a(S'in'
p1041
S'in'
p1042
S'IN'
p1043
S'B-PP'
p1044
g4
tp1045
a(S'24-hour'
p1046
S'24-hour'
p1047
S'CD'
p1048
S'B-NP'
p1049
g4
tp1050
a(g174
g174
g174
g4
g4
tp1051
a(S'52'
p1052
S'52'
p1053
S'CD'
p1054
S'B-NP'
p1055
g4
tp1056
a(S'+/-'
p1057
S'+/-'
p1058
S'SYM'
p1059
S'I-NP'
p1060
g4
tp1061
a(S'12'
p1062
S'12'
p1063
S'CD'
p1064
S'I-NP'
p1065
g4
tp1066
a(g882
g882
S'NN'
p1067
S'I-NP'
p1068
g4
tp1069
a(S'versus'
p1070
S'versus'
p1071
S'IN'
p1072
S'B-PP'
p1073
g4
tp1074
a(S'50'
p1075
S'50'
p1076
S'CD'
p1077
S'B-NP'
p1078
g4
tp1079
a(S'+/-'
p1080
S'+/-'
p1081
S'SYM'
p1082
S'I-NP'
p1083
g4
tp1084
a(S'12'
p1085
S'12'
p1086
S'CD'
p1087
S'I-NP'
p1088
g4
tp1089
a(g882
g882
S'NN'
p1090
S'I-NP'
p1091
g4
tp1092
a(g181
g181
g181
g4
g4
tp1093
a(S'or'
p1094
S'or'
p1095
S'CC'
p1096
g4
g4
tp1097
a(S'6-week'
p1098
S'6-week'
p1099
S'JJ'
p1100
S'B-ADJP'
p1101
g4
tp1102
a(g174
g174
g174
g4
g4
tp1103
a(S'51'
p1104
S'51'
p1105
S'CD'
p1106
S'B-NP'
p1107
g4
tp1108
a(S'+/-'
p1109
S'+/-'
p1110
S'SYM'
p1111
S'I-NP'
p1112
g4
tp1113
a(S'12'
p1114
S'12'
p1115
S'CD'
p1116
S'I-NP'
p1117
g4
tp1118
a(g882
g882
S'NN'
p1119
S'I-NP'
p1120
g4
tp1121
a(S'versus'
p1122
S'versus'
p1123
S'IN'
p1124
S'B-PP'
p1125
g4
tp1126
a(S'51'
p1127
S'51'
p1128
S'CD'
p1129
S'B-NP'
p1130
g4
tp1131
a(S'+/-'
p1132
S'+/-'
p1133
S'SYM'
p1134
S'I-NP'
p1135
g4
tp1136
a(S'13'
p1137
S'13'
p1138
S'CD'
p1139
S'I-NP'
p1140
g4
tp1141
a(g882
g882
S'NN'
p1142
S'I-NP'
p1143
g4
tp1144
a(g181
g181
g181
g4
g4
tp1145
a(S'ejection'
p1146
S'ejection'
p1147
S'NN'
p1148
S'B-NP'
p1149
g4
tp1150
a(S'fraction'
p1151
S'fraction'
p1152
S'NN'
p1153
S'I-NP'
p1154
g4
tp1155
a(S'values'
p1156
S'value'
p1157
S'NNS'
p1158
S'I-NP'
p1159
g4
tp1160
a(S'for'
p1161
S'for'
p1162
S'IN'
p1163
S'B-PP'
p1164
g4
tp1165
a(S'placebo'
p1166
S'placebo'
p1167
S'NN'
p1168
S'B-NP'
p1169
g4
tp1170
a(S'and'
p1171
S'and'
p1172
S'CC'
p1173
S'I-NP'
p1174
g4
tp1175
a(S'streptokinase'
p1176
S'streptokinase'
p1177
S'NN'
p1178
S'I-NP'
p1179
g4
tp1180
a(S'groups'
p1181
S'group'
p1182
S'NNS'
p1183
S'I-NP'
p1184
g4
tp1185
a(g11
g11
g11
g4
g4
tp1186
a(S'respectively.'
p1187
S'respectively.'
p1188
S'NN'
p1189
S'B-NP'
p1190
g4
tp1191
a(S'Contrast'
p1192
S'Contrast'
p1193
S'NN'
p1194
S'I-NP'
p1195
g4
tp1196
a(S'ventriculography'
p1197
S'ventriculography'
p1198
S'NN'
p1199
S'I-NP'
p1200
g4
tp1201
a(S'demonstrated'
p1202
S'demonstrate'
p1203
S'VBD'
p1204
S'B-VP'
p1205
g4
tp1206
a(S'improvement'
p1207
S'improvement'
p1208
S'NN'
p1209
S'B-NP'
p1210
g4
tp1211
a(S'in'
p1212
S'in'
p1213
S'IN'
p1214
S'B-PP'
p1215
g4
tp1216
a(S'immediate'
p1217
S'immediate'
p1218
S'JJ'
p1219
S'B-NP'
p1220
g4
tp1221
a(g174
g174
g174
g4
g4
tp1222
a(S'54'
p1223
S'54'
p1224
S'CD'
p1225
S'B-NP'
p1226
g4
tp1227
a(S'+/-'
p1228
S'+/-'
p1229
S'SYM'
p1230
S'I-NP'
p1231
g4
tp1232
a(S'12'
p1233
S'12'
p1234
S'CD'
p1235
S'I-NP'
p1236
g4
tp1237
a(g882
g882
S'NN'
p1238
S'I-NP'
p1239
g4
tp1240
a(g181
g181
g181
g4
g4
tp1241
a(S'versus'
p1242
S'versus'
p1243
S'IN'
p1244
S'B-PP'
p1245
g4
tp1246
a(S'6-month'
p1247
S'6-month'
p1248
S'JJ'
p1249
S'B-ADJP'
p1250
g4
tp1251
a(g174
g174
g174
g4
g4
tp1252
a(S'60'
p1253
S'60'
p1254
S'CD'
p1255
S'B-NP'
p1256
g4
tp1257
a(S'+/-'
p1258
S'+/-'
p1259
S'SYM'
p1260
S'I-NP'
p1261
g4
tp1262
a(S'15'
p1263
S'15'
p1264
S'CD'
p1265
S'I-NP'
p1266
g4
tp1267
a(g882
g882
S'NN'
p1268
S'I-NP'
p1269
g4
tp1270
a(g11
g11
g11
g4
g4
tp1271
a(S'p'
p1272
g1272
S'NN'
p1273
S'B-NP'
p1274
g4
tp1275
a(S'<'
p1276
g1276
S'SYM'
p1277
g4
g4
tp1278
a(S'0.05'
p1279
S'0.05'
p1280
S'CD'
p1281
g4
g4
tp1282
a(g181
g181
g181
g4
g4
tp1283
a(S'values'
p1284
S'value'
p1285
S'NNS'
p1286
S'B-NP'
p1287
g4
tp1288
a(S'for'
p1289
S'for'
p1290
S'IN'
p1291
S'B-PP'
p1292
g4
tp1293
a(S'the'
p1294
S'the'
p1295
S'DT'
p1296
S'B-NP'
p1297
g4
tp1298
a(S'overall'
p1299
S'overall'
p1300
S'JJ'
p1301
S'I-NP'
p1302
g4
tp1303
a(S'group.'
p1304
S'group.'
p1305
S'NN'
p1306
S'I-NP'
p1307
g4
tp1308
a(S'No'
p1309
S'No'
p1310
S'DT'
p1311
S'B-NP'
p1312
g4
tp1313
a(S'differences'
p1314
S'difference'
p1315
S'NNS'
p1316
S'I-NP'
p1317
g4
tp1318
a(S'in'
p1319
S'in'
p1320
S'IN'
p1321
S'B-PP'
p1322
g4
tp1323
a(S'6-month'
p1324
S'6-month'
p1325
S'JJ'
p1326
S'B-NP'
p1327
g4
tp1328
a(S'values'
p1329
S'value'
p1330
S'NNS'
p1331
S'I-NP'
p1332
g4
tp1333
a(S'were'
p1334
S'be'
p1335
S'VBD'
p1336
S'B-VP'
p1337
g4
tp1338
a(S'present'
p1339
S'present'
p1340
S'JJ'
p1341
S'B-ADJP'
p1342
g4
tp1343
a(g174
g174
g174
g4
g4
tp1344
a(S'58'
p1345
S'58'
p1346
S'CD'
p1347
S'B-NP'
p1348
g4
tp1349
a(S'+/-'
p1350
S'+/-'
p1351
S'SYM'
p1352
S'I-NP'
p1353
g4
tp1354
a(S'15'
p1355
S'15'
p1356
S'CD'
p1357
S'I-NP'
p1358
g4
tp1359
a(g882
g882
S'NN'
p1360
S'I-NP'
p1361
g4
tp1362
a(S'versus'
p1363
S'versus'
p1364
S'IN'
p1365
S'B-PP'
p1366
g4
tp1367
a(S'62'
p1368
S'62'
p1369
S'CD'
p1370
S'B-NP'
p1371
g4
tp1372
a(S'+/-'
p1373
S'+/-'
p1374
S'SYM'
p1375
S'I-NP'
p1376
g4
tp1377
a(S'15'
p1378
S'15'
p1379
S'CD'
p1380
S'I-NP'
p1381
g4
tp1382
a(g882
g882
S'NN'
p1383
S'I-NP'
p1384
g4
tp1385
a(g11
g11
g11
g4
g4
tp1386
a(g1272
g1272
S'NN'
p1387
S'B-NP'
p1388
g4
tp1389
a(S'='
p1390
g1390
S'SYM'
p1391
S'B-VP'
p1392
g4
tp1393
a(S'NS'
p1394
S'NS'
p1395
S'NN'
p1396
S'B-NP'
p1397
g4
tp1398
a(g181
g181
g181
g4
g4
tp1399
a(S'for'
p1400
S'for'
p1401
S'IN'
p1402
S'B-PP'
p1403
g4
tp1404
a(S'placebo'
p1405
S'placebo'
p1406
S'NN'
p1407
S'B-NP'
p1408
g4
tp1409
a(S'and'
p1410
S'and'
p1411
S'CC'
p1412
S'I-NP'
p1413
g4
tp1414
a(S'streptokinase'
p1415
S'streptokinase'
p1416
S'NN'
p1417
S'I-NP'
p1418
g4
tp1419
a(S'groups'
p1420
S'group'
p1421
S'NNS'
p1422
S'I-NP'
p1423
g4
tp1424
a(g11
g11
g11
g4
g4
tp1425
a(S'respectively.'
p1426
S'respectively.'
p1427
S'VBP'
p1428
S'B-VP'
p1429
g4
tp1430
a(S'Coronary'
p1431
S'Coronary'
p1432
S'NNP'
p1433
S'B-NP'
p1434
g4
tp1435
a(S'angiography'
p1436
S'angiography'
p1437
S'NN'
p1438
S'I-NP'
p1439
g4
tp1440
a(S'was'
p1441
S'be'
p1442
S'VBD'
p1443
S'B-VP'
p1444
g4
tp1445
a(S'performed'
p1446
S'perform'
p1447
S'VBN'
p1448
S'I-VP'
p1449
g4
tp1450
a(S'in'
p1451
S'in'
p1452
S'IN'
p1453
S'B-PP'
p1454
g4
tp1455
a(S'75'
p1456
S'75'
p1457
S'CD'
p1458
S'B-NP'
p1459
g4
tp1460
a(g882
g882
S'NN'
p1461
S'I-NP'
p1462
g4
tp1463
a(S'of'
p1464
S'of'
p1465
S'IN'
p1466
S'B-PP'
p1467
g4
tp1468
a(S'the'
p1469
S'the'
p1470
S'DT'
p1471
S'B-NP'
p1472
g4
tp1473
a(S'90'
p1474
S'90'
p1475
S'CD'
p1476
S'I-NP'
p1477
g4
tp1478
a(S'patients'
p1479
S'patient'
p1480
S'NNS'
p1481
S'I-NP'
p1482
g4
tp1483
a(S'eligible'
p1484
S'eligible'
p1485
S'JJ'
p1486
S'B-ADJP'
p1487
g4
tp1488
a(S'for'
p1489
S'for'
p1490
S'IN'
p1491
S'B-PP'
p1492
g4
tp1493
a(S'restudy.'
p1494
S'restudy.'
p1495
S'NN'
p1496
S'B-NP'
p1497
g4
tp1498
a(S'Arterial'
p1499
S'Arterial'
p1500
S'JJ'
p1501
S'I-NP'
p1502
g4
tp1503
a(S'patency'
p1504
S'patency'
p1505
S'NN'
p1506
S'I-NP'
p1507
g4
tp1508
a(S'was'
p1509
S'be'
p1510
S'VBD'
p1511
S'B-VP'
p1512
g4
tp1513
a(S'87'
p1514
S'87'
p1515
S'CD'
p1516
S'B-NP'
p1517
g4
tp1518
a(g882
g882
S'NN'
p1519
S'I-NP'
p1520
g4
tp1521
a(S'at'
p1522
S'at'
p1523
S'IN'
p1524
S'B-PP'
p1525
g4
tp1526
a(S'6'
p1527
g1527
S'CD'
p1528
S'B-NP'
p1529
g4
tp1530
a(S'months'
p1531
S'month'
p1532
S'NNS'
p1533
S'I-NP'
p1534
g4
tp1535
a(g11
g11
g11
g4
g4
tp1536
a(S'and'
p1537
S'and'
p1538
S'CC'
p1539
g4
g4
tp1540
a(S'coronary'
p1541
S'coronary'
p1542
S'JJ'
p1543
S'B-NP'
p1544
g4
tp1545
a(S'restenosis'
p1546
S'restenosis'
p1547
S'NN'
p1548
S'I-NP'
p1549
g4
tp1550
a(S'was'
p1551
S'be'
p1552
S'VBD'
p1553
S'B-VP'
p1554
g4
tp1555
a(S'present'
p1556
S'present'
p1557
S'JJ'
p1558
S'B-ADJP'
p1559
g4
tp1560
a(S'in'
p1561
S'in'
p1562
S'IN'
p1563
S'B-PP'
p1564
g4
tp1565
a(S'38'
p1566
S'38'
p1567
S'CD'
p1568
S'B-NP'
p1569
g4
tp1570
a(g882
g882
S'NN'
p1571
S'I-NP'
p1572
g4
tp1573
a(S'of'
p1574
S'of'
p1575
S'IN'
p1576
S'B-PP'
p1577
g4
tp1578
a(S'patients.'
p1579
S'patients.'
p1580
S'NN'
p1581
S'B-NP'
p1582
g4
tp1583
a(S'No'
p1584
S'No'
p1585
S'DT'
p1586
S'B-NP'
p1587
g4
tp1588
a(S'differences'
p1589
S'difference'
p1590
S'NNS'
p1591
S'I-NP'
p1592
g4
tp1593
a(S'in'
p1594
S'in'
p1595
S'IN'
p1596
S'B-PP'
p1597
g4
tp1598
a(S'chronic'
p1599
S'chronic'
p1600
S'JJ'
p1601
S'B-NP'
p1602
g4
tp1603
a(S'patency'
p1604
S'patency'
p1605
S'NN'
p1606
S'I-NP'
p1607
g4
tp1608
a(S'or'
p1609
S'or'
p1610
S'CC'
p1611
S'I-NP'
p1612
g4
tp1613
a(S'restenosis'
p1614
S'restenosis'
p1615
S'NN'
p1616
S'I-NP'
p1617
g4
tp1618
a(S'were'
p1619
S'be'
p1620
S'VBD'
p1621
S'B-VP'
p1622
g4
tp1623
a(S'detected'
p1624
S'detect'
p1625
S'VBN'
p1626
S'I-VP'
p1627
g4
tp1628
a(S'for'
p1629
S'for'
p1630
S'IN'
p1631
S'B-PP'
p1632
g4
tp1633
a(S'the'
p1634
S'the'
p1635
S'DT'
p1636
S'B-NP'
p1637
g4
tp1638
a(S'two'
p1639
S'two'
p1640
S'CD'
p1641
S'I-NP'
p1642
g4
tp1643
a(S'treatment'
p1644
S'treatment'
p1645
S'NN'
p1646
S'I-NP'
p1647
g4
tp1648
a(S'groups.'
p1649
S'groups.'
p1650
S'NNS'
p1651
S'I-NP'
p1652
g4
tp1653
a(S'Although'
p1654
S'Although'
p1655
S'IN'
p1656
S'B-PP'
p1657
g4
tp1658
a(S'adjunctive'
p1659
S'adjunctive'
p1660
S'JJ'
p1661
S'B-NP'
p1662
g4
tp1663
a(S'intravenous'
p1664
S'intravenous'
p1665
S'JJ'
p1666
S'I-NP'
p1667
g4
tp1668
a(S'streptokinase'
p1669
S'streptokinase'
p1670
S'NN'
p1671
S'I-NP'
p1672
g4
tp1673
a(S'therapy'
p1674
S'therapy'
p1675
S'NN'
p1676
S'I-NP'
p1677
g4
tp1678
a(S'did'
p1679
S'do'
p1680
S'VBD'
p1681
S'B-VP'
p1682
g4
tp1683
a(S'not'
p1684
S'not'
p1685
S'RB'
p1686
S'I-VP'
p1687
g4
tp1688
a(S'improve'
p1689
S'improve'
p1690
S'VB'
p1691
S'I-VP'
p1692
g4
tp1693
a(S'outcome'
p1694
S'outcome'
p1695
S'NN'
p1696
S'B-NP'
p1697
g4
tp1698
a(g11
g11
g11
g4
g4
tp1699
a(S'it'
p1700
S'it'
p1701
S'PRP'
p1702
S'B-NP'
p1703
g4
tp1704
a(S'did'
p1705
S'do'
p1706
S'VBD'
p1707
S'B-VP'
p1708
g4
tp1709
a(S'complicate'
p1710
S'complicate'
p1711
S'VB'
p1712
S'I-VP'
p1713
g4
tp1714
a(S'the'
p1715
S'the'
p1716
S'DT'
p1717
S'B-NP'
p1718
g4
tp1719
a(S'hospital'
p1720
S'hospital'
p1721
S'NN'
p1722
S'I-NP'
p1723
g4
tp1724
a(S'course.'
p1725
S'course.'
p1726
S'NN'
p1727
S'I-NP'
p1728
g4
tp1729
a(S'Hospitalization'
p1730
S'Hospitalization'
p1731
S'NN'
p1732
S'I-NP'
p1733
g4
tp1734
a(S'was'
p1735
S'be'
p1736
S'VBD'
p1737
S'B-VP'
p1738
g4
tp1739
a(S'longer'
p1740
S'long'
p1741
S'JJR'
p1742
S'B-ADJP'
p1743
g4
tp1744
a(g174
g174
g174
g4
g4
tp1745
a(S'9.3'
p1746
S'9.3'
p1747
S'CD'
p1748
S'B-NP'
p1749
g4
tp1750
a(S'+/-'
p1751
S'+/-'
p1752
S'CC'
p1753
S'I-NP'
p1754
g4
tp1755
a(S'5.0'
p1756
S'5.0'
p1757
S'CD'
p1758
S'I-NP'
p1759
g4
tp1760
a(S'versus'
p1761
S'versus'
p1762
S'CC'
p1763
S'I-NP'
p1764
g4
tp1765
a(S'7.7'
p1766
S'7.7'
p1767
S'CD'
p1768
S'I-NP'
p1769
g4
tp1770
a(S'+/-'
p1771
S'+/-'
p1772
S'CC'
p1773
S'I-NP'
p1774
g4
tp1775
a(S'4.4'
p1776
S'4.4'
p1777
S'CD'
p1778
S'I-NP'
p1779
g4
tp1780
a(S'days'
p1781
S'day'
p1782
S'NNS'
p1783
S'I-NP'
p1784
g4
tp1785
a(g11
g11
g11
g4
g4
tp1786
a(g1272
g1272
S'NN'
p1787
S'B-NP'
p1788
g4
tp1789
a(g1390
g1390
S'SYM'
p1790
S'B-VP'
p1791
g4
tp1792
a(S'0.046'
p1793
S'0.046'
p1794
S'CD'
p1795
S'B-NP'
p1796
g4
tp1797
a(g181
g181
g181
g4
g4
tp1798
a(S'and'
p1799
S'and'
p1800
S'CC'
p1801
g4
g4
tp1802
a(S'more'
p1803
S'more'
p1804
S'RBR'
p1805
S'B-ADJP'
p1806
g4
tp1807
a(S'costly'
p1808
S'costly'
p1809
S'JJ'
p1810
S'I-ADJP'
p1811
g4
tp1812
a(g174
g174
g174
g4
g4
tp1813
a(S'$'
p1814
g1814
g1814
S'B-NP'
p1815
g4
tp1816
a(S'25'
p1817
S'25'
p1818
S'CD'
p1819
S'I-NP'
p1820
g4
tp1821
a(g11
g11
g11
g4
g4
tp1822
a(S'191'
p1823
S'191'
p1824
S'CD'
p1825
S'B-NP'
p1826
g4
tp1827
a(S'+/-'
p1828
S'+/-'
p1829
S'SYM'
p1830
S'I-NP'
p1831
g4
tp1832
a(S'15'
p1833
S'15'
p1834
S'CD'
p1835
S'I-NP'
p1836
g4
tp1837
a(g11
g11
g11
S'I-NP'
p1838
g4
tp1839
a(S'368'
p1840
S'368'
p1841
S'CD'
p1842
S'I-NP'
p1843
g4
tp1844
a(S'versus'
p1845
S'versus'
p1846
S'CC'
p1847
S'I-NP'
p1848
g4
tp1849
a(g1814
g1814
g1814
S'I-NP'
p1850
g4
tp1851
a(S'19'
p1852
S'19'
p1853
S'CD'
p1854
S'I-NP'
p1855
g4
tp1856
a(g11
g11
g11
S'I-NP'
p1857
g4
tp1858
a(S'643'
p1859
S'643'
p1860
S'CD'
p1861
S'I-NP'
p1862
g4
tp1863
a(S'+/-'
p1864
S'+/-'
p1865
S'SYM'
p1866
S'I-NP'
p1867
g4
tp1868
a(S'7'
p1869
g1869
S'CD'
p1870
S'I-NP'
p1871
g4
tp1872
a(g11
g11
g11
S'I-NP'
p1873
g4
tp1874
a(S'250'
p1875
S'250'
p1876
S'CD'
p1877
S'I-NP'
p1878
g4
tp1879
a(g11
g11
g11
S'I-NP'
p1880
g4
tp1881
a(g1272
g1272
S'NN'
p1882
S'I-NP'
p1883
g4
tp1884
a(g1276
g1276
S'JJR'
p1885
S'I-NP'
p1886
g4
tp1887
a(S'0.02'
p1888
S'0.02'
p1889
S'CD'
p1890
S'I-NP'
p1891
g4
tp1892
a(g181
g181
g181
g4
g4
tp1893
a(g97
g97
g97
g4
g4
tp1894
a(S'Transfusion'
p1895
S'Transfusion'
p1896
S'NN'
p1897
S'B-NP'
p1898
g4
tp1899
a(S'rate'
p1900
S'rate'
p1901
S'NN'
p1902
S'I-NP'
p1903
g4
tp1904
a(S'was'
p1905
S'be'
p1906
S'VBD'
p1907
S'B-VP'
p1908
g4
tp1909
a(S'higher'
p1910
S'high'
p1911
S'JJR'
p1912
S'B-ADJP'
p1913
g4
tp1914
a(g174
g174
g174
g4
g4
tp1915
a(S'39'
p1916
S'39'
p1917
S'CD'
p1918
S'B-NP'
p1919
g4
tp1920
a(g882
g882
S'NN'
p1921
S'I-NP'
p1922
g4
tp1923
a(S'versus'
p1924
S'versus'
p1925
S'IN'
p1926
S'B-PP'
p1927
g4
tp1928
a(S'8'
p1929
g1929
S'CD'
p1930
S'B-NP'
p1931
g4
tp1932
a(g882
g882
S'NN'
p1933
S'I-NP'
p1934
g4
tp1935
a(g11
g11
g11
g4
g4
tp1936
a(g1272
g1272
S'NN'
p1937
S'B-NP'
p1938
g4
tp1939
a(g1390
g1390
S'SYM'
p1940
S'B-VP'
p1941
g4
tp1942
a(S'0.0001'
p1943
S'0.0001'
p1944
S'CD'
p1945
S'B-NP'
p1946
g4
tp1947
a(g181
g181
g181
g4
g4
tp1948
a(S'and'
p1949
S'and'
p1950
S'CC'
p1951
g4
g4
tp1952
a(S'need'
p1953
S'need'
p1954
S'VBP'
p1955
S'B-VP'
p1956
g4
tp1957
a(S'for'
p1958
S'for'
p1959
S'IN'
p1960
S'B-PP'
p1961
g4
tp1962
a(S'emergency'
p1963
S'emergency'
p1964
S'NN'
p1965
S'B-NP'
p1966
g4
tp1967
a(S'coronary'
p1968
S'coronary'
p1969
S'JJ'
p1970
S'B-ADJP'
p1971
g4
tp1972
a(S'bypass'
p1973
S'bypass'
p1974
S'IN'
p1975
S'B-PP'
p1976
g4
tp1977
a(S'surgery'
p1978
S'surgery'
p1979
S'NN'
p1980
S'B-NP'
p1981
g4
tp1982
a(S'was'
p1983
S'be'
p1984
S'VBD'
p1985
S'B-VP'
p1986
g4
tp1987
a(S'greater'
p1988
S'great'
p1989
S'JJR'
p1990
S'B-ADJP'
p1991
g4
tp1992
a(g174
g174
g174
g4
g4
tp1993
a(S'10.3'
p1994
S'10.3'
p1995
S'CD'
p1996
S'B-NP'
p1997
g4
tp1998
a(g882
g882
S'NN'
p1999
S'I-NP'
p2000
g4
tp2001
a(S'versus'
p2002
S'versus'
p2003
S'IN'
p2004
S'B-PP'
p2005
g4
tp2006
a(S'1.6'
p2007
S'1.6'
p2008
S'CD'
p2009
S'B-NP'
p2010
g4
tp2011
a(g882
g882
S'NN'
p2012
S'I-NP'
p2013
g4
tp2014
a(g11
g11
g11
g4
g4
tp2015
a(g1272
g1272
S'NN'
p2016
S'B-NP'
p2017
g4
tp2018
a(g1390
g1390
S'SYM'
p2019
S'B-VP'
p2020
g4
tp2021
a(S'0.03'
p2022
S'0.03'
p2023
S'CD'
p2024
S'B-NP'
p2025
g4
tp2026
a(g181
g181
g181
g4
g4
tp2027
a(S'for'
p2028
S'for'
p2029
S'IN'
p2030
S'B-PP'
p2031
g4
tp2032
a(S'the'
p2033
S'the'
p2034
S'DT'
p2035
S'B-NP'
p2036
g4
tp2037
a(S'streptokinase-treated'
p2038
S'streptokinase-treated'
p2039
S'JJ'
p2040
S'I-NP'
p2041
g4
tp2042
a(S'patients'
p2043
S'patient'
p2044
S'NNS'
p2045
S'I-NP'
p2046
g4
tp2047
a(g97
g97
g97
g4
g4
tp2048
a(S'CONCLUSIONS'
p2049
S'CONCLUSIONS'
p2050
S'NNS'
p2051
S'B-NP'
p2052
g4
tp2053
a(S'Adjunctive'
p2054
S'Adjunctive'
p2055
S'JJ'
p2056
S'I-NP'
p2057
g4
tp2058
a(S'intravenous'
p2059
S'intravenous'
p2060
S'JJ'
p2061
S'I-NP'
p2062
g4
tp2063
a(S'streptokinase'
p2064
S'streptokinase'
p2065
S'NN'
p2066
S'I-NP'
p2067
g4
tp2068
a(S'therapy'
p2069
S'therapy'
p2070
S'NN'
p2071
S'I-NP'
p2072
g4
tp2073
a(S'does'
p2074
S'do'
p2075
S'VBZ'
p2076
S'B-VP'
p2077
g4
tp2078
a(S'not'
p2079
S'not'
p2080
S'RB'
p2081
S'I-VP'
p2082
g4
tp2083
a(S'enhance'
p2084
S'enhance'
p2085
S'VB'
p2086
S'I-VP'
p2087
g4
tp2088
a(S'early'
p2089
S'early'
p2090
S'JJ'
p2091
S'B-NP'
p2092
g4
tp2093
a(S'preservation'
p2094
S'preservation'
p2095
S'NN'
p2096
S'I-NP'
p2097
g4
tp2098
a(S'of'
p2099
S'of'
p2100
S'IN'
p2101
S'B-PP'
p2102
g4
tp2103
a(S'ventricular'
p2104
S'ventricular'
p2105
S'JJ'
p2106
S'B-NP'
p2107
g4
tp2108
a(S'function'
p2109
S'function'
p2110
S'NN'
p2111
S'I-NP'
p2112
g4
tp2113
a(g11
g11
g11
g4
g4
tp2114
a(S'improve'
p2115
S'improve'
p2116
S'VB'
p2117
S'B-VP'
p2118
g4
tp2119
a(S'arterial'
p2120
S'arterial'
p2121
S'JJ'
p2122
S'B-NP'
p2123
g4
tp2124
a(S'patency'
p2125
S'patency'
p2126
S'NN'
p2127
S'I-NP'
p2128
g4
tp2129
a(S'rates'
p2130
S'rate'
p2131
S'NNS'
p2132
S'I-NP'
p2133
g4
tp2134
a(g11
g11
g11
g4
g4
tp2135
a(S'or'
p2136
S'or'
p2137
S'CC'
p2138
g4
g4
tp2139
a(S'lower'
p2140
S'low'
p2141
S'JJR'
p2142
S'B-NP'
p2143
g4
tp2144
a(S'restenosis'
p2145
S'restenosis'
p2146
S'NN'
p2147
S'I-NP'
p2148
g4
tp2149
a(S'rates'
p2150
S'rate'
p2151
S'NNS'
p2152
S'I-NP'
p2153
g4
tp2154
a(S'after'
p2155
S'after'
p2156
S'IN'
p2157
S'B-PP'
p2158
g4
tp2159
a(S'PTCA'
p2160
S'PTCA'
p2161
S'NN'
p2162
S'B-NP'
p2163
g4
tp2164
a(S'therapy'
p2165
S'therapy'
p2166
S'NN'
p2167
S'I-NP'
p2168
g4
tp2169
a(S'of'
p2170
S'of'
p2171
S'IN'
p2172
S'B-PP'
p2173
g4
tp2174
a(S'acute'
p2175
S'acute'
p2176
S'JJ'
p2177
S'B-NP'
p2178
g4
tp2179
a(S'MI.'
p2180
S'MI.'
p2181
S'NNP'
p2182
S'I-NP'
p2183
g4
tp2184
a(S'Hospital'
p2185
S'Hospital'
p2186
S'NNP'
p2187
S'I-NP'
p2188
g4
tp2189
a(S'course'
p2190
S'course'
p2191
S'NN'
p2192
S'I-NP'
p2193
g4
tp2194
a(S'is'
p2195
S'be'
p2196
S'VBZ'
p2197
S'B-VP'
p2198
g4
tp2199
a(S'longer'
p2200
S'long'
p2201
S'JJR'
p2202
S'B-ADJP'
p2203
g4
tp2204
a(g11
g11
g11
g4
g4
tp2205
a(S'more'
p2206
S'more'
p2207
S'RBR'
p2208
S'B-ADJP'
p2209
g4
tp2210
a(S'expensive'
p2211
S'expensive'
p2212
S'JJ'
p2213
S'I-ADJP'
p2214
g4
tp2215
a(g11
g11
g11
g4
g4
tp2216
a(S'and'
p2217
S'and'
p2218
S'CC'
p2219
g4
g4
tp2220
a(S'more'
p2221
S'more'
p2222
S'RBR'
p2223
S'B-ADJP'
p2224
g4
tp2225
a(S'complicated.'
p2226
S'complicated.'
p2227
S'JJ'
p2228
S'I-ADJP'
p2229
g4
tp2230
a(S'For'
p2231
S'For'
p2232
S'IN'
p2233
S'B-PP'
p2234
g4
tp2235
a(S'these'
p2236
S'these'
p2237
S'DT'
p2238
S'B-NP'
p2239
g4
tp2240
a(S'reasons'
p2241
S'reason'
p2242
S'NNS'
p2243
S'I-NP'
p2244
g4
tp2245
a(g11
g11
g11
g4
g4
tp2246
a(S'PTCA'
p2247
S'PTCA'
p2248
S'NN'
p2249
S'B-NP'
p2250
g4
tp2251
a(S'therapy'
p2252
S'therapy'
p2253
S'NN'
p2254
S'I-NP'
p2255
g4
tp2256
a(S'of'
p2257
S'of'
p2258
S'IN'
p2259
S'B-PP'
p2260
g4
tp2261
a(S'acute'
p2262
S'acute'
p2263
S'JJ'
p2264
S'B-NP'
p2265
g4
tp2266
a(S'MI'
p2267
S'MI'
p2268
S'NN'
p2269
S'I-NP'
p2270
g4
tp2271
a(S'should'
p2272
S'should'
p2273
S'MD'
p2274
S'B-VP'
p2275
g4
tp2276
a(S'not'
p2277
S'not'
p2278
S'RB'
p2279
S'I-VP'
p2280
g4
tp2281
a(S'be'
p2282
S'be'
p2283
S'VB'
p2284
S'I-VP'
p2285
g4
tp2286
a(S'routinely'
p2287
S'routinely'
p2288
S'RB'
p2289
S'I-VP'
p2290
g4
tp2291
a(S'performed'
p2292
S'perform'
p2293
S'VBN'
p2294
S'I-VP'
p2295
g4
tp2296
a(S'with'
p2297
S'with'
p2298
S'IN'
p2299
S'B-PP'
p2300
g4
tp2301
a(S'adjunctive'
p2302
S'adjunctive'
p2303
S'JJ'
p2304
S'B-NP'
p2305
g4
tp2306
a(S'intravenous'
p2307
S'intravenous'
p2308
S'JJ'
p2309
S'I-NP'
p2310
g4
tp2311
a(S'streptokinase'
p2312
S'streptokinase'
p2313
S'NN'
p2314
S'I-NP'
p2315
g4
tp2316
a(S'therapy'
p2317
S'therapy'
p2318
S'NN'
p2319
S'I-NP'
p2320
g4
tp2321
a(g97
g97
g97
g4
g4
tp2322
a.