(lp0
(S'['
p1
g1
S'('
p2
S'O'
p3
g3
tp4
a(S'Study'
p5
S'Study'
p6
S'NN'
p7
S'B-NP'
p8
g3
tp9
a(S'of'
p10
S'of'
p11
S'IN'
p12
S'B-PP'
p13
g3
tp14
a(S'setting'
p15
S'setting'
p16
S'NN'
p17
S'B-NP'
p18
g3
tp19
a(S'of'
p20
S'of'
p21
S'IN'
p22
S'B-PP'
p23
g3
tp24
a(S'ventilator'
p25
S'ventilator'
p26
S'NN'
p27
S'B-NP'
p28
g3
tp29
a(S'volume'
p30
S'volume'
p31
S'NN'
p32
S'I-NP'
p33
g3
tp34
a(S'tidal'
p35
S'tidal'
p36
S'NN'
p37
S'I-NP'
p38
g3
tp39
a(S'and'
p40
S'and'
p41
S'CC'
p42
g3
g3
tp43
a(S'airway'
p44
S'airway'
p45
S'NN'
p46
S'B-NP'
p47
g3
tp48
a(S'pressure'
p49
S'pressure'
p50
S'NN'
p51
S'I-NP'
p52
g3
tp53
a(S'alarm'
p54
S'alarm'
p55
S'NN'
p56
S'I-NP'
p57
g3
tp58
a(S'threshold'
p59
S'threshold'
p60
S'NN'
p61
S'I-NP'
p62
g3
tp63
a(S'with'
p64
S'with'
p65
S'IN'
p66
S'B-PP'
p67
g3
tp68
a(S'continuous'
p69
S'continuous'
p70
S'JJ'
p71
S'B-NP'
p72
g3
tp73
a(S'extra-sternum'
p74
S'extra-sternum'
p75
S'JJ'
p76
S'I-NP'
p77
g3
tp78
a(S'heart'
p79
S'heart'
p80
S'NN'
p81
S'I-NP'
p82
g3
tp83
a(S'compression'
p84
S'compression'
p85
S'NN'
p86
S'I-NP'
p87
g3
tp88
a(S'in'
p89
S'in'
p90
S'IN'
p91
S'B-PP'
p92
g3
tp93
a(S'cardiopulmonary'
p94
S'cardiopulmonary'
p95
S'JJ'
p96
S'B-NP'
p97
g3
tp98
a(S'resuscitation'
p99
S'resuscitation'
p100
S'NN'
p101
S'I-NP'
p102
g3
tp103
a(S']'
p104
g104
S')'
p105
g3
g3
tp106
a(S'.'
p107
g107
g107
g3
g3
tp108
a(S'OBJECTIVE'
p109
S'OBJECTIVE'
p110
S'NN'
p111
S'B-NP'
p112
g3
tp113
a(S'To'
p114
S'To'
p115
S'TO'
p116
S'B-VP'
p117
g3
tp118
a(S'investigate'
p119
S'investigate'
p120
S'VB'
p121
S'I-VP'
p122
g3
tp123
a(S'the'
p124
S'the'
p125
S'DT'
p126
S'B-NP'
p127
g3
tp128
a(S'setting'
p129
S'setting'
p130
S'NN'
p131
S'I-NP'
p132
g3
tp133
a(S'of'
p134
S'of'
p135
S'IN'
p136
S'B-PP'
p137
g3
tp138
a(S'ventilator'
p139
S'ventilator'
p140
S'NN'
p141
S'B-NP'
p142
g3
tp143
a(S'volume'
p144
S'volume'
p145
S'NN'
p146
S'I-NP'
p147
g3
tp148
a(S'tidal'
p149
S'tidal'
p150
S'NN'
p151
S'I-NP'
p152
g3
tp153
a(g2
g2
g2
g3
g3
tp154
a(S'VT'
p155
S'VT'
p156
S'NN'
p157
S'B-NP'
p158
g3
tp159
a(g105
g105
g105
g3
g3
tp160
a(S'and'
p161
S'and'
p162
S'CC'
p163
g3
g3
tp164
a(S'airway'
p165
S'airway'
p166
S'NN'
p167
S'B-NP'
p168
g3
tp169
a(S'pressure'
p170
S'pressure'
p171
S'NN'
p172
S'I-NP'
p173
g3
tp174
a(S'alarm'
p175
S'alarm'
p176
S'NN'
p177
S'I-NP'
p178
g3
tp179
a(S'threshold'
p180
S'threshold'
p181
S'NN'
p182
S'I-NP'
p183
g3
tp184
a(S'during'
p185
S'during'
p186
S'IN'
p187
S'B-PP'
p188
g3
tp189
a(S'cardiopulmonary'
p190
S'cardiopulmonary'
p191
S'JJ'
p192
S'B-NP'
p193
g3
tp194
a(S'resuscitation'
p195
S'resuscitation'
p196
S'NN'
p197
S'I-NP'
p198
g3
tp199
a(g2
g2
g2
g3
g3
tp200
a(S'CPR'
p201
S'CPR'
p202
S'NN'
p203
S'B-NP'
p204
S'B-protein'
p205
tp206
a(g105
g105
g105
g3
g3
tp207
a(S'by'
p208
S'by'
p209
S'IN'
p210
S'B-PP'
p211
g3
tp212
a(S'continuous'
p213
S'continuous'
p214
S'JJ'
p215
S'B-NP'
p216
g3
tp217
a(S'extra-sternum'
p218
S'extra-sternum'
p219
S'JJ'
p220
S'I-NP'
p221
g3
tp222
a(S'heart'
p223
S'heart'
p224
S'NN'
p225
S'I-NP'
p226
g3
tp227
a(S'compression'
p228
S'compression'
p229
S'NN'
p230
S'I-NP'
p231
g3
tp232
a(g107
g107
g107
g3
g3
tp233
a(S'METHODS'
p234
S'METHODS'
p235
S'NNS'
p236
S'B-NP'
p237
g3
tp238
a(S'Forty'
p239
S'Forty'
p240
S'CD'
p241
S'B-NP'
p242
g3
tp243
a(S'cases'
p244
S'case'
p245
S'NNS'
p246
S'I-NP'
p247
g3
tp248
a(S'with'
p249
S'with'
p250
S'IN'
p251
S'B-PP'
p252
g3
tp253
a(S'respiration'
p254
S'respiration'
p255
S'NN'
p256
S'B-NP'
p257
g3
tp258
a(S'and'
p259
S'and'
p260
S'CC'
p261
g3
g3
tp262
a(S'cardiac'
p263
S'cardiac'
p264
S'JJ'
p265
S'B-NP'
p266
g3
tp267
a(S'arrest'
p268
S'arrest'
p269
S'NN'
p270
S'I-NP'
p271
g3
tp272
a(S'in'
p273
S'in'
p274
S'IN'
p275
S'B-PP'
p276
g3
tp277
a(S'the'
p278
S'the'
p279
S'DT'
p280
S'B-NP'
p281
g3
tp282
a(S'department'
p283
S'department'
p284
S'NN'
p285
S'I-NP'
p286
g3
tp287
a(S'of'
p288
S'of'
p289
S'IN'
p290
S'B-PP'
p291
g3
tp292
a(S'critical'
p293
S'critical'
p294
S'JJ'
p295
S'B-NP'
p296
g3
tp297
a(S'care'
p298
S'care'
p299
S'NN'
p300
S'I-NP'
p301
g3
tp302
a(S'medicine'
p303
S'medicine'
p304
S'NN'
p305
S'I-NP'
p306
g3
tp307
a(S'were'
p308
S'be'
p309
S'VBD'
p310
S'B-VP'
p311
g3
tp312
a(S'randomly'
p313
S'randomly'
p314
S'RB'
p315
S'I-VP'
p316
g3
tp317
a(S'divided'
p318
S'divide'
p319
S'VBN'
p320
S'I-VP'
p321
g3
tp322
a(S'into'
p323
S'into'
p324
S'IN'
p325
S'B-PP'
p326
g3
tp327
a(S'low'
p328
S'low'
p329
S'JJ'
p330
S'B-NP'
p331
g3
tp332
a(S'VT'
p333
S'VT'
p334
S'NN'
p335
S'I-NP'
p336
g3
tp337
a(S'ventilation'
p338
S'ventilation'
p339
S'NN'
p340
S'I-NP'
p341
g3
tp342
a(S'group'
p343
S'group'
p344
S'NN'
p345
S'I-NP'
p346
g3
tp347
a(S'and'
p348
S'and'
p349
S'CC'
p350
g3
g3
tp351
a(S'conventional'
p352
S'conventional'
p353
S'JJ'
p354
S'B-NP'
p355
g3
tp356
a(S'VT'
p357
S'VT'
p358
S'NN'
p359
S'I-NP'
p360
g3
tp361
a(S'group.'
p362
S'group.'
p363
S'NN'
p364
S'I-NP'
p365
g3
tp366
a(S'Both'
p367
S'Both'
p368
S'DT'
p369
S'B-NP'
p370
g3
tp371
a(S'groups'
p372
S'group'
p373
S'NNS'
p374
S'I-NP'
p375
g3
tp376
a(S'were'
p377
S'be'
p378
S'VBD'
p379
S'B-VP'
p380
g3
tp381
a(S'given'
p382
S'give'
p383
S'VBN'
p384
S'I-VP'
p385
g3
tp386
a(S'the'
p387
S'the'
p388
S'DT'
p389
S'B-NP'
p390
g3
tp391
a(S'volume'
p392
S'volume'
p393
S'NN'
p394
S'I-NP'
p395
g3
tp396
a(S'control'
p397
S'control'
p398
S'NN'
p399
S'I-NP'
p400
g3
tp401
a(S'mode.'
p402
S'mode.'
p403
S'NN'
p404
S'I-NP'
p405
g3
tp406
a(S'In'
p407
S'In'
p408
S'IN'
p409
S'B-PP'
p410
g3
tp411
a(S'the'
p412
S'the'
p413
S'DT'
p414
S'B-NP'
p415
g3
tp416
a(S'low'
p417
S'low'
p418
S'JJ'
p419
S'I-NP'
p420
g3
tp421
a(S'VT'
p422
S'VT'
p423
S'NN'
p424
S'I-NP'
p425
g3
tp426
a(S'ventilation'
p427
S'ventilation'
p428
S'NN'
p429
S'I-NP'
p430
g3
tp431
a(S'group'
p432
S'group'
p433
S'NN'
p434
S'I-NP'
p435
g3
tp436
a(S','
p437
g437
g437
g3
g3
tp438
a(S'VT'
p439
S'VT'
p440
S'NN'
p441
S'B-NP'
p442
g3
tp443
a(S'was'
p444
S'be'
p445
S'VBD'
p446
S'B-VP'
p447
g3
tp448
a(S'set'
p449
S'set'
p450
S'VBN'
p451
S'I-VP'
p452
g3
tp453
a(S'on'
p454
S'on'
p455
S'IN'
p456
S'B-PP'
p457
g3
tp458
a(S'6'
p459
g459
S'CD'
p460
S'B-NP'
p461
g3
tp462
a(S'-'
p463
g463
S'HYPH'
p464
S'I-NP'
p465
g3
tp466
a(S'7'
p467
g467
S'CD'
p468
S'I-NP'
p469
g3
tp470
a(S'ml/kg'
p471
S'ml/kg'
p472
S'NN'
p473
S'I-NP'
p474
g3
tp475
a(g437
g437
g437
g3
g3
tp476
a(S'and'
p477
S'and'
p478
S'CC'
p479
g3
g3
tp480
a(S'high'
p481
S'high'
p482
S'JJ'
p483
S'B-NP'
p484
g3
tp485
a(S'pressure'
p486
S'pressure'
p487
S'NN'
p488
S'I-NP'
p489
g3
tp490
a(S'alarm'
p491
S'alarm'
p492
S'NN'
p493
S'I-NP'
p494
g3
tp495
a(S'threshold'
p496
S'threshold'
p497
S'NN'
p498
S'I-NP'
p499
g3
tp500
a(S'was'
p501
S'be'
p502
S'VBD'
p503
S'B-VP'
p504
g3
tp505
a(S'adjusted'
p506
S'adjust'
p507
S'VBN'
p508
S'I-VP'
p509
g3
tp510
a(S'to'
p511
S'to'
p512
S'TO'
p513
S'B-PP'
p514
g3
tp515
a(S'60'
p516
S'60'
p517
S'CD'
p518
S'B-NP'
p519
g3
tp520
a(S'cm'
p521
S'cm'
p522
S'NN'
p523
S'I-NP'
p524
g3
tp525
a(S'H2O'
p526
S'H2O'
p527
S'NN'
p528
S'I-NP'
p529
g3
tp530
a(S'by'
p531
S'by'
p532
S'IN'
p533
S'B-PP'
p534
g3
tp535
a(S'the'
p536
S'the'
p537
S'DT'
p538
S'B-NP'
p539
g3
tp540
a(S'conventional'
p541
S'conventional'
p542
S'JJ'
p543
S'I-NP'
p544
g3
tp545
a(S'40'
p546
S'40'
p547
S'CD'
p548
S'I-NP'
p549
g3
tp550
a(S'cm'
p551
S'cm'
p552
S'NN'
p553
S'I-NP'
p554
g3
tp555
a(S'H2O'
p556
S'H2O'
p557
S'NN'
p558
S'I-NP'
p559
g3
tp560
a(S'during'
p561
S'during'
p562
S'IN'
p563
S'B-PP'
p564
g3
tp565
a(S'CPR.'
p566
S'CPR.'
p567
S'NN'
p568
S'B-NP'
p569
S'B-protein'
p570
tp571
a(S'In'
p572
S'In'
p573
S'IN'
p574
S'B-PP'
p575
g3
tp576
a(S'the'
p577
S'the'
p578
S'DT'
p579
S'B-NP'
p580
g3
tp581
a(S'conventional'
p582
S'conventional'
p583
S'JJ'
p584
S'I-NP'
p585
g3
tp586
a(S'VT'
p587
S'VT'
p588
S'NN'
p589
S'I-NP'
p590
g3
tp591
a(S'group'
p592
S'group'
p593
S'NN'
p594
S'I-NP'
p595
g3
tp596
a(g437
g437
g437
g3
g3
tp597
a(S'VT'
p598
S'VT'
p599
S'NN'
p600
S'B-NP'
p601
g3
tp602
a(S'and'
p603
S'and'
p604
S'CC'
p605
g3
g3
tp606
a(S'high'
p607
S'high'
p608
S'JJ'
p609
S'B-NP'
p610
g3
tp611
a(S'pressure'
p612
S'pressure'
p613
S'NN'
p614
S'I-NP'
p615
g3
tp616
a(S'alarm'
p617
S'alarm'
p618
S'NN'
p619
S'I-NP'
p620
g3
tp621
a(S'threshold'
p622
S'threshold'
p623
S'NN'
p624
S'I-NP'
p625
g3
tp626
a(S'were'
p627
S'be'
p628
S'VBD'
p629
S'B-VP'
p630
g3
tp631
a(S'set'
p632
S'set'
p633
S'VBN'
p634
S'I-VP'
p635
g3
tp636
a(S'at'
p637
S'at'
p638
S'IN'
p639
S'B-PP'
p640
g3
tp641
a(S'8'
p642
g642
S'CD'
p643
S'B-NP'
p644
g3
tp645
a(g463
g463
S'HYPH'
p646
S'I-NP'
p647
g3
tp648
a(S'12'
p649
S'12'
p650
S'CD'
p651
S'I-NP'
p652
g3
tp653
a(S'ml/kg'
p654
S'ml/kg'
p655
S'NN'
p656
S'I-NP'
p657
g3
tp658
a(S'and'
p659
S'and'
p660
S'CC'
p661
S'I-NP'
p662
g3
tp663
a(S'40'
p664
S'40'
p665
S'CD'
p666
S'I-NP'
p667
g3
tp668
a(S'cm'
p669
S'cm'
p670
S'NN'
p671
S'I-NP'
p672
g3
tp673
a(S'H2O'
p674
S'H2O'
p675
S'NN'
p676
S'I-NP'
p677
g3
tp678
a(g437
g437
g437
g3
g3
tp679
a(S'respectively.'
p680
S'respectively.'
p681
S'VBP'
p682
S'B-VP'
p683
g3
tp684
a(S'Real-time'
p685
S'Real-time'
p686
S'JJ'
p687
S'B-NP'
p688
g3
tp689
a(S'actual'
p690
S'actual'
p691
S'JJ'
p692
S'I-NP'
p693
g3
tp694
a(S'VT'
p695
S'VT'
p696
S'NN'
p697
S'I-NP'
p698
g3
tp699
a(g437
g437
g437
g3
g3
tp700
a(S'peak'
p701
S'peak'
p702
S'JJ'
p703
S'B-NP'
p704
g3
tp705
a(S'inspiratory'
p706
S'inspiratory'
p707
S'JJ'
p708
S'I-NP'
p709
g3
tp710
a(S'pressure'
p711
S'pressure'
p712
S'NN'
p713
S'I-NP'
p714
g3
tp715
a(g2
g2
g2
g3
g3
tp716
a(S'PIP'
p717
S'PIP'
p718
S'NN'
p719
S'B-NP'
p720
S'B-protein'
p721
tp722
a(g105
g105
g105
g3
g3
tp723
a(g437
g437
g437
g3
g3
tp724
a(S'and'
p725
S'and'
p726
S'CC'
p727
g3
g3
tp728
a(S'arterial'
p729
S'arterial'
p730
S'JJ'
p731
S'B-NP'
p732
g3
tp733
a(S'blood'
p734
S'blood'
p735
S'NN'
p736
S'I-NP'
p737
g3
tp738
a(S'gas'
p739
S'gas'
p740
S'NN'
p741
S'I-NP'
p742
g3
tp743
a(S'test'
p744
S'test'
p745
S'NN'
p746
S'I-NP'
p747
g3
tp748
a(g437
g437
g437
g3
g3
tp749
a(S'blood'
p750
S'blood'
p751
S'NN'
p752
S'B-NP'
p753
g3
tp754
a(S'lactic'
p755
S'lactic'
p756
S'JJ'
p757
S'I-NP'
p758
g3
tp759
a(S'acid'
p760
S'acid'
p761
S'NN'
p762
S'I-NP'
p763
g3
tp764
a(S'at'
p765
S'at'
p766
S'IN'
p767
S'B-PP'
p768
g3
tp769
a(S'10'
p770
S'10'
p771
S'CD'
p772
S'B-NP'
p773
g3
tp774
a(S'minutes'
p775
S'minute'
p776
S'NNS'
p777
S'I-NP'
p778
g3
tp779
a(S'and'
p780
S'and'
p781
S'CC'
p782
g3
g3
tp783
a(S'30'
p784
S'30'
p785
S'CD'
p786
S'B-NP'
p787
g3
tp788
a(S'minutes'
p789
S'minute'
p790
S'NNS'
p791
S'I-NP'
p792
g3
tp793
a(S'after'
p794
S'after'
p795
S'IN'
p796
S'B-PP'
p797
g3
tp798
a(S'CPR'
p799
S'CPR'
p800
S'NN'
p801
S'B-NP'
p802
S'B-protein'
p803
tp804
a(S'were'
p805
S'be'
p806
S'VBD'
p807
S'B-VP'
p808
g3
tp809
a(S'observed'
p810
S'observe'
p811
S'VBN'
p812
S'I-VP'
p813
g3
tp814
a(g107
g107
g107
g3
g3
tp815
a(S'RESULTS'
p816
S'RESULTS'
p817
S'NNS'
p818
S'B-NP'
p819
g3
tp820
a(S'At'
p821
S'At'
p822
S'IN'
p823
S'B-PP'
p824
g3
tp825
a(S'10'
p826
S'10'
p827
S'CD'
p828
S'B-NP'
p829
g3
tp830
a(S'minutes'
p831
S'minute'
p832
S'NNS'
p833
S'I-NP'
p834
g3
tp835
a(S'after'
p836
S'after'
p837
S'IN'
p838
S'B-PP'
p839
g3
tp840
a(S'CPR'
p841
S'CPR'
p842
S'NN'
p843
S'B-NP'
p844
S'B-protein'
p845
tp846
a(g437
g437
g437
g3
g3
tp847
a(S'in'
p848
S'in'
p849
S'IN'
p850
S'B-PP'
p851
g3
tp852
a(S'the'
p853
S'the'
p854
S'DT'
p855
S'B-NP'
p856
g3
tp857
a(S'low'
p858
S'low'
p859
S'JJ'
p860
S'I-NP'
p861
g3
tp862
a(S'VT'
p863
S'VT'
p864
S'NN'
p865
S'I-NP'
p866
g3
tp867
a(S'ventilation'
p868
S'ventilation'
p869
S'NN'
p870
S'I-NP'
p871
g3
tp872
a(S'group'
p873
S'group'
p874
S'NN'
p875
S'I-NP'
p876
g3
tp877
a(g437
g437
g437
g3
g3
tp878
a(S'arterial'
p879
S'arterial'
p880
S'JJ'
p881
S'B-NP'
p882
g3
tp883
a(S'blood'
p884
S'blood'
p885
S'NN'
p886
S'I-NP'
p887
g3
tp888
a(S'pH'
p889
S'pH'
p890
S'NN'
p891
S'I-NP'
p892
g3
tp893
a(g437
g437
g437
g3
g3
tp894
a(S'arterial'
p895
S'arterial'
p896
S'JJ'
p897
S'B-NP'
p898
g3
tp899
a(S'partial'
p900
S'partial'
p901
S'JJ'
p902
S'I-NP'
p903
g3
tp904
a(S'pressure'
p905
S'pressure'
p906
S'NN'
p907
S'I-NP'
p908
g3
tp909
a(S'of'
p910
S'of'
p911
S'IN'
p912
S'B-PP'
p913
g3
tp914
a(S'oxygen'
p915
S'oxygen'
p916
S'NN'
p917
S'B-NP'
p918
g3
tp919
a(g2
g2
g2
g3
g3
tp920
a(S'PaO2'
p921
S'PaO2'
p922
S'NN'
p923
S'B-NP'
p924
g3
tp925
a(g105
g105
g105
g3
g3
tp926
a(g437
g437
g437
g3
g3
tp927
a(S'arterial'
p928
S'arterial'
p929
S'JJ'
p930
S'B-NP'
p931
g3
tp932
a(S'partial'
p933
S'partial'
p934
S'JJ'
p935
S'I-NP'
p936
g3
tp937
a(S'pressure'
p938
S'pressure'
p939
S'NN'
p940
S'I-NP'
p941
g3
tp942
a(S'of'
p943
S'of'
p944
S'IN'
p945
S'B-PP'
p946
g3
tp947
a(S'carbon'
p948
S'carbon'
p949
S'NN'
p950
S'B-NP'
p951
g3
tp952
a(S'dioxide'
p953
S'dioxide'
p954
S'NN'
p955
S'I-NP'
p956
g3
tp957
a(g2
g2
g2
g3
g3
tp958
a(S'PaCO2'
p959
S'PaCO2'
p960
S'NN'
p961
S'B-NP'
p962
g3
tp963
a(g105
g105
g105
g3
g3
tp964
a(g437
g437
g437
g3
g3
tp965
a(S'HCO3'
p966
S'HCO3'
p967
S'NN'
p968
S'B-NP'
p969
S'B-protein'
p970
tp971
a(g2
g2
g2
g3
g3
tp972
a(g463
g463
S'SYM'
p973
S'B-NP'
p974
g3
tp975
a(g105
g105
g105
g3
g3
tp976
a(g437
g437
g437
g3
g3
tp977
a(S'arterial'
p978
S'arterial'
p979
S'JJ'
p980
S'B-NP'
p981
g3
tp982
a(S'oxygen'
p983
S'oxygen'
p984
S'NN'
p985
S'I-NP'
p986
g3
tp987
a(S'saturation'
p988
S'saturation'
p989
S'NN'
p990
S'I-NP'
p991
g3
tp992
a(g2
g2
g2
g3
g3
tp993
a(S'SaO2'
p994
S'SaO2'
p995
S'NN'
p996
S'B-NP'
p997
g3
tp998
a(g105
g105
g105
g3
g3
tp999
a(S'and'
p1000
S'and'
p1001
S'CC'
p1002
g3
g3
tp1003
a(S'blood'
p1004
S'blood'
p1005
S'NN'
p1006
S'B-NP'
p1007
g3
tp1008
a(S'lactic'
p1009
S'lactic'
p1010
S'JJ'
p1011
S'I-NP'
p1012
g3
tp1013
a(S'acid'
p1014
S'acid'
p1015
S'NN'
p1016
S'I-NP'
p1017
g3
tp1018
a(S'were'
p1019
S'be'
p1020
S'VBD'
p1021
S'B-VP'
p1022
g3
tp1023
a(S'better'
p1024
S'good'
p1025
S'JJR'
p1026
S'B-ADJP'
p1027
g3
tp1028
a(S'as'
p1029
S'as'
p1030
S'IN'
p1031
S'B-PP'
p1032
g3
tp1033
a(S'compared'
p1034
S'compare'
p1035
S'VBN'
p1036
S'B-PP'
p1037
g3
tp1038
a(S'with'
p1039
S'with'
p1040
S'IN'
p1041
S'B-PP'
p1042
g3
tp1043
a(S'those'
p1044
S'those'
p1045
S'DT'
p1046
S'B-NP'
p1047
g3
tp1048
a(S'in'
p1049
S'in'
p1050
S'IN'
p1051
S'B-PP'
p1052
g3
tp1053
a(S'the'
p1054
S'the'
p1055
S'DT'
p1056
S'B-NP'
p1057
g3
tp1058
a(S'conventional'
p1059
S'conventional'
p1060
S'JJ'
p1061
S'I-NP'
p1062
g3
tp1063
a(S'VT'
p1064
S'VT'
p1065
S'NN'
p1066
S'I-NP'
p1067
g3
tp1068
a(S'ventilation'
p1069
S'ventilation'
p1070
S'NN'
p1071
S'I-NP'
p1072
g3
tp1073
a(S'group'
p1074
S'group'
p1075
S'NN'
p1076
S'I-NP'
p1077
g3
tp1078
a(g2
g2
g2
g3
g3
tp1079
a(S'pH'
p1080
S'pH'
p1081
S'NN'
p1082
S'B-NP'
p1083
g3
tp1084
a(S':'
p1085
g1085
g1085
g3
g3
tp1086
a(S'7.21\xc2\xb10.09'
p1087
S'7.21\xc2\xb10.09'
p1088
S'CD'
p1089
S'B-NP'
p1090
g3
tp1091
a(S'vs.'
p1092
S'vs.'
p1093
S'IN'
p1094
S'B-PP'
p1095
g3
tp1096
a(S'7.13\xc2\xb10.07'
p1097
S'7.13\xc2\xb10.07'
p1098
S'CD'
p1099
S'B-NP'
p1100
g3
tp1101
a(g437
g437
g437
g3
g3
tp1102
a(S'PaO2'
p1103
S'PaO2'
p1104
S'NN'
p1105
S'B-NP'
p1106
g3
tp1107
a(g1085
g1085
g1085
g3
g3
tp1108
a(S'45.35\xc2\xb15.92'
p1109
S'45.35\xc2\xb15.92'
p1110
S'CD'
p1111
S'B-NP'
p1112
g3
tp1113
a(S'mm'
p1114
S'mm'
p1115
S'NN'
p1116
S'I-NP'
p1117
g3
tp1118
a(S'Hg'
p1119
S'Hg'
p1120
S'NN'
p1121
S'I-NP'
p1122
g3
tp1123
a(S'vs.'
p1124
S'vs.'
p1125
S'IN'
p1126
S'B-PP'
p1127
g3
tp1128
a(S'40.70\xc2\xb14.70'
p1129
S'40.70\xc2\xb14.70'
p1130
S'CD'
p1131
S'B-NP'
p1132
g3
tp1133
a(S'mm'
p1134
S'mm'
p1135
S'NN'
p1136
S'I-NP'
p1137
g3
tp1138
a(S'Hg'
p1139
S'Hg'
p1140
S'NN'
p1141
S'I-NP'
p1142
g3
tp1143
a(g437
g437
g437
g3
g3
tp1144
a(S'PaCO2'
p1145
S'PaCO2'
p1146
S'NN'
p1147
S'B-NP'
p1148
g3
tp1149
a(g1085
g1085
g1085
g3
g3
tp1150
a(S'57.10\xc2\xb17.59'
p1151
S'57.10\xc2\xb17.59'
p1152
S'CD'
p1153
S'B-NP'
p1154
g3
tp1155
a(S'mm'
p1156
S'mm'
p1157
S'NN'
p1158
S'I-NP'
p1159
g3
tp1160
a(S'Hg'
p1161
S'Hg'
p1162
S'NN'
p1163
S'I-NP'
p1164
g3
tp1165
a(S'vs.'
p1166
S'vs.'
p1167
S'IN'
p1168
S'B-PP'
p1169
g3
tp1170
a(S'61.60\xc2\xb15.47'
p1171
S'61.60\xc2\xb15.47'
p1172
S'CD'
p1173
S'B-NP'
p1174
g3
tp1175
a(S'mm'
p1176
S'mm'
p1177
S'NN'
p1178
S'I-NP'
p1179
g3
tp1180
a(S'Hg'
p1181
S'Hg'
p1182
S'NN'
p1183
S'I-NP'
p1184
g3
tp1185
a(g437
g437
g437
g3
g3
tp1186
a(S'HCO3'
p1187
S'HCO3'
p1188
S'NN'
p1189
S'B-NP'
p1190
S'B-protein'
p1191
tp1192
a(g2
g2
g2
g3
g3
tp1193
a(g463
g463
S'SYM'
p1194
S'B-NP'
p1195
g3
tp1196
a(g105
g105
g105
g3
g3
tp1197
a(g1085
g1085
g1085
g3
g3
tp1198
a(S'18.50\xc2\xb13.50'
p1199
S'18.50\xc2\xb13.50'
p1200
S'CD'
p1201
S'B-NP'
p1202
g3
tp1203
a(S'mmol/L'
p1204
S'mmol/L'
p1205
S'NN'
p1206
S'I-NP'
p1207
g3
tp1208
a(S'vs.'
p1209
S'vs.'
p1210
S'IN'
p1211
S'B-PP'
p1212
g3
tp1213
a(S'14.75\xc2\xb12.65'
p1214
S'14.75\xc2\xb12.65'
p1215
S'CD'
p1216
S'B-NP'
p1217
g3
tp1218
a(S'mmol/L'
p1219
S'mmol/L'
p1220
S'NN'
p1221
S'I-NP'
p1222
g3
tp1223
a(g437
g437
g437
g3
g3
tp1224
a(S'SaO2'
p1225
S'SaO2'
p1226
S'NN'
p1227
S'B-NP'
p1228
g3
tp1229
a(g1085
g1085
g1085
g3
g3
tp1230
a(S'0.796\xc2\xb10.069'
p1231
S'0.796\xc2\xb10.069'
p1232
S'CD'
p1233
S'B-NP'
p1234
g3
tp1235
a(S'vs.'
p1236
S'vs.'
p1237
S'IN'
p1238
S'B-PP'
p1239
g3
tp1240
a(S'0.699\xc2\xb10.066'
p1241
S'0.699\xc2\xb10.066'
p1242
S'CD'
p1243
S'B-NP'
p1244
g3
tp1245
a(g437
g437
g437
g3
g3
tp1246
a(S'blood'
p1247
S'blood'
p1248
S'NN'
p1249
S'B-NP'
p1250
g3
tp1251
a(S'lactic'
p1252
S'lactic'
p1253
S'JJ'
p1254
S'I-NP'
p1255
g3
tp1256
a(S'acid'
p1257
S'acid'
p1258
S'NN'
p1259
S'I-NP'
p1260
g3
tp1261
a(g1085
g1085
g1085
g3
g3
tp1262
a(S'7.07\xc2\xb11.60'
p1263
S'7.07\xc2\xb11.60'
p1264
S'CD'
p1265
S'B-NP'
p1266
g3
tp1267
a(S'mmol/L'
p1268
S'mmol/L'
p1269
S'NN'
p1270
S'I-NP'
p1271
g3
tp1272
a(S'vs.'
p1273
S'vs.'
p1274
S'IN'
p1275
S'B-PP'
p1276
g3
tp1277
a(S'8.13\xc2\xb11.56'
p1278
S'8.13\xc2\xb11.56'
p1279
S'CD'
p1280
S'B-NP'
p1281
g3
tp1282
a(S'mmol/L'
p1283
S'mmol/L'
p1284
S'NN'
p1285
S'I-NP'
p1286
g3
tp1287
a(g437
g437
g437
g3
g3
tp1288
a(S'all'
p1289
S'all'
p1290
S'DT'
p1291
S'B-NP'
p1292
g3
tp1293
a(S'P'
p1294
g1294
S'NN'
p1295
S'I-NP'
p1296
g3
tp1297
a(S'<'
p1298
g1298
S'JJR'
p1299
S'B-NP'
p1300
g3
tp1301
a(S'0.05'
p1302
S'0.05'
p1303
S'CD'
p1304
S'I-NP'
p1305
g3
tp1306
a(g105
g105
g105
g3
g3
tp1307
a(g107
g107
g107
g3
g3
tp1308
a(S'The'
p1309
S'The'
p1310
S'DT'
p1311
S'B-NP'
p1312
g3
tp1313
a(S'success'
p1314
S'success'
p1315
S'NN'
p1316
S'I-NP'
p1317
g3
tp1318
a(S'rate'
p1319
S'rate'
p1320
S'NN'
p1321
S'I-NP'
p1322
g3
tp1323
a(S'of'
p1324
S'of'
p1325
S'IN'
p1326
S'B-PP'
p1327
g3
tp1328
a(S'resuscitation'
p1329
S'resuscitation'
p1330
S'NN'
p1331
S'B-NP'
p1332
g3
tp1333
a(S'in'
p1334
S'in'
p1335
S'IN'
p1336
S'B-PP'
p1337
g3
tp1338
a(S'the'
p1339
S'the'
p1340
S'DT'
p1341
S'B-NP'
p1342
g3
tp1343
a(S'low'
p1344
S'low'
p1345
S'JJ'
p1346
S'I-NP'
p1347
g3
tp1348
a(S'VT'
p1349
S'VT'
p1350
S'NN'
p1351
S'I-NP'
p1352
g3
tp1353
a(S'ventilation'
p1354
S'ventilation'
p1355
S'NN'
p1356
S'I-NP'
p1357
g3
tp1358
a(S'group'
p1359
S'group'
p1360
S'NN'
p1361
S'I-NP'
p1362
g3
tp1363
a(S'was'
p1364
S'be'
p1365
S'VBD'
p1366
S'B-VP'
p1367
g3
tp1368
a(S'higher'
p1369
S'high'
p1370
S'JJR'
p1371
S'B-ADJP'
p1372
g3
tp1373
a(S'than'
p1374
S'than'
p1375
S'IN'
p1376
S'B-PP'
p1377
g3
tp1378
a(S'that'
p1379
S'that'
p1380
S'DT'
p1381
S'B-NP'
p1382
g3
tp1383
a(S'of'
p1384
S'of'
p1385
S'IN'
p1386
S'B-PP'
p1387
g3
tp1388
a(S'the'
p1389
S'the'
p1390
S'DT'
p1391
S'B-NP'
p1392
g3
tp1393
a(S'conventional'
p1394
S'conventional'
p1395
S'JJ'
p1396
S'I-NP'
p1397
g3
tp1398
a(S'VT'
p1399
S'VT'
p1400
S'NN'
p1401
S'I-NP'
p1402
g3
tp1403
a(S'ventilation'
p1404
S'ventilation'
p1405
S'NN'
p1406
S'I-NP'
p1407
g3
tp1408
a(S'group'
p1409
S'group'
p1410
S'NN'
p1411
S'I-NP'
p1412
g3
tp1413
a(g2
g2
g2
g3
g3
tp1414
a(S'45'
p1415
S'45'
p1416
S'CD'
p1417
S'B-NP'
p1418
g3
tp1419
a(S'%'
p1420
g1420
S'NN'
p1421
S'I-NP'
p1422
g3
tp1423
a(S'vs.'
p1424
S'vs.'
p1425
S'IN'
p1426
S'B-PP'
p1427
g3
tp1428
a(S'15'
p1429
S'15'
p1430
S'CD'
p1431
S'B-NP'
p1432
g3
tp1433
a(g1420
g1420
S'NN'
p1434
S'I-NP'
p1435
g3
tp1436
a(g437
g437
g437
g3
g3
tp1437
a(g1294
g1294
S'NN'
p1438
S'B-NP'
p1439
g3
tp1440
a(g1298
g1298
S'SYM'
p1441
S'B-NP'
p1442
g3
tp1443
a(S'0.05'
p1444
S'0.05'
p1445
S'CD'
p1446
S'I-NP'
p1447
g3
tp1448
a(g105
g105
g105
g3
g3
tp1449
a(g437
g437
g437
g3
g3
tp1450
a(S'and'
p1451
S'and'
p1452
S'CC'
p1453
g3
g3
tp1454
a(S'PIP'
p1455
S'PIP'
p1456
S'NN'
p1457
S'B-NP'
p1458
S'B-protein'
p1459
tp1460
a(g2
g2
g2
g3
g3
tp1461
a(S'cm'
p1462
S'cm'
p1463
S'NN'
p1464
S'B-NP'
p1465
g3
tp1466
a(S'H2O'
p1467
S'H2O'
p1468
S'NN'
p1469
S'I-NP'
p1470
g3
tp1471
a(g105
g105
g105
g3
g3
tp1472
a(S'of'
p1473
S'of'
p1474
S'IN'
p1475
S'B-PP'
p1476
g3
tp1477
a(S'low'
p1478
S'low'
p1479
S'JJ'
p1480
S'B-NP'
p1481
g3
tp1482
a(S'VT'
p1483
S'VT'
p1484
S'NN'
p1485
S'I-NP'
p1486
g3
tp1487
a(S'ventilation'
p1488
S'ventilation'
p1489
S'NN'
p1490
S'I-NP'
p1491
g3
tp1492
a(S'group'
p1493
S'group'
p1494
S'NN'
p1495
S'I-NP'
p1496
g3
tp1497
a(S'was'
p1498
S'be'
p1499
S'VBD'
p1500
S'B-VP'
p1501
g3
tp1502
a(S'lower'
p1503
S'low'
p1504
S'JJR'
p1505
S'B-ADJP'
p1506
g3
tp1507
a(S'than'
p1508
S'than'
p1509
S'IN'
p1510
S'B-PP'
p1511
g3
tp1512
a(S'that'
p1513
S'that'
p1514
S'DT'
p1515
S'B-NP'
p1516
g3
tp1517
a(S'of'
p1518
S'of'
p1519
S'IN'
p1520
S'B-PP'
p1521
g3
tp1522
a(S'the'
p1523
S'the'
p1524
S'DT'
p1525
S'B-NP'
p1526
g3
tp1527
a(S'conventional'
p1528
S'conventional'
p1529
S'JJ'
p1530
S'I-NP'
p1531
g3
tp1532
a(S'VT'
p1533
S'VT'
p1534
S'NN'
p1535
S'I-NP'
p1536
g3
tp1537
a(S'group'
p1538
S'group'
p1539
S'NN'
p1540
S'I-NP'
p1541
g3
tp1542
a(g2
g2
g2
g3
g3
tp1543
a(S'37.25\xc2\xb17.99'
p1544
S'37.25\xc2\xb17.99'
p1545
S'CD'
p1546
S'B-NP'
p1547
g3
tp1548
a(S'cm'
p1549
S'cm'
p1550
S'NN'
p1551
S'I-NP'
p1552
g3
tp1553
a(S'H2O'
p1554
S'H2O'
p1555
S'NN'
p1556
S'I-NP'
p1557
g3
tp1558
a(S'vs.'
p1559
S'vs.'
p1560
S'IN'
p1561
S'B-PP'
p1562
g3
tp1563
a(S'42.70\xc2\xb17.40'
p1564
S'42.70\xc2\xb17.40'
p1565
S'CD'
p1566
S'B-NP'
p1567
g3
tp1568
a(S'cm'
p1569
S'cm'
p1570
S'NN'
p1571
S'I-NP'
p1572
g3
tp1573
a(S'H2O'
p1574
S'H2O'
p1575
S'NN'
p1576
S'I-NP'
p1577
g3
tp1578
a(g437
g437
g437
g3
g3
tp1579
a(g1294
g1294
S'NN'
p1580
S'B-NP'
p1581
g3
tp1582
a(g1298
g1298
S'SYM'
p1583
S'B-NP'
p1584
g3
tp1585
a(S'0.05'
p1586
S'0.05'
p1587
S'CD'
p1588
S'I-NP'
p1589
g3
tp1590
a(g105
g105
g105
g3
g3
tp1591
a(g107
g107
g107
g3
g3
tp1592
a(S'In'
p1593
S'In'
p1594
S'IN'
p1595
S'B-PP'
p1596
g3
tp1597
a(S'all'
p1598
S'all'
p1599
S'PDT'
p1600
S'B-NP'
p1601
g3
tp1602
a(S'the'
p1603
S'the'
p1604
S'DT'
p1605
S'I-NP'
p1606
g3
tp1607
a(S'patients'
p1608
S'patient'
p1609
S'NNS'
p1610
S'I-NP'
p1611
g3
tp1612
a(S'in'
p1613
S'in'
p1614
S'IN'
p1615
S'B-PP'
p1616
g3
tp1617
a(S'both'
p1618
S'both'
p1619
S'DT'
p1620
S'B-NP'
p1621
g3
tp1622
a(S'groups'
p1623
S'group'
p1624
S'NNS'
p1625
S'I-NP'
p1626
g3
tp1627
a(S'barotrauma'
p1628
S'barotrauma'
p1629
S'NN'
p1630
S'I-NP'
p1631
g3
tp1632
a(S'did'
p1633
S'do'
p1634
S'VBD'
p1635
S'B-VP'
p1636
g3
tp1637
a(S'not'
p1638
S'not'
p1639
S'RB'
p1640
S'I-VP'
p1641
g3
tp1642
a(S'occur'
p1643
S'occur'
p1644
S'VB'
p1645
S'I-VP'
p1646
g3
tp1647
a(g107
g107
g107
g3
g3
tp1648
a(S'CONCLUSION'
p1649
S'CONCLUSION'
p1650
S'NN'
p1651
S'B-NP'
p1652
g3
tp1653
a(S'The'
p1654
S'The'
p1655
S'DT'
p1656
S'B-NP'
p1657
g3
tp1658
a(S'strategy'
p1659
S'strategy'
p1660
S'NN'
p1661
S'I-NP'
p1662
g3
tp1663
a(S'of'
p1664
S'of'
p1665
S'IN'
p1666
S'B-PP'
p1667
g3
tp1668
a(S'low'
p1669
S'low'
p1670
S'JJ'
p1671
S'B-NP'
p1672
g3
tp1673
a(S'ventilator'
p1674
S'ventilator'
p1675
S'NN'
p1676
S'I-NP'
p1677
g3
tp1678
a(S'VT'
p1679
S'VT'
p1680
S'NN'
p1681
S'I-NP'
p1682
g3
tp1683
a(g2
g2
g2
g3
g3
tp1684
a(g459
g459
S'CD'
p1685
S'B-NP'
p1686
g3
tp1687
a(g463
g463
S'HYPH'
p1688
S'I-NP'
p1689
g3
tp1690
a(g467
g467
S'CD'
p1691
S'I-NP'
p1692
g3
tp1693
a(S'ml/kg'
p1694
S'ml/kg'
p1695
S'NN'
p1696
S'I-NP'
p1697
g3
tp1698
a(g105
g105
g105
g3
g3
tp1699
a(S'with'
p1700
S'with'
p1701
S'IN'
p1702
S'B-PP'
p1703
g3
tp1704
a(S'appropriate'
p1705
S'appropriate'
p1706
S'JJ'
p1707
S'B-NP'
p1708
g3
tp1709
a(S'elevation'
p1710
S'elevation'
p1711
S'NN'
p1712
S'I-NP'
p1713
g3
tp1714
a(S'of'
p1715
S'of'
p1716
S'IN'
p1717
S'B-PP'
p1718
g3
tp1719
a(S'airway'
p1720
S'airway'
p1721
S'NN'
p1722
S'B-NP'
p1723
g3
tp1724
a(S'pressure'
p1725
S'pressure'
p1726
S'NN'
p1727
S'I-NP'
p1728
g3
tp1729
a(S'alarm'
p1730
S'alarm'
p1731
S'NN'
p1732
S'I-NP'
p1733
g3
tp1734
a(S'threshold'
p1735
S'threshold'
p1736
S'NN'
p1737
S'I-NP'
p1738
g3
tp1739
a(S'was'
p1740
S'be'
p1741
S'VBD'
p1742
S'B-VP'
p1743
g3
tp1744
a(S'better'
p1745
S'good'
p1746
S'JJR'
p1747
S'B-ADJP'
p1748
g3
tp1749
a(S'than'
p1750
S'than'
p1751
S'IN'
p1752
S'B-PP'
p1753
g3
tp1754
a(S'that'
p1755
S'that'
p1756
S'DT'
p1757
S'B-NP'
p1758
g3
tp1759
a(S'of'
p1760
S'of'
p1761
S'IN'
p1762
S'B-PP'
p1763
g3
tp1764
a(S'conventional'
p1765
S'conventional'
p1766
S'JJ'
p1767
S'B-NP'
p1768
g3
tp1769
a(S'ventilation'
p1770
S'ventilation'
p1771
S'NN'
p1772
S'I-NP'
p1773
g3
tp1774
a(S'setting'
p1775
S'setting'
p1776
S'NN'
p1777
S'I-NP'
p1778
g3
tp1779
a(g437
g437
g437
g3
g3
tp1780
a(S'with'
p1781
S'with'
p1782
S'IN'
p1783
S'B-PP'
p1784
g3
tp1785
a(S'no'
p1786
S'no'
p1787
S'DT'
p1788
S'B-NP'
p1789
g3
tp1790
a(S'increase'
p1791
S'increase'
p1792
S'NN'
p1793
S'I-NP'
p1794
g3
tp1795
a(S'in'
p1796
S'in'
p1797
S'IN'
p1798
S'B-PP'
p1799
g3
tp1800
a(S'incidence'
p1801
S'incidence'
p1802
S'NN'
p1803
S'B-NP'
p1804
g3
tp1805
a(S'of'
p1806
S'of'
p1807
S'IN'
p1808
S'B-PP'
p1809
g3
tp1810
a(S'barotraumas'
p1811
S'barotrauma'
p1812
S'NNS'
p1813
S'B-NP'
p1814
g3
tp1815
a(S'during'
p1816
S'during'
p1817
S'IN'
p1818
S'B-PP'
p1819
g3
tp1820
a(S'CPR'
p1821
S'CPR'
p1822
S'NN'
p1823
S'B-NP'
p1824
S'B-protein'
p1825
tp1826
a(g107
g107
g107
g3
g3
tp1827
a.