(lp0
(S'Corticosteroids'
p1
S'Corticosteroid'
p2
S'NNS'
p3
S'B-NP'
p4
S'O'
p5
tp6
a(S'plus'
p7
S'plus'
p8
S'CC'
p9
g5
g5
tp10
a(S'pulse'
p11
S'pulse'
p12
S'NN'
p13
S'B-NP'
p14
g5
tp15
a(S'cyclophosphamide'
p16
S'cyclophosphamide'
p17
S'NN'
p18
S'I-NP'
p19
g5
tp20
a(S'and'
p21
S'and'
p22
S'CC'
p23
g5
g5
tp24
a(S'plasma'
p25
S'plasma'
p26
S'NN'
p27
S'B-NP'
p28
g5
tp29
a(S'exchanges'
p30
S'exchange'
p31
S'NNS'
p32
S'I-NP'
p33
g5
tp34
a(S'versus'
p35
S'versus'
p36
S'IN'
p37
S'B-PP'
p38
g5
tp39
a(S'corticosteroids'
p40
S'corticosteroid'
p41
S'NNS'
p42
S'B-NP'
p43
g5
tp44
a(S'plus'
p45
S'plus'
p46
S'CC'
p47
g5
g5
tp48
a(S'pulse'
p49
S'pulse'
p50
S'NN'
p51
S'B-NP'
p52
g5
tp53
a(S'cyclophosphamide'
p54
S'cyclophosphamide'
p55
S'NN'
p56
S'I-NP'
p57
g5
tp58
a(S'alone'
p59
S'alone'
p60
S'RB'
p61
S'B-ADVP'
p62
g5
tp63
a(S'in'
p64
S'in'
p65
S'IN'
p66
S'B-PP'
p67
g5
tp68
a(S'the'
p69
S'the'
p70
S'DT'
p71
S'B-NP'
p72
g5
tp73
a(S'treatment'
p74
S'treatment'
p75
S'NN'
p76
S'I-NP'
p77
g5
tp78
a(S'of'
p79
S'of'
p80
S'IN'
p81
S'B-PP'
p82
g5
tp83
a(S'polyarteritis'
p84
S'polyarteritis'
p85
S'NN'
p86
S'B-NP'
p87
g5
tp88
a(S'nodosa'
p89
S'nodosa'
p90
S'NN'
p91
S'I-NP'
p92
g5
tp93
a(S'and'
p94
S'and'
p95
S'CC'
p96
g5
g5
tp97
a(S'Churg-Strauss'
p98
S'Churg-Strauss'
p99
S'JJ'
p100
S'B-NP'
p101
g5
tp102
a(S'syndrome'
p103
S'syndrome'
p104
S'NN'
p105
S'I-NP'
p106
g5
tp107
a(S'patients'
p108
S'patient'
p109
S'NNS'
p110
S'I-NP'
p111
g5
tp112
a(S'with'
p113
S'with'
p114
S'IN'
p115
S'B-PP'
p116
g5
tp117
a(S'factors'
p118
S'factor'
p119
S'NNS'
p120
S'B-NP'
p121
g5
tp122
a(S'predicting'
p123
S'predict'
p124
S'VBG'
p125
S'B-VP'
p126
g5
tp127
a(S'poor'
p128
S'poor'
p129
S'JJ'
p130
S'B-NP'
p131
g5
tp132
a(S'prognosis.'
p133
S'prognosis.'
p134
S'NN'
p135
S'I-NP'
p136
g5
tp137
a(S'A'
p138
g138
S'NN'
p139
S'I-NP'
p140
g5
tp141
a(S'prospective'
p142
S'prospective'
p143
S'JJ'
p144
S'B-ADJP'
p145
g5
tp146
a(S','
p147
g147
g147
g5
g5
tp148
a(S'randomized'
p149
S'randomize'
p150
S'VBN'
p151
S'B-NP'
p152
g5
tp153
a(S'trial'
p154
S'trial'
p155
S'NN'
p156
S'I-NP'
p157
g5
tp158
a(S'in'
p159
S'in'
p160
S'IN'
p161
S'B-PP'
p162
g5
tp163
a(S'sixty-two'
p164
S'sixty-two'
p165
S'CD'
p166
S'B-NP'
p167
g5
tp168
a(S'patients'
p169
S'patient'
p170
S'NNS'
p171
S'I-NP'
p172
g5
tp173
a(S'.'
p174
g174
g174
g5
g5
tp175
a(S'OBJECTIVE'
p176
S'OBJECTIVE'
p177
S'NN'
p178
S'B-NP'
p179
g5
tp180
a(S'To'
p181
S'To'
p182
S'TO'
p183
S'B-VP'
p184
g5
tp185
a(S'define'
p186
S'define'
p187
S'VB'
p188
S'I-VP'
p189
g5
tp190
a(S'the'
p191
S'the'
p192
S'DT'
p193
S'B-NP'
p194
g5
tp195
a(S'most'
p196
S'most'
p197
S'RBS'
p198
S'I-NP'
p199
g5
tp200
a(S'effective'
p201
S'effective'
p202
S'JJ'
p203
S'I-NP'
p204
g5
tp205
a(S'treatment'
p206
S'treatment'
p207
S'NN'
p208
S'I-NP'
p209
g5
tp210
a(S'for'
p211
S'for'
p212
S'IN'
p213
S'B-PP'
p214
g5
tp215
a(S'severe'
p216
S'severe'
p217
S'JJ'
p218
S'B-NP'
p219
g5
tp220
a(S'polyarteritis'
p221
S'polyarteritis'
p222
S'NN'
p223
S'I-NP'
p224
g5
tp225
a(S'nodosa'
p226
S'nodosa'
p227
S'NN'
p228
S'I-NP'
p229
g5
tp230
a(S'('
p231
g231
g231
g5
g5
tp232
a(S'PAN'
p233
S'PAN'
p234
S'NN'
p235
S'B-NP'
p236
S'B-protein'
p237
tp238
a(S')'
p239
g239
g239
g5
g5
tp240
a(S'and'
p241
S'and'
p242
S'CC'
p243
g5
g5
tp244
a(S'Churg-Strauss'
p245
S'Churg-Strauss'
p246
S'JJ'
p247
S'B-NP'
p248
g5
tp249
a(S'syndrome'
p250
S'syndrome'
p251
S'NN'
p252
S'I-NP'
p253
g5
tp254
a(g231
g231
g231
g5
g5
tp255
a(S'CSS'
p256
S'CSS'
p257
S'NN'
p258
S'B-NP'
p259
S'B-protein'
p260
tp261
a(g239
g239
g239
g5
g5
tp262
a(S'and'
p263
S'and'
p264
S'CC'
p265
g5
g5
tp266
a(S'to'
p267
S'to'
p268
S'TO'
p269
S'B-VP'
p270
g5
tp271
a(S'investigate'
p272
S'investigate'
p273
S'VB'
p274
S'I-VP'
p275
g5
tp276
a(S'the'
p277
S'the'
p278
S'DT'
p279
S'B-NP'
p280
g5
tp281
a(S'indication'
p282
S'indication'
p283
S'NN'
p284
S'I-NP'
p285
g5
tp286
a(S'for'
p287
S'for'
p288
S'IN'
p289
S'B-PP'
p290
g5
tp291
a(S'plasma'
p292
S'plasma'
p293
S'NN'
p294
S'B-NP'
p295
g5
tp296
a(S'exchange'
p297
S'exchange'
p298
S'NN'
p299
S'I-NP'
p300
g5
tp301
a(S'treatment'
p302
S'treatment'
p303
S'NN'
p304
S'I-NP'
p305
g5
tp306
a(g174
g174
g174
g5
g5
tp307
a(S'METHODS'
p308
S'METHODS'
p309
S'NNS'
p310
S'B-NP'
p311
g5
tp312
a(S'We'
p313
S'We'
p314
S'PRP'
p315
S'B-NP'
p316
g5
tp317
a(S'conducted'
p318
S'conduct'
p319
S'VBD'
p320
S'B-VP'
p321
g5
tp322
a(S'a'
p323
g323
S'DT'
p324
S'B-NP'
p325
g5
tp326
a(S'prospective'
p327
S'prospective'
p328
S'JJ'
p329
S'I-NP'
p330
g5
tp331
a(g147
g147
g147
S'I-NP'
p332
g5
tp333
a(S'randomized'
p334
S'randomize'
p335
S'VBN'
p336
S'I-NP'
p337
g5
tp338
a(g147
g147
g147
S'I-NP'
p339
g5
tp340
a(S'multicenter'
p341
S'multicenter'
p342
S'JJ'
p343
S'I-NP'
p344
g5
tp345
a(S'trial'
p346
S'trial'
p347
S'NN'
p348
S'I-NP'
p349
g5
tp350
a(S'in'
p351
S'in'
p352
S'IN'
p353
S'B-PP'
p354
g5
tp355
a(S'which'
p356
S'which'
p357
S'WDT'
p358
S'B-NP'
p359
g5
tp360
a(S'62'
p361
S'62'
p362
S'CD'
p363
S'B-NP'
p364
g5
tp365
a(S'patients'
p366
S'patient'
p367
S'NNS'
p368
S'I-NP'
p369
g5
tp370
a(S'were'
p371
S'be'
p372
S'VBD'
p373
S'B-VP'
p374
g5
tp375
a(S'randomly'
p376
S'randomly'
p377
S'RB'
p378
S'I-VP'
p379
g5
tp380
a(S'assigned'
p381
S'assign'
p382
S'VBN'
p383
S'I-VP'
p384
g5
tp385
a(S'to'
p386
S'to'
p387
S'TO'
p388
S'I-VP'
p389
g5
tp390
a(S'receive'
p391
S'receive'
p392
S'VB'
p393
S'I-VP'
p394
g5
tp395
a(S'either'
p396
S'either'
p397
S'CC'
p398
g5
g5
tp399
a(S'prednisone'
p400
S'prednisone'
p401
S'NN'
p402
S'B-NP'
p403
g5
tp404
a(S'plus'
p405
S'plus'
p406
S'CC'
p407
g5
g5
tp408
a(S'cyclophosphamide'
p409
S'cyclophosphamide'
p410
S'NN'
p411
S'B-NP'
p412
g5
tp413
a(g231
g231
g231
g5
g5
tp414
a(S'intravenous'
p415
S'intravenous'
p416
S'JJ'
p417
S'B-NP'
p418
g5
tp419
a(S'bolus'
p420
S'bolus'
p421
S'NN'
p422
S'I-NP'
p423
g5
tp424
a(g239
g239
g239
g5
g5
tp425
a(g231
g231
g231
g5
g5
tp426
a(S'group'
p427
S'group'
p428
S'NN'
p429
S'B-NP'
p430
g5
tp431
a(g138
g138
S'NN'
p432
S'I-NP'
p433
g5
tp434
a(S';'
p435
g435
S':'
p436
g5
g5
tp437
a(S'n'
p438
g438
S'NN'
p439
S'B-NP'
p440
g5
tp441
a(S'='
p442
g442
S'SYM'
p443
S'B-VP'
p444
g5
tp445
a(S'28'
p446
S'28'
p447
S'CD'
p448
S'B-NP'
p449
g5
tp450
a(g239
g239
g239
g5
g5
tp451
a(S'or'
p452
S'or'
p453
S'CC'
p454
g5
g5
tp455
a(S'prednisone'
p456
S'prednisone'
p457
S'NN'
p458
S'B-NP'
p459
g5
tp460
a(S'plus'
p461
S'plus'
p462
S'CC'
p463
g5
g5
tp464
a(S'cyclophosphamide'
p465
S'cyclophosphamide'
p466
S'NN'
p467
S'B-NP'
p468
g5
tp469
a(g231
g231
g231
g5
g5
tp470
a(S'intravenous'
p471
S'intravenous'
p472
S'JJ'
p473
S'B-NP'
p474
g5
tp475
a(S'bolus'
p476
S'bolus'
p477
S'NN'
p478
S'I-NP'
p479
g5
tp480
a(g239
g239
g239
g5
g5
tp481
a(S'plus'
p482
S'plus'
p483
S'CC'
p484
g5
g5
tp485
a(S'plasma'
p486
S'plasma'
p487
S'NN'
p488
S'B-NP'
p489
g5
tp490
a(S'exchanges'
p491
S'exchange'
p492
S'NNS'
p493
S'I-NP'
p494
g5
tp495
a(g231
g231
g231
g5
g5
tp496
a(S'group'
p497
S'group'
p498
S'NN'
p499
S'B-NP'
p500
g5
tp501
a(S'B'
p502
g502
S'NN'
p503
S'I-NP'
p504
g5
tp505
a(g435
g435
g436
g5
g5
tp506
a(g438
g438
S'NN'
p507
S'B-NP'
p508
g5
tp509
a(g442
g442
S'SYM'
p510
S'B-VP'
p511
g5
tp512
a(S'34'
p513
S'34'
p514
S'CD'
p515
S'B-NP'
p516
g5
tp517
a(g239
g239
g239
g5
g5
tp518
a(S'as'
p519
S'as'
p520
S'IN'
p521
S'B-PP'
p522
g5
tp523
a(S'first-line'
p524
S'first-line'
p525
S'JJ'
p526
S'B-NP'
p527
g5
tp528
a(S'treatment'
p529
S'treatment'
p530
S'NN'
p531
S'I-NP'
p532
g5
tp533
a(S'for'
p534
S'for'
p535
S'IN'
p536
S'B-PP'
p537
g5
tp538
a(S'severe'
p539
S'severe'
p540
S'JJ'
p541
S'B-NP'
p542
g5
tp543
a(S'PAN'
p544
S'PAN'
p545
S'NNP'
p546
S'I-NP'
p547
g5
tp548
a(S'or'
p549
S'or'
p550
S'CC'
p551
g5
g5
tp552
a(S'CSS.'
p553
S'CSS.'
p554
S'NNP'
p555
S'B-NP'
p556
S'B-protein'
p557
tp558
a(S'Factors'
p559
S'Factor'
p560
S'NNPS'
p561
S'I-NP'
p562
S'I-protein'
p563
tp564
a(S'predicting'
p565
S'predict'
p566
S'VBG'
p567
S'B-VP'
p568
g5
tp569
a(S'poor'
p570
S'poor'
p571
S'JJ'
p572
S'B-NP'
p573
g5
tp574
a(S'prognosis'
p575
S'prognosis'
p576
S'NN'
p577
S'I-NP'
p578
g5
tp579
a(S'were'
p580
S'be'
p581
S'VBD'
p582
S'B-VP'
p583
g5
tp584
a(S'renal'
p585
S'renal'
p586
S'JJ'
p587
S'B-NP'
p588
g5
tp589
a(S'symptoms'
p590
S'symptom'
p591
S'NNS'
p592
S'I-NP'
p593
g5
tp594
a(g147
g147
g147
g5
g5
tp595
a(S'gastrointestinal'
p596
S'gastrointestinal'
p597
S'JJ'
p598
S'B-NP'
p599
g5
tp600
a(S'tract'
p601
S'tract'
p602
S'NN'
p603
S'I-NP'
p604
g5
tp605
a(S'involvement'
p606
S'involvement'
p607
S'NN'
p608
S'I-NP'
p609
g5
tp610
a(g147
g147
g147
g5
g5
tp611
a(S'cardiomyopathy'
p612
S'cardiomyopathy'
p613
S'NN'
p614
S'B-NP'
p615
g5
tp616
a(g147
g147
g147
g5
g5
tp617
a(S'central'
p618
S'central'
p619
S'JJ'
p620
S'B-NP'
p621
g5
tp622
a(S'nervous'
p623
S'nervous'
p624
S'JJ'
p625
S'I-NP'
p626
g5
tp627
a(S'system'
p628
S'system'
p629
S'NN'
p630
S'I-NP'
p631
g5
tp632
a(S'involvement'
p633
S'involvement'
p634
S'NN'
p635
S'I-NP'
p636
g5
tp637
a(g147
g147
g147
g5
g5
tp638
a(S'weight'
p639
S'weight'
p640
S'NN'
p641
S'B-NP'
p642
g5
tp643
a(S'loss'
p644
S'loss'
p645
S'NN'
p646
S'I-NP'
p647
g5
tp648
a(S'>'
p649
g649
S'SYM'
p650
S'B-NP'
p651
g5
tp652
a(S'10'
p653
S'10'
p654
S'CD'
p655
S'B-NP'
p656
g5
tp657
a(S'%'
p658
g658
S'NN'
p659
S'I-NP'
p660
g5
tp661
a(S'of'
p662
S'of'
p663
S'IN'
p664
S'B-PP'
p665
g5
tp666
a(S'body'
p667
S'body'
p668
S'NN'
p669
S'B-NP'
p670
g5
tp671
a(S'weight'
p672
S'weight'
p673
S'NN'
p674
S'I-NP'
p675
g5
tp676
a(g147
g147
g147
g5
g5
tp677
a(S'and'
p678
S'and'
p679
S'CC'
p680
g5
g5
tp681
a(S'age'
p682
S'age'
p683
S'NN'
p684
S'B-NP'
p685
g5
tp686
a(g649
g649
S'SYM'
p687
S'B-NP'
p688
g5
tp689
a(S'50'
p690
S'50'
p691
S'CD'
p692
S'B-NP'
p693
g5
tp694
a(S'years'
p695
S'year'
p696
S'NNS'
p697
S'I-NP'
p698
g5
tp699
a(S'old.'
p700
S'old.'
p701
S'IN'
p702
S'B-PP'
p703
g5
tp704
a(S'Patients'
p705
S'Patient'
p706
S'NNS'
p707
S'B-NP'
p708
g5
tp709
a(S'with'
p710
S'with'
p711
S'IN'
p712
S'B-PP'
p713
g5
tp714
a(S'hepatitis'
p715
S'hepatitis'
p716
S'NN'
p717
S'B-NP'
p718
g5
tp719
a(g502
g502
S'NN'
p720
S'I-NP'
p721
g5
tp722
a(S'virus-related'
p723
S'virus-related'
p724
S'JJ'
p725
S'I-NP'
p726
g5
tp727
a(S'PAN'
p728
S'PAN'
p729
S'NN'
p730
S'I-NP'
p731
g5
tp732
a(S'were'
p733
S'be'
p734
S'VBD'
p735
S'B-VP'
p736
g5
tp737
a(S'not'
p738
S'not'
p739
S'RB'
p740
S'I-VP'
p741
g5
tp742
a(S'included'
p743
S'include'
p744
S'VBN'
p745
S'I-VP'
p746
g5
tp747
a(S'in'
p748
S'in'
p749
S'IN'
p750
S'B-PP'
p751
g5
tp752
a(S'this'
p753
S'this'
p754
S'DT'
p755
S'B-NP'
p756
g5
tp757
a(S'study.'
p758
S'study.'
p759
S'NN'
p760
S'I-NP'
p761
g5
tp762
a(S'The'
p763
S'The'
p764
S'DT'
p765
S'B-NP'
p766
g5
tp767
a(S'end'
p768
S'end'
p769
S'NN'
p770
S'I-NP'
p771
g5
tp772
a(S'point'
p773
S'point'
p774
S'NN'
p775
S'I-NP'
p776
g5
tp777
a(S'of'
p778
S'of'
p779
S'IN'
p780
S'B-PP'
p781
g5
tp782
a(S'the'
p783
S'the'
p784
S'DT'
p785
S'B-NP'
p786
g5
tp787
a(S'study'
p788
S'study'
p789
S'NN'
p790
S'I-NP'
p791
g5
tp792
a(S'was'
p793
S'be'
p794
S'VBD'
p795
S'B-VP'
p796
g5
tp797
a(S'control'
p798
S'control'
p799
S'NN'
p800
S'B-NP'
p801
g5
tp802
a(S'of'
p803
S'of'
p804
S'IN'
p805
S'B-PP'
p806
g5
tp807
a(S'the'
p808
S'the'
p809
S'DT'
p810
S'B-NP'
p811
g5
tp812
a(S'disease'
p813
S'disease'
p814
S'NN'
p815
S'I-NP'
p816
g5
tp817
a(g231
g231
g231
g5
g5
tp818
a(S'recovery'
p819
S'recovery'
p820
S'NN'
p821
S'B-NP'
p822
g5
tp823
a(S'or'
p824
S'or'
p825
S'CC'
p826
g5
g5
tp827
a(S'remission'
p828
S'remission'
p829
S'NN'
p830
S'B-NP'
p831
g5
tp832
a(g239
g239
g239
g5
g5
tp833
a(S'or'
p834
S'or'
p835
S'CC'
p836
g5
g5
tp837
a(S'death'
p838
S'death'
p839
S'NN'
p840
S'B-NP'
p841
g5
tp842
a(g174
g174
g174
g5
g5
tp843
a(S'RESULTS'
p844
S'RESULTS'
p845
S'NNS'
p846
S'B-NP'
p847
g5
tp848
a(S'Clinical'
p849
S'Clinical'
p850
S'JJ'
p851
S'I-NP'
p852
g5
tp853
a(S'symptoms'
p854
S'symptom'
p855
S'NNS'
p856
S'I-NP'
p857
g5
tp858
a(S'and'
p859
S'and'
p860
S'CC'
p861
g5
g5
tp862
a(S'laboratory'
p863
S'laboratory'
p864
S'NN'
p865
S'B-NP'
p866
g5
tp867
a(S'findings'
p868
S'finding'
p869
S'NNS'
p870
S'I-NP'
p871
g5
tp872
a(S'did'
p873
S'do'
p874
S'VBD'
p875
S'B-VP'
p876
g5
tp877
a(S'not'
p878
S'not'
p879
S'RB'
p880
S'I-VP'
p881
g5
tp882
a(S'differ'
p883
S'differ'
p884
S'VB'
p885
S'I-VP'
p886
g5
tp887
a(S'significantly'
p888
S'significantly'
p889
S'RB'
p890
S'B-ADVP'
p891
g5
tp892
a(S'in'
p893
S'in'
p894
S'IN'
p895
S'B-PP'
p896
g5
tp897
a(S'the'
p898
S'the'
p899
S'DT'
p900
S'B-NP'
p901
g5
tp902
a(S'2'
p903
g903
S'CD'
p904
S'I-NP'
p905
g5
tp906
a(S'groups.'
p907
S'groups.'
p908
S'NN'
p909
S'I-NP'
p910
g5
tp911
a(S'Initial'
p912
S'Initial'
p913
S'JJ'
p914
S'I-NP'
p915
g5
tp916
a(S'control'
p917
S'control'
p918
S'NN'
p919
S'I-NP'
p920
g5
tp921
a(S'of'
p922
S'of'
p923
S'IN'
p924
S'B-PP'
p925
g5
tp926
a(S'the'
p927
S'the'
p928
S'DT'
p929
S'B-NP'
p930
g5
tp931
a(S'disease'
p932
S'disease'
p933
S'NN'
p934
S'I-NP'
p935
g5
tp936
a(S'was'
p937
S'be'
p938
S'VBD'
p939
S'B-VP'
p940
g5
tp941
a(S'similar'
p942
S'similar'
p943
S'JJ'
p944
S'B-ADJP'
p945
g5
tp946
a(S'in'
p947
S'in'
p948
S'IN'
p949
S'B-PP'
p950
g5
tp951
a(S'both'
p952
S'both'
p953
S'CC'
p954
S'B-NP'
p955
g5
tp956
a(S'groups.'
p957
S'groups.'
p958
S'NNS'
p959
S'I-NP'
p960
g5
tp961
a(S'Relapse'
p962
S'Relapse'
p963
S'NN'
p964
S'I-NP'
p965
g5
tp966
a(S'after'
p967
S'after'
p968
S'IN'
p969
S'B-PP'
p970
g5
tp971
a(S'initial'
p972
S'initial'
p973
S'JJ'
p974
S'B-NP'
p975
g5
tp976
a(S'control'
p977
S'control'
p978
S'NN'
p979
S'I-NP'
p980
g5
tp981
a(S'of'
p982
S'of'
p983
S'IN'
p984
S'B-PP'
p985
g5
tp986
a(S'the'
p987
S'the'
p988
S'DT'
p989
S'B-NP'
p990
g5
tp991
a(S'disease'
p992
S'disease'
p993
S'NN'
p994
S'I-NP'
p995
g5
tp996
a(S'was'
p997
S'be'
p998
S'VBD'
p999
S'B-VP'
p1000
g5
tp1001
a(S'observed'
p1002
S'observe'
p1003
S'VBN'
p1004
S'I-VP'
p1005
g5
tp1006
a(S'in'
p1007
S'in'
p1008
S'IN'
p1009
S'B-PP'
p1010
g5
tp1011
a(S'7'
p1012
g1012
S'CD'
p1013
S'B-NP'
p1014
g5
tp1015
a(S'patients'
p1016
S'patient'
p1017
S'NNS'
p1018
S'I-NP'
p1019
g5
tp1020
a(g231
g231
g231
g5
g5
tp1021
a(S'4'
p1022
g1022
S'CD'
p1023
S'B-NP'
p1024
g5
tp1025
a(S'in'
p1026
S'in'
p1027
S'IN'
p1028
S'B-PP'
p1029
g5
tp1030
a(S'group'
p1031
S'group'
p1032
S'NN'
p1033
S'B-NP'
p1034
g5
tp1035
a(g138
g138
S'NN'
p1036
S'I-NP'
p1037
g5
tp1038
a(S'and'
p1039
S'and'
p1040
S'CC'
p1041
g5
g5
tp1042
a(S'3'
p1043
g1043
S'CD'
p1044
S'B-NP'
p1045
g5
tp1046
a(S'in'
p1047
S'in'
p1048
S'IN'
p1049
S'B-PP'
p1050
g5
tp1051
a(S'group'
p1052
S'group'
p1053
S'NN'
p1054
S'B-NP'
p1055
g5
tp1056
a(g502
g502
S'NN'
p1057
S'I-NP'
p1058
g5
tp1059
a(g239
g239
g239
g5
g5
tp1060
a(g174
g174
g174
g5
g5
tp1061
a(S'The'
p1062
S'The'
p1063
S'DT'
p1064
S'B-NP'
p1065
g5
tp1066
a(S'mean'
p1067
S'mean'
p1068
S'JJ'
p1069
S'I-NP'
p1070
g5
tp1071
a(S'+/-'
p1072
S'+/-'
p1073
S'SYM'
p1074
S'I-NP'
p1075
g5
tp1076
a(S'SD'
p1077
S'SD'
p1078
S'NN'
p1079
S'I-NP'
p1080
g5
tp1081
a(S'followup'
p1082
S'followup'
p1083
S'NN'
p1084
S'I-NP'
p1085
g5
tp1086
a(S'period'
p1087
S'period'
p1088
S'NN'
p1089
S'I-NP'
p1090
g5
tp1091
a(S'was'
p1092
S'be'
p1093
S'VBD'
p1094
S'B-VP'
p1095
g5
tp1096
a(S'31.1'
p1097
S'31.1'
p1098
S'CD'
p1099
S'B-NP'
p1100
g5
tp1101
a(S'+/-'
p1102
S'+/-'
p1103
S'CC'
p1104
S'I-NP'
p1105
g5
tp1106
a(S'20'
p1107
S'20'
p1108
S'CD'
p1109
S'I-NP'
p1110
g5
tp1111
a(S'months'
p1112
S'month'
p1113
S'NNS'
p1114
S'I-NP'
p1115
g5
tp1116
a(S'for'
p1117
S'for'
p1118
S'IN'
p1119
S'B-PP'
p1120
g5
tp1121
a(S'group'
p1122
S'group'
p1123
S'NN'
p1124
S'B-NP'
p1125
g5
tp1126
a(g138
g138
S'NN'
p1127
S'I-NP'
p1128
g5
tp1129
a(S'and'
p1130
S'and'
p1131
S'CC'
p1132
g5
g5
tp1133
a(S'35.9'
p1134
S'35.9'
p1135
S'CD'
p1136
S'B-NP'
p1137
g5
tp1138
a(S'+/-'
p1139
S'+/-'
p1140
S'CC'
p1141
S'I-NP'
p1142
g5
tp1143
a(S'16.8'
p1144
S'16.8'
p1145
S'CD'
p1146
S'I-NP'
p1147
g5
tp1148
a(S'months'
p1149
S'month'
p1150
S'NNS'
p1151
S'I-NP'
p1152
g5
tp1153
a(S'for'
p1154
S'for'
p1155
S'IN'
p1156
S'B-PP'
p1157
g5
tp1158
a(S'group'
p1159
S'group'
p1160
S'NN'
p1161
S'B-NP'
p1162
g5
tp1163
a(S'B.'
p1164
S'B.'
p1165
S'NNP'
p1166
S'I-NP'
p1167
g5
tp1168
a(S'At'
p1169
S'At'
p1170
S'IN'
p1171
S'B-PP'
p1172
g5
tp1173
a(S'5'
p1174
g1174
S'CD'
p1175
S'B-NP'
p1176
g5
tp1177
a(S'years'
p1178
S'year'
p1179
S'NNS'
p1180
S'I-NP'
p1181
g5
tp1182
a(S'of'
p1183
S'of'
p1184
S'IN'
p1185
S'B-PP'
p1186
g5
tp1187
a(S'followup'
p1188
S'followup'
p1189
S'NN'
p1190
S'B-NP'
p1191
g5
tp1192
a(g147
g147
g147
g5
g5
tp1193
a(S'38'
p1194
S'38'
p1195
S'CD'
p1196
S'B-NP'
p1197
g5
tp1198
a(S'patients'
p1199
S'patient'
p1200
S'NNS'
p1201
S'I-NP'
p1202
g5
tp1203
a(g231
g231
g231
g5
g5
tp1204
a(S'61.3'
p1205
S'61.3'
p1206
S'CD'
p1207
S'B-NP'
p1208
g5
tp1209
a(g658
g658
S'NN'
p1210
S'I-NP'
p1211
g5
tp1212
a(g239
g239
g239
g5
g5
tp1213
a(S'were'
p1214
S'be'
p1215
S'VBD'
p1216
S'B-VP'
p1217
g5
tp1218
a(S'cured'
p1219
S'cure'
p1220
S'VBN'
p1221
S'I-VP'
p1222
g5
tp1223
a(g231
g231
g231
g5
g5
tp1224
a(S'16'
p1225
S'16'
p1226
S'CD'
p1227
S'B-NP'
p1228
g5
tp1229
a(S'in'
p1230
S'in'
p1231
S'IN'
p1232
S'B-PP'
p1233
g5
tp1234
a(S'group'
p1235
S'group'
p1236
S'NN'
p1237
S'B-NP'
p1238
g5
tp1239
a(g138
g138
S'NN'
p1240
S'I-NP'
p1241
g5
tp1242
a(S'and'
p1243
S'and'
p1244
S'CC'
p1245
g5
g5
tp1246
a(S'22'
p1247
S'22'
p1248
S'CD'
p1249
S'B-NP'
p1250
g5
tp1251
a(S'in'
p1252
S'in'
p1253
S'IN'
p1254
S'B-PP'
p1255
g5
tp1256
a(S'group'
p1257
S'group'
p1258
S'NN'
p1259
S'B-NP'
p1260
g5
tp1261
a(g502
g502
S'NN'
p1262
S'I-NP'
p1263
g5
tp1264
a(g239
g239
g239
g5
g5
tp1265
a(g147
g147
g147
g5
g5
tp1266
a(S'and'
p1267
S'and'
p1268
S'CC'
p1269
g5
g5
tp1270
a(g1174
g1174
S'CD'
p1271
S'B-NP'
p1272
g5
tp1273
a(g231
g231
g231
g5
g5
tp1274
a(S'8.1'
p1275
S'8.1'
p1276
S'CD'
p1277
S'B-NP'
p1278
g5
tp1279
a(g658
g658
S'NN'
p1280
S'I-NP'
p1281
g5
tp1282
a(g239
g239
g239
g5
g5
tp1283
a(S'were'
p1284
S'be'
p1285
S'VBD'
p1286
S'B-VP'
p1287
g5
tp1288
a(S'in'
p1289
S'in'
p1290
S'IN'
p1291
S'B-PP'
p1292
g5
tp1293
a(S'remission'
p1294
S'remission'
p1295
S'NN'
p1296
S'B-NP'
p1297
g5
tp1298
a(S'without'
p1299
S'without'
p1300
S'IN'
p1301
S'B-PP'
p1302
g5
tp1303
a(S'treatment'
p1304
S'treatment'
p1305
S'NN'
p1306
S'B-NP'
p1307
g5
tp1308
a(S'but'
p1309
S'but'
p1310
S'CC'
p1311
g5
g5
tp1312
a(S'had'
p1313
S'have'
p1314
S'VBD'
p1315
S'B-VP'
p1316
g5
tp1317
a(S'not'
p1318
S'not'
p1319
S'RB'
p1320
S'I-VP'
p1321
g5
tp1322
a(S'yet'
p1323
S'yet'
p1324
S'RB'
p1325
S'I-VP'
p1326
g5
tp1327
a(S'completed'
p1328
S'complete'
p1329
S'VBN'
p1330
S'I-VP'
p1331
g5
tp1332
a(S'the'
p1333
S'the'
p1334
S'DT'
p1335
S'B-NP'
p1336
g5
tp1337
a(S'cure-defining'
p1338
S'cure-defining'
p1339
S'JJ'
p1340
S'I-NP'
p1341
g5
tp1342
a(S'period'
p1343
S'period'
p1344
S'NN'
p1345
S'I-NP'
p1346
g5
tp1347
a(S'of'
p1348
S'of'
p1349
S'IN'
p1350
S'B-PP'
p1351
g5
tp1352
a(S'18'
p1353
S'18'
p1354
S'CD'
p1355
S'B-NP'
p1356
g5
tp1357
a(S'months'
p1358
S'month'
p1359
S'NNS'
p1360
S'I-NP'
p1361
g5
tp1362
a(g231
g231
g231
g5
g5
tp1363
a(g1043
g1043
S'CD'
p1364
S'B-NP'
p1365
g5
tp1366
a(S'in'
p1367
S'in'
p1368
S'IN'
p1369
S'B-PP'
p1370
g5
tp1371
a(S'group'
p1372
S'group'
p1373
S'NN'
p1374
S'B-NP'
p1375
g5
tp1376
a(g138
g138
S'NN'
p1377
S'I-NP'
p1378
g5
tp1379
a(S'and'
p1380
S'and'
p1381
S'CC'
p1382
g5
g5
tp1383
a(g903
g903
S'CD'
p1384
S'B-NP'
p1385
g5
tp1386
a(S'in'
p1387
S'in'
p1388
S'IN'
p1389
S'B-PP'
p1390
g5
tp1391
a(S'group'
p1392
S'group'
p1393
S'NN'
p1394
S'B-NP'
p1395
g5
tp1396
a(g502
g502
S'NN'
p1397
S'I-NP'
p1398
g5
tp1399
a(g239
g239
g239
g5
g5
tp1400
a(g174
g174
g174
g5
g5
tp1401
a(S'Eight'
p1402
S'Eight'
p1403
S'CD'
p1404
S'B-NP'
p1405
g5
tp1406
a(g231
g231
g231
g5
g5
tp1407
a(S'12.9'
p1408
S'12.9'
p1409
S'CD'
p1410
S'B-NP'
p1411
g5
tp1412
a(g658
g658
S'NN'
p1413
S'I-NP'
p1414
g5
tp1415
a(g239
g239
g239
g5
g5
tp1416
a(g231
g231
g231
g5
g5
tp1417
a(g903
g903
S'CD'
p1418
S'B-NP'
p1419
g5
tp1420
a(S'in'
p1421
S'in'
p1422
S'IN'
p1423
S'B-PP'
p1424
g5
tp1425
a(S'group'
p1426
S'group'
p1427
S'NN'
p1428
S'B-NP'
p1429
g5
tp1430
a(g138
g138
S'NN'
p1431
S'I-NP'
p1432
g5
tp1433
a(S'and'
p1434
S'and'
p1435
S'CC'
p1436
g5
g5
tp1437
a(g903
g903
S'CD'
p1438
S'B-NP'
p1439
g5
tp1440
a(S'in'
p1441
S'in'
p1442
S'IN'
p1443
S'B-PP'
p1444
g5
tp1445
a(S'group'
p1446
S'group'
p1447
S'NN'
p1448
S'B-NP'
p1449
g5
tp1450
a(g502
g502
S'NN'
p1451
S'I-NP'
p1452
g5
tp1453
a(g239
g239
g239
g5
g5
tp1454
a(S'were'
p1455
S'be'
p1456
S'VBD'
p1457
S'B-VP'
p1458
g5
tp1459
a(S'considered'
p1460
S'consider'
p1461
S'VBN'
p1462
S'I-VP'
p1463
g5
tp1464
a(S'to'
p1465
S'to'
p1466
S'TO'
p1467
S'I-VP'
p1468
g5
tp1469
a(S'be'
p1470
S'be'
p1471
S'VB'
p1472
S'I-VP'
p1473
g5
tp1474
a(S'in'
p1475
S'in'
p1476
S'IN'
p1477
S'B-PP'
p1478
g5
tp1479
a(S'clinical'
p1480
S'clinical'
p1481
S'JJ'
p1482
S'B-NP'
p1483
g5
tp1484
a(S'remission'
p1485
S'remission'
p1486
S'NN'
p1487
S'I-NP'
p1488
g5
tp1489
a(S'and'
p1490
S'and'
p1491
S'CC'
p1492
g5
g5
tp1493
a(S'required'
p1494
S'require'
p1495
S'VBD'
p1496
S'B-VP'
p1497
g5
tp1498
a(g323
g323
S'DT'
p1499
S'B-NP'
p1500
g5
tp1501
a(S'maintenance'
p1502
S'maintenance'
p1503
S'NN'
p1504
S'I-NP'
p1505
g5
tp1506
a(S'regimen'
p1507
S'regimen'
p1508
S'NN'
p1509
S'I-NP'
p1510
g5
tp1511
a(S'of'
p1512
S'of'
p1513
S'IN'
p1514
S'B-PP'
p1515
g5
tp1516
a(S'low-dose'
p1517
S'low-dose'
p1518
S'JJ'
p1519
S'B-NP'
p1520
g5
tp1521
a(S'corticosteroids.'
p1522
S'corticosteroids.'
p1523
S'NN'
p1524
S'I-NP'
p1525
g5
tp1526
a(S'Eleven'
p1527
S'Eleven'
p1528
S'CD'
p1529
S'B-NP'
p1530
g5
tp1531
a(S'patients'
p1532
S'patient'
p1533
S'NNS'
p1534
S'I-NP'
p1535
g5
tp1536
a(S'died'
p1537
S'die'
p1538
S'VBD'
p1539
S'B-VP'
p1540
g5
tp1541
a(S'during'
p1542
S'during'
p1543
S'IN'
p1544
S'B-PP'
p1545
g5
tp1546
a(S'the'
p1547
S'the'
p1548
S'DT'
p1549
S'B-NP'
p1550
g5
tp1551
a(S'study'
p1552
S'study'
p1553
S'NN'
p1554
S'I-NP'
p1555
g5
tp1556
a(S'period'
p1557
S'period'
p1558
S'NN'
p1559
S'I-NP'
p1560
g5
tp1561
a(g231
g231
g231
g5
g5
tp1562
a(g1012
g1012
S'CD'
p1563
S'B-NP'
p1564
g5
tp1565
a(S'in'
p1566
S'in'
p1567
S'IN'
p1568
S'B-PP'
p1569
g5
tp1570
a(S'group'
p1571
S'group'
p1572
S'NN'
p1573
S'B-NP'
p1574
g5
tp1575
a(g138
g138
S'NN'
p1576
S'I-NP'
p1577
g5
tp1578
a(S'['
p1579
g1579
g231
g5
g5
tp1580
a(S'25'
p1581
S'25'
p1582
S'CD'
p1583
S'B-NP'
p1584
g5
tp1585
a(g658
g658
S'NN'
p1586
S'I-NP'
p1587
g5
tp1588
a(S']'
p1589
g1589
g239
g5
g5
tp1590
a(g147
g147
g147
g5
g5
tp1591
a(g1022
g1022
S'CD'
p1592
S'B-NP'
p1593
g5
tp1594
a(S'in'
p1595
S'in'
p1596
S'IN'
p1597
S'B-PP'
p1598
g5
tp1599
a(S'group'
p1600
S'group'
p1601
S'NN'
p1602
S'B-NP'
p1603
g5
tp1604
a(g502
g502
S'NN'
p1605
S'I-NP'
p1606
g5
tp1607
a(g1579
g1579
g231
g5
g5
tp1608
a(S'11.8'
p1609
S'11.8'
p1610
S'CD'
p1611
S'B-NP'
p1612
g5
tp1613
a(g658
g658
S'NN'
p1614
S'I-NP'
p1615
g5
tp1616
a(g1589
g1589
g239
g5
g5
tp1617
a(g239
g239
g239
g5
g5
tp1618
a(g174
g174
g174
g5
g5
tp1619
a(S'Uncontrolled'
p1620
S'Uncontrolled'
p1621
S'JJ'
p1622
S'B-NP'
p1623
g5
tp1624
a(S'vasculitis'
p1625
S'vasculitis'
p1626
S'NN'
p1627
S'I-NP'
p1628
g5
tp1629
a(S'was'
p1630
S'be'
p1631
S'VBD'
p1632
S'B-VP'
p1633
g5
tp1634
a(S'responsible'
p1635
S'responsible'
p1636
S'JJ'
p1637
S'B-ADJP'
p1638
g5
tp1639
a(S'for'
p1640
S'for'
p1641
S'IN'
p1642
S'B-PP'
p1643
g5
tp1644
a(g1022
g1022
S'CD'
p1645
S'B-NP'
p1646
g5
tp1647
a(S'deaths'
p1648
S'death'
p1649
S'NNS'
p1650
S'I-NP'
p1651
g5
tp1652
a(g231
g231
g231
g5
g5
tp1653
a(g903
g903
S'CD'
p1654
S'B-NP'
p1655
g5
tp1656
a(S'in'
p1657
S'in'
p1658
S'IN'
p1659
S'B-PP'
p1660
g5
tp1661
a(S'each'
p1662
S'each'
p1663
S'DT'
p1664
S'B-NP'
p1665
g5
tp1666
a(S'group'
p1667
S'group'
p1668
S'NN'
p1669
S'I-NP'
p1670
g5
tp1671
a(g239
g239
g239
g5
g5
tp1672
a(g147
g147
g147
g5
g5
tp1673
a(S'and'
p1674
S'and'
p1675
S'CC'
p1676
g5
g5
tp1677
a(S'treatment'
p1678
S'treatment'
p1679
S'NN'
p1680
S'B-NP'
p1681
g5
tp1682
a(S'side'
p1683
S'side'
p1684
S'NN'
p1685
S'I-NP'
p1686
g5
tp1687
a(S'effects'
p1688
S'effect'
p1689
S'NNS'
p1690
S'I-NP'
p1691
g5
tp1692
a(S'caused'
p1693
S'cause'
p1694
S'VBD'
p1695
S'B-VP'
p1696
g5
tp1697
a(S'the'
p1698
S'the'
p1699
S'DT'
p1700
S'B-NP'
p1701
g5
tp1702
a(S'death'
p1703
S'death'
p1704
S'NN'
p1705
S'I-NP'
p1706
g5
tp1707
a(S'of'
p1708
S'of'
p1709
S'IN'
p1710
S'B-PP'
p1711
g5
tp1712
a(S'1'
p1713
g1713
S'CD'
p1714
S'B-NP'
p1715
g5
tp1716
a(S'patient'
p1717
S'patient'
p1718
S'NN'
p1719
S'I-NP'
p1720
g5
tp1721
a(S'in'
p1722
S'in'
p1723
S'IN'
p1724
S'B-PP'
p1725
g5
tp1726
a(S'group'
p1727
S'group'
p1728
S'NN'
p1729
S'B-NP'
p1730
g5
tp1731
a(S'A.'
p1732
S'A.'
p1733
S'NN'
p1734
S'I-NP'
p1735
g5
tp1736
a(S'There'
p1737
S'There'
p1738
S'EX'
p1739
S'B-NP'
p1740
g5
tp1741
a(S'was'
p1742
S'be'
p1743
S'VBD'
p1744
S'B-VP'
p1745
g5
tp1746
a(S'no'
p1747
S'no'
p1748
S'DT'
p1749
S'B-NP'
p1750
g5
tp1751
a(S'significant'
p1752
S'significant'
p1753
S'JJ'
p1754
S'I-NP'
p1755
g5
tp1756
a(S'difference'
p1757
S'difference'
p1758
S'NN'
p1759
S'I-NP'
p1760
g5
tp1761
a(S'between'
p1762
S'between'
p1763
S'IN'
p1764
S'B-PP'
p1765
g5
tp1766
a(S'the'
p1767
S'the'
p1768
S'DT'
p1769
S'B-NP'
p1770
g5
tp1771
a(S'5-year'
p1772
S'5-year'
p1773
S'JJ'
p1774
S'I-NP'
p1775
g5
tp1776
a(S'cumulative'
p1777
S'cumulative'
p1778
S'JJ'
p1779
S'I-NP'
p1780
g5
tp1781
a(S'survival'
p1782
S'survival'
p1783
S'NN'
p1784
S'I-NP'
p1785
g5
tp1786
a(S'rates'
p1787
S'rate'
p1788
S'NNS'
p1789
S'I-NP'
p1790
g5
tp1791
a(S'of'
p1792
S'of'
p1793
S'IN'
p1794
S'B-PP'
p1795
g5
tp1796
a(S'the'
p1797
S'the'
p1798
S'DT'
p1799
S'B-NP'
p1800
g5
tp1801
a(g903
g903
S'CD'
p1802
S'I-NP'
p1803
g5
tp1804
a(S'groups'
p1805
S'group'
p1806
S'NNS'
p1807
S'I-NP'
p1808
g5
tp1809
a(g231
g231
g231
g5
g5
tp1810
a(S'75'
p1811
S'75'
p1812
S'CD'
p1813
S'B-NP'
p1814
g5
tp1815
a(g658
g658
S'NN'
p1816
S'I-NP'
p1817
g5
tp1818
a(S'and'
p1819
S'and'
p1820
S'CC'
p1821
g5
g5
tp1822
a(S'88'
p1823
S'88'
p1824
S'CD'
p1825
S'B-NP'
p1826
g5
tp1827
a(g658
g658
S'NN'
p1828
S'I-NP'
p1829
g5
tp1830
a(g147
g147
g147
g5
g5
tp1831
a(S'respectively'
p1832
S'respectively'
p1833
S'RB'
p1834
S'B-ADVP'
p1835
g5
tp1836
a(g239
g239
g239
g5
g5
tp1837
a(g174
g174
g174
g5
g5
tp1838
a(S'CONCLUSION'
p1839
S'CONCLUSION'
p1840
S'NN'
p1841
S'B-NP'
p1842
g5
tp1843
a(S'Based'
p1844
S'Base'
p1845
S'VBN'
p1846
S'B-VP'
p1847
g5
tp1848
a(S'on'
p1849
S'on'
p1850
S'IN'
p1851
S'B-PP'
p1852
g5
tp1853
a(S'our'
p1854
S'our'
p1855
S'PRP$'
p1856
S'B-NP'
p1857
g5
tp1858
a(S'data'
p1859
S'datum'
p1860
S'NNS'
p1861
S'I-NP'
p1862
g5
tp1863
a(g147
g147
g147
g5
g5
tp1864
a(S'combined'
p1865
S'combined'
p1866
S'JJ'
p1867
S'B-NP'
p1868
g5
tp1869
a(S'treatment'
p1870
S'treatment'
p1871
S'NN'
p1872
S'I-NP'
p1873
g5
tp1874
a(S'with'
p1875
S'with'
p1876
S'IN'
p1877
S'B-PP'
p1878
g5
tp1879
a(S'prednisone'
p1880
S'prednisone'
p1881
S'NN'
p1882
S'B-NP'
p1883
g5
tp1884
a(g147
g147
g147
g5
g5
tp1885
a(S'cyclophosphamide'
p1886
S'cyclophosphamide'
p1887
S'NN'
p1888
S'B-NP'
p1889
g5
tp1890
a(g147
g147
g147
g5
g5
tp1891
a(S'and'
p1892
S'and'
p1893
S'CC'
p1894
g5
g5
tp1895
a(S'plasma'
p1896
S'plasma'
p1897
S'NN'
p1898
S'B-NP'
p1899
g5
tp1900
a(S'exchanges'
p1901
S'exchange'
p1902
S'NNS'
p1903
S'I-NP'
p1904
g5
tp1905
a(S'is'
p1906
S'be'
p1907
S'VBZ'
p1908
S'B-VP'
p1909
g5
tp1910
a(S'not'
p1911
S'not'
p1912
S'RB'
p1913
g5
g5
tp1914
a(S'superior'
p1915
S'superior'
p1916
S'JJ'
p1917
S'B-ADJP'
p1918
g5
tp1919
a(S'to'
p1920
S'to'
p1921
S'TO'
p1922
S'B-PP'
p1923
g5
tp1924
a(S'treatment'
p1925
S'treatment'
p1926
S'NN'
p1927
S'B-NP'
p1928
g5
tp1929
a(S'with'
p1930
S'with'
p1931
S'IN'
p1932
S'B-PP'
p1933
g5
tp1934
a(S'prednisone'
p1935
S'prednisone'
p1936
S'NN'
p1937
S'B-NP'
p1938
g5
tp1939
a(S'and'
p1940
S'and'
p1941
S'CC'
p1942
S'I-NP'
p1943
g5
tp1944
a(S'cyclophosphamide'
p1945
S'cyclophosphamide'
p1946
S'NN'
p1947
S'I-NP'
p1948
g5
tp1949
a(S'alone'
p1950
S'alone'
p1951
S'RB'
p1952
S'B-ADVP'
p1953
g5
tp1954
a(g147
g147
g147
g5
g5
tp1955
a(S'and'
p1956
S'and'
p1957
S'CC'
p1958
g5
g5
tp1959
a(S'plasma'
p1960
S'plasma'
p1961
S'NN'
p1962
S'B-NP'
p1963
g5
tp1964
a(S'exchanges'
p1965
S'exchange'
p1966
S'NNS'
p1967
S'I-NP'
p1968
g5
tp1969
a(S'should'
p1970
S'should'
p1971
S'MD'
p1972
S'B-VP'
p1973
g5
tp1974
a(S'not'
p1975
S'not'
p1976
S'RB'
p1977
S'I-VP'
p1978
g5
tp1979
a(S'be'
p1980
S'be'
p1981
S'VB'
p1982
S'I-VP'
p1983
g5
tp1984
a(S'systematically'
p1985
S'systematically'
p1986
S'RB'
p1987
S'I-VP'
p1988
g5
tp1989
a(S'proposed'
p1990
S'propose'
p1991
S'VBN'
p1992
S'I-VP'
p1993
g5
tp1994
a(S'for'
p1995
S'for'
p1996
S'IN'
p1997
S'B-PP'
p1998
g5
tp1999
a(S'initial'
p2000
S'initial'
p2001
S'JJ'
p2002
S'B-NP'
p2003
g5
tp2004
a(S'treatment'
p2005
S'treatment'
p2006
S'NN'
p2007
S'I-NP'
p2008
g5
tp2009
a(S'of'
p2010
S'of'
p2011
S'IN'
p2012
S'B-PP'
p2013
g5
tp2014
a(S'severe'
p2015
S'severe'
p2016
S'JJ'
p2017
S'B-NP'
p2018
g5
tp2019
a(S'PAN'
p2020
S'PAN'
p2021
S'NN'
p2022
S'I-NP'
p2023
g5
tp2024
a(S'or'
p2025
S'or'
p2026
S'CC'
p2027
S'I-NP'
p2028
g5
tp2029
a(S'CSS'
p2030
S'CSS'
p2031
S'NN'
p2032
S'I-NP'
p2033
S'B-protein'
p2034
tp2035
a(g174
g174
g174
g5
g5
tp2036
a.