(lp0
(S'Using'
p1
S'Use'
p2
S'VBG'
p3
S'B-VP'
p4
S'O'
p5
tp6
a(S'the'
p7
S'the'
p8
S'DT'
p9
S'B-NP'
p10
g5
tp11
a(S'demand-control'
p12
S'demand-control'
p13
S'JJ'
p14
S'I-NP'
p15
g5
tp16
a(S'model'
p17
S'model'
p18
S'NN'
p19
S'I-NP'
p20
g5
tp21
a(S'of'
p22
S'of'
p23
S'IN'
p24
S'B-PP'
p25
g5
tp26
a(S'job'
p27
S'job'
p28
S'NN'
p29
S'B-NP'
p30
g5
tp31
a(S'strain'
p32
S'strain'
p33
S'NN'
p34
S'I-NP'
p35
g5
tp36
a(S'to'
p37
S'to'
p38
S'TO'
p39
S'B-VP'
p40
g5
tp41
a(S'predict'
p42
S'predict'
p43
S'VB'
p44
S'I-VP'
p45
g5
tp46
a(S'caregiver'
p47
S'caregiver'
p48
S'NN'
p49
S'B-NP'
p50
g5
tp51
a(S'burden'
p52
S'burden'
p53
S'NN'
p54
S'I-NP'
p55
g5
tp56
a(S'and'
p57
S'and'
p58
S'CC'
p59
g5
g5
tp60
a(S'caregiver'
p61
S'caregiver'
p62
S'NN'
p63
S'B-NP'
p64
g5
tp65
a(S'satisfaction'
p66
S'satisfaction'
p67
S'NN'
p68
S'I-NP'
p69
g5
tp70
a(S'in'
p71
S'in'
p72
S'IN'
p73
S'B-PP'
p74
g5
tp75
a(S'the'
p76
S'the'
p77
S'DT'
p78
S'B-NP'
p79
g5
tp80
a(S'informal'
p81
S'informal'
p82
S'JJ'
p83
S'I-NP'
p84
g5
tp85
a(S'caregivers'
p86
S'caregiver'
p87
S'NNS'
p88
S'I-NP'
p89
g5
tp90
a(S'of'
p91
S'of'
p92
S'IN'
p93
S'B-PP'
p94
g5
tp95
a(S'heart'
p96
S'heart'
p97
S'NN'
p98
S'B-NP'
p99
g5
tp100
a(S'failure'
p101
S'failure'
p102
S'NN'
p103
S'I-NP'
p104
g5
tp105
a(S'patients'
p106
S'patient'
p107
S'NNS'
p108
S'I-NP'
p109
g5
tp110
a(S'.'
p111
g111
g111
g5
g5
tp112
a(S'OBJECTIVES'
p113
S'OBJECTIVES'
p114
S'NNS'
p115
S'B-NP'
p116
g5
tp117
a(S'The'
p118
S'The'
p119
S'DT'
p120
S'B-NP'
p121
g5
tp122
a(S'demand-control'
p123
S'demand-control'
p124
S'NN'
p125
S'I-NP'
p126
g5
tp127
a(S'('
p128
g128
g128
g5
g5
tp129
a(S'D-C'
p130
S'D-C'
p131
S'NN'
p132
S'B-NP'
p133
S'B-cell_type'
p134
tp135
a(S')'
p136
g136
g136
g5
g5
tp137
a(S'model'
p138
S'model'
p139
S'NN'
p140
S'B-NP'
p141
g5
tp142
a(S'of'
p143
S'of'
p144
S'IN'
p145
S'B-PP'
p146
g5
tp147
a(S'job'
p148
S'job'
p149
S'NN'
p150
S'B-NP'
p151
g5
tp152
a(S'strain'
p153
S'strain'
p154
S'NN'
p155
S'I-NP'
p156
g5
tp157
a(S'has'
p158
S'have'
p159
S'VBZ'
p160
S'B-VP'
p161
g5
tp162
a(S'generated'
p163
S'generate'
p164
S'VBN'
p165
S'I-VP'
p166
g5
tp167
a(S'a'
p168
g168
S'DT'
p169
S'B-NP'
p170
g5
tp171
a(S'considerable'
p172
S'considerable'
p173
S'JJ'
p174
S'I-NP'
p175
g5
tp176
a(S'body'
p177
S'body'
p178
S'NN'
p179
S'I-NP'
p180
g5
tp181
a(S'of'
p182
S'of'
p183
S'IN'
p184
S'B-PP'
p185
g5
tp186
a(S'empirical'
p187
S'empirical'
p188
S'JJ'
p189
S'B-NP'
p190
g5
tp191
a(S'support'
p192
S'support'
p193
S'NN'
p194
S'I-NP'
p195
g5
tp196
a(S'in'
p197
S'in'
p198
S'IN'
p199
S'B-PP'
p200
g5
tp201
a(S'predicting'
p202
S'predict'
p203
S'VBG'
p204
S'B-VP'
p205
g5
tp206
a(S'psychological'
p207
S'psychological'
p208
S'JJ'
p209
S'B-NP'
p210
g5
tp211
a(S'health'
p212
S'health'
p213
S'NN'
p214
S'I-NP'
p215
g5
tp216
a(S'outcomes'
p217
S'outcome'
p218
S'VBZ'
p219
S'B-VP'
p220
g5
tp221
a(S'in'
p222
S'in'
p223
S'IN'
p224
S'B-PP'
p225
g5
tp226
a(S'the'
p227
S'the'
p228
S'DT'
p229
S'B-NP'
p230
g5
tp231
a(S'context'
p232
S'context'
p233
S'NN'
p234
S'I-NP'
p235
g5
tp236
a(S'of'
p237
S'of'
p238
S'IN'
p239
S'B-PP'
p240
g5
tp241
a(S'work.'
p242
S'work.'
p243
S'NN'
p244
S'B-NP'
p245
g5
tp246
a(S'This'
p247
S'This'
p248
S'DT'
p249
S'B-NP'
p250
g5
tp251
a(S'study'
p252
S'study'
p253
S'NN'
p254
S'I-NP'
p255
g5
tp256
a(S'aimed'
p257
S'aim'
p258
S'VBD'
p259
S'B-VP'
p260
g5
tp261
a(S'to'
p262
S'to'
p263
S'TO'
p264
S'I-VP'
p265
g5
tp266
a(S'extend'
p267
S'extend'
p268
S'VB'
p269
S'I-VP'
p270
g5
tp271
a(S'previous'
p272
S'previous'
p273
S'JJ'
p274
S'B-NP'
p275
g5
tp276
a(S'work'
p277
S'work'
p278
S'NN'
p279
S'I-NP'
p280
g5
tp281
a(S'using'
p282
S'use'
p283
S'VBG'
p284
S'B-VP'
p285
g5
tp286
a(S'the'
p287
S'the'
p288
S'DT'
p289
S'B-NP'
p290
g5
tp291
a(S'D-C'
p292
S'D-C'
p293
S'NN'
p294
S'I-NP'
p295
g5
tp296
a(S'model'
p297
S'model'
p298
S'NN'
p299
S'I-NP'
p300
g5
tp301
a(S'of'
p302
S'of'
p303
S'IN'
p304
S'B-PP'
p305
g5
tp306
a(S'job'
p307
S'job'
p308
S'NN'
p309
S'B-NP'
p310
g5
tp311
a(S'strain'
p312
S'strain'
p313
S'NN'
p314
S'I-NP'
p315
g5
tp316
a(S'to'
p317
S'to'
p318
S'TO'
p319
S'B-VP'
p320
g5
tp321
a(S'predict'
p322
S'predict'
p323
S'VB'
p324
S'I-VP'
p325
g5
tp326
a(S'caregiver'
p327
S'caregiver'
p328
S'NN'
p329
S'B-NP'
p330
g5
tp331
a(S'burden'
p332
S'burden'
p333
S'NN'
p334
S'I-NP'
p335
g5
tp336
a(S'and'
p337
S'and'
p338
S'CC'
p339
S'I-NP'
p340
g5
tp341
a(S'satisfaction'
p342
S'satisfaction'
p343
S'NN'
p344
S'I-NP'
p345
g5
tp346
a(S'in'
p347
S'in'
p348
S'IN'
p349
S'B-PP'
p350
g5
tp351
a(S'the'
p352
S'the'
p353
S'DT'
p354
S'B-NP'
p355
g5
tp356
a(S'informal'
p357
S'informal'
p358
S'JJ'
p359
S'I-NP'
p360
g5
tp361
a(S'caregivers'
p362
S'caregiver'
p363
S'NNS'
p364
S'I-NP'
p365
g5
tp366
a(S'of'
p367
S'of'
p368
S'IN'
p369
S'B-PP'
p370
g5
tp371
a(S'patients'
p372
S'patient'
p373
S'NNS'
p374
S'B-NP'
p375
g5
tp376
a(S'with'
p377
S'with'
p378
S'IN'
p379
S'B-PP'
p380
g5
tp381
a(S'heart'
p382
S'heart'
p383
S'NN'
p384
S'B-NP'
p385
g5
tp386
a(S'failure'
p387
S'failure'
p388
S'NN'
p389
S'I-NP'
p390
g5
tp391
a(g111
g111
g111
g5
g5
tp392
a(S'DESIGN'
p393
S'DESIGN'
p394
S'NN'
p395
S'B-NP'
p396
g5
tp397
a(S'AND'
p398
S'AND'
p399
S'CC'
p400
S'I-NP'
p401
g5
tp402
a(S'METHOD'
p403
S'METHOD'
p404
S'NN'
p405
S'I-NP'
p406
g5
tp407
a(S'Data'
p408
S'Datum'
p409
S'NNS'
p410
S'I-NP'
p411
g5
tp412
a(S'were'
p413
S'be'
p414
S'VBD'
p415
S'B-VP'
p416
g5
tp417
a(S'gathered'
p418
S'gather'
p419
S'VBN'
p420
S'I-VP'
p421
g5
tp422
a(S'from'
p423
S'from'
p424
S'IN'
p425
S'B-PP'
p426
g5
tp427
a(S'60'
p428
S'60'
p429
S'CD'
p430
S'B-NP'
p431
g5
tp432
a(S'caregiver/patient'
p433
S'caregiver/patient'
p434
S'NN'
p435
S'I-NP'
p436
g5
tp437
a(S'dyads'
p438
S'dyad'
p439
S'NNS'
p440
S'I-NP'
p441
g5
tp442
a(S'in'
p443
S'in'
p444
S'IN'
p445
S'B-PP'
p446
g5
tp447
a(g168
g168
S'DT'
p448
S'B-NP'
p449
g5
tp450
a(S'cross-sectional'
p451
S'cross-sectional'
p452
S'JJ'
p453
S'I-NP'
p454
g5
tp455
a(S'design.'
p456
S'design.'
p457
S'NN'
p458
S'I-NP'
p459
g5
tp460
a(S'Patients'
p461
S'Patient'
p462
S'NNS'
p463
S'I-NP'
p464
g5
tp465
a(S'with'
p466
S'with'
p467
S'IN'
p468
S'B-PP'
p469
g5
tp470
a(S'chronic'
p471
S'chronic'
p472
S'JJ'
p473
S'B-NP'
p474
g5
tp475
a(S'stable'
p476
S'stable'
p477
S'JJ'
p478
S'I-NP'
p479
g5
tp480
a(S'heart'
p481
S'heart'
p482
S'NN'
p483
S'I-NP'
p484
g5
tp485
a(S'failure'
p486
S'failure'
p487
S'NN'
p488
S'I-NP'
p489
g5
tp490
a(S'were'
p491
S'be'
p492
S'VBD'
p493
S'B-VP'
p494
g5
tp495
a(S'recruited'
p496
S'recruit'
p497
S'VBN'
p498
S'I-VP'
p499
g5
tp500
a(S'from'
p501
S'from'
p502
S'IN'
p503
S'B-PP'
p504
g5
tp505
a(S'out-patient'
p506
S'out-patient'
p507
S'JJ'
p508
S'B-NP'
p509
g5
tp510
a(S'clinics.'
p511
S'clinics.'
p512
S'NN'
p513
S'I-NP'
p514
g5
tp515
a(S'The'
p516
S'The'
p517
S'DT'
p518
S'B-NP'
p519
g5
tp520
a(S'dependent'
p521
S'dependent'
p522
S'JJ'
p523
S'I-NP'
p524
g5
tp525
a(S'variables'
p526
S'variable'
p527
S'NNS'
p528
S'I-NP'
p529
g5
tp530
a(S'were'
p531
S'be'
p532
S'VBD'
p533
S'B-VP'
p534
g5
tp535
a(S'caregiver'
p536
S'caregiver'
p537
S'NN'
p538
S'B-NP'
p539
g5
tp540
a(S'burden'
p541
S'burden'
p542
S'NN'
p543
S'I-NP'
p544
g5
tp545
a(S'and'
p546
S'and'
p547
S'CC'
p548
g5
g5
tp549
a(S'satisfaction.'
p550
S'satisfaction.'
p551
S'JJ'
p552
S'B-NP'
p553
g5
tp554
a(S'Demand'
p555
S'Demand'
p556
S'NN'
p557
S'I-NP'
p558
g5
tp559
a(S'and'
p560
S'and'
p561
S'CC'
p562
S'I-NP'
p563
g5
tp564
a(S'control'
p565
S'control'
p566
S'NN'
p567
S'I-NP'
p568
g5
tp569
a(S'were'
p570
S'be'
p571
S'VBD'
p572
S'B-VP'
p573
g5
tp574
a(S'measured'
p575
S'measure'
p576
S'VBN'
p577
S'I-VP'
p578
g5
tp579
a(S'using'
p580
S'use'
p581
S'VBG'
p582
S'B-VP'
p583
g5
tp584
a(S'both'
p585
S'both'
p586
S'CC'
p587
g5
g5
tp588
a(S'patient-'
p589
S'patient-'
p590
S'NN'
p591
S'B-NP'
p592
g5
tp593
a(S'and'
p594
S'and'
p595
S'CC'
p596
g5
g5
tp597
a(S'caregiver-derived'
p598
S'caregiver-derived'
p599
S'JJ'
p600
S'B-NP'
p601
g5
tp602
a(S'measures'
p603
S'measure'
p604
S'NNS'
p605
S'I-NP'
p606
g5
tp607
a(g111
g111
g111
g5
g5
tp608
a(S'RESULTS'
p609
S'RESULTS'
p610
S'NNS'
p611
S'B-NP'
p612
g5
tp613
a(S'The'
p614
S'The'
p615
S'DT'
p616
S'B-NP'
p617
g5
tp618
a(S'D-C'
p619
S'D-C'
p620
S'NN'
p621
S'I-NP'
p622
g5
tp623
a(S'model'
p624
S'model'
p625
S'NN'
p626
S'I-NP'
p627
g5
tp628
a(S'accounted'
p629
S'account'
p630
S'VBD'
p631
S'B-VP'
p632
g5
tp633
a(S'for'
p634
S'for'
p635
S'IN'
p636
S'B-PP'
p637
g5
tp638
a(S'15'
p639
S'15'
p640
S'CD'
p641
S'B-NP'
p642
g5
tp643
a(S'and'
p644
S'and'
p645
S'CC'
p646
S'I-NP'
p647
g5
tp648
a(S'19'
p649
S'19'
p650
S'CD'
p651
S'I-NP'
p652
g5
tp653
a(S'%'
p654
g654
S'NN'
p655
S'I-NP'
p656
g5
tp657
a(S'of'
p658
S'of'
p659
S'IN'
p660
S'B-PP'
p661
g5
tp662
a(S'the'
p663
S'the'
p664
S'DT'
p665
S'B-NP'
p666
g5
tp667
a(S'variance'
p668
S'variance'
p669
S'NN'
p670
S'I-NP'
p671
g5
tp672
a(S'in'
p673
S'in'
p674
S'IN'
p675
S'B-PP'
p676
g5
tp677
a(S'caregiver'
p678
S'caregiver'
p679
S'NN'
p680
S'B-NP'
p681
g5
tp682
a(S'burden'
p683
S'burden'
p684
S'NN'
p685
S'I-NP'
p686
g5
tp687
a(S','
p688
g688
g688
g5
g5
tp689
a(S'after'
p690
S'after'
p691
S'IN'
p692
S'B-PP'
p693
g5
tp694
a(S'controlling'
p695
S'control'
p696
S'VBG'
p697
S'B-VP'
p698
g5
tp699
a(S'for'
p700
S'for'
p701
S'IN'
p702
S'B-PP'
p703
g5
tp704
a(S'age'
p705
S'age'
p706
S'NN'
p707
S'B-NP'
p708
g5
tp709
a(g688
g688
g688
S'I-NP'
p710
g5
tp711
a(S'gender'
p712
S'gender'
p713
S'NN'
p714
S'I-NP'
p715
g5
tp716
a(S'and'
p717
S'and'
p718
S'CC'
p719
S'I-NP'
p720
g5
tp721
a(S'relationship'
p722
S'relationship'
p723
S'NN'
p724
S'I-NP'
p725
g5
tp726
a(S'to'
p727
S'to'
p728
S'TO'
p729
S'B-PP'
p730
g5
tp731
a(S'the'
p732
S'the'
p733
S'DT'
p734
S'B-NP'
p735
g5
tp736
a(S'patient.'
p737
S'patient.'
p738
S'NN'
p739
S'I-NP'
p740
g5
tp741
a(S'Lower'
p742
S'Lower'
p743
S'NN'
p744
S'I-NP'
p745
g5
tp746
a(S'control'
p747
S'control'
p748
S'NN'
p749
S'I-NP'
p750
g5
tp751
a(S'was'
p752
S'be'
p753
S'VBD'
p754
S'B-VP'
p755
g5
tp756
a(S'associated'
p757
S'associate'
p758
S'VBN'
p759
S'I-VP'
p760
g5
tp761
a(S'with'
p762
S'with'
p763
S'IN'
p764
S'B-PP'
p765
g5
tp766
a(S'higher'
p767
S'high'
p768
S'JJR'
p769
S'B-NP'
p770
g5
tp771
a(S'burden.'
p772
S'burden.'
p773
S'NN'
p774
S'I-NP'
p775
g5
tp776
a(S'The'
p777
S'The'
p778
S'DT'
p779
S'B-NP'
p780
g5
tp781
a(S'D-C'
p782
S'D-C'
p783
S'NN'
p784
S'I-NP'
p785
g5
tp786
a(S'model'
p787
S'model'
p788
S'NN'
p789
S'I-NP'
p790
g5
tp791
a(S'did'
p792
S'do'
p793
S'VBD'
p794
S'B-VP'
p795
g5
tp796
a(S'not'
p797
S'not'
p798
S'RB'
p799
S'I-VP'
p800
g5
tp801
a(S'predict'
p802
S'predict'
p803
S'VB'
p804
S'I-VP'
p805
g5
tp806
a(S'caregiver'
p807
S'caregiver'
p808
S'NN'
p809
S'B-NP'
p810
g5
tp811
a(S'satisfaction'
p812
S'satisfaction'
p813
S'NN'
p814
S'I-NP'
p815
g5
tp816
a(g111
g111
g111
g5
g5
tp817
a(S'CONCLUSION'
p818
S'CONCLUSION'
p819
S'NN'
p820
S'B-NP'
p821
g5
tp822
a(S'The'
p823
S'The'
p824
S'DT'
p825
S'B-NP'
p826
g5
tp827
a(S'D-C'
p828
S'D-C'
p829
S'NN'
p830
S'I-NP'
p831
g5
tp832
a(S'model'
p833
S'model'
p834
S'NN'
p835
S'I-NP'
p836
g5
tp837
a(S'was'
p838
S'be'
p839
S'VBD'
p840
S'B-VP'
p841
g5
tp842
a(S'associated'
p843
S'associate'
p844
S'VBN'
p845
S'I-VP'
p846
g5
tp847
a(S'with'
p848
S'with'
p849
S'IN'
p850
S'B-PP'
p851
g5
tp852
a(S'caregiver'
p853
S'caregiver'
p854
S'NN'
p855
S'B-NP'
p856
g5
tp857
a(S'burden'
p858
S'burden'
p859
S'NN'
p860
S'I-NP'
p861
g5
tp862
a(g688
g688
g688
g5
g5
tp863
a(S'but'
p864
S'but'
p865
S'CC'
p866
g5
g5
tp867
a(S'not'
p868
S'not'
p869
S'RB'
p870
g5
g5
tp871
a(S'satisfaction'
p872
S'satisfaction'
p873
S'NN'
p874
S'B-NP'
p875
g5
tp876
a(S'in'
p877
S'in'
p878
S'IN'
p879
S'B-PP'
p880
g5
tp881
a(S'caregivers'
p882
S'caregiver'
p883
S'NNS'
p884
S'B-NP'
p885
g5
tp886
a(g688
g688
g688
g5
g5
tp887
a(S'with'
p888
S'with'
p889
S'IN'
p890
S'B-PP'
p891
g5
tp892
a(S'control'
p893
S'control'
p894
S'NN'
p895
S'B-NP'
p896
g5
tp897
a(S'being'
p898
S'be'
p899
S'VBG'
p900
S'B-VP'
p901
g5
tp902
a(S'the'
p903
S'the'
p904
S'DT'
p905
S'B-NP'
p906
g5
tp907
a(S'dominant'
p908
S'dominant'
p909
S'JJ'
p910
S'I-NP'
p911
g5
tp912
a(S'predictor.'
p913
S'predictor.'
p914
S'NN'
p915
S'I-NP'
p916
g5
tp917
a(S'Research'
p918
S'Research'
p919
S'NNP'
p920
S'I-NP'
p921
g5
tp922
a(S'linking'
p923
S'link'
p924
S'VBG'
p925
S'B-VP'
p926
g5
tp927
a(S'the'
p928
S'the'
p929
S'DT'
p930
S'B-NP'
p931
g5
tp932
a(S'theory'
p933
S'theory'
p934
S'NN'
p935
S'I-NP'
p936
g5
tp937
a(S'and'
p938
S'and'
p939
S'CC'
p940
S'I-NP'
p941
g5
tp942
a(S'findings'
p943
S'finding'
p944
S'NNS'
p945
S'I-NP'
p946
g5
tp947
a(S'from'
p948
S'from'
p949
S'IN'
p950
S'B-PP'
p951
g5
tp952
a(S'job'
p953
S'job'
p954
S'NN'
p955
S'B-NP'
p956
g5
tp957
a(S'strain'
p958
S'strain'
p959
S'NN'
p960
S'I-NP'
p961
g5
tp962
a(S'and'
p963
S'and'
p964
S'CC'
p965
g5
g5
tp966
a(S'informal'
p967
S'informal'
p968
S'JJ'
p969
S'B-NP'
p970
g5
tp971
a(S'caregiving'
p972
S'caregive'
p973
S'VBG'
p974
S'I-NP'
p975
g5
tp976
a(S'studies'
p977
S'study'
p978
S'NNS'
p979
S'I-NP'
p980
g5
tp981
a(S'may'
p982
S'may'
p983
S'MD'
p984
S'B-VP'
p985
g5
tp986
a(S'elucidate'
p987
S'elucidate'
p988
S'VB'
p989
S'I-VP'
p990
g5
tp991
a(S'both'
p992
S'both'
p993
S'DT'
p994
S'B-NP'
p995
g5
tp996
a(S'fields'
p997
S'field'
p998
S'NNS'
p999
S'I-NP'
p1000
g5
tp1001
a(S'of'
p1002
S'of'
p1003
S'IN'
p1004
S'B-PP'
p1005
g5
tp1006
a(S'research.'
p1007
S'research.'
p1008
S'NN'
p1009
S'B-NP'
p1010
g5
tp1011
a(S'Using'
p1012
S'Use'
p1013
S'VBG'
p1014
S'B-VP'
p1015
g5
tp1016
a(S'the'
p1017
S'the'
p1018
S'DT'
p1019
S'B-NP'
p1020
g5
tp1021
a(S'demand-control'
p1022
S'demand-control'
p1023
S'JJ'
p1024
S'I-NP'
p1025
g5
tp1026
a(S'model'
p1027
S'model'
p1028
S'NN'
p1029
S'I-NP'
p1030
g5
tp1031
a(S'of'
p1032
S'of'
p1033
S'IN'
p1034
S'B-PP'
p1035
g5
tp1036
a(S'job'
p1037
S'job'
p1038
S'NN'
p1039
S'B-NP'
p1040
g5
tp1041
a(S'strain'
p1042
S'strain'
p1043
S'NN'
p1044
S'I-NP'
p1045
g5
tp1046
a(S'to'
p1047
S'to'
p1048
S'TO'
p1049
S'B-VP'
p1050
g5
tp1051
a(S'predict'
p1052
S'predict'
p1053
S'VB'
p1054
S'I-VP'
p1055
g5
tp1056
a(S'caregiver'
p1057
S'caregiver'
p1058
S'NN'
p1059
S'B-NP'
p1060
g5
tp1061
a(S'burden'
p1062
S'burden'
p1063
S'NN'
p1064
S'I-NP'
p1065
g5
tp1066
a(S'and'
p1067
S'and'
p1068
S'CC'
p1069
g5
g5
tp1070
a(S'caregiver'
p1071
S'caregiver'
p1072
S'NN'
p1073
S'B-NP'
p1074
g5
tp1075
a(S'satisfaction'
p1076
S'satisfaction'
p1077
S'NN'
p1078
S'I-NP'
p1079
g5
tp1080
a(S'in'
p1081
S'in'
p1082
S'IN'
p1083
S'B-PP'
p1084
g5
tp1085
a(S'the'
p1086
S'the'
p1087
S'DT'
p1088
S'B-NP'
p1089
g5
tp1090
a(S'informal'
p1091
S'informal'
p1092
S'JJ'
p1093
S'I-NP'
p1094
g5
tp1095
a(S'caregivers'
p1096
S'caregiver'
p1097
S'NNS'
p1098
S'I-NP'
p1099
g5
tp1100
a(S'of'
p1101
S'of'
p1102
S'IN'
p1103
S'B-PP'
p1104
g5
tp1105
a(S'heart'
p1106
S'heart'
p1107
S'NN'
p1108
S'B-NP'
p1109
g5
tp1110
a(S'failure'
p1111
S'failure'
p1112
S'NN'
p1113
S'I-NP'
p1114
g5
tp1115
a(S'patients'
p1116
S'patient'
p1117
S'NNS'
p1118
S'I-NP'
p1119
g5
tp1120
a(g111
g111
g111
g5
g5
tp1121
a.