(lp0
(S'Famotidine'
p1
S'Famotidine'
p2
S'NN'
p3
S'B-NP'
p4
S'O'
p5
tp6
a(S'treatment'
p7
S'treatment'
p8
S'NN'
p9
S'I-NP'
p10
g5
tp11
a(S'of'
p12
S'of'
p13
S'IN'
p14
S'B-PP'
p15
g5
tp16
a(S'children'
p17
S'child'
p18
S'NNS'
p19
S'B-NP'
p20
g5
tp21
a(S'with'
p22
S'with'
p23
S'IN'
p24
S'B-PP'
p25
g5
tp26
a(S'autistic'
p27
S'autistic'
p28
S'JJ'
p29
S'B-NP'
p30
g5
tp31
a(S'spectrum'
p32
S'spectrum'
p33
S'NN'
p34
S'I-NP'
p35
g5
tp36
a(S'disorders'
p37
S'disorder'
p38
S'NNS'
p39
S'I-NP'
p40
g5
tp41
a(S':'
p42
g42
g42
g5
g5
tp43
a(S'pilot'
p44
S'pilot'
p45
S'NN'
p46
S'B-NP'
p47
g5
tp48
a(S'research'
p49
S'research'
p50
S'NN'
p51
S'I-NP'
p52
g5
tp53
a(S'using'
p54
S'use'
p55
S'VBG'
p56
S'B-VP'
p57
g5
tp58
a(S'single'
p59
S'single'
p60
S'JJ'
p61
S'B-NP'
p62
g5
tp63
a(S'subject'
p64
S'subject'
p65
S'NN'
p66
S'I-NP'
p67
g5
tp68
a(S'research'
p69
S'research'
p70
S'NN'
p71
S'I-NP'
p72
g5
tp73
a(S'design'
p74
S'design'
p75
S'NN'
p76
S'I-NP'
p77
g5
tp78
a(S'.'
p79
g79
g79
g5
g5
tp80
a(S'Using'
p81
S'Use'
p82
S'VBG'
p83
S'B-VP'
p84
g5
tp85
a(S'single'
p86
S'single'
p87
S'JJ'
p88
S'B-NP'
p89
g5
tp90
a(S'subject'
p91
S'subject'
p92
S'NN'
p93
S'I-NP'
p94
g5
tp95
a(S'research'
p96
S'research'
p97
S'NN'
p98
S'I-NP'
p99
g5
tp100
a(S'design'
p101
S'design'
p102
S'NN'
p103
S'I-NP'
p104
g5
tp105
a(S','
p106
g106
g106
g5
g5
tp107
a(S'we'
p108
S'we'
p109
S'PRP'
p110
S'B-NP'
p111
g5
tp112
a(S'performed'
p113
S'perform'
p114
S'VBD'
p115
S'B-VP'
p116
g5
tp117
a(S'pilot'
p118
S'pilot'
p119
S'NN'
p120
S'B-NP'
p121
g5
tp122
a(S'research'
p123
S'research'
p124
S'NN'
p125
S'I-NP'
p126
g5
tp127
a(S'to'
p128
S'to'
p129
S'TO'
p130
S'B-VP'
p131
g5
tp132
a(S'evaluate'
p133
S'evaluate'
p134
S'VB'
p135
S'I-VP'
p136
g5
tp137
a(S'the'
p138
S'the'
p139
S'DT'
p140
S'B-NP'
p141
g5
tp142
a(S'safety'
p143
S'safety'
p144
S'NN'
p145
S'I-NP'
p146
g5
tp147
a(S'and'
p148
S'and'
p149
S'CC'
p150
S'I-NP'
p151
g5
tp152
a(S'efficacy'
p153
S'efficacy'
p154
S'NN'
p155
S'I-NP'
p156
g5
tp157
a(S'of'
p158
S'of'
p159
S'IN'
p160
S'B-PP'
p161
g5
tp162
a(S'famotidine'
p163
S'famotidine'
p164
S'NN'
p165
S'B-NP'
p166
g5
tp167
a(S'for'
p168
S'for'
p169
S'IN'
p170
S'B-PP'
p171
g5
tp172
a(S'the'
p173
S'the'
p174
S'DT'
p175
S'B-NP'
p176
g5
tp177
a(S'treatment'
p178
S'treatment'
p179
S'NN'
p180
S'I-NP'
p181
g5
tp182
a(S'of'
p183
S'of'
p184
S'IN'
p185
S'B-PP'
p186
g5
tp187
a(S'children'
p188
S'child'
p189
S'NNS'
p190
S'B-NP'
p191
g5
tp192
a(S'with'
p193
S'with'
p194
S'IN'
p195
S'B-PP'
p196
g5
tp197
a(S'autistic'
p198
S'autistic'
p199
S'JJ'
p200
S'B-NP'
p201
g5
tp202
a(S'spectrum'
p203
S'spectrum'
p204
S'NN'
p205
S'I-NP'
p206
g5
tp207
a(S'disorders.'
p208
S'disorders.'
p209
S'NN'
p210
S'I-NP'
p211
g5
tp212
a(S'We'
p213
S'We'
p214
S'PRP'
p215
S'B-NP'
p216
g5
tp217
a(S'studied'
p218
S'study'
p219
S'VBD'
p220
S'B-VP'
p221
g5
tp222
a(S'9'
p223
g223
S'CD'
p224
S'B-NP'
p225
g5
tp226
a(S'Caucasian'
p227
S'Caucasian'
p228
S'JJ'
p229
S'I-NP'
p230
g5
tp231
a(S'boys'
p232
S'boy'
p233
S'NNS'
p234
S'I-NP'
p235
g5
tp236
a(g106
g106
g106
g5
g5
tp237
a(S'3.8-8.1'
p238
S'3.8-8.1'
p239
S'CD'
p240
S'B-NP'
p241
g5
tp242
a(S'years'
p243
S'year'
p244
S'NNS'
p245
S'I-NP'
p246
g5
tp247
a(S'old'
p248
S'old'
p249
S'JJ'
p250
S'B-ADJP'
p251
g5
tp252
a(g106
g106
g106
g5
g5
tp253
a(S'with'
p254
S'with'
p255
S'IN'
p256
S'B-PP'
p257
g5
tp258
a(S'a'
p259
g259
S'DT'
p260
S'B-NP'
p261
g5
tp262
a(S'DSM-IV'
p263
S'DSM-IV'
p264
S'NN'
p265
S'I-NP'
p266
g5
tp267
a(S'diagnosis'
p268
S'diagnosis'
p269
S'NN'
p270
S'I-NP'
p271
g5
tp272
a(S'of'
p273
S'of'
p274
S'IN'
p275
S'B-PP'
p276
g5
tp277
a(g259
g259
S'DT'
p278
S'B-NP'
p279
g5
tp280
a(S'pervasive'
p281
S'pervasive'
p282
S'JJ'
p283
S'I-NP'
p284
g5
tp285
a(S'developmental'
p286
S'developmental'
p287
S'JJ'
p288
S'I-NP'
p289
g5
tp290
a(S'disorder'
p291
S'disorder'
p292
S'NN'
p293
S'I-NP'
p294
g5
tp295
a(g106
g106
g106
g5
g5
tp296
a(S'living'
p297
S'live'
p298
S'VBG'
p299
S'B-VP'
p300
g5
tp301
a(S'with'
p302
S'with'
p303
S'IN'
p304
S'B-PP'
p305
g5
tp306
a(S'their'
p307
S'their'
p308
S'PRP$'
p309
S'B-NP'
p310
g5
tp311
a(S'families'
p312
S'family'
p313
S'NNS'
p314
S'I-NP'
p315
g5
tp316
a(g106
g106
g106
g5
g5
tp317
a(S'receiving'
p318
S'receive'
p319
S'VBG'
p320
S'B-VP'
p321
g5
tp322
a(S'no'
p323
S'no'
p324
S'DT'
p325
S'B-NP'
p326
g5
tp327
a(S'chronic'
p328
S'chronic'
p329
S'JJ'
p330
S'I-NP'
p331
g5
tp332
a(S'medications'
p333
S'medication'
p334
S'NNS'
p335
S'I-NP'
p336
g5
tp337
a(g106
g106
g106
g5
g5
tp338
a(S'and'
p339
S'and'
p340
S'CC'
p341
g5
g5
tp342
a(S'without'
p343
S'without'
p344
S'IN'
p345
S'B-PP'
p346
g5
tp347
a(S'significant'
p348
S'significant'
p349
S'JJ'
p350
S'B-NP'
p351
g5
tp352
a(S'gastrointestinal'
p353
S'gastrointestinal'
p354
S'JJ'
p355
S'I-NP'
p356
g5
tp357
a(S'symptoms.'
p358
S'symptoms.'
p359
S'NN'
p360
S'I-NP'
p361
g5
tp362
a(S'The'
p363
S'The'
p364
S'DT'
p365
S'B-NP'
p366
g5
tp367
a(S'dose'
p368
S'dose'
p369
S'NN'
p370
S'I-NP'
p371
g5
tp372
a(S'of'
p373
S'of'
p374
S'IN'
p375
S'B-PP'
p376
g5
tp377
a(S'oral'
p378
S'oral'
p379
S'JJ'
p380
S'B-NP'
p381
g5
tp382
a(S'famotidine'
p383
S'famotidine'
p384
S'NN'
p385
S'I-NP'
p386
g5
tp387
a(S'was'
p388
S'be'
p389
S'VBD'
p390
S'B-VP'
p391
g5
tp392
a(S'2'
p393
g393
S'CD'
p394
S'B-NP'
p395
g5
tp396
a(S'mg/kg/day'
p397
S'mg/kg/day'
p398
S'NN'
p399
S'I-NP'
p400
g5
tp401
a(S'('
p402
g402
g402
g5
g5
tp403
a(S'given'
p404
S'give'
p405
S'VBN'
p406
S'B-VP'
p407
g5
tp408
a(S'in'
p409
S'in'
p410
S'IN'
p411
S'B-PP'
p412
g5
tp413
a(S'two'
p414
S'two'
p415
S'CD'
p416
S'B-NP'
p417
g5
tp418
a(S'divided'
p419
S'divide'
p420
S'VBN'
p421
S'I-NP'
p422
g5
tp423
a(S'doses'
p424
S'dose'
p425
S'NNS'
p426
S'I-NP'
p427
g5
tp428
a(S')'
p429
g429
g429
g5
g5
tp430
a(S';'
p431
g431
g42
g5
g5
tp432
a(S'the'
p433
S'the'
p434
S'DT'
p435
S'B-NP'
p436
g5
tp437
a(S'maximum'
p438
S'maximum'
p439
S'JJ'
p440
S'I-NP'
p441
g5
tp442
a(S'total'
p443
S'total'
p444
S'JJ'
p445
S'I-NP'
p446
g5
tp447
a(S'daily'
p448
S'daily'
p449
S'JJ'
p450
S'I-NP'
p451
g5
tp452
a(S'dose'
p453
S'dose'
p454
S'NN'
p455
S'I-NP'
p456
g5
tp457
a(S'was'
p458
S'be'
p459
S'VBD'
p460
S'B-VP'
p461
g5
tp462
a(S'100'
p463
S'100'
p464
S'CD'
p465
S'B-NP'
p466
g5
tp467
a(S'mg.'
p468
S'mg.'
p469
S'NN'
p470
S'I-NP'
p471
g5
tp472
a(S'Using'
p473
S'Use'
p474
S'VBG'
p475
S'B-VP'
p476
g5
tp477
a(S'single-subject'
p478
S'single-subject'
p479
S'JJ'
p480
S'B-NP'
p481
g5
tp482
a(S'research'
p483
S'research'
p484
S'NN'
p485
S'I-NP'
p486
g5
tp487
a(S'analysis'
p488
S'analysis'
p489
S'NN'
p490
S'I-NP'
p491
g5
tp492
a(S'and'
p493
S'and'
p494
S'CC'
p495
S'I-NP'
p496
g5
tp497
a(S'medication'
p498
S'medication'
p499
S'NN'
p500
S'I-NP'
p501
g5
tp502
a(S'given'
p503
S'give'
p504
S'VBN'
p505
S'B-VP'
p506
g5
tp507
a(S'in'
p508
S'in'
p509
S'IN'
p510
S'B-PP'
p511
g5
tp512
a(g259
g259
S'DT'
p513
S'B-NP'
p514
g5
tp515
a(S'randomized'
p516
S'randomize'
p517
S'VBN'
p518
S'I-NP'
p519
g5
tp520
a(g106
g106
g106
S'I-NP'
p521
g5
tp522
a(S'double-blind'
p523
S'double-blind'
p524
S'JJ'
p525
S'I-NP'
p526
g5
tp527
a(g106
g106
g106
S'I-NP'
p528
g5
tp529
a(S'placebo-controlled'
p530
S'placebo-controlled'
p531
S'JJ'
p532
S'I-NP'
p533
g5
tp534
a(g106
g106
g106
S'I-NP'
p535
g5
tp536
a(S'cross-over'
p537
S'cross-over'
p538
S'JJ'
p539
S'I-NP'
p540
g5
tp541
a(S'design'
p542
S'design'
p543
S'NN'
p544
S'I-NP'
p545
g5
tp546
a(g106
g106
g106
g5
g5
tp547
a(S'4'
p548
g548
S'CD'
p549
S'B-NP'
p550
g5
tp551
a(S'of'
p552
S'of'
p553
S'IN'
p554
S'B-PP'
p555
g5
tp556
a(g223
g223
S'CD'
p557
S'B-NP'
p558
g5
tp559
a(S'children'
p560
S'child'
p561
S'NNS'
p562
S'I-NP'
p563
g5
tp564
a(S'randomized'
p565
S'randomize'
p566
S'VBN'
p567
S'B-VP'
p568
g5
tp569
a(g402
g402
g402
g5
g5
tp570
a(S'44'
p571
S'44'
p572
S'CD'
p573
S'B-NP'
p574
g5
tp575
a(S'%'
p576
g576
S'NN'
p577
S'I-NP'
p578
g5
tp579
a(g429
g429
g429
g5
g5
tp580
a(S'had'
p581
S'have'
p582
S'VBD'
p583
S'B-VP'
p584
g5
tp585
a(S'evidence'
p586
S'evidence'
p587
S'NN'
p588
S'B-NP'
p589
g5
tp590
a(S'of'
p591
S'of'
p592
S'IN'
p593
S'B-PP'
p594
g5
tp595
a(S'behavioral'
p596
S'behavioral'
p597
S'JJ'
p598
S'B-NP'
p599
g5
tp600
a(S'improvement.'
p601
S'improvement.'
p602
S'NN'
p603
S'I-NP'
p604
g5
tp605
a(S'Primary'
p606
S'Primary'
p607
S'JJ'
p608
S'I-NP'
p609
g5
tp610
a(S'efficacy'
p611
S'efficacy'
p612
S'NN'
p613
S'I-NP'
p614
g5
tp615
a(S'was'
p616
S'be'
p617
S'VBD'
p618
S'B-VP'
p619
g5
tp620
a(S'based'
p621
S'base'
p622
S'VBN'
p623
S'I-VP'
p624
g5
tp625
a(S'on'
p626
S'on'
p627
S'IN'
p628
S'B-PP'
p629
g5
tp630
a(S'data'
p631
S'datum'
p632
S'NNS'
p633
S'B-NP'
p634
g5
tp635
a(S'kept'
p636
S'keep'
p637
S'VBN'
p638
S'B-VP'
p639
g5
tp640
a(S'by'
p641
S'by'
p642
S'IN'
p643
S'B-PP'
p644
g5
tp645
a(S'primary'
p646
S'primary'
p647
S'JJ'
p648
S'B-NP'
p649
g5
tp650
a(S'caregivers'
p651
S'caregiver'
p652
S'NNS'
p653
S'I-NP'
p654
g5
tp655
a(g106
g106
g106
g5
g5
tp656
a(S'including'
p657
S'include'
p658
S'VBG'
p659
S'B-PP'
p660
g5
tp661
a(g259
g259
S'DT'
p662
S'B-NP'
p663
g5
tp664
a(S'daily'
p665
S'daily'
p666
S'JJ'
p667
S'I-NP'
p668
g5
tp669
a(S'diary'
p670
S'diary'
p671
S'NN'
p672
S'I-NP'
p673
g5
tp674
a(g431
g431
g42
g5
g5
tp675
a(S'daily'
p676
S'daily'
p677
S'JJ'
p678
S'B-NP'
p679
g5
tp680
a(S'visual'
p681
S'visual'
p682
S'JJ'
p683
S'I-NP'
p684
g5
tp685
a(S'analogue'
p686
S'analogue'
p687
S'NN'
p688
S'I-NP'
p689
g5
tp690
a(S'scales'
p691
S'scale'
p692
S'NNS'
p693
S'I-NP'
p694
g5
tp695
a(S'of'
p696
S'of'
p697
S'IN'
p698
S'B-PP'
p699
g5
tp700
a(S'affection'
p701
S'affection'
p702
S'NN'
p703
S'B-NP'
p704
g5
tp705
a(g106
g106
g106
g5
g5
tp706
a(S'reciting'
p707
S'reciting'
p708
S'NN'
p709
S'B-NP'
p710
g5
tp711
a(g106
g106
g106
g5
g5
tp712
a(S'or'
p713
S'or'
p714
S'CC'
p715
g5
g5
tp716
a(S'aspects'
p717
S'aspect'
p718
S'NNS'
p719
S'B-NP'
p720
g5
tp721
a(S'of'
p722
S'of'
p723
S'IN'
p724
S'B-PP'
p725
g5
tp726
a(S'social'
p727
S'social'
p728
S'JJ'
p729
S'B-NP'
p730
g5
tp731
a(S'interaction'
p732
S'interaction'
p733
S'NN'
p734
S'I-NP'
p735
g5
tp736
a(g431
g431
g42
g5
g5
tp737
a(S'Aberrant'
p738
S'Aberrant'
p739
S'JJ'
p740
S'B-NP'
p741
g5
tp742
a(S'Behavior'
p743
S'Behavior'
p744
S'JJ'
p745
S'I-NP'
p746
g5
tp747
a(S'Checklists'
p748
S'Checklist'
p749
S'NNS'
p750
S'I-NP'
p751
g5
tp752
a(g402
g402
g402
g5
g5
tp753
a(S'ABC'
p754
S'ABC'
p755
S'NNP'
p756
S'B-NP'
p757
g5
tp758
a(g106
g106
g106
g5
g5
tp759
a(S'Aman'
p760
S'Aman'
p761
S'NNP'
p762
S'B-NP'
p763
g5
tp764
a(g429
g429
g429
g5
g5
tp765
a(g431
g431
g42
g5
g5
tp766
a(S'and'
p767
S'and'
p768
S'CC'
p769
g5
g5
tp770
a(S'Clinical'
p771
S'Clinical'
p772
S'NNP'
p773
S'B-NP'
p774
g5
tp775
a(S'Global'
p776
S'Global'
p777
S'NNP'
p778
S'I-NP'
p779
g5
tp780
a(S'Improvement'
p781
S'Improvement'
p782
S'NNP'
p783
S'I-NP'
p784
g5
tp785
a(S'scales.'
p786
S'scales.'
p787
S'NN'
p788
S'I-NP'
p789
g5
tp790
a(S'Children'
p791
S'Children'
p792
S'NNP'
p793
S'I-NP'
p794
g5
tp795
a(S'with'
p796
S'with'
p797
S'IN'
p798
S'B-PP'
p799
g5
tp800
a(S'marked'
p801
S'marked'
p802
S'JJ'
p803
S'B-NP'
p804
g5
tp805
a(S'stereotypy'
p806
S'stereotypy'
p807
S'NN'
p808
S'I-NP'
p809
g5
tp810
a(g402
g402
g402
g5
g5
tp811
a(S'meaningless'
p812
S'meaningless'
p813
S'JJ'
p814
S'B-NP'
p815
g5
tp816
a(g106
g106
g106
S'I-NP'
p817
g5
tp818
a(S'repetitive'
p819
S'repetitive'
p820
S'JJ'
p821
S'I-NP'
p822
g5
tp823
a(S'behaviors'
p824
S'behavior'
p825
S'NNS'
p826
S'I-NP'
p827
g5
tp828
a(g429
g429
g429
g5
g5
tp829
a(S'did'
p830
S'do'
p831
S'VBD'
p832
S'B-VP'
p833
g5
tp834
a(S'not'
p835
S'not'
p836
S'RB'
p837
S'I-VP'
p838
g5
tp839
a(S'respond.'
p840
S'respond.'
p841
S'VB'
p842
S'I-VP'
p843
g5
tp844
a(S'Our'
p845
S'Our'
p846
S'PRP$'
p847
S'B-NP'
p848
g5
tp849
a(S'subjects'
p850
S'subject'
p851
S'NNS'
p852
S'I-NP'
p853
g5
tp854
a(S'did'
p855
S'do'
p856
S'VBD'
p857
S'B-VP'
p858
g5
tp859
a(S'not'
p860
S'not'
p861
S'RB'
p862
S'I-VP'
p863
g5
tp864
a(S'have'
p865
S'have'
p866
S'VB'
p867
S'I-VP'
p868
g5
tp869
a(S'prominent'
p870
S'prominent'
p871
S'JJ'
p872
S'B-NP'
p873
g5
tp874
a(S'gastrointestinal'
p875
S'gastrointestinal'
p876
S'JJ'
p877
S'I-NP'
p878
g5
tp879
a(S'symptoms'
p880
S'symptom'
p881
S'NNS'
p882
S'I-NP'
p883
g5
tp884
a(S'and'
p885
S'and'
p886
S'CC'
p887
g5
g5
tp888
a(S'endoscopy'
p889
S'endoscopy'
p890
S'NN'
p891
S'B-NP'
p892
g5
tp893
a(S'was'
p894
S'be'
p895
S'VBD'
p896
S'B-VP'
p897
g5
tp898
a(S'not'
p899
S'not'
p900
S'RB'
p901
g5
g5
tp902
a(S'part'
p903
S'part'
p904
S'NN'
p905
S'B-NP'
p906
g5
tp907
a(S'of'
p908
S'of'
p909
S'IN'
p910
S'B-PP'
p911
g5
tp912
a(S'our'
p913
S'our'
p914
S'PRP$'
p915
S'B-NP'
p916
g5
tp917
a(S'protocol'
p918
S'protocol'
p919
S'NN'
p920
S'I-NP'
p921
g5
tp922
a(g431
g431
g42
g5
g5
tp923
a(S'thus'
p924
S'thus'
p925
S'RB'
p926
S'B-ADVP'
p927
g5
tp928
a(g106
g106
g106
g5
g5
tp929
a(S'we'
p930
S'we'
p931
S'PRP'
p932
S'B-NP'
p933
g5
tp934
a(S'can'
p935
S'can'
p936
S'MD'
p937
S'B-VP'
p938
g5
tp939
a(S'not'
p940
S'not'
p941
S'RB'
p942
S'I-VP'
p943
g5
tp944
a(S'exclude'
p945
S'exclude'
p946
S'VB'
p947
S'I-VP'
p948
g5
tp949
a(S'the'
p950
S'the'
p951
S'DT'
p952
S'B-NP'
p953
g5
tp954
a(S'possibility'
p955
S'possibility'
p956
S'NN'
p957
S'I-NP'
p958
g5
tp959
a(S'that'
p960
S'that'
p961
S'IN'
p962
S'B-SBAR'
p963
g5
tp964
a(S'our'
p965
S'our'
p966
S'PRP$'
p967
S'B-NP'
p968
g5
tp969
a(S'subjects'
p970
S'subject'
p971
S'NNS'
p972
S'I-NP'
p973
g5
tp974
a(S'improved'
p975
S'improve'
p976
S'VBD'
p977
S'B-VP'
p978
g5
tp979
a(S'due'
p980
S'due'
p981
S'IN'
p982
S'B-PP'
p983
g5
tp984
a(S'to'
p985
S'to'
p986
S'TO'
p987
S'B-PP'
p988
g5
tp989
a(S'the'
p990
S'the'
p991
S'DT'
p992
S'B-NP'
p993
g5
tp994
a(S'effective'
p995
S'effective'
p996
S'JJ'
p997
S'I-NP'
p998
g5
tp999
a(S'treatment'
p1000
S'treatment'
p1001
S'NN'
p1002
S'I-NP'
p1003
g5
tp1004
a(S'of'
p1005
S'of'
p1006
S'IN'
p1007
S'B-PP'
p1008
g5
tp1009
a(S'asymptomatic'
p1010
S'asymptomatic'
p1011
S'JJ'
p1012
S'B-NP'
p1013
g5
tp1014
a(S'esophagitis.'
p1015
S'esophagitis.'
p1016
S'NNS'
p1017
S'I-NP'
p1018
g5
tp1019
a(S'The'
p1020
S'The'
p1021
S'DT'
p1022
S'B-NP'
p1023
g5
tp1024
a(S'use'
p1025
S'use'
p1026
S'NN'
p1027
S'I-NP'
p1028
g5
tp1029
a(S'of'
p1030
S'of'
p1031
S'IN'
p1032
S'B-PP'
p1033
g5
tp1034
a(S'famotidine'
p1035
S'famotidine'
p1036
S'NN'
p1037
S'B-NP'
p1038
g5
tp1039
a(S'for'
p1040
S'for'
p1041
S'IN'
p1042
S'B-PP'
p1043
g5
tp1044
a(S'the'
p1045
S'the'
p1046
S'DT'
p1047
S'B-NP'
p1048
g5
tp1049
a(S'treatment'
p1050
S'treatment'
p1051
S'NN'
p1052
S'I-NP'
p1053
g5
tp1054
a(S'of'
p1055
S'of'
p1056
S'IN'
p1057
S'B-PP'
p1058
g5
tp1059
a(S'children'
p1060
S'child'
p1061
S'NNS'
p1062
S'B-NP'
p1063
g5
tp1064
a(S'with'
p1065
S'with'
p1066
S'IN'
p1067
S'B-PP'
p1068
g5
tp1069
a(S'autistic'
p1070
S'autistic'
p1071
S'JJ'
p1072
S'B-NP'
p1073
g5
tp1074
a(S'spectrum'
p1075
S'spectrum'
p1076
S'NN'
p1077
S'I-NP'
p1078
g5
tp1079
a(S'disorders'
p1080
S'disorder'
p1081
S'NNS'
p1082
S'I-NP'
p1083
g5
tp1084
a(S'warrants'
p1085
S'warrant'
p1086
S'VBZ'
p1087
S'B-VP'
p1088
g5
tp1089
a(S'further'
p1090
S'further'
p1091
S'JJ'
p1092
S'B-NP'
p1093
g5
tp1094
a(S'investigation'
p1095
S'investigation'
p1096
S'NN'
p1097
S'I-NP'
p1098
g5
tp1099
a(g79
g79
g79
g5
g5
tp1100
a.