(lp0
(S'Stage'
p1
S'Stage'
p2
S'NN'
p3
S'B-NP'
p4
S'O'
p5
tp6
a(S'II'
p7
S'II'
p8
S'CD'
p9
S'I-NP'
p10
g5
tp11
a(S'carcinoma'
p12
S'carcinoma'
p13
S'NN'
p14
S'I-NP'
p15
g5
tp16
a(S'of'
p17
S'of'
p18
S'IN'
p19
S'B-PP'
p20
g5
tp21
a(S'the'
p22
S'the'
p23
S'DT'
p24
S'B-NP'
p25
g5
tp26
a(S'ovary'
p27
S'ovary'
p28
S'NN'
p29
S'I-NP'
p30
g5
tp31
a(S':'
p32
g32
g32
g5
g5
tp33
a(S'an'
p34
S'an'
p35
S'DT'
p36
S'B-NP'
p37
g5
tp38
a(S'analysis'
p39
S'analysis'
p40
S'NN'
p41
S'I-NP'
p42
g5
tp43
a(S'of'
p44
S'of'
p45
S'IN'
p46
S'B-PP'
p47
g5
tp48
a(S'survival'
p49
S'survival'
p50
S'NN'
p51
S'B-NP'
p52
g5
tp53
a(S'after'
p54
S'after'
p55
S'IN'
p56
S'B-PP'
p57
g5
tp58
a(S'comprehensive'
p59
S'comprehensive'
p60
S'JJ'
p61
S'B-NP'
p62
g5
tp63
a(S'surgical'
p64
S'surgical'
p65
S'JJ'
p66
S'I-NP'
p67
g5
tp68
a(S'staging'
p69
S'staging'
p70
S'NN'
p71
S'I-NP'
p72
g5
tp73
a(S'and'
p74
S'and'
p75
S'CC'
p76
g5
g5
tp77
a(S'adjuvant'
p78
S'adjuvant'
p79
S'JJ'
p80
S'B-NP'
p81
g5
tp82
a(S'therapy'
p83
S'therapy'
p84
S'NN'
p85
S'I-NP'
p86
g5
tp87
a(S'.'
p88
g88
g88
g5
g5
tp89
a(S'Ninety-three'
p90
S'Ninety-three'
p91
S'CD'
p92
S'B-NP'
p93
g5
tp94
a(S'women'
p95
S'woman'
p96
S'NNS'
p97
S'I-NP'
p98
g5
tp99
a(S'with'
p100
S'with'
p101
S'IN'
p102
S'B-PP'
p103
g5
tp104
a(S'FIGO'
p105
S'FIGO'
p106
S'NN'
p107
S'B-NP'
p108
g5
tp109
a(S'stage'
p110
S'stage'
p111
S'NN'
p112
S'I-NP'
p113
g5
tp114
a(S'II'
p115
S'II'
p116
S'CD'
p117
S'I-NP'
p118
g5
tp119
a(S'epithelial'
p120
S'epithelial'
p121
S'JJ'
p122
S'I-NP'
p123
g5
tp124
a(S'ovarian'
p125
S'ovarian'
p126
S'JJ'
p127
S'I-NP'
p128
g5
tp129
a(S'carcinoma'
p130
S'carcinoma'
p131
S'NN'
p132
S'I-NP'
p133
g5
tp134
a(S'underwent'
p135
S'undergo'
p136
S'VBD'
p137
S'B-VP'
p138
g5
tp139
a(S'comprehensive'
p140
S'comprehensive'
p141
S'JJ'
p142
S'B-NP'
p143
g5
tp144
a(S'surgical'
p145
S'surgical'
p146
S'JJ'
p147
S'I-NP'
p148
g5
tp149
a(S'staging'
p150
S'staging'
p151
S'NN'
p152
S'I-NP'
p153
g5
tp154
a(S'and'
p155
S'and'
p156
S'CC'
p157
g5
g5
tp158
a(S'were'
p159
S'be'
p160
S'VBD'
p161
S'B-VP'
p162
g5
tp163
a(S'randomized'
p164
S'randomize'
p165
S'VBN'
p166
S'I-VP'
p167
g5
tp168
a(S'prospectively'
p169
S'prospectively'
p170
S'RB'
p171
S'B-ADVP'
p172
g5
tp173
a(S'to'
p174
S'to'
p175
S'TO'
p176
S'B-PP'
p177
g5
tp178
a(S'therapy'
p179
S'therapy'
p180
S'NN'
p181
S'B-NP'
p182
g5
tp183
a(S'consisting'
p184
S'consist'
p185
S'VBG'
p186
S'B-VP'
p187
g5
tp188
a(S'of'
p189
S'of'
p190
S'IN'
p191
S'B-PP'
p192
g5
tp193
a(S'either'
p194
S'either'
p195
S'CC'
p196
S'B-NP'
p197
g5
tp198
a(S'intraperitoneal'
p199
S'intraperitoneal'
p200
S'JJ'
p201
S'I-NP'
p202
g5
tp203
a(S'radioactive'
p204
S'radioactive'
p205
S'JJ'
p206
S'I-NP'
p207
g5
tp208
a(S'phosphorus'
p209
S'phosphorus'
p210
S'NN'
p211
S'I-NP'
p212
g5
tp213
a(S'or'
p214
S'or'
p215
S'CC'
p216
g5
g5
tp217
a(S'oral'
p218
S'oral'
p219
S'JJ'
p220
S'B-NP'
p221
g5
tp222
a(S'melphalan.'
p223
S'melphalan.'
p224
S'NN'
p225
S'I-NP'
p226
g5
tp227
a(S'No'
p228
S'No'
p229
S'DT'
p230
S'B-NP'
p231
g5
tp232
a(S'patient'
p233
S'patient'
p234
S'NN'
p235
S'I-NP'
p236
g5
tp237
a(S'had'
p238
S'have'
p239
S'VBD'
p240
S'B-VP'
p241
g5
tp242
a(S'gross'
p243
S'gross'
p244
S'JJ'
p245
S'B-NP'
p246
g5
tp247
a(S'residual'
p248
S'residual'
p249
S'JJ'
p250
S'I-NP'
p251
g5
tp252
a(S'disease'
p253
S'disease'
p254
S'NN'
p255
S'I-NP'
p256
g5
tp257
a(S'at'
p258
S'at'
p259
S'IN'
p260
S'B-PP'
p261
g5
tp262
a(S'the'
p263
S'the'
p264
S'DT'
p265
S'B-NP'
p266
g5
tp267
a(S'time'
p268
S'time'
p269
S'NN'
p270
S'I-NP'
p271
g5
tp272
a(S'of'
p273
S'of'
p274
S'IN'
p275
S'B-PP'
p276
g5
tp277
a(S'randomization.'
p278
S'randomization.'
p279
S'NN'
p280
S'B-NP'
p281
g5
tp282
a(S'Ten'
p283
S'Ten'
p284
S'CD'
p285
S'I-NP'
p286
g5
tp287
a(S'of'
p288
S'of'
p289
S'IN'
p290
S'B-PP'
p291
g5
tp292
a(S'the'
p293
S'the'
p294
S'DT'
p295
S'B-NP'
p296
g5
tp297
a(S'forty-five'
p298
S'forty-five'
p299
S'JJ'
p300
S'I-NP'
p301
g5
tp302
a(S'women'
p303
S'woman'
p304
S'NNS'
p305
S'I-NP'
p306
g5
tp307
a(S'treated'
p308
S'treat'
p309
S'VBN'
p310
S'B-VP'
p311
g5
tp312
a(S'with'
p313
S'with'
p314
S'IN'
p315
S'B-PP'
p316
g5
tp317
a(S'melphalan'
p318
S'melphalan'
p319
S'NN'
p320
S'B-NP'
p321
g5
tp322
a(S'experienced'
p323
S'experience'
p324
S'VBD'
p325
S'B-VP'
p326
g5
tp327
a(S'severe'
p328
S'severe'
p329
S'JJ'
p330
S'B-NP'
p331
g5
tp332
a(S'bone'
p333
S'bone'
p334
S'NN'
p335
S'I-NP'
p336
g5
tp337
a(S'marrow'
p338
S'marrow'
p339
S'NN'
p340
S'I-NP'
p341
g5
tp342
a(S'depression'
p343
S'depression'
p344
S'NN'
p345
S'I-NP'
p346
g5
tp347
a(S'at'
p348
S'at'
p349
S'IN'
p350
S'B-PP'
p351
g5
tp352
a(S'some'
p353
S'some'
p354
S'DT'
p355
S'B-NP'
p356
g5
tp357
a(S'time'
p358
S'time'
p359
S'NN'
p360
S'I-NP'
p361
g5
tp362
a(S'during'
p363
S'during'
p364
S'IN'
p365
S'B-PP'
p366
g5
tp367
a(S'therapy'
p368
S'therapy'
p369
S'NN'
p370
S'B-NP'
p371
g5
tp372
a(S'and'
p373
S'and'
p374
S'CC'
p375
g5
g5
tp376
a(S'two'
p377
S'two'
p378
S'CD'
p379
S'B-NP'
p380
g5
tp381
a(S'women'
p382
S'woman'
p383
S'NNS'
p384
S'I-NP'
p385
g5
tp386
a(S'expired'
p387
S'expire'
p388
S'VBD'
p389
S'B-VP'
p390
g5
tp391
a(S'from'
p392
S'from'
p393
S'IN'
p394
S'B-PP'
p395
g5
tp396
a(S'leukemia.'
p397
S'leukemia.'
p398
S'NN'
p399
S'B-NP'
p400
g5
tp401
a(S'Four'
p402
S'Four'
p403
S'CD'
p404
S'I-NP'
p405
g5
tp406
a(S'of'
p407
S'of'
p408
S'IN'
p409
S'B-PP'
p410
g5
tp411
a(S'the'
p412
S'the'
p413
S'DT'
p414
S'B-NP'
p415
g5
tp416
a(S'forty-eight'
p417
S'forty-eight'
p418
S'JJ'
p419
S'I-NP'
p420
g5
tp421
a(S'women'
p422
S'woman'
p423
S'NNS'
p424
S'I-NP'
p425
g5
tp426
a(S'treated'
p427
S'treat'
p428
S'VBN'
p429
S'B-VP'
p430
g5
tp431
a(S'with'
p432
S'with'
p433
S'IN'
p434
S'B-PP'
p435
g5
tp436
a(S'intraperitoneal'
p437
S'intraperitoneal'
p438
S'JJ'
p439
S'B-NP'
p440
g5
tp441
a(S'phosphorus'
p442
S'phosphorus'
p443
S'NN'
p444
S'I-NP'
p445
g5
tp446
a(S'required'
p447
S'require'
p448
S'VBD'
p449
S'B-VP'
p450
g5
tp451
a(S'surgical'
p452
S'surgical'
p453
S'JJ'
p454
S'B-NP'
p455
g5
tp456
a(S'reexploration'
p457
S'reexploration'
p458
S'NN'
p459
S'I-NP'
p460
g5
tp461
a(S'for'
p462
S'for'
p463
S'IN'
p464
S'B-PP'
p465
g5
tp466
a(S'intestinal'
p467
S'intestinal'
p468
S'JJ'
p469
S'B-NP'
p470
g5
tp471
a(S'obstruction'
p472
S'obstruction'
p473
S'NN'
p474
S'I-NP'
p475
g5
tp476
a(S'or'
p477
S'or'
p478
S'CC'
p479
S'I-NP'
p480
g5
tp481
a(S'bowel'
p482
S'bowel'
p483
S'NN'
p484
S'I-NP'
p485
g5
tp486
a(S'injury.'
p487
S'injury.'
p488
S'NN'
p489
S'I-NP'
p490
g5
tp491
a(S'Twenty-one'
p492
S'Twenty-one'
p493
S'CD'
p494
S'B-NP'
p495
g5
tp496
a(S'women'
p497
S'woman'
p498
S'NNS'
p499
S'I-NP'
p500
g5
tp501
a(S'died'
p502
S'die'
p503
S'VBD'
p504
S'B-VP'
p505
g5
tp506
a(S'of'
p507
S'of'
p508
S'IN'
p509
S'B-PP'
p510
g5
tp511
a(S'their'
p512
S'their'
p513
S'PRP$'
p514
S'B-NP'
p515
g5
tp516
a(S'disease.'
p517
S'disease.'
p518
S'NN'
p519
S'I-NP'
p520
g5
tp521
a(S'Survival'
p522
S'Survival'
p523
S'NN'
p524
S'I-NP'
p525
g5
tp526
a(S'was'
p527
S'be'
p528
S'VBD'
p529
S'B-VP'
p530
g5
tp531
a(S'not'
p532
S'not'
p533
S'RB'
p534
g5
g5
tp535
a(S'statistically'
p536
S'statistically'
p537
S'RB'
p538
S'B-ADJP'
p539
g5
tp540
a(S'different'
p541
S'different'
p542
S'JJ'
p543
S'I-ADJP'
p544
g5
tp545
a(S'between'
p546
S'between'
p547
S'IN'
p548
S'B-PP'
p549
g5
tp550
a(S'the'
p551
S'the'
p552
S'DT'
p553
S'B-NP'
p554
g5
tp555
a(S'two'
p556
S'two'
p557
S'CD'
p558
S'I-NP'
p559
g5
tp560
a(S'treatment'
p561
S'treatment'
p562
S'NN'
p563
S'I-NP'
p564
g5
tp565
a(S'arms.'
p566
S'arms.'
p567
S'NN'
p568
S'I-NP'
p569
g5
tp570
a(S'The'
p571
S'The'
p572
S'DT'
p573
S'B-NP'
p574
g5
tp575
a(S'5-year'
p576
S'5-year'
p577
S'JJ'
p578
S'I-NP'
p579
g5
tp580
a(S'actuarial'
p581
S'actuarial'
p582
S'JJ'
p583
S'I-NP'
p584
g5
tp585
a(S'survival'
p586
S'survival'
p587
S'NN'
p588
S'I-NP'
p589
g5
tp590
a(S'was'
p591
S'be'
p592
S'VBD'
p593
S'B-VP'
p594
g5
tp595
a(S'78'
p596
S'78'
p597
S'CD'
p598
S'B-NP'
p599
g5
tp600
a(S'%'
p601
g601
S'NN'
p602
S'I-NP'
p603
g5
tp604
a(g88
g88
g88
g5
g5
tp605
a.