(lp0
(S'Interleukin-6'
p1
S'Interleukin-6'
p2
S'NN'
p3
S'B-NP'
p4
S'B-protein'
p5
tp6
a(S'receptor'
p7
S'receptor'
p8
S'NN'
p9
S'I-NP'
p10
S'I-protein'
p11
tp12
a(S'inhibition'
p13
S'inhibition'
p14
S'NN'
p15
S'I-NP'
p16
S'O'
p17
tp18
a(S'with'
p19
S'with'
p20
S'IN'
p21
S'B-PP'
p22
g17
tp23
a(S'tocilizumab'
p24
S'tocilizumab'
p25
S'NN'
p26
S'B-NP'
p27
S'B-protein'
p28
tp29
a(S'and'
p30
S'and'
p31
S'CC'
p32
S'I-NP'
p33
g17
tp34
a(S'attainment'
p35
S'attainment'
p36
S'NN'
p37
S'I-NP'
p38
g17
tp39
a(S'of'
p40
S'of'
p41
S'IN'
p42
S'B-PP'
p43
g17
tp44
a(S'disease'
p45
S'disease'
p46
S'NN'
p47
S'B-NP'
p48
g17
tp49
a(S'remission'
p50
S'remission'
p51
S'NN'
p52
S'I-NP'
p53
g17
tp54
a(S'in'
p55
S'in'
p56
S'IN'
p57
S'B-PP'
p58
g17
tp59
a(S'rheumatoid'
p60
S'rheumatoid'
p61
S'JJ'
p62
S'B-NP'
p63
g17
tp64
a(S'arthritis'
p65
S'arthritis'
p66
S'NN'
p67
S'I-NP'
p68
g17
tp69
a(S':'
p70
g70
g70
g17
g17
tp71
a(S'the'
p72
S'the'
p73
S'DT'
p74
S'B-NP'
p75
g17
tp76
a(S'role'
p77
S'role'
p78
S'NN'
p79
S'I-NP'
p80
g17
tp81
a(S'of'
p82
S'of'
p83
S'IN'
p84
S'B-PP'
p85
g17
tp86
a(S'acute-phase'
p87
S'acute-phase'
p88
S'JJ'
p89
S'B-NP'
p90
g17
tp91
a(S'reactants'
p92
S'reactant'
p93
S'NNS'
p94
S'I-NP'
p95
g17
tp96
a(S'.'
p97
g97
g97
g17
g17
tp98
a(S'OBJECTIVE'
p99
S'OBJECTIVE'
p100
S'NN'
p101
S'B-NP'
p102
g17
tp103
a(S'To'
p104
S'To'
p105
S'TO'
p106
S'B-VP'
p107
g17
tp108
a(S'determine'
p109
S'determine'
p110
S'VB'
p111
S'I-VP'
p112
g17
tp113
a(S'the'
p114
S'the'
p115
S'DT'
p116
S'B-NP'
p117
g17
tp118
a(S'effects'
p119
S'effect'
p120
S'NNS'
p121
S'I-NP'
p122
g17
tp123
a(S'of'
p124
S'of'
p125
S'IN'
p126
S'B-PP'
p127
g17
tp128
a(S'tocilizumab'
p129
S'tocilizumab'
p130
S'NN'
p131
S'B-NP'
p132
S'B-protein'
p133
tp134
a(S'on'
p135
S'on'
p136
S'IN'
p137
S'B-PP'
p138
g17
tp139
a(S'rheumatoid'
p140
S'rheumatoid'
p141
S'JJ'
p142
S'B-NP'
p143
g17
tp144
a(S'arthritis'
p145
S'arthritis'
p146
S'NN'
p147
S'I-NP'
p148
g17
tp149
a(S'('
p150
g150
g150
g17
g17
tp151
a(S'RA'
p152
S'RA'
p153
S'NN'
p154
S'B-NP'
p155
g17
tp156
a(S')'
p157
g157
g157
g17
g17
tp158
a(S'disease'
p159
S'disease'
p160
S'NN'
p161
S'B-NP'
p162
g17
tp163
a(S'activity'
p164
S'activity'
p165
S'NN'
p166
S'I-NP'
p167
g17
tp168
a(S'and'
p169
S'and'
p170
S'CC'
p171
g17
g17
tp172
a(S'remission'
p173
S'remission'
p174
S'NN'
p175
S'B-NP'
p176
g17
tp177
a(S'assessment'
p178
S'assessment'
p179
S'NN'
p180
S'I-NP'
p181
g17
tp182
a(S','
p183
g183
g183
g17
g17
tp184
a(S'using'
p185
S'use'
p186
S'VBG'
p187
S'B-VP'
p188
g17
tp189
a(S'measures'
p190
S'measure'
p191
S'NNS'
p192
S'B-NP'
p193
g17
tp194
a(S'that'
p195
S'that'
p196
S'WDT'
p197
S'B-NP'
p198
g17
tp199
a(S'do'
p200
S'do'
p201
S'VBP'
p202
S'B-VP'
p203
g17
tp204
a(S'or'
p205
S'or'
p206
S'CC'
p207
g17
g17
tp208
a(S'do'
p209
S'do'
p210
S'VBP'
p211
S'B-VP'
p212
g17
tp213
a(S'not'
p214
S'not'
p215
S'RB'
p216
S'I-VP'
p217
g17
tp218
a(S'comprise'
p219
S'comprise'
p220
S'VB'
p221
S'I-VP'
p222
g17
tp223
a(S'acute-phase'
p224
S'acute-phase'
p225
S'NN'
p226
S'B-NP'
p227
g17
tp228
a(S'reactants'
p229
S'reactant'
p230
S'NNS'
p231
S'I-NP'
p232
g17
tp233
a(g97
g97
g97
g17
g17
tp234
a(S'METHODS'
p235
S'METHODS'
p236
S'NNS'
p237
S'B-NP'
p238
g17
tp239
a(S'Simplified'
p240
S'Simplify'
p241
S'VBD'
p242
S'B-VP'
p243
g17
tp244
a(S'Disease'
p245
S'Disease'
p246
S'NN'
p247
S'B-NP'
p248
g17
tp249
a(S'Activity'
p250
S'Activity'
p251
S'NN'
p252
S'I-NP'
p253
g17
tp254
a(S'Index'
p255
S'Index'
p256
S'NN'
p257
S'I-NP'
p258
g17
tp259
a(g150
g150
g150
g17
g17
tp260
a(S'SDAI'
p261
S'SDAI'
p262
S'NN'
p263
S'B-NP'
p264
g17
tp265
a(g157
g157
g157
g17
g17
tp266
a(S'scores'
p267
S'score'
p268
S'NNS'
p269
S'B-NP'
p270
g17
tp271
a(g183
g183
g183
g17
g17
tp272
a(S'Clinical'
p273
S'Clinical'
p274
S'NNP'
p275
S'B-NP'
p276
g17
tp277
a(S'Disease'
p278
S'Disease'
p279
S'NNP'
p280
S'I-NP'
p281
g17
tp282
a(S'Activity'
p283
S'Activity'
p284
S'NNP'
p285
S'I-NP'
p286
g17
tp287
a(S'Index'
p288
S'Index'
p289
S'NNP'
p290
S'I-NP'
p291
g17
tp292
a(g150
g150
g150
g17
g17
tp293
a(S'CDAI'
p294
S'CDAI'
p295
S'NN'
p296
S'B-NP'
p297
g17
tp298
a(g157
g157
g157
g17
g17
tp299
a(S'scores'
p300
S'score'
p301
S'NNS'
p302
S'B-NP'
p303
g17
tp304
a(g183
g183
g183
g17
g17
tp305
a(S'and'
p306
S'and'
p307
S'CC'
p308
g17
g17
tp309
a(S'the'
p310
S'the'
p311
S'DT'
p312
S'B-NP'
p313
g17
tp314
a(S'Disease'
p315
S'Disease'
p316
S'NN'
p317
S'I-NP'
p318
g17
tp319
a(S'Activity'
p320
S'Activity'
p321
S'NN'
p322
S'I-NP'
p323
g17
tp324
a(S'Score'
p325
S'Score'
p326
S'NN'
p327
S'I-NP'
p328
g17
tp329
a(S'in'
p330
S'in'
p331
S'IN'
p332
S'B-PP'
p333
g17
tp334
a(S'28'
p335
S'28'
p336
S'CD'
p337
S'B-NP'
p338
g17
tp339
a(S'joints'
p340
S'joint'
p341
S'NNS'
p342
S'I-NP'
p343
g17
tp344
a(g150
g150
g150
g17
g17
tp345
a(S'DAS28'
p346
S'DAS28'
p347
S'NN'
p348
S'B-NP'
p349
S'B-DNA'
p350
tp351
a(g157
g157
g157
g17
g17
tp352
a(S'were'
p353
S'be'
p354
S'VBD'
p355
S'B-VP'
p356
g17
tp357
a(S'calculated'
p358
S'calculate'
p359
S'VBN'
p360
S'I-VP'
p361
g17
tp362
a(S'using'
p363
S'use'
p364
S'VBG'
p365
S'B-VP'
p366
g17
tp367
a(S'data'
p368
S'datum'
p369
S'NNS'
p370
S'B-NP'
p371
g17
tp372
a(S'from'
p373
S'from'
p374
S'IN'
p375
S'B-PP'
p376
g17
tp377
a(S'tocilizumab'
p378
S'tocilizumab'
p379
S'NN'
p380
S'B-NP'
p381
g17
tp382
a(S'trials'
p383
S'trial'
p384
S'NNS'
p385
S'I-NP'
p386
g17
tp387
a(S'in'
p388
S'in'
p389
S'IN'
p390
S'B-PP'
p391
g17
tp392
a(S'patients'
p393
S'patient'
p394
S'NNS'
p395
S'B-NP'
p396
g17
tp397
a(S'with'
p398
S'with'
p399
S'IN'
p400
S'B-PP'
p401
g17
tp402
a(S'RA'
p403
S'RA'
p404
S'NN'
p405
S'B-NP'
p406
g17
tp407
a(S'in'
p408
S'in'
p409
S'IN'
p410
S'B-PP'
p411
g17
tp412
a(S'whom'
p413
S'whom'
p414
S'WP'
p415
S'B-NP'
p416
g17
tp417
a(S'disease'
p418
S'disease'
p419
S'NN'
p420
S'B-NP'
p421
g17
tp422
a(S'had'
p423
S'have'
p424
S'VBD'
p425
S'B-VP'
p426
g17
tp427
a(S'remained'
p428
S'remain'
p429
S'VBN'
p430
S'I-VP'
p431
g17
tp432
a(S'active'
p433
S'active'
p434
S'JJ'
p435
S'B-ADJP'
p436
g17
tp437
a(S'despite'
p438
S'despite'
p439
S'IN'
p440
S'B-PP'
p441
g17
tp442
a(S'treatment'
p443
S'treatment'
p444
S'NN'
p445
S'B-NP'
p446
g17
tp447
a(S'with'
p448
S'with'
p449
S'IN'
p450
S'B-PP'
p451
g17
tp452
a(S'disease-modifying'
p453
S'disease-modifying'
p454
S'JJ'
p455
S'B-NP'
p456
g17
tp457
a(S'antirheumatic'
p458
S'antirheumatic'
p459
S'JJ'
p460
S'I-NP'
p461
g17
tp462
a(S'drugs.'
p463
S'drugs.'
p464
S'NN'
p465
S'I-NP'
p466
g17
tp467
a(S'The'
p468
S'The'
p469
S'DT'
p470
S'B-NP'
p471
g17
tp472
a(S'CDAI'
p473
S'CDAI'
p474
S'NN'
p475
S'I-NP'
p476
S'B-protein'
p477
tp478
a(S'does'
p479
S'do'
p480
S'VBZ'
p481
S'B-VP'
p482
g17
tp483
a(S'not'
p484
S'not'
p485
S'RB'
p486
S'I-VP'
p487
g17
tp488
a(S'contain'
p489
S'contain'
p490
S'VB'
p491
S'I-VP'
p492
g17
tp493
a(S'an'
p494
S'an'
p495
S'DT'
p496
S'B-NP'
p497
g17
tp498
a(S'acute-phase'
p499
S'acute-phase'
p500
S'JJ'
p501
S'I-NP'
p502
g17
tp503
a(S'reactant'
p504
S'reactant'
p505
S'NN'
p506
S'I-NP'
p507
g17
tp508
a(S'component.'
p509
S'component.'
p510
S'NN'
p511
S'I-NP'
p512
g17
tp513
a(S'Disease'
p514
S'Disease'
p515
S'NN'
p516
S'I-NP'
p517
g17
tp518
a(S'activity'
p519
S'activity'
p520
S'NN'
p521
S'I-NP'
p522
g17
tp523
a(S'states'
p524
S'state'
p525
S'NNS'
p526
S'I-NP'
p527
g17
tp528
a(g183
g183
g183
g17
g17
tp529
a(S'including'
p530
S'include'
p531
S'VBG'
p532
S'B-PP'
p533
g17
tp534
a(S'remission'
p535
S'remission'
p536
S'NN'
p537
S'B-NP'
p538
g17
tp539
a(g183
g183
g183
g17
g17
tp540
a(S'were'
p541
S'be'
p542
S'VBD'
p543
S'B-VP'
p544
g17
tp545
a(S'defined'
p546
S'define'
p547
S'VBN'
p548
S'I-VP'
p549
g17
tp550
a(S'using'
p551
S'use'
p552
S'VBG'
p553
S'B-VP'
p554
g17
tp555
a(S'established'
p556
S'establish'
p557
S'VBN'
p558
S'B-NP'
p559
g17
tp560
a(S'cut'
p561
S'cut'
p562
S'VBN'
p563
S'I-NP'
p564
g17
tp565
a(S'points'
p566
S'point'
p567
S'NNS'
p568
S'I-NP'
p569
g17
tp570
a(S';'
p571
g571
g70
g17
g17
tp572
a(S'for'
p573
S'for'
p574
S'IN'
p575
S'B-PP'
p576
g17
tp577
a(S'the'
p578
S'the'
p579
S'DT'
p580
S'B-NP'
p581
g17
tp582
a(S'DAS28'
p583
S'DAS28'
p584
S'NN'
p585
S'I-NP'
p586
S'B-DNA'
p587
tp588
a(g183
g183
g183
g17
g17
tp589
a(S'an'
p590
S'an'
p591
S'DT'
p592
S'B-NP'
p593
g17
tp594
a(S'alternative'
p595
S'alternative'
p596
S'JJ'
p597
S'I-NP'
p598
g17
tp599
a(S'cut'
p600
S'cut'
p601
S'NN'
p602
S'I-NP'
p603
g17
tp604
a(S'point'
p605
S'point'
p606
S'NN'
p607
S'I-NP'
p608
g17
tp609
a(S'of'
p610
S'of'
p611
S'IN'
p612
S'B-PP'
p613
g17
tp614
a(S'<'
p615
g615
S'SYM'
p616
S'B-NP'
p617
g17
tp618
a(S'2.4'
p619
S'2.4'
p620
S'CD'
p621
S'I-NP'
p622
g17
tp623
a(S'was'
p624
S'be'
p625
S'VBD'
p626
S'B-VP'
p627
g17
tp628
a(S'also'
p629
S'also'
p630
S'RB'
p631
S'I-VP'
p632
g17
tp633
a(S'used'
p634
S'use'
p635
S'VBN'
p636
S'I-VP'
p637
g17
tp638
a(g97
g97
g97
g17
g17
tp639
a(S'RESULTS'
p640
S'RESULTS'
p641
S'NNS'
p642
S'B-NP'
p643
g17
tp644
a(S'Changes'
p645
S'Change'
p646
S'NNS'
p647
S'I-NP'
p648
g17
tp649
a(S'in'
p650
S'in'
p651
S'IN'
p652
S'B-PP'
p653
g17
tp654
a(S'the'
p655
S'the'
p656
S'DT'
p657
S'B-NP'
p658
g17
tp659
a(S'DAS28'
p660
S'DAS28'
p661
S'NN'
p662
S'I-NP'
p663
S'B-DNA'
p664
tp665
a(g183
g183
g183
g17
g17
tp666
a(S'the'
p667
S'the'
p668
S'DT'
p669
S'B-NP'
p670
g17
tp671
a(S'SDAI'
p672
S'SDAI'
p673
S'NN'
p674
S'I-NP'
p675
g17
tp676
a(S'score'
p677
S'score'
p678
S'NN'
p679
S'I-NP'
p680
g17
tp681
a(g183
g183
g183
g17
g17
tp682
a(S'and'
p683
S'and'
p684
S'CC'
p685
g17
g17
tp686
a(S'the'
p687
S'the'
p688
S'DT'
p689
S'B-NP'
p690
g17
tp691
a(S'CDAI'
p692
S'CDAI'
p693
S'NN'
p694
S'I-NP'
p695
g17
tp696
a(S'score'
p697
S'score'
p698
S'NN'
p699
S'I-NP'
p700
g17
tp701
a(S'among'
p702
S'among'
p703
S'IN'
p704
S'B-PP'
p705
g17
tp706
a(S'patients'
p707
S'patient'
p708
S'NNS'
p709
S'B-NP'
p710
g17
tp711
a(S'receiving'
p712
S'receive'
p713
S'VBG'
p714
S'B-VP'
p715
g17
tp716
a(S'tocilizumab'
p717
S'tocilizumab'
p718
S'NN'
p719
S'B-NP'
p720
g17
tp721
a(S'were'
p722
S'be'
p723
S'VBD'
p724
S'B-VP'
p725
g17
tp726
a(S'significantly'
p727
S'significantly'
p728
S'RB'
p729
S'B-ADJP'
p730
g17
tp731
a(S'higher'
p732
S'high'
p733
S'JJR'
p734
S'I-ADJP'
p735
g17
tp736
a(S'than'
p737
S'than'
p738
S'IN'
p739
S'B-PP'
p740
g17
tp741
a(S'those'
p742
S'those'
p743
S'DT'
p744
S'B-NP'
p745
g17
tp746
a(S'among'
p747
S'among'
p748
S'IN'
p749
S'B-PP'
p750
g17
tp751
a(S'patients'
p752
S'patient'
p753
S'NNS'
p754
S'B-NP'
p755
g17
tp756
a(S'receiving'
p757
S'receive'
p758
S'VBG'
p759
S'B-VP'
p760
g17
tp761
a(S'placebo'
p762
S'placebo'
p763
S'NN'
p764
S'B-NP'
p765
g17
tp766
a(g183
g183
g183
g17
g17
tp767
a(S'and'
p768
S'and'
p769
S'CC'
p770
g17
g17
tp771
a(S'the'
p772
S'the'
p773
S'DT'
p774
S'B-NP'
p775
g17
tp776
a(S'magnitude'
p777
S'magnitude'
p778
S'NN'
p779
S'I-NP'
p780
g17
tp781
a(S'of'
p782
S'of'
p783
S'IN'
p784
S'B-PP'
p785
g17
tp786
a(S'these'
p787
S'these'
p788
S'DT'
p789
S'B-NP'
p790
g17
tp791
a(S'changes'
p792
S'change'
p793
S'NNS'
p794
S'I-NP'
p795
g17
tp796
a(S'was'
p797
S'be'
p798
S'VBD'
p799
S'B-VP'
p800
g17
tp801
a(S'similar'
p802
S'similar'
p803
S'JJ'
p804
S'B-ADJP'
p805
g17
tp806
a(S'for'
p807
S'for'
p808
S'IN'
p809
S'B-PP'
p810
g17
tp811
a(S'the'
p812
S'the'
p813
S'DT'
p814
S'B-NP'
p815
g17
tp816
a(S'SDAI'
p817
S'SDAI'
p818
S'NN'
p819
S'I-NP'
p820
g17
tp821
a(S'and'
p822
S'and'
p823
S'CC'
p824
g17
g17
tp825
a(S'the'
p826
S'the'
p827
S'DT'
p828
S'B-NP'
p829
g17
tp830
a(S'CDAI.'
p831
S'CDAI.'
p832
S'NNP'
p833
S'I-NP'
p834
g17
tp835
a(S'Among'
p836
S'Among'
p837
S'NNP'
p838
S'I-NP'
p839
g17
tp840
a(S'patients'
p841
S'patient'
p842
S'NNS'
p843
S'I-NP'
p844
g17
tp845
a(S'who'
p846
S'who'
p847
S'WP'
p848
S'B-NP'
p849
g17
tp850
a(S'achieved'
p851
S'achieve'
p852
S'VBD'
p853
S'B-VP'
p854
g17
tp855
a(S'50'
p856
S'50'
p857
S'CD'
p858
S'B-NP'
p859
g17
tp860
a(S'%'
p861
g861
S'NN'
p862
S'I-NP'
p863
g17
tp864
a(S'improvement'
p865
S'improvement'
p866
S'NN'
p867
S'I-NP'
p868
g17
tp869
a(S'in'
p870
S'in'
p871
S'IN'
p872
S'B-PP'
p873
g17
tp874
a(S'disease'
p875
S'disease'
p876
S'NN'
p877
S'B-NP'
p878
g17
tp879
a(S'activity'
p880
S'activity'
p881
S'NN'
p882
S'I-NP'
p883
g17
tp884
a(S'according'
p885
S'accord'
p886
S'VBG'
p887
S'B-PP'
p888
g17
tp889
a(S'to'
p890
S'to'
p891
S'TO'
p892
S'B-PP'
p893
g17
tp894
a(S'the'
p895
S'the'
p896
S'DT'
p897
S'B-NP'
p898
g17
tp899
a(S'American'
p900
S'American'
p901
S'NNP'
p902
S'I-NP'
p903
g17
tp904
a(S'College'
p905
S'College'
p906
S'NNP'
p907
S'I-NP'
p908
g17
tp909
a(S'of'
p910
S'of'
p911
S'IN'
p912
S'B-PP'
p913
g17
tp914
a(S'Rheumatology'
p915
S'Rheumatology'
p916
S'NNP'
p917
S'B-NP'
p918
g17
tp919
a(S'criteria'
p920
S'criterion'
p921
S'NNS'
p922
S'I-NP'
p923
g17
tp924
a(g183
g183
g183
g17
g17
tp925
a(S'only'
p926
S'only'
p927
S'RB'
p928
S'B-NP'
p929
g17
tp930
a(S'\xe2\x88\xbc20'
p931
S'\xe2\x88\xbc20'
p932
S'CD'
p933
S'I-NP'
p934
g17
tp935
a(g861
g861
S'NN'
p936
S'I-NP'
p937
g17
tp938
a(S'required'
p939
S'require'
p940
S'VBD'
p941
S'B-VP'
p942
g17
tp943
a(S'a'
p944
g944
S'DT'
p945
S'B-NP'
p946
g17
tp947
a(S'reduction'
p948
S'reduction'
p949
S'NN'
p950
S'I-NP'
p951
g17
tp952
a(S'in'
p953
S'in'
p954
S'IN'
p955
S'B-PP'
p956
g17
tp957
a(S'acute-phase'
p958
S'acute-phase'
p959
S'JJ'
p960
S'B-NP'
p961
g17
tp962
a(S'reactant'
p963
S'reactant'
p964
S'JJ'
p965
S'I-NP'
p966
g17
tp967
a(S'values'
p968
S'value'
p969
S'NNS'
p970
S'I-NP'
p971
g17
tp972
a(S'in'
p973
S'in'
p974
S'IN'
p975
S'B-SBAR'
p976
g17
tp977
a(S'order'
p978
S'order'
p979
S'NN'
p980
g17
g17
tp981
a(S'to'
p982
S'to'
p983
S'TO'
p984
S'B-VP'
p985
g17
tp986
a(S'fulfill'
p987
S'fulfill'
p988
S'VB'
p989
S'I-VP'
p990
g17
tp991
a(S'the'
p992
S'the'
p993
S'DT'
p994
S'B-NP'
p995
g17
tp996
a(S'criteria.'
p997
S'criteria.'
p998
S'NN'
p999
S'I-NP'
p1000
g17
tp1001
a(S'However'
p1002
S'However'
p1003
S'RB'
p1004
S'B-ADVP'
p1005
g17
tp1006
a(g183
g183
g183
g17
g17
tp1007
a(S'DAS28'
p1008
S'DAS28'
p1009
S'NN'
p1010
S'B-NP'
p1011
g17
tp1012
a(S'remission'
p1013
S'remission'
p1014
S'NN'
p1015
S'I-NP'
p1016
g17
tp1017
a(S'rates'
p1018
S'rate'
p1019
S'NNS'
p1020
S'I-NP'
p1021
g17
tp1022
a(S'were'
p1023
S'be'
p1024
S'VBD'
p1025
S'B-VP'
p1026
g17
tp1027
a(S'higher'
p1028
S'high'
p1029
S'JJR'
p1030
S'B-ADJP'
p1031
g17
tp1032
a(g150
g150
g150
g17
g17
tp1033
a(S'even'
p1034
S'even'
p1035
S'RB'
p1036
S'B-ADVP'
p1037
g17
tp1038
a(S'when'
p1039
S'when'
p1040
S'WRB'
p1041
S'I-ADVP'
p1042
g17
tp1043
a(S'using'
p1044
S'use'
p1045
S'VBG'
p1046
S'B-VP'
p1047
g17
tp1048
a(S'the'
p1049
S'the'
p1050
S'DT'
p1051
S'B-NP'
p1052
g17
tp1053
a(S'lower'
p1054
S'low'
p1055
S'JJR'
p1056
S'I-NP'
p1057
g17
tp1058
a(S'cut'
p1059
S'cut'
p1060
S'NN'
p1061
S'I-NP'
p1062
g17
tp1063
a(S'point'
p1064
S'point'
p1065
S'NN'
p1066
S'I-NP'
p1067
g17
tp1068
a(g157
g157
g157
g17
g17
tp1069
a(S'than'
p1070
S'than'
p1071
S'IN'
p1072
S'B-PP'
p1073
g17
tp1074
a(S'the'
p1075
S'the'
p1076
S'DT'
p1077
S'B-NP'
p1078
g17
tp1079
a(S'SDAI'
p1080
S'SDAI'
p1081
S'NN'
p1082
S'I-NP'
p1083
g17
tp1084
a(S'and'
p1085
S'and'
p1086
S'CC'
p1087
S'I-NP'
p1088
g17
tp1089
a(S'CDAI'
p1090
S'CDAI'
p1091
S'NN'
p1092
S'I-NP'
p1093
g17
tp1094
a(S'remission'
p1095
S'remission'
p1096
S'NN'
p1097
S'I-NP'
p1098
g17
tp1099
a(S'rates.'
p1100
S'rates.'
p1101
S'NN'
p1102
S'I-NP'
p1103
g17
tp1104
a(S'Only'
p1105
S'Only'
p1106
S'RB'
p1107
S'B-NP'
p1108
g17
tp1109
a(g944
g944
S'DT'
p1110
S'I-NP'
p1111
g17
tp1112
a(S'minority'
p1113
S'minority'
p1114
S'NN'
p1115
S'I-NP'
p1116
g17
tp1117
a(S'of'
p1118
S'of'
p1119
S'IN'
p1120
S'B-PP'
p1121
g17
tp1122
a(S'tocilizumab-treated'
p1123
S'tocilizumab-treated'
p1124
S'JJ'
p1125
S'B-NP'
p1126
g17
tp1127
a(S'patients'
p1128
S'patient'
p1129
S'NNS'
p1130
S'I-NP'
p1131
g17
tp1132
a(S'with'
p1133
S'with'
p1134
S'IN'
p1135
S'B-PP'
p1136
g17
tp1137
a(S'DAS28'
p1138
S'DAS28'
p1139
S'NN'
p1140
S'B-NP'
p1141
g17
tp1142
a(S'remission'
p1143
S'remission'
p1144
S'NN'
p1145
S'I-NP'
p1146
g17
tp1147
a(S'also'
p1148
S'also'
p1149
S'RB'
p1150
S'B-ADVP'
p1151
g17
tp1152
a(S'had'
p1153
S'have'
p1154
S'VBD'
p1155
S'B-VP'
p1156
g17
tp1157
a(S'disease'
p1158
S'disease'
p1159
S'NN'
p1160
S'B-NP'
p1161
g17
tp1162
a(S'remission'
p1163
S'remission'
p1164
S'NN'
p1165
S'I-NP'
p1166
g17
tp1167
a(S'according'
p1168
S'accord'
p1169
S'VBG'
p1170
S'B-PP'
p1171
g17
tp1172
a(S'to'
p1173
S'to'
p1174
S'TO'
p1175
S'B-PP'
p1176
g17
tp1177
a(S'the'
p1178
S'the'
p1179
S'DT'
p1180
S'B-NP'
p1181
g17
tp1182
a(S'SDAI'
p1183
S'SDAI'
p1184
S'NN'
p1185
S'I-NP'
p1186
g17
tp1187
a(g150
g150
g150
g17
g17
tp1188
a(S'26'
p1189
S'26'
p1190
S'CD'
p1191
S'B-NP'
p1192
g17
tp1193
a(g861
g861
S'NN'
p1194
S'I-NP'
p1195
g17
tp1196
a(g157
g157
g157
g17
g17
tp1197
a(S'or'
p1198
S'or'
p1199
S'CC'
p1200
g17
g17
tp1201
a(S'CDAI'
p1202
S'CDAI'
p1203
S'NN'
p1204
S'B-NP'
p1205
S'B-protein'
p1206
tp1207
a(g150
g150
g150
g17
g17
tp1208
a(S'\xe2\x88\xbc21'
p1209
S'\xe2\x88\xbc21'
p1210
S'CD'
p1211
S'B-NP'
p1212
g17
tp1213
a(g861
g861
S'NN'
p1214
S'I-NP'
p1215
g17
tp1216
a(g157
g157
g157
g17
g17
tp1217
a(g97
g97
g97
g17
g17
tp1218
a(S'With'
p1219
S'With'
p1220
S'IN'
p1221
S'B-PP'
p1222
g17
tp1223
a(S'infliximab'
p1224
S'infliximab'
p1225
S'NN'
p1226
S'B-NP'
p1227
g17
tp1228
a(S'treatment'
p1229
S'treatment'
p1230
S'NN'
p1231
S'I-NP'
p1232
g17
tp1233
a(g183
g183
g183
g17
g17
tp1234
a(S'SDAI'
p1235
S'SDAI'
p1236
S'NN'
p1237
S'B-NP'
p1238
S'B-protein'
p1239
tp1240
a(S'and'
p1241
S'and'
p1242
S'CC'
p1243
g17
g17
tp1244
a(S'CDAI'
p1245
S'CDAI'
p1246
S'NN'
p1247
S'B-NP'
p1248
g17
tp1249
a(S'remission'
p1250
S'remission'
p1251
S'NN'
p1252
S'I-NP'
p1253
g17
tp1254
a(S'rates'
p1255
S'rate'
p1256
S'NNS'
p1257
S'I-NP'
p1258
g17
tp1259
a(S'were'
p1260
S'be'
p1261
S'VBD'
p1262
S'B-VP'
p1263
g17
tp1264
a(S'of'
p1265
S'of'
p1266
S'IN'
p1267
S'B-PP'
p1268
g17
tp1269
a(S'the'
p1270
S'the'
p1271
S'DT'
p1272
S'B-NP'
p1273
g17
tp1274
a(S'same'
p1275
S'same'
p1276
S'JJ'
p1277
S'I-NP'
p1278
g17
tp1279
a(S'magnitude'
p1280
S'magnitude'
p1281
S'NN'
p1282
S'I-NP'
p1283
g17
tp1284
a(S'as'
p1285
S'as'
p1286
S'IN'
p1287
S'B-PP'
p1288
g17
tp1289
a(S'those'
p1290
S'those'
p1291
S'DT'
p1292
S'B-NP'
p1293
g17
tp1294
a(S'observed'
p1295
S'observe'
p1296
S'VBN'
p1297
S'B-VP'
p1298
g17
tp1299
a(S'with'
p1300
S'with'
p1301
S'IN'
p1302
S'B-PP'
p1303
g17
tp1304
a(S'tocilizumab'
p1305
S'tocilizumab'
p1306
S'NN'
p1307
S'B-NP'
p1308
g17
tp1309
a(S'treatment'
p1310
S'treatment'
p1311
S'NN'
p1312
S'I-NP'
p1313
g17
tp1314
a(g183
g183
g183
g17
g17
tp1315
a(S'and'
p1316
S'and'
p1317
S'CC'
p1318
g17
g17
tp1319
a(S'DAS28'
p1320
S'DAS28'
p1321
S'NN'
p1322
S'B-NP'
p1323
g17
tp1324
a(S'remission'
p1325
S'remission'
p1326
S'NN'
p1327
S'I-NP'
p1328
g17
tp1329
a(S'rates'
p1330
S'rate'
p1331
S'NNS'
p1332
S'I-NP'
p1333
g17
tp1334
a(S'were'
p1335
S'be'
p1336
S'VBD'
p1337
S'B-VP'
p1338
g17
tp1339
a(S'lower.'
p1340
S'lower.'
p1341
S'JJ'
p1342
S'B-NP'
p1343
g17
tp1344
a(S'Tocilizumab-treated'
p1345
S'Tocilizumab-treated'
p1346
S'JJ'
p1347
S'I-NP'
p1348
g17
tp1349
a(S'patients'
p1350
S'patient'
p1351
S'NNS'
p1352
S'I-NP'
p1353
g17
tp1354
a(S'with'
p1355
S'with'
p1356
S'IN'
p1357
S'B-PP'
p1358
g17
tp1359
a(S'DAS28'
p1360
S'DAS28'
p1361
S'NN'
p1362
S'B-NP'
p1363
g17
tp1364
a(S'remission'
p1365
S'remission'
p1366
S'NN'
p1367
S'I-NP'
p1368
g17
tp1369
a(S'but'
p1370
S'but'
p1371
S'CC'
p1372
S'B-PP'
p1373
g17
tp1374
a(S'without'
p1375
S'without'
p1376
S'IN'
p1377
S'B-PP'
p1378
g17
tp1379
a(S'CDAI'
p1380
S'CDAI'
p1381
S'NN'
p1382
S'B-NP'
p1383
g17
tp1384
a(S'remission'
p1385
S'remission'
p1386
S'NN'
p1387
S'I-NP'
p1388
g17
tp1389
a(S'had'
p1390
S'have'
p1391
S'VBD'
p1392
S'B-VP'
p1393
g17
tp1394
a(S'significantly'
p1395
S'significantly'
p1396
S'RB'
p1397
S'B-NP'
p1398
g17
tp1399
a(S'higher'
p1400
S'high'
p1401
S'JJR'
p1402
S'I-NP'
p1403
g17
tp1404
a(S'swollen'
p1405
S'swell'
p1406
S'VBN'
p1407
S'I-NP'
p1408
g17
tp1409
a(S'joint'
p1410
S'joint'
p1411
S'JJ'
p1412
S'I-NP'
p1413
g17
tp1414
a(S'counts'
p1415
S'count'
p1416
S'NNS'
p1417
S'I-NP'
p1418
g17
tp1419
a(S'but'
p1420
S'but'
p1421
S'CC'
p1422
g17
g17
tp1423
a(S'lower'
p1424
S'low'
p1425
S'JJR'
p1426
S'B-NP'
p1427
g17
tp1428
a(S'erythrocyte'
p1429
S'erythrocyte'
p1430
S'NN'
p1431
S'I-NP'
p1432
g17
tp1433
a(S'sedimentation'
p1434
S'sedimentation'
p1435
S'NN'
p1436
S'I-NP'
p1437
g17
tp1438
a(S'rates'
p1439
S'rate'
p1440
S'NNS'
p1441
S'I-NP'
p1442
g17
tp1443
a(g150
g150
g150
g17
g17
tp1444
a(S'ESRs'
p1445
S'ESR'
p1446
S'NNS'
p1447
S'B-NP'
p1448
S'B-protein'
p1449
tp1450
a(g157
g157
g157
g17
g17
tp1451
a(S'compared'
p1452
S'compare'
p1453
S'VBN'
p1454
S'B-PP'
p1455
g17
tp1456
a(S'with'
p1457
S'with'
p1458
S'IN'
p1459
S'B-PP'
p1460
g17
tp1461
a(S'patients'
p1462
S'patient'
p1463
S'NNS'
p1464
S'B-NP'
p1465
g17
tp1466
a(S'with'
p1467
S'with'
p1468
S'IN'
p1469
S'B-PP'
p1470
g17
tp1471
a(S'SDAI'
p1472
S'SDAI'
p1473
S'NN'
p1474
S'B-NP'
p1475
g17
tp1476
a(S'or'
p1477
S'or'
p1478
S'CC'
p1479
g17
g17
tp1480
a(S'CDAI'
p1481
S'CDAI'
p1482
S'NN'
p1483
S'B-NP'
p1484
g17
tp1485
a(S'remission'
p1486
S'remission'
p1487
S'NN'
p1488
S'I-NP'
p1489
g17
tp1490
a(g97
g97
g97
g17
g17
tp1491
a(S'CONCLUSION'
p1492
S'CONCLUSION'
p1493
S'NN'
p1494
S'B-NP'
p1495
g17
tp1496
a(S'Disease'
p1497
S'Disease'
p1498
S'NN'
p1499
S'I-NP'
p1500
g17
tp1501
a(S'activity'
p1502
S'activity'
p1503
S'NN'
p1504
S'I-NP'
p1505
g17
tp1506
a(S'in'
p1507
S'in'
p1508
S'IN'
p1509
S'B-PP'
p1510
g17
tp1511
a(S'RA'
p1512
S'RA'
p1513
S'NN'
p1514
S'B-NP'
p1515
g17
tp1516
a(S'is'
p1517
S'be'
p1518
S'VBZ'
p1519
S'B-VP'
p1520
g17
tp1521
a(S'reduced'
p1522
S'reduce'
p1523
S'VBN'
p1524
S'I-VP'
p1525
g17
tp1526
a(S'by'
p1527
S'by'
p1528
S'IN'
p1529
S'B-PP'
p1530
g17
tp1531
a(S'tocilizumab'
p1532
S'tocilizumab'
p1533
S'NN'
p1534
S'B-NP'
p1535
g17
tp1536
a(S'treatment'
p1537
S'treatment'
p1538
S'NN'
p1539
S'I-NP'
p1540
g17
tp1541
a(g183
g183
g183
g17
g17
tp1542
a(S'irrespective'
p1543
S'irrespective'
p1544
S'JJ'
p1545
S'B-ADJP'
p1546
g17
tp1547
a(S'of'
p1548
S'of'
p1549
S'IN'
p1550
S'B-PP'
p1551
g17
tp1552
a(S'the'
p1553
S'the'
p1554
S'DT'
p1555
S'B-NP'
p1556
g17
tp1557
a(S'type'
p1558
S'type'
p1559
S'NN'
p1560
S'I-NP'
p1561
g17
tp1562
a(S'of'
p1563
S'of'
p1564
S'IN'
p1565
S'B-PP'
p1566
g17
tp1567
a(S'composite'
p1568
S'composite'
p1569
S'JJ'
p1570
S'B-NP'
p1571
g17
tp1572
a(S'measure'
p1573
S'measure'
p1574
S'NN'
p1575
S'I-NP'
p1576
g17
tp1577
a(S'used'
p1578
S'use'
p1579
S'VBN'
p1580
S'B-VP'
p1581
g17
tp1582
a(S'to'
p1583
S'to'
p1584
S'TO'
p1585
S'B-VP'
p1586
g17
tp1587
a(S'evaluate'
p1588
S'evaluate'
p1589
S'VB'
p1590
S'I-VP'
p1591
g17
tp1592
a(S'disease'
p1593
S'disease'
p1594
S'NN'
p1595
S'B-NP'
p1596
g17
tp1597
a(S'activity.'
p1598
S'activity.'
p1599
S'NN'
p1600
S'I-NP'
p1601
g17
tp1602
a(S'Remission'
p1603
S'Remission'
p1604
S'NN'
p1605
S'I-NP'
p1606
g17
tp1607
a(S'rates'
p1608
S'rate'
p1609
S'NNS'
p1610
S'I-NP'
p1611
g17
tp1612
a(S'were'
p1613
S'be'
p1614
S'VBD'
p1615
S'B-VP'
p1616
g17
tp1617
a(S'much'
p1618
S'much'
p1619
S'RB'
p1620
S'B-ADJP'
p1621
g17
tp1622
a(S'higher'
p1623
S'high'
p1624
S'JJR'
p1625
S'I-ADJP'
p1626
g17
tp1627
a(S'using'
p1628
S'use'
p1629
S'VBG'
p1630
S'B-VP'
p1631
g17
tp1632
a(S'the'
p1633
S'the'
p1634
S'DT'
p1635
S'B-NP'
p1636
g17
tp1637
a(S'DAS28'
p1638
S'DAS28'
p1639
S'NN'
p1640
S'I-NP'
p1641
S'B-DNA'
p1642
tp1643
a(S'compared'
p1644
S'compare'
p1645
S'VBN'
p1646
S'B-PP'
p1647
g17
tp1648
a(S'with'
p1649
S'with'
p1650
S'IN'
p1651
S'B-PP'
p1652
g17
tp1653
a(S'the'
p1654
S'the'
p1655
S'DT'
p1656
S'B-NP'
p1657
g17
tp1658
a(S'SDAI'
p1659
S'SDAI'
p1660
S'NN'
p1661
S'I-NP'
p1662
g17
tp1663
a(S'and'
p1664
S'and'
p1665
S'CC'
p1666
S'I-NP'
p1667
g17
tp1668
a(S'CDAI'
p1669
S'CDAI'
p1670
S'NN'
p1671
S'I-NP'
p1672
S'B-protein'
p1673
tp1674
a(g183
g183
g183
g17
g17
tp1675
a(S'due'
p1676
S'due'
p1677
S'IN'
p1678
S'B-PP'
p1679
g17
tp1680
a(S'to'
p1681
S'to'
p1682
S'TO'
p1683
S'B-PP'
p1684
g17
tp1685
a(S'the'
p1686
S'the'
p1687
S'DT'
p1688
S'B-NP'
p1689
g17
tp1690
a(S'high'
p1691
S'high'
p1692
S'JJ'
p1693
S'I-NP'
p1694
g17
tp1695
a(S'weight'
p1696
S'weight'
p1697
S'NN'
p1698
S'I-NP'
p1699
g17
tp1700
a(S'of'
p1701
S'of'
p1702
S'IN'
p1703
S'B-PP'
p1704
g17
tp1705
a(S'the'
p1706
S'the'
p1707
S'DT'
p1708
S'B-NP'
p1709
g17
tp1710
a(S'ESR'
p1711
S'ESR'
p1712
S'NN'
p1713
S'I-NP'
p1714
S'B-protein'
p1715
tp1716
a(S'in'
p1717
S'in'
p1718
S'IN'
p1719
S'B-PP'
p1720
g17
tp1721
a(S'the'
p1722
S'the'
p1723
S'DT'
p1724
S'B-NP'
p1725
g17
tp1726
a(S'DAS28'
p1727
S'DAS28'
p1728
S'NN'
p1729
S'I-NP'
p1730
S'B-DNA'
p1731
tp1732
a(S'and'
p1733
S'and'
p1734
S'CC'
p1735
g17
g17
tp1736
a(S'the'
p1737
S'the'
p1738
S'DT'
p1739
S'B-NP'
p1740
g17
tp1741
a(S'effect'
p1742
S'effect'
p1743
S'NN'
p1744
S'I-NP'
p1745
g17
tp1746
a(S'of'
p1747
S'of'
p1748
S'IN'
p1749
S'B-PP'
p1750
g17
tp1751
a(S'tocilizumab'
p1752
S'tocilizumab'
p1753
S'NN'
p1754
S'B-NP'
p1755
S'B-protein'
p1756
tp1757
a(S'on'
p1758
S'on'
p1759
S'IN'
p1760
S'B-PP'
p1761
g17
tp1762
a(S'the'
p1763
S'the'
p1764
S'DT'
p1765
S'B-NP'
p1766
g17
tp1767
a(S'ESR.'
p1768
S'ESR.'
p1769
S'NNP'
p1770
S'I-NP'
p1771
g17
tp1772
a(S'Using'
p1773
S'Use'
p1774
S'VBG'
p1775
S'B-VP'
p1776
g17
tp1777
a(S'the'
p1778
S'the'
p1779
S'DT'
p1780
S'B-NP'
p1781
g17
tp1782
a(S'stringent'
p1783
S'stringent'
p1784
S'JJ'
p1785
S'I-NP'
p1786
g17
tp1787
a(S'SDAI'
p1788
S'SDAI'
p1789
S'NN'
p1790
S'I-NP'
p1791
g17
tp1792
a(S'and'
p1793
S'and'
p1794
S'CC'
p1795
S'I-NP'
p1796
g17
tp1797
a(S'CDAI'
p1798
S'CDAI'
p1799
S'NN'
p1800
S'I-NP'
p1801
g17
tp1802
a(S'criteria'
p1803
S'criterion'
p1804
S'NNS'
p1805
S'I-NP'
p1806
g17
tp1807
a(g183
g183
g183
g17
g17
tp1808
a(S'however'
p1809
S'however'
p1810
S'RB'
p1811
S'B-ADVP'
p1812
g17
tp1813
a(g183
g183
g183
g17
g17
tp1814
a(S'remission'
p1815
S'remission'
p1816
S'NN'
p1817
S'B-NP'
p1818
g17
tp1819
a(S'rates'
p1820
S'rate'
p1821
S'NNS'
p1822
S'I-NP'
p1823
g17
tp1824
a(S'in'
p1825
S'in'
p1826
S'IN'
p1827
S'B-PP'
p1828
g17
tp1829
a(S'patients'
p1830
S'patient'
p1831
S'NNS'
p1832
S'B-NP'
p1833
g17
tp1834
a(S'treated'
p1835
S'treat'
p1836
S'VBN'
p1837
S'B-VP'
p1838
g17
tp1839
a(S'with'
p1840
S'with'
p1841
S'IN'
p1842
S'B-PP'
p1843
g17
tp1844
a(S'tocilizumab'
p1845
S'tocilizumab'
p1846
S'NN'
p1847
S'B-NP'
p1848
g17
tp1849
a(S'were'
p1850
S'be'
p1851
S'VBD'
p1852
S'B-VP'
p1853
g17
tp1854
a(S'in'
p1855
S'in'
p1856
S'IN'
p1857
S'B-PP'
p1858
g17
tp1859
a(S'the'
p1860
S'the'
p1861
S'DT'
p1862
S'B-NP'
p1863
g17
tp1864
a(S'same'
p1865
S'same'
p1866
S'JJ'
p1867
S'I-NP'
p1868
g17
tp1869
a(S'range'
p1870
S'range'
p1871
S'NN'
p1872
S'I-NP'
p1873
g17
tp1874
a(S'as'
p1875
S'as'
p1876
S'IN'
p1877
S'B-PP'
p1878
g17
tp1879
a(S'those'
p1880
S'those'
p1881
S'DT'
p1882
S'B-NP'
p1883
g17
tp1884
a(S'seen'
p1885
S'see'
p1886
S'VBN'
p1887
S'B-VP'
p1888
g17
tp1889
a(S'in'
p1890
S'in'
p1891
S'IN'
p1892
S'B-PP'
p1893
g17
tp1894
a(S'patients'
p1895
S'patient'
p1896
S'NNS'
p1897
S'B-NP'
p1898
g17
tp1899
a(S'treated'
p1900
S'treat'
p1901
S'VBN'
p1902
S'B-VP'
p1903
g17
tp1904
a(S'with'
p1905
S'with'
p1906
S'IN'
p1907
S'B-PP'
p1908
g17
tp1909
a(S'tumor'
p1910
S'tumor'
p1911
S'NN'
p1912
S'B-NP'
p1913
S'B-protein'
p1914
tp1915
a(S'necrosis'
p1916
S'necrosis'
p1917
S'NN'
p1918
S'I-NP'
p1919
S'I-protein'
p1920
tp1921
a(S'factor'
p1922
S'factor'
p1923
S'NN'
p1924
S'I-NP'
p1925
S'I-protein'
p1926
tp1927
a(S'inhibitors'
p1928
S'inhibitor'
p1929
S'NNS'
p1930
S'I-NP'
p1931
g17
tp1932
a(g97
g97
g97
g17
g17
tp1933
a.