(lp0
(S'Risperidone'
p1
S'Risperidone'
p2
S'NN'
p3
S'B-NP'
p4
S'O'
p5
tp6
a(S'in'
p7
S'in'
p8
S'IN'
p9
S'B-PP'
p10
g5
tp11
a(S'children'
p12
S'child'
p13
S'NNS'
p14
S'B-NP'
p15
g5
tp16
a(S'with'
p17
S'with'
p18
S'IN'
p19
S'B-PP'
p20
g5
tp21
a(S'autism'
p22
S'autism'
p23
S'NN'
p24
S'B-NP'
p25
g5
tp26
a(S'and'
p27
S'and'
p28
S'CC'
p29
g5
g5
tp30
a(S'serious'
p31
S'serious'
p32
S'JJ'
p33
S'B-NP'
p34
g5
tp35
a(S'behavioral'
p36
S'behavioral'
p37
S'JJ'
p38
S'I-NP'
p39
g5
tp40
a(S'problems'
p41
S'problem'
p42
S'NNS'
p43
S'I-NP'
p44
g5
tp45
a(S'.'
p46
g46
g46
g5
g5
tp47
a(S'BACKGROUND'
p48
S'BACKGROUND'
p49
S'NN'
p50
S'B-NP'
p51
g5
tp52
a(S'Atypical'
p53
S'Atypical'
p54
S'JJ'
p55
S'I-NP'
p56
g5
tp57
a(S'antipsychotic'
p58
S'antipsychotic'
p59
S'JJ'
p60
S'I-NP'
p61
g5
tp62
a(S'agents'
p63
S'agent'
p64
S'NNS'
p65
S'I-NP'
p66
g5
tp67
a(S','
p68
g68
g68
g5
g5
tp69
a(S'which'
p70
S'which'
p71
S'WDT'
p72
S'B-NP'
p73
g5
tp74
a(S'block'
p75
S'block'
p76
S'VBP'
p77
S'B-VP'
p78
g5
tp79
a(S'postsynaptic'
p80
S'postsynaptic'
p81
S'JJ'
p82
S'B-NP'
p83
g5
tp84
a(S'dopamine'
p85
S'dopamine'
p86
S'NN'
p87
S'I-NP'
p88
g5
tp89
a(S'and'
p90
S'and'
p91
S'CC'
p92
S'I-NP'
p93
g5
tp94
a(S'serotonin'
p95
S'serotonin'
p96
S'NN'
p97
S'I-NP'
p98
S'B-protein'
p99
tp100
a(S'receptors'
p101
S'receptor'
p102
S'NNS'
p103
S'I-NP'
p104
S'I-protein'
p105
tp106
a(g68
g68
g68
g5
g5
tp107
a(S'have'
p108
S'have'
p109
S'VBP'
p110
S'B-VP'
p111
g5
tp112
a(S'advantages'
p113
S'advantage'
p114
S'NNS'
p115
S'B-NP'
p116
g5
tp117
a(S'over'
p118
S'over'
p119
S'IN'
p120
S'B-PP'
p121
g5
tp122
a(S'traditional'
p123
S'traditional'
p124
S'JJ'
p125
S'B-NP'
p126
g5
tp127
a(S'antipsychotic'
p128
S'antipsychotic'
p129
S'JJ'
p130
S'I-NP'
p131
g5
tp132
a(S'medications'
p133
S'medication'
p134
S'NNS'
p135
S'I-NP'
p136
g5
tp137
a(S'in'
p138
S'in'
p139
S'IN'
p140
S'B-PP'
p141
g5
tp142
a(S'the'
p143
S'the'
p144
S'DT'
p145
S'B-NP'
p146
g5
tp147
a(S'treatment'
p148
S'treatment'
p149
S'NN'
p150
S'I-NP'
p151
g5
tp152
a(S'of'
p153
S'of'
p154
S'IN'
p155
S'B-PP'
p156
g5
tp157
a(S'adults'
p158
S'adult'
p159
S'NNS'
p160
S'B-NP'
p161
g5
tp162
a(S'with'
p163
S'with'
p164
S'IN'
p165
S'B-PP'
p166
g5
tp167
a(S'schizophrenia'
p168
S'schizophrenia'
p169
S'NN'
p170
S'B-NP'
p171
g5
tp172
a(S'and'
p173
S'and'
p174
S'CC'
p175
g5
g5
tp176
a(S'may'
p177
S'may'
p178
S'MD'
p179
S'B-VP'
p180
g5
tp181
a(S'be'
p182
S'be'
p183
S'VB'
p184
S'I-VP'
p185
g5
tp186
a(S'beneficial'
p187
S'beneficial'
p188
S'JJ'
p189
S'B-ADJP'
p190
g5
tp191
a(S'in'
p192
S'in'
p193
S'IN'
p194
S'B-PP'
p195
g5
tp196
a(S'children'
p197
S'child'
p198
S'NNS'
p199
S'B-NP'
p200
g5
tp201
a(S'with'
p202
S'with'
p203
S'IN'
p204
S'B-PP'
p205
g5
tp206
a(S'autistic'
p207
S'autistic'
p208
S'JJ'
p209
S'B-NP'
p210
g5
tp211
a(S'disorder'
p212
S'disorder'
p213
S'NN'
p214
S'I-NP'
p215
g5
tp216
a(S'who'
p217
S'who'
p218
S'WP'
p219
S'B-NP'
p220
g5
tp221
a(S'have'
p222
S'have'
p223
S'VBP'
p224
S'B-VP'
p225
g5
tp226
a(S'serious'
p227
S'serious'
p228
S'JJ'
p229
S'B-NP'
p230
g5
tp231
a(S'behavioral'
p232
S'behavioral'
p233
S'JJ'
p234
S'I-NP'
p235
g5
tp236
a(S'disturbances.'
p237
S'disturbances.'
p238
S'NN'
p239
S'I-NP'
p240
g5
tp241
a(S'However'
p242
S'However'
p243
S'RB'
p244
S'B-ADVP'
p245
g5
tp246
a(g68
g68
g68
g5
g5
tp247
a(S'data'
p248
S'datum'
p249
S'NNS'
p250
S'B-NP'
p251
g5
tp252
a(S'on'
p253
S'on'
p254
S'IN'
p255
S'B-PP'
p256
g5
tp257
a(S'the'
p258
S'the'
p259
S'DT'
p260
S'B-NP'
p261
g5
tp262
a(S'safety'
p263
S'safety'
p264
S'NN'
p265
S'I-NP'
p266
g5
tp267
a(S'and'
p268
S'and'
p269
S'CC'
p270
S'I-NP'
p271
g5
tp272
a(S'efficacy'
p273
S'efficacy'
p274
S'NN'
p275
S'I-NP'
p276
g5
tp277
a(S'of'
p278
S'of'
p279
S'IN'
p280
S'B-PP'
p281
g5
tp282
a(S'atypical'
p283
S'atypical'
p284
S'JJ'
p285
S'B-NP'
p286
g5
tp287
a(S'antipsychotic'
p288
S'antipsychotic'
p289
S'JJ'
p290
S'I-NP'
p291
g5
tp292
a(S'agents'
p293
S'agent'
p294
S'NNS'
p295
S'I-NP'
p296
g5
tp297
a(S'in'
p298
S'in'
p299
S'IN'
p300
S'B-PP'
p301
g5
tp302
a(S'children'
p303
S'child'
p304
S'NNS'
p305
S'B-NP'
p306
g5
tp307
a(S'are'
p308
S'be'
p309
S'VBP'
p310
S'B-VP'
p311
g5
tp312
a(S'limited'
p313
S'limit'
p314
S'VBN'
p315
S'B-ADJP'
p316
g5
tp317
a(g46
g46
g46
g5
g5
tp318
a(S'METHODS'
p319
S'METHODS'
p320
S'NNS'
p321
S'B-NP'
p322
g5
tp323
a(S'We'
p324
S'We'
p325
S'PRP'
p326
S'B-NP'
p327
g5
tp328
a(S'conducted'
p329
S'conduct'
p330
S'VBD'
p331
S'B-VP'
p332
g5
tp333
a(S'a'
p334
g334
S'DT'
p335
S'B-NP'
p336
g5
tp337
a(S'multisite'
p338
S'multisite'
p339
S'JJ'
p340
S'I-NP'
p341
g5
tp342
a(g68
g68
g68
S'I-NP'
p343
g5
tp344
a(S'randomized'
p345
S'randomize'
p346
S'VBN'
p347
S'I-NP'
p348
g5
tp349
a(g68
g68
g68
S'I-NP'
p350
g5
tp351
a(S'double-blind'
p352
S'double-blind'
p353
S'JJ'
p354
S'I-NP'
p355
g5
tp356
a(S'trial'
p357
S'trial'
p358
S'NN'
p359
S'I-NP'
p360
g5
tp361
a(S'of'
p362
S'of'
p363
S'IN'
p364
S'B-PP'
p365
g5
tp366
a(S'risperidone'
p367
S'risperidone'
p368
S'NN'
p369
S'B-NP'
p370
g5
tp371
a(S'as'
p372
S'as'
p373
S'IN'
p374
S'B-PP'
p375
g5
tp376
a(S'compared'
p377
S'compare'
p378
S'VBN'
p379
S'B-PP'
p380
g5
tp381
a(S'with'
p382
S'with'
p383
S'IN'
p384
S'B-PP'
p385
g5
tp386
a(S'placebo'
p387
S'placebo'
p388
S'NN'
p389
S'B-NP'
p390
g5
tp391
a(S'for'
p392
S'for'
p393
S'IN'
p394
S'B-PP'
p395
g5
tp396
a(S'the'
p397
S'the'
p398
S'DT'
p399
S'B-NP'
p400
g5
tp401
a(S'treatment'
p402
S'treatment'
p403
S'NN'
p404
S'I-NP'
p405
g5
tp406
a(S'of'
p407
S'of'
p408
S'IN'
p409
S'B-PP'
p410
g5
tp411
a(S'autistic'
p412
S'autistic'
p413
S'JJ'
p414
S'B-NP'
p415
g5
tp416
a(S'disorder'
p417
S'disorder'
p418
S'NN'
p419
S'I-NP'
p420
g5
tp421
a(S'accompanied'
p422
S'accompany'
p423
S'VBN'
p424
S'B-VP'
p425
g5
tp426
a(S'by'
p427
S'by'
p428
S'IN'
p429
S'B-PP'
p430
g5
tp431
a(S'severe'
p432
S'severe'
p433
S'JJ'
p434
S'B-NP'
p435
g5
tp436
a(S'tantrums'
p437
S'tantrum'
p438
S'NNS'
p439
S'I-NP'
p440
g5
tp441
a(g68
g68
g68
g5
g5
tp442
a(S'aggression'
p443
S'aggression'
p444
S'NN'
p445
S'B-NP'
p446
g5
tp447
a(g68
g68
g68
g5
g5
tp448
a(S'or'
p449
S'or'
p450
S'CC'
p451
g5
g5
tp452
a(S'self-injurious'
p453
S'self-injurious'
p454
S'JJ'
p455
S'B-NP'
p456
g5
tp457
a(S'behavior'
p458
S'behavior'
p459
S'NN'
p460
S'I-NP'
p461
g5
tp462
a(S'in'
p463
S'in'
p464
S'IN'
p465
S'B-PP'
p466
g5
tp467
a(S'children'
p468
S'child'
p469
S'NNS'
p470
S'B-NP'
p471
g5
tp472
a(S'5'
p473
g473
S'CD'
p474
S'B-NP'
p475
g5
tp476
a(S'to'
p477
S'to'
p478
S'TO'
p479
S'I-NP'
p480
g5
tp481
a(S'17'
p482
S'17'
p483
S'CD'
p484
S'I-NP'
p485
g5
tp486
a(S'years'
p487
S'year'
p488
S'NNS'
p489
S'I-NP'
p490
g5
tp491
a(S'old.'
p492
S'old.'
p493
S'IN'
p494
S'B-PP'
p495
g5
tp496
a(S'The'
p497
S'The'
p498
S'DT'
p499
S'B-NP'
p500
g5
tp501
a(S'primary'
p502
S'primary'
p503
S'JJ'
p504
S'I-NP'
p505
g5
tp506
a(S'outcome'
p507
S'outcome'
p508
S'NN'
p509
S'I-NP'
p510
g5
tp511
a(S'measures'
p512
S'measure'
p513
S'NNS'
p514
S'I-NP'
p515
g5
tp516
a(S'were'
p517
S'be'
p518
S'VBD'
p519
S'B-VP'
p520
g5
tp521
a(S'the'
p522
S'the'
p523
S'DT'
p524
S'B-NP'
p525
g5
tp526
a(S'score'
p527
S'score'
p528
S'NN'
p529
S'I-NP'
p530
g5
tp531
a(S'on'
p532
S'on'
p533
S'IN'
p534
S'B-PP'
p535
g5
tp536
a(S'the'
p537
S'the'
p538
S'DT'
p539
S'B-NP'
p540
g5
tp541
a(S'Irritability'
p542
S'Irritability'
p543
S'NN'
p544
S'I-NP'
p545
g5
tp546
a(S'subscale'
p547
S'subscale'
p548
S'NN'
p549
S'I-NP'
p550
g5
tp551
a(S'of'
p552
S'of'
p553
S'IN'
p554
S'B-PP'
p555
g5
tp556
a(S'the'
p557
S'the'
p558
S'DT'
p559
S'B-NP'
p560
g5
tp561
a(S'Aberrant'
p562
S'Aberrant'
p563
S'NNP'
p564
S'I-NP'
p565
g5
tp566
a(S'Behavior'
p567
S'Behavior'
p568
S'NNP'
p569
S'I-NP'
p570
g5
tp571
a(S'Checklist'
p572
S'Checklist'
p573
S'NNP'
p574
S'I-NP'
p575
g5
tp576
a(S'and'
p577
S'and'
p578
S'CC'
p579
g5
g5
tp580
a(S'the'
p581
S'the'
p582
S'DT'
p583
S'B-NP'
p584
g5
tp585
a(S'rating'
p586
S'rating'
p587
S'NN'
p588
S'I-NP'
p589
g5
tp590
a(S'on'
p591
S'on'
p592
S'IN'
p593
S'B-PP'
p594
g5
tp595
a(S'the'
p596
S'the'
p597
S'DT'
p598
S'B-NP'
p599
g5
tp600
a(S'Clinical'
p601
S'Clinical'
p602
S'NNP'
p603
S'I-NP'
p604
g5
tp605
a(S'Global'
p606
S'Global'
p607
S'NNP'
p608
S'I-NP'
p609
g5
tp610
a(S'Impressions'
p611
S'Impressions'
p612
S'NNP'
p613
S'I-NP'
p614
g5
tp615
a(S'-'
p616
g616
S'HYPH'
p617
S'B-NP'
p618
g5
tp619
a(S'Improvement'
p620
S'Improvement'
p621
S'NN'
p622
S'I-NP'
p623
g5
tp624
a(S'('
p625
g625
g625
g5
g5
tp626
a(S'CGI-I'
p627
S'CGI-I'
p628
S'NN'
p629
S'B-NP'
p630
S'B-protein'
p631
tp632
a(S')'
p633
g633
g633
g5
g5
tp634
a(S'scale'
p635
S'scale'
p636
S'NN'
p637
S'B-NP'
p638
g5
tp639
a(S'at'
p640
S'at'
p641
S'IN'
p642
S'B-PP'
p643
g5
tp644
a(S'eight'
p645
S'eight'
p646
S'CD'
p647
S'B-NP'
p648
g5
tp649
a(S'weeks'
p650
S'week'
p651
S'NNS'
p652
S'I-NP'
p653
g5
tp654
a(g46
g46
g46
g5
g5
tp655
a(S'RESULTS'
p656
S'RESULTS'
p657
S'NNS'
p658
S'B-NP'
p659
g5
tp660
a(S'A'
p661
g661
S'DT'
p662
S'B-NP'
p663
g5
tp664
a(S'total'
p665
S'total'
p666
S'NN'
p667
S'I-NP'
p668
g5
tp669
a(S'of'
p670
S'of'
p671
S'IN'
p672
S'B-PP'
p673
g5
tp674
a(S'101'
p675
S'101'
p676
S'CD'
p677
S'B-NP'
p678
g5
tp679
a(S'children'
p680
S'child'
p681
S'NNS'
p682
S'I-NP'
p683
g5
tp684
a(g625
g625
g625
g5
g5
tp685
a(S'82'
p686
S'82'
p687
S'CD'
p688
S'B-NP'
p689
g5
tp690
a(S'boys'
p691
S'boy'
p692
S'NNS'
p693
S'I-NP'
p694
g5
tp695
a(S'and'
p696
S'and'
p697
S'CC'
p698
g5
g5
tp699
a(S'19'
p700
S'19'
p701
S'CD'
p702
S'B-NP'
p703
g5
tp704
a(S'girls'
p705
S'girl'
p706
S'NNS'
p707
S'I-NP'
p708
g5
tp709
a(S';'
p710
g710
S':'
p711
g5
g5
tp712
a(S'mean'
p713
S'mean'
p714
S'NN'
p715
S'B-NP'
p716
g5
tp717
a(S'['
p718
g718
g625
g5
g5
tp719
a(S'+/-SD'
p720
S'+/-SD'
p721
S'NN'
p722
S'B-NP'
p723
g5
tp724
a(S']'
p725
g725
g633
g5
g5
tp726
a(S'age'
p727
S'age'
p728
S'NN'
p729
S'B-NP'
p730
g5
tp731
a(g68
g68
g68
g5
g5
tp732
a(S'8.8+/-2.7'
p733
S'8.8+/-2.7'
p734
S'CD'
p735
S'B-NP'
p736
g5
tp737
a(S'years'
p738
S'year'
p739
S'NNS'
p740
S'I-NP'
p741
g5
tp742
a(g633
g633
g633
g5
g5
tp743
a(S'were'
p744
S'be'
p745
S'VBD'
p746
S'B-VP'
p747
g5
tp748
a(S'randomly'
p749
S'randomly'
p750
S'RB'
p751
S'I-VP'
p752
g5
tp753
a(S'assigned'
p754
S'assign'
p755
S'VBN'
p756
S'I-VP'
p757
g5
tp758
a(S'to'
p759
S'to'
p760
S'TO'
p761
S'I-VP'
p762
g5
tp763
a(S'receive'
p764
S'receive'
p765
S'VB'
p766
S'I-VP'
p767
g5
tp768
a(S'risperidone'
p769
S'risperidone'
p770
S'NN'
p771
S'B-NP'
p772
g5
tp773
a(g625
g625
g625
g5
g5
tp774
a(S'49'
p775
S'49'
p776
S'CD'
p777
S'B-NP'
p778
g5
tp779
a(S'children'
p780
S'child'
p781
S'NNS'
p782
S'I-NP'
p783
g5
tp784
a(g633
g633
g633
g5
g5
tp785
a(S'or'
p786
S'or'
p787
S'CC'
p788
g5
g5
tp789
a(S'placebo'
p790
S'placebo'
p791
S'NN'
p792
S'B-NP'
p793
g5
tp794
a(g625
g625
g625
g5
g5
tp795
a(S'52'
p796
S'52'
p797
S'CD'
p798
S'B-NP'
p799
g5
tp800
a(g633
g633
g633
g5
g5
tp801
a(g46
g46
g46
g5
g5
tp802
a(S'Treatment'
p803
S'Treatment'
p804
S'NN'
p805
S'B-NP'
p806
g5
tp807
a(S'with'
p808
S'with'
p809
S'IN'
p810
S'B-PP'
p811
g5
tp812
a(S'risperidone'
p813
S'risperidone'
p814
S'NN'
p815
S'B-NP'
p816
g5
tp817
a(S'for'
p818
S'for'
p819
S'IN'
p820
S'B-PP'
p821
g5
tp822
a(S'eight'
p823
S'eight'
p824
S'CD'
p825
S'B-NP'
p826
g5
tp827
a(S'weeks'
p828
S'week'
p829
S'NNS'
p830
S'I-NP'
p831
g5
tp832
a(g625
g625
g625
g5
g5
tp833
a(S'dose'
p834
S'dose'
p835
S'NN'
p836
S'B-NP'
p837
g5
tp838
a(S'range'
p839
S'range'
p840
S'NN'
p841
S'I-NP'
p842
g5
tp843
a(g68
g68
g68
g5
g5
tp844
a(S'0.5'
p845
S'0.5'
p846
S'CD'
p847
S'B-NP'
p848
g5
tp849
a(S'to'
p850
S'to'
p851
S'TO'
p852
S'I-NP'
p853
g5
tp854
a(S'3.5'
p855
S'3.5'
p856
S'CD'
p857
S'I-NP'
p858
g5
tp859
a(S'mg'
p860
S'mg'
p861
S'NN'
p862
S'I-NP'
p863
g5
tp864
a(S'per'
p865
S'per'
p866
S'IN'
p867
S'B-PP'
p868
g5
tp869
a(S'day'
p870
S'day'
p871
S'NN'
p872
S'B-NP'
p873
g5
tp874
a(g633
g633
g633
g5
g5
tp875
a(S'resulted'
p876
S'result'
p877
S'VBD'
p878
S'B-VP'
p879
g5
tp880
a(S'in'
p881
S'in'
p882
S'IN'
p883
S'B-PP'
p884
g5
tp885
a(g334
g334
S'DT'
p886
S'B-NP'
p887
g5
tp888
a(S'56.9'
p889
S'56.9'
p890
S'CD'
p891
S'I-NP'
p892
g5
tp893
a(S'percent'
p894
S'percent'
p895
S'NN'
p896
S'I-NP'
p897
g5
tp898
a(S'reduction'
p899
S'reduction'
p900
S'NN'
p901
S'I-NP'
p902
g5
tp903
a(S'in'
p904
S'in'
p905
S'IN'
p906
S'B-PP'
p907
g5
tp908
a(S'the'
p909
S'the'
p910
S'DT'
p911
S'B-NP'
p912
g5
tp913
a(S'Irritability'
p914
S'Irritability'
p915
S'NN'
p916
S'I-NP'
p917
S'B-DNA'
p918
tp919
a(S'score'
p920
S'score'
p921
S'NN'
p922
S'I-NP'
p923
S'I-DNA'
p924
tp925
a(g68
g68
g68
g5
g5
tp926
a(S'as'
p927
S'as'
p928
S'IN'
p929
S'B-SBAR'
p930
g5
tp931
a(S'compared'
p932
S'compare'
p933
S'VBN'
p934
S'B-PP'
p935
g5
tp936
a(S'with'
p937
S'with'
p938
S'IN'
p939
S'B-PP'
p940
g5
tp941
a(g334
g334
S'DT'
p942
S'B-NP'
p943
g5
tp944
a(S'14.1'
p945
S'14.1'
p946
S'CD'
p947
S'I-NP'
p948
g5
tp949
a(S'percent'
p950
S'percent'
p951
S'NN'
p952
S'I-NP'
p953
g5
tp954
a(S'decrease'
p955
S'decrease'
p956
S'NN'
p957
S'I-NP'
p958
g5
tp959
a(S'in'
p960
S'in'
p961
S'IN'
p962
S'B-PP'
p963
g5
tp964
a(S'the'
p965
S'the'
p966
S'DT'
p967
S'B-NP'
p968
g5
tp969
a(S'placebo'
p970
S'placebo'
p971
S'NN'
p972
S'I-NP'
p973
g5
tp974
a(S'group'
p975
S'group'
p976
S'NN'
p977
S'I-NP'
p978
g5
tp979
a(g625
g625
g625
g5
g5
tp980
a(S'P'
p981
g981
S'NN'
p982
S'B-NP'
p983
g5
tp984
a(S'<'
p985
g985
S'SYM'
p986
g5
g5
tp987
a(S'0.001'
p988
S'0.001'
p989
S'CD'
p990
S'B-NP'
p991
g5
tp992
a(g633
g633
g633
g5
g5
tp993
a(g46
g46
g46
g5
g5
tp994
a(S'The'
p995
S'The'
p996
S'DT'
p997
S'B-NP'
p998
g5
tp999
a(S'rate'
p1000
S'rate'
p1001
S'NN'
p1002
S'I-NP'
p1003
g5
tp1004
a(S'of'
p1005
S'of'
p1006
S'IN'
p1007
S'B-PP'
p1008
g5
tp1009
a(g334
g334
S'DT'
p1010
S'B-NP'
p1011
g5
tp1012
a(S'positive'
p1013
S'positive'
p1014
S'JJ'
p1015
S'I-NP'
p1016
g5
tp1017
a(S'response'
p1018
S'response'
p1019
S'NN'
p1020
S'I-NP'
p1021
g5
tp1022
a(g68
g68
g68
g5
g5
tp1023
a(S'defined'
p1024
S'define'
p1025
S'VBN'
p1026
S'B-VP'
p1027
g5
tp1028
a(S'as'
p1029
S'as'
p1030
S'IN'
p1031
S'B-PP'
p1032
g5
tp1033
a(S'at'
p1034
S'at'
p1035
S'IN'
p1036
S'B-ADVP'
p1037
g5
tp1038
a(S'least'
p1039
S'least'
p1040
S'JJS'
p1041
S'I-ADVP'
p1042
g5
tp1043
a(g334
g334
S'DT'
p1044
S'B-NP'
p1045
g5
tp1046
a(S'25'
p1047
S'25'
p1048
S'CD'
p1049
S'I-NP'
p1050
g5
tp1051
a(S'percent'
p1052
S'percent'
p1053
S'NN'
p1054
S'I-NP'
p1055
g5
tp1056
a(S'decrease'
p1057
S'decrease'
p1058
S'NN'
p1059
S'I-NP'
p1060
g5
tp1061
a(S'in'
p1062
S'in'
p1063
S'IN'
p1064
S'B-PP'
p1065
g5
tp1066
a(S'the'
p1067
S'the'
p1068
S'DT'
p1069
S'B-NP'
p1070
g5
tp1071
a(S'Irritability'
p1072
S'Irritability'
p1073
S'NN'
p1074
S'I-NP'
p1075
g5
tp1076
a(S'score'
p1077
S'score'
p1078
S'NN'
p1079
S'I-NP'
p1080
g5
tp1081
a(S'and'
p1082
S'and'
p1083
S'CC'
p1084
g5
g5
tp1085
a(g334
g334
S'DT'
p1086
S'B-NP'
p1087
g5
tp1088
a(S'rating'
p1089
S'rating'
p1090
S'NN'
p1091
S'I-NP'
p1092
g5
tp1093
a(S'of'
p1094
S'of'
p1095
S'IN'
p1096
S'B-PP'
p1097
g5
tp1098
a(S'much'
p1099
S'much'
p1100
S'JJ'
p1101
S'B-NP'
p1102
g5
tp1103
a(S'improved'
p1104
S'improve'
p1105
S'VBN'
p1106
S'I-NP'
p1107
g5
tp1108
a(S'or'
p1109
S'or'
p1110
S'CC'
p1111
S'I-NP'
p1112
g5
tp1113
a(S'very'
p1114
S'very'
p1115
S'RB'
p1116
S'I-NP'
p1117
g5
tp1118
a(S'much'
p1119
S'much'
p1120
S'RB'
p1121
S'I-NP'
p1122
g5
tp1123
a(S'improved'
p1124
S'improve'
p1125
S'VBN'
p1126
S'I-NP'
p1127
g5
tp1128
a(S'on'
p1129
S'on'
p1130
S'IN'
p1131
S'B-PP'
p1132
g5
tp1133
a(S'the'
p1134
S'the'
p1135
S'DT'
p1136
S'B-NP'
p1137
g5
tp1138
a(S'CGI-I'
p1139
S'CGI-I'
p1140
S'NN'
p1141
S'I-NP'
p1142
g5
tp1143
a(S'scale'
p1144
S'scale'
p1145
S'NN'
p1146
S'I-NP'
p1147
g5
tp1148
a(g68
g68
g68
g5
g5
tp1149
a(S'was'
p1150
S'be'
p1151
S'VBD'
p1152
S'B-VP'
p1153
g5
tp1154
a(S'69'
p1155
S'69'
p1156
S'CD'
p1157
S'B-NP'
p1158
g5
tp1159
a(S'percent'
p1160
S'percent'
p1161
S'NN'
p1162
S'I-NP'
p1163
g5
tp1164
a(S'in'
p1165
S'in'
p1166
S'IN'
p1167
S'B-PP'
p1168
g5
tp1169
a(S'the'
p1170
S'the'
p1171
S'DT'
p1172
S'B-NP'
p1173
g5
tp1174
a(S'risperidone'
p1175
S'risperidone'
p1176
S'NN'
p1177
S'I-NP'
p1178
g5
tp1179
a(S'group'
p1180
S'group'
p1181
S'NN'
p1182
S'I-NP'
p1183
g5
tp1184
a(g625
g625
g625
g5
g5
tp1185
a(S'34'
p1186
S'34'
p1187
S'CD'
p1188
S'B-NP'
p1189
g5
tp1190
a(S'of'
p1191
S'of'
p1192
S'IN'
p1193
S'B-PP'
p1194
g5
tp1195
a(S'49'
p1196
S'49'
p1197
S'CD'
p1198
S'B-NP'
p1199
g5
tp1200
a(S'children'
p1201
S'child'
p1202
S'NNS'
p1203
S'I-NP'
p1204
g5
tp1205
a(S'had'
p1206
S'have'
p1207
S'VBD'
p1208
S'B-VP'
p1209
g5
tp1210
a(g334
g334
S'DT'
p1211
S'B-NP'
p1212
g5
tp1213
a(S'positive'
p1214
S'positive'
p1215
S'JJ'
p1216
S'I-NP'
p1217
g5
tp1218
a(S'response'
p1219
S'response'
p1220
S'NN'
p1221
S'I-NP'
p1222
g5
tp1223
a(g633
g633
g633
g5
g5
tp1224
a(S'and'
p1225
S'and'
p1226
S'CC'
p1227
g5
g5
tp1228
a(S'12'
p1229
S'12'
p1230
S'CD'
p1231
S'B-NP'
p1232
g5
tp1233
a(S'percent'
p1234
S'percent'
p1235
S'NN'
p1236
S'I-NP'
p1237
g5
tp1238
a(S'in'
p1239
S'in'
p1240
S'IN'
p1241
S'B-PP'
p1242
g5
tp1243
a(S'the'
p1244
S'the'
p1245
S'DT'
p1246
S'B-NP'
p1247
g5
tp1248
a(S'placebo'
p1249
S'placebo'
p1250
S'NN'
p1251
S'I-NP'
p1252
g5
tp1253
a(S'group'
p1254
S'group'
p1255
S'NN'
p1256
S'I-NP'
p1257
g5
tp1258
a(g625
g625
g625
g5
g5
tp1259
a(S'6'
p1260
g1260
S'CD'
p1261
S'B-NP'
p1262
g5
tp1263
a(S'of'
p1264
S'of'
p1265
S'IN'
p1266
S'B-PP'
p1267
g5
tp1268
a(S'52'
p1269
S'52'
p1270
S'CD'
p1271
S'B-NP'
p1272
g5
tp1273
a(g68
g68
g68
g5
g5
tp1274
a(g981
g981
S'NN'
p1275
S'B-NP'
p1276
g5
tp1277
a(g985
g985
S'SYM'
p1278
S'B-NP'
p1279
g5
tp1280
a(S'0.001'
p1281
S'0.001'
p1282
S'CD'
p1283
S'I-NP'
p1284
g5
tp1285
a(g633
g633
g633
g5
g5
tp1286
a(g46
g46
g46
g5
g5
tp1287
a(S'Risperidone'
p1288
S'Risperidone'
p1289
S'NN'
p1290
S'B-NP'
p1291
g5
tp1292
a(S'therapy'
p1293
S'therapy'
p1294
S'NN'
p1295
S'I-NP'
p1296
g5
tp1297
a(S'was'
p1298
S'be'
p1299
S'VBD'
p1300
S'B-VP'
p1301
g5
tp1302
a(S'associated'
p1303
S'associate'
p1304
S'VBN'
p1305
S'I-VP'
p1306
g5
tp1307
a(S'with'
p1308
S'with'
p1309
S'IN'
p1310
S'B-PP'
p1311
g5
tp1312
a(S'an'
p1313
S'an'
p1314
S'DT'
p1315
S'B-NP'
p1316
g5
tp1317
a(S'average'
p1318
S'average'
p1319
S'JJ'
p1320
S'I-NP'
p1321
g5
tp1322
a(S'weight'
p1323
S'weight'
p1324
S'NN'
p1325
S'I-NP'
p1326
g5
tp1327
a(S'gain'
p1328
S'gain'
p1329
S'NN'
p1330
S'I-NP'
p1331
g5
tp1332
a(S'of'
p1333
S'of'
p1334
S'IN'
p1335
S'B-PP'
p1336
g5
tp1337
a(S'2.7+/-2.9'
p1338
S'2.7+/-2.9'
p1339
S'CD'
p1340
S'B-NP'
p1341
g5
tp1342
a(S'kg'
p1343
S'kg'
p1344
S'NN'
p1345
S'I-NP'
p1346
g5
tp1347
a(g68
g68
g68
g5
g5
tp1348
a(S'as'
p1349
S'as'
p1350
S'IN'
p1351
S'B-SBAR'
p1352
g5
tp1353
a(S'compared'
p1354
S'compare'
p1355
S'VBN'
p1356
S'B-PP'
p1357
g5
tp1358
a(S'with'
p1359
S'with'
p1360
S'IN'
p1361
S'B-PP'
p1362
g5
tp1363
a(S'0.8+/-2.2'
p1364
S'0.8+/-2.2'
p1365
S'CD'
p1366
S'B-NP'
p1367
g5
tp1368
a(S'kg'
p1369
S'kg'
p1370
S'NN'
p1371
S'I-NP'
p1372
g5
tp1373
a(S'with'
p1374
S'with'
p1375
S'IN'
p1376
S'B-PP'
p1377
g5
tp1378
a(S'placebo'
p1379
S'placebo'
p1380
S'NN'
p1381
S'B-NP'
p1382
g5
tp1383
a(g625
g625
g625
g5
g5
tp1384
a(g981
g981
S'NN'
p1385
S'B-NP'
p1386
g5
tp1387
a(g985
g985
S'SYM'
p1388
g5
g5
tp1389
a(S'0.001'
p1390
S'0.001'
p1391
S'CD'
p1392
S'B-NP'
p1393
g5
tp1394
a(g633
g633
g633
g5
g5
tp1395
a(g46
g46
g46
g5
g5
tp1396
a(S'Increased'
p1397
S'Increase'
p1398
S'VBN'
p1399
S'B-NP'
p1400
g5
tp1401
a(S'appetite'
p1402
S'appetite'
p1403
S'NN'
p1404
S'I-NP'
p1405
g5
tp1406
a(g68
g68
g68
g5
g5
tp1407
a(S'fatigue'
p1408
S'fatigue'
p1409
S'NN'
p1410
S'B-NP'
p1411
g5
tp1412
a(g68
g68
g68
g5
g5
tp1413
a(S'drowsiness'
p1414
S'drowsiness'
p1415
S'NN'
p1416
S'B-NP'
p1417
g5
tp1418
a(g68
g68
g68
g5
g5
tp1419
a(S'dizziness'
p1420
S'dizziness'
p1421
S'NN'
p1422
S'B-NP'
p1423
g5
tp1424
a(g68
g68
g68
g5
g5
tp1425
a(S'and'
p1426
S'and'
p1427
S'CC'
p1428
g5
g5
tp1429
a(S'drooling'
p1430
S'drool'
p1431
S'VBG'
p1432
S'B-VP'
p1433
g5
tp1434
a(S'were'
p1435
S'be'
p1436
S'VBD'
p1437
S'B-VP'
p1438
g5
tp1439
a(S'more'
p1440
S'more'
p1441
S'RBR'
p1442
S'B-ADJP'
p1443
g5
tp1444
a(S'common'
p1445
S'common'
p1446
S'JJ'
p1447
S'I-ADJP'
p1448
g5
tp1449
a(S'in'
p1450
S'in'
p1451
S'IN'
p1452
S'B-PP'
p1453
g5
tp1454
a(S'the'
p1455
S'the'
p1456
S'DT'
p1457
S'B-NP'
p1458
g5
tp1459
a(S'risperidone'
p1460
S'risperidone'
p1461
S'NN'
p1462
S'I-NP'
p1463
g5
tp1464
a(S'group'
p1465
S'group'
p1466
S'NN'
p1467
S'I-NP'
p1468
g5
tp1469
a(S'than'
p1470
S'than'
p1471
S'IN'
p1472
S'B-PP'
p1473
g5
tp1474
a(S'in'
p1475
S'in'
p1476
S'IN'
p1477
S'B-PP'
p1478
g5
tp1479
a(S'the'
p1480
S'the'
p1481
S'DT'
p1482
S'B-NP'
p1483
g5
tp1484
a(S'placebo'
p1485
S'placebo'
p1486
S'NN'
p1487
S'I-NP'
p1488
g5
tp1489
a(S'group'
p1490
S'group'
p1491
S'NN'
p1492
S'I-NP'
p1493
g5
tp1494
a(g625
g625
g625
g5
g5
tp1495
a(g981
g981
S'NN'
p1496
S'B-NP'
p1497
g5
tp1498
a(g985
g985
S'JJR'
p1499
S'B-NP'
p1500
g5
tp1501
a(S'0.05'
p1502
S'0.05'
p1503
S'CD'
p1504
S'I-NP'
p1505
g5
tp1506
a(S'for'
p1507
S'for'
p1508
S'IN'
p1509
S'B-PP'
p1510
g5
tp1511
a(S'each'
p1512
S'each'
p1513
S'DT'
p1514
S'B-NP'
p1515
g5
tp1516
a(S'comparison'
p1517
S'comparison'
p1518
S'NN'
p1519
S'I-NP'
p1520
g5
tp1521
a(g633
g633
g633
g5
g5
tp1522
a(g46
g46
g46
g5
g5
tp1523
a(S'In'
p1524
S'In'
p1525
S'IN'
p1526
S'B-PP'
p1527
g5
tp1528
a(S'two'
p1529
S'two'
p1530
S'CD'
p1531
S'B-NP'
p1532
g5
tp1533
a(S'thirds'
p1534
S'third'
p1535
S'NNS'
p1536
S'I-NP'
p1537
g5
tp1538
a(S'of'
p1539
S'of'
p1540
S'IN'
p1541
S'B-PP'
p1542
g5
tp1543
a(S'the'
p1544
S'the'
p1545
S'DT'
p1546
S'B-NP'
p1547
g5
tp1548
a(S'children'
p1549
S'child'
p1550
S'NNS'
p1551
S'I-NP'
p1552
g5
tp1553
a(S'with'
p1554
S'with'
p1555
S'IN'
p1556
S'B-PP'
p1557
g5
tp1558
a(g334
g334
S'DT'
p1559
S'B-NP'
p1560
g5
tp1561
a(S'positive'
p1562
S'positive'
p1563
S'JJ'
p1564
S'I-NP'
p1565
g5
tp1566
a(S'response'
p1567
S'response'
p1568
S'NN'
p1569
S'I-NP'
p1570
g5
tp1571
a(S'to'
p1572
S'to'
p1573
S'TO'
p1574
S'B-PP'
p1575
g5
tp1576
a(S'risperidone'
p1577
S'risperidone'
p1578
S'NN'
p1579
S'B-NP'
p1580
g5
tp1581
a(S'at'
p1582
S'at'
p1583
S'IN'
p1584
S'B-PP'
p1585
g5
tp1586
a(S'eight'
p1587
S'eight'
p1588
S'CD'
p1589
S'B-NP'
p1590
g5
tp1591
a(S'weeks'
p1592
S'week'
p1593
S'NNS'
p1594
S'I-NP'
p1595
g5
tp1596
a(g625
g625
g625
g5
g5
tp1597
a(S'23'
p1598
S'23'
p1599
S'CD'
p1600
S'B-NP'
p1601
g5
tp1602
a(S'of'
p1603
S'of'
p1604
S'IN'
p1605
S'B-PP'
p1606
g5
tp1607
a(S'34'
p1608
S'34'
p1609
S'CD'
p1610
S'B-NP'
p1611
g5
tp1612
a(g633
g633
g633
g5
g5
tp1613
a(g68
g68
g68
g5
g5
tp1614
a(S'the'
p1615
S'the'
p1616
S'DT'
p1617
S'B-NP'
p1618
g5
tp1619
a(S'benefit'
p1620
S'benefit'
p1621
S'NN'
p1622
S'I-NP'
p1623
g5
tp1624
a(S'was'
p1625
S'be'
p1626
S'VBD'
p1627
S'B-VP'
p1628
g5
tp1629
a(S'maintained'
p1630
S'maintain'
p1631
S'VBN'
p1632
S'I-VP'
p1633
g5
tp1634
a(S'at'
p1635
S'at'
p1636
S'IN'
p1637
S'B-PP'
p1638
g5
tp1639
a(S'six'
p1640
S'six'
p1641
S'CD'
p1642
S'B-NP'
p1643
g5
tp1644
a(S'months'
p1645
S'month'
p1646
S'NNS'
p1647
S'I-NP'
p1648
g5
tp1649
a(g46
g46
g46
g5
g5
tp1650
a(S'CONCLUSIONS'
p1651
S'CONCLUSIONS'
p1652
S'NNS'
p1653
S'B-NP'
p1654
g5
tp1655
a(S'Risperidone'
p1656
S'Risperidone'
p1657
S'NN'
p1658
S'I-NP'
p1659
g5
tp1660
a(S'was'
p1661
S'be'
p1662
S'VBD'
p1663
S'B-VP'
p1664
g5
tp1665
a(S'effective'
p1666
S'effective'
p1667
S'JJ'
p1668
S'B-ADJP'
p1669
g5
tp1670
a(S'and'
p1671
S'and'
p1672
S'CC'
p1673
g5
g5
tp1674
a(S'well'
p1675
S'well'
p1676
S'RB'
p1677
S'B-ADJP'
p1678
g5
tp1679
a(S'tolerated'
p1680
S'tolerate'
p1681
S'VBN'
p1682
S'I-ADJP'
p1683
g5
tp1684
a(S'for'
p1685
S'for'
p1686
S'IN'
p1687
S'B-PP'
p1688
g5
tp1689
a(S'the'
p1690
S'the'
p1691
S'DT'
p1692
S'B-NP'
p1693
g5
tp1694
a(S'treatment'
p1695
S'treatment'
p1696
S'NN'
p1697
S'I-NP'
p1698
g5
tp1699
a(S'of'
p1700
S'of'
p1701
S'IN'
p1702
S'B-PP'
p1703
g5
tp1704
a(S'tantrums'
p1705
S'tantrum'
p1706
S'NNS'
p1707
S'B-NP'
p1708
g5
tp1709
a(g68
g68
g68
g5
g5
tp1710
a(S'aggression'
p1711
S'aggression'
p1712
S'NN'
p1713
S'B-NP'
p1714
g5
tp1715
a(g68
g68
g68
g5
g5
tp1716
a(S'or'
p1717
S'or'
p1718
S'CC'
p1719
g5
g5
tp1720
a(S'self-injurious'
p1721
S'self-injurious'
p1722
S'JJ'
p1723
S'B-NP'
p1724
g5
tp1725
a(S'behavior'
p1726
S'behavior'
p1727
S'NN'
p1728
S'I-NP'
p1729
g5
tp1730
a(S'in'
p1731
S'in'
p1732
S'IN'
p1733
S'B-PP'
p1734
g5
tp1735
a(S'children'
p1736
S'child'
p1737
S'NNS'
p1738
S'B-NP'
p1739
g5
tp1740
a(S'with'
p1741
S'with'
p1742
S'IN'
p1743
S'B-PP'
p1744
g5
tp1745
a(S'autistic'
p1746
S'autistic'
p1747
S'JJ'
p1748
S'B-NP'
p1749
g5
tp1750
a(S'disorder.'
p1751
S'disorder.'
p1752
S'NN'
p1753
S'I-NP'
p1754
g5
tp1755
a(S'The'
p1756
S'The'
p1757
S'DT'
p1758
S'B-NP'
p1759
g5
tp1760
a(S'short'
p1761
S'short'
p1762
S'JJ'
p1763
S'I-NP'
p1764
g5
tp1765
a(S'period'
p1766
S'period'
p1767
S'NN'
p1768
S'I-NP'
p1769
g5
tp1770
a(S'of'
p1771
S'of'
p1772
S'IN'
p1773
S'B-PP'
p1774
g5
tp1775
a(S'this'
p1776
S'this'
p1777
S'DT'
p1778
S'B-NP'
p1779
g5
tp1780
a(S'trial'
p1781
S'trial'
p1782
S'NN'
p1783
S'I-NP'
p1784
g5
tp1785
a(S'limits'
p1786
S'limit'
p1787
S'VBZ'
p1788
S'B-VP'
p1789
g5
tp1790
a(S'inferences'
p1791
S'inference'
p1792
S'NNS'
p1793
S'B-NP'
p1794
g5
tp1795
a(S'about'
p1796
S'about'
p1797
S'IN'
p1798
S'B-PP'
p1799
g5
tp1800
a(S'adverse'
p1801
S'adverse'
p1802
S'JJ'
p1803
S'B-NP'
p1804
g5
tp1805
a(S'effects'
p1806
S'effect'
p1807
S'NNS'
p1808
S'I-NP'
p1809
g5
tp1810
a(S'such'
p1811
S'such'
p1812
S'JJ'
p1813
S'B-PP'
p1814
g5
tp1815
a(S'as'
p1816
S'as'
p1817
S'IN'
p1818
S'I-PP'
p1819
g5
tp1820
a(S'tardive'
p1821
S'tardive'
p1822
S'JJ'
p1823
S'B-NP'
p1824
g5
tp1825
a(S'dyskinesia'
p1826
S'dyskinesia'
p1827
S'NN'
p1828
S'I-NP'
p1829
g5
tp1830
a(g46
g46
g46
g5
g5
tp1831
a.