(lp0
(S'A'
p1
g1
S'DT'
p2
S'B-NP'
p3
S'O'
p4
tp5
a(S'randomized'
p6
S'randomize'
p7
S'VBN'
p8
S'I-NP'
p9
g4
tp10
a(S'placebo-controlled'
p11
S'placebo-controlled'
p12
S'JJ'
p13
S'I-NP'
p14
g4
tp15
a(S'prevention'
p16
S'prevention'
p17
S'NN'
p18
S'I-NP'
p19
g4
tp20
a(S'trial'
p21
S'trial'
p22
S'NN'
p23
S'I-NP'
p24
g4
tp25
a(S'of'
p26
S'of'
p27
S'IN'
p28
S'B-PP'
p29
g4
tp30
a(S'aspirin'
p31
S'aspirin'
p32
S'NN'
p33
S'B-NP'
p34
g4
tp35
a(S'and/or'
p36
S'and/or'
p37
S'CC'
p38
g4
g4
tp39
a(S'resistant'
p40
S'resistant'
p41
S'JJ'
p42
S'B-NP'
p43
g4
tp44
a(S'starch'
p45
S'starch'
p46
S'NN'
p47
S'I-NP'
p48
g4
tp49
a(S'in'
p50
S'in'
p51
S'IN'
p52
S'B-PP'
p53
g4
tp54
a(S'young'
p55
S'young'
p56
S'JJ'
p57
S'B-NP'
p58
g4
tp59
a(S'people'
p60
S'people'
p61
S'NNS'
p62
S'I-NP'
p63
g4
tp64
a(S'with'
p65
S'with'
p66
S'IN'
p67
S'B-PP'
p68
g4
tp69
a(S'familial'
p70
S'familial'
p71
S'JJ'
p72
S'B-NP'
p73
g4
tp74
a(S'adenomatous'
p75
S'adenomatous'
p76
S'JJ'
p77
S'I-NP'
p78
g4
tp79
a(S'polyposis'
p80
S'polyposis'
p81
S'NN'
p82
S'I-NP'
p83
g4
tp84
a(S'.'
p85
g85
g85
g4
g4
tp86
a(S'Evidence'
p87
S'Evidence'
p88
S'NN'
p89
S'B-NP'
p90
g4
tp91
a(S'supporting'
p92
S'support'
p93
S'VBG'
p94
S'B-VP'
p95
g4
tp96
a(S'aspirin'
p97
S'aspirin'
p98
S'NN'
p99
S'B-NP'
p100
g4
tp101
a(S'and'
p102
S'and'
p103
S'CC'
p104
g4
g4
tp105
a(S'resistant'
p106
S'resistant'
p107
S'JJ'
p108
S'B-NP'
p109
g4
tp110
a(S'starch'
p111
S'starch'
p112
S'NN'
p113
S'I-NP'
p114
g4
tp115
a(S'('
p116
g116
g116
g4
g4
tp117
a(S'RS'
p118
S'RS'
p119
S'NN'
p120
S'B-NP'
p121
g4
tp122
a(S')'
p123
g123
g123
g4
g4
tp124
a(S'for'
p125
S'for'
p126
S'IN'
p127
S'B-PP'
p128
g4
tp129
a(S'colorectal'
p130
S'colorectal'
p131
S'JJ'
p132
S'B-NP'
p133
g4
tp134
a(S'cancer'
p135
S'cancer'
p136
S'NN'
p137
S'I-NP'
p138
g4
tp139
a(S'prevention'
p140
S'prevention'
p141
S'NN'
p142
S'I-NP'
p143
g4
tp144
a(S'comes'
p145
S'come'
p146
S'VBZ'
p147
S'B-VP'
p148
g4
tp149
a(S'from'
p150
S'from'
p151
S'IN'
p152
S'B-PP'
p153
g4
tp154
a(S'epidemiologic'
p155
S'epidemiologic'
p156
S'JJ'
p157
S'B-NP'
p158
g4
tp159
a(S'and'
p160
S'and'
p161
S'CC'
p162
S'I-NP'
p163
g4
tp164
a(S'laboratory'
p165
S'laboratory'
p166
S'JJ'
p167
S'I-NP'
p168
g4
tp169
a(S'studies'
p170
S'study'
p171
S'NNS'
p172
S'I-NP'
p173
g4
tp174
a(g116
g116
g116
g4
g4
tp175
a(S'aspirin'
p176
S'aspirin'
p177
S'NN'
p178
S'B-NP'
p179
g4
tp180
a(S'and'
p181
S'and'
p182
S'CC'
p183
g4
g4
tp184
a(S'RS'
p185
S'RS'
p186
S'NN'
p187
S'B-NP'
p188
S'B-protein'
p189
tp190
a(g123
g123
g123
g4
g4
tp191
a(S'and'
p192
S'and'
p193
S'CC'
p194
g4
g4
tp195
a(S'randomized'
p196
S'randomize'
p197
S'VBD'
p198
S'B-VP'
p199
g4
tp200
a(S'controlled'
p201
S'control'
p202
S'VBN'
p203
S'I-VP'
p204
g4
tp205
a(S'clinical'
p206
S'clinical'
p207
S'JJ'
p208
S'B-NP'
p209
g4
tp210
a(S'trials'
p211
S'trial'
p212
S'NNS'
p213
S'I-NP'
p214
g4
tp215
a(g116
g116
g116
g4
g4
tp216
a(S'aspirin'
p217
S'aspirin'
p218
S'NN'
p219
S'B-NP'
p220
g4
tp221
a(g123
g123
g123
g4
g4
tp222
a(g85
g85
g85
g4
g4
tp223
a(S'Familial'
p224
S'Familial'
p225
S'JJ'
p226
S'B-NP'
p227
g4
tp228
a(S'adenomatous'
p229
S'adenomatous'
p230
S'JJ'
p231
S'I-NP'
p232
g4
tp233
a(S'polyposis'
p234
S'polyposis'
p235
S'NN'
p236
S'I-NP'
p237
g4
tp238
a(g116
g116
g116
g4
g4
tp239
a(S'FAP'
p240
S'FAP'
p241
S'NN'
p242
S'B-NP'
p243
S'B-protein'
p244
tp245
a(g123
g123
g123
g4
g4
tp246
a(S'strikes'
p247
S'strike'
p248
S'VBZ'
p249
S'B-VP'
p250
g4
tp251
a(S'young'
p252
S'young'
p253
S'JJ'
p254
S'B-NP'
p255
g4
tp256
a(S'people'
p257
S'people'
p258
S'NNS'
p259
S'I-NP'
p260
g4
tp261
a(S'and'
p262
S'and'
p263
S'CC'
p264
g4
g4
tp265
a(S','
p266
g266
g266
g4
g4
tp267
a(S'untreated'
p268
S'untreated'
p269
S'JJ'
p270
S'B-ADJP'
p271
g4
tp272
a(g266
g266
g266
g4
g4
tp273
a(S'confers'
p274
S'confer'
p275
S'VBZ'
p276
S'B-VP'
p277
g4
tp278
a(S'virtually'
p279
S'virtually'
p280
S'RB'
p281
S'B-NP'
p282
g4
tp283
a(S'a'
p284
g284
S'DT'
p285
S'I-NP'
p286
g4
tp287
a(S'100'
p288
S'100'
p289
S'CD'
p290
S'I-NP'
p291
g4
tp292
a(S'%'
p293
g293
S'NN'
p294
S'I-NP'
p295
g4
tp296
a(S'risk'
p297
S'risk'
p298
S'NN'
p299
S'I-NP'
p300
g4
tp301
a(S'of'
p302
S'of'
p303
S'IN'
p304
S'B-PP'
p305
g4
tp306
a(S'colorectal'
p307
S'colorectal'
p308
S'JJ'
p309
S'B-NP'
p310
g4
tp311
a(S'cancer'
p312
S'cancer'
p313
S'NN'
p314
S'I-NP'
p315
g4
tp316
a(S'and'
p317
S'and'
p318
S'CC'
p319
g4
g4
tp320
a(S'early'
p321
S'early'
p322
S'JJ'
p323
S'B-NP'
p324
g4
tp325
a(S'death.'
p326
S'death.'
p327
S'NN'
p328
S'I-NP'
p329
g4
tp330
a(S'We'
p331
S'We'
p332
S'PRP'
p333
S'B-NP'
p334
g4
tp335
a(S'conducted'
p336
S'conduct'
p337
S'VBD'
p338
S'B-VP'
p339
g4
tp340
a(S'an'
p341
S'an'
p342
S'DT'
p343
S'B-NP'
p344
g4
tp345
a(S'international'
p346
S'international'
p347
S'JJ'
p348
S'I-NP'
p349
g4
tp350
a(g266
g266
g266
S'I-NP'
p351
g4
tp352
a(S'multicenter'
p353
S'multicenter'
p354
S'JJ'
p355
S'I-NP'
p356
g4
tp357
a(g266
g266
g266
S'I-NP'
p358
g4
tp359
a(S'randomized'
p360
S'randomize'
p361
S'VBN'
p362
S'I-NP'
p363
g4
tp364
a(g266
g266
g266
S'I-NP'
p365
g4
tp366
a(S'placebo-controlled'
p367
S'placebo-controlled'
p368
S'JJ'
p369
S'I-NP'
p370
g4
tp371
a(S'trial'
p372
S'trial'
p373
S'NN'
p374
S'I-NP'
p375
g4
tp376
a(S'of'
p377
S'of'
p378
S'IN'
p379
S'B-PP'
p380
g4
tp381
a(S'aspirin'
p382
S'aspirin'
p383
S'NN'
p384
S'B-NP'
p385
g4
tp386
a(g116
g116
g116
g4
g4
tp387
a(S'600'
p388
S'600'
p389
S'CD'
p390
S'B-NP'
p391
g4
tp392
a(S'mg/d'
p393
S'mg/d'
p394
S'NN'
p395
S'I-NP'
p396
g4
tp397
a(g123
g123
g123
g4
g4
tp398
a(S'and/or'
p399
S'and/or'
p400
S'CC'
p401
g4
g4
tp402
a(S'RS'
p403
S'RS'
p404
S'NN'
p405
S'B-NP'
p406
S'B-protein'
p407
tp408
a(g116
g116
g116
g4
g4
tp409
a(S'30'
p410
S'30'
p411
S'CD'
p412
S'B-NP'
p413
g4
tp414
a(S'g/d'
p415
S'g/d'
p416
S'NN'
p417
S'I-NP'
p418
g4
tp419
a(g123
g123
g123
g4
g4
tp420
a(S'for'
p421
S'for'
p422
S'IN'
p423
S'B-PP'
p424
g4
tp425
a(S'from'
p426
S'from'
p427
S'IN'
p428
S'B-PP'
p429
g4
tp430
a(S'1'
p431
g431
S'CD'
p432
S'B-NP'
p433
g4
tp434
a(S'to'
p435
S'to'
p436
S'TO'
p437
S'I-NP'
p438
g4
tp439
a(S'12'
p440
S'12'
p441
S'CD'
p442
S'I-NP'
p443
g4
tp444
a(S'years'
p445
S'year'
p446
S'NNS'
p447
S'I-NP'
p448
g4
tp449
a(S'to'
p450
S'to'
p451
S'TO'
p452
S'B-VP'
p453
g4
tp454
a(S'prevent'
p455
S'prevent'
p456
S'VB'
p457
S'I-VP'
p458
g4
tp459
a(S'disease'
p460
S'disease'
p461
S'NN'
p462
S'B-NP'
p463
g4
tp464
a(S'progression'
p465
S'progression'
p466
S'NN'
p467
S'I-NP'
p468
g4
tp469
a(S'in'
p470
S'in'
p471
S'IN'
p472
S'B-PP'
p473
g4
tp474
a(S'FAP'
p475
S'FAP'
p476
S'NN'
p477
S'B-NP'
p478
g4
tp479
a(S'patients'
p480
S'patient'
p481
S'NNS'
p482
S'I-NP'
p483
g4
tp484
a(S'from'
p485
S'from'
p486
S'IN'
p487
S'B-PP'
p488
g4
tp489
a(S'10'
p490
S'10'
p491
S'CD'
p492
S'B-NP'
p493
g4
tp494
a(S'to'
p495
S'to'
p496
S'TO'
p497
S'I-NP'
p498
g4
tp499
a(S'21'
p500
S'21'
p501
S'CD'
p502
S'I-NP'
p503
g4
tp504
a(S'years'
p505
S'year'
p506
S'NNS'
p507
S'I-NP'
p508
g4
tp509
a(S'of'
p510
S'of'
p511
S'IN'
p512
S'B-PP'
p513
g4
tp514
a(S'age.'
p515
S'age.'
p516
S'NN'
p517
S'B-NP'
p518
g4
tp519
a(S'In'
p520
S'In'
p521
S'IN'
p522
S'B-PP'
p523
g4
tp524
a(g284
g284
S'DT'
p525
S'B-NP'
p526
g4
tp527
a(S'2'
p528
g528
S'CD'
p529
S'I-NP'
p530
g4
tp531
a(S'\xc3\x97'
p532
S'\xc3\x97'
p533
S'NN'
p534
S'I-NP'
p535
g4
tp536
a(g528
g528
S'CD'
p537
S'B-NP'
p538
g4
tp539
a(S'factorial'
p540
S'factorial'
p541
S'JJ'
p542
S'I-NP'
p543
g4
tp544
a(S'design'
p545
S'design'
p546
S'NN'
p547
S'I-NP'
p548
g4
tp549
a(g266
g266
g266
g4
g4
tp550
a(S'patients'
p551
S'patient'
p552
S'NNS'
p553
S'B-NP'
p554
g4
tp555
a(S'were'
p556
S'be'
p557
S'VBD'
p558
S'B-VP'
p559
g4
tp560
a(S'randomly'
p561
S'randomly'
p562
S'RB'
p563
S'I-VP'
p564
g4
tp565
a(S'assigned'
p566
S'assign'
p567
S'VBN'
p568
S'I-VP'
p569
g4
tp570
a(S'to'
p571
S'to'
p572
S'TO'
p573
S'B-PP'
p574
g4
tp575
a(S'the'
p576
S'the'
p577
S'DT'
p578
S'B-NP'
p579
g4
tp580
a(S'following'
p581
S'follow'
p582
S'VBG'
p583
S'I-NP'
p584
g4
tp585
a(S'four'
p586
S'four'
p587
S'CD'
p588
S'I-NP'
p589
g4
tp590
a(S'study'
p591
S'study'
p592
S'NN'
p593
S'I-NP'
p594
g4
tp595
a(S'arms'
p596
S'arm'
p597
S'NNS'
p598
S'I-NP'
p599
g4
tp600
a(S':'
p601
g601
g601
g4
g4
tp602
a(S'aspirin'
p603
S'aspirin'
p604
S'NN'
p605
S'B-NP'
p606
g4
tp607
a(S'plus'
p608
S'plus'
p609
S'CC'
p610
g4
g4
tp611
a(S'RS'
p612
S'RS'
p613
S'NN'
p614
S'B-NP'
p615
g4
tp616
a(S'placebo'
p617
S'placebo'
p618
S'NN'
p619
S'I-NP'
p620
g4
tp621
a(S';'
p622
g622
g601
g4
g4
tp623
a(S'RS'
p624
S'RS'
p625
S'NN'
p626
S'B-NP'
p627
S'B-protein'
p628
tp629
a(S'plus'
p630
S'plus'
p631
S'CC'
p632
S'I-NP'
p633
g4
tp634
a(S'aspirin'
p635
S'aspirin'
p636
S'NN'
p637
S'I-NP'
p638
g4
tp639
a(S'placebo'
p640
S'placebo'
p641
S'NN'
p642
S'I-NP'
p643
g4
tp644
a(g622
g622
g601
g4
g4
tp645
a(S'aspirin'
p646
S'aspirin'
p647
S'NN'
p648
S'B-NP'
p649
g4
tp650
a(S'plus'
p651
S'plus'
p652
S'CC'
p653
S'I-NP'
p654
g4
tp655
a(S'RS'
p656
S'RS'
p657
S'NN'
p658
S'I-NP'
p659
S'B-protein'
p660
tp661
a(g622
g622
g601
g4
g4
tp662
a(S'RS'
p663
S'RS'
p664
S'NN'
p665
S'B-NP'
p666
g4
tp667
a(S'placebo'
p668
S'placebo'
p669
S'NN'
p670
S'I-NP'
p671
g4
tp672
a(S'plus'
p673
S'plus'
p674
S'CC'
p675
g4
g4
tp676
a(S'aspirin'
p677
S'aspirin'
p678
S'NN'
p679
S'B-NP'
p680
g4
tp681
a(S'placebo'
p682
S'placebo'
p683
S'NN'
p684
S'I-NP'
p685
g4
tp686
a(g622
g622
g601
g4
g4
tp687
a(S'they'
p688
S'they'
p689
S'PRP'
p690
S'B-NP'
p691
g4
tp692
a(S'were'
p693
S'be'
p694
S'VBD'
p695
S'B-VP'
p696
g4
tp697
a(S'followed'
p698
S'follow'
p699
S'VBN'
p700
S'I-VP'
p701
g4
tp702
a(S'with'
p703
S'with'
p704
S'IN'
p705
S'B-PP'
p706
g4
tp707
a(S'standard'
p708
S'standard'
p709
S'JJ'
p710
S'B-NP'
p711
g4
tp712
a(S'annual'
p713
S'annual'
p714
S'JJ'
p715
S'I-NP'
p716
g4
tp717
a(S'clinical'
p718
S'clinical'
p719
S'JJ'
p720
S'I-NP'
p721
g4
tp722
a(S'examinations'
p723
S'examination'
p724
S'NNS'
p725
S'I-NP'
p726
g4
tp727
a(S'including'
p728
S'include'
p729
S'VBG'
p730
S'B-PP'
p731
g4
tp732
a(S'endoscopy.'
p733
S'endoscopy.'
p734
S'NN'
p735
S'B-NP'
p736
g4
tp737
a(S'The'
p738
S'The'
p739
S'DT'
p740
S'B-NP'
p741
g4
tp742
a(S'primary'
p743
S'primary'
p744
S'JJ'
p745
S'I-NP'
p746
g4
tp747
a(S'endpoint'
p748
S'endpoint'
p749
S'NN'
p750
S'I-NP'
p751
g4
tp752
a(S'was'
p753
S'be'
p754
S'VBD'
p755
S'B-VP'
p756
g4
tp757
a(S'polyp'
p758
S'polyp'
p759
S'NN'
p760
S'B-NP'
p761
g4
tp762
a(S'number'
p763
S'number'
p764
S'NN'
p765
S'I-NP'
p766
g4
tp767
a(S'in'
p768
S'in'
p769
S'IN'
p770
S'B-PP'
p771
g4
tp772
a(S'the'
p773
S'the'
p774
S'DT'
p775
S'B-NP'
p776
g4
tp777
a(S'rectum'
p778
S'rectum'
p779
S'NN'
p780
S'I-NP'
p781
g4
tp782
a(S'and'
p783
S'and'
p784
S'CC'
p785
g4
g4
tp786
a(S'sigmoid'
p787
S'sigmoid'
p788
S'JJ'
p789
S'B-NP'
p790
g4
tp791
a(S'colon'
p792
S'colon'
p793
S'NN'
p794
S'I-NP'
p795
g4
tp796
a(g116
g116
g116
g4
g4
tp797
a(S'at'
p798
S'at'
p799
S'IN'
p800
S'B-PP'
p801
g4
tp802
a(S'the'
p803
S'the'
p804
S'DT'
p805
S'B-NP'
p806
g4
tp807
a(S'end'
p808
S'end'
p809
S'NN'
p810
S'I-NP'
p811
g4
tp812
a(S'of'
p813
S'of'
p814
S'IN'
p815
S'B-PP'
p816
g4
tp817
a(S'intervention'
p818
S'intervention'
p819
S'NN'
p820
S'B-NP'
p821
g4
tp822
a(g123
g123
g123
g4
g4
tp823
a(g266
g266
g266
g4
g4
tp824
a(S'and'
p825
S'and'
p826
S'CC'
p827
g4
g4
tp828
a(S'the'
p829
S'the'
p830
S'DT'
p831
S'B-NP'
p832
g4
tp833
a(S'major'
p834
S'major'
p835
S'JJ'
p836
S'I-NP'
p837
g4
tp838
a(S'secondary'
p839
S'secondary'
p840
S'JJ'
p841
S'I-NP'
p842
g4
tp843
a(S'endpoint'
p844
S'endpoint'
p845
S'NN'
p846
S'I-NP'
p847
g4
tp848
a(S'was'
p849
S'be'
p850
S'VBD'
p851
S'B-VP'
p852
g4
tp853
a(S'size'
p854
S'size'
p855
S'NN'
p856
S'B-NP'
p857
g4
tp858
a(S'of'
p859
S'of'
p860
S'IN'
p861
S'B-PP'
p862
g4
tp863
a(S'the'
p864
S'the'
p865
S'DT'
p866
S'B-NP'
p867
g4
tp868
a(S'largest'
p869
S'large'
p870
S'JJS'
p871
S'I-NP'
p872
g4
tp873
a(S'polyp.'
p874
S'polyp.'
p875
S'NN'
p876
S'I-NP'
p877
g4
tp878
a(g1
g1
S'NN'
p879
S'I-NP'
p880
g4
tp881
a(S'total'
p882
S'total'
p883
S'NN'
p884
S'I-NP'
p885
g4
tp886
a(S'of'
p887
S'of'
p888
S'IN'
p889
S'B-PP'
p890
g4
tp891
a(S'206'
p892
S'206'
p893
S'CD'
p894
S'B-NP'
p895
g4
tp896
a(S'randomized'
p897
S'randomize'
p898
S'VBN'
p899
S'I-NP'
p900
g4
tp901
a(S'FAP'
p902
S'FAP'
p903
S'NN'
p904
S'I-NP'
p905
g4
tp906
a(S'patients'
p907
S'patient'
p908
S'NNS'
p909
S'I-NP'
p910
g4
tp911
a(S'commenced'
p912
S'commence'
p913
S'VBD'
p914
S'B-VP'
p915
g4
tp916
a(S'intervention'
p917
S'intervention'
p918
S'NN'
p919
S'B-NP'
p920
g4
tp921
a(g266
g266
g266
g4
g4
tp922
a(S'of'
p923
S'of'
p924
S'IN'
p925
S'B-PP'
p926
g4
tp927
a(S'whom'
p928
S'whom'
p929
S'WP'
p930
S'B-NP'
p931
g4
tp932
a(S'133'
p933
S'133'
p934
S'CD'
p935
S'B-NP'
p936
g4
tp937
a(S'had'
p938
S'have'
p939
S'VBD'
p940
S'B-VP'
p941
g4
tp942
a(S'at'
p943
S'at'
p944
S'IN'
p945
S'B-NP'
p946
g4
tp947
a(S'least'
p948
S'least'
p949
S'JJS'
p950
S'I-NP'
p951
g4
tp952
a(S'one'
p953
S'one'
p954
S'CD'
p955
S'I-NP'
p956
g4
tp957
a(S'follow-up'
p958
S'follow-up'
p959
S'JJ'
p960
S'I-NP'
p961
g4
tp962
a(S'endoscopy'
p963
S'endoscopy'
p964
S'NN'
p965
S'I-NP'
p966
g4
tp967
a(S'and'
p968
S'and'
p969
S'CC'
p970
g4
g4
tp971
a(S'were'
p972
S'be'
p973
S'VBD'
p974
S'B-VP'
p975
g4
tp976
a(S'therefore'
p977
S'therefore'
p978
S'RB'
p979
S'I-VP'
p980
g4
tp981
a(S'included'
p982
S'include'
p983
S'VBN'
p984
S'I-VP'
p985
g4
tp986
a(S'in'
p987
S'in'
p988
S'IN'
p989
S'B-PP'
p990
g4
tp991
a(S'the'
p992
S'the'
p993
S'DT'
p994
S'B-NP'
p995
g4
tp996
a(S'primary'
p997
S'primary'
p998
S'JJ'
p999
S'I-NP'
p1000
g4
tp1001
a(S'analysis.'
p1002
S'analysis.'
p1003
S'NN'
p1004
S'I-NP'
p1005
g4
tp1006
a(S'Neither'
p1007
S'Neither'
p1008
S'CC'
p1009
g4
g4
tp1010
a(S'intervention'
p1011
S'intervention'
p1012
S'NN'
p1013
S'B-NP'
p1014
g4
tp1015
a(S'significantly'
p1016
S'significantly'
p1017
S'RB'
p1018
S'B-ADVP'
p1019
g4
tp1020
a(S'reduced'
p1021
S'reduce'
p1022
S'VBD'
p1023
S'B-VP'
p1024
g4
tp1025
a(S'polyp'
p1026
S'polyp'
p1027
S'NN'
p1028
S'B-NP'
p1029
g4
tp1030
a(S'count'
p1031
S'count'
p1032
S'NN'
p1033
S'I-NP'
p1034
g4
tp1035
a(S'in'
p1036
S'in'
p1037
S'IN'
p1038
S'B-PP'
p1039
g4
tp1040
a(S'the'
p1041
S'the'
p1042
S'DT'
p1043
S'B-NP'
p1044
g4
tp1045
a(S'rectum'
p1046
S'rectum'
p1047
S'NN'
p1048
S'I-NP'
p1049
g4
tp1050
a(S'and'
p1051
S'and'
p1052
S'CC'
p1053
g4
g4
tp1054
a(S'sigmoid'
p1055
S'sigmoid'
p1056
S'JJ'
p1057
S'B-NP'
p1058
g4
tp1059
a(S'colon'
p1060
S'colon'
p1061
S'NN'
p1062
S'I-NP'
p1063
g4
tp1064
a(g601
g601
g601
g4
g4
tp1065
a(S'aspirin'
p1066
S'aspirin'
p1067
S'NN'
p1068
S'B-NP'
p1069
g4
tp1070
a(S'relative'
p1071
S'relative'
p1072
S'JJ'
p1073
S'I-NP'
p1074
g4
tp1075
a(S'risk'
p1076
S'risk'
p1077
S'NN'
p1078
S'I-NP'
p1079
g4
tp1080
a(S'='
p1081
g1081
S'SYM'
p1082
g4
g4
tp1083
a(S'0.77'
p1084
S'0.77'
p1085
S'CD'
p1086
S'B-NP'
p1087
g4
tp1088
a(g116
g116
g116
g4
g4
tp1089
a(S'95'
p1090
S'95'
p1091
S'CD'
p1092
S'B-NP'
p1093
g4
tp1094
a(g293
g293
S'NN'
p1095
S'I-NP'
p1096
g4
tp1097
a(S'CI'
p1098
S'CI'
p1099
S'NN'
p1100
S'I-NP'
p1101
g4
tp1102
a(g266
g266
g266
g4
g4
tp1103
a(S'0.54-1.10'
p1104
S'0.54-1.10'
p1105
S'CD'
p1106
S'B-NP'
p1107
g4
tp1108
a(g622
g622
g601
g4
g4
tp1109
a(S'versus'
p1110
S'versus'
p1111
S'IN'
p1112
S'B-PP'
p1113
g4
tp1114
a(S'nonaspirin'
p1115
S'nonaspirin'
p1116
S'JJ'
p1117
S'B-NP'
p1118
g4
tp1119
a(S'arms'
p1120
S'arm'
p1121
S'NNS'
p1122
S'I-NP'
p1123
g4
tp1124
a(g123
g123
g123
g4
g4
tp1125
a(g622
g622
g601
g4
g4
tp1126
a(S'RS'
p1127
S'RS'
p1128
S'NN'
p1129
S'B-NP'
p1130
g4
tp1131
a(S'relative'
p1132
S'relative'
p1133
S'JJ'
p1134
S'I-NP'
p1135
g4
tp1136
a(S'risk'
p1137
S'risk'
p1138
S'NN'
p1139
S'I-NP'
p1140
g4
tp1141
a(g1081
g1081
S'SYM'
p1142
g4
g4
tp1143
a(S'1.05'
p1144
S'1.05'
p1145
S'CD'
p1146
S'B-NP'
p1147
g4
tp1148
a(g116
g116
g116
g4
g4
tp1149
a(S'95'
p1150
S'95'
p1151
S'CD'
p1152
S'B-NP'
p1153
g4
tp1154
a(g293
g293
S'NN'
p1155
S'I-NP'
p1156
g4
tp1157
a(S'CI'
p1158
S'CI'
p1159
S'NN'
p1160
S'I-NP'
p1161
g4
tp1162
a(g266
g266
g266
g4
g4
tp1163
a(S'0.73-1.49'
p1164
S'0.73-1.49'
p1165
S'CD'
p1166
S'B-NP'
p1167
g4
tp1168
a(g622
g622
g601
g4
g4
tp1169
a(S'versus'
p1170
S'versus'
p1171
S'IN'
p1172
S'B-PP'
p1173
g4
tp1174
a(S'non-RS'
p1175
S'non-RS'
p1176
S'JJ'
p1177
S'B-NP'
p1178
g4
tp1179
a(S'arms'
p1180
S'arm'
p1181
S'NNS'
p1182
S'I-NP'
p1183
g4
tp1184
a(g123
g123
g123
g4
g4
tp1185
a(g85
g85
g85
g4
g4
tp1186
a(S'There'
p1187
S'There'
p1188
S'EX'
p1189
S'B-NP'
p1190
g4
tp1191
a(S'was'
p1192
S'be'
p1193
S'VBD'
p1194
S'B-VP'
p1195
g4
tp1196
a(g284
g284
S'DT'
p1197
S'B-NP'
p1198
g4
tp1199
a(S'trend'
p1200
S'trend'
p1201
S'NN'
p1202
S'I-NP'
p1203
g4
tp1204
a(S'toward'
p1205
S'toward'
p1206
S'IN'
p1207
S'B-PP'
p1208
g4
tp1209
a(g284
g284
S'DT'
p1210
S'B-NP'
p1211
g4
tp1212
a(S'smaller'
p1213
S'small'
p1214
S'JJR'
p1215
S'I-NP'
p1216
g4
tp1217
a(S'size'
p1218
S'size'
p1219
S'NN'
p1220
S'I-NP'
p1221
g4
tp1222
a(S'of'
p1223
S'of'
p1224
S'IN'
p1225
S'B-PP'
p1226
g4
tp1227
a(S'largest'
p1228
S'large'
p1229
S'JJS'
p1230
S'B-NP'
p1231
g4
tp1232
a(S'polyp'
p1233
S'polyp'
p1234
S'NN'
p1235
S'I-NP'
p1236
g4
tp1237
a(S'in'
p1238
S'in'
p1239
S'IN'
p1240
S'B-PP'
p1241
g4
tp1242
a(S'patients'
p1243
S'patient'
p1244
S'NNS'
p1245
S'B-NP'
p1246
g4
tp1247
a(S'treated'
p1248
S'treat'
p1249
S'VBN'
p1250
S'B-VP'
p1251
g4
tp1252
a(S'with'
p1253
S'with'
p1254
S'IN'
p1255
S'B-PP'
p1256
g4
tp1257
a(S'aspirin'
p1258
S'aspirin'
p1259
S'NN'
p1260
S'B-NP'
p1261
g4
tp1262
a(S'versus'
p1263
S'versus'
p1264
S'CC'
p1265
S'I-NP'
p1266
g4
tp1267
a(S'nonaspirin'
p1268
S'nonaspirin'
p1269
S'NN'
p1270
S'I-NP'
p1271
g4
tp1272
a(S'--'
p1273
S'--'
p1274
g601
g4
g4
tp1275
a(S'mean'
p1276
S'mean'
p1277
S'NN'
p1278
S'B-NP'
p1279
g4
tp1280
a(S'3.8'
p1281
S'3.8'
p1282
S'CD'
p1283
S'B-NP'
p1284
g4
tp1285
a(S'mm'
p1286
S'mm'
p1287
S'NN'
p1288
S'I-NP'
p1289
g4
tp1290
a(S'versus'
p1291
S'versus'
p1292
S'IN'
p1293
S'B-PP'
p1294
g4
tp1295
a(S'5.5'
p1296
S'5.5'
p1297
S'CD'
p1298
S'B-NP'
p1299
g4
tp1300
a(S'mm'
p1301
S'mm'
p1302
S'NN'
p1303
S'I-NP'
p1304
g4
tp1305
a(S'for'
p1306
S'for'
p1307
S'IN'
p1308
S'B-PP'
p1309
g4
tp1310
a(S'patients'
p1311
S'patient'
p1312
S'NNS'
p1313
S'B-NP'
p1314
g4
tp1315
a(S'treated'
p1316
S'treat'
p1317
S'VBN'
p1318
S'B-VP'
p1319
g4
tp1320
a(g431
g431
S'CD'
p1321
S'B-NP'
p1322
g4
tp1323
a(S'or'
p1324
S'or'
p1325
S'CC'
p1326
S'I-NP'
p1327
g4
tp1328
a(S'more'
p1329
S'more'
p1330
S'JJR'
p1331
S'I-NP'
p1332
g4
tp1333
a(S'years'
p1334
S'year'
p1335
S'NNS'
p1336
S'I-NP'
p1337
g4
tp1338
a(g116
g116
g116
g4
g4
tp1339
a(S'adjusted'
p1340
S'adjust'
p1341
S'VBN'
p1342
S'B-NP'
p1343
g4
tp1344
a(S'P'
p1345
g1345
S'NN'
p1346
S'I-NP'
p1347
g4
tp1348
a(g1081
g1081
S'SYM'
p1349
S'B-VP'
p1350
g4
tp1351
a(S'0.09'
p1352
S'0.09'
p1353
S'CD'
p1354
S'B-NP'
p1355
g4
tp1356
a(g123
g123
g123
g4
g4
tp1357
a(S'and'
p1358
S'and'
p1359
S'CC'
p1360
g4
g4
tp1361
a(S'mean'
p1362
S'mean'
p1363
S'VB'
p1364
S'B-VP'
p1365
g4
tp1366
a(S'3.0'
p1367
S'3.0'
p1368
S'CD'
p1369
S'B-NP'
p1370
g4
tp1371
a(S'mm'
p1372
S'mm'
p1373
S'NN'
p1374
S'I-NP'
p1375
g4
tp1376
a(S'versus'
p1377
S'versus'
p1378
S'IN'
p1379
S'B-PP'
p1380
g4
tp1381
a(S'6.0'
p1382
S'6.0'
p1383
S'CD'
p1384
S'B-NP'
p1385
g4
tp1386
a(S'mm'
p1387
S'mm'
p1388
S'NN'
p1389
S'I-NP'
p1390
g4
tp1391
a(S'for'
p1392
S'for'
p1393
S'IN'
p1394
S'B-PP'
p1395
g4
tp1396
a(S'patients'
p1397
S'patient'
p1398
S'NNS'
p1399
S'B-NP'
p1400
g4
tp1401
a(S'treated'
p1402
S'treat'
p1403
S'VBN'
p1404
S'B-VP'
p1405
g4
tp1406
a(S'more'
p1407
S'more'
p1408
S'JJR'
p1409
S'B-NP'
p1410
g4
tp1411
a(S'than'
p1412
S'than'
p1413
S'IN'
p1414
S'I-NP'
p1415
g4
tp1416
a(g431
g431
S'CD'
p1417
S'I-NP'
p1418
g4
tp1419
a(S'year'
p1420
S'year'
p1421
S'NN'
p1422
S'I-NP'
p1423
g4
tp1424
a(g116
g116
g116
g4
g4
tp1425
a(g1345
g1345
S'NN'
p1426
S'B-NP'
p1427
g4
tp1428
a(g1081
g1081
S'SYM'
p1429
S'B-VP'
p1430
g4
tp1431
a(S'0.02'
p1432
S'0.02'
p1433
S'CD'
p1434
S'B-NP'
p1435
g4
tp1436
a(g123
g123
g123
g4
g4
tp1437
a(g622
g622
g601
g4
g4
tp1438
a(S'there'
p1439
S'there'
p1440
S'EX'
p1441
S'B-NP'
p1442
g4
tp1443
a(S'were'
p1444
S'be'
p1445
S'VBD'
p1446
S'B-VP'
p1447
g4
tp1448
a(S'similar'
p1449
S'similar'
p1450
S'JJ'
p1451
S'B-NP'
p1452
g4
tp1453
a(S'weaker'
p1454
S'weak'
p1455
S'JJR'
p1456
S'I-NP'
p1457
g4
tp1458
a(S'trends'
p1459
S'trend'
p1460
S'NNS'
p1461
S'I-NP'
p1462
g4
tp1463
a(S'with'
p1464
S'with'
p1465
S'IN'
p1466
S'B-PP'
p1467
g4
tp1468
a(S'RS'
p1469
S'RS'
p1470
S'NN'
p1471
S'B-NP'
p1472
S'B-protein'
p1473
tp1474
a(S'versus'
p1475
S'versus'
p1476
S'CC'
p1477
g4
g4
tp1478
a(S'non-RS.'
p1479
S'non-RS.'
p1480
S'JJ'
p1481
S'B-NP'
p1482
g4
tp1483
a(S'Exploratory'
p1484
S'Exploratory'
p1485
S'JJ'
p1486
S'I-NP'
p1487
g4
tp1488
a(S'translational'
p1489
S'translational'
p1490
S'JJ'
p1491
S'I-NP'
p1492
g4
tp1493
a(S'endpoints'
p1494
S'endpoint'
p1495
S'NNS'
p1496
S'I-NP'
p1497
g4
tp1498
a(S'included'
p1499
S'include'
p1500
S'VBD'
p1501
S'B-VP'
p1502
g4
tp1503
a(S'crypt'
p1504
S'crypt'
p1505
S'NN'
p1506
S'B-NP'
p1507
g4
tp1508
a(S'length'
p1509
S'length'
p1510
S'NN'
p1511
S'I-NP'
p1512
g4
tp1513
a(g116
g116
g116
g4
g4
tp1514
a(S'which'
p1515
S'which'
p1516
S'WDT'
p1517
S'B-NP'
p1518
g4
tp1519
a(S'was'
p1520
S'be'
p1521
S'VBD'
p1522
S'B-VP'
p1523
g4
tp1524
a(S'significantly'
p1525
S'significantly'
p1526
S'RB'
p1527
S'B-ADJP'
p1528
g4
tp1529
a(S'shorter'
p1530
S'short'
p1531
S'JJR'
p1532
S'I-ADJP'
p1533
g4
tp1534
a(S'in'
p1535
S'in'
p1536
S'IN'
p1537
S'B-PP'
p1538
g4
tp1539
a(S'normal-appearing'
p1540
S'normal-appearing'
p1541
S'JJ'
p1542
S'B-NP'
p1543
g4
tp1544
a(S'mucosa'
p1545
S'mucosa'
p1546
S'NN'
p1547
S'I-NP'
p1548
g4
tp1549
a(S'in'
p1550
S'in'
p1551
S'IN'
p1552
S'B-PP'
p1553
g4
tp1554
a(S'the'
p1555
S'the'
p1556
S'DT'
p1557
S'B-NP'
p1558
g4
tp1559
a(S'RS'
p1560
S'RS'
p1561
S'NN'
p1562
S'I-NP'
p1563
g4
tp1564
a(S'group'
p1565
S'group'
p1566
S'NN'
p1567
S'I-NP'
p1568
g4
tp1569
a(S'over'
p1570
S'over'
p1571
S'IN'
p1572
S'B-PP'
p1573
g4
tp1574
a(S'time'
p1575
S'time'
p1576
S'NN'
p1577
S'B-NP'
p1578
g4
tp1579
a(g123
g123
g123
g4
g4
tp1580
a(S'and'
p1581
S'and'
p1582
S'CC'
p1583
g4
g4
tp1584
a(S'laboratory'
p1585
S'laboratory'
p1586
S'NN'
p1587
S'B-NP'
p1588
g4
tp1589
a(S'measures'
p1590
S'measure'
p1591
S'NNS'
p1592
S'I-NP'
p1593
g4
tp1594
a(S'of'
p1595
S'of'
p1596
S'IN'
p1597
S'B-PP'
p1598
g4
tp1599
a(S'proliferation'
p1600
S'proliferation'
p1601
S'NN'
p1602
S'B-NP'
p1603
g4
tp1604
a(g116
g116
g116
g4
g4
tp1605
a(S'including'
p1606
S'include'
p1607
S'VBG'
p1608
S'B-PP'
p1609
g4
tp1610
a(S'Ki67'
p1611
S'Ki67'
p1612
S'NN'
p1613
S'B-NP'
p1614
S'B-protein'
p1615
tp1616
a(g123
g123
g123
g4
g4
tp1617
a(g85
g85
g85
g4
g4
tp1618
a(S'This'
p1619
S'This'
p1620
S'DT'
p1621
S'B-NP'
p1622
g4
tp1623
a(S'clinical'
p1624
S'clinical'
p1625
S'JJ'
p1626
S'I-NP'
p1627
g4
tp1628
a(S'trial'
p1629
S'trial'
p1630
S'NN'
p1631
S'I-NP'
p1632
g4
tp1633
a(S'is'
p1634
S'be'
p1635
S'VBZ'
p1636
S'B-VP'
p1637
g4
tp1638
a(S'the'
p1639
S'the'
p1640
S'DT'
p1641
S'B-NP'
p1642
g4
tp1643
a(S'largest'
p1644
S'large'
p1645
S'JJS'
p1646
S'I-NP'
p1647
g4
tp1648
a(S'ever'
p1649
S'ever'
p1650
S'RB'
p1651
S'B-VP'
p1652
g4
tp1653
a(S'conducted'
p1654
S'conduct'
p1655
S'VBN'
p1656
S'I-VP'
p1657
g4
tp1658
a(S'in'
p1659
S'in'
p1660
S'IN'
p1661
S'B-PP'
p1662
g4
tp1663
a(S'the'
p1664
S'the'
p1665
S'DT'
p1666
S'B-NP'
p1667
g4
tp1668
a(S'setting'
p1669
S'setting'
p1670
S'NN'
p1671
S'I-NP'
p1672
g4
tp1673
a(S'of'
p1674
S'of'
p1675
S'IN'
p1676
S'B-PP'
p1677
g4
tp1678
a(S'FAP'
p1679
S'FAP'
p1680
S'NN'
p1681
S'B-NP'
p1682
S'B-protein'
p1683
tp1684
a(S'and'
p1685
S'and'
p1686
S'CC'
p1687
g4
g4
tp1688
a(S'found'
p1689
S'find'
p1690
S'VBD'
p1691
S'B-VP'
p1692
g4
tp1693
a(g284
g284
S'DT'
p1694
S'B-NP'
p1695
g4
tp1696
a(S'trend'
p1697
S'trend'
p1698
S'NN'
p1699
S'I-NP'
p1700
g4
tp1701
a(S'of'
p1702
S'of'
p1703
S'IN'
p1704
S'B-PP'
p1705
g4
tp1706
a(S'reduced'
p1707
S'reduce'
p1708
S'VBN'
p1709
S'B-NP'
p1710
g4
tp1711
a(S'polyp'
p1712
S'polyp'
p1713
S'NN'
p1714
S'I-NP'
p1715
g4
tp1716
a(S'load'
p1717
S'load'
p1718
S'NN'
p1719
S'I-NP'
p1720
g4
tp1721
a(g116
g116
g116
g4
g4
tp1722
a(S'number'
p1723
S'number'
p1724
S'NN'
p1725
S'B-NP'
p1726
g4
tp1727
a(S'and'
p1728
S'and'
p1729
S'CC'
p1730
g4
g4
tp1731
a(S'size'
p1732
S'size'
p1733
S'NN'
p1734
S'B-NP'
p1735
g4
tp1736
a(g123
g123
g123
g4
g4
tp1737
a(S'with'
p1738
S'with'
p1739
S'IN'
p1740
S'B-PP'
p1741
g4
tp1742
a(S'600'
p1743
S'600'
p1744
S'CD'
p1745
S'B-NP'
p1746
g4
tp1747
a(S'mg'
p1748
S'mg'
p1749
S'NN'
p1750
S'I-NP'
p1751
g4
tp1752
a(S'of'
p1753
S'of'
p1754
S'IN'
p1755
S'B-PP'
p1756
g4
tp1757
a(S'aspirin'
p1758
S'aspirin'
p1759
S'NN'
p1760
S'B-NP'
p1761
g4
tp1762
a(S'daily.'
p1763
S'daily.'
p1764
S'NN'
p1765
S'I-NP'
p1766
g4
tp1767
a(S'RS'
p1768
S'RS'
p1769
S'NNS'
p1770
S'I-NP'
p1771
g4
tp1772
a(S'had'
p1773
S'have'
p1774
S'VBD'
p1775
S'B-VP'
p1776
g4
tp1777
a(S'no'
p1778
S'no'
p1779
S'DT'
p1780
S'B-NP'
p1781
g4
tp1782
a(S'clinical'
p1783
S'clinical'
p1784
S'JJ'
p1785
S'I-NP'
p1786
g4
tp1787
a(S'effect'
p1788
S'effect'
p1789
S'NN'
p1790
S'I-NP'
p1791
g4
tp1792
a(S'on'
p1793
S'on'
p1794
S'IN'
p1795
S'B-PP'
p1796
g4
tp1797
a(S'adenomas'
p1798
S'adenoma'
p1799
S'NNS'
p1800
S'B-NP'
p1801
g4
tp1802
a(g85
g85
g85
g4
g4
tp1803
a.