(lp0
(S'Double-blind'
p1
S'Double-blind'
p2
S'JJ'
p3
S'B-NP'
p4
S'O'
p5
tp6
a(S','
p7
g7
g7
S'I-NP'
p8
g5
tp9
a(S'placebo-controlled'
p10
S'placebo-controlled'
p11
S'JJ'
p12
S'I-NP'
p13
g5
tp14
a(S'study'
p15
S'study'
p16
S'NN'
p17
S'I-NP'
p18
g5
tp19
a(S'of'
p20
S'of'
p21
S'IN'
p22
S'B-PP'
p23
g5
tp24
a(S'L-carnosine'
p25
S'L-carnosine'
p26
S'NN'
p27
S'B-NP'
p28
g5
tp29
a(S'supplementation'
p30
S'supplementation'
p31
S'NN'
p32
S'I-NP'
p33
g5
tp34
a(S'in'
p35
S'in'
p36
S'IN'
p37
S'B-PP'
p38
g5
tp39
a(S'children'
p40
S'child'
p41
S'NNS'
p42
S'B-NP'
p43
g5
tp44
a(S'with'
p45
S'with'
p46
S'IN'
p47
S'B-PP'
p48
g5
tp49
a(S'autistic'
p50
S'autistic'
p51
S'JJ'
p52
S'B-NP'
p53
g5
tp54
a(S'spectrum'
p55
S'spectrum'
p56
S'NN'
p57
S'I-NP'
p58
g5
tp59
a(S'disorders'
p60
S'disorder'
p61
S'NNS'
p62
S'I-NP'
p63
g5
tp64
a(S'.'
p65
g65
g65
g5
g5
tp66
a(S'L-Carnosine'
p67
S'L-Carnosine'
p68
S'NN'
p69
S'B-NP'
p70
g5
tp71
a(g7
g7
g7
g5
g5
tp72
a(S'a'
p73
g73
S'DT'
p74
S'B-NP'
p75
g5
tp76
a(S'dipeptide'
p77
S'dipeptide'
p78
S'NN'
p79
S'I-NP'
p80
g5
tp81
a(g7
g7
g7
g5
g5
tp82
a(S'can'
p83
S'can'
p84
S'MD'
p85
S'B-VP'
p86
g5
tp87
a(S'enhance'
p88
S'enhance'
p89
S'VB'
p90
S'I-VP'
p91
g5
tp92
a(S'frontal'
p93
S'frontal'
p94
S'JJ'
p95
S'B-NP'
p96
g5
tp97
a(S'lobe'
p98
S'lobe'
p99
S'NN'
p100
S'I-NP'
p101
g5
tp102
a(S'function'
p103
S'function'
p104
S'NN'
p105
S'I-NP'
p106
g5
tp107
a(S'or'
p108
S'or'
p109
S'CC'
p110
g5
g5
tp111
a(S'be'
p112
S'be'
p113
S'VB'
p114
S'B-VP'
p115
g5
tp116
a(S'neuroprotective.'
p117
S'neuroprotective.'
p118
S'VBN'
p119
S'I-VP'
p120
g5
tp121
a(S'It'
p122
S'It'
p123
S'PRP'
p124
S'B-NP'
p125
g5
tp126
a(S'can'
p127
S'can'
p128
S'MD'
p129
S'B-VP'
p130
g5
tp131
a(S'also'
p132
S'also'
p133
S'RB'
p134
S'I-VP'
p135
g5
tp136
a(S'correlate'
p137
S'correlate'
p138
S'VB'
p139
S'I-VP'
p140
g5
tp141
a(S'with'
p142
S'with'
p143
S'IN'
p144
S'B-PP'
p145
g5
tp146
a(S'gamma-aminobutyric'
p147
S'gamma-aminobutyric'
p148
S'JJ'
p149
S'B-NP'
p150
g5
tp151
a(S'acid'
p152
S'acid'
p153
S'NN'
p154
S'I-NP'
p155
g5
tp156
a(S'('
p157
g157
g157
g5
g5
tp158
a(S'GABA'
p159
S'GABA'
p160
S'NN'
p161
S'B-NP'
p162
g5
tp163
a(S')'
p164
g164
g164
g5
g5
tp165
a(S'-homocarnosine'
p166
S'-homocarnosine'
p167
S'JJ'
p168
S'B-NP'
p169
g5
tp170
a(S'interaction'
p171
S'interaction'
p172
S'NN'
p173
S'I-NP'
p174
g5
tp175
a(g7
g7
g7
g5
g5
tp176
a(S'with'
p177
S'with'
p178
S'IN'
p179
S'B-PP'
p180
g5
tp181
a(S'possible'
p182
S'possible'
p183
S'JJ'
p184
S'B-NP'
p185
g5
tp186
a(S'anticonvulsive'
p187
S'anticonvulsive'
p188
S'JJ'
p189
S'I-NP'
p190
g5
tp191
a(S'effects.'
p192
S'effects.'
p193
S'NNS'
p194
S'I-NP'
p195
g5
tp196
a(S'We'
p197
S'We'
p198
S'PRP'
p199
S'B-NP'
p200
g5
tp201
a(S'investigated'
p202
S'investigate'
p203
S'VBD'
p204
S'B-VP'
p205
g5
tp206
a(S'31'
p207
S'31'
p208
S'CD'
p209
S'B-NP'
p210
g5
tp211
a(S'children'
p212
S'child'
p213
S'NNS'
p214
S'I-NP'
p215
g5
tp216
a(S'with'
p217
S'with'
p218
S'IN'
p219
S'B-PP'
p220
g5
tp221
a(S'autistic'
p222
S'autistic'
p223
S'JJ'
p224
S'B-NP'
p225
g5
tp226
a(S'spectrum'
p227
S'spectrum'
p228
S'NN'
p229
S'I-NP'
p230
g5
tp231
a(S'disorders'
p232
S'disorder'
p233
S'NNS'
p234
S'I-NP'
p235
g5
tp236
a(S'in'
p237
S'in'
p238
S'IN'
p239
S'B-PP'
p240
g5
tp241
a(S'an'
p242
S'an'
p243
S'DT'
p244
S'B-NP'
p245
g5
tp246
a(S'8-week'
p247
S'8-week'
p248
S'JJ'
p249
S'I-NP'
p250
g5
tp251
a(g7
g7
g7
S'I-NP'
p252
g5
tp253
a(S'double-blinded'
p254
S'double-blinded'
p255
S'JJ'
p256
S'I-NP'
p257
g5
tp258
a(S'study'
p259
S'study'
p260
S'NN'
p261
S'I-NP'
p262
g5
tp263
a(S'to'
p264
S'to'
p265
S'TO'
p266
S'B-VP'
p267
g5
tp268
a(S'determine'
p269
S'determine'
p270
S'VB'
p271
S'I-VP'
p272
g5
tp273
a(S'if'
p274
S'if'
p275
S'IN'
p276
S'B-NP'
p277
g5
tp278
a(S'800'
p279
S'800'
p280
S'CD'
p281
S'I-NP'
p282
g5
tp283
a(S'mg'
p284
S'mg'
p285
S'NN'
p286
S'I-NP'
p287
g5
tp288
a(S'L-carnosine'
p289
S'L-carnosine'
p290
S'NN'
p291
S'I-NP'
p292
g5
tp293
a(S'daily'
p294
S'daily'
p295
S'RB'
p296
S'B-ADVP'
p297
g5
tp298
a(S'would'
p299
S'would'
p300
S'MD'
p301
S'B-VP'
p302
g5
tp303
a(S'result'
p304
S'result'
p305
S'VB'
p306
S'I-VP'
p307
g5
tp308
a(S'in'
p309
S'in'
p310
S'IN'
p311
S'B-PP'
p312
g5
tp313
a(S'observable'
p314
S'observable'
p315
S'JJ'
p316
S'B-NP'
p317
g5
tp318
a(S'changes'
p319
S'change'
p320
S'NNS'
p321
S'I-NP'
p322
g5
tp323
a(S'versus'
p324
S'versus'
p325
S'IN'
p326
S'B-PP'
p327
g5
tp328
a(S'placebo.'
p329
S'placebo.'
p330
S'NN'
p331
S'B-NP'
p332
g5
tp333
a(S'Outcome'
p334
S'Outcome'
p335
S'NNP'
p336
S'I-NP'
p337
g5
tp338
a(S'measures'
p339
S'measure'
p340
S'NNS'
p341
S'I-NP'
p342
g5
tp343
a(S'were'
p344
S'be'
p345
S'VBD'
p346
S'B-VP'
p347
g5
tp348
a(S'the'
p349
S'the'
p350
S'DT'
p351
S'B-NP'
p352
g5
tp353
a(S'Childhood'
p354
S'Childhood'
p355
S'NNP'
p356
S'I-NP'
p357
g5
tp358
a(S'Autism'
p359
S'Autism'
p360
S'NNP'
p361
S'I-NP'
p362
g5
tp363
a(S'Rating'
p364
S'Rating'
p365
S'NNP'
p366
S'I-NP'
p367
g5
tp368
a(S'Scale'
p369
S'Scale'
p370
S'NNP'
p371
S'I-NP'
p372
g5
tp373
a(g7
g7
g7
g5
g5
tp374
a(S'the'
p375
S'the'
p376
S'DT'
p377
S'B-NP'
p378
g5
tp379
a(S'Gilliam'
p380
S'Gilliam'
p381
S'NNP'
p382
S'I-NP'
p383
g5
tp384
a(S'Autism'
p385
S'Autism'
p386
S'NNP'
p387
S'I-NP'
p388
g5
tp389
a(S'Rating'
p390
S'Rating'
p391
S'NNP'
p392
S'I-NP'
p393
g5
tp394
a(S'Scale'
p395
S'Scale'
p396
S'NNP'
p397
S'I-NP'
p398
g5
tp399
a(g7
g7
g7
g5
g5
tp400
a(S'the'
p401
S'the'
p402
S'DT'
p403
S'B-NP'
p404
g5
tp405
a(S'Expressive'
p406
S'Expressive'
p407
S'JJ'
p408
S'I-NP'
p409
g5
tp410
a(S'and'
p411
S'and'
p412
S'CC'
p413
S'I-NP'
p414
g5
tp415
a(S'Receptive'
p416
S'Receptive'
p417
S'JJ'
p418
S'I-NP'
p419
g5
tp420
a(S'One-Word'
p421
S'One-Word'
p422
S'NNP'
p423
S'I-NP'
p424
g5
tp425
a(S'Picture'
p426
S'Picture'
p427
S'NNP'
p428
S'I-NP'
p429
g5
tp430
a(S'Vocabulary'
p431
S'Vocabulary'
p432
S'NNP'
p433
S'I-NP'
p434
g5
tp435
a(S'tests'
p436
S'test'
p437
S'NNS'
p438
S'I-NP'
p439
g5
tp440
a(g7
g7
g7
g5
g5
tp441
a(S'and'
p442
S'and'
p443
S'CC'
p444
g5
g5
tp445
a(S'Clinical'
p446
S'Clinical'
p447
S'NNP'
p448
S'B-NP'
p449
g5
tp450
a(S'Global'
p451
S'Global'
p452
S'NNP'
p453
S'I-NP'
p454
g5
tp455
a(S'Impressions'
p456
S'Impressions'
p457
S'NNP'
p458
S'I-NP'
p459
g5
tp460
a(S'of'
p461
S'of'
p462
S'IN'
p463
S'B-PP'
p464
g5
tp465
a(S'Change.'
p466
S'Change.'
p467
S'NNP'
p468
S'B-NP'
p469
g5
tp470
a(S'Children'
p471
S'Children'
p472
S'NNP'
p473
S'I-NP'
p474
g5
tp475
a(S'on'
p476
S'on'
p477
S'IN'
p478
S'B-PP'
p479
g5
tp480
a(S'placebo'
p481
S'placebo'
p482
S'NN'
p483
S'B-NP'
p484
g5
tp485
a(S'did'
p486
S'do'
p487
S'VBD'
p488
S'B-VP'
p489
g5
tp490
a(S'not'
p491
S'not'
p492
S'RB'
p493
S'I-VP'
p494
g5
tp495
a(S'show'
p496
S'show'
p497
S'VB'
p498
S'I-VP'
p499
g5
tp500
a(S'statistically'
p501
S'statistically'
p502
S'RB'
p503
S'B-NP'
p504
g5
tp505
a(S'significant'
p506
S'significant'
p507
S'JJ'
p508
S'I-NP'
p509
g5
tp510
a(S'changes.'
p511
S'changes.'
p512
S'NNS'
p513
S'I-NP'
p514
g5
tp515
a(S'After'
p516
S'After'
p517
S'IN'
p518
S'B-PP'
p519
g5
tp520
a(S'8'
p521
g521
S'CD'
p522
S'B-NP'
p523
g5
tp524
a(S'weeks'
p525
S'week'
p526
S'NNS'
p527
S'I-NP'
p528
g5
tp529
a(S'on'
p530
S'on'
p531
S'IN'
p532
S'B-PP'
p533
g5
tp534
a(S'L-carnosine'
p535
S'L-carnosine'
p536
S'NN'
p537
S'B-NP'
p538
g5
tp539
a(g7
g7
g7
g5
g5
tp540
a(S'children'
p541
S'child'
p542
S'NNS'
p543
S'B-NP'
p544
g5
tp545
a(S'showed'
p546
S'show'
p547
S'VBD'
p548
S'B-VP'
p549
g5
tp550
a(S'statistically'
p551
S'statistically'
p552
S'RB'
p553
S'B-NP'
p554
g5
tp555
a(S'significant'
p556
S'significant'
p557
S'JJ'
p558
S'I-NP'
p559
g5
tp560
a(S'improvements'
p561
S'improvement'
p562
S'NNS'
p563
S'I-NP'
p564
g5
tp565
a(S'on'
p566
S'on'
p567
S'IN'
p568
S'B-PP'
p569
g5
tp570
a(S'the'
p571
S'the'
p572
S'DT'
p573
S'B-NP'
p574
g5
tp575
a(S'Gilliam'
p576
S'Gilliam'
p577
S'NNP'
p578
S'I-NP'
p579
g5
tp580
a(S'Autism'
p581
S'Autism'
p582
S'NNP'
p583
S'I-NP'
p584
g5
tp585
a(S'Rating'
p586
S'Rating'
p587
S'NNP'
p588
S'I-NP'
p589
g5
tp590
a(S'Scale'
p591
S'Scale'
p592
S'NNP'
p593
S'I-NP'
p594
g5
tp595
a(g157
g157
g157
g5
g5
tp596
a(S'total'
p597
S'total'
p598
S'JJ'
p599
S'B-NP'
p600
g5
tp601
a(S'score'
p602
S'score'
p603
S'NN'
p604
S'I-NP'
p605
g5
tp606
a(S'and'
p607
S'and'
p608
S'CC'
p609
g5
g5
tp610
a(S'the'
p611
S'the'
p612
S'DT'
p613
S'B-NP'
p614
g5
tp615
a(S'Behavior'
p616
S'Behavior'
p617
S'NNP'
p618
S'I-NP'
p619
g5
tp620
a(g7
g7
g7
g5
g5
tp621
a(S'Socialization'
p622
S'Socialization'
p623
S'NNP'
p624
S'B-NP'
p625
g5
tp626
a(g7
g7
g7
g5
g5
tp627
a(S'and'
p628
S'and'
p629
S'CC'
p630
g5
g5
tp631
a(S'Communication'
p632
S'Communication'
p633
S'NNP'
p634
S'B-NP'
p635
g5
tp636
a(S'subscales'
p637
S'subscale'
p638
S'NNS'
p639
S'I-NP'
p640
g5
tp641
a(g164
g164
g164
g5
g5
tp642
a(S'and'
p643
S'and'
p644
S'CC'
p645
g5
g5
tp646
a(S'the'
p647
S'the'
p648
S'DT'
p649
S'B-NP'
p650
g5
tp651
a(S'Receptive'
p652
S'Receptive'
p653
S'JJ'
p654
S'I-NP'
p655
g5
tp656
a(S'One-Word'
p657
S'One-Word'
p658
S'NNP'
p659
S'I-NP'
p660
g5
tp661
a(S'Picture'
p662
S'Picture'
p663
S'NNP'
p664
S'I-NP'
p665
g5
tp666
a(S'Vocabulary'
p667
S'Vocabulary'
p668
S'NNP'
p669
S'I-NP'
p670
g5
tp671
a(S'test'
p672
S'test'
p673
S'NN'
p674
S'I-NP'
p675
g5
tp676
a(g157
g157
g157
g5
g5
tp677
a(S'all'
p678
S'all'
p679
S'DT'
p680
S'B-NP'
p681
g5
tp682
a(S'P'
p683
g683
S'NN'
p684
S'I-NP'
p685
g5
tp686
a(S'<'
p687
g687
S'JJR'
p688
S'B-NP'
p689
g5
tp690
a(S'.05'
p691
S'.05'
p692
S'CD'
p693
S'I-NP'
p694
g5
tp695
a(g164
g164
g164
g5
g5
tp696
a(g65
g65
g65
g5
g5
tp697
a(S'Improved'
p698
S'Improve'
p699
S'VBN'
p700
S'B-NP'
p701
g5
tp702
a(S'trends'
p703
S'trend'
p704
S'NNS'
p705
S'I-NP'
p706
g5
tp707
a(S'were'
p708
S'be'
p709
S'VBD'
p710
S'B-VP'
p711
g5
tp712
a(S'noted'
p713
S'note'
p714
S'VBN'
p715
S'I-VP'
p716
g5
tp717
a(S'on'
p718
S'on'
p719
S'IN'
p720
S'B-PP'
p721
g5
tp722
a(S'other'
p723
S'other'
p724
S'JJ'
p725
S'B-NP'
p726
g5
tp727
a(S'outcome'
p728
S'outcome'
p729
S'NN'
p730
S'I-NP'
p731
g5
tp732
a(S'measures.'
p733
S'measures.'
p734
S'NN'
p735
S'I-NP'
p736
g5
tp737
a(S'Although'
p738
S'Although'
p739
S'IN'
p740
S'B-SBAR'
p741
g5
tp742
a(S'the'
p743
S'the'
p744
S'DT'
p745
S'B-NP'
p746
g5
tp747
a(S'mechanism'
p748
S'mechanism'
p749
S'NN'
p750
S'I-NP'
p751
g5
tp752
a(S'of'
p753
S'of'
p754
S'IN'
p755
S'B-PP'
p756
g5
tp757
a(S'action'
p758
S'action'
p759
S'NN'
p760
S'B-NP'
p761
g5
tp762
a(S'of'
p763
S'of'
p764
S'IN'
p765
S'B-PP'
p766
g5
tp767
a(S'L-carnosine'
p768
S'L-carnosine'
p769
S'NN'
p770
S'B-NP'
p771
g5
tp772
a(S'is'
p773
S'be'
p774
S'VBZ'
p775
S'B-VP'
p776
g5
tp777
a(S'not'
p778
S'not'
p779
S'RB'
p780
g5
g5
tp781
a(S'well'
p782
S'well'
p783
S'RB'
p784
S'B-VP'
p785
g5
tp786
a(S'understood'
p787
S'understand'
p788
S'VBN'
p789
S'I-VP'
p790
g5
tp791
a(g7
g7
g7
g5
g5
tp792
a(S'it'
p793
S'it'
p794
S'PRP'
p795
S'B-NP'
p796
g5
tp797
a(S'may'
p798
S'may'
p799
S'MD'
p800
S'B-VP'
p801
g5
tp802
a(S'enhance'
p803
S'enhance'
p804
S'VB'
p805
S'I-VP'
p806
g5
tp807
a(S'neurologic'
p808
S'neurologic'
p809
S'JJ'
p810
S'B-NP'
p811
g5
tp812
a(S'function'
p813
S'function'
p814
S'NN'
p815
S'I-NP'
p816
g5
tp817
a(g7
g7
g7
g5
g5
tp818
a(S'perhaps'
p819
S'perhaps'
p820
S'RB'
p821
S'B-ADVP'
p822
g5
tp823
a(S'in'
p824
S'in'
p825
S'IN'
p826
S'B-PP'
p827
g5
tp828
a(S'the'
p829
S'the'
p830
S'DT'
p831
S'B-NP'
p832
g5
tp833
a(S'enterorhinal'
p834
S'enterorhinal'
p835
S'JJ'
p836
S'I-NP'
p837
g5
tp838
a(S'or'
p839
S'or'
p840
S'CC'
p841
S'I-NP'
p842
g5
tp843
a(S'temporal'
p844
S'temporal'
p845
S'JJ'
p846
S'I-NP'
p847
g5
tp848
a(S'cortex'
p849
S'cortex'
p850
S'NN'
p851
S'I-NP'
p852
g5
tp853
a(g65
g65
g65
g5
g5
tp854
a.