(lp0
(S'Laser'
p1
S'Laser'
p2
S'NN'
p3
S'B-NP'
p4
S'O'
p5
tp6
a(S'conization'
p7
S'conization'
p8
S'NN'
p9
S'I-NP'
p10
g5
tp11
a(S'versus'
p12
S'versus'
p13
S'IN'
p14
S'B-PP'
p15
g5
tp16
a(S'cold'
p17
S'cold'
p18
S'JJ'
p19
S'B-NP'
p20
g5
tp21
a(S'knife'
p22
S'knife'
p23
S'NN'
p24
S'I-NP'
p25
g5
tp26
a(S'conization'
p27
S'conization'
p28
S'NN'
p29
S'I-NP'
p30
g5
tp31
a(S'.'
p32
g32
g32
g5
g5
tp33
a(S'This'
p34
S'This'
p35
S'DT'
p36
S'B-NP'
p37
g5
tp38
a(S'prospective'
p39
S'prospective'
p40
S'JJ'
p41
S'I-NP'
p42
g5
tp43
a(S','
p44
g44
g44
S'I-NP'
p45
g5
tp46
a(S'randomized'
p47
S'randomize'
p48
S'VBN'
p49
S'I-NP'
p50
g5
tp51
a(S'study'
p52
S'study'
p53
S'NN'
p54
S'I-NP'
p55
g5
tp56
a(S'compares'
p57
S'compare'
p58
S'VBZ'
p59
S'B-VP'
p60
g5
tp61
a(g44
g44
g44
g5
g5
tp62
a(S'for'
p63
S'for'
p64
S'IN'
p65
S'B-PP'
p66
g5
tp67
a(S'the'
p68
S'the'
p69
S'DT'
p70
S'B-NP'
p71
g5
tp72
a(S'first'
p73
S'first'
p74
S'JJ'
p75
S'I-NP'
p76
g5
tp77
a(S'time'
p78
S'time'
p79
S'NN'
p80
S'I-NP'
p81
g5
tp82
a(g44
g44
g44
g5
g5
tp83
a(S'measured'
p84
S'measure'
p85
S'VBN'
p86
S'B-NP'
p87
g5
tp88
a(S'blood'
p89
S'blood'
p90
S'NN'
p91
S'I-NP'
p92
g5
tp93
a(S'loss'
p94
S'loss'
p95
S'NN'
p96
S'I-NP'
p97
g5
tp98
a(S'at'
p99
S'at'
p100
S'IN'
p101
S'B-PP'
p102
g5
tp103
a(S'conization'
p104
S'conization'
p105
S'NN'
p106
S'B-NP'
p107
g5
tp108
a(S'and'
p109
S'and'
p110
S'CC'
p111
g5
g5
tp112
a(S'within'
p113
S'within'
p114
S'IN'
p115
S'B-PP'
p116
g5
tp117
a(S'24'
p118
S'24'
p119
S'CD'
p120
S'B-NP'
p121
g5
tp122
a(S'hours'
p123
S'hour'
p124
S'NNS'
p125
S'I-NP'
p126
g5
tp127
a(S'after'
p128
S'after'
p129
S'IN'
p130
S'B-PP'
p131
g5
tp132
a(S'using'
p133
S'use'
p134
S'VBG'
p135
S'B-VP'
p136
g5
tp137
a(S'either'
p138
S'either'
p139
S'CC'
p140
g5
g5
tp141
a(S'the'
p142
S'the'
p143
S'DT'
p144
S'B-NP'
p145
g5
tp146
a(S'cold'
p147
S'cold'
p148
S'JJ'
p149
S'I-NP'
p150
g5
tp151
a(S'knife'
p152
S'knife'
p153
S'NN'
p154
S'I-NP'
p155
g5
tp156
a(S'technique'
p157
S'technique'
p158
S'NN'
p159
S'I-NP'
p160
g5
tp161
a(S'or'
p162
S'or'
p163
S'CC'
p164
g5
g5
tp165
a(S'the'
p166
S'the'
p167
S'DT'
p168
S'B-NP'
p169
g5
tp170
a(S'carbon'
p171
S'carbon'
p172
S'NN'
p173
S'I-NP'
p174
g5
tp175
a(S'dioxide'
p176
S'dioxide'
p177
S'NN'
p178
S'I-NP'
p179
g5
tp180
a(S'laser'
p181
S'laser'
p182
S'NN'
p183
S'I-NP'
p184
g5
tp185
a(S'scalpel.'
p186
S'scalpel.'
p187
S'NN'
p188
S'I-NP'
p189
g5
tp190
a(S'One'
p191
S'One'
p192
S'CD'
p193
S'I-NP'
p194
g5
tp195
a(S'hundred'
p196
S'hundred'
p197
S'CD'
p198
S'I-NP'
p199
g5
tp200
a(S'and'
p201
S'and'
p202
S'CC'
p203
S'I-NP'
p204
g5
tp205
a(S'ten'
p206
S'ten'
p207
S'CD'
p208
S'I-NP'
p209
g5
tp210
a(S'consecutive'
p211
S'consecutive'
p212
S'JJ'
p213
S'I-NP'
p214
g5
tp215
a(S'patients'
p216
S'patient'
p217
S'NNS'
p218
S'I-NP'
p219
g5
tp220
a(S'were'
p221
S'be'
p222
S'VBD'
p223
S'B-VP'
p224
g5
tp225
a(S'evaluated.'
p226
S'evaluated.'
p227
S'RB'
p228
S'B-ADVP'
p229
g5
tp230
a(S'The'
p231
S'The'
p232
S'DT'
p233
S'B-NP'
p234
g5
tp235
a(S'median'
p236
S'median'
p237
S'JJ'
p238
S'I-NP'
p239
g5
tp240
a(S'blood'
p241
S'blood'
p242
S'NN'
p243
S'I-NP'
p244
g5
tp245
a(S'loss'
p246
S'loss'
p247
S'NN'
p248
S'I-NP'
p249
g5
tp250
a(S'in'
p251
S'in'
p252
S'IN'
p253
S'B-PP'
p254
g5
tp255
a(S'the'
p256
S'the'
p257
S'DT'
p258
S'B-NP'
p259
g5
tp260
a(S'laser'
p261
S'laser'
p262
S'NN'
p263
S'I-NP'
p264
g5
tp265
a(S'group'
p266
S'group'
p267
S'NN'
p268
S'I-NP'
p269
g5
tp270
a(S'of'
p271
S'of'
p272
S'IN'
p273
S'B-PP'
p274
g5
tp275
a(S'55'
p276
S'55'
p277
S'CD'
p278
S'B-NP'
p279
g5
tp280
a(S'patients'
p281
S'patient'
p282
S'NNS'
p283
S'I-NP'
p284
g5
tp285
a(S'was'
p286
S'be'
p287
S'VBD'
p288
S'B-VP'
p289
g5
tp290
a(S'4.6'
p291
S'4.6'
p292
S'CD'
p293
S'B-NP'
p294
g5
tp295
a(S'milliliters'
p296
S'milliliter'
p297
S'NNS'
p298
S'I-NP'
p299
g5
tp300
a(S'at'
p301
S'at'
p302
S'IN'
p303
S'B-PP'
p304
g5
tp305
a(g44
g44
g44
g5
g5
tp306
a(S'and'
p307
S'and'
p308
S'CC'
p309
g5
g5
tp310
a(S'within'
p311
S'within'
p312
S'IN'
p313
S'B-ADVP'
p314
g5
tp315
a(g44
g44
g44
g5
g5
tp316
a(S'24'
p317
S'24'
p318
S'CD'
p319
S'B-NP'
p320
g5
tp321
a(S'hours'
p322
S'hour'
p323
S'NNS'
p324
S'I-NP'
p325
g5
tp326
a(S'after'
p327
S'after'
p328
S'IN'
p329
S'B-PP'
p330
g5
tp331
a(S'operation'
p332
S'operation'
p333
S'NN'
p334
S'B-NP'
p335
g5
tp336
a(S'compared'
p337
S'compare'
p338
S'VBN'
p339
S'B-PP'
p340
g5
tp341
a(S'with'
p342
S'with'
p343
S'IN'
p344
S'B-PP'
p345
g5
tp346
a(S'30.1'
p347
S'30.1'
p348
S'CD'
p349
S'B-NP'
p350
g5
tp351
a(S'milliliters'
p352
S'milliliter'
p353
S'NNS'
p354
S'I-NP'
p355
g5
tp356
a(S'in'
p357
S'in'
p358
S'IN'
p359
S'B-PP'
p360
g5
tp361
a(S'the'
p362
S'the'
p363
S'DT'
p364
S'B-NP'
p365
g5
tp366
a(S'cold'
p367
S'cold'
p368
S'JJ'
p369
S'I-NP'
p370
g5
tp371
a(S'knife'
p372
S'knife'
p373
S'NN'
p374
S'I-NP'
p375
g5
tp376
a(S'group'
p377
S'group'
p378
S'NN'
p379
S'I-NP'
p380
g5
tp381
a(S'of'
p382
S'of'
p383
S'IN'
p384
S'B-PP'
p385
g5
tp386
a(S'55'
p387
S'55'
p388
S'CD'
p389
S'B-NP'
p390
g5
tp391
a(S'patients.'
p392
S'patients.'
p393
S'NNS'
p394
S'I-NP'
p395
g5
tp396
a(S'More'
p397
S'More'
p398
S'RBR'
p399
S'B-ADJP'
p400
g5
tp401
a(S'important'
p402
S'important'
p403
S'JJ'
p404
S'I-ADJP'
p405
g5
tp406
a(g44
g44
g44
g5
g5
tp407
a(S'however'
p408
S'however'
p409
S'RB'
p410
S'B-ADVP'
p411
g5
tp412
a(g44
g44
g44
g5
g5
tp413
a(S'is'
p414
S'be'
p415
S'VBZ'
p416
S'B-VP'
p417
g5
tp418
a(S'that'
p419
S'that'
p420
S'IN'
p421
S'B-SBAR'
p422
g5
tp423
a(S'the'
p424
S'the'
p425
S'DT'
p426
S'B-NP'
p427
g5
tp428
a(S'corresponding'
p429
S'correspond'
p430
S'VBG'
p431
S'I-NP'
p432
g5
tp433
a(S'figures'
p434
S'figure'
p435
S'NNS'
p436
S'I-NP'
p437
g5
tp438
a(S'for'
p439
S'for'
p440
S'IN'
p441
S'B-PP'
p442
g5
tp443
a(S'the'
p444
S'the'
p445
S'DT'
p446
S'B-NP'
p447
g5
tp448
a(S'range'
p449
S'range'
p450
S'NN'
p451
S'I-NP'
p452
g5
tp453
a(S'of'
p454
S'of'
p455
S'IN'
p456
S'B-PP'
p457
g5
tp458
a(S'bleeding'
p459
S'bleeding'
p460
S'NN'
p461
S'B-NP'
p462
g5
tp463
a(S'were'
p464
S'be'
p465
S'VBD'
p466
S'B-VP'
p467
g5
tp468
a(S'0.4'
p469
S'0.4'
p470
S'CD'
p471
S'B-NP'
p472
g5
tp473
a(S'to'
p474
S'to'
p475
S'TO'
p476
S'B-PP'
p477
g5
tp478
a(S'155.4'
p479
S'155.4'
p480
S'CD'
p481
S'B-NP'
p482
g5
tp483
a(S'milliliters'
p484
S'milliliter'
p485
S'NNS'
p486
S'I-NP'
p487
g5
tp488
a(S'and'
p489
S'and'
p490
S'CC'
p491
g5
g5
tp492
a(S'5.6'
p493
S'5.6'
p494
S'CD'
p495
S'B-NP'
p496
g5
tp497
a(S'to'
p498
S'to'
p499
S'TO'
p500
S'B-PP'
p501
g5
tp502
a(S'1'
p503
g503
S'CD'
p504
S'B-NP'
p505
g5
tp506
a(g44
g44
g44
g5
g5
tp507
a(S'570.9'
p508
S'570.9'
p509
S'CD'
p510
S'B-NP'
p511
g5
tp512
a(S'milliliters'
p513
S'milliliter'
p514
S'NNS'
p515
S'I-NP'
p516
g5
tp517
a(g44
g44
g44
g5
g5
tp518
a(S'respectively.'
p519
S'respectively.'
p520
S'VBP'
p521
S'B-VP'
p522
g5
tp523
a(S'The'
p524
S'The'
p525
S'DT'
p526
S'B-NP'
p527
g5
tp528
a(S'incidence'
p529
S'incidence'
p530
S'NN'
p531
S'I-NP'
p532
g5
tp533
a(S'rate'
p534
S'rate'
p535
S'NN'
p536
S'I-NP'
p537
g5
tp538
a(S'for'
p539
S'for'
p540
S'IN'
p541
S'B-PP'
p542
g5
tp543
a(S'bleeding'
p544
S'bleed'
p545
S'VBG'
p546
S'B-VP'
p547
g5
tp548
a(S'complications'
p549
S'complication'
p550
S'NNS'
p551
S'B-NP'
p552
g5
tp553
a(S'requiring'
p554
S'require'
p555
S'VBG'
p556
S'B-VP'
p557
g5
tp558
a(S'surgical'
p559
S'surgical'
p560
S'JJ'
p561
S'B-NP'
p562
g5
tp563
a(S'intervention'
p564
S'intervention'
p565
S'NN'
p566
S'I-NP'
p567
g5
tp568
a(S'was'
p569
S'be'
p570
S'VBD'
p571
S'B-VP'
p572
g5
tp573
a(S'1.8'
p574
S'1.8'
p575
S'CD'
p576
S'B-NP'
p577
g5
tp578
a(S'per'
p579
S'per'
p580
S'IN'
p581
S'B-PP'
p582
g5
tp583
a(S'cet'
p584
S'cet'
p585
S'NN'
p586
S'B-NP'
p587
g5
tp588
a(S'for'
p589
S'for'
p590
S'IN'
p591
S'B-PP'
p592
g5
tp593
a(S'the'
p594
S'the'
p595
S'DT'
p596
S'B-NP'
p597
g5
tp598
a(S'laser'
p599
S'laser'
p600
S'NN'
p601
S'I-NP'
p602
g5
tp603
a(S'group'
p604
S'group'
p605
S'NN'
p606
S'I-NP'
p607
g5
tp608
a(S'and'
p609
S'and'
p610
S'CC'
p611
g5
g5
tp612
a(S'14.6'
p613
S'14.6'
p614
S'CD'
p615
S'B-NP'
p616
g5
tp617
a(S'per'
p618
S'per'
p619
S'IN'
p620
S'B-PP'
p621
g5
tp622
a(S'cent'
p623
S'cent'
p624
S'NN'
p625
S'B-NP'
p626
g5
tp627
a(S'for'
p628
S'for'
p629
S'IN'
p630
S'B-PP'
p631
g5
tp632
a(S'the'
p633
S'the'
p634
S'DT'
p635
S'B-NP'
p636
g5
tp637
a(S'cold'
p638
S'cold'
p639
S'JJ'
p640
S'I-NP'
p641
g5
tp642
a(S'knife'
p643
S'knife'
p644
S'NN'
p645
S'I-NP'
p646
g5
tp647
a(S'group.'
p648
S'group.'
p649
S'NN'
p650
S'I-NP'
p651
g5
tp652
a(S'This'
p653
S'This'
p654
S'DT'
p655
S'B-NP'
p656
g5
tp657
a(S'difference'
p658
S'difference'
p659
S'NN'
p660
S'I-NP'
p661
g5
tp662
a(S'was'
p663
S'be'
p664
S'VBD'
p665
S'B-VP'
p666
g5
tp667
a(S'statistically'
p668
S'statistically'
p669
S'RB'
p670
S'B-ADJP'
p671
g5
tp672
a(S'significant'
p673
S'significant'
p674
S'JJ'
p675
S'I-ADJP'
p676
g5
tp677
a(g44
g44
g44
g5
g5
tp678
a(S'p'
p679
g679
S'NN'
p680
S'B-NP'
p681
g5
tp682
a(S'less'
p683
S'less'
p684
S'JJR'
p685
S'B-ADJP'
p686
g5
tp687
a(S'than'
p688
S'than'
p689
S'IN'
p690
S'B-PP'
p691
g5
tp692
a(S'0.015'
p693
S'0.015'
p694
S'CD'
p695
S'B-NP'
p696
g5
tp697
a(S'--'
p698
S'--'
p699
S':'
p700
g5
g5
tp701
a(S'Fischer'
p702
S'Fischer'
p703
S'NNP'
p704
S'B-NP'
p705
g5
tp706
a(S"'s"
p707
S"'s"
p708
S'POS'
p709
S'B-NP'
p710
g5
tp711
a(S'exact'
p712
S'exact'
p713
S'JJ'
p714
S'I-NP'
p715
g5
tp716
a(S'test.'
p717
S'test.'
p718
S'NN'
p719
S'I-NP'
p720
g5
tp721
a(S'Conization'
p722
S'Conization'
p723
S'NN'
p724
S'I-NP'
p725
g5
tp726
a(S'for'
p727
S'for'
p728
S'IN'
p729
S'B-PP'
p730
g5
tp731
a(S'treatment'
p732
S'treatment'
p733
S'NN'
p734
S'B-NP'
p735
g5
tp736
a(S'of'
p737
S'of'
p738
S'IN'
p739
S'B-PP'
p740
g5
tp741
a(S'premalignant'
p742
S'premalignant'
p743
S'JJ'
p744
S'B-NP'
p745
g5
tp746
a(S'changes'
p747
S'change'
p748
S'NNS'
p749
S'I-NP'
p750
g5
tp751
a(S'of'
p752
S'of'
p753
S'IN'
p754
S'B-PP'
p755
g5
tp756
a(S'the'
p757
S'the'
p758
S'DT'
p759
S'B-NP'
p760
g5
tp761
a(S'cervix'
p762
S'cervix'
p763
S'NN'
p764
S'I-NP'
p765
g5
tp766
a(S'uteri'
p767
S'uteri'
p768
S'NNP'
p769
S'B-NP'
p770
g5
tp771
a(S'will'
p772
S'will'
p773
S'MD'
p774
S'B-VP'
p775
g5
tp776
a(S'probably'
p777
S'probably'
p778
S'RB'
p779
S'I-VP'
p780
g5
tp781
a(S'remain'
p782
S'remain'
p783
S'VB'
p784
S'I-VP'
p785
g5
tp786
a(S'the'
p787
S'the'
p788
S'DT'
p789
S'B-NP'
p790
g5
tp791
a(S'treatment'
p792
S'treatment'
p793
S'NN'
p794
S'I-NP'
p795
g5
tp796
a(S'of'
p797
S'of'
p798
S'IN'
p799
S'B-PP'
p800
g5
tp801
a(S'choice'
p802
S'choice'
p803
S'NN'
p804
S'B-NP'
p805
g5
tp806
a(S'for'
p807
S'for'
p808
S'IN'
p809
S'B-PP'
p810
g5
tp811
a(S'some'
p812
S'some'
p813
S'DT'
p814
S'B-NP'
p815
g5
tp816
a(S'time'
p817
S'time'
p818
S'NN'
p819
S'I-NP'
p820
g5
tp821
a(S'to'
p822
S'to'
p823
S'TO'
p824
S'B-VP'
p825
g5
tp826
a(S'come.'
p827
S'come.'
p828
S'VB'
p829
S'I-VP'
p830
g5
tp831
a(S'It'
p832
S'It'
p833
S'PRP'
p834
S'B-NP'
p835
g5
tp836
a(S'is'
p837
S'be'
p838
S'VBZ'
p839
S'B-VP'
p840
g5
tp841
a(S'our'
p842
S'our'
p843
S'PRP$'
p844
S'B-NP'
p845
g5
tp846
a(S'opinion'
p847
S'opinion'
p848
S'NN'
p849
S'I-NP'
p850
g5
tp851
a(S'that'
p852
S'that'
p853
S'IN'
p854
S'B-SBAR'
p855
g5
tp856
a(g44
g44
g44
g5
g5
tp857
a(S'in'
p858
S'in'
p859
S'IN'
p860
S'B-PP'
p861
g5
tp862
a(S'the'
p863
S'the'
p864
S'DT'
p865
S'B-NP'
p866
g5
tp867
a(S'future'
p868
S'future'
p869
S'NN'
p870
S'I-NP'
p871
g5
tp872
a(g44
g44
g44
g5
g5
tp873
a(S'laser'
p874
S'laser'
p875
S'NN'
p876
S'B-NP'
p877
g5
tp878
a(S'conization'
p879
S'conization'
p880
S'NN'
p881
S'I-NP'
p882
g5
tp883
a(S'will'
p884
S'will'
p885
S'MD'
p886
S'B-VP'
p887
g5
tp888
a(S'replace'
p889
S'replace'
p890
S'VB'
p891
S'I-VP'
p892
g5
tp893
a(S'cold'
p894
S'cold'
p895
S'JJ'
p896
S'B-NP'
p897
g5
tp898
a(S'knife'
p899
S'knife'
p900
S'NN'
p901
S'I-NP'
p902
g5
tp903
a(S'conization'
p904
S'conization'
p905
S'NN'
p906
S'I-NP'
p907
g5
tp908
a(g32
g32
g32
g5
g5
tp909
a.