(lp0
(S'Dietary'
p1
S'Dietary'
p2
S'JJ'
p3
S'B-NP'
p4
S'O'
p5
tp6
a(S'status'
p7
S'status'
p8
S'NN'
p9
S'I-NP'
p10
g5
tp11
a(S'and'
p12
S'and'
p13
S'CC'
p14
g5
g5
tp15
a(S'impact'
p16
S'impact'
p17
S'NN'
p18
S'B-NP'
p19
g5
tp20
a(S'of'
p21
S'of'
p22
S'IN'
p23
S'B-PP'
p24
g5
tp25
a(S'risperidone'
p26
S'risperidone'
p27
S'NN'
p28
S'B-NP'
p29
g5
tp30
a(S'on'
p31
S'on'
p32
S'IN'
p33
S'B-PP'
p34
g5
tp35
a(S'nutritional'
p36
S'nutritional'
p37
S'JJ'
p38
S'B-NP'
p39
g5
tp40
a(S'balance'
p41
S'balance'
p42
S'NN'
p43
S'I-NP'
p44
g5
tp45
a(S'in'
p46
S'in'
p47
S'IN'
p48
S'B-PP'
p49
g5
tp50
a(S'children'
p51
S'child'
p52
S'NNS'
p53
S'B-NP'
p54
g5
tp55
a(S'with'
p56
S'with'
p57
S'IN'
p58
S'B-PP'
p59
g5
tp60
a(S'autism'
p61
S'autism'
p62
S'NN'
p63
S'B-NP'
p64
g5
tp65
a(S':'
p66
g66
g66
g5
g5
tp67
a(S'a'
p68
g68
S'DT'
p69
S'B-NP'
p70
g5
tp71
a(S'pilot'
p72
S'pilot'
p73
S'NN'
p74
S'I-NP'
p75
g5
tp76
a(S'study'
p77
S'study'
p78
S'NN'
p79
S'I-NP'
p80
g5
tp81
a(S'.'
p82
g82
g82
g5
g5
tp83
a(S'BACKGROUND'
p84
S'BACKGROUND'
p85
S'NN'
p86
S'B-NP'
p87
g5
tp88
a(S'Risperidone'
p89
S'Risperidone'
p90
S'NN'
p91
S'I-NP'
p92
g5
tp93
a(S'may'
p94
S'may'
p95
S'MD'
p96
S'B-VP'
p97
g5
tp98
a(S'be'
p99
S'be'
p100
S'VB'
p101
S'I-VP'
p102
g5
tp103
a(S'effective'
p104
S'effective'
p105
S'JJ'
p106
S'B-ADJP'
p107
g5
tp108
a(S'in'
p109
S'in'
p110
S'IN'
p111
S'B-PP'
p112
g5
tp113
a(S'improving'
p114
S'improve'
p115
S'VBG'
p116
S'B-VP'
p117
g5
tp118
a(S'tantrums'
p119
S'tantrum'
p120
S'NNS'
p121
S'B-NP'
p122
g5
tp123
a(S','
p124
g124
g124
g5
g5
tp125
a(S'aggression'
p126
S'aggression'
p127
S'NN'
p128
S'B-NP'
p129
g5
tp130
a(g124
g124
g124
g5
g5
tp131
a(S'or'
p132
S'or'
p133
S'CC'
p134
g5
g5
tp135
a(S'self-injurious'
p136
S'self-injurious'
p137
S'JJ'
p138
S'B-NP'
p139
g5
tp140
a(S'behaviour'
p141
S'behaviour'
p142
S'NN'
p143
S'I-NP'
p144
g5
tp145
a(S'in'
p146
S'in'
p147
S'IN'
p148
S'B-PP'
p149
g5
tp150
a(S'children'
p151
S'child'
p152
S'NNS'
p153
S'B-NP'
p154
g5
tp155
a(S'with'
p156
S'with'
p157
S'IN'
p158
S'B-PP'
p159
g5
tp160
a(S'autism'
p161
S'autism'
p162
S'NN'
p163
S'B-NP'
p164
g5
tp165
a(g124
g124
g124
g5
g5
tp166
a(S'but'
p167
S'but'
p168
S'CC'
p169
g5
g5
tp170
a(S'often'
p171
S'often'
p172
S'RB'
p173
S'B-VP'
p174
g5
tp175
a(S'leads'
p176
S'lead'
p177
S'VBZ'
p178
S'I-VP'
p179
g5
tp180
a(S'to'
p181
S'to'
p182
S'TO'
p183
S'B-PP'
p184
g5
tp185
a(S'weight'
p186
S'weight'
p187
S'NN'
p188
S'B-NP'
p189
g5
tp190
a(S'gain'
p191
S'gain'
p192
S'NN'
p193
S'I-NP'
p194
g5
tp195
a(g82
g82
g82
g5
g5
tp196
a(S'METHOD'
p197
S'METHOD'
p198
S'NN'
p199
S'B-NP'
p200
g5
tp201
a(S'Using'
p202
S'Use'
p203
S'VBG'
p204
S'B-VP'
p205
g5
tp206
a(g68
g68
S'DT'
p207
S'B-NP'
p208
g5
tp209
a(S'quantitative'
p210
S'quantitative'
p211
S'JJ'
p212
S'I-NP'
p213
g5
tp214
a(S'Food'
p215
S'Food'
p216
S'NN'
p217
S'I-NP'
p218
g5
tp219
a(S'Frequency'
p220
S'Frequency'
p221
S'NN'
p222
S'I-NP'
p223
g5
tp224
a(S'Questionnaire'
p225
S'Questionnaire'
p226
S'NN'
p227
S'I-NP'
p228
g5
tp229
a(S'('
p230
g230
g230
g5
g5
tp231
a(S'FFQ'
p232
S'FFQ'
p233
S'NN'
p234
S'B-NP'
p235
S'B-protein'
p236
tp237
a(S')'
p238
g238
g238
g5
g5
tp239
a(g124
g124
g124
g5
g5
tp240
a(S'we'
p241
S'we'
p242
S'PRP'
p243
S'B-NP'
p244
g5
tp245
a(S'prospectively'
p246
S'prospectively'
p247
S'RB'
p248
S'B-ADVP'
p249
g5
tp250
a(S'examined'
p251
S'examine'
p252
S'VBD'
p253
S'B-VP'
p254
g5
tp255
a(S'the'
p256
S'the'
p257
S'DT'
p258
S'B-NP'
p259
g5
tp260
a(S'nutritional'
p261
S'nutritional'
p262
S'JJ'
p263
S'I-NP'
p264
g5
tp265
a(S'intake'
p266
S'intake'
p267
S'NN'
p268
S'I-NP'
p269
g5
tp270
a(S'of'
p271
S'of'
p272
S'IN'
p273
S'B-PP'
p274
g5
tp275
a(S'20'
p276
S'20'
p277
S'CD'
p278
S'B-NP'
p279
g5
tp280
a(S'children'
p281
S'child'
p282
S'NNS'
p283
S'I-NP'
p284
g5
tp285
a(S'with'
p286
S'with'
p287
S'IN'
p288
S'B-PP'
p289
g5
tp290
a(S'autism'
p291
S'autism'
p292
S'NN'
p293
S'B-NP'
p294
g5
tp295
a(S'participating'
p296
S'participate'
p297
S'VBG'
p298
S'B-VP'
p299
g5
tp300
a(S'in'
p301
S'in'
p302
S'IN'
p303
S'B-PP'
p304
g5
tp305
a(g68
g68
S'DT'
p306
S'B-NP'
p307
g5
tp308
a(S'randomised'
p309
S'randomise'
p310
S'VBN'
p311
S'I-NP'
p312
g5
tp313
a(S'placebo-controlled'
p314
S'placebo-controlled'
p315
S'JJ'
p316
S'I-NP'
p317
g5
tp318
a(S'trial'
p319
S'trial'
p320
S'NN'
p321
S'I-NP'
p322
g5
tp323
a(S'of'
p324
S'of'
p325
S'IN'
p326
S'B-PP'
p327
g5
tp328
a(S'risperidone'
p329
S'risperidone'
p330
S'NN'
p331
S'B-NP'
p332
g5
tp333
a(S'for'
p334
S'for'
p335
S'IN'
p336
S'B-PP'
p337
g5
tp338
a(S'disruptive'
p339
S'disruptive'
p340
S'JJ'
p341
S'B-NP'
p342
g5
tp343
a(S'behaviours'
p344
S'behaviour'
p345
S'NNS'
p346
S'I-NP'
p347
g5
tp348
a(g82
g82
g82
g5
g5
tp349
a(S'RESULTS'
p350
S'RESULTS'
p351
S'NNS'
p352
S'B-NP'
p353
g5
tp354
a(S'At'
p355
S'At'
p356
S'IN'
p357
S'B-PP'
p358
g5
tp359
a(S'baseline'
p360
S'baseline'
p361
S'NN'
p362
S'B-NP'
p363
g5
tp364
a(g124
g124
g124
g5
g5
tp365
a(S'the'
p366
S'the'
p367
S'DT'
p368
S'B-NP'
p369
g5
tp370
a(S'mean'
p371
S'mean'
p372
S'JJ'
p373
S'I-NP'
p374
g5
tp375
a(S'intakes'
p376
S'intake'
p377
S'NNS'
p378
S'I-NP'
p379
g5
tp380
a(S'for'
p381
S'for'
p382
S'IN'
p383
S'B-PP'
p384
g5
tp385
a(S'macronutrients'
p386
S'macronutrient'
p387
S'NNS'
p388
S'B-NP'
p389
g5
tp390
a(g124
g124
g124
S'I-NP'
p391
g5
tp392
a(S'vitamins'
p393
S'vitamin'
p394
S'NNS'
p395
S'I-NP'
p396
g5
tp397
a(S'and'
p398
S'and'
p399
S'CC'
p400
S'I-NP'
p401
g5
tp402
a(S'minerals'
p403
S'mineral'
p404
S'NNS'
p405
S'I-NP'
p406
g5
tp407
a(S'exceeded'
p408
S'exceed'
p409
S'VBD'
p410
S'B-VP'
p411
g5
tp412
a(S'Dietary'
p413
S'Dietary'
p414
S'JJ'
p415
S'B-NP'
p416
g5
tp417
a(S'Reference'
p418
S'Reference'
p419
S'NN'
p420
S'I-NP'
p421
g5
tp422
a(S'Intakes'
p423
S'Intake'
p424
S'NNS'
p425
S'I-NP'
p426
g5
tp427
a(g230
g230
g230
g5
g5
tp428
a(S'DRIs'
p429
S'DRI'
p430
S'NNS'
p431
S'B-NP'
p432
S'B-DNA'
p433
tp434
a(g238
g238
g238
g5
g5
tp435
a(g82
g82
g82
g5
g5
tp436
a(S'However'
p437
S'However'
p438
S'RB'
p439
S'B-ADVP'
p440
g5
tp441
a(S'there'
p442
S'there'
p443
S'EX'
p444
S'B-NP'
p445
g5
tp446
a(S'was'
p447
S'be'
p448
S'VBD'
p449
S'B-VP'
p450
g5
tp451
a(S'substantial'
p452
S'substantial'
p453
S'JJ'
p454
S'B-NP'
p455
g5
tp456
a(S'inter-participant'
p457
S'inter-participant'
p458
S'JJ'
p459
S'I-NP'
p460
g5
tp461
a(S'variability'
p462
S'variability'
p463
S'NN'
p464
S'I-NP'
p465
g5
tp466
a(g124
g124
g124
g5
g5
tp467
a(S'with'
p468
S'with'
p469
S'IN'
p470
S'B-PP'
p471
g5
tp472
a(S'individual'
p473
S'individual'
p474
S'JJ'
p475
S'B-NP'
p476
g5
tp477
a(S'deficiencies'
p478
S'deficiency'
p479
S'NNS'
p480
S'I-NP'
p481
g5
tp482
a(g230
g230
g230
g5
g5
tp483
a(S'<'
p484
g484
S'SYM'
p485
S'B-NP'
p486
g5
tp487
a(S'80'
p488
S'80'
p489
S'CD'
p490
S'I-NP'
p491
g5
tp492
a(S'%'
p493
g493
S'NN'
p494
S'I-NP'
p495
g5
tp496
a(S'of'
p497
S'of'
p498
S'IN'
p499
S'B-PP'
p500
g5
tp501
a(S'DRI'
p502
S'DRI'
p503
S'NN'
p504
S'B-NP'
p505
g5
tp506
a(g238
g238
g238
g5
g5
tp507
a(S'in'
p508
S'in'
p509
S'IN'
p510
S'B-PP'
p511
g5
tp512
a(S'the'
p513
S'the'
p514
S'DT'
p515
S'B-NP'
p516
g5
tp517
a(S'intake'
p518
S'intake'
p519
S'NN'
p520
S'I-NP'
p521
g5
tp522
a(S'of'
p523
S'of'
p524
S'IN'
p525
S'B-PP'
p526
g5
tp527
a(S'calcium'
p528
S'calcium'
p529
S'NN'
p530
S'B-NP'
p531
g5
tp532
a(g230
g230
g230
g5
g5
tp533
a(S'9'
p534
g534
S'CD'
p535
S'B-NP'
p536
g5
tp537
a(S'of'
p538
S'of'
p539
S'IN'
p540
S'B-PP'
p541
g5
tp542
a(S'20'
p543
S'20'
p544
S'CD'
p545
S'B-NP'
p546
g5
tp547
a(S'participants'
p548
S'participant'
p549
S'NNS'
p550
S'I-NP'
p551
g5
tp552
a(g238
g238
g238
g5
g5
tp553
a(g124
g124
g124
g5
g5
tp554
a(S'pantothenic'
p555
S'pantothenic'
p556
S'JJ'
p557
S'B-NP'
p558
g5
tp559
a(S'acid'
p560
S'acid'
p561
S'NN'
p562
S'I-NP'
p563
g5
tp564
a(g230
g230
g230
g5
g5
tp565
a(S'6'
p566
g566
S'CD'
p567
S'B-NP'
p568
g5
tp569
a(S'of'
p570
S'of'
p571
S'IN'
p572
S'B-PP'
p573
g5
tp574
a(S'20'
p575
S'20'
p576
S'CD'
p577
S'B-NP'
p578
g5
tp579
a(g238
g238
g238
g5
g5
tp580
a(g124
g124
g124
g5
g5
tp581
a(S'vitamin'
p582
S'vitamin'
p583
S'NN'
p584
S'B-NP'
p585
g5
tp586
a(S'D'
p587
g587
S'NN'
p588
S'I-NP'
p589
g5
tp590
a(g230
g230
g230
g5
g5
tp591
a(S'5'
p592
g592
S'CD'
p593
S'B-NP'
p594
g5
tp595
a(S'of'
p596
S'of'
p597
S'IN'
p598
S'B-PP'
p599
g5
tp600
a(S'20'
p601
S'20'
p602
S'CD'
p603
S'B-NP'
p604
g5
tp605
a(g238
g238
g238
g5
g5
tp606
a(S'and'
p607
S'and'
p608
S'CC'
p609
g5
g5
tp610
a(S'vitamin'
p611
S'vitamin'
p612
S'NN'
p613
S'B-NP'
p614
g5
tp615
a(S'K'
p616
g616
S'NN'
p617
S'I-NP'
p618
g5
tp619
a(g230
g230
g230
g5
g5
tp620
a(S'8'
p621
g621
S'CD'
p622
S'B-NP'
p623
g5
tp624
a(S'of'
p625
S'of'
p626
S'IN'
p627
S'B-PP'
p628
g5
tp629
a(S'20'
p630
S'20'
p631
S'CD'
p632
S'B-NP'
p633
g5
tp634
a(g238
g238
g238
g5
g5
tp635
a(g82
g82
g82
g5
g5
tp636
a(S'For'
p637
S'For'
p638
S'IN'
p639
S'B-PP'
p640
g5
tp641
a(S'the'
p642
S'the'
p643
S'DT'
p644
S'B-NP'
p645
g5
tp646
a(S'participants'
p647
S'participant'
p648
S'NNS'
p649
S'I-NP'
p650
g5
tp651
a(S'for'
p652
S'for'
p653
S'IN'
p654
S'B-PP'
p655
g5
tp656
a(S'whom'
p657
S'whom'
p658
S'WP'
p659
S'B-NP'
p660
g5
tp661
a(S'FFQs'
p662
S'FFQ'
p663
S'NNS'
p664
S'B-NP'
p665
S'B-protein'
p666
tp667
a(S'were'
p668
S'be'
p669
S'VBD'
p670
S'B-VP'
p671
g5
tp672
a(S'available'
p673
S'available'
p674
S'JJ'
p675
S'B-ADJP'
p676
g5
tp677
a(g124
g124
g124
g5
g5
tp678
a(S'there'
p679
S'there'
p680
S'EX'
p681
S'B-NP'
p682
g5
tp683
a(S'was'
p684
S'be'
p685
S'VBD'
p686
S'B-VP'
p687
g5
tp688
a(S'an'
p689
S'an'
p690
S'DT'
p691
S'B-NP'
p692
g5
tp693
a(S'increase'
p694
S'increase'
p695
S'NN'
p696
S'I-NP'
p697
g5
tp698
a(S'in'
p699
S'in'
p700
S'IN'
p701
S'B-PP'
p702
g5
tp703
a(S'weight'
p704
S'weight'
p705
S'NN'
p706
S'B-NP'
p707
g5
tp708
a(S'and'
p709
S'and'
p710
S'CC'
p711
g5
g5
tp712
a(S'an'
p713
S'an'
p714
S'DT'
p715
S'B-NP'
p716
g5
tp717
a(S'increase'
p718
S'increase'
p719
S'NN'
p720
S'I-NP'
p721
g5
tp722
a(S'in'
p723
S'in'
p724
S'IN'
p725
S'B-PP'
p726
g5
tp727
a(S'vitamin'
p728
S'vitamin'
p729
S'NN'
p730
S'B-NP'
p731
g5
tp732
a(g616
g616
S'NN'
p733
S'I-NP'
p734
g5
tp735
a(S'intake'
p736
S'intake'
p737
S'NN'
p738
S'I-NP'
p739
g5
tp740
a(S'after'
p741
S'after'
p742
S'IN'
p743
S'B-PP'
p744
g5
tp745
a(S'2'
p746
g746
S'CD'
p747
S'B-NP'
p748
g5
tp749
a(S'months'
p750
S'month'
p751
S'NNS'
p752
S'I-NP'
p753
g5
tp754
a(S'of'
p755
S'of'
p756
S'IN'
p757
S'B-PP'
p758
g5
tp759
a(S'risperidone'
p760
S'risperidone'
p761
S'NN'
p762
S'B-NP'
p763
g5
tp764
a(S'treatment'
p765
S'treatment'
p766
S'NN'
p767
S'I-NP'
p768
g5
tp769
a(g230
g230
g230
g5
g5
tp770
a(S'n'
p771
g771
S'NN'
p772
S'B-NP'
p773
g5
tp774
a(S'='
p775
g775
S'SYM'
p776
S'B-VP'
p777
g5
tp778
a(g534
g534
S'CD'
p779
S'B-NP'
p780
g5
tp781
a(g238
g238
g238
g5
g5
tp782
a(S'compared'
p783
S'compare'
p784
S'VBN'
p785
S'B-VP'
p786
g5
tp787
a(S'to'
p788
S'to'
p789
S'TO'
p790
S'B-PP'
p791
g5
tp792
a(S'placebo'
p793
S'placebo'
p794
S'NN'
p795
S'B-NP'
p796
g5
tp797
a(g230
g230
g230
g5
g5
tp798
a(g771
g771
S'NN'
p799
S'B-NP'
p800
g5
tp801
a(g775
g775
S'SYM'
p802
S'B-VP'
p803
g5
tp804
a(g621
g621
S'CD'
p805
S'B-NP'
p806
g5
tp807
a(g238
g238
g238
g5
g5
tp808
a(g82
g82
g82
g5
g5
tp809
a(S'An'
p810
S'An'
p811
S'DT'
p812
S'B-NP'
p813
g5
tp814
a(S'additional'
p815
S'additional'
p816
S'JJ'
p817
S'I-NP'
p818
g5
tp819
a(S'4'
p820
g820
S'CD'
p821
S'I-NP'
p822
g5
tp823
a(S'months'
p824
S'month'
p825
S'NNS'
p826
S'I-NP'
p827
g5
tp828
a(S'of'
p829
S'of'
p830
S'IN'
p831
S'B-PP'
p832
g5
tp833
a(S'risperidone'
p834
S'risperidone'
p835
S'NN'
p836
S'B-NP'
p837
g5
tp838
a(S'treatment'
p839
S'treatment'
p840
S'NN'
p841
S'I-NP'
p842
g5
tp843
a(g230
g230
g230
g5
g5
tp844
a(g771
g771
S'NN'
p845
S'B-NP'
p846
g5
tp847
a(g775
g775
S'SYM'
p848
S'B-VP'
p849
g5
tp850
a(g621
g621
S'CD'
p851
S'B-NP'
p852
g5
tp853
a(g238
g238
g238
g5
g5
tp854
a(S'did'
p855
S'do'
p856
S'VBD'
p857
S'B-VP'
p858
g5
tp859
a(S'not'
p860
S'not'
p861
S'RB'
p862
S'I-VP'
p863
g5
tp864
a(S'result'
p865
S'result'
p866
S'VB'
p867
S'I-VP'
p868
g5
tp869
a(S'in'
p870
S'in'
p871
S'IN'
p872
S'B-PP'
p873
g5
tp874
a(S'significant'
p875
S'significant'
p876
S'JJ'
p877
S'B-NP'
p878
g5
tp879
a(S'changes'
p880
S'change'
p881
S'NNS'
p882
S'I-NP'
p883
g5
tp884
a(S'in'
p885
S'in'
p886
S'IN'
p887
S'B-PP'
p888
g5
tp889
a(S'reported'
p890
S'report'
p891
S'VBN'
p892
S'B-NP'
p893
g5
tp894
a(S'nutritional'
p895
S'nutritional'
p896
S'JJ'
p897
S'I-NP'
p898
g5
tp899
a(S'balance'
p900
S'balance'
p901
S'NN'
p902
S'I-NP'
p903
g5
tp904
a(g82
g82
g82
g5
g5
tp905
a(S'CONCLUSION'
p906
S'CONCLUSION'
p907
S'NN'
p908
S'B-NP'
p909
g5
tp910
a(S'These'
p911
S'These'
p912
S'DT'
p913
S'B-NP'
p914
g5
tp915
a(S'pilot'
p916
S'pilot'
p917
S'JJ'
p918
S'I-NP'
p919
g5
tp920
a(S'data'
p921
S'datum'
p922
S'NNS'
p923
S'I-NP'
p924
g5
tp925
a(S'suggest'
p926
S'suggest'
p927
S'VBP'
p928
S'B-VP'
p929
g5
tp930
a(S'that'
p931
S'that'
p932
S'IN'
p933
S'B-SBAR'
p934
g5
tp935
a(S'treatment'
p936
S'treatment'
p937
S'NN'
p938
S'B-NP'
p939
g5
tp940
a(S'with'
p941
S'with'
p942
S'IN'
p943
S'B-PP'
p944
g5
tp945
a(S'risperidone'
p946
S'risperidone'
p947
S'NN'
p948
S'B-NP'
p949
g5
tp950
a(S'did'
p951
S'do'
p952
S'VBD'
p953
S'B-VP'
p954
g5
tp955
a(S'not'
p956
S'not'
p957
S'RB'
p958
S'I-VP'
p959
g5
tp960
a(S'significantly'
p961
S'significantly'
p962
S'RB'
p963
S'I-VP'
p964
g5
tp965
a(S'affect'
p966
S'affect'
p967
S'VB'
p968
S'I-VP'
p969
g5
tp970
a(S'the'
p971
S'the'
p972
S'DT'
p973
S'B-NP'
p974
g5
tp975
a(S'nutritional'
p976
S'nutritional'
p977
S'JJ'
p978
S'I-NP'
p979
g5
tp980
a(S'balance'
p981
S'balance'
p982
S'NN'
p983
S'I-NP'
p984
g5
tp985
a(S'of'
p986
S'of'
p987
S'IN'
p988
S'B-PP'
p989
g5
tp990
a(S'this'
p991
S'this'
p992
S'DT'
p993
S'B-NP'
p994
g5
tp995
a(S'small'
p996
S'small'
p997
S'JJ'
p998
S'I-NP'
p999
g5
tp1000
a(S'group'
p1001
S'group'
p1002
S'NN'
p1003
S'I-NP'
p1004
g5
tp1005
a(S'of'
p1006
S'of'
p1007
S'IN'
p1008
S'B-PP'
p1009
g5
tp1010
a(S'children'
p1011
S'child'
p1012
S'NNS'
p1013
S'B-NP'
p1014
g5
tp1015
a(g82
g82
g82
g5
g5
tp1016
a.