(lp0
(S'Controlled'
p1
S'Control'
p2
S'VBN'
p3
S'B-VP'
p4
S'O'
p5
tp6
a(S','
p7
g7
g7
g5
g5
tp8
a(S'prospective'
p9
S'prospective'
p10
S'JJ'
p11
S'B-ADJP'
p12
g5
tp13
a(g7
g7
g7
g5
g5
tp14
a(S'randomized'
p15
S'randomize'
p16
S'VBN'
p17
S'B-VP'
p18
g5
tp19
a(g7
g7
g7
g5
g5
tp20
a(S'clinical'
p21
S'clinical'
p22
S'JJ'
p23
S'B-NP'
p24
g5
tp25
a(S'evaluation'
p26
S'evaluation'
p27
S'NN'
p28
S'I-NP'
p29
g5
tp30
a(S'of'
p31
S'of'
p32
S'IN'
p33
S'B-PP'
p34
g5
tp35
a(S'partial'
p36
S'partial'
p37
S'JJ'
p38
S'B-NP'
p39
g5
tp40
a(S'ceramic'
p41
S'ceramic'
p42
S'JJ'
p43
S'I-NP'
p44
g5
tp45
a(S'crowns'
p46
S'crown'
p47
S'NNS'
p48
S'I-NP'
p49
g5
tp50
a(S'inserted'
p51
S'insert'
p52
S'VBN'
p53
S'B-VP'
p54
g5
tp55
a(S'with'
p56
S'with'
p57
S'IN'
p58
S'B-PP'
p59
g5
tp60
a(S'RelyX'
p61
S'RelyX'
p62
S'NNP'
p63
S'B-NP'
p64
g5
tp65
a(S'Unicem'
p66
S'Unicem'
p67
S'NNP'
p68
S'I-NP'
p69
g5
tp70
a(S'with'
p71
S'with'
p72
S'IN'
p73
S'B-PP'
p74
g5
tp75
a(S'or'
p76
S'or'
p77
S'CC'
p78
S'B-PP'
p79
g5
tp80
a(S'without'
p81
S'without'
p82
S'IN'
p83
S'B-PP'
p84
g5
tp85
a(S'selective'
p86
S'selective'
p87
S'JJ'
p88
S'B-NP'
p89
g5
tp90
a(S'enamel'
p91
S'enamel'
p92
S'NN'
p93
S'I-NP'
p94
g5
tp95
a(S'etching.'
p96
S'etching.'
p97
S'FW'
p98
S'I-NP'
p99
g5
tp100
a(S'1-year'
p101
S'1-year'
p102
S'JJ'
p103
S'I-NP'
p104
g5
tp105
a(S'results'
p106
S'result'
p107
S'NNS'
p108
S'I-NP'
p109
g5
tp110
a(S'.'
p111
g111
g111
g5
g5
tp112
a(S'PURPOSE'
p113
S'PURPOSE'
p114
S'NN'
p115
S'B-NP'
p116
g5
tp117
a(S'To'
p118
S'To'
p119
S'TO'
p120
S'B-VP'
p121
g5
tp122
a(S'compare'
p123
S'compare'
p124
S'VB'
p125
S'I-VP'
p126
g5
tp127
a(S'the'
p128
S'the'
p129
S'DT'
p130
S'B-NP'
p131
g5
tp132
a(S'performance'
p133
S'performance'
p134
S'NN'
p135
S'I-NP'
p136
g5
tp137
a(S'of'
p138
S'of'
p139
S'IN'
p140
S'B-PP'
p141
g5
tp142
a(S'partial'
p143
S'partial'
p144
S'JJ'
p145
S'B-NP'
p146
g5
tp147
a(S'ceramic'
p148
S'ceramic'
p149
S'JJ'
p150
S'I-NP'
p151
g5
tp152
a(S'crowns'
p153
S'crown'
p154
S'NNS'
p155
S'I-NP'
p156
g5
tp157
a(S'('
p158
g158
g158
g5
g5
tp159
a(S'PCCs'
p160
S'PCC'
p161
S'NNS'
p162
S'B-NP'
p163
g5
tp164
a(S')'
p165
g165
g165
g5
g5
tp166
a(S'inserted'
p167
S'insert'
p168
S'VBN'
p169
S'B-VP'
p170
g5
tp171
a(S'with'
p172
S'with'
p173
S'IN'
p174
S'B-PP'
p175
g5
tp176
a(S'RelyX'
p177
S'RelyX'
p178
S'NN'
p179
S'B-NP'
p180
g5
tp181
a(S'Unicem'
p182
S'Unicem'
p183
S'NN'
p184
S'I-NP'
p185
g5
tp186
a(g158
g158
g158
g5
g5
tp187
a(S'RXU'
p188
S'RXU'
p189
S'NN'
p190
S'B-NP'
p191
g5
tp192
a(g165
g165
g165
g5
g5
tp193
a(S'either'
p194
S'either'
p195
S'CC'
p196
S'B-PP'
p197
g5
tp198
a(S'with'
p199
S'with'
p200
S'IN'
p201
S'I-PP'
p202
g5
tp203
a(g158
g158
g158
g5
g5
tp204
a(S'RXU+E'
p205
S'RXU+E'
p206
S'NN'
p207
S'B-NP'
p208
S'B-protein'
p209
tp210
a(g165
g165
g165
g5
g5
tp211
a(S'or'
p212
S'or'
p213
S'CC'
p214
g5
g5
tp215
a(S'without'
p216
S'without'
p217
S'IN'
p218
S'B-PP'
p219
g5
tp220
a(g158
g158
g158
g5
g5
tp221
a(S'RXU'
p222
S'RXU'
p223
S'NN'
p224
S'B-NP'
p225
g5
tp226
a(g165
g165
g165
g5
g5
tp227
a(S'selective'
p228
S'selective'
p229
S'JJ'
p230
S'B-NP'
p231
g5
tp232
a(S'enamel'
p233
S'enamel'
p234
S'NN'
p235
S'I-NP'
p236
g5
tp237
a(S'etching'
p238
S'etching'
p239
S'NN'
p240
S'I-NP'
p241
g5
tp242
a(g111
g111
g111
g5
g5
tp243
a(S'METHODS'
p244
S'METHODS'
p245
S'NNS'
p246
S'B-NP'
p247
g5
tp248
a(S'34'
p249
S'34'
p250
S'CD'
p251
S'B-NP'
p252
g5
tp253
a(S'patients'
p254
S'patient'
p255
S'NNS'
p256
S'I-NP'
p257
g5
tp258
a(g158
g158
g158
g5
g5
tp259
a(S'15'
p260
S'15'
p261
S'CD'
p262
S'B-NP'
p263
g5
tp264
a(S'male'
p265
S'male'
p266
S'JJ'
p267
S'I-NP'
p268
g5
tp269
a(g7
g7
g7
g5
g5
tp270
a(S'19'
p271
S'19'
p272
S'CD'
p273
S'B-NP'
p274
g5
tp275
a(S'female'
p276
S'female'
p277
S'JJ'
p278
S'I-NP'
p279
g5
tp280
a(g165
g165
g165
g5
g5
tp281
a(S'participated'
p282
S'participate'
p283
S'VBN'
p284
S'B-VP'
p285
g5
tp286
a(S'in'
p287
S'in'
p288
S'IN'
p289
S'B-PP'
p290
g5
tp291
a(S'the'
p292
S'the'
p293
S'DT'
p294
S'B-NP'
p295
g5
tp296
a(S'investigation'
p297
S'investigation'
p298
S'NN'
p299
S'I-NP'
p300
g5
tp301
a(g7
g7
g7
g5
g5
tp302
a(S'with'
p303
S'with'
p304
S'IN'
p305
S'B-PP'
p306
g5
tp307
a(S'a'
p308
g308
S'DT'
p309
S'B-NP'
p310
g5
tp311
a(S'total'
p312
S'total'
p313
S'NN'
p314
S'I-NP'
p315
g5
tp316
a(S'of'
p317
S'of'
p318
S'IN'
p319
S'B-PP'
p320
g5
tp321
a(S'68'
p322
S'68'
p323
S'CD'
p324
S'B-NP'
p325
g5
tp326
a(S'PCC'
p327
S'PCC'
p328
S'NN'
p329
S'I-NP'
p330
g5
tp331
a(S'restorations.'
p332
S'restorations.'
p333
S'NN'
p334
S'I-NP'
p335
g5
tp336
a(S'In'
p337
S'In'
p338
S'IN'
p339
S'B-PP'
p340
g5
tp341
a(S'each'
p342
S'each'
p343
S'DT'
p344
S'B-NP'
p345
g5
tp346
a(S'patient'
p347
S'patient'
p348
S'NN'
p349
S'I-NP'
p350
g5
tp351
a(g7
g7
g7
g5
g5
tp352
a(S'one'
p353
S'one'
p354
S'CD'
p355
S'B-NP'
p356
g5
tp357
a(S'PCC'
p358
S'PCC'
p359
S'NN'
p360
S'I-NP'
p361
g5
tp362
a(S'was'
p363
S'be'
p364
S'VBD'
p365
S'B-VP'
p366
g5
tp367
a(S'randomly'
p368
S'randomly'
p369
S'RB'
p370
S'I-VP'
p371
g5
tp372
a(S'assigned'
p373
S'assign'
p374
S'VBN'
p375
S'I-VP'
p376
g5
tp377
a(S'to'
p378
S'to'
p379
S'TO'
p380
S'B-PP'
p381
g5
tp382
a(S'insertion'
p383
S'insertion'
p384
S'NN'
p385
S'B-NP'
p386
g5
tp387
a(S'with'
p388
S'with'
p389
S'IN'
p390
S'B-PP'
p391
g5
tp392
a(S'RXU'
p393
S'RXU'
p394
S'NN'
p395
S'B-NP'
p396
S'B-protein'
p397
tp398
a(g7
g7
g7
g5
g5
tp399
a(S'the'
p400
S'the'
p401
S'DT'
p402
S'B-NP'
p403
g5
tp404
a(S'second'
p405
S'second'
p406
S'JJ'
p407
S'I-NP'
p408
g5
tp409
a(S'PCC'
p410
S'PCC'
p411
S'NN'
p412
S'I-NP'
p413
g5
tp414
a(S'was'
p415
S'be'
p416
S'VBD'
p417
S'B-VP'
p418
g5
tp419
a(S'assigned'
p420
S'assign'
p421
S'VBN'
p422
S'I-VP'
p423
g5
tp424
a(S'to'
p425
S'to'
p426
S'TO'
p427
S'B-PP'
p428
g5
tp429
a(S'insertion'
p430
S'insertion'
p431
S'NN'
p432
S'B-NP'
p433
g5
tp434
a(S'with'
p435
S'with'
p436
S'IN'
p437
S'B-PP'
p438
g5
tp439
a(S'RXU+E.'
p440
S'RXU+E.'
p441
S'NNP'
p442
S'B-NP'
p443
g5
tp444
a(S'The'
p445
S'The'
p446
S'DT'
p447
S'B-NP'
p448
g5
tp449
a(S'PCCs'
p450
S'PCC'
p451
S'NNS'
p452
S'I-NP'
p453
S'B-cell_type'
p454
tp455
a(S'were'
p456
S'be'
p457
S'VBD'
p458
S'B-VP'
p459
g5
tp460
a(S'CAD/CAM'
p461
S'CAD/CAM'
p462
S'NN'
p463
S'I-VP'
p464
g5
tp465
a(S'fabricated'
p466
S'fabricate'
p467
S'VBN'
p468
S'I-VP'
p469
g5
tp470
a(S'using'
p471
S'use'
p472
S'VBG'
p473
S'B-VP'
p474
g5
tp475
a(S'the'
p476
S'the'
p477
S'DT'
p478
S'B-NP'
p479
g5
tp480
a(S'Cerec'
p481
S'Cerec'
p482
S'NN'
p483
S'I-NP'
p484
g5
tp485
a(S'3'
p486
g486
S'CD'
p487
S'I-NP'
p488
g5
tp489
a(S'system.'
p490
S'system.'
p491
S'NN'
p492
S'I-NP'
p493
g5
tp494
a(S'RXU'
p495
S'RXU'
p496
S'NN'
p497
S'I-NP'
p498
g5
tp499
a(S':'
p500
g500
g500
g5
g5
tp501
a(S'25'
p502
S'25'
p503
S'CD'
p504
S'B-NP'
p505
g5
tp506
a(S'PCCs'
p507
S'PCC'
p508
S'NNS'
p509
S'I-NP'
p510
g5
tp511
a(S'were'
p512
S'be'
p513
S'VBD'
p514
S'B-VP'
p515
g5
tp516
a(S'placed'
p517
S'place'
p518
S'VBN'
p519
S'I-VP'
p520
g5
tp521
a(S'in'
p522
S'in'
p523
S'IN'
p524
S'B-PP'
p525
g5
tp526
a(S'molars'
p527
S'molar'
p528
S'NNS'
p529
S'B-NP'
p530
g5
tp531
a(g7
g7
g7
g5
g5
tp532
a(S'nine'
p533
S'nine'
p534
S'CD'
p535
S'B-NP'
p536
g5
tp537
a(S'in'
p538
S'in'
p539
S'IN'
p540
S'B-PP'
p541
g5
tp542
a(S'premolars.'
p543
S'premolars.'
p544
S'JJ'
p545
S'B-NP'
p546
g5
tp547
a(S'RXU+E'
p548
S'RXU+E'
p549
S'NN'
p550
S'I-NP'
p551
g5
tp552
a(g500
g500
g500
g5
g5
tp553
a(S'26'
p554
S'26'
p555
S'CD'
p556
S'B-NP'
p557
g5
tp558
a(S'PCCs'
p559
S'PCC'
p560
S'NNS'
p561
S'I-NP'
p562
g5
tp563
a(S'were'
p564
S'be'
p565
S'VBD'
p566
S'B-VP'
p567
g5
tp568
a(S'placed'
p569
S'place'
p570
S'VBN'
p571
S'I-VP'
p572
g5
tp573
a(S'in'
p574
S'in'
p575
S'IN'
p576
S'B-PP'
p577
g5
tp578
a(S'molars'
p579
S'molar'
p580
S'NNS'
p581
S'B-NP'
p582
g5
tp583
a(g7
g7
g7
g5
g5
tp584
a(S'eight'
p585
S'eight'
p586
S'CD'
p587
S'B-NP'
p588
g5
tp589
a(S'in'
p590
S'in'
p591
S'IN'
p592
S'B-PP'
p593
g5
tp594
a(S'premolars.'
p595
S'premolars.'
p596
S'NNS'
p597
S'B-NP'
p598
g5
tp599
a(S'The'
p600
S'The'
p601
S'DT'
p602
S'B-NP'
p603
g5
tp604
a(S'restorations'
p605
S'restoration'
p606
S'NNS'
p607
S'I-NP'
p608
g5
tp609
a(S'were'
p610
S'be'
p611
S'VBD'
p612
S'B-VP'
p613
g5
tp614
a(S'clinically'
p615
S'clinically'
p616
S'RB'
p617
S'I-VP'
p618
g5
tp619
a(S'rated'
p620
S'rat'
p621
S'VBN'
p622
S'I-VP'
p623
g5
tp624
a(S'using'
p625
S'use'
p626
S'VBG'
p627
S'I-VP'
p628
g5
tp629
a(S'modified'
p630
S'modify'
p631
S'VBN'
p632
S'B-NP'
p633
g5
tp634
a(S'United'
p635
S'United'
p636
S'NNP'
p637
S'I-NP'
p638
g5
tp639
a(S'States'
p640
S'States'
p641
S'NNP'
p642
S'I-NP'
p643
g5
tp644
a(S'Public'
p645
S'Public'
p646
S'NNP'
p647
S'I-NP'
p648
g5
tp649
a(S'Health'
p650
S'Health'
p651
S'NNP'
p652
S'I-NP'
p653
g5
tp654
a(S'Service'
p655
S'Service'
p656
S'NNP'
p657
S'I-NP'
p658
g5
tp659
a(g158
g158
g158
g5
g5
tp660
a(S'USPHS'
p661
S'USPHS'
p662
S'NNP'
p663
S'B-NP'
p664
g5
tp665
a(g165
g165
g165
g5
g5
tp666
a(S'criteria'
p667
S'criterion'
p668
S'NNS'
p669
S'B-NP'
p670
g5
tp671
a(S'at'
p672
S'at'
p673
S'IN'
p674
S'B-PP'
p675
g5
tp676
a(S'baseline'
p677
S'baseline'
p678
S'NN'
p679
S'B-NP'
p680
g5
tp681
a(g7
g7
g7
g5
g5
tp682
a(S'6'
p683
g683
S'CD'
p684
S'B-NP'
p685
g5
tp686
a(S'and'
p687
S'and'
p688
S'CC'
p689
S'I-NP'
p690
g5
tp691
a(S'12'
p692
S'12'
p693
S'CD'
p694
S'I-NP'
p695
g5
tp696
a(S'months'
p697
S'month'
p698
S'NNS'
p699
S'I-NP'
p700
g5
tp701
a(S'after'
p702
S'after'
p703
S'IN'
p704
S'B-SBAR'
p705
g5
tp706
a(S'placement.'
p707
S'placement.'
p708
S'NN'
p709
S'B-NP'
p710
g5
tp711
a(S'The'
p712
S'The'
p713
S'DT'
p714
S'B-NP'
p715
g5
tp716
a(S'median'
p717
S'median'
p718
S'JJ'
p719
S'I-NP'
p720
g5
tp721
a(S'patient'
p722
S'patient'
p723
S'NN'
p724
S'I-NP'
p725
g5
tp726
a(S'age'
p727
S'age'
p728
S'NN'
p729
S'I-NP'
p730
g5
tp731
a(S'was'
p732
S'be'
p733
S'VBD'
p734
S'B-VP'
p735
g5
tp736
a(S'41'
p737
S'41'
p738
S'CD'
p739
S'B-NP'
p740
g5
tp741
a(S'years'
p742
S'year'
p743
S'NNS'
p744
S'I-NP'
p745
g5
tp746
a(g158
g158
g158
g5
g5
tp747
a(S'24-59'
p748
S'24-59'
p749
S'CD'
p750
S'B-NP'
p751
g5
tp752
a(S'years'
p753
S'year'
p754
S'NNS'
p755
S'I-NP'
p756
g5
tp757
a(g165
g165
g165
g5
g5
tp758
a(g111
g111
g111
g5
g5
tp759
a(S'The'
p760
S'The'
p761
S'DT'
p762
S'B-NP'
p763
g5
tp764
a(S'median'
p765
S'median'
p766
S'JJ'
p767
S'I-NP'
p768
g5
tp769
a(g158
g158
g158
g5
g5
tp770
a(S'25-75'
p771
S'25-75'
p772
S'CD'
p773
S'B-NP'
p774
g5
tp775
a(S'%'
p776
g776
S'NN'
p777
S'I-NP'
p778
g5
tp779
a(g165
g165
g165
g5
g5
tp780
a(S'PBI'
p781
S'PBI'
p782
S'NN'
p783
S'B-NP'
p784
g5
tp785
a(S'was'
p786
S'be'
p787
S'VBD'
p788
S'B-VP'
p789
g5
tp790
a(g683
g683
S'CD'
p791
S'B-NP'
p792
g5
tp793
a(g776
g776
S'NN'
p794
S'I-NP'
p795
g5
tp796
a(g158
g158
g158
g5
g5
tp797
a(S'3-9'
p798
S'3-9'
p799
S'CD'
p800
S'B-NP'
p801
g5
tp802
a(g776
g776
S'NN'
p803
S'I-NP'
p804
g5
tp805
a(g165
g165
g165
g5
g5
tp806
a(g111
g111
g111
g5
g5
tp807
a(S'RESULTS'
p808
S'RESULTS'
p809
S'NNS'
p810
S'B-NP'
p811
g5
tp812
a(S'All'
p813
S'All'
p814
S'DT'
p815
S'B-NP'
p816
g5
tp817
a(S'patients'
p818
S'patient'
p819
S'NNS'
p820
S'I-NP'
p821
g5
tp822
a(S'were'
p823
S'be'
p824
S'VBD'
p825
S'B-VP'
p826
g5
tp827
a(S'available'
p828
S'available'
p829
S'JJ'
p830
S'B-ADJP'
p831
g5
tp832
a(S'for'
p833
S'for'
p834
S'IN'
p835
S'B-PP'
p836
g5
tp837
a(S'the'
p838
S'the'
p839
S'DT'
p840
S'B-NP'
p841
g5
tp842
a(S'three'
p843
S'three'
p844
S'CD'
p845
S'I-NP'
p846
g5
tp847
a(S'recall'
p848
S'recall'
p849
S'NN'
p850
S'I-NP'
p851
g5
tp852
a(S'appointments.'
p853
S'appointments.'
p854
S'NN'
p855
S'I-NP'
p856
g5
tp857
a(S'One'
p858
S'One'
p859
S'CD'
p860
S'I-NP'
p861
g5
tp862
a(S'PCC'
p863
S'PCC'
p864
S'NN'
p865
S'I-NP'
p866
g5
tp867
a(g158
g158
g158
g5
g5
tp868
a(S'RXU'
p869
S'RXU'
p870
S'NN'
p871
S'B-NP'
p872
g5
tp873
a(g165
g165
g165
g5
g5
tp874
a(S'debonded'
p875
S'debonde'
p876
S'VBD'
p877
S'B-VP'
p878
g5
tp879
a(S'after'
p880
S'after'
p881
S'IN'
p882
S'B-PP'
p883
g5
tp884
a(S'11'
p885
S'11'
p886
S'CD'
p887
S'B-NP'
p888
g5
tp889
a(S'months'
p890
S'month'
p891
S'NNS'
p892
S'I-NP'
p893
g5
tp894
a(S'in'
p895
S'in'
p896
S'FW'
p897
S'B-ADVP'
p898
g5
tp899
a(S'situ'
p900
S'situ'
p901
S'FW'
p902
S'I-ADVP'
p903
g5
tp904
a(g7
g7
g7
g5
g5
tp905
a(S'one'
p906
S'one'
p907
S'CD'
p908
S'B-NP'
p909
g5
tp910
a(S'PCC'
p911
S'PCC'
p912
S'NN'
p913
S'I-NP'
p914
g5
tp915
a(g158
g158
g158
g5
g5
tp916
a(S'RXU+E'
p917
S'RXU+E'
p918
S'NN'
p919
S'B-NP'
p920
g5
tp921
a(g165
g165
g165
g5
g5
tp922
a(S'fractured'
p923
S'fracture'
p924
S'VBD'
p925
S'B-VP'
p926
g5
tp927
a(S'after'
p928
S'after'
p929
S'IN'
p930
S'B-PP'
p931
g5
tp932
a(S'12'
p933
S'12'
p934
S'CD'
p935
S'B-NP'
p936
g5
tp937
a(S'months'
p938
S'month'
p939
S'NNS'
p940
S'I-NP'
p941
g5
tp942
a(S'in'
p943
S'in'
p944
S'IN'
p945
S'B-PP'
p946
g5
tp947
a(S'situ.'
p948
S'situ.'
p949
S'PDT'
p950
S'B-NP'
p951
g5
tp952
a(S'Both'
p953
S'Both'
p954
S'DT'
p955
S'I-NP'
p956
g5
tp957
a(S'restorations'
p958
S'restoration'
p959
S'NNS'
p960
S'I-NP'
p961
g5
tp962
a(S'had'
p963
S'have'
p964
S'VBD'
p965
S'B-VP'
p966
g5
tp967
a(S'to'
p968
S'to'
p969
S'TO'
p970
S'I-VP'
p971
g5
tp972
a(S'be'
p973
S'be'
p974
S'VB'
p975
S'I-VP'
p976
g5
tp977
a(S'replaced.'
p978
S'replaced.'
p979
S'VBN'
p980
S'I-VP'
p981
g5
tp982
a(S'At'
p983
S'At'
p984
S'IN'
p985
S'B-PP'
p986
g5
tp987
a(S'the'
p988
S'the'
p989
S'DT'
p990
S'B-NP'
p991
g5
tp992
a(S'12'
p993
S'12'
p994
S'CD'
p995
S'I-NP'
p996
g5
tp997
a(S'months'
p998
S'month'
p999
S'NNS'
p1000
S'I-NP'
p1001
g5
tp1002
a(S'recall'
p1003
S'recall'
p1004
S'VBP'
p1005
S'B-VP'
p1006
g5
tp1007
a(g7
g7
g7
g5
g5
tp1008
a(S'66'
p1009
S'66'
p1010
S'CD'
p1011
S'B-NP'
p1012
g5
tp1013
a(S'of'
p1014
S'of'
p1015
S'IN'
p1016
S'B-PP'
p1017
g5
tp1018
a(S'68'
p1019
S'68'
p1020
S'CD'
p1021
S'B-NP'
p1022
g5
tp1023
a(S'controlled'
p1024
S'controlled'
p1025
S'JJ'
p1026
S'I-NP'
p1027
g5
tp1028
a(S'restorations'
p1029
S'restoration'
p1030
S'NNS'
p1031
S'I-NP'
p1032
g5
tp1033
a(S'were'
p1034
S'be'
p1035
S'VBD'
p1036
S'B-VP'
p1037
g5
tp1038
a(S'functional'
p1039
S'functional'
p1040
S'JJ'
p1041
S'B-ADJP'
p1042
g5
tp1043
a(S'without'
p1044
S'without'
p1045
S'IN'
p1046
S'B-PP'
p1047
g5
tp1048
a(S'need'
p1049
S'need'
p1050
S'NN'
p1051
S'B-NP'
p1052
g5
tp1053
a(S'of'
p1054
S'of'
p1055
S'IN'
p1056
S'B-PP'
p1057
g5
tp1058
a(S'replacement.'
p1059
S'replacement.'
p1060
S'NN'
p1061
S'B-NP'
p1062
g5
tp1063
a(S'The'
p1064
S'The'
p1065
S'DT'
p1066
S'B-NP'
p1067
g5
tp1068
a(S'evaluation'
p1069
S'evaluation'
p1070
S'NN'
p1071
S'I-NP'
p1072
g5
tp1073
a(S'using'
p1074
S'use'
p1075
S'VBG'
p1076
S'B-VP'
p1077
g5
tp1078
a(S'USHPS'
p1079
S'USHPS'
p1080
S'NNP'
p1081
S'B-NP'
p1082
g5
tp1083
a(S'criteria'
p1084
S'criterion'
p1085
S'NNS'
p1086
S'I-NP'
p1087
g5
tp1088
a(S'revealed'
p1089
S'reveal'
p1090
S'VBD'
p1091
S'B-VP'
p1092
g5
tp1093
a(g308
g308
S'DT'
p1094
S'B-NP'
p1095
g5
tp1096
a(S'significant'
p1097
S'significant'
p1098
S'JJ'
p1099
S'I-NP'
p1100
g5
tp1101
a(S'decrease'
p1102
S'decrease'
p1103
S'NN'
p1104
S'I-NP'
p1105
g5
tp1106
a(S'of'
p1107
S'of'
p1108
S'IN'
p1109
S'B-PP'
p1110
g5
tp1111
a(S'alfa'
p1112
S'alfa'
p1113
S'NN'
p1114
S'B-NP'
p1115
g5
tp1116
a(S'ratings'
p1117
S'rating'
p1118
S'NNS'
p1119
S'I-NP'
p1120
g5
tp1121
a(S'over'
p1122
S'over'
p1123
S'IN'
p1124
S'B-PP'
p1125
g5
tp1126
a(S'time'
p1127
S'time'
p1128
S'NN'
p1129
S'B-NP'
p1130
g5
tp1131
a(S'with'
p1132
S'with'
p1133
S'IN'
p1134
S'B-PP'
p1135
g5
tp1136
a(S'respect'
p1137
S'respect'
p1138
S'NN'
p1139
S'B-NP'
p1140
g5
tp1141
a(S'to'
p1142
S'to'
p1143
S'TO'
p1144
S'B-PP'
p1145
g5
tp1146
a(S'criteria'
p1147
S'criterion'
p1148
S'NNS'
p1149
S'B-NP'
p1150
g5
tp1151
a(S'marginal'
p1152
S'marginal'
p1153
S'JJ'
p1154
S'B-NP'
p1155
g5
tp1156
a(S'adaptation'
p1157
S'adaptation'
p1158
S'NN'
p1159
S'I-NP'
p1160
g5
tp1161
a(S'and'
p1162
S'and'
p1163
S'CC'
p1164
g5
g5
tp1165
a(S'marginal'
p1166
S'marginal'
p1167
S'JJ'
p1168
S'B-NP'
p1169
g5
tp1170
a(S'discoloration.'
p1171
S'discoloration.'
p1172
S'NN'
p1173
S'I-NP'
p1174
g5
tp1175
a(S'No'
p1176
S'No'
p1177
S'NNP'
p1178
S'I-NP'
p1179
g5
tp1180
a(S'statistically'
p1181
S'statistically'
p1182
S'RB'
p1183
S'B-NP'
p1184
g5
tp1185
a(S'significant'
p1186
S'significant'
p1187
S'JJ'
p1188
S'I-NP'
p1189
g5
tp1190
a(S'differences'
p1191
S'difference'
p1192
S'NNS'
p1193
S'I-NP'
p1194
g5
tp1195
a(S'between'
p1196
S'between'
p1197
S'IN'
p1198
S'B-PP'
p1199
g5
tp1200
a(S'the'
p1201
S'the'
p1202
S'DT'
p1203
S'B-NP'
p1204
g5
tp1205
a(S'two'
p1206
S'two'
p1207
S'CD'
p1208
S'I-NP'
p1209
g5
tp1210
a(S'luting'
p1211
S'lute'
p1212
S'VBG'
p1213
S'I-NP'
p1214
g5
tp1215
a(S'techniques'
p1216
S'technique'
p1217
S'NNS'
p1218
S'I-NP'
p1219
g5
tp1220
a(g7
g7
g7
g5
g5
tp1221
a(S'RXU'
p1222
S'RXU'
p1223
S'NN'
p1224
S'B-NP'
p1225
S'B-protein'
p1226
tp1227
a(S'and'
p1228
S'and'
p1229
S'CC'
p1230
S'I-NP'
p1231
g5
tp1232
a(S'RXU+E'
p1233
S'RXU+E'
p1234
S'NN'
p1235
S'I-NP'
p1236
S'B-protein'
p1237
tp1238
a(g7
g7
g7
g5
g5
tp1239
a(S'we'
p1240
S'we'
p1241
S'PRP'
p1242
S'B-NP'
p1243
g5
tp1244
a(S'reobserved'
p1245
S'reobserve'
p1246
S'VBD'
p1247
S'B-VP'
p1248
g5
tp1249
a(S'during'
p1250
S'during'
p1251
S'IN'
p1252
S'B-PP'
p1253
g5
tp1254
a(S'the'
p1255
S'the'
p1256
S'DT'
p1257
S'B-NP'
p1258
g5
tp1259
a(S'observation'
p1260
S'observation'
p1261
S'NN'
p1262
S'I-NP'
p1263
g5
tp1264
a(S'period'
p1265
S'period'
p1266
S'NN'
p1267
S'I-NP'
p1268
g5
tp1269
a(S'of'
p1270
S'of'
p1271
S'IN'
p1272
S'B-PP'
p1273
g5
tp1274
a(S'1'
p1275
g1275
S'CD'
p1276
S'B-NP'
p1277
g5
tp1278
a(S'year.'
p1279
S'year.'
p1280
S'NN'
p1281
S'I-NP'
p1282
g5
tp1283
a(S'Within'
p1284
S'Within'
p1285
S'IN'
p1286
S'B-PP'
p1287
g5
tp1288
a(S'the'
p1289
S'the'
p1290
S'DT'
p1291
S'B-NP'
p1292
g5
tp1293
a(S'limitations'
p1294
S'limitation'
p1295
S'NNS'
p1296
S'I-NP'
p1297
g5
tp1298
a(S'of'
p1299
S'of'
p1300
S'IN'
p1301
S'B-PP'
p1302
g5
tp1303
a(S'the'
p1304
S'the'
p1305
S'DT'
p1306
S'B-NP'
p1307
g5
tp1308
a(S'present'
p1309
S'present'
p1310
S'JJ'
p1311
S'I-NP'
p1312
g5
tp1313
a(S'study'
p1314
S'study'
p1315
S'NN'
p1316
S'I-NP'
p1317
g5
tp1318
a(g7
g7
g7
g5
g5
tp1319
a(S'adhesive'
p1320
S'adhesive'
p1321
S'JJ'
p1322
S'B-NP'
p1323
g5
tp1324
a(S'luting'
p1325
S'luting'
p1326
S'NN'
p1327
S'I-NP'
p1328
g5
tp1329
a(S'with'
p1330
S'with'
p1331
S'IN'
p1332
S'B-PP'
p1333
g5
tp1334
a(S'RXU'
p1335
S'RXU'
p1336
S'NN'
p1337
S'B-NP'
p1338
S'B-protein'
p1339
tp1340
a(S'with'
p1341
S'with'
p1342
S'IN'
p1343
S'B-PP'
p1344
g5
tp1345
a(S'or'
p1346
S'or'
p1347
S'CC'
p1348
S'B-PP'
p1349
g5
tp1350
a(S'without'
p1351
S'without'
p1352
S'IN'
p1353
S'B-PP'
p1354
g5
tp1355
a(S'selective'
p1356
S'selective'
p1357
S'JJ'
p1358
S'B-NP'
p1359
g5
tp1360
a(S'enamel'
p1361
S'enamel'
p1362
S'NN'
p1363
S'I-NP'
p1364
g5
tp1365
a(S'etching'
p1366
S'etching'
p1367
S'NN'
p1368
S'I-NP'
p1369
g5
tp1370
a(S'can'
p1371
S'can'
p1372
S'MD'
p1373
S'B-VP'
p1374
g5
tp1375
a(S'be'
p1376
S'be'
p1377
S'VB'
p1378
S'I-VP'
p1379
g5
tp1380
a(S'recommended'
p1381
S'recommend'
p1382
S'VBN'
p1383
S'I-VP'
p1384
g5
tp1385
a(g111
g111
g111
g5
g5
tp1386
a.