(lp0
(S'Proposed'
p1
S'Propose'
p2
S'VBN'
p3
S'B-NP'
p4
S'O'
p5
tp6
a(S'synergistic'
p7
S'synergistic'
p8
S'JJ'
p9
S'I-NP'
p10
g5
tp11
a(S'effect'
p12
S'effect'
p13
S'NN'
p14
S'I-NP'
p15
g5
tp16
a(S'of'
p17
S'of'
p18
S'IN'
p19
S'B-PP'
p20
g5
tp21
a(S'calcium'
p22
S'calcium'
p23
S'NN'
p24
S'B-NP'
p25
g5
tp26
a(S'channel'
p27
S'channel'
p28
S'NN'
p29
S'I-NP'
p30
g5
tp31
a(S'blockers'
p32
S'blocker'
p33
S'NNS'
p34
S'I-NP'
p35
g5
tp36
a(S'with'
p37
S'with'
p38
S'IN'
p39
S'B-PP'
p40
g5
tp41
a(S'lipid-lowering'
p42
S'lipid-lowering'
p43
S'JJ'
p44
S'B-NP'
p45
g5
tp46
a(S'therapy'
p47
S'therapy'
p48
S'NN'
p49
S'I-NP'
p50
g5
tp51
a(S'in'
p52
S'in'
p53
S'IN'
p54
S'B-PP'
p55
g5
tp56
a(S'retarding'
p57
S'retard'
p58
S'VBG'
p59
S'B-VP'
p60
g5
tp61
a(S'progression'
p62
S'progression'
p63
S'NN'
p64
S'B-NP'
p65
g5
tp66
a(S'of'
p67
S'of'
p68
S'IN'
p69
S'B-PP'
p70
g5
tp71
a(S'coronary'
p72
S'coronary'
p73
S'JJ'
p74
S'B-NP'
p75
g5
tp76
a(S'atherosclerosis'
p77
S'atherosclerosis'
p78
S'NN'
p79
S'I-NP'
p80
g5
tp81
a(S'.'
p82
g82
g82
g5
g5
tp83
a(S'Lipid-lowering'
p84
S'Lipid-lowering'
p85
S'JJ'
p86
S'B-NP'
p87
g5
tp88
a(S'therapy'
p89
S'therapy'
p90
S'NN'
p91
S'I-NP'
p92
g5
tp93
a(S'now'
p94
S'now'
p95
S'RB'
p96
S'B-ADVP'
p97
g5
tp98
a(S'has'
p99
S'have'
p100
S'VBZ'
p101
S'B-VP'
p102
g5
tp103
a(S'undoubtedly'
p104
S'undoubtedly'
p105
S'RB'
p106
S'I-VP'
p107
g5
tp108
a(S'proven'
p109
S'prove'
p110
S'VBN'
p111
S'I-VP'
p112
g5
tp113
a(S'to'
p114
S'to'
p115
S'TO'
p116
S'I-VP'
p117
g5
tp118
a(S'be'
p119
S'be'
p120
S'VB'
p121
S'I-VP'
p122
g5
tp123
a(S'an'
p124
S'an'
p125
S'DT'
p126
S'B-NP'
p127
g5
tp128
a(S'effective'
p129
S'effective'
p130
S'JJ'
p131
S'I-NP'
p132
g5
tp133
a(S'therapeutic'
p134
S'therapeutic'
p135
S'JJ'
p136
S'I-NP'
p137
g5
tp138
a(S'modality'
p139
S'modality'
p140
S'NN'
p141
S'I-NP'
p142
g5
tp143
a(S'to'
p144
S'to'
p145
S'TO'
p146
S'B-VP'
p147
g5
tp148
a(S'retard'
p149
S'retard'
p150
S'VB'
p151
S'I-VP'
p152
g5
tp153
a(S'the'
p154
S'the'
p155
S'DT'
p156
S'B-NP'
p157
g5
tp158
a(S'progression'
p159
S'progression'
p160
S'NN'
p161
S'I-NP'
p162
g5
tp163
a(S'of'
p164
S'of'
p165
S'IN'
p166
S'B-PP'
p167
g5
tp168
a(S'coronary'
p169
S'coronary'
p170
S'JJ'
p171
S'B-NP'
p172
g5
tp173
a(S'atherosclerosis.'
p174
S'atherosclerosis.'
p175
S'NN'
p176
S'I-NP'
p177
g5
tp178
a(S'An'
p179
S'An'
p180
S'DT'
p181
S'B-NP'
p182
g5
tp183
a(S'additional'
p184
S'additional'
p185
S'JJ'
p186
S'I-NP'
p187
g5
tp188
a(S'approach'
p189
S'approach'
p190
S'NN'
p191
S'I-NP'
p192
g5
tp193
a(S'for'
p194
S'for'
p195
S'IN'
p196
S'B-PP'
p197
g5
tp198
a(S'prevention'
p199
S'prevention'
p200
S'NN'
p201
S'B-NP'
p202
g5
tp203
a(S'of'
p204
S'of'
p205
S'IN'
p206
S'B-PP'
p207
g5
tp208
a(S'the'
p209
S'the'
p210
S'DT'
p211
S'B-NP'
p212
g5
tp213
a(S'progression'
p214
S'progression'
p215
S'NN'
p216
S'I-NP'
p217
g5
tp218
a(S'of'
p219
S'of'
p220
S'IN'
p221
S'B-PP'
p222
g5
tp223
a(S'atherosclerosis'
p224
S'atherosclerosis'
p225
S'NN'
p226
S'B-NP'
p227
g5
tp228
a(S'is'
p229
S'be'
p230
S'VBZ'
p231
S'B-VP'
p232
g5
tp233
a(S'calcium'
p234
S'calcium'
p235
S'NN'
p236
S'B-NP'
p237
g5
tp238
a(S'channel'
p239
S'channel'
p240
S'NN'
p241
S'I-NP'
p242
g5
tp243
a(S'blocker'
p244
S'blocker'
p245
S'NN'
p246
S'I-NP'
p247
g5
tp248
a(S'('
p249
g249
g249
g5
g5
tp250
a(S'CCB'
p251
S'CCB'
p252
S'NN'
p253
S'B-NP'
p254
S'B-protein'
p255
tp256
a(S')'
p257
g257
g257
g5
g5
tp258
a(S'treatment.'
p259
S'treatment.'
p260
S'NN'
p261
S'B-NP'
p262
g5
tp263
a(S'Evidence'
p264
S'Evidence'
p265
S'NN'
p266
S'I-NP'
p267
g5
tp268
a(S'indicating'
p269
S'indicate'
p270
S'VBG'
p271
S'B-VP'
p272
g5
tp273
a(S'that'
p274
S'that'
p275
S'IN'
p276
S'B-SBAR'
p277
g5
tp278
a(S'CCBs'
p279
S'CCB'
p280
S'NNS'
p281
S'B-NP'
p282
S'B-protein'
p283
tp284
a(S'inhibit'
p285
S'inhibit'
p286
S'VBP'
p287
S'B-VP'
p288
g5
tp289
a(S'atherosclerosis'
p290
S'atherosclerosis'
p291
S'NN'
p292
S'B-NP'
p293
g5
tp294
a(S'is'
p295
S'be'
p296
S'VBZ'
p297
S'B-VP'
p298
g5
tp299
a(S'less'
p300
S'less'
p301
S'RBR'
p302
S'B-ADJP'
p303
g5
tp304
a(S'unequivocal'
p305
S'unequivocal'
p306
S'JJ'
p307
S'I-ADJP'
p308
g5
tp309
a(S'than'
p310
S'than'
p311
S'IN'
p312
S'B-PP'
p313
g5
tp314
a(S'the'
p315
S'the'
p316
S'DT'
p317
S'B-NP'
p318
g5
tp319
a(S'clear'
p320
S'clear'
p321
S'JJ'
p322
S'I-NP'
p323
g5
tp324
a(S'evidence'
p325
S'evidence'
p326
S'NN'
p327
S'I-NP'
p328
g5
tp329
a(S'for'
p330
S'for'
p331
S'IN'
p332
S'B-PP'
p333
g5
tp334
a(S'lipid-lowering'
p335
S'lipid-lowering'
p336
S'JJ'
p337
S'B-NP'
p338
g5
tp339
a(S'therapy.'
p340
S'therapy.'
p341
S'NN'
p342
S'I-NP'
p343
g5
tp344
a(S'Many'
p345
S'Many'
p346
S'JJ'
p347
S'I-NP'
p348
g5
tp349
a(S'investigations'
p350
S'investigation'
p351
S'NNS'
p352
S'I-NP'
p353
g5
tp354
a(S'support'
p355
S'support'
p356
S'VBP'
p357
S'B-VP'
p358
g5
tp359
a(S'the'
p360
S'the'
p361
S'DT'
p362
S'B-NP'
p363
g5
tp364
a(S'view'
p365
S'view'
p366
S'NN'
p367
S'I-NP'
p368
g5
tp369
a(S'that'
p370
S'that'
p371
S'IN'
p372
S'B-SBAR'
p373
g5
tp374
a(S'a'
p375
g375
S'DT'
p376
S'B-NP'
p377
g5
tp378
a(S'number'
p379
S'number'
p380
S'NN'
p381
S'I-NP'
p382
g5
tp383
a(S'of'
p384
S'of'
p385
S'IN'
p386
S'B-PP'
p387
g5
tp388
a(S'key'
p389
S'key'
p390
S'JJ'
p391
S'B-NP'
p392
g5
tp393
a(S'processes'
p394
S'process'
p395
S'NNS'
p396
S'I-NP'
p397
g5
tp398
a(S'in'
p399
S'in'
p400
S'IN'
p401
S'B-PP'
p402
g5
tp403
a(S'atherosclerosis'
p404
S'atherosclerosis'
p405
S'NN'
p406
S'B-NP'
p407
g5
tp408
a(S'may'
p409
S'may'
p410
S'MD'
p411
S'B-VP'
p412
g5
tp413
a(S'be'
p414
S'be'
p415
S'VB'
p416
S'I-VP'
p417
g5
tp418
a(S'influenced'
p419
S'influence'
p420
S'VBN'
p421
S'I-VP'
p422
g5
tp423
a(S'by'
p424
S'by'
p425
S'IN'
p426
S'B-PP'
p427
g5
tp428
a(S'CCBs.'
p429
S'CCBs.'
p430
S'NN'
p431
S'B-NP'
p432
S'B-protein'
p433
tp434
a(S'From'
p435
S'From'
p436
S'IN'
p437
S'B-PP'
p438
g5
tp439
a(S'the'
p440
S'the'
p441
S'DT'
p442
S'B-NP'
p443
g5
tp444
a(S'``'
p445
S'``'
p446
S'``'
p447
S'I-NP'
p448
g5
tp449
a(S'negative'
p450
S'negative'
p451
S'JJ'
p452
S'I-NP'
p453
g5
tp454
a(S"''"
p455
S"''"
p456
S"''"
p457
S'I-NP'
p458
g5
tp459
a(S'and'
p460
S'and'
p461
S'CC'
p462
S'I-NP'
p463
g5
tp464
a(S'``'
p465
S'``'
p466
S'``'
p467
S'I-NP'
p468
g5
tp469
a(S'positive'
p470
S'positive'
p471
S'JJ'
p472
S'I-NP'
p473
g5
tp474
a(S"''"
p475
S"''"
p476
S"''"
p477
S'I-NP'
p478
g5
tp479
a(S'studies'
p480
S'study'
p481
S'NNS'
p482
S'I-NP'
p483
g5
tp484
a(S'with'
p485
S'with'
p486
S'IN'
p487
S'B-PP'
p488
g5
tp489
a(S'CCBs'
p490
S'CCB'
p491
S'NNS'
p492
S'B-NP'
p493
S'B-protein'
p494
tp495
a(S'performed'
p496
S'perform'
p497
S'VBN'
p498
S'B-VP'
p499
g5
tp500
a(S'in'
p501
S'in'
p502
S'IN'
p503
S'B-PP'
p504
g5
tp505
a(S'animals'
p506
S'animal'
p507
S'NNS'
p508
S'B-NP'
p509
g5
tp510
a(S'and'
p511
S'and'
p512
S'CC'
p513
S'I-NP'
p514
g5
tp515
a(S'humans'
p516
S'human'
p517
S'NNS'
p518
S'I-NP'
p519
g5
tp520
a(S'we'
p521
S'we'
p522
S'PRP'
p523
S'B-NP'
p524
g5
tp525
a(S'must'
p526
S'must'
p527
S'MD'
p528
S'B-VP'
p529
g5
tp530
a(S'conclude'
p531
S'conclude'
p532
S'VB'
p533
S'I-VP'
p534
g5
tp535
a(S'that'
p536
S'that'
p537
S'IN'
p538
S'B-SBAR'
p539
g5
tp540
a(S'apparently'
p541
S'apparently'
p542
S'RB'
p543
S'B-NP'
p544
g5
tp545
a(S'some'
p546
S'some'
p547
S'DT'
p548
S'I-NP'
p549
g5
tp550
a(S','
p551
g551
g551
g5
g5
tp552
a(S'but'
p553
S'but'
p554
S'CC'
p555
g5
g5
tp556
a(S'not'
p557
S'not'
p558
S'RB'
p559
S'B-NP'
p560
g5
tp561
a(S'all'
p562
S'all'
p563
S'DT'
p564
S'I-NP'
p565
g5
tp566
a(g551
g551
g551
g5
g5
tp567
a(S'types'
p568
S'type'
p569
S'NNS'
p570
S'B-NP'
p571
g5
tp572
a(S'or'
p573
S'or'
p574
S'CC'
p575
S'I-NP'
p576
g5
tp577
a(S'stages'
p578
S'stage'
p579
S'NNS'
p580
S'I-NP'
p581
g5
tp582
a(S'of'
p583
S'of'
p584
S'IN'
p585
S'B-PP'
p586
g5
tp587
a(S'the'
p588
S'the'
p589
S'DT'
p590
S'B-NP'
p591
g5
tp592
a(S'atherosclerotic'
p593
S'atherosclerotic'
p594
S'JJ'
p595
S'I-NP'
p596
g5
tp597
a(S'process'
p598
S'process'
p599
S'NN'
p600
S'I-NP'
p601
g5
tp602
a(S'are'
p603
S'be'
p604
S'VBP'
p605
S'B-VP'
p606
g5
tp607
a(S'inhibited'
p608
S'inhibit'
p609
S'VBN'
p610
S'I-VP'
p611
g5
tp612
a(S'by'
p613
S'by'
p614
S'IN'
p615
S'B-PP'
p616
g5
tp617
a(S'CCBs.'
p618
S'CCBs.'
p619
S'NN'
p620
S'B-NP'
p621
g5
tp622
a(S'To'
p623
S'To'
p624
S'TO'
p625
S'B-VP'
p626
g5
tp627
a(S'assess'
p628
S'assess'
p629
S'VB'
p630
S'I-VP'
p631
g5
tp632
a(S'whether'
p633
S'whether'
p634
S'IN'
p635
S'B-SBAR'
p636
g5
tp637
a(S'lipid-lowering'
p638
S'lipid-lowering'
p639
S'JJ'
p640
S'B-NP'
p641
g5
tp642
a(S'therapy'
p643
S'therapy'
p644
S'NN'
p645
S'I-NP'
p646
g5
tp647
a(S'and'
p648
S'and'
p649
S'CC'
p650
g5
g5
tp651
a(S'CCB'
p652
S'CCB'
p653
S'NN'
p654
S'B-NP'
p655
S'B-protein'
p656
tp657
a(S'treatment'
p658
S'treatment'
p659
S'NN'
p660
S'I-NP'
p661
g5
tp662
a(S'may'
p663
S'may'
p664
S'MD'
p665
S'B-VP'
p666
g5
tp667
a(S'have'
p668
S'have'
p669
S'VB'
p670
S'I-VP'
p671
g5
tp672
a(S'an'
p673
S'an'
p674
S'DT'
p675
S'B-NP'
p676
g5
tp677
a(S'additive'
p678
S'additive'
p679
S'JJ'
p680
S'I-NP'
p681
g5
tp682
a(S'or'
p683
S'or'
p684
S'CC'
p685
S'I-NP'
p686
g5
tp687
a(S'synergistic'
p688
S'synergistic'
p689
S'JJ'
p690
S'I-NP'
p691
g5
tp692
a(S'beneficial'
p693
S'beneficial'
p694
S'JJ'
p695
S'I-NP'
p696
g5
tp697
a(S'effect'
p698
S'effect'
p699
S'NN'
p700
S'I-NP'
p701
g5
tp702
a(S'on'
p703
S'on'
p704
S'IN'
p705
S'B-PP'
p706
g5
tp707
a(S'human'
p708
S'human'
p709
S'JJ'
p710
S'B-NP'
p711
g5
tp712
a(S'atherosclerosis'
p713
S'atherosclerosis'
p714
S'NN'
p715
S'I-NP'
p716
g5
tp717
a(g551
g551
g551
g5
g5
tp718
a(S'which'
p719
S'which'
p720
S'WDT'
p721
S'B-NP'
p722
g5
tp723
a(S'is'
p724
S'be'
p725
S'VBZ'
p726
S'B-VP'
p727
g5
tp728
a(S'conceivable'
p729
S'conceivable'
p730
S'JJ'
p731
S'B-ADJP'
p732
g5
tp733
a(S'because'
p734
S'because'
p735
S'IN'
p736
S'B-SBAR'
p737
g5
tp738
a(S'their'
p739
S'their'
p740
S'PRP$'
p741
S'B-NP'
p742
g5
tp743
a(S'anti-atherosclerotic'
p744
S'anti-atherosclerotic'
p745
S'JJ'
p746
S'I-NP'
p747
g5
tp748
a(S'properties'
p749
S'property'
p750
S'NNS'
p751
S'I-NP'
p752
g5
tp753
a(S'differ'
p754
S'differ'
p755
S'VBP'
p756
S'B-VP'
p757
g5
tp758
a(g551
g551
g551
g5
g5
tp759
a(S'data'
p760
S'datum'
p761
S'NNS'
p762
S'B-NP'
p763
g5
tp764
a(S'from'
p765
S'from'
p766
S'IN'
p767
S'B-PP'
p768
g5
tp769
a(S'the'
p770
S'the'
p771
S'DT'
p772
S'B-NP'
p773
g5
tp774
a(S'angiographic'
p775
S'angiographic'
p776
S'JJ'
p777
S'I-NP'
p778
g5
tp779
a(S'lipid-lowering'
p780
S'lipid-lowering'
p781
S'NN'
p782
S'I-NP'
p783
g5
tp784
a(S'trial'
p785
S'trial'
p786
S'NN'
p787
S'I-NP'
p788
g5
tp789
a(S'REGRESS'
p790
S'REGRESS'
p791
S'NN'
p792
S'I-NP'
p793
g5
tp794
a(g249
g249
g249
g5
g5
tp795
a(S'pravastatin'
p796
S'pravastatin'
p797
S'NN'
p798
S'B-NP'
p799
g5
tp800
a(S'vs.'
p801
S'vs.'
p802
S'CC'
p803
g5
g5
tp804
a(S'placebo'
p805
S'placebo'
p806
S'NN'
p807
S'B-NP'
p808
g5
tp809
a(g257
g257
g257
g5
g5
tp810
a(S'were'
p811
S'be'
p812
S'VBD'
p813
S'B-VP'
p814
g5
tp815
a(S'reviewed.'
p816
S'reviewed.'
p817
S'VBN'
p818
S'I-VP'
p819
g5
tp820
a(S'In'
p821
S'In'
p822
S'IN'
p823
S'B-PP'
p824
g5
tp825
a(S'REGRESS'
p826
S'REGRESS'
p827
S'NN'
p828
S'B-NP'
p829
g5
tp830
a(g551
g551
g551
g5
g5
tp831
a(S'patients'
p832
S'patient'
p833
S'NNS'
p834
S'B-NP'
p835
g5
tp836
a(S'in'
p837
S'in'
p838
S'IN'
p839
S'B-PP'
p840
g5
tp841
a(S'the'
p842
S'the'
p843
S'DT'
p844
S'B-NP'
p845
g5
tp846
a(S'pravastatin'
p847
S'pravastatin'
p848
S'NN'
p849
S'I-NP'
p850
g5
tp851
a(S'group'
p852
S'group'
p853
S'NN'
p854
S'I-NP'
p855
g5
tp856
a(S'had'
p857
S'have'
p858
S'VBD'
p859
S'B-VP'
p860
g5
tp861
a(S'significantly'
p862
S'significantly'
p863
S'RB'
p864
S'B-NP'
p865
g5
tp866
a(S'less'
p867
S'less'
p868
S'JJR'
p869
S'I-NP'
p870
g5
tp871
a(S'progression'
p872
S'progression'
p873
S'NN'
p874
S'I-NP'
p875
g5
tp876
a(S'if'
p877
S'if'
p878
S'IN'
p879
S'B-SBAR'
p880
g5
tp881
a(S'cotreated'
p882
S'cotreate'
p883
S'VBN'
p884
S'B-VP'
p885
g5
tp886
a(S'with'
p887
S'with'
p888
S'IN'
p889
S'B-PP'
p890
g5
tp891
a(S'CCBs'
p892
S'CCB'
p893
S'NNS'
p894
S'B-NP'
p895
S'B-protein'
p896
tp897
a(S'as'
p898
S'as'
p899
S'IN'
p900
S'B-SBAR'
p901
g5
tp902
a(S'compared'
p903
S'compare'
p904
S'VBN'
p905
S'B-PP'
p906
g5
tp907
a(S'with'
p908
S'with'
p909
S'IN'
p910
S'B-PP'
p911
g5
tp912
a(S'those'
p913
S'those'
p914
S'DT'
p915
S'B-NP'
p916
g5
tp917
a(S'with'
p918
S'with'
p919
S'IN'
p920
S'B-PP'
p921
g5
tp922
a(S'no'
p923
S'no'
p924
S'DT'
p925
S'B-NP'
p926
g5
tp927
a(S'CCB'
p928
S'CCB'
p929
S'NN'
p930
S'I-NP'
p931
g5
tp932
a(S'cotreatment'
p933
S'cotreatment'
p934
S'NN'
p935
S'I-NP'
p936
g5
tp937
a(g551
g551
g551
g5
g5
tp938
a(S'whereas'
p939
S'whereas'
p940
S'IN'
p941
g5
g5
tp942
a(S'in'
p943
S'in'
p944
S'IN'
p945
S'B-PP'
p946
g5
tp947
a(S'the'
p948
S'the'
p949
S'DT'
p950
S'B-NP'
p951
g5
tp952
a(S'placebo'
p953
S'placebo'
p954
S'NN'
p955
S'I-NP'
p956
g5
tp957
a(g249
g249
g249
g5
g5
tp958
a(S'no'
p959
S'no'
p960
S'DT'
p961
S'B-NP'
p962
g5
tp963
a(S'pravastatin'
p964
S'pravastatin'
p965
S'NN'
p966
S'I-NP'
p967
g5
tp968
a(g257
g257
g257
g5
g5
tp969
a(S'group'
p970
S'group'
p971
S'NN'
p972
S'B-NP'
p973
g5
tp974
a(S'no'
p975
S'no'
p976
S'DT'
p977
S'B-NP'
p978
g5
tp979
a(S'effect'
p980
S'effect'
p981
S'NN'
p982
S'I-NP'
p983
g5
tp984
a(S'of'
p985
S'of'
p986
S'IN'
p987
S'B-PP'
p988
g5
tp989
a(S'CCB'
p990
S'CCB'
p991
S'NN'
p992
S'B-NP'
p993
S'B-protein'
p994
tp995
a(S'treatment'
p996
S'treatment'
p997
S'NN'
p998
S'I-NP'
p999
g5
tp1000
a(S'was'
p1001
S'be'
p1002
S'VBD'
p1003
S'B-VP'
p1004
g5
tp1005
a(S'observed.'
p1006
S'observed.'
p1007
S'VBN'
p1008
S'I-VP'
p1009
g5
tp1010
a(S'With'
p1011
S'With'
p1012
S'IN'
p1013
S'B-PP'
p1014
g5
tp1015
a(S'respect'
p1016
S'respect'
p1017
S'NN'
p1018
S'B-NP'
p1019
g5
tp1020
a(S'to'
p1021
S'to'
p1022
S'TO'
p1023
S'B-PP'
p1024
g5
tp1025
a(S'angiographic'
p1026
S'angiographic'
p1027
S'JJ'
p1028
S'B-NP'
p1029
g5
tp1030
a(S'new'
p1031
S'new'
p1032
S'JJ'
p1033
S'I-NP'
p1034
g5
tp1035
a(S'lesion'
p1036
S'lesion'
p1037
S'NN'
p1038
S'I-NP'
p1039
g5
tp1040
a(S'formation'
p1041
S'formation'
p1042
S'NN'
p1043
S'I-NP'
p1044
g5
tp1045
a(g551
g551
g551
g5
g5
tp1046
a(S'in'
p1047
S'in'
p1048
S'IN'
p1049
S'B-PP'
p1050
g5
tp1051
a(S'the'
p1052
S'the'
p1053
S'DT'
p1054
S'B-NP'
p1055
g5
tp1056
a(S'pravastatin'
p1057
S'pravastatin'
p1058
S'NN'
p1059
S'I-NP'
p1060
g5
tp1061
a(S'group'
p1062
S'group'
p1063
S'NN'
p1064
S'I-NP'
p1065
g5
tp1066
a(S'there'
p1067
S'there'
p1068
S'EX'
p1069
S'B-NP'
p1070
g5
tp1071
a(S'were'
p1072
S'be'
p1073
S'VBD'
p1074
S'B-VP'
p1075
g5
tp1076
a(S'50'
p1077
S'50'
p1078
S'CD'
p1079
S'B-NP'
p1080
g5
tp1081
a(S'%'
p1082
g1082
S'NN'
p1083
S'I-NP'
p1084
g5
tp1085
a(S'less'
p1086
S'less'
p1087
S'JJR'
p1088
S'B-NP'
p1089
g5
tp1090
a(S'patients'
p1091
S'patient'
p1092
S'NNS'
p1093
S'I-NP'
p1094
g5
tp1095
a(S'with'
p1096
S'with'
p1097
S'IN'
p1098
S'B-PP'
p1099
g5
tp1100
a(S'new'
p1101
S'new'
p1102
S'JJ'
p1103
S'B-NP'
p1104
g5
tp1105
a(S'angiographic'
p1106
S'angiographic'
p1107
S'JJ'
p1108
S'I-NP'
p1109
g5
tp1110
a(S'lesions'
p1111
S'lesion'
p1112
S'NNS'
p1113
S'I-NP'
p1114
g5
tp1115
a(S'if'
p1116
S'if'
p1117
S'IN'
p1118
S'B-SBAR'
p1119
g5
tp1120
a(S'cotreated'
p1121
S'cotreate'
p1122
S'VBN'
p1123
S'B-VP'
p1124
g5
tp1125
a(S'with'
p1126
S'with'
p1127
S'IN'
p1128
S'B-PP'
p1129
g5
tp1130
a(S'CCBs'
p1131
S'CCB'
p1132
S'NNS'
p1133
S'B-NP'
p1134
S'B-protein'
p1135
tp1136
a(S'as'
p1137
S'as'
p1138
S'IN'
p1139
S'B-SBAR'
p1140
g5
tp1141
a(S'compared'
p1142
S'compare'
p1143
S'VBN'
p1144
S'B-PP'
p1145
g5
tp1146
a(S'with'
p1147
S'with'
p1148
S'IN'
p1149
S'B-PP'
p1150
g5
tp1151
a(S'no'
p1152
S'no'
p1153
S'DT'
p1154
S'B-NP'
p1155
g5
tp1156
a(S'CCB'
p1157
S'CCB'
p1158
S'NN'
p1159
S'I-NP'
p1160
g5
tp1161
a(S'cotreatment'
p1162
S'cotreatment'
p1163
S'NN'
p1164
S'I-NP'
p1165
g5
tp1166
a(g551
g551
g551
g5
g5
tp1167
a(S'whereas'
p1168
S'whereas'
p1169
S'IN'
p1170
g5
g5
tp1171
a(S'in'
p1172
S'in'
p1173
S'IN'
p1174
S'B-PP'
p1175
g5
tp1176
a(S'the'
p1177
S'the'
p1178
S'DT'
p1179
S'B-NP'
p1180
g5
tp1181
a(S'placebo'
p1182
S'placebo'
p1183
S'NN'
p1184
S'I-NP'
p1185
g5
tp1186
a(g249
g249
g249
g5
g5
tp1187
a(S'no'
p1188
S'no'
p1189
S'DT'
p1190
S'B-NP'
p1191
g5
tp1192
a(S'pravastatin'
p1193
S'pravastatin'
p1194
S'NN'
p1195
S'I-NP'
p1196
g5
tp1197
a(g257
g257
g257
g5
g5
tp1198
a(S'group'
p1199
S'group'
p1200
S'NN'
p1201
S'B-NP'
p1202
g5
tp1203
a(g551
g551
g551
g5
g5
tp1204
a(S'again'
p1205
S'again'
p1206
S'RB'
p1207
S'B-ADVP'
p1208
g5
tp1209
a(g551
g551
g551
g5
g5
tp1210
a(S'no'
p1211
S'no'
p1212
S'DT'
p1213
S'B-NP'
p1214
g5
tp1215
a(S'significant'
p1216
S'significant'
p1217
S'JJ'
p1218
S'I-NP'
p1219
g5
tp1220
a(S'effect'
p1221
S'effect'
p1222
S'NN'
p1223
S'I-NP'
p1224
g5
tp1225
a(S'of'
p1226
S'of'
p1227
S'IN'
p1228
S'B-PP'
p1229
g5
tp1230
a(S'CCB'
p1231
S'CCB'
p1232
S'NN'
p1233
S'B-NP'
p1234
S'B-protein'
p1235
tp1236
a(S'treatment'
p1237
S'treatment'
p1238
S'NN'
p1239
S'I-NP'
p1240
g5
tp1241
a(S'was'
p1242
S'be'
p1243
S'VBD'
p1244
S'B-VP'
p1245
g5
tp1246
a(S'observed.'
p1247
S'observed.'
p1248
S'VBN'
p1249
S'I-VP'
p1250
g5
tp1251
a(S'No'
p1252
S'No'
p1253
S'DT'
p1254
S'B-NP'
p1255
g5
tp1256
a(S'beneficial'
p1257
S'beneficial'
p1258
S'JJ'
p1259
S'I-NP'
p1260
g5
tp1261
a(S'effects'
p1262
S'effect'
p1263
S'NNS'
p1264
S'I-NP'
p1265
g5
tp1266
a(S'of'
p1267
S'of'
p1268
S'IN'
p1269
S'B-PP'
p1270
g5
tp1271
a(S'CCB'
p1272
S'CCB'
p1273
S'NN'
p1274
S'B-NP'
p1275
S'B-protein'
p1276
tp1277
a(S'treatment'
p1278
S'treatment'
p1279
S'NN'
p1280
S'I-NP'
p1281
g5
tp1282
a(S'on'
p1283
S'on'
p1284
S'IN'
p1285
S'B-PP'
p1286
g5
tp1287
a(S'clinical'
p1288
S'clinical'
p1289
S'JJ'
p1290
S'B-NP'
p1291
g5
tp1292
a(S'events'
p1293
S'event'
p1294
S'NNS'
p1295
S'I-NP'
p1296
g5
tp1297
a(S'were'
p1298
S'be'
p1299
S'VBD'
p1300
S'B-VP'
p1301
g5
tp1302
a(S'observed'
p1303
S'observe'
p1304
S'VBN'
p1305
S'I-VP'
p1306
g5
tp1307
a(S'during'
p1308
S'during'
p1309
S'IN'
p1310
S'B-PP'
p1311
g5
tp1312
a(S'the'
p1313
S'the'
p1314
S'DT'
p1315
S'B-NP'
p1316
g5
tp1317
a(S'2-year'
p1318
S'2-year'
p1319
S'JJ'
p1320
S'I-NP'
p1321
g5
tp1322
a(S'study'
p1323
S'study'
p1324
S'NN'
p1325
S'I-NP'
p1326
g5
tp1327
a(S'follow-up.'
p1328
S'follow-up.'
p1329
S'NN'
p1330
S'I-NP'
p1331
g5
tp1332
a(S'In'
p1333
S'In'
p1334
S'IN'
p1335
S'B-PP'
p1336
g5
tp1337
a(S'view'
p1338
S'view'
p1339
S'NN'
p1340
S'B-NP'
p1341
g5
tp1342
a(S'of'
p1343
S'of'
p1344
S'IN'
p1345
S'B-PP'
p1346
g5
tp1347
a(S'the'
p1348
S'the'
p1349
S'DT'
p1350
S'B-NP'
p1351
g5
tp1352
a(S'correlation'
p1353
S'correlation'
p1354
S'NN'
p1355
S'I-NP'
p1356
g5
tp1357
a(S'between'
p1358
S'between'
p1359
S'IN'
p1360
S'B-PP'
p1361
g5
tp1362
a(S'angiographic'
p1363
S'angiographic'
p1364
S'JJ'
p1365
S'B-NP'
p1366
g5
tp1367
a(S'progression'
p1368
S'progression'
p1369
S'NN'
p1370
S'I-NP'
p1371
g5
tp1372
a(S'and'
p1373
S'and'
p1374
S'CC'
p1375
g5
g5
tp1376
a(S'subsequent'
p1377
S'subsequent'
p1378
S'JJ'
p1379
S'B-NP'
p1380
g5
tp1381
a(S'clinical'
p1382
S'clinical'
p1383
S'JJ'
p1384
S'I-NP'
p1385
g5
tp1386
a(S'events'
p1387
S'event'
p1388
S'NNS'
p1389
S'I-NP'
p1390
g5
tp1391
a(S'as'
p1392
S'as'
p1393
S'IN'
p1394
S'B-SBAR'
p1395
g5
tp1396
a(S'demonstrated'
p1397
S'demonstrate'
p1398
S'VBN'
p1399
S'B-VP'
p1400
g5
tp1401
a(S'in'
p1402
S'in'
p1403
S'IN'
p1404
S'B-PP'
p1405
g5
tp1406
a(S'several'
p1407
S'several'
p1408
S'JJ'
p1409
S'B-NP'
p1410
g5
tp1411
a(S'large'
p1412
S'large'
p1413
S'JJ'
p1414
S'I-NP'
p1415
g5
tp1416
a(S'trials'
p1417
S'trial'
p1418
S'NNS'
p1419
S'I-NP'
p1420
g5
tp1421
a(g551
g551
g551
g5
g5
tp1422
a(S'it'
p1423
S'it'
p1424
S'PRP'
p1425
S'B-NP'
p1426
g5
tp1427
a(S'is'
p1428
S'be'
p1429
S'VBZ'
p1430
S'B-VP'
p1431
g5
tp1432
a(S'not'
p1433
S'not'
p1434
S'RB'
p1435
g5
g5
tp1436
a(S'unrealistic'
p1437
S'unrealistic'
p1438
S'JJ'
p1439
S'B-ADJP'
p1440
g5
tp1441
a(S'to'
p1442
S'to'
p1443
S'TO'
p1444
S'B-VP'
p1445
g5
tp1446
a(S'also'
p1447
S'also'
p1448
S'RB'
p1449
S'I-VP'
p1450
g5
tp1451
a(S'anticipate'
p1452
S'anticipate'
p1453
S'VB'
p1454
S'I-VP'
p1455
g5
tp1456
a(S'in'
p1457
S'in'
p1458
S'IN'
p1459
S'B-PP'
p1460
g5
tp1461
a(S'this'
p1462
S'this'
p1463
S'DT'
p1464
S'B-NP'
p1465
g5
tp1466
a(S'population'
p1467
S'population'
p1468
S'NN'
p1469
S'I-NP'
p1470
g5
tp1471
a(g551
g551
g551
g5
g5
tp1472
a(g375
g375
S'DT'
p1473
S'B-NP'
p1474
g5
tp1475
a(S'beneficial'
p1476
S'beneficial'
p1477
S'JJ'
p1478
S'I-NP'
p1479
g5
tp1480
a(S'effect'
p1481
S'effect'
p1482
S'NN'
p1483
S'I-NP'
p1484
g5
tp1485
a(S'on'
p1486
S'on'
p1487
S'IN'
p1488
S'B-PP'
p1489
g5
tp1490
a(S'clinical'
p1491
S'clinical'
p1492
S'JJ'
p1493
S'B-NP'
p1494
g5
tp1495
a(S'events'
p1496
S'event'
p1497
S'NNS'
p1498
S'I-NP'
p1499
g5
tp1500
a(S'with'
p1501
S'with'
p1502
S'IN'
p1503
S'B-PP'
p1504
g5
tp1505
a(S'longer'
p1506
S'long'
p1507
S'JJR'
p1508
S'B-NP'
p1509
g5
tp1510
a(S'follow-up.'
p1511
S'follow-up.'
p1512
S'NN'
p1513
S'I-NP'
p1514
g5
tp1515
a(S'Although'
p1516
S'Although'
p1517
S'IN'
p1518
S'B-SBAR'
p1519
g5
tp1520
a(S'the'
p1521
S'the'
p1522
S'DT'
p1523
S'B-NP'
p1524
g5
tp1525
a(S'REGRESS'
p1526
S'REGRESS'
p1527
S'NN'
p1528
S'I-NP'
p1529
g5
tp1530
a(S'trial'
p1531
S'trial'
p1532
S'NN'
p1533
S'I-NP'
p1534
g5
tp1535
a(S'was'
p1536
S'be'
p1537
S'VBD'
p1538
S'B-VP'
p1539
g5
tp1540
a(S'not'
p1541
S'not'
p1542
S'RB'
p1543
S'I-VP'
p1544
g5
tp1545
a(S'designed'
p1546
S'design'
p1547
S'VBN'
p1548
S'I-VP'
p1549
g5
tp1550
a(S'to'
p1551
S'to'
p1552
S'TO'
p1553
S'I-VP'
p1554
g5
tp1555
a(S'evaluate'
p1556
S'evaluate'
p1557
S'VB'
p1558
S'I-VP'
p1559
g5
tp1560
a(S'combination'
p1561
S'combination'
p1562
S'NN'
p1563
S'B-NP'
p1564
g5
tp1565
a(S'therapy'
p1566
S'therapy'
p1567
S'NN'
p1568
S'I-NP'
p1569
g5
tp1570
a(g551
g551
g551
g5
g5
tp1571
a(S'the'
p1572
S'the'
p1573
S'DT'
p1574
S'B-NP'
p1575
g5
tp1576
a(S'results'
p1577
S'result'
p1578
S'NNS'
p1579
S'I-NP'
p1580
g5
tp1581
a(S'suggest'
p1582
S'suggest'
p1583
S'VBP'
p1584
S'B-VP'
p1585
g5
tp1586
a(S'that'
p1587
S'that'
p1588
S'IN'
p1589
S'B-SBAR'
p1590
g5
tp1591
a(S'addition'
p1592
S'addition'
p1593
S'NN'
p1594
S'B-NP'
p1595
g5
tp1596
a(S'of'
p1597
S'of'
p1598
S'IN'
p1599
S'B-PP'
p1600
g5
tp1601
a(S'CCBs'
p1602
S'CCB'
p1603
S'NNS'
p1604
S'B-NP'
p1605
S'B-protein'
p1606
tp1607
a(S'to'
p1608
S'to'
p1609
S'TO'
p1610
S'B-PP'
p1611
g5
tp1612
a(S'HMG-CoA'
p1613
S'HMG-CoA'
p1614
S'NN'
p1615
S'B-NP'
p1616
S'B-protein'
p1617
tp1618
a(S'reductase'
p1619
S'reductase'
p1620
S'NN'
p1621
S'I-NP'
p1622
S'I-protein'
p1623
tp1624
a(S'inhibitor'
p1625
S'inhibitor'
p1626
S'NN'
p1627
S'I-NP'
p1628
g5
tp1629
a(S'therapy'
p1630
S'therapy'
p1631
S'NN'
p1632
S'I-NP'
p1633
g5
tp1634
a(g249
g249
g249
g5
g5
tp1635
a(S'pravastatin'
p1636
S'pravastatin'
p1637
S'NN'
p1638
S'B-NP'
p1639
g5
tp1640
a(g257
g257
g257
g5
g5
tp1641
a(S'acts'
p1642
S'act'
p1643
S'VBZ'
p1644
S'B-VP'
p1645
g5
tp1646
a(S'synergistically'
p1647
S'synergistically'
p1648
S'RB'
p1649
S'B-ADVP'
p1650
g5
tp1651
a(S'in'
p1652
S'in'
p1653
S'IN'
p1654
S'B-PP'
p1655
g5
tp1656
a(S'retarding'
p1657
S'retard'
p1658
S'VBG'
p1659
S'B-VP'
p1660
g5
tp1661
a(S'the'
p1662
S'the'
p1663
S'DT'
p1664
S'B-NP'
p1665
g5
tp1666
a(S'progression'
p1667
S'progression'
p1668
S'NN'
p1669
S'I-NP'
p1670
g5
tp1671
a(S'of'
p1672
S'of'
p1673
S'IN'
p1674
S'B-PP'
p1675
g5
tp1676
a(S'established'
p1677
S'establish'
p1678
S'VBN'
p1679
S'B-NP'
p1680
g5
tp1681
a(S'coronary'
p1682
S'coronary'
p1683
S'JJ'
p1684
S'I-NP'
p1685
g5
tp1686
a(S'atherosclerosis.'
p1687
S'atherosclerosis.'
p1688
S'NN'
p1689
S'I-NP'
p1690
g5
tp1691
a(S'These'
p1692
S'These'
p1693
S'DT'
p1694
S'B-NP'
p1695
g5
tp1696
a(S'results'
p1697
S'result'
p1698
S'NNS'
p1699
S'I-NP'
p1700
g5
tp1701
a(S'appear'
p1702
S'appear'
p1703
S'VBP'
p1704
S'B-VP'
p1705
g5
tp1706
a(S'to'
p1707
S'to'
p1708
S'TO'
p1709
S'I-VP'
p1710
g5
tp1711
a(S'warrant'
p1712
S'warrant'
p1713
S'VB'
p1714
S'I-VP'
p1715
g5
tp1716
a(S'prospective'
p1717
S'prospective'
p1718
S'JJ'
p1719
S'B-NP'
p1720
g5
tp1721
a(S'randomized'
p1722
S'randomize'
p1723
S'VBN'
p1724
S'I-NP'
p1725
g5
tp1726
a(S'trials'
p1727
S'trial'
p1728
S'NNS'
p1729
S'I-NP'
p1730
g5
tp1731
a(S'to'
p1732
S'to'
p1733
S'TO'
p1734
S'B-VP'
p1735
g5
tp1736
a(S'determine'
p1737
S'determine'
p1738
S'VB'
p1739
S'I-VP'
p1740
g5
tp1741
a(S'in'
p1742
S'in'
p1743
S'IN'
p1744
S'B-PP'
p1745
g5
tp1746
a(g375
g375
S'DT'
p1747
S'B-NP'
p1748
g5
tp1749
a(S'more'
p1750
S'more'
p1751
S'RBR'
p1752
S'I-NP'
p1753
g5
tp1754
a(S'definitive'
p1755
S'definitive'
p1756
S'JJ'
p1757
S'I-NP'
p1758
g5
tp1759
a(S'manner'
p1760
S'manner'
p1761
S'NN'
p1762
S'I-NP'
p1763
g5
tp1764
a(S'the'
p1765
S'the'
p1766
S'DT'
p1767
S'B-NP'
p1768
g5
tp1769
a(S'merits'
p1770
S'merit'
p1771
S'NNS'
p1772
S'I-NP'
p1773
g5
tp1774
a(S'of'
p1775
S'of'
p1776
S'IN'
p1777
S'B-PP'
p1778
g5
tp1779
a(S'this'
p1780
S'this'
p1781
S'DT'
p1782
S'B-NP'
p1783
g5
tp1784
a(S'combination'
p1785
S'combination'
p1786
S'NN'
p1787
S'I-NP'
p1788
g5
tp1789
a(S'in'
p1790
S'in'
p1791
S'IN'
p1792
S'B-PP'
p1793
g5
tp1794
a(S'the'
p1795
S'the'
p1796
S'DT'
p1797
S'B-NP'
p1798
g5
tp1799
a(S'prevention'
p1800
S'prevention'
p1801
S'NN'
p1802
S'I-NP'
p1803
g5
tp1804
a(S'of'
p1805
S'of'
p1806
S'IN'
p1807
S'B-PP'
p1808
g5
tp1809
a(S'progression'
p1810
S'progression'
p1811
S'NN'
p1812
S'B-NP'
p1813
g5
tp1814
a(S'of'
p1815
S'of'
p1816
S'IN'
p1817
S'B-PP'
p1818
g5
tp1819
a(S'coronary'
p1820
S'coronary'
p1821
S'JJ'
p1822
S'B-NP'
p1823
g5
tp1824
a(S'atherosclerosis.'
p1825
S'atherosclerosis.'
p1826
S'NN'
p1827
S'I-NP'
p1828
g5
tp1829
a(S'Currently'
p1830
S'Currently'
p1831
S'RB'
p1832
S'B-ADVP'
p1833
g5
tp1834
a(g375
g375
S'DT'
p1835
S'B-NP'
p1836
g5
tp1837
a(S'number'
p1838
S'number'
p1839
S'NN'
p1840
S'I-NP'
p1841
g5
tp1842
a(S'of'
p1843
S'of'
p1844
S'IN'
p1845
S'B-PP'
p1846
g5
tp1847
a(S'studies'
p1848
S'study'
p1849
S'NNS'
p1850
S'B-NP'
p1851
g5
tp1852
a(S'in'
p1853
S'in'
p1854
S'IN'
p1855
S'B-PP'
p1856
g5
tp1857
a(S'these'
p1858
S'these'
p1859
S'DT'
p1860
S'B-NP'
p1861
g5
tp1862
a(S'fields'
p1863
S'field'
p1864
S'NNS'
p1865
S'I-NP'
p1866
g5
tp1867
a(S'are'
p1868
S'be'
p1869
S'VBP'
p1870
S'B-VP'
p1871
g5
tp1872
a(S'being'
p1873
S'be'
p1874
S'VBG'
p1875
S'I-VP'
p1876
g5
tp1877
a(S'designed'
p1878
S'design'
p1879
S'VBN'
p1880
S'I-VP'
p1881
g5
tp1882
a(S'or'
p1883
S'or'
p1884
S'CC'
p1885
g5
g5
tp1886
a(S'are'
p1887
S'be'
p1888
S'VBP'
p1889
S'B-VP'
p1890
g5
tp1891
a(S'already'
p1892
S'already'
p1893
S'RB'
p1894
S'B-ADVP'
p1895
g5
tp1896
a(S'underway'
p1897
S'underway'
p1898
S'JJ'
p1899
S'B-ADJP'
p1900
g5
tp1901
a(g82
g82
g82
g5
g5
tp1902
a.