(lp0
(S'['
p1
g1
S'('
p2
S'O'
p3
g3
tp4
a(S'Pleural'
p5
S'Pleural'
p6
S'JJ'
p7
S'B-NP'
p8
g3
tp9
a(S'tent'
p10
S'tent'
p11
S'NN'
p12
S'I-NP'
p13
g3
tp14
a(S'after'
p15
S'after'
p16
S'IN'
p17
S'B-PP'
p18
g3
tp19
a(S'upper'
p20
S'upper'
p21
S'JJ'
p22
S'B-NP'
p23
g3
tp24
a(S'lobectomy'
p25
S'lobectomy'
p26
S'NN'
p27
S'I-NP'
p28
g3
tp29
a(S'--'
p30
S'--'
p31
S':'
p32
g3
g3
tp33
a(S'randomized'
p34
S'randomize'
p35
S'VBN'
p36
S'B-NP'
p37
g3
tp38
a(S'study'
p39
S'study'
p40
S'NN'
p41
S'I-NP'
p42
g3
tp43
a(S'of'
p44
S'of'
p45
S'IN'
p46
S'B-PP'
p47
g3
tp48
a(S'it'
p49
S'it'
p50
S'PRP'
p51
S'B-NP'
p52
g3
tp53
a(S"'s"
p54
S"'"
p55
S'VBZ'
p56
S'B-VP'
p57
g3
tp58
a(S'efficacy'
p59
S'efficacy'
p60
S'NN'
p61
S'B-NP'
p62
g3
tp63
a(S'and'
p64
S'and'
p65
S'CC'
p66
S'I-NP'
p67
g3
tp68
a(S'duration'
p69
S'duration'
p70
S'NN'
p71
S'I-NP'
p72
g3
tp73
a(S'of'
p74
S'of'
p75
S'IN'
p76
S'B-PP'
p77
g3
tp78
a(S'the'
p79
S'the'
p80
S'DT'
p81
S'B-NP'
p82
g3
tp83
a(S'effect'
p84
S'effect'
p85
S'NN'
p86
S'I-NP'
p87
g3
tp88
a(S']'
p89
g89
S')'
p90
g3
g3
tp91
a(S'.'
p92
g92
g92
g3
g3
tp93
a(S'UNLABELLED'
p94
S'UNLABELLED'
p95
S'VBN'
p96
S'B-VP'
p97
g3
tp98
a(S'The'
p99
S'The'
p100
S'DT'
p101
S'B-NP'
p102
g3
tp103
a(S'aim'
p104
S'aim'
p105
S'NN'
p106
S'I-NP'
p107
g3
tp108
a(S'of'
p109
S'of'
p110
S'IN'
p111
S'B-PP'
p112
g3
tp113
a(S'our'
p114
S'our'
p115
S'PRP$'
p116
S'B-NP'
p117
g3
tp118
a(S'study'
p119
S'study'
p120
S'NN'
p121
S'I-NP'
p122
g3
tp123
a(S'is'
p124
S'be'
p125
S'VBZ'
p126
S'B-VP'
p127
g3
tp128
a(S'to'
p129
S'to'
p130
S'TO'
p131
S'B-VP'
p132
g3
tp133
a(S'evaluate'
p134
S'evaluate'
p135
S'VB'
p136
S'I-VP'
p137
g3
tp138
a(S'the'
p139
S'the'
p140
S'DT'
p141
S'B-NP'
p142
g3
tp143
a(S'safety'
p144
S'safety'
p145
S'NN'
p146
S'I-NP'
p147
g3
tp148
a(S','
p149
g149
g149
g3
g3
tp150
a(S'efficacy'
p151
S'efficacy'
p152
S'NN'
p153
S'B-NP'
p154
g3
tp155
a(S'and'
p156
S'and'
p157
S'CC'
p158
g3
g3
tp159
a(S'also'
p160
S'also'
p161
S'RB'
p162
S'B-ADVP'
p163
g3
tp164
a(S'the'
p165
S'the'
p166
S'DT'
p167
S'B-NP'
p168
g3
tp169
a(S'maximum'
p170
S'maximum'
p171
S'JJ'
p172
S'I-NP'
p173
g3
tp174
a(S'duration'
p175
S'duration'
p176
S'NN'
p177
S'I-NP'
p178
g3
tp179
a(S'of'
p180
S'of'
p181
S'IN'
p182
S'B-PP'
p183
g3
tp184
a(S'effect'
p185
S'effect'
p186
S'NN'
p187
S'B-NP'
p188
g3
tp189
a(S'of'
p190
S'of'
p191
S'IN'
p192
S'B-PP'
p193
g3
tp194
a(S'the'
p195
S'the'
p196
S'DT'
p197
S'B-NP'
p198
g3
tp199
a(S'pleural'
p200
S'pleural'
p201
S'JJ'
p202
S'I-NP'
p203
g3
tp204
a(S'tent'
p205
S'tent'
p206
S'NN'
p207
S'I-NP'
p208
g3
tp209
a(S'in'
p210
S'in'
p211
S'IN'
p212
S'B-PP'
p213
g3
tp214
a(S'reducing'
p215
S'reduce'
p216
S'VBG'
p217
S'B-VP'
p218
g3
tp219
a(S'the'
p220
S'the'
p221
S'DT'
p222
S'B-NP'
p223
g3
tp224
a(S'incidence'
p225
S'incidence'
p226
S'NN'
p227
S'I-NP'
p228
g3
tp229
a(S'of'
p230
S'of'
p231
S'IN'
p232
S'B-PP'
p233
g3
tp234
a(S'air'
p235
S'air'
p236
S'NN'
p237
S'B-NP'
p238
g3
tp239
a(S'leak'
p240
S'leak'
p241
S'NN'
p242
S'I-NP'
p243
g3
tp244
a(S'after'
p245
S'after'
p246
S'IN'
p247
S'B-PP'
p248
g3
tp249
a(S'upper'
p250
S'upper'
p251
S'JJ'
p252
S'B-NP'
p253
g3
tp254
a(S'lobectomy'
p255
S'lobectomy'
p256
S'NN'
p257
S'I-NP'
p258
g3
tp259
a(g92
g92
g92
g3
g3
tp260
a(S'METHODS'
p261
S'METHODS'
p262
S'NNS'
p263
S'B-NP'
p264
g3
tp265
a(S'Sixty'
p266
S'Sixty'
p267
S'CD'
p268
S'B-NP'
p269
g3
tp270
a(S'patients'
p271
S'patient'
p272
S'NNS'
p273
S'I-NP'
p274
g3
tp275
a(S'who'
p276
S'who'
p277
S'WP'
p278
S'B-NP'
p279
g3
tp280
a(S'underwent'
p281
S'undergo'
p282
S'VBD'
p283
S'B-VP'
p284
g3
tp285
a(S'upper'
p286
S'upper'
p287
S'JJ'
p288
S'B-NP'
p289
g3
tp290
a(S'lobectomy'
p291
S'lobectomy'
p292
S'NN'
p293
S'I-NP'
p294
g3
tp295
a(S'were'
p296
S'be'
p297
S'VBD'
p298
S'B-VP'
p299
g3
tp300
a(S'prospectively'
p301
S'prospectively'
p302
S'RB'
p303
S'I-VP'
p304
g3
tp305
a(S'randomized'
p306
S'randomize'
p307
S'VBN'
p308
S'I-VP'
p309
g3
tp310
a(S'into'
p311
S'into'
p312
S'IN'
p313
S'B-PP'
p314
g3
tp315
a(S'two'
p316
S'two'
p317
S'CD'
p318
S'B-NP'
p319
g3
tp320
a(S'groups'
p321
S'group'
p322
S'NNS'
p323
S'I-NP'
p324
g3
tp325
a(g32
g32
g32
g3
g3
tp326
a(S'30'
p327
S'30'
p328
S'CD'
p329
S'B-NP'
p330
g3
tp331
a(S'patients'
p332
S'patient'
p333
S'NNS'
p334
S'I-NP'
p335
g3
tp336
a(S'had'
p337
S'have'
p338
S'VBD'
p339
S'B-VP'
p340
g3
tp341
a(S'creation'
p342
S'creation'
p343
S'NN'
p344
S'B-NP'
p345
g3
tp346
a(S'of'
p347
S'of'
p348
S'IN'
p349
S'B-PP'
p350
g3
tp351
a(S'pleural'
p352
S'pleural'
p353
S'JJ'
p354
S'B-NP'
p355
g3
tp356
a(S'tent'
p357
S'tent'
p358
S'NN'
p359
S'I-NP'
p360
g3
tp361
a(g2
g2
g2
g3
g3
tp362
a(S'group'
p363
S'group'
p364
S'NN'
p365
S'B-NP'
p366
g3
tp367
a(S'1'
p368
g368
S'CD'
p369
S'I-NP'
p370
g3
tp371
a(g90
g90
g90
g3
g3
tp372
a(S'and'
p373
S'and'
p374
S'CC'
p375
g3
g3
tp376
a(S'30'
p377
S'30'
p378
S'CD'
p379
S'B-NP'
p380
g3
tp381
a(S'did'
p382
S'do'
p383
S'VBD'
p384
g3
g3
tp385
a(S'not'
p386
S'not'
p387
S'RB'
p388
g3
g3
tp389
a(g2
g2
g2
g3
g3
tp390
a(S'group'
p391
S'group'
p392
S'NN'
p393
S'B-NP'
p394
g3
tp395
a(S'2'
p396
g396
S'CD'
p397
S'I-NP'
p398
g3
tp399
a(g90
g90
g90
g3
g3
tp400
a(g92
g92
g92
g3
g3
tp401
a(S'The'
p402
S'The'
p403
S'DT'
p404
S'B-NP'
p405
g3
tp406
a(S'preoperative'
p407
S'preoperative'
p408
S'JJ'
p409
S'I-NP'
p410
g3
tp411
a(g149
g149
g149
S'I-NP'
p412
g3
tp413
a(S'operative'
p414
S'operative'
p415
S'JJ'
p416
S'I-NP'
p417
g3
tp418
a(g149
g149
g149
g3
g3
tp419
a(S'and'
p420
S'and'
p421
S'CC'
p422
g3
g3
tp423
a(S'postoperative'
p424
S'postoperative'
p425
S'JJ'
p426
S'B-NP'
p427
g3
tp428
a(S'characteristics'
p429
S'characteristic'
p430
S'NNS'
p431
S'I-NP'
p432
g3
tp433
a(S'of'
p434
S'of'
p435
S'IN'
p436
S'B-PP'
p437
g3
tp438
a(S'both'
p439
S'both'
p440
S'DT'
p441
S'B-NP'
p442
g3
tp443
a(S'groups'
p444
S'group'
p445
S'NNS'
p446
S'I-NP'
p447
g3
tp448
a(S'were'
p449
S'be'
p450
S'VBD'
p451
S'B-VP'
p452
g3
tp453
a(S'compared.'
p454
S'compared.'
p455
S'VBN'
p456
S'I-VP'
p457
g3
tp458
a(S'Then'
p459
S'Then'
p460
S'RB'
p461
S'B-NP'
p462
g3
tp463
a(S'multivariate'
p464
S'multivariate'
p465
S'JJ'
p466
S'I-NP'
p467
g3
tp468
a(S'analyses'
p469
S'analysis'
p470
S'NNS'
p471
S'I-NP'
p472
g3
tp473
a(S'were'
p474
S'be'
p475
S'VBD'
p476
S'B-VP'
p477
g3
tp478
a(S'used'
p479
S'use'
p480
S'VBN'
p481
S'I-VP'
p482
g3
tp483
a(S'to'
p484
S'to'
p485
S'TO'
p486
S'B-VP'
p487
g3
tp488
a(S'identify'
p489
S'identify'
p490
S'VB'
p491
S'I-VP'
p492
g3
tp493
a(S'factors'
p494
S'factor'
p495
S'NNS'
p496
S'B-NP'
p497
g3
tp498
a(S'predictive'
p499
S'predictive'
p500
S'JJ'
p501
S'B-ADJP'
p502
g3
tp503
a(S'of'
p504
S'of'
p505
S'IN'
p506
S'B-PP'
p507
g3
tp508
a(S'prolonged'
p509
S'prolonged'
p510
S'JJ'
p511
S'B-NP'
p512
g3
tp513
a(S'air'
p514
S'air'
p515
S'NN'
p516
S'I-NP'
p517
g3
tp518
a(S'leaks'
p519
S'leak'
p520
S'NNS'
p521
S'I-NP'
p522
g3
tp523
a(S'and'
p524
S'and'
p525
S'CC'
p526
g3
g3
tp527
a(S'their'
p528
S'their'
p529
S'PRP$'
p530
S'B-NP'
p531
g3
tp532
a(S'duration.'
p533
S'duration.'
p534
S'IN'
p535
S'I-NP'
p536
g3
tp537
a(S'The'
p538
S'The'
p539
S'DT'
p540
S'B-NP'
p541
g3
tp542
a(S'reduction'
p543
S'reduction'
p544
S'NN'
p545
S'I-NP'
p546
g3
tp547
a(S'of'
p548
S'of'
p549
S'IN'
p550
S'B-PP'
p551
g3
tp552
a(S'incidences'
p553
S'incidence'
p554
S'NNS'
p555
S'B-NP'
p556
g3
tp557
a(S'of'
p558
S'of'
p559
S'IN'
p560
S'B-PP'
p561
g3
tp562
a(S'air'
p563
S'air'
p564
S'NN'
p565
S'B-NP'
p566
g3
tp567
a(S'leak'
p568
S'leak'
p569
S'NN'
p570
S'I-NP'
p571
g3
tp572
a(S'in'
p573
S'in'
p574
S'IN'
p575
S'B-PP'
p576
g3
tp577
a(S'the'
p578
S'the'
p579
S'DT'
p580
S'B-NP'
p581
g3
tp582
a(S'two'
p583
S'two'
p584
S'CD'
p585
S'I-NP'
p586
g3
tp587
a(S'groups'
p588
S'group'
p589
S'NNS'
p590
S'I-NP'
p591
g3
tp592
a(S'was'
p593
S'be'
p594
S'VBD'
p595
S'B-VP'
p596
g3
tp597
a(S'subsequently'
p598
S'subsequently'
p599
S'RB'
p600
S'I-VP'
p601
g3
tp602
a(S'compared'
p603
S'compare'
p604
S'VBN'
p605
S'I-VP'
p606
g3
tp607
a(S'during'
p608
S'during'
p609
S'IN'
p610
S'B-PP'
p611
g3
tp612
a(S'successive'
p613
S'successive'
p614
S'JJ'
p615
S'B-NP'
p616
g3
tp617
a(S'postoperative'
p618
S'postoperative'
p619
S'JJ'
p620
S'I-NP'
p621
g3
tp622
a(S'periods'
p623
S'period'
p624
S'NNS'
p625
S'I-NP'
p626
g3
tp627
a(g92
g92
g92
g3
g3
tp628
a(S'RESULTS'
p629
S'RESULTS'
p630
S'NNS'
p631
S'B-NP'
p632
g3
tp633
a(S'Demographic'
p634
S'Demographic'
p635
S'JJ'
p636
S'I-NP'
p637
g3
tp638
a(S'and'
p639
S'and'
p640
S'CC'
p641
S'I-NP'
p642
g3
tp643
a(S'clinical'
p644
S'clinical'
p645
S'JJ'
p646
S'I-NP'
p647
g3
tp648
a(S'profiles'
p649
S'profile'
p650
S'NNS'
p651
S'I-NP'
p652
g3
tp653
a(S'of'
p654
S'of'
p655
S'IN'
p656
S'B-PP'
p657
g3
tp658
a(S'both'
p659
S'both'
p660
S'DT'
p661
S'B-NP'
p662
g3
tp663
a(S'groups'
p664
S'group'
p665
S'NNS'
p666
S'I-NP'
p667
g3
tp668
a(S'were'
p669
S'be'
p670
S'VBD'
p671
S'B-VP'
p672
g3
tp673
a(S'not'
p674
S'not'
p675
S'RB'
p676
S'I-VP'
p677
g3
tp678
a(S'statistically'
p679
S'statistically'
p680
S'RB'
p681
S'I-VP'
p682
g3
tp683
a(S'different.'
p684
S'different.'
p685
S'VB'
p686
S'I-VP'
p687
g3
tp688
a(S'The'
p689
S'The'
p690
S'DT'
p691
S'B-NP'
p692
g3
tp693
a(S'tented'
p694
S'tente'
p695
S'VBN'
p696
S'I-NP'
p697
g3
tp698
a(S'patients'
p699
S'patient'
p700
S'NNS'
p701
S'I-NP'
p702
g3
tp703
a(S'had'
p704
S'have'
p705
S'VBD'
p706
S'B-VP'
p707
g3
tp708
a(S'statistically'
p709
S'statistically'
p710
S'RB'
p711
S'B-NP'
p712
g3
tp713
a(S'significant'
p714
S'significant'
p715
S'JJ'
p716
S'I-NP'
p717
g3
tp718
a(S'reduction'
p719
S'reduction'
p720
S'NN'
p721
S'I-NP'
p722
g3
tp723
a(S'of'
p724
S'of'
p725
S'IN'
p726
S'B-PP'
p727
g3
tp728
a(S'mean'
p729
S'mean'
p730
S'JJ'
p731
S'B-NP'
p732
g3
tp733
a(S'duration'
p734
S'duration'
p735
S'NN'
p736
S'I-NP'
p737
g3
tp738
a(S'of'
p739
S'of'
p740
S'IN'
p741
S'B-PP'
p742
g3
tp743
a(S'air'
p744
S'air'
p745
S'NN'
p746
S'B-NP'
p747
g3
tp748
a(S'leak'
p749
S'leak'
p750
S'NN'
p751
S'I-NP'
p752
g3
tp753
a(S'in'
p754
S'in'
p755
S'IN'
p756
S'B-PP'
p757
g3
tp758
a(S'days'
p759
S'day'
p760
S'NNS'
p761
S'B-NP'
p762
g3
tp763
a(g2
g2
g2
g3
g3
tp764
a(S'4.9'
p765
S'4.9'
p766
S'CD'
p767
S'B-NP'
p768
g3
tp769
a(S'+/-'
p770
S'+/-'
p771
S'SYM'
p772
S'I-NP'
p773
g3
tp774
a(S'1.79'
p775
S'1.79'
p776
S'CD'
p777
S'I-NP'
p778
g3
tp779
a(S'vs'
p780
S'vs'
p781
S'IN'
p782
S'B-PP'
p783
g3
tp784
a(S'8.2'
p785
S'8.2'
p786
S'CD'
p787
S'B-NP'
p788
g3
tp789
a(S'+/-'
p790
S'+/-'
p791
S'SYM'
p792
S'I-NP'
p793
g3
tp794
a(S'4.2'
p795
S'4.2'
p796
S'CD'
p797
S'I-NP'
p798
g3
tp799
a(g90
g90
g90
g3
g3
tp800
a(g149
g149
g149
g3
g3
tp801
a(S'the'
p802
S'the'
p803
S'DT'
p804
S'B-NP'
p805
g3
tp806
a(S'number'
p807
S'number'
p808
S'NN'
p809
S'I-NP'
p810
g3
tp811
a(S'of'
p812
S'of'
p813
S'IN'
p814
S'B-PP'
p815
g3
tp816
a(S'days'
p817
S'day'
p818
S'NNS'
p819
S'B-NP'
p820
g3
tp821
a(S'of'
p822
S'of'
p823
S'IN'
p824
S'B-PP'
p825
g3
tp826
a(S'a'
p827
g827
S'DT'
p828
S'B-NP'
p829
g3
tp830
a(S'chest'
p831
S'chest'
p832
S'NN'
p833
S'I-NP'
p834
g3
tp835
a(S'tube'
p836
S'tube'
p837
S'NN'
p838
S'I-NP'
p839
g3
tp840
a(S'duration'
p841
S'duration'
p842
S'NN'
p843
S'I-NP'
p844
g3
tp845
a(g2
g2
g2
g3
g3
tp846
a(S'7.3'
p847
S'7.3'
p848
S'CD'
p849
S'B-NP'
p850
g3
tp851
a(S'+/-'
p852
S'+/-'
p853
S'SYM'
p854
S'I-NP'
p855
g3
tp856
a(S'1.14'
p857
S'1.14'
p858
S'CD'
p859
S'I-NP'
p860
g3
tp861
a(S'vs'
p862
S'vs'
p863
S'IN'
p864
S'B-PP'
p865
g3
tp866
a(S'12.46'
p867
S'12.46'
p868
S'CD'
p869
S'B-NP'
p870
g3
tp871
a(S'+/-'
p872
S'+/-'
p873
S'SYM'
p874
S'I-NP'
p875
g3
tp876
a(S'3.6'
p877
S'3.6'
p878
S'CD'
p879
S'I-NP'
p880
g3
tp881
a(g90
g90
g90
g3
g3
tp882
a(g149
g149
g149
g3
g3
tp883
a(S'the'
p884
S'the'
p885
S'DT'
p886
S'B-NP'
p887
g3
tp888
a(S'length'
p889
S'length'
p890
S'NN'
p891
S'I-NP'
p892
g3
tp893
a(S'of'
p894
S'of'
p895
S'IN'
p896
S'B-PP'
p897
g3
tp898
a(S'postoperative'
p899
S'postoperative'
p900
S'JJ'
p901
S'B-NP'
p902
g3
tp903
a(S'in-hospital'
p904
S'in-hospital'
p905
S'JJ'
p906
S'I-NP'
p907
g3
tp908
a(S'stay'
p909
S'stay'
p910
S'NN'
p911
S'I-NP'
p912
g3
tp913
a(S'in'
p914
S'in'
p915
S'IN'
p916
S'B-PP'
p917
g3
tp918
a(S'days'
p919
S'day'
p920
S'NNS'
p921
S'B-NP'
p922
g3
tp923
a(g2
g2
g2
g3
g3
tp924
a(S'9.4'
p925
S'9.4'
p926
S'CD'
p927
S'B-NP'
p928
g3
tp929
a(S'+/-'
p930
S'+/-'
p931
S'SYM'
p932
S'I-NP'
p933
g3
tp934
a(S'1.86'
p935
S'1.86'
p936
S'CD'
p937
S'I-NP'
p938
g3
tp939
a(S'vs'
p940
S'vs'
p941
S'IN'
p942
S'B-PP'
p943
g3
tp944
a(S'13.6'
p945
S'13.6'
p946
S'CD'
p947
S'B-NP'
p948
g3
tp949
a(S'+/-'
p950
S'+/-'
p951
S'SYM'
p952
S'I-NP'
p953
g3
tp954
a(S'2.49'
p955
S'2.49'
p956
S'CD'
p957
S'I-NP'
p958
g3
tp959
a(g90
g90
g90
g3
g3
tp960
a(g149
g149
g149
g3
g3
tp961
a(S'and'
p962
S'and'
p963
S'CC'
p964
g3
g3
tp965
a(S'the'
p966
S'the'
p967
S'DT'
p968
S'B-NP'
p969
g3
tp970
a(S'hospital'
p971
S'hospital'
p972
S'NN'
p973
S'I-NP'
p974
g3
tp975
a(S'stay'
p976
S'stay'
p977
S'NN'
p978
S'I-NP'
p979
g3
tp980
a(S'cost'
p981
S'cost'
p982
S'NN'
p983
S'I-NP'
p984
g3
tp985
a(S'per'
p986
S'per'
p987
S'IN'
p988
S'B-PP'
p989
g3
tp990
a(S'patient'
p991
S'patient'
p992
S'NN'
p993
S'B-NP'
p994
g3
tp995
a(g2
g2
g2
g3
g3
tp996
a(S'leva'
p997
S'leva'
p998
S'NN'
p999
S'B-NP'
p1000
g3
tp1001
a(g149
g149
g149
g3
g3
tp1002
a(S'3840'
p1003
S'3840'
p1004
S'CD'
p1005
S'B-NP'
p1006
g3
tp1007
a(S'+/-'
p1008
S'+/-'
p1009
S'SYM'
p1010
S'I-NP'
p1011
g3
tp1012
a(S'298'
p1013
S'298'
p1014
S'CD'
p1015
S'I-NP'
p1016
g3
tp1017
a(S'vs'
p1018
S'vs'
p1019
S'IN'
p1020
S'B-PP'
p1021
g3
tp1022
a(S'5160'
p1023
S'5160'
p1024
S'CD'
p1025
S'B-NP'
p1026
g3
tp1027
a(S'+/-'
p1028
S'+/-'
p1029
S'SYM'
p1030
S'I-NP'
p1031
g3
tp1032
a(S'3890'
p1033
S'3890'
p1034
S'CD'
p1035
S'I-NP'
p1036
g3
tp1037
a(g90
g90
g90
g3
g3
tp1038
a(g92
g92
g92
g3
g3
tp1039
a(S'Logistic'
p1040
S'Logistic'
p1041
S'JJ'
p1042
S'B-NP'
p1043
g3
tp1044
a(S'regression'
p1045
S'regression'
p1046
S'NN'
p1047
S'I-NP'
p1048
g3
tp1049
a(S'analyses'
p1050
S'analysis'
p1051
S'NNS'
p1052
S'I-NP'
p1053
g3
tp1054
a(S'showed'
p1055
S'show'
p1056
S'VBD'
p1057
S'B-VP'
p1058
g3
tp1059
a(S'that'
p1060
S'that'
p1061
S'IN'
p1062
S'B-SBAR'
p1063
g3
tp1064
a(S'no'
p1065
S'no'
p1066
S'DT'
p1067
S'B-NP'
p1068
g3
tp1069
a(S'having'
p1070
S'have'
p1071
S'VBG'
p1072
S'I-NP'
p1073
g3
tp1074
a(S'creation'
p1075
S'creation'
p1076
S'NN'
p1077
S'I-NP'
p1078
g3
tp1079
a(g827
g827
S'DT'
p1080
S'B-NP'
p1081
g3
tp1082
a(S'pleural'
p1083
S'pleural'
p1084
S'JJ'
p1085
S'I-NP'
p1086
g3
tp1087
a(S'tent'
p1088
S'tent'
p1089
S'JJ'
p1090
S'I-NP'
p1091
g3
tp1092
a(S'procedure'
p1093
S'procedure'
p1094
S'NN'
p1095
S'I-NP'
p1096
g3
tp1097
a(S'was'
p1098
S'be'
p1099
S'VBD'
p1100
S'B-VP'
p1101
g3
tp1102
a(S'the'
p1103
S'the'
p1104
S'DT'
p1105
S'B-NP'
p1106
g3
tp1107
a(S'most'
p1108
S'most'
p1109
S'RBS'
p1110
S'I-NP'
p1111
g3
tp1112
a(S'significant'
p1113
S'significant'
p1114
S'JJ'
p1115
S'I-NP'
p1116
g3
tp1117
a(S'predictive'
p1118
S'predictive'
p1119
S'JJ'
p1120
S'I-NP'
p1121
g3
tp1122
a(S'factor'
p1123
S'factor'
p1124
S'NN'
p1125
S'I-NP'
p1126
g3
tp1127
a(S'of'
p1128
S'of'
p1129
S'IN'
p1130
S'B-PP'
p1131
g3
tp1132
a(S'the'
p1133
S'the'
p1134
S'DT'
p1135
S'B-NP'
p1136
g3
tp1137
a(S'occurrence'
p1138
S'occurrence'
p1139
S'NN'
p1140
S'I-NP'
p1141
g3
tp1142
a(S'and'
p1143
S'and'
p1144
S'CC'
p1145
S'I-NP'
p1146
g3
tp1147
a(S'duration'
p1148
S'duration'
p1149
S'NN'
p1150
S'I-NP'
p1151
g3
tp1152
a(S'of'
p1153
S'of'
p1154
S'IN'
p1155
S'B-PP'
p1156
g3
tp1157
a(S'prolonged'
p1158
S'prolonged'
p1159
S'JJ'
p1160
S'B-NP'
p1161
g3
tp1162
a(S'air'
p1163
S'air'
p1164
S'NN'
p1165
S'I-NP'
p1166
g3
tp1167
a(S'leaks.'
p1168
S'leaks.'
p1169
S'NN'
p1170
S'I-NP'
p1171
g3
tp1172
a(S'A'
p1173
g1173
S'NN'
p1174
S'I-NP'
p1175
g3
tp1176
a(S'greater'
p1177
S'great'
p1178
S'JJR'
p1179
S'B-NP'
p1180
g3
tp1181
a(S'reduction'
p1182
S'reduction'
p1183
S'NN'
p1184
S'I-NP'
p1185
g3
tp1186
a(S'in'
p1187
S'in'
p1188
S'IN'
p1189
S'B-PP'
p1190
g3
tp1191
a(S'the'
p1192
S'the'
p1193
S'DT'
p1194
S'B-NP'
p1195
g3
tp1196
a(S'duration'
p1197
S'duration'
p1198
S'NN'
p1199
S'I-NP'
p1200
g3
tp1201
a(S'of'
p1202
S'of'
p1203
S'IN'
p1204
S'B-PP'
p1205
g3
tp1206
a(S'air'
p1207
S'air'
p1208
S'NN'
p1209
S'B-NP'
p1210
g3
tp1211
a(S'leaks'
p1212
S'leak'
p1213
S'NNS'
p1214
S'I-NP'
p1215
g3
tp1216
a(S'was'
p1217
S'be'
p1218
S'VBD'
p1219
S'B-VP'
p1220
g3
tp1221
a(S'observed'
p1222
S'observe'
p1223
S'VBN'
p1224
S'I-VP'
p1225
g3
tp1226
a(S'before'
p1227
S'before'
p1228
S'IN'
p1229
S'B-PP'
p1230
g3
tp1231
a(S'postoperative'
p1232
S'postoperative'
p1233
S'JJ'
p1234
S'B-NP'
p1235
g3
tp1236
a(S'day'
p1237
S'day'
p1238
S'NN'
p1239
S'I-NP'
p1240
g3
tp1241
a(S'4'
p1242
g1242
S'CD'
p1243
S'I-NP'
p1244
g3
tp1245
a(S'in'
p1246
S'in'
p1247
S'IN'
p1248
S'B-PP'
p1249
g3
tp1250
a(S'group'
p1251
S'group'
p1252
S'NN'
p1253
S'B-NP'
p1254
g3
tp1255
a(g368
g368
S'CD'
p1256
S'I-NP'
p1257
g3
tp1258
a(g149
g149
g149
g3
g3
tp1259
a(S'and'
p1260
S'and'
p1261
S'CC'
p1262
g3
g3
tp1263
a(S'logistic'
p1264
S'logistic'
p1265
S'JJ'
p1266
S'B-NP'
p1267
g3
tp1268
a(S'regression'
p1269
S'regression'
p1270
S'NN'
p1271
S'I-NP'
p1272
g3
tp1273
a(S'analysis'
p1274
S'analysis'
p1275
S'NN'
p1276
S'I-NP'
p1277
g3
tp1278
a(S'showed'
p1279
S'show'
p1280
S'VBD'
p1281
S'B-VP'
p1282
g3
tp1283
a(S'that'
p1284
S'that'
p1285
S'IN'
p1286
S'B-SBAR'
p1287
g3
tp1288
a(S'having'
p1289
S'have'
p1290
S'VBG'
p1291
S'B-VP'
p1292
g3
tp1293
a(g827
g827
S'DT'
p1294
S'B-NP'
p1295
g3
tp1296
a(S'pleural'
p1297
S'pleural'
p1298
S'JJ'
p1299
S'I-NP'
p1300
g3
tp1301
a(S'tent'
p1302
S'tent'
p1303
S'JJ'
p1304
S'I-NP'
p1305
g3
tp1306
a(S'procedure'
p1307
S'procedure'
p1308
S'NN'
p1309
S'I-NP'
p1310
g3
tp1311
a(S'was'
p1312
S'be'
p1313
S'VBD'
p1314
S'B-VP'
p1315
g3
tp1316
a(S'the'
p1317
S'the'
p1318
S'DT'
p1319
S'B-NP'
p1320
g3
tp1321
a(S'most'
p1322
S'most'
p1323
S'RBS'
p1324
S'I-NP'
p1325
g3
tp1326
a(S'significant'
p1327
S'significant'
p1328
S'JJ'
p1329
S'I-NP'
p1330
g3
tp1331
a(S'predictive'
p1332
S'predictive'
p1333
S'JJ'
p1334
S'I-NP'
p1335
g3
tp1336
a(S'factor'
p1337
S'factor'
p1338
S'NN'
p1339
S'I-NP'
p1340
g3
tp1341
a(S'of'
p1342
S'of'
p1343
S'IN'
p1344
S'B-PP'
p1345
g3
tp1346
a(S'air'
p1347
S'air'
p1348
S'NN'
p1349
S'B-NP'
p1350
g3
tp1351
a(S'leaks'
p1352
S'leak'
p1353
S'NNS'
p1354
S'I-NP'
p1355
g3
tp1356
a(S'that'
p1357
S'that'
p1358
S'WDT'
p1359
S'B-NP'
p1360
g3
tp1361
a(S'persisted'
p1362
S'persist'
p1363
S'VBD'
p1364
S'B-VP'
p1365
g3
tp1366
a(S'for'
p1367
S'for'
p1368
S'IN'
p1369
S'B-PP'
p1370
g3
tp1371
a(S'less'
p1372
S'less'
p1373
S'JJR'
p1374
S'B-NP'
p1375
g3
tp1376
a(S'than'
p1377
S'than'
p1378
S'IN'
p1379
S'I-NP'
p1380
g3
tp1381
a(g1242
g1242
S'CD'
p1382
S'I-NP'
p1383
g3
tp1384
a(S'days'
p1385
S'day'
p1386
S'NNS'
p1387
S'I-NP'
p1388
g3
tp1389
a(g92
g92
g92
g3
g3
tp1390
a(S'CONCLUSIONS'
p1391
S'CONCLUSIONS'
p1392
S'NNS'
p1393
S'B-NP'
p1394
g3
tp1395
a(S'Pleural'
p1396
S'Pleural'
p1397
S'JJ'
p1398
S'I-NP'
p1399
g3
tp1400
a(S'tent'
p1401
S'tent'
p1402
S'JJ'
p1403
S'I-NP'
p1404
g3
tp1405
a(S'creation'
p1406
S'creation'
p1407
S'NN'
p1408
S'I-NP'
p1409
g3
tp1410
a(S'after'
p1411
S'after'
p1412
S'IN'
p1413
S'B-PP'
p1414
g3
tp1415
a(S'upper'
p1416
S'upper'
p1417
S'JJ'
p1418
S'B-NP'
p1419
g3
tp1420
a(S'lobectomy'
p1421
S'lobectomy'
p1422
S'NN'
p1423
S'I-NP'
p1424
g3
tp1425
a(S'is'
p1426
S'be'
p1427
S'VBZ'
p1428
S'B-VP'
p1429
g3
tp1430
a(g827
g827
S'DT'
p1431
S'B-NP'
p1432
g3
tp1433
a(S'simple'
p1434
S'simple'
p1435
S'JJ'
p1436
S'I-NP'
p1437
g3
tp1438
a(S'and'
p1439
S'and'
p1440
S'CC'
p1441
S'I-NP'
p1442
g3
tp1443
a(S'safe'
p1444
S'safe'
p1445
S'JJ'
p1446
S'I-NP'
p1447
g3
tp1448
a(S'procedure'
p1449
S'procedure'
p1450
S'NN'
p1451
S'I-NP'
p1452
g3
tp1453
a(S'that'
p1454
S'that'
p1455
S'WDT'
p1456
S'B-NP'
p1457
g3
tp1458
a(S'reduces'
p1459
S'reduce'
p1460
S'VBZ'
p1461
S'B-VP'
p1462
g3
tp1463
a(S'the'
p1464
S'the'
p1465
S'DT'
p1466
S'B-NP'
p1467
g3
tp1468
a(S'duration'
p1469
S'duration'
p1470
S'NN'
p1471
S'I-NP'
p1472
g3
tp1473
a(S'of'
p1474
S'of'
p1475
S'IN'
p1476
S'B-PP'
p1477
g3
tp1478
a(S'air'
p1479
S'air'
p1480
S'NN'
p1481
S'B-NP'
p1482
g3
tp1483
a(S'leaks'
p1484
S'leak'
p1485
S'NNS'
p1486
S'I-NP'
p1487
g3
tp1488
a(S'and'
p1489
S'and'
p1490
S'CC'
p1491
g3
g3
tp1492
a(S'the'
p1493
S'the'
p1494
S'DT'
p1495
S'B-NP'
p1496
g3
tp1497
a(S'hospital'
p1498
S'hospital'
p1499
S'NN'
p1500
S'I-NP'
p1501
g3
tp1502
a(S'stay'
p1503
S'stay'
p1504
S'NN'
p1505
S'I-NP'
p1506
g3
tp1507
a(S'costs.'
p1508
S'costs.'
p1509
S'NN'
p1510
S'I-NP'
p1511
g3
tp1512
a(S'The'
p1513
S'The'
p1514
S'DT'
p1515
S'B-NP'
p1516
g3
tp1517
a(S'benefit'
p1518
S'benefit'
p1519
S'NN'
p1520
S'I-NP'
p1521
g3
tp1522
a(S'from'
p1523
S'from'
p1524
S'IN'
p1525
S'B-PP'
p1526
g3
tp1527
a(S'that'
p1528
S'that'
p1529
S'DT'
p1530
S'B-NP'
p1531
g3
tp1532
a(S'procedure'
p1533
S'procedure'
p1534
S'NN'
p1535
S'I-NP'
p1536
g3
tp1537
a(S'is'
p1538
S'be'
p1539
S'VBZ'
p1540
S'B-VP'
p1541
g3
tp1542
a(S'achieved'
p1543
S'achieve'
p1544
S'VBN'
p1545
S'I-VP'
p1546
g3
tp1547
a(S'before'
p1548
S'before'
p1549
S'IN'
p1550
S'B-PP'
p1551
g3
tp1552
a(S'postoperative'
p1553
S'postoperative'
p1554
S'JJ'
p1555
S'B-NP'
p1556
g3
tp1557
a(S'day'
p1558
S'day'
p1559
S'NN'
p1560
S'I-NP'
p1561
g3
tp1562
a(g1242
g1242
S'CD'
p1563
S'I-NP'
p1564
g3
tp1565
a(g92
g92
g92
g3
g3
tp1566
a.