(lp0
(S'Efficacy'
p1
S'Efficacy'
p2
S'NN'
p3
S'B-NP'
p4
S'O'
p5
tp6
a(S'of'
p7
S'of'
p8
S'IN'
p9
S'B-PP'
p10
g5
tp11
a(S'bepotastine'
p12
S'bepotastine'
p13
S'NN'
p14
S'B-NP'
p15
g5
tp16
a(S'besilate'
p17
S'besilate'
p18
S'VBP'
p19
S'B-VP'
p20
g5
tp21
a(S'ophthalmic'
p22
S'ophthalmic'
p23
S'JJ'
p24
S'B-NP'
p25
g5
tp26
a(S'solution'
p27
S'solution'
p28
S'NN'
p29
S'I-NP'
p30
g5
tp31
a(S'1.5'
p32
S'1.5'
p33
S'CD'
p34
S'B-NP'
p35
g5
tp36
a(S'%'
p37
g37
S'NN'
p38
S'I-NP'
p39
g5
tp40
a(S'for'
p41
S'for'
p42
S'IN'
p43
S'B-PP'
p44
g5
tp45
a(S'seasonal'
p46
S'seasonal'
p47
S'JJ'
p48
S'B-NP'
p49
g5
tp50
a(S'allergic'
p51
S'allergic'
p52
S'JJ'
p53
S'I-NP'
p54
g5
tp55
a(S'conjunctivitis'
p56
S'conjunctivitis'
p57
S'NN'
p58
S'I-NP'
p59
g5
tp60
a(S':'
p61
g61
g61
g5
g5
tp62
a(S'a'
p63
g63
S'DT'
p64
S'B-NP'
p65
g5
tp66
a(S'randomized'
p67
S'randomize'
p68
S'VBN'
p69
S'I-NP'
p70
g5
tp71
a(S','
p72
g72
g72
S'I-NP'
p73
g5
tp74
a(S'placebo-controlled'
p75
S'placebo-controlled'
p76
S'JJ'
p77
S'I-NP'
p78
g5
tp79
a(g72
g72
g72
S'I-NP'
p80
g5
tp81
a(S'natural'
p82
S'natural'
p83
S'JJ'
p84
S'I-NP'
p85
g5
tp86
a(S'exposure'
p87
S'exposure'
p88
S'NN'
p89
S'I-NP'
p90
g5
tp91
a(g72
g72
g72
g5
g5
tp92
a(S'clinical'
p93
S'clinical'
p94
S'JJ'
p95
S'B-NP'
p96
g5
tp97
a(S'trial'
p98
S'trial'
p99
S'NN'
p100
S'I-NP'
p101
g5
tp102
a(S'.'
p103
g103
g103
g5
g5
tp104
a(S'Allergic'
p105
S'Allergic'
p106
S'JJ'
p107
S'B-NP'
p108
g5
tp109
a(S'conjunctivitis'
p110
S'conjunctivitis'
p111
S'NN'
p112
S'I-NP'
p113
g5
tp114
a(S'('
p115
g115
g115
g5
g5
tp116
a(S'AC'
p117
S'AC'
p118
S'NN'
p119
S'B-NP'
p120
g5
tp121
a(S')'
p122
g122
g122
g5
g5
tp123
a(S'affects'
p124
S'affect'
p125
S'VBZ'
p126
S'B-VP'
p127
g5
tp128
a(S'an'
p129
S'an'
p130
S'DT'
p131
S'B-NP'
p132
g5
tp133
a(S'estimated'
p134
S'estimate'
p135
S'VBN'
p136
S'I-NP'
p137
g5
tp138
a(S'20'
p139
S'20'
p140
S'CD'
p141
S'I-NP'
p142
g5
tp143
a(g37
g37
S'NN'
p144
S'I-NP'
p145
g5
tp146
a(S'of'
p147
S'of'
p148
S'IN'
p149
S'B-PP'
p150
g5
tp151
a(S'the'
p152
S'the'
p153
S'DT'
p154
S'B-NP'
p155
g5
tp156
a(S'population'
p157
S'population'
p158
S'NN'
p159
S'I-NP'
p160
g5
tp161
a(S'in'
p162
S'in'
p163
S'IN'
p164
S'B-PP'
p165
g5
tp166
a(S'the'
p167
S'the'
p168
S'DT'
p169
S'B-NP'
p170
g5
tp171
a(S'Western'
p172
S'Western'
p173
S'JJ'
p174
S'I-NP'
p175
g5
tp176
a(S'world'
p177
S'world'
p178
S'NN'
p179
S'I-NP'
p180
g5
tp181
a(g72
g72
g72
g5
g5
tp182
a(S'with'
p183
S'with'
p184
S'IN'
p185
S'B-PP'
p186
g5
tp187
a(g63
g63
S'DT'
p188
S'B-NP'
p189
g5
tp190
a(S'large'
p191
S'large'
p192
S'JJ'
p193
S'I-NP'
p194
g5
tp195
a(S'fraction'
p196
S'fraction'
p197
S'NN'
p198
S'I-NP'
p199
g5
tp200
a(S'suffering'
p201
S'suffer'
p202
S'VBG'
p203
S'B-VP'
p204
g5
tp205
a(S'due'
p206
S'due'
p207
S'JJ'
p208
S'B-ADVP'
p209
g5
tp210
a(S'to'
p211
S'to'
p212
S'TO'
p213
S'B-PP'
p214
g5
tp215
a(S'seasonal'
p216
S'seasonal'
p217
S'JJ'
p218
S'B-NP'
p219
g5
tp220
a(S'or'
p221
S'or'
p222
S'CC'
p223
S'I-NP'
p224
g5
tp225
a(S'perennial'
p226
S'perennial'
p227
S'JJ'
p228
S'I-NP'
p229
g5
tp230
a(S'allergen'
p231
S'allergen'
p232
S'NN'
p233
S'I-NP'
p234
g5
tp235
a(S'exposures.'
p236
S'exposures.'
p237
S'NN'
p238
S'I-NP'
p239
g5
tp240
a(S'Bepotastine'
p241
S'Bepotastine'
p242
S'NN'
p243
S'I-NP'
p244
g5
tp245
a(S'besilate'
p246
S'besilate'
p247
S'VBP'
p248
S'B-VP'
p249
g5
tp250
a(S'ophthalmic'
p251
S'ophthalmic'
p252
S'JJ'
p253
S'B-NP'
p254
g5
tp255
a(S'solution'
p256
S'solution'
p257
S'NN'
p258
S'I-NP'
p259
g5
tp260
a(g115
g115
g115
g5
g5
tp261
a(S'BBOS'
p262
S'BBOS'
p263
S'NN'
p264
S'B-NP'
p265
g5
tp266
a(g122
g122
g122
g5
g5
tp267
a(S'1.5'
p268
S'1.5'
p269
S'CD'
p270
S'B-NP'
p271
g5
tp272
a(g37
g37
S'NN'
p273
S'I-NP'
p274
g5
tp275
a(g72
g72
g72
g5
g5
tp276
a(g63
g63
S'DT'
p277
S'B-NP'
p278
g5
tp279
a(S'dual-acting'
p280
S'dual-acting'
p281
S'JJ'
p282
S'I-NP'
p283
g5
tp284
a(S'histamine'
p285
S'histamine'
p286
S'NN'
p287
S'I-NP'
p288
g5
tp289
a(g115
g115
g115
g5
g5
tp290
a(S'H'
p291
g291
S'NN'
p292
S'B-NP'
p293
g5
tp294
a(g115
g115
g115
g5
g5
tp295
a(S'1'
p296
g296
S'CD'
p297
S'B-NP'
p298
g5
tp299
a(g122
g122
g122
g5
g5
tp300
a(g122
g122
g122
g5
g5
tp301
a(S'receptor'
p302
S'receptor'
p303
S'NN'
p304
S'B-NP'
p305
g5
tp306
a(S'antagonist'
p307
S'antagonist'
p308
S'NN'
p309
S'I-NP'
p310
g5
tp311
a(S'and'
p312
S'and'
p313
S'CC'
p314
g5
g5
tp315
a(S'mast'
p316
S'mast'
p317
S'NN'
p318
S'B-NP'
p319
g5
tp320
a(S'cell'
p321
S'cell'
p322
S'NN'
p323
S'I-NP'
p324
g5
tp325
a(S'stabilizer'
p326
S'stabilizer'
p327
S'NN'
p328
S'I-NP'
p329
g5
tp330
a(g72
g72
g72
g5
g5
tp331
a(S'is'
p332
S'be'
p333
S'VBZ'
p334
S'B-VP'
p335
g5
tp336
a(S'indicated'
p337
S'indicate'
p338
S'VBN'
p339
S'I-VP'
p340
g5
tp341
a(S'for'
p342
S'for'
p343
S'IN'
p344
S'B-PP'
p345
g5
tp346
a(S'itching'
p347
S'itch'
p348
S'VBG'
p349
S'B-VP'
p350
g5
tp351
a(S'associated'
p352
S'associate'
p353
S'VBN'
p354
S'I-VP'
p355
g5
tp356
a(S'with'
p357
S'with'
p358
S'IN'
p359
S'B-PP'
p360
g5
tp361
a(S'AC.'
p362
S'AC.'
p363
S'NNP'
p364
S'B-NP'
p365
g5
tp366
a(S'This'
p367
S'This'
p368
S'DT'
p369
S'B-NP'
p370
g5
tp371
a(S'study'
p372
S'study'
p373
S'NN'
p374
S'I-NP'
p375
g5
tp376
a(S'was'
p377
S'be'
p378
S'VBD'
p379
S'B-VP'
p380
g5
tp381
a(S'designed'
p382
S'design'
p383
S'VBN'
p384
S'I-VP'
p385
g5
tp386
a(S'to'
p387
S'to'
p388
S'TO'
p389
S'B-VP'
p390
g5
tp391
a(S'evaluate'
p392
S'evaluate'
p393
S'VB'
p394
S'I-VP'
p395
g5
tp396
a(S'the'
p397
S'the'
p398
S'DT'
p399
S'B-NP'
p400
g5
tp401
a(S'efficacy'
p402
S'efficacy'
p403
S'NN'
p404
S'I-NP'
p405
g5
tp406
a(S'and'
p407
S'and'
p408
S'CC'
p409
S'I-NP'
p410
g5
tp411
a(S'safety'
p412
S'safety'
p413
S'NN'
p414
S'I-NP'
p415
g5
tp416
a(S'of'
p417
S'of'
p418
S'IN'
p419
S'B-PP'
p420
g5
tp421
a(S'BBOS'
p422
S'BBOS'
p423
S'NN'
p424
S'B-NP'
p425
g5
tp426
a(S'1.5'
p427
S'1.5'
p428
S'CD'
p429
S'B-NP'
p430
g5
tp431
a(g37
g37
S'NN'
p432
S'I-NP'
p433
g5
tp434
a(S'for'
p435
S'for'
p436
S'IN'
p437
S'B-PP'
p438
g5
tp439
a(S'reducing'
p440
S'reduce'
p441
S'VBG'
p442
S'B-VP'
p443
g5
tp444
a(S'ocular'
p445
S'ocular'
p446
S'JJ'
p447
S'B-NP'
p448
g5
tp449
a(S'itching'
p450
S'itching'
p451
S'NN'
p452
S'I-NP'
p453
g5
tp454
a(S'associated'
p455
S'associate'
p456
S'VBN'
p457
S'B-VP'
p458
g5
tp459
a(S'with'
p460
S'with'
p461
S'IN'
p462
S'B-PP'
p463
g5
tp464
a(S'AC'
p465
S'AC'
p466
S'NN'
p467
S'B-NP'
p468
g5
tp469
a(S'in'
p470
S'in'
p471
S'IN'
p472
S'B-PP'
p473
g5
tp474
a(S'subjects'
p475
S'subject'
p476
S'NNS'
p477
S'B-NP'
p478
g5
tp479
a(S'enrolled'
p480
S'enrol'
p481
S'VBN'
p482
S'B-VP'
p483
g5
tp484
a(S'in'
p485
S'in'
p486
S'IN'
p487
S'B-PP'
p488
g5
tp489
a(g63
g63
S'DT'
p490
S'B-NP'
p491
g5
tp492
a(S'natural'
p493
S'natural'
p494
S'JJ'
p495
S'I-NP'
p496
g5
tp497
a(S'exposure'
p498
S'exposure'
p499
S'NN'
p500
S'I-NP'
p501
g5
tp502
a(S'trial.'
p503
S'trial.'
p504
S'NN'
p505
S'I-NP'
p506
g5
tp507
a(S'Eligible'
p508
S'Eligible'
p509
S'JJ'
p510
S'I-NP'
p511
g5
tp512
a(S'subjects'
p513
S'subject'
p514
S'NNS'
p515
S'I-NP'
p516
g5
tp517
a(S'in'
p518
S'in'
p519
S'IN'
p520
S'B-PP'
p521
g5
tp522
a(g63
g63
S'DT'
p523
S'B-NP'
p524
g5
tp525
a(S'multicenter'
p526
S'multicenter'
p527
S'JJ'
p528
S'I-NP'
p529
g5
tp530
a(g72
g72
g72
S'I-NP'
p531
g5
tp532
a(S'double-masked'
p533
S'double-masked'
p534
S'JJ'
p535
S'I-NP'
p536
g5
tp537
a(g72
g72
g72
S'I-NP'
p538
g5
tp539
a(S'randomized'
p540
S'randomize'
p541
S'VBN'
p542
S'I-NP'
p543
g5
tp544
a(g72
g72
g72
S'I-NP'
p545
g5
tp546
a(S'parallel-group'
p547
S'parallel-group'
p548
S'JJ'
p549
S'I-NP'
p550
g5
tp551
a(g72
g72
g72
S'I-NP'
p552
g5
tp553
a(S'placebo-controlled'
p554
S'placebo-controlled'
p555
S'JJ'
p556
S'I-NP'
p557
g5
tp558
a(g72
g72
g72
S'I-NP'
p559
g5
tp560
a(S'natural'
p561
S'natural'
p562
S'JJ'
p563
S'I-NP'
p564
g5
tp565
a(S'exposure'
p566
S'exposure'
p567
S'NN'
p568
S'I-NP'
p569
g5
tp570
a(S'clinical'
p571
S'clinical'
p572
S'JJ'
p573
S'I-NP'
p574
g5
tp575
a(S'trial'
p576
S'trial'
p577
S'NN'
p578
S'I-NP'
p579
g5
tp580
a(S'were'
p581
S'be'
p582
S'VBD'
p583
S'B-VP'
p584
g5
tp585
a(S'randomly'
p586
S'randomly'
p587
S'RB'
p588
S'I-VP'
p589
g5
tp590
a(S'assigned'
p591
S'assign'
p592
S'VBN'
p593
S'I-VP'
p594
g5
tp595
a(S'to'
p596
S'to'
p597
S'TO'
p598
S'B-PP'
p599
g5
tp600
a(S'either'
p601
S'either'
p602
S'CC'
p603
g5
g5
tp604
a(S'BBOS'
p605
S'BBOS'
p606
S'NN'
p607
S'B-NP'
p608
g5
tp609
a(S'1.5'
p610
S'1.5'
p611
S'CD'
p612
S'B-NP'
p613
g5
tp614
a(g37
g37
S'NN'
p615
S'I-NP'
p616
g5
tp617
a(S'or'
p618
S'or'
p619
S'CC'
p620
S'I-NP'
p621
g5
tp622
a(S'placebo'
p623
S'placebo'
p624
S'NN'
p625
S'I-NP'
p626
g5
tp627
a(S'eyedrops'
p628
S'eyedrop'
p629
S'VBZ'
p630
S'B-VP'
p631
g5
tp632
a(S'on'
p633
S'on'
p634
S'IN'
p635
S'B-PP'
p636
g5
tp637
a(g63
g63
S'DT'
p638
S'B-NP'
p639
g5
tp640
a(g296
g296
S'CD'
p641
S'I-NP'
p642
g5
tp643
a(g61
g61
S'SYM'
p644
S'I-NP'
p645
g5
tp646
a(g296
g296
S'CD'
p647
S'I-NP'
p648
g5
tp649
a(S'basis'
p650
S'basis'
p651
S'NN'
p652
S'I-NP'
p653
g5
tp654
a(S'and'
p655
S'and'
p656
S'CC'
p657
g5
g5
tp658
a(S'instilled'
p659
S'instill'
p660
S'VBD'
p661
S'B-VP'
p662
g5
tp663
a(g296
g296
S'CD'
p664
S'B-NP'
p665
g5
tp666
a(S'drop'
p667
S'drop'
p668
S'NN'
p669
S'I-NP'
p670
g5
tp671
a(S'of'
p672
S'of'
p673
S'IN'
p674
S'B-PP'
p675
g5
tp676
a(S'the'
p677
S'the'
p678
S'DT'
p679
S'B-NP'
p680
g5
tp681
a(S'test'
p682
S'test'
p683
S'NN'
p684
S'I-NP'
p685
g5
tp686
a(S'agent'
p687
S'agent'
p688
S'NN'
p689
S'I-NP'
p690
g5
tp691
a(S'into'
p692
S'into'
p693
S'IN'
p694
S'B-PP'
p695
g5
tp696
a(S'both'
p697
S'both'
p698
S'DT'
p699
S'B-NP'
p700
g5
tp701
a(S'eyes'
p702
S'eye'
p703
S'NNS'
p704
S'I-NP'
p705
g5
tp706
a(S'twice'
p707
S'twice'
p708
S'RB'
p709
S'B-ADVP'
p710
g5
tp711
a(S'daily'
p712
S'daily'
p713
S'RB'
p714
S'I-ADVP'
p715
g5
tp716
a(S'for'
p717
S'for'
p718
S'IN'
p719
S'B-PP'
p720
g5
tp721
a(S'2'
p722
g722
S'CD'
p723
S'B-NP'
p724
g5
tp725
a(S'weeks.'
p726
S'weeks.'
p727
S'NN'
p728
S'I-NP'
p729
g5
tp730
a(S'The'
p731
S'The'
p732
S'DT'
p733
S'B-NP'
p734
g5
tp735
a(S'mean'
p736
S'mean'
p737
S'JJ'
p738
S'I-NP'
p739
g5
tp740
a(S'change'
p741
S'change'
p742
S'NN'
p743
S'I-NP'
p744
g5
tp745
a(S'from'
p746
S'from'
p747
S'IN'
p748
S'B-PP'
p749
g5
tp750
a(S'baseline'
p751
S'baseline'
p752
S'NN'
p753
S'B-NP'
p754
g5
tp755
a(S'in'
p756
S'in'
p757
S'IN'
p758
S'B-PP'
p759
g5
tp760
a(S'instantaneous'
p761
S'instantaneous'
p762
S'JJ'
p763
S'B-NP'
p764
g5
tp765
a(S'and'
p766
S'and'
p767
S'CC'
p768
S'I-NP'
p769
g5
tp770
a(S'reflective'
p771
S'reflective'
p772
S'JJ'
p773
S'I-NP'
p774
g5
tp775
a(S'ocular'
p776
S'ocular'
p777
S'JJ'
p778
S'I-NP'
p779
g5
tp780
a(S'itching'
p781
S'itch'
p782
S'VBG'
p783
S'I-NP'
p784
g5
tp785
a(S'scores'
p786
S'score'
p787
S'NNS'
p788
S'I-NP'
p789
g5
tp790
a(S'at'
p791
S'at'
p792
S'IN'
p793
S'B-PP'
p794
g5
tp795
a(S'the'
p796
S'the'
p797
S'DT'
p798
S'B-NP'
p799
g5
tp800
a(S'end'
p801
S'end'
p802
S'NN'
p803
S'I-NP'
p804
g5
tp805
a(S'of'
p806
S'of'
p807
S'IN'
p808
S'B-PP'
p809
g5
tp810
a(g722
g722
S'CD'
p811
S'B-NP'
p812
g5
tp813
a(S'weeks'
p814
S'week'
p815
S'NNS'
p816
S'I-NP'
p817
g5
tp818
a(S'of'
p819
S'of'
p820
S'IN'
p821
S'B-PP'
p822
g5
tp823
a(S'treatment'
p824
S'treatment'
p825
S'NN'
p826
S'B-NP'
p827
g5
tp828
a(S'were'
p829
S'be'
p830
S'VBD'
p831
S'B-VP'
p832
g5
tp833
a(S'evaluated'
p834
S'evaluate'
p835
S'VBN'
p836
S'I-VP'
p837
g5
tp838
a(S'based'
p839
S'base'
p840
S'VBN'
p841
S'B-PP'
p842
g5
tp843
a(S'on'
p844
S'on'
p845
S'IN'
p846
S'B-PP'
p847
g5
tp848
a(S'subject-assessed'
p849
S'subject-assessed'
p850
S'JJ'
p851
S'B-NP'
p852
g5
tp853
a(S'severity'
p854
S'severity'
p855
S'NN'
p856
S'I-NP'
p857
g5
tp858
a(S'of'
p859
S'of'
p860
S'IN'
p861
S'B-PP'
p862
g5
tp863
a(S'instantaneous'
p864
S'instantaneous'
p865
S'JJ'
p866
S'B-NP'
p867
g5
tp868
a(S'and'
p869
S'and'
p870
S'CC'
p871
S'I-NP'
p872
g5
tp873
a(S'reflective'
p874
S'reflective'
p875
S'JJ'
p876
S'I-NP'
p877
g5
tp878
a(S'itching.'
p879
S'itching.'
p880
S'FW'
p881
S'I-NP'
p882
g5
tp883
a(S'Subject-reported'
p884
S'Subject-reported'
p885
S'JJ'
p886
S'I-NP'
p887
g5
tp888
a(S'adverse'
p889
S'adverse'
p890
S'JJ'
p891
S'I-NP'
p892
g5
tp893
a(S'events'
p894
S'event'
p895
S'NNS'
p896
S'I-NP'
p897
g5
tp898
a(g115
g115
g115
g5
g5
tp899
a(S'AEs'
p900
S'AE'
p901
S'NNS'
p902
S'B-NP'
p903
g5
tp904
a(g122
g122
g122
g5
g5
tp905
a(S'were'
p906
S'be'
p907
S'VBD'
p908
S'B-VP'
p909
g5
tp910
a(S'also'
p911
S'also'
p912
S'RB'
p913
S'I-VP'
p914
g5
tp915
a(S'recorded'
p916
S'record'
p917
S'VBN'
p918
S'I-VP'
p919
g5
tp920
a(S'for'
p921
S'for'
p922
S'IN'
p923
S'B-PP'
p924
g5
tp925
a(S'safety.'
p926
S'safety.'
p927
S'NN'
p928
S'B-NP'
p929
g5
tp930
a(S'Treatment'
p931
S'Treatment'
p932
S'NN'
p933
S'I-NP'
p934
g5
tp935
a(S'with'
p936
S'with'
p937
S'IN'
p938
S'B-PP'
p939
g5
tp940
a(S'BBOS'
p941
S'BBOS'
p942
S'NN'
p943
S'B-NP'
p944
g5
tp945
a(S'1.5'
p946
S'1.5'
p947
S'CD'
p948
S'B-NP'
p949
g5
tp950
a(g37
g37
S'NN'
p951
S'I-NP'
p952
g5
tp953
a(S'significantly'
p954
S'significantly'
p955
S'RB'
p956
S'B-ADVP'
p957
g5
tp958
a(S'reduced'
p959
S'reduce'
p960
S'VBD'
p961
S'B-VP'
p962
g5
tp963
a(S'instantaneous'
p964
S'instantaneous'
p965
S'JJ'
p966
S'B-NP'
p967
g5
tp968
a(S'and'
p969
S'and'
p970
S'CC'
p971
S'I-NP'
p972
g5
tp973
a(S'reflective'
p974
S'reflective'
p975
S'JJ'
p976
S'I-NP'
p977
g5
tp978
a(S'ocular'
p979
S'ocular'
p980
S'JJ'
p981
S'I-NP'
p982
g5
tp983
a(S'itching'
p984
S'itch'
p985
S'VBG'
p986
S'I-NP'
p987
g5
tp988
a(S'scores'
p989
S'score'
p990
S'NNS'
p991
S'I-NP'
p992
g5
tp993
a(S'from'
p994
S'from'
p995
S'IN'
p996
S'B-PP'
p997
g5
tp998
a(S'baseline'
p999
S'baseline'
p1000
S'NN'
p1001
S'B-NP'
p1002
g5
tp1003
a(S'compared'
p1004
S'compare'
p1005
S'VBN'
p1006
S'B-PP'
p1007
g5
tp1008
a(S'with'
p1009
S'with'
p1010
S'IN'
p1011
S'B-PP'
p1012
g5
tp1013
a(S'placebo'
p1014
S'placebo'
p1015
S'NN'
p1016
S'B-NP'
p1017
g5
tp1018
a(S'over'
p1019
S'over'
p1020
S'IN'
p1021
S'B-PP'
p1022
g5
tp1023
a(S'the'
p1024
S'the'
p1025
S'DT'
p1026
S'B-NP'
p1027
g5
tp1028
a(S'2-week'
p1029
S'2-week'
p1030
S'JJ'
p1031
S'I-NP'
p1032
g5
tp1033
a(S'study'
p1034
S'study'
p1035
S'NN'
p1036
S'I-NP'
p1037
g5
tp1038
a(S'period'
p1039
S'period'
p1040
S'NN'
p1041
S'I-NP'
p1042
g5
tp1043
a(g115
g115
g115
g5
g5
tp1044
a(S'p'
p1045
g1045
S'NN'
p1046
S'B-NP'
p1047
g5
tp1048
a(S'='
p1049
g1049
S'SYM'
p1050
S'B-VP'
p1051
g5
tp1052
a(S'0.007'
p1053
S'0.007'
p1054
S'CD'
p1055
S'B-NP'
p1056
g5
tp1057
a(S'and'
p1058
S'and'
p1059
S'CC'
p1060
g5
g5
tp1061
a(g1045
g1045
S'NN'
p1062
S'B-NP'
p1063
g5
tp1064
a(g1049
g1049
S'SYM'
p1065
S'B-VP'
p1066
g5
tp1067
a(S'0.005'
p1068
S'0.005'
p1069
S'CD'
p1070
S'B-NP'
p1071
g5
tp1072
a(g72
g72
g72
g5
g5
tp1073
a(S'respectively'
p1074
S'respectively'
p1075
S'RB'
p1076
S'B-ADVP'
p1077
g5
tp1078
a(g122
g122
g122
g5
g5
tp1079
a(g103
g103
g103
g5
g5
tp1080
a(S'BBOS'
p1081
S'BBOS'
p1082
S'NN'
p1083
g5
g5
tp1084
a(S'1.5'
p1085
S'1.5'
p1086
S'CD'
p1087
S'B-NP'
p1088
g5
tp1089
a(g37
g37
S'NN'
p1090
S'I-NP'
p1091
g5
tp1092
a(S'was'
p1093
S'be'
p1094
S'VBD'
p1095
S'B-VP'
p1096
g5
tp1097
a(S'well'
p1098
S'well'
p1099
S'RB'
p1100
S'I-VP'
p1101
g5
tp1102
a(S'tolerated'
p1103
S'tolerate'
p1104
S'VBN'
p1105
S'I-VP'
p1106
g5
tp1107
a(g72
g72
g72
g5
g5
tp1108
a(S'and'
p1109
S'and'
p1110
S'CC'
p1111
g5
g5
tp1112
a(S'AEs'
p1113
S'AE'
p1114
S'NNS'
p1115
S'B-NP'
p1116
S'B-protein'
p1117
tp1118
a(S'were'
p1119
S'be'
p1120
S'VBD'
p1121
S'B-VP'
p1122
g5
tp1123
a(S'generally'
p1124
S'generally'
p1125
S'RB'
p1126
S'B-ADJP'
p1127
g5
tp1128
a(S'transient'
p1129
S'transient'
p1130
S'JJ'
p1131
S'I-ADJP'
p1132
g5
tp1133
a(S'and'
p1134
S'and'
p1135
S'CC'
p1136
g5
g5
tp1137
a(S'mild.'
p1138
S'mild.'
p1139
S'VB'
p1140
S'B-VP'
p1141
g5
tp1142
a(S'This'
p1143
S'This'
p1144
S'DT'
p1145
S'B-NP'
p1146
g5
tp1147
a(S'clinical'
p1148
S'clinical'
p1149
S'JJ'
p1150
S'I-NP'
p1151
g5
tp1152
a(S'study'
p1153
S'study'
p1154
S'NN'
p1155
S'I-NP'
p1156
g5
tp1157
a(S'indicates'
p1158
S'indicate'
p1159
S'VBZ'
p1160
S'B-VP'
p1161
g5
tp1162
a(S'BBOS'
p1163
S'BBOS'
p1164
S'NN'
p1165
S'B-NP'
p1166
g5
tp1167
a(S'1.5'
p1168
S'1.5'
p1169
S'CD'
p1170
S'B-NP'
p1171
g5
tp1172
a(g37
g37
S'NN'
p1173
S'I-NP'
p1174
g5
tp1175
a(S'effectively'
p1176
S'effectively'
p1177
S'RB'
p1178
S'B-ADVP'
p1179
g5
tp1180
a(S'and'
p1181
S'and'
p1182
S'CC'
p1183
S'I-ADVP'
p1184
g5
tp1185
a(S'safely'
p1186
S'safely'
p1187
S'RB'
p1188
S'I-ADVP'
p1189
g5
tp1190
a(S'treated'
p1191
S'treat'
p1192
S'VBN'
p1193
S'B-VP'
p1194
g5
tp1195
a(S'ocular'
p1196
S'ocular'
p1197
S'JJ'
p1198
S'B-NP'
p1199
g5
tp1200
a(S'itching'
p1201
S'itching'
p1202
S'NN'
p1203
S'I-NP'
p1204
g5
tp1205
a(S'in'
p1206
S'in'
p1207
S'IN'
p1208
S'B-PP'
p1209
g5
tp1210
a(g63
g63
S'DT'
p1211
S'B-NP'
p1212
g5
tp1213
a(S'natural'
p1214
S'natural'
p1215
S'JJ'
p1216
S'I-NP'
p1217
g5
tp1218
a(S'exposure'
p1219
S'exposure'
p1220
S'NN'
p1221
S'I-NP'
p1222
g5
tp1223
a(S'allergy'
p1224
S'allergy'
p1225
S'NN'
p1226
S'I-NP'
p1227
g5
tp1228
a(S'study'
p1229
S'study'
p1230
S'NN'
p1231
S'I-NP'
p1232
g5
tp1233
a(S'and'
p1234
S'and'
p1235
S'CC'
p1236
g5
g5
tp1237
a(S'is'
p1238
S'be'
p1239
S'VBZ'
p1240
S'B-VP'
p1241
g5
tp1242
a(g63
g63
S'DT'
p1243
S'B-NP'
p1244
g5
tp1245
a(S'useful'
p1246
S'useful'
p1247
S'JJ'
p1248
S'I-NP'
p1249
g5
tp1250
a(S'treatment'
p1251
S'treatment'
p1252
S'NN'
p1253
S'I-NP'
p1254
g5
tp1255
a(S'option'
p1256
S'option'
p1257
S'NN'
p1258
S'I-NP'
p1259
g5
tp1260
a(S'for'
p1261
S'for'
p1262
S'IN'
p1263
S'B-PP'
p1264
g5
tp1265
a(S'the'
p1266
S'the'
p1267
S'DT'
p1268
S'B-NP'
p1269
g5
tp1270
a(S'management'
p1271
S'management'
p1272
S'NN'
p1273
S'I-NP'
p1274
g5
tp1275
a(S'of'
p1276
S'of'
p1277
S'IN'
p1278
S'B-PP'
p1279
g5
tp1280
a(S'ocular'
p1281
S'ocular'
p1282
S'JJ'
p1283
S'B-NP'
p1284
g5
tp1285
a(S'itching'
p1286
S'itching'
p1287
S'NN'
p1288
S'I-NP'
p1289
g5
tp1290
a(S'associated'
p1291
S'associate'
p1292
S'VBN'
p1293
S'B-VP'
p1294
g5
tp1295
a(S'with'
p1296
S'with'
p1297
S'IN'
p1298
S'B-PP'
p1299
g5
tp1300
a(S'AC.'
p1301
S'AC.'
p1302
S'NNP'
p1303
S'B-NP'
p1304
g5
tp1305
a(g115
g115
g115
g5
g5
tp1306
a(S'ClinicalTrials.gov'
p1307
S'ClinicalTrials.gov'
p1308
S'NNP'
p1309
S'B-NP'
p1310
g5
tp1311
a(S'identifier'
p1312
S'identifi'
p1313
S'JJR'
p1314
S'I-NP'
p1315
g5
tp1316
a(S'number'
p1317
S'number'
p1318
S'NN'
p1319
S'I-NP'
p1320
g5
tp1321
a(g61
g61
g61
g5
g5
tp1322
a(S'NCT01174823'
p1323
S'NCT01174823'
p1324
S'NN'
p1325
S'B-NP'
p1326
g5
tp1327
a(g103
g103
g103
g5
g5
tp1328
a(g122
g122
g122
g5
g5
tp1329
a.