(lp0
(S'Oscillatory'
p1
S'Oscillatory'
p2
S'JJ'
p3
S'B-NP'
p4
S'O'
p5
tp6
a(S'potentials'
p7
S'potential'
p8
S'NNS'
p9
S'I-NP'
p10
g5
tp11
a(S','
p12
g12
g12
g5
g5
tp13
a(S'retinopathy'
p14
S'retinopathy'
p15
S'NN'
p16
S'B-NP'
p17
g5
tp18
a(g12
g12
g12
g5
g5
tp19
a(S'and'
p20
S'and'
p21
S'CC'
p22
g5
g5
tp23
a(S'long-term'
p24
S'long-term'
p25
S'JJ'
p26
S'B-NP'
p27
g5
tp28
a(S'glucose'
p29
S'glucose'
p30
S'NN'
p31
S'I-NP'
p32
g5
tp33
a(S'control'
p34
S'control'
p35
S'NN'
p36
S'I-NP'
p37
g5
tp38
a(S'in'
p39
S'in'
p40
S'IN'
p41
S'B-PP'
p42
g5
tp43
a(S'insulin-dependent'
p44
S'insulin-dependent'
p45
S'JJ'
p46
S'B-NP'
p47
g5
tp48
a(S'diabetes'
p49
S'diabete'
p50
S'NNS'
p51
S'I-NP'
p52
g5
tp53
a(S'.'
p54
g54
g54
g5
g5
tp55
a(S'The'
p56
S'The'
p57
S'DT'
p58
S'B-NP'
p59
g5
tp60
a(S'main'
p61
S'main'
p62
S'JJ'
p63
S'I-NP'
p64
g5
tp65
a(S'objective'
p66
S'objective'
p67
S'NN'
p68
S'I-NP'
p69
g5
tp70
a(S'of'
p71
S'of'
p72
S'IN'
p73
S'B-PP'
p74
g5
tp75
a(S'the'
p76
S'the'
p77
S'DT'
p78
S'B-NP'
p79
g5
tp80
a(S'study'
p81
S'study'
p82
S'NN'
p83
S'I-NP'
p84
g5
tp85
a(S'was'
p86
S'be'
p87
S'VBD'
p88
S'B-VP'
p89
g5
tp90
a(S'to'
p91
S'to'
p92
S'TO'
p93
S'B-VP'
p94
g5
tp95
a(S'assess'
p96
S'assess'
p97
S'VB'
p98
S'I-VP'
p99
g5
tp100
a(S'effects'
p101
S'effect'
p102
S'NNS'
p103
S'B-NP'
p104
g5
tp105
a(S'of'
p106
S'of'
p107
S'IN'
p108
S'B-PP'
p109
g5
tp110
a(S'long-term'
p111
S'long-term'
p112
S'JJ'
p113
S'B-NP'
p114
g5
tp115
a(S'lowering'
p116
S'lowering'
p117
S'NN'
p118
S'I-NP'
p119
g5
tp120
a(S'of'
p121
S'of'
p122
S'IN'
p123
S'B-PP'
p124
g5
tp125
a(S'glucosylated'
p126
S'glucosylate'
p127
S'VBN'
p128
S'B-NP'
p129
g5
tp130
a(S'hemoglobin'
p131
S'hemoglobin'
p132
S'NN'
p133
S'I-NP'
p134
S'B-protein'
p135
tp136
a(S'('
p137
g137
g137
g5
g5
tp138
a(S'HbA1'
p139
S'HbA1'
p140
S'NN'
p141
S'B-NP'
p142
g5
tp143
a(S'%'
p144
g144
S'NN'
p145
S'I-NP'
p146
g5
tp147
a(S')'
p148
g148
g148
g5
g5
tp149
a(S'on'
p150
S'on'
p151
S'IN'
p152
S'B-PP'
p153
g5
tp154
a(S'neurosensory'
p155
S'neurosensory'
p156
S'JJ'
p157
S'B-NP'
p158
g5
tp159
a(S'function'
p160
S'function'
p161
S'NN'
p162
S'I-NP'
p163
g5
tp164
a(S'in'
p165
S'in'
p166
S'IN'
p167
S'B-PP'
p168
g5
tp169
a(S'insulin-dependent'
p170
S'insulin-dependent'
p171
S'JJ'
p172
S'B-NP'
p173
g5
tp174
a(S'diabetes.'
p175
S'diabetes.'
p176
S'NN'
p177
S'I-NP'
p178
g5
tp179
a(S'Individual'
p180
S'Individual'
p181
S'NN'
p182
S'I-NP'
p183
g5
tp184
a(g137
g137
g137
g5
g5
tp185
a(S'OP-1'
p186
S'OP-1'
p187
S'NN'
p188
S'B-NP'
p189
S'B-protein'
p190
tp191
a(g12
g12
g12
g5
g5
tp192
a(S'OP-2'
p193
S'OP-2'
p194
S'NN'
p195
S'B-NP'
p196
S'B-protein'
p197
tp198
a(g12
g12
g12
g5
g5
tp199
a(S'OP-3'
p200
S'OP-3'
p201
S'NN'
p202
S'B-NP'
p203
S'B-protein'
p204
tp205
a(g148
g148
g148
g5
g5
tp206
a(S'and'
p207
S'and'
p208
S'CC'
p209
g5
g5
tp210
a(S'summed'
p211
S'sum'
p212
S'VBN'
p213
S'B-VP'
p214
g5
tp215
a(g137
g137
g137
g5
g5
tp216
a(S'OP-sum'
p217
S'OP-sum'
p218
S'JJ'
p219
g5
g5
tp220
a(g148
g148
g148
g5
g5
tp221
a(S'amplitudes'
p222
S'amplitude'
p223
S'NNS'
p224
S'B-NP'
p225
g5
tp226
a(S'of'
p227
S'of'
p228
S'IN'
p229
S'B-PP'
p230
g5
tp231
a(S'oscillatory'
p232
S'oscillatory'
p233
S'JJ'
p234
S'B-NP'
p235
g5
tp236
a(S'potentials'
p237
S'potential'
p238
S'NNS'
p239
S'I-NP'
p240
g5
tp241
a(g137
g137
g137
g5
g5
tp242
a(S'OPs'
p243
S'OP'
p244
S'NNS'
p245
S'B-NP'
p246
g5
tp247
a(g148
g148
g148
g5
g5
tp248
a(S'of'
p249
S'of'
p250
S'IN'
p251
S'B-PP'
p252
g5
tp253
a(S'electroretinography'
p254
S'electroretinography'
p255
S'NN'
p256
S'B-NP'
p257
g5
tp258
a(S'were'
p259
S'be'
p260
S'VBD'
p261
S'B-VP'
p262
g5
tp263
a(S'recorded'
p264
S'record'
p265
S'VBN'
p266
S'I-VP'
p267
g5
tp268
a(S'at'
p269
S'at'
p270
S'IN'
p271
S'B-PP'
p272
g5
tp273
a(S'study'
p274
S'study'
p275
S'NN'
p276
S'B-NP'
p277
g5
tp278
a(S'start'
p279
S'start'
p280
S'NN'
p281
S'I-NP'
p282
g5
tp283
a(S'and'
p284
S'and'
p285
S'CC'
p286
g5
g5
tp287
a(S'7-years'
p288
S'7-year'
p289
S'NNS'
p290
S'B-NP'
p291
g5
tp292
a(S'later'
p293
S'later'
p294
S'RB'
p295
S'B-ADVP'
p296
g5
tp297
a(S'in'
p298
S'in'
p299
S'IN'
p300
S'B-PP'
p301
g5
tp302
a(S'45'
p303
S'45'
p304
S'CD'
p305
S'B-NP'
p306
g5
tp307
a(S'patients'
p308
S'patient'
p309
S'NNS'
p310
S'I-NP'
p311
g5
tp312
a(g137
g137
g137
g5
g5
tp313
a(S'the'
p314
S'the'
p315
S'DT'
p316
S'B-NP'
p317
g5
tp318
a(S'Oslo'
p319
S'Oslo'
p320
S'NNP'
p321
S'I-NP'
p322
g5
tp323
a(S'study'
p324
S'study'
p325
S'NN'
p326
S'I-NP'
p327
g5
tp328
a(g148
g148
g148
g5
g5
tp329
a(g54
g54
g54
g5
g5
tp330
a(S'As'
p331
S'As'
p332
S'IN'
p333
S'B-PP'
p334
g5
tp335
a(S'an'
p336
S'an'
p337
S'DT'
p338
S'B-NP'
p339
g5
tp340
a(S'overall'
p341
S'overall'
p342
S'JJ'
p343
S'I-NP'
p344
g5
tp345
a(S'7-year'
p346
S'7-year'
p347
S'JJ'
p348
S'I-NP'
p349
g5
tp350
a(S'change'
p351
S'change'
p352
S'NN'
p353
S'I-NP'
p354
g5
tp355
a(g12
g12
g12
g5
g5
tp356
a(S'amplitudes'
p357
S'amplitude'
p358
S'NNS'
p359
S'B-NP'
p360
g5
tp361
a(S'of'
p362
S'of'
p363
S'IN'
p364
S'B-PP'
p365
g5
tp366
a(S'OP-2'
p367
S'OP-2'
p368
S'NN'
p369
S'B-NP'
p370
S'B-protein'
p371
tp372
a(g12
g12
g12
S'I-NP'
p373
g5
tp374
a(S'OP-3'
p375
S'OP-3'
p376
S'NN'
p377
S'I-NP'
p378
S'B-protein'
p379
tp380
a(S'and'
p381
S'and'
p382
S'CC'
p383
S'I-NP'
p384
g5
tp385
a(S'OP-sum'
p386
S'OP-sum'
p387
S'NN'
p388
S'I-NP'
p389
g5
tp390
a(S'were'
p391
S'be'
p392
S'VBD'
p393
S'B-VP'
p394
g5
tp395
a(S'reduced'
p396
S'reduce'
p397
S'VBN'
p398
S'I-VP'
p399
g5
tp400
a(g137
g137
g137
g5
g5
tp401
a(S'p'
p402
g402
S'NN'
p403
S'B-NP'
p404
g5
tp405
a(S'<'
p406
g406
S'JJR'
p407
S'B-NP'
p408
g5
tp409
a(S'0.0001-0.01'
p410
S'0.0001-0.01'
p411
S'CD'
p412
S'I-NP'
p413
g5
tp414
a(g148
g148
g148
g5
g5
tp415
a(g12
g12
g12
g5
g5
tp416
a(S'retinopathy'
p417
S'retinopathy'
p418
S'NN'
p419
S'B-NP'
p420
g5
tp421
a(S'worsened'
p422
S'worsen'
p423
S'VBD'
p424
S'B-VP'
p425
g5
tp426
a(g137
g137
g137
g5
g5
tp427
a(g402
g402
S'NN'
p428
S'B-NP'
p429
g5
tp430
a(S'='
p431
g431
S'SYM'
p432
S'B-VP'
p433
g5
tp434
a(S'0.005'
p435
S'0.005'
p436
S'CD'
p437
S'B-NP'
p438
g5
tp439
a(g148
g148
g148
g5
g5
tp440
a(g12
g12
g12
g5
g5
tp441
a(S'intraocular'
p442
S'intraocular'
p443
S'JJ'
p444
S'B-NP'
p445
g5
tp446
a(S'pressure'
p447
S'pressure'
p448
S'NN'
p449
S'I-NP'
p450
g5
tp451
a(S'decreased'
p452
S'decrease'
p453
S'VBD'
p454
S'B-VP'
p455
g5
tp456
a(g137
g137
g137
g5
g5
tp457
a(g402
g402
S'NN'
p458
S'B-NP'
p459
g5
tp460
a(g406
g406
S'SYM'
p461
g5
g5
tp462
a(S'0.001'
p463
S'0.001'
p464
S'CD'
p465
S'B-NP'
p466
g5
tp467
a(g148
g148
g148
g5
g5
tp468
a(g12
g12
g12
g5
g5
tp469
a(S'systolic'
p470
S'systolic'
p471
S'JJ'
p472
S'B-NP'
p473
g5
tp474
a(S'blood'
p475
S'blood'
p476
S'NN'
p477
S'I-NP'
p478
g5
tp479
a(S'pressure'
p480
S'pressure'
p481
S'NN'
p482
S'I-NP'
p483
g5
tp484
a(S'increased'
p485
S'increase'
p486
S'VBD'
p487
S'B-VP'
p488
g5
tp489
a(g137
g137
g137
g5
g5
tp490
a(g402
g402
S'NN'
p491
S'B-NP'
p492
g5
tp493
a(g406
g406
S'JJR'
p494
S'B-NP'
p495
g5
tp496
a(S'0.0002'
p497
S'0.0002'
p498
S'CD'
p499
S'I-NP'
p500
g5
tp501
a(g148
g148
g148
g5
g5
tp502
a(g12
g12
g12
g5
g5
tp503
a(S'and'
p504
S'and'
p505
S'CC'
p506
g5
g5
tp507
a(S'glycemic'
p508
S'glycemic'
p509
S'JJ'
p510
S'B-NP'
p511
g5
tp512
a(S'control'
p513
S'control'
p514
S'NN'
p515
S'I-NP'
p516
g5
tp517
a(S'improved'
p518
S'improve'
p519
S'VBN'
p520
S'B-VP'
p521
g5
tp522
a(S'from'
p523
S'from'
p524
S'IN'
p525
S'B-PP'
p526
g5
tp527
a(S'HbA1'
p528
S'HbA1'
p529
S'NN'
p530
S'B-NP'
p531
S'B-protein'
p532
tp533
a(S'of'
p534
S'of'
p535
S'IN'
p536
S'B-PP'
p537
g5
tp538
a(S'11.2'
p539
S'11.2'
p540
S'CD'
p541
S'B-NP'
p542
g5
tp543
a(S'+/-'
p544
S'+/-'
p545
S'SYM'
p546
S'I-NP'
p547
g5
tp548
a(S'2.2'
p549
S'2.2'
p550
S'CD'
p551
S'I-NP'
p552
g5
tp553
a(g144
g144
S'NN'
p554
S'I-NP'
p555
g5
tp556
a(S'at'
p557
S'at'
p558
S'IN'
p559
S'B-PP'
p560
g5
tp561
a(S'study'
p562
S'study'
p563
S'NN'
p564
S'B-NP'
p565
g5
tp566
a(S'start'
p567
S'start'
p568
S'VBP'
p569
S'B-VP'
p570
g5
tp571
a(S'to'
p572
S'to'
p573
S'TO'
p574
S'B-PP'
p575
g5
tp576
a(S'a'
p577
g577
S'DT'
p578
S'B-NP'
p579
g5
tp580
a(S'7-year'
p581
S'7-year'
p582
S'JJ'
p583
S'I-NP'
p584
g5
tp585
a(S'cumulative'
p586
S'cumulative'
p587
S'JJ'
p588
S'I-NP'
p589
g5
tp590
a(S'mean'
p591
S'mean'
p592
S'NN'
p593
S'I-NP'
p594
g5
tp595
a(S'of'
p596
S'of'
p597
S'IN'
p598
S'B-PP'
p599
g5
tp600
a(S'9.5'
p601
S'9.5'
p602
S'CD'
p603
S'B-NP'
p604
g5
tp605
a(S'+/-'
p606
S'+/-'
p607
S'SYM'
p608
S'I-NP'
p609
g5
tp610
a(S'1.5'
p611
S'1.5'
p612
S'CD'
p613
S'I-NP'
p614
g5
tp615
a(g144
g144
S'NN'
p616
S'I-NP'
p617
g5
tp618
a(g137
g137
g137
g5
g5
tp619
a(g402
g402
S'NN'
p620
S'B-NP'
p621
g5
tp622
a(g406
g406
S'SYM'
p623
g5
g5
tp624
a(S'0.0001'
p625
S'0.0001'
p626
S'CD'
p627
S'B-NP'
p628
g5
tp629
a(g148
g148
g148
g5
g5
tp630
a(g54
g54
g54
g5
g5
tp631
a(S'Multiple'
p632
S'Multiple'
p633
S'JJ'
p634
S'B-NP'
p635
g5
tp636
a(S'regression'
p637
S'regression'
p638
S'NN'
p639
S'I-NP'
p640
g5
tp641
a(S'analysis'
p642
S'analysis'
p643
S'NN'
p644
S'I-NP'
p645
g5
tp646
a(S'did'
p647
S'do'
p648
S'VBD'
p649
S'B-VP'
p650
g5
tp651
a(S'not'
p652
S'not'
p653
S'RB'
p654
S'I-VP'
p655
g5
tp656
a(S'identify'
p657
S'identify'
p658
S'VB'
p659
S'I-VP'
p660
g5
tp661
a(S'any'
p662
S'any'
p663
S'DT'
p664
S'B-NP'
p665
g5
tp666
a(S'independent'
p667
S'independent'
p668
S'JJ'
p669
S'I-NP'
p670
g5
tp671
a(S'relations'
p672
S'relation'
p673
S'NNS'
p674
S'I-NP'
p675
g5
tp676
a(S'between'
p677
S'between'
p678
S'IN'
p679
S'B-PP'
p680
g5
tp681
a(S'change'
p682
S'change'
p683
S'NN'
p684
S'B-NP'
p685
g5
tp686
a(S'in'
p687
S'in'
p688
S'IN'
p689
S'B-PP'
p690
g5
tp691
a(S'OP-1'
p692
S'OP-1'
p693
S'NN'
p694
S'B-NP'
p695
S'B-protein'
p696
tp697
a(g12
g12
g12
g5
g5
tp698
a(S'OP-2'
p699
S'OP-2'
p700
S'NN'
p701
S'B-NP'
p702
S'B-protein'
p703
tp704
a(g12
g12
g12
g5
g5
tp705
a(S'OP-3'
p706
S'OP-3'
p707
S'NN'
p708
S'B-NP'
p709
S'B-protein'
p710
tp711
a(g12
g12
g12
g5
g5
tp712
a(S'OP-sum'
p713
S'OP-sum'
p714
S'NN'
p715
S'B-NP'
p716
g5
tp717
a(S'and'
p718
S'and'
p719
S'CC'
p720
S'I-NP'
p721
g5
tp722
a(S'change'
p723
S'change'
p724
S'NN'
p725
S'I-NP'
p726
g5
tp727
a(S'in'
p728
S'in'
p729
S'IN'
p730
S'B-PP'
p731
g5
tp732
a(S'glycemic'
p733
S'glycemic'
p734
S'JJ'
p735
S'B-NP'
p736
g5
tp737
a(S'control'
p738
S'control'
p739
S'NN'
p740
S'I-NP'
p741
g5
tp742
a(S'or'
p743
S'or'
p744
S'CC'
p745
S'I-NP'
p746
g5
tp747
a(S'background'
p748
S'background'
p749
S'NN'
p750
S'I-NP'
p751
g5
tp752
a(S'variables'
p753
S'variable'
p754
S'NNS'
p755
S'I-NP'
p756
g5
tp757
a(g12
g12
g12
g5
g5
tp758
a(S'including'
p759
S'include'
p760
S'VBG'
p761
S'B-PP'
p762
g5
tp763
a(S'change'
p764
S'change'
p765
S'NN'
p766
S'B-NP'
p767
g5
tp768
a(S'in'
p769
S'in'
p770
S'IN'
p771
S'B-PP'
p772
g5
tp773
a(S'age'
p774
S'age'
p775
S'NN'
p776
S'B-NP'
p777
g5
tp778
a(S'and'
p779
S'and'
p780
S'CC'
p781
S'I-NP'
p782
g5
tp783
a(S'duration'
p784
S'duration'
p785
S'NN'
p786
S'I-NP'
p787
g5
tp788
a(S'of'
p789
S'of'
p790
S'IN'
p791
S'B-PP'
p792
g5
tp793
a(S'diabetes.'
p794
S'diabetes.'
p795
S'NN'
p796
S'B-NP'
p797
g5
tp798
a(S'However'
p799
S'However'
p800
S'RB'
p801
S'B-ADVP'
p802
g5
tp803
a(g12
g12
g12
g5
g5
tp804
a(S'cross-sectional'
p805
S'cross-sectional'
p806
S'JJ'
p807
S'B-NP'
p808
g5
tp809
a(S'observations'
p810
S'observation'
p811
S'NNS'
p812
S'I-NP'
p813
g5
tp814
a(S'at'
p815
S'at'
p816
S'IN'
p817
S'B-PP'
p818
g5
tp819
a(S'7'
p820
g820
S'CD'
p821
S'B-NP'
p822
g5
tp823
a(S'years'
p824
S'year'
p825
S'NNS'
p826
S'I-NP'
p827
g5
tp828
a(S'showed'
p829
S'show'
p830
S'VBD'
p831
S'B-VP'
p832
g5
tp833
a(S'negative'
p834
S'negative'
p835
S'JJ'
p836
S'B-NP'
p837
g5
tp838
a(S'correlations'
p839
S'correlation'
p840
S'NNS'
p841
S'I-NP'
p842
g5
tp843
a(S'between'
p844
S'between'
p845
S'IN'
p846
S'B-PP'
p847
g5
tp848
a(S'all'
p849
S'all'
p850
S'DT'
p851
S'B-NP'
p852
g5
tp853
a(S'OPs'
p854
S'OP'
p855
S'NNS'
p856
S'I-NP'
p857
S'B-protein'
p858
tp859
a(S'and'
p860
S'and'
p861
S'CC'
p862
g5
g5
tp863
a(S'age'
p864
S'age'
p865
S'NN'
p866
S'B-NP'
p867
g5
tp868
a(g137
g137
g137
g5
g5
tp869
a(g402
g402
S'NN'
p870
S'B-NP'
p871
g5
tp872
a(g406
g406
S'JJR'
p873
S'B-NP'
p874
g5
tp875
a(S'0.0001-0.003'
p876
S'0.0001-0.003'
p877
S'CD'
p878
S'I-NP'
p879
g5
tp880
a(g148
g148
g148
g5
g5
tp881
a(g12
g12
g12
g5
g5
tp882
a(S'and'
p883
S'and'
p884
S'CC'
p885
g5
g5
tp886
a(S'between'
p887
S'between'
p888
S'IN'
p889
S'B-PP'
p890
g5
tp891
a(S'OP-3'
p892
S'OP-3'
p893
S'NN'
p894
S'B-NP'
p895
S'B-protein'
p896
tp897
a(S'and'
p898
S'and'
p899
S'CC'
p900
g5
g5
tp901
a(S'duration'
p902
S'duration'
p903
S'NN'
p904
S'B-NP'
p905
g5
tp906
a(g137
g137
g137
g5
g5
tp907
a(g402
g402
S'NN'
p908
S'B-NP'
p909
g5
tp910
a(g431
g431
S'SYM'
p911
S'B-VP'
p912
g5
tp913
a(S'0.003'
p914
S'0.003'
p915
S'CD'
p916
S'B-NP'
p917
g5
tp918
a(g148
g148
g148
g5
g5
tp919
a(S'and'
p920
S'and'
p921
S'CC'
p922
g5
g5
tp923
a(S'counts'
p924
S'count'
p925
S'NNS'
p926
S'B-NP'
p927
g5
tp928
a(S'of'
p929
S'of'
p930
S'IN'
p931
S'B-PP'
p932
g5
tp933
a(S'microaneurysms'
p934
S'microaneurysm'
p935
S'NNS'
p936
S'B-NP'
p937
g5
tp938
a(g137
g137
g137
g5
g5
tp939
a(g402
g402
S'NN'
p940
S'B-NP'
p941
g5
tp942
a(g431
g431
S'SYM'
p943
S'B-VP'
p944
g5
tp945
a(S'0.02'
p946
S'0.02'
p947
S'CD'
p948
S'B-NP'
p949
g5
tp950
a(g148
g148
g148
g5
g5
tp951
a(g54
g54
g54
g5
g5
tp952
a(S'The'
p953
S'The'
p954
S'DT'
p955
S'B-NP'
p956
g5
tp957
a(S'data'
p958
S'datum'
p959
S'NNS'
p960
S'I-NP'
p961
g5
tp962
a(S'suggest'
p963
S'suggest'
p964
S'VBP'
p965
S'B-VP'
p966
g5
tp967
a(S'that'
p968
S'that'
p969
S'IN'
p970
S'B-SBAR'
p971
g5
tp972
a(S'various'
p973
S'various'
p974
S'JJ'
p975
S'B-NP'
p976
g5
tp977
a(S'clinical'
p978
S'clinical'
p979
S'JJ'
p980
S'I-NP'
p981
g5
tp982
a(S'background'
p983
S'background'
p984
S'NN'
p985
S'I-NP'
p986
g5
tp987
a(S'variables'
p988
S'variable'
p989
S'NNS'
p990
S'I-NP'
p991
g5
tp992
a(S'may'
p993
S'may'
p994
S'MD'
p995
S'B-VP'
p996
g5
tp997
a(S'influence'
p998
S'influence'
p999
S'VB'
p1000
S'I-VP'
p1001
g5
tp1002
a(S'individual'
p1003
S'individual'
p1004
S'JJ'
p1005
S'B-NP'
p1006
g5
tp1007
a(S'and'
p1008
S'and'
p1009
S'CC'
p1010
S'I-NP'
p1011
g5
tp1012
a(S'summed'
p1013
S'summed'
p1014
S'JJ'
p1015
S'I-NP'
p1016
g5
tp1017
a(S'amplitudes'
p1018
S'amplitude'
p1019
S'NNS'
p1020
S'I-NP'
p1021
g5
tp1022
a(S'of'
p1023
S'of'
p1024
S'IN'
p1025
S'B-PP'
p1026
g5
tp1027
a(S'OPs'
p1028
S'OP'
p1029
S'NNS'
p1030
S'B-NP'
p1031
S'B-protein'
p1032
tp1033
a(S'differently.'
p1034
S'differently.'
p1035
S'VBP'
p1036
S'B-VP'
p1037
g5
tp1038
a(S'Reduced'
p1039
S'Reduce'
p1040
S'VBN'
p1041
S'I-VP'
p1042
g5
tp1043
a(S'neurosensory'
p1044
S'neurosensory'
p1045
S'JJ'
p1046
S'B-NP'
p1047
g5
tp1048
a(S'retinal'
p1049
S'retinal'
p1050
S'NN'
p1051
S'I-NP'
p1052
g5
tp1053
a(S'function'
p1054
S'function'
p1055
S'NN'
p1056
S'I-NP'
p1057
g5
tp1058
a(g137
g137
g137
g5
g5
tp1059
a(S'OPs'
p1060
S'OP'
p1061
S'NNS'
p1062
S'B-NP'
p1063
g5
tp1064
a(g148
g148
g148
g5
g5
tp1065
a(S'seemed'
p1066
S'seem'
p1067
S'VBD'
p1068
S'B-VP'
p1069
g5
tp1070
a(S'to'
p1071
S'to'
p1072
S'TO'
p1073
S'I-VP'
p1074
g5
tp1075
a(S'appear'
p1076
S'appear'
p1077
S'VB'
p1078
S'I-VP'
p1079
g5
tp1080
a(S'after'
p1081
S'after'
p1082
S'IN'
p1083
S'B-PP'
p1084
g5
tp1085
a(S'7-years'
p1086
S'7-year'
p1087
S'NNS'
p1088
S'B-NP'
p1089
g5
tp1090
a(g12
g12
g12
g5
g5
tp1091
a(S'independently'
p1092
S'independently'
p1093
S'RB'
p1094
S'B-ADVP'
p1095
g5
tp1096
a(S'of'
p1097
S'of'
p1098
S'IN'
p1099
S'B-PP'
p1100
g5
tp1101
a(S'vascular'
p1102
S'vascular'
p1103
S'JJ'
p1104
S'B-NP'
p1105
g5
tp1106
a(S'defects'
p1107
S'defect'
p1108
S'NNS'
p1109
S'I-NP'
p1110
g5
tp1111
a(S'of'
p1112
S'of'
p1113
S'IN'
p1114
S'B-PP'
p1115
g5
tp1116
a(S'retinopathy'
p1117
S'retinopathy'
p1118
S'NN'
p1119
S'B-NP'
p1120
g5
tp1121
a(S'and'
p1122
S'and'
p1123
S'CC'
p1124
g5
g5
tp1125
a(S'long-term'
p1126
S'long-term'
p1127
S'JJ'
p1128
S'B-NP'
p1129
g5
tp1130
a(S'improvement'
p1131
S'improvement'
p1132
S'NN'
p1133
S'I-NP'
p1134
g5
tp1135
a(S'in'
p1136
S'in'
p1137
S'IN'
p1138
S'B-PP'
p1139
g5
tp1140
a(S'glucose'
p1141
S'glucose'
p1142
S'NN'
p1143
S'B-NP'
p1144
g5
tp1145
a(S'control'
p1146
S'control'
p1147
S'NN'
p1148
S'I-NP'
p1149
g5
tp1150
a(g54
g54
g54
g5
g5
tp1151
a.