(lp0
(S'Short-'
p1
S'Short-'
p2
S'JJ'
p3
S'B-NP'
p4
S'O'
p5
tp6
a(S'and'
p7
S'and'
p8
S'CC'
p9
S'I-NP'
p10
g5
tp11
a(S'long-term'
p12
S'long-term'
p13
S'JJ'
p14
S'I-NP'
p15
g5
tp16
a(S'effects'
p17
S'effect'
p18
S'NNS'
p19
S'I-NP'
p20
g5
tp21
a(S'of'
p22
S'of'
p23
S'IN'
p24
S'B-PP'
p25
g5
tp26
a(S'tactile'
p27
S'tactile'
p28
S'JJ'
p29
S'B-NP'
p30
g5
tp31
a(S'massage'
p32
S'massage'
p33
S'NN'
p34
S'I-NP'
p35
g5
tp36
a(S'on'
p37
S'on'
p38
S'IN'
p39
S'B-PP'
p40
g5
tp41
a(S'salivary'
p42
S'salivary'
p43
S'JJ'
p44
S'B-NP'
p45
g5
tp46
a(S'cortisol'
p47
S'cortisol'
p48
S'NN'
p49
S'I-NP'
p50
g5
tp51
a(S'concentrations'
p52
S'concentration'
p53
S'NNS'
p54
S'I-NP'
p55
g5
tp56
a(S'in'
p57
S'in'
p58
S'IN'
p59
S'B-PP'
p60
g5
tp61
a(S'Parkinson'
p62
S'Parkinson'
p63
S'NNP'
p64
S'B-NP'
p65
g5
tp66
a(S"'s"
p67
S"'s"
p68
S'POS'
p69
S'B-NP'
p70
g5
tp71
a(S'disease'
p72
S'disease'
p73
S'NN'
p74
S'I-NP'
p75
g5
tp76
a(S':'
p77
g77
g77
g5
g5
tp78
a(S'a'
p79
g79
S'DT'
p80
S'B-NP'
p81
g5
tp82
a(S'randomised'
p83
S'randomise'
p84
S'VBN'
p85
S'I-NP'
p86
g5
tp87
a(S'controlled'
p88
S'control'
p89
S'VBN'
p90
S'I-NP'
p91
g5
tp92
a(S'pilot'
p93
S'pilot'
p94
S'NN'
p95
S'I-NP'
p96
g5
tp97
a(S'study'
p98
S'study'
p99
S'NN'
p100
S'I-NP'
p101
g5
tp102
a(S'.'
p103
g103
g103
g5
g5
tp104
a(S'BACKGROUND'
p105
S'BACKGROUND'
p106
S'NN'
p107
S'B-NP'
p108
g5
tp109
a(S'Parkinson'
p110
S'Parkinson'
p111
S'NNP'
p112
S'I-NP'
p113
g5
tp114
a(S"'s"
p115
S"'s"
p116
S'POS'
p117
S'B-NP'
p118
g5
tp119
a(S'disease'
p120
S'disease'
p121
S'NN'
p122
S'I-NP'
p123
g5
tp124
a(S'('
p125
g125
g125
g5
g5
tp126
a(S'PD'
p127
S'PD'
p128
S'NN'
p129
S'B-NP'
p130
g5
tp131
a(S')'
p132
g132
g132
g5
g5
tp133
a(S'is'
p134
S'be'
p135
S'VBZ'
p136
S'B-VP'
p137
g5
tp138
a(g79
g79
S'DT'
p139
S'B-NP'
p140
g5
tp141
a(S'chronic'
p142
S'chronic'
p143
S'JJ'
p144
S'I-NP'
p145
g5
tp146
a(S'neurodegenerative'
p147
S'neurodegenerative'
p148
S'JJ'
p149
S'I-NP'
p150
g5
tp151
a(S'disorder'
p152
S'disorder'
p153
S'NN'
p154
S'I-NP'
p155
g5
tp156
a(S'with'
p157
S'with'
p158
S'IN'
p159
S'B-PP'
p160
g5
tp161
a(S'limited'
p162
S'limited'
p163
S'JJ'
p164
S'B-NP'
p165
g5
tp166
a(S'knowledge'
p167
S'knowledge'
p168
S'NN'
p169
S'I-NP'
p170
g5
tp171
a(S'about'
p172
S'about'
p173
S'IN'
p174
S'B-PP'
p175
g5
tp176
a(S'the'
p177
S'the'
p178
S'DT'
p179
S'B-NP'
p180
g5
tp181
a(S'normal'
p182
S'normal'
p183
S'JJ'
p184
S'I-NP'
p185
g5
tp186
a(S'function'
p187
S'function'
p188
S'NN'
p189
S'I-NP'
p190
g5
tp191
a(S'and'
p192
S'and'
p193
S'CC'
p194
S'I-NP'
p195
g5
tp196
a(S'effects'
p197
S'effect'
p198
S'NNS'
p199
S'I-NP'
p200
g5
tp201
a(S'of'
p202
S'of'
p203
S'IN'
p204
S'B-PP'
p205
g5
tp206
a(S'non-pharmacological'
p207
S'non-pharmacological'
p208
S'JJ'
p209
S'B-NP'
p210
g5
tp211
a(S'therapies'
p212
S'therapy'
p213
S'NNS'
p214
S'I-NP'
p215
g5
tp216
a(S'on'
p217
S'on'
p218
S'IN'
p219
S'B-PP'
p220
g5
tp221
a(S'the'
p222
S'the'
p223
S'DT'
p224
S'B-NP'
p225
g5
tp226
a(S'hypothalamic-pituitary-adrenal'
p227
S'hypothalamic-pituitary-adrenal'
p228
S'JJ'
p229
S'I-NP'
p230
g5
tp231
a(g125
g125
g125
g5
g5
tp232
a(S'HPA'
p233
S'HPA'
p234
S'JJ'
p235
S'B-ADJP'
p236
g5
tp237
a(g132
g132
g132
g5
g5
tp238
a(S'axis.'
p239
S'axis.'
p240
S'NN'
p241
S'B-NP'
p242
g5
tp243
a(S'The'
p244
S'The'
p245
S'DT'
p246
S'B-NP'
p247
g5
tp248
a(S'aim'
p249
S'aim'
p250
S'NN'
p251
S'I-NP'
p252
g5
tp253
a(S'of'
p254
S'of'
p255
S'IN'
p256
S'B-PP'
p257
g5
tp258
a(S'the'
p259
S'the'
p260
S'DT'
p261
S'B-NP'
p262
g5
tp263
a(S'study'
p264
S'study'
p265
S'NN'
p266
S'I-NP'
p267
g5
tp268
a(S'was'
p269
S'be'
p270
S'VBD'
p271
S'B-VP'
p272
g5
tp273
a(S'to'
p274
S'to'
p275
S'TO'
p276
S'B-VP'
p277
g5
tp278
a(S'analyse'
p279
S'analyse'
p280
S'VB'
p281
S'I-VP'
p282
g5
tp283
a(S'the'
p284
S'the'
p285
S'DT'
p286
S'B-NP'
p287
g5
tp288
a(S'basal'
p289
S'basal'
p290
S'JJ'
p291
S'I-NP'
p292
g5
tp293
a(S'diurnal'
p294
S'diurnal'
p295
S'JJ'
p296
S'I-NP'
p297
g5
tp298
a(S'and'
p299
S'and'
p300
S'CC'
p301
S'I-NP'
p302
g5
tp303
a(S'total'
p304
S'total'
p305
S'JJ'
p306
S'I-NP'
p307
g5
tp308
a(S'secretion'
p309
S'secretion'
p310
S'NN'
p311
S'I-NP'
p312
g5
tp313
a(S'of'
p314
S'of'
p315
S'IN'
p316
S'B-PP'
p317
g5
tp318
a(S'salivary'
p319
S'salivary'
p320
S'JJ'
p321
S'B-NP'
p322
g5
tp323
a(S'cortisol'
p324
S'cortisol'
p325
S'NN'
p326
S'I-NP'
p327
g5
tp328
a(S'in'
p329
S'in'
p330
S'IN'
p331
S'B-PP'
p332
g5
tp333
a(S'short-'
p334
S'short-'
p335
S'JJ'
p336
S'B-NP'
p337
g5
tp338
a(S'and'
p339
S'and'
p340
S'CC'
p341
S'I-NP'
p342
g5
tp343
a(S'long-term'
p344
S'long-term'
p345
S'JJ'
p346
S'I-NP'
p347
g5
tp348
a(S'aspects'
p349
S'aspect'
p350
S'NNS'
p351
S'I-NP'
p352
g5
tp353
a(S'of'
p354
S'of'
p355
S'IN'
p356
S'B-PP'
p357
g5
tp358
a(S'tactile'
p359
S'tactile'
p360
S'JJ'
p361
S'B-NP'
p362
g5
tp363
a(S'massage'
p364
S'massage'
p365
S'NN'
p366
S'I-NP'
p367
g5
tp368
a(g125
g125
g125
g5
g5
tp369
a(S'TM'
p370
S'TM'
p371
S'NN'
p372
S'B-NP'
p373
g5
tp374
a(g132
g132
g132
g5
g5
tp375
a(g103
g103
g103
g5
g5
tp376
a(S'METHODS'
p377
S'METHODS'
p378
S'NNS'
p379
S'B-NP'
p380
g5
tp381
a(S'DESIGN'
p382
S'DESIGN'
p383
S'NNP'
p384
S'B-NP'
p385
g5
tp386
a(S'Prospective'
p387
S'Prospective'
p388
S'NNP'
p389
S'I-NP'
p390
g5
tp391
a(S','
p392
g392
g392
g5
g5
tp393
a(S'Controlled'
p394
S'Controlled'
p395
S'NNP'
p396
S'B-NP'
p397
g5
tp398
a(S'and'
p399
S'and'
p400
S'CC'
p401
g5
g5
tp402
a(S'Randomised'
p403
S'Randomised'
p404
S'NNP'
p405
S'B-NP'
p406
g5
tp407
a(S'Multicentre'
p408
S'Multicentre'
p409
S'NNP'
p410
S'I-NP'
p411
g5
tp412
a(S'Trial'
p413
S'Trial'
p414
S'NNP'
p415
S'I-NP'
p416
g5
tp417
a(g103
g103
g103
g5
g5
tp418
a(S'SETTING'
p419
S'SETTING'
p420
S'VBG'
p421
S'B-VP'
p422
g5
tp423
a(S'AND'
p424
S'AND'
p425
S'CC'
p426
g5
g5
tp427
a(S'INTERVENTIONS'
p428
S'INTERVENTIONS'
p429
S'NNS'
p430
S'B-NP'
p431
g5
tp432
a(S'Forty-five'
p433
S'Forty-five'
p434
S'CD'
p435
S'B-NP'
p436
g5
tp437
a(S'women'
p438
S'woman'
p439
S'NNS'
p440
S'I-NP'
p441
g5
tp442
a(S'and'
p443
S'and'
p444
S'CC'
p445
S'I-NP'
p446
g5
tp447
a(S'men'
p448
S'man'
p449
S'NNS'
p450
S'I-NP'
p451
g5
tp452
a(g392
g392
g392
g5
g5
tp453
a(S'aged'
p454
S'age'
p455
S'VBN'
p456
S'B-VP'
p457
g5
tp458
a(S'50-79'
p459
S'50-79'
p460
S'CD'
p461
S'B-NP'
p462
g5
tp463
a(S'years'
p464
S'year'
p465
S'NNS'
p466
S'I-NP'
p467
g5
tp468
a(g392
g392
g392
g5
g5
tp469
a(S'were'
p470
S'be'
p471
S'VBD'
p472
S'B-VP'
p473
g5
tp474
a(S'recruited.'
p475
S'recruited.'
p476
S'JJ'
p477
S'B-NP'
p478
g5
tp479
a(S'Twenty-nine'
p480
S'Twenty-nine'
p481
S'CD'
p482
S'I-NP'
p483
g5
tp484
a(S'of'
p485
S'of'
p486
S'IN'
p487
S'B-PP'
p488
g5
tp489
a(S'them'
p490
S'them'
p491
S'PRP'
p492
S'B-NP'
p493
g5
tp494
a(S'were'
p495
S'be'
p496
S'VBD'
p497
S'B-VP'
p498
g5
tp499
a(S'blindly'
p500
S'blindly'
p501
S'RB'
p502
S'I-VP'
p503
g5
tp504
a(S'randomised'
p505
S'randomise'
p506
S'VBN'
p507
S'I-VP'
p508
g5
tp509
a(S'to'
p510
S'to'
p511
S'TO'
p512
S'B-PP'
p513
g5
tp514
a(S'tactile'
p515
S'tactile'
p516
S'JJ'
p517
S'B-NP'
p518
g5
tp519
a(S'massage'
p520
S'massage'
p521
S'NN'
p522
S'I-NP'
p523
g5
tp524
a(g125
g125
g125
g5
g5
tp525
a(S'TM'
p526
S'TM'
p527
S'NN'
p528
S'B-NP'
p529
g5
tp530
a(g132
g132
g132
g5
g5
tp531
a(S'and'
p532
S'and'
p533
S'CC'
p534
g5
g5
tp535
a(S'16'
p536
S'16'
p537
S'CD'
p538
S'B-NP'
p539
g5
tp540
a(S'of'
p541
S'of'
p542
S'IN'
p543
S'B-PP'
p544
g5
tp545
a(S'them'
p546
S'them'
p547
S'PRP'
p548
S'B-NP'
p549
g5
tp550
a(S'to'
p551
S'to'
p552
S'TO'
p553
S'B-PP'
p554
g5
tp555
a(S'the'
p556
S'the'
p557
S'DT'
p558
S'B-NP'
p559
g5
tp560
a(S'control'
p561
S'control'
p562
S'NN'
p563
S'I-NP'
p564
g5
tp565
a(S'group'
p566
S'group'
p567
S'NN'
p568
S'I-NP'
p569
g5
tp570
a(g392
g392
g392
g5
g5
tp571
a(S'rest'
p572
S'rest'
p573
S'NN'
p574
S'B-NP'
p575
g5
tp576
a(S'to'
p577
S'to'
p578
S'TO'
p579
S'B-PP'
p580
g5
tp581
a(S'music'
p582
S'music'
p583
S'NN'
p584
S'B-NP'
p585
g5
tp586
a(g125
g125
g125
g5
g5
tp587
a(S'RTM'
p588
S'RTM'
p589
S'NN'
p590
S'B-NP'
p591
g5
tp592
a(g132
g132
g132
g5
g5
tp593
a(g103
g103
g103
g5
g5
tp594
a(S'Ten'
p595
S'Ten'
p596
S'CD'
p597
S'B-NP'
p598
g5
tp599
a(S'interventions'
p600
S'intervention'
p601
S'NNS'
p602
S'I-NP'
p603
g5
tp604
a(S'were'
p605
S'be'
p606
S'VBD'
p607
S'B-VP'
p608
g5
tp609
a(S'given'
p610
S'give'
p611
S'VBN'
p612
S'I-VP'
p613
g5
tp614
a(S'during'
p615
S'during'
p616
S'IN'
p617
S'B-PP'
p618
g5
tp619
a(S'8'
p620
g620
S'CD'
p621
S'B-NP'
p622
g5
tp623
a(S'weeks'
p624
S'week'
p625
S'NNS'
p626
S'I-NP'
p627
g5
tp628
a(S'followed'
p629
S'follow'
p630
S'VBN'
p631
S'B-VP'
p632
g5
tp633
a(S'by'
p634
S'by'
p635
S'IN'
p636
S'B-PP'
p637
g5
tp638
a(g79
g79
S'DT'
p639
S'B-NP'
p640
g5
tp641
a(S'26'
p642
S'26'
p643
S'CD'
p644
S'I-NP'
p645
g5
tp646
a(S'weeks'
p647
S'week'
p648
S'NNS'
p649
S'I-NP'
p650
g5
tp651
a(S'of'
p652
S'of'
p653
S'IN'
p654
S'B-PP'
p655
g5
tp656
a(S'follow'
p657
S'follow'
p658
S'JJ'
p659
S'B-NP'
p660
g5
tp661
a(S'up.'
p662
S'up.'
p663
S'NNP'
p664
S'I-NP'
p665
g5
tp666
a(S'Salivary'
p667
S'Salivary'
p668
S'NNP'
p669
S'I-NP'
p670
g5
tp671
a(S'cortisol'
p672
S'cortisol'
p673
S'NN'
p674
S'I-NP'
p675
g5
tp676
a(S'was'
p677
S'be'
p678
S'VBD'
p679
S'B-VP'
p680
g5
tp681
a(S'collected'
p682
S'collect'
p683
S'VBN'
p684
S'I-VP'
p685
g5
tp686
a(S'at'
p687
S'at'
p688
S'IN'
p689
S'B-PP'
p690
g5
tp691
a(g620
g620
S'CD'
p692
S'B-NP'
p693
g5
tp694
a(S'am'
p695
S'am'
p696
S'NN'
p697
S'I-NP'
p698
g5
tp699
a(g392
g392
g392
g5
g5
tp700
a(S'1'
p701
g701
S'CD'
p702
S'B-NP'
p703
g5
tp704
a(S'pm'
p705
S'pm'
p706
S'NN'
p707
S'I-NP'
p708
g5
tp709
a(g392
g392
g392
g5
g5
tp710
a(g620
g620
S'CD'
p711
S'B-NP'
p712
g5
tp713
a(S'pm'
p714
S'pm'
p715
S'NN'
p716
S'I-NP'
p717
g5
tp718
a(g392
g392
g392
g5
g5
tp719
a(S'and'
p720
S'and'
p721
S'CC'
p722
g5
g5
tp723
a(g620
g620
S'CD'
p724
S'B-NP'
p725
g5
tp726
a(S'am'
p727
S'am'
p728
S'NN'
p729
S'I-NP'
p730
g5
tp731
a(S'the'
p732
S'the'
p733
S'DT'
p734
S'B-NP'
p735
g5
tp736
a(S'next'
p737
S'next'
p738
S'JJ'
p739
S'I-NP'
p740
g5
tp741
a(S'day'
p742
S'day'
p743
S'NN'
p744
S'I-NP'
p745
g5
tp746
a(g392
g392
g392
g5
g5
tp747
a(S'on'
p748
S'on'
p749
S'IN'
p750
S'B-PP'
p751
g5
tp752
a(S'five'
p753
S'five'
p754
S'CD'
p755
S'B-NP'
p756
g5
tp757
a(S'occasions.'
p758
S'occasions.'
p759
S'NNS'
p760
S'I-NP'
p761
g5
tp762
a(S'With'
p763
S'With'
p764
S'IN'
p765
S'B-PP'
p766
g5
tp767
a(S'the'
p768
S'the'
p769
S'DT'
p770
S'B-NP'
p771
g5
tp772
a(S'first'
p773
S'first'
p774
S'JJ'
p775
S'I-NP'
p776
g5
tp777
a(S'and'
p778
S'and'
p779
S'CC'
p780
S'I-NP'
p781
g5
tp782
a(S'eighth'
p783
S'eighth'
p784
S'JJ'
p785
S'I-NP'
p786
g5
tp787
a(S'interventions'
p788
S'intervention'
p789
S'NNS'
p790
S'I-NP'
p791
g5
tp792
a(g392
g392
g392
g5
g5
tp793
a(S'it'
p794
S'it'
p795
S'PRP'
p796
S'B-NP'
p797
g5
tp798
a(S'was'
p799
S'be'
p800
S'VBD'
p801
S'B-VP'
p802
g5
tp803
a(S'collected'
p804
S'collect'
p805
S'VBN'
p806
S'I-VP'
p807
g5
tp808
a(S'immediately'
p809
S'immediately'
p810
S'RB'
p811
S'B-ADVP'
p812
g5
tp813
a(S'before'
p814
S'before'
p815
S'IN'
p816
S'B-PP'
p817
g5
tp818
a(S'and'
p819
S'and'
p820
S'CC'
p821
S'I-PP'
p822
g5
tp823
a(S'after'
p824
S'after'
p825
S'IN'
p826
S'I-PP'
p827
g5
tp828
a(S'intervention'
p829
S'intervention'
p830
S'NN'
p831
S'B-NP'
p832
g5
tp833
a(g103
g103
g103
g5
g5
tp834
a(S'MAIN'
p835
S'MAIN'
p836
S'NNP'
p837
S'B-NP'
p838
g5
tp839
a(S'OUTCOME'
p840
S'OUTCOME'
p841
S'NNP'
p842
S'I-NP'
p843
g5
tp844
a(S'MEASURES'
p845
S'MEASURES'
p846
S'NNP'
p847
S'I-NP'
p848
g5
tp849
a(S'The'
p850
S'The'
p851
S'DT'
p852
S'B-NP'
p853
g5
tp854
a(S'primary'
p855
S'primary'
p856
S'JJ'
p857
S'I-NP'
p858
g5
tp859
a(S'aim'
p860
S'aim'
p861
S'NN'
p862
S'I-NP'
p863
g5
tp864
a(S'was'
p865
S'be'
p866
S'VBD'
p867
S'B-VP'
p868
g5
tp869
a(S'to'
p870
S'to'
p871
S'TO'
p872
S'B-VP'
p873
g5
tp874
a(S'assess'
p875
S'assess'
p876
S'VB'
p877
S'I-VP'
p878
g5
tp879
a(S'and'
p880
S'and'
p881
S'CC'
p882
S'I-VP'
p883
g5
tp884
a(S'compare'
p885
S'compare'
p886
S'VB'
p887
S'I-VP'
p888
g5
tp889
a(S'cortisol'
p890
S'cortisol'
p891
S'NN'
p892
S'B-NP'
p893
g5
tp894
a(S'concentrations'
p895
S'concentration'
p896
S'NNS'
p897
S'I-NP'
p898
g5
tp899
a(S'before'
p900
S'before'
p901
S'RB'
p902
S'B-ADVP'
p903
g5
tp904
a(S'and'
p905
S'and'
p906
S'CC'
p907
S'I-ADVP'
p908
g5
tp909
a(S'immediately'
p910
S'immediately'
p911
S'RB'
p912
S'I-ADVP'
p913
g5
tp914
a(S'after'
p915
S'after'
p916
S'IN'
p917
S'B-PP'
p918
g5
tp919
a(S'intervention'
p920
S'intervention'
p921
S'NN'
p922
S'B-NP'
p923
g5
tp924
a(S'and'
p925
S'and'
p926
S'CC'
p927
g5
g5
tp928
a(S'also'
p929
S'also'
p930
S'RB'
p931
S'B-ADVP'
p932
g5
tp933
a(S'during'
p934
S'during'
p935
S'IN'
p936
S'B-PP'
p937
g5
tp938
a(S'the'
p939
S'the'
p940
S'DT'
p941
S'B-NP'
p942
g5
tp943
a(S'follow-up'
p944
S'follow-up'
p945
S'JJ'
p946
S'I-NP'
p947
g5
tp948
a(S'period.'
p949
S'period.'
p950
S'NN'
p951
S'I-NP'
p952
g5
tp953
a(S'The'
p954
S'The'
p955
S'DT'
p956
S'B-NP'
p957
g5
tp958
a(S'secondary'
p959
S'secondary'
p960
S'JJ'
p961
S'I-NP'
p962
g5
tp963
a(S'aim'
p964
S'aim'
p965
S'NN'
p966
S'I-NP'
p967
g5
tp968
a(S'was'
p969
S'be'
p970
S'VBD'
p971
S'B-VP'
p972
g5
tp973
a(S'to'
p974
S'to'
p975
S'TO'
p976
S'B-VP'
p977
g5
tp978
a(S'assess'
p979
S'assess'
p980
S'VB'
p981
S'I-VP'
p982
g5
tp983
a(S'the'
p984
S'the'
p985
S'DT'
p986
S'B-NP'
p987
g5
tp988
a(S'impact'
p989
S'impact'
p990
S'NN'
p991
S'I-NP'
p992
g5
tp993
a(S'of'
p994
S'of'
p995
S'IN'
p996
S'B-PP'
p997
g5
tp998
a(S'age'
p999
S'age'
p1000
S'NN'
p1001
S'B-NP'
p1002
g5
tp1003
a(g392
g392
g392
g5
g5
tp1004
a(S'gender'
p1005
S'gender'
p1006
S'NN'
p1007
S'B-NP'
p1008
g5
tp1009
a(g392
g392
g392
g5
g5
tp1010
a(S'body'
p1011
S'body'
p1012
S'NN'
p1013
S'B-NP'
p1014
g5
tp1015
a(S'mass'
p1016
S'mass'
p1017
S'NN'
p1018
S'I-NP'
p1019
g5
tp1020
a(S'index'
p1021
S'index'
p1022
S'NN'
p1023
S'I-NP'
p1024
g5
tp1025
a(g125
g125
g125
g5
g5
tp1026
a(S'BMI'
p1027
S'BMI'
p1028
S'NN'
p1029
S'B-NP'
p1030
S'B-protein'
p1031
tp1032
a(g132
g132
g132
g5
g5
tp1033
a(g392
g392
g392
g5
g5
tp1034
a(S'duration'
p1035
S'duration'
p1036
S'NN'
p1037
S'B-NP'
p1038
g5
tp1039
a(S'and'
p1040
S'and'
p1041
S'CC'
p1042
S'I-NP'
p1043
g5
tp1044
a(S'severity'
p1045
S'severity'
p1046
S'NN'
p1047
S'I-NP'
p1048
g5
tp1049
a(S'of'
p1050
S'of'
p1051
S'IN'
p1052
S'B-PP'
p1053
g5
tp1054
a(S'PD'
p1055
S'PD'
p1056
S'NN'
p1057
S'B-NP'
p1058
g5
tp1059
a(g392
g392
g392
g5
g5
tp1060
a(S'effects'
p1061
S'effect'
p1062
S'NNS'
p1063
S'B-NP'
p1064
g5
tp1065
a(S'of'
p1066
S'of'
p1067
S'IN'
p1068
S'B-PP'
p1069
g5
tp1070
a(S'interventional'
p1071
S'interventional'
p1072
S'JJ'
p1073
S'B-NP'
p1074
g5
tp1075
a(S'time-point'
p1076
S'time-point'
p1077
S'NN'
p1078
S'I-NP'
p1079
g5
tp1080
a(S'of'
p1081
S'of'
p1082
S'IN'
p1083
S'B-PP'
p1084
g5
tp1085
a(S'the'
p1086
S'the'
p1087
S'DT'
p1088
S'B-NP'
p1089
g5
tp1090
a(S'day'
p1091
S'day'
p1092
S'NN'
p1093
S'I-NP'
p1094
g5
tp1095
a(g392
g392
g392
g5
g5
tp1096
a(S'and'
p1097
S'and'
p1098
S'CC'
p1099
g5
g5
tp1100
a(S'levodopa'
p1101
S'levodopa'
p1102
S'NN'
p1103
S'B-NP'
p1104
g5
tp1105
a(S'doses'
p1106
S'dose'
p1107
S'NNS'
p1108
S'I-NP'
p1109
g5
tp1110
a(S'on'
p1111
S'on'
p1112
S'IN'
p1113
S'B-PP'
p1114
g5
tp1115
a(S'cortisol'
p1116
S'cortisol'
p1117
S'NN'
p1118
S'B-NP'
p1119
g5
tp1120
a(S'concentration'
p1121
S'concentration'
p1122
S'NN'
p1123
S'I-NP'
p1124
g5
tp1125
a(g103
g103
g103
g5
g5
tp1126
a(S'RESULTS'
p1127
S'RESULTS'
p1128
S'NNS'
p1129
S'B-NP'
p1130
g5
tp1131
a(S'The'
p1132
S'The'
p1133
S'DT'
p1134
S'B-NP'
p1135
g5
tp1136
a(S'median'
p1137
S'median'
p1138
S'JJ'
p1139
S'I-NP'
p1140
g5
tp1141
a(S'cortisol'
p1142
S'cortisol'
p1143
S'NN'
p1144
S'I-NP'
p1145
g5
tp1146
a(S'concentrations'
p1147
S'concentration'
p1148
S'NNS'
p1149
S'I-NP'
p1150
g5
tp1151
a(S'for'
p1152
S'for'
p1153
S'IN'
p1154
S'B-PP'
p1155
g5
tp1156
a(S'all'
p1157
S'all'
p1158
S'DT'
p1159
S'B-NP'
p1160
g5
tp1161
a(S'participants'
p1162
S'participant'
p1163
S'NNS'
p1164
S'I-NP'
p1165
g5
tp1166
a(S'were'
p1167
S'be'
p1168
S'VBD'
p1169
S'B-VP'
p1170
g5
tp1171
a(S'16.0'
p1172
S'16.0'
p1173
S'CD'
p1174
S'B-NP'
p1175
g5
tp1176
a(g392
g392
g392
S'I-NP'
p1177
g5
tp1178
a(S'5.8'
p1179
S'5.8'
p1180
S'CD'
p1181
S'I-NP'
p1182
g5
tp1183
a(g392
g392
g392
S'I-NP'
p1184
g5
tp1185
a(S'2.8'
p1186
S'2.8'
p1187
S'CD'
p1188
S'I-NP'
p1189
g5
tp1190
a(g392
g392
g392
g5
g5
tp1191
a(S'and'
p1192
S'and'
p1193
S'CC'
p1194
g5
g5
tp1195
a(S'14.0'
p1196
S'14.0'
p1197
S'CD'
p1198
S'B-NP'
p1199
g5
tp1200
a(S'nmol/L'
p1201
S'nmol/L'
p1202
S'NN'
p1203
S'I-NP'
p1204
g5
tp1205
a(S'at'
p1206
S'at'
p1207
S'IN'
p1208
S'B-PP'
p1209
g5
tp1210
a(S'baseline'
p1211
S'baseline'
p1212
S'NN'
p1213
S'B-NP'
p1214
g5
tp1215
a(g392
g392
g392
g5
g5
tp1216
a(S'later'
p1217
S'later'
p1218
S'RB'
p1219
S'B-ADVP'
p1220
g5
tp1221
a(S'reproduced'
p1222
S'reproduce'
p1223
S'VBD'
p1224
S'B-VP'
p1225
g5
tp1226
a(S'four'
p1227
S'four'
p1228
S'CD'
p1229
S'B-NP'
p1230
g5
tp1231
a(S'times'
p1232
S'time'
p1233
S'NNS'
p1234
S'I-NP'
p1235
g5
tp1236
a(S'without'
p1237
S'without'
p1238
S'IN'
p1239
S'B-PP'
p1240
g5
tp1241
a(S'significant'
p1242
S'significant'
p1243
S'JJ'
p1244
S'B-NP'
p1245
g5
tp1246
a(S'differences.'
p1247
S'differences.'
p1248
S'JJ'
p1249
S'I-NP'
p1250
g5
tp1251
a(S'Cortisol'
p1252
S'Cortisol'
p1253
S'NN'
p1254
S'I-NP'
p1255
g5
tp1256
a(S'concentrations'
p1257
S'concentration'
p1258
S'NNS'
p1259
S'I-NP'
p1260
g5
tp1261
a(S'decreased'
p1262
S'decrease'
p1263
S'VBD'
p1264
S'B-VP'
p1265
g5
tp1266
a(S'significantly'
p1267
S'significantly'
p1268
S'RB'
p1269
S'B-ADVP'
p1270
g5
tp1271
a(S'after'
p1272
S'after'
p1273
S'IN'
p1274
S'B-PP'
p1275
g5
tp1276
a(S'TM'
p1277
S'TM'
p1278
S'NN'
p1279
S'B-NP'
p1280
g5
tp1281
a(S'intervention'
p1282
S'intervention'
p1283
S'NN'
p1284
S'I-NP'
p1285
g5
tp1286
a(S'but'
p1287
S'but'
p1288
S'CC'
p1289
g5
g5
tp1290
a(S'no'
p1291
S'no'
p1292
S'DT'
p1293
S'B-NP'
p1294
g5
tp1295
a(S'change'
p1296
S'change'
p1297
S'NN'
p1298
S'I-NP'
p1299
g5
tp1300
a(S'in'
p1301
S'in'
p1302
S'IN'
p1303
S'B-PP'
p1304
g5
tp1305
a(S'diurnal'
p1306
S'diurnal'
p1307
S'JJ'
p1308
S'B-NP'
p1309
g5
tp1310
a(S'salivary'
p1311
S'salivary'
p1312
S'JJ'
p1313
S'I-NP'
p1314
g5
tp1315
a(S'cortisol'
p1316
S'cortisol'
p1317
S'NN'
p1318
S'I-NP'
p1319
g5
tp1320
a(S'pattern'
p1321
S'pattern'
p1322
S'NN'
p1323
S'I-NP'
p1324
g5
tp1325
a(S'was'
p1326
S'be'
p1327
S'VBD'
p1328
S'B-VP'
p1329
g5
tp1330
a(S'found.'
p1331
S'found.'
p1332
S'VBN'
p1333
S'I-VP'
p1334
g5
tp1335
a(S'The'
p1336
S'The'
p1337
S'DT'
p1338
S'B-NP'
p1339
g5
tp1340
a(S'findings'
p1341
S'finding'
p1342
S'NNS'
p1343
S'I-NP'
p1344
g5
tp1345
a(S'of'
p1346
S'of'
p1347
S'IN'
p1348
S'B-PP'
p1349
g5
tp1350
a(S'reduced'
p1351
S'reduce'
p1352
S'VBN'
p1353
S'B-NP'
p1354
g5
tp1355
a(S'salivary'
p1356
S'salivary'
p1357
S'JJ'
p1358
S'I-NP'
p1359
g5
tp1360
a(S'cortisol'
p1361
S'cortisol'
p1362
S'NN'
p1363
S'I-NP'
p1364
g5
tp1365
a(S'concentrations'
p1366
S'concentration'
p1367
S'NNS'
p1368
S'I-NP'
p1369
g5
tp1370
a(S'immediately'
p1371
S'immediately'
p1372
S'RB'
p1373
S'B-ADVP'
p1374
g5
tp1375
a(S'after'
p1376
S'after'
p1377
S'IN'
p1378
S'B-SBAR'
p1379
g5
tp1380
a(S'the'
p1381
S'the'
p1382
S'DT'
p1383
S'B-NP'
p1384
g5
tp1385
a(S'interventions'
p1386
S'intervention'
p1387
S'NNS'
p1388
S'I-NP'
p1389
g5
tp1390
a(S'are'
p1391
S'be'
p1392
S'VBP'
p1393
S'B-VP'
p1394
g5
tp1395
a(S'in'
p1396
S'in'
p1397
S'IN'
p1398
S'B-PP'
p1399
g5
tp1400
a(S'agreement'
p1401
S'agreement'
p1402
S'NN'
p1403
S'B-NP'
p1404
g5
tp1405
a(S'with'
p1406
S'with'
p1407
S'IN'
p1408
S'B-PP'
p1409
g5
tp1410
a(S'previous'
p1411
S'previous'
p1412
S'JJ'
p1413
S'B-NP'
p1414
g5
tp1415
a(S'studies.'
p1416
S'studies.'
p1417
S'NN'
p1418
S'I-NP'
p1419
g5
tp1420
a(S'However'
p1421
S'However'
p1422
S'RB'
p1423
S'B-ADVP'
p1424
g5
tp1425
a(g392
g392
g392
g5
g5
tp1426
a(S'there'
p1427
S'there'
p1428
S'EX'
p1429
S'B-NP'
p1430
g5
tp1431
a(S'was'
p1432
S'be'
p1433
S'VBD'
p1434
S'B-VP'
p1435
g5
tp1436
a(S'no'
p1437
S'no'
p1438
S'DT'
p1439
S'B-NP'
p1440
g5
tp1441
a(S'significant'
p1442
S'significant'
p1443
S'JJ'
p1444
S'I-NP'
p1445
g5
tp1446
a(S'difference'
p1447
S'difference'
p1448
S'NN'
p1449
S'I-NP'
p1450
g5
tp1451
a(S'between'
p1452
S'between'
p1453
S'IN'
p1454
S'B-PP'
p1455
g5
tp1456
a(S'the'
p1457
S'the'
p1458
S'DT'
p1459
S'B-NP'
p1460
g5
tp1461
a(S'TM'
p1462
S'TM'
p1463
S'NN'
p1464
S'I-NP'
p1465
g5
tp1466
a(S'and'
p1467
S'and'
p1468
S'CC'
p1469
S'I-NP'
p1470
g5
tp1471
a(S'control'
p1472
S'control'
p1473
S'NN'
p1474
S'I-NP'
p1475
g5
tp1476
a(S'groups.'
p1477
S'groups.'
p1478
S'NNS'
p1479
S'I-NP'
p1480
g5
tp1481
a(S'There'
p1482
S'There'
p1483
S'EX'
p1484
S'B-NP'
p1485
g5
tp1486
a(S'were'
p1487
S'be'
p1488
S'VBD'
p1489
S'B-VP'
p1490
g5
tp1491
a(S'no'
p1492
S'no'
p1493
S'DT'
p1494
S'B-NP'
p1495
g5
tp1496
a(S'significant'
p1497
S'significant'
p1498
S'JJ'
p1499
S'I-NP'
p1500
g5
tp1501
a(S'correlations'
p1502
S'correlation'
p1503
S'NNS'
p1504
S'I-NP'
p1505
g5
tp1506
a(S'between'
p1507
S'between'
p1508
S'IN'
p1509
S'B-PP'
p1510
g5
tp1511
a(S'cortisol'
p1512
S'cortisol'
p1513
S'NN'
p1514
S'B-NP'
p1515
g5
tp1516
a(S'concentrations'
p1517
S'concentration'
p1518
S'NNS'
p1519
S'I-NP'
p1520
g5
tp1521
a(S'and'
p1522
S'and'
p1523
S'CC'
p1524
g5
g5
tp1525
a(S'age'
p1526
S'age'
p1527
S'NN'
p1528
S'B-NP'
p1529
g5
tp1530
a(g392
g392
g392
g5
g5
tp1531
a(S'gender'
p1532
S'gender'
p1533
S'NN'
p1534
S'B-NP'
p1535
g5
tp1536
a(g392
g392
g392
g5
g5
tp1537
a(S'BMI'
p1538
S'BMI'
p1539
S'NN'
p1540
S'B-NP'
p1541
S'B-protein'
p1542
tp1543
a(g392
g392
g392
g5
g5
tp1544
a(S'time-point'
p1545
S'time-point'
p1546
S'NN'
p1547
S'B-NP'
p1548
g5
tp1549
a(S'for'
p1550
S'for'
p1551
S'IN'
p1552
S'B-PP'
p1553
g5
tp1554
a(S'intervention'
p1555
S'intervention'
p1556
S'NN'
p1557
S'B-NP'
p1558
g5
tp1559
a(g392
g392
g392
g5
g5
tp1560
a(S'time'
p1561
S'time'
p1562
S'NN'
p1563
S'B-NP'
p1564
g5
tp1565
a(S'interval'
p1566
S'interval'
p1567
S'NN'
p1568
S'I-NP'
p1569
g5
tp1570
a(S'between'
p1571
S'between'
p1572
S'IN'
p1573
S'B-PP'
p1574
g5
tp1575
a(S'anti-parkinson'
p1576
S'anti-parkinson'
p1577
S'JJ'
p1578
S'B-NP'
p1579
g5
tp1580
a(S'pharmacy'
p1581
S'pharmacy'
p1582
S'NN'
p1583
S'I-NP'
p1584
g5
tp1585
a(S'intake'
p1586
S'intake'
p1587
S'NN'
p1588
S'I-NP'
p1589
g5
tp1590
a(S'and'
p1591
S'and'
p1592
S'CC'
p1593
S'I-NP'
p1594
g5
tp1595
a(S'sampling'
p1596
S'sampling'
p1597
S'NN'
p1598
S'I-NP'
p1599
g5
tp1600
a(g392
g392
g392
g5
g5
tp1601
a(S'levodopa'
p1602
S'levodopa'
p1603
S'NN'
p1604
S'B-NP'
p1605
g5
tp1606
a(S'doses'
p1607
S'dose'
p1608
S'NNS'
p1609
S'I-NP'
p1610
g5
tp1611
a(g392
g392
g392
g5
g5
tp1612
a(S'duration'
p1613
S'duration'
p1614
S'NN'
p1615
S'B-NP'
p1616
g5
tp1617
a(g392
g392
g392
g5
g5
tp1618
a(S'or'
p1619
S'or'
p1620
S'CC'
p1621
g5
g5
tp1622
a(S'severity'
p1623
S'severity'
p1624
S'NN'
p1625
S'B-NP'
p1626
g5
tp1627
a(S'of'
p1628
S'of'
p1629
S'IN'
p1630
S'B-PP'
p1631
g5
tp1632
a(S'PD'
p1633
S'PD'
p1634
S'NN'
p1635
S'B-NP'
p1636
g5
tp1637
a(g103
g103
g103
g5
g5
tp1638
a(S'CONCLUSIONS'
p1639
S'CONCLUSIONS'
p1640
S'NNS'
p1641
S'B-NP'
p1642
g5
tp1643
a(S'Diurnal'
p1644
S'Diurnal'
p1645
S'JJ'
p1646
S'I-NP'
p1647
g5
tp1648
a(S'salivary'
p1649
S'salivary'
p1650
S'JJ'
p1651
S'I-NP'
p1652
g5
tp1653
a(S'cortisol'
p1654
S'cortisol'
p1655
S'NN'
p1656
S'I-NP'
p1657
g5
tp1658
a(S'rhythm'
p1659
S'rhythm'
p1660
S'NN'
p1661
S'I-NP'
p1662
g5
tp1663
a(S'was'
p1664
S'be'
p1665
S'VBD'
p1666
S'B-VP'
p1667
g5
tp1668
a(S'normal.'
p1669
S'normal.'
p1670
S'RB'
p1671
S'B-NP'
p1672
g5
tp1673
a(S'Salivary'
p1674
S'Salivary'
p1675
S'JJ'
p1676
S'I-NP'
p1677
g5
tp1678
a(S'cortisol'
p1679
S'cortisol'
p1680
S'NN'
p1681
S'I-NP'
p1682
g5
tp1683
a(S'concentrations'
p1684
S'concentration'
p1685
S'NNS'
p1686
S'I-NP'
p1687
g5
tp1688
a(S'were'
p1689
S'be'
p1690
S'VBD'
p1691
S'B-VP'
p1692
g5
tp1693
a(S'significantly'
p1694
S'significantly'
p1695
S'RB'
p1696
S'I-VP'
p1697
g5
tp1698
a(S'reduced'
p1699
S'reduce'
p1700
S'VBN'
p1701
S'I-VP'
p1702
g5
tp1703
a(S'after'
p1704
S'after'
p1705
S'IN'
p1706
S'B-PP'
p1707
g5
tp1708
a(S'the'
p1709
S'the'
p1710
S'DT'
p1711
S'B-NP'
p1712
g5
tp1713
a(S'TM'
p1714
S'TM'
p1715
S'NN'
p1716
S'I-NP'
p1717
g5
tp1718
a(S'intervention'
p1719
S'intervention'
p1720
S'NN'
p1721
S'I-NP'
p1722
g5
tp1723
a(S'and'
p1724
S'and'
p1725
S'CC'
p1726
S'B-PP'
p1727
g5
tp1728
a(S'after'
p1729
S'after'
p1730
S'IN'
p1731
S'B-PP'
p1732
g5
tp1733
a(S'RTM'
p1734
S'RTM'
p1735
S'NN'
p1736
S'B-NP'
p1737
g5
tp1738
a(g392
g392
g392
g5
g5
tp1739
a(S'but'
p1740
S'but'
p1741
S'CC'
p1742
g5
g5
tp1743
a(S'there'
p1744
S'there'
p1745
S'EX'
p1746
S'B-NP'
p1747
g5
tp1748
a(S'were'
p1749
S'be'
p1750
S'VBD'
p1751
S'B-VP'
p1752
g5
tp1753
a(S'no'
p1754
S'no'
p1755
S'DT'
p1756
S'B-NP'
p1757
g5
tp1758
a(S'significant'
p1759
S'significant'
p1760
S'JJ'
p1761
S'I-NP'
p1762
g5
tp1763
a(S'differences'
p1764
S'difference'
p1765
S'NNS'
p1766
S'I-NP'
p1767
g5
tp1768
a(S'between'
p1769
S'between'
p1770
S'IN'
p1771
S'B-PP'
p1772
g5
tp1773
a(S'the'
p1774
S'the'
p1775
S'DT'
p1776
S'B-NP'
p1777
g5
tp1778
a(S'groups'
p1779
S'group'
p1780
S'NNS'
p1781
S'I-NP'
p1782
g5
tp1783
a(S'and'
p1784
S'and'
p1785
S'CC'
p1786
g5
g5
tp1787
a(S'no'
p1788
S'no'
p1789
S'DT'
p1790
S'B-NP'
p1791
g5
tp1792
a(S'sustained'
p1793
S'sustained'
p1794
S'JJ'
p1795
S'I-NP'
p1796
g5
tp1797
a(S'long-term'
p1798
S'long-term'
p1799
S'JJ'
p1800
S'I-NP'
p1801
g5
tp1802
a(S'effect.'
p1803
S'effect.'
p1804
S'NN'
p1805
S'I-NP'
p1806
g5
tp1807
a(S'No'
p1808
S'No'
p1809
S'DT'
p1810
S'B-NP'
p1811
g5
tp1812
a(S'associations'
p1813
S'association'
p1814
S'NNS'
p1815
S'I-NP'
p1816
g5
tp1817
a(S'were'
p1818
S'be'
p1819
S'VBD'
p1820
S'B-VP'
p1821
g5
tp1822
a(S'seen'
p1823
S'see'
p1824
S'VBN'
p1825
S'I-VP'
p1826
g5
tp1827
a(S'between'
p1828
S'between'
p1829
S'IN'
p1830
S'B-PP'
p1831
g5
tp1832
a(S'salivary'
p1833
S'salivary'
p1834
S'JJ'
p1835
S'B-NP'
p1836
g5
tp1837
a(S'cortisol'
p1838
S'cortisol'
p1839
S'NN'
p1840
S'I-NP'
p1841
g5
tp1842
a(S'concentration'
p1843
S'concentration'
p1844
S'NN'
p1845
S'I-NP'
p1846
g5
tp1847
a(S'and'
p1848
S'and'
p1849
S'CC'
p1850
g5
g5
tp1851
a(S'clinical'
p1852
S'clinical'
p1853
S'JJ'
p1854
S'B-NP'
p1855
g5
tp1856
a(S'and/or'
p1857
S'and/or'
p1858
S'CC'
p1859
S'I-NP'
p1860
g5
tp1861
a(S'pharmacological'
p1862
S'pharmacological'
p1863
S'JJ'
p1864
S'I-NP'
p1865
g5
tp1866
a(S'characteristics'
p1867
S'characteristic'
p1868
S'NNS'
p1869
S'I-NP'
p1870
g5
tp1871
a(g103
g103
g103
g5
g5
tp1872
a(S'TRIAL'
p1873
S'TRIAL'
p1874
S'NNP'
p1875
S'B-NP'
p1876
g5
tp1877
a(S'REGISTRATION'
p1878
S'REGISTRATION'
p1879
S'NNP'
p1880
S'I-NP'
p1881
g5
tp1882
a(S'ClinicalTrial.gov'
p1883
S'ClinicalTrial.gov'
p1884
S'NNP'
p1885
S'I-NP'
p1886
g5
tp1887
a(g392
g392
g392
g5
g5
tp1888
a(S'NCT01734876'
p1889
S'NCT01734876'
p1890
S'NNP'
p1891
S'B-NP'
p1892
g5
tp1893
a(S'and'
p1894
S'and'
p1895
S'CC'
p1896
g5
g5
tp1897
a(S'FoU'
p1898
S'FoU'
p1899
S'NNP'
p1900
S'B-NP'
p1901
g5
tp1902
a(S'Sweden'
p1903
S'Sweden'
p1904
S'NNP'
p1905
S'I-NP'
p1906
g5
tp1907
a(S'108881'
p1908
S'108881'
p1909
S'CD'
p1910
S'I-NP'
p1911
g5
tp1912
a(g103
g103
g103
g5
g5
tp1913
a.