(lp0
(S'Outcome'
p1
S'Outcome'
p2
S'VBN'
p3
S'B-VP'
p4
S'O'
p5
tp6
a(S'at'
p7
S'at'
p8
S'IN'
p9
S'B-PP'
p10
g5
tp11
a(S'7'
p12
g12
S'CD'
p13
S'B-NP'
p14
g5
tp15
a(S'years'
p16
S'year'
p17
S'NNS'
p18
S'I-NP'
p19
g5
tp20
a(S'of'
p21
S'of'
p22
S'IN'
p23
S'B-PP'
p24
g5
tp25
a(S'children'
p26
S'child'
p27
S'NNS'
p28
S'B-NP'
p29
g5
tp30
a(S'diagnosed'
p31
S'diagnose'
p32
S'VBN'
p33
S'B-VP'
p34
g5
tp35
a(S'with'
p36
S'with'
p37
S'IN'
p38
S'B-PP'
p39
g5
tp40
a(S'autism'
p41
S'autism'
p42
S'NN'
p43
S'B-NP'
p44
g5
tp45
a(S'at'
p46
S'at'
p47
S'IN'
p48
S'B-PP'
p49
g5
tp50
a(S'age'
p51
S'age'
p52
S'NN'
p53
S'B-NP'
p54
g5
tp55
a(S'2'
p56
g56
S'CD'
p57
S'I-NP'
p58
g5
tp59
a(S':'
p60
g60
g60
g5
g5
tp61
a(S'predictive'
p62
S'predictive'
p63
S'JJ'
p64
S'B-NP'
p65
g5
tp66
a(S'validity'
p67
S'validity'
p68
S'NN'
p69
S'I-NP'
p70
g5
tp71
a(S'of'
p72
S'of'
p73
S'IN'
p74
S'B-PP'
p75
g5
tp76
a(S'assessments'
p77
S'assessment'
p78
S'NNS'
p79
S'B-NP'
p80
g5
tp81
a(S'conducted'
p82
S'conduct'
p83
S'VBN'
p84
S'B-VP'
p85
g5
tp86
a(S'at'
p87
S'at'
p88
S'IN'
p89
S'B-PP'
p90
g5
tp91
a(g56
g56
S'CD'
p92
S'B-NP'
p93
g5
tp94
a(S'and'
p95
S'and'
p96
S'CC'
p97
S'I-NP'
p98
g5
tp99
a(S'3'
p100
g100
S'CD'
p101
S'I-NP'
p102
g5
tp103
a(S'years'
p104
S'year'
p105
S'NNS'
p106
S'I-NP'
p107
g5
tp108
a(S'of'
p109
S'of'
p110
S'IN'
p111
S'B-PP'
p112
g5
tp113
a(S'age'
p114
S'age'
p115
S'NN'
p116
S'B-NP'
p117
g5
tp118
a(S'and'
p119
S'and'
p120
S'CC'
p121
S'I-NP'
p122
g5
tp123
a(S'pattern'
p124
S'pattern'
p125
S'NN'
p126
S'I-NP'
p127
g5
tp128
a(S'of'
p129
S'of'
p130
S'IN'
p131
S'B-PP'
p132
g5
tp133
a(S'symptom'
p134
S'symptom'
p135
S'NN'
p136
S'B-NP'
p137
g5
tp138
a(S'change'
p139
S'change'
p140
S'NN'
p141
S'I-NP'
p142
g5
tp143
a(S'over'
p144
S'over'
p145
S'IN'
p146
S'B-PP'
p147
g5
tp148
a(S'time'
p149
S'time'
p150
S'NN'
p151
S'B-NP'
p152
g5
tp153
a(S'.'
p154
g154
g154
g5
g5
tp155
a(S'OBJECTIVE'
p156
S'OBJECTIVE'
p157
S'NN'
p158
S'B-NP'
p159
g5
tp160
a(S'To'
p161
S'To'
p162
S'TO'
p163
S'B-VP'
p164
g5
tp165
a(S'examine'
p166
S'examine'
p167
S'VB'
p168
S'I-VP'
p169
g5
tp170
a(S'the'
p171
S'the'
p172
S'DT'
p173
S'B-NP'
p174
g5
tp175
a(S'predictive'
p176
S'predictive'
p177
S'JJ'
p178
S'I-NP'
p179
g5
tp180
a(S'validity'
p181
S'validity'
p182
S'NN'
p183
S'I-NP'
p184
g5
tp185
a(S'of'
p186
S'of'
p187
S'IN'
p188
S'B-PP'
p189
g5
tp190
a(S'symptom'
p191
S'symptom'
p192
S'NN'
p193
S'B-NP'
p194
g5
tp195
a(S'severity'
p196
S'severity'
p197
S'NN'
p198
S'I-NP'
p199
g5
tp200
a(S','
p201
g201
g201
g5
g5
tp202
a(S'cognitive'
p203
S'cognitive'
p204
S'JJ'
p205
S'B-NP'
p206
g5
tp207
a(S'and'
p208
S'and'
p209
S'CC'
p210
S'I-NP'
p211
g5
tp212
a(S'language'
p213
S'language'
p214
S'NN'
p215
S'I-NP'
p216
g5
tp217
a(S'measures'
p218
S'measure'
p219
S'NNS'
p220
S'I-NP'
p221
g5
tp222
a(S'taken'
p223
S'take'
p224
S'VBN'
p225
S'B-VP'
p226
g5
tp227
a(S'at'
p228
S'at'
p229
S'IN'
p230
S'B-PP'
p231
g5
tp232
a(S'ages'
p233
S'age'
p234
S'NNS'
p235
S'B-NP'
p236
g5
tp237
a(g56
g56
S'CD'
p238
S'B-NP'
p239
g5
tp240
a(S'and'
p241
S'and'
p242
S'CC'
p243
S'I-NP'
p244
g5
tp245
a(g100
g100
S'CD'
p246
S'I-NP'
p247
g5
tp248
a(S'years'
p249
S'year'
p250
S'NNS'
p251
S'I-NP'
p252
g5
tp253
a(S'to'
p254
S'to'
p255
S'TO'
p256
S'B-VP'
p257
g5
tp258
a(S'outcome'
p259
S'outcome'
p260
S'VB'
p261
S'I-VP'
p262
g5
tp263
a(S'at'
p264
S'at'
p265
S'IN'
p266
S'B-PP'
p267
g5
tp268
a(S'age'
p269
S'age'
p270
S'NN'
p271
S'B-NP'
p272
g5
tp273
a(g12
g12
S'CD'
p274
S'I-NP'
p275
g5
tp276
a(S'in'
p277
S'in'
p278
S'IN'
p279
S'B-PP'
p280
g5
tp281
a(S'a'
p282
g282
S'DT'
p283
S'B-NP'
p284
g5
tp285
a(S'sample'
p286
S'sample'
p287
S'NN'
p288
S'I-NP'
p289
g5
tp290
a(S'of'
p291
S'of'
p292
S'IN'
p293
S'B-PP'
p294
g5
tp295
a(S'children'
p296
S'child'
p297
S'NNS'
p298
S'B-NP'
p299
g5
tp300
a(S'diagnosed'
p301
S'diagnose'
p302
S'VBN'
p303
S'B-VP'
p304
g5
tp305
a(S'with'
p306
S'with'
p307
S'IN'
p308
S'B-PP'
p309
g5
tp310
a(S'autism'
p311
S'autism'
p312
S'NN'
p313
S'B-NP'
p314
g5
tp315
a(S'at'
p316
S'at'
p317
S'IN'
p318
S'B-PP'
p319
g5
tp320
a(S'age'
p321
S'age'
p322
S'NN'
p323
S'B-NP'
p324
g5
tp325
a(g56
g56
S'CD'
p326
S'I-NP'
p327
g5
tp328
a(g154
g154
g154
g5
g5
tp329
a(S'METHOD'
p330
S'METHOD'
p331
S'NN'
p332
S'B-NP'
p333
g5
tp334
a(S'Twenty-six'
p335
S'Twenty-six'
p336
S'CD'
p337
S'B-NP'
p338
g5
tp339
a(S'children'
p340
S'child'
p341
S'NNS'
p342
S'I-NP'
p343
g5
tp344
a(S'diagnosed'
p345
S'diagnose'
p346
S'VBN'
p347
S'B-VP'
p348
g5
tp349
a(S'with'
p350
S'with'
p351
S'IN'
p352
S'B-PP'
p353
g5
tp354
a(S'autism'
p355
S'autism'
p356
S'NN'
p357
S'B-NP'
p358
g5
tp359
a(S'at'
p360
S'at'
p361
S'IN'
p362
S'B-PP'
p363
g5
tp364
a(S'age'
p365
S'age'
p366
S'NN'
p367
S'B-NP'
p368
g5
tp369
a(g56
g56
S'CD'
p370
S'I-NP'
p371
g5
tp372
a(S'were'
p373
S'be'
p374
S'VBD'
p375
S'B-VP'
p376
g5
tp377
a(S're-assessed'
p378
S're-assess'
p379
S'VBN'
p380
S'I-VP'
p381
g5
tp382
a(S'at'
p383
S'at'
p384
S'IN'
p385
S'B-PP'
p386
g5
tp387
a(S'ages'
p388
S'age'
p389
S'NNS'
p390
S'B-NP'
p391
g5
tp392
a(g100
g100
S'CD'
p393
S'B-NP'
p394
g5
tp395
a(S'and'
p396
S'and'
p397
S'CC'
p398
S'I-NP'
p399
g5
tp400
a(g12
g12
S'CD'
p401
S'I-NP'
p402
g5
tp403
a(S'years.'
p404
S'years.'
p405
S'NN'
p406
S'I-NP'
p407
g5
tp408
a(S'At'
p409
S'At'
p410
S'IN'
p411
S'B-PP'
p412
g5
tp413
a(S'each'
p414
S'each'
p415
S'DT'
p416
S'B-NP'
p417
g5
tp418
a(S'age'
p419
S'age'
p420
S'NN'
p421
S'I-NP'
p422
g5
tp423
a(S'symptom'
p424
S'symptom'
p425
S'NN'
p426
S'I-NP'
p427
g5
tp428
a(S'severity'
p429
S'severity'
p430
S'NN'
p431
S'I-NP'
p432
g5
tp433
a(g201
g201
g201
g5
g5
tp434
a(S'cognitive'
p435
S'cognitive'
p436
S'JJ'
p437
S'B-NP'
p438
g5
tp439
a(S'and'
p440
S'and'
p441
S'CC'
p442
S'I-NP'
p443
g5
tp444
a(S'language'
p445
S'language'
p446
S'NN'
p447
S'I-NP'
p448
g5
tp449
a(S'assessments'
p450
S'assessment'
p451
S'NNS'
p452
S'I-NP'
p453
g5
tp454
a(S'were'
p455
S'be'
p456
S'VBD'
p457
S'B-VP'
p458
g5
tp459
a(S'completed'
p460
S'complete'
p461
S'VBN'
p462
S'I-VP'
p463
g5
tp464
a(g154
g154
g154
g5
g5
tp465
a(S'RESULTS'
p466
S'RESULTS'
p467
S'NNS'
p468
S'B-NP'
p469
g5
tp470
a(S'The'
p471
S'The'
p472
S'DT'
p473
S'B-NP'
p474
g5
tp475
a(S'pattern'
p476
S'pattern'
p477
S'NN'
p478
S'I-NP'
p479
g5
tp480
a(S'of'
p481
S'of'
p482
S'IN'
p483
S'B-PP'
p484
g5
tp485
a(S'autistic'
p486
S'autistic'
p487
S'JJ'
p488
S'B-NP'
p489
g5
tp490
a(S'symptom'
p491
S'symptom'
p492
S'NN'
p493
S'I-NP'
p494
g5
tp495
a(S'severity'
p496
S'severity'
p497
S'NN'
p498
S'I-NP'
p499
g5
tp500
a(S'varied'
p501
S'vary'
p502
S'VBD'
p503
S'B-VP'
p504
g5
tp505
a(S'over'
p506
S'over'
p507
S'IN'
p508
S'B-PP'
p509
g5
tp510
a(S'time'
p511
S'time'
p512
S'NN'
p513
S'B-NP'
p514
g5
tp515
a(S'by'
p516
S'by'
p517
S'IN'
p518
S'B-PP'
p519
g5
tp520
a(S'domain.'
p521
S'domain.'
p522
S'JJ'
p523
S'B-NP'
p524
g5
tp525
a(S'Across'
p526
S'Across'
p527
S'NNP'
p528
S'I-NP'
p529
g5
tp530
a(S'time'
p531
S'time'
p532
S'NN'
p533
S'I-NP'
p534
g5
tp535
a(g201
g201
g201
g5
g5
tp536
a(S'children'
p537
S'child'
p538
S'NNS'
p539
S'B-NP'
p540
g5
tp541
a(S'moved'
p542
S'move'
p543
S'VBD'
p544
S'B-VP'
p545
g5
tp546
a(S'across'
p547
S'across'
p548
S'IN'
p549
S'B-PP'
p550
g5
tp551
a(S'diagnostic'
p552
S'diagnostic'
p553
S'JJ'
p554
S'B-NP'
p555
g5
tp556
a(S'boundaries'
p557
S'boundary'
p558
S'NNS'
p559
S'I-NP'
p560
g5
tp561
a(S'both'
p562
S'both'
p563
S'CC'
p564
S'B-PP'
p565
g5
tp566
a(S'in'
p567
S'in'
p568
S'IN'
p569
S'B-PP'
p570
g5
tp571
a(S'terms'
p572
S'term'
p573
S'NNS'
p574
S'B-NP'
p575
g5
tp576
a(S'of'
p577
S'of'
p578
S'IN'
p579
S'B-PP'
p580
g5
tp581
a(S'clinical'
p582
S'clinical'
p583
S'JJ'
p584
S'B-NP'
p585
g5
tp586
a(S'diagnosis'
p587
S'diagnosis'
p588
S'NN'
p589
S'I-NP'
p590
g5
tp591
a(S'and'
p592
S'and'
p593
S'CC'
p594
S'B-PP'
p595
g5
tp596
a(S'in'
p597
S'in'
p598
S'IN'
p599
S'B-PP'
p600
g5
tp601
a(S'terms'
p602
S'term'
p603
S'NNS'
p604
S'B-NP'
p605
g5
tp606
a(S'of'
p607
S'of'
p608
S'IN'
p609
S'B-PP'
p610
g5
tp611
a(S'instrument'
p612
S'instrument'
p613
S'NN'
p614
S'B-NP'
p615
g5
tp616
a(S'diagnosis'
p617
S'diagnosis'
p618
S'NN'
p619
S'I-NP'
p620
g5
tp621
a(S'on'
p622
S'on'
p623
S'IN'
p624
S'B-PP'
p625
g5
tp626
a(S'the'
p627
S'the'
p628
S'DT'
p629
S'B-NP'
p630
g5
tp631
a(S'Autism'
p632
S'Autism'
p633
S'NN'
p634
S'I-NP'
p635
g5
tp636
a(S'Diagnostic'
p637
S'Diagnostic'
p638
S'JJ'
p639
S'I-NP'
p640
g5
tp641
a(S'Interview-Revised'
p642
S'Interview-Revised'
p643
S'JJ'
p644
S'I-NP'
p645
g5
tp646
a(S'('
p647
g647
g647
g5
g5
tp648
a(S'ADI-R'
p649
S'ADI-R'
p650
S'NN'
p651
S'B-NP'
p652
S'B-protein'
p653
tp654
a(S')'
p655
g655
g655
g5
g5
tp656
a(g154
g154
g154
g5
g5
tp657
a(S'On'
p658
S'On'
p659
S'IN'
p660
S'B-PP'
p661
g5
tp662
a(S'all'
p663
S'all'
p664
S'DT'
p665
S'B-NP'
p666
g5
tp667
a(S'measures'
p668
S'measure'
p669
S'NNS'
p670
S'I-NP'
p671
g5
tp672
a(S'group'
p673
S'group'
p674
S'NN'
p675
S'I-NP'
p676
g5
tp677
a(S'variability'
p678
S'variability'
p679
S'NN'
p680
S'I-NP'
p681
g5
tp682
a(S'in'
p683
S'in'
p684
S'IN'
p685
S'B-PP'
p686
g5
tp687
a(S'scores'
p688
S'score'
p689
S'NNS'
p690
S'B-NP'
p691
g5
tp692
a(S'increased'
p693
S'increase'
p694
S'VBD'
p695
S'B-VP'
p696
g5
tp697
a(S'with'
p698
S'with'
p699
S'IN'
p700
S'B-PP'
p701
g5
tp702
a(S'age.'
p703
S'age.'
p704
S'NN'
p705
S'B-NP'
p706
g5
tp707
a(S'Although'
p708
S'Although'
p709
S'IN'
p710
S'B-SBAR'
p711
g5
tp712
a(S'non-verbal'
p713
S'non-verbal'
p714
S'JJ'
p715
S'B-NP'
p716
g5
tp717
a(S'IQ'
p718
S'IQ'
p719
S'NN'
p720
S'I-NP'
p721
g5
tp722
a(g647
g647
g647
g5
g5
tp723
a(S'NVIQ'
p724
S'NVIQ'
p725
S'NN'
p726
S'B-NP'
p727
S'B-protein'
p728
tp729
a(g655
g655
g655
g5
g5
tp730
a(S'for'
p731
S'for'
p732
S'IN'
p733
S'B-PP'
p734
g5
tp735
a(S'the'
p736
S'the'
p737
S'DT'
p738
S'B-NP'
p739
g5
tp740
a(S'group'
p741
S'group'
p742
S'NN'
p743
S'I-NP'
p744
g5
tp745
a(S'as'
p746
S'as'
p747
S'IN'
p748
S'B-PP'
p749
g5
tp750
a(g282
g282
S'DT'
p751
S'B-NP'
p752
g5
tp753
a(S'whole'
p754
S'whole'
p755
S'NN'
p756
S'I-NP'
p757
g5
tp758
a(S'was'
p759
S'be'
p760
S'VBD'
p761
S'B-VP'
p762
g5
tp763
a(S'stable'
p764
S'stable'
p765
S'JJ'
p766
S'B-ADJP'
p767
g5
tp768
a(S'across'
p769
S'across'
p770
S'IN'
p771
S'B-PP'
p772
g5
tp773
a(S'the'
p774
S'the'
p775
S'DT'
p776
S'B-NP'
p777
g5
tp778
a(g100
g100
S'CD'
p779
S'I-NP'
p780
g5
tp781
a(S'assessments'
p782
S'assessment'
p783
S'NNS'
p784
S'I-NP'
p785
g5
tp786
a(g201
g201
g201
g5
g5
tp787
a(S'this'
p788
S'this'
p789
S'DT'
p790
S'B-NP'
p791
g5
tp792
a(S'masked'
p793
S'mask'
p794
S'VBD'
p795
S'B-VP'
p796
g5
tp797
a(S'considerable'
p798
S'considerable'
p799
S'JJ'
p800
S'B-NP'
p801
g5
tp802
a(S'individual'
p803
S'individual'
p804
S'JJ'
p805
S'I-NP'
p806
g5
tp807
a(S'instability.'
p808
S'instability.'
p809
S'NN'
p810
S'I-NP'
p811
g5
tp812
a(S'Standard'
p813
S'Standard'
p814
S'NNP'
p815
S'I-NP'
p816
g5
tp817
a(S'assessments'
p818
S'assessment'
p819
S'NNS'
p820
S'I-NP'
p821
g5
tp822
a(S'at'
p823
S'at'
p824
S'IN'
p825
S'B-PP'
p826
g5
tp827
a(S'age'
p828
S'age'
p829
S'NN'
p830
S'B-NP'
p831
g5
tp832
a(g56
g56
S'CD'
p833
S'I-NP'
p834
g5
tp835
a(S'did'
p836
S'do'
p837
S'VBD'
p838
S'B-VP'
p839
g5
tp840
a(S'not'
p841
S'not'
p842
S'RB'
p843
S'I-VP'
p844
g5
tp845
a(S'predict'
p846
S'predict'
p847
S'VB'
p848
S'I-VP'
p849
g5
tp850
a(S'outcome'
p851
S'outcome'
p852
S'NN'
p853
S'B-NP'
p854
g5
tp855
a(S'at'
p856
S'at'
p857
S'IN'
p858
S'B-PP'
p859
g5
tp860
a(S'age'
p861
S'age'
p862
S'NN'
p863
S'B-NP'
p864
g5
tp865
a(g12
g12
S'CD'
p866
S'I-NP'
p867
g5
tp868
a(S'even'
p869
S'even'
p870
S'RB'
p871
S'B-ADVP'
p872
g5
tp873
a(S'within'
p874
S'within'
p875
S'IN'
p876
S'B-PP'
p877
g5
tp878
a(S'the'
p879
S'the'
p880
S'DT'
p881
S'B-NP'
p882
g5
tp883
a(S'same'
p884
S'same'
p885
S'JJ'
p886
S'I-NP'
p887
g5
tp888
a(S'domain'
p889
S'domain'
p890
S'NN'
p891
S'I-NP'
p892
g5
tp893
a(S'of'
p894
S'of'
p895
S'IN'
p896
S'B-PP'
p897
g5
tp898
a(S'functioning.'
p899
S'functioning.'
p900
S'NN'
p901
S'B-NP'
p902
g5
tp903
a(S'In'
p904
S'In'
p905
S'IN'
p906
S'B-PP'
p907
g5
tp908
a(S'contrast'
p909
S'contrast'
p910
S'NN'
p911
S'B-NP'
p912
g5
tp913
a(g201
g201
g201
g5
g5
tp914
a(S'standard'
p915
S'standard'
p916
S'JJ'
p917
S'B-NP'
p918
g5
tp919
a(S'assessments'
p920
S'assessment'
p921
S'NNS'
p922
S'I-NP'
p923
g5
tp924
a(S'at'
p925
S'at'
p926
S'IN'
p927
S'B-PP'
p928
g5
tp929
a(S'age'
p930
S'age'
p931
S'NN'
p932
S'B-NP'
p933
g5
tp934
a(g100
g100
S'CD'
p935
S'I-NP'
p936
g5
tp937
a(S'did'
p938
S'do'
p939
S'VBD'
p940
S'B-VP'
p941
g5
tp942
a(S'predict'
p943
S'predict'
p944
S'VB'
p945
S'I-VP'
p946
g5
tp947
a(S'outcome.'
p948
S'outcome.'
p949
S'RB'
p950
S'B-ADVP'
p951
g5
tp952
a(S'However'
p953
S'However'
p954
S'RB'
p955
S'B-ADVP'
p956
g5
tp957
a(g201
g201
g201
g5
g5
tp958
a(g282
g282
S'DT'
p959
S'B-NP'
p960
g5
tp961
a(S'measure'
p962
S'measure'
p963
S'NN'
p964
S'I-NP'
p965
g5
tp966
a(S'of'
p967
S'of'
p968
S'IN'
p969
S'B-PP'
p970
g5
tp971
a(S'rate'
p972
S'rate'
p973
S'NN'
p974
S'B-NP'
p975
g5
tp976
a(S'of'
p977
S'of'
p978
S'IN'
p979
S'B-PP'
p980
g5
tp981
a(S'non-verbal'
p982
S'non-verbal'
p983
S'JJ'
p984
S'B-NP'
p985
g5
tp986
a(S'communicative'
p987
S'communicative'
p988
S'JJ'
p989
S'I-NP'
p990
g5
tp991
a(S'acts'
p992
S'act'
p993
S'NNS'
p994
S'I-NP'
p995
g5
tp996
a(S'taken'
p997
S'take'
p998
S'VBN'
p999
S'B-VP'
p1000
g5
tp1001
a(S'from'
p1002
S'from'
p1003
S'IN'
p1004
S'B-PP'
p1005
g5
tp1006
a(S'an'
p1007
S'an'
p1008
S'DT'
p1009
S'B-NP'
p1010
g5
tp1011
a(S'interactive'
p1012
S'interactive'
p1013
S'JJ'
p1014
S'I-NP'
p1015
g5
tp1016
a(S'play-based'
p1017
S'play-based'
p1018
S'JJ'
p1019
S'I-NP'
p1020
g5
tp1021
a(S'assessment'
p1022
S'assessment'
p1023
S'NN'
p1024
S'I-NP'
p1025
g5
tp1026
a(S'at'
p1027
S'at'
p1028
S'IN'
p1029
S'B-PP'
p1030
g5
tp1031
a(S'age'
p1032
S'age'
p1033
S'NN'
p1034
S'B-NP'
p1035
g5
tp1036
a(g56
g56
S'CD'
p1037
S'I-NP'
p1038
g5
tp1039
a(S'was'
p1040
S'be'
p1041
S'VBD'
p1042
S'B-VP'
p1043
g5
tp1044
a(S'significantly'
p1045
S'significantly'
p1046
S'RB'
p1047
S'I-VP'
p1048
g5
tp1049
a(S'associated'
p1050
S'associate'
p1051
S'VBN'
p1052
S'I-VP'
p1053
g5
tp1054
a(S'with'
p1055
S'with'
p1056
S'IN'
p1057
S'B-PP'
p1058
g5
tp1059
a(S'language'
p1060
S'language'
p1061
S'NN'
p1062
S'B-NP'
p1063
g5
tp1064
a(g201
g201
g201
g5
g5
tp1065
a(S'communication'
p1066
S'communication'
p1067
S'NN'
p1068
S'B-NP'
p1069
g5
tp1070
a(S'and'
p1071
S'and'
p1072
S'CC'
p1073
g5
g5
tp1074
a(S'social'
p1075
S'social'
p1076
S'JJ'
p1077
S'B-NP'
p1078
g5
tp1079
a(S'outcomes'
p1080
S'outcome'
p1081
S'NNS'
p1082
S'I-NP'
p1083
g5
tp1084
a(S'at'
p1085
S'at'
p1086
S'IN'
p1087
S'B-PP'
p1088
g5
tp1089
a(S'age'
p1090
S'age'
p1091
S'NN'
p1092
S'B-NP'
p1093
g5
tp1094
a(g12
g12
S'CD'
p1095
S'I-NP'
p1096
g5
tp1097
a(g154
g154
g154
g5
g5
tp1098
a(S'CONCLUSIONS'
p1099
S'CONCLUSIONS'
p1100
S'NNS'
p1101
S'B-NP'
p1102
g5
tp1103
a(S'The'
p1104
S'The'
p1105
S'DT'
p1106
S'B-NP'
p1107
g5
tp1108
a(S'trajectory'
p1109
S'trajectory'
p1110
S'NN'
p1111
S'I-NP'
p1112
g5
tp1113
a(S'of'
p1114
S'of'
p1115
S'IN'
p1116
S'B-PP'
p1117
g5
tp1118
a(S'autism'
p1119
S'autism'
p1120
S'NN'
p1121
S'B-NP'
p1122
g5
tp1123
a(S'symptoms'
p1124
S'symptom'
p1125
S'NNS'
p1126
S'I-NP'
p1127
g5
tp1128
a(S'over'
p1129
S'over'
p1130
S'IN'
p1131
S'B-PP'
p1132
g5
tp1133
a(S'time'
p1134
S'time'
p1135
S'NN'
p1136
S'B-NP'
p1137
g5
tp1138
a(S'differed'
p1139
S'differ'
p1140
S'VBD'
p1141
S'B-VP'
p1142
g5
tp1143
a(S'in'
p1144
S'in'
p1145
S'IN'
p1146
S'B-PP'
p1147
g5
tp1148
a(S'different'
p1149
S'different'
p1150
S'JJ'
p1151
S'B-NP'
p1152
g5
tp1153
a(S'domains'
p1154
S'domain'
p1155
S'NNS'
p1156
S'I-NP'
p1157
g5
tp1158
a(g201
g201
g201
g5
g5
tp1159
a(S'suggesting'
p1160
S'suggest'
p1161
S'VBG'
p1162
S'B-VP'
p1163
g5
tp1164
a(S'that'
p1165
S'that'
p1166
S'IN'
p1167
S'B-SBAR'
p1168
g5
tp1169
a(S'they'
p1170
S'they'
p1171
S'PRP'
p1172
S'B-NP'
p1173
g5
tp1174
a(S'may'
p1175
S'may'
p1176
S'MD'
p1177
S'B-VP'
p1178
g5
tp1179
a(S'be'
p1180
S'be'
p1181
S'VB'
p1182
S'I-VP'
p1183
g5
tp1184
a(g201
g201
g201
g5
g5
tp1185
a(S'at'
p1186
S'at'
p1187
S'IN'
p1188
S'B-ADVP'
p1189
g5
tp1190
a(S'least'
p1191
S'least'
p1192
S'JJS'
p1193
S'I-ADVP'
p1194
g5
tp1195
a(S'in'
p1196
S'in'
p1197
S'IN'
p1198
S'B-PP'
p1199
g5
tp1200
a(S'part'
p1201
S'part'
p1202
S'NN'
p1203
S'B-NP'
p1204
g5
tp1205
a(g201
g201
g201
g5
g5
tp1206
a(S'separable.'
p1207
S'separable.'
p1208
S'JJ'
p1209
S'B-NP'
p1210
g5
tp1211
a(S'Variability'
p1212
S'Variability'
p1213
S'NN'
p1214
S'I-NP'
p1215
g5
tp1216
a(S'in'
p1217
S'in'
p1218
S'IN'
p1219
S'B-PP'
p1220
g5
tp1221
a(S'language'
p1222
S'language'
p1223
S'NN'
p1224
S'B-NP'
p1225
g5
tp1226
a(g201
g201
g201
g5
g5
tp1227
a(S'NVIQ'
p1228
S'NVIQ'
p1229
S'NN'
p1230
S'B-NP'
p1231
S'B-protein'
p1232
tp1233
a(S'and'
p1234
S'and'
p1235
S'CC'
p1236
S'I-NP'
p1237
g5
tp1238
a(S'symptom'
p1239
S'symptom'
p1240
S'NN'
p1241
S'I-NP'
p1242
g5
tp1243
a(S'severity'
p1244
S'severity'
p1245
S'NN'
p1246
S'I-NP'
p1247
g5
tp1248
a(S'increased'
p1249
S'increase'
p1250
S'VBD'
p1251
S'B-VP'
p1252
g5
tp1253
a(S'over'
p1254
S'over'
p1255
S'IN'
p1256
S'B-PP'
p1257
g5
tp1258
a(S'time.'
p1259
S'time.'
p1260
S'NN'
p1261
S'B-NP'
p1262
g5
tp1263
a(S'Caution'
p1264
S'Caution'
p1265
S'NN'
p1266
S'I-NP'
p1267
g5
tp1268
a(S'is'
p1269
S'be'
p1270
S'VBZ'
p1271
S'B-VP'
p1272
g5
tp1273
a(S'required'
p1274
S'require'
p1275
S'VBN'
p1276
S'I-VP'
p1277
g5
tp1278
a(S'when'
p1279
S'when'
p1280
S'WRB'
p1281
S'B-ADVP'
p1282
g5
tp1283
a(S'interpreting'
p1284
S'interpret'
p1285
S'VBG'
p1286
S'B-VP'
p1287
g5
tp1288
a(S'the'
p1289
S'the'
p1290
S'DT'
p1291
S'B-NP'
p1292
g5
tp1293
a(S'findings'
p1294
S'finding'
p1295
S'NNS'
p1296
S'I-NP'
p1297
g5
tp1298
a(S'from'
p1299
S'from'
p1300
S'IN'
p1301
S'B-PP'
p1302
g5
tp1303
a(S'assessments'
p1304
S'assessment'
p1305
S'NNS'
p1306
S'B-NP'
p1307
g5
tp1308
a(S'of'
p1309
S'of'
p1310
S'IN'
p1311
S'B-PP'
p1312
g5
tp1313
a(S'children'
p1314
S'child'
p1315
S'NNS'
p1316
S'B-NP'
p1317
g5
tp1318
a(S'with'
p1319
S'with'
p1320
S'IN'
p1321
S'B-PP'
p1322
g5
tp1323
a(S'autism'
p1324
S'autism'
p1325
S'NN'
p1326
S'B-NP'
p1327
g5
tp1328
a(S'at'
p1329
S'at'
p1330
S'IN'
p1331
S'B-PP'
p1332
g5
tp1333
a(S'age'
p1334
S'age'
p1335
S'NN'
p1336
S'B-NP'
p1337
g5
tp1338
a(g56
g56
S'CD'
p1339
S'I-NP'
p1340
g5
tp1341
a(S'years.'
p1342
S'years.'
p1343
S'NN'
p1344
S'I-NP'
p1345
g5
tp1346
a(S'At'
p1347
S'At'
p1348
S'IN'
p1349
S'B-PP'
p1350
g5
tp1351
a(S'this'
p1352
S'this'
p1353
S'DT'
p1354
S'B-NP'
p1355
g5
tp1356
a(S'age'
p1357
S'age'
p1358
S'NN'
p1359
S'I-NP'
p1360
g5
tp1361
a(S'measures'
p1362
S'measure'
p1363
S'NNS'
p1364
S'I-NP'
p1365
g5
tp1366
a(S'of'
p1367
S'of'
p1368
S'IN'
p1369
S'B-PP'
p1370
g5
tp1371
a(S'rate'
p1372
S'rate'
p1373
S'NN'
p1374
S'B-NP'
p1375
g5
tp1376
a(S'of'
p1377
S'of'
p1378
S'IN'
p1379
S'B-PP'
p1380
g5
tp1381
a(S'non-verbal'
p1382
S'non-verbal'
p1383
S'JJ'
p1384
S'B-NP'
p1385
g5
tp1386
a(S'communication'
p1387
S'communication'
p1388
S'NN'
p1389
S'I-NP'
p1390
g5
tp1391
a(S'might'
p1392
S'might'
p1393
S'MD'
p1394
S'B-VP'
p1395
g5
tp1396
a(S'be'
p1397
S'be'
p1398
S'VB'
p1399
S'I-VP'
p1400
g5
tp1401
a(S'more'
p1402
S'more'
p1403
S'RBR'
p1404
S'B-ADJP'
p1405
g5
tp1406
a(S'informative'
p1407
S'informative'
p1408
S'JJ'
p1409
S'I-ADJP'
p1410
g5
tp1411
a(S'than'
p1412
S'than'
p1413
S'IN'
p1414
S'B-PP'
p1415
g5
tp1416
a(S'scores'
p1417
S'score'
p1418
S'NNS'
p1419
S'B-NP'
p1420
g5
tp1421
a(S'on'
p1422
S'on'
p1423
S'IN'
p1424
S'B-PP'
p1425
g5
tp1426
a(S'standard'
p1427
S'standard'
p1428
S'JJ'
p1429
S'B-NP'
p1430
g5
tp1431
a(S'psychometric'
p1432
S'psychometric'
p1433
S'JJ'
p1434
S'I-NP'
p1435
g5
tp1436
a(S'tests.'
p1437
S'tests.'
p1438
S'NN'
p1439
S'I-NP'
p1440
g5
tp1441
a(S'Predictive'
p1442
S'Predictive'
p1443
S'JJ'
p1444
S'I-NP'
p1445
g5
tp1446
a(S'validity'
p1447
S'validity'
p1448
S'NN'
p1449
S'I-NP'
p1450
g5
tp1451
a(S'of'
p1452
S'of'
p1453
S'IN'
p1454
S'B-PP'
p1455
g5
tp1456
a(S'assessments'
p1457
S'assessment'
p1458
S'NNS'
p1459
S'B-NP'
p1460
g5
tp1461
a(S'at'
p1462
S'at'
p1463
S'IN'
p1464
S'B-PP'
p1465
g5
tp1466
a(S'age'
p1467
S'age'
p1468
S'NN'
p1469
S'B-NP'
p1470
g5
tp1471
a(g100
g100
S'CD'
p1472
S'B-NP'
p1473
g5
tp1474
a(S'years'
p1475
S'year'
p1476
S'NNS'
p1477
S'I-NP'
p1478
g5
tp1479
a(S'was'
p1480
S'be'
p1481
S'VBD'
p1482
S'B-VP'
p1483
g5
tp1484
a(S'greater'
p1485
S'great'
p1486
S'JJR'
p1487
S'B-ADJP'
p1488
g5
tp1489
a(g154
g154
g154
g5
g5
tp1490
a.