(lp0
(S'Design'
p1
S'Design'
p2
S'NN'
p3
S'B-NP'
p4
S'O'
p5
tp6
a(S'and'
p7
S'and'
p8
S'CC'
p9
S'I-NP'
p10
g5
tp11
a(S'subject'
p12
S'subject'
p13
S'NN'
p14
S'I-NP'
p15
g5
tp16
a(S'characteristics'
p17
S'characteristic'
p18
S'NNS'
p19
S'I-NP'
p20
g5
tp21
a(S'in'
p22
S'in'
p23
S'IN'
p24
S'B-PP'
p25
g5
tp26
a(S'the'
p27
S'the'
p28
S'DT'
p29
S'B-NP'
p30
g5
tp31
a(S'federally-funded'
p32
S'federally-funded'
p33
S'JJ'
p34
S'I-NP'
p35
g5
tp36
a(S'citalopram'
p37
S'citalopram'
p38
S'NN'
p39
S'I-NP'
p40
g5
tp41
a(S'trial'
p42
S'trial'
p43
S'NN'
p44
S'I-NP'
p45
g5
tp46
a(S'in'
p47
S'in'
p48
S'IN'
p49
S'B-PP'
p50
g5
tp51
a(S'children'
p52
S'child'
p53
S'NNS'
p54
S'B-NP'
p55
g5
tp56
a(S'with'
p57
S'with'
p58
S'IN'
p59
S'B-PP'
p60
g5
tp61
a(S'pervasive'
p62
S'pervasive'
p63
S'JJ'
p64
S'B-NP'
p65
g5
tp66
a(S'developmental'
p67
S'developmental'
p68
S'JJ'
p69
S'I-NP'
p70
g5
tp71
a(S'disorders'
p72
S'disorder'
p73
S'NNS'
p74
S'I-NP'
p75
g5
tp76
a(S'.'
p77
g77
g77
g5
g5
tp78
a(S'The'
p79
S'The'
p80
S'DT'
p81
S'B-NP'
p82
g5
tp83
a(S'Studies'
p84
S'Study'
p85
S'NNS'
p86
S'I-NP'
p87
g5
tp88
a(S'to'
p89
S'to'
p90
S'TO'
p91
S'B-PP'
p92
g5
tp93
a(S'Advance'
p94
S'Advance'
p95
S'NNP'
p96
S'B-NP'
p97
g5
tp98
a(S'Autism'
p99
S'Autism'
p100
S'NNP'
p101
S'I-NP'
p102
g5
tp103
a(S'Research'
p104
S'Research'
p105
S'NNP'
p106
S'I-NP'
p107
g5
tp108
a(S'and'
p109
S'and'
p110
S'CC'
p111
S'I-NP'
p112
g5
tp113
a(S'Treatment'
p114
S'Treatment'
p115
S'NNP'
p116
S'I-NP'
p117
g5
tp118
a(S'Network'
p119
S'Network'
p120
S'NNP'
p121
S'I-NP'
p122
g5
tp123
a(S'conducted'
p124
S'conduct'
p125
S'VBD'
p126
S'B-VP'
p127
g5
tp128
a(S'a'
p129
g129
S'DT'
p130
S'B-NP'
p131
g5
tp132
a(S'randomized'
p133
S'randomize'
p134
S'VBN'
p135
S'I-NP'
p136
g5
tp137
a(S'trial'
p138
S'trial'
p139
S'NN'
p140
S'I-NP'
p141
g5
tp142
a(S'with'
p143
S'with'
p144
S'IN'
p145
S'B-PP'
p146
g5
tp147
a(S'citalopram'
p148
S'citalopram'
p149
S'NN'
p150
S'B-NP'
p151
g5
tp152
a(S'in'
p153
S'in'
p154
S'IN'
p155
S'B-PP'
p156
g5
tp157
a(S'children'
p158
S'child'
p159
S'NNS'
p160
S'B-NP'
p161
g5
tp162
a(S'with'
p163
S'with'
p164
S'IN'
p165
S'B-PP'
p166
g5
tp167
a(S'Pervasive'
p168
S'Pervasive'
p169
S'JJ'
p170
S'B-NP'
p171
g5
tp172
a(S'developmental'
p173
S'developmental'
p174
S'JJ'
p175
S'I-NP'
p176
g5
tp177
a(S'disorders'
p178
S'disorder'
p179
S'NNS'
p180
S'I-NP'
p181
g5
tp182
a(S'('
p183
g183
g183
g5
g5
tp184
a(S'PDDs'
p185
S'PDD'
p186
S'NNS'
p187
S'B-NP'
p188
g5
tp189
a(S')'
p190
g190
g190
g5
g5
tp191
a(g77
g77
g77
g5
g5
tp192
a(S'We'
p193
S'We'
p194
S'PRP'
p195
S'B-NP'
p196
g5
tp197
a(S'present'
p198
S'present'
p199
S'VBP'
p200
S'B-VP'
p201
g5
tp202
a(S'the'
p203
S'the'
p204
S'DT'
p205
S'B-NP'
p206
g5
tp207
a(S'rationale'
p208
S'rationale'
p209
S'NN'
p210
S'I-NP'
p211
g5
tp212
a(S','
p213
g213
g213
S'I-NP'
p214
g5
tp215
a(S'design'
p216
S'design'
p217
S'NN'
p218
S'I-NP'
p219
g5
tp220
a(S'and'
p221
S'and'
p222
S'CC'
p223
S'I-NP'
p224
g5
tp225
a(S'sample'
p226
S'sample'
p227
S'NN'
p228
S'I-NP'
p229
g5
tp230
a(S'characteristics'
p231
S'characteristic'
p232
S'NNS'
p233
S'I-NP'
p234
g5
tp235
a(S'of'
p236
S'of'
p237
S'IN'
p238
S'B-PP'
p239
g5
tp240
a(S'the'
p241
S'the'
p242
S'DT'
p243
S'B-NP'
p244
g5
tp245
a(S'citalopram'
p246
S'citalopram'
p247
S'NN'
p248
S'I-NP'
p249
g5
tp250
a(S'trial.'
p251
S'trial.'
p252
S'NN'
p253
S'I-NP'
p254
g5
tp255
a(S'Subjects'
p256
S'Subject'
p257
S'NNS'
p258
S'I-NP'
p259
g5
tp260
a(g183
g183
g183
g5
g5
tp261
a(S'128'
p262
S'128'
p263
S'CD'
p264
S'B-NP'
p265
g5
tp266
a(S'boys'
p267
S'boy'
p268
S'NNS'
p269
S'I-NP'
p270
g5
tp271
a(g213
g213
g213
g5
g5
tp272
a(S'21'
p273
S'21'
p274
S'CD'
p275
S'B-NP'
p276
g5
tp277
a(S'girls'
p278
S'girl'
p279
S'NNS'
p280
S'I-NP'
p281
g5
tp282
a(g190
g190
g190
g5
g5
tp283
a(S'had'
p284
S'have'
p285
S'VBD'
p286
S'B-VP'
p287
g5
tp288
a(g129
g129
S'DT'
p289
S'B-NP'
p290
g5
tp291
a(S'mean'
p292
S'mean'
p293
S'JJ'
p294
S'I-NP'
p295
g5
tp296
a(S'age'
p297
S'age'
p298
S'NN'
p299
S'I-NP'
p300
g5
tp301
a(S'of'
p302
S'of'
p303
S'IN'
p304
S'B-PP'
p305
g5
tp306
a(S'9.3'
p307
S'9.3'
p308
S'CD'
p309
S'B-NP'
p310
g5
tp311
a(g183
g183
g183
g5
g5
tp312
a(S'\xc2\xb13.12'
p313
S'\xc2\xb13.12'
p314
S'CD'
p315
S'B-NP'
p316
g5
tp317
a(g190
g190
g190
g5
g5
tp318
a(S'years'
p319
S'year'
p320
S'NNS'
p321
S'B-NP'
p322
g5
tp323
a(S';'
p324
g324
S':'
p325
g5
g5
tp326
a(S'132'
p327
S'132'
p328
S'CD'
p329
S'B-NP'
p330
g5
tp331
a(g183
g183
g183
g5
g5
tp332
a(S'88.6'
p333
S'88.6'
p334
S'CD'
p335
S'B-NP'
p336
g5
tp337
a(S'%'
p338
g338
S'NN'
p339
S'I-NP'
p340
g5
tp341
a(g190
g190
g190
g5
g5
tp342
a(S'were'
p343
S'be'
p344
S'VBD'
p345
S'B-VP'
p346
g5
tp347
a(S'diagnosed'
p348
S'diagnose'
p349
S'VBN'
p350
S'I-VP'
p351
g5
tp352
a(S'with'
p353
S'with'
p354
S'IN'
p355
S'B-PP'
p356
g5
tp357
a(S'autistic'
p358
S'autistic'
p359
S'JJ'
p360
S'B-NP'
p361
g5
tp362
a(S'disorder'
p363
S'disorder'
p364
S'NN'
p365
S'I-NP'
p366
g5
tp367
a(g183
g183
g183
g5
g5
tp368
a(S'4.7'
p369
S'4.7'
p370
S'CD'
p371
S'B-NP'
p372
g5
tp373
a(g338
g338
S'NN'
p374
S'I-NP'
p375
g5
tp376
a(S'with'
p377
S'with'
p378
S'IN'
p379
S'B-PP'
p380
g5
tp381
a(S'Asperger'
p382
S'Asperger'
p383
S'NN'
p384
S'B-NP'
p385
g5
tp386
a(S"'s"
p387
S"'s"
p388
S'POS'
p389
S'B-NP'
p390
g5
tp391
a(S'Disorder'
p392
S'Disorder'
p393
S'NN'
p394
S'I-NP'
p395
g5
tp396
a(g324
g324
g325
g5
g5
tp397
a(S'6.7'
p398
S'6.7'
p399
S'CD'
p400
S'B-NP'
p401
g5
tp402
a(g338
g338
S'NN'
p403
S'I-NP'
p404
g5
tp405
a(S'with'
p406
S'with'
p407
S'IN'
p408
S'B-PP'
p409
g5
tp410
a(S'PDD-not'
p411
S'PDD-not'
p412
S'NN'
p413
S'B-NP'
p414
g5
tp415
a(S'otherwise'
p416
S'otherwise'
p417
S'RB'
p418
S'B-VP'
p419
g5
tp420
a(S'specified'
p421
S'specify'
p422
S'VBN'
p423
S'I-VP'
p424
g5
tp425
a(g190
g190
g190
g5
g5
tp426
a(g77
g77
g77
g5
g5
tp427
a(S'Less'
p428
S'Less'
p429
S'RBR'
p430
S'B-NP'
p431
S'B-cell_type'
p432
tp433
a(S'than'
p434
S'than'
p435
S'IN'
p436
S'I-NP'
p437
g5
tp438
a(S'half'
p439
S'half'
p440
S'NN'
p441
S'I-NP'
p442
g5
tp443
a(S'of'
p444
S'of'
p445
S'IN'
p446
S'B-PP'
p447
g5
tp448
a(S'the'
p449
S'the'
p450
S'DT'
p451
S'B-NP'
p452
g5
tp453
a(S'subjects'
p454
S'subject'
p455
S'NNS'
p456
S'I-NP'
p457
g5
tp458
a(S'were'
p459
S'be'
p460
S'VBD'
p461
S'B-VP'
p462
g5
tp463
a(S'intellectually'
p464
S'intellectually'
p465
S'RB'
p466
S'B-ADJP'
p467
g5
tp468
a(S'disabled'
p469
S'disabled'
p470
S'JJ'
p471
S'I-ADJP'
p472
g5
tp473
a(g324
g324
g325
g5
g5
tp474
a(S'117'
p475
S'117'
p476
S'CD'
p477
S'B-NP'
p478
g5
tp479
a(g183
g183
g183
g5
g5
tp480
a(S'78.5'
p481
S'78.5'
p482
S'CD'
p483
S'B-NP'
p484
g5
tp485
a(g338
g338
S'NN'
p486
S'I-NP'
p487
g5
tp488
a(g190
g190
g190
g5
g5
tp489
a(S'were'
p490
S'be'
p491
S'VBD'
p492
S'B-VP'
p493
g5
tp494
a(S'rated'
p495
S'rat'
p496
S'VBN'
p497
S'I-VP'
p498
g5
tp499
a(S'Moderate'
p500
S'Moderate'
p501
S'JJ'
p502
S'B-ADJP'
p503
g5
tp504
a(S'or'
p505
S'or'
p506
S'CC'
p507
g5
g5
tp508
a(S'Marked'
p509
S'Mark'
p510
S'VBN'
p511
S'B-VP'
p512
g5
tp513
a(S'on'
p514
S'on'
p515
S'IN'
p516
S'B-PP'
p517
g5
tp518
a(S'the'
p519
S'the'
p520
S'DT'
p521
S'B-NP'
p522
g5
tp523
a(S'Clinical'
p524
S'Clinical'
p525
S'NNP'
p526
S'I-NP'
p527
g5
tp528
a(S'Global'
p529
S'Global'
p530
S'NNP'
p531
S'I-NP'
p532
g5
tp533
a(S'Impression'
p534
S'Impression'
p535
S'NNP'
p536
S'I-NP'
p537
g5
tp538
a(S'for'
p539
S'for'
p540
S'IN'
p541
S'B-PP'
p542
g5
tp543
a(S'Severity.'
p544
S'Severity.'
p545
S'NNP'
p546
S'B-NP'
p547
g5
tp548
a(S'Study'
p549
S'Study'
p550
S'NNP'
p551
S'I-NP'
p552
g5
tp553
a(S'measures'
p554
S'measure'
p555
S'NNS'
p556
S'I-NP'
p557
g5
tp558
a(S'were'
p559
S'be'
p560
S'VBD'
p561
S'B-VP'
p562
g5
tp563
a(S'similar'
p564
S'similar'
p565
S'JJ'
p566
S'B-ADJP'
p567
g5
tp568
a(S'to'
p569
S'to'
p570
S'TO'
p571
S'B-PP'
p572
g5
tp573
a(S'previous'
p574
S'previous'
p575
S'JJ'
p576
S'B-NP'
p577
g5
tp578
a(S'Research'
p579
S'Research'
p580
S'NNP'
p581
S'I-NP'
p582
g5
tp583
a(S'Units'
p584
S'Units'
p585
S'NNP'
p586
S'I-NP'
p587
g5
tp588
a(S'on'
p589
S'on'
p590
S'IN'
p591
S'B-PP'
p592
g5
tp593
a(S'Pediatric'
p594
S'Pediatric'
p595
S'NNP'
p596
S'B-NP'
p597
g5
tp598
a(S'Psychopharmacology'
p599
S'Psychopharmacology'
p600
S'NNP'
p601
S'I-NP'
p602
g5
tp603
a(S'trials.'
p604
S'trials.'
p605
S'NN'
p606
S'I-NP'
p607
g5
tp608
a(S'Subjects'
p609
S'Subject'
p610
S'NNS'
p611
S'I-NP'
p612
g5
tp613
a(S'in'
p614
S'in'
p615
S'IN'
p616
S'B-PP'
p617
g5
tp618
a(S'this'
p619
S'this'
p620
S'DT'
p621
S'B-NP'
p622
g5
tp623
a(S'trial'
p624
S'trial'
p625
S'NN'
p626
S'I-NP'
p627
g5
tp628
a(S'were'
p629
S'be'
p630
S'VBD'
p631
S'B-VP'
p632
g5
tp633
a(S'slightly'
p634
S'slightly'
p635
S'RB'
p636
S'B-ADJP'
p637
g5
tp638
a(S'older'
p639
S'old'
p640
S'JJR'
p641
S'I-ADJP'
p642
g5
tp643
a(S'and'
p644
S'and'
p645
S'CC'
p646
g5
g5
tp647
a(S'more'
p648
S'more'
p649
S'RBR'
p650
S'B-ADJP'
p651
g5
tp652
a(S'likely'
p653
S'likely'
p654
S'JJ'
p655
S'I-ADJP'
p656
g5
tp657
a(S'to'
p658
S'to'
p659
S'TO'
p660
S'B-VP'
p661
g5
tp662
a(S'have'
p663
S'have'
p664
S'VB'
p665
S'I-VP'
p666
g5
tp667
a(S'complaints'
p668
S'complaint'
p669
S'NNS'
p670
S'B-NP'
p671
g5
tp672
a(S'of'
p673
S'of'
p674
S'IN'
p675
S'B-PP'
p676
g5
tp677
a(S'repetitive'
p678
S'repetitive'
p679
S'JJ'
p680
S'B-NP'
p681
g5
tp682
a(S'behavior'
p683
S'behavior'
p684
S'NN'
p685
S'I-NP'
p686
g5
tp687
a(S'than'
p688
S'than'
p689
S'IN'
p690
S'B-PP'
p691
g5
tp692
a(S'participants'
p693
S'participant'
p694
S'NNS'
p695
S'B-NP'
p696
g5
tp697
a(S'in'
p698
S'in'
p699
S'IN'
p700
S'B-PP'
p701
g5
tp702
a(S'RUPP'
p703
S'RUPP'
p704
S'NN'
p705
S'B-NP'
p706
g5
tp707
a(S'trials'
p708
S'trial'
p709
S'NNS'
p710
S'I-NP'
p711
g5
tp712
a(g77
g77
g77
g5
g5
tp713
a.