(lp0
(S'Helicobacter'
p1
S'Helicobacter'
p2
S'NN'
p3
S'B-NP'
p4
S'O'
p5
tp6
a(S'pylori'
p7
S'pylori'
p8
S'NN'
p9
S'I-NP'
p10
g5
tp11
a(S'eradication'
p12
S'eradication'
p13
S'NN'
p14
S'I-NP'
p15
g5
tp16
a(S'in'
p17
S'in'
p18
S'IN'
p19
S'B-PP'
p20
g5
tp21
a(S'children'
p22
S'child'
p23
S'NNS'
p24
S'B-NP'
p25
g5
tp26
a(S'and'
p27
S'and'
p28
S'CC'
p29
S'I-NP'
p30
g5
tp31
a(S'adolescents'
p32
S'adolescent'
p33
S'NNS'
p34
S'I-NP'
p35
g5
tp36
a(S'by'
p37
S'by'
p38
S'IN'
p39
S'B-PP'
p40
g5
tp41
a(S'a'
p42
g42
S'DT'
p43
S'B-NP'
p44
g5
tp45
a(S'once'
p46
S'once'
p47
S'RB'
p48
S'I-NP'
p49
g5
tp50
a(S'daily'
p51
S'daily'
p52
S'JJ'
p53
S'I-NP'
p54
g5
tp55
a(S'6-day'
p56
S'6-day'
p57
S'JJ'
p58
S'I-NP'
p59
g5
tp60
a(S'treatment'
p61
S'treatment'
p62
S'NN'
p63
S'I-NP'
p64
g5
tp65
a(S'with'
p66
S'with'
p67
S'IN'
p68
S'B-PP'
p69
g5
tp70
a(S'or'
p71
S'or'
p72
S'CC'
p73
S'B-PP'
p74
g5
tp75
a(S'without'
p76
S'without'
p77
S'IN'
p78
S'B-PP'
p79
g5
tp80
a(g42
g42
S'DT'
p81
S'B-NP'
p82
g5
tp83
a(S'proton'
p84
S'proton'
p85
S'NN'
p86
S'I-NP'
p87
g5
tp88
a(S'pump'
p89
S'pump'
p90
S'NN'
p91
S'I-NP'
p92
g5
tp93
a(S'inhibitor'
p94
S'inhibitor'
p95
S'NN'
p96
S'I-NP'
p97
g5
tp98
a(S'in'
p99
S'in'
p100
S'IN'
p101
S'B-PP'
p102
g5
tp103
a(g42
g42
S'DT'
p104
S'B-NP'
p105
g5
tp106
a(S'double-blind'
p107
S'double-blind'
p108
S'JJ'
p109
S'I-NP'
p110
g5
tp111
a(S'randomized'
p112
S'randomize'
p113
S'VBN'
p114
S'I-NP'
p115
g5
tp116
a(S'trial'
p117
S'trial'
p118
S'NN'
p119
S'I-NP'
p120
g5
tp121
a(S'.'
p122
g122
g122
g5
g5
tp123
a(S'AIM'
p124
S'AIM'
p125
S'NN'
p126
S'B-NP'
p127
g5
tp128
a(S'To'
p129
S'To'
p130
S'TO'
p131
S'B-VP'
p132
g5
tp133
a(S'evaluate'
p134
S'evaluate'
p135
S'VB'
p136
S'I-VP'
p137
g5
tp138
a(S'two'
p139
S'two'
p140
S'CD'
p141
S'B-NP'
p142
g5
tp143
a(S'simplified'
p144
S'simplified'
p145
S'JJ'
p146
S'I-NP'
p147
g5
tp148
a(S'Helicobacter'
p149
S'Helicobacter'
p150
S'NN'
p151
S'I-NP'
p152
g5
tp153
a(S'pylori'
p154
S'pylori'
p155
S'NN'
p156
S'I-NP'
p157
g5
tp158
a(S'eradication'
p159
S'eradication'
p160
S'NN'
p161
S'I-NP'
p162
g5
tp163
a(S'treatment'
p164
S'treatment'
p165
S'NN'
p166
S'I-NP'
p167
g5
tp168
a(S'alternatives'
p169
S'alternative'
p170
S'NNS'
p171
S'I-NP'
p172
g5
tp173
a(S'for'
p174
S'for'
p175
S'IN'
p176
S'B-PP'
p177
g5
tp178
a(S'children'
p179
S'child'
p180
S'NNS'
p181
S'B-NP'
p182
g5
tp183
a(S'and'
p184
S'and'
p185
S'CC'
p186
S'I-NP'
p187
g5
tp188
a(S'adolescents'
p189
S'adolescent'
p190
S'NNS'
p191
S'I-NP'
p192
g5
tp193
a(g122
g122
g122
g5
g5
tp194
a(S'METHODS'
p195
S'METHODS'
p196
S'NNS'
p197
S'B-NP'
p198
g5
tp199
a(S'Study'
p200
S'Study'
p201
S'NN'
p202
S'I-NP'
p203
g5
tp204
a(S'subjects'
p205
S'subject'
p206
S'NNS'
p207
S'I-NP'
p208
g5
tp209
a(S'were'
p210
S'be'
p211
S'VBD'
p212
S'B-VP'
p213
g5
tp214
a(S'identified'
p215
S'identify'
p216
S'VBN'
p217
S'I-VP'
p218
g5
tp219
a(S'by'
p220
S'by'
p221
S'IN'
p222
S'B-PP'
p223
g5
tp224
a(S'enzyme-linked'
p225
S'enzyme-linked'
p226
S'JJ'
p227
S'B-NP'
p228
g5
tp229
a(S'immunosorbent'
p230
S'immunosorbent'
p231
S'JJ'
p232
S'I-NP'
p233
g5
tp234
a(S'assay'
p235
S'assay'
p236
S'NN'
p237
S'I-NP'
p238
g5
tp239
a(S'and'
p240
S'and'
p241
S'CC'
p242
S'I-NP'
p243
g5
tp244
a(S'immunoblot'
p245
S'immunoblot'
p246
S'NN'
p247
S'I-NP'
p248
g5
tp249
a(S'in'
p250
S'in'
p251
S'IN'
p252
S'B-PP'
p253
g5
tp254
a(g42
g42
S'DT'
p255
S'B-NP'
p256
g5
tp257
a(S'family'
p258
S'family'
p259
S'NN'
p260
S'I-NP'
p261
g5
tp262
a(S'screening'
p263
S'screening'
p264
S'NN'
p265
S'I-NP'
p266
g5
tp267
a(S'project.'
p268
S'project.'
p269
S'NN'
p270
S'I-NP'
p271
g5
tp272
a(S'Helicobacter'
p273
S'Helicobacter'
p274
S'NN'
p275
S'I-NP'
p276
g5
tp277
a(S'pylori'
p278
S'pylori'
p279
S'NN'
p280
S'I-NP'
p281
g5
tp282
a(S'infected'
p283
S'infect'
p284
S'VBD'
p285
S'B-VP'
p286
g5
tp287
a(S'10-21'
p288
S'10-21'
p289
S'CD'
p290
S'B-NP'
p291
g5
tp292
a(S'year'
p293
S'year'
p294
S'NN'
p295
S'I-NP'
p296
g5
tp297
a(S'olds'
p298
S'old'
p299
S'NNS'
p300
S'I-NP'
p301
g5
tp302
a(S'were'
p303
S'be'
p304
S'VBD'
p305
S'B-VP'
p306
g5
tp307
a(S'offered'
p308
S'offer'
p309
S'VBN'
p310
S'I-VP'
p311
g5
tp312
a(S'treatment'
p313
S'treatment'
p314
S'NN'
p315
S'B-NP'
p316
g5
tp317
a(S','
p318
g318
g318
g5
g5
tp319
a(S'individuals'
p320
S'individual'
p321
S'NNS'
p322
S'B-NP'
p323
g5
tp324
a(S'with'
p325
S'with'
p326
S'IN'
p327
S'B-PP'
p328
g5
tp329
a(S'abdominal'
p330
S'abdominal'
p331
S'JJ'
p332
S'B-NP'
p333
g5
tp334
a(S'pain'
p335
S'pain'
p336
S'NN'
p337
S'I-NP'
p338
g5
tp339
a(S'underwent'
p340
S'undergo'
p341
S'VBD'
p342
S'B-VP'
p343
g5
tp344
a(S'upper'
p345
S'upper'
p346
S'JJ'
p347
S'B-NP'
p348
g5
tp349
a(S'endoscopy'
p350
S'endoscopy'
p351
S'NN'
p352
S'I-NP'
p353
g5
tp354
a(S'and'
p355
S'and'
p356
S'CC'
p357
g5
g5
tp358
a(S'those'
p359
S'those'
p360
S'DT'
p361
S'B-NP'
p362
g5
tp363
a(S'with'
p364
S'with'
p365
S'IN'
p366
S'B-PP'
p367
g5
tp368
a(S'peptic'
p369
S'peptic'
p370
S'JJ'
p371
S'B-NP'
p372
g5
tp373
a(S'ulcers'
p374
S'ulcer'
p375
S'NNS'
p376
S'I-NP'
p377
g5
tp378
a(S'were'
p379
S'be'
p380
S'VBD'
p381
S'B-VP'
p382
g5
tp383
a(S'excluded.'
p384
S'excluded.'
p385
S'VBN'
p386
S'I-VP'
p387
g5
tp388
a(S'Participants'
p389
S'Participant'
p390
S'NNPS'
p391
S'B-NP'
p392
g5
tp393
a(S'were'
p394
S'be'
p395
S'VBD'
p396
S'B-VP'
p397
g5
tp398
a(S'randomized'
p399
S'randomize'
p400
S'VBN'
p401
S'I-VP'
p402
g5
tp403
a(S'to'
p404
S'to'
p405
S'TO'
p406
S'B-PP'
p407
g5
tp408
a(S'either'
p409
S'either'
p410
S'CC'
p411
g5
g5
tp412
a(S'azithromycin'
p413
S'azithromycin'
p414
S'NN'
p415
S'B-NP'
p416
g5
tp417
a(S'500'
p418
S'500'
p419
S'CD'
p420
S'I-NP'
p421
g5
tp422
a(S'mg'
p423
S'mg'
p424
S'NN'
p425
S'I-NP'
p426
g5
tp427
a(S'daily'
p428
S'daily'
p429
S'JJ'
p430
S'I-NP'
p431
g5
tp432
a(S'and'
p433
S'and'
p434
S'CC'
p435
g5
g5
tp436
a(S'tinidazole'
p437
S'tinidazole'
p438
S'NN'
p439
S'B-NP'
p440
g5
tp441
a(S'500'
p442
S'500'
p443
S'CD'
p444
S'I-NP'
p445
g5
tp446
a(S'mg'
p447
S'mg'
p448
S'NN'
p449
S'I-NP'
p450
g5
tp451
a(S'two'
p452
S'two'
p453
S'CD'
p454
S'B-NP'
p455
g5
tp456
a(S'tablets'
p457
S'tablet'
p458
S'NNS'
p459
S'I-NP'
p460
g5
tp461
a(S'daily'
p462
S'daily'
p463
S'RB'
p464
S'B-ADVP'
p465
g5
tp466
a(S'in'
p467
S'in'
p468
S'IN'
p469
S'B-PP'
p470
g5
tp471
a(S'combination'
p472
S'combination'
p473
S'NN'
p474
S'B-NP'
p475
g5
tp476
a(S'with'
p477
S'with'
p478
S'IN'
p479
S'B-PP'
p480
g5
tp481
a(S'lansoprasole'
p482
S'lansoprasole'
p483
S'NN'
p484
S'B-NP'
p485
g5
tp486
a(S'30'
p487
S'30'
p488
S'CD'
p489
S'I-NP'
p490
g5
tp491
a(S'mg'
p492
S'mg'
p493
S'NN'
p494
S'I-NP'
p495
g5
tp496
a(S'daily'
p497
S'daily'
p498
S'RB'
p499
S'B-ADVP'
p500
g5
tp501
a(S'for'
p502
S'for'
p503
S'IN'
p504
S'B-PP'
p505
g5
tp506
a(S'6'
p507
g507
S'CD'
p508
S'B-NP'
p509
g5
tp510
a(S'days'
p511
S'day'
p512
S'NNS'
p513
S'I-NP'
p514
g5
tp515
a(S'('
p516
g516
g516
g5
g5
tp517
a(S'ATL-group'
p518
S'ATL-group'
p519
S'NN'
p520
S'B-NP'
p521
g5
tp522
a(S')'
p523
g523
g523
g5
g5
tp524
a(S'or'
p525
S'or'
p526
S'CC'
p527
g5
g5
tp528
a(S'with'
p529
S'with'
p530
S'IN'
p531
S'B-PP'
p532
g5
tp533
a(S'placebo'
p534
S'placebo'
p535
S'NN'
p536
S'B-NP'
p537
g5
tp538
a(g516
g516
g516
g5
g5
tp539
a(S'ATP-group'
p540
S'ATP-group'
p541
S'NN'
p542
S'B-NP'
p543
g5
tp544
a(g523
g523
g523
g5
g5
tp545
a(g122
g122
g122
g5
g5
tp546
a(S'Urea'
p547
S'Urea'
p548
S'NNP'
p549
S'B-NP'
p550
g5
tp551
a(S'Breath'
p552
S'Breath'
p553
S'NNP'
p554
S'I-NP'
p555
g5
tp556
a(S'Test'
p557
S'Test'
p558
S'NNP'
p559
S'I-NP'
p560
g5
tp561
a(S'was'
p562
S'be'
p563
S'VBD'
p564
S'B-VP'
p565
g5
tp566
a(S'performed'
p567
S'perform'
p568
S'VBN'
p569
S'I-VP'
p570
g5
tp571
a(S'at'
p572
S'at'
p573
S'IN'
p574
S'B-PP'
p575
g5
tp576
a(S'inclusion'
p577
S'inclusion'
p578
S'NN'
p579
S'B-NP'
p580
g5
tp581
a(S'and'
p582
S'and'
p583
S'CC'
p584
g5
g5
tp585
a(S'after'
p586
S'after'
p587
S'IN'
p588
S'B-PP'
p589
g5
tp590
a(g42
g42
S'DT'
p591
S'B-NP'
p592
g5
tp593
a(S'minimum'
p594
S'minimum'
p595
S'NN'
p596
S'I-NP'
p597
g5
tp598
a(S'of'
p599
S'of'
p600
S'IN'
p601
S'B-PP'
p602
g5
tp603
a(g507
g507
S'CD'
p604
S'B-NP'
p605
g5
tp606
a(S'weeks'
p607
S'week'
p608
S'NNS'
p609
S'I-NP'
p610
g5
tp611
a(S'after'
p612
S'after'
p613
S'IN'
p614
S'B-PP'
p615
g5
tp616
a(S'end'
p617
S'end'
p618
S'NN'
p619
S'B-NP'
p620
g5
tp621
a(S'of'
p622
S'of'
p623
S'IN'
p624
S'B-PP'
p625
g5
tp626
a(S'therapy'
p627
S'therapy'
p628
S'NN'
p629
S'B-NP'
p630
g5
tp631
a(g122
g122
g122
g5
g5
tp632
a(S'RESULTS'
p633
S'RESULTS'
p634
S'NNS'
p635
S'B-NP'
p636
g5
tp637
a(S'In'
p638
S'In'
p639
S'IN'
p640
S'B-PP'
p641
g5
tp642
a(S'total'
p643
S'total'
p644
S'NN'
p645
S'B-NP'
p646
g5
tp647
a(g318
g318
g318
g5
g5
tp648
a(S'131'
p649
S'131'
p650
S'CD'
p651
S'B-NP'
p652
g5
tp653
a(S'individuals'
p654
S'individual'
p655
S'NNS'
p656
S'I-NP'
p657
g5
tp658
a(S'were'
p659
S'be'
p660
S'VBD'
p661
S'B-VP'
p662
g5
tp663
a(S'randomized'
p664
S'randomize'
p665
S'VBN'
p666
S'I-VP'
p667
g5
tp668
a(g318
g318
g318
g5
g5
tp669
a(S'of'
p670
S'of'
p671
S'IN'
p672
S'B-PP'
p673
g5
tp674
a(S'whom'
p675
S'whom'
p676
S'WP'
p677
S'B-NP'
p678
g5
tp679
a(S'31'
p680
S'31'
p681
S'CD'
p682
S'B-NP'
p683
g5
tp684
a(g516
g516
g516
g5
g5
tp685
a(S'24'
p686
S'24'
p687
S'CD'
p688
S'B-NP'
p689
g5
tp690
a(S'%'
p691
g691
S'NN'
p692
S'I-NP'
p693
g5
tp694
a(g523
g523
g523
g5
g5
tp695
a(S'had'
p696
S'have'
p697
S'VBD'
p698
S'B-VP'
p699
g5
tp700
a(S'undergone'
p701
S'undergo'
p702
S'VBN'
p703
S'I-VP'
p704
g5
tp705
a(S'upper'
p706
S'upper'
p707
S'JJ'
p708
S'B-NP'
p709
g5
tp710
a(S'endoscopy.'
p711
S'endoscopy.'
p712
S'NN'
p713
S'I-NP'
p714
g5
tp715
a(S'Full'
p716
S'Full'
p717
S'NN'
p718
S'I-NP'
p719
g5
tp720
a(S'compliance'
p721
S'compliance'
p722
S'NN'
p723
S'I-NP'
p724
g5
tp725
a(S'was'
p726
S'be'
p727
S'VBD'
p728
S'B-VP'
p729
g5
tp730
a(S'achieved'
p731
S'achieve'
p732
S'VBN'
p733
S'I-VP'
p734
g5
tp735
a(S'in'
p736
S'in'
p737
S'IN'
p738
S'B-PP'
p739
g5
tp740
a(S'93'
p741
S'93'
p742
S'CD'
p743
S'B-NP'
p744
g5
tp745
a(g691
g691
S'NN'
p746
S'I-NP'
p747
g5
tp748
a(g516
g516
g516
g5
g5
tp749
a(S'122'
p750
S'122'
p751
S'CD'
p752
S'B-NP'
p753
g5
tp754
a(S'of'
p755
S'of'
p756
S'IN'
p757
S'B-PP'
p758
g5
tp759
a(S'131'
p760
S'131'
p761
S'CD'
p762
S'B-NP'
p763
g5
tp764
a(g523
g523
g523
g5
g5
tp765
a(g122
g122
g122
g5
g5
tp766
a(S'The'
p767
S'The'
p768
S'DT'
p769
S'B-NP'
p770
g5
tp771
a(S'intention-to-treat'
p772
S'intention-to-treat'
p773
S'JJ'
p774
S'I-NP'
p775
g5
tp776
a(S'eradication'
p777
S'eradication'
p778
S'NN'
p779
S'I-NP'
p780
g5
tp781
a(S'rate'
p782
S'rate'
p783
S'NN'
p784
S'I-NP'
p785
g5
tp786
a(S'was'
p787
S'be'
p788
S'VBD'
p789
S'B-VP'
p790
g5
tp791
a(S'67'
p792
S'67'
p793
S'CD'
p794
S'B-NP'
p795
g5
tp796
a(g691
g691
S'NN'
p797
S'I-NP'
p798
g5
tp799
a(g516
g516
g516
g5
g5
tp800
a(S'44'
p801
S'44'
p802
S'CD'
p803
S'B-NP'
p804
g5
tp805
a(S'of'
p806
S'of'
p807
S'IN'
p808
S'B-PP'
p809
g5
tp810
a(S'66'
p811
S'66'
p812
S'CD'
p813
S'B-NP'
p814
g5
tp815
a(g523
g523
g523
g5
g5
tp816
a(S'and'
p817
S'and'
p818
S'CC'
p819
g5
g5
tp820
a(S'58'
p821
S'58'
p822
S'CD'
p823
S'B-NP'
p824
g5
tp825
a(g691
g691
S'NN'
p826
S'I-NP'
p827
g5
tp828
a(g516
g516
g516
g5
g5
tp829
a(S'38'
p830
S'38'
p831
S'CD'
p832
S'B-NP'
p833
g5
tp834
a(S'of'
p835
S'of'
p836
S'IN'
p837
S'B-PP'
p838
g5
tp839
a(S'65'
p840
S'65'
p841
S'CD'
p842
S'B-NP'
p843
g5
tp844
a(g523
g523
g523
g5
g5
tp845
a(S'for'
p846
S'for'
p847
S'IN'
p848
S'B-PP'
p849
g5
tp850
a(S'the'
p851
S'the'
p852
S'DT'
p853
S'B-NP'
p854
g5
tp855
a(S'ATL-'
p856
S'ATL-'
p857
S'NN'
p858
S'I-NP'
p859
g5
tp860
a(S'and'
p861
S'and'
p862
S'CC'
p863
g5
g5
tp864
a(S'the'
p865
S'the'
p866
S'DT'
p867
S'B-NP'
p868
g5
tp869
a(S'ATP-group'
p870
S'ATP-group'
p871
S'NN'
p872
S'I-NP'
p873
g5
tp874
a(g318
g318
g318
g5
g5
tp875
a(S'respectively'
p876
S'respectively'
p877
S'RB'
p878
S'B-ADVP'
p879
g5
tp880
a(g122
g122
g122
g5
g5
tp881
a(S'CONCLUSION'
p882
S'CONCLUSION'
p883
S'NN'
p884
S'B-NP'
p885
g5
tp886
a(S'The'
p887
S'The'
p888
S'DT'
p889
S'B-NP'
p890
g5
tp891
a(S'double-blind'
p892
S'double-blind'
p893
S'JJ'
p894
S'I-NP'
p895
g5
tp896
a(S'randomized'
p897
S'randomize'
p898
S'VBN'
p899
S'I-NP'
p900
g5
tp901
a(S'clinical'
p902
S'clinical'
p903
S'JJ'
p904
S'I-NP'
p905
g5
tp906
a(S'trial'
p907
S'trial'
p908
S'NN'
p909
S'I-NP'
p910
g5
tp911
a(S'did'
p912
S'do'
p913
S'VBD'
p914
S'B-VP'
p915
g5
tp916
a(S'not'
p917
S'not'
p918
S'RB'
p919
S'I-VP'
p920
g5
tp921
a(S'identify'
p922
S'identify'
p923
S'VB'
p924
S'I-VP'
p925
g5
tp926
a(g42
g42
S'DT'
p927
S'B-NP'
p928
g5
tp929
a(S'simplified'
p930
S'simplified'
p931
S'JJ'
p932
S'I-NP'
p933
g5
tp934
a(g318
g318
g318
S'I-NP'
p935
g5
tp936
a(S'successful'
p937
S'successful'
p938
S'JJ'
p939
S'I-NP'
p940
g5
tp941
a(S'once'
p942
S'once'
p943
S'RB'
p944
S'I-NP'
p945
g5
tp946
a(S'daily'
p947
S'daily'
p948
S'JJ'
p949
S'I-NP'
p950
g5
tp951
a(S'H.'
p952
S'H.'
p953
S'NN'
p954
S'I-NP'
p955
g5
tp956
a(S'pylori'
p957
S'pylori'
p958
S'NN'
p959
S'I-NP'
p960
g5
tp961
a(S'treatment'
p962
S'treatment'
p963
S'NN'
p964
S'I-NP'
p965
g5
tp966
a(S'for'
p967
S'for'
p968
S'IN'
p969
S'B-PP'
p970
g5
tp971
a(S'children'
p972
S'child'
p973
S'NNS'
p974
S'B-NP'
p975
g5
tp976
a(S'and'
p977
S'and'
p978
S'CC'
p979
S'I-NP'
p980
g5
tp981
a(S'adolescents.'
p982
S'adolescents.'
p983
S'NNS'
p984
S'I-NP'
p985
g5
tp986
a(S'Thus'
p987
S'Thus'
p988
S'RB'
p989
S'B-ADVP'
p990
g5
tp991
a(g318
g318
g318
g5
g5
tp992
a(S'twice'
p993
S'twice'
p994
S'RB'
p995
S'B-NP'
p996
g5
tp997
a(S'daily'
p998
S'daily'
p999
S'JJ'
p1000
S'I-NP'
p1001
g5
tp1002
a(S'proton'
p1003
S'proton'
p1004
S'NN'
p1005
S'I-NP'
p1006
g5
tp1007
a(S'pump'
p1008
S'pump'
p1009
S'NN'
p1010
S'I-NP'
p1011
g5
tp1012
a(S'inhibitor'
p1013
S'inhibitor'
p1014
S'NN'
p1015
S'I-NP'
p1016
g5
tp1017
a(g516
g516
g516
g5
g5
tp1018
a(S'PPI'
p1019
S'PPI'
p1020
S'NN'
p1021
S'B-NP'
p1022
g5
tp1023
a(g523
g523
g523
g5
g5
tp1024
a(S'-based'
p1025
S'-based'
p1026
S'JJ'
p1027
S'B-NP'
p1028
g5
tp1029
a(S'triple'
p1030
S'triple'
p1031
S'JJ'
p1032
S'I-NP'
p1033
g5
tp1034
a(S'therapies'
p1035
S'therapy'
p1036
S'NNS'
p1037
S'I-NP'
p1038
g5
tp1039
a(S'for'
p1040
S'for'
p1041
S'IN'
p1042
S'B-PP'
p1043
g5
tp1044
a(S'7'
p1045
g1045
S'CD'
p1046
S'B-NP'
p1047
g5
tp1048
a(S'days'
p1049
S'day'
p1050
S'NNS'
p1051
S'I-NP'
p1052
g5
tp1053
a(S'remain'
p1054
S'remain'
p1055
S'VBP'
p1056
S'B-VP'
p1057
g5
tp1058
a(S'as'
p1059
S'as'
p1060
S'IN'
p1061
S'B-SBAR'
p1062
g5
tp1063
a(S'the'
p1064
S'the'
p1065
S'DT'
p1066
S'B-NP'
p1067
g5
tp1068
a(S'choice'
p1069
S'choice'
p1070
S'NN'
p1071
S'I-NP'
p1072
g5
tp1073
a(S'of'
p1074
S'of'
p1075
S'IN'
p1076
S'B-PP'
p1077
g5
tp1078
a(S'treatment'
p1079
S'treatment'
p1080
S'NN'
p1081
S'B-NP'
p1082
g5
tp1083
a(S'in'
p1084
S'in'
p1085
S'IN'
p1086
S'B-PP'
p1087
g5
tp1088
a(S'children.'
p1089
S'children.'
p1090
S'NN'
p1091
S'B-NP'
p1092
g5
tp1093
a(S'Further'
p1094
S'Further'
p1095
S'RB'
p1096
S'B-ADVP'
p1097
g5
tp1098
a(g318
g318
g318
g5
g5
tp1099
a(S'powerful'
p1100
S'powerful'
p1101
S'JJ'
p1102
S'B-NP'
p1103
g5
tp1104
a(S'and'
p1105
S'and'
p1106
S'CC'
p1107
S'I-NP'
p1108
g5
tp1109
a(S'controlled'
p1110
S'controlled'
p1111
S'JJ'
p1112
S'I-NP'
p1113
g5
tp1114
a(S'studies'
p1115
S'study'
p1116
S'NNS'
p1117
S'I-NP'
p1118
g5
tp1119
a(S'are'
p1120
S'be'
p1121
S'VBP'
p1122
S'B-VP'
p1123
g5
tp1124
a(S'needed'
p1125
S'need'
p1126
S'VBN'
p1127
S'I-VP'
p1128
g5
tp1129
a(S'to'
p1130
S'to'
p1131
S'TO'
p1132
S'B-VP'
p1133
g5
tp1134
a(S'elucidate'
p1135
S'elucidate'
p1136
S'VB'
p1137
S'I-VP'
p1138
g5
tp1139
a(S'the'
p1140
S'the'
p1141
S'DT'
p1142
S'B-NP'
p1143
g5
tp1144
a(S'best'
p1145
S'good'
p1146
S'JJS'
p1147
S'I-NP'
p1148
g5
tp1149
a(S'treatment'
p1150
S'treatment'
p1151
S'NN'
p1152
S'I-NP'
p1153
g5
tp1154
a(S'strategies'
p1155
S'strategy'
p1156
S'NNS'
p1157
S'I-NP'
p1158
g5
tp1159
a(S'for'
p1160
S'for'
p1161
S'IN'
p1162
S'B-PP'
p1163
g5
tp1164
a(S'H.'
p1165
S'H.'
p1166
S'NN'
p1167
S'B-NP'
p1168
g5
tp1169
a(S'pylori'
p1170
S'pylori'
p1171
S'NN'
p1172
S'I-NP'
p1173
g5
tp1174
a(S'eradication'
p1175
S'eradication'
p1176
S'NN'
p1177
S'I-NP'
p1178
g5
tp1179
a(S'in'
p1180
S'in'
p1181
S'IN'
p1182
S'B-PP'
p1183
g5
tp1184
a(S'this'
p1185
S'this'
p1186
S'DT'
p1187
S'B-NP'
p1188
g5
tp1189
a(S'age'
p1190
S'age'
p1191
S'NN'
p1192
S'I-NP'
p1193
g5
tp1194
a(S'group'
p1195
S'group'
p1196
S'NN'
p1197
S'I-NP'
p1198
g5
tp1199
a(g122
g122
g122
g5
g5
tp1200
a.