(lp0
(S'The'
p1
S'The'
p2
S'DT'
p3
S'B-NP'
p4
S'O'
p5
tp6
a(S'impact'
p7
S'impact'
p8
S'NN'
p9
S'I-NP'
p10
g5
tp11
a(S'on'
p12
S'on'
p13
S'IN'
p14
S'B-PP'
p15
g5
tp16
a(S'outcome'
p17
S'outcome'
p18
S'NN'
p19
S'B-NP'
p20
g5
tp21
a(S'of'
p22
S'of'
p23
S'IN'
p24
S'B-PP'
p25
g5
tp26
a(S'the'
p27
S'the'
p28
S'DT'
p29
S'B-NP'
p30
g5
tp31
a(S'addition'
p32
S'addition'
p33
S'NN'
p34
S'I-NP'
p35
g5
tp36
a(S'of'
p37
S'of'
p38
S'IN'
p39
S'B-PP'
p40
g5
tp41
a(S'all-trans'
p42
S'all-trans'
p43
S'JJ'
p44
S'B-NP'
p45
g5
tp46
a(S'retinoic'
p47
S'retinoic'
p48
S'JJ'
p49
S'I-NP'
p50
g5
tp51
a(S'acid'
p52
S'acid'
p53
S'NN'
p54
S'I-NP'
p55
g5
tp56
a(S'to'
p57
S'to'
p58
S'TO'
p59
S'B-PP'
p60
g5
tp61
a(S'intensive'
p62
S'intensive'
p63
S'JJ'
p64
S'B-NP'
p65
g5
tp66
a(S'chemotherapy'
p67
S'chemotherapy'
p68
S'NN'
p69
S'I-NP'
p70
g5
tp71
a(S'in'
p72
S'in'
p73
S'IN'
p74
S'B-PP'
p75
g5
tp76
a(S'younger'
p77
S'young'
p78
S'JJR'
p79
S'B-NP'
p80
g5
tp81
a(S'patients'
p82
S'patient'
p83
S'NNS'
p84
S'I-NP'
p85
g5
tp86
a(S'with'
p87
S'with'
p88
S'IN'
p89
S'B-PP'
p90
g5
tp91
a(S'nonacute'
p92
S'nonacute'
p93
S'JJ'
p94
S'B-NP'
p95
g5
tp96
a(S'promyelocytic'
p97
S'promyelocytic'
p98
S'JJ'
p99
S'I-NP'
p100
g5
tp101
a(S'acute'
p102
S'acute'
p103
S'JJ'
p104
S'I-NP'
p105
g5
tp106
a(S'myeloid'
p107
S'myeloid'
p108
S'JJ'
p109
S'I-NP'
p110
g5
tp111
a(S'leukemia'
p112
S'leukemia'
p113
S'NN'
p114
S'I-NP'
p115
g5
tp116
a(S':'
p117
g117
g117
g5
g5
tp118
a(S'overall'
p119
S'overall'
p120
S'JJ'
p121
S'B-NP'
p122
g5
tp123
a(S'results'
p124
S'result'
p125
S'NNS'
p126
S'I-NP'
p127
g5
tp128
a(S'and'
p129
S'and'
p130
S'CC'
p131
g5
g5
tp132
a(S'results'
p133
S'result'
p134
S'VBZ'
p135
S'B-VP'
p136
g5
tp137
a(S'in'
p138
S'in'
p139
S'IN'
p140
S'B-PP'
p141
g5
tp142
a(S'genotypic'
p143
S'genotypic'
p144
S'JJ'
p145
S'B-NP'
p146
g5
tp147
a(S'subgroups'
p148
S'subgroup'
p149
S'NNS'
p150
S'I-NP'
p151
g5
tp152
a(S'defined'
p153
S'define'
p154
S'VBN'
p155
S'B-VP'
p156
g5
tp157
a(S'by'
p158
S'by'
p159
S'IN'
p160
S'B-PP'
p161
g5
tp162
a(S'mutations'
p163
S'mutation'
p164
S'NNS'
p165
S'B-NP'
p166
g5
tp167
a(S'in'
p168
S'in'
p169
S'IN'
p170
S'B-PP'
p171
g5
tp172
a(S'NPM1'
p173
S'NPM1'
p174
S'NN'
p175
S'B-NP'
p176
S'B-protein'
p177
tp178
a(S','
p179
g179
g179
g5
g5
tp180
a(S'FLT3'
p181
S'FLT3'
p182
S'NN'
p183
S'B-NP'
p184
S'B-protein'
p185
tp186
a(g179
g179
g179
g5
g5
tp187
a(S'and'
p188
S'and'
p189
S'CC'
p190
g5
g5
tp191
a(S'CEBPA'
p192
S'CEBPA'
p193
S'NN'
p194
S'B-NP'
p195
S'B-protein'
p196
tp197
a(S'.'
p198
g198
g198
g5
g5
tp199
a(S'We'
p200
S'We'
p201
S'PRP'
p202
S'B-NP'
p203
g5
tp204
a(S'investigated'
p205
S'investigate'
p206
S'VBD'
p207
S'B-VP'
p208
g5
tp209
a(S'the'
p210
S'the'
p211
S'DT'
p212
S'B-NP'
p213
g5
tp214
a(S'benefit'
p215
S'benefit'
p216
S'NN'
p217
S'I-NP'
p218
g5
tp219
a(S'of'
p220
S'of'
p221
S'IN'
p222
S'B-PP'
p223
g5
tp224
a(S'adding'
p225
S'add'
p226
S'VBG'
p227
S'B-VP'
p228
g5
tp229
a(S'all-trans'
p230
S'all-trans'
p231
S'JJ'
p232
S'B-NP'
p233
g5
tp234
a(S'retinoic'
p235
S'retinoic'
p236
S'JJ'
p237
S'I-NP'
p238
g5
tp239
a(S'acid'
p240
S'acid'
p241
S'NN'
p242
S'I-NP'
p243
g5
tp244
a(S'('
p245
g245
g245
g5
g5
tp246
a(S'ATRA'
p247
S'ATRA'
p248
S'NN'
p249
S'B-NP'
p250
g5
tp251
a(S')'
p252
g252
g252
g5
g5
tp253
a(S'to'
p254
S'to'
p255
S'TO'
p256
S'B-PP'
p257
g5
tp258
a(S'chemotherapy'
p259
S'chemotherapy'
p260
S'NN'
p261
S'B-NP'
p262
g5
tp263
a(S'for'
p264
S'for'
p265
S'IN'
p266
S'B-PP'
p267
g5
tp268
a(S'younger'
p269
S'young'
p270
S'JJR'
p271
S'B-NP'
p272
g5
tp273
a(S'patients'
p274
S'patient'
p275
S'NNS'
p276
S'I-NP'
p277
g5
tp278
a(S'with'
p279
S'with'
p280
S'IN'
p281
S'B-PP'
p282
g5
tp283
a(S'nonacute'
p284
S'nonacute'
p285
S'JJ'
p286
S'B-NP'
p287
g5
tp288
a(S'promyelocytic'
p289
S'promyelocytic'
p290
S'JJ'
p291
S'I-NP'
p292
g5
tp293
a(S'acute'
p294
S'acute'
p295
S'JJ'
p296
S'I-NP'
p297
g5
tp298
a(S'myeloid'
p299
S'myeloid'
p300
S'JJ'
p301
S'I-NP'
p302
g5
tp303
a(S'leukemia'
p304
S'leukemia'
p305
S'NN'
p306
S'I-NP'
p307
g5
tp308
a(S'and'
p309
S'and'
p310
S'CC'
p311
g5
g5
tp312
a(S'high-risk'
p313
S'high-risk'
p314
S'JJ'
p315
S'B-NP'
p316
g5
tp317
a(S'myelodysplastic'
p318
S'myelodysplastic'
p319
S'JJ'
p320
S'I-NP'
p321
g5
tp322
a(S'syndrome'
p323
S'syndrome'
p324
S'NN'
p325
S'I-NP'
p326
g5
tp327
a(g179
g179
g179
g5
g5
tp328
a(S'and'
p329
S'and'
p330
S'CC'
p331
g5
g5
tp332
a(S'considered'
p333
S'consider'
p334
S'VBN'
p335
S'B-VP'
p336
g5
tp337
a(S'interactions'
p338
S'interaction'
p339
S'NNS'
p340
S'B-NP'
p341
g5
tp342
a(S'between'
p343
S'between'
p344
S'IN'
p345
S'B-PP'
p346
g5
tp347
a(S'treatment'
p348
S'treatment'
p349
S'NN'
p350
S'B-NP'
p351
g5
tp352
a(S'and'
p353
S'and'
p354
S'CC'
p355
g5
g5
tp356
a(S'molecular'
p357
S'molecular'
p358
S'JJ'
p359
S'B-NP'
p360
g5
tp361
a(S'markers.'
p362
S'markers.'
p363
S'NN'
p364
S'I-NP'
p365
g5
tp366
a(S'Overall'
p367
S'Overall'
p368
S'NN'
p369
S'I-NP'
p370
g5
tp371
a(g179
g179
g179
g5
g5
tp372
a(S'1075'
p373
S'1075'
p374
S'CD'
p375
S'B-NP'
p376
g5
tp377
a(S'patients'
p378
S'patient'
p379
S'NNS'
p380
S'I-NP'
p381
g5
tp382
a(S'less'
p383
S'less'
p384
S'JJR'
p385
S'B-NP'
p386
g5
tp387
a(S'than'
p388
S'than'
p389
S'IN'
p390
S'I-NP'
p391
g5
tp392
a(S'60'
p393
S'60'
p394
S'CD'
p395
S'I-NP'
p396
g5
tp397
a(S'years'
p398
S'year'
p399
S'NNS'
p400
S'I-NP'
p401
g5
tp402
a(S'of'
p403
S'of'
p404
S'IN'
p405
S'B-PP'
p406
g5
tp407
a(S'age'
p408
S'age'
p409
S'NN'
p410
S'B-NP'
p411
g5
tp412
a(S'were'
p413
S'be'
p414
S'VBD'
p415
S'B-VP'
p416
g5
tp417
a(S'randomized'
p418
S'randomize'
p419
S'VBN'
p420
S'I-VP'
p421
g5
tp422
a(S'to'
p423
S'to'
p424
S'TO'
p425
S'B-VP'
p426
g5
tp427
a(S'receive'
p428
S'receive'
p429
S'VB'
p430
S'I-VP'
p431
g5
tp432
a(S'or'
p433
S'or'
p434
S'CC'
p435
g5
g5
tp436
a(S'not'
p437
S'not'
p438
S'RB'
p439
S'B-VP'
p440
g5
tp441
a(S'receive'
p442
S'receive'
p443
S'VB'
p444
S'I-VP'
p445
g5
tp446
a(S'ATRA'
p447
S'ATRA'
p448
S'NN'
p449
S'B-NP'
p450
g5
tp451
a(S'in'
p452
S'in'
p453
S'IN'
p454
S'B-PP'
p455
g5
tp456
a(S'addition'
p457
S'addition'
p458
S'NN'
p459
S'B-NP'
p460
g5
tp461
a(S'to'
p462
S'to'
p463
S'TO'
p464
S'B-PP'
p465
g5
tp466
a(S'daunorubicin/Ara-C/thioguanine'
p467
S'daunorubicin/Ara-C/thioguanine'
p468
S'NN'
p469
S'B-NP'
p470
g5
tp471
a(S'chemotherapy'
p472
S'chemotherapy'
p473
S'NN'
p474
S'I-NP'
p475
g5
tp476
a(S'with'
p477
S'with'
p478
S'IN'
p479
S'B-PP'
p480
g5
tp481
a(S'Ara-C'
p482
S'Ara-C'
p483
S'NN'
p484
S'B-NP'
p485
g5
tp486
a(S'at'
p487
S'at'
p488
S'IN'
p489
S'B-PP'
p490
g5
tp491
a(S'standard'
p492
S'standard'
p493
S'JJ'
p494
S'B-NP'
p495
g5
tp496
a(S'or'
p497
S'or'
p498
S'CC'
p499
S'I-NP'
p500
g5
tp501
a(S'double'
p502
S'double'
p503
S'JJ'
p504
S'I-NP'
p505
g5
tp506
a(S'standard'
p507
S'standard'
p508
S'JJ'
p509
S'I-NP'
p510
g5
tp511
a(S'dose.'
p512
S'dose.'
p513
S'NN'
p514
S'I-NP'
p515
g5
tp516
a(S'There'
p517
S'There'
p518
S'EX'
p519
S'B-NP'
p520
g5
tp521
a(S'were'
p522
S'be'
p523
S'VBD'
p524
S'B-VP'
p525
g5
tp526
a(S'data'
p527
S'datum'
p528
S'NNS'
p529
S'B-NP'
p530
g5
tp531
a(S'on'
p532
S'on'
p533
S'IN'
p534
S'B-PP'
p535
g5
tp536
a(S'FLT3'
p537
S'FLT3'
p538
S'NN'
p539
S'B-NP'
p540
S'B-protein'
p541
tp542
a(S'internal'
p543
S'internal'
p544
S'JJ'
p545
S'I-NP'
p546
g5
tp547
a(S'tandem'
p548
S'tandem'
p549
S'JJ'
p550
S'I-NP'
p551
g5
tp552
a(S'duplications'
p553
S'duplication'
p554
S'NNS'
p555
S'I-NP'
p556
g5
tp557
a(S'and'
p558
S'and'
p559
S'CC'
p560
g5
g5
tp561
a(S'NPM1'
p562
S'NPM1'
p563
S'NN'
p564
S'B-NP'
p565
S'B-protein'
p566
tp567
a(S'mutations'
p568
S'mutation'
p569
S'NNS'
p570
S'I-NP'
p571
g5
tp572
a(g245
g245
g245
g5
g5
tp573
a(S'n'
p574
g574
S'NN'
p575
S'B-NP'
p576
g5
tp577
a(S'='
p578
g578
S'SYM'
p579
S'B-VP'
p580
g5
tp581
a(S'592'
p582
S'592'
p583
S'CD'
p584
S'B-NP'
p585
g5
tp586
a(g252
g252
g252
g5
g5
tp587
a(g179
g179
g179
g5
g5
tp588
a(S'CEBPA'
p589
S'CEBPA'
p590
S'NN'
p591
S'B-NP'
p592
g5
tp593
a(S'mutations'
p594
S'mutation'
p595
S'NNS'
p596
S'I-NP'
p597
g5
tp598
a(g245
g245
g245
g5
g5
tp599
a(g574
g574
S'NN'
p600
S'B-NP'
p601
g5
tp602
a(g578
g578
S'SYM'
p603
S'B-VP'
p604
g5
tp605
a(S'423'
p606
S'423'
p607
S'CD'
p608
S'B-NP'
p609
g5
tp610
a(g252
g252
g252
g5
g5
tp611
a(g179
g179
g179
g5
g5
tp612
a(S'and'
p613
S'and'
p614
S'CC'
p615
g5
g5
tp616
a(S'MN1'
p617
S'MN1'
p618
S'NN'
p619
S'B-NP'
p620
S'B-protein'
p621
tp622
a(S'expression'
p623
S'expression'
p624
S'NN'
p625
S'I-NP'
p626
g5
tp627
a(g245
g245
g245
g5
g5
tp628
a(g574
g574
S'NN'
p629
S'B-NP'
p630
g5
tp631
a(g578
g578
S'SYM'
p632
S'B-VP'
p633
g5
tp634
a(S'195'
p635
S'195'
p636
S'CD'
p637
S'B-NP'
p638
g5
tp639
a(g252
g252
g252
g5
g5
tp640
a(g198
g198
g198
g5
g5
tp641
a(S'The'
p642
S'The'
p643
S'DT'
p644
S'B-NP'
p645
g5
tp646
a(S'complete'
p647
S'complete'
p648
S'JJ'
p649
S'I-NP'
p650
g5
tp651
a(S'remission'
p652
S'remission'
p653
S'NN'
p654
S'I-NP'
p655
g5
tp656
a(S'rate'
p657
S'rate'
p658
S'NN'
p659
S'I-NP'
p660
g5
tp661
a(S'was'
p662
S'be'
p663
S'VBD'
p664
S'B-VP'
p665
g5
tp666
a(S'68'
p667
S'68'
p668
S'CD'
p669
S'B-NP'
p670
g5
tp671
a(S'%'
p672
g672
S'NN'
p673
S'I-NP'
p674
g5
tp675
a(S'with'
p676
S'with'
p677
S'IN'
p678
S'B-PP'
p679
g5
tp680
a(S'complete'
p681
S'complete'
p682
S'JJ'
p683
S'B-NP'
p684
g5
tp685
a(S'remission'
p686
S'remission'
p687
S'NN'
p688
S'I-NP'
p689
g5
tp690
a(S'with'
p691
S'with'
p692
S'IN'
p693
S'B-PP'
p694
g5
tp695
a(S'incomplete'
p696
S'incomplete'
p697
S'JJ'
p698
S'B-NP'
p699
g5
tp700
a(S'count'
p701
S'count'
p702
S'NN'
p703
S'I-NP'
p704
g5
tp705
a(S'recovery'
p706
S'recovery'
p707
S'NN'
p708
S'I-NP'
p709
g5
tp710
a(S'in'
p711
S'in'
p712
S'IN'
p713
S'B-PP'
p714
g5
tp715
a(S'an'
p716
S'an'
p717
S'DT'
p718
S'B-NP'
p719
g5
tp720
a(S'additional'
p721
S'additional'
p722
S'JJ'
p723
S'I-NP'
p724
g5
tp725
a(S'16'
p726
S'16'
p727
S'CD'
p728
S'I-NP'
p729
g5
tp730
a(g672
g672
S'NN'
p731
S'I-NP'
p732
g5
tp733
a(S';'
p734
g734
g117
g5
g5
tp735
a(S'8-year'
p736
S'8-year'
p737
S'JJ'
p738
S'B-NP'
p739
g5
tp740
a(S'overall'
p741
S'overall'
p742
S'JJ'
p743
S'I-NP'
p744
g5
tp745
a(S'survival'
p746
S'survival'
p747
S'NN'
p748
S'I-NP'
p749
g5
tp750
a(S'was'
p751
S'be'
p752
S'VBD'
p753
S'B-VP'
p754
g5
tp755
a(S'32'
p756
S'32'
p757
S'CD'
p758
S'B-NP'
p759
g5
tp760
a(g672
g672
S'NN'
p761
S'I-NP'
p762
g5
tp763
a(g198
g198
g198
g5
g5
tp764
a(S'There'
p765
S'There'
p766
S'EX'
p767
S'B-NP'
p768
g5
tp769
a(S'was'
p770
S'be'
p771
S'VBD'
p772
S'B-VP'
p773
g5
tp774
a(S'no'
p775
S'no'
p776
S'DT'
p777
S'B-NP'
p778
g5
tp779
a(S'significant'
p780
S'significant'
p781
S'JJ'
p782
S'I-NP'
p783
g5
tp784
a(S'treatment'
p785
S'treatment'
p786
S'NN'
p787
S'I-NP'
p788
g5
tp789
a(S'effect'
p790
S'effect'
p791
S'NN'
p792
S'I-NP'
p793
g5
tp794
a(S'for'
p795
S'for'
p796
S'IN'
p797
S'B-PP'
p798
g5
tp799
a(S'any'
p800
S'any'
p801
S'DT'
p802
S'B-NP'
p803
g5
tp804
a(S'outcome'
p805
S'outcome'
p806
S'NN'
p807
S'I-NP'
p808
g5
tp809
a(g179
g179
g179
g5
g5
tp810
a(S'with'
p811
S'with'
p812
S'IN'
p813
S'B-PP'
p814
g5
tp815
a(S'no'
p816
S'no'
p817
S'DT'
p818
S'B-NP'
p819
g5
tp820
a(S'significant'
p821
S'significant'
p822
S'JJ'
p823
S'I-NP'
p824
g5
tp825
a(S'interactions'
p826
S'interaction'
p827
S'NNS'
p828
S'I-NP'
p829
g5
tp830
a(S'between'
p831
S'between'
p832
S'IN'
p833
S'B-PP'
p834
g5
tp835
a(S'treatment'
p836
S'treatment'
p837
S'NN'
p838
S'B-NP'
p839
g5
tp840
a(S'and'
p841
S'and'
p842
S'CC'
p843
S'I-NP'
p844
g5
tp845
a(S'demographics'
p846
S'demographic'
p847
S'NNS'
p848
S'I-NP'
p849
g5
tp850
a(g179
g179
g179
g5
g5
tp851
a(S'or'
p852
S'or'
p853
S'CC'
p854
g5
g5
tp855
a(S'cytarabine'
p856
S'cytarabine'
p857
S'NN'
p858
S'B-NP'
p859
g5
tp860
a(S'randomization.'
p861
S'randomization.'
p862
S'VBP'
p863
S'B-VP'
p864
g5
tp865
a(S'Importantly'
p866
S'Importantly'
p867
S'RB'
p868
S'B-ADVP'
p869
g5
tp870
a(g179
g179
g179
g5
g5
tp871
a(S'there'
p872
S'there'
p873
S'EX'
p874
S'B-NP'
p875
g5
tp876
a(S'were'
p877
S'be'
p878
S'VBD'
p879
S'B-VP'
p880
g5
tp881
a(S'no'
p882
S'no'
p883
S'DT'
p884
S'B-NP'
p885
g5
tp886
a(S'interactions'
p887
S'interaction'
p888
S'NNS'
p889
S'I-NP'
p890
g5
tp891
a(S'by'
p892
S'by'
p893
S'IN'
p894
S'B-PP'
p895
g5
tp896
a(S'FLT3/internal'
p897
S'FLT3/internal'
p898
S'JJ'
p899
S'B-NP'
p900
g5
tp901
a(S'tandem'
p902
S'tandem'
p903
S'JJ'
p904
S'I-NP'
p905
g5
tp906
a(S'duplications'
p907
S'duplication'
p908
S'NNS'
p909
S'I-NP'
p910
g5
tp911
a(g179
g179
g179
g5
g5
tp912
a(S'NPM1'
p913
S'NPM1'
p914
S'NN'
p915
S'B-NP'
p916
S'B-protein'
p917
tp918
a(g179
g179
g179
g5
g5
tp919
a(S'or'
p920
S'or'
p921
S'CC'
p922
g5
g5
tp923
a(S'CEBPA'
p924
S'CEBPA'
p925
S'NN'
p926
S'B-NP'
p927
g5
tp928
a(S'mutation.'
p929
S'mutation.'
p930
S'NN'
p931
S'I-NP'
p932
g5
tp933
a(S'There'
p934
S'There'
p935
S'EX'
p936
S'B-NP'
p937
g5
tp938
a(S'was'
p939
S'be'
p940
S'VBD'
p941
S'B-VP'
p942
g5
tp943
a(S'a'
p944
g944
S'DT'
p945
S'B-NP'
p946
g5
tp947
a(S'suggestion'
p948
S'suggestion'
p949
S'NN'
p950
S'I-NP'
p951
g5
tp952
a(S'that'
p953
S'that'
p954
S'IN'
p955
S'B-SBAR'
p956
g5
tp957
a(S'ATRA'
p958
S'ATRA'
p959
S'NN'
p960
S'B-NP'
p961
g5
tp962
a(S'reduced'
p963
S'reduce'
p964
S'VBD'
p965
S'B-VP'
p966
g5
tp967
a(S'relapse'
p968
S'relapse'
p969
S'NN'
p970
S'B-NP'
p971
g5
tp972
a(S'in'
p973
S'in'
p974
S'IN'
p975
S'B-PP'
p976
g5
tp977
a(S'patients'
p978
S'patient'
p979
S'NNS'
p980
S'B-NP'
p981
g5
tp982
a(S'with'
p983
S'with'
p984
S'IN'
p985
S'B-PP'
p986
g5
tp987
a(S'lower'
p988
S'low'
p989
S'JJR'
p990
S'B-NP'
p991
g5
tp992
a(S'MN1'
p993
S'MN1'
p994
S'NN'
p995
S'I-NP'
p996
S'B-protein'
p997
tp998
a(S'levels'
p999
S'level'
p1000
S'NNS'
p1001
S'I-NP'
p1002
g5
tp1003
a(g179
g179
g179
g5
g5
tp1004
a(S'but'
p1005
S'but'
p1006
S'CC'
p1007
g5
g5
tp1008
a(S'no'
p1009
S'no'
p1010
S'DT'
p1011
S'B-NP'
p1012
g5
tp1013
a(S'significant'
p1014
S'significant'
p1015
S'JJ'
p1016
S'I-NP'
p1017
g5
tp1018
a(S'effect'
p1019
S'effect'
p1020
S'NN'
p1021
S'I-NP'
p1022
g5
tp1023
a(S'on'
p1024
S'on'
p1025
S'IN'
p1026
S'B-PP'
p1027
g5
tp1028
a(S'overall'
p1029
S'overall'
p1030
S'JJ'
p1031
S'B-NP'
p1032
g5
tp1033
a(S'survival.'
p1034
S'survival.'
p1035
S'NN'
p1036
S'I-NP'
p1037
g5
tp1038
a(S'Results'
p1039
S'Result'
p1040
S'NNS'
p1041
S'I-NP'
p1042
g5
tp1043
a(S'were'
p1044
S'be'
p1045
S'VBD'
p1046
S'B-VP'
p1047
g5
tp1048
a(S'consistent'
p1049
S'consistent'
p1050
S'JJ'
p1051
S'B-ADJP'
p1052
g5
tp1053
a(S'when'
p1054
S'when'
p1055
S'WRB'
p1056
S'B-ADVP'
p1057
g5
tp1058
a(S'restricted'
p1059
S'restricted'
p1060
S'JJ'
p1061
S'B-ADJP'
p1062
g5
tp1063
a(S'to'
p1064
S'to'
p1065
S'TO'
p1066
S'B-PP'
p1067
g5
tp1068
a(S'patients'
p1069
S'patient'
p1070
S'NNS'
p1071
S'B-NP'
p1072
g5
tp1073
a(S'with'
p1074
S'with'
p1075
S'IN'
p1076
S'B-PP'
p1077
g5
tp1078
a(S'normal'
p1079
S'normal'
p1080
S'JJ'
p1081
S'B-NP'
p1082
g5
tp1083
a(S'karyotype.'
p1084
S'karyotype.'
p1085
S'FW'
p1086
S'I-NP'
p1087
g5
tp1088
a(S'ATRA'
p1089
S'ATRA'
p1090
S'NN'
p1091
S'I-NP'
p1092
g5
tp1093
a(S'has'
p1094
S'have'
p1095
S'VBZ'
p1096
S'B-VP'
p1097
g5
tp1098
a(S'no'
p1099
S'no'
p1100
S'DT'
p1101
S'B-NP'
p1102
g5
tp1103
a(S'overall'
p1104
S'overall'
p1105
S'JJ'
p1106
S'I-NP'
p1107
g5
tp1108
a(S'effect'
p1109
S'effect'
p1110
S'NN'
p1111
S'I-NP'
p1112
g5
tp1113
a(S'on'
p1114
S'on'
p1115
S'IN'
p1116
S'B-PP'
p1117
g5
tp1118
a(S'treatment'
p1119
S'treatment'
p1120
S'NN'
p1121
S'B-NP'
p1122
g5
tp1123
a(S'outcomes'
p1124
S'outcome'
p1125
S'NNS'
p1126
S'I-NP'
p1127
g5
tp1128
a(S'in'
p1129
S'in'
p1130
S'IN'
p1131
S'B-PP'
p1132
g5
tp1133
a(S'this'
p1134
S'this'
p1135
S'DT'
p1136
S'B-NP'
p1137
g5
tp1138
a(S'group'
p1139
S'group'
p1140
S'NN'
p1141
S'I-NP'
p1142
g5
tp1143
a(S'of'
p1144
S'of'
p1145
S'IN'
p1146
S'B-PP'
p1147
g5
tp1148
a(S'patients.'
p1149
S'patients.'
p1150
S'NNS'
p1151
S'B-NP'
p1152
g5
tp1153
a(S'The'
p1154
S'The'
p1155
S'DT'
p1156
S'B-NP'
p1157
g5
tp1158
a(S'study'
p1159
S'study'
p1160
S'NN'
p1161
S'I-NP'
p1162
g5
tp1163
a(S'did'
p1164
S'do'
p1165
S'VBD'
p1166
S'B-VP'
p1167
g5
tp1168
a(S'not'
p1169
S'not'
p1170
S'RB'
p1171
S'I-VP'
p1172
g5
tp1173
a(S'identify'
p1174
S'identify'
p1175
S'VB'
p1176
S'I-VP'
p1177
g5
tp1178
a(S'any'
p1179
S'any'
p1180
S'DT'
p1181
S'B-NP'
p1182
g5
tp1183
a(S'subgroup'
p1184
S'subgroup'
p1185
S'NN'
p1186
S'I-NP'
p1187
g5
tp1188
a(S'of'
p1189
S'of'
p1190
S'IN'
p1191
S'B-PP'
p1192
g5
tp1193
a(S'patients'
p1194
S'patient'
p1195
S'NNS'
p1196
S'B-NP'
p1197
g5
tp1198
a(S'likely'
p1199
S'likely'
p1200
S'JJ'
p1201
S'B-ADJP'
p1202
g5
tp1203
a(S'to'
p1204
S'to'
p1205
S'TO'
p1206
S'B-VP'
p1207
g5
tp1208
a(S'derive'
p1209
S'derive'
p1210
S'VB'
p1211
S'I-VP'
p1212
g5
tp1213
a(g944
g944
S'DT'
p1214
S'B-NP'
p1215
g5
tp1216
a(S'significant'
p1217
S'significant'
p1218
S'JJ'
p1219
S'I-NP'
p1220
g5
tp1221
a(S'survival'
p1222
S'survival'
p1223
S'NN'
p1224
S'I-NP'
p1225
g5
tp1226
a(S'benefit'
p1227
S'benefit'
p1228
S'NN'
p1229
S'I-NP'
p1230
g5
tp1231
a(S'from'
p1232
S'from'
p1233
S'IN'
p1234
S'B-PP'
p1235
g5
tp1236
a(S'the'
p1237
S'the'
p1238
S'DT'
p1239
S'B-NP'
p1240
g5
tp1241
a(S'addition'
p1242
S'addition'
p1243
S'NN'
p1244
S'I-NP'
p1245
g5
tp1246
a(S'of'
p1247
S'of'
p1248
S'IN'
p1249
S'B-PP'
p1250
g5
tp1251
a(S'ATRA'
p1252
S'ATRA'
p1253
S'NN'
p1254
S'B-NP'
p1255
g5
tp1256
a(S'to'
p1257
S'to'
p1258
S'TO'
p1259
S'B-PP'
p1260
g5
tp1261
a(S'chemotherapy'
p1262
S'chemotherapy'
p1263
S'NN'
p1264
S'B-NP'
p1265
g5
tp1266
a(g198
g198
g198
g5
g5
tp1267
a.