(lp0
(S'Effect'
p1
S'Effect'
p2
S'NN'
p3
S'B-NP'
p4
S'O'
p5
tp6
a(S'of'
p7
S'of'
p8
S'IN'
p9
S'B-PP'
p10
g5
tp11
a(S'radiotherapy'
p12
S'radiotherapy'
p13
S'NN'
p14
S'B-NP'
p15
g5
tp16
a(S'on'
p17
S'on'
p18
S'IN'
p19
S'B-PP'
p20
g5
tp21
a(S'blood'
p22
S'blood'
p23
S'NN'
p24
S'B-NP'
p25
S'B-cell_type'
p26
tp27
a(S'lymphocyte'
p28
S'lymphocyte'
p29
S'NN'
p30
S'I-NP'
p31
S'I-cell_type'
p32
tp33
a(S'population'
p34
S'population'
p35
S'NN'
p36
S'I-NP'
p37
S'I-cell_type'
p38
tp39
a(S'in'
p40
S'in'
p41
S'IN'
p42
S'B-PP'
p43
g5
tp44
a(S'mammary'
p45
S'mammary'
p46
S'JJ'
p47
S'B-NP'
p48
g5
tp49
a(S'carcinoma'
p50
S'carcinoma'
p51
S'NN'
p52
S'I-NP'
p53
g5
tp54
a(S'.'
p55
g55
g55
g5
g5
tp56
a.