(lp0
(S'Methods'
p1
S'Method'
p2
S'NNS'
p3
S'B-NP'
p4
S'O'
p5
tp6
a(S'for'
p7
S'for'
p8
S'IN'
p9
S'B-PP'
p10
g5
tp11
a(S'assessing'
p12
S'assess'
p13
S'VBG'
p14
S'B-VP'
p15
g5
tp16
a(S'treatment'
p17
S'treatment'
p18
S'NN'
p19
S'B-NP'
p20
g5
tp21
a(S'efficacy'
p22
S'efficacy'
p23
S'NN'
p24
S'I-NP'
p25
g5
tp26
a(S'in'
p27
S'in'
p28
S'IN'
p29
S'B-PP'
p30
g5
tp31
a(S'trials'
p32
S'trial'
p33
S'NNS'
p34
S'B-NP'
p35
g5
tp36
a(S'for'
p37
S'for'
p38
S'IN'
p39
S'B-PP'
p40
g5
tp41
a(S'adjuvant'
p42
S'adjuvant'
p43
S'JJ'
p44
S'B-NP'
p45
g5
tp46
a(S'therapy'
p47
S'therapy'
p48
S'NN'
p49
S'I-NP'
p50
g5
tp51
a(S'for'
p52
S'for'
p53
S'IN'
p54
S'B-PP'
p55
g5
tp56
a(S'breast'
p57
S'breast'
p58
S'NN'
p59
S'B-NP'
p60
g5
tp61
a(S'cancer'
p62
S'cancer'
p63
S'NN'
p64
S'I-NP'
p65
g5
tp66
a(S'.'
p67
g67
g67
g5
g5
tp68
a.