(lp0
(S'Clinical'
p1
S'Clinical'
p2
S'JJ'
p3
S'B-NP'
p4
S'O'
p5
tp6
a(S'evaluation'
p7
S'evaluation'
p8
S'NN'
p9
S'I-NP'
p10
g5
tp11
a(S'of'
p12
S'of'
p13
S'IN'
p14
S'B-PP'
p15
g5
tp16
a(S'the'
p17
S'the'
p18
S'DT'
p19
S'B-NP'
p20
g5
tp21
a(S'intraoral'
p22
S'intraoral'
p23
S'JJ'
p24
S'I-NP'
p25
g5
tp26
a(S'fluoride'
p27
S'fluoride'
p28
S'NN'
p29
S'I-NP'
p30
g5
tp31
a(S'releasing'
p32
S'release'
p33
S'VBG'
p34
S'I-NP'
p35
g5
tp36
a(S'system'
p37
S'system'
p38
S'NN'
p39
S'I-NP'
p40
g5
tp41
a(S'in'
p42
S'in'
p43
S'IN'
p44
S'B-PP'
p45
g5
tp46
a(S'radiation-induced'
p47
S'radiation-induced'
p48
S'JJ'
p49
S'B-NP'
p50
g5
tp51
a(S'xerostomic'
p52
S'xerostomic'
p53
S'JJ'
p54
S'I-NP'
p55
g5
tp56
a(S'subjects.'
p57
S'subjects.'
p58
S'NN'
p59
S'I-NP'
p60
g5
tp61
a(S'Part'
p62
S'Part'
p63
S'NN'
p64
S'I-NP'
p65
g5
tp66
a(S'2'
p67
g67
S'CD'
p68
S'I-NP'
p69
g5
tp70
a(S':'
p71
g71
g71
g5
g5
tp72
a(S'Phase'
p73
S'Phase'
p74
S'NN'
p75
S'B-NP'
p76
g5
tp77
a(S'I'
p78
g78
S'CD'
p79
S'I-NP'
p80
g5
tp81
a(S'study'
p82
S'study'
p83
S'NN'
p84
S'I-NP'
p85
g5
tp86
a(S'.'
p87
g87
g87
g5
g5
tp88
a(S'Radiation-induced'
p89
S'Radiation-induced'
p90
S'JJ'
p91
S'B-NP'
p92
g5
tp93
a(S'xerostomia'
p94
S'xerostomia'
p95
S'NN'
p96
S'I-NP'
p97
g5
tp98
a(S'can'
p99
S'can'
p100
S'MD'
p101
S'B-VP'
p102
g5
tp103
a(S'result'
p104
S'result'
p105
S'VB'
p106
S'I-VP'
p107
g5
tp108
a(S'in'
p109
S'in'
p110
S'IN'
p111
S'B-PP'
p112
g5
tp113
a(S'the'
p114
S'the'
p115
S'DT'
p116
S'B-NP'
p117
g5
tp118
a(S'rapid'
p119
S'rapid'
p120
S'JJ'
p121
S'I-NP'
p122
g5
tp123
a(S'onset'
p124
S'onset'
p125
S'NN'
p126
S'I-NP'
p127
g5
tp128
a(S'and'
p129
S'and'
p130
S'CC'
p131
S'I-NP'
p132
g5
tp133
a(S'progression'
p134
S'progression'
p135
S'NN'
p136
S'I-NP'
p137
g5
tp138
a(S'of'
p139
S'of'
p140
S'IN'
p141
S'B-PP'
p142
g5
tp143
a(S'dental'
p144
S'dental'
p145
S'JJ'
p146
S'B-NP'
p147
g5
tp148
a(S'caries'
p149
S'cary'
p150
S'NNS'
p151
S'I-NP'
p152
g5
tp153
a(S'in'
p154
S'in'
p155
S'IN'
p156
S'B-PP'
p157
g5
tp158
a(S'head'
p159
S'head'
p160
S'NN'
p161
S'B-NP'
p162
g5
tp163
a(S'and'
p164
S'and'
p165
S'CC'
p166
g5
g5
tp167
a(S'neck'
p168
S'neck'
p169
S'NN'
p170
S'B-NP'
p171
g5
tp172
a(S'cancer'
p173
S'cancer'
p174
S'NN'
p175
S'I-NP'
p176
g5
tp177
a(S'patients.'
p178
S'patients.'
p179
S'NN'
p180
S'I-NP'
p181
g5
tp182
a(S'Topically'
p183
S'Topically'
p184
S'RB'
p185
S'B-NP'
p186
g5
tp187
a(S'applied'
p188
S'apply'
p189
S'VBN'
p190
S'I-NP'
p191
g5
tp192
a(S'fluorides'
p193
S'fluoride'
p194
S'NNS'
p195
S'I-NP'
p196
g5
tp197
a(S'have'
p198
S'have'
p199
S'VBP'
p200
S'B-VP'
p201
g5
tp202
a(S'been'
p203
S'be'
p204
S'VBN'
p205
S'I-VP'
p206
g5
tp207
a(S'successfully'
p208
S'successfully'
p209
S'RB'
p210
S'I-VP'
p211
g5
tp212
a(S'used'
p213
S'use'
p214
S'VBN'
p215
S'I-VP'
p216
g5
tp217
a(S'to'
p218
S'to'
p219
S'TO'
p220
S'B-VP'
p221
g5
tp222
a(S'inhibit'
p223
S'inhibit'
p224
S'VB'
p225
S'I-VP'
p226
g5
tp227
a(S'the'
p228
S'the'
p229
S'DT'
p230
S'B-NP'
p231
g5
tp232
a(S'formation'
p233
S'formation'
p234
S'NN'
p235
S'I-NP'
p236
g5
tp237
a(S'of'
p238
S'of'
p239
S'IN'
p240
S'B-PP'
p241
g5
tp242
a(S'dental'
p243
S'dental'
p244
S'JJ'
p245
S'B-NP'
p246
g5
tp247
a(S'caries'
p248
S'cary'
p249
S'NNS'
p250
S'I-NP'
p251
g5
tp252
a(S'in'
p253
S'in'
p254
S'IN'
p255
S'B-PP'
p256
g5
tp257
a(S'this'
p258
S'this'
p259
S'DT'
p260
S'B-NP'
p261
g5
tp262
a(S'population.'
p263
S'population.'
p264
S'NN'
p265
S'I-NP'
p266
g5
tp267
a(S'However'
p268
S'However'
p269
S'RB'
p270
S'B-ADVP'
p271
g5
tp272
a(S','
p273
g273
g273
g5
g5
tp274
a(S'because'
p275
S'because'
p276
S'IN'
p277
S'B-SBAR'
p278
g5
tp279
a(S'intensive'
p280
S'intensive'
p281
S'JJ'
p282
S'B-NP'
p283
g5
tp284
a(S'daily'
p285
S'daily'
p286
S'JJ'
p287
S'I-NP'
p288
g5
tp289
a(S'self-application'
p290
S'self-application'
p291
S'NN'
p292
S'I-NP'
p293
g5
tp294
a(S'is'
p295
S'be'
p296
S'VBZ'
p297
S'B-VP'
p298
g5
tp299
a(S'required'
p300
S'require'
p301
S'VBN'
p302
S'I-VP'
p303
g5
tp304
a(g273
g273
g273
g5
g5
tp305
a(S'compliance'
p306
S'compliance'
p307
S'NN'
p308
S'B-NP'
p309
g5
tp310
a(S'is'
p311
S'be'
p312
S'VBZ'
p313
S'B-VP'
p314
g5
tp315
a(S'an'
p316
S'an'
p317
S'DT'
p318
S'B-NP'
p319
g5
tp320
a(S'issue.'
p321
S'issue.'
p322
S'NN'
p323
S'I-NP'
p324
g5
tp325
a(S'The'
p326
S'The'
p327
S'DT'
p328
S'B-NP'
p329
g5
tp330
a(S'intraoral'
p331
S'intraoral'
p332
S'JJ'
p333
S'I-NP'
p334
g5
tp335
a(S'fluoride-releasing'
p336
S'fluoride-releasing'
p337
S'JJ'
p338
S'I-NP'
p339
g5
tp340
a(S'system'
p341
S'system'
p342
S'NN'
p343
S'I-NP'
p344
g5
tp345
a(S'('
p346
g346
g346
g5
g5
tp347
a(S'IFRS'
p348
S'IFRS'
p349
S'NN'
p350
S'B-NP'
p351
S'B-protein'
p352
tp353
a(S')'
p354
g354
g354
g5
g5
tp355
a(S'containing'
p356
S'contain'
p357
S'VBG'
p358
S'B-VP'
p359
g5
tp360
a(S'a'
p361
g361
S'DT'
p362
S'B-NP'
p363
g5
tp364
a(S'sodium'
p365
S'sodium'
p366
S'NN'
p367
S'I-NP'
p368
g5
tp369
a(S'fluoride'
p370
S'fluoride'
p371
S'NN'
p372
S'I-NP'
p373
g5
tp374
a(S'core'
p375
S'core'
p376
S'NN'
p377
S'I-NP'
p378
g5
tp379
a(S'is'
p380
S'be'
p381
S'VBZ'
p382
S'B-VP'
p383
g5
tp384
a(g361
g361
S'DT'
p385
S'B-NP'
p386
g5
tp387
a(S'newly'
p388
S'newly'
p389
S'RB'
p390
S'I-NP'
p391
g5
tp392
a(S'developed'
p393
S'develop'
p394
S'VBN'
p395
S'I-NP'
p396
g5
tp397
a(g273
g273
g273
S'I-NP'
p398
g5
tp399
a(S'sustained-release'
p400
S'sustained-release'
p401
S'NN'
p402
S'I-NP'
p403
g5
tp404
a(g273
g273
g273
S'I-NP'
p405
g5
tp406
a(S'passive'
p407
S'passive'
p408
S'JJ'
p409
S'I-NP'
p410
g5
tp411
a(S'drug'
p412
S'drug'
p413
S'NN'
p414
S'I-NP'
p415
g5
tp416
a(S'delivery'
p417
S'delivery'
p418
S'NN'
p419
S'I-NP'
p420
g5
tp421
a(S'system'
p422
S'system'
p423
S'NN'
p424
S'I-NP'
p425
g5
tp426
a(S'that'
p427
S'that'
p428
S'WDT'
p429
S'B-NP'
p430
g5
tp431
a(S'does'
p432
S'do'
p433
S'VBZ'
p434
S'B-VP'
p435
g5
tp436
a(S'not'
p437
S'not'
p438
S'RB'
p439
S'I-VP'
p440
g5
tp441
a(S'require'
p442
S'require'
p443
S'VB'
p444
S'I-VP'
p445
g5
tp446
a(S'patient'
p447
S'patient'
p448
S'NN'
p449
S'B-NP'
p450
g5
tp451
a(S'involvement'
p452
S'involvement'
p453
S'NN'
p454
S'I-NP'
p455
g5
tp456
a(S'except'
p457
S'except'
p458
S'IN'
p459
S'B-PP'
p460
g5
tp461
a(S'for'
p462
S'for'
p463
S'IN'
p464
S'B-PP'
p465
g5
tp466
a(S'periodic'
p467
S'periodic'
p468
S'JJ'
p469
S'B-NP'
p470
g5
tp471
a(S'replacement'
p472
S'replacement'
p473
S'NN'
p474
S'I-NP'
p475
g5
tp476
a(g273
g273
g273
g5
g5
tp477
a(S'thus'
p478
S'thus'
p479
S'RB'
p480
S'B-ADVP'
p481
g5
tp482
a(S'reducing'
p483
S'reduce'
p484
S'VBG'
p485
S'B-VP'
p486
g5
tp487
a(S'the'
p488
S'the'
p489
S'DT'
p490
S'B-NP'
p491
g5
tp492
a(S'effect'
p493
S'effect'
p494
S'NN'
p495
S'I-NP'
p496
g5
tp497
a(S'of'
p498
S'of'
p499
S'IN'
p500
S'B-PP'
p501
g5
tp502
a(S'patient'
p503
S'patient'
p504
S'NN'
p505
S'B-NP'
p506
g5
tp507
a(S'compliance'
p508
S'compliance'
p509
S'NN'
p510
S'I-NP'
p511
g5
tp512
a(S'on'
p513
S'on'
p514
S'IN'
p515
S'B-PP'
p516
g5
tp517
a(S'its'
p518
S'its'
p519
S'PRP$'
p520
S'B-NP'
p521
g5
tp522
a(S'effectiveness'
p523
S'effectiveness'
p524
S'NN'
p525
S'I-NP'
p526
g5
tp527
a(S'in'
p528
S'in'
p529
S'IN'
p530
S'B-PP'
p531
g5
tp532
a(S'dental'
p533
S'dental'
p534
S'JJ'
p535
S'B-NP'
p536
g5
tp537
a(S'caries'
p538
S'cary'
p539
S'NNS'
p540
S'I-NP'
p541
g5
tp542
a(S'prevention.'
p543
S'prevention.'
p544
S'VBP'
p545
S'B-VP'
p546
g5
tp547
a(S'Twenty-two'
p548
S'Twenty-two'
p549
S'CD'
p550
S'B-NP'
p551
g5
tp552
a(S'head'
p553
S'head'
p554
S'NN'
p555
S'I-NP'
p556
g5
tp557
a(S'and'
p558
S'and'
p559
S'CC'
p560
g5
g5
tp561
a(S'neck'
p562
S'neck'
p563
S'NN'
p564
S'B-NP'
p565
g5
tp566
a(S'cancer'
p567
S'cancer'
p568
S'NN'
p569
S'I-NP'
p570
g5
tp571
a(S'patients'
p572
S'patient'
p573
S'NNS'
p574
S'I-NP'
p575
g5
tp576
a(S'from'
p577
S'from'
p578
S'IN'
p579
S'B-PP'
p580
g5
tp581
a(S'U.'
p582
S'U.'
p583
S'NNP'
p584
S'B-NP'
p585
g5
tp586
a(S'T.'
p587
S'T.'
p588
S'NNP'
p589
S'I-NP'
p590
g5
tp591
a(S'M.'
p592
S'M.'
p593
S'NNP'
p594
S'I-NP'
p595
g5
tp596
a(S'D.'
p597
S'D.'
p598
S'NNP'
p599
S'I-NP'
p600
g5
tp601
a(S'Anderson'
p602
S'Anderson'
p603
S'NNP'
p604
S'I-NP'
p605
g5
tp606
a(S'Cancer'
p607
S'Cancer'
p608
S'NNP'
p609
S'I-NP'
p610
g5
tp611
a(S'Center'
p612
S'Center'
p613
S'NNP'
p614
S'I-NP'
p615
g5
tp616
a(g273
g273
g273
g5
g5
tp617
a(S'with'
p618
S'with'
p619
S'IN'
p620
S'B-PP'
p621
g5
tp622
a(S'radiation-induced'
p623
S'radiation-induced'
p624
S'JJ'
p625
S'B-NP'
p626
g5
tp627
a(S'xerostomia'
p628
S'xerostomia'
p629
S'NN'
p630
S'I-NP'
p631
g5
tp632
a(g273
g273
g273
g5
g5
tp633
a(S'were'
p634
S'be'
p635
S'VBD'
p636
S'B-VP'
p637
g5
tp638
a(S'entered'
p639
S'enter'
p640
S'VBN'
p641
S'I-VP'
p642
g5
tp643
a(S'into'
p644
S'into'
p645
S'IN'
p646
S'B-PP'
p647
g5
tp648
a(g361
g361
S'DT'
p649
S'B-NP'
p650
g5
tp651
a(S'pilot'
p652
S'pilot'
p653
S'NN'
p654
S'I-NP'
p655
g5
tp656
a(S'study'
p657
S'study'
p658
S'NN'
p659
S'I-NP'
p660
g5
tp661
a(S'to'
p662
S'to'
p663
S'TO'
p664
S'B-VP'
p665
g5
tp666
a(S'contrast'
p667
S'contrast'
p668
S'VB'
p669
S'I-VP'
p670
g5
tp671
a(S'the'
p672
S'the'
p673
S'DT'
p674
S'B-NP'
p675
g5
tp676
a(S'daily'
p677
S'daily'
p678
S'JJ'
p679
S'I-NP'
p680
g5
tp681
a(S'home'
p682
S'home'
p683
S'NN'
p684
S'I-NP'
p685
g5
tp686
a(S'use'
p687
S'use'
p688
S'NN'
p689
S'I-NP'
p690
g5
tp691
a(S'of'
p692
S'of'
p693
S'IN'
p694
S'B-PP'
p695
g5
tp696
a(g361
g361
S'DT'
p697
S'B-NP'
p698
g5
tp699
a(S'0.4'
p700
S'0.4'
p701
S'CD'
p702
S'I-NP'
p703
g5
tp704
a(S'%'
p705
g705
S'NN'
p706
S'I-NP'
p707
g5
tp708
a(S'stannous'
p709
S'stannous'
p710
S'JJ'
p711
S'I-NP'
p712
g5
tp713
a(S'fluoride-gel-containing'
p714
S'fluoride-gel-containing'
p715
S'JJ'
p716
S'I-NP'
p717
g5
tp718
a(S'tray'
p719
S'tray'
p720
S'NN'
p721
S'I-NP'
p722
g5
tp723
a(g346
g346
g346
g5
g5
tp724
a(S'control'
p725
S'control'
p726
S'NN'
p727
S'B-NP'
p728
g5
tp729
a(S'group'
p730
S'group'
p731
S'NN'
p732
S'I-NP'
p733
g5
tp734
a(g354
g354
g354
g5
g5
tp735
a(S'to'
p736
S'to'
p737
S'TO'
p738
S'B-PP'
p739
g5
tp740
a(S'IFRS'
p741
S'IFRS'
p742
S'NN'
p743
S'B-NP'
p744
S'B-protein'
p745
tp746
a(g346
g346
g346
g5
g5
tp747
a(S'study'
p748
S'study'
p749
S'NN'
p750
S'B-NP'
p751
g5
tp752
a(S'group'
p753
S'group'
p754
S'NN'
p755
S'I-NP'
p756
g5
tp757
a(g354
g354
g354
g5
g5
tp758
a(S'with'
p759
S'with'
p760
S'IN'
p761
S'B-PP'
p762
g5
tp763
a(S'respect'
p764
S'respect'
p765
S'NN'
p766
S'B-NP'
p767
g5
tp768
a(S'to'
p769
S'to'
p770
S'TO'
p771
S'B-PP'
p772
g5
tp773
a(S'tolerability'
p774
S'tolerability'
p775
S'NN'
p776
S'B-NP'
p777
g5
tp778
a(S'and'
p779
S'and'
p780
S'CC'
p781
S'I-NP'
p782
g5
tp783
a(S'adherence'
p784
S'adherence'
p785
S'NN'
p786
S'I-NP'
p787
g5
tp788
a(g273
g273
g273
g5
g5
tp789
a(S'and'
p790
S'and'
p791
S'CC'
p792
g5
g5
tp793
a(S'to'
p794
S'to'
p795
S'TO'
p796
S'B-VP'
p797
g5
tp798
a(S'obtain'
p799
S'obtain'
p800
S'VB'
p801
S'I-VP'
p802
g5
tp803
a(S'information'
p804
S'information'
p805
S'NN'
p806
S'B-NP'
p807
g5
tp808
a(S'on'
p809
S'on'
p810
S'IN'
p811
S'B-PP'
p812
g5
tp813
a(S'relative'
p814
S'relative'
p815
S'JJ'
p816
S'B-NP'
p817
g5
tp818
a(S'caries'
p819
S'cary'
p820
S'NNS'
p821
S'I-NP'
p822
g5
tp823
a(S'preventive'
p824
S'preventive'
p825
S'JJ'
p826
S'B-NP'
p827
g5
tp828
a(S'efficacy.'
p829
S'efficacy.'
p830
S'NN'
p831
S'I-NP'
p832
g5
tp833
a(S'Participants'
p834
S'Participant'
p835
S'NNS'
p836
S'I-NP'
p837
g5
tp838
a(S'were'
p839
S'be'
p840
S'VBD'
p841
S'B-VP'
p842
g5
tp843
a(S'stratified'
p844
S'stratify'
p845
S'VBN'
p846
S'I-VP'
p847
g5
tp848
a(S'on'
p849
S'on'
p850
S'IN'
p851
S'B-PP'
p852
g5
tp853
a(S'the'
p854
S'the'
p855
S'DT'
p856
S'B-NP'
p857
g5
tp858
a(S'basis'
p859
S'basis'
p860
S'NN'
p861
S'I-NP'
p862
g5
tp863
a(S'of'
p864
S'of'
p865
S'IN'
p866
S'B-PP'
p867
g5
tp868
a(S'radiation'
p869
S'radiation'
p870
S'NN'
p871
S'B-NP'
p872
g5
tp873
a(S'exposure'
p874
S'exposure'
p875
S'NN'
p876
S'I-NP'
p877
g5
tp878
a(S'and'
p879
S'and'
p880
S'CC'
p881
g5
g5
tp882
a(S'randomly'
p883
S'randomly'
p884
S'RB'
p885
S'B-VP'
p886
g5
tp887
a(S'assigned'
p888
S'assign'
p889
S'VBN'
p890
S'I-VP'
p891
g5
tp892
a(S'to'
p893
S'to'
p894
S'TO'
p895
S'B-PP'
p896
g5
tp897
a(S'treatment'
p898
S'treatment'
p899
S'NN'
p900
S'B-NP'
p901
g5
tp902
a(S'with'
p903
S'with'
p904
S'IN'
p905
S'B-PP'
p906
g5
tp907
a(S'either'
p908
S'either'
p909
S'CC'
p910
g5
g5
tp911
a(S'IFRS'
p912
S'IFRS'
p913
S'NN'
p914
S'B-NP'
p915
S'B-protein'
p916
tp917
a(S'or'
p918
S'or'
p919
S'CC'
p920
g5
g5
tp921
a(S'stannous'
p922
S'stannous'
p923
S'JJ'
p924
S'B-NP'
p925
g5
tp926
a(S'fluoride'
p927
S'fluoride'
p928
S'NN'
p929
S'I-NP'
p930
g5
tp931
a(S'gel.'
p932
S'gel.'
p933
S'NN'
p934
S'I-NP'
p935
g5
tp936
a(S'Patients'
p937
S'Patient'
p938
S'NNS'
p939
S'I-NP'
p940
g5
tp941
a(S'in'
p942
S'in'
p943
S'IN'
p944
S'B-PP'
p945
g5
tp946
a(S'both'
p947
S'both'
p948
S'DT'
p949
S'B-NP'
p950
g5
tp951
a(S'groups'
p952
S'group'
p953
S'NNS'
p954
S'I-NP'
p955
g5
tp956
a(S'were'
p957
S'be'
p958
S'VBD'
p959
S'B-VP'
p960
g5
tp961
a(S'fitted'
p962
S'fit'
p963
S'VBN'
p964
S'I-VP'
p965
g5
tp966
a(S'with'
p967
S'with'
p968
S'IN'
p969
S'B-PP'
p970
g5
tp971
a(S'two'
p972
S'two'
p973
S'CD'
p974
S'B-NP'
p975
g5
tp976
a(S'IFRS'
p977
S'IFRS'
p978
S'NN'
p979
S'I-NP'
p980
g5
tp981
a(S'retainers'
p982
S'retainer'
p983
S'NNS'
p984
S'I-NP'
p985
g5
tp986
a(S'and'
p987
S'and'
p988
S'CC'
p989
g5
g5
tp990
a(S'also'
p991
S'also'
p992
S'RB'
p993
S'B-ADVP'
p994
g5
tp995
a(S'were'
p996
S'be'
p997
S'VBD'
p998
S'B-VP'
p999
g5
tp1000
a(S'instructed'
p1001
S'instruct'
p1002
S'VBN'
p1003
S'I-VP'
p1004
g5
tp1005
a(S'to'
p1006
S'to'
p1007
S'TO'
p1008
S'I-VP'
p1009
g5
tp1010
a(S'use'
p1011
S'use'
p1012
S'VB'
p1013
S'I-VP'
p1014
g5
tp1015
a(g361
g361
S'DT'
p1016
S'B-NP'
p1017
g5
tp1018
a(S'1100-ppm'
p1019
S'1100-ppm'
p1020
S'JJ'
p1021
S'I-NP'
p1022
g5
tp1023
a(S'fluoride'
p1024
S'fluoride'
p1025
S'NN'
p1026
S'I-NP'
p1027
g5
tp1028
a(S'conventional'
p1029
S'conventional'
p1030
S'JJ'
p1031
S'I-NP'
p1032
g5
tp1033
a(S'sodium'
p1034
S'sodium'
p1035
S'NN'
p1036
S'I-NP'
p1037
g5
tp1038
a(S'fluoride'
p1039
S'fluoride'
p1040
S'NN'
p1041
S'I-NP'
p1042
g5
tp1043
a(S'dentifrice'
p1044
S'dentifrice'
p1045
S'NN'
p1046
S'I-NP'
p1047
g5
tp1048
a(S'twice'
p1049
S'twice'
p1050
S'RB'
p1051
S'B-ADVP'
p1052
g5
tp1053
a(S'daily.'
p1054
S'daily.'
p1055
S'RB'
p1056
S'I-ADVP'
p1057
g5
tp1058
a(S'The'
p1059
S'The'
p1060
S'DT'
p1061
S'B-NP'
p1062
g5
tp1063
a(S'study'
p1064
S'study'
p1065
S'NN'
p1066
S'I-NP'
p1067
g5
tp1068
a(S'was'
p1069
S'be'
p1070
S'VBD'
p1071
S'B-VP'
p1072
g5
tp1073
a(S'conducted'
p1074
S'conduct'
p1075
S'VBN'
p1076
S'I-VP'
p1077
g5
tp1078
a(S'as'
p1079
S'as'
p1080
S'IN'
p1081
S'B-PP'
p1082
g5
tp1083
a(g361
g361
S'DT'
p1084
S'B-NP'
p1085
g5
tp1086
a(S'single-blinded'
p1087
S'single-blinded'
p1088
S'JJ'
p1089
S'I-NP'
p1090
g5
tp1091
a(g273
g273
g273
S'I-NP'
p1092
g5
tp1093
a(S'parallel-cell'
p1094
S'parallel-cell'
p1095
S'JJ'
p1096
S'I-NP'
p1097
g5
tp1098
a(S'trial.'
p1099
S'trial.'
p1100
S'NN'
p1101
S'I-NP'
p1102
g5
tp1103
a(S'Pre-existing'
p1104
S'Pre-existing'
p1105
S'JJ'
p1106
S'I-NP'
p1107
g5
tp1108
a(S'carious'
p1109
S'carious'
p1110
S'JJ'
p1111
S'I-NP'
p1112
g5
tp1113
a(S'lesions'
p1114
S'lesion'
p1115
S'NNS'
p1116
S'I-NP'
p1117
g5
tp1118
a(S'were'
p1119
S'be'
p1120
S'VBD'
p1121
S'B-VP'
p1122
g5
tp1123
a(S'restored'
p1124
S'restore'
p1125
S'VBN'
p1126
S'I-VP'
p1127
g5
tp1128
a(S'prior'
p1129
S'prior'
p1130
S'RB'
p1131
S'B-ADVP'
p1132
g5
tp1133
a(S'to'
p1134
S'to'
p1135
S'TO'
p1136
S'B-PP'
p1137
g5
tp1138
a(S'the'
p1139
S'the'
p1140
S'DT'
p1141
S'B-NP'
p1142
g5
tp1143
a(S'beginning'
p1144
S'beginning'
p1145
S'NN'
p1146
S'I-NP'
p1147
g5
tp1148
a(S'of'
p1149
S'of'
p1150
S'IN'
p1151
S'B-PP'
p1152
g5
tp1153
a(S'the'
p1154
S'the'
p1155
S'DT'
p1156
S'B-NP'
p1157
g5
tp1158
a(S'study.'
p1159
S'study.'
p1160
S'NN'
p1161
S'I-NP'
p1162
g5
tp1163
a(S'The'
p1164
S'The'
p1165
S'DT'
p1166
S'B-NP'
p1167
g5
tp1168
a(S'efficacy'
p1169
S'efficacy'
p1170
S'NN'
p1171
S'I-NP'
p1172
g5
tp1173
a(S'variable'
p1174
S'variable'
p1175
S'NN'
p1176
S'I-NP'
p1177
g5
tp1178
a(S'was'
p1179
S'be'
p1180
S'VBD'
p1181
S'B-VP'
p1182
g5
tp1183
a(S'determined'
p1184
S'determine'
p1185
S'VBN'
p1186
S'I-VP'
p1187
g5
tp1188
a(S'by'
p1189
S'by'
p1190
S'IN'
p1191
S'B-PP'
p1192
g5
tp1193
a(S'the'
p1194
S'the'
p1195
S'DT'
p1196
S'B-NP'
p1197
g5
tp1198
a(S'mean'
p1199
S'mean'
p1200
S'JJ'
p1201
S'I-NP'
p1202
g5
tp1203
a(S'number'
p1204
S'number'
p1205
S'NN'
p1206
S'I-NP'
p1207
g5
tp1208
a(S'of'
p1209
S'of'
p1210
S'IN'
p1211
S'B-PP'
p1212
g5
tp1213
a(S'new'
p1214
S'new'
p1215
S'JJ'
p1216
S'B-NP'
p1217
g5
tp1218
a(S'or'
p1219
S'or'
p1220
S'CC'
p1221
S'I-NP'
p1222
g5
tp1223
a(S'recurrent'
p1224
S'recurrent'
p1225
S'JJ'
p1226
S'I-NP'
p1227
g5
tp1228
a(S'decayed'
p1229
S'decay'
p1230
S'VBN'
p1231
S'I-NP'
p1232
g5
tp1233
a(S'surfaces.'
p1234
S'surfaces.'
p1235
S'NN'
p1236
S'I-NP'
p1237
g5
tp1238
a(S'Patients'
p1239
S'Patient'
p1240
S'NNS'
p1241
S'I-NP'
p1242
g5
tp1243
a(S'were'
p1244
S'be'
p1245
S'VBD'
p1246
S'B-VP'
p1247
g5
tp1248
a(S'examined'
p1249
S'examine'
p1250
S'VBN'
p1251
S'I-VP'
p1252
g5
tp1253
a(S'for'
p1254
S'for'
p1255
S'IN'
p1256
S'B-PP'
p1257
g5
tp1258
a(S'caries'
p1259
S'cary'
p1260
S'NNS'
p1261
S'B-NP'
p1262
g5
tp1263
a(S'4'
p1264
g1264
S'CD'
p1265
S'I-NP'
p1266
g5
tp1267
a(g273
g273
g273
S'I-NP'
p1268
g5
tp1269
a(S'8'
p1270
g1270
S'CD'
p1271
S'I-NP'
p1272
g5
tp1273
a(g273
g273
g273
S'I-NP'
p1274
g5
tp1275
a(S'12'
p1276
S'12'
p1277
S'CD'
p1278
S'I-NP'
p1279
g5
tp1280
a(g273
g273
g273
S'I-NP'
p1281
g5
tp1282
a(S'24'
p1283
S'24'
p1284
S'CD'
p1285
S'I-NP'
p1286
g5
tp1287
a(g273
g273
g273
S'I-NP'
p1288
g5
tp1289
a(S'36'
p1290
S'36'
p1291
S'CD'
p1292
S'I-NP'
p1293
g5
tp1294
a(g273
g273
g273
g5
g5
tp1295
a(S'and'
p1296
S'and'
p1297
S'CC'
p1298
g5
g5
tp1299
a(S'48'
p1300
S'48'
p1301
S'CD'
p1302
S'B-NP'
p1303
g5
tp1304
a(S'weeks'
p1305
S'week'
p1306
S'NNS'
p1307
S'I-NP'
p1308
g5
tp1309
a(S'after'
p1310
S'after'
p1311
S'IN'
p1312
S'B-PP'
p1313
g5
tp1314
a(S'initiation'
p1315
S'initiation'
p1316
S'NN'
p1317
S'B-NP'
p1318
g5
tp1319
a(S'of'
p1320
S'of'
p1321
S'IN'
p1322
S'B-PP'
p1323
g5
tp1324
a(S'treatment.'
p1325
S'treatment.'
p1326
S'NN'
p1327
S'B-NP'
p1328
g5
tp1329
a(S'Reports'
p1330
S'Report'
p1331
S'NNS'
p1332
S'I-NP'
p1333
g5
tp1334
a(S'of'
p1335
S'of'
p1336
S'IN'
p1337
S'B-PP'
p1338
g5
tp1339
a(S'adverse'
p1340
S'adverse'
p1341
S'JJ'
p1342
S'B-NP'
p1343
g5
tp1344
a(S'reactions'
p1345
S'reaction'
p1346
S'NNS'
p1347
S'I-NP'
p1348
g5
tp1349
a(S'were'
p1350
S'be'
p1351
S'VBD'
p1352
S'B-VP'
p1353
g5
tp1354
a(S'based'
p1355
S'base'
p1356
S'VBN'
p1357
S'I-VP'
p1358
g5
tp1359
a(S'on'
p1360
S'on'
p1361
S'IN'
p1362
S'B-PP'
p1363
g5
tp1364
a(S'information'
p1365
S'information'
p1366
S'NN'
p1367
S'B-NP'
p1368
g5
tp1369
a(S'volunteered'
p1370
S'volunteer'
p1371
S'VBN'
p1372
S'B-VP'
p1373
g5
tp1374
a(S'by'
p1375
S'by'
p1376
S'IN'
p1377
S'B-PP'
p1378
g5
tp1379
a(S'patients'
p1380
S'patient'
p1381
S'NNS'
p1382
S'B-NP'
p1383
g5
tp1384
a(S'and'
p1385
S'and'
p1386
S'CC'
p1387
g5
g5
tp1388
a(S'that'
p1389
S'that'
p1390
S'WDT'
p1391
S'B-NP'
p1392
g5
tp1393
a(S'were'
p1394
S'be'
p1395
S'VBD'
p1396
S'B-VP'
p1397
g5
tp1398
a(S'elicited'
p1399
S'elicit'
p1400
S'VBN'
p1401
S'I-VP'
p1402
g5
tp1403
a(S'during'
p1404
S'during'
p1405
S'IN'
p1406
S'B-PP'
p1407
g5
tp1408
a(S'interviews.'
p1409
S'interviews.'
p1410
S'NN'
p1411
S'B-NP'
p1412
g5
tp1413
a(S'At'
p1414
S'At'
p1415
S'IN'
p1416
S'B-PP'
p1417
g5
tp1418
a(S'baseline'
p1419
S'baseline'
p1420
S'NN'
p1421
S'B-NP'
p1422
g5
tp1423
a(g273
g273
g273
g5
g5
tp1424
a(S'the'
p1425
S'the'
p1426
S'DT'
p1427
S'B-NP'
p1428
g5
tp1429
a(S'resting'
p1430
S'resting'
p1431
S'NN'
p1432
S'I-NP'
p1433
g5
tp1434
a(S'and'
p1435
S'and'
p1436
S'CC'
p1437
g5
g5
tp1438
a(S'stimulated'
p1439
S'stimulate'
p1440
S'VBN'
p1441
S'B-NP'
p1442
g5
tp1443
a(S'salivary'
p1444
S'salivary'
p1445
S'JJ'
p1446
S'I-NP'
p1447
g5
tp1448
a(S'flow'
p1449
S'flow'
p1450
S'NN'
p1451
S'I-NP'
p1452
g5
tp1453
a(S'rates'
p1454
S'rate'
p1455
S'NNS'
p1456
S'I-NP'
p1457
g5
tp1458
a(g346
g346
g346
g5
g5
tp1459
a(S'g/5min'
p1460
S'g/5min'
p1461
S'NN'
p1462
S'B-NP'
p1463
g5
tp1464
a(g354
g354
g354
g5
g5
tp1465
a(S'were'
p1466
S'be'
p1467
S'VBD'
p1468
S'B-VP'
p1469
g5
tp1470
a(S'significantly'
p1471
S'significantly'
p1472
S'RB'
p1473
S'B-ADJP'
p1474
g5
tp1475
a(S'greater'
p1476
S'great'
p1477
S'JJR'
p1478
S'I-ADJP'
p1479
g5
tp1480
a(S'in'
p1481
S'in'
p1482
S'IN'
p1483
S'B-PP'
p1484
g5
tp1485
a(S'the'
p1486
S'the'
p1487
S'DT'
p1488
S'B-NP'
p1489
g5
tp1490
a(S'control'
p1491
S'control'
p1492
S'NN'
p1493
S'I-NP'
p1494
g5
tp1495
a(S'group'
p1496
S'group'
p1497
S'NN'
p1498
S'I-NP'
p1499
g5
tp1500
a(S'than'
p1501
S'than'
p1502
S'IN'
p1503
S'B-PP'
p1504
g5
tp1505
a(S'in'
p1506
S'in'
p1507
S'IN'
p1508
S'B-PP'
p1509
g5
tp1510
a(S'the'
p1511
S'the'
p1512
S'DT'
p1513
S'B-NP'
p1514
g5
tp1515
a(S'study'
p1516
S'study'
p1517
S'NN'
p1518
S'I-NP'
p1519
g5
tp1520
a(S'group'
p1521
S'group'
p1522
S'NN'
p1523
S'I-NP'
p1524
g5
tp1525
a(g346
g346
g346
g5
g5
tp1526
a(S'p'
p1527
g1527
S'NN'
p1528
S'B-NP'
p1529
g5
tp1530
a(S'<'
p1531
g1531
S'SYM'
p1532
g5
g5
tp1533
a(S'0.05'
p1534
S'0.05'
p1535
S'CD'
p1536
S'B-NP'
p1537
g5
tp1538
a(g354
g354
g354
g5
g5
tp1539
a(g87
g87
g87
g5
g5
tp1540
a(S'Patients'
p1541
S'Patient'
p1542
S'NNPS'
p1543
S'B-NP'
p1544
g5
tp1545
a(S'in'
p1546
S'in'
p1547
S'IN'
p1548
S'B-PP'
p1549
g5
tp1550
a(S'the'
p1551
S'the'
p1552
S'DT'
p1553
S'B-NP'
p1554
g5
tp1555
a(S'control'
p1556
S'control'
p1557
S'NN'
p1558
S'I-NP'
p1559
g5
tp1560
a(S'group'
p1561
S'group'
p1562
S'NN'
p1563
S'I-NP'
p1564
g5
tp1565
a(S'had'
p1566
S'have'
p1567
S'VBD'
p1568
S'B-VP'
p1569
g5
tp1570
a(S'received'
p1571
S'receive'
p1572
S'VBN'
p1573
S'I-VP'
p1574
g5
tp1575
a(S'significantly'
p1576
S'significantly'
p1577
S'RB'
p1578
S'B-NP'
p1579
g5
tp1580
a(S'more'
p1581
S'more'
p1582
S'JJR'
p1583
S'I-NP'
p1584
g5
tp1585
a(S'radiation'
p1586
S'radiation'
p1587
S'NN'
p1588
S'I-NP'
p1589
g5
tp1590
a(S'than'
p1591
S'than'
p1592
S'IN'
p1593
S'B-PP'
p1594
g5
tp1595
a(S'those'
p1596
S'those'
p1597
S'DT'
p1598
S'B-NP'
p1599
g5
tp1600
a(S'in'
p1601
S'in'
p1602
S'IN'
p1603
S'B-PP'
p1604
g5
tp1605
a(S'the'
p1606
S'the'
p1607
S'DT'
p1608
S'B-NP'
p1609
g5
tp1610
a(S'test'
p1611
S'test'
p1612
S'NN'
p1613
S'I-NP'
p1614
g5
tp1615
a(S'group'
p1616
S'group'
p1617
S'NN'
p1618
S'I-NP'
p1619
g5
tp1620
a(g346
g346
g346
g5
g5
tp1621
a(S'68Gy'
p1622
S'68Gy'
p1623
S'NN'
p1624
S'B-NP'
p1625
g5
tp1626
a(S'vs.'
p1627
S'vs.'
p1628
S'NN'
p1629
S'I-NP'
p1630
g5
tp1631
a(S'60Gy'
p1632
S'60Gy'
p1633
S'NN'
p1634
S'I-NP'
p1635
g5
tp1636
a(S';'
p1637
g1637
g71
g5
g5
tp1638
a(S'p=0.047'
p1639
S'p=0.047'
p1640
S'NN'
p1641
S'B-NP'
p1642
g5
tp1643
a(g354
g354
g354
g5
g5
tp1644
a(g87
g87
g87
g5
g5
tp1645
a(S'No'
p1646
S'No'
p1647
S'DT'
p1648
S'B-NP'
p1649
g5
tp1650
a(S'marked'
p1651
S'marked'
p1652
S'JJ'
p1653
S'I-NP'
p1654
g5
tp1655
a(S'differences'
p1656
S'difference'
p1657
S'NNS'
p1658
S'I-NP'
p1659
g5
tp1660
a(S'in'
p1661
S'in'
p1662
S'IN'
p1663
S'B-PP'
p1664
g5
tp1665
a(S'follow-up'
p1666
S'follow-up'
p1667
S'JJ'
p1668
S'B-NP'
p1669
g5
tp1670
a(S'new'
p1671
S'new'
p1672
S'JJ'
p1673
S'I-NP'
p1674
g5
tp1675
a(S'and'
p1676
S'and'
p1677
S'CC'
p1678
S'I-NP'
p1679
g5
tp1680
a(S'recurrent'
p1681
S'recurrent'
p1682
S'JJ'
p1683
S'I-NP'
p1684
g5
tp1685
a(S'caries'
p1686
S'cary'
p1687
S'NNS'
p1688
S'I-NP'
p1689
g5
tp1690
a(S'were'
p1691
S'be'
p1692
S'VBD'
p1693
S'B-VP'
p1694
g5
tp1695
a(S'found'
p1696
S'find'
p1697
S'VBN'
p1698
S'I-VP'
p1699
g5
tp1700
a(S'between'
p1701
S'between'
p1702
S'IN'
p1703
S'B-PP'
p1704
g5
tp1705
a(S'the'
p1706
S'the'
p1707
S'DT'
p1708
S'B-NP'
p1709
g5
tp1710
a(S'stannous'
p1711
S'stannous'
p1712
S'JJ'
p1713
S'I-NP'
p1714
g5
tp1715
a(S'fluoride'
p1716
S'fluoride'
p1717
S'NN'
p1718
S'I-NP'
p1719
g5
tp1720
a(S'gel'
p1721
S'gel'
p1722
S'NN'
p1723
S'I-NP'
p1724
g5
tp1725
a(S'control'
p1726
S'control'
p1727
S'NN'
p1728
S'I-NP'
p1729
g5
tp1730
a(S'and'
p1731
S'and'
p1732
S'CC'
p1733
S'I-NP'
p1734
g5
tp1735
a(S'IFRS'
p1736
S'IFRS'
p1737
S'NN'
p1738
S'I-NP'
p1739
g5
tp1740
a(S'groups'
p1741
S'group'
p1742
S'NNS'
p1743
S'I-NP'
p1744
g5
tp1745
a(S'during'
p1746
S'during'
p1747
S'IN'
p1748
S'B-PP'
p1749
g5
tp1750
a(S'the'
p1751
S'the'
p1752
S'DT'
p1753
S'B-NP'
p1754
g5
tp1755
a(S'study'
p1756
S'study'
p1757
S'NN'
p1758
S'I-NP'
p1759
g5
tp1760
a(S'period.'
p1761
S'period.'
p1762
S'VBP'
p1763
S'B-VP'
p1764
g5
tp1765
a(S'The'
p1766
S'The'
p1767
S'DT'
p1768
S'B-NP'
p1769
g5
tp1770
a(S'rate'
p1771
S'rate'
p1772
S'NN'
p1773
S'I-NP'
p1774
g5
tp1775
a(S'of'
p1776
S'of'
p1777
S'IN'
p1778
S'B-PP'
p1779
g5
tp1780
a(S'new'
p1781
S'new'
p1782
S'JJ'
p1783
S'B-NP'
p1784
g5
tp1785
a(S'or'
p1786
S'or'
p1787
S'CC'
p1788
S'I-NP'
p1789
g5
tp1790
a(S'recurrent'
p1791
S'recurrent'
p1792
S'JJ'
p1793
S'I-NP'
p1794
g5
tp1795
a(S'carious'
p1796
S'carious'
p1797
S'JJ'
p1798
S'I-NP'
p1799
g5
tp1800
a(S'lesions'
p1801
S'lesion'
p1802
S'NNS'
p1803
S'I-NP'
p1804
g5
tp1805
a(S'in'
p1806
S'in'
p1807
S'IN'
p1808
S'B-PP'
p1809
g5
tp1810
a(S'the'
p1811
S'the'
p1812
S'DT'
p1813
S'B-NP'
p1814
g5
tp1815
a(S'group'
p1816
S'group'
p1817
S'NN'
p1818
S'I-NP'
p1819
g5
tp1820
a(S'treated'
p1821
S'treat'
p1822
S'VBN'
p1823
S'B-VP'
p1824
g5
tp1825
a(S'with'
p1826
S'with'
p1827
S'IN'
p1828
S'B-PP'
p1829
g5
tp1830
a(S'the'
p1831
S'the'
p1832
S'DT'
p1833
S'B-NP'
p1834
g5
tp1835
a(S'fluoride'
p1836
S'fluoride'
p1837
S'NN'
p1838
S'I-NP'
p1839
g5
tp1840
a(S'gel'
p1841
S'gel'
p1842
S'NN'
p1843
S'I-NP'
p1844
g5
tp1845
a(S'was'
p1846
S'be'
p1847
S'VBD'
p1848
S'B-VP'
p1849
g5
tp1850
a(S'slightly'
p1851
S'slightly'
p1852
S'RB'
p1853
S'B-ADJP'
p1854
g5
tp1855
a(S'lower'
p1856
S'low'
p1857
S'JJR'
p1858
S'I-ADJP'
p1859
g5
tp1860
a(S'than'
p1861
S'than'
p1862
S'IN'
p1863
S'B-PP'
p1864
g5
tp1865
a(S'in'
p1866
S'in'
p1867
S'IN'
p1868
S'B-PP'
p1869
g5
tp1870
a(S'the'
p1871
S'the'
p1872
S'DT'
p1873
S'B-NP'
p1874
g5
tp1875
a(S'IFRS'
p1876
S'IFRS'
p1877
S'NNP'
p1878
S'I-NP'
p1879
g5
tp1880
a(S'group'
p1881
S'group'
p1882
S'NN'
p1883
S'I-NP'
p1884
g5
tp1885
a(g273
g273
g273
g5
g5
tp1886
a(S'based'
p1887
S'base'
p1888
S'VBN'
p1889
S'B-PP'
p1890
g5
tp1891
a(S'on'
p1892
S'on'
p1893
S'IN'
p1894
S'B-PP'
p1895
g5
tp1896
a(S'carious'
p1897
S'carious'
p1898
S'JJ'
p1899
S'B-NP'
p1900
g5
tp1901
a(S'lesions'
p1902
S'lesion'
p1903
S'NNS'
p1904
S'I-NP'
p1905
g5
tp1906
a(S'at'
p1907
S'at'
p1908
S'IN'
p1909
S'B-PP'
p1910
g5
tp1911
a(S'the'
p1912
S'the'
p1913
S'DT'
p1914
S'B-NP'
p1915
g5
tp1916
a(S'baseline'
p1917
S'baseline'
p1918
S'NN'
p1919
S'I-NP'
p1920
g5
tp1921
a(S'examination'
p1922
S'examination'
p1923
S'NN'
p1924
S'I-NP'
p1925
g5
tp1926
a(g346
g346
g346
g5
g5
tp1927
a(S'Poisson'
p1928
S'Poisson'
p1929
S'NN'
p1930
S'B-NP'
p1931
g5
tp1932
a(S'mean'
p1933
S'mean'
p1934
S'NN'
p1935
S'I-NP'
p1936
g5
tp1937
a(S'number'
p1938
S'number'
p1939
S'NN'
p1940
S'I-NP'
p1941
g5
tp1942
a(S'of'
p1943
S'of'
p1944
S'IN'
p1945
S'B-PP'
p1946
g5
tp1947
a(S'new'
p1948
S'new'
p1949
S'JJ'
p1950
S'B-NP'
p1951
g5
tp1952
a(S'or'
p1953
S'or'
p1954
S'CC'
p1955
S'I-NP'
p1956
g5
tp1957
a(S'recurrent'
p1958
S'recurrent'
p1959
S'JJ'
p1960
S'I-NP'
p1961
g5
tp1962
a(S'carious'
p1963
S'carious'
p1964
S'JJ'
p1965
S'I-NP'
p1966
g5
tp1967
a(S'lesions'
p1968
S'lesion'
p1969
S'NNS'
p1970
S'I-NP'
p1971
g5
tp1972
a(S'for'
p1973
S'for'
p1974
S'IN'
p1975
S'B-PP'
p1976
g5
tp1977
a(S'the'
p1978
S'the'
p1979
S'DT'
p1980
S'B-NP'
p1981
g5
tp1982
a(S'control'
p1983
S'control'
p1984
S'NN'
p1985
S'I-NP'
p1986
g5
tp1987
a(S'group=0.55'
p1988
S'group=0.55'
p1989
S'NN'
p1990
S'I-NP'
p1991
g5
tp1992
a(S'per'
p1993
S'per'
p1994
S'IN'
p1995
S'B-PP'
p1996
g5
tp1997
a(S'year'
p1998
S'year'
p1999
S'NN'
p2000
S'B-NP'
p2001
g5
tp2002
a(S'vs.'
p2003
S'vs.'
p2004
S'IN'
p2005
S'B-PP'
p2006
g5
tp2007
a(S'0.83'
p2008
S'0.83'
p2009
S'CD'
p2010
S'B-NP'
p2011
g5
tp2012
a(S'per'
p2013
S'per'
p2014
S'IN'
p2015
S'B-PP'
p2016
g5
tp2017
a(S'year'
p2018
S'year'
p2019
S'NN'
p2020
S'B-NP'
p2021
g5
tp2022
a(S'for'
p2023
S'for'
p2024
S'IN'
p2025
S'B-PP'
p2026
g5
tp2027
a(S'the'
p2028
S'the'
p2029
S'DT'
p2030
S'B-NP'
p2031
g5
tp2032
a(S'study'
p2033
S'study'
p2034
S'NN'
p2035
S'I-NP'
p2036
g5
tp2037
a(S'group'
p2038
S'group'
p2039
S'NN'
p2040
S'I-NP'
p2041
g5
tp2042
a(g273
g273
g273
g5
g5
tp2043
a(S'p=0.705'
p2044
S'p=0.705'
p2045
S'NN'
p2046
S'B-NP'
p2047
g5
tp2048
a(g1637
g1637
g71
g5
g5
tp2049
a(S'odds'
p2050
S'odd'
p2051
S'VBZ'
p2052
S'B-VP'
p2053
g5
tp2054
a(S'ratio'
p2055
S'ratio'
p2056
S'NN'
p2057
S'B-NP'
p2058
g5
tp2059
a(S'of'
p2060
S'of'
p2061
S'IN'
p2062
S'B-PP'
p2063
g5
tp2064
a(S'the'
p2065
S'the'
p2066
S'DT'
p2067
S'B-NP'
p2068
g5
tp2069
a(S'occurrence'
p2070
S'occurrence'
p2071
S'NN'
p2072
S'I-NP'
p2073
g5
tp2074
a(S'of'
p2075
S'of'
p2076
S'IN'
p2077
S'B-PP'
p2078
g5
tp2079
a(S'any'
p2080
S'any'
p2081
S'DT'
p2082
S'B-NP'
p2083
g5
tp2084
a(S'new'
p2085
S'new'
p2086
S'JJ'
p2087
S'I-NP'
p2088
g5
tp2089
a(S'or'
p2090
S'or'
p2091
S'CC'
p2092
S'I-NP'
p2093
g5
tp2094
a(S'recurrent'
p2095
S'recurrent'
p2096
S'JJ'
p2097
S'I-NP'
p2098
g5
tp2099
a(S'caries'
p2100
S'cary'
p2101
S'NNS'
p2102
S'I-NP'
p2103
g5
tp2104
a(S'during'
p2105
S'during'
p2106
S'IN'
p2107
S'B-PP'
p2108
g5
tp2109
a(S'follow-up'
p2110
S'follow-up'
p2111
S'NN'
p2112
S'B-NP'
p2113
g5
tp2114
a(S'for'
p2115
S'for'
p2116
S'IN'
p2117
S'B-PP'
p2118
g5
tp2119
a(S'control'
p2120
S'control'
p2121
S'NN'
p2122
S'B-NP'
p2123
g5
tp2124
a(S'group'
p2125
S'group'
p2126
S'NN'
p2127
S'I-NP'
p2128
g5
tp2129
a(S'vs.'
p2130
S'vs.'
p2131
S'IN'
p2132
S'B-PP'
p2133
g5
tp2134
a(S'the'
p2135
S'the'
p2136
S'DT'
p2137
S'B-NP'
p2138
g5
tp2139
a(S'study'
p2140
S'study'
p2141
S'NN'
p2142
S'I-NP'
p2143
g5
tp2144
a(S'group=0.80'
p2145
S'group=0.80'
p2146
S'NN'
p2147
S'I-NP'
p2148
g5
tp2149
a(g1637
g1637
g71
g5
g5
tp2150
a(S'p=0.781'
p2151
S'p=0.781'
p2152
S'NN'
p2153
S'B-NP'
p2154
g5
tp2155
a(g354
g354
g354
g5
g5
tp2156
a(g87
g87
g87
g5
g5
tp2157
a(S'This'
p2158
S'This'
p2159
S'DT'
p2160
S'B-NP'
p2161
g5
tp2162
a(S'pilot'
p2163
S'pilot'
p2164
S'NN'
p2165
S'I-NP'
p2166
g5
tp2167
a(S'study'
p2168
S'study'
p2169
S'NN'
p2170
S'I-NP'
p2171
g5
tp2172
a(S'revealed'
p2173
S'reveal'
p2174
S'VBD'
p2175
S'B-VP'
p2176
g5
tp2177
a(S'that'
p2178
S'that'
p2179
S'IN'
p2180
S'B-SBAR'
p2181
g5
tp2182
a(S'the'
p2183
S'the'
p2184
S'DT'
p2185
S'B-NP'
p2186
g5
tp2187
a(S'IFRS'
p2188
S'IFRS'
p2189
S'NN'
p2190
S'I-NP'
p2191
S'B-protein'
p2192
tp2193
a(S'was'
p2194
S'be'
p2195
S'VBD'
p2196
S'B-VP'
p2197
g5
tp2198
a(S'well-tolerated'
p2199
S'well-tolerated'
p2200
S'JJ'
p2201
S'B-ADJP'
p2202
g5
tp2203
a(S'and'
p2204
S'and'
p2205
S'CC'
p2206
S'I-ADJP'
p2207
g5
tp2208
a(S'safe'
p2209
S'safe'
p2210
S'JJ'
p2211
S'I-ADJP'
p2212
g5
tp2213
a(S'in'
p2214
S'in'
p2215
S'IN'
p2216
S'B-PP'
p2217
g5
tp2218
a(S'this'
p2219
S'this'
p2220
S'DT'
p2221
S'B-NP'
p2222
g5
tp2223
a(S'study'
p2224
S'study'
p2225
S'NN'
p2226
S'I-NP'
p2227
g5
tp2228
a(S'population'
p2229
S'population'
p2230
S'NN'
p2231
S'I-NP'
p2232
g5
tp2233
a(S'associated'
p2234
S'associate'
p2235
S'VBN'
p2236
S'B-VP'
p2237
g5
tp2238
a(S'with'
p2239
S'with'
p2240
S'IN'
p2241
S'B-PP'
p2242
g5
tp2243
a(S'minimal'
p2244
S'minimal'
p2245
S'JJ'
p2246
S'B-NP'
p2247
g5
tp2248
a(S'complications'
p2249
S'complication'
p2250
S'NNS'
p2251
S'I-NP'
p2252
g5
tp2253
a(S'during'
p2254
S'during'
p2255
S'IN'
p2256
S'B-PP'
p2257
g5
tp2258
a(S'the'
p2259
S'the'
p2260
S'DT'
p2261
S'B-NP'
p2262
g5
tp2263
a(S'duration'
p2264
S'duration'
p2265
S'NN'
p2266
S'I-NP'
p2267
g5
tp2268
a(S'of'
p2269
S'of'
p2270
S'IN'
p2271
S'B-PP'
p2272
g5
tp2273
a(S'this'
p2274
S'this'
p2275
S'DT'
p2276
S'B-NP'
p2277
g5
tp2278
a(S'study'
p2279
S'study'
p2280
S'NN'
p2281
S'I-NP'
p2282
g5
tp2283
a(S'and'
p2284
S'and'
p2285
S'CC'
p2286
g5
g5
tp2287
a(S'was'
p2288
S'be'
p2289
S'VBD'
p2290
S'B-VP'
p2291
g5
tp2292
a(S'comparable'
p2293
S'comparable'
p2294
S'JJ'
p2295
S'B-ADJP'
p2296
g5
tp2297
a(S'in'
p2298
S'in'
p2299
S'IN'
p2300
S'B-PP'
p2301
g5
tp2302
a(S'efficacy'
p2303
S'efficacy'
p2304
S'NN'
p2305
S'B-NP'
p2306
g5
tp2307
a(S'to'
p2308
S'to'
p2309
S'TO'
p2310
S'B-PP'
p2311
g5
tp2312
a(g361
g361
S'DT'
p2313
S'B-NP'
p2314
g5
tp2315
a(S'SnF'
p2316
S'SnF'
p2317
S'NN'
p2318
S'I-NP'
p2319
g5
tp2320
a(g346
g346
g346
g5
g5
tp2321
a(g67
g67
S'CD'
p2322
S'B-NP'
p2323
g5
tp2324
a(g354
g354
g354
g5
g5
tp2325
a(S'gel'
p2326
S'gel'
p2327
S'NN'
p2328
S'B-NP'
p2329
g5
tp2330
a(S'in'
p2331
S'in'
p2332
S'IN'
p2333
S'B-PP'
p2334
g5
tp2335
a(S'preventing'
p2336
S'prevent'
p2337
S'VBG'
p2338
S'B-NP'
p2339
g5
tp2340
a(S'caries'
p2341
S'cary'
p2342
S'NNS'
p2343
S'I-NP'
p2344
g5
tp2345
a(S'development.'
p2346
S'development.'
p2347
S'VBP'
p2348
S'B-VP'
p2349
g5
tp2350
a(S'The'
p2351
S'The'
p2352
S'DT'
p2353
S'B-NP'
p2354
g5
tp2355
a(S'IFRS'
p2356
S'IFRS'
p2357
S'NNP'
p2358
S'I-NP'
p2359
g5
tp2360
a(S'provided'
p2361
S'provide'
p2362
S'VBD'
p2363
S'B-VP'
p2364
g5
tp2365
a(S'similar'
p2366
S'similar'
p2367
S'JJ'
p2368
S'B-NP'
p2369
g5
tp2370
a(S'rates'
p2371
S'rate'
p2372
S'NNS'
p2373
S'I-NP'
p2374
g5
tp2375
a(S'of'
p2376
S'of'
p2377
S'IN'
p2378
S'B-PP'
p2379
g5
tp2380
a(S'control'
p2381
S'control'
p2382
S'NN'
p2383
S'B-NP'
p2384
g5
tp2385
a(S'for'
p2386
S'for'
p2387
S'IN'
p2388
S'B-PP'
p2389
g5
tp2390
a(S'caries'
p2391
S'cary'
p2392
S'NNS'
p2393
S'B-NP'
p2394
g5
tp2395
a(S'formation'
p2396
S'formation'
p2397
S'NN'
p2398
S'I-NP'
p2399
g5
tp2400
a(S'to'
p2401
S'to'
p2402
S'TO'
p2403
S'B-PP'
p2404
g5
tp2405
a(g361
g361
S'DT'
p2406
S'B-NP'
p2407
g5
tp2408
a(S'fluoride-gel-containing'
p2409
S'fluoride-gel-containing'
p2410
S'JJ'
p2411
S'I-NP'
p2412
g5
tp2413
a(S'tray.'
p2414
S'tray.'
p2415
S'NN'
p2416
S'I-NP'
p2417
g5
tp2418
a(S'The'
p2419
S'The'
p2420
S'DT'
p2421
S'B-NP'
p2422
g5
tp2423
a(S'IFRS'
p2424
S'IFRS'
p2425
S'NN'
p2426
S'I-NP'
p2427
S'B-protein'
p2428
tp2429
a(S'is'
p2430
S'be'
p2431
S'VBZ'
p2432
S'B-VP'
p2433
g5
tp2434
a(S'designed'
p2435
S'design'
p2436
S'VBN'
p2437
S'I-VP'
p2438
g5
tp2439
a(S'to'
p2440
S'to'
p2441
S'TO'
p2442
S'I-VP'
p2443
g5
tp2444
a(S'release'
p2445
S'release'
p2446
S'VB'
p2447
S'I-VP'
p2448
g5
tp2449
a(g361
g361
S'DT'
p2450
S'B-NP'
p2451
g5
tp2452
a(S'daily'
p2453
S'daily'
p2454
S'JJ'
p2455
S'I-NP'
p2456
g5
tp2457
a(S'dose'
p2458
S'dose'
p2459
S'NN'
p2460
S'I-NP'
p2461
g5
tp2462
a(S'of'
p2463
S'of'
p2464
S'IN'
p2465
S'B-PP'
p2466
g5
tp2467
a(S'0.12mg'
p2468
S'0.12mg'
p2469
S'NN'
p2470
S'B-NP'
p2471
g5
tp2472
a(S'of'
p2473
S'of'
p2474
S'IN'
p2475
S'B-PP'
p2476
g5
tp2477
a(S'sodium'
p2478
S'sodium'
p2479
S'NN'
p2480
S'B-NP'
p2481
g5
tp2482
a(S'fluoride'
p2483
S'fluoride'
p2484
S'NN'
p2485
S'I-NP'
p2486
g5
tp2487
a(g273
g273
g273
g5
g5
tp2488
a(S'which'
p2489
S'which'
p2490
S'WDT'
p2491
S'B-NP'
p2492
g5
tp2493
a(S'can'
p2494
S'can'
p2495
S'MD'
p2496
S'B-VP'
p2497
g5
tp2498
a(S'be'
p2499
S'be'
p2500
S'VB'
p2501
S'I-VP'
p2502
g5
tp2503
a(S'evenly'
p2504
S'evenly'
p2505
S'RB'
p2506
S'I-VP'
p2507
g5
tp2508
a(S'distributed'
p2509
S'distribute'
p2510
S'VBN'
p2511
S'I-VP'
p2512
g5
tp2513
a(S'throughout'
p2514
S'throughout'
p2515
S'IN'
p2516
S'B-PP'
p2517
g5
tp2518
a(S'the'
p2519
S'the'
p2520
S'DT'
p2521
S'B-NP'
p2522
g5
tp2523
a(S'oral'
p2524
S'oral'
p2525
S'JJ'
p2526
S'I-NP'
p2527
g5
tp2528
a(S'cavity'
p2529
S'cavity'
p2530
S'NN'
p2531
S'I-NP'
p2532
g5
tp2533
a(S'for'
p2534
S'for'
p2535
S'IN'
p2536
S'B-PP'
p2537
g5
tp2538
a(g361
g361
S'DT'
p2539
S'B-NP'
p2540
g5
tp2541
a(S'single'
p2542
S'single'
p2543
S'JJ'
p2544
S'I-NP'
p2545
g5
tp2546
a(S'application'
p2547
S'application'
p2548
S'NN'
p2549
S'I-NP'
p2550
g5
tp2551
a(S'of'
p2552
S'of'
p2553
S'IN'
p2554
S'B-PP'
p2555
g5
tp2556
a(g1264
g1264
S'CD'
p2557
S'B-NP'
p2558
g5
tp2559
a(S'months.'
p2560
S'months.'
p2561
S'NN'
p2562
S'I-NP'
p2563
g5
tp2564
a(S'It'
p2565
S'It'
p2566
S'PRP'
p2567
S'B-NP'
p2568
g5
tp2569
a(S'would'
p2570
S'would'
p2571
S'MD'
p2572
S'B-VP'
p2573
g5
tp2574
a(S'be'
p2575
S'be'
p2576
S'VB'
p2577
S'I-VP'
p2578
g5
tp2579
a(S'more'
p2580
S'more'
p2581
S'RBR'
p2582
S'B-ADJP'
p2583
g5
tp2584
a(S'convenient'
p2585
S'convenient'
p2586
S'JJ'
p2587
S'I-ADJP'
p2588
g5
tp2589
a(S'than'
p2590
S'than'
p2591
S'IN'
p2592
S'B-PP'
p2593
g5
tp2594
a(S'the'
p2595
S'the'
p2596
S'DT'
p2597
S'B-NP'
p2598
g5
tp2599
a(S'daily'
p2600
S'daily'
p2601
S'JJ'
p2602
S'I-NP'
p2603
g5
tp2604
a(S'home'
p2605
S'home'
p2606
S'NN'
p2607
S'I-NP'
p2608
g5
tp2609
a(S'application'
p2610
S'application'
p2611
S'NN'
p2612
S'I-NP'
p2613
g5
tp2614
a(S'of'
p2615
S'of'
p2616
S'IN'
p2617
S'B-PP'
p2618
g5
tp2619
a(g361
g361
S'DT'
p2620
S'B-NP'
p2621
g5
tp2622
a(S'tray'
p2623
S'tray'
p2624
S'NN'
p2625
S'I-NP'
p2626
g5
tp2627
a(S'of'
p2628
S'of'
p2629
S'IN'
p2630
S'B-PP'
p2631
g5
tp2632
a(S'0.4'
p2633
S'0.4'
p2634
S'CD'
p2635
S'B-NP'
p2636
g5
tp2637
a(g705
g705
S'NN'
p2638
S'I-NP'
p2639
g5
tp2640
a(S'stannous'
p2641
S'stannous'
p2642
S'JJ'
p2643
S'I-NP'
p2644
g5
tp2645
a(S'fluoride'
p2646
S'fluoride'
p2647
S'NN'
p2648
S'I-NP'
p2649
g5
tp2650
a(S'or'
p2651
S'or'
p2652
S'CC'
p2653
g5
g5
tp2654
a(S'1.1'
p2655
S'1.1'
p2656
S'CD'
p2657
S'B-NP'
p2658
g5
tp2659
a(g705
g705
S'NN'
p2660
S'I-NP'
p2661
g5
tp2662
a(S'sodium'
p2663
S'sodium'
p2664
S'NN'
p2665
S'I-NP'
p2666
g5
tp2667
a(S'fluoride'
p2668
S'fluoride'
p2669
S'NN'
p2670
S'I-NP'
p2671
g5
tp2672
a(S'gel'
p2673
S'gel'
p2674
S'NN'
p2675
S'I-NP'
p2676
g5
tp2677
a(g273
g273
g273
g5
g5
tp2678
a(S'and'
p2679
S'and'
p2680
S'CC'
p2681
g5
g5
tp2682
a(S'avoids'
p2683
S'avoid'
p2684
S'VBZ'
p2685
S'B-VP'
p2686
g5
tp2687
a(S'the'
p2688
S'the'
p2689
S'DT'
p2690
S'B-NP'
p2691
g5
tp2692
a(S'problem'
p2693
S'problem'
p2694
S'NN'
p2695
S'I-NP'
p2696
g5
tp2697
a(S'of'
p2698
S'of'
p2699
S'IN'
p2700
S'B-PP'
p2701
g5
tp2702
a(S'variable'
p2703
S'variable'
p2704
S'JJ'
p2705
S'B-NP'
p2706
g5
tp2707
a(S'patient'
p2708
S'patient'
p2709
S'NN'
p2710
S'I-NP'
p2711
g5
tp2712
a(S'compliance'
p2713
S'compliance'
p2714
S'NN'
p2715
S'I-NP'
p2716
g5
tp2717
a(g87
g87
g87
g5
g5
tp2718
a.