(lp0
(S'Effect'
p1
S'Effect'
p2
S'NN'
p3
S'B-NP'
p4
S'O'
p5
tp6
a(S'of'
p7
S'of'
p8
S'IN'
p9
S'B-PP'
p10
g5
tp11
a(S'systemic'
p12
S'systemic'
p13
S'JJ'
p14
S'B-NP'
p15
g5
tp16
a(S'nitric'
p17
S'nitric'
p18
S'JJ'
p19
S'I-NP'
p20
S'B-protein'
p21
tp22
a(S'oxide'
p23
S'oxide'
p24
S'NN'
p25
S'I-NP'
p26
S'I-protein'
p27
tp28
a(S'synthase'
p29
S'synthase'
p30
S'NN'
p31
S'I-NP'
p32
S'I-protein'
p33
tp34
a(S'inhibition'
p35
S'inhibition'
p36
S'NN'
p37
S'I-NP'
p38
g5
tp39
a(S'on'
p40
S'on'
p41
S'IN'
p42
S'B-PP'
p43
g5
tp44
a(S'postexercise'
p45
S'postexercise'
p46
S'NN'
p47
S'B-NP'
p48
g5
tp49
a(S'hypotension'
p50
S'hypotension'
p51
S'NN'
p52
S'I-NP'
p53
g5
tp54
a(S'in'
p55
S'in'
p56
S'IN'
p57
S'B-PP'
p58
g5
tp59
a(S'humans'
p60
S'human'
p61
S'NNS'
p62
S'B-NP'
p63
g5
tp64
a(S'.'
p65
g65
g65
g5
g5
tp66
a(S'An'
p67
S'An'
p68
S'DT'
p69
S'B-NP'
p70
g5
tp71
a(S'acute'
p72
S'acute'
p73
S'JJ'
p74
S'I-NP'
p75
g5
tp76
a(S'bout'
p77
S'bout'
p78
S'NN'
p79
S'I-NP'
p80
g5
tp81
a(S'of'
p82
S'of'
p83
S'IN'
p84
S'B-PP'
p85
g5
tp86
a(S'aerobic'
p87
S'aerobic'
p88
S'JJ'
p89
S'B-NP'
p90
g5
tp91
a(S'exercise'
p92
S'exercise'
p93
S'NN'
p94
S'I-NP'
p95
g5
tp96
a(S'results'
p97
S'result'
p98
S'VBZ'
p99
S'B-VP'
p100
g5
tp101
a(S'in'
p102
S'in'
p103
S'IN'
p104
S'B-PP'
p105
g5
tp106
a(S'a'
p107
g107
S'DT'
p108
S'B-NP'
p109
g5
tp110
a(S'reduced'
p111
S'reduce'
p112
S'VBN'
p113
S'I-NP'
p114
g5
tp115
a(S'blood'
p116
S'blood'
p117
S'NN'
p118
S'I-NP'
p119
g5
tp120
a(S'pressure'
p121
S'pressure'
p122
S'NN'
p123
S'I-NP'
p124
g5
tp125
a(S'that'
p126
S'that'
p127
S'WDT'
p128
S'B-NP'
p129
g5
tp130
a(S'lasts'
p131
S'last'
p132
S'VBZ'
p133
S'B-VP'
p134
g5
tp135
a(S'several'
p136
S'several'
p137
S'JJ'
p138
S'B-NP'
p139
g5
tp140
a(S'hours.'
p141
S'hours.'
p142
S'NN'
p143
S'I-NP'
p144
g5
tp145
a(S'Animal'
p146
S'Animal'
p147
S'NN'
p148
S'I-NP'
p149
g5
tp150
a(S'studies'
p151
S'study'
p152
S'NNS'
p153
S'I-NP'
p154
g5
tp155
a(S'suggest'
p156
S'suggest'
p157
S'VBP'
p158
S'B-VP'
p159
g5
tp160
a(S'this'
p161
S'this'
p162
S'DT'
p163
S'B-NP'
p164
g5
tp165
a(S'response'
p166
S'response'
p167
S'NN'
p168
S'I-NP'
p169
g5
tp170
a(S'is'
p171
S'be'
p172
S'VBZ'
p173
S'B-VP'
p174
g5
tp175
a(S'mediated'
p176
S'mediate'
p177
S'VBN'
p178
S'I-VP'
p179
g5
tp180
a(S'by'
p181
S'by'
p182
S'IN'
p183
S'B-PP'
p184
g5
tp185
a(S'increased'
p186
S'increase'
p187
S'VBN'
p188
S'B-NP'
p189
g5
tp190
a(S'production'
p191
S'production'
p192
S'NN'
p193
S'I-NP'
p194
g5
tp195
a(S'of'
p196
S'of'
p197
S'IN'
p198
S'B-PP'
p199
g5
tp200
a(S'nitric'
p201
S'nitric'
p202
S'JJ'
p203
S'B-NP'
p204
g5
tp205
a(S'oxide.'
p206
S'oxide.'
p207
S'NN'
p208
S'I-NP'
p209
g5
tp210
a(S'We'
p211
S'We'
p212
S'PRP'
p213
S'B-NP'
p214
g5
tp215
a(S'tested'
p216
S'test'
p217
S'VBD'
p218
S'B-VP'
p219
g5
tp220
a(S'the'
p221
S'the'
p222
S'DT'
p223
S'B-NP'
p224
g5
tp225
a(S'extent'
p226
S'extent'
p227
S'NN'
p228
S'I-NP'
p229
g5
tp230
a(S'to'
p231
S'to'
p232
S'TO'
p233
S'B-PP'
p234
g5
tp235
a(S'which'
p236
S'which'
p237
S'WDT'
p238
S'B-NP'
p239
g5
tp240
a(S'systemic'
p241
S'systemic'
p242
S'JJ'
p243
S'B-NP'
p244
g5
tp245
a(S'nitric'
p246
S'nitric'
p247
S'JJ'
p248
S'I-NP'
p249
g5
tp250
a(S'oxide'
p251
S'oxide'
p252
S'NN'
p253
S'I-NP'
p254
g5
tp255
a(S'synthase'
p256
S'synthase'
p257
S'NN'
p258
S'I-NP'
p259
g5
tp260
a(S'inhibition'
p261
S'inhibition'
p262
S'NN'
p263
S'I-NP'
p264
g5
tp265
a(S'['
p266
g266
S'('
p267
g5
g5
tp268
a(S'N'
p269
g269
S'NN'
p270
S'B-NP'
p271
g5
tp272
a(g267
g267
g267
g5
g5
tp273
a(S'G'
p274
g274
S'NN'
p275
S'B-NP'
p276
g5
tp277
a(S')'
p278
g278
g278
g5
g5
tp279
a(S'-monomethyl-L-arginine'
p280
S'-monomethyl-L-arginine'
p281
S'NN'
p282
S'B-NP'
p283
g5
tp284
a(g267
g267
g267
g5
g5
tp285
a(S'L-NMMA'
p286
S'L-NMMA'
p287
S'NN'
p288
S'B-NP'
p289
S'B-protein'
p290
tp291
a(g278
g278
g278
g5
g5
tp292
a(S']'
p293
g293
g278
g5
g5
tp294
a(S'can'
p295
S'can'
p296
S'MD'
p297
S'B-VP'
p298
g5
tp299
a(S'reverse'
p300
S'reverse'
p301
S'VB'
p302
S'I-VP'
p303
g5
tp304
a(S'the'
p305
S'the'
p306
S'DT'
p307
S'B-NP'
p308
g5
tp309
a(S'drop'
p310
S'drop'
p311
S'NN'
p312
S'I-NP'
p313
g5
tp314
a(S'in'
p315
S'in'
p316
S'IN'
p317
S'B-PP'
p318
g5
tp319
a(S'blood'
p320
S'blood'
p321
S'NN'
p322
S'B-NP'
p323
g5
tp324
a(S'pressure'
p325
S'pressure'
p326
S'NN'
p327
S'I-NP'
p328
g5
tp329
a(S'that'
p330
S'that'
p331
S'WDT'
p332
S'B-NP'
p333
g5
tp334
a(S'occurs'
p335
S'occur'
p336
S'VBZ'
p337
S'B-VP'
p338
g5
tp339
a(S'after'
p340
S'after'
p341
S'IN'
p342
S'B-PP'
p343
g5
tp344
a(S'exercise'
p345
S'exercise'
p346
S'NN'
p347
S'B-NP'
p348
g5
tp349
a(S'in'
p350
S'in'
p351
S'IN'
p352
S'B-PP'
p353
g5
tp354
a(S'humans.'
p355
S'humans.'
p356
S'JJ'
p357
S'B-NP'
p358
g5
tp359
a(S'Eight'
p360
S'Eight'
p361
S'CD'
p362
S'I-NP'
p363
g5
tp364
a(S'healthy'
p365
S'healthy'
p366
S'JJ'
p367
S'I-NP'
p368
g5
tp369
a(S'subjects'
p370
S'subject'
p371
S'NNS'
p372
S'I-NP'
p373
g5
tp374
a(S'underwent'
p375
S'undergo'
p376
S'VBD'
p377
S'B-VP'
p378
g5
tp379
a(S'parallel'
p380
S'parallel'
p381
S'JJ'
p382
S'B-NP'
p383
g5
tp384
a(S'experiments'
p385
S'experiment'
p386
S'NNS'
p387
S'I-NP'
p388
g5
tp389
a(S'on'
p390
S'on'
p391
S'IN'
p392
S'B-PP'
p393
g5
tp394
a(S'2'
p395
g395
S'CD'
p396
S'B-NP'
p397
g5
tp398
a(S'separate'
p399
S'separate'
p400
S'JJ'
p401
S'I-NP'
p402
g5
tp403
a(S'days.'
p404
S'days.'
p405
S'NN'
p406
S'I-NP'
p407
g5
tp408
a(S'The'
p409
S'The'
p410
S'DT'
p411
S'B-NP'
p412
g5
tp413
a(S'order'
p414
S'order'
p415
S'NN'
p416
S'I-NP'
p417
g5
tp418
a(S'of'
p419
S'of'
p420
S'IN'
p421
S'B-PP'
p422
g5
tp423
a(S'the'
p424
S'the'
p425
S'DT'
p426
S'B-NP'
p427
g5
tp428
a(S'experiments'
p429
S'experiment'
p430
S'NNS'
p431
S'I-NP'
p432
g5
tp433
a(S'was'
p434
S'be'
p435
S'VBD'
p436
S'B-VP'
p437
g5
tp438
a(S'randomized'
p439
S'randomize'
p440
S'VBN'
p441
S'I-VP'
p442
g5
tp443
a(S'between'
p444
S'between'
p445
S'IN'
p446
S'B-PP'
p447
g5
tp448
a(S'sham'
p449
S'sham'
p450
S'NN'
p451
S'B-NP'
p452
g5
tp453
a(g267
g267
g267
g5
g5
tp454
a(S'60'
p455
S'60'
p456
S'CD'
p457
S'B-NP'
p458
g5
tp459
a(S'min'
p460
S'min'
p461
S'NN'
p462
S'I-NP'
p463
g5
tp464
a(S'of'
p465
S'of'
p466
S'IN'
p467
S'B-PP'
p468
g5
tp469
a(S'seated'
p470
S'seat'
p471
S'VBN'
p472
S'B-NP'
p473
g5
tp474
a(S'upright'
p475
S'upright'
p476
S'JJ'
p477
S'I-NP'
p478
g5
tp479
a(S'rest'
p480
S'rest'
p481
S'NN'
p482
S'I-NP'
p483
g5
tp484
a(g278
g278
g278
g5
g5
tp485
a(S'and'
p486
S'and'
p487
S'CC'
p488
g5
g5
tp489
a(S'exercise'
p490
S'exercise'
p491
S'NN'
p492
S'B-NP'
p493
g5
tp494
a(g267
g267
g267
g5
g5
tp495
a(S'60'
p496
S'60'
p497
S'CD'
p498
S'B-NP'
p499
g5
tp500
a(S'min'
p501
S'min'
p502
S'NN'
p503
S'I-NP'
p504
g5
tp505
a(S'of'
p506
S'of'
p507
S'IN'
p508
S'B-PP'
p509
g5
tp510
a(S'upright'
p511
S'upright'
p512
S'RB'
p513
S'B-VP'
p514
g5
tp515
a(S'cycling'
p516
S'cycle'
p517
S'VBG'
p518
S'I-VP'
p519
g5
tp520
a(S'at'
p521
S'at'
p522
S'IN'
p523
S'B-PP'
p524
g5
tp525
a(S'60'
p526
S'60'
p527
S'CD'
p528
S'B-NP'
p529
g5
tp530
a(S'%'
p531
g531
S'NN'
p532
S'I-NP'
p533
g5
tp534
a(S'peak'
p535
S'peak'
p536
S'NN'
p537
S'I-NP'
p538
g5
tp539
a(S'aerobic'
p540
S'aerobic'
p541
S'JJ'
p542
S'I-NP'
p543
g5
tp544
a(S'capacity'
p545
S'capacity'
p546
S'NN'
p547
S'I-NP'
p548
g5
tp549
a(g278
g278
g278
g5
g5
tp550
a(g65
g65
g65
g5
g5
tp551
a(S'After'
p552
S'After'
p553
S'IN'
p554
S'B-PP'
p555
g5
tp556
a(S'both'
p557
S'both'
p558
S'CC'
p559
g5
g5
tp560
a(S'sham'
p561
S'sham'
p562
S'NN'
p563
S'B-NP'
p564
g5
tp565
a(S'and'
p566
S'and'
p567
S'CC'
p568
S'I-NP'
p569
g5
tp570
a(S'exercise'
p571
S'exercise'
p572
S'NN'
p573
S'I-NP'
p574
g5
tp575
a(S','
p576
g576
g576
g5
g5
tp577
a(S'subjects'
p578
S'subject'
p579
S'NNS'
p580
S'B-NP'
p581
g5
tp582
a(S'received'
p583
S'receive'
p584
S'VBD'
p585
S'B-VP'
p586
g5
tp587
a(g576
g576
g576
g5
g5
tp588
a(S'in'
p589
S'in'
p590
S'IN'
p591
S'B-PP'
p592
g5
tp593
a(S'sequence'
p594
S'sequence'
p595
S'NN'
p596
S'B-NP'
p597
g5
tp598
a(g576
g576
g576
g5
g5
tp599
a(S'systemic'
p600
S'systemic'
p601
S'JJ'
p602
S'B-NP'
p603
g5
tp604
a(S'alpha-adrenergic'
p605
S'alpha-adrenergic'
p606
S'JJ'
p607
S'I-NP'
p608
g5
tp609
a(S'blockade'
p610
S'blockade'
p611
S'NN'
p612
S'I-NP'
p613
g5
tp614
a(g267
g267
g267
g5
g5
tp615
a(S'phentolamine'
p616
S'phentolamine'
p617
S'NN'
p618
S'B-NP'
p619
g5
tp620
a(g278
g278
g278
g5
g5
tp621
a(S'and'
p622
S'and'
p623
S'CC'
p624
g5
g5
tp625
a(S'L-NMMA.'
p626
S'L-NMMA.'
p627
S'NN'
p628
S'B-NP'
p629
g5
tp630
a(S'Phentolamine'
p631
S'Phentolamine'
p632
S'NN'
p633
S'I-NP'
p634
g5
tp635
a(S'was'
p636
S'be'
p637
S'VBD'
p638
S'B-VP'
p639
g5
tp640
a(S'given'
p641
S'give'
p642
S'VBN'
p643
S'I-VP'
p644
g5
tp645
a(S'first'
p646
S'first'
p647
S'RB'
p648
S'B-ADVP'
p649
g5
tp650
a(S'to'
p651
S'to'
p652
S'TO'
p653
S'B-VP'
p654
g5
tp655
a(S'isolate'
p656
S'isolate'
p657
S'VB'
p658
S'I-VP'
p659
g5
tp660
a(S'the'
p661
S'the'
p662
S'DT'
p663
S'B-NP'
p664
g5
tp665
a(S'contribution'
p666
S'contribution'
p667
S'NN'
p668
S'I-NP'
p669
g5
tp670
a(S'of'
p671
S'of'
p672
S'IN'
p673
S'B-PP'
p674
g5
tp675
a(S'nitric'
p676
S'nitric'
p677
S'JJ'
p678
S'B-NP'
p679
g5
tp680
a(S'oxide'
p681
S'oxide'
p682
S'NN'
p683
S'I-NP'
p684
g5
tp685
a(S'to'
p686
S'to'
p687
S'TO'
p688
S'B-VP'
p689
g5
tp690
a(S'postexercise'
p691
S'postexercise'
p692
S'VB'
p693
S'I-VP'
p694
g5
tp695
a(S'hypotension'
p696
S'hypotension'
p697
S'NN'
p698
S'B-NP'
p699
g5
tp700
a(S'by'
p701
S'by'
p702
S'IN'
p703
S'B-PP'
p704
g5
tp705
a(S'preventing'
p706
S'prevent'
p707
S'VBG'
p708
S'B-VP'
p709
g5
tp710
a(S'reflex'
p711
S'reflex'
p712
S'NN'
p713
S'B-NP'
p714
g5
tp715
a(S'changes'
p716
S'change'
p717
S'NNS'
p718
S'I-NP'
p719
g5
tp720
a(S'in'
p721
S'in'
p722
S'IN'
p723
S'B-PP'
p724
g5
tp725
a(S'sympathetic'
p726
S'sympathetic'
p727
S'JJ'
p728
S'B-NP'
p729
g5
tp730
a(S'tone'
p731
S'tone'
p732
S'NN'
p733
S'I-NP'
p734
g5
tp735
a(S'that'
p736
S'that'
p737
S'WDT'
p738
S'B-NP'
p739
g5
tp740
a(S'result'
p741
S'result'
p742
S'VBP'
p743
S'B-VP'
p744
g5
tp745
a(S'from'
p746
S'from'
p747
S'IN'
p748
S'B-PP'
p749
g5
tp750
a(S'systemic'
p751
S'systemic'
p752
S'JJ'
p753
S'B-NP'
p754
g5
tp755
a(S'nitric'
p756
S'nitric'
p757
S'JJ'
p758
S'I-NP'
p759
S'B-protein'
p760
tp761
a(S'oxide'
p762
S'oxide'
p763
S'NN'
p764
S'I-NP'
p765
S'I-protein'
p766
tp767
a(S'synthase'
p768
S'synthase'
p769
S'NN'
p770
S'I-NP'
p771
S'I-protein'
p772
tp773
a(S'inhibition'
p774
S'inhibition'
p775
S'NN'
p776
S'I-NP'
p777
g5
tp778
a(S'and'
p779
S'and'
p780
S'CC'
p781
g5
g5
tp782
a(S'to'
p783
S'to'
p784
S'TO'
p785
S'B-VP'
p786
g5
tp787
a(S'control'
p788
S'control'
p789
S'VB'
p790
S'I-VP'
p791
g5
tp792
a(S'for'
p793
S'for'
p794
S'IN'
p795
S'B-PP'
p796
g5
tp797
a(S'alterations'
p798
S'alteration'
p799
S'NNS'
p800
S'B-NP'
p801
g5
tp802
a(S'in'
p803
S'in'
p804
S'IN'
p805
S'B-PP'
p806
g5
tp807
a(S'resting'
p808
S'rest'
p809
S'VBG'
p810
S'B-NP'
p811
g5
tp812
a(S'sympathetic'
p813
S'sympathetic'
p814
S'JJ'
p815
S'I-NP'
p816
g5
tp817
a(S'activity'
p818
S'activity'
p819
S'NN'
p820
S'I-NP'
p821
g5
tp822
a(S'after'
p823
S'after'
p824
S'IN'
p825
S'B-PP'
p826
g5
tp827
a(S'exercise.'
p828
S'exercise.'
p829
S'NN'
p830
S'B-NP'
p831
g5
tp832
a(S'During'
p833
S'During'
p834
S'IN'
p835
S'B-PP'
p836
g5
tp837
a(S'each'
p838
S'each'
p839
S'DT'
p840
S'B-NP'
p841
g5
tp842
a(S'condition'
p843
S'condition'
p844
S'NN'
p845
S'I-NP'
p846
g5
tp847
a(g576
g576
g576
g5
g5
tp848
a(S'systemic'
p849
S'systemic'
p850
S'JJ'
p851
S'B-NP'
p852
g5
tp853
a(S'and'
p854
S'and'
p855
S'CC'
p856
S'I-NP'
p857
g5
tp858
a(S'regional'
p859
S'regional'
p860
S'JJ'
p861
S'I-NP'
p862
g5
tp863
a(S'hemodynamics'
p864
S'hemodynamic'
p865
S'NNS'
p866
S'I-NP'
p867
g5
tp868
a(S'were'
p869
S'be'
p870
S'VBD'
p871
S'B-VP'
p872
g5
tp873
a(S'measured.'
p874
S'measured.'
p875
S'VBN'
p876
S'I-VP'
p877
g5
tp878
a(S'Throughout'
p879
S'Throughout'
p880
S'IN'
p881
S'B-PP'
p882
g5
tp883
a(S'the'
p884
S'the'
p885
S'DT'
p886
S'B-NP'
p887
g5
tp888
a(S'study'
p889
S'study'
p890
S'NN'
p891
S'I-NP'
p892
g5
tp893
a(g576
g576
g576
g5
g5
tp894
a(S'arterial'
p895
S'arterial'
p896
S'JJ'
p897
S'B-NP'
p898
g5
tp899
a(S'pressure'
p900
S'pressure'
p901
S'NN'
p902
S'I-NP'
p903
g5
tp904
a(S'and'
p905
S'and'
p906
S'CC'
p907
g5
g5
tp908
a(S'vascular'
p909
S'vascular'
p910
S'JJ'
p911
S'B-NP'
p912
g5
tp913
a(S'resistances'
p914
S'resistance'
p915
S'NNS'
p916
S'I-NP'
p917
g5
tp918
a(S'remained'
p919
S'remain'
p920
S'VBD'
p921
S'B-VP'
p922
g5
tp923
a(S'lower'
p924
S'low'
p925
S'JJR'
p926
S'B-NP'
p927
g5
tp928
a(S'postexercise'
p929
S'postexercise'
p930
S'NN'
p931
S'I-NP'
p932
g5
tp933
a(S'vs.'
p934
S'vs.'
p935
S'CC'
p936
S'B-PP'
p937
g5
tp938
a(S'postsham'
p939
S'postsham'
p940
S'NN'
p941
S'B-NP'
p942
g5
tp943
a(S'despite'
p944
S'despite'
p945
S'IN'
p946
S'B-PP'
p947
g5
tp948
a(S'nitric'
p949
S'nitric'
p950
S'JJ'
p951
S'B-NP'
p952
S'B-protein'
p953
tp954
a(S'oxide'
p955
S'oxide'
p956
S'NN'
p957
S'I-NP'
p958
S'I-protein'
p959
tp960
a(S'synthase'
p961
S'synthase'
p962
S'NN'
p963
S'I-NP'
p964
S'I-protein'
p965
tp966
a(S'inhibition'
p967
S'inhibition'
p968
S'NN'
p969
S'I-NP'
p970
g5
tp971
a(g267
g267
g267
g5
g5
tp972
a(S'e.g.'
p973
S'e.g.'
p974
S'FW'
p975
S'B-NP'
p976
g5
tp977
a(g576
g576
g576
g5
g5
tp978
a(S'mean'
p979
S'mean'
p980
S'JJ'
p981
S'B-NP'
p982
g5
tp983
a(S'arterial'
p984
S'arterial'
p985
S'JJ'
p986
S'I-NP'
p987
g5
tp988
a(S'pressure'
p989
S'pressure'
p990
S'NN'
p991
S'I-NP'
p992
g5
tp993
a(S'after'
p994
S'after'
p995
S'IN'
p996
S'B-SBAR'
p997
g5
tp998
a(S'L-NMMA'
p999
S'L-NMMA'
p1000
S'NN'
p1001
S'B-NP'
p1002
S'B-protein'
p1003
tp1004
a(S'was'
p1005
S'be'
p1006
S'VBD'
p1007
S'B-VP'
p1008
g5
tp1009
a(S'108.0+/-2.4'
p1010
S'108.0+/-2.4'
p1011
S'CD'
p1012
S'B-NP'
p1013
g5
tp1014
a(S'mmHg'
p1015
S'mmHg'
p1016
S'NN'
p1017
S'I-NP'
p1018
g5
tp1019
a(S'postsham'
p1020
S'postsham'
p1021
S'NN'
p1022
S'I-NP'
p1023
g5
tp1024
a(S'vs.'
p1025
S'vs.'
p1026
S'IN'
p1027
S'B-PP'
p1028
g5
tp1029
a(S'102.1+/-3.3'
p1030
S'102.1+/-3.3'
p1031
S'CD'
p1032
S'B-NP'
p1033
g5
tp1034
a(S'mmHg'
p1035
S'mmHg'
p1036
S'NN'
p1037
S'I-NP'
p1038
g5
tp1039
a(S'postexercise'
p1040
S'postexercise'
p1041
S'NN'
p1042
S'I-NP'
p1043
g5
tp1044
a(S';'
p1045
g1045
S':'
p1046
g5
g5
tp1047
a(S'P'
p1048
g1048
S'NN'
p1049
S'B-NP'
p1050
g5
tp1051
a(S'<'
p1052
g1052
S'SYM'
p1053
S'B-NP'
p1054
g5
tp1055
a(S'0.05'
p1056
S'0.05'
p1057
S'CD'
p1058
S'I-NP'
p1059
g5
tp1060
a(g278
g278
g278
g5
g5
tp1061
a(g65
g65
g65
g5
g5
tp1062
a(S'Thus'
p1063
S'Thus'
p1064
S'RB'
p1065
g5
g5
tp1066
a(S'it'
p1067
S'it'
p1068
S'PRP'
p1069
S'B-NP'
p1070
g5
tp1071
a(S'does'
p1072
S'do'
p1073
S'VBZ'
p1074
S'B-VP'
p1075
g5
tp1076
a(S'not'
p1077
S'not'
p1078
S'RB'
p1079
S'I-VP'
p1080
g5
tp1081
a(S'appear'
p1082
S'appear'
p1083
S'VB'
p1084
S'I-VP'
p1085
g5
tp1086
a(S'that'
p1087
S'that'
p1088
S'IN'
p1089
S'B-SBAR'
p1090
g5
tp1091
a(S'postexercise'
p1092
S'postexercise'
p1093
S'JJ'
p1094
S'B-NP'
p1095
g5
tp1096
a(S'hypotension'
p1097
S'hypotension'
p1098
S'NN'
p1099
S'I-NP'
p1100
g5
tp1101
a(S'is'
p1102
S'be'
p1103
S'VBZ'
p1104
S'B-VP'
p1105
g5
tp1106
a(S'dependent'
p1107
S'dependent'
p1108
S'JJ'
p1109
S'B-ADJP'
p1110
g5
tp1111
a(S'on'
p1112
S'on'
p1113
S'IN'
p1114
S'B-PP'
p1115
g5
tp1116
a(S'increased'
p1117
S'increase'
p1118
S'VBN'
p1119
S'B-NP'
p1120
g5
tp1121
a(S'production'
p1122
S'production'
p1123
S'NN'
p1124
S'I-NP'
p1125
g5
tp1126
a(S'of'
p1127
S'of'
p1128
S'IN'
p1129
S'B-PP'
p1130
g5
tp1131
a(S'nitric'
p1132
S'nitric'
p1133
S'JJ'
p1134
S'B-NP'
p1135
g5
tp1136
a(S'oxide'
p1137
S'oxide'
p1138
S'NN'
p1139
S'I-NP'
p1140
g5
tp1141
a(S'in'
p1142
S'in'
p1143
S'IN'
p1144
S'B-PP'
p1145
g5
tp1146
a(S'humans'
p1147
S'human'
p1148
S'NNS'
p1149
S'B-NP'
p1150
g5
tp1151
a(g65
g65
g65
g5
g5
tp1152
a.