(lp0
(S'Efficacy'
p1
S'Efficacy'
p2
S'NN'
p3
S'B-NP'
p4
S'O'
p5
tp6
a(S','
p7
g7
g7
S'I-NP'
p8
g5
tp9
a(S'tolerability'
p10
S'tolerability'
p11
S'NN'
p12
S'I-NP'
p13
g5
tp14
a(S'and'
p15
S'and'
p16
S'CC'
p17
S'I-NP'
p18
g5
tp19
a(S'pharmacokinetics'
p20
S'pharmacokinetic'
p21
S'NNS'
p22
S'I-NP'
p23
g5
tp24
a(S'of'
p25
S'of'
p26
S'IN'
p27
S'B-PP'
p28
g5
tp29
a(S'two'
p30
S'two'
p31
S'CD'
p32
S'B-NP'
p33
g5
tp34
a(S'nelfinavir-based'
p35
S'nelfinavir-based'
p36
S'JJ'
p37
S'I-NP'
p38
g5
tp39
a(S'regimens'
p40
S'regimen'
p41
S'NNS'
p42
S'I-NP'
p43
g5
tp44
a(S'in'
p45
S'in'
p46
S'IN'
p47
S'B-PP'
p48
g5
tp49
a(S'human'
p50
S'human'
p51
S'JJ'
p52
S'B-NP'
p53
g5
tp54
a(S'immunodeficiency'
p55
S'immunodeficiency'
p56
S'NN'
p57
S'I-NP'
p58
g5
tp59
a(S'virus-infected'
p60
S'virus-infected'
p61
S'JJ'
p62
S'I-NP'
p63
g5
tp64
a(S'children'
p65
S'child'
p66
S'NNS'
p67
S'I-NP'
p68
g5
tp69
a(S'and'
p70
S'and'
p71
S'CC'
p72
S'I-NP'
p73
g5
tp74
a(S'adolescents'
p75
S'adolescent'
p76
S'NNS'
p77
S'I-NP'
p78
g5
tp79
a(S':'
p80
g80
g80
g5
g5
tp81
a(S'pediatric'
p82
S'pediatric'
p83
S'JJ'
p84
S'B-NP'
p85
g5
tp86
a(S'AIDS'
p87
S'AIDS'
p88
S'NN'
p89
S'I-NP'
p90
g5
tp91
a(S'clinical'
p92
S'clinical'
p93
S'JJ'
p94
S'I-NP'
p95
g5
tp96
a(S'trials'
p97
S'trial'
p98
S'NNS'
p99
S'I-NP'
p100
g5
tp101
a(S'group'
p102
S'group'
p103
S'NN'
p104
S'I-NP'
p105
g5
tp106
a(S'protocol'
p107
S'protocol'
p108
S'NN'
p109
S'I-NP'
p110
g5
tp111
a(S'403'
p112
S'403'
p113
S'CD'
p114
S'I-NP'
p115
g5
tp116
a(S'.'
p117
g117
g117
g5
g5
tp118
a(S'INTRODUCTION'
p119
S'INTRODUCTION'
p120
S'NN'
p121
S'B-NP'
p122
g5
tp123
a(S'Few'
p124
S'Few'
p125
S'JJ'
p126
S'I-NP'
p127
g5
tp128
a(S'combinations'
p129
S'combination'
p130
S'NNS'
p131
S'I-NP'
p132
g5
tp133
a(S'of'
p134
S'of'
p135
S'IN'
p136
S'B-PP'
p137
g5
tp138
a(S'highly'
p139
S'highly'
p140
S'RB'
p141
S'B-NP'
p142
g5
tp143
a(S'active'
p144
S'active'
p145
S'JJ'
p146
S'I-NP'
p147
g5
tp148
a(S'antiretrovirals'
p149
S'antiretroviral'
p150
S'NNS'
p151
S'I-NP'
p152
g5
tp153
a(S'have'
p154
S'have'
p155
S'VBP'
p156
S'B-VP'
p157
g5
tp158
a(S'been'
p159
S'be'
p160
S'VBN'
p161
S'I-VP'
p162
g5
tp163
a(S'studied'
p164
S'study'
p165
S'VBN'
p166
S'I-VP'
p167
g5
tp168
a(S'in'
p169
S'in'
p170
S'IN'
p171
S'B-PP'
p172
g5
tp173
a(S'nucleoside'
p174
S'nucleoside'
p175
S'NN'
p176
S'B-NP'
p177
g5
tp178
a(S'reverse'
p179
S'reverse'
p180
S'JJ'
p181
S'I-NP'
p182
g5
tp183
a(S'transcription'
p184
S'transcription'
p185
S'NN'
p186
S'I-NP'
p187
g5
tp188
a(S'inhibitor'
p189
S'inhibitor'
p190
S'NN'
p191
S'I-NP'
p192
g5
tp193
a(S'('
p194
g194
g194
g5
g5
tp195
a(S'NRTI'
p196
S'NRTI'
p197
S'NN'
p198
S'B-NP'
p199
g5
tp200
a(S')'
p201
g201
g201
g5
g5
tp202
a(S'-experienced'
p203
S'-experienced'
p204
S'JJ'
p205
S'B-ADJP'
p206
g5
tp207
a(g7
g7
g7
g5
g5
tp208
a(S'human'
p209
S'human'
p210
S'JJ'
p211
S'B-NP'
p212
g5
tp213
a(S'immunodeficiency'
p214
S'immunodeficiency'
p215
S'NN'
p216
S'I-NP'
p217
g5
tp218
a(S'virus'
p219
S'virus'
p220
S'NN'
p221
S'I-NP'
p222
g5
tp223
a(g194
g194
g194
g5
g5
tp224
a(S'HIV'
p225
S'HIV'
p226
S'NN'
p227
S'B-NP'
p228
g5
tp229
a(g201
g201
g201
g5
g5
tp230
a(S'-infected'
p231
S'-infected'
p232
S'JJ'
p233
S'B-NP'
p234
g5
tp235
a(S'children.'
p236
S'children.'
p237
S'NNS'
p238
S'I-NP'
p239
g5
tp240
a(S'We'
p241
S'We'
p242
S'PRP'
p243
S'B-NP'
p244
g5
tp245
a(S'tested'
p246
S'test'
p247
S'VBD'
p248
S'B-VP'
p249
g5
tp250
a(S'the'
p251
S'the'
p252
S'DT'
p253
S'B-NP'
p254
g5
tp255
a(S'efficacy'
p256
S'efficacy'
p257
S'NN'
p258
S'I-NP'
p259
g5
tp260
a(g7
g7
g7
S'I-NP'
p261
g5
tp262
a(S'tolerability'
p263
S'tolerability'
p264
S'NN'
p265
S'I-NP'
p266
g5
tp267
a(S'and'
p268
S'and'
p269
S'CC'
p270
S'I-NP'
p271
g5
tp272
a(S'pharmacokinetics'
p273
S'pharmacokinetic'
p274
S'NNS'
p275
S'I-NP'
p276
g5
tp277
a(S'of'
p278
S'of'
p279
S'IN'
p280
S'B-PP'
p281
g5
tp282
a(S'2'
p283
g283
S'CD'
p284
S'B-NP'
p285
g5
tp286
a(S'combination'
p287
S'combination'
p288
S'NN'
p289
S'I-NP'
p290
g5
tp291
a(S'therapies'
p292
S'therapy'
p293
S'NNS'
p294
S'I-NP'
p295
g5
tp296
a(S'containing'
p297
S'contain'
p298
S'VBG'
p299
S'B-VP'
p300
g5
tp301
a(S'an'
p302
S'an'
p303
S'DT'
p304
S'B-NP'
p305
g5
tp306
a(S'NRTI'
p307
S'NRTI'
p308
S'NN'
p309
S'I-NP'
p310
S'B-DNA'
p311
tp312
a(g7
g7
g7
g5
g5
tp313
a(S'protease'
p314
S'protease'
p315
S'NN'
p316
S'B-NP'
p317
g5
tp318
a(S'inhibitors'
p319
S'inhibitor'
p320
S'NNS'
p321
S'I-NP'
p322
g5
tp323
a(S'+/-'
p324
S'+/-'
p325
S'CC'
p326
g5
g5
tp327
a(S'a'
p328
g328
S'DT'
p329
S'B-NP'
p330
g5
tp331
a(S'nonnucleoside'
p332
S'nonnucleoside'
p333
S'JJ'
p334
S'I-NP'
p335
g5
tp336
a(S'reverse'
p337
S'reverse'
p338
S'JJ'
p339
S'I-NP'
p340
g5
tp341
a(S'transcription'
p342
S'transcription'
p343
S'NN'
p344
S'I-NP'
p345
g5
tp346
a(S'inhibitor'
p347
S'inhibitor'
p348
S'NN'
p349
S'I-NP'
p350
g5
tp351
a(g194
g194
g194
g5
g5
tp352
a(S'NNRTI'
p353
S'NNRTI'
p354
S'NN'
p355
S'B-NP'
p356
S'B-protein'
p357
tp358
a(g201
g201
g201
g5
g5
tp359
a(g117
g117
g117
g5
g5
tp360
a(S'METHODS'
p361
S'METHODS'
p362
S'NNS'
p363
S'B-NP'
p364
g5
tp365
a(S'This'
p366
S'This'
p367
S'DT'
p368
g5
g5
tp369
a(S'was'
p370
S'be'
p371
S'VBD'
p372
S'B-VP'
p373
g5
tp374
a(g328
g328
S'DT'
p375
S'B-NP'
p376
g5
tp377
a(S'phase'
p378
S'phase'
p379
S'NN'
p380
S'I-NP'
p381
S'B-protein'
p382
tp383
a(S'II'
p384
S'II'
p385
S'CD'
p386
S'I-NP'
p387
S'I-protein'
p388
tp389
a(g7
g7
g7
g5
g5
tp390
a(S'randomized'
p391
S'randomize'
p392
S'VBN'
p393
S'B-NP'
p394
g5
tp395
a(g7
g7
g7
S'I-NP'
p396
g5
tp397
a(S'multicenter'
p398
S'multicenter'
p399
S'JJ'
p400
S'I-NP'
p401
g5
tp402
a(S'study.'
p403
S'study.'
p404
S'NN'
p405
S'I-NP'
p406
g5
tp407
a(S'Forty-one'
p408
S'Forty-one'
p409
S'NN'
p410
S'I-NP'
p411
g5
tp412
a(S'children'
p413
S'child'
p414
S'NNS'
p415
S'I-NP'
p416
g5
tp417
a(S'and'
p418
S'and'
p419
S'CC'
p420
S'I-NP'
p421
g5
tp422
a(S'youths'
p423
S'youth'
p424
S'NNS'
p425
S'I-NP'
p426
g5
tp427
a(S'between'
p428
S'between'
p429
S'IN'
p430
S'B-PP'
p431
g5
tp432
a(S'5'
p433
g433
S'CD'
p434
S'B-NP'
p435
g5
tp436
a(S'months'
p437
S'month'
p438
S'NNS'
p439
S'I-NP'
p440
g5
tp441
a(S'and'
p442
S'and'
p443
S'CC'
p444
g5
g5
tp445
a(S'21'
p446
S'21'
p447
S'CD'
p448
S'B-NP'
p449
g5
tp450
a(S'years'
p451
S'year'
p452
S'NNS'
p453
S'I-NP'
p454
g5
tp455
a(S'with'
p456
S'with'
p457
S'IN'
p458
S'B-PP'
p459
g5
tp460
a(S'prior'
p461
S'prior'
p462
S'JJ'
p463
S'B-NP'
p464
g5
tp465
a(S'NRTI'
p466
S'NRTI'
p467
S'NN'
p468
S'I-NP'
p469
g5
tp470
a(S'and'
p471
S'and'
p472
S'CC'
p473
g5
g5
tp474
a(S'no'
p475
S'no'
p476
S'DT'
p477
S'B-NP'
p478
g5
tp479
a(S'prior'
p480
S'prior'
p481
S'JJ'
p482
S'I-NP'
p483
g5
tp484
a(S'NNRTI'
p485
S'NNRTI'
p486
S'NN'
p487
S'I-NP'
p488
g5
tp489
a(S'or'
p490
S'or'
p491
S'CC'
p492
S'I-NP'
p493
g5
tp494
a(S'protease'
p495
S'protease'
p496
S'NN'
p497
S'I-NP'
p498
g5
tp499
a(S'inhibitor'
p500
S'inhibitor'
p501
S'NN'
p502
S'I-NP'
p503
g5
tp504
a(S'experience'
p505
S'experience'
p506
S'NN'
p507
S'I-NP'
p508
g5
tp509
a(S'received'
p510
S'receive'
p511
S'VBD'
p512
S'B-VP'
p513
g5
tp514
a(S'either'
p515
S'either'
p516
S'CC'
p517
g5
g5
tp518
a(S'nelfinavir'
p519
S'nelfinavir'
p520
S'NN'
p521
S'B-NP'
p522
g5
tp523
a(g194
g194
g194
g5
g5
tp524
a(S'NFV'
p525
S'NFV'
p526
S'NN'
p527
S'B-NP'
p528
S'B-protein'
p529
tp530
a(g201
g201
g201
g5
g5
tp531
a(S'30'
p532
S'30'
p533
S'CD'
p534
S'B-NP'
p535
g5
tp536
a(S'mg/kg'
p537
S'mg/kg'
p538
S'NN'
p539
S'I-NP'
p540
g5
tp541
a(S'twice'
p542
S'twice'
p543
S'RB'
p544
S'B-ADVP'
p545
g5
tp546
a(S'daily'
p547
S'daily'
p548
S'RB'
p549
g5
g5
tp550
a(g194
g194
g194
g5
g5
tp551
a(S'bid'
p552
S'bid'
p553
S'NN'
p554
S'B-NP'
p555
g5
tp556
a(g201
g201
g201
g5
g5
tp557
a(g7
g7
g7
g5
g5
tp558
a(S'ritonavir'
p559
S'ritonavir'
p560
S'NN'
p561
S'B-NP'
p562
g5
tp563
a(g194
g194
g194
g5
g5
tp564
a(S'RTV'
p565
S'RTV'
p566
S'NN'
p567
S'B-NP'
p568
g5
tp569
a(g201
g201
g201
g5
g5
tp570
a(S'400'
p571
S'400'
p572
S'CD'
p573
S'B-NP'
p574
g5
tp575
a(S'mg/m'
p576
S'mg/m'
p577
S'NN'
p578
S'I-NP'
p579
g5
tp580
a(S'bid'
p581
S'bid'
p582
S'NN'
p583
S'I-NP'
p584
g5
tp585
a(S'and'
p586
S'and'
p587
S'CC'
p588
g5
g5
tp589
a(S'buffered'
p590
S'buffer'
p591
S'VBN'
p592
S'B-NP'
p593
g5
tp594
a(S'didanosine'
p595
S'didanosine'
p596
S'NN'
p597
S'I-NP'
p598
g5
tp599
a(g194
g194
g194
g5
g5
tp600
a(S'ddI'
p601
S'ddI'
p602
S'NN'
p603
S'B-NP'
p604
g5
tp605
a(g201
g201
g201
g5
g5
tp606
a(S'240'
p607
S'240'
p608
S'CD'
p609
S'B-NP'
p610
g5
tp611
a(S'mg/m'
p612
S'mg/m'
p613
S'NN'
p614
S'I-NP'
p615
g5
tp616
a(S'daily'
p617
S'daily'
p618
S'JJ'
p619
S'I-NP'
p620
g5
tp621
a(g194
g194
g194
g5
g5
tp622
a(S'arm'
p623
S'arm'
p624
S'NN'
p625
S'B-NP'
p626
g5
tp627
a(S'A'
p628
g628
S'NN'
p629
S'I-NP'
p630
g5
tp631
a(g201
g201
g201
g5
g5
tp632
a(S'or'
p633
S'or'
p634
S'CC'
p635
g5
g5
tp636
a(S'NFV'
p637
S'NFV'
p638
S'NN'
p639
S'B-NP'
p640
g5
tp641
a(S'50-55'
p642
S'50-55'
p643
S'CD'
p644
S'I-NP'
p645
g5
tp646
a(S'mg/kg'
p647
S'mg/kg'
p648
S'NN'
p649
S'I-NP'
p650
g5
tp651
a(S'bid'
p652
S'bid'
p653
S'NN'
p654
S'I-NP'
p655
g5
tp656
a(g7
g7
g7
g5
g5
tp657
a(S'nevirapine'
p658
S'nevirapine'
p659
S'NN'
p660
S'B-NP'
p661
g5
tp662
a(g194
g194
g194
g5
g5
tp663
a(S'NVP'
p664
S'NVP'
p665
S'NN'
p666
S'B-NP'
p667
g5
tp668
a(g201
g201
g201
g5
g5
tp669
a(S'120'
p670
S'120'
p671
S'CD'
p672
S'B-NP'
p673
g5
tp674
a(S'mg/m'
p675
S'mg/m'
p676
S'NN'
p677
S'I-NP'
p678
g5
tp679
a(S'bid'
p680
S'bid'
p681
S'NN'
p682
S'I-NP'
p683
g5
tp684
a(S'and'
p685
S'and'
p686
S'CC'
p687
g5
g5
tp688
a(S'stavudine'
p689
S'stavudine'
p690
S'NN'
p691
S'B-NP'
p692
g5
tp693
a(g194
g194
g194
g5
g5
tp694
a(S'd4T'
p695
S'd4T'
p696
S'NN'
p697
S'B-NP'
p698
g5
tp699
a(g201
g201
g201
g5
g5
tp700
a(S'1'
p701
g701
S'CD'
p702
S'B-NP'
p703
g5
tp704
a(S'mg/kg'
p705
S'mg/kg'
p706
S'NN'
p707
S'I-NP'
p708
g5
tp709
a(S'bid'
p710
S'bid'
p711
S'NN'
p712
S'I-NP'
p713
g5
tp714
a(g194
g194
g194
g5
g5
tp715
a(S'arm'
p716
S'arm'
p717
S'NN'
p718
S'B-NP'
p719
S'B-DNA'
p720
tp721
a(S'B'
p722
g722
S'NN'
p723
S'I-NP'
p724
S'I-DNA'
p725
tp726
a(g201
g201
g201
g5
g5
tp727
a(g117
g117
g117
g5
g5
tp728
a(S'Patients'
p729
S'Patient'
p730
S'NNS'
p731
S'B-NP'
p732
g5
tp733
a(S'were'
p734
S'be'
p735
S'VBD'
p736
S'B-VP'
p737
g5
tp738
a(S'evaluated'
p739
S'evaluate'
p740
S'VBN'
p741
S'I-VP'
p742
g5
tp743
a(S'clinically'
p744
S'clinically'
p745
S'RB'
p746
S'B-ADVP'
p747
g5
tp748
a(S'for'
p749
S'for'
p750
S'IN'
p751
S'B-PP'
p752
g5
tp753
a(S'48'
p754
S'48'
p755
S'CD'
p756
S'B-NP'
p757
g5
tp758
a(S'weeks'
p759
S'week'
p760
S'NNS'
p761
S'I-NP'
p762
g5
tp763
a(S'after'
p764
S'after'
p765
S'IN'
p766
S'B-PP'
p767
g5
tp768
a(S'initiation'
p769
S'initiation'
p770
S'NN'
p771
S'B-NP'
p772
g5
tp773
a(S'of'
p774
S'of'
p775
S'IN'
p776
S'B-PP'
p777
g5
tp778
a(S'therapy.'
p779
S'therapy.'
p780
S'DT'
p781
S'B-NP'
p782
g5
tp783
a(S'Intensive'
p784
S'Intensive'
p785
S'JJ'
p786
S'I-NP'
p787
g5
tp788
a(S'pharmacokinetic'
p789
S'pharmacokinetic'
p790
S'JJ'
p791
S'I-NP'
p792
g5
tp793
a(S'sampling'
p794
S'sampling'
p795
S'NN'
p796
S'I-NP'
p797
g5
tp798
a(S'occurred'
p799
S'occur'
p800
S'VBD'
p801
S'B-VP'
p802
g5
tp803
a(S'after'
p804
S'after'
p805
S'IN'
p806
S'B-PP'
p807
g5
tp808
a(S'4'
p809
g809
S'CD'
p810
S'B-NP'
p811
g5
tp812
a(S'weeks'
p813
S'week'
p814
S'NNS'
p815
S'I-NP'
p816
g5
tp817
a(S'of'
p818
S'of'
p819
S'IN'
p820
S'B-PP'
p821
g5
tp822
a(S'therapy'
p823
S'therapy'
p824
S'NN'
p825
S'B-NP'
p826
g5
tp827
a(g117
g117
g117
g5
g5
tp828
a(S'RESULTS'
p829
S'RESULTS'
p830
S'NNS'
p831
S'B-NP'
p832
g5
tp833
a(g80
g80
g80
g5
g5
tp834
a(S'The'
p835
S'The'
p836
S'DT'
p837
S'B-NP'
p838
g5
tp839
a(S'proportion'
p840
S'proportion'
p841
S'NN'
p842
S'I-NP'
p843
g5
tp844
a(S'of'
p845
S'of'
p846
S'IN'
p847
S'B-PP'
p848
g5
tp849
a(S'children'
p850
S'child'
p851
S'NNS'
p852
S'B-NP'
p853
g5
tp854
a(S'with'
p855
S'with'
p856
S'IN'
p857
S'B-PP'
p858
g5
tp859
a(S'HIV-1'
p860
S'HIV-1'
p861
S'NN'
p862
S'B-NP'
p863
S'B-RNA'
p864
tp865
a(S'RNA'
p866
S'RNA'
p867
S'NN'
p868
S'I-NP'
p869
S'I-RNA'
p870
tp871
a(S'<'
p872
g872
S'SYM'
p873
S'B-VP'
p874
g5
tp875
a(S'or'
p876
S'or'
p877
S'CC'
p878
g5
g5
tp879
a(S'=400'
p880
S'=400'
p881
S'CD'
p882
S'B-NP'
p883
g5
tp884
a(S'copies/mL'
p885
S'copies/mL'
p886
S'NN'
p887
S'I-NP'
p888
g5
tp889
a(S'and'
p890
S'and'
p891
S'CC'
p892
S'B-PP'
p893
g5
tp894
a(S'on'
p895
S'on'
p896
S'IN'
p897
S'B-PP'
p898
g5
tp899
a(S'randomized'
p900
S'randomize'
p901
S'VBN'
p902
S'B-NP'
p903
g5
tp904
a(S'treatment'
p905
S'treatment'
p906
S'NN'
p907
S'I-NP'
p908
g5
tp909
a(S'at'
p910
S'at'
p911
S'IN'
p912
S'B-PP'
p913
g5
tp914
a(S'48'
p915
S'48'
p916
S'CD'
p917
S'B-NP'
p918
g5
tp919
a(S'weeks'
p920
S'week'
p921
S'NNS'
p922
S'I-NP'
p923
g5
tp924
a(S'was'
p925
S'be'
p926
S'VBD'
p927
S'B-VP'
p928
g5
tp929
a(S'65'
p930
S'65'
p931
S'CD'
p932
S'B-NP'
p933
g5
tp934
a(S'%'
p935
g935
S'NN'
p936
S'I-NP'
p937
g5
tp938
a(S'among'
p939
S'among'
p940
S'IN'
p941
S'B-PP'
p942
g5
tp943
a(S'children'
p944
S'child'
p945
S'NNS'
p946
S'B-NP'
p947
g5
tp948
a(S'assigned'
p949
S'assign'
p950
S'VBN'
p951
S'B-VP'
p952
g5
tp953
a(S'NFV'
p954
S'NFV'
p955
S'NN'
p956
S'B-NP'
p957
S'B-protein'
p958
tp959
a(S'+'
p960
g960
S'SYM'
p961
S'I-NP'
p962
g5
tp963
a(S'RTV'
p964
S'RTV'
p965
S'NN'
p966
S'I-NP'
p967
g5
tp968
a(g960
g960
S'SYM'
p969
S'B-NP'
p970
g5
tp971
a(S'ddI'
p972
S'ddI'
p973
S'NN'
p974
S'I-NP'
p975
g5
tp976
a(S'versus'
p977
S'versus'
p978
S'IN'
p979
S'B-PP'
p980
g5
tp981
a(S'28'
p982
S'28'
p983
S'CD'
p984
S'B-NP'
p985
g5
tp986
a(g935
g935
S'NN'
p987
S'I-NP'
p988
g5
tp989
a(S'among'
p990
S'among'
p991
S'IN'
p992
S'B-PP'
p993
g5
tp994
a(S'those'
p995
S'those'
p996
S'DT'
p997
S'B-NP'
p998
g5
tp999
a(S'assigned'
p1000
S'assign'
p1001
S'VBN'
p1002
S'I-NP'
p1003
g5
tp1004
a(S'NFV'
p1005
S'NFV'
p1006
S'NN'
p1007
S'I-NP'
p1008
S'B-protein'
p1009
tp1010
a(g960
g960
S'SYM'
p1011
g5
g5
tp1012
a(S'NVP'
p1013
S'NVP'
p1014
S'NN'
p1015
g5
S'B-protein'
p1016
tp1017
a(g960
g960
S'SYM'
p1018
g5
g5
tp1019
a(S'd4T'
p1020
S'd4T'
p1021
S'NN'
p1022
S'B-NP'
p1023
g5
tp1024
a(g194
g194
g194
g5
g5
tp1025
a(S'P'
p1026
g1026
S'NN'
p1027
S'B-NP'
p1028
g5
tp1029
a(S'='
p1030
g1030
S'SYM'
p1031
S'B-VP'
p1032
g5
tp1033
a(S'0.039'
p1034
S'0.039'
p1035
S'CD'
p1036
S'B-NP'
p1037
g5
tp1038
a(g201
g201
g201
g5
g5
tp1039
a(g117
g117
g117
g5
g5
tp1040
a(S'No'
p1041
S'No'
p1042
S'DT'
p1043
S'B-NP'
p1044
g5
tp1045
a(S'significant'
p1046
S'significant'
p1047
S'JJ'
p1048
S'I-NP'
p1049
g5
tp1050
a(S'difference'
p1051
S'difference'
p1052
S'NN'
p1053
S'I-NP'
p1054
g5
tp1055
a(S'in'
p1056
S'in'
p1057
S'IN'
p1058
S'B-PP'
p1059
g5
tp1060
a(S'median'
p1061
S'median'
p1062
S'JJ'
p1063
S'B-NP'
p1064
g5
tp1065
a(S'CD4'
p1066
S'CD4'
p1067
S'NN'
p1068
S'I-NP'
p1069
g5
tp1070
a(g935
g935
S'NN'
p1071
S'I-NP'
p1072
g5
tp1073
a(S'change'
p1074
S'change'
p1075
S'NN'
p1076
S'I-NP'
p1077
g5
tp1078
a(S'from'
p1079
S'from'
p1080
S'IN'
p1081
S'B-PP'
p1082
g5
tp1083
a(S'baseline'
p1084
S'baseline'
p1085
S'NN'
p1086
S'B-NP'
p1087
g5
tp1088
a(S'to'
p1089
S'to'
p1090
S'TO'
p1091
S'B-PP'
p1092
g5
tp1093
a(S'week'
p1094
S'week'
p1095
S'NN'
p1096
S'B-NP'
p1097
g5
tp1098
a(S'48'
p1099
S'48'
p1100
S'CD'
p1101
S'I-NP'
p1102
g5
tp1103
a(S'was'
p1104
S'be'
p1105
S'VBD'
p1106
S'B-VP'
p1107
g5
tp1108
a(S'found'
p1109
S'find'
p1110
S'VBN'
p1111
S'I-VP'
p1112
g5
tp1113
a(g194
g194
g194
g5
g5
tp1114
a(S'3'
p1115
g1115
S'CD'
p1116
S'B-NP'
p1117
g5
tp1118
a(g935
g935
S'NN'
p1119
S'I-NP'
p1120
g5
tp1121
a(S'versus'
p1122
S'versus'
p1123
S'IN'
p1124
S'B-PP'
p1125
g5
tp1126
a(g701
g701
S'CD'
p1127
S'B-NP'
p1128
g5
tp1129
a(g935
g935
S'NN'
p1130
S'I-NP'
p1131
g5
tp1132
a(g201
g201
g201
g5
g5
tp1133
a(g117
g117
g117
g5
g5
tp1134
a(S'No'
p1135
S'No'
p1136
S'DT'
p1137
S'B-NP'
p1138
g5
tp1139
a(S'significant'
p1140
S'significant'
p1141
S'JJ'
p1142
S'I-NP'
p1143
g5
tp1144
a(S'differences'
p1145
S'difference'
p1146
S'NNS'
p1147
S'I-NP'
p1148
g5
tp1149
a(S'in'
p1150
S'in'
p1151
S'IN'
p1152
S'B-PP'
p1153
g5
tp1154
a(S'safety'
p1155
S'safety'
p1156
S'NN'
p1157
S'B-NP'
p1158
g5
tp1159
a(S'or'
p1160
S'or'
p1161
S'CC'
p1162
S'I-NP'
p1163
g5
tp1164
a(S'tolerability'
p1165
S'tolerability'
p1166
S'NN'
p1167
S'I-NP'
p1168
g5
tp1169
a(S'between'
p1170
S'between'
p1171
S'IN'
p1172
S'B-PP'
p1173
g5
tp1174
a(S'children'
p1175
S'child'
p1176
S'NNS'
p1177
S'B-NP'
p1178
g5
tp1179
a(S'randomized'
p1180
S'randomize'
p1181
S'VBN'
p1182
S'B-VP'
p1183
g5
tp1184
a(S'to'
p1185
S'to'
p1186
S'TO'
p1187
S'B-PP'
p1188
g5
tp1189
a(S'NFV'
p1190
S'NFV'
p1191
S'NN'
p1192
S'B-NP'
p1193
S'B-protein'
p1194
tp1195
a(g960
g960
S'SYM'
p1196
S'B-NP'
p1197
g5
tp1198
a(S'RTV'
p1199
S'RTV'
p1200
S'NN'
p1201
S'I-NP'
p1202
g5
tp1203
a(g960
g960
S'SYM'
p1204
S'I-NP'
p1205
g5
tp1206
a(S'ddI'
p1207
S'ddI'
p1208
S'NN'
p1209
S'I-NP'
p1210
g5
tp1211
a(S'versus'
p1212
S'versus'
p1213
S'IN'
p1214
S'B-PP'
p1215
g5
tp1216
a(S'NFV'
p1217
S'NFV'
p1218
S'NN'
p1219
S'B-NP'
p1220
S'B-protein'
p1221
tp1222
a(g960
g960
S'SYM'
p1223
S'B-NP'
p1224
g5
tp1225
a(S'NVP'
p1226
S'NVP'
p1227
S'NN'
p1228
S'I-NP'
p1229
S'B-protein'
p1230
tp1231
a(g960
g960
S'SYM'
p1232
S'B-NP'
p1233
g5
tp1234
a(S'd4T'
p1235
S'd4T'
p1236
S'NN'
p1237
S'I-NP'
p1238
g5
tp1239
a(S'were'
p1240
S'be'
p1241
S'VBD'
p1242
S'B-VP'
p1243
g5
tp1244
a(S'identified.'
p1245
S'identified.'
p1246
S'VBN'
p1247
S'I-VP'
p1248
g5
tp1249
a(S'However'
p1250
S'However'
p1251
S'RB'
p1252
S'B-ADVP'
p1253
g5
tp1254
a(g7
g7
g7
g5
g5
tp1255
a(g328
g328
S'DT'
p1256
S'B-NP'
p1257
g5
tp1258
a(S'trend'
p1259
S'trend'
p1260
S'NN'
p1261
S'I-NP'
p1262
g5
tp1263
a(S'toward'
p1264
S'toward'
p1265
S'IN'
p1266
S'B-PP'
p1267
g5
tp1268
a(g328
g328
S'DT'
p1269
S'B-NP'
p1270
g5
tp1271
a(S'higher'
p1272
S'high'
p1273
S'JJR'
p1274
S'I-NP'
p1275
g5
tp1276
a(S'rate'
p1277
S'rate'
p1278
S'NN'
p1279
S'I-NP'
p1280
g5
tp1281
a(S'of'
p1282
S'of'
p1283
S'IN'
p1284
S'B-PP'
p1285
g5
tp1286
a(S'permanent'
p1287
S'permanent'
p1288
S'JJ'
p1289
S'B-NP'
p1290
g5
tp1291
a(S'discontinuation'
p1292
S'discontinuation'
p1293
S'NN'
p1294
S'I-NP'
p1295
g5
tp1296
a(S'of'
p1297
S'of'
p1298
S'IN'
p1299
S'B-PP'
p1300
g5
tp1301
a(S'study'
p1302
S'study'
p1303
S'NN'
p1304
S'B-NP'
p1305
g5
tp1306
a(S'treatment'
p1307
S'treatment'
p1308
S'NN'
p1309
S'I-NP'
p1310
g5
tp1311
a(S'was'
p1312
S'be'
p1313
S'VBD'
p1314
S'B-VP'
p1315
g5
tp1316
a(S'noted'
p1317
S'note'
p1318
S'VBN'
p1319
S'I-VP'
p1320
g5
tp1321
a(S'among'
p1322
S'among'
p1323
S'IN'
p1324
S'B-PP'
p1325
g5
tp1326
a(S'children'
p1327
S'child'
p1328
S'NNS'
p1329
S'B-NP'
p1330
g5
tp1331
a(S'assigned'
p1332
S'assign'
p1333
S'VBN'
p1334
S'B-VP'
p1335
g5
tp1336
a(S'to'
p1337
S'to'
p1338
S'TO'
p1339
S'B-PP'
p1340
g5
tp1341
a(S'NFV'
p1342
S'NFV'
p1343
S'NN'
p1344
S'B-NP'
p1345
S'B-protein'
p1346
tp1347
a(g960
g960
S'SYM'
p1348
S'B-NP'
p1349
g5
tp1350
a(S'NVP'
p1351
S'NVP'
p1352
S'NN'
p1353
S'I-NP'
p1354
S'B-protein'
p1355
tp1356
a(g960
g960
S'SYM'
p1357
S'B-NP'
p1358
g5
tp1359
a(S'd4T'
p1360
S'd4T'
p1361
S'NN'
p1362
S'I-NP'
p1363
g5
tp1364
a(S'compared'
p1365
S'compare'
p1366
S'VBN'
p1367
S'B-PP'
p1368
g5
tp1369
a(S'with'
p1370
S'with'
p1371
S'IN'
p1372
S'B-PP'
p1373
g5
tp1374
a(S'NFV'
p1375
S'NFV'
p1376
S'NN'
p1377
S'B-NP'
p1378
S'B-protein'
p1379
tp1380
a(g960
g960
S'SYM'
p1381
S'I-NP'
p1382
g5
tp1383
a(S'RTV'
p1384
S'RTV'
p1385
S'NN'
p1386
S'I-NP'
p1387
g5
tp1388
a(g960
g960
S'SYM'
p1389
S'B-NP'
p1390
g5
tp1391
a(S'ddI'
p1392
S'ddI'
p1393
S'NN'
p1394
S'I-NP'
p1395
g5
tp1396
a(S'['
p1397
g1397
g194
g5
g5
tp1398
a(S'7'
p1399
g1399
S'CD'
p1400
S'B-NP'
p1401
g5
tp1402
a(S'of'
p1403
S'of'
p1404
S'IN'
p1405
S'B-PP'
p1406
g5
tp1407
a(S'20'
p1408
S'20'
p1409
S'CD'
p1410
S'B-NP'
p1411
g5
tp1412
a(g194
g194
g194
g5
g5
tp1413
a(S'35'
p1414
S'35'
p1415
S'CD'
p1416
S'B-NP'
p1417
g5
tp1418
a(g935
g935
S'NN'
p1419
S'I-NP'
p1420
g5
tp1421
a(g201
g201
g201
g5
g5
tp1422
a(S'versus'
p1423
S'versus'
p1424
S'IN'
p1425
S'B-PP'
p1426
g5
tp1427
a(g283
g283
S'CD'
p1428
S'B-NP'
p1429
g5
tp1430
a(S'of'
p1431
S'of'
p1432
S'IN'
p1433
S'B-PP'
p1434
g5
tp1435
a(S'21'
p1436
S'21'
p1437
S'CD'
p1438
S'B-NP'
p1439
g5
tp1440
a(g194
g194
g194
g5
g5
tp1441
a(S'10'
p1442
S'10'
p1443
S'CD'
p1444
S'B-NP'
p1445
g5
tp1446
a(g935
g935
S'NN'
p1447
S'I-NP'
p1448
g5
tp1449
a(g201
g201
g201
g5
g5
tp1450
a(S';'
p1451
g1451
g80
g5
g5
tp1452
a(g1026
g1026
S'NN'
p1453
S'B-NP'
p1454
g5
tp1455
a(g1030
g1030
S'SYM'
p1456
S'B-VP'
p1457
g5
tp1458
a(S'0.12'
p1459
S'0.12'
p1460
S'CD'
p1461
S'B-NP'
p1462
g5
tp1463
a(S']'
p1464
g1464
g201
g5
g5
tp1465
a(g117
g117
g117
g5
g5
tp1466
a(S'NFV'
p1467
S'NFV'
p1468
S'NN'
p1469
S'B-NP'
p1470
S'B-protein'
p1471
tp1472
a(S'pharmacokinetic'
p1473
S'pharmacokinetic'
p1474
S'JJ'
p1475
S'I-NP'
p1476
g5
tp1477
a(S'measurements'
p1478
S'measurement'
p1479
S'NNS'
p1480
S'I-NP'
p1481
g5
tp1482
a(S'were'
p1483
S'be'
p1484
S'VBD'
p1485
S'B-VP'
p1486
g5
tp1487
a(S'not'
p1488
S'not'
p1489
S'RB'
p1490
g5
g5
tp1491
a(S'statistically'
p1492
S'statistically'
p1493
S'RB'
p1494
S'B-ADJP'
p1495
g5
tp1496
a(S'different'
p1497
S'different'
p1498
S'JJ'
p1499
S'I-ADJP'
p1500
g5
tp1501
a(S'between'
p1502
S'between'
p1503
S'IN'
p1504
S'B-PP'
p1505
g5
tp1506
a(S'the'
p1507
S'the'
p1508
S'DT'
p1509
S'B-NP'
p1510
g5
tp1511
a(S'treatment'
p1512
S'treatment'
p1513
S'NN'
p1514
S'I-NP'
p1515
g5
tp1516
a(S'groups'
p1517
S'group'
p1518
S'NNS'
p1519
S'I-NP'
p1520
g5
tp1521
a(g7
g7
g7
g5
g5
tp1522
a(S'yet'
p1523
S'yet'
p1524
S'RB'
p1525
S'B-NP'
p1526
g5
tp1527
a(S'exposure'
p1528
S'exposure'
p1529
S'NN'
p1530
S'I-NP'
p1531
g5
tp1532
a(S'to'
p1533
S'to'
p1534
S'TO'
p1535
S'B-PP'
p1536
g5
tp1537
a(S'the'
p1538
S'the'
p1539
S'DT'
p1540
S'B-NP'
p1541
g5
tp1542
a(S'NFV'
p1543
S'NFV'
p1544
S'NN'
p1545
S'I-NP'
p1546
g5
tp1547
a(S'metabolite'
p1548
S'metabolite'
p1549
S'NN'
p1550
S'I-NP'
p1551
g5
tp1552
a(g7
g7
g7
g5
g5
tp1553
a(S'M8'
p1554
S'M8'
p1555
S'NN'
p1556
S'B-NP'
p1557
S'B-cell_line'
p1558
tp1559
a(g7
g7
g7
g5
g5
tp1560
a(S'was'
p1561
S'be'
p1562
S'VBD'
p1563
S'B-VP'
p1564
g5
tp1565
a(S'significantly'
p1566
S'significantly'
p1567
S'RB'
p1568
S'B-ADJP'
p1569
g5
tp1570
a(S'higher'
p1571
S'high'
p1572
S'JJR'
p1573
S'I-ADJP'
p1574
g5
tp1575
a(S'in'
p1576
S'in'
p1577
S'IN'
p1578
S'B-PP'
p1579
g5
tp1580
a(S'subjects'
p1581
S'subject'
p1582
S'NNS'
p1583
S'B-NP'
p1584
g5
tp1585
a(S'receiving'
p1586
S'receive'
p1587
S'VBG'
p1588
S'B-VP'
p1589
g5
tp1590
a(S'RTV.'
p1591
S'RTV.'
p1592
S'NNP'
p1593
S'B-NP'
p1594
g5
tp1595
a(S'The'
p1596
S'The'
p1597
S'DT'
p1598
S'B-NP'
p1599
g5
tp1600
a(S'pharmacokinetics'
p1601
S'pharmacokinetic'
p1602
S'NNS'
p1603
S'I-NP'
p1604
g5
tp1605
a(S'for'
p1606
S'for'
p1607
S'IN'
p1608
S'B-PP'
p1609
g5
tp1610
a(S'NVP'
p1611
S'NVP'
p1612
S'NN'
p1613
S'B-NP'
p1614
S'B-protein'
p1615
tp1616
a(g7
g7
g7
S'I-NP'
p1617
g5
tp1618
a(S'RTV'
p1619
S'RTV'
p1620
S'NN'
p1621
S'I-NP'
p1622
g5
tp1623
a(S'and'
p1624
S'and'
p1625
S'CC'
p1626
S'I-NP'
p1627
g5
tp1628
a(S'd4T'
p1629
S'd4T'
p1630
S'NN'
p1631
S'I-NP'
p1632
g5
tp1633
a(S'were'
p1634
S'be'
p1635
S'VBD'
p1636
S'B-VP'
p1637
g5
tp1638
a(S'similar'
p1639
S'similar'
p1640
S'JJ'
p1641
S'B-ADJP'
p1642
g5
tp1643
a(S'to'
p1644
S'to'
p1645
S'TO'
p1646
S'B-PP'
p1647
g5
tp1648
a(S'those'
p1649
S'those'
p1650
S'DT'
p1651
S'B-NP'
p1652
g5
tp1653
a(S'of'
p1654
S'of'
p1655
S'IN'
p1656
S'B-PP'
p1657
g5
tp1658
a(S'previously'
p1659
S'previously'
p1660
S'RB'
p1661
S'B-NP'
p1662
g5
tp1663
a(S'reported'
p1664
S'report'
p1665
S'VBN'
p1666
S'I-NP'
p1667
g5
tp1668
a(S'data'
p1669
S'datum'
p1670
S'NNS'
p1671
S'I-NP'
p1672
g5
tp1673
a(g117
g117
g117
g5
g5
tp1674
a(S'CONCLUSION'
p1675
S'CONCLUSION'
p1676
S'NN'
p1677
S'B-NP'
p1678
g5
tp1679
a(g80
g80
g80
g5
g5
tp1680
a(S'Combination'
p1681
S'Combination'
p1682
S'NN'
p1683
S'B-NP'
p1684
g5
tp1685
a(S'therapy'
p1686
S'therapy'
p1687
S'NN'
p1688
S'I-NP'
p1689
g5
tp1690
a(S'containing'
p1691
S'contain'
p1692
S'VBG'
p1693
S'B-VP'
p1694
g5
tp1695
a(S'NFV'
p1696
S'NFV'
p1697
S'NN'
p1698
S'B-NP'
p1699
S'B-protein'
p1700
tp1701
a(g960
g960
S'SYM'
p1702
S'B-NP'
p1703
g5
tp1704
a(S'RTV'
p1705
S'RTV'
p1706
S'NN'
p1707
S'I-NP'
p1708
g5
tp1709
a(g960
g960
S'SYM'
p1710
S'B-NP'
p1711
g5
tp1712
a(S'ddI'
p1713
S'ddI'
p1714
S'NN'
p1715
S'I-NP'
p1716
g5
tp1717
a(S'appears'
p1718
S'appear'
p1719
S'VBZ'
p1720
S'B-VP'
p1721
g5
tp1722
a(S'more'
p1723
S'more'
p1724
S'RBR'
p1725
S'B-ADJP'
p1726
g5
tp1727
a(S'efficacious'
p1728
S'efficacious'
p1729
S'JJ'
p1730
S'I-ADJP'
p1731
g5
tp1732
a(S'in'
p1733
S'in'
p1734
S'IN'
p1735
S'B-PP'
p1736
g5
tp1737
a(S'NRTI-experienced'
p1738
S'NRTI-experienced'
p1739
S'JJ'
p1740
S'B-NP'
p1741
g5
tp1742
a(S'children'
p1743
S'child'
p1744
S'NNS'
p1745
S'I-NP'
p1746
g5
tp1747
a(S'than'
p1748
S'than'
p1749
S'IN'
p1750
S'B-PP'
p1751
g5
tp1752
a(g328
g328
S'DT'
p1753
S'B-NP'
p1754
g5
tp1755
a(S'regimen'
p1756
S'regimen'
p1757
S'NN'
p1758
S'I-NP'
p1759
g5
tp1760
a(S'containing'
p1761
S'contain'
p1762
S'VBG'
p1763
S'B-VP'
p1764
g5
tp1765
a(S'NFV'
p1766
S'NFV'
p1767
S'NN'
p1768
S'B-NP'
p1769
S'B-protein'
p1770
tp1771
a(g960
g960
S'SYM'
p1772
S'B-NP'
p1773
g5
tp1774
a(S'NVP'
p1775
S'NVP'
p1776
S'NN'
p1777
S'I-NP'
p1778
S'B-protein'
p1779
tp1780
a(g960
g960
S'SYM'
p1781
S'B-NP'
p1782
g5
tp1783
a(S'd4T.'
p1784
S'd4T.'
p1785
S'NN'
p1786
S'B-NP'
p1787
g5
tp1788
a(S'Differences'
p1789
S'Difference'
p1790
S'NNS'
p1791
S'I-NP'
p1792
g5
tp1793
a(S'in'
p1794
S'in'
p1795
S'IN'
p1796
S'B-PP'
p1797
g5
tp1798
a(S'tolerability'
p1799
S'tolerability'
p1800
S'NN'
p1801
S'B-NP'
p1802
g5
tp1803
a(S'between'
p1804
S'between'
p1805
S'IN'
p1806
S'B-PP'
p1807
g5
tp1808
a(S'the'
p1809
S'the'
p1810
S'DT'
p1811
S'B-NP'
p1812
g5
tp1813
a(g283
g283
S'CD'
p1814
S'I-NP'
p1815
g5
tp1816
a(S'treatment'
p1817
S'treatment'
p1818
S'NN'
p1819
S'I-NP'
p1820
g5
tp1821
a(S'groups'
p1822
S'group'
p1823
S'NNS'
p1824
S'I-NP'
p1825
g5
tp1826
a(S'were'
p1827
S'be'
p1828
S'VBD'
p1829
S'B-VP'
p1830
g5
tp1831
a(S'not'
p1832
S'not'
p1833
S'RB'
p1834
S'I-VP'
p1835
g5
tp1836
a(S'identified.'
p1837
S'identified.'
p1838
S'VB'
p1839
S'I-VP'
p1840
g5
tp1841
a(S'Systemic'
p1842
S'Systemic'
p1843
S'JJ'
p1844
S'B-NP'
p1845
g5
tp1846
a(S'exposure'
p1847
S'exposure'
p1848
S'NN'
p1849
S'I-NP'
p1850
g5
tp1851
a(S'of'
p1852
S'of'
p1853
S'IN'
p1854
S'B-PP'
p1855
g5
tp1856
a(S'these'
p1857
S'these'
p1858
S'DT'
p1859
S'B-NP'
p1860
g5
tp1861
a(S'drugs'
p1862
S'drug'
p1863
S'NNS'
p1864
S'I-NP'
p1865
g5
tp1866
a(S'was'
p1867
S'be'
p1868
S'VBD'
p1869
S'B-VP'
p1870
g5
tp1871
a(S'similar'
p1872
S'similar'
p1873
S'JJ'
p1874
S'B-ADJP'
p1875
g5
tp1876
a(S'to'
p1877
S'to'
p1878
S'TO'
p1879
S'B-PP'
p1880
g5
tp1881
a(S'that'
p1882
S'that'
p1883
S'DT'
p1884
S'B-NP'
p1885
g5
tp1886
a(S'reported'
p1887
S'report'
p1888
S'VBN'
p1889
S'B-VP'
p1890
g5
tp1891
a(S'in'
p1892
S'in'
p1893
S'IN'
p1894
S'B-PP'
p1895
g5
tp1896
a(S'other'
p1897
S'other'
p1898
S'JJ'
p1899
S'B-NP'
p1900
g5
tp1901
a(S'HIV-infected'
p1902
S'HIV-infected'
p1903
S'JJ'
p1904
S'I-NP'
p1905
g5
tp1906
a(S'children'
p1907
S'child'
p1908
S'NNS'
p1909
S'I-NP'
p1910
g5
tp1911
a(S'and'
p1912
S'and'
p1913
S'CC'
p1914
S'I-NP'
p1915
g5
tp1916
a(S'adults'
p1917
S'adult'
p1918
S'NNS'
p1919
S'I-NP'
p1920
g5
tp1921
a(g117
g117
g117
g5
g5
tp1922
a.