(lp0
(S'Does'
p1
S'Do'
p2
S'VBZ'
p3
S'O'
p4
g4
tp5
a(S'tetanus'
p6
S'tetanus'
p7
S'NN'
p8
S'B-NP'
p9
g4
tp10
a(S'immune'
p11
S'immune'
p12
S'JJ'
p13
S'I-NP'
p14
g4
tp15
a(S'globulin'
p16
S'globulin'
p17
S'NN'
p18
S'I-NP'
p19
g4
tp20
a(S'interfere'
p21
S'interfere'
p22
S'NN'
p23
S'I-NP'
p24
g4
tp25
a(S'with'
p26
S'with'
p27
S'IN'
p28
S'B-PP'
p29
g4
tp30
a(S'the'
p31
S'the'
p32
S'DT'
p33
S'B-NP'
p34
g4
tp35
a(S'immune'
p36
S'immune'
p37
S'JJ'
p38
S'I-NP'
p39
g4
tp40
a(S'response'
p41
S'response'
p42
S'NN'
p43
S'I-NP'
p44
g4
tp45
a(S'to'
p46
S'to'
p47
S'TO'
p48
S'B-PP'
p49
g4
tp50
a(S'simultaneous'
p51
S'simultaneous'
p52
S'JJ'
p53
S'B-NP'
p54
g4
tp55
a(S'administration'
p56
S'administration'
p57
S'NN'
p58
S'I-NP'
p59
g4
tp60
a(S'of'
p61
S'of'
p62
S'IN'
p63
S'B-PP'
p64
g4
tp65
a(S'tetanus-diphtheria'
p66
S'tetanus-diphtheria'
p67
S'NN'
p68
S'B-NP'
p69
g4
tp70
a(S'vaccine'
p71
S'vaccine'
p72
S'NN'
p73
S'I-NP'
p74
g4
tp75
a(S'?'
p76
g76
S'.'
p77
g4
g4
tp78
a(S'A'
p79
g79
S'DT'
p80
S'B-NP'
p81
g4
tp82
a(S'comparative'
p83
S'comparative'
p84
S'JJ'
p85
S'I-NP'
p86
g4
tp87
a(S'clinical'
p88
S'clinical'
p89
S'JJ'
p90
S'I-NP'
p91
g4
tp92
a(S'trial'
p93
S'trial'
p94
S'NN'
p95
S'I-NP'
p96
g4
tp97
a(S'in'
p98
S'in'
p99
S'IN'
p100
S'B-PP'
p101
g4
tp102
a(S'adults'
p103
S'adult'
p104
S'NNS'
p105
S'B-NP'
p106
g4
tp107
a(g77
g77
g77
g4
g4
tp108
a(S'In'
p109
S'In'
p110
S'IN'
p111
S'B-PP'
p112
g4
tp113
a(S'the'
p114
S'the'
p115
S'DT'
p116
S'B-NP'
p117
g4
tp118
a(S'management'
p119
S'management'
p120
S'NN'
p121
S'I-NP'
p122
g4
tp123
a(S'of'
p124
S'of'
p125
S'IN'
p126
S'B-PP'
p127
g4
tp128
a(S'wounds'
p129
S'wound'
p130
S'NNS'
p131
S'B-NP'
p132
g4
tp133
a(S','
p134
g134
g134
g4
g4
tp135
a(S'sometimes'
p136
S'sometimes'
p137
S'RB'
p138
S'B-ADVP'
p139
g4
tp140
a(S'it'
p141
S'it'
p142
S'PRP'
p143
S'B-NP'
p144
g4
tp145
a(S'is'
p146
S'be'
p147
S'VBZ'
p148
S'B-VP'
p149
g4
tp150
a(S'recommended'
p151
S'recommend'
p152
S'VBN'
p153
S'I-VP'
p154
g4
tp155
a(S'to'
p156
S'to'
p157
S'TO'
p158
S'I-VP'
p159
g4
tp160
a(S'give'
p161
S'give'
p162
S'VB'
p163
S'I-VP'
p164
g4
tp165
a(S'an'
p166
S'an'
p167
S'DT'
p168
S'B-NP'
p169
g4
tp170
a(S'adult-type'
p171
S'adult-type'
p172
S'JJ'
p173
S'I-NP'
p174
g4
tp175
a(S'tetanus-diphtheria'
p176
S'tetanus-diphtheria'
p177
S'NN'
p178
S'I-NP'
p179
g4
tp180
a(S'('
p181
g181
g181
g4
g4
tp182
a(S'Td'
p183
S'Td'
p184
S'NN'
p185
S'B-NP'
p186
g4
tp187
a(S')'
p188
g188
g188
g4
g4
tp189
a(S'vaccine'
p190
S'vaccine'
p191
S'NN'
p192
S'B-NP'
p193
g4
tp194
a(S'dose'
p195
S'dose'
p196
S'NN'
p197
S'I-NP'
p198
g4
tp199
a(S'plus'
p200
S'plus'
p201
S'CC'
p202
g4
g4
tp203
a(S'tetanus'
p204
S'tetanus'
p205
S'NN'
p206
S'B-NP'
p207
S'B-protein'
p208
tp209
a(S'immune'
p210
S'immune'
p211
S'JJ'
p212
S'I-NP'
p213
S'I-protein'
p214
tp215
a(S'globulin'
p216
S'globulin'
p217
S'NN'
p218
S'I-NP'
p219
S'I-protein'
p220
tp221
a(g181
g181
g181
g4
g4
tp222
a(S'TIG'
p223
S'TIG'
p224
S'NN'
p225
S'B-NP'
p226
S'B-protein'
p227
tp228
a(g188
g188
g188
g4
g4
tp229
a(g77
g77
g77
g4
g4
tp230
a(S'Sixty'
p231
S'Sixty'
p232
S'CD'
p233
S'B-NP'
p234
g4
tp235
a(S'and'
p236
S'and'
p237
S'CC'
p238
S'I-NP'
p239
g4
tp240
a(S'59'
p241
S'59'
p242
S'CD'
p243
S'I-NP'
p244
g4
tp245
a(S'healthy'
p246
S'healthy'
p247
S'JJ'
p248
S'I-NP'
p249
g4
tp250
a(S'young'
p251
S'young'
p252
S'JJ'
p253
S'I-NP'
p254
g4
tp255
a(S'adults'
p256
S'adult'
p257
S'NNS'
p258
S'I-NP'
p259
g4
tp260
a(S'previously'
p261
S'previously'
p262
S'RB'
p263
S'B-VP'
p264
g4
tp265
a(S'immunized'
p266
S'immunize'
p267
S'VBN'
p268
S'I-VP'
p269
g4
tp270
a(S'against'
p271
S'against'
p272
S'IN'
p273
S'B-PP'
p274
g4
tp275
a(S'tetanus'
p276
S'tetanus'
p277
S'NN'
p278
S'B-NP'
p279
g4
tp280
a(g181
g181
g181
g4
g4
tp281
a(S'T'
p282
g282
S'NN'
p283
S'B-NP'
p284
g4
tp285
a(g188
g188
g188
g4
g4
tp286
a(S'and'
p287
S'and'
p288
S'CC'
p289
g4
g4
tp290
a(S'diphtheria'
p291
S'diphtheria'
p292
S'NN'
p293
S'B-NP'
p294
g4
tp295
a(g181
g181
g181
g4
g4
tp296
a(S'D'
p297
g297
S'NN'
p298
S'B-NP'
p299
g4
tp300
a(g188
g188
g188
g4
g4
tp301
a(S'were'
p302
S'be'
p303
S'VBD'
p304
S'B-VP'
p305
g4
tp306
a(S'randomized'
p307
S'randomize'
p308
S'VBN'
p309
S'I-VP'
p310
g4
tp311
a(S'to'
p312
S'to'
p313
S'TO'
p314
S'I-VP'
p315
g4
tp316
a(S'receive'
p317
S'receive'
p318
S'VB'
p319
S'I-VP'
p320
g4
tp321
a(S'intramuscularly'
p322
S'intramuscularly'
p323
S'RB'
p324
S'B-ADVP'
p325
g4
tp326
a(S'either'
p327
S'either'
p328
S'CC'
p329
g4
g4
tp330
a(S'Td'
p331
S'Td'
p332
S'NN'
p333
S'B-NP'
p334
g4
tp335
a(S'vaccine'
p336
S'vaccine'
p337
S'NN'
p338
S'I-NP'
p339
g4
tp340
a(S'alone'
p341
S'alone'
p342
S'RB'
p343
S'B-ADVP'
p344
g4
tp345
a(g181
g181
g181
g4
g4
tp346
a(S'group'
p347
S'group'
p348
S'NN'
p349
S'B-NP'
p350
g4
tp351
a(S'1'
p352
g352
S'CD'
p353
S'I-NP'
p354
g4
tp355
a(g188
g188
g188
g4
g4
tp356
a(S'or'
p357
S'or'
p358
S'CC'
p359
g4
g4
tp360
a(S'Td'
p361
S'Td'
p362
S'NN'
p363
S'B-NP'
p364
g4
tp365
a(S'vaccine'
p366
S'vaccine'
p367
S'NN'
p368
S'I-NP'
p369
g4
tp370
a(S'plus'
p371
S'plus'
p372
S'CC'
p373
g4
g4
tp374
a(S'500'
p375
S'500'
p376
S'CD'
p377
S'B-NP'
p378
g4
tp379
a(S'IU'
p380
S'IU'
p381
S'NN'
p382
S'I-NP'
p383
g4
tp384
a(S'of'
p385
S'of'
p386
S'IN'
p387
S'B-PP'
p388
g4
tp389
a(S'TIG'
p390
S'TIG'
p391
S'NN'
p392
S'B-NP'
p393
S'B-protein'
p394
tp395
a(g181
g181
g181
g4
g4
tp396
a(S'group'
p397
S'group'
p398
S'NN'
p399
S'B-NP'
p400
g4
tp401
a(S'2'
p402
g402
S'CD'
p403
S'I-NP'
p404
g4
tp405
a(g188
g188
g188
S'I-NP'
p406
g4
tp407
a(S'simultaneously.'
p408
S'simultaneously.'
p409
S'JJ'
p410
S'I-NP'
p411
g4
tp412
a(S'Antitoxin'
p413
S'Antitoxin'
p414
S'NN'
p415
S'I-NP'
p416
g4
tp417
a(S'response'
p418
S'response'
p419
S'NN'
p420
S'I-NP'
p421
g4
tp422
a(S'was'
p423
S'be'
p424
S'VBD'
p425
S'B-VP'
p426
g4
tp427
a(S'assessed'
p428
S'assess'
p429
S'VBN'
p430
S'I-VP'
p431
g4
tp432
a(S'after'
p433
S'after'
p434
S'IN'
p435
S'B-PP'
p436
g4
tp437
a(S'4'
p438
g438
S'CD'
p439
S'B-NP'
p440
g4
tp441
a(S'weeks'
p442
S'week'
p443
S'NNS'
p444
S'I-NP'
p445
g4
tp446
a(S'and'
p447
S'and'
p448
S'CC'
p449
g4
g4
tp450
a(g438
g438
S'CD'
p451
S'B-NP'
p452
g4
tp453
a(S'months.'
p454
S'months.'
p455
S'NN'
p456
S'I-NP'
p457
g4
tp458
a(S'Circulating'
p459
S'Circulate'
p460
S'VBG'
p461
S'B-VP'
p462
g4
tp463
a(S'antibodies'
p464
S'antibody'
p465
S'NNS'
p466
S'B-NP'
p467
g4
tp468
a(S'were'
p469
S'be'
p470
S'VBD'
p471
S'B-VP'
p472
g4
tp473
a(S'measured'
p474
S'measure'
p475
S'VBN'
p476
S'I-VP'
p477
g4
tp478
a(S'by'
p479
S'by'
p480
S'IN'
p481
S'B-PP'
p482
g4
tp483
a(S'enzyme-linked'
p484
S'enzyme-linked'
p485
S'JJ'
p486
S'B-NP'
p487
g4
tp488
a(S'immunosorbent'
p489
S'immunosorbent'
p490
S'JJ'
p491
S'I-NP'
p492
g4
tp493
a(S'assay'
p494
S'assay'
p495
S'NN'
p496
S'I-NP'
p497
g4
tp498
a(g181
g181
g181
g4
g4
tp499
a(S'ELISA'
p500
S'ELISA'
p501
S'NN'
p502
S'B-NP'
p503
g4
tp504
a(g188
g188
g188
g4
g4
tp505
a(g77
g77
g77
g4
g4
tp506
a(S'The'
p507
S'The'
p508
S'DT'
p509
S'B-NP'
p510
g4
tp511
a(S'cutoff'
p512
S'cutoff'
p513
S'NN'
p514
S'I-NP'
p515
g4
tp516
a(S'of'
p517
S'of'
p518
S'IN'
p519
S'B-PP'
p520
g4
tp521
a(S'these'
p522
S'these'
p523
S'DT'
p524
S'B-NP'
p525
g4
tp526
a(S'tests'
p527
S'test'
p528
S'NNS'
p529
S'I-NP'
p530
g4
tp531
a(S'was'
p532
S'be'
p533
S'VBD'
p534
S'B-VP'
p535
g4
tp536
a(S'0.1'
p537
S'0.1'
p538
S'CD'
p539
S'B-NP'
p540
g4
tp541
a(S'IU/mL.'
p542
S'IU/mL.'
p543
S'NNP'
p544
S'I-NP'
p545
g4
tp546
a(S'Titers'
p547
S'Titers'
p548
S'NNP'
p549
S'I-NP'
p550
g4
tp551
a(S'of'
p552
S'of'
p553
S'IN'
p554
S'B-PP'
p555
g4
tp556
a(S'0.1'
p557
S'0.1'
p558
S'CD'
p559
S'B-NP'
p560
g4
tp561
a(S'IU/mL'
p562
S'IU/mL'
p563
S'NN'
p564
S'I-NP'
p565
g4
tp566
a(S'or'
p567
S'or'
p568
S'CC'
p569
g4
g4
tp570
a(S'greater'
p571
S'great'
p572
S'JJR'
p573
S'B-ADJP'
p574
g4
tp575
a(S'were'
p576
S'be'
p577
S'VBD'
p578
S'B-VP'
p579
g4
tp580
a(S'considered'
p581
S'consider'
p582
S'VBN'
p583
S'I-VP'
p584
g4
tp585
a(S'protective.'
p586
S'protective.'
p587
S'NN'
p588
S'B-NP'
p589
g4
tp590
a(S'For'
p591
S'For'
p592
S'IN'
p593
S'B-PP'
p594
g4
tp595
a(S'geometric'
p596
S'geometric'
p597
S'JJ'
p598
S'B-NP'
p599
g4
tp600
a(S'mean'
p601
S'mean'
p602
S'JJ'
p603
S'I-NP'
p604
g4
tp605
a(S'titers'
p606
S'titer'
p607
S'NNS'
p608
S'I-NP'
p609
g4
tp610
a(g181
g181
g181
g4
g4
tp611
a(S'GMT'
p612
S'GMT'
p613
S'NN'
p614
S'B-NP'
p615
S'B-protein'
p616
tp617
a(g188
g188
g188
g4
g4
tp618
a(g134
g134
g134
g4
g4
tp619
a(S'antibody'
p620
S'antibody'
p621
S'NN'
p622
S'B-NP'
p623
g4
tp624
a(S'titers'
p625
S'titer'
p626
S'NNS'
p627
S'I-NP'
p628
g4
tp629
a(S'below'
p630
S'below'
p631
S'IN'
p632
S'B-PP'
p633
g4
tp634
a(S'the'
p635
S'the'
p636
S'DT'
p637
S'B-NP'
p638
g4
tp639
a(S'cutoff'
p640
S'cutoff'
p641
S'NN'
p642
S'I-NP'
p643
g4
tp644
a(S'of'
p645
S'of'
p646
S'IN'
p647
S'B-PP'
p648
g4
tp649
a(S'the'
p650
S'the'
p651
S'DT'
p652
S'B-NP'
p653
g4
tp654
a(S'assay'
p655
S'assay'
p656
S'NN'
p657
S'I-NP'
p658
g4
tp659
a(S'were'
p660
S'be'
p661
S'VBD'
p662
S'B-VP'
p663
g4
tp664
a(S'given'
p665
S'give'
p666
S'VBN'
p667
S'I-VP'
p668
g4
tp669
a(g134
g134
g134
g4
g4
tp670
a(S'arbitrarily'
p671
S'arbitrarily'
p672
S'RB'
p673
S'B-ADVP'
p674
g4
tp675
a(g134
g134
g134
g4
g4
tp676
a(S'0.05'
p677
S'0.05'
p678
S'CD'
p679
S'B-NP'
p680
g4
tp681
a(S'IU/mL.'
p682
S'IU/mL.'
p683
S'NNP'
p684
S'I-NP'
p685
g4
tp686
a(S'At'
p687
S'At'
p688
S'IN'
p689
S'B-PP'
p690
g4
tp691
a(g438
g438
S'CD'
p692
S'B-NP'
p693
g4
tp694
a(S'weeks'
p695
S'week'
p696
S'NNS'
p697
S'I-NP'
p698
g4
tp699
a(g134
g134
g134
g4
g4
tp700
a(S'98'
p701
S'98'
p702
S'CD'
p703
S'B-NP'
p704
g4
tp705
a(S'%'
p706
g706
S'NN'
p707
S'I-NP'
p708
g4
tp709
a(S'or'
p710
S'or'
p711
S'CC'
p712
S'I-NP'
p713
g4
tp714
a(S'more'
p715
S'more'
p716
S'JJR'
p717
S'I-NP'
p718
g4
tp719
a(S'of'
p720
S'of'
p721
S'IN'
p722
S'B-PP'
p723
g4
tp724
a(S'the'
p725
S'the'
p726
S'DT'
p727
S'B-NP'
p728
g4
tp729
a(S'subjects'
p730
S'subject'
p731
S'NNS'
p732
S'I-NP'
p733
g4
tp734
a(S'in'
p735
S'in'
p736
S'IN'
p737
S'B-PP'
p738
g4
tp739
a(S'group'
p740
S'group'
p741
S'NN'
p742
S'B-NP'
p743
g4
tp744
a(g352
g352
S'CD'
p745
S'I-NP'
p746
g4
tp747
a(S'had'
p748
S'have'
p749
S'VBD'
p750
S'B-VP'
p751
g4
tp752
a(S'circulating'
p753
S'circulate'
p754
S'VBG'
p755
S'I-VP'
p756
g4
tp757
a(g282
g282
S'NN'
p758
S'B-NP'
p759
g4
tp760
a(S'and'
p761
S'and'
p762
S'CC'
p763
S'I-NP'
p764
g4
tp765
a(g297
g297
S'NN'
p766
S'I-NP'
p767
g4
tp768
a(S'antitoxin'
p769
S'antitoxin'
p770
S'NN'
p771
S'I-NP'
p772
g4
tp773
a(S'levels'
p774
S'level'
p775
S'NNS'
p776
S'I-NP'
p777
g4
tp778
a(S'of'
p779
S'of'
p780
S'IN'
p781
S'B-PP'
p782
g4
tp783
a(S'0.1'
p784
S'0.1'
p785
S'CD'
p786
S'B-NP'
p787
g4
tp788
a(S'IU/mL'
p789
S'IU/mL'
p790
S'NN'
p791
S'I-NP'
p792
g4
tp793
a(S'or'
p794
S'or'
p795
S'CC'
p796
g4
g4
tp797
a(S'higher'
p798
S'high'
p799
S'JJR'
p800
S'B-ADJP'
p801
g4
tp802
a(S';'
p803
g803
S':'
p804
g4
g4
tp805
a(S'in'
p806
S'in'
p807
S'IN'
p808
S'B-PP'
p809
g4
tp810
a(S'group'
p811
S'group'
p812
S'NN'
p813
S'B-NP'
p814
g4
tp815
a(g402
g402
S'CD'
p816
S'I-NP'
p817
g4
tp818
a(g134
g134
g134
S'I-NP'
p819
g4
tp820
a(S'95'
p821
S'95'
p822
S'CD'
p823
S'I-NP'
p824
g4
tp825
a(g706
g706
S'NN'
p826
S'I-NP'
p827
g4
tp828
a(S'and'
p829
S'and'
p830
S'CC'
p831
g4
g4
tp832
a(S'90'
p833
S'90'
p834
S'CD'
p835
S'B-NP'
p836
g4
tp837
a(g706
g706
S'NN'
p838
S'I-NP'
p839
g4
tp840
a(S'of'
p841
S'of'
p842
S'IN'
p843
S'B-PP'
p844
g4
tp845
a(S'the'
p846
S'the'
p847
S'DT'
p848
S'B-NP'
p849
g4
tp850
a(S'subjects'
p851
S'subject'
p852
S'NNS'
p853
S'I-NP'
p854
g4
tp855
a(S'had'
p856
S'have'
p857
S'VBD'
p858
S'B-VP'
p859
g4
tp860
a(S'titers'
p861
S'titer'
p862
S'NNS'
p863
S'B-NP'
p864
g4
tp865
a(S'above'
p866
S'above'
p867
S'IN'
p868
S'B-PP'
p869
g4
tp870
a(S'this'
p871
S'this'
p872
S'DT'
p873
S'B-NP'
p874
g4
tp875
a(S'limit'
p876
S'limit'
p877
S'NN'
p878
S'I-NP'
p879
g4
tp880
a(S'for'
p881
S'for'
p882
S'IN'
p883
S'B-PP'
p884
g4
tp885
a(g282
g282
S'NN'
p886
S'B-NP'
p887
S'B-protein'
p888
tp889
a(S'and'
p890
S'and'
p891
S'CC'
p892
S'I-NP'
p893
S'I-protein'
p894
tp895
a(g297
g297
S'NN'
p896
S'I-NP'
p897
S'I-protein'
p898
tp899
a(g134
g134
g134
g4
g4
tp900
a(S'respectively.'
p901
S'respectively.'
p902
S'RB'
p903
S'B-ADVP'
p904
g4
tp905
a(S'At'
p906
S'At'
p907
S'IN'
p908
S'B-PP'
p909
g4
tp910
a(g438
g438
S'CD'
p911
S'B-NP'
p912
g4
tp913
a(S'months'
p914
S'month'
p915
S'NNS'
p916
S'I-NP'
p917
g4
tp918
a(g134
g134
g134
g4
g4
tp919
a(S'these'
p920
S'these'
p921
S'DT'
p922
S'B-NP'
p923
g4
tp924
a(S'percentages'
p925
S'percentage'
p926
S'NNS'
p927
S'I-NP'
p928
g4
tp929
a(S'were'
p930
S'be'
p931
S'VBD'
p932
S'B-VP'
p933
g4
tp934
a(S'98'
p935
S'98'
p936
S'CD'
p937
S'B-NP'
p938
g4
tp939
a(g706
g706
S'NN'
p940
S'I-NP'
p941
g4
tp942
a(S'and'
p943
S'and'
p944
S'CC'
p945
g4
g4
tp946
a(S'95'
p947
S'95'
p948
S'CD'
p949
S'B-NP'
p950
g4
tp951
a(g706
g706
S'NN'
p952
S'I-NP'
p953
g4
tp954
a(S'for'
p955
S'for'
p956
S'IN'
p957
S'B-PP'
p958
g4
tp959
a(g282
g282
S'NN'
p960
S'B-NP'
p961
S'B-protein'
p962
tp963
a(S'antitoxin'
p964
S'antitoxin'
p965
S'NN'
p966
S'I-NP'
p967
S'I-protein'
p968
tp969
a(S'levels'
p970
S'level'
p971
S'NNS'
p972
S'I-NP'
p973
g4
tp974
a(S'in'
p975
S'in'
p976
S'IN'
p977
S'B-PP'
p978
g4
tp979
a(S'groups'
p980
S'group'
p981
S'NNS'
p982
S'B-NP'
p983
g4
tp984
a(g352
g352
S'CD'
p985
S'I-NP'
p986
g4
tp987
a(S'and'
p988
S'and'
p989
S'CC'
p990
S'I-NP'
p991
g4
tp992
a(g402
g402
S'CD'
p993
S'I-NP'
p994
g4
tp995
a(g134
g134
g134
g4
g4
tp996
a(S'respectively'
p997
S'respectively'
p998
S'RB'
p999
S'B-ADVP'
p1000
g4
tp1001
a(g803
g803
g804
g4
g4
tp1002
a(S'whereas'
p1003
S'whereas'
p1004
S'IN'
p1005
S'B-NP'
p1006
g4
tp1007
a(S'96'
p1008
S'96'
p1009
S'CD'
p1010
S'I-NP'
p1011
g4
tp1012
a(g706
g706
S'NN'
p1013
S'I-NP'
p1014
g4
tp1015
a(S'and'
p1016
S'and'
p1017
S'CC'
p1018
g4
g4
tp1019
a(S'88'
p1020
S'88'
p1021
S'CD'
p1022
S'B-NP'
p1023
g4
tp1024
a(g706
g706
S'NN'
p1025
S'I-NP'
p1026
g4
tp1027
a(S'of'
p1028
S'of'
p1029
S'IN'
p1030
S'B-PP'
p1031
g4
tp1032
a(S'the'
p1033
S'the'
p1034
S'DT'
p1035
S'B-NP'
p1036
g4
tp1037
a(S'subjects'
p1038
S'subject'
p1039
S'NNS'
p1040
S'I-NP'
p1041
g4
tp1042
a(S'in'
p1043
S'in'
p1044
S'IN'
p1045
S'B-PP'
p1046
g4
tp1047
a(S'groups'
p1048
S'group'
p1049
S'NNS'
p1050
S'B-NP'
p1051
g4
tp1052
a(g352
g352
S'CD'
p1053
S'I-NP'
p1054
g4
tp1055
a(S'and'
p1056
S'and'
p1057
S'CC'
p1058
S'I-NP'
p1059
g4
tp1060
a(g402
g402
S'CD'
p1061
S'I-NP'
p1062
g4
tp1063
a(S'had'
p1064
S'have'
p1065
S'VBD'
p1066
S'B-VP'
p1067
g4
tp1068
a(g297
g297
S'NN'
p1069
S'B-NP'
p1070
g4
tp1071
a(S'antitoxin'
p1072
S'antitoxin'
p1073
S'NN'
p1074
S'I-NP'
p1075
g4
tp1076
a(S'levels'
p1077
S'level'
p1078
S'NNS'
p1079
S'I-NP'
p1080
g4
tp1081
a(S'of'
p1082
S'of'
p1083
S'IN'
p1084
S'B-PP'
p1085
g4
tp1086
a(S'0.1'
p1087
S'0.1'
p1088
S'CD'
p1089
S'B-NP'
p1090
g4
tp1091
a(S'IU/mL'
p1092
S'IU/mL'
p1093
S'NN'
p1094
S'I-NP'
p1095
g4
tp1096
a(S'or'
p1097
S'or'
p1098
S'CC'
p1099
g4
g4
tp1100
a(S'higher'
p1101
S'high'
p1102
S'JJR'
p1103
S'B-ADJP'
p1104
g4
tp1105
a(g134
g134
g134
g4
g4
tp1106
a(S'respectively.'
p1107
S'respectively.'
p1108
S'RB'
p1109
S'B-ADVP'
p1110
g4
tp1111
a(S'Significantly'
p1112
S'Significantly'
p1113
S'RB'
p1114
S'I-ADVP'
p1115
g4
tp1116
a(g181
g181
g181
g4
g4
tp1117
a(S'P'
p1118
g1118
S'NN'
p1119
S'B-NP'
p1120
g4
tp1121
a(S'<'
p1122
g1122
S'JJR'
p1123
S'B-NP'
p1124
g4
tp1125
a(S'.05'
p1126
S'.05'
p1127
S'CD'
p1128
S'I-NP'
p1129
g4
tp1130
a(g188
g188
g188
g4
g4
tp1131
a(S'higher'
p1132
S'high'
p1133
S'JJR'
p1134
S'B-NP'
p1135
g4
tp1136
a(S'GMTs'
p1137
S'GMT'
p1138
S'NNS'
p1139
S'I-NP'
p1140
g4
tp1141
a(S'were'
p1142
S'be'
p1143
S'VBD'
p1144
S'B-VP'
p1145
g4
tp1146
a(S'seen'
p1147
S'see'
p1148
S'VBN'
p1149
S'I-VP'
p1150
g4
tp1151
a(S'at'
p1152
S'at'
p1153
S'IN'
p1154
S'B-PP'
p1155
g4
tp1156
a(S'the'
p1157
S'the'
p1158
S'DT'
p1159
S'B-NP'
p1160
g4
tp1161
a(S'4-week'
p1162
S'4-week'
p1163
S'JJ'
p1164
S'I-NP'
p1165
g4
tp1166
a(S'assessment'
p1167
S'assessment'
p1168
S'NN'
p1169
S'I-NP'
p1170
g4
tp1171
a(g181
g181
g181
g4
g4
tp1172
a(S'but'
p1173
S'but'
p1174
S'CC'
p1175
S'B-PP'
p1176
g4
tp1177
a(S'not'
p1178
S'not'
p1179
S'RB'
p1180
S'I-PP'
p1181
g4
tp1182
a(S'at'
p1183
S'at'
p1184
S'IN'
p1185
S'B-PP'
p1186
g4
tp1187
a(g438
g438
S'CD'
p1188
S'B-NP'
p1189
g4
tp1190
a(S'months'
p1191
S'month'
p1192
S'NNS'
p1193
S'I-NP'
p1194
g4
tp1195
a(g188
g188
g188
g4
g4
tp1196
a(S'in'
p1197
S'in'
p1198
S'IN'
p1199
S'B-PP'
p1200
g4
tp1201
a(S'group'
p1202
S'group'
p1203
S'NN'
p1204
S'B-NP'
p1205
g4
tp1206
a(g352
g352
S'CD'
p1207
S'I-NP'
p1208
g4
tp1209
a(g134
g134
g134
g4
g4
tp1210
a(S'as'
p1211
S'as'
p1212
S'IN'
p1213
S'B-SBAR'
p1214
g4
tp1215
a(S'compared'
p1216
S'compare'
p1217
S'VBN'
p1218
S'B-PP'
p1219
g4
tp1220
a(S'with'
p1221
S'with'
p1222
S'IN'
p1223
S'B-PP'
p1224
g4
tp1225
a(S'group'
p1226
S'group'
p1227
S'NN'
p1228
S'B-NP'
p1229
g4
tp1230
a(g402
g402
S'CD'
p1231
S'I-NP'
p1232
g4
tp1233
a(g134
g134
g134
g4
g4
tp1234
a(S'in'
p1235
S'in'
p1236
S'IN'
p1237
S'B-PP'
p1238
g4
tp1239
a(S'both'
p1240
S'both'
p1241
S'CC'
p1242
g4
g4
tp1243
a(g282
g282
S'NN'
p1244
S'B-NP'
p1245
g4
tp1246
a(S'and'
p1247
S'and'
p1248
S'CC'
p1249
S'I-NP'
p1250
g4
tp1251
a(g297
g297
S'NN'
p1252
S'I-NP'
p1253
g4
tp1254
a(S'antitoxin'
p1255
S'antitoxin'
p1256
S'NN'
p1257
S'I-NP'
p1258
g4
tp1259
a(S'levels'
p1260
S'level'
p1261
S'NNS'
p1262
S'I-NP'
p1263
g4
tp1264
a(g181
g181
g181
g4
g4
tp1265
a(S'9.91'
p1266
S'9.91'
p1267
S'CD'
p1268
S'B-NP'
p1269
g4
tp1270
a(S'IU/mL'
p1271
S'IU/mL'
p1272
S'NN'
p1273
S'I-NP'
p1274
g4
tp1275
a(S'versus'
p1276
S'versus'
p1277
S'IN'
p1278
S'B-PP'
p1279
g4
tp1280
a(S'5.60'
p1281
S'5.60'
p1282
S'CD'
p1283
S'B-NP'
p1284
g4
tp1285
a(S'IU/mL'
p1286
S'IU/mL'
p1287
S'NN'
p1288
S'I-NP'
p1289
g4
tp1290
a(S'for'
p1291
S'for'
p1292
S'IN'
p1293
S'B-PP'
p1294
g4
tp1295
a(g282
g282
S'NN'
p1296
S'B-NP'
p1297
S'B-protein'
p1298
tp1299
a(S'antitoxin'
p1300
S'antitoxin'
p1301
S'NN'
p1302
S'I-NP'
p1303
S'I-protein'
p1304
tp1305
a(g134
g134
g134
g4
g4
tp1306
a(S'and'
p1307
S'and'
p1308
S'CC'
p1309
g4
g4
tp1310
a(S'2.86'
p1311
S'2.86'
p1312
S'CD'
p1313
S'B-NP'
p1314
g4
tp1315
a(S'IU/mL'
p1316
S'IU/mL'
p1317
S'NN'
p1318
S'I-NP'
p1319
g4
tp1320
a(S'versus'
p1321
S'versus'
p1322
S'IN'
p1323
S'B-PP'
p1324
g4
tp1325
a(S'1.45'
p1326
S'1.45'
p1327
S'CD'
p1328
S'B-NP'
p1329
g4
tp1330
a(S'IU/mL'
p1331
S'IU/mL'
p1332
S'NN'
p1333
S'I-NP'
p1334
g4
tp1335
a(S'for'
p1336
S'for'
p1337
S'IN'
p1338
S'B-PP'
p1339
g4
tp1340
a(g297
g297
S'NN'
p1341
S'B-NP'
p1342
g4
tp1343
a(S'antitoxin'
p1344
S'antitoxin'
p1345
S'NN'
p1346
S'I-NP'
p1347
g4
tp1348
a(g188
g188
g188
g4
g4
tp1349
a(g77
g77
g77
g4
g4
tp1350
a(S'This'
p1351
S'This'
p1352
S'DT'
p1353
S'B-NP'
p1354
g4
tp1355
a(S'finding'
p1356
S'finding'
p1357
S'NN'
p1358
S'I-NP'
p1359
g4
tp1360
a(S'resulted'
p1361
S'result'
p1362
S'VBD'
p1363
S'B-VP'
p1364
g4
tp1365
a(S'from'
p1366
S'from'
p1367
S'IN'
p1368
S'B-PP'
p1369
g4
tp1370
a(S'those'
p1371
S'those'
p1372
S'DT'
p1373
S'B-NP'
p1374
g4
tp1375
a(S'participants'
p1376
S'participant'
p1377
S'NNS'
p1378
S'I-NP'
p1379
g4
tp1380
a(S'with'
p1381
S'with'
p1382
S'IN'
p1383
S'B-PP'
p1384
g4
tp1385
a(S'low'
p1386
S'low'
p1387
S'JJ'
p1388
g4
g4
tp1389
a(g181
g181
g181
g4
g4
tp1390
a(g1122
g1122
S'SYM'
p1391
g4
g4
tp1392
a(S'0.1'
p1393
S'0.1'
p1394
S'CD'
p1395
S'B-NP'
p1396
g4
tp1397
a(S'IU/mL'
p1398
S'IU/mL'
p1399
S'NN'
p1400
S'I-NP'
p1401
g4
tp1402
a(g188
g188
g188
g4
g4
tp1403
a(S'prevaccination'
p1404
S'prevaccination'
p1405
S'NN'
p1406
S'B-NP'
p1407
g4
tp1408
a(S'antibody'
p1409
S'antibody'
p1410
S'NN'
p1411
S'I-NP'
p1412
g4
tp1413
a(S'titers.'
p1414
S'titers.'
p1415
S'NN'
p1416
S'I-NP'
p1417
g4
tp1418
a(g181
g181
g181
g4
g4
tp1419
a(S'ABSTRACT'
p1420
S'ABSTRACT'
p1421
S'NN'
p1422
S'B-NP'
p1423
g4
tp1424
a(S'TRUNCATED'
p1425
S'TRUNCATED'
p1426
S'VBN'
p1427
S'B-VP'
p1428
g4
tp1429
a(S'AT'
p1430
S'AT'
p1431
S'IN'
p1432
S'B-PP'
p1433
g4
tp1434
a(S'250'
p1435
S'250'
p1436
S'CD'
p1437
S'B-NP'
p1438
g4
tp1439
a(S'WORDS'
p1440
S'WORDS'
p1441
S'NNS'
p1442
S'I-NP'
p1443
g4
tp1444
a(g188
g188
g188
g4
g4
tp1445
a.