(lp0
(S'Failure'
p1
S'Failure'
p2
S'NN'
p3
S'B-NP'
p4
S'O'
p5
tp6
a(S'of'
p7
S'of'
p8
S'IN'
p9
S'B-PP'
p10
g5
tp11
a(S'pyridoxine'
p12
S'pyridoxine'
p13
S'NN'
p14
S'B-NP'
p15
g5
tp16
a(S'to'
p17
S'to'
p18
S'TO'
p19
S'B-VP'
p20
g5
tp21
a(S'suppress'
p22
S'suppress'
p23
S'VB'
p24
S'I-VP'
p25
g5
tp26
a(S'raised'
p27
S'raise'
p28
S'VBN'
p29
S'B-NP'
p30
g5
tp31
a(S'serum'
p32
S'serum'
p33
S'NN'
p34
S'I-NP'
p35
g5
tp36
a(S'prolactin'
p37
S'prolactin'
p38
S'NN'
p39
S'I-NP'
p40
g5
tp41
a(S'levels'
p42
S'level'
p43
S'NNS'
p44
S'I-NP'
p45
g5
tp46
a(S'.'
p47
g47
g47
g5
g5
tp48
a(S'Pyridoxine'
p49
S'Pyridoxine'
p50
S'NN'
p51
S'B-NP'
p52
g5
tp53
a(S'has'
p54
S'have'
p55
S'VBZ'
p56
S'B-VP'
p57
g5
tp58
a(S'been'
p59
S'be'
p60
S'VBN'
p61
S'I-VP'
p62
g5
tp63
a(S'reported'
p64
S'report'
p65
S'VBN'
p66
S'I-VP'
p67
g5
tp68
a(S'as'
p69
S'as'
p70
S'IN'
p71
S'B-PP'
p72
g5
tp73
a(S'having'
p74
S'have'
p75
S'VBG'
p76
S'B-VP'
p77
g5
tp78
a(S'an'
p79
S'an'
p80
S'DT'
p81
S'B-NP'
p82
g5
tp83
a(S'antilactogenic'
p84
S'antilactogenic'
p85
S'JJ'
p86
S'I-NP'
p87
g5
tp88
a(S'effect'
p89
S'effect'
p90
S'NN'
p91
S'I-NP'
p92
g5
tp93
a(S','
p94
g94
g94
g5
g5
tp95
a(S'presumably'
p96
S'presumably'
p97
S'RB'
p98
S'B-ADVP'
p99
g5
tp100
a(S'by'
p101
S'by'
p102
S'IN'
p103
S'B-PP'
p104
g5
tp105
a(S'suppressing'
p106
S'suppress'
p107
S'VBG'
p108
S'B-VP'
p109
g5
tp110
a(S'prolactin'
p111
S'prolactin'
p112
S'NN'
p113
S'B-NP'
p114
g5
tp115
a(S'secretion.'
p116
S'secretion.'
p117
S'NN'
p118
S'I-NP'
p119
g5
tp120
a(S'We'
p121
S'We'
p122
S'PRP'
p123
S'B-NP'
p124
g5
tp125
a(S'have'
p126
S'have'
p127
S'VBP'
p128
S'B-VP'
p129
g5
tp130
a(S'measured'
p131
S'measure'
p132
S'VBN'
p133
S'I-VP'
p134
g5
tp135
a(S'serum'
p136
S'serum'
p137
S'NN'
p138
S'B-NP'
p139
g5
tp140
a(S'prolactin'
p141
S'prolactin'
p142
S'NN'
p143
S'I-NP'
p144
g5
tp145
a(S'levels'
p146
S'level'
p147
S'NNS'
p148
S'I-NP'
p149
g5
tp150
a(S'during'
p151
S'during'
p152
S'IN'
p153
S'B-PP'
p154
g5
tp155
a(S'pyridoxine'
p156
S'pyridoxine'
p157
S'NN'
p158
S'B-NP'
p159
g5
tp160
a(S'administration'
p161
S'administration'
p162
S'NN'
p163
S'I-NP'
p164
g5
tp165
a(S'in'
p166
S'in'
p167
S'IN'
p168
S'B-PP'
p169
g5
tp170
a(S'two'
p171
S'two'
p172
S'CD'
p173
S'B-NP'
p174
g5
tp175
a(S'groups'
p176
S'group'
p177
S'NNS'
p178
S'I-NP'
p179
g5
tp180
a(S'of'
p181
S'of'
p182
S'IN'
p183
S'B-PP'
p184
g5
tp185
a(S'hyperprolactinaemic'
p186
S'hyperprolactinaemic'
p187
S'JJ'
p188
S'B-NP'
p189
g5
tp190
a(S'subjects.'
p191
S'subjects.'
p192
S'NNS'
p193
S'I-NP'
p194
g5
tp195
a(S'In'
p196
S'In'
p197
S'IN'
p198
S'B-PP'
p199
g5
tp200
a(S'normal'
p201
S'normal'
p202
S'JJ'
p203
S'B-NP'
p204
g5
tp205
a(S'postpartum'
p206
S'postpartum'
p207
S'NN'
p208
S'I-NP'
p209
g5
tp210
a(S'women'
p211
S'woman'
p212
S'NNS'
p213
S'I-NP'
p214
g5
tp215
a(g94
g94
g94
g5
g5
tp216
a(S'the'
p217
S'the'
p218
S'DT'
p219
S'B-NP'
p220
g5
tp221
a(S'postdelivery'
p222
S'postdelivery'
p223
S'NN'
p224
S'I-NP'
p225
g5
tp226
a(S'fall'
p227
S'fall'
p228
S'NN'
p229
S'I-NP'
p230
g5
tp231
a(S'in'
p232
S'in'
p233
S'IN'
p234
S'B-PP'
p235
g5
tp236
a(S'serum'
p237
S'serum'
p238
S'NN'
p239
S'B-NP'
p240
g5
tp241
a(S'prolactin'
p242
S'prolactin'
p243
S'NN'
p244
S'I-NP'
p245
g5
tp246
a(S'levels'
p247
S'level'
p248
S'NNS'
p249
S'I-NP'
p250
g5
tp251
a(S'did'
p252
S'do'
p253
S'VBD'
p254
S'B-VP'
p255
g5
tp256
a(S'not'
p257
S'not'
p258
S'RB'
p259
S'I-VP'
p260
g5
tp261
a(S'differ'
p262
S'differ'
p263
S'VB'
p264
S'I-VP'
p265
g5
tp266
a(S'significantly'
p267
S'significantly'
p268
S'RB'
p269
S'B-ADVP'
p270
g5
tp271
a(S'in'
p272
S'in'
p273
S'IN'
p274
S'B-PP'
p275
g5
tp276
a(S'treated'
p277
S'treat'
p278
S'VBN'
p279
S'B-NP'
p280
g5
tp281
a(S'and'
p282
S'and'
p283
S'CC'
p284
S'I-NP'
p285
g5
tp286
a(S'control'
p287
S'control'
p288
S'NN'
p289
S'I-NP'
p290
g5
tp291
a(S'subjects.'
p292
S'subjects.'
p293
S'NNS'
p294
S'I-NP'
p295
g5
tp296
a(S'In'
p297
S'In'
p298
S'IN'
p299
S'B-PP'
p300
g5
tp301
a(S'patients'
p302
S'patient'
p303
S'NNS'
p304
S'B-NP'
p305
g5
tp306
a(S'with'
p307
S'with'
p308
S'IN'
p309
S'B-PP'
p310
g5
tp311
a(S'chlorpromazine-induced'
p312
S'chlorpromazine-induced'
p313
S'JJ'
p314
S'B-NP'
p315
g5
tp316
a(S'hyperprolactinaemia'
p317
S'hyperprolactinaemia'
p318
S'NN'
p319
S'I-NP'
p320
g5
tp321
a(S'and'
p322
S'and'
p323
S'CC'
p324
S'I-NP'
p325
g5
tp326
a(S'galactorrhoea'
p327
S'galactorrhoea'
p328
S'NN'
p329
S'I-NP'
p330
g5
tp331
a(g94
g94
g94
g5
g5
tp332
a(S'pyridoxine'
p333
S'pyridoxine'
p334
S'NN'
p335
S'B-NP'
p336
g5
tp337
a(S'did'
p338
S'do'
p339
S'VBD'
p340
S'B-VP'
p341
g5
tp342
a(S'not'
p343
S'not'
p344
S'RB'
p345
S'I-VP'
p346
g5
tp347
a(S'reduce'
p348
S'reduce'
p349
S'VB'
p350
S'I-VP'
p351
g5
tp352
a(S'the'
p353
S'the'
p354
S'DT'
p355
S'B-NP'
p356
g5
tp357
a(S'elevated'
p358
S'elevated'
p359
S'JJ'
p360
S'I-NP'
p361
g5
tp362
a(S'levels.'
p363
S'levels.'
p364
S'NN'
p365
S'I-NP'
p366
g5
tp367
a(S'In'
p368
S'In'
p369
S'IN'
p370
S'B-PP'
p371
g5
tp372
a(S'neither'
p373
S'neither'
p374
S'DT'
p375
S'B-NP'
p376
g5
tp377
a(S'group'
p378
S'group'
p379
S'NN'
p380
S'I-NP'
p381
g5
tp382
a(S'was'
p383
S'be'
p384
S'VBD'
p385
S'B-VP'
p386
g5
tp387
a(S'milk'
p388
S'milk'
p389
S'NN'
p390
S'B-NP'
p391
g5
tp392
a(S'production'
p393
S'production'
p394
S'NN'
p395
S'I-NP'
p396
g5
tp397
a(S'suppressed'
p398
S'suppress'
p399
S'VBD'
p400
S'B-VP'
p401
g5
tp402
a(g47
g47
g47
g5
g5
tp403
a.