(lp0
(S'Cyproheptadine'
p1
S'Cyproheptadine'
p2
S'NN'
p3
S'B-NP'
p4
S'O'
p5
tp6
a(S'in'
p7
S'in'
p8
S'IN'
p9
S'B-PP'
p10
g5
tp11
a(S'the'
p12
S'the'
p13
S'DT'
p14
S'B-NP'
p15
g5
tp16
a(S'treatment'
p17
S'treatment'
p18
S'NN'
p19
S'I-NP'
p20
g5
tp21
a(S'of'
p22
S'of'
p23
S'IN'
p24
S'B-PP'
p25
g5
tp26
a(S'autistic'
p27
S'autistic'
p28
S'JJ'
p29
S'B-NP'
p30
g5
tp31
a(S'disorder'
p32
S'disorder'
p33
S'NN'
p34
S'I-NP'
p35
g5
tp36
a(S':'
p37
g37
g37
g5
g5
tp38
a(S'a'
p39
g39
S'DT'
p40
S'B-NP'
p41
g5
tp42
a(S'double-blind'
p43
S'double-blind'
p44
S'JJ'
p45
S'I-NP'
p46
g5
tp47
a(S'placebo-controlled'
p48
S'placebo-controlled'
p49
S'JJ'
p50
S'I-NP'
p51
g5
tp52
a(S'trial'
p53
S'trial'
p54
S'NN'
p55
S'I-NP'
p56
g5
tp57
a(S'.'
p58
g58
g58
g5
g5
tp59
a(S'OBJECTIVE'
p60
S'OBJECTIVE'
p61
S'NN'
p62
S'B-NP'
p63
g5
tp64
a(S'Autism'
p65
S'Autism'
p66
S'NN'
p67
S'I-NP'
p68
g5
tp69
a(S'is'
p70
S'be'
p71
S'VBZ'
p72
S'B-VP'
p73
g5
tp74
a(g39
g39
S'DT'
p75
S'B-NP'
p76
g5
tp77
a(S'childhood-onset'
p78
S'childhood-onset'
p79
S'JJ'
p80
S'I-NP'
p81
g5
tp82
a(S'disorder'
p83
S'disorder'
p84
S'NN'
p85
S'I-NP'
p86
g5
tp87
a(S'of'
p88
S'of'
p89
S'IN'
p90
S'B-PP'
p91
g5
tp92
a(S'unknown'
p93
S'unknown'
p94
S'JJ'
p95
S'B-NP'
p96
g5
tp97
a(S','
p98
g98
g98
g5
g5
tp99
a(S'possibly'
p100
S'possibly'
p101
S'RB'
p102
S'B-ADVP'
p103
g5
tp104
a(S'of'
p105
S'of'
p106
S'IN'
p107
S'B-PP'
p108
g5
tp109
a(S'multiple'
p110
S'multiple'
p111
S'JJ'
p112
S'B-NP'
p113
g5
tp114
a(S'aetiologies.'
p115
S'aetiologies.'
p116
S'NN'
p117
S'I-NP'
p118
g5
tp119
a(S'The'
p120
S'The'
p121
S'DT'
p122
S'B-NP'
p123
g5
tp124
a(S'core'
p125
S'core'
p126
S'NN'
p127
S'I-NP'
p128
g5
tp129
a(S'symptoms'
p130
S'symptom'
p131
S'NNS'
p132
S'I-NP'
p133
g5
tp134
a(S'of'
p135
S'of'
p136
S'IN'
p137
S'B-PP'
p138
g5
tp139
a(S'autism'
p140
S'autism'
p141
S'NN'
p142
S'B-NP'
p143
g5
tp144
a(S'are'
p145
S'be'
p146
S'VBP'
p147
S'B-VP'
p148
g5
tp149
a(S'abnormalities'
p150
S'abnormality'
p151
S'NNS'
p152
S'B-NP'
p153
g5
tp154
a(S'in'
p155
S'in'
p156
S'IN'
p157
S'B-PP'
p158
g5
tp159
a(S'social'
p160
S'social'
p161
S'JJ'
p162
S'B-NP'
p163
g5
tp164
a(S'interaction'
p165
S'interaction'
p166
S'NN'
p167
S'I-NP'
p168
g5
tp169
a(g98
g98
g98
g5
g5
tp170
a(S'communication'
p171
S'communication'
p172
S'NN'
p173
S'B-NP'
p174
g5
tp175
a(S'and'
p176
S'and'
p177
S'CC'
p178
g5
g5
tp179
a(S'behaviour.'
p180
S'behaviour.'
p181
S'VB'
p182
S'B-VP'
p183
g5
tp184
a(S'The'
p185
S'The'
p186
S'DT'
p187
S'B-NP'
p188
g5
tp189
a(S'involvement'
p190
S'involvement'
p191
S'NN'
p192
S'I-NP'
p193
g5
tp194
a(S'of'
p195
S'of'
p196
S'IN'
p197
S'B-PP'
p198
g5
tp199
a(S'neurotransmitters'
p200
S'neurotransmitter'
p201
S'NNS'
p202
S'B-NP'
p203
g5
tp204
a(S'such'
p205
S'such'
p206
S'JJ'
p207
S'B-PP'
p208
g5
tp209
a(S'as'
p210
S'as'
p211
S'IN'
p212
S'I-PP'
p213
g5
tp214
a(S'5-HT'
p215
S'5-HT'
p216
S'NN'
p217
S'B-NP'
p218
g5
tp219
a(S'has'
p220
S'have'
p221
S'VBZ'
p222
S'B-VP'
p223
g5
tp224
a(S'been'
p225
S'be'
p226
S'VBN'
p227
S'I-VP'
p228
g5
tp229
a(S'suggested'
p230
S'suggest'
p231
S'VBN'
p232
S'I-VP'
p233
g5
tp234
a(S'in'
p235
S'in'
p236
S'IN'
p237
S'B-PP'
p238
g5
tp239
a(S'neuropsychiatric'
p240
S'neuropsychiatric'
p241
S'JJ'
p242
S'B-NP'
p243
g5
tp244
a(S'disorders'
p245
S'disorder'
p246
S'NNS'
p247
S'I-NP'
p248
g5
tp249
a(S'and'
p250
S'and'
p251
S'CC'
p252
g5
g5
tp253
a(S'particularly'
p254
S'particularly'
p255
S'RB'
p256
S'B-ADVP'
p257
g5
tp258
a(S'in'
p259
S'in'
p260
S'IN'
p261
S'B-PP'
p262
g5
tp263
a(S'autistic'
p264
S'autistic'
p265
S'JJ'
p266
S'B-NP'
p267
g5
tp268
a(S'disorder.'
p269
S'disorder.'
p270
S'NN'
p271
S'I-NP'
p272
g5
tp273
a(S'Increased'
p274
S'Increase'
p275
S'VBD'
p276
S'B-VP'
p277
g5
tp278
a(S'platelet'
p279
S'platelet'
p280
S'NN'
p281
S'B-NP'
p282
g5
tp283
a(S'5-HT'
p284
S'5-HT'
p285
S'NN'
p286
S'I-NP'
p287
g5
tp288
a(S'levels'
p289
S'level'
p290
S'NNS'
p291
S'I-NP'
p292
g5
tp293
a(S'were'
p294
S'be'
p295
S'VBD'
p296
S'B-VP'
p297
g5
tp298
a(S'found'
p299
S'find'
p300
S'VBN'
p301
S'I-VP'
p302
g5
tp303
a(S'in'
p304
S'in'
p305
S'IN'
p306
S'B-PP'
p307
g5
tp308
a(S'40'
p309
S'40'
p310
S'CD'
p311
S'B-NP'
p312
g5
tp313
a(S'%'
p314
g314
S'NN'
p315
S'I-NP'
p316
g5
tp317
a(S'of'
p318
S'of'
p319
S'IN'
p320
S'B-PP'
p321
g5
tp322
a(S'the'
p323
S'the'
p324
S'DT'
p325
S'B-NP'
p326
g5
tp327
a(S'autistic'
p328
S'autistic'
p329
S'JJ'
p330
S'I-NP'
p331
g5
tp332
a(S'population'
p333
S'population'
p334
S'NN'
p335
S'I-NP'
p336
g5
tp337
a(g98
g98
g98
g5
g5
tp338
a(S'suggesting'
p339
S'suggest'
p340
S'VBG'
p341
S'B-VP'
p342
g5
tp343
a(S'that'
p344
S'that'
p345
S'IN'
p346
S'B-SBAR'
p347
g5
tp348
a(S'hyperserotonaemia'
p349
S'hyperserotonaemia'
p350
S'NN'
p351
S'B-NP'
p352
g5
tp353
a(S'may'
p354
S'may'
p355
S'MD'
p356
S'B-VP'
p357
g5
tp358
a(S'be'
p359
S'be'
p360
S'VB'
p361
S'I-VP'
p362
g5
tp363
a(g39
g39
S'DT'
p364
S'B-NP'
p365
g5
tp366
a(S'pathologic'
p367
S'pathologic'
p368
S'JJ'
p369
S'I-NP'
p370
S'B-protein'
p371
tp372
a(S'factor'
p373
S'factor'
p374
S'NN'
p375
S'I-NP'
p376
S'I-protein'
p377
tp378
a(S'in'
p379
S'in'
p380
S'IN'
p381
S'B-PP'
p382
g5
tp383
a(S'infantile'
p384
S'infantile'
p385
S'JJ'
p386
S'B-NP'
p387
g5
tp388
a(S'autism.'
p389
S'autism.'
p390
S'NN'
p391
S'I-NP'
p392
g5
tp393
a(S'Therefore'
p394
S'Therefore'
p395
S'RB'
p396
S'B-ADVP'
p397
g5
tp398
a(g98
g98
g98
g5
g5
tp399
a(S'it'
p400
S'it'
p401
S'PRP'
p402
S'B-NP'
p403
g5
tp404
a(S'is'
p405
S'be'
p406
S'VBZ'
p407
S'B-VP'
p408
g5
tp409
a(S'of'
p410
S'of'
p411
S'IN'
p412
S'B-PP'
p413
g5
tp414
a(S'interest'
p415
S'interest'
p416
S'NN'
p417
S'B-NP'
p418
g5
tp419
a(S'to'
p420
S'to'
p421
S'TO'
p422
S'B-VP'
p423
g5
tp424
a(S'assess'
p425
S'assess'
p426
S'VB'
p427
S'I-VP'
p428
g5
tp429
a(S'the'
p430
S'the'
p431
S'DT'
p432
S'B-NP'
p433
g5
tp434
a(S'efficacy'
p435
S'efficacy'
p436
S'NN'
p437
S'I-NP'
p438
g5
tp439
a(S'of'
p440
S'of'
p441
S'IN'
p442
S'B-PP'
p443
g5
tp444
a(S'cyproheptadine'
p445
S'cyproheptadine'
p446
S'NN'
p447
S'B-NP'
p448
g5
tp449
a(g98
g98
g98
g5
g5
tp450
a(g39
g39
S'DT'
p451
S'B-NP'
p452
g5
tp453
a(S'5-HT2'
p454
S'5-HT2'
p455
S'NN'
p456
S'I-NP'
p457
g5
tp458
a(S'antagonist'
p459
S'antagonist'
p460
S'NN'
p461
S'I-NP'
p462
g5
tp463
a(S'in'
p464
S'in'
p465
S'IN'
p466
S'B-PP'
p467
g5
tp468
a(S'the'
p469
S'the'
p470
S'DT'
p471
S'B-NP'
p472
g5
tp473
a(S'treatment'
p474
S'treatment'
p475
S'NN'
p476
S'I-NP'
p477
g5
tp478
a(S'of'
p479
S'of'
p480
S'IN'
p481
S'B-PP'
p482
g5
tp483
a(S'autistic'
p484
S'autistic'
p485
S'JJ'
p486
S'B-NP'
p487
g5
tp488
a(S'disorder.'
p489
S'disorder.'
p490
S'NN'
p491
S'I-NP'
p492
g5
tp493
a(S'In'
p494
S'In'
p495
S'IN'
p496
S'B-PP'
p497
g5
tp498
a(S'this'
p499
S'this'
p500
S'DT'
p501
S'B-NP'
p502
g5
tp503
a(S'8-week'
p504
S'8-week'
p505
S'JJ'
p506
S'I-NP'
p507
g5
tp508
a(S'double-blind'
p509
S'double-blind'
p510
S'JJ'
p511
S'I-NP'
p512
g5
tp513
a(g98
g98
g98
S'I-NP'
p514
g5
tp515
a(S'placebo-controlled'
p516
S'placebo-controlled'
p517
S'JJ'
p518
S'I-NP'
p519
g5
tp520
a(S'trial'
p521
S'trial'
p522
S'NN'
p523
S'I-NP'
p524
g5
tp525
a(g98
g98
g98
g5
g5
tp526
a(S'we'
p527
S'we'
p528
S'PRP'
p529
S'B-NP'
p530
g5
tp531
a(S'assessed'
p532
S'assess'
p533
S'VBD'
p534
S'B-VP'
p535
g5
tp536
a(S'the'
p537
S'the'
p538
S'DT'
p539
S'B-NP'
p540
g5
tp541
a(S'effects'
p542
S'effect'
p543
S'NNS'
p544
S'I-NP'
p545
g5
tp546
a(S'of'
p547
S'of'
p548
S'IN'
p549
S'B-PP'
p550
g5
tp551
a(S'cyproheptadine'
p552
S'cyproheptadine'
p553
S'NN'
p554
S'B-NP'
p555
g5
tp556
a(S'plus'
p557
S'plus'
p558
S'CC'
p559
g5
g5
tp560
a(S'haloperidol'
p561
S'haloperidol'
p562
S'NN'
p563
S'B-NP'
p564
g5
tp565
a(S'in'
p566
S'in'
p567
S'IN'
p568
S'B-PP'
p569
g5
tp570
a(S'the'
p571
S'the'
p572
S'DT'
p573
S'B-NP'
p574
g5
tp575
a(S'treatment'
p576
S'treatment'
p577
S'NN'
p578
S'I-NP'
p579
g5
tp580
a(S'of'
p581
S'of'
p582
S'IN'
p583
S'B-PP'
p584
g5
tp585
a(S'autistic'
p586
S'autistic'
p587
S'JJ'
p588
S'B-NP'
p589
g5
tp590
a(S'disorder'
p591
S'disorder'
p592
S'NN'
p593
S'I-NP'
p594
g5
tp595
a(g58
g58
g58
g5
g5
tp596
a(S'METHODS'
p597
S'METHODS'
p598
S'NNS'
p599
S'B-NP'
p600
g5
tp601
a(S'Children'
p602
S'Child'
p603
S'NNS'
p604
S'I-NP'
p605
g5
tp606
a(S'between'
p607
S'between'
p608
S'IN'
p609
S'B-PP'
p610
g5
tp611
a(S'the'
p612
S'the'
p613
S'DT'
p614
S'B-NP'
p615
g5
tp616
a(S'ages'
p617
S'age'
p618
S'NNS'
p619
S'I-NP'
p620
g5
tp621
a(S'3'
p622
g622
S'CD'
p623
S'B-NP'
p624
g5
tp625
a(S'and'
p626
S'and'
p627
S'CC'
p628
S'I-NP'
p629
g5
tp630
a(S'11'
p631
S'11'
p632
S'CD'
p633
S'I-NP'
p634
g5
tp635
a(S'years'
p636
S'year'
p637
S'NNS'
p638
S'I-NP'
p639
g5
tp640
a(S'('
p641
g641
g641
g5
g5
tp642
a(S'inclusive'
p643
S'inclusive'
p644
S'JJ'
p645
S'B-ADJP'
p646
g5
tp647
a(S')'
p648
g648
g648
g5
g5
tp649
a(S'with'
p650
S'with'
p651
S'IN'
p652
S'B-PP'
p653
g5
tp654
a(g39
g39
S'DT'
p655
S'B-NP'
p656
g5
tp657
a(S'DSM'
p658
S'DSM'
p659
S'NN'
p660
S'I-NP'
p661
g5
tp662
a(S'IV'
p663
S'IV'
p664
S'CD'
p665
S'I-NP'
p666
g5
tp667
a(S'clinical'
p668
S'clinical'
p669
S'JJ'
p670
S'I-NP'
p671
g5
tp672
a(S'diagnosis'
p673
S'diagnosis'
p674
S'NN'
p675
S'I-NP'
p676
g5
tp677
a(S'of'
p678
S'of'
p679
S'IN'
p680
S'B-PP'
p681
g5
tp682
a(S'autism'
p683
S'autism'
p684
S'NN'
p685
S'B-NP'
p686
g5
tp687
a(S'and'
p688
S'and'
p689
S'CC'
p690
g5
g5
tp691
a(S'who'
p692
S'who'
p693
S'WP'
p694
S'B-NP'
p695
g5
tp696
a(S'were'
p697
S'be'
p698
S'VBD'
p699
S'B-VP'
p700
g5
tp701
a(S'outpatients'
p702
S'outpatient'
p703
S'NNS'
p704
S'B-NP'
p705
g5
tp706
a(S'from'
p707
S'from'
p708
S'IN'
p709
S'B-PP'
p710
g5
tp711
a(g39
g39
S'DT'
p712
S'B-NP'
p713
g5
tp714
a(S'specialty'
p715
S'specialty'
p716
S'NN'
p717
S'I-NP'
p718
g5
tp719
a(S'clinic'
p720
S'clinic'
p721
S'NN'
p722
S'I-NP'
p723
g5
tp724
a(S'for'
p725
S'for'
p726
S'IN'
p727
S'B-PP'
p728
g5
tp729
a(S'children'
p730
S'child'
p731
S'NNS'
p732
S'B-NP'
p733
g5
tp734
a(S'at'
p735
S'at'
p736
S'IN'
p737
S'B-PP'
p738
g5
tp739
a(S'Roozbeh'
p740
S'Roozbeh'
p741
S'NNP'
p742
S'B-NP'
p743
g5
tp744
a(S'Psychiatric'
p745
S'Psychiatric'
p746
S'NNP'
p747
S'I-NP'
p748
g5
tp749
a(S'Teaching'
p750
S'Teaching'
p751
S'NNP'
p752
S'I-NP'
p753
g5
tp754
a(S'Hospital'
p755
S'Hospital'
p756
S'NNP'
p757
S'I-NP'
p758
g5
tp759
a(S'were'
p760
S'be'
p761
S'VBD'
p762
S'B-VP'
p763
g5
tp764
a(S'recruited.'
p765
S'recruited.'
p766
S'VBN'
p767
S'I-VP'
p768
g5
tp769
a(S'The'
p770
S'The'
p771
S'DT'
p772
S'B-NP'
p773
g5
tp774
a(S'children'
p775
S'child'
p776
S'NNS'
p777
S'I-NP'
p778
g5
tp779
a(S'presented'
p780
S'present'
p781
S'VBD'
p782
S'B-VP'
p783
g5
tp784
a(S'with'
p785
S'with'
p786
S'IN'
p787
S'B-PP'
p788
g5
tp789
a(g39
g39
S'DT'
p790
S'B-NP'
p791
g5
tp792
a(S'chief'
p793
S'chief'
p794
S'JJ'
p795
S'I-NP'
p796
g5
tp797
a(S'complaint'
p798
S'complaint'
p799
S'NN'
p800
S'I-NP'
p801
g5
tp802
a(S'of'
p803
S'of'
p804
S'IN'
p805
S'B-PP'
p806
g5
tp807
a(S'severely'
p808
S'severely'
p809
S'RB'
p810
S'B-NP'
p811
g5
tp812
a(S'disruptive'
p813
S'disruptive'
p814
S'JJ'
p815
S'I-NP'
p816
g5
tp817
a(S'symptoms'
p818
S'symptom'
p819
S'NNS'
p820
S'I-NP'
p821
g5
tp822
a(S'related'
p823
S'relate'
p824
S'VBN'
p825
S'B-VP'
p826
g5
tp827
a(S'to'
p828
S'to'
p829
S'TO'
p830
S'B-PP'
p831
g5
tp832
a(S'autistic'
p833
S'autistic'
p834
S'JJ'
p835
S'B-NP'
p836
g5
tp837
a(S'disorder.'
p838
S'disorder.'
p839
S'NN'
p840
S'I-NP'
p841
g5
tp842
a(S'Patients'
p843
S'Patient'
p844
S'NNS'
p845
S'I-NP'
p846
g5
tp847
a(S'were'
p848
S'be'
p849
S'VBD'
p850
S'B-VP'
p851
g5
tp852
a(S'randomly'
p853
S'randomly'
p854
S'RB'
p855
S'I-VP'
p856
g5
tp857
a(S'allocated'
p858
S'allocate'
p859
S'VBN'
p860
S'I-VP'
p861
g5
tp862
a(S'to'
p863
S'to'
p864
S'TO'
p865
S'B-PP'
p866
g5
tp867
a(S'cyproheptadine'
p868
S'cyproheptadine'
p869
S'NN'
p870
S'B-NP'
p871
g5
tp872
a(S'+'
p873
g873
S'SYM'
p874
g5
g5
tp875
a(S'haloperidol'
p876
S'haloperidol'
p877
S'NN'
p878
S'B-NP'
p879
g5
tp880
a(g641
g641
g641
g5
g5
tp881
a(S'Group'
p882
S'Group'
p883
S'NN'
p884
S'B-NP'
p885
g5
tp886
a(S'A'
p887
g887
S'NN'
p888
S'I-NP'
p889
g5
tp890
a(g648
g648
g648
g5
g5
tp891
a(S'or'
p892
S'or'
p893
S'CC'
p894
g5
g5
tp895
a(S'haloperidol'
p896
S'haloperidol'
p897
S'NN'
p898
S'B-NP'
p899
g5
tp900
a(g873
g873
S'SYM'
p901
g5
g5
tp902
a(S'placebo'
p903
S'placebo'
p904
S'NN'
p905
S'B-NP'
p906
g5
tp907
a(g641
g641
g641
g5
g5
tp908
a(S'Group'
p909
S'Group'
p910
S'NN'
p911
S'B-NP'
p912
S'B-protein'
p913
tp914
a(S'B'
p915
g915
S'NN'
p916
S'I-NP'
p917
S'I-protein'
p918
tp919
a(g648
g648
g648
g5
g5
tp920
a(S'for'
p921
S'for'
p922
S'IN'
p923
S'B-PP'
p924
g5
tp925
a(S'an'
p926
S'an'
p927
S'DT'
p928
S'B-NP'
p929
g5
tp930
a(S'8-week'
p931
S'8-week'
p932
S'JJ'
p933
S'I-NP'
p934
g5
tp935
a(g98
g98
g98
S'I-NP'
p936
g5
tp937
a(S'double-blind'
p938
S'double-blind'
p939
S'JJ'
p940
S'I-NP'
p941
g5
tp942
a(g98
g98
g98
S'I-NP'
p943
g5
tp944
a(S'placebo-controlled'
p945
S'placebo-controlled'
p946
S'JJ'
p947
S'I-NP'
p948
g5
tp949
a(S'study.'
p950
S'study.'
p951
S'NN'
p952
S'I-NP'
p953
g5
tp954
a(S'The'
p955
S'The'
p956
S'DT'
p957
S'B-NP'
p958
g5
tp959
a(S'dose'
p960
S'dose'
p961
S'NN'
p962
S'I-NP'
p963
g5
tp964
a(S'of'
p965
S'of'
p966
S'IN'
p967
S'B-PP'
p968
g5
tp969
a(S'haloperidol'
p970
S'haloperidol'
p971
S'NN'
p972
S'B-NP'
p973
g5
tp974
a(S'and'
p975
S'and'
p976
S'CC'
p977
S'I-NP'
p978
g5
tp979
a(S'cyproheptadine'
p980
S'cyproheptadine'
p981
S'NN'
p982
S'I-NP'
p983
g5
tp984
a(S'was'
p985
S'be'
p986
S'VBD'
p987
S'B-VP'
p988
g5
tp989
a(S'titrated'
p990
S'titrate'
p991
S'VBN'
p992
S'I-VP'
p993
g5
tp994
a(S'up'
p995
S'up'
p996
S'RB'
p997
S'B-NP'
p998
g5
tp999
a(S'to'
p1000
S'to'
p1001
S'TO'
p1002
S'I-NP'
p1003
g5
tp1004
a(S'0.05'
p1005
S'0.05'
p1006
S'CD'
p1007
S'I-NP'
p1008
g5
tp1009
a(S'and'
p1010
S'and'
p1011
S'CC'
p1012
S'I-NP'
p1013
g5
tp1014
a(S'0.2'
p1015
S'0.2'
p1016
S'CD'
p1017
S'I-NP'
p1018
g5
tp1019
a(S'mg/kg/day'
p1020
S'mg/kg/day'
p1021
S'NN'
p1022
S'I-NP'
p1023
g5
tp1024
a(S'respectively.'
p1025
S'respectively.'
p1026
S'NN'
p1027
S'I-NP'
p1028
g5
tp1029
a(S'Patients'
p1030
S'Patient'
p1031
S'NNS'
p1032
S'I-NP'
p1033
g5
tp1034
a(S'were'
p1035
S'be'
p1036
S'VBD'
p1037
S'B-VP'
p1038
g5
tp1039
a(S'assessed'
p1040
S'assess'
p1041
S'VBN'
p1042
S'I-VP'
p1043
g5
tp1044
a(S'by'
p1045
S'by'
p1046
S'IN'
p1047
S'B-PP'
p1048
g5
tp1049
a(g39
g39
S'DT'
p1050
S'B-NP'
p1051
g5
tp1052
a(S'third-year'
p1053
S'third-year'
p1054
S'JJ'
p1055
S'I-NP'
p1056
g5
tp1057
a(S'resident'
p1058
S'resident'
p1059
S'NN'
p1060
S'I-NP'
p1061
g5
tp1062
a(S'of'
p1063
S'of'
p1064
S'IN'
p1065
S'B-PP'
p1066
g5
tp1067
a(S'psychiatry'
p1068
S'psychiatry'
p1069
S'NN'
p1070
S'B-NP'
p1071
g5
tp1072
a(S'at'
p1073
S'at'
p1074
S'IN'
p1075
S'B-PP'
p1076
g5
tp1077
a(S'baseline'
p1078
S'baseline'
p1079
S'NN'
p1080
S'B-NP'
p1081
g5
tp1082
a(S'and'
p1083
S'and'
p1084
S'CC'
p1085
g5
g5
tp1086
a(S'after'
p1087
S'after'
p1088
S'IN'
p1089
S'B-PP'
p1090
g5
tp1091
a(S'2'
p1092
g1092
S'CD'
p1093
S'B-NP'
p1094
g5
tp1095
a(g98
g98
g98
S'I-NP'
p1096
g5
tp1097
a(S'4'
p1098
g1098
S'CD'
p1099
S'I-NP'
p1100
g5
tp1101
a(g98
g98
g98
S'I-NP'
p1102
g5
tp1103
a(S'6'
p1104
g1104
S'CD'
p1105
S'I-NP'
p1106
g5
tp1107
a(S'and'
p1108
S'and'
p1109
S'CC'
p1110
S'I-NP'
p1111
g5
tp1112
a(S'8'
p1113
g1113
S'CD'
p1114
S'I-NP'
p1115
g5
tp1116
a(S'weeks'
p1117
S'week'
p1118
S'NNS'
p1119
S'I-NP'
p1120
g5
tp1121
a(S'of'
p1122
S'of'
p1123
S'IN'
p1124
S'B-PP'
p1125
g5
tp1126
a(S'starting'
p1127
S'start'
p1128
S'VBG'
p1129
S'B-VP'
p1130
g5
tp1131
a(S'medication.'
p1132
S'medication.'
p1133
S'NN'
p1134
S'B-NP'
p1135
g5
tp1136
a(S'The'
p1137
S'The'
p1138
S'DT'
p1139
S'B-NP'
p1140
g5
tp1141
a(S'primary'
p1142
S'primary'
p1143
S'JJ'
p1144
S'I-NP'
p1145
g5
tp1146
a(S'measure'
p1147
S'measure'
p1148
S'NN'
p1149
S'I-NP'
p1150
g5
tp1151
a(S'of'
p1152
S'of'
p1153
S'IN'
p1154
S'B-PP'
p1155
g5
tp1156
a(S'the'
p1157
S'the'
p1158
S'DT'
p1159
S'B-NP'
p1160
g5
tp1161
a(S'outcome'
p1162
S'outcome'
p1163
S'NN'
p1164
S'I-NP'
p1165
g5
tp1166
a(S'was'
p1167
S'be'
p1168
S'VBD'
p1169
S'B-VP'
p1170
g5
tp1171
a(S'the'
p1172
S'the'
p1173
S'DT'
p1174
S'B-NP'
p1175
g5
tp1176
a(S'Aberrant'
p1177
S'Aberrant'
p1178
S'NNP'
p1179
S'I-NP'
p1180
g5
tp1181
a(S'Behaviour'
p1182
S'Behaviour'
p1183
S'NNP'
p1184
S'I-NP'
p1185
g5
tp1186
a(S'Checklist-Community'
p1187
S'Checklist-Community'
p1188
S'NNP'
p1189
S'I-NP'
p1190
g5
tp1191
a(g641
g641
g641
g5
g5
tp1192
a(S'ABC-C'
p1193
S'ABC-C'
p1194
S'NN'
p1195
S'B-NP'
p1196
g5
tp1197
a(g648
g648
g648
g5
g5
tp1198
a(S'and'
p1199
S'and'
p1200
S'CC'
p1201
g5
g5
tp1202
a(S'the'
p1203
S'the'
p1204
S'DT'
p1205
S'B-NP'
p1206
g5
tp1207
a(S'secondary'
p1208
S'secondary'
p1209
S'JJ'
p1210
S'I-NP'
p1211
g5
tp1212
a(S'measure'
p1213
S'measure'
p1214
S'NN'
p1215
S'I-NP'
p1216
g5
tp1217
a(S'of'
p1218
S'of'
p1219
S'IN'
p1220
S'B-PP'
p1221
g5
tp1222
a(S'the'
p1223
S'the'
p1224
S'DT'
p1225
S'B-NP'
p1226
g5
tp1227
a(S'outcome'
p1228
S'outcome'
p1229
S'NN'
p1230
S'I-NP'
p1231
g5
tp1232
a(S'was'
p1233
S'be'
p1234
S'VBD'
p1235
S'B-VP'
p1236
g5
tp1237
a(S'the'
p1238
S'the'
p1239
S'DT'
p1240
S'B-NP'
p1241
g5
tp1242
a(S'Childhood'
p1243
S'Childhood'
p1244
S'NNP'
p1245
S'I-NP'
p1246
g5
tp1247
a(S'Autism'
p1248
S'Autism'
p1249
S'NNP'
p1250
S'I-NP'
p1251
g5
tp1252
a(S'Rating'
p1253
S'Rating'
p1254
S'NNP'
p1255
S'I-NP'
p1256
g5
tp1257
a(S'Scale'
p1258
S'Scale'
p1259
S'NNP'
p1260
S'I-NP'
p1261
g5
tp1262
a(g641
g641
g641
g5
g5
tp1263
a(S'relating'
p1264
S'relate'
p1265
S'VBG'
p1266
S'B-VP'
p1267
g5
tp1268
a(S'to'
p1269
S'to'
p1270
S'TO'
p1271
S'B-PP'
p1272
g5
tp1273
a(S'people'
p1274
S'people'
p1275
S'NNS'
p1276
S'B-NP'
p1277
g5
tp1278
a(S'and'
p1279
S'and'
p1280
S'CC'
p1281
g5
g5
tp1282
a(S'verbal'
p1283
S'verbal'
p1284
S'JJ'
p1285
S'B-NP'
p1286
g5
tp1287
a(S'communication'
p1288
S'communication'
p1289
S'NN'
p1290
S'I-NP'
p1291
g5
tp1292
a(g648
g648
g648
g5
g5
tp1293
a(g58
g58
g58
g5
g5
tp1294
a(S'Side'
p1295
S'Side'
p1296
S'NN'
p1297
S'B-NP'
p1298
g5
tp1299
a(S'effects'
p1300
S'effect'
p1301
S'NNS'
p1302
S'I-NP'
p1303
g5
tp1304
a(S'and'
p1305
S'and'
p1306
S'CC'
p1307
g5
g5
tp1308
a(S'extrapyramidal'
p1309
S'extrapyramidal'
p1310
S'JJ'
p1311
S'B-NP'
p1312
g5
tp1313
a(S'symptoms'
p1314
S'symptom'
p1315
S'NNS'
p1316
S'I-NP'
p1317
g5
tp1318
a(S'were'
p1319
S'be'
p1320
S'VBD'
p1321
S'B-VP'
p1322
g5
tp1323
a(S'systematically'
p1324
S'systematically'
p1325
S'RB'
p1326
S'I-VP'
p1327
g5
tp1328
a(S'recorded'
p1329
S'record'
p1330
S'VBN'
p1331
S'I-VP'
p1332
g5
tp1333
a(S'throughout'
p1334
S'throughout'
p1335
S'IN'
p1336
S'B-PP'
p1337
g5
tp1338
a(S'the'
p1339
S'the'
p1340
S'DT'
p1341
S'B-NP'
p1342
g5
tp1343
a(S'study'
p1344
S'study'
p1345
S'NN'
p1346
S'I-NP'
p1347
g5
tp1348
a(S'and'
p1349
S'and'
p1350
S'CC'
p1351
g5
g5
tp1352
a(S'were'
p1353
S'be'
p1354
S'VBD'
p1355
S'B-VP'
p1356
g5
tp1357
a(S'assessed'
p1358
S'assess'
p1359
S'VBN'
p1360
S'I-VP'
p1361
g5
tp1362
a(S'using'
p1363
S'use'
p1364
S'VBG'
p1365
S'B-VP'
p1366
g5
tp1367
a(g39
g39
S'DT'
p1368
S'B-NP'
p1369
g5
tp1370
a(S'checklist'
p1371
S'checklist'
p1372
S'NN'
p1373
S'I-NP'
p1374
g5
tp1375
a(S'and'
p1376
S'and'
p1377
S'CC'
p1378
g5
g5
tp1379
a(S'the'
p1380
S'the'
p1381
S'DT'
p1382
S'B-NP'
p1383
g5
tp1384
a(S'Extrapyramidal'
p1385
S'Extrapyramidal'
p1386
S'NNP'
p1387
S'I-NP'
p1388
g5
tp1389
a(S'Symptoms'
p1390
S'Symptoms'
p1391
S'NNP'
p1392
S'I-NP'
p1393
g5
tp1394
a(S'Rating'
p1395
S'Rating'
p1396
S'NNP'
p1397
S'I-NP'
p1398
g5
tp1399
a(S'Scale'
p1400
S'Scale'
p1401
S'NNP'
p1402
S'I-NP'
p1403
g5
tp1404
a(g98
g98
g98
g5
g5
tp1405
a(S'administered'
p1406
S'administer'
p1407
S'VBN'
p1408
S'B-VP'
p1409
g5
tp1410
a(S'by'
p1411
S'by'
p1412
S'IN'
p1413
S'B-PP'
p1414
g5
tp1415
a(g39
g39
S'DT'
p1416
S'B-NP'
p1417
g5
tp1418
a(S'resident'
p1419
S'resident'
p1420
S'NN'
p1421
S'I-NP'
p1422
g5
tp1423
a(S'of'
p1424
S'of'
p1425
S'IN'
p1426
S'B-PP'
p1427
g5
tp1428
a(S'psychiatry'
p1429
S'psychiatry'
p1430
S'NN'
p1431
S'B-NP'
p1432
g5
tp1433
a(S'during'
p1434
S'during'
p1435
S'IN'
p1436
S'B-PP'
p1437
g5
tp1438
a(S'weeks'
p1439
S'week'
p1440
S'NNS'
p1441
S'B-NP'
p1442
g5
tp1443
a(S'1'
p1444
g1444
S'CD'
p1445
S'I-NP'
p1446
g5
tp1447
a(g98
g98
g98
S'I-NP'
p1448
g5
tp1449
a(g1092
g1092
S'CD'
p1450
S'I-NP'
p1451
g5
tp1452
a(g98
g98
g98
S'I-NP'
p1453
g5
tp1454
a(g1098
g1098
S'CD'
p1455
S'I-NP'
p1456
g5
tp1457
a(g98
g98
g98
S'I-NP'
p1458
g5
tp1459
a(g1104
g1104
S'CD'
p1460
S'I-NP'
p1461
g5
tp1462
a(S'and'
p1463
S'and'
p1464
S'CC'
p1465
S'I-NP'
p1466
g5
tp1467
a(g1113
g1113
S'CD'
p1468
S'I-NP'
p1469
g5
tp1470
a(g58
g58
g58
g5
g5
tp1471
a(S'RESULTS'
p1472
S'RESULTS'
p1473
S'NNS'
p1474
S'B-NP'
p1475
g5
tp1476
a(S'The'
p1477
S'The'
p1478
S'DT'
p1479
S'B-NP'
p1480
g5
tp1481
a(S'ABC-C'
p1482
S'ABC-C'
p1483
S'NN'
p1484
S'I-NP'
p1485
g5
tp1486
a(S'and'
p1487
S'and'
p1488
S'CC'
p1489
g5
g5
tp1490
a(S'the'
p1491
S'the'
p1492
S'DT'
p1493
S'B-NP'
p1494
g5
tp1495
a(S'Childhood'
p1496
S'Childhood'
p1497
S'NNP'
p1498
S'I-NP'
p1499
g5
tp1500
a(S'Autism'
p1501
S'Autism'
p1502
S'NNP'
p1503
S'I-NP'
p1504
g5
tp1505
a(S'Rating'
p1506
S'Rating'
p1507
S'NNP'
p1508
S'I-NP'
p1509
g5
tp1510
a(S'Scale'
p1511
S'Scale'
p1512
S'NNP'
p1513
S'I-NP'
p1514
g5
tp1515
a(S'scores'
p1516
S'score'
p1517
S'NNS'
p1518
S'I-NP'
p1519
g5
tp1520
a(S'improved'
p1521
S'improve'
p1522
S'VBD'
p1523
S'B-VP'
p1524
g5
tp1525
a(S'with'
p1526
S'with'
p1527
S'IN'
p1528
S'B-PP'
p1529
g5
tp1530
a(S'cyproheptadine.'
p1531
S'cyproheptadine.'
p1532
S'NN'
p1533
S'B-NP'
p1534
g5
tp1535
a(S'The'
p1536
S'The'
p1537
S'DT'
p1538
S'B-NP'
p1539
g5
tp1540
a(S'behaviour'
p1541
S'behaviour'
p1542
S'NN'
p1543
S'I-NP'
p1544
g5
tp1545
a(S'of'
p1546
S'of'
p1547
S'IN'
p1548
S'B-PP'
p1549
g5
tp1550
a(S'the'
p1551
S'the'
p1552
S'DT'
p1553
S'B-NP'
p1554
g5
tp1555
a(S'two'
p1556
S'two'
p1557
S'CD'
p1558
S'I-NP'
p1559
g5
tp1560
a(S'treatments'
p1561
S'treatment'
p1562
S'NNS'
p1563
S'I-NP'
p1564
g5
tp1565
a(S'was'
p1566
S'be'
p1567
S'VBD'
p1568
S'B-VP'
p1569
g5
tp1570
a(S'not'
p1571
S'not'
p1572
S'RB'
p1573
g5
g5
tp1574
a(S'homogeneous'
p1575
S'homogeneous'
p1576
S'JJ'
p1577
S'B-ADJP'
p1578
g5
tp1579
a(S'across'
p1580
S'across'
p1581
S'IN'
p1582
S'B-PP'
p1583
g5
tp1584
a(S'time'
p1585
S'time'
p1586
S'NN'
p1587
S'B-NP'
p1588
g5
tp1589
a(g641
g641
g641
g5
g5
tp1590
a(S'groups-by-time'
p1591
S'groups-by-time'
p1592
S'JJ'
p1593
S'B-NP'
p1594
g5
tp1595
a(S'interaction'
p1596
S'interaction'
p1597
S'NN'
p1598
S'I-NP'
p1599
g5
tp1600
a(g98
g98
g98
g5
g5
tp1601
a(S'Greenhouse-Geisser'
p1602
S'Greenhouse-Geisser'
p1603
S'JJ'
p1604
S'B-NP'
p1605
g5
tp1606
a(S'correction'
p1607
S'correction'
p1608
S'NN'
p1609
S'I-NP'
p1610
g5
tp1611
a(S';'
p1612
g1612
g37
g5
g5
tp1613
a(S'F'
p1614
g1614
S'NN'
p1615
S'B-NP'
p1616
g5
tp1617
a(S'='
p1618
g1618
S'SYM'
p1619
S'B-VP'
p1620
g5
tp1621
a(S'7.30'
p1622
S'7.30'
p1623
S'CD'
p1624
S'B-NP'
p1625
g5
tp1626
a(g98
g98
g98
g5
g5
tp1627
a(S'd.f.'
p1628
S'd.f.'
p1629
S'NN'
p1630
S'B-NP'
p1631
g5
tp1632
a(g1618
g1618
S'SYM'
p1633
S'B-VP'
p1634
g5
tp1635
a(S'1.68'
p1636
S'1.68'
p1637
S'CD'
p1638
S'B-NP'
p1639
g5
tp1640
a(g98
g98
g98
g5
g5
tp1641
a(S'P'
p1642
g1642
S'NN'
p1643
S'B-NP'
p1644
g5
tp1645
a(g1618
g1618
S'SYM'
p1646
S'B-VP'
p1647
g5
tp1648
a(S'0.002'
p1649
S'0.002'
p1650
S'CD'
p1651
S'B-NP'
p1652
g5
tp1653
a(g1612
g1612
g37
g5
g5
tp1654
a(g1614
g1614
S'NN'
p1655
S'B-NP'
p1656
g5
tp1657
a(g1618
g1618
S'SYM'
p1658
S'B-VP'
p1659
g5
tp1660
a(S'8.21'
p1661
S'8.21'
p1662
S'CD'
p1663
S'B-NP'
p1664
g5
tp1665
a(g98
g98
g98
g5
g5
tp1666
a(S'd.f.'
p1667
S'd.f.'
p1668
S'NN'
p1669
S'B-NP'
p1670
g5
tp1671
a(g1618
g1618
S'SYM'
p1672
S'B-VP'
p1673
g5
tp1674
a(S'1.19'
p1675
S'1.19'
p1676
S'CD'
p1677
S'B-NP'
p1678
g5
tp1679
a(g98
g98
g98
g5
g5
tp1680
a(g1642
g1642
S'NN'
p1681
S'B-NP'
p1682
g5
tp1683
a(g1618
g1618
S'SYM'
p1684
S'B-VP'
p1685
g5
tp1686
a(S'0.004'
p1687
S'0.004'
p1688
S'CD'
p1689
S'B-NP'
p1690
g5
tp1691
a(S'respectively'
p1692
S'respectively'
p1693
S'RB'
p1694
S'B-ADVP'
p1695
g5
tp1696
a(g648
g648
g648
g5
g5
tp1697
a(g58
g58
g58
g5
g5
tp1698
a(S'The'
p1699
S'The'
p1700
S'DT'
p1701
S'B-NP'
p1702
g5
tp1703
a(S'difference'
p1704
S'difference'
p1705
S'NN'
p1706
S'I-NP'
p1707
g5
tp1708
a(S'between'
p1709
S'between'
p1710
S'IN'
p1711
S'B-PP'
p1712
g5
tp1713
a(S'the'
p1714
S'the'
p1715
S'DT'
p1716
S'B-NP'
p1717
g5
tp1718
a(S'two'
p1719
S'two'
p1720
S'CD'
p1721
S'I-NP'
p1722
g5
tp1723
a(S'treatments'
p1724
S'treatment'
p1725
S'NNS'
p1726
S'I-NP'
p1727
g5
tp1728
a(S'was'
p1729
S'be'
p1730
S'VBD'
p1731
S'B-VP'
p1732
g5
tp1733
a(S'significant'
p1734
S'significant'
p1735
S'JJ'
p1736
S'B-ADJP'
p1737
g5
tp1738
a(S'as'
p1739
S'as'
p1740
S'IN'
p1741
S'B-SBAR'
p1742
g5
tp1743
a(S'indicated'
p1744
S'indicate'
p1745
S'VBN'
p1746
S'B-VP'
p1747
g5
tp1748
a(S'by'
p1749
S'by'
p1750
S'IN'
p1751
S'B-PP'
p1752
g5
tp1753
a(S'the'
p1754
S'the'
p1755
S'DT'
p1756
S'B-NP'
p1757
g5
tp1758
a(S'effect'
p1759
S'effect'
p1760
S'NN'
p1761
S'I-NP'
p1762
g5
tp1763
a(S'of'
p1764
S'of'
p1765
S'IN'
p1766
S'B-PP'
p1767
g5
tp1768
a(S'group'
p1769
S'group'
p1770
S'NN'
p1771
S'B-NP'
p1772
g5
tp1773
a(g98
g98
g98
g5
g5
tp1774
a(S'and'
p1775
S'and'
p1776
S'CC'
p1777
g5
g5
tp1778
a(S'the'
p1779
S'the'
p1780
S'DT'
p1781
S'B-NP'
p1782
g5
tp1783
a(S'between-subjects'
p1784
S'between-subjects'
p1785
S'JJ'
p1786
S'I-NP'
p1787
S'B-protein'
p1788
tp1789
a(S'factor'
p1790
S'factor'
p1791
S'NN'
p1792
S'I-NP'
p1793
S'I-protein'
p1794
tp1795
a(g641
g641
g641
g5
g5
tp1796
a(g1614
g1614
S'NN'
p1797
S'B-NP'
p1798
g5
tp1799
a(g1618
g1618
S'SYM'
p1800
S'B-VP'
p1801
g5
tp1802
a(S'4.17'
p1803
S'4.17'
p1804
S'CD'
p1805
S'B-NP'
p1806
g5
tp1807
a(g98
g98
g98
g5
g5
tp1808
a(S'd.f.'
p1809
S'd.f.'
p1810
S'NN'
p1811
S'B-NP'
p1812
g5
tp1813
a(g1618
g1618
S'SYM'
p1814
S'B-VP'
p1815
g5
tp1816
a(g1444
g1444
S'CD'
p1817
S'B-NP'
p1818
g5
tp1819
a(g98
g98
g98
g5
g5
tp1820
a(g1642
g1642
S'NN'
p1821
S'B-NP'
p1822
g5
tp1823
a(g1618
g1618
S'SYM'
p1824
S'B-VP'
p1825
g5
tp1826
a(S'0.048'
p1827
S'0.048'
p1828
S'CD'
p1829
S'B-NP'
p1830
g5
tp1831
a(g1612
g1612
g37
g5
g5
tp1832
a(g1614
g1614
S'NN'
p1833
S'B-NP'
p1834
g5
tp1835
a(g1618
g1618
S'SYM'
p1836
S'B-VP'
p1837
g5
tp1838
a(S'4.29'
p1839
S'4.29'
p1840
S'CD'
p1841
S'B-NP'
p1842
g5
tp1843
a(g98
g98
g98
g5
g5
tp1844
a(S'd.f.'
p1845
S'd.f.'
p1846
S'NN'
p1847
S'B-NP'
p1848
g5
tp1849
a(g1618
g1618
S'SYM'
p1850
S'B-VP'
p1851
g5
tp1852
a(g1444
g1444
S'CD'
p1853
S'B-NP'
p1854
g5
tp1855
a(g98
g98
g98
g5
g5
tp1856
a(g1642
g1642
S'NN'
p1857
S'B-NP'
p1858
g5
tp1859
a(g1618
g1618
S'SYM'
p1860
S'B-VP'
p1861
g5
tp1862
a(S'0.045'
p1863
S'0.045'
p1864
S'CD'
p1865
S'B-NP'
p1866
g5
tp1867
a(S'respectively'
p1868
S'respectively'
p1869
S'RB'
p1870
S'B-ADVP'
p1871
g5
tp1872
a(g648
g648
g648
g5
g5
tp1873
a(g58
g58
g58
g5
g5
tp1874
a(S'No'
p1875
S'No'
p1876
S'DT'
p1877
S'B-NP'
p1878
g5
tp1879
a(S'significant'
p1880
S'significant'
p1881
S'JJ'
p1882
S'I-NP'
p1883
g5
tp1884
a(S'difference'
p1885
S'difference'
p1886
S'NN'
p1887
S'I-NP'
p1888
g5
tp1889
a(S'was'
p1890
S'be'
p1891
S'VBD'
p1892
S'B-VP'
p1893
g5
tp1894
a(S'observed'
p1895
S'observe'
p1896
S'VBN'
p1897
S'I-VP'
p1898
g5
tp1899
a(S'between'
p1900
S'between'
p1901
S'IN'
p1902
S'B-PP'
p1903
g5
tp1904
a(S'the'
p1905
S'the'
p1906
S'DT'
p1907
S'B-NP'
p1908
g5
tp1909
a(S'two'
p1910
S'two'
p1911
S'CD'
p1912
S'I-NP'
p1913
g5
tp1914
a(S'groups'
p1915
S'group'
p1916
S'NNS'
p1917
S'I-NP'
p1918
g5
tp1919
a(S'in'
p1920
S'in'
p1921
S'IN'
p1922
S'B-PP'
p1923
g5
tp1924
a(S'terms'
p1925
S'term'
p1926
S'NNS'
p1927
S'B-NP'
p1928
g5
tp1929
a(S'of'
p1930
S'of'
p1931
S'IN'
p1932
S'B-PP'
p1933
g5
tp1934
a(S'extrapyramidal'
p1935
S'extrapyramidal'
p1936
S'JJ'
p1937
S'B-NP'
p1938
g5
tp1939
a(S'symptoms'
p1940
S'symptom'
p1941
S'NNS'
p1942
S'I-NP'
p1943
g5
tp1944
a(g641
g641
g641
g5
g5
tp1945
a(g1642
g1642
S'NN'
p1946
S'B-NP'
p1947
g5
tp1948
a(g1618
g1618
S'SYM'
p1949
S'B-VP'
p1950
g5
tp1951
a(S'0.23'
p1952
S'0.23'
p1953
S'CD'
p1954
S'B-NP'
p1955
g5
tp1956
a(g648
g648
g648
g5
g5
tp1957
a(g58
g58
g58
g5
g5
tp1958
a(S'The'
p1959
S'The'
p1960
S'DT'
p1961
S'B-NP'
p1962
g5
tp1963
a(S'difference'
p1964
S'difference'
p1965
S'NN'
p1966
S'I-NP'
p1967
g5
tp1968
a(S'between'
p1969
S'between'
p1970
S'IN'
p1971
S'B-PP'
p1972
g5
tp1973
a(S'the'
p1974
S'the'
p1975
S'DT'
p1976
S'B-NP'
p1977
g5
tp1978
a(S'two'
p1979
S'two'
p1980
S'CD'
p1981
S'I-NP'
p1982
g5
tp1983
a(S'groups'
p1984
S'group'
p1985
S'NNS'
p1986
S'I-NP'
p1987
g5
tp1988
a(S'in'
p1989
S'in'
p1990
S'IN'
p1991
S'B-PP'
p1992
g5
tp1993
a(S'the'
p1994
S'the'
p1995
S'DT'
p1996
S'B-NP'
p1997
g5
tp1998
a(S'frequency'
p1999
S'frequency'
p2000
S'NN'
p2001
S'I-NP'
p2002
g5
tp2003
a(S'of'
p2004
S'of'
p2005
S'IN'
p2006
S'B-PP'
p2007
g5
tp2008
a(S'side'
p2009
S'side'
p2010
S'NN'
p2011
S'B-NP'
p2012
g5
tp2013
a(S'effects'
p2014
S'effect'
p2015
S'NNS'
p2016
S'I-NP'
p2017
g5
tp2018
a(S'was'
p2019
S'be'
p2020
S'VBD'
p2021
S'B-VP'
p2022
g5
tp2023
a(S'not'
p2024
S'not'
p2025
S'RB'
p2026
g5
g5
tp2027
a(S'significant'
p2028
S'significant'
p2029
S'JJ'
p2030
S'B-ADJP'
p2031
g5
tp2032
a(g58
g58
g58
g5
g5
tp2033
a(S'CONCLUSION'
p2034
S'CONCLUSION'
p2035
S'NN'
p2036
S'B-NP'
p2037
g5
tp2038
a(S'The'
p2039
S'The'
p2040
S'DT'
p2041
S'B-NP'
p2042
g5
tp2043
a(S'results'
p2044
S'result'
p2045
S'NNS'
p2046
S'I-NP'
p2047
g5
tp2048
a(S'suggest'
p2049
S'suggest'
p2050
S'VBP'
p2051
S'B-VP'
p2052
g5
tp2053
a(S'that'
p2054
S'that'
p2055
S'IN'
p2056
S'B-SBAR'
p2057
g5
tp2058
a(S'the'
p2059
S'the'
p2060
S'DT'
p2061
S'B-NP'
p2062
g5
tp2063
a(S'combination'
p2064
S'combination'
p2065
S'NN'
p2066
S'I-NP'
p2067
g5
tp2068
a(S'of'
p2069
S'of'
p2070
S'IN'
p2071
S'B-PP'
p2072
g5
tp2073
a(S'cyproheptadine'
p2074
S'cyproheptadine'
p2075
S'NN'
p2076
S'B-NP'
p2077
g5
tp2078
a(S'with'
p2079
S'with'
p2080
S'IN'
p2081
S'B-PP'
p2082
g5
tp2083
a(g39
g39
S'DT'
p2084
S'B-NP'
p2085
g5
tp2086
a(S'conventional'
p2087
S'conventional'
p2088
S'JJ'
p2089
S'I-NP'
p2090
g5
tp2091
a(S'antipsychotic'
p2092
S'antipsychotic'
p2093
S'JJ'
p2094
S'I-NP'
p2095
g5
tp2096
a(S'may'
p2097
S'may'
p2098
S'MD'
p2099
S'B-VP'
p2100
g5
tp2101
a(S'be'
p2102
S'be'
p2103
S'VB'
p2104
S'I-VP'
p2105
g5
tp2106
a(S'superior'
p2107
S'superior'
p2108
S'JJ'
p2109
S'B-ADJP'
p2110
g5
tp2111
a(S'to'
p2112
S'to'
p2113
S'TO'
p2114
S'B-PP'
p2115
g5
tp2116
a(S'conventional'
p2117
S'conventional'
p2118
S'JJ'
p2119
S'B-NP'
p2120
g5
tp2121
a(S'antipsychotic'
p2122
S'antipsychotic'
p2123
S'JJ'
p2124
S'I-NP'
p2125
g5
tp2126
a(S'alone'
p2127
S'alone'
p2128
S'RB'
p2129
S'B-ADVP'
p2130
g5
tp2131
a(S'for'
p2132
S'for'
p2133
S'IN'
p2134
S'B-PP'
p2135
g5
tp2136
a(S'children'
p2137
S'child'
p2138
S'NNS'
p2139
S'B-NP'
p2140
g5
tp2141
a(S'with'
p2142
S'with'
p2143
S'IN'
p2144
S'B-PP'
p2145
g5
tp2146
a(S'autistic'
p2147
S'autistic'
p2148
S'JJ'
p2149
S'B-NP'
p2150
g5
tp2151
a(S'disorder.'
p2152
S'disorder.'
p2153
S'NN'
p2154
S'I-NP'
p2155
g5
tp2156
a(S'However'
p2157
S'However'
p2158
S'RB'
p2159
g5
g5
tp2160
a(S'the'
p2161
S'the'
p2162
S'DT'
p2163
S'B-NP'
p2164
g5
tp2165
a(S'results'
p2166
S'result'
p2167
S'NNS'
p2168
S'I-NP'
p2169
g5
tp2170
a(S'need'
p2171
S'need'
p2172
S'VBP'
p2173
S'B-VP'
p2174
g5
tp2175
a(S'confirmation'
p2176
S'confirmation'
p2177
S'NN'
p2178
S'B-NP'
p2179
g5
tp2180
a(S'by'
p2181
S'by'
p2182
S'IN'
p2183
S'B-PP'
p2184
g5
tp2185
a(g39
g39
S'DT'
p2186
S'B-NP'
p2187
g5
tp2188
a(S'larger'
p2189
S'large'
p2190
S'JJR'
p2191
S'I-NP'
p2192
g5
tp2193
a(S'randomized'
p2194
S'randomize'
p2195
S'VBN'
p2196
S'I-NP'
p2197
g5
tp2198
a(S'controlled'
p2199
S'control'
p2200
S'VBN'
p2201
S'I-NP'
p2202
g5
tp2203
a(S'trial'
p2204
S'trial'
p2205
S'NN'
p2206
S'I-NP'
p2207
g5
tp2208
a(g58
g58
g58
g5
g5
tp2209
a.