(lp0
(S'A'
p1
g1
S'DT'
p2
S'B-NP'
p3
S'O'
p4
tp5
a(S'randomized'
p6
S'randomize'
p7
S'VBN'
p8
S'I-NP'
p9
g4
tp10
a(S'intervention'
p11
S'intervention'
p12
S'NN'
p13
S'I-NP'
p14
g4
tp15
a(S'to'
p16
S'to'
p17
S'TO'
p18
S'B-VP'
p19
g4
tp20
a(S'improve'
p21
S'improve'
p22
S'VB'
p23
S'I-VP'
p24
g4
tp25
a(S'ongoing'
p26
S'ongoing'
p27
S'JJ'
p28
S'B-NP'
p29
g4
tp30
a(S'participation'
p31
S'participation'
p32
S'NN'
p33
S'I-NP'
p34
g4
tp35
a(S'in'
p36
S'in'
p37
S'IN'
p38
S'B-PP'
p39
g4
tp40
a(S'mammography'
p41
S'mammography'
p42
S'NN'
p43
S'B-NP'
p44
g4
tp45
a(S'.'
p46
g46
g46
g4
g4
tp47
a(S'OBJECTIVE'
p48
S'OBJECTIVE'
p49
S'NN'
p50
S'B-NP'
p51
g4
tp52
a(S'To'
p53
S'To'
p54
S'TO'
p55
S'B-VP'
p56
g4
tp57
a(S'test'
p58
S'test'
p59
S'VB'
p60
S'I-VP'
p61
g4
tp62
a(S'the'
p63
S'the'
p64
S'DT'
p65
S'B-NP'
p66
g4
tp67
a(S'effectiveness'
p68
S'effectiveness'
p69
S'NN'
p70
S'I-NP'
p71
g4
tp72
a(S'of'
p73
S'of'
p74
S'IN'
p75
S'B-PP'
p76
g4
tp77
a(S'interventions'
p78
S'intervention'
p79
S'NNS'
p80
S'B-NP'
p81
g4
tp82
a(S'intended'
p83
S'intend'
p84
S'VBN'
p85
S'B-VP'
p86
g4
tp87
a(S'to'
p88
S'to'
p89
S'TO'
p90
S'I-VP'
p91
g4
tp92
a(S'increase'
p93
S'increase'
p94
S'VB'
p95
S'I-VP'
p96
g4
tp97
a(S'rates'
p98
S'rate'
p99
S'NNS'
p100
S'B-NP'
p101
g4
tp102
a(S'of'
p103
S'of'
p104
S'IN'
p105
S'B-PP'
p106
g4
tp107
a(S'regular'
p108
S'regular'
p109
S'JJ'
p110
S'B-NP'
p111
g4
tp112
a(S'breast'
p113
S'breast'
p114
S'NN'
p115
S'I-NP'
p116
g4
tp117
a(S'cancer'
p118
S'cancer'
p119
S'NN'
p120
S'I-NP'
p121
g4
tp122
a(S'screening'
p123
S'screening'
p124
S'NN'
p125
S'I-NP'
p126
g4
tp127
a(S','
p128
g128
g128
g4
g4
tp129
a(S'according'
p130
S'accord'
p131
S'VBG'
p132
S'B-PP'
p133
g4
tp134
a(S'to'
p135
S'to'
p136
S'TO'
p137
S'B-PP'
p138
g4
tp139
a(S'recommended'
p140
S'recommend'
p141
S'VBN'
p142
S'B-NP'
p143
g4
tp144
a(S'guidelines'
p145
S'guideline'
p146
S'NNS'
p147
S'I-NP'
p148
g4
tp149
a(g46
g46
g46
g4
g4
tp150
a(S'STUDY'
p151
S'STUDY'
p152
S'NN'
p153
S'B-NP'
p154
g4
tp155
a(S'DESIGN'
p156
S'DESIGN'
p157
S'NN'
p158
S'I-NP'
p159
g4
tp160
a(g1
g1
S'NN'
p161
S'I-NP'
p162
g4
tp163
a(S'randomized'
p164
S'randomize'
p165
S'VBN'
p166
S'B-VP'
p167
g4
tp168
a(S'controlled'
p169
S'controlled'
p170
S'JJ'
p171
S'B-NP'
p172
g4
tp173
a(S'trial'
p174
S'trial'
p175
S'NN'
p176
S'I-NP'
p177
g4
tp178
a(S'of'
p179
S'of'
p180
S'IN'
p181
S'B-PP'
p182
g4
tp183
a(S'2'
p184
g184
S'CD'
p185
S'B-NP'
p186
g4
tp187
a(S'outreach'
p188
S'outreach'
p189
S'JJ'
p190
S'I-NP'
p191
g4
tp192
a(S'interventions'
p193
S'intervention'
p194
S'NNS'
p195
S'I-NP'
p196
g4
tp197
a(S'('
p198
g198
g198
g4
g4
tp199
a(S'a'
p200
g200
S'DT'
p201
S'B-NP'
p202
g4
tp203
a(S'mail'
p204
S'mail'
p205
S'NN'
p206
S'I-NP'
p207
g4
tp208
a(S'reminder'
p209
S'reminder'
p210
S'NN'
p211
S'I-NP'
p212
g4
tp213
a(S'and'
p214
S'and'
p215
S'CC'
p216
g4
g4
tp217
a(g200
g200
S'DT'
p218
S'B-NP'
p219
g4
tp220
a(S'telephone'
p221
S'telephone'
p222
S'NN'
p223
S'I-NP'
p224
g4
tp225
a(S'reminder'
p226
S'reminder'
p227
S'NN'
p228
S'I-NP'
p229
g4
tp230
a(S'plus'
p231
S'plus'
p232
S'CC'
p233
g4
g4
tp234
a(S'appointment'
p235
S'appointment'
p236
S'NN'
p237
S'B-NP'
p238
g4
tp239
a(S'scheduling'
p240
S'scheduling'
p241
S'NN'
p242
S'I-NP'
p243
g4
tp244
a(S')'
p245
g245
g245
g4
g4
tp246
a(S'compared'
p247
S'compare'
p248
S'VBN'
p249
S'B-PP'
p250
g4
tp251
a(S'with'
p252
S'with'
p253
S'IN'
p254
S'B-PP'
p255
g4
tp256
a(g200
g200
S'DT'
p257
S'B-NP'
p258
g4
tp259
a(S'routine'
p260
S'routine'
p261
S'JJ'
p262
S'I-NP'
p263
g4
tp264
a(S'publicity'
p265
S'publicity'
p266
S'NN'
p267
S'I-NP'
p268
g4
tp269
a(S'campaign'
p270
S'campaign'
p271
S'NN'
p272
S'I-NP'
p273
g4
tp274
a(S'to'
p275
S'to'
p276
S'TO'
p277
S'B-VP'
p278
g4
tp279
a(S'encourage'
p280
S'encourage'
p281
S'VB'
p282
S'I-VP'
p283
g4
tp284
a(S'continued'
p285
S'continued'
p286
S'JJ'
p287
S'B-NP'
p288
g4
tp289
a(S'participation'
p290
S'participation'
p291
S'NN'
p292
S'I-NP'
p293
g4
tp294
a(S'in'
p295
S'in'
p296
S'IN'
p297
S'B-PP'
p298
g4
tp299
a(S'mammography'
p300
S'mammography'
p301
S'NN'
p302
S'B-NP'
p303
g4
tp304
a(S'screening'
p305
S'screening'
p306
S'NN'
p307
S'I-NP'
p308
g4
tp309
a(g46
g46
g46
g4
g4
tp310
a(S'PARTICIPANTS'
p311
S'PARTICIPANTS'
p312
S'NNS'
p313
S'B-NP'
p314
g4
tp315
a(S'AND'
p316
S'AND'
p317
S'CC'
p318
S'I-NP'
p319
g4
tp320
a(S'METHODS'
p321
S'METHODS'
p322
S'NNS'
p323
S'I-NP'
p324
g4
tp325
a(S'Participants'
p326
S'Participant'
p327
S'NNS'
p328
S'I-NP'
p329
g4
tp330
a(S'were'
p331
S'be'
p332
S'VBD'
p333
S'B-VP'
p334
g4
tp335
a(S'1908'
p336
S'1908'
p337
S'CD'
p338
S'B-NP'
p339
g4
tp340
a(S'women'
p341
S'woman'
p342
S'NNS'
p343
S'I-NP'
p344
g4
tp345
a(S'aged'
p346
S'age'
p347
S'VBN'
p348
S'B-ADJP'
p349
g4
tp350
a(S'50'
p351
S'50'
p352
S'CD'
p353
S'B-NP'
p354
g4
tp355
a(S'to'
p356
S'to'
p357
S'TO'
p358
S'I-NP'
p359
g4
tp360
a(S'75'
p361
S'75'
p362
S'CD'
p363
S'I-NP'
p364
g4
tp365
a(S'years'
p366
S'year'
p367
S'NNS'
p368
S'I-NP'
p369
g4
tp370
a(S'continuously'
p371
S'continuously'
p372
S'RB'
p373
S'B-VP'
p374
g4
tp375
a(S'enrolled'
p376
S'enrol'
p377
S'VBN'
p378
S'I-VP'
p379
g4
tp380
a(S'in'
p381
S'in'
p382
S'IN'
p383
S'B-PP'
p384
g4
tp385
a(g200
g200
S'DT'
p386
S'B-NP'
p387
g4
tp388
a(S'large'
p389
S'large'
p390
S'JJ'
p391
S'I-NP'
p392
g4
tp393
a(S'group-model'
p394
S'group-model'
p395
S'JJ'
p396
S'I-NP'
p397
g4
tp398
a(S'HMO'
p399
S'HMO'
p400
S'NN'
p401
S'I-NP'
p402
g4
tp403
a(S'during'
p404
S'during'
p405
S'IN'
p406
S'B-PP'
p407
g4
tp408
a(S'the'
p409
S'the'
p410
S'DT'
p411
S'B-NP'
p412
g4
tp413
a(S'study'
p414
S'study'
p415
S'NN'
p416
S'I-NP'
p417
g4
tp418
a(S'who'
p419
S'who'
p420
S'WP'
p421
S'B-NP'
p422
g4
tp423
a(S'underwent'
p424
S'undergo'
p425
S'VBD'
p426
S'B-VP'
p427
g4
tp428
a(g200
g200
S'DT'
p429
S'B-NP'
p430
g4
tp431
a(S'bilateral'
p432
S'bilateral'
p433
S'JJ'
p434
S'I-NP'
p435
g4
tp436
a(S'mammogram'
p437
S'mammogram'
p438
S'NN'
p439
S'I-NP'
p440
g4
tp441
a(S'during'
p442
S'during'
p443
S'IN'
p444
S'B-PP'
p445
g4
tp446
a(S'the'
p447
S'the'
p448
S'DT'
p449
S'B-NP'
p450
g4
tp451
a(S'first'
p452
S'first'
p453
S'JJ'
p454
S'I-NP'
p455
g4
tp456
a(S'quarter'
p457
S'quarter'
p458
S'NN'
p459
S'I-NP'
p460
g4
tp461
a(S'of'
p462
S'of'
p463
S'IN'
p464
S'B-PP'
p465
g4
tp466
a(S'1994'
p467
S'1994'
p468
S'CD'
p469
S'B-NP'
p470
g4
tp471
a(S'and'
p472
S'and'
p473
S'CC'
p474
g4
g4
tp475
a(S'no'
p476
S'no'
p477
S'DT'
p478
S'B-NP'
p479
g4
tp480
a(S'subsequent'
p481
S'subsequent'
p482
S'JJ'
p483
S'I-NP'
p484
g4
tp485
a(S'mammogram'
p486
S'mammogram'
p487
S'NN'
p488
S'I-NP'
p489
g4
tp490
a(S'during'
p491
S'during'
p492
S'IN'
p493
S'B-PP'
p494
g4
tp495
a(S'the'
p496
S'the'
p497
S'DT'
p498
S'B-NP'
p499
g4
tp500
a(S'next'
p501
S'next'
p502
S'JJ'
p503
S'I-NP'
p504
g4
tp505
a(S'18'
p506
S'18'
p507
S'CD'
p508
S'I-NP'
p509
g4
tp510
a(S'to'
p511
S'to'
p512
S'TO'
p513
S'I-NP'
p514
g4
tp515
a(S'21'
p516
S'21'
p517
S'CD'
p518
S'I-NP'
p519
g4
tp520
a(S'months.'
p521
S'months.'
p522
S'NNS'
p523
S'I-NP'
p524
g4
tp525
a(S'Data'
p526
S'Data'
p527
S'NNP'
p528
S'B-NP'
p529
g4
tp530
a(S'were'
p531
S'be'
p532
S'VBD'
p533
S'B-VP'
p534
g4
tp535
a(S'obtained'
p536
S'obtain'
p537
S'VBN'
p538
S'I-VP'
p539
g4
tp540
a(S'from'
p541
S'from'
p542
S'IN'
p543
S'B-PP'
p544
g4
tp545
a(S'health'
p546
S'health'
p547
S'NN'
p548
S'B-NP'
p549
g4
tp550
a(S'plan'
p551
S'plan'
p552
S'NN'
p553
S'I-NP'
p554
g4
tp555
a(S'administrative'
p556
S'administrative'
p557
S'JJ'
p558
S'I-NP'
p559
g4
tp560
a(S'data'
p561
S'datum'
p562
S'NNS'
p563
S'I-NP'
p564
g4
tp565
a(S'files'
p566
S'file'
p567
S'NNS'
p568
S'I-NP'
p569
g4
tp570
a(S'supplemented'
p571
S'supplement'
p572
S'VBN'
p573
S'B-VP'
p574
g4
tp575
a(S'by'
p576
S'by'
p577
S'IN'
p578
S'B-PP'
p579
g4
tp580
a(S'medical'
p581
S'medical'
p582
S'JJ'
p583
S'B-NP'
p584
g4
tp585
a(S'chart'
p586
S'chart'
p587
S'NN'
p588
S'I-NP'
p589
g4
tp590
a(S'review.'
p591
S'review.'
p592
S'NN'
p593
S'I-NP'
p594
g4
tp595
a(S'Women'
p596
S'Woman'
p597
S'NNS'
p598
S'I-NP'
p599
g4
tp600
a(S'were'
p601
S'be'
p602
S'VBD'
p603
S'B-VP'
p604
g4
tp605
a(S'randomly'
p606
S'randomly'
p607
S'RB'
p608
S'I-VP'
p609
g4
tp610
a(S'assigned'
p611
S'assign'
p612
S'VBN'
p613
S'I-VP'
p614
g4
tp615
a(S'to'
p616
S'to'
p617
S'TO'
p618
S'I-VP'
p619
g4
tp620
a(S'receive'
p621
S'receive'
p622
S'VB'
p623
S'I-VP'
p624
g4
tp625
a(g198
g198
g198
S'B-LST'
p626
g4
tp627
a(S'1'
p628
g628
S'LS'
p629
S'I-LST'
p630
g4
tp631
a(g245
g245
g245
g4
g4
tp632
a(g200
g200
S'DT'
p633
S'B-NP'
p634
g4
tp635
a(S'mail'
p636
S'mail'
p637
S'NN'
p638
S'I-NP'
p639
g4
tp640
a(S'reminder'
p641
S'reminder'
p642
S'NN'
p643
S'I-NP'
p644
g4
tp645
a(g128
g128
g128
g4
g4
tp646
a(g198
g198
g198
S'B-LST'
p647
g4
tp648
a(g184
g184
S'LS'
p649
S'I-LST'
p650
g4
tp651
a(g245
g245
g245
g4
g4
tp652
a(g200
g200
S'DT'
p653
S'B-NP'
p654
g4
tp655
a(S'telephone'
p656
S'telephone'
p657
S'NN'
p658
S'I-NP'
p659
g4
tp660
a(S'reminder'
p661
S'reminder'
p662
S'NN'
p663
S'I-NP'
p664
g4
tp665
a(g128
g128
g128
g4
g4
tp666
a(S'or'
p667
S'or'
p668
S'CC'
p669
g4
g4
tp670
a(g198
g198
g198
S'B-LST'
p671
g4
tp672
a(S'3'
p673
g673
S'LS'
p674
S'I-LST'
p675
g4
tp676
a(g245
g245
g245
g4
g4
tp677
a(S'routine'
p678
S'routine'
p679
S'JJ'
p680
S'B-NP'
p681
g4
tp682
a(S'publicity'
p683
S'publicity'
p684
S'NN'
p685
S'I-NP'
p686
g4
tp687
a(S'on'
p688
S'on'
p689
S'IN'
p690
S'B-PP'
p691
g4
tp692
a(S'mammography'
p693
S'mammography'
p694
S'NN'
p695
S'B-NP'
p696
g4
tp697
a(S'for'
p698
S'for'
p699
S'IN'
p700
S'B-PP'
p701
g4
tp702
a(S'all'
p703
S'all'
p704
S'DT'
p705
S'B-NP'
p706
g4
tp707
a(S'women.'
p708
S'women.'
p709
S'FW'
p710
S'I-NP'
p711
g4
tp712
a(S'The'
p713
S'The'
p714
S'DT'
p715
S'B-NP'
p716
g4
tp717
a(S'outcome'
p718
S'outcome'
p719
S'NN'
p720
S'I-NP'
p721
g4
tp722
a(S'measure'
p723
S'measure'
p724
S'NN'
p725
S'I-NP'
p726
g4
tp727
a(S'was'
p728
S'be'
p729
S'VBD'
p730
S'B-VP'
p731
g4
tp732
a(g200
g200
S'DT'
p733
S'B-NP'
p734
g4
tp735
a(S'mammogram'
p736
S'mammogram'
p737
S'NN'
p738
S'I-NP'
p739
g4
tp740
a(S'received'
p741
S'receive'
p742
S'VBD'
p743
S'B-VP'
p744
g4
tp745
a(S'after'
p746
S'after'
p747
S'IN'
p748
S'B-SBAR'
p749
g4
tp750
a(S'the'
p751
S'the'
p752
S'DT'
p753
S'B-NP'
p754
g4
tp755
a(S'intervention'
p756
S'intervention'
p757
S'NN'
p758
S'I-NP'
p759
g4
tp760
a(S'period'
p761
S'period'
p762
S'NN'
p763
S'I-NP'
p764
g4
tp765
a(S'and'
p766
S'and'
p767
S'CC'
p768
g4
g4
tp769
a(S'within'
p770
S'within'
p771
S'IN'
p772
S'B-PP'
p773
g4
tp774
a(g184
g184
S'CD'
p775
S'B-NP'
p776
g4
tp777
a(S'years'
p778
S'year'
p779
S'NNS'
p780
S'I-NP'
p781
g4
tp782
a(S'of'
p783
S'of'
p784
S'IN'
p785
S'B-PP'
p786
g4
tp787
a(S'the'
p788
S'the'
p789
S'DT'
p790
S'B-NP'
p791
g4
tp792
a(S'initial'
p793
S'initial'
p794
S'JJ'
p795
S'I-NP'
p796
g4
tp797
a(S'mammogram'
p798
S'mammogram'
p799
S'NN'
p800
S'I-NP'
p801
g4
tp802
a(S'date'
p803
S'date'
p804
S'NN'
p805
S'I-NP'
p806
g4
tp807
a(g46
g46
g46
g4
g4
tp808
a(S'RESULTS'
p809
S'RESULTS'
p810
S'NNS'
p811
S'B-NP'
p812
g4
tp813
a(S'Bivariate'
p814
S'Bivariate'
p815
S'JJ'
p816
S'I-NP'
p817
g4
tp818
a(S'and'
p819
S'and'
p820
S'CC'
p821
S'I-NP'
p822
g4
tp823
a(S'multivariate'
p824
S'multivariate'
p825
S'JJ'
p826
S'I-NP'
p827
g4
tp828
a(S'statistical'
p829
S'statistical'
p830
S'JJ'
p831
S'I-NP'
p832
g4
tp833
a(S'analyses'
p834
S'analysis'
p835
S'NNS'
p836
S'I-NP'
p837
g4
tp838
a(S'showed'
p839
S'show'
p840
S'VBD'
p841
S'B-VP'
p842
g4
tp843
a(S'that'
p844
S'that'
p845
S'IN'
p846
S'B-SBAR'
p847
g4
tp848
a(S'participation'
p849
S'participation'
p850
S'NN'
p851
S'B-NP'
p852
g4
tp853
a(S'was'
p854
S'be'
p855
S'VBD'
p856
S'B-VP'
p857
g4
tp858
a(S'significantly'
p859
S'significantly'
p860
S'RB'
p861
S'B-ADJP'
p862
g4
tp863
a(S'higher'
p864
S'high'
p865
S'JJR'
p866
S'I-ADJP'
p867
g4
tp868
a(S'for'
p869
S'for'
p870
S'IN'
p871
S'B-PP'
p872
g4
tp873
a(S'women'
p874
S'woman'
p875
S'NNS'
p876
S'B-NP'
p877
g4
tp878
a(S'contacted'
p879
S'contact'
p880
S'VBN'
p881
S'B-VP'
p882
g4
tp883
a(S'by'
p884
S'by'
p885
S'IN'
p886
S'B-PP'
p887
g4
tp888
a(S'telephone'
p889
S'telephone'
p890
S'NN'
p891
S'B-NP'
p892
g4
tp893
a(S'than'
p894
S'than'
p895
S'IN'
p896
S'B-PP'
p897
g4
tp898
a(S'through'
p899
S'through'
p900
S'IN'
p901
S'B-PP'
p902
g4
tp903
a(S'routine'
p904
S'routine'
p905
S'JJ'
p906
S'B-NP'
p907
g4
tp908
a(S'publicity.'
p909
S'publicity.'
p910
S'NN'
p911
S'I-NP'
p912
g4
tp913
a(S'Mail'
p914
S'Mail'
p915
S'NNP'
p916
S'I-NP'
p917
g4
tp918
a(S'reminders'
p919
S'reminder'
p920
S'NNS'
p921
S'I-NP'
p922
g4
tp923
a(S'were'
p924
S'be'
p925
S'VBD'
p926
S'B-VP'
p927
g4
tp928
a(S'no'
p929
S'no'
p930
S'DT'
p931
S'B-ADJP'
p932
g4
tp933
a(S'more'
p934
S'more'
p935
S'RBR'
p936
S'I-ADJP'
p937
g4
tp938
a(S'effective'
p939
S'effective'
p940
S'JJ'
p941
S'I-ADJP'
p942
g4
tp943
a(S'than'
p944
S'than'
p945
S'IN'
p946
S'B-PP'
p947
g4
tp948
a(g200
g200
S'DT'
p949
S'B-NP'
p950
g4
tp951
a(S'routine'
p952
S'routine'
p953
S'JJ'
p954
S'I-NP'
p955
g4
tp956
a(S'publicity'
p957
S'publicity'
p958
S'NN'
p959
S'I-NP'
p960
g4
tp961
a(S'campaign.'
p962
S'campaign.'
p963
S'NN'
p964
S'I-NP'
p965
g4
tp966
a(S'Primary'
p967
S'Primary'
p968
S'JJ'
p969
S'I-NP'
p970
g4
tp971
a(S'care'
p972
S'care'
p973
S'NN'
p974
S'I-NP'
p975
g4
tp976
a(S'physician'
p977
S'physician'
p978
S'NN'
p979
S'I-NP'
p980
g4
tp981
a(S'and'
p982
S'and'
p983
S'CC'
p984
S'I-NP'
p985
g4
tp986
a(S'gynecologist'
p987
S'gynecologist'
p988
S'NN'
p989
S'I-NP'
p990
g4
tp991
a(S'visits'
p992
S'visit'
p993
S'NNS'
p994
S'I-NP'
p995
g4
tp996
a(S'increased'
p997
S'increase'
p998
S'VBD'
p999
S'B-VP'
p1000
g4
tp1001
a(S'the'
p1002
S'the'
p1003
S'DT'
p1004
S'B-NP'
p1005
g4
tp1006
a(S'likelihood'
p1007
S'likelihood'
p1008
S'NN'
p1009
S'I-NP'
p1010
g4
tp1011
a(S'of'
p1012
S'of'
p1013
S'IN'
p1014
S'B-PP'
p1015
g4
tp1016
a(g200
g200
S'DT'
p1017
S'B-NP'
p1018
g4
tp1019
a(S'subsequent'
p1020
S'subsequent'
p1021
S'JJ'
p1022
S'I-NP'
p1023
g4
tp1024
a(S'mammogram'
p1025
S'mammogram'
p1026
S'NN'
p1027
S'I-NP'
p1028
g4
tp1029
a(S'for'
p1030
S'for'
p1031
S'IN'
p1032
S'B-PP'
p1033
g4
tp1034
a(S'women'
p1035
S'woman'
p1036
S'NNS'
p1037
S'B-NP'
p1038
g4
tp1039
a(S'in'
p1040
S'in'
p1041
S'IN'
p1042
S'B-PP'
p1043
g4
tp1044
a(S'all'
p1045
S'all'
p1046
S'DT'
p1047
S'B-NP'
p1048
g4
tp1049
a(S'intervention'
p1050
S'intervention'
p1051
S'NN'
p1052
S'I-NP'
p1053
g4
tp1054
a(S'groups'
p1055
S'group'
p1056
S'NNS'
p1057
S'I-NP'
p1058
g4
tp1059
a(g46
g46
g46
g4
g4
tp1060
a(S'CONCLUSIONS'
p1061
S'CONCLUSIONS'
p1062
S'NNS'
p1063
S'B-NP'
p1064
g4
tp1065
a(S'Telephone'
p1066
S'Telephone'
p1067
S'NN'
p1068
S'I-NP'
p1069
g4
tp1070
a(S'contact'
p1071
S'contact'
p1072
S'NN'
p1073
S'I-NP'
p1074
g4
tp1075
a(S'by'
p1076
S'by'
p1077
S'IN'
p1078
S'B-PP'
p1079
g4
tp1080
a(S'regular'
p1081
S'regular'
p1082
S'JJ'
p1083
S'B-NP'
p1084
g4
tp1085
a(S'health'
p1086
S'health'
p1087
S'NN'
p1088
S'I-NP'
p1089
g4
tp1090
a(S'plan'
p1091
S'plan'
p1092
S'NN'
p1093
S'I-NP'
p1094
g4
tp1095
a(S'staff'
p1096
S'staff'
p1097
S'NN'
p1098
S'I-NP'
p1099
g4
tp1100
a(S'was'
p1101
S'be'
p1102
S'VBD'
p1103
S'B-VP'
p1104
g4
tp1105
a(S'more'
p1106
S'more'
p1107
S'RBR'
p1108
S'B-ADJP'
p1109
g4
tp1110
a(S'successful'
p1111
S'successful'
p1112
S'JJ'
p1113
S'I-ADJP'
p1114
g4
tp1115
a(S'than'
p1116
S'than'
p1117
S'IN'
p1118
S'B-PP'
p1119
g4
tp1120
a(S'publicity'
p1121
S'publicity'
p1122
S'NN'
p1123
S'B-NP'
p1124
g4
tp1125
a(S'in'
p1126
S'in'
p1127
S'IN'
p1128
S'B-PP'
p1129
g4
tp1130
a(S'encouraging'
p1131
S'encourage'
p1132
S'VBG'
p1133
S'B-VP'
p1134
g4
tp1135
a(S'continued'
p1136
S'continued'
p1137
S'JJ'
p1138
S'B-NP'
p1139
g4
tp1140
a(S'participation'
p1141
S'participation'
p1142
S'NN'
p1143
S'I-NP'
p1144
g4
tp1145
a(S'in'
p1146
S'in'
p1147
S'IN'
p1148
S'B-PP'
p1149
g4
tp1150
a(S'mammography'
p1151
S'mammography'
p1152
S'NN'
p1153
S'B-NP'
p1154
g4
tp1155
a(S'screening'
p1156
S'screening'
p1157
S'NN'
p1158
S'I-NP'
p1159
g4
tp1160
a(S'in'
p1161
S'in'
p1162
S'IN'
p1163
S'B-PP'
p1164
g4
tp1165
a(S'women'
p1166
S'woman'
p1167
S'NNS'
p1168
S'B-NP'
p1169
g4
tp1170
a(S'enrolled'
p1171
S'enrol'
p1172
S'VBN'
p1173
S'B-VP'
p1174
g4
tp1175
a(S'in'
p1176
S'in'
p1177
S'IN'
p1178
S'B-PP'
p1179
g4
tp1180
a(g200
g200
S'DT'
p1181
S'B-NP'
p1182
g4
tp1183
a(S'group-model'
p1184
S'group-model'
p1185
S'NN'
p1186
S'I-NP'
p1187
g4
tp1188
a(S'managed'
p1189
S'manage'
p1190
S'VBD'
p1191
S'B-VP'
p1192
g4
tp1193
a(S'health'
p1194
S'health'
p1195
S'NN'
p1196
S'B-NP'
p1197
g4
tp1198
a(S'care'
p1199
S'care'
p1200
S'NN'
p1201
S'I-NP'
p1202
g4
tp1203
a(S'plan.'
p1204
S'plan.'
p1205
S'NN'
p1206
S'I-NP'
p1207
g4
tp1208
a(S'Because'
p1209
S'Because'
p1210
S'IN'
p1211
S'B-SBAR'
p1212
g4
tp1213
a(S'mailings'
p1214
S'mailing'
p1215
S'NNS'
p1216
S'B-NP'
p1217
g4
tp1218
a(S'did'
p1219
S'do'
p1220
S'VBD'
p1221
S'B-VP'
p1222
g4
tp1223
a(S'not'
p1224
S'not'
p1225
S'RB'
p1226
S'I-VP'
p1227
g4
tp1228
a(S'influence'
p1229
S'influence'
p1230
S'VB'
p1231
S'I-VP'
p1232
g4
tp1233
a(S'participation'
p1234
S'participation'
p1235
S'NN'
p1236
S'B-NP'
p1237
g4
tp1238
a(S'in'
p1239
S'in'
p1240
S'IN'
p1241
S'B-PP'
p1242
g4
tp1243
a(S'mammography'
p1244
S'mammography'
p1245
S'NN'
p1246
S'B-NP'
p1247
g4
tp1248
a(S'screening'
p1249
S'screening'
p1250
S'NN'
p1251
S'I-NP'
p1252
g4
tp1253
a(g128
g128
g128
g4
g4
tp1254
a(S'health'
p1255
S'health'
p1256
S'NN'
p1257
S'B-NP'
p1258
g4
tp1259
a(S'plans'
p1260
S'plan'
p1261
S'NNS'
p1262
S'I-NP'
p1263
g4
tp1264
a(S'should'
p1265
S'should'
p1266
S'MD'
p1267
S'B-VP'
p1268
g4
tp1269
a(S'be'
p1270
S'be'
p1271
S'VB'
p1272
S'I-VP'
p1273
g4
tp1274
a(S'cautious'
p1275
S'cautious'
p1276
S'JJ'
p1277
S'B-ADJP'
p1278
g4
tp1279
a(S'about'
p1280
S'about'
p1281
S'IN'
p1282
S'B-PP'
p1283
g4
tp1284
a(S'investing'
p1285
S'invest'
p1286
S'VBG'
p1287
S'B-VP'
p1288
g4
tp1289
a(S'in'
p1290
S'in'
p1291
S'IN'
p1292
S'B-PP'
p1293
g4
tp1294
a(S'member'
p1295
S'member'
p1296
S'NN'
p1297
S'B-NP'
p1298
g4
tp1299
a(S'mailings'
p1300
S'mailing'
p1301
S'NNS'
p1302
S'I-NP'
p1303
g4
tp1304
a(S'without'
p1305
S'without'
p1306
S'IN'
p1307
S'B-PP'
p1308
g4
tp1309
a(S'first'
p1310
S'first'
p1311
S'RB'
p1312
S'B-ADVP'
p1313
g4
tp1314
a(S'evaluating'
p1315
S'evaluate'
p1316
S'VBG'
p1317
S'B-VP'
p1318
g4
tp1319
a(S'their'
p1320
S'their'
p1321
S'PRP$'
p1322
S'B-NP'
p1323
g4
tp1324
a(S'effectiveness'
p1325
S'effectiveness'
p1326
S'NN'
p1327
S'I-NP'
p1328
g4
tp1329
a(S'in'
p1330
S'in'
p1331
S'IN'
p1332
S'B-PP'
p1333
g4
tp1334
a(S'the'
p1335
S'the'
p1336
S'DT'
p1337
S'B-NP'
p1338
g4
tp1339
a(S'context'
p1340
S'context'
p1341
S'NN'
p1342
S'I-NP'
p1343
g4
tp1344
a(S'of'
p1345
S'of'
p1346
S'IN'
p1347
S'B-PP'
p1348
g4
tp1349
a(S'existing'
p1350
S'exist'
p1351
S'VBG'
p1352
S'B-NP'
p1353
g4
tp1354
a(S'outreach'
p1355
S'outreach'
p1356
S'JJ'
p1357
S'I-NP'
p1358
g4
tp1359
a(S'efforts'
p1360
S'effort'
p1361
S'NNS'
p1362
S'I-NP'
p1363
g4
tp1364
a(g46
g46
g46
g4
g4
tp1365
a.