(lp0
(S'A'
p1
g1
S'DT'
p2
S'B-NP'
p3
S'O'
p4
tp5
a(S'workplace'
p6
S'workplace'
p7
S'NN'
p8
S'I-NP'
p9
g4
tp10
a(S'intervention'
p11
S'intervention'
p12
S'NN'
p13
S'I-NP'
p14
g4
tp15
a(S'for'
p16
S'for'
p17
S'IN'
p18
S'B-PP'
p19
g4
tp20
a(S'increasing'
p21
S'increase'
p22
S'VBG'
p23
S'B-VP'
p24
g4
tp25
a(S'outdoor'
p26
S'outdoor'
p27
S'JJ'
p28
S'B-NP'
p29
g4
tp30
a(S'workers'
p31
S'worker'
p32
S'NNS'
p33
S'I-NP'
p34
g4
tp35
a(S"'"
p36
g36
S'POS'
p37
S'B-NP'
p38
g4
tp39
a(S'use'
p40
S'use'
p41
S'NN'
p42
S'I-NP'
p43
g4
tp44
a(S'of'
p45
S'of'
p46
S'IN'
p47
S'B-PP'
p48
g4
tp49
a(S'solar'
p50
S'solar'
p51
S'JJ'
p52
S'B-NP'
p53
g4
tp54
a(S'protection'
p55
S'protection'
p56
S'NN'
p57
S'I-NP'
p58
g4
tp59
a(S'.'
p60
g60
g60
g4
g4
tp61
a(S'OBJECTIVES'
p62
S'OBJECTIVES'
p63
S'NNS'
p64
S'B-NP'
p65
g4
tp66
a(S'Outdoor'
p67
S'Outdoor'
p68
S'IN'
p69
S'B-PP'
p70
g4
tp71
a(S'workers'
p72
S'worker'
p73
S'NNS'
p74
S'B-NP'
p75
g4
tp76
a(S'are'
p77
S'be'
p78
S'VBP'
p79
S'B-VP'
p80
g4
tp81
a(S'at'
p82
S'at'
p83
S'IN'
p84
S'B-PP'
p85
g4
tp86
a(S'high'
p87
S'high'
p88
S'JJ'
p89
S'B-NP'
p90
g4
tp91
a(S'risk'
p92
S'risk'
p93
S'NN'
p94
S'I-NP'
p95
g4
tp96
a(S'of'
p97
S'of'
p98
S'IN'
p99
S'B-PP'
p100
g4
tp101
a(S'developing'
p102
S'develop'
p103
S'VBG'
p104
S'B-VP'
p105
g4
tp106
a(S'skin'
p107
S'skin'
p108
S'NN'
p109
S'B-NP'
p110
g4
tp111
a(S'cancer.'
p112
S'cancer.'
p113
S'NN'
p114
S'I-NP'
p115
g4
tp116
a(S'Primary'
p117
S'Primary'
p118
S'JJ'
p119
S'I-NP'
p120
g4
tp121
a(S'prevention'
p122
S'prevention'
p123
S'NN'
p124
S'I-NP'
p125
g4
tp126
a(S'in'
p127
S'in'
p128
S'IN'
p129
S'B-PP'
p130
g4
tp131
a(S'this'
p132
S'this'
p133
S'DT'
p134
S'B-NP'
p135
g4
tp136
a(S'group'
p137
S'group'
p138
S'NN'
p139
S'I-NP'
p140
g4
tp141
a(S'can'
p142
S'can'
p143
S'MD'
p144
S'B-VP'
p145
g4
tp146
a(S'potentially'
p147
S'potentially'
p148
S'RB'
p149
S'I-VP'
p150
g4
tp151
a(S'reduce'
p152
S'reduce'
p153
S'VB'
p154
S'I-VP'
p155
g4
tp156
a(S'the'
p157
S'the'
p158
S'DT'
p159
S'B-NP'
p160
g4
tp161
a(S'incidence'
p162
S'incidence'
p163
S'NN'
p164
S'I-NP'
p165
g4
tp166
a(S'of'
p167
S'of'
p168
S'IN'
p169
S'B-PP'
p170
g4
tp171
a(S'skin'
p172
S'skin'
p173
S'NN'
p174
S'B-NP'
p175
g4
tp176
a(S'cancer'
p177
S'cancer'
p178
S'NN'
p179
S'I-NP'
p180
g4
tp181
a(S','
p182
g182
g182
g4
g4
tp183
a(S'and'
p184
S'and'
p185
S'CC'
p186
g4
g4
tp187
a(S'also'
p188
S'also'
p189
S'RB'
p190
S'B-VP'
p191
g4
tp192
a(S'potentiates'
p193
S'potentiate'
p194
S'VBZ'
p195
S'I-VP'
p196
g4
tp197
a(S'the'
p198
S'the'
p199
S'DT'
p200
S'B-NP'
p201
g4
tp202
a(S'spontaneous'
p203
S'spontaneous'
p204
S'JJ'
p205
S'I-NP'
p206
g4
tp207
a(S'remission'
p208
S'remission'
p209
S'NN'
p210
S'I-NP'
p211
g4
tp212
a(S'of'
p213
S'of'
p214
S'IN'
p215
S'B-PP'
p216
g4
tp217
a(S'existing'
p218
S'exist'
p219
S'VBG'
p220
S'B-NP'
p221
g4
tp222
a(S'solar'
p223
S'solar'
p224
S'JJ'
p225
S'I-NP'
p226
g4
tp227
a(S'keratoses.'
p228
S'keratoses.'
p229
S'NN'
p230
S'I-NP'
p231
g4
tp232
a(g1
g1
S'NN'
p233
S'I-NP'
p234
g4
tp235
a(S'randomized'
p236
S'randomize'
p237
S'VBN'
p238
S'B-VP'
p239
g4
tp240
a(S'controlled'
p241
S'controlled'
p242
S'JJ'
p243
S'B-NP'
p244
g4
tp245
a(S'trial'
p246
S'trial'
p247
S'NN'
p248
S'I-NP'
p249
g4
tp250
a(S'was'
p251
S'be'
p252
S'VBD'
p253
S'B-VP'
p254
g4
tp255
a(S'conducted'
p256
S'conduct'
p257
S'VBN'
p258
S'I-VP'
p259
g4
tp260
a(S'to'
p261
S'to'
p262
S'TO'
p263
S'I-VP'
p264
g4
tp265
a(S'evaluate'
p266
S'evaluate'
p267
S'VB'
p268
S'I-VP'
p269
g4
tp270
a(S'a'
p271
g271
S'DT'
p272
S'B-NP'
p273
g4
tp274
a(S'solar'
p275
S'solar'
p276
S'JJ'
p277
S'I-NP'
p278
g4
tp279
a(S'protection'
p280
S'protection'
p281
S'NN'
p282
S'I-NP'
p283
g4
tp284
a(S'intervention'
p285
S'intervention'
p286
S'NN'
p287
S'I-NP'
p288
g4
tp289
a(S'targeting'
p290
S'target'
p291
S'VBG'
p292
S'B-VP'
p293
g4
tp294
a(S'outdoor'
p295
S'outdoor'
p296
S'JJ'
p297
S'B-NP'
p298
g4
tp299
a(S'workers'
p300
S'worker'
p301
S'NNS'
p302
S'I-NP'
p303
g4
tp304
a(g60
g60
g60
g4
g4
tp305
a(S'METHODS'
p306
S'METHODS'
p307
S'NNS'
p308
S'B-NP'
p309
g4
tp310
a(S'Outdoor'
p311
S'Outdoor'
p312
S'IN'
p313
S'B-PP'
p314
g4
tp315
a(S'workers'
p316
S'worker'
p317
S'NNS'
p318
S'B-NP'
p319
g4
tp320
a(S'were'
p321
S'be'
p322
S'VBD'
p323
S'B-VP'
p324
g4
tp325
a(S'randomly'
p326
S'randomly'
p327
S'RB'
p328
S'I-VP'
p329
g4
tp330
a(S'allocated'
p331
S'allocate'
p332
S'VBN'
p333
S'I-VP'
p334
g4
tp335
a(S'to'
p336
S'to'
p337
S'TO'
p338
S'B-PP'
p339
g4
tp340
a(S'an'
p341
S'an'
p342
S'DT'
p343
S'B-NP'
p344
g4
tp345
a(S'intervention'
p346
S'intervention'
p347
S'NN'
p348
S'I-NP'
p349
g4
tp350
a(S'('
p351
g351
g351
g4
g4
tp352
a(S'n'
p353
g353
S'NN'
p354
S'B-NP'
p355
g4
tp356
a(S'='
p357
g357
S'SYM'
p358
S'B-VP'
p359
g4
tp360
a(S'65'
p361
S'65'
p362
S'CD'
p363
S'B-NP'
p364
g4
tp365
a(S')'
p366
g366
g366
g4
g4
tp367
a(S'or'
p368
S'or'
p369
S'CC'
p370
g4
g4
tp371
a(S'control'
p372
S'control'
p373
S'NN'
p374
S'B-NP'
p375
g4
tp376
a(S'group'
p377
S'group'
p378
S'NN'
p379
S'I-NP'
p380
g4
tp381
a(g351
g351
g351
g4
g4
tp382
a(g353
g353
S'NN'
p383
S'B-NP'
p384
g4
tp385
a(g357
g357
S'SYM'
p386
S'B-VP'
p387
g4
tp388
a(S'77'
p389
S'77'
p390
S'CD'
p391
S'B-NP'
p392
g4
tp393
a(g366
g366
g366
g4
g4
tp394
a(g60
g60
g60
g4
g4
tp395
a(S'The'
p396
S'The'
p397
S'DT'
p398
S'B-NP'
p399
g4
tp400
a(S'intervention'
p401
S'intervention'
p402
S'NN'
p403
S'I-NP'
p404
g4
tp405
a(S'group'
p406
S'group'
p407
S'NN'
p408
S'I-NP'
p409
g4
tp410
a(S'received'
p411
S'receive'
p412
S'VBD'
p413
S'B-VP'
p414
g4
tp415
a(S'individual'
p416
S'individual'
p417
S'JJ'
p418
S'B-NP'
p419
g4
tp420
a(S'skin'
p421
S'skin'
p422
S'NN'
p423
S'I-NP'
p424
g4
tp425
a(S'screening'
p426
S'screening'
p427
S'NN'
p428
S'I-NP'
p429
g4
tp430
a(S'by'
p431
S'by'
p432
S'IN'
p433
S'B-PP'
p434
g4
tp435
a(g271
g271
S'DT'
p436
S'B-NP'
p437
g4
tp438
a(S'dermatologist'
p439
S'dermatologist'
p440
S'NN'
p441
S'I-NP'
p442
g4
tp443
a(S'and'
p444
S'and'
p445
S'CC'
p446
g4
g4
tp447
a(S'participated'
p448
S'participate'
p449
S'VBD'
p450
S'B-VP'
p451
g4
tp452
a(S'in'
p453
S'in'
p454
S'IN'
p455
S'B-PP'
p456
g4
tp457
a(S'an'
p458
S'an'
p459
S'DT'
p460
S'B-NP'
p461
g4
tp462
a(S'education'
p463
S'education'
p464
S'NN'
p465
S'I-NP'
p466
S'B-DNA'
p467
tp468
a(S'session.'
p469
S'session.'
p470
S'NN'
p471
S'I-NP'
p472
S'I-DNA'
p473
tp474
a(S'Pre-'
p475
S'Pre-'
p476
S'NN'
p477
S'I-NP'
p478
S'I-DNA'
p479
tp480
a(S'and'
p481
S'and'
p482
S'CC'
p483
g4
g4
tp484
a(S'posttest'
p485
S'postt'
p486
S'JJS'
p487
S'B-NP'
p488
g4
tp489
a(S'outcome'
p490
S'outcome'
p491
S'NN'
p492
S'I-NP'
p493
g4
tp494
a(S'measures'
p495
S'measure'
p496
S'NNS'
p497
S'I-NP'
p498
g4
tp499
a(S'included'
p500
S'include'
p501
S'VBD'
p502
S'B-VP'
p503
g4
tp504
a(S'solar'
p505
S'solar'
p506
S'JJ'
p507
S'B-NP'
p508
g4
tp509
a(S'protection'
p510
S'protection'
p511
S'NN'
p512
S'I-NP'
p513
g4
tp514
a(S'behavior'
p515
S'behavior'
p516
S'NN'
p517
S'I-NP'
p518
g4
tp519
a(g351
g351
g351
g4
g4
tp520
a(S'assessed'
p521
S'assess'
p522
S'VBN'
p523
S'B-VP'
p524
g4
tp525
a(S'using'
p526
S'use'
p527
S'VBG'
p528
S'B-VP'
p529
g4
tp530
a(g271
g271
S'DT'
p531
S'B-NP'
p532
g4
tp533
a(S'validated'
p534
S'validate'
p535
S'VBN'
p536
S'I-NP'
p537
g4
tp538
a(S'diary'
p539
S'diary'
p540
S'NN'
p541
S'I-NP'
p542
g4
tp543
a(g366
g366
g366
g4
g4
tp544
a(g182
g182
g182
g4
g4
tp545
a(S'knowledge'
p546
S'knowledge'
p547
S'NN'
p548
S'B-NP'
p549
g4
tp550
a(g182
g182
g182
g4
g4
tp551
a(S'and'
p552
S'and'
p553
S'CC'
p554
g4
g4
tp555
a(S'attitudes'
p556
S'attitude'
p557
S'NNS'
p558
S'B-NP'
p559
g4
tp560
a(g60
g60
g60
g4
g4
tp561
a(S'RESULTS'
p562
S'RESULTS'
p563
S'NNS'
p564
S'B-NP'
p565
g4
tp566
a(S'There'
p567
S'There'
p568
S'EX'
p569
S'B-NP'
p570
g4
tp571
a(S'was'
p572
S'be'
p573
S'VBD'
p574
S'B-VP'
p575
g4
tp576
a(g271
g271
S'DT'
p577
S'B-NP'
p578
g4
tp579
a(S'significant'
p580
S'significant'
p581
S'JJ'
p582
S'I-NP'
p583
g4
tp584
a(S'increase'
p585
S'increase'
p586
S'NN'
p587
S'I-NP'
p588
g4
tp589
a(g351
g351
g351
g4
g4
tp590
a(S'16'
p591
S'16'
p592
S'CD'
p593
S'B-NP'
p594
g4
tp595
a(S'%'
p596
g596
S'NN'
p597
S'I-NP'
p598
g4
tp599
a(g366
g366
g366
g4
g4
tp600
a(S'in'
p601
S'in'
p602
S'IN'
p603
S'B-PP'
p604
g4
tp605
a(S'the'
p606
S'the'
p607
S'DT'
p608
S'B-NP'
p609
g4
tp610
a(S'percentage'
p611
S'percentage'
p612
S'NN'
p613
S'I-NP'
p614
g4
tp615
a(S'of'
p616
S'of'
p617
S'IN'
p618
S'B-PP'
p619
g4
tp620
a(S'outdoor'
p621
S'outdoor'
p622
S'JJ'
p623
S'B-NP'
p624
g4
tp625
a(S'workers'
p626
S'worker'
p627
S'NNS'
p628
S'I-NP'
p629
g4
tp630
a(S'who'
p631
S'who'
p632
S'WP'
p633
S'B-NP'
p634
g4
tp635
a(S'were'
p636
S'be'
p637
S'VBD'
p638
S'B-VP'
p639
g4
tp640
a(S'using'
p641
S'use'
p642
S'VBG'
p643
S'I-VP'
p644
g4
tp645
a(g271
g271
S'DT'
p646
S'B-NP'
p647
g4
tp648
a(S'high'
p649
S'high'
p650
S'JJ'
p651
S'I-NP'
p652
g4
tp653
a(S'level'
p654
S'level'
p655
S'NN'
p656
S'I-NP'
p657
g4
tp658
a(S'of'
p659
S'of'
p660
S'IN'
p661
S'B-PP'
p662
g4
tp663
a(S'solar'
p664
S'solar'
p665
S'JJ'
p666
S'B-NP'
p667
g4
tp668
a(S'protection'
p669
S'protection'
p670
S'NN'
p671
S'I-NP'
p672
g4
tp673
a(S'at'
p674
S'at'
p675
S'IN'
p676
S'B-PP'
p677
g4
tp678
a(S'posttest'
p679
S'posttest'
p680
S'NN'
p681
S'B-NP'
p682
g4
tp683
a(S'compared'
p684
S'compare'
p685
S'VBN'
p686
S'B-VP'
p687
g4
tp688
a(S'to'
p689
S'to'
p690
S'TO'
p691
S'I-VP'
p692
g4
tp693
a(S'pretest'
p694
S'pretest'
p695
S'VB'
p696
S'I-VP'
p697
g4
tp698
a(S'in'
p699
S'in'
p700
S'IN'
p701
S'B-PP'
p702
g4
tp703
a(S'the'
p704
S'the'
p705
S'DT'
p706
S'B-NP'
p707
g4
tp708
a(S'intervention'
p709
S'intervention'
p710
S'NN'
p711
S'I-NP'
p712
g4
tp713
a(S'group'
p714
S'group'
p715
S'NN'
p716
S'I-NP'
p717
g4
tp718
a(g182
g182
g182
g4
g4
tp719
a(S'but'
p720
S'but'
p721
S'CC'
p722
g4
g4
tp723
a(S'there'
p724
S'there'
p725
S'EX'
p726
S'B-NP'
p727
g4
tp728
a(S'was'
p729
S'be'
p730
S'VBD'
p731
S'B-VP'
p732
g4
tp733
a(S'no'
p734
S'no'
p735
S'DT'
p736
S'B-NP'
p737
g4
tp738
a(S'change'
p739
S'change'
p740
S'NN'
p741
S'I-NP'
p742
g4
tp743
a(S'in'
p744
S'in'
p745
S'IN'
p746
S'B-PP'
p747
g4
tp748
a(S'the'
p749
S'the'
p750
S'DT'
p751
S'B-NP'
p752
g4
tp753
a(S'control'
p754
S'control'
p755
S'NN'
p756
S'I-NP'
p757
g4
tp758
a(S'group.'
p759
S'group.'
p760
S'NN'
p761
S'I-NP'
p762
g4
tp763
a(S'Although'
p764
S'Although'
p765
S'IN'
p766
S'B-SBAR'
p767
g4
tp768
a(S'both'
p769
S'both'
p770
S'DT'
p771
S'B-NP'
p772
g4
tp773
a(S'groups'
p774
S'group'
p775
S'NNS'
p776
S'I-NP'
p777
g4
tp778
a(S'improved'
p779
S'improve'
p780
S'VBD'
p781
S'B-VP'
p782
g4
tp783
a(S'in'
p784
S'in'
p785
S'IN'
p786
S'B-PP'
p787
g4
tp788
a(S'their'
p789
S'their'
p790
S'PRP$'
p791
S'B-NP'
p792
g4
tp793
a(S'knowledge'
p794
S'knowledge'
p795
S'NN'
p796
S'I-NP'
p797
g4
tp798
a(S'score'
p799
S'score'
p800
S'NN'
p801
S'I-NP'
p802
g4
tp803
a(g182
g182
g182
g4
g4
tp804
a(S'the'
p805
S'the'
p806
S'DT'
p807
S'B-NP'
p808
g4
tp809
a(S'intervention'
p810
S'intervention'
p811
S'NN'
p812
S'I-NP'
p813
g4
tp814
a(S'group'
p815
S'group'
p816
S'NN'
p817
S'I-NP'
p818
g4
tp819
a(S'showed'
p820
S'show'
p821
S'VBD'
p822
S'B-VP'
p823
g4
tp824
a(g271
g271
S'DT'
p825
S'B-NP'
p826
g4
tp827
a(S'significantly'
p828
S'significantly'
p829
S'RB'
p830
S'I-NP'
p831
g4
tp832
a(S'greater'
p833
S'great'
p834
S'JJR'
p835
S'I-NP'
p836
g4
tp837
a(S'improvement'
p838
S'improvement'
p839
S'NN'
p840
S'I-NP'
p841
g4
tp842
a(S'at'
p843
S'at'
p844
S'IN'
p845
S'B-PP'
p846
g4
tp847
a(S'posttest.'
p848
S'posttest.'
p849
S'FW'
p850
S'B-NP'
p851
g4
tp852
a(S'No'
p853
S'No'
p854
S'DT'
p855
S'I-NP'
p856
g4
tp857
a(S'changes'
p858
S'change'
p859
S'NNS'
p860
S'I-NP'
p861
g4
tp862
a(S'in'
p863
S'in'
p864
S'IN'
p865
S'B-PP'
p866
g4
tp867
a(S'attitudes'
p868
S'attitude'
p869
S'NNS'
p870
S'B-NP'
p871
g4
tp872
a(S'were'
p873
S'be'
p874
S'VBD'
p875
S'B-VP'
p876
g4
tp877
a(S'detected'
p878
S'detect'
p879
S'VBN'
p880
S'I-VP'
p881
g4
tp882
a(g60
g60
g60
g4
g4
tp883
a(S'CONCLUSIONS'
p884
S'CONCLUSIONS'
p885
S'NNS'
p886
S'B-NP'
p887
g4
tp888
a(S'The'
p889
S'The'
p890
S'DT'
p891
S'B-NP'
p892
g4
tp893
a(S'findings'
p894
S'finding'
p895
S'NNS'
p896
S'I-NP'
p897
g4
tp898
a(S'suggest'
p899
S'suggest'
p900
S'VBP'
p901
S'B-VP'
p902
g4
tp903
a(S'that'
p904
S'that'
p905
S'IN'
p906
S'B-SBAR'
p907
g4
tp908
a(S'changes'
p909
S'change'
p910
S'NNS'
p911
S'B-NP'
p912
g4
tp913
a(S'in'
p914
S'in'
p915
S'IN'
p916
S'B-PP'
p917
g4
tp918
a(S'solar'
p919
S'solar'
p920
S'JJ'
p921
S'B-NP'
p922
g4
tp923
a(S'protection'
p924
S'protection'
p925
S'NN'
p926
S'I-NP'
p927
g4
tp928
a(S'are'
p929
S'be'
p930
S'VBP'
p931
S'B-VP'
p932
g4
tp933
a(S'achievable'
p934
S'achievable'
p935
S'JJ'
p936
S'B-ADJP'
p937
g4
tp938
a(S'with'
p939
S'with'
p940
S'IN'
p941
S'B-PP'
p942
g4
tp943
a(S'outdoor'
p944
S'outdoor'
p945
S'JJ'
p946
S'B-NP'
p947
g4
tp948
a(S'workers'
p949
S'worker'
p950
S'NNS'
p951
S'I-NP'
p952
g4
tp953
a(g60
g60
g60
g4
g4
tp954
a.