(lp0
(S'Effect'
p1
S'Effect'
p2
S'NN'
p3
S'B-NP'
p4
S'O'
p5
tp6
a(S'of'
p7
S'of'
p8
S'IN'
p9
S'B-PP'
p10
g5
tp11
a(S'total'
p12
S'total'
p13
S'JJ'
p14
S'B-NP'
p15
g5
tp16
a(S'androgen'
p17
S'androgen'
p18
S'NN'
p19
S'I-NP'
p20
g5
tp21
a(S'ablation'
p22
S'ablation'
p23
S'NN'
p24
S'I-NP'
p25
g5
tp26
a(S'on'
p27
S'on'
p28
S'IN'
p29
S'B-PP'
p30
g5
tp31
a(S'pathologic'
p32
S'pathologic'
p33
S'JJ'
p34
S'B-NP'
p35
g5
tp36
a(S'stage'
p37
S'stage'
p38
S'NN'
p39
S'I-NP'
p40
g5
tp41
a(S'and'
p42
S'and'
p43
S'CC'
p44
S'I-NP'
p45
g5
tp46
a(S'resection'
p47
S'resection'
p48
S'NN'
p49
S'I-NP'
p50
g5
tp51
a(S'limit'
p52
S'limit'
p53
S'NN'
p54
S'I-NP'
p55
g5
tp56
a(S'status'
p57
S'status'
p58
S'NN'
p59
S'I-NP'
p60
g5
tp61
a(S'of'
p62
S'of'
p63
S'IN'
p64
S'B-PP'
p65
g5
tp66
a(S'prostate'
p67
S'prostate'
p68
S'NN'
p69
S'B-NP'
p70
g5
tp71
a(S'cancer.'
p72
S'cancer.'
p73
S'NN'
p74
S'I-NP'
p75
g5
tp76
a(S'Initial'
p77
S'Initial'
p78
S'JJ'
p79
S'I-NP'
p80
g5
tp81
a(S'results'
p82
S'result'
p83
S'NNS'
p84
S'I-NP'
p85
g5
tp86
a(S'of'
p87
S'of'
p88
S'IN'
p89
S'B-PP'
p90
g5
tp91
a(S'the'
p92
S'the'
p93
S'DT'
p94
S'B-NP'
p95
g5
tp96
a(S'Italian'
p97
S'Italian'
p98
S'JJ'
p99
S'I-NP'
p100
g5
tp101
a(S'PROSIT'
p102
S'PROSIT'
p103
S'NN'
p104
S'I-NP'
p105
g5
tp106
a(S'study'
p107
S'study'
p108
S'NN'
p109
S'I-NP'
p110
g5
tp111
a(S'.'
p112
g112
g112
g5
g5
tp113
a(S'The'
p114
S'The'
p115
S'DT'
p116
S'B-NP'
p117
g5
tp118
a(S'likelihood'
p119
S'likelihood'
p120
S'NN'
p121
S'I-NP'
p122
g5
tp123
a(S'of'
p124
S'of'
p125
S'IN'
p126
S'B-PP'
p127
g5
tp128
a(S'finding'
p129
S'find'
p130
S'VBG'
p131
S'B-VP'
p132
g5
tp133
a(S'organ-confined'
p134
S'organ-confined'
p135
S'JJ'
p136
S'B-NP'
p137
g5
tp138
a(S'untreated'
p139
S'untreated'
p140
S'JJ'
p141
S'I-NP'
p142
g5
tp143
a(S'prostate'
p144
S'prostate'
p145
S'NN'
p146
S'I-NP'
p147
g5
tp148
a(S'cancer'
p149
S'cancer'
p150
S'NN'
p151
S'I-NP'
p152
g5
tp153
a(S'('
p154
g154
g154
g5
g5
tp155
a(S'PCa'
p156
S'PCa'
p157
S'NN'
p158
S'B-NP'
p159
g5
tp160
a(S')'
p161
g161
g161
g5
g5
tp162
a(S'by'
p163
S'by'
p164
S'IN'
p165
S'B-PP'
p166
g5
tp167
a(S'pathological'
p168
S'pathological'
p169
S'JJ'
p170
S'B-NP'
p171
g5
tp172
a(S'examination'
p173
S'examination'
p174
S'NN'
p175
S'I-NP'
p176
g5
tp177
a(S'at'
p178
S'at'
p179
S'IN'
p180
S'B-PP'
p181
g5
tp182
a(S'the'
p183
S'the'
p184
S'DT'
p185
S'B-NP'
p186
g5
tp187
a(S'time'
p188
S'time'
p189
S'NN'
p190
S'I-NP'
p191
g5
tp192
a(S'of'
p193
S'of'
p194
S'IN'
p195
S'B-PP'
p196
g5
tp197
a(S'radical'
p198
S'radical'
p199
S'JJ'
p200
S'B-NP'
p201
g5
tp202
a(S'prostatectomy'
p203
S'prostatectomy'
p204
S'NN'
p205
S'I-NP'
p206
g5
tp207
a(g154
g154
g154
g5
g5
tp208
a(S'RP'
p209
S'RP'
p210
S'NN'
p211
S'B-NP'
p212
S'B-protein'
p213
tp214
a(g161
g161
g161
g5
g5
tp215
a(S'is'
p216
S'be'
p217
S'VBZ'
p218
S'B-VP'
p219
g5
tp220
a(S'only'
p221
S'only'
p222
S'RB'
p223
S'B-NP'
p224
g5
tp225
a(S'50'
p226
S'50'
p227
S'CD'
p228
S'I-NP'
p229
g5
tp230
a(S'%'
p231
g231
S'NN'
p232
S'I-NP'
p233
g5
tp234
a(S'in'
p235
S'in'
p236
S'IN'
p237
S'B-PP'
p238
g5
tp239
a(S'patients'
p240
S'patient'
p241
S'NNS'
p242
S'B-NP'
p243
g5
tp244
a(S'with'
p245
S'with'
p246
S'IN'
p247
S'B-PP'
p248
g5
tp249
a(S'clinically'
p250
S'clinically'
p251
S'RB'
p252
S'B-NP'
p253
g5
tp254
a(S'organ-confined'
p255
S'organ-confined'
p256
S'JJ'
p257
S'I-NP'
p258
g5
tp259
a(S'disease.'
p260
S'disease.'
p261
S'NN'
p262
S'I-NP'
p263
g5
tp264
a(S'In'
p265
S'In'
p266
S'IN'
p267
S'B-PP'
p268
g5
tp269
a(S'addition'
p270
S'addition'
p271
S'NN'
p272
S'B-NP'
p273
g5
tp274
a(S','
p275
g275
g275
g5
g5
tp276
a(S'tumour'
p277
S'tumour'
p278
S'NN'
p279
S'B-NP'
p280
g5
tp281
a(S'is'
p282
S'be'
p283
S'VBZ'
p284
S'B-VP'
p285
g5
tp286
a(S'present'
p287
S'present'
p288
S'JJ'
p289
S'B-ADJP'
p290
g5
tp291
a(S'at'
p292
S'at'
p293
S'IN'
p294
S'B-PP'
p295
g5
tp296
a(S'the'
p297
S'the'
p298
S'DT'
p299
S'B-NP'
p300
g5
tp301
a(S'resection'
p302
S'resection'
p303
S'NN'
p304
S'I-NP'
p305
g5
tp306
a(S'margin'
p307
S'margin'
p308
S'NN'
p309
S'I-NP'
p310
g5
tp311
a(S'in'
p312
S'in'
p313
S'IN'
p314
S'B-PP'
p315
g5
tp316
a(S'approximately'
p317
S'approximately'
p318
S'RB'
p319
S'B-NP'
p320
g5
tp321
a(S'30'
p322
S'30'
p323
S'CD'
p324
S'I-NP'
p325
g5
tp326
a(g231
g231
S'NN'
p327
S'I-NP'
p328
g5
tp329
a(S'of'
p330
S'of'
p331
S'IN'
p332
S'B-PP'
p333
g5
tp334
a(S'clinical'
p335
S'clinical'
p336
S'JJ'
p337
S'B-NP'
p338
g5
tp339
a(S'T2'
p340
S'T2'
p341
S'NN'
p342
S'I-NP'
p343
g5
tp344
a(g154
g154
g154
g5
g5
tp345
a(S'clinical'
p346
S'clinical'
p347
S'JJ'
p348
S'B-NP'
p349
g5
tp350
a(S'stage'
p351
S'stage'
p352
S'NN'
p353
S'I-NP'
p354
g5
tp355
a(S'B'
p356
g356
S'NN'
p357
S'I-NP'
p358
g5
tp359
a(g161
g161
g161
g5
g5
tp360
a(S'cases.'
p361
S'cases.'
p362
S'NN'
p363
S'B-NP'
p364
g5
tp365
a(S'The'
p366
S'The'
p367
S'DT'
p368
S'B-NP'
p369
g5
tp370
a(S'issue'
p371
S'issue'
p372
S'NN'
p373
S'I-NP'
p374
g5
tp375
a(S'of'
p376
S'of'
p377
S'IN'
p378
S'B-PP'
p379
g5
tp380
a(S'clinical'
p381
S'clinical'
p382
S'JJ'
p383
S'B-NP'
p384
g5
tp385
a(S'``'
p386
S'``'
p387
S'``'
p388
S'I-NP'
p389
g5
tp390
a(S'understaging'
p391
S'understaging'
p392
S'NN'
p393
S'I-NP'
p394
g5
tp395
a(S"''"
p396
S"''"
p397
S"''"
p398
g5
g5
tp399
a(S'and'
p400
S'and'
p401
S'CC'
p402
g5
g5
tp403
a(S'of'
p404
S'of'
p405
S'IN'
p406
S'B-PP'
p407
g5
tp408
a(S'resection'
p409
S'resection'
p410
S'NN'
p411
S'B-NP'
p412
g5
tp413
a(S'limit'
p414
S'limit'
p415
S'NN'
p416
S'I-NP'
p417
g5
tp418
a(S'positivity'
p419
S'positivity'
p420
S'NN'
p421
S'I-NP'
p422
g5
tp423
a(S'have'
p424
S'have'
p425
S'VBP'
p426
S'B-VP'
p427
g5
tp428
a(S'led'
p429
S'lead'
p430
S'VBN'
p431
S'I-VP'
p432
g5
tp433
a(S'to'
p434
S'to'
p435
S'TO'
p436
S'B-PP'
p437
g5
tp438
a(S'the'
p439
S'the'
p440
S'DT'
p441
S'B-NP'
p442
g5
tp443
a(S'development'
p444
S'development'
p445
S'NN'
p446
S'I-NP'
p447
g5
tp448
a(S'of'
p449
S'of'
p450
S'IN'
p451
S'B-PP'
p452
g5
tp453
a(S'novel'
p454
S'novel'
p455
S'JJ'
p456
S'B-NP'
p457
g5
tp458
a(S'management'
p459
S'management'
p460
S'NN'
p461
S'I-NP'
p462
g5
tp463
a(S'practices'
p464
S'practice'
p465
S'NNS'
p466
S'I-NP'
p467
g5
tp468
a(g275
g275
g275
g5
g5
tp469
a(S'including'
p470
S'include'
p471
S'VBG'
p472
S'B-PP'
p473
g5
tp474
a(S'``'
p475
S'``'
p476
S'``'
p477
S'B-NP'
p478
g5
tp479
a(S'neoadjuvant'
p480
S'neoadjuvant'
p481
S'JJ'
p482
S'I-NP'
p483
g5
tp484
a(S"''"
p485
S"''"
p486
S"''"
p487
S'I-NP'
p488
g5
tp489
a(S'hormonal'
p490
S'hormonal'
p491
S'JJ'
p492
S'I-NP'
p493
g5
tp494
a(S'therapy'
p495
S'therapy'
p496
S'NN'
p497
S'I-NP'
p498
g5
tp499
a(g154
g154
g154
g5
g5
tp500
a(S'NHT'
p501
S'NHT'
p502
S'NN'
p503
S'B-NP'
p504
S'B-protein'
p505
tp506
a(g161
g161
g161
g5
g5
tp507
a(g112
g112
g112
g5
g5
tp508
a(S'The'
p509
S'The'
p510
S'DT'
p511
S'B-NP'
p512
g5
tp513
a(S'optimal'
p514
S'optimal'
p515
S'JJ'
p516
S'I-NP'
p517
g5
tp518
a(S'duration'
p519
S'duration'
p520
S'NN'
p521
S'I-NP'
p522
g5
tp523
a(S'of'
p524
S'of'
p525
S'IN'
p526
S'B-PP'
p527
g5
tp528
a(S'NHT'
p529
S'NHT'
p530
S'NN'
p531
S'B-NP'
p532
S'B-protein'
p533
tp534
a(S'is'
p535
S'be'
p536
S'VBZ'
p537
S'B-VP'
p538
g5
tp539
a(S'unknown.'
p540
S'unknown.'
p541
S'JJ'
p542
S'B-ADJP'
p543
g5
tp544
a(S'We'
p545
S'We'
p546
S'PRP'
p547
S'B-NP'
p548
g5
tp549
a(S'undertook'
p550
S'undertake'
p551
S'VBD'
p552
S'B-VP'
p553
g5
tp554
a(S'the'
p555
S'the'
p556
S'DT'
p557
S'B-NP'
p558
g5
tp559
a(S'present'
p560
S'present'
p561
S'JJ'
p562
S'I-NP'
p563
g5
tp564
a(S'analysis'
p565
S'analysis'
p566
S'NN'
p567
S'I-NP'
p568
g5
tp569
a(S'to'
p570
S'to'
p571
S'TO'
p572
S'B-VP'
p573
g5
tp574
a(S'evaluate'
p575
S'evaluate'
p576
S'VB'
p577
S'I-VP'
p578
g5
tp579
a(S'the'
p580
S'the'
p581
S'DT'
p582
S'B-NP'
p583
g5
tp584
a(S'effect'
p585
S'effect'
p586
S'NN'
p587
S'I-NP'
p588
g5
tp589
a(S'of'
p590
S'of'
p591
S'IN'
p592
S'B-PP'
p593
g5
tp594
a(S'NHT'
p595
S'NHT'
p596
S'NN'
p597
S'B-NP'
p598
S'B-protein'
p599
tp600
a(S'on'
p601
S'on'
p602
S'IN'
p603
S'B-PP'
p604
g5
tp605
a(S'pathologic'
p606
S'pathologic'
p607
S'JJ'
p608
S'B-NP'
p609
g5
tp610
a(S'stage'
p611
S'stage'
p612
S'NN'
p613
S'I-NP'
p614
g5
tp615
a(S'of'
p616
S'of'
p617
S'IN'
p618
S'B-PP'
p619
g5
tp620
a(S'PCa'
p621
S'PCa'
p622
S'NN'
p623
S'B-NP'
p624
S'B-protein'
p625
tp626
a(S'and'
p627
S'and'
p628
S'CC'
p629
S'I-NP'
p630
g5
tp631
a(S'resection'
p632
S'resection'
p633
S'NN'
p634
S'I-NP'
p635
g5
tp636
a(S'limit'
p637
S'limit'
p638
S'NN'
p639
S'I-NP'
p640
g5
tp641
a(S'status'
p642
S'status'
p643
S'NN'
p644
S'I-NP'
p645
g5
tp646
a(S'in'
p647
S'in'
p648
S'IN'
p649
S'B-PP'
p650
g5
tp651
a(S'patients'
p652
S'patient'
p653
S'NNS'
p654
S'B-NP'
p655
g5
tp656
a(S'with'
p657
S'with'
p658
S'IN'
p659
S'B-PP'
p660
g5
tp661
a(S'prostate'
p662
S'prostate'
p663
S'NN'
p664
S'B-NP'
p665
g5
tp666
a(S'cancer'
p667
S'cancer'
p668
S'NN'
p669
S'I-NP'
p670
g5
tp671
a(S'and'
p672
S'and'
p673
S'CC'
p674
g5
g5
tp675
a(S'treated'
p676
S'treat'
p677
S'VBN'
p678
S'B-VP'
p679
g5
tp680
a(S'with'
p681
S'with'
p682
S'IN'
p683
S'B-PP'
p684
g5
tp685
a(S'total'
p686
S'total'
p687
S'JJ'
p688
S'B-NP'
p689
g5
tp690
a(S'androgen'
p691
S'androgen'
p692
S'NN'
p693
S'I-NP'
p694
g5
tp695
a(S'ablation'
p696
S'ablation'
p697
S'NN'
p698
S'I-NP'
p699
g5
tp700
a(S'either'
p701
S'either'
p702
S'CC'
p703
S'B-PP'
p704
g5
tp705
a(S'for'
p706
S'for'
p707
S'IN'
p708
S'B-PP'
p709
g5
tp710
a(S'three'
p711
S'three'
p712
S'CD'
p713
S'B-NP'
p714
g5
tp715
a(S'or'
p716
S'or'
p717
S'CC'
p718
S'I-NP'
p719
g5
tp720
a(S'six'
p721
S'six'
p722
S'CD'
p723
S'I-NP'
p724
g5
tp725
a(S'months'
p726
S'month'
p727
S'NNS'
p728
S'I-NP'
p729
g5
tp730
a(S'before'
p731
S'before'
p732
S'IN'
p733
S'B-SBAR'
p734
g5
tp735
a(S'RP.'
p736
S'RP.'
p737
S'NNP'
p738
S'B-NP'
p739
g5
tp740
a(S'Between'
p741
S'Between'
p742
S'NNP'
p743
S'I-NP'
p744
g5
tp745
a(S'January'
p746
S'January'
p747
S'NNP'
p748
S'I-NP'
p749
g5
tp750
a(S'1996'
p751
S'1996'
p752
S'CD'
p753
S'I-NP'
p754
g5
tp755
a(S'and'
p756
S'and'
p757
S'CC'
p758
g5
g5
tp759
a(S'February'
p760
S'February'
p761
S'NNP'
p762
S'B-NP'
p763
g5
tp764
a(S'1998'
p765
S'1998'
p766
S'CD'
p767
S'I-NP'
p768
g5
tp769
a(g275
g275
g275
g5
g5
tp770
a(S'259'
p771
S'259'
p772
S'CD'
p773
S'B-NP'
p774
g5
tp775
a(S'men'
p776
S'man'
p777
S'NNS'
p778
S'I-NP'
p779
g5
tp780
a(S'with'
p781
S'with'
p782
S'IN'
p783
S'B-PP'
p784
g5
tp785
a(S'prostate'
p786
S'prostate'
p787
S'NN'
p788
S'B-NP'
p789
g5
tp790
a(S'cancer'
p791
S'cancer'
p792
S'NN'
p793
S'I-NP'
p794
g5
tp795
a(S'underwent'
p796
S'undergo'
p797
S'VBD'
p798
S'B-VP'
p799
g5
tp800
a(S'radical'
p801
S'radical'
p802
S'JJ'
p803
S'B-NP'
p804
g5
tp805
a(S'retropubic'
p806
S'retropubic'
p807
S'JJ'
p808
S'I-NP'
p809
g5
tp810
a(S'prostatectomy'
p811
S'prostatectomy'
p812
S'NN'
p813
S'I-NP'
p814
g5
tp815
a(S'and'
p816
S'and'
p817
S'CC'
p818
g5
g5
tp819
a(S'bilateral'
p820
S'bilateral'
p821
S'JJ'
p822
S'B-NP'
p823
g5
tp824
a(S'pelvic'
p825
S'pelvic'
p826
S'JJ'
p827
S'I-NP'
p828
g5
tp829
a(S'node'
p830
S'node'
p831
S'NN'
p832
S'I-NP'
p833
g5
tp834
a(S'dissection'
p835
S'dissection'
p836
S'NN'
p837
S'I-NP'
p838
g5
tp839
a(S'in'
p840
S'in'
p841
S'IN'
p842
S'B-PP'
p843
g5
tp844
a(S'the'
p845
S'the'
p846
S'DT'
p847
S'B-NP'
p848
g5
tp849
a(S'26'
p850
S'26'
p851
S'CD'
p852
S'I-NP'
p853
g5
tp854
a(S'centres'
p855
S'centre'
p856
S'NNS'
p857
S'I-NP'
p858
g5
tp859
a(S'participating'
p860
S'participate'
p861
S'VBG'
p862
S'B-VP'
p863
g5
tp864
a(S'in'
p865
S'in'
p866
S'IN'
p867
S'B-PP'
p868
g5
tp869
a(S'the'
p870
S'the'
p871
S'DT'
p872
S'B-NP'
p873
g5
tp874
a(S'Italian'
p875
S'Italian'
p876
S'JJ'
p877
S'I-NP'
p878
g5
tp879
a(S'randomised'
p880
S'randomise'
p881
S'VBN'
p882
S'I-NP'
p883
g5
tp884
a(S'prospective'
p885
S'prospective'
p886
S'JJ'
p887
S'I-NP'
p888
g5
tp889
a(S'PROSIT'
p890
S'PROSIT'
p891
S'NN'
p892
S'I-NP'
p893
g5
tp894
a(S'study.'
p895
S'study.'
p896
S'NN'
p897
S'I-NP'
p898
g5
tp899
a(S'Whole'
p900
S'Whole'
p901
S'JJ'
p902
S'I-NP'
p903
g5
tp904
a(S'mount'
p905
S'mount'
p906
S'NN'
p907
S'I-NP'
p908
g5
tp909
a(S'sectioning'
p910
S'sectioning'
p911
S'NN'
p912
S'I-NP'
p913
g5
tp914
a(S'of'
p915
S'of'
p916
S'IN'
p917
S'B-PP'
p918
g5
tp919
a(S'the'
p920
S'the'
p921
S'DT'
p922
S'B-NP'
p923
g5
tp924
a(S'complete'
p925
S'complete'
p926
S'JJ'
p927
S'I-NP'
p928
g5
tp929
a(S'RP'
p930
S'RP'
p931
S'NN'
p932
S'I-NP'
p933
g5
tp934
a(S'specimens'
p935
S'specimen'
p936
S'NNS'
p937
S'I-NP'
p938
g5
tp939
a(S'was'
p940
S'be'
p941
S'VBD'
p942
S'B-VP'
p943
g5
tp944
a(S'adopted'
p945
S'adopt'
p946
S'VBN'
p947
S'I-VP'
p948
g5
tp949
a(S'in'
p950
S'in'
p951
S'IN'
p952
S'B-PP'
p953
g5
tp954
a(S'each'
p955
S'each'
p956
S'DT'
p957
S'B-NP'
p958
g5
tp959
a(S'centre'
p960
S'centre'
p961
S'NN'
p962
S'I-NP'
p963
g5
tp964
a(S'for'
p965
S'for'
p966
S'IN'
p967
S'B-PP'
p968
g5
tp969
a(S'accurately'
p970
S'accurately'
p971
S'RB'
p972
S'B-ADVP'
p973
g5
tp974
a(S'evaluating'
p975
S'evaluate'
p976
S'VBG'
p977
S'B-VP'
p978
g5
tp979
a(S'the'
p980
S'the'
p981
S'DT'
p982
S'B-NP'
p983
g5
tp984
a(S'pathologic'
p985
S'pathologic'
p986
S'JJ'
p987
S'I-NP'
p988
g5
tp989
a(S'stage'
p990
S'stage'
p991
S'NN'
p992
S'I-NP'
p993
g5
tp994
a(S'and'
p995
S'and'
p996
S'CC'
p997
S'I-NP'
p998
g5
tp999
a(S'resection'
p1000
S'resection'
p1001
S'NN'
p1002
S'I-NP'
p1003
g5
tp1004
a(S'limit'
p1005
S'limit'
p1006
S'NN'
p1007
S'I-NP'
p1008
g5
tp1009
a(S'status.'
p1010
S'status.'
p1011
S'NN'
p1012
S'I-NP'
p1013
g5
tp1014
a(S'By'
p1015
S'By'
p1016
S'IN'
p1017
S'B-PP'
p1018
g5
tp1019
a(S'February'
p1020
S'February'
p1021
S'NNP'
p1022
S'B-NP'
p1023
g5
tp1024
a(S'1998'
p1025
S'1998'
p1026
S'CD'
p1027
S'I-NP'
p1028
g5
tp1029
a(g275
g275
g275
S'I-NP'
p1030
g5
tp1031
a(S'haematoxylin'
p1032
S'haematoxylin'
p1033
S'NN'
p1034
S'I-NP'
p1035
g5
tp1036
a(S'and'
p1037
S'and'
p1038
S'CC'
p1039
S'I-NP'
p1040
g5
tp1041
a(S'eosin'
p1042
S'eosin'
p1043
S'NN'
p1044
S'I-NP'
p1045
g5
tp1046
a(S'stained'
p1047
S'stain'
p1048
S'VBD'
p1049
S'B-VP'
p1050
g5
tp1051
a(S'sections'
p1052
S'section'
p1053
S'NNS'
p1054
S'B-NP'
p1055
g5
tp1056
a(S'from'
p1057
S'from'
p1058
S'IN'
p1059
S'B-PP'
p1060
g5
tp1061
a(S'155'
p1062
S'155'
p1063
S'CD'
p1064
S'B-NP'
p1065
g5
tp1066
a(S'RP'
p1067
S'RP'
p1068
S'NN'
p1069
S'I-NP'
p1070
g5
tp1071
a(S'specimens'
p1072
S'specimen'
p1073
S'NNS'
p1074
S'I-NP'
p1075
g5
tp1076
a(S'had'
p1077
S'have'
p1078
S'VBD'
p1079
S'B-VP'
p1080
g5
tp1081
a(S'been'
p1082
S'be'
p1083
S'VBN'
p1084
S'I-VP'
p1085
g5
tp1086
a(S'received'
p1087
S'receive'
p1088
S'VBN'
p1089
S'I-VP'
p1090
g5
tp1091
a(S'and'
p1092
S'and'
p1093
S'CC'
p1094
S'I-VP'
p1095
g5
tp1096
a(S'evaluated'
p1097
S'evaluate'
p1098
S'VBN'
p1099
S'I-VP'
p1100
g5
tp1101
a(S'by'
p1102
S'by'
p1103
S'IN'
p1104
S'B-PP'
p1105
g5
tp1106
a(S'the'
p1107
S'the'
p1108
S'DT'
p1109
S'B-NP'
p1110
g5
tp1111
a(S'reviewing'
p1112
S'review'
p1113
S'VBG'
p1114
S'I-NP'
p1115
g5
tp1116
a(S'pathologist'
p1117
S'pathologist'
p1118
S'NN'
p1119
S'I-NP'
p1120
g5
tp1121
a(g154
g154
g154
g5
g5
tp1122
a(S'RM'
p1123
S'RM'
p1124
S'NN'
p1125
S'B-NP'
p1126
g5
tp1127
a(g161
g161
g161
g5
g5
tp1128
a(g112
g112
g112
g5
g5
tp1129
a(S'64'
p1130
S'64'
p1131
S'CD'
p1132
S'B-NP'
p1133
g5
tp1134
a(S'cases'
p1135
S'case'
p1136
S'NNS'
p1137
S'I-NP'
p1138
g5
tp1139
a(S'had'
p1140
S'have'
p1141
S'VBD'
p1142
S'B-VP'
p1143
g5
tp1144
a(S'not'
p1145
S'not'
p1146
S'RB'
p1147
S'I-VP'
p1148
g5
tp1149
a(S'been'
p1150
S'be'
p1151
S'VBN'
p1152
S'I-VP'
p1153
g5
tp1154
a(S'treated'
p1155
S'treat'
p1156
S'VBN'
p1157
S'I-VP'
p1158
g5
tp1159
a(S'with'
p1160
S'with'
p1161
S'IN'
p1162
S'B-PP'
p1163
g5
tp1164
a(S'total'
p1165
S'total'
p1166
S'JJ'
p1167
S'B-NP'
p1168
g5
tp1169
a(S'androgen'
p1170
S'androgen'
p1171
S'NN'
p1172
S'I-NP'
p1173
g5
tp1174
a(S'ablation'
p1175
S'ablation'
p1176
S'NN'
p1177
S'I-NP'
p1178
g5
tp1179
a(g154
g154
g154
g5
g5
tp1180
a(S'e.g.'
p1181
S'e.g.'
p1182
S'FW'
p1183
S'B-NP'
p1184
g5
tp1185
a(S'NHT'
p1186
S'NHT'
p1187
S'NN'
p1188
S'I-NP'
p1189
g5
tp1190
a(g161
g161
g161
g5
g5
tp1191
a(S'before'
p1192
S'before'
p1193
S'IN'
p1194
S'B-SBAR'
p1195
g5
tp1196
a(S'RP'
p1197
S'RP'
p1198
S'NN'
p1199
S'B-NP'
p1200
S'B-protein'
p1201
tp1202
a(S'was'
p1203
S'be'
p1204
S'VBD'
p1205
S'B-VP'
p1206
g5
tp1207
a(S'performed'
p1208
S'perform'
p1209
S'VBN'
p1210
S'I-VP'
p1211
g5
tp1212
a(g275
g275
g275
g5
g5
tp1213
a(S'whereas'
p1214
S'whereas'
p1215
S'IN'
p1216
g5
g5
tp1217
a(S'58'
p1218
S'58'
p1219
S'CD'
p1220
S'B-NP'
p1221
g5
tp1222
a(S'and'
p1223
S'and'
p1224
S'CC'
p1225
S'I-NP'
p1226
g5
tp1227
a(S'33'
p1228
S'33'
p1229
S'CD'
p1230
S'I-NP'
p1231
g5
tp1232
a(S'had'
p1233
S'have'
p1234
S'VBD'
p1235
S'B-VP'
p1236
g5
tp1237
a(S'been'
p1238
S'be'
p1239
S'VBN'
p1240
S'I-VP'
p1241
g5
tp1242
a(S'treated'
p1243
S'treat'
p1244
S'VBN'
p1245
S'I-VP'
p1246
g5
tp1247
a(S'for'
p1248
S'for'
p1249
S'IN'
p1250
S'B-PP'
p1251
g5
tp1252
a(S'three'
p1253
S'three'
p1254
S'CD'
p1255
S'B-NP'
p1256
g5
tp1257
a(S'and'
p1258
S'and'
p1259
S'CC'
p1260
S'I-NP'
p1261
g5
tp1262
a(S'six'
p1263
S'six'
p1264
S'CD'
p1265
S'I-NP'
p1266
g5
tp1267
a(S'months'
p1268
S'month'
p1269
S'NNS'
p1270
S'I-NP'
p1271
g5
tp1272
a(g275
g275
g275
g5
g5
tp1273
a(S'respectively.'
p1274
S'respectively.'
p1275
S'NN'
p1276
S'B-NP'
p1277
g5
tp1278
a(S'114'
p1279
S'114'
p1280
S'CD'
p1281
S'I-NP'
p1282
g5
tp1283
a(S'patients'
p1284
S'patient'
p1285
S'NNS'
p1286
S'I-NP'
p1287
g5
tp1288
a(S'were'
p1289
S'be'
p1290
S'VBD'
p1291
S'B-VP'
p1292
g5
tp1293
a(S'clinical'
p1294
S'clinical'
p1295
S'JJ'
p1296
S'B-NP'
p1297
g5
tp1298
a(S'stage'
p1299
S'stage'
p1300
S'NN'
p1301
S'I-NP'
p1302
g5
tp1303
a(g356
g356
S'NN'
p1304
S'I-NP'
p1305
g5
tp1306
a(S'whereas'
p1307
S'whereas'
p1308
S'IN'
p1309
S'B-PP'
p1310
g5
tp1311
a(S'41'
p1312
S'41'
p1313
S'CD'
p1314
S'B-NP'
p1315
g5
tp1316
a(S'were'
p1317
S'be'
p1318
S'VBD'
p1319
S'B-VP'
p1320
g5
tp1321
a(S'clinical'
p1322
S'clinical'
p1323
S'JJ'
p1324
S'B-NP'
p1325
g5
tp1326
a(S'stage'
p1327
S'stage'
p1328
S'NN'
p1329
S'I-NP'
p1330
g5
tp1331
a(S'C.'
p1332
S'C.'
p1333
S'NN'
p1334
S'I-NP'
p1335
g5
tp1336
a(S'After'
p1337
S'After'
p1338
S'IN'
p1339
S'B-PP'
p1340
g5
tp1341
a(S'three'
p1342
S'three'
p1343
S'CD'
p1344
S'B-NP'
p1345
g5
tp1346
a(S'months'
p1347
S'month'
p1348
S'NNS'
p1349
S'I-NP'
p1350
g5
tp1351
a(S'of'
p1352
S'of'
p1353
S'IN'
p1354
S'B-PP'
p1355
g5
tp1356
a(S'total'
p1357
S'total'
p1358
S'JJ'
p1359
S'B-NP'
p1360
g5
tp1361
a(S'androgen'
p1362
S'androgen'
p1363
S'NN'
p1364
S'I-NP'
p1365
g5
tp1366
a(S'ablation'
p1367
S'ablation'
p1368
S'NN'
p1369
S'I-NP'
p1370
g5
tp1371
a(g275
g275
g275
g5
g5
tp1372
a(S'pathological'
p1373
S'pathological'
p1374
S'JJ'
p1375
S'B-NP'
p1376
g5
tp1377
a(S'stage'
p1378
S'stage'
p1379
S'NN'
p1380
S'I-NP'
p1381
g5
tp1382
a(g356
g356
S'NN'
p1383
S'I-NP'
p1384
g5
tp1385
a(S'was'
p1386
S'be'
p1387
S'VBD'
p1388
S'B-VP'
p1389
g5
tp1390
a(S'more'
p1391
S'more'
p1392
S'RBR'
p1393
S'B-ADJP'
p1394
g5
tp1395
a(S'prevalent'
p1396
S'prevalent'
p1397
S'JJ'
p1398
S'I-ADJP'
p1399
g5
tp1400
a(S'among'
p1401
S'among'
p1402
S'IN'
p1403
S'B-PP'
p1404
g5
tp1405
a(S'patients'
p1406
S'patient'
p1407
S'NNS'
p1408
S'B-NP'
p1409
g5
tp1410
a(S'with'
p1411
S'with'
p1412
S'IN'
p1413
S'B-PP'
p1414
g5
tp1415
a(S'clinical'
p1416
S'clinical'
p1417
S'JJ'
p1418
S'B-NP'
p1419
g5
tp1420
a(g356
g356
S'NN'
p1421
S'I-NP'
p1422
g5
tp1423
a(S'tumours'
p1424
S'tumour'
p1425
S'NNS'
p1426
S'I-NP'
p1427
g5
tp1428
a(g275
g275
g275
g5
g5
tp1429
a(S'compared'
p1430
S'compare'
p1431
S'VBN'
p1432
S'B-PP'
p1433
g5
tp1434
a(S'with'
p1435
S'with'
p1436
S'IN'
p1437
S'B-PP'
p1438
g5
tp1439
a(S'untreated'
p1440
S'untreated'
p1441
S'JJ'
p1442
S'B-NP'
p1443
g5
tp1444
a(S'patients'
p1445
S'patient'
p1446
S'NNS'
p1447
S'I-NP'
p1448
g5
tp1449
a(g154
g154
g154
g5
g5
tp1450
a(S'57'
p1451
S'57'
p1452
S'CD'
p1453
S'B-NP'
p1454
g5
tp1455
a(g231
g231
S'NN'
p1456
S'I-NP'
p1457
g5
tp1458
a(S'in'
p1459
S'in'
p1460
S'IN'
p1461
S'B-PP'
p1462
g5
tp1463
a(S'treated'
p1464
S'treat'
p1465
S'VBN'
p1466
S'B-NP'
p1467
g5
tp1468
a(S'patients'
p1469
S'patient'
p1470
S'NNS'
p1471
S'I-NP'
p1472
g5
tp1473
a(S'vs.'
p1474
S'vs.'
p1475
S'IN'
p1476
S'B-PP'
p1477
g5
tp1478
a(S'36'
p1479
S'36'
p1480
S'CD'
p1481
S'B-NP'
p1482
g5
tp1483
a(g231
g231
S'NN'
p1484
S'I-NP'
p1485
g5
tp1486
a(S'in'
p1487
S'in'
p1488
S'IN'
p1489
S'B-PP'
p1490
g5
tp1491
a(S'untreated'
p1492
S'untreated'
p1493
S'JJ'
p1494
S'B-ADJP'
p1495
g5
tp1496
a(g161
g161
g161
g5
g5
tp1497
a(g112
g112
g112
g5
g5
tp1498
a(S'The'
p1499
S'The'
p1500
S'DT'
p1501
S'B-NP'
p1502
g5
tp1503
a(S'percentage'
p1504
S'percentage'
p1505
S'NN'
p1506
S'I-NP'
p1507
g5
tp1508
a(S'of'
p1509
S'of'
p1510
S'IN'
p1511
S'B-PP'
p1512
g5
tp1513
a(S'cancers'
p1514
S'cancer'
p1515
S'NNS'
p1516
S'B-NP'
p1517
g5
tp1518
a(S'with'
p1519
S'with'
p1520
S'IN'
p1521
S'B-PP'
p1522
g5
tp1523
a(S'negative'
p1524
S'negative'
p1525
S'JJ'
p1526
S'B-NP'
p1527
g5
tp1528
a(S'margins'
p1529
S'margin'
p1530
S'NNS'
p1531
S'I-NP'
p1532
g5
tp1533
a(S'was'
p1534
S'be'
p1535
S'VBD'
p1536
S'B-VP'
p1537
g5
tp1538
a(S'statistically'
p1539
S'statistically'
p1540
S'RB'
p1541
S'B-ADJP'
p1542
g5
tp1543
a(S'significantly'
p1544
S'significantly'
p1545
S'RB'
p1546
S'I-ADJP'
p1547
g5
tp1548
a(S'greater'
p1549
S'great'
p1550
S'JJR'
p1551
S'I-ADJP'
p1552
g5
tp1553
a(S'in'
p1554
S'in'
p1555
S'IN'
p1556
S'B-PP'
p1557
g5
tp1558
a(S'patients'
p1559
S'patient'
p1560
S'NNS'
p1561
S'B-NP'
p1562
g5
tp1563
a(S'treated'
p1564
S'treat'
p1565
S'VBN'
p1566
S'B-VP'
p1567
g5
tp1568
a(S'with'
p1569
S'with'
p1570
S'IN'
p1571
S'B-PP'
p1572
g5
tp1573
a(S'neoadjuvant'
p1574
S'neoadjuvant'
p1575
S'JJ'
p1576
S'B-NP'
p1577
g5
tp1578
a(S'therapy'
p1579
S'therapy'
p1580
S'NN'
p1581
S'I-NP'
p1582
g5
tp1583
a(S'than'
p1584
S'than'
p1585
S'IN'
p1586
S'B-PP'
p1587
g5
tp1588
a(S'those'
p1589
S'those'
p1590
S'DT'
p1591
S'B-NP'
p1592
g5
tp1593
a(S'treated'
p1594
S'treat'
p1595
S'VBN'
p1596
S'B-VP'
p1597
g5
tp1598
a(S'with'
p1599
S'with'
p1600
S'IN'
p1601
S'B-PP'
p1602
g5
tp1603
a(S'immediate'
p1604
S'immediate'
p1605
S'JJ'
p1606
S'B-NP'
p1607
g5
tp1608
a(S'surgery'
p1609
S'surgery'
p1610
S'NN'
p1611
S'I-NP'
p1612
g5
tp1613
a(S'alone'
p1614
S'alone'
p1615
S'RB'
p1616
S'B-ADVP'
p1617
g5
tp1618
a(g154
g154
g154
g5
g5
tp1619
a(S'69'
p1620
S'69'
p1621
S'CD'
p1622
S'B-NP'
p1623
g5
tp1624
a(g231
g231
S'NN'
p1625
S'I-NP'
p1626
g5
tp1627
a(S'vs.'
p1628
S'vs.'
p1629
S'IN'
p1630
S'B-PP'
p1631
g5
tp1632
a(S'42'
p1633
S'42'
p1634
S'CD'
p1635
S'B-NP'
p1636
g5
tp1637
a(g231
g231
S'NN'
p1638
S'I-NP'
p1639
g5
tp1640
a(g275
g275
g275
g5
g5
tp1641
a(S'respectively'
p1642
S'respectively'
p1643
S'RB'
p1644
S'B-ADVP'
p1645
g5
tp1646
a(g161
g161
g161
g5
g5
tp1647
a(g112
g112
g112
g5
g5
tp1648
a(S'After'
p1649
S'After'
p1650
S'IN'
p1651
S'B-PP'
p1652
g5
tp1653
a(S'six'
p1654
S'six'
p1655
S'CD'
p1656
S'B-NP'
p1657
g5
tp1658
a(S'months'
p1659
S'month'
p1660
S'NNS'
p1661
S'I-NP'
p1662
g5
tp1663
a(S'of'
p1664
S'of'
p1665
S'IN'
p1666
S'B-PP'
p1667
g5
tp1668
a(S'NHT'
p1669
S'NHT'
p1670
S'NN'
p1671
S'B-NP'
p1672
g5
tp1673
a(S'therapy'
p1674
S'therapy'
p1675
S'NN'
p1676
S'I-NP'
p1677
g5
tp1678
a(S'the'
p1679
S'the'
p1680
S'DT'
p1681
S'B-NP'
p1682
g5
tp1683
a(S'proportion'
p1684
S'proportion'
p1685
S'NN'
p1686
S'I-NP'
p1687
g5
tp1688
a(S'of'
p1689
S'of'
p1690
S'IN'
p1691
S'B-PP'
p1692
g5
tp1693
a(S'patients'
p1694
S'patient'
p1695
S'NNS'
p1696
S'B-NP'
p1697
g5
tp1698
a(S'with'
p1699
S'with'
p1700
S'IN'
p1701
S'B-PP'
p1702
g5
tp1703
a(S'pathological'
p1704
S'pathological'
p1705
S'JJ'
p1706
S'B-NP'
p1707
g5
tp1708
a(S'stage'
p1709
S'stage'
p1710
S'NN'
p1711
S'I-NP'
p1712
g5
tp1713
a(g356
g356
S'NN'
p1714
S'I-NP'
p1715
g5
tp1716
a(g154
g154
g154
g5
g5
tp1717
a(S'67'
p1718
S'67'
p1719
S'CD'
p1720
S'B-NP'
p1721
g5
tp1722
a(g231
g231
S'NN'
p1723
S'I-NP'
p1724
g5
tp1725
a(S'vs.'
p1726
S'vs.'
p1727
S'IN'
p1728
S'B-PP'
p1729
g5
tp1730
a(S'36'
p1731
S'36'
p1732
S'CD'
p1733
S'B-NP'
p1734
g5
tp1735
a(g231
g231
S'NN'
p1736
S'I-NP'
p1737
g5
tp1738
a(g275
g275
g275
g5
g5
tp1739
a(S'respectively'
p1740
S'respectively'
p1741
S'RB'
p1742
S'B-ADVP'
p1743
g5
tp1744
a(g161
g161
g161
g5
g5
tp1745
a(S'and'
p1746
S'and'
p1747
S'CC'
p1748
g5
g5
tp1749
a(S'negative'
p1750
S'negative'
p1751
S'JJ'
p1752
S'B-NP'
p1753
g5
tp1754
a(S'margins'
p1755
S'margin'
p1756
S'NNS'
p1757
S'I-NP'
p1758
g5
tp1759
a(S'was'
p1760
S'be'
p1761
S'VBD'
p1762
S'B-VP'
p1763
g5
tp1764
a(S'greater'
p1765
S'great'
p1766
S'JJR'
p1767
S'B-ADJP'
p1768
g5
tp1769
a(S'than'
p1770
S'than'
p1771
S'IN'
p1772
S'B-PP'
p1773
g5
tp1774
a(S'after'
p1775
S'after'
p1776
S'IN'
p1777
S'B-PP'
p1778
g5
tp1779
a(S'3'
p1780
g1780
S'CD'
p1781
S'B-NP'
p1782
g5
tp1783
a(S'months'
p1784
S'month'
p1785
S'NNS'
p1786
S'I-NP'
p1787
g5
tp1788
a(g154
g154
g154
g5
g5
tp1789
a(S'92'
p1790
S'92'
p1791
S'CD'
p1792
S'B-NP'
p1793
g5
tp1794
a(g231
g231
S'NN'
p1795
S'I-NP'
p1796
g5
tp1797
a(S'vs.'
p1798
S'vs.'
p1799
S'IN'
p1800
S'B-PP'
p1801
g5
tp1802
a(S'42'
p1803
S'42'
p1804
S'CD'
p1805
S'B-NP'
p1806
g5
tp1807
a(g231
g231
S'NN'
p1808
S'I-NP'
p1809
g5
tp1810
a(g275
g275
g275
g5
g5
tp1811
a(S'respectively'
p1812
S'respectively'
p1813
S'RB'
p1814
S'B-ADVP'
p1815
g5
tp1816
a(g161
g161
g161
g5
g5
tp1817
a(g112
g112
g112
g5
g5
tp1818
a(S'For'
p1819
S'For'
p1820
S'IN'
p1821
S'B-PP'
p1822
g5
tp1823
a(S'clinical'
p1824
S'clinical'
p1825
S'JJ'
p1826
S'B-NP'
p1827
g5
tp1828
a(S'C'
p1829
g1829
S'NN'
p1830
S'I-NP'
p1831
g5
tp1832
a(S'tumours'
p1833
S'tumour'
p1834
S'NNS'
p1835
S'I-NP'
p1836
g5
tp1837
a(g275
g275
g275
g5
g5
tp1838
a(S'the'
p1839
S'the'
p1840
S'DT'
p1841
S'B-NP'
p1842
g5
tp1843
a(S'prevalence'
p1844
S'prevalence'
p1845
S'NN'
p1846
S'I-NP'
p1847
g5
tp1848
a(S'of'
p1849
S'of'
p1850
S'IN'
p1851
S'B-PP'
p1852
g5
tp1853
a(S'pathological'
p1854
S'pathological'
p1855
S'JJ'
p1856
S'B-NP'
p1857
g5
tp1858
a(S'stage'
p1859
S'stage'
p1860
S'NN'
p1861
S'I-NP'
p1862
g5
tp1863
a(g356
g356
S'NN'
p1864
S'I-NP'
p1865
g5
tp1866
a(S'and'
p1867
S'and'
p1868
S'CC'
p1869
g5
g5
tp1870
a(S'negative'
p1871
S'negative'
p1872
S'JJ'
p1873
S'B-NP'
p1874
g5
tp1875
a(S'margins'
p1876
S'margin'
p1877
S'NNS'
p1878
S'I-NP'
p1879
g5
tp1880
a(S'in'
p1881
S'in'
p1882
S'IN'
p1883
S'B-PP'
p1884
g5
tp1885
a(S'the'
p1886
S'the'
p1887
S'DT'
p1888
S'B-NP'
p1889
g5
tp1890
a(S'patients'
p1891
S'patient'
p1892
S'NNS'
p1893
S'I-NP'
p1894
g5
tp1895
a(S'treated'
p1896
S'treat'
p1897
S'VBN'
p1898
S'B-VP'
p1899
g5
tp1900
a(S'for'
p1901
S'for'
p1902
S'IN'
p1903
S'B-PP'
p1904
g5
tp1905
a(S'either'
p1906
S'either'
p1907
S'CC'
p1908
S'B-NP'
p1909
g5
tp1910
a(g1780
g1780
S'CD'
p1911
S'I-NP'
p1912
g5
tp1913
a(S'or'
p1914
S'or'
p1915
S'CC'
p1916
S'I-NP'
p1917
g5
tp1918
a(S'6'
p1919
g1919
S'CD'
p1920
S'I-NP'
p1921
g5
tp1922
a(S'months'
p1923
S'month'
p1924
S'NNS'
p1925
S'I-NP'
p1926
g5
tp1927
a(S'was'
p1928
S'be'
p1929
S'VBD'
p1930
S'B-VP'
p1931
g5
tp1932
a(S'not'
p1933
S'not'
p1934
S'RB'
p1935
g5
g5
tp1936
a(S'as'
p1937
S'as'
p1938
S'RB'
p1939
S'B-ADJP'
p1940
g5
tp1941
a(S'high'
p1942
S'high'
p1943
S'JJ'
p1944
S'I-ADJP'
p1945
g5
tp1946
a(S'as'
p1947
S'as'
p1948
S'IN'
p1949
S'B-PP'
p1950
g5
tp1951
a(S'in'
p1952
S'in'
p1953
S'IN'
p1954
S'B-PP'
p1955
g5
tp1956
a(S'the'
p1957
S'the'
p1958
S'DT'
p1959
S'B-NP'
p1960
g5
tp1961
a(S'clinical'
p1962
S'clinical'
p1963
S'JJ'
p1964
S'I-NP'
p1965
g5
tp1966
a(g356
g356
S'NN'
p1967
S'I-NP'
p1968
g5
tp1969
a(S'tumours'
p1970
S'tumour'
p1971
S'NNS'
p1972
S'I-NP'
p1973
g5
tp1974
a(g275
g275
g275
g5
g5
tp1975
a(S'when'
p1976
S'when'
p1977
S'WRB'
p1978
S'B-ADVP'
p1979
g5
tp1980
a(S'compared'
p1981
S'compare'
p1982
S'VBN'
p1983
S'B-PP'
p1984
g5
tp1985
a(S'with'
p1986
S'with'
p1987
S'IN'
p1988
S'B-PP'
p1989
g5
tp1990
a(S'the'
p1991
S'the'
p1992
S'DT'
p1993
S'B-NP'
p1994
g5
tp1995
a(S'untreated'
p1996
S'untreated'
p1997
S'JJ'
p1998
S'I-NP'
p1999
g5
tp2000
a(S'group'
p2001
S'group'
p2002
S'NN'
p2003
S'I-NP'
p2004
g5
tp2005
a(g154
g154
g154
g5
g5
tp2006
a(S'pathological'
p2007
S'pathological'
p2008
S'JJ'
p2009
S'B-NP'
p2010
g5
tp2011
a(S'stage'
p2012
S'stage'
p2013
S'NN'
p2014
S'I-NP'
p2015
g5
tp2016
a(g356
g356
S'NN'
p2017
S'I-NP'
p2018
g5
tp2019
a(S':'
p2020
g2020
g2020
g5
g5
tp2021
a(S'31'
p2022
S'31'
p2023
S'CD'
p2024
S'B-NP'
p2025
g5
tp2026
a(g231
g231
S'NN'
p2027
S'I-NP'
p2028
g5
tp2029
a(S'and'
p2030
S'and'
p2031
S'CC'
p2032
g5
g5
tp2033
a(S'33'
p2034
S'33'
p2035
S'CD'
p2036
S'B-NP'
p2037
g5
tp2038
a(g231
g231
S'NN'
p2039
S'I-NP'
p2040
g5
tp2041
a(S'vs.'
p2042
S'vs.'
p2043
S'IN'
p2044
S'B-PP'
p2045
g5
tp2046
a(g1919
g1919
S'CD'
p2047
S'B-NP'
p2048
g5
tp2049
a(g231
g231
S'NN'
p2050
S'I-NP'
p2051
g5
tp2052
a(S'in'
p2053
S'in'
p2054
S'IN'
p2055
S'B-PP'
p2056
g5
tp2057
a(S'the'
p2058
S'the'
p2059
S'DT'
p2060
S'B-NP'
p2061
g5
tp2062
a(S'clinical'
p2063
S'clinical'
p2064
S'JJ'
p2065
S'I-NP'
p2066
g5
tp2067
a(g1829
g1829
S'NN'
p2068
S'I-NP'
p2069
g5
tp2070
a(S'cases'
p2071
S'case'
p2072
S'NNS'
p2073
S'I-NP'
p2074
g5
tp2075
a(g275
g275
g275
g5
g5
tp2076
a(S'respectively.'
p2077
S'respectively.'
p2078
S'VBP'
p2079
S'B-VP'
p2080
g5
tp2081
a(S'Negative'
p2082
S'Negative'
p2083
S'JJ'
p2084
S'B-NP'
p2085
g5
tp2086
a(S'margins'
p2087
S'margin'
p2088
S'NNS'
p2089
S'I-NP'
p2090
g5
tp2091
a(g2020
g2020
g2020
g5
g5
tp2092
a(S'56'
p2093
S'56'
p2094
S'CD'
p2095
S'B-NP'
p2096
g5
tp2097
a(g231
g231
S'NN'
p2098
S'I-NP'
p2099
g5
tp2100
a(S'and'
p2101
S'and'
p2102
S'CC'
p2103
g5
g5
tp2104
a(S'67'
p2105
S'67'
p2106
S'CD'
p2107
S'B-NP'
p2108
g5
tp2109
a(g231
g231
S'NN'
p2110
S'I-NP'
p2111
g5
tp2112
a(S'vs.'
p2113
S'vs.'
p2114
S'IN'
p2115
S'B-PP'
p2116
g5
tp2117
a(S'31'
p2118
S'31'
p2119
S'CD'
p2120
S'B-NP'
p2121
g5
tp2122
a(g231
g231
S'NN'
p2123
S'I-NP'
p2124
g5
tp2125
a(g275
g275
g275
g5
g5
tp2126
a(S'respectively'
p2127
S'respectively'
p2128
S'RB'
p2129
S'B-ADVP'
p2130
g5
tp2131
a(g161
g161
g161
g5
g5
tp2132
a(g112
g112
g112
g5
g5
tp2133
a(S'The'
p2134
S'The'
p2135
S'DT'
p2136
S'B-NP'
p2137
g5
tp2138
a(S'initial'
p2139
S'initial'
p2140
S'JJ'
p2141
S'I-NP'
p2142
g5
tp2143
a(S'results'
p2144
S'result'
p2145
S'NNS'
p2146
S'I-NP'
p2147
g5
tp2148
a(S'of'
p2149
S'of'
p2150
S'IN'
p2151
S'B-PP'
p2152
g5
tp2153
a(S'this'
p2154
S'this'
p2155
S'DT'
p2156
S'B-NP'
p2157
g5
tp2158
a(S'study'
p2159
S'study'
p2160
S'NN'
p2161
S'I-NP'
p2162
g5
tp2163
a(S'suggest'
p2164
S'suggest'
p2165
S'VBP'
p2166
S'B-VP'
p2167
g5
tp2168
a(S'that'
p2169
S'that'
p2170
S'IN'
p2171
S'B-SBAR'
p2172
g5
tp2173
a(S'total'
p2174
S'total'
p2175
S'JJ'
p2176
S'B-NP'
p2177
g5
tp2178
a(S'androgen'
p2179
S'androgen'
p2180
S'NN'
p2181
S'I-NP'
p2182
g5
tp2183
a(S'ablation'
p2184
S'ablation'
p2185
S'NN'
p2186
S'I-NP'
p2187
g5
tp2188
a(S'before'
p2189
S'before'
p2190
S'IN'
p2191
S'B-SBAR'
p2192
g5
tp2193
a(S'RP'
p2194
S'RP'
p2195
S'NN'
p2196
S'B-NP'
p2197
S'B-protein'
p2198
tp2199
a(S'is'
p2200
S'be'
p2201
S'VBZ'
p2202
S'B-VP'
p2203
g5
tp2204
a(S'beneficial'
p2205
S'beneficial'
p2206
S'JJ'
p2207
S'B-ADJP'
p2208
g5
tp2209
a(S'in'
p2210
S'in'
p2211
S'IN'
p2212
S'B-PP'
p2213
g5
tp2214
a(S'men'
p2215
S'man'
p2216
S'NNS'
p2217
S'B-NP'
p2218
g5
tp2219
a(S'with'
p2220
S'with'
p2221
S'IN'
p2222
S'B-PP'
p2223
g5
tp2224
a(S'clinical'
p2225
S'clinical'
p2226
S'JJ'
p2227
S'B-NP'
p2228
g5
tp2229
a(S'stage'
p2230
S'stage'
p2231
S'NN'
p2232
S'I-NP'
p2233
g5
tp2234
a(g356
g356
S'NN'
p2235
S'I-NP'
p2236
g5
tp2237
a(S'because'
p2238
S'because'
p2239
S'IN'
p2240
S'B-PP'
p2241
g5
tp2242
a(S'of'
p2243
S'of'
p2244
S'IN'
p2245
S'I-PP'
p2246
g5
tp2247
a(S'the'
p2248
S'the'
p2249
S'DT'
p2250
S'B-NP'
p2251
g5
tp2252
a(S'significant'
p2253
S'significant'
p2254
S'JJ'
p2255
S'I-NP'
p2256
g5
tp2257
a(S'pathological'
p2258
S'pathological'
p2259
S'JJ'
p2260
S'I-NP'
p2261
g5
tp2262
a(S'downstaging'
p2263
S'downstaging'
p2264
S'NN'
p2265
S'I-NP'
p2266
g5
tp2267
a(S'and'
p2268
S'and'
p2269
S'CC'
p2270
S'I-NP'
p2271
g5
tp2272
a(S'decrease'
p2273
S'decrease'
p2274
S'NN'
p2275
S'I-NP'
p2276
g5
tp2277
a(S'in'
p2278
S'in'
p2279
S'IN'
p2280
S'B-PP'
p2281
g5
tp2282
a(S'the'
p2283
S'the'
p2284
S'DT'
p2285
S'B-NP'
p2286
g5
tp2287
a(S'number'
p2288
S'number'
p2289
S'NN'
p2290
S'I-NP'
p2291
g5
tp2292
a(S'of'
p2293
S'of'
p2294
S'IN'
p2295
S'B-PP'
p2296
g5
tp2297
a(S'positive'
p2298
S'positive'
p2299
S'JJ'
p2300
S'B-NP'
p2301
S'B-protein'
p2302
tp2303
a(S'margins'
p2304
S'margin'
p2305
S'NNS'
p2306
S'I-NP'
p2307
S'I-protein'
p2308
tp2309
a(S'in'
p2310
S'in'
p2311
S'IN'
p2312
S'B-PP'
p2313
g5
tp2314
a(S'the'
p2315
S'the'
p2316
S'DT'
p2317
S'B-NP'
p2318
g5
tp2319
a(S'RP'
p2320
S'RP'
p2321
S'NN'
p2322
S'I-NP'
p2323
g5
tp2324
a(S'specimens.'
p2325
S'specimens.'
p2326
S'NN'
p2327
S'I-NP'
p2328
g5
tp2329
a(S'These'
p2330
S'These'
p2331
S'DT'
p2332
S'B-NP'
p2333
g5
tp2334
a(S'two'
p2335
S'two'
p2336
S'CD'
p2337
S'I-NP'
p2338
g5
tp2339
a(S'effects'
p2340
S'effect'
p2341
S'NNS'
p2342
S'I-NP'
p2343
g5
tp2344
a(S'are'
p2345
S'be'
p2346
S'VBP'
p2347
S'B-VP'
p2348
g5
tp2349
a(S'more'
p2350
S'more'
p2351
S'RBR'
p2352
S'B-ADJP'
p2353
g5
tp2354
a(S'pronounced'
p2355
S'pronounced'
p2356
S'JJ'
p2357
S'I-ADJP'
p2358
g5
tp2359
a(S'after'
p2360
S'after'
p2361
S'IN'
p2362
S'B-PP'
p2363
g5
tp2364
a(S'six'
p2365
S'six'
p2366
S'CD'
p2367
S'B-NP'
p2368
g5
tp2369
a(S'months'
p2370
S'month'
p2371
S'NNS'
p2372
S'I-NP'
p2373
g5
tp2374
a(S'of'
p2375
S'of'
p2376
S'IN'
p2377
S'B-PP'
p2378
g5
tp2379
a(S'NHT'
p2380
S'NHT'
p2381
S'NN'
p2382
S'B-NP'
p2383
S'B-protein'
p2384
tp2385
a(S'than'
p2386
S'than'
p2387
S'IN'
p2388
S'B-PP'
p2389
g5
tp2390
a(S'after'
p2391
S'after'
p2392
S'IN'
p2393
S'B-PP'
p2394
g5
tp2395
a(S'three'
p2396
S'three'
p2397
S'CD'
p2398
S'B-NP'
p2399
g5
tp2400
a(S'months'
p2401
S'month'
p2402
S'NNS'
p2403
S'I-NP'
p2404
g5
tp2405
a(S'of'
p2406
S'of'
p2407
S'IN'
p2408
S'B-PP'
p2409
g5
tp2410
a(S'therapy.'
p2411
S'therapy.'
p2412
S'RB'
p2413
S'B-NP'
p2414
g5
tp2415
a(S'The'
p2416
S'The'
p2417
S'DT'
p2418
S'I-NP'
p2419
g5
tp2420
a(S'same'
p2421
S'same'
p2422
S'JJ'
p2423
S'I-NP'
p2424
g5
tp2425
a(S'degree'
p2426
S'degree'
p2427
S'NN'
p2428
S'I-NP'
p2429
g5
tp2430
a(S'of'
p2431
S'of'
p2432
S'IN'
p2433
S'B-PP'
p2434
g5
tp2435
a(S'beneficial'
p2436
S'beneficial'
p2437
S'JJ'
p2438
S'B-NP'
p2439
g5
tp2440
a(S'effects'
p2441
S'effect'
p2442
S'NNS'
p2443
S'I-NP'
p2444
g5
tp2445
a(S'are'
p2446
S'be'
p2447
S'VBP'
p2448
S'B-VP'
p2449
g5
tp2450
a(S'not'
p2451
S'not'
p2452
S'RB'
p2453
S'I-VP'
p2454
g5
tp2455
a(S'observed'
p2456
S'observe'
p2457
S'VBN'
p2458
S'I-VP'
p2459
g5
tp2460
a(S'in'
p2461
S'in'
p2462
S'IN'
p2463
S'B-PP'
p2464
g5
tp2465
a(S'clinical'
p2466
S'clinical'
p2467
S'JJ'
p2468
S'B-NP'
p2469
g5
tp2470
a(g1829
g1829
S'NN'
p2471
S'I-NP'
p2472
g5
tp2473
a(S'tumours'
p2474
S'tumour'
p2475
S'NNS'
p2476
S'I-NP'
p2477
g5
tp2478
a(g112
g112
g112
g5
g5
tp2479
a.