(lp0
(S'Phase'
p1
S'Phase'
p2
S'NN'
p3
S'B-NP'
p4
S'O'
p5
tp6
a(S'III'
p7
S'III'
p8
S'CD'
p9
S'I-NP'
p10
g5
tp11
a(S'study'
p12
S'study'
p13
S'NN'
p14
S'I-NP'
p15
g5
tp16
a(S'of'
p17
S'of'
p18
S'IN'
p19
S'B-PP'
p20
g5
tp21
a(S'concurrent'
p22
S'concurrent'
p23
S'JJ'
p24
S'B-NP'
p25
g5
tp26
a(S'chemoradiotherapy'
p27
S'chemoradiotherapy'
p28
S'NN'
p29
S'I-NP'
p30
g5
tp31
a(S'versus'
p32
S'versus'
p33
S'IN'
p34
S'B-PP'
p35
g5
tp36
a(S'radiotherapy'
p37
S'radiotherapy'
p38
S'NN'
p39
S'B-NP'
p40
g5
tp41
a(S'alone'
p42
S'alone'
p43
S'RB'
p44
S'B-ADVP'
p45
g5
tp46
a(S'for'
p47
S'for'
p48
S'IN'
p49
S'B-PP'
p50
g5
tp51
a(S'advanced'
p52
S'advance'
p53
S'VBN'
p54
S'B-NP'
p55
g5
tp56
a(S'nasopharyngeal'
p57
S'nasopharyngeal'
p58
S'JJ'
p59
S'I-NP'
p60
g5
tp61
a(S'carcinoma'
p62
S'carcinoma'
p63
S'NN'
p64
S'I-NP'
p65
g5
tp66
a(S':'
p67
g67
g67
g5
g5
tp68
a(S'positive'
p69
S'positive'
p70
S'JJ'
p71
S'B-NP'
p72
g5
tp73
a(S'effect'
p74
S'effect'
p75
S'NN'
p76
S'I-NP'
p77
g5
tp78
a(S'on'
p79
S'on'
p80
S'IN'
p81
S'B-PP'
p82
g5
tp83
a(S'overall'
p84
S'overall'
p85
S'JJ'
p86
S'B-NP'
p87
g5
tp88
a(S'and'
p89
S'and'
p90
S'CC'
p91
S'I-NP'
p92
g5
tp93
a(S'progression-free'
p94
S'progression-free'
p95
S'JJ'
p96
S'I-NP'
p97
g5
tp98
a(S'survival'
p99
S'survival'
p100
S'NN'
p101
S'I-NP'
p102
g5
tp103
a(S'.'
p104
g104
g104
g5
g5
tp105
a(S'PURPOSE'
p106
S'PURPOSE'
p107
S'NN'
p108
S'B-NP'
p109
g5
tp110
a(S'Nasopharyngeal'
p111
S'Nasopharyngeal'
p112
S'JJ'
p113
S'I-NP'
p114
g5
tp115
a(S'carcinoma'
p116
S'carcinoma'
p117
S'NN'
p118
S'I-NP'
p119
g5
tp120
a(S'('
p121
g121
g121
g5
g5
tp122
a(S'NPC'
p123
S'NPC'
p124
S'NN'
p125
S'B-NP'
p126
S'B-protein'
p127
tp128
a(S')'
p129
g129
g129
g5
g5
tp130
a(S'is'
p131
S'be'
p132
S'VBZ'
p133
S'B-VP'
p134
g5
tp135
a(S'a'
p136
g136
S'DT'
p137
S'B-NP'
p138
g5
tp139
a(S'radiosensitive'
p140
S'radiosensitive'
p141
S'JJ'
p142
S'I-NP'
p143
g5
tp144
a(S'and'
p145
S'and'
p146
S'CC'
p147
S'I-NP'
p148
g5
tp149
a(S'chemosensitive'
p150
S'chemosensitive'
p151
S'JJ'
p152
S'I-NP'
p153
g5
tp154
a(S'tumor.'
p155
S'tumor.'
p156
S'NN'
p157
S'I-NP'
p158
g5
tp159
a(S'This'
p160
S'This'
p161
S'DT'
p162
g5
g5
tp163
a(S'randomized'
p164
S'randomize'
p165
S'VBD'
p166
S'B-VP'
p167
g5
tp168
a(S'phase'
p169
S'phase'
p170
S'NN'
p171
S'B-NP'
p172
g5
tp173
a(S'III'
p174
S'III'
p175
S'CD'
p176
S'I-NP'
p177
g5
tp178
a(S'trial'
p179
S'trial'
p180
S'NN'
p181
S'I-NP'
p182
g5
tp183
a(S'compared'
p184
S'compare'
p185
S'VBD'
p186
S'B-VP'
p187
g5
tp188
a(S'concurrent'
p189
S'concurrent'
p190
S'JJ'
p191
S'B-NP'
p192
g5
tp193
a(S'chemoradiotherapy'
p194
S'chemoradiotherapy'
p195
S'NN'
p196
S'I-NP'
p197
g5
tp198
a(g121
g121
g121
g5
g5
tp199
a(S'CCRT'
p200
S'CCRT'
p201
S'NN'
p202
S'B-NP'
p203
g5
tp204
a(g129
g129
g129
g5
g5
tp205
a(S'versus'
p206
S'versus'
p207
S'CC'
p208
g5
g5
tp209
a(S'radiotherapy'
p210
S'radiotherapy'
p211
S'NN'
p212
S'B-NP'
p213
g5
tp214
a(g121
g121
g121
g5
g5
tp215
a(S'RT'
p216
S'RT'
p217
S'NN'
p218
S'B-NP'
p219
g5
tp220
a(g129
g129
g129
g5
g5
tp221
a(S'alone'
p222
S'alone'
p223
S'RB'
p224
S'B-ADVP'
p225
g5
tp226
a(S'in'
p227
S'in'
p228
S'IN'
p229
S'B-PP'
p230
g5
tp231
a(S'patients'
p232
S'patient'
p233
S'NNS'
p234
S'B-NP'
p235
g5
tp236
a(S'with'
p237
S'with'
p238
S'IN'
p239
S'B-PP'
p240
g5
tp241
a(S'advanced'
p242
S'advanced'
p243
S'JJ'
p244
S'B-NP'
p245
g5
tp246
a(S'NPC'
p247
S'NPC'
p248
S'NN'
p249
S'I-NP'
p250
S'B-protein'
p251
tp252
a(g104
g104
g104
g5
g5
tp253
a(S'PATIENTS'
p254
S'PATIENTS'
p255
S'NNS'
p256
S'B-NP'
p257
g5
tp258
a(S'AND'
p259
S'AND'
p260
S'CC'
p261
S'I-NP'
p262
g5
tp263
a(S'METHODS'
p264
S'METHODS'
p265
S'NNS'
p266
S'I-NP'
p267
g5
tp268
a(S'From'
p269
S'From'
p270
S'IN'
p271
S'B-PP'
p272
g5
tp273
a(S'December'
p274
S'December'
p275
S'NNP'
p276
S'B-NP'
p277
g5
tp278
a(S'1993'
p279
S'1993'
p280
S'CD'
p281
S'I-NP'
p282
g5
tp283
a(S'to'
p284
S'to'
p285
S'TO'
p286
S'B-PP'
p287
g5
tp288
a(S'April'
p289
S'April'
p290
S'NNP'
p291
S'B-NP'
p292
g5
tp293
a(S'1999'
p294
S'1999'
p295
S'CD'
p296
S'I-NP'
p297
g5
tp298
a(S','
p299
g299
g299
g5
g5
tp300
a(S'284'
p301
S'284'
p302
S'CD'
p303
S'B-NP'
p304
g5
tp305
a(S'patients'
p306
S'patient'
p307
S'NNS'
p308
S'I-NP'
p309
g5
tp310
a(S'with'
p311
S'with'
p312
S'IN'
p313
S'B-PP'
p314
g5
tp315
a(S'1992'
p316
S'1992'
p317
S'CD'
p318
S'B-NP'
p319
g5
tp320
a(S'American'
p321
S'American'
p322
S'NNP'
p323
S'I-NP'
p324
g5
tp325
a(S'Joint'
p326
S'Joint'
p327
S'NNP'
p328
S'I-NP'
p329
g5
tp330
a(S'Committee'
p331
S'Committee'
p332
S'NNP'
p333
S'I-NP'
p334
g5
tp335
a(S'on'
p336
S'on'
p337
S'IN'
p338
S'B-PP'
p339
g5
tp340
a(S'Cancer'
p341
S'Cancer'
p342
S'NNP'
p343
S'B-NP'
p344
g5
tp345
a(S'stage'
p346
S'stage'
p347
S'NN'
p348
S'I-NP'
p349
g5
tp350
a(S'III'
p351
S'III'
p352
S'CD'
p353
S'B-NP'
p354
g5
tp355
a(S'to'
p356
S'to'
p357
S'TO'
p358
S'I-NP'
p359
g5
tp360
a(S'IV'
p361
S'IV'
p362
S'CD'
p363
S'I-NP'
p364
g5
tp365
a(g121
g121
g121
g5
g5
tp366
a(S'M0'
p367
S'M0'
p368
S'NN'
p369
S'B-NP'
p370
g5
tp371
a(g129
g129
g129
g5
g5
tp372
a(S'NPC'
p373
S'NPC'
p374
S'NN'
p375
S'B-NP'
p376
g5
tp377
a(S'were'
p378
S'be'
p379
S'VBD'
p380
S'B-VP'
p381
g5
tp382
a(S'randomly'
p383
S'randomly'
p384
S'RB'
p385
S'I-VP'
p386
g5
tp387
a(S'allocated'
p388
S'allocate'
p389
S'VBN'
p390
S'I-VP'
p391
g5
tp392
a(S'into'
p393
S'into'
p394
S'IN'
p395
S'B-PP'
p396
g5
tp397
a(S'two'
p398
S'two'
p399
S'CD'
p400
S'B-NP'
p401
g5
tp402
a(S'arms.'
p403
S'arms.'
p404
S'NN'
p405
S'I-NP'
p406
g5
tp407
a(S'Similar'
p408
S'Similar'
p409
S'JJ'
p410
S'I-NP'
p411
g5
tp412
a(S'dosage'
p413
S'dosage'
p414
S'NN'
p415
S'I-NP'
p416
g5
tp417
a(S'and'
p418
S'and'
p419
S'CC'
p420
S'I-NP'
p421
g5
tp422
a(S'fractionation'
p423
S'fractionation'
p424
S'NN'
p425
S'I-NP'
p426
g5
tp427
a(S'of'
p428
S'of'
p429
S'IN'
p430
S'B-PP'
p431
g5
tp432
a(S'RT'
p433
S'RT'
p434
S'NN'
p435
S'B-NP'
p436
g5
tp437
a(S'was'
p438
S'be'
p439
S'VBD'
p440
S'B-VP'
p441
g5
tp442
a(S'administered'
p443
S'administer'
p444
S'VBN'
p445
S'I-VP'
p446
g5
tp447
a(S'in'
p448
S'in'
p449
S'IN'
p450
S'B-PP'
p451
g5
tp452
a(S'both'
p453
S'both'
p454
S'DT'
p455
S'B-NP'
p456
g5
tp457
a(S'arms.'
p458
S'arms.'
p459
S'NN'
p460
S'I-NP'
p461
g5
tp462
a(S'The'
p463
S'The'
p464
S'DT'
p465
S'B-NP'
p466
g5
tp467
a(S'investigational'
p468
S'investigational'
p469
S'JJ'
p470
S'I-NP'
p471
g5
tp472
a(S'arm'
p473
S'arm'
p474
S'NN'
p475
S'I-NP'
p476
g5
tp477
a(S'received'
p478
S'receive'
p479
S'VBD'
p480
S'B-VP'
p481
g5
tp482
a(S'two'
p483
S'two'
p484
S'CD'
p485
S'B-NP'
p486
g5
tp487
a(S'cycles'
p488
S'cycle'
p489
S'NNS'
p490
S'I-NP'
p491
g5
tp492
a(S'of'
p493
S'of'
p494
S'IN'
p495
S'B-PP'
p496
g5
tp497
a(S'concurrent'
p498
S'concurrent'
p499
S'JJ'
p500
S'B-NP'
p501
g5
tp502
a(S'chemotherapy'
p503
S'chemotherapy'
p504
S'NN'
p505
S'I-NP'
p506
g5
tp507
a(S'with'
p508
S'with'
p509
S'IN'
p510
S'B-PP'
p511
g5
tp512
a(S'cisplatin'
p513
S'cisplatin'
p514
S'NN'
p515
S'B-NP'
p516
g5
tp517
a(S'20'
p518
S'20'
p519
S'CD'
p520
S'I-NP'
p521
g5
tp522
a(S'mg/m'
p523
S'mg/m'
p524
S'NN'
p525
S'I-NP'
p526
g5
tp527
a(g121
g121
g121
g5
g5
tp528
a(S'2'
p529
g529
S'CD'
p530
S'B-NP'
p531
g5
tp532
a(g129
g129
g129
g5
g5
tp533
a(S'/d'
p534
S'/d'
p535
S'NN'
p536
S'B-NP'
p537
g5
tp538
a(S'plus'
p539
S'plus'
p540
S'CC'
p541
g5
g5
tp542
a(S'fluorouracil'
p543
S'fluorouracil'
p544
S'NN'
p545
S'B-NP'
p546
g5
tp547
a(S'400'
p548
S'400'
p549
S'CD'
p550
S'I-NP'
p551
g5
tp552
a(S'mg/m'
p553
S'mg/m'
p554
S'NN'
p555
S'I-NP'
p556
g5
tp557
a(g121
g121
g121
g5
g5
tp558
a(g529
g529
S'CD'
p559
S'B-NP'
p560
g5
tp561
a(g129
g129
g129
g5
g5
tp562
a(S'/d'
p563
S'/d'
p564
S'VBN'
p565
S'B-VP'
p566
g5
tp567
a(S'by'
p568
S'by'
p569
S'IN'
p570
S'B-PP'
p571
g5
tp572
a(S'96-hour'
p573
S'96-hour'
p574
S'JJ'
p575
S'B-NP'
p576
g5
tp577
a(S'continuous'
p578
S'continuous'
p579
S'JJ'
p580
S'I-NP'
p581
g5
tp582
a(S'infusion'
p583
S'infusion'
p584
S'NN'
p585
S'I-NP'
p586
g5
tp587
a(S'during'
p588
S'during'
p589
S'IN'
p590
S'B-PP'
p591
g5
tp592
a(S'the'
p593
S'the'
p594
S'DT'
p595
S'B-NP'
p596
g5
tp597
a(S'weeks'
p598
S'week'
p599
S'NNS'
p600
S'I-NP'
p601
g5
tp602
a(S'1'
p603
g603
S'CD'
p604
S'I-NP'
p605
g5
tp606
a(S'and'
p607
S'and'
p608
S'CC'
p609
S'I-NP'
p610
g5
tp611
a(S'5'
p612
g612
S'CD'
p613
S'I-NP'
p614
g5
tp615
a(S'of'
p616
S'of'
p617
S'IN'
p618
S'B-PP'
p619
g5
tp620
a(S'RT.'
p621
S'RT.'
p622
S'NNP'
p623
S'B-NP'
p624
g5
tp625
a(S'Survival'
p626
S'Survival'
p627
S'NN'
p628
S'I-NP'
p629
g5
tp630
a(S'analysis'
p631
S'analysis'
p632
S'NN'
p633
S'I-NP'
p634
g5
tp635
a(S'was'
p636
S'be'
p637
S'VBD'
p638
S'B-VP'
p639
g5
tp640
a(S'estimated'
p641
S'estimate'
p642
S'VBN'
p643
S'I-VP'
p644
g5
tp645
a(S'by'
p646
S'by'
p647
S'IN'
p648
S'B-PP'
p649
g5
tp650
a(S'the'
p651
S'the'
p652
S'DT'
p653
S'B-NP'
p654
g5
tp655
a(S'Kaplan-Meier'
p656
S'Kaplan-Meier'
p657
S'NNP'
p658
S'I-NP'
p659
g5
tp660
a(S'method'
p661
S'method'
p662
S'NN'
p663
S'I-NP'
p664
g5
tp665
a(S'and'
p666
S'and'
p667
S'CC'
p668
g5
g5
tp669
a(S'compared'
p670
S'compare'
p671
S'VBN'
p672
S'B-VP'
p673
g5
tp674
a(S'by'
p675
S'by'
p676
S'IN'
p677
S'B-PP'
p678
g5
tp679
a(S'the'
p680
S'the'
p681
S'DT'
p682
S'B-NP'
p683
g5
tp684
a(S'log-rank'
p685
S'log-rank'
p686
S'JJ'
p687
S'I-NP'
p688
g5
tp689
a(S'test'
p690
S'test'
p691
S'NN'
p692
S'I-NP'
p693
g5
tp694
a(g104
g104
g104
g5
g5
tp695
a(S'RESULTS'
p696
S'RESULTS'
p697
S'NNS'
p698
S'B-NP'
p699
g5
tp700
a(S'Baseline'
p701
S'Baseline'
p702
S'VBP'
p703
S'B-VP'
p704
g5
tp705
a(S'patient'
p706
S'patient'
p707
S'NN'
p708
S'B-NP'
p709
g5
tp710
a(S'characteristics'
p711
S'characteristic'
p712
S'NNS'
p713
S'I-NP'
p714
g5
tp715
a(S'were'
p716
S'be'
p717
S'VBD'
p718
S'B-VP'
p719
g5
tp720
a(S'comparable'
p721
S'comparable'
p722
S'JJ'
p723
S'B-ADJP'
p724
g5
tp725
a(S'in'
p726
S'in'
p727
S'IN'
p728
S'B-PP'
p729
g5
tp730
a(S'both'
p731
S'both'
p732
S'DT'
p733
S'B-NP'
p734
g5
tp735
a(S'arms.'
p736
S'arms.'
p737
S'NN'
p738
S'I-NP'
p739
g5
tp740
a(S'After'
p741
S'After'
p742
S'IN'
p743
S'B-PP'
p744
g5
tp745
a(g136
g136
S'DT'
p746
S'B-NP'
p747
g5
tp748
a(S'median'
p749
S'median'
p750
S'JJ'
p751
S'I-NP'
p752
g5
tp753
a(S'follow-up'
p754
S'follow-up'
p755
S'NN'
p756
S'I-NP'
p757
g5
tp758
a(S'of'
p759
S'of'
p760
S'IN'
p761
S'B-PP'
p762
g5
tp763
a(S'65'
p764
S'65'
p765
S'CD'
p766
S'B-NP'
p767
g5
tp768
a(S'months'
p769
S'month'
p770
S'NNS'
p771
S'I-NP'
p772
g5
tp773
a(g299
g299
g299
g5
g5
tp774
a(S'26.2'
p775
S'26.2'
p776
S'CD'
p777
S'B-NP'
p778
g5
tp779
a(S'%'
p780
g780
S'NN'
p781
S'I-NP'
p782
g5
tp783
a(g121
g121
g121
g5
g5
tp784
a(S'37'
p785
S'37'
p786
S'CD'
p787
S'B-NP'
p788
g5
tp789
a(S'of'
p790
S'of'
p791
S'IN'
p792
S'B-PP'
p793
g5
tp794
a(S'141'
p795
S'141'
p796
S'CD'
p797
S'B-NP'
p798
g5
tp799
a(g129
g129
g129
g5
g5
tp800
a(S'and'
p801
S'and'
p802
S'CC'
p803
g5
g5
tp804
a(S'46.2'
p805
S'46.2'
p806
S'CD'
p807
S'B-NP'
p808
g5
tp809
a(g780
g780
S'NN'
p810
S'I-NP'
p811
g5
tp812
a(g121
g121
g121
g5
g5
tp813
a(S'66'
p814
S'66'
p815
S'CD'
p816
S'B-NP'
p817
g5
tp818
a(S'of'
p819
S'of'
p820
S'IN'
p821
S'B-PP'
p822
g5
tp823
a(S'143'
p824
S'143'
p825
S'CD'
p826
S'B-NP'
p827
g5
tp828
a(g129
g129
g129
g5
g5
tp829
a(S'of'
p830
S'of'
p831
S'IN'
p832
S'B-PP'
p833
g5
tp834
a(S'patients'
p835
S'patient'
p836
S'NNS'
p837
S'B-NP'
p838
g5
tp839
a(S'developed'
p840
S'develop'
p841
S'VBD'
p842
S'B-VP'
p843
g5
tp844
a(S'tumor'
p845
S'tumor'
p846
S'NN'
p847
S'B-NP'
p848
g5
tp849
a(S'relapse'
p850
S'relapse'
p851
S'NN'
p852
S'I-NP'
p853
g5
tp854
a(S'in'
p855
S'in'
p856
S'IN'
p857
S'B-PP'
p858
g5
tp859
a(S'the'
p860
S'the'
p861
S'DT'
p862
S'B-NP'
p863
g5
tp864
a(S'CCRT'
p865
S'CCRT'
p866
S'NN'
p867
S'I-NP'
p868
g5
tp869
a(S'and'
p870
S'and'
p871
S'CC'
p872
S'I-NP'
p873
g5
tp874
a(S'RT-alone'
p875
S'RT-alone'
p876
S'JJ'
p877
S'I-NP'
p878
g5
tp879
a(S'groups'
p880
S'group'
p881
S'NNS'
p882
S'I-NP'
p883
g5
tp884
a(g299
g299
g299
g5
g5
tp885
a(S'respectively.'
p886
S'respectively.'
p887
S'VBP'
p888
S'B-VP'
p889
g5
tp890
a(S'The'
p891
S'The'
p892
S'DT'
p893
S'B-NP'
p894
g5
tp895
a(S'5-year'
p896
S'5-year'
p897
S'JJ'
p898
S'I-NP'
p899
g5
tp900
a(S'overall'
p901
S'overall'
p902
S'JJ'
p903
S'I-NP'
p904
g5
tp905
a(S'survival'
p906
S'survival'
p907
S'NN'
p908
S'I-NP'
p909
g5
tp910
a(S'rates'
p911
S'rate'
p912
S'NNS'
p913
S'I-NP'
p914
g5
tp915
a(S'were'
p916
S'be'
p917
S'VBD'
p918
S'B-VP'
p919
g5
tp920
a(S'72.3'
p921
S'72.3'
p922
S'CD'
p923
S'B-NP'
p924
g5
tp925
a(g780
g780
S'NN'
p926
S'I-NP'
p927
g5
tp928
a(S'for'
p929
S'for'
p930
S'IN'
p931
S'B-PP'
p932
g5
tp933
a(S'the'
p934
S'the'
p935
S'DT'
p936
S'B-NP'
p937
g5
tp938
a(S'CCRT'
p939
S'CCRT'
p940
S'NN'
p941
S'I-NP'
p942
g5
tp943
a(S'arm'
p944
S'arm'
p945
S'NN'
p946
S'I-NP'
p947
g5
tp948
a(S'and'
p949
S'and'
p950
S'CC'
p951
g5
g5
tp952
a(S'54.2'
p953
S'54.2'
p954
S'CD'
p955
S'B-NP'
p956
g5
tp957
a(g780
g780
S'NN'
p958
S'I-NP'
p959
g5
tp960
a(S'for'
p961
S'for'
p962
S'IN'
p963
S'B-PP'
p964
g5
tp965
a(S'the'
p966
S'the'
p967
S'DT'
p968
S'B-NP'
p969
g5
tp970
a(S'RT-only'
p971
S'RT-only'
p972
S'JJ'
p973
S'I-NP'
p974
g5
tp975
a(S'arm'
p976
S'arm'
p977
S'NN'
p978
S'I-NP'
p979
g5
tp980
a(g121
g121
g121
g5
g5
tp981
a(S'P'
p982
g982
S'NN'
p983
S'B-NP'
p984
g5
tp985
a(S'=.0022'
p986
S'=.0022'
p987
S'NN'
p988
S'I-NP'
p989
g5
tp990
a(g129
g129
g129
g5
g5
tp991
a(g104
g104
g104
g5
g5
tp992
a(S'The'
p993
S'The'
p994
S'DT'
p995
S'B-NP'
p996
g5
tp997
a(S'5-year'
p998
S'5-year'
p999
S'JJ'
p1000
S'I-NP'
p1001
g5
tp1002
a(S'progression-free'
p1003
S'progression-free'
p1004
S'JJ'
p1005
S'I-NP'
p1006
g5
tp1007
a(S'survival'
p1008
S'survival'
p1009
S'NN'
p1010
S'I-NP'
p1011
g5
tp1012
a(S'rates'
p1013
S'rate'
p1014
S'NNS'
p1015
S'I-NP'
p1016
g5
tp1017
a(S'were'
p1018
S'be'
p1019
S'VBD'
p1020
S'B-VP'
p1021
g5
tp1022
a(S'71.6'
p1023
S'71.6'
p1024
S'CD'
p1025
S'B-NP'
p1026
g5
tp1027
a(g780
g780
S'NN'
p1028
S'I-NP'
p1029
g5
tp1030
a(S'for'
p1031
S'for'
p1032
S'IN'
p1033
S'B-PP'
p1034
g5
tp1035
a(S'the'
p1036
S'the'
p1037
S'DT'
p1038
S'B-NP'
p1039
g5
tp1040
a(S'CCRT'
p1041
S'CCRT'
p1042
S'NN'
p1043
S'I-NP'
p1044
g5
tp1045
a(S'group'
p1046
S'group'
p1047
S'NN'
p1048
S'I-NP'
p1049
g5
tp1050
a(S'compared'
p1051
S'compare'
p1052
S'VBN'
p1053
S'B-PP'
p1054
g5
tp1055
a(S'with'
p1056
S'with'
p1057
S'IN'
p1058
S'B-PP'
p1059
g5
tp1060
a(S'53.0'
p1061
S'53.0'
p1062
S'CD'
p1063
S'B-NP'
p1064
g5
tp1065
a(g780
g780
S'NN'
p1066
S'I-NP'
p1067
g5
tp1068
a(S'for'
p1069
S'for'
p1070
S'IN'
p1071
S'B-PP'
p1072
g5
tp1073
a(S'the'
p1074
S'the'
p1075
S'DT'
p1076
S'B-NP'
p1077
g5
tp1078
a(S'RT-only'
p1079
S'RT-only'
p1080
S'JJ'
p1081
S'I-NP'
p1082
g5
tp1083
a(S'group'
p1084
S'group'
p1085
S'NN'
p1086
S'I-NP'
p1087
g5
tp1088
a(g121
g121
g121
g5
g5
tp1089
a(g982
g982
S'NN'
p1090
S'B-NP'
p1091
g5
tp1092
a(S'=.0012'
p1093
S'=.0012'
p1094
S'NN'
p1095
S'I-NP'
p1096
g5
tp1097
a(g129
g129
g129
g5
g5
tp1098
a(g104
g104
g104
g5
g5
tp1099
a(S'Although'
p1100
S'Although'
p1101
S'IN'
p1102
S'B-PP'
p1103
g5
tp1104
a(S'significantly'
p1105
S'significantly'
p1106
S'RB'
p1107
S'B-NP'
p1108
g5
tp1109
a(S'more'
p1110
S'more'
p1111
S'JJR'
p1112
S'I-NP'
p1113
g5
tp1114
a(S'toxicity'
p1115
S'toxicity'
p1116
S'NN'
p1117
S'I-NP'
p1118
g5
tp1119
a(S'was'
p1120
S'be'
p1121
S'VBD'
p1122
S'B-VP'
p1123
g5
tp1124
a(S'noted'
p1125
S'note'
p1126
S'VBN'
p1127
S'I-VP'
p1128
g5
tp1129
a(S'in'
p1130
S'in'
p1131
S'IN'
p1132
S'B-PP'
p1133
g5
tp1134
a(S'the'
p1135
S'the'
p1136
S'DT'
p1137
S'B-NP'
p1138
g5
tp1139
a(S'CCRT'
p1140
S'CCRT'
p1141
S'NN'
p1142
S'I-NP'
p1143
S'B-DNA'
p1144
tp1145
a(S'arm'
p1146
S'arm'
p1147
S'NN'
p1148
S'I-NP'
p1149
S'I-DNA'
p1150
tp1151
a(g299
g299
g299
g5
g5
tp1152
a(S'including'
p1153
S'include'
p1154
S'VBG'
p1155
S'B-PP'
p1156
g5
tp1157
a(S'leukopenia'
p1158
S'leukopenia'
p1159
S'NN'
p1160
S'B-NP'
p1161
g5
tp1162
a(S'and'
p1163
S'and'
p1164
S'CC'
p1165
S'I-NP'
p1166
g5
tp1167
a(S'emesis'
p1168
S'emesis'
p1169
S'NN'
p1170
S'I-NP'
p1171
g5
tp1172
a(g299
g299
g299
g5
g5
tp1173
a(S'compliance'
p1174
S'compliance'
p1175
S'NN'
p1176
S'B-NP'
p1177
g5
tp1178
a(S'with'
p1179
S'with'
p1180
S'IN'
p1181
S'B-PP'
p1182
g5
tp1183
a(S'the'
p1184
S'the'
p1185
S'DT'
p1186
S'B-NP'
p1187
g5
tp1188
a(S'combined'
p1189
S'combined'
p1190
S'JJ'
p1191
S'I-NP'
p1192
g5
tp1193
a(S'treatment'
p1194
S'treatment'
p1195
S'NN'
p1196
S'I-NP'
p1197
g5
tp1198
a(S'was'
p1199
S'be'
p1200
S'VBD'
p1201
S'B-VP'
p1202
g5
tp1203
a(S'good.'
p1204
S'good.'
p1205
S'VBN'
p1206
S'I-VP'
p1207
g5
tp1208
a(S'The'
p1209
S'The'
p1210
S'DT'
p1211
S'B-NP'
p1212
g5
tp1213
a(S'second'
p1214
S'second'
p1215
S'JJ'
p1216
S'I-NP'
p1217
g5
tp1218
a(S'cycle'
p1219
S'cycle'
p1220
S'NN'
p1221
S'I-NP'
p1222
g5
tp1223
a(S'of'
p1224
S'of'
p1225
S'IN'
p1226
S'B-PP'
p1227
g5
tp1228
a(S'concurrent'
p1229
S'concurrent'
p1230
S'JJ'
p1231
S'B-NP'
p1232
g5
tp1233
a(S'chemotherapy'
p1234
S'chemotherapy'
p1235
S'NN'
p1236
S'I-NP'
p1237
g5
tp1238
a(S'was'
p1239
S'be'
p1240
S'VBD'
p1241
S'B-VP'
p1242
g5
tp1243
a(S'refused'
p1244
S'refuse'
p1245
S'VBN'
p1246
S'I-VP'
p1247
g5
tp1248
a(S'by'
p1249
S'by'
p1250
S'IN'
p1251
S'B-PP'
p1252
g5
tp1253
a(S'nine'
p1254
S'nine'
p1255
S'CD'
p1256
S'B-NP'
p1257
g5
tp1258
a(S'patients'
p1259
S'patient'
p1260
S'NNS'
p1261
S'I-NP'
p1262
g5
tp1263
a(S'and'
p1264
S'and'
p1265
S'CC'
p1266
g5
g5
tp1267
a(S'was'
p1268
S'be'
p1269
S'VBD'
p1270
S'B-VP'
p1271
g5
tp1272
a(S'delayed'
p1273
S'delay'
p1274
S'VBN'
p1275
S'I-VP'
p1276
g5
tp1277
a(S'for'
p1278
S'for'
p1279
S'IN'
p1280
S'B-PP'
p1281
g5
tp1282
a(S'>'
p1283
g1283
S'SYM'
p1284
S'B-NP'
p1285
g5
tp1286
a(S'or'
p1287
S'or'
p1288
S'CC'
p1289
g5
g5
tp1290
a(S'='
p1291
g1291
S'SYM'
p1292
S'B-VP'
p1293
g5
tp1294
a(g603
g603
S'CD'
p1295
S'B-NP'
p1296
g5
tp1297
a(S'week'
p1298
S'week'
p1299
S'NN'
p1300
S'I-NP'
p1301
g5
tp1302
a(S'for'
p1303
S'for'
p1304
S'IN'
p1305
S'B-PP'
p1306
g5
tp1307
a(S'another'
p1308
S'another'
p1309
S'DT'
p1310
S'B-NP'
p1311
g5
tp1312
a(S'nine'
p1313
S'nine'
p1314
S'CD'
p1315
S'I-NP'
p1316
g5
tp1317
a(S'patients.'
p1318
S'patients.'
p1319
S'NNS'
p1320
S'I-NP'
p1321
g5
tp1322
a(S'There'
p1323
S'There'
p1324
S'EX'
p1325
S'B-NP'
p1326
g5
tp1327
a(S'were'
p1328
S'be'
p1329
S'VBD'
p1330
S'B-VP'
p1331
g5
tp1332
a(S'no'
p1333
S'no'
p1334
S'DT'
p1335
S'B-NP'
p1336
g5
tp1337
a(S'treatment-related'
p1338
S'treatment-related'
p1339
S'JJ'
p1340
S'I-NP'
p1341
g5
tp1342
a(S'deaths'
p1343
S'death'
p1344
S'NNS'
p1345
S'I-NP'
p1346
g5
tp1347
a(S'in'
p1348
S'in'
p1349
S'IN'
p1350
S'B-PP'
p1351
g5
tp1352
a(S'either'
p1353
S'either'
p1354
S'DT'
p1355
S'B-NP'
p1356
g5
tp1357
a(S'arm'
p1358
S'arm'
p1359
S'NN'
p1360
S'I-NP'
p1361
g5
tp1362
a(g104
g104
g104
g5
g5
tp1363
a(S'CONCLUSION'
p1364
S'CONCLUSION'
p1365
S'NN'
p1366
S'B-NP'
p1367
g5
tp1368
a(S'We'
p1369
S'We'
p1370
S'PRP'
p1371
S'B-NP'
p1372
g5
tp1373
a(S'conclude'
p1374
S'conclude'
p1375
S'VBP'
p1376
S'B-VP'
p1377
g5
tp1378
a(S'that'
p1379
S'that'
p1380
S'IN'
p1381
S'B-SBAR'
p1382
g5
tp1383
a(S'CCRT'
p1384
S'CCRT'
p1385
S'NN'
p1386
S'B-NP'
p1387
S'B-protein'
p1388
tp1389
a(S'is'
p1390
S'be'
p1391
S'VBZ'
p1392
S'B-VP'
p1393
g5
tp1394
a(S'superior'
p1395
S'superior'
p1396
S'JJ'
p1397
S'B-ADJP'
p1398
g5
tp1399
a(S'to'
p1400
S'to'
p1401
S'TO'
p1402
S'B-PP'
p1403
g5
tp1404
a(S'RT'
p1405
S'RT'
p1406
S'NN'
p1407
S'B-NP'
p1408
g5
tp1409
a(S'alone'
p1410
S'alone'
p1411
S'RB'
p1412
S'B-ADVP'
p1413
g5
tp1414
a(S'for'
p1415
S'for'
p1416
S'IN'
p1417
S'B-PP'
p1418
g5
tp1419
a(S'patients'
p1420
S'patient'
p1421
S'NNS'
p1422
S'B-NP'
p1423
g5
tp1424
a(S'with'
p1425
S'with'
p1426
S'IN'
p1427
S'B-PP'
p1428
g5
tp1429
a(S'advanced'
p1430
S'advance'
p1431
S'VBN'
p1432
S'B-NP'
p1433
g5
tp1434
a(S'NPC'
p1435
S'NPC'
p1436
S'NN'
p1437
S'I-NP'
p1438
S'B-protein'
p1439
tp1440
a(S'in'
p1441
S'in'
p1442
S'IN'
p1443
S'B-PP'
p1444
g5
tp1445
a(S'endemic'
p1446
S'endemic'
p1447
S'JJ'
p1448
S'B-NP'
p1449
g5
tp1450
a(S'areas'
p1451
S'area'
p1452
S'NNS'
p1453
S'I-NP'
p1454
g5
tp1455
a(g104
g104
g104
g5
g5
tp1456
a.