(lp0
(S'A'
p1
g1
S'DT'
p2
S'B-NP'
p3
S'O'
p4
tp5
a(S'randomised'
p6
S'randomise'
p7
S'VBN'
p8
S'I-NP'
p9
g4
tp10
a(S'controlled'
p11
S'control'
p12
S'VBN'
p13
S'I-NP'
p14
g4
tp15
a(S'trial'
p16
S'trial'
p17
S'NN'
p18
S'I-NP'
p19
g4
tp20
a(S'of'
p21
S'of'
p22
S'IN'
p23
S'B-PP'
p24
g4
tp25
a(S'personalised'
p26
S'personalised'
p27
S'JJ'
p28
S'B-NP'
p29
g4
tp30
a(S'decision'
p31
S'decision'
p32
S'NN'
p33
S'I-NP'
p34
g4
tp35
a(S'support'
p36
S'support'
p37
S'NN'
p38
S'I-NP'
p39
g4
tp40
a(S'delivered'
p41
S'deliver'
p42
S'VBN'
p43
S'B-VP'
p44
g4
tp45
a(S'via'
p46
S'via'
p47
S'IN'
p48
S'B-PP'
p49
g4
tp50
a(S'the'
p51
S'the'
p52
S'DT'
p53
S'B-NP'
p54
g4
tp55
a(S'internet'
p56
S'internet'
p57
S'NN'
p58
S'I-NP'
p59
g4
tp60
a(S'for'
p61
S'for'
p62
S'IN'
p63
S'B-PP'
p64
g4
tp65
a(S'bowel'
p66
S'bowel'
p67
S'NN'
p68
S'B-NP'
p69
g4
tp70
a(S'cancer'
p71
S'cancer'
p72
S'NN'
p73
S'I-NP'
p74
g4
tp75
a(S'screening'
p76
S'screening'
p77
S'NN'
p78
S'I-NP'
p79
g4
tp80
a(S'with'
p81
S'with'
p82
S'IN'
p83
S'B-PP'
p84
g4
tp85
a(S'a'
p86
g86
S'DT'
p87
S'B-NP'
p88
g4
tp89
a(S'faecal'
p90
S'faecal'
p91
S'JJ'
p92
S'I-NP'
p93
g4
tp94
a(S'occult'
p95
S'occult'
p96
S'JJ'
p97
S'I-NP'
p98
g4
tp99
a(S'blood'
p100
S'blood'
p101
S'NN'
p102
S'I-NP'
p103
g4
tp104
a(S'test'
p105
S'test'
p106
S'NN'
p107
S'I-NP'
p108
g4
tp109
a(S':'
p110
g110
g110
g4
g4
tp111
a(S'the'
p112
S'the'
p113
S'DT'
p114
S'B-NP'
p115
g4
tp116
a(S'effects'
p117
S'effect'
p118
S'NNS'
p119
S'I-NP'
p120
g4
tp121
a(S'of'
p122
S'of'
p123
S'IN'
p124
S'B-PP'
p125
g4
tp126
a(S'tailoring'
p127
S'tailor'
p128
S'VBG'
p129
S'B-NP'
p130
g4
tp131
a(S'of'
p132
S'of'
p133
S'IN'
p134
S'B-PP'
p135
g4
tp136
a(S'messages'
p137
S'message'
p138
S'NNS'
p139
S'B-NP'
p140
g4
tp141
a(S'according'
p142
S'accord'
p143
S'VBG'
p144
S'B-PP'
p145
g4
tp146
a(S'to'
p147
S'to'
p148
S'TO'
p149
S'B-PP'
p150
g4
tp151
a(S'social'
p152
S'social'
p153
S'JJ'
p154
S'B-NP'
p155
g4
tp156
a(S'cognitive'
p157
S'cognitive'
p158
S'JJ'
p159
S'I-NP'
p160
g4
tp161
a(S'variables'
p162
S'variable'
p163
S'NNS'
p164
S'I-NP'
p165
g4
tp166
a(S'on'
p167
S'on'
p168
S'IN'
p169
S'B-PP'
p170
g4
tp171
a(S'participation'
p172
S'participation'
p173
S'NN'
p174
S'B-NP'
p175
g4
tp176
a(S'.'
p177
g177
g177
g4
g4
tp178
a(S'BACKGROUND'
p179
S'BACKGROUND'
p180
S'NN'
p181
S'B-NP'
p182
g4
tp183
a(S'In'
p184
S'In'
p185
S'IN'
p186
S'B-PP'
p187
g4
tp188
a(S'Australia'
p189
S'Australia'
p190
S'NNP'
p191
S'B-NP'
p192
g4
tp193
a(S','
p194
g194
g194
g4
g4
tp195
a(S'bowel'
p196
S'bowel'
p197
S'NN'
p198
S'B-NP'
p199
g4
tp200
a(S'cancer'
p201
S'cancer'
p202
S'NN'
p203
S'I-NP'
p204
g4
tp205
a(S'screening'
p206
S'screening'
p207
S'NN'
p208
S'I-NP'
p209
g4
tp210
a(S'participation'
p211
S'participation'
p212
S'NN'
p213
S'I-NP'
p214
g4
tp215
a(S'using'
p216
S'use'
p217
S'VBG'
p218
S'B-VP'
p219
g4
tp220
a(S'faecal'
p221
S'faecal'
p222
S'JJ'
p223
S'B-NP'
p224
g4
tp225
a(S'occult'
p226
S'occult'
p227
S'JJ'
p228
S'I-NP'
p229
g4
tp230
a(S'blood'
p231
S'blood'
p232
S'NN'
p233
S'I-NP'
p234
g4
tp235
a(S'testing'
p236
S'testing'
p237
S'NN'
p238
S'I-NP'
p239
g4
tp240
a(S'('
p241
g241
g241
g4
g4
tp242
a(S'FOBT'
p243
S'FOBT'
p244
S'NN'
p245
S'B-NP'
p246
g4
tp247
a(S')'
p248
g248
g248
g4
g4
tp249
a(S'is'
p250
S'be'
p251
S'VBZ'
p252
S'B-VP'
p253
g4
tp254
a(S'low.'
p255
S'low.'
p256
S'JJ'
p257
S'B-NP'
p258
g4
tp259
a(S'Decision'
p260
S'Decision'
p261
S'NNP'
p262
S'I-NP'
p263
g4
tp264
a(S'support'
p265
S'support'
p266
S'NN'
p267
S'I-NP'
p268
g4
tp269
a(S'tailored'
p270
S'tailor'
p271
S'VBD'
p272
S'B-VP'
p273
g4
tp274
a(S'to'
p275
S'to'
p276
S'TO'
p277
S'B-PP'
p278
g4
tp279
a(S'psychological'
p280
S'psychological'
p281
S'JJ'
p282
S'B-NP'
p283
g4
tp284
a(S'predictors'
p285
S'predictor'
p286
S'NNS'
p287
S'I-NP'
p288
g4
tp289
a(S'of'
p290
S'of'
p291
S'IN'
p292
S'B-PP'
p293
g4
tp294
a(S'participation'
p295
S'participation'
p296
S'NN'
p297
S'B-NP'
p298
g4
tp299
a(S'may'
p300
S'may'
p301
S'MD'
p302
S'B-VP'
p303
g4
tp304
a(S'increase'
p305
S'increase'
p306
S'VB'
p307
S'I-VP'
p308
g4
tp309
a(S'screening.'
p310
S'screening.'
p311
S'VB'
p312
S'I-VP'
p313
g4
tp314
a(S'The'
p315
S'The'
p316
S'DT'
p317
S'B-NP'
p318
g4
tp319
a(S'study'
p320
S'study'
p321
S'NN'
p322
S'I-NP'
p323
g4
tp324
a(S'compared'
p325
S'compare'
p326
S'VBD'
p327
S'B-VP'
p328
g4
tp329
a(S'tailored'
p330
S'tailor'
p331
S'VBN'
p332
S'I-VP'
p333
g4
tp334
a(S'computerised'
p335
S'computerise'
p336
S'VBN'
p337
S'B-NP'
p338
g4
tp339
a(S'decision'
p340
S'decision'
p341
S'NN'
p342
S'I-NP'
p343
g4
tp344
a(S'support'
p345
S'support'
p346
S'NN'
p347
S'I-NP'
p348
g4
tp349
a(S'to'
p350
S'to'
p351
S'TO'
p352
S'B-PP'
p353
g4
tp354
a(S'non-tailored'
p355
S'non-tailored'
p356
S'JJ'
p357
S'B-NP'
p358
g4
tp359
a(S'computer'
p360
S'computer'
p361
S'NN'
p362
S'I-NP'
p363
g4
tp364
a(S'or'
p365
S'or'
p366
S'CC'
p367
S'I-NP'
p368
g4
tp369
a(S'paper'
p370
S'paper'
p371
S'NN'
p372
S'I-NP'
p373
g4
tp374
a(S'information.'
p375
S'information.'
p376
S'VBP'
p377
S'B-VP'
p378
g4
tp379
a(S'The'
p380
S'The'
p381
S'DT'
p382
S'B-NP'
p383
g4
tp384
a(S'primary'
p385
S'primary'
p386
S'JJ'
p387
S'I-NP'
p388
g4
tp389
a(S'outcome'
p390
S'outcome'
p391
S'NN'
p392
S'I-NP'
p393
g4
tp394
a(S'was'
p395
S'be'
p396
S'VBD'
p397
S'B-VP'
p398
g4
tp399
a(S'FOBT'
p400
S'FOBT'
p401
S'NN'
p402
S'B-NP'
p403
g4
tp404
a(S'return'
p405
S'return'
p406
S'NN'
p407
S'I-NP'
p408
g4
tp409
a(S'within'
p410
S'within'
p411
S'IN'
p412
S'B-PP'
p413
g4
tp414
a(S'12\xc2\xa0weeks.'
p415
S'12\xc2\xa0weeks.'
p416
S'CD'
p417
S'B-NP'
p418
g4
tp419
a(S'Additional'
p420
S'Additional'
p421
S'JJ'
p422
S'I-NP'
p423
g4
tp424
a(S'analyses'
p425
S'analysis'
p426
S'NNS'
p427
S'I-NP'
p428
g4
tp429
a(S'were'
p430
S'be'
p431
S'VBD'
p432
S'B-VP'
p433
g4
tp434
a(S'conducted'
p435
S'conduct'
p436
S'VBN'
p437
S'I-VP'
p438
g4
tp439
a(S'on'
p440
S'on'
p441
S'IN'
p442
S'B-PP'
p443
g4
tp444
a(S'movement'
p445
S'movement'
p446
S'NN'
p447
S'B-NP'
p448
g4
tp449
a(S'in'
p450
S'in'
p451
S'IN'
p452
S'B-PP'
p453
g4
tp454
a(S'decision'
p455
S'decision'
p456
S'NN'
p457
S'B-NP'
p458
g4
tp459
a(S'to'
p460
S'to'
p461
S'TO'
p462
S'B-VP'
p463
g4
tp464
a(S'screen'
p465
S'screen'
p466
S'VB'
p467
S'I-VP'
p468
g4
tp469
a(S'and'
p470
S'and'
p471
S'CC'
p472
S'I-VP'
p473
g4
tp474
a(S'change'
p475
S'change'
p476
S'VB'
p477
S'I-VP'
p478
g4
tp479
a(S'on'
p480
S'on'
p481
S'IN'
p482
S'B-PP'
p483
g4
tp484
a(S'psychological'
p485
S'psychological'
p486
S'JJ'
p487
S'B-NP'
p488
g4
tp489
a(S'variables'
p490
S'variable'
p491
S'NNS'
p492
S'I-NP'
p493
g4
tp494
a(g177
g177
g177
g4
g4
tp495
a(S'METHODS'
p496
S'METHODS'
p497
S'NNS'
p498
S'B-NP'
p499
g4
tp500
a(g1
g1
S'DT'
p501
S'B-NP'
p502
g4
tp503
a(S'parallel'
p504
S'parallel'
p505
S'NN'
p506
S'I-NP'
p507
g4
tp508
a(g194
g194
g194
g4
g4
tp509
a(S'randomised'
p510
S'randomise'
p511
S'VBD'
p512
S'B-VP'
p513
g4
tp514
a(S'controlled'
p515
S'control'
p516
S'VBN'
p517
S'I-VP'
p518
g4
tp519
a(g194
g194
g194
g4
g4
tp520
a(S'trial'
p521
S'trial'
p522
S'NN'
p523
S'B-NP'
p524
g4
tp525
a(S'invited'
p526
S'invite'
p527
S'VBD'
p528
S'B-VP'
p529
g4
tp530
a(S'25'
p531
S'25'
p532
S'CD'
p533
S'B-NP'
p534
g4
tp535
a(g194
g194
g194
g4
g4
tp536
a(S'511'
p537
S'511'
p538
S'CD'
p539
S'B-NP'
p540
g4
tp541
a(S'people'
p542
S'people'
p543
S'NNS'
p544
S'I-NP'
p545
g4
tp546
a(S'aged'
p547
S'age'
p548
S'VBN'
p549
S'B-VP'
p550
g4
tp551
a(S'50-74'
p552
S'50-74'
p553
S'CD'
p554
S'B-NP'
p555
g4
tp556
a(S'years'
p557
S'year'
p558
S'NNS'
p559
S'I-NP'
p560
g4
tp561
a(S'to'
p562
S'to'
p563
S'TO'
p564
S'B-VP'
p565
g4
tp566
a(S'complete'
p567
S'complete'
p568
S'VB'
p569
S'I-VP'
p570
g4
tp571
a(S'an'
p572
S'an'
p573
S'DT'
p574
S'B-NP'
p575
g4
tp576
a(S'eligibility'
p577
S'eligibility'
p578
S'NN'
p579
S'I-NP'
p580
g4
tp581
a(S'questionnaire.'
p582
S'questionnaire.'
p583
S'VB'
p584
S'B-VP'
p585
g4
tp586
a(S'Eligible'
p587
S'Eligible'
p588
S'JJ'
p589
S'B-NP'
p590
g4
tp591
a(S'respondents'
p592
S'respondent'
p593
S'NNS'
p594
S'I-NP'
p595
g4
tp596
a(g241
g241
g241
g4
g4
tp597
a(S'n\xe2\x80\x89=\xe2\x80\x893'
p598
S'n\xe2\x80\x89=\xe2\x80\x893'
p599
S'NN'
p600
S'B-NP'
p601
g4
tp602
a(g194
g194
g194
g4
g4
tp603
a(S'408'
p604
S'408'
p605
S'CD'
p606
S'B-NP'
p607
g4
tp608
a(g248
g248
g248
g4
g4
tp609
a(S'were'
p610
S'be'
p611
S'VBD'
p612
S'B-VP'
p613
g4
tp614
a(S'assigned'
p615
S'assign'
p616
S'VBN'
p617
S'I-VP'
p618
g4
tp619
a(S'to'
p620
S'to'
p621
S'TO'
p622
S'B-PP'
p623
g4
tp624
a(S'Tailored'
p625
S'Tailored'
p626
S'NNP'
p627
S'B-NP'
p628
g4
tp629
a(S'Personalised'
p630
S'Personalised'
p631
S'NNP'
p632
S'I-NP'
p633
g4
tp634
a(S'Decision'
p635
S'Decision'
p636
S'NNP'
p637
S'I-NP'
p638
g4
tp639
a(S'Support'
p640
S'Support'
p641
S'NNP'
p642
S'I-NP'
p643
g4
tp644
a(g241
g241
g241
g4
g4
tp645
a(S'TPDS'
p646
S'TPDS'
p647
S'NN'
p648
S'B-NP'
p649
S'B-protein'
p650
tp651
a(g248
g248
g248
g4
g4
tp652
a(g194
g194
g194
g4
g4
tp653
a(S'Non-Tailored'
p654
S'Non-Tailored'
p655
S'JJ'
p656
S'B-NP'
p657
g4
tp658
a(S'PDS'
p659
S'PDS'
p660
S'NN'
p661
S'I-NP'
p662
g4
tp663
a(g241
g241
g241
g4
g4
tp664
a(S'NTPDS'
p665
S'NTPDS'
p666
S'NN'
p667
S'B-NP'
p668
S'B-protein'
p669
tp670
a(g248
g248
g248
g4
g4
tp671
a(g194
g194
g194
g4
g4
tp672
a(S'or'
p673
S'or'
p674
S'CC'
p675
g4
g4
tp676
a(S'Control'
p677
S'Control'
p678
S'NN'
p679
S'B-NP'
p680
g4
tp681
a(g241
g241
g241
g4
g4
tp682
a(S'CG'
p683
S'CG'
p684
S'NN'
p685
S'B-NP'
p686
g4
tp687
a(g248
g248
g248
g4
g4
tp688
a(g241
g241
g241
g4
g4
tp689
a(S'intention-to-treat'
p690
S'intention-to-treat'
p691
S'JJ'
p692
S'B-NP'
p693
g4
tp694
a(g194
g194
g194
S'I-NP'
p695
g4
tp696
a(S'ITT'
p697
S'ITT'
p698
S'JJ'
p699
S'I-NP'
p700
g4
tp701
a(S'sample'
p702
S'sample'
p703
S'NN'
p704
S'I-NP'
p705
g4
tp706
a(g248
g248
g248
g4
g4
tp707
a(g177
g177
g177
g4
g4
tp708
a(S'TPDS'
p709
S'TPDS'
p710
S'NN'
p711
S'B-NP'
p712
S'B-protein'
p713
tp714
a(S'and'
p715
S'and'
p716
S'CC'
p717
S'I-NP'
p718
g4
tp719
a(S'NTPDS'
p720
S'NTPDS'
p721
S'NN'
p722
S'I-NP'
p723
g4
tp724
a(S'groups'
p725
S'group'
p726
S'NNS'
p727
S'I-NP'
p728
g4
tp729
a(S'completed'
p730
S'complete'
p731
S'VBD'
p732
S'B-VP'
p733
g4
tp734
a(S'an'
p735
S'an'
p736
S'DT'
p737
S'B-NP'
p738
g4
tp739
a(S'on-line'
p740
S'on-line'
p741
S'JJ'
p742
S'I-NP'
p743
g4
tp744
a(S'baseline'
p745
S'baseline'
p746
S'NN'
p747
S'I-NP'
p748
g4
tp749
a(S'survey'
p750
S'survey'
p751
S'NN'
p752
S'I-NP'
p753
g4
tp754
a(g241
g241
g241
g4
g4
tp755
a(S'BS'
p756
S'BS'
p757
S'NN'
p758
S'B-NP'
p759
g4
tp760
a(g248
g248
g248
g4
g4
tp761
a(S'and'
p762
S'and'
p763
S'CC'
p764
g4
g4
tp765
a(S'accessed'
p766
S'access'
p767
S'VBD'
p768
S'B-VP'
p769
g4
tp770
a(S'generic'
p771
S'generic'
p772
S'JJ'
p773
S'B-NP'
p774
g4
tp775
a(S'information.'
p776
S'information.'
p777
S'NN'
p778
S'I-NP'
p779
g4
tp780
a(S'The'
p781
S'The'
p782
S'DT'
p783
S'B-NP'
p784
g4
tp785
a(S'TPDS'
p786
S'TPDS'
p787
S'NN'
p788
S'I-NP'
p789
g4
tp790
a(S'group'
p791
S'group'
p792
S'NN'
p793
S'I-NP'
p794
g4
tp795
a(S'additionally'
p796
S'additionally'
p797
S'RB'
p798
S'B-ADVP'
p799
g4
tp800
a(S'received'
p801
S'receive'
p802
S'VBD'
p803
S'B-VP'
p804
g4
tp805
a(g86
g86
S'DT'
p806
S'B-NP'
p807
g4
tp808
a(S'tailored'
p809
S'tailor'
p810
S'VBN'
p811
S'I-NP'
p812
g4
tp813
a(S'intervention.'
p814
S'intervention.'
p815
S'NN'
p816
S'I-NP'
p817
g4
tp818
a(S'CG'
p819
S'CG'
p820
S'NN'
p821
S'I-NP'
p822
g4
tp823
a(S'participants'
p824
S'participant'
p825
S'NNS'
p826
S'I-NP'
p827
g4
tp828
a(S'completed'
p829
S'complete'
p830
S'VBD'
p831
S'B-VP'
p832
g4
tp833
a(g86
g86
S'DT'
p834
S'B-NP'
p835
g4
tp836
a(S'paper'
p837
S'paper'
p838
S'NN'
p839
S'I-NP'
p840
g4
tp841
a(S'BS'
p842
S'BS'
p843
S'NNP'
p844
S'B-NP'
p845
g4
tp846
a(S'only.'
p847
S'only.'
p848
S'IN'
p849
S'B-PP'
p850
g4
tp851
a(S'Those'
p852
S'Those'
p853
S'DT'
p854
S'B-NP'
p855
g4
tp856
a(S'completing'
p857
S'complete'
p858
S'VBG'
p859
S'B-VP'
p860
g4
tp861
a(S'the'
p862
S'the'
p863
S'DT'
p864
S'B-NP'
p865
g4
tp866
a(S'BS'
p867
S'BS'
p868
S'NN'
p869
S'I-NP'
p870
g4
tp871
a(g241
g241
g241
g4
g4
tp872
a(S'n\xe2\x80\x89=\xe2\x80\x892270'
p873
S'n\xe2\x80\x89=\xe2\x80\x892270'
p874
S'NN'
p875
S'B-NP'
p876
g4
tp877
a(g248
g248
g248
g4
g4
tp878
a(S'were'
p879
S'be'
p880
S'VBD'
p881
S'B-VP'
p882
g4
tp883
a(S'mailed'
p884
S'mail'
p885
S'VBN'
p886
S'I-VP'
p887
g4
tp888
a(S'an'
p889
S'an'
p890
S'DT'
p891
S'B-NP'
p892
g4
tp893
a(S'FOBT'
p894
S'FOBT'
p895
S'NN'
p896
S'I-NP'
p897
g4
tp898
a(S'and'
p899
S'and'
p900
S'CC'
p901
g4
g4
tp902
a(S'requested'
p903
S'request'
p904
S'VBN'
p905
S'B-VP'
p906
g4
tp907
a(S'to'
p908
S'to'
p909
S'TO'
p910
S'B-VP'
p911
g4
tp912
a(S'complete'
p913
S'complete'
p914
S'VB'
p915
S'I-VP'
p916
g4
tp917
a(S'an'
p918
S'an'
p919
S'DT'
p920
S'B-NP'
p921
g4
tp922
a(S'endpoint'
p923
S'endpoint'
p924
S'NN'
p925
S'I-NP'
p926
g4
tp927
a(S'survey'
p928
S'survey'
p929
S'NN'
p930
S'I-NP'
p931
g4
tp932
a(g241
g241
g241
g4
g4
tp933
a(S'ES'
p934
S'ES'
p935
S'NN'
p936
S'B-NP'
p937
g4
tp938
a(g248
g248
g248
g4
g4
tp939
a(S'that'
p940
S'that'
p941
S'WDT'
p942
S'B-NP'
p943
g4
tp944
a(S're-measured'
p945
S're-measure'
p946
S'VBD'
p947
S'B-VP'
p948
g4
tp949
a(S'BS'
p950
S'BS'
p951
S'NN'
p952
S'B-NP'
p953
g4
tp954
a(S'variables'
p955
S'variable'
p956
S'NNS'
p957
S'I-NP'
p958
g4
tp959
a(g241
g241
g241
g4
g4
tp960
a(S'per-protocol'
p961
S'per-protocol'
p962
S'NN'
p963
S'B-NP'
p964
g4
tp965
a(g194
g194
g194
g4
g4
tp966
a(S'PP'
p967
S'PP'
p968
S'NN'
p969
S'B-NP'
p970
g4
tp971
a(S'sample'
p972
S'sample'
p973
S'NN'
p974
S'I-NP'
p975
g4
tp976
a(g248
g248
g248
g4
g4
tp977
a(g177
g177
g177
g4
g4
tp978
a(S'RESULTS'
p979
S'RESULTS'
p980
S'NNS'
p981
S'B-NP'
p982
g4
tp983
a(S'FOBT'
p984
S'FOBT'
p985
S'NN'
p986
S'I-NP'
p987
g4
tp988
a(S'return'
p989
S'return'
p990
S'NN'
p991
S'I-NP'
p992
g4
tp993
a(g110
g110
g110
g4
g4
tp994
a(S'In'
p995
S'In'
p996
S'IN'
p997
S'B-PP'
p998
g4
tp999
a(S'the'
p1000
S'the'
p1001
S'DT'
p1002
S'B-NP'
p1003
g4
tp1004
a(S'ITT'
p1005
S'ITT'
p1006
S'NNP'
p1007
S'I-NP'
p1008
g4
tp1009
a(S'sample'
p1010
S'sample'
p1011
S'NN'
p1012
S'I-NP'
p1013
g4
tp1014
a(g194
g194
g194
g4
g4
tp1015
a(S'there'
p1016
S'there'
p1017
S'EX'
p1018
S'B-NP'
p1019
g4
tp1020
a(S'was'
p1021
S'be'
p1022
S'VBD'
p1023
S'B-VP'
p1024
g4
tp1025
a(S'no'
p1026
S'no'
p1027
S'DT'
p1028
S'B-NP'
p1029
g4
tp1030
a(S'significant'
p1031
S'significant'
p1032
S'JJ'
p1033
S'I-NP'
p1034
g4
tp1035
a(S'difference'
p1036
S'difference'
p1037
S'NN'
p1038
S'I-NP'
p1039
g4
tp1040
a(S'between'
p1041
S'between'
p1042
S'IN'
p1043
S'B-PP'
p1044
g4
tp1045
a(S'any'
p1046
S'any'
p1047
S'DT'
p1048
S'B-NP'
p1049
g4
tp1050
a(S'group'
p1051
S'group'
p1052
S'NN'
p1053
S'I-NP'
p1054
g4
tp1055
a(g241
g241
g241
g4
g4
tp1056
a(S'\xcf\x87'
p1057
S'\xcf\x87'
p1058
S'NN'
p1059
S'B-NP'
p1060
g4
tp1061
a(g241
g241
g241
g4
g4
tp1062
a(S'2'
p1063
g1063
S'CD'
p1064
S'B-NP'
p1065
g4
tp1066
a(g248
g248
g248
g4
g4
tp1067
a(g241
g241
g241
g4
g4
tp1068
a(g1063
g1063
S'CD'
p1069
S'B-NP'
p1070
g4
tp1071
a(g248
g248
g248
g4
g4
tp1072
a(S'\xe2\x80\x89=\xe2\x80\x892.57'
p1073
S'\xe2\x80\x89=\xe2\x80\x892.57'
p1074
S'CD'
p1075
S'B-NP'
p1076
g4
tp1077
a(g194
g194
g194
g4
g4
tp1078
a(S'p\xe2\x80\x89=\xe2\x80\x89.26'
p1079
S'p\xe2\x80\x89=\xe2\x80\x89.26'
p1080
S'NN'
p1081
S'B-NP'
p1082
g4
tp1083
a(S';'
p1084
g1084
g110
g4
g4
tp1085
a(S'TPDS'
p1086
S'TPDS'
p1087
S'NN'
p1088
S'B-NP'
p1089
g4
tp1090
a(g194
g194
g194
g4
g4
tp1091
a(S'32.5'
p1092
S'32.5'
p1093
S'CD'
p1094
S'B-NP'
p1095
g4
tp1096
a(S'%'
p1097
g1097
S'NN'
p1098
S'I-NP'
p1099
g4
tp1100
a(g1084
g1084
g110
g4
g4
tp1101
a(S'NTPDS'
p1102
S'NTPDS'
p1103
S'NN'
p1104
S'B-NP'
p1105
g4
tp1106
a(g194
g194
g194
g4
g4
tp1107
a(S'33'
p1108
S'33'
p1109
S'CD'
p1110
S'B-NP'
p1111
g4
tp1112
a(g1097
g1097
S'NN'
p1113
S'I-NP'
p1114
g4
tp1115
a(g1084
g1084
g110
g4
g4
tp1116
a(S'and'
p1117
S'and'
p1118
S'CC'
p1119
g4
g4
tp1120
a(S'CG'
p1121
S'CG'
p1122
S'NN'
p1123
S'B-NP'
p1124
g4
tp1125
a(g194
g194
g194
g4
g4
tp1126
a(S'34.5'
p1127
S'34.5'
p1128
S'CD'
p1129
S'B-NP'
p1130
g4
tp1131
a(g1097
g1097
S'NN'
p1132
S'I-NP'
p1133
g4
tp1134
a(g248
g248
g248
g4
g4
tp1135
a(g177
g177
g177
g4
g4
tp1136
a(S'In'
p1137
S'In'
p1138
S'IN'
p1139
S'B-PP'
p1140
g4
tp1141
a(S'the'
p1142
S'the'
p1143
S'DT'
p1144
S'B-NP'
p1145
g4
tp1146
a(S'PP'
p1147
S'PP'
p1148
S'NN'
p1149
S'I-NP'
p1150
g4
tp1151
a(S'sample'
p1152
S'sample'
p1153
S'NN'
p1154
S'I-NP'
p1155
g4
tp1156
a(g194
g194
g194
g4
g4
tp1157
a(S'FOBT'
p1158
S'FOBT'
p1159
S'NN'
p1160
S'B-NP'
p1161
g4
tp1162
a(S'return'
p1163
S'return'
p1164
S'NN'
p1165
S'I-NP'
p1166
g4
tp1167
a(S'in'
p1168
S'in'
p1169
S'IN'
p1170
S'B-PP'
p1171
g4
tp1172
a(S'the'
p1173
S'the'
p1174
S'DT'
p1175
S'B-NP'
p1176
g4
tp1177
a(S'internet'
p1178
S'internet'
p1179
S'NN'
p1180
S'I-NP'
p1181
g4
tp1182
a(S'groups'
p1183
S'group'
p1184
S'NNS'
p1185
S'I-NP'
p1186
g4
tp1187
a(S'was'
p1188
S'be'
p1189
S'VBD'
p1190
S'B-VP'
p1191
g4
tp1192
a(S'significantly'
p1193
S'significantly'
p1194
S'RB'
p1195
S'B-ADJP'
p1196
g4
tp1197
a(S'higher'
p1198
S'high'
p1199
S'JJR'
p1200
S'I-ADJP'
p1201
g4
tp1202
a(S'than'
p1203
S'than'
p1204
S'IN'
p1205
S'B-PP'
p1206
g4
tp1207
a(S'the'
p1208
S'the'
p1209
S'DT'
p1210
S'B-NP'
p1211
g4
tp1212
a(S'paper'
p1213
S'paper'
p1214
S'NN'
p1215
S'I-NP'
p1216
g4
tp1217
a(S'group'
p1218
S'group'
p1219
S'NN'
p1220
S'I-NP'
p1221
g4
tp1222
a(g241
g241
g241
g4
g4
tp1223
a(S'\xcf\x87'
p1224
S'\xcf\x87'
p1225
S'NN'
p1226
S'B-NP'
p1227
g4
tp1228
a(g241
g241
g241
g4
g4
tp1229
a(g1063
g1063
S'CD'
p1230
S'B-NP'
p1231
g4
tp1232
a(g248
g248
g248
g4
g4
tp1233
a(g241
g241
g241
g4
g4
tp1234
a(g1063
g1063
S'CD'
p1235
S'B-NP'
p1236
g4
tp1237
a(g248
g248
g248
g4
g4
tp1238
a(S'\xe2\x80\x89=\xe2\x80\x8917.01'
p1239
S'\xe2\x80\x89=\xe2\x80\x8917.01'
p1240
S'CD'
p1241
S'B-NP'
p1242
g4
tp1243
a(g194
g194
g194
g4
g4
tp1244
a(S'p\xe2\x80\x89'
p1245
S'p\xe2\x80\x89'
p1246
S'NN'
p1247
S'B-NP'
p1248
g4
tp1249
a(S'<'
p1250
g1250
S'SYM'
p1251
g4
g4
tp1252
a(S'\xe2\x80\x89.001'
p1253
S'\xe2\x80\x89.001'
p1254
S'CD'
p1255
S'B-NP'
p1256
g4
tp1257
a(g1084
g1084
g110
g4
g4
tp1258
a(S'TPDS'
p1259
S'TPDS'
p1260
S'NN'
p1261
S'B-NP'
p1262
g4
tp1263
a(g194
g194
g194
g4
g4
tp1264
a(S'80'
p1265
S'80'
p1266
S'CD'
p1267
S'B-NP'
p1268
g4
tp1269
a(g1097
g1097
S'NN'
p1270
S'I-NP'
p1271
g4
tp1272
a(g1084
g1084
g110
g4
g4
tp1273
a(S'NTPDS'
p1274
S'NTPDS'
p1275
S'NN'
p1276
S'B-NP'
p1277
g4
tp1278
a(g194
g194
g194
g4
g4
tp1279
a(S'83'
p1280
S'83'
p1281
S'CD'
p1282
S'B-NP'
p1283
g4
tp1284
a(g1097
g1097
S'NN'
p1285
S'I-NP'
p1286
g4
tp1287
a(g1084
g1084
g110
g4
g4
tp1288
a(S'and'
p1289
S'and'
p1290
S'CC'
p1291
g4
g4
tp1292
a(S'CG'
p1293
S'CG'
p1294
S'NN'
p1295
S'B-NP'
p1296
g4
tp1297
a(g194
g194
g194
g4
g4
tp1298
a(S'74'
p1299
S'74'
p1300
S'CD'
p1301
S'B-NP'
p1302
g4
tp1303
a(g1097
g1097
S'NN'
p1304
S'I-NP'
p1305
g4
tp1306
a(g248
g248
g248
g4
g4
tp1307
a(g177
g177
g177
g4
g4
tp1308
a(S'FOBT'
p1309
S'FOBT'
p1310
S'NN'
p1311
S'B-NP'
p1312
g4
tp1313
a(S'completion'
p1314
S'completion'
p1315
S'NN'
p1316
S'I-NP'
p1317
g4
tp1318
a(S'by'
p1319
S'by'
p1320
S'IN'
p1321
S'B-PP'
p1322
g4
tp1323
a(S'TPDS'
p1324
S'TPDS'
p1325
S'NN'
p1326
S'B-NP'
p1327
S'B-protein'
p1328
tp1329
a(S'and'
p1330
S'and'
p1331
S'CC'
p1332
S'I-NP'
p1333
g4
tp1334
a(S'NTPDS'
p1335
S'NTPDS'
p1336
S'NN'
p1337
S'I-NP'
p1338
S'B-protein'
p1339
tp1340
a(S'did'
p1341
S'do'
p1342
S'VBD'
p1343
S'B-VP'
p1344
g4
tp1345
a(S'not'
p1346
S'not'
p1347
S'RB'
p1348
S'I-VP'
p1349
g4
tp1350
a(S'differ'
p1351
S'differ'
p1352
S'VB'
p1353
S'I-VP'
p1354
g4
tp1355
a(g241
g241
g241
g4
g4
tp1356
a(S'\xcf\x87'
p1357
S'\xcf\x87'
p1358
S'NN'
p1359
S'B-NP'
p1360
g4
tp1361
a(g241
g241
g241
g4
g4
tp1362
a(g1063
g1063
S'CD'
p1363
S'B-NP'
p1364
g4
tp1365
a(g248
g248
g248
g4
g4
tp1366
a(g241
g241
g241
g4
g4
tp1367
a(S'1'
p1368
g1368
S'CD'
p1369
S'B-NP'
p1370
g4
tp1371
a(g248
g248
g248
g4
g4
tp1372
a(S'\xe2\x80\x89=\xe2\x80\x892.23'
p1373
S'\xe2\x80\x89=\xe2\x80\x892.23'
p1374
S'CD'
p1375
S'B-NP'
p1376
g4
tp1377
a(g194
g194
g194
g4
g4
tp1378
a(S'p\xe2\x80\x89=\xe2\x80\x89.13'
p1379
S'p\xe2\x80\x89=\xe2\x80\x89.13'
p1380
S'NN'
p1381
S'B-NP'
p1382
S'B-protein'
p1383
tp1384
a(g248
g248
g248
g4
g4
tp1385
a(g177
g177
g177
g4
g4
tp1386
a(S'Age'
p1387
S'Age'
p1388
S'NN'
p1389
S'B-NP'
p1390
g4
tp1391
a(S'was'
p1392
S'be'
p1393
S'VBD'
p1394
S'B-VP'
p1395
g4
tp1396
a(S'positively'
p1397
S'positively'
p1398
S'RB'
p1399
S'I-VP'
p1400
g4
tp1401
a(S'associated'
p1402
S'associate'
p1403
S'VBN'
p1404
S'I-VP'
p1405
g4
tp1406
a(S'with'
p1407
S'with'
p1408
S'IN'
p1409
S'B-PP'
p1410
g4
tp1411
a(S'kit'
p1412
S'kit'
p1413
S'NN'
p1414
S'B-NP'
p1415
g4
tp1416
a(S'return.'
p1417
S'return.'
p1418
S'NN'
p1419
S'I-NP'
p1420
g4
tp1421
a(S'Decision'
p1422
S'Decision'
p1423
S'NN'
p1424
S'I-NP'
p1425
g4
tp1426
a(S'to'
p1427
S'to'
p1428
S'TO'
p1429
S'B-VP'
p1430
g4
tp1431
a(S'screen'
p1432
S'screen'
p1433
S'VB'
p1434
S'I-VP'
p1435
g4
tp1436
a(g110
g110
g110
g4
g4
tp1437
a(S'2227/2270'
p1438
S'2227/2270'
p1439
S'CD'
p1440
S'B-NP'
p1441
g4
tp1442
a(S'of'
p1443
S'of'
p1444
S'IN'
p1445
S'B-PP'
p1446
g4
tp1447
a(S'the'
p1448
S'the'
p1449
S'DT'
p1450
S'B-NP'
p1451
g4
tp1452
a(S'PP'
p1453
S'PP'
p1454
S'NN'
p1455
S'I-NP'
p1456
S'B-protein'
p1457
tp1458
a(S'sample'
p1459
S'sample'
p1460
S'NN'
p1461
S'I-NP'
p1462
S'I-protein'
p1463
tp1464
a(S'provided'
p1465
S'provide'
p1466
S'VBD'
p1467
S'B-VP'
p1468
S'I-protein'
p1469
tp1470
a(S'complete'
p1471
S'complete'
p1472
S'JJ'
p1473
S'B-NP'
p1474
S'I-protein'
p1475
tp1476
a(S'BS'
p1477
S'BS'
p1478
S'NNP'
p1479
S'I-NP'
p1480
S'I-protein'
p1481
tp1482
a(S'data.'
p1483
S'data.'
p1484
S'NNP'
p1485
S'I-NP'
p1486
g4
tp1487
a(S'Participants'
p1488
S'Participant'
p1489
S'NNPS'
p1490
S'I-NP'
p1491
g4
tp1492
a(S'not'
p1493
S'not'
p1494
S'RB'
p1495
S'B-VP'
p1496
g4
tp1497
a(S'wanting'
p1498
S'want'
p1499
S'VBG'
p1500
S'I-VP'
p1501
g4
tp1502
a(S'to'
p1503
S'to'
p1504
S'TO'
p1505
S'I-VP'
p1506
g4
tp1507
a(S'screen'
p1508
S'screen'
p1509
S'VB'
p1510
S'I-VP'
p1511
g4
tp1512
a(S'at'
p1513
S'at'
p1514
S'IN'
p1515
S'B-PP'
p1516
g4
tp1517
a(S'baseline'
p1518
S'baseline'
p1519
S'NN'
p1520
S'B-NP'
p1521
g4
tp1522
a(g241
g241
g241
g4
g4
tp1523
a(S'1083/2227'
p1524
S'1083/2227'
p1525
S'CD'
p1526
S'B-NP'
p1527
g4
tp1528
a(g248
g248
g248
g4
g4
tp1529
a(S'and'
p1530
S'and'
p1531
S'CC'
p1532
g4
g4
tp1533
a(S'allocated'
p1534
S'allocate'
p1535
S'VBN'
p1536
S'B-VP'
p1537
g4
tp1538
a(S'to'
p1539
S'to'
p1540
S'TO'
p1541
S'B-PP'
p1542
g4
tp1543
a(S'TPDS'
p1544
S'TPDS'
p1545
S'NN'
p1546
S'B-NP'
p1547
g4
tp1548
a(S'and'
p1549
S'and'
p1550
S'CC'
p1551
S'I-NP'
p1552
g4
tp1553
a(S'NTPDS'
p1554
S'NTPDS'
p1555
S'NN'
p1556
S'I-NP'
p1557
S'B-protein'
p1558
tp1559
a(S'were'
p1560
S'be'
p1561
S'VBD'
p1562
S'B-VP'
p1563
g4
tp1564
a(S'significantly'
p1565
S'significantly'
p1566
S'RB'
p1567
S'B-ADJP'
p1568
g4
tp1569
a(S'more'
p1570
S'more'
p1571
S'RBR'
p1572
S'I-ADJP'
p1573
g4
tp1574
a(S'likely'
p1575
S'likely'
p1576
S'JJ'
p1577
S'I-ADJP'
p1578
g4
tp1579
a(S'to'
p1580
S'to'
p1581
S'TO'
p1582
S'B-VP'
p1583
g4
tp1584
a(S'decide'
p1585
S'decide'
p1586
S'VB'
p1587
S'I-VP'
p1588
g4
tp1589
a(S'to'
p1590
S'to'
p1591
S'TO'
p1592
S'I-VP'
p1593
g4
tp1594
a(S'screen'
p1595
S'screen'
p1596
S'VB'
p1597
S'I-VP'
p1598
g4
tp1599
a(S'and'
p1600
S'and'
p1601
S'CC'
p1602
S'I-VP'
p1603
g4
tp1604
a(S'return'
p1605
S'return'
p1606
S'VB'
p1607
S'I-VP'
p1608
g4
tp1609
a(S'an'
p1610
S'an'
p1611
S'DT'
p1612
S'B-NP'
p1613
g4
tp1614
a(S'FOBT'
p1615
S'FOBT'
p1616
S'NN'
p1617
S'I-NP'
p1618
g4
tp1619
a(S'than'
p1620
S'than'
p1621
S'IN'
p1622
S'B-PP'
p1623
g4
tp1624
a(S'those'
p1625
S'those'
p1626
S'DT'
p1627
S'B-NP'
p1628
g4
tp1629
a(S'assigned'
p1630
S'assign'
p1631
S'VBN'
p1632
S'B-VP'
p1633
g4
tp1634
a(S'to'
p1635
S'to'
p1636
S'TO'
p1637
S'B-PP'
p1638
g4
tp1639
a(S'the'
p1640
S'the'
p1641
S'DT'
p1642
S'B-NP'
p1643
g4
tp1644
a(S'CG.'
p1645
S'CG.'
p1646
S'NN'
p1647
S'I-NP'
p1648
g4
tp1649
a(S'FOBT'
p1650
S'FOBT'
p1651
S'NN'
p1652
S'I-NP'
p1653
g4
tp1654
a(S'return'
p1655
S'return'
p1656
S'NN'
p1657
S'I-NP'
p1658
g4
tp1659
a(S'by'
p1660
S'by'
p1661
S'IN'
p1662
S'B-PP'
p1663
g4
tp1664
a(S'TPDS'
p1665
S'TPDS'
p1666
S'NN'
p1667
S'B-NP'
p1668
S'B-protein'
p1669
tp1670
a(S'and'
p1671
S'and'
p1672
S'CC'
p1673
S'I-NP'
p1674
g4
tp1675
a(S'NTPDS'
p1676
S'NTPDS'
p1677
S'NN'
p1678
S'I-NP'
p1679
S'B-protein'
p1680
tp1681
a(S'did'
p1682
S'do'
p1683
S'VBD'
p1684
S'B-VP'
p1685
g4
tp1686
a(S'not'
p1687
S'not'
p1688
S'RB'
p1689
S'I-VP'
p1690
g4
tp1691
a(S'differ'
p1692
S'differ'
p1693
S'VB'
p1694
S'I-VP'
p1695
g4
tp1696
a(S'from'
p1697
S'from'
p1698
S'IN'
p1699
S'B-PP'
p1700
g4
tp1701
a(S'one'
p1702
S'one'
p1703
S'CD'
p1704
S'B-NP'
p1705
g4
tp1706
a(S'another'
p1707
S'another'
p1708
S'DT'
p1709
S'I-NP'
p1710
g4
tp1711
a(g241
g241
g241
g4
g4
tp1712
a(S'OR\xe2\x80\x89=\xe2\x80\x891.16'
p1713
S'OR\xe2\x80\x89=\xe2\x80\x891.16'
p1714
S'NN'
p1715
S'B-NP'
p1716
g4
tp1717
a(g194
g194
g194
g4
g4
tp1718
a(S'p\xe2\x80\x89=\xe2\x80\x89.42'
p1719
S'p\xe2\x80\x89=\xe2\x80\x89.42'
p1720
S'NN'
p1721
S'B-NP'
p1722
S'B-protein'
p1723
tp1724
a(g248
g248
g248
g4
g4
tp1725
a(g177
g177
g177
g4
g4
tp1726
a(S'Change'
p1727
S'Change'
p1728
S'NNP'
p1729
S'B-NP'
p1730
g4
tp1731
a(S'on'
p1732
S'on'
p1733
S'IN'
p1734
S'B-PP'
p1735
g4
tp1736
a(S'psychosocial'
p1737
S'psychosocial'
p1738
S'JJ'
p1739
S'B-NP'
p1740
g4
tp1741
a(S'predictors'
p1742
S'predictor'
p1743
S'NNS'
p1744
S'I-NP'
p1745
g4
tp1746
a(g110
g110
g110
g4
g4
tp1747
a(S'Analysis'
p1748
S'Analysis'
p1749
S'NN'
p1750
S'B-NP'
p1751
g4
tp1752
a(S'of'
p1753
S'of'
p1754
S'IN'
p1755
S'B-PP'
p1756
g4
tp1757
a(S'change'
p1758
S'change'
p1759
S'NN'
p1760
S'B-NP'
p1761
g4
tp1762
a(S'indicated'
p1763
S'indicate'
p1764
S'VBD'
p1765
S'B-VP'
p1766
g4
tp1767
a(S'that'
p1768
S'that'
p1769
S'IN'
p1770
S'B-SBAR'
p1771
g4
tp1772
a(S'salience'
p1773
S'salience'
p1774
S'NN'
p1775
S'B-NP'
p1776
g4
tp1777
a(S'and'
p1778
S'and'
p1779
S'CC'
p1780
S'I-NP'
p1781
g4
tp1782
a(S'coherence'
p1783
S'coherence'
p1784
S'NN'
p1785
S'I-NP'
p1786
g4
tp1787
a(S'of'
p1788
S'of'
p1789
S'IN'
p1790
S'B-PP'
p1791
g4
tp1792
a(S'screening'
p1793
S'screening'
p1794
S'NN'
p1795
S'B-NP'
p1796
g4
tp1797
a(S'and'
p1798
S'and'
p1799
S'CC'
p1800
S'I-NP'
p1801
g4
tp1802
a(S'self-efficacy'
p1803
S'self-efficacy'
p1804
S'NN'
p1805
S'I-NP'
p1806
g4
tp1807
a(S'were'
p1808
S'be'
p1809
S'VBD'
p1810
S'B-VP'
p1811
g4
tp1812
a(S'improved'
p1813
S'improve'
p1814
S'VBN'
p1815
S'I-VP'
p1816
g4
tp1817
a(S'and'
p1818
S'and'
p1819
S'CC'
p1820
g4
g4
tp1821
a(S'faecal'
p1822
S'faecal'
p1823
S'JJ'
p1824
S'B-NP'
p1825
g4
tp1826
a(S'aversion'
p1827
S'aversion'
p1828
S'NN'
p1829
S'I-NP'
p1830
g4
tp1831
a(S'decreased'
p1832
S'decrease'
p1833
S'VBD'
p1834
S'B-VP'
p1835
g4
tp1836
a(S'by'
p1837
S'by'
p1838
S'IN'
p1839
S'B-PP'
p1840
g4
tp1841
a(S'tailored'
p1842
S'tailor'
p1843
S'VBN'
p1844
S'B-NP'
p1845
g4
tp1846
a(S'messaging'
p1847
S'messaging'
p1848
S'NN'
p1849
S'I-NP'
p1850
g4
tp1851
a(g177
g177
g177
g4
g4
tp1852
a(S'CONCLUSIONS'
p1853
S'CONCLUSIONS'
p1854
S'NNS'
p1855
S'B-NP'
p1856
g4
tp1857
a(S'Online'
p1858
S'Online'
p1859
S'VBP'
p1860
S'B-VP'
p1861
g4
tp1862
a(S'information'
p1863
S'information'
p1864
S'NN'
p1865
S'B-NP'
p1866
g4
tp1867
a(S'resources'
p1868
S'resource'
p1869
S'NNS'
p1870
S'I-NP'
p1871
g4
tp1872
a(S'may'
p1873
S'may'
p1874
S'MD'
p1875
S'B-VP'
p1876
g4
tp1877
a(S'have'
p1878
S'have'
p1879
S'VB'
p1880
S'I-VP'
p1881
g4
tp1882
a(g86
g86
S'DT'
p1883
S'B-NP'
p1884
g4
tp1885
a(S'role'
p1886
S'role'
p1887
S'NN'
p1888
S'I-NP'
p1889
g4
tp1890
a(S'in'
p1891
S'in'
p1892
S'IN'
p1893
S'B-PP'
p1894
g4
tp1895
a(S'encouraging'
p1896
S'encourage'
p1897
S'VBG'
p1898
S'B-VP'
p1899
g4
tp1900
a(S'internet-enabled'
p1901
S'internet-enabled'
p1902
S'JJ'
p1903
S'B-NP'
p1904
g4
tp1905
a(S'people'
p1906
S'people'
p1907
S'NNS'
p1908
S'I-NP'
p1909
g4
tp1910
a(S'who'
p1911
S'who'
p1912
S'WP'
p1913
S'B-NP'
p1914
g4
tp1915
a(S'are'
p1916
S'be'
p1917
S'VBP'
p1918
S'B-VP'
p1919
g4
tp1920
a(S'uncommitted'
p1921
S'uncommitted'
p1922
S'JJ'
p1923
S'B-ADJP'
p1924
g4
tp1925
a(S'to'
p1926
S'to'
p1927
S'TO'
p1928
S'B-PP'
p1929
g4
tp1930
a(S'screening'
p1931
S'screening'
p1932
S'NN'
p1933
S'B-NP'
p1934
g4
tp1935
a(S'to'
p1936
S'to'
p1937
S'TO'
p1938
S'B-VP'
p1939
g4
tp1940
a(S'change'
p1941
S'change'
p1942
S'VB'
p1943
S'I-VP'
p1944
g4
tp1945
a(S'their'
p1946
S'their'
p1947
S'PRP$'
p1948
S'B-NP'
p1949
g4
tp1950
a(S'attitudes'
p1951
S'attitude'
p1952
S'NNS'
p1953
S'I-NP'
p1954
g4
tp1955
a(g194
g194
g194
S'I-NP'
p1956
g4
tp1957
a(S'perceptions'
p1958
S'perception'
p1959
S'NNS'
p1960
S'I-NP'
p1961
g4
tp1962
a(S'and'
p1963
S'and'
p1964
S'CC'
p1965
S'I-NP'
p1966
g4
tp1967
a(S'behaviour'
p1968
S'behaviour'
p1969
S'NN'
p1970
S'I-NP'
p1971
g4
tp1972
a(g177
g177
g177
g4
g4
tp1973
a(S'TRIAL'
p1974
S'TRIAL'
p1975
S'NNP'
p1976
S'B-NP'
p1977
g4
tp1978
a(S'REGISTRATION'
p1979
S'REGISTRATION'
p1980
S'NNP'
p1981
S'I-NP'
p1982
g4
tp1983
a(S'Australian'
p1984
S'Australian'
p1985
S'NNP'
p1986
S'I-NP'
p1987
g4
tp1988
a(S'New'
p1989
S'New'
p1990
S'NNP'
p1991
S'I-NP'
p1992
g4
tp1993
a(S'Zealand'
p1994
S'Zealand'
p1995
S'NNP'
p1996
S'I-NP'
p1997
g4
tp1998
a(S'Clinical'
p1999
S'Clinical'
p2000
S'NNP'
p2001
S'I-NP'
p2002
g4
tp2003
a(S'Trials'
p2004
S'Trials'
p2005
S'NNP'
p2006
S'I-NP'
p2007
g4
tp2008
a(S'Registry'
p2009
S'Registry'
p2010
S'NNP'
p2011
S'I-NP'
p2012
g4
tp2013
a(S'ACTRN12610000095066'
p2014
S'ACTRN12610000095066'
p2015
S'NNP'
p2016
S'I-NP'
p2017
g4
tp2018
a(g177
g177
g177
g4
g4
tp2019
a.