(lp0
(S'Emotion'
p1
S'Emotion'
p2
S'NN'
p3
S'B-NP'
p4
S'O'
p5
tp6
a(S'regulation'
p7
S'regulation'
p8
S'NN'
p9
S'I-NP'
p10
g5
tp11
a(S'strategies'
p12
S'strategy'
p13
S'NNS'
p14
S'I-NP'
p15
g5
tp16
a(S'that'
p17
S'that'
p18
S'WDT'
p19
S'B-NP'
p20
g5
tp21
a(S'promote'
p22
S'promote'
p23
S'VBP'
p24
S'B-VP'
p25
g5
tp26
a(S'learning'
p27
S'learning'
p28
S'NN'
p29
S'B-NP'
p30
g5
tp31
a(S':'
p32
g32
g32
g5
g5
tp33
a(S'reappraisal'
p34
S'reappraisal'
p35
S'NN'
p36
S'B-NP'
p37
g5
tp38
a(S'enhances'
p39
S'enhance'
p40
S'VBZ'
p41
S'B-VP'
p42
g5
tp43
a(S'children'
p44
S'child'
p45
S'NNS'
p46
S'B-NP'
p47
g5
tp48
a(S"'s"
p49
S"'s"
p50
S'POS'
p51
S'B-NP'
p52
g5
tp53
a(S'memory'
p54
S'memory'
p55
S'NN'
p56
S'I-NP'
p57
g5
tp58
a(S'for'
p59
S'for'
p60
S'IN'
p61
S'B-PP'
p62
g5
tp63
a(S'educational'
p64
S'educational'
p65
S'JJ'
p66
S'B-NP'
p67
g5
tp68
a(S'information'
p69
S'information'
p70
S'NN'
p71
S'I-NP'
p72
g5
tp73
a(S'.'
p74
g74
g74
g5
g5
tp75
a(S'The'
p76
S'The'
p77
S'DT'
p78
S'B-NP'
p79
g5
tp80
a(S'link'
p81
S'link'
p82
S'NN'
p83
S'I-NP'
p84
g5
tp85
a(S'between'
p86
S'between'
p87
S'IN'
p88
S'B-PP'
p89
g5
tp90
a(S'emotion'
p91
S'emotion'
p92
S'NN'
p93
S'B-NP'
p94
g5
tp95
a(S'regulation'
p96
S'regulation'
p97
S'NN'
p98
S'I-NP'
p99
g5
tp100
a(S'and'
p101
S'and'
p102
S'CC'
p103
g5
g5
tp104
a(S'academic'
p105
S'academic'
p106
S'JJ'
p107
S'B-NP'
p108
g5
tp109
a(S'achievement'
p110
S'achievement'
p111
S'NN'
p112
S'I-NP'
p113
g5
tp114
a(S'is'
p115
S'be'
p116
S'VBZ'
p117
S'B-VP'
p118
g5
tp119
a(S'well'
p120
S'well'
p121
S'RB'
p122
S'I-VP'
p123
g5
tp124
a(S'documented.'
p125
S'documented.'
p126
S'VBN'
p127
S'I-VP'
p128
g5
tp129
a(S'Less'
p130
S'Less'
p131
S'NNP'
p132
S'B-NP'
p133
g5
tp134
a(S'is'
p135
S'be'
p136
S'VBZ'
p137
S'B-VP'
p138
g5
tp139
a(S'known'
p140
S'know'
p141
S'VBN'
p142
S'I-VP'
p143
g5
tp144
a(S'about'
p145
S'about'
p146
S'IN'
p147
S'B-PP'
p148
g5
tp149
a(S'specific'
p150
S'specific'
p151
S'JJ'
p152
S'B-NP'
p153
g5
tp154
a(S'emotion'
p155
S'emotion'
p156
S'NN'
p157
S'I-NP'
p158
g5
tp159
a(S'regulation'
p160
S'regulation'
p161
S'NN'
p162
S'I-NP'
p163
g5
tp164
a(S'strategies'
p165
S'strategy'
p166
S'NNS'
p167
S'I-NP'
p168
g5
tp169
a(S'that'
p170
S'that'
p171
S'WDT'
p172
S'B-NP'
p173
g5
tp174
a(S'promote'
p175
S'promote'
p176
S'VBP'
p177
S'B-VP'
p178
g5
tp179
a(S'learning.'
p180
S'learning.'
p181
S'NN'
p182
S'B-NP'
p183
g5
tp184
a(S'Six-'
p185
S'Six-'
p186
S'CD'
p187
S'I-NP'
p188
g5
tp189
a(S'to'
p190
S'to'
p191
S'TO'
p192
S'B-PP'
p193
g5
tp194
a(S'13-year-olds'
p195
S'13-year-old'
p196
S'NNS'
p197
S'B-NP'
p198
g5
tp199
a(S'('
p200
g200
g200
g5
g5
tp201
a(S'N'
p202
g202
S'NN'
p203
S'B-NP'
p204
g5
tp205
a(S'='
p206
g206
S'SYM'
p207
S'B-VP'
p208
g5
tp209
a(S'126'
p210
S'126'
p211
S'CD'
p212
S'B-NP'
p213
g5
tp214
a(S')'
p215
g215
g215
g5
g5
tp216
a(S'viewed'
p217
S'view'
p218
S'VBD'
p219
S'B-VP'
p220
g5
tp221
a(S'a'
p222
g222
S'DT'
p223
S'B-NP'
p224
g5
tp225
a(S'sad'
p226
S'sad'
p227
S'JJ'
p228
S'I-NP'
p229
g5
tp230
a(S'film'
p231
S'film'
p232
S'NN'
p233
S'I-NP'
p234
g5
tp235
a(S'and'
p236
S'and'
p237
S'CC'
p238
g5
g5
tp239
a(S'were'
p240
S'be'
p241
S'VBD'
p242
S'B-VP'
p243
g5
tp244
a(S'instructed'
p245
S'instruct'
p246
S'VBN'
p247
S'I-VP'
p248
g5
tp249
a(S'to'
p250
S'to'
p251
S'TO'
p252
S'I-VP'
p253
g5
tp254
a(S'reappraise'
p255
S'reappraise'
p256
S'VB'
p257
S'I-VP'
p258
g5
tp259
a(S'the'
p260
S'the'
p261
S'DT'
p262
S'B-NP'
p263
g5
tp264
a(S'importance'
p265
S'importance'
p266
S'NN'
p267
S'I-NP'
p268
g5
tp269
a(S','
p270
g270
g270
g5
g5
tp271
a(S'reappraise'
p272
S'reappraise'
p273
S'VB'
p274
S'B-VP'
p275
g5
tp276
a(S'the'
p277
S'the'
p278
S'DT'
p279
S'B-NP'
p280
g5
tp281
a(S'outcome'
p282
S'outcome'
p283
S'NN'
p284
S'I-NP'
p285
g5
tp286
a(g270
g270
g270
g5
g5
tp287
a(S'or'
p288
S'or'
p289
S'CC'
p290
g5
g5
tp291
a(S'ruminate'
p292
S'ruminate'
p293
S'VB'
p294
S'B-VP'
p295
g5
tp296
a(S'about'
p297
S'about'
p298
S'IN'
p299
S'B-PP'
p300
g5
tp301
a(S'the'
p302
S'the'
p303
S'DT'
p304
S'B-NP'
p305
g5
tp306
a(S'sad'
p307
S'sad'
p308
S'JJ'
p309
S'I-NP'
p310
g5
tp311
a(S'events'
p312
S'event'
p313
S'NNS'
p314
S'I-NP'
p315
g5
tp316
a(S';'
p317
g317
g32
g5
g5
tp318
a(S'another'
p319
S'another'
p320
S'DT'
p321
S'B-NP'
p322
g5
tp323
a(S'group'
p324
S'group'
p325
S'NN'
p326
S'I-NP'
p327
g5
tp328
a(S'received'
p329
S'receive'
p330
S'VBD'
p331
S'B-VP'
p332
g5
tp333
a(S'no'
p334
S'no'
p335
S'DT'
p336
S'B-NP'
p337
g5
tp338
a(S'regulation'
p339
S'regulation'
p340
S'NN'
p341
S'I-NP'
p342
g5
tp343
a(S'instructions.'
p344
S'instructions.'
p345
S'NN'
p346
S'I-NP'
p347
g5
tp348
a(S'Children'
p349
S'Children'
p350
S'NNP'
p351
S'I-NP'
p352
g5
tp353
a(S'viewed'
p354
S'view'
p355
S'VBD'
p356
S'B-VP'
p357
g5
tp358
a(S'an'
p359
S'an'
p360
S'DT'
p361
S'B-NP'
p362
g5
tp363
a(S'educational'
p364
S'educational'
p365
S'JJ'
p366
S'I-NP'
p367
g5
tp368
a(S'film'
p369
S'film'
p370
S'NN'
p371
S'I-NP'
p372
g5
tp373
a(g270
g270
g270
g5
g5
tp374
a(S'and'
p375
S'and'
p376
S'CC'
p377
g5
g5
tp378
a(S'memory'
p379
S'memory'
p380
S'NN'
p381
S'B-NP'
p382
g5
tp383
a(S'for'
p384
S'for'
p385
S'IN'
p386
S'B-PP'
p387
g5
tp388
a(S'this'
p389
S'this'
p390
S'DT'
p391
S'B-NP'
p392
g5
tp393
a(S'was'
p394
S'be'
p395
S'VBD'
p396
S'B-VP'
p397
g5
tp398
a(S'later'
p399
S'later'
p400
S'RB'
p401
S'I-VP'
p402
g5
tp403
a(S'assessed.'
p404
S'assessed.'
p405
S'VBN'
p406
S'I-VP'
p407
g5
tp408
a(S'As'
p409
S'As'
p410
S'IN'
p411
S'B-SBAR'
p412
g5
tp413
a(S'predicted'
p414
S'predict'
p415
S'VBN'
p416
S'B-VP'
p417
g5
tp418
a(g270
g270
g270
g5
g5
tp419
a(S'reappraisal'
p420
S'reappraisal'
p421
S'JJ'
p422
S'B-NP'
p423
g5
tp424
a(S'strategies'
p425
S'strategy'
p426
S'NNS'
p427
S'I-NP'
p428
g5
tp429
a(S'more'
p430
S'more'
p431
S'RBR'
p432
S'B-VP'
p433
g5
tp434
a(S'effectively'
p435
S'effectively'
p436
S'RB'
p437
S'I-VP'
p438
g5
tp439
a(S'attenuated'
p440
S'attenuate'
p441
S'VBN'
p442
S'I-VP'
p443
g5
tp444
a(S'children'
p445
S'child'
p446
S'NNS'
p447
S'B-NP'
p448
g5
tp449
a(S"'s"
p450
S"'s"
p451
S'POS'
p452
S'B-NP'
p453
g5
tp454
a(S'self-reported'
p455
S'self-reported'
p456
S'JJ'
p457
S'I-NP'
p458
g5
tp459
a(S'emotional'
p460
S'emotional'
p461
S'JJ'
p462
S'I-NP'
p463
g5
tp464
a(S'processing.'
p465
S'processing.'
p466
S'NN'
p467
S'I-NP'
p468
g5
tp469
a(S'Reappraisal'
p470
S'Reappraisal'
p471
S'NN'
p472
S'I-NP'
p473
g5
tp474
a(S'enhanced'
p475
S'enhance'
p476
S'VBD'
p477
S'B-VP'
p478
g5
tp479
a(S'memory'
p480
S'memory'
p481
S'NN'
p482
S'B-NP'
p483
g5
tp484
a(S'for'
p485
S'for'
p486
S'IN'
p487
S'B-PP'
p488
g5
tp489
a(S'educational'
p490
S'educational'
p491
S'JJ'
p492
S'B-NP'
p493
g5
tp494
a(S'details'
p495
S'detail'
p496
S'NNS'
p497
S'I-NP'
p498
g5
tp499
a(S'relative'
p500
S'relative'
p501
S'JJ'
p502
S'B-ADVP'
p503
g5
tp504
a(S'to'
p505
S'to'
p506
S'TO'
p507
S'B-PP'
p508
g5
tp509
a(S'no'
p510
S'no'
p511
S'DT'
p512
S'B-NP'
p513
g5
tp514
a(S'instructions.'
p515
S'instructions.'
p516
S'NN'
p517
S'I-NP'
p518
g5
tp519
a(S'Rumination'
p520
S'Rumination'
p521
S'NN'
p522
S'I-NP'
p523
g5
tp524
a(S'did'
p525
S'do'
p526
S'VBD'
p527
S'B-VP'
p528
g5
tp529
a(S'not'
p530
S'not'
p531
S'RB'
p532
S'I-VP'
p533
g5
tp534
a(S'lead'
p535
S'lead'
p536
S'VB'
p537
S'I-VP'
p538
g5
tp539
a(S'to'
p540
S'to'
p541
S'TO'
p542
S'B-PP'
p543
g5
tp544
a(S'differences'
p545
S'difference'
p546
S'NNS'
p547
S'B-NP'
p548
g5
tp549
a(S'in'
p550
S'in'
p551
S'IN'
p552
S'B-PP'
p553
g5
tp554
a(S'memory'
p555
S'memory'
p556
S'NN'
p557
S'B-NP'
p558
g5
tp559
a(S'from'
p560
S'from'
p561
S'IN'
p562
S'B-PP'
p563
g5
tp564
a(S'the'
p565
S'the'
p566
S'DT'
p567
S'B-NP'
p568
g5
tp569
a(S'other'
p570
S'other'
p571
S'JJ'
p572
S'I-NP'
p573
g5
tp574
a(S'instructions.'
p575
S'instructions.'
p576
S'NN'
p577
S'I-NP'
p578
g5
tp579
a(S'Memory'
p580
S'Memory'
p581
S'NN'
p582
S'I-NP'
p583
g5
tp584
a(S'benefits'
p585
S'benefit'
p586
S'NNS'
p587
S'I-NP'
p588
g5
tp589
a(S'of'
p590
S'of'
p591
S'IN'
p592
S'B-PP'
p593
g5
tp594
a(S'effective'
p595
S'effective'
p596
S'JJ'
p597
S'B-NP'
p598
g5
tp599
a(S'instructions'
p600
S'instruction'
p601
S'NNS'
p602
S'I-NP'
p603
g5
tp604
a(S'were'
p605
S'be'
p606
S'VBD'
p607
S'B-VP'
p608
g5
tp609
a(S'pronounced'
p610
S'pronounce'
p611
S'VBN'
p612
S'I-VP'
p613
g5
tp614
a(S'for'
p615
S'for'
p616
S'IN'
p617
S'B-PP'
p618
g5
tp619
a(S'children'
p620
S'child'
p621
S'NNS'
p622
S'B-NP'
p623
g5
tp624
a(S'with'
p625
S'with'
p626
S'IN'
p627
S'B-PP'
p628
g5
tp629
a(S'poorer'
p630
S'poor'
p631
S'JJR'
p632
S'B-NP'
p633
g5
tp634
a(S'emotion'
p635
S'emotion'
p636
S'NN'
p637
S'I-NP'
p638
g5
tp639
a(S'regulation'
p640
S'regulation'
p641
S'NN'
p642
S'I-NP'
p643
g5
tp644
a(S'skill'
p645
S'skill'
p646
S'NN'
p647
S'I-NP'
p648
g5
tp649
a(g270
g270
g270
g5
g5
tp650
a(S'suggesting'
p651
S'suggest'
p652
S'VBG'
p653
S'B-VP'
p654
g5
tp655
a(S'the'
p656
S'the'
p657
S'DT'
p658
S'B-NP'
p659
g5
tp660
a(S'utility'
p661
S'utility'
p662
S'NN'
p663
S'I-NP'
p664
g5
tp665
a(S'of'
p666
S'of'
p667
S'IN'
p668
S'B-PP'
p669
g5
tp670
a(S'reappraisal'
p671
S'reappraisal'
p672
S'NN'
p673
S'B-NP'
p674
g5
tp675
a(S'in'
p676
S'in'
p677
S'IN'
p678
S'B-PP'
p679
g5
tp680
a(S'learning'
p681
S'learn'
p682
S'VBG'
p683
S'B-VP'
p684
g5
tp685
a(S'contexts'
p686
S'context'
p687
S'NNS'
p688
S'B-NP'
p689
g5
tp690
a(g74
g74
g74
g5
g5
tp691
a.