(lp0
(S'Effect'
p1
S'Effect'
p2
S'NN'
p3
S'B-NP'
p4
S'O'
p5
tp6
a(S'of'
p7
S'of'
p8
S'IN'
p9
S'B-PP'
p10
g5
tp11
a(S'medical'
p12
S'medical'
p13
S'JJ'
p14
S'B-NP'
p15
g5
tp16
a(S'ozone'
p17
S'ozone'
p18
S'NN'
p19
S'I-NP'
p20
g5
tp21
a(S'therapy'
p22
S'therapy'
p23
S'NN'
p24
S'I-NP'
p25
g5
tp26
a(S'on'
p27
S'on'
p28
S'IN'
p29
S'B-PP'
p30
g5
tp31
a(S'renal'
p32
S'renal'
p33
S'JJ'
p34
S'B-NP'
p35
g5
tp36
a(S'blood'
p37
S'blood'
p38
S'NN'
p39
S'I-NP'
p40
g5
tp41
a(S'flow'
p42
S'flow'
p43
S'NN'
p44
S'I-NP'
p45
g5
tp46
a(S'and'
p47
S'and'
p48
S'CC'
p49
g5
g5
tp50
a(S'renal'
p51
S'renal'
p52
S'JJ'
p53
S'B-NP'
p54
g5
tp55
a(S'function'
p56
S'function'
p57
S'NN'
p58
S'I-NP'
p59
g5
tp60
a(S'of'
p61
S'of'
p62
S'IN'
p63
S'B-PP'
p64
g5
tp65
a(S'patients'
p66
S'patient'
p67
S'NNS'
p68
S'B-NP'
p69
g5
tp70
a(S'with'
p71
S'with'
p72
S'IN'
p73
S'B-PP'
p74
g5
tp75
a(S'chronic'
p76
S'chronic'
p77
S'JJ'
p78
S'B-NP'
p79
g5
tp80
a(S'severe'
p81
S'severe'
p82
S'JJ'
p83
S'I-NP'
p84
g5
tp85
a(S'hepatitis'
p86
S'hepatitis'
p87
S'NN'
p88
S'I-NP'
p89
g5
tp90
a(S'.'
p91
g91
g91
g5
g5
tp92
a(S'BACKGROUND'
p93
S'BACKGROUND'
p94
S'NN'
p95
S'B-NP'
p96
g5
tp97
a(S'Medical'
p98
S'Medical'
p99
S'JJ'
p100
S'I-NP'
p101
g5
tp102
a(S'ozone'
p103
S'ozone'
p104
S'NN'
p105
S'I-NP'
p106
g5
tp107
a(S'therapy'
p108
S'therapy'
p109
S'NN'
p110
S'I-NP'
p111
g5
tp112
a(S'system'
p113
S'system'
p114
S'NN'
p115
S'I-NP'
p116
g5
tp117
a(S'was'
p118
S'be'
p119
S'VBD'
p120
S'B-VP'
p121
g5
tp122
a(S'reported'
p123
S'report'
p124
S'VBN'
p125
S'I-VP'
p126
g5
tp127
a(S'to'
p128
S'to'
p129
S'TO'
p130
S'I-VP'
p131
g5
tp132
a(S'have'
p133
S'have'
p134
S'VB'
p135
S'I-VP'
p136
g5
tp137
a(S'certain'
p138
S'certain'
p139
S'JJ'
p140
S'B-NP'
p141
g5
tp142
a(S'effects'
p143
S'effect'
p144
S'NNS'
p145
S'I-NP'
p146
g5
tp147
a(S'on'
p148
S'on'
p149
S'IN'
p150
S'B-PP'
p151
g5
tp152
a(S'the'
p153
S'the'
p154
S'DT'
p155
S'B-NP'
p156
g5
tp157
a(S'treatment'
p158
S'treatment'
p159
S'NN'
p160
S'I-NP'
p161
g5
tp162
a(S'of'
p163
S'of'
p164
S'IN'
p165
S'B-PP'
p166
g5
tp167
a(S'severe'
p168
S'severe'
p169
S'JJ'
p170
S'B-NP'
p171
g5
tp172
a(S'hepatitis'
p173
S'hepatitis'
p174
S'NN'
p175
S'I-NP'
p176
g5
tp177
a(S','
p178
g178
g178
g5
g5
tp179
a(S'but'
p180
S'but'
p181
S'CC'
p182
g5
g5
tp183
a(S'its'
p184
S'its'
p185
S'PRP$'
p186
S'B-NP'
p187
g5
tp188
a(S'mechanism'
p189
S'mechanism'
p190
S'NN'
p191
S'I-NP'
p192
g5
tp193
a(S'is'
p194
S'be'
p195
S'VBZ'
p196
S'B-VP'
p197
g5
tp198
a(S'not'
p199
S'not'
p200
S'RB'
p201
g5
g5
tp202
a(S'very'
p203
S'very'
p204
S'RB'
p205
S'B-NP'
p206
g5
tp207
a(S'clear.'
p208
S'clear.'
p209
S'RB'
p210
S'I-NP'
p211
g5
tp212
a(S'One'
p213
S'One'
p214
S'CD'
p215
S'I-NP'
p216
g5
tp217
a(S'of'
p218
S'of'
p219
S'IN'
p220
S'B-PP'
p221
g5
tp222
a(S'the'
p223
S'the'
p224
S'DT'
p225
S'B-NP'
p226
g5
tp227
a(S'causes'
p228
S'cause'
p229
S'NNS'
p230
S'I-NP'
p231
g5
tp232
a(S'of'
p233
S'of'
p234
S'IN'
p235
S'B-PP'
p236
g5
tp237
a(S'death'
p238
S'death'
p239
S'NN'
p240
S'B-NP'
p241
g5
tp242
a(S'of'
p243
S'of'
p244
S'IN'
p245
S'B-PP'
p246
g5
tp247
a(S'severe'
p248
S'severe'
p249
S'JJ'
p250
S'B-NP'
p251
g5
tp252
a(S'hepatitis'
p253
S'hepatitis'
p254
S'NN'
p255
S'I-NP'
p256
g5
tp257
a(S'is'
p258
S'be'
p259
S'VBZ'
p260
S'B-VP'
p261
g5
tp262
a(S'complication'
p263
S'complication'
p264
S'NN'
p265
S'B-NP'
p266
g5
tp267
a(S'of'
p268
S'of'
p269
S'IN'
p270
S'B-PP'
p271
g5
tp272
a(S'renal'
p273
S'renal'
p274
S'JJ'
p275
S'B-NP'
p276
g5
tp277
a(S'damage'
p278
S'damage'
p279
S'NN'
p280
S'I-NP'
p281
g5
tp282
a(S'or'
p283
S'or'
p284
S'CC'
p285
g5
g5
tp286
a(S'hepatorenal'
p287
S'hepatorenal'
p288
S'JJ'
p289
S'B-NP'
p290
g5
tp291
a(S'syndrome.'
p292
S'syndrome.'
p293
S'NN'
p294
S'I-NP'
p295
g5
tp296
a(S'The'
p297
S'The'
p298
S'DT'
p299
S'B-NP'
p300
g5
tp301
a(S'present'
p302
S'present'
p303
S'JJ'
p304
S'I-NP'
p305
g5
tp306
a(S'study'
p307
S'study'
p308
S'NN'
p309
S'I-NP'
p310
g5
tp311
a(S'aimed'
p312
S'aim'
p313
S'VBD'
p314
S'B-VP'
p315
g5
tp316
a(S'to'
p317
S'to'
p318
S'TO'
p319
S'I-VP'
p320
g5
tp321
a(S'observe'
p322
S'observe'
p323
S'VB'
p324
S'I-VP'
p325
g5
tp326
a(S'effects'
p327
S'effect'
p328
S'NNS'
p329
S'B-NP'
p330
g5
tp331
a(S'of'
p332
S'of'
p333
S'IN'
p334
S'B-PP'
p335
g5
tp336
a(S'medical'
p337
S'medical'
p338
S'JJ'
p339
S'B-NP'
p340
g5
tp341
a(S'ozone'
p342
S'ozone'
p343
S'NN'
p344
S'I-NP'
p345
g5
tp346
a(S'therapy'
p347
S'therapy'
p348
S'NN'
p349
S'I-NP'
p350
g5
tp351
a(S'system'
p352
S'system'
p353
S'NN'
p354
S'I-NP'
p355
g5
tp356
a(S'on'
p357
S'on'
p358
S'IN'
p359
S'B-PP'
p360
g5
tp361
a(S'plasma'
p362
S'plasma'
p363
S'NN'
p364
S'B-NP'
p365
S'B-protein'
p366
tp367
a(S'renin'
p368
S'renin'
p369
S'NN'
p370
S'I-NP'
p371
S'I-protein'
p372
tp373
a(S'activity'
p374
S'activity'
p375
S'NN'
p376
S'I-NP'
p377
g5
tp378
a(S'('
p379
g379
g379
g5
g5
tp380
a(S'PRA'
p381
S'PRA'
p382
S'NN'
p383
S'B-NP'
p384
S'B-protein'
p385
tp386
a(S')'
p387
g387
g387
g5
g5
tp388
a(g178
g178
g178
g5
g5
tp389
a(S'angiotensin'
p390
S'angiotensin'
p391
S'NN'
p392
S'B-NP'
p393
S'B-protein'
p394
tp395
a(S'II'
p396
S'II'
p397
S'CD'
p398
S'I-NP'
p399
S'I-protein'
p400
tp401
a(g379
g379
g379
g5
g5
tp402
a(S'AII'
p403
S'AII'
p404
S'NN'
p405
S'B-NP'
p406
S'B-protein'
p407
tp408
a(g387
g387
g387
g5
g5
tp409
a(g178
g178
g178
g5
g5
tp410
a(S'aldosterone'
p411
S'aldosterone'
p412
S'NN'
p413
S'B-NP'
p414
g5
tp415
a(g379
g379
g379
g5
g5
tp416
a(S'ALD'
p417
S'ALD'
p418
S'NN'
p419
S'B-NP'
p420
g5
tp421
a(g387
g387
g387
g5
g5
tp422
a(g178
g178
g178
g5
g5
tp423
a(S'renal'
p424
S'renal'
p425
S'JJ'
p426
S'B-NP'
p427
g5
tp428
a(S'blood'
p429
S'blood'
p430
S'NN'
p431
S'I-NP'
p432
g5
tp433
a(S'flow'
p434
S'flow'
p435
S'NN'
p436
S'I-NP'
p437
g5
tp438
a(S'and'
p439
S'and'
p440
S'CC'
p441
g5
g5
tp442
a(S'renal'
p443
S'renal'
p444
S'JJ'
p445
S'B-NP'
p446
g5
tp447
a(S'function'
p448
S'function'
p449
S'NN'
p450
S'I-NP'
p451
g5
tp452
a(S'of'
p453
S'of'
p454
S'IN'
p455
S'B-PP'
p456
g5
tp457
a(S'patients'
p458
S'patient'
p459
S'NNS'
p460
S'B-NP'
p461
g5
tp462
a(S'with'
p463
S'with'
p464
S'IN'
p465
S'B-PP'
p466
g5
tp467
a(S'chronic'
p468
S'chronic'
p469
S'JJ'
p470
S'B-NP'
p471
g5
tp472
a(S'severe'
p473
S'severe'
p474
S'JJ'
p475
S'I-NP'
p476
g5
tp477
a(S'hepatitis'
p478
S'hepatitis'
p479
S'NN'
p480
S'I-NP'
p481
g5
tp482
a(S'and'
p483
S'and'
p484
S'CC'
p485
g5
g5
tp486
a(S'explore'
p487
S'explore'
p488
S'VB'
p489
S'B-VP'
p490
g5
tp491
a(S'mechanisms'
p492
S'mechanism'
p493
S'NNS'
p494
S'B-NP'
p495
g5
tp496
a(S'of'
p497
S'of'
p498
S'IN'
p499
S'B-PP'
p500
g5
tp501
a(S'medical'
p502
S'medical'
p503
S'JJ'
p504
S'B-NP'
p505
g5
tp506
a(S'ozone'
p507
S'ozone'
p508
S'NN'
p509
S'I-NP'
p510
g5
tp511
a(S'therapy'
p512
S'therapy'
p513
S'NN'
p514
S'I-NP'
p515
g5
tp516
a(S'in'
p517
S'in'
p518
S'IN'
p519
S'B-PP'
p520
g5
tp521
a(S'the'
p522
S'the'
p523
S'DT'
p524
S'B-NP'
p525
g5
tp526
a(S'treatment'
p527
S'treatment'
p528
S'NN'
p529
S'I-NP'
p530
g5
tp531
a(S'of'
p532
S'of'
p533
S'IN'
p534
S'B-PP'
p535
g5
tp536
a(S'severe'
p537
S'severe'
p538
S'JJ'
p539
S'B-NP'
p540
g5
tp541
a(S'hepatitis'
p542
S'hepatitis'
p543
S'NN'
p544
S'I-NP'
p545
g5
tp546
a(g91
g91
g91
g5
g5
tp547
a(S'METHODS'
p548
S'METHODS'
p549
S'NNS'
p550
S'B-NP'
p551
g5
tp552
a(S'Eighty-five'
p553
S'Eighty-five'
p554
S'CD'
p555
S'B-NP'
p556
g5
tp557
a(S'cases'
p558
S'case'
p559
S'NNS'
p560
S'I-NP'
p561
g5
tp562
a(S'with'
p563
S'with'
p564
S'IN'
p565
S'B-PP'
p566
g5
tp567
a(S'chronic'
p568
S'chronic'
p569
S'JJ'
p570
S'B-NP'
p571
g5
tp572
a(S'severe'
p573
S'severe'
p574
S'JJ'
p575
S'I-NP'
p576
g5
tp577
a(S'hepatitis'
p578
S'hepatitis'
p579
S'NN'
p580
S'I-NP'
p581
g5
tp582
a(S'were'
p583
S'be'
p584
S'VBD'
p585
S'B-VP'
p586
g5
tp587
a(S'randomly'
p588
S'randomly'
p589
S'RB'
p590
S'I-VP'
p591
g5
tp592
a(S'divided'
p593
S'divide'
p594
S'VBN'
p595
S'I-VP'
p596
g5
tp597
a(S'into'
p598
S'into'
p599
S'IN'
p600
S'B-PP'
p601
g5
tp602
a(S'ozone'
p603
S'ozone'
p604
S'NN'
p605
S'B-NP'
p606
g5
tp607
a(S'therapy'
p608
S'therapy'
p609
S'NN'
p610
S'I-NP'
p611
g5
tp612
a(S'group'
p613
S'group'
p614
S'NN'
p615
S'I-NP'
p616
g5
tp617
a(g379
g379
g379
g5
g5
tp618
a(S'43'
p619
S'43'
p620
S'CD'
p621
S'B-NP'
p622
g5
tp623
a(S'cases'
p624
S'case'
p625
S'NNS'
p626
S'I-NP'
p627
g5
tp628
a(g387
g387
g387
g5
g5
tp629
a(S'and'
p630
S'and'
p631
S'CC'
p632
g5
g5
tp633
a(S'control'
p634
S'control'
p635
S'NN'
p636
S'B-NP'
p637
g5
tp638
a(S'group'
p639
S'group'
p640
S'NN'
p641
S'I-NP'
p642
g5
tp643
a(g379
g379
g379
g5
g5
tp644
a(S'42'
p645
S'42'
p646
S'CD'
p647
S'B-NP'
p648
g5
tp649
a(S'cases'
p650
S'case'
p651
S'NNS'
p652
S'I-NP'
p653
g5
tp654
a(g387
g387
g387
g5
g5
tp655
a(g91
g91
g91
g5
g5
tp656
a(S'The'
p657
S'The'
p658
S'DT'
p659
S'B-NP'
p660
g5
tp661
a(S'patients'
p662
S'patient'
p663
S'NNS'
p664
S'I-NP'
p665
g5
tp666
a(S'in'
p667
S'in'
p668
S'IN'
p669
S'B-PP'
p670
g5
tp671
a(S'the'
p672
S'the'
p673
S'DT'
p674
S'B-NP'
p675
g5
tp676
a(S'ozone'
p677
S'ozone'
p678
S'NN'
p679
S'I-NP'
p680
g5
tp681
a(S'therapy'
p682
S'therapy'
p683
S'NN'
p684
S'I-NP'
p685
g5
tp686
a(S'group'
p687
S'group'
p688
S'NN'
p689
S'I-NP'
p690
g5
tp691
a(S'were'
p692
S'be'
p693
S'VBD'
p694
S'B-VP'
p695
g5
tp696
a(S'treated'
p697
S'treat'
p698
S'VBN'
p699
S'I-VP'
p700
g5
tp701
a(S'with'
p702
S'with'
p703
S'IN'
p704
S'B-PP'
p705
g5
tp706
a(S'basic'
p707
S'basic'
p708
S'JJ'
p709
S'B-NP'
p710
g5
tp711
a(S'treatments'
p712
S'treatment'
p713
S'NNS'
p714
S'I-NP'
p715
g5
tp716
a(S'plus'
p717
S'plus'
p718
S'CC'
p719
g5
g5
tp720
a(S'ozone'
p721
S'ozone'
p722
S'NN'
p723
S'B-NP'
p724
g5
tp725
a(S'therapy'
p726
S'therapy'
p727
S'NN'
p728
S'I-NP'
p729
g5
tp730
a(S'system.'
p731
S'system.'
p732
S'NN'
p733
S'I-NP'
p734
g5
tp735
a(S'Basic'
p736
S'Basic'
p737
S'JJ'
p738
S'I-NP'
p739
g5
tp740
a(S'autohemotherapy'
p741
S'autohemotherapy'
p742
S'NN'
p743
S'I-NP'
p744
g5
tp745
a(S'was'
p746
S'be'
p747
S'VBD'
p748
S'B-VP'
p749
g5
tp750
a(S'used.'
p751
S'used.'
p752
S'VBN'
p753
S'I-VP'
p754
g5
tp755
a(S'One'
p756
S'One'
p757
S'CD'
p758
S'B-NP'
p759
g5
tp760
a(S'hundred'
p761
S'hundred'
p762
S'CD'
p763
S'I-NP'
p764
g5
tp765
a(S'milliliter'
p766
S'millilit'
p767
S'JJR'
p768
S'I-NP'
p769
g5
tp770
a(S'venous'
p771
S'venous'
p772
S'JJ'
p773
S'I-NP'
p774
g5
tp775
a(S'blood'
p776
S'blood'
p777
S'NN'
p778
S'I-NP'
p779
g5
tp780
a(S'was'
p781
S'be'
p782
S'VBD'
p783
S'B-VP'
p784
g5
tp785
a(S'drawn'
p786
S'draw'
p787
S'VBN'
p788
S'I-VP'
p789
g5
tp790
a(S'from'
p791
S'from'
p792
S'IN'
p793
S'B-PP'
p794
g5
tp795
a(S'each'
p796
S'each'
p797
S'DT'
p798
S'B-NP'
p799
g5
tp800
a(S'patient'
p801
S'patient'
p802
S'NN'
p803
S'I-NP'
p804
g5
tp805
a(g178
g178
g178
g5
g5
tp806
a(S'and'
p807
S'and'
p808
S'CC'
p809
g5
g5
tp810
a(S'was'
p811
S'be'
p812
S'VBD'
p813
S'B-VP'
p814
g5
tp815
a(S'mixed'
p816
S'mix'
p817
S'VBN'
p818
S'B-ADJP'
p819
g5
tp820
a(S'with'
p821
S'with'
p822
S'IN'
p823
S'B-PP'
p824
g5
tp825
a(S'100'
p826
S'100'
p827
S'CD'
p828
S'B-NP'
p829
g5
tp830
a(S'ml'
p831
S'ml'
p832
S'NN'
p833
S'I-NP'
p834
g5
tp835
a(g379
g379
g379
g5
g5
tp836
a(S'35'
p837
S'35'
p838
S'CD'
p839
S'B-NP'
p840
g5
tp841
a(S'\xc2\xb5g/ml'
p842
S'\xc2\xb5g/ml'
p843
S'NN'
p844
S'I-NP'
p845
g5
tp846
a(g387
g387
g387
S'I-NP'
p847
g5
tp848
a(S'medical'
p849
S'medical'
p850
S'JJ'
p851
S'I-NP'
p852
g5
tp853
a(S'ozone'
p854
S'ozone'
p855
S'NN'
p856
S'I-NP'
p857
g5
tp858
a(S'and'
p859
S'and'
p860
S'CC'
p861
g5
g5
tp862
a(S'then'
p863
S'then'
p864
S'RB'
p865
S'B-ADVP'
p866
g5
tp867
a(S'was'
p868
S'be'
p869
S'VBD'
p870
S'B-VP'
p871
g5
tp872
a(S'returned'
p873
S'return'
p874
S'VBN'
p875
S'I-VP'
p876
g5
tp877
a(S'the'
p878
S'the'
p879
S'DT'
p880
S'B-NP'
p881
g5
tp882
a(S'blood'
p883
S'blood'
p884
S'NN'
p885
S'I-NP'
p886
g5
tp887
a(S'to'
p888
S'to'
p889
S'TO'
p890
S'B-PP'
p891
g5
tp892
a(S'the'
p893
S'the'
p894
S'DT'
p895
S'B-NP'
p896
g5
tp897
a(S'patient'
p898
S'patient'
p899
S'NN'
p900
S'I-NP'
p901
g5
tp902
a(S'intravenously'
p903
S'intravenously'
p904
S'RB'
p905
S'B-ADVP'
p906
g5
tp907
a(g178
g178
g178
g5
g5
tp908
a(S'once'
p909
S'once'
p910
S'RB'
p911
S'B-ADVP'
p912
g5
tp913
a(S'every'
p914
S'every'
p915
S'DT'
p916
S'B-NP'
p917
g5
tp918
a(S'other'
p919
S'other'
p920
S'JJ'
p921
S'I-NP'
p922
g5
tp923
a(S'day'
p924
S'day'
p925
S'NN'
p926
S'I-NP'
p927
g5
tp928
a(S'for'
p929
S'for'
p930
S'IN'
p931
S'B-PP'
p932
g5
tp933
a(S'20'
p934
S'20'
p935
S'CD'
p936
S'B-NP'
p937
g5
tp938
a(S'days.'
p939
S'days.'
p940
S'NN'
p941
S'I-NP'
p942
g5
tp943
a(S'Only'
p944
S'Only'
p945
S'RB'
p946
S'B-NP'
p947
g5
tp948
a(S'the'
p949
S'the'
p950
S'DT'
p951
S'I-NP'
p952
g5
tp953
a(S'basic'
p954
S'basic'
p955
S'JJ'
p956
S'I-NP'
p957
g5
tp958
a(S'treatments'
p959
S'treatment'
p960
S'NNS'
p961
S'I-NP'
p962
g5
tp963
a(S'were'
p964
S'be'
p965
S'VBD'
p966
S'B-VP'
p967
g5
tp968
a(S'given'
p969
S'give'
p970
S'VBN'
p971
S'I-VP'
p972
g5
tp973
a(S'to'
p974
S'to'
p975
S'TO'
p976
S'B-PP'
p977
g5
tp978
a(S'the'
p979
S'the'
p980
S'DT'
p981
S'B-NP'
p982
g5
tp983
a(S'control'
p984
S'control'
p985
S'NN'
p986
S'I-NP'
p987
g5
tp988
a(S'group.'
p989
S'group.'
p990
S'NN'
p991
S'I-NP'
p992
g5
tp993
a(S'PRA'
p994
S'PRA'
p995
S'NN'
p996
S'I-NP'
p997
g5
tp998
a(g178
g178
g178
g5
g5
tp999
a(S'AII'
p1000
S'AII'
p1001
S'NN'
p1002
S'B-NP'
p1003
S'B-protein'
p1004
tp1005
a(g178
g178
g178
g5
g5
tp1006
a(S'ALD'
p1007
S'ALD'
p1008
S'NN'
p1009
S'B-NP'
p1010
g5
tp1011
a(g178
g178
g178
g5
g5
tp1012
a(S'renal'
p1013
S'renal'
p1014
S'JJ'
p1015
S'B-NP'
p1016
g5
tp1017
a(S'blood'
p1018
S'blood'
p1019
S'NN'
p1020
S'I-NP'
p1021
g5
tp1022
a(S'flow'
p1023
S'flow'
p1024
S'NN'
p1025
S'I-NP'
p1026
g5
tp1027
a(S'and'
p1028
S'and'
p1029
S'CC'
p1030
g5
g5
tp1031
a(S'damage'
p1032
S'damage'
p1033
S'NN'
p1034
S'B-NP'
p1035
g5
tp1036
a(S'to'
p1037
S'to'
p1038
S'TO'
p1039
S'B-PP'
p1040
g5
tp1041
a(S'renal'
p1042
S'renal'
p1043
S'JJ'
p1044
S'B-NP'
p1045
g5
tp1046
a(S'function'
p1047
S'function'
p1048
S'NN'
p1049
S'I-NP'
p1050
g5
tp1051
a(S'of'
p1052
S'of'
p1053
S'IN'
p1054
S'B-PP'
p1055
g5
tp1056
a(S'the'
p1057
S'the'
p1058
S'DT'
p1059
S'B-NP'
p1060
g5
tp1061
a(S'two'
p1062
S'two'
p1063
S'CD'
p1064
S'I-NP'
p1065
g5
tp1066
a(S'groups'
p1067
S'group'
p1068
S'NNS'
p1069
S'I-NP'
p1070
g5
tp1071
a(S'before'
p1072
S'before'
p1073
S'IN'
p1074
S'B-PP'
p1075
g5
tp1076
a(S'treatment'
p1077
S'treatment'
p1078
S'NN'
p1079
S'B-NP'
p1080
g5
tp1081
a(S'and'
p1082
S'and'
p1083
S'CC'
p1084
g5
g5
tp1085
a(S'20'
p1086
S'20'
p1087
S'CD'
p1088
S'B-NP'
p1089
g5
tp1090
a(S'days'
p1091
S'day'
p1092
S'NNS'
p1093
S'I-NP'
p1094
g5
tp1095
a(S'after'
p1096
S'after'
p1097
S'IN'
p1098
S'B-SBAR'
p1099
g5
tp1100
a(S'treatment'
p1101
S'treatment'
p1102
S'NN'
p1103
S'B-NP'
p1104
g5
tp1105
a(S'were'
p1106
S'be'
p1107
S'VBD'
p1108
S'B-VP'
p1109
g5
tp1110
a(S'compared.'
p1111
S'compared.'
p1112
S'VBN'
p1113
S'I-VP'
p1114
g5
tp1115
a(S'Survival'
p1116
S'Survival'
p1117
S'NN'
p1118
S'B-NP'
p1119
g5
tp1120
a(S'rates'
p1121
S'rate'
p1122
S'NNS'
p1123
S'I-NP'
p1124
g5
tp1125
a(S'were'
p1126
S'be'
p1127
S'VBD'
p1128
S'B-VP'
p1129
g5
tp1130
a(S'also'
p1131
S'also'
p1132
S'RB'
p1133
S'I-VP'
p1134
g5
tp1135
a(S'compared'
p1136
S'compare'
p1137
S'VBN'
p1138
S'I-VP'
p1139
g5
tp1140
a(g91
g91
g91
g5
g5
tp1141
a(S'RESULTS'
p1142
S'RESULTS'
p1143
S'NNS'
p1144
S'B-NP'
p1145
g5
tp1146
a(S'Twenty'
p1147
S'Twenty'
p1148
S'CD'
p1149
S'B-NP'
p1150
g5
tp1151
a(S'days'
p1152
S'day'
p1153
S'NNS'
p1154
S'I-NP'
p1155
g5
tp1156
a(S'after'
p1157
S'after'
p1158
S'IN'
p1159
S'B-PP'
p1160
g5
tp1161
a(S'the'
p1162
S'the'
p1163
S'DT'
p1164
S'B-NP'
p1165
g5
tp1166
a(S'treatment'
p1167
S'treatment'
p1168
S'NN'
p1169
S'I-NP'
p1170
g5
tp1171
a(g178
g178
g178
g5
g5
tp1172
a(S'in'
p1173
S'in'
p1174
S'IN'
p1175
S'B-PP'
p1176
g5
tp1177
a(S'ozone'
p1178
S'ozone'
p1179
S'NN'
p1180
S'B-NP'
p1181
g5
tp1182
a(S'therapy'
p1183
S'therapy'
p1184
S'NN'
p1185
S'I-NP'
p1186
g5
tp1187
a(S'group'
p1188
S'group'
p1189
S'NN'
p1190
S'I-NP'
p1191
g5
tp1192
a(g178
g178
g178
g5
g5
tp1193
a(S'PRA'
p1194
S'PRA'
p1195
S'NN'
p1196
S'B-NP'
p1197
S'B-protein'
p1198
tp1199
a(S'was'
p1200
S'be'
p1201
S'VBD'
p1202
S'B-VP'
p1203
g5
tp1204
a(g379
g379
g379
g5
g5
tp1205
a(S'1.31'
p1206
S'1.31'
p1207
S'CD'
p1208
S'B-NP'
p1209
g5
tp1210
a(S'\xc2\xb1'
p1211
S'\xc2\xb1'
p1212
S'CC'
p1213
g5
g5
tp1214
a(S'0.12'
p1215
S'0.12'
p1216
S'CD'
p1217
g5
g5
tp1218
a(g387
g387
g387
g5
g5
tp1219
a(S'ng\xc2\xb7ml\xe2\x81\xbb\xc2\xb9\xc2\xb7h\xe2\x81\xbb\xc2\xb9'
p1220
S'ng\xc2\xb7ml\xe2\x81\xbb\xc2\xb9\xc2\xb7h\xe2\x81\xbb\xc2\xb9'
p1221
S'NN'
p1222
S'B-NP'
p1223
g5
tp1224
a(g178
g178
g178
g5
g5
tp1225
a(S'AII'
p1226
S'AII'
p1227
S'NN'
p1228
S'B-NP'
p1229
S'B-protein'
p1230
tp1231
a(g379
g379
g379
g5
g5
tp1232
a(S'111.25'
p1233
S'111.25'
p1234
S'CD'
p1235
S'B-NP'
p1236
g5
tp1237
a(S'\xc2\xb1'
p1238
S'\xc2\xb1'
p1239
S'CC'
p1240
g5
g5
tp1241
a(S'17.35'
p1242
S'17.35'
p1243
S'CD'
p1244
g5
g5
tp1245
a(g387
g387
g387
g5
g5
tp1246
a(S'pg/ml'
p1247
S'pg/ml'
p1248
S'NN'
p1249
S'B-NP'
p1250
g5
tp1251
a(g178
g178
g178
g5
g5
tp1252
a(S'ALD'
p1253
S'ALD'
p1254
S'NN'
p1255
S'B-NP'
p1256
g5
tp1257
a(g379
g379
g379
g5
g5
tp1258
a(S'251.31'
p1259
S'251.31'
p1260
S'CD'
p1261
S'B-NP'
p1262
g5
tp1263
a(S'\xc2\xb1'
p1264
S'\xc2\xb1'
p1265
S'CC'
p1266
g5
g5
tp1267
a(S'22.60'
p1268
S'22.60'
p1269
S'CD'
p1270
g5
g5
tp1271
a(g387
g387
g387
g5
g5
tp1272
a(S'pg/ml'
p1273
S'pg/ml'
p1274
S'NN'
p1275
S'B-NP'
p1276
g5
tp1277
a(g178
g178
g178
g5
g5
tp1278
a(S'which'
p1279
S'which'
p1280
S'WDT'
p1281
S'B-NP'
p1282
g5
tp1283
a(S'decreased'
p1284
S'decrease'
p1285
S'VBD'
p1286
S'B-VP'
p1287
g5
tp1288
a(S'significantly'
p1289
S'significantly'
p1290
S'RB'
p1291
S'B-ADVP'
p1292
g5
tp1293
a(S'compared'
p1294
S'compare'
p1295
S'VBN'
p1296
S'B-PP'
p1297
g5
tp1298
a(S'with'
p1299
S'with'
p1300
S'IN'
p1301
S'B-PP'
p1302
g5
tp1303
a(S'those'
p1304
S'those'
p1305
S'DT'
p1306
S'B-NP'
p1307
g5
tp1308
a(S'before'
p1309
S'before'
p1310
S'IN'
p1311
S'B-PP'
p1312
g5
tp1313
a(S'treatment'
p1314
S'treatment'
p1315
S'NN'
p1316
S'B-NP'
p1317
g5
tp1318
a(g379
g379
g379
g5
g5
tp1319
a(S'PRA'
p1320
S'PRA'
p1321
S'NN'
p1322
S'B-NP'
p1323
g5
tp1324
a(g379
g379
g379
g5
g5
tp1325
a(S'2.23'
p1326
S'2.23'
p1327
S'CD'
p1328
S'B-NP'
p1329
g5
tp1330
a(S'\xc2\xb1'
p1331
S'\xc2\xb1'
p1332
S'CC'
p1333
g5
g5
tp1334
a(S'0.13'
p1335
S'0.13'
p1336
S'CD'
p1337
g5
g5
tp1338
a(g387
g387
g387
g5
g5
tp1339
a(S'ng\xc2\xb7ml\xe2\x81\xbb\xc2\xb9\xc2\xb7h\xe2\x81\xbb\xc2\xb9'
p1340
S'ng\xc2\xb7ml\xe2\x81\xbb\xc2\xb9\xc2\xb7h\xe2\x81\xbb\xc2\xb9'
p1341
S'NN'
p1342
S'B-NP'
p1343
g5
tp1344
a(g178
g178
g178
g5
g5
tp1345
a(S'AII'
p1346
S'AII'
p1347
S'NN'
p1348
S'B-NP'
p1349
S'B-protein'
p1350
tp1351
a(g379
g379
g379
g5
g5
tp1352
a(S'155.18'
p1353
S'155.18'
p1354
S'CD'
p1355
S'B-NP'
p1356
g5
tp1357
a(S'\xc2\xb1'
p1358
S'\xc2\xb1'
p1359
S'CC'
p1360
g5
g5
tp1361
a(S'19.13'
p1362
S'19.13'
p1363
S'CD'
p1364
g5
g5
tp1365
a(g387
g387
g387
g5
g5
tp1366
a(S'pg/ml'
p1367
S'pg/ml'
p1368
S'NN'
p1369
S'B-NP'
p1370
g5
tp1371
a(g178
g178
g178
g5
g5
tp1372
a(S'ALD'
p1373
S'ALD'
p1374
S'NN'
p1375
S'B-NP'
p1376
g5
tp1377
a(g379
g379
g379
g5
g5
tp1378
a(S'405.31'
p1379
S'405.31'
p1380
S'CD'
p1381
S'B-NP'
p1382
g5
tp1383
a(S'\xc2\xb1'
p1384
S'\xc2\xb1'
p1385
S'CC'
p1386
g5
g5
tp1387
a(S'29.88'
p1388
S'29.88'
p1389
S'CD'
p1390
g5
g5
tp1391
a(g387
g387
g387
g5
g5
tp1392
a(S'pg/ml'
p1393
S'pg/ml'
p1394
S'NN'
p1395
S'B-NP'
p1396
g5
tp1397
a(g178
g178
g178
g5
g5
tp1398
a(S't'
p1399
g1399
S'NN'
p1400
S'B-NP'
p1401
g5
tp1402
a(S'='
p1403
g1403
S'SYM'
p1404
S'B-VP'
p1405
g5
tp1406
a(S'4.67'
p1407
S'4.67'
p1408
S'CD'
p1409
S'B-NP'
p1410
g5
tp1411
a(S'-'
p1412
g1412
S'HYPH'
p1413
S'I-NP'
p1414
g5
tp1415
a(S'14.23'
p1416
S'14.23'
p1417
S'CD'
p1418
S'I-NP'
p1419
g5
tp1420
a(g178
g178
g178
g5
g5
tp1421
a(S'P'
p1422
g1422
S'NN'
p1423
S'B-NP'
p1424
g5
tp1425
a(S'<'
p1426
g1426
S'SYM'
p1427
S'B-NP'
p1428
g5
tp1429
a(S'0.01'
p1430
S'0.01'
p1431
S'CD'
p1432
S'I-NP'
p1433
g5
tp1434
a(g387
g387
g387
g5
g5
tp1435
a(g178
g178
g178
g5
g5
tp1436
a(S'also'
p1437
S'also'
p1438
S'RB'
p1439
S'B-ADVP'
p1440
g5
tp1441
a(S'lower'
p1442
S'low'
p1443
S'JJR'
p1444
S'B-ADJP'
p1445
g5
tp1446
a(S'than'
p1447
S'than'
p1448
S'IN'
p1449
S'B-PP'
p1450
g5
tp1451
a(S'those'
p1452
S'those'
p1453
S'DT'
p1454
S'B-NP'
p1455
g5
tp1456
a(S'of'
p1457
S'of'
p1458
S'IN'
p1459
S'B-PP'
p1460
g5
tp1461
a(S'control'
p1462
S'control'
p1463
S'NN'
p1464
S'B-NP'
p1465
g5
tp1466
a(S'group'
p1467
S'group'
p1468
S'NN'
p1469
S'I-NP'
p1470
g5
tp1471
a(S'20'
p1472
S'20'
p1473
S'CD'
p1474
S'B-NP'
p1475
g5
tp1476
a(S'days'
p1477
S'day'
p1478
S'NNS'
p1479
S'I-NP'
p1480
g5
tp1481
a(S'after'
p1482
S'after'
p1483
S'IN'
p1484
S'B-PP'
p1485
g5
tp1486
a(S'the'
p1487
S'the'
p1488
S'DT'
p1489
S'B-NP'
p1490
g5
tp1491
a(S'treatment'
p1492
S'treatment'
p1493
S'NN'
p1494
S'I-NP'
p1495
g5
tp1496
a(g379
g379
g379
g5
g5
tp1497
a(S'PRA'
p1498
S'PRA'
p1499
S'NN'
p1500
S'B-NP'
p1501
g5
tp1502
a(g379
g379
g379
g5
g5
tp1503
a(S'2.02'
p1504
S'2.02'
p1505
S'CD'
p1506
S'B-NP'
p1507
g5
tp1508
a(S'\xc2\xb1'
p1509
S'\xc2\xb1'
p1510
S'CC'
p1511
g5
g5
tp1512
a(S'0.11'
p1513
S'0.11'
p1514
S'CD'
p1515
g5
g5
tp1516
a(g387
g387
g387
g5
g5
tp1517
a(S'ng\xc2\xb7ml\xe2\x81\xbb\xc2\xb9\xc2\xb7h\xe2\x81\xbb\xc2\xb9'
p1518
S'ng\xc2\xb7ml\xe2\x81\xbb\xc2\xb9\xc2\xb7h\xe2\x81\xbb\xc2\xb9'
p1519
S'NN'
p1520
S'B-NP'
p1521
g5
tp1522
a(g178
g178
g178
g5
g5
tp1523
a(S'AII'
p1524
S'AII'
p1525
S'NN'
p1526
S'B-NP'
p1527
S'B-protein'
p1528
tp1529
a(g379
g379
g379
g5
g5
tp1530
a(S'162.21'
p1531
S'162.21'
p1532
S'CD'
p1533
S'B-NP'
p1534
g5
tp1535
a(S'\xc2\xb1'
p1536
S'\xc2\xb1'
p1537
S'CC'
p1538
g5
g5
tp1539
a(S'15.32'
p1540
S'15.32'
p1541
S'CD'
p1542
g5
g5
tp1543
a(g387
g387
g387
g5
g5
tp1544
a(S'pg/ml'
p1545
S'pg/ml'
p1546
S'NN'
p1547
S'B-NP'
p1548
g5
tp1549
a(g178
g178
g178
g5
g5
tp1550
a(S'ALD'
p1551
S'ALD'
p1552
S'NN'
p1553
S'B-NP'
p1554
g5
tp1555
a(g379
g379
g379
g5
g5
tp1556
a(S'401.20'
p1557
S'401.20'
p1558
S'CD'
p1559
S'B-NP'
p1560
g5
tp1561
a(S'\xc2\xb1'
p1562
S'\xc2\xb1'
p1563
S'CC'
p1564
g5
g5
tp1565
a(S'35.02'
p1566
S'35.02'
p1567
S'CD'
p1568
g5
g5
tp1569
a(g387
g387
g387
g5
g5
tp1570
a(S'pg/ml'
p1571
S'pg/ml'
p1572
S'NN'
p1573
S'B-NP'
p1574
g5
tp1575
a(g178
g178
g178
g5
g5
tp1576
a(g1399
g1399
S'NN'
p1577
S'B-NP'
p1578
g5
tp1579
a(g1403
g1403
S'SYM'
p1580
S'B-VP'
p1581
g5
tp1582
a(S'4.97'
p1583
S'4.97'
p1584
S'CD'
p1585
S'B-NP'
p1586
g5
tp1587
a(g1412
g1412
S'HYPH'
p1588
S'I-NP'
p1589
g5
tp1590
a(S'15.61'
p1591
S'15.61'
p1592
S'CD'
p1593
S'I-NP'
p1594
g5
tp1595
a(g178
g178
g178
g5
g5
tp1596
a(g1422
g1422
S'NN'
p1597
S'B-NP'
p1598
g5
tp1599
a(g1426
g1426
S'SYM'
p1600
S'B-NP'
p1601
g5
tp1602
a(S'0.01'
p1603
S'0.01'
p1604
S'CD'
p1605
S'I-NP'
p1606
g5
tp1607
a(g387
g387
g387
g5
g5
tp1608
a(S';'
p1609
g1609
S':'
p1610
g5
g5
tp1611
a(S'renal'
p1612
S'renal'
p1613
S'JJ'
p1614
S'B-NP'
p1615
g5
tp1616
a(S'blood'
p1617
S'blood'
p1618
S'NN'
p1619
S'I-NP'
p1620
g5
tp1621
a(S'flow'
p1622
S'flow'
p1623
S'NN'
p1624
S'I-NP'
p1625
g5
tp1626
a(S'was'
p1627
S'be'
p1628
S'VBD'
p1629
S'B-VP'
p1630
g5
tp1631
a(g379
g379
g379
g5
g5
tp1632
a(S'175.15'
p1633
S'175.15'
p1634
S'CD'
p1635
S'B-NP'
p1636
g5
tp1637
a(S'\xc2\xb1'
p1638
S'\xc2\xb1'
p1639
S'CC'
p1640
g5
g5
tp1641
a(S'28.20'
p1642
S'28.20'
p1643
S'CD'
p1644
g5
g5
tp1645
a(g387
g387
g387
g5
g5
tp1646
a(S'ml/min'
p1647
S'ml/min'
p1648
S'NN'
p1649
S'B-NP'
p1650
g5
tp1651
a(g178
g178
g178
g5
g5
tp1652
a(S'which'
p1653
S'which'
p1654
S'WDT'
p1655
S'B-NP'
p1656
g5
tp1657
a(S'increased'
p1658
S'increase'
p1659
S'VBD'
p1660
S'B-VP'
p1661
g5
tp1662
a(S'compared'
p1663
S'compare'
p1664
S'VBN'
p1665
S'B-PP'
p1666
g5
tp1667
a(S'with'
p1668
S'with'
p1669
S'IN'
p1670
S'B-PP'
p1671
g5
tp1672
a(S'that'
p1673
S'that'
p1674
S'DT'
p1675
S'B-NP'
p1676
g5
tp1677
a(S'before'
p1678
S'before'
p1679
S'IN'
p1680
S'B-PP'
p1681
g5
tp1682
a(S'the'
p1683
S'the'
p1684
S'DT'
p1685
S'B-NP'
p1686
g5
tp1687
a(S'treatment'
p1688
S'treatment'
p1689
S'NN'
p1690
S'I-NP'
p1691
g5
tp1692
a(g379
g379
g379
g5
g5
tp1693
a(g379
g379
g379
g5
g5
tp1694
a(S'125.68'
p1695
S'125.68'
p1696
S'CD'
p1697
g5
g5
tp1698
a(S'\xc2\xb1'
p1699
S'\xc2\xb1'
p1700
S'CC'
p1701
g5
g5
tp1702
a(S'21.25'
p1703
S'21.25'
p1704
S'CD'
p1705
g5
g5
tp1706
a(g387
g387
g387
g5
g5
tp1707
a(S'ml/min'
p1708
S'ml/min'
p1709
S'NN'
p1710
S'B-NP'
p1711
g5
tp1712
a(g387
g387
g387
g5
g5
tp1713
a(S'and'
p1714
S'and'
p1715
S'CC'
p1716
g5
g5
tp1717
a(S'was'
p1718
S'be'
p1719
S'VBD'
p1720
S'B-VP'
p1721
g5
tp1722
a(S'higher'
p1723
S'high'
p1724
S'JJR'
p1725
S'B-ADJP'
p1726
g5
tp1727
a(S'than'
p1728
S'than'
p1729
S'IN'
p1730
S'B-PP'
p1731
g5
tp1732
a(S'that'
p1733
S'that'
p1734
S'DT'
p1735
S'B-NP'
p1736
g5
tp1737
a(S'of'
p1738
S'of'
p1739
S'IN'
p1740
S'B-PP'
p1741
g5
tp1742
a(S'control'
p1743
S'control'
p1744
S'NN'
p1745
S'B-NP'
p1746
g5
tp1747
a(S'group'
p1748
S'group'
p1749
S'NN'
p1750
S'I-NP'
p1751
g5
tp1752
a(S'20'
p1753
S'20'
p1754
S'CD'
p1755
S'B-NP'
p1756
g5
tp1757
a(S'days'
p1758
S'day'
p1759
S'NNS'
p1760
S'I-NP'
p1761
g5
tp1762
a(S'after'
p1763
S'after'
p1764
S'IN'
p1765
S'B-PP'
p1766
g5
tp1767
a(S'the'
p1768
S'the'
p1769
S'DT'
p1770
S'B-NP'
p1771
g5
tp1772
a(S'treatment'
p1773
S'treatment'
p1774
S'NN'
p1775
S'I-NP'
p1776
g5
tp1777
a(g379
g379
g379
g5
g5
tp1778
a(g379
g379
g379
g5
g5
tp1779
a(S'128.59'
p1780
S'128.59'
p1781
S'CD'
p1782
g5
g5
tp1783
a(S'\xc2\xb1'
p1784
S'\xc2\xb1'
p1785
S'CC'
p1786
g5
g5
tp1787
a(S'23.15'
p1788
S'23.15'
p1789
S'CD'
p1790
g5
g5
tp1791
a(g387
g387
g387
g5
g5
tp1792
a(S'ml/min'
p1793
S'ml/min'
p1794
S'NN'
p1795
S'B-NP'
p1796
g5
tp1797
a(g178
g178
g178
g5
g5
tp1798
a(g1399
g1399
S'NN'
p1799
S'B-NP'
p1800
g5
tp1801
a(g1403
g1403
S'JJ'
p1802
S'B-VP'
p1803
g5
tp1804
a(S'4.78'
p1805
S'4.78'
p1806
S'CD'
p1807
S'B-NP'
p1808
g5
tp1809
a(g178
g178
g178
g5
g5
tp1810
a(S'4.61'
p1811
S'4.61'
p1812
S'CD'
p1813
S'B-NP'
p1814
g5
tp1815
a(g178
g178
g178
g5
g5
tp1816
a(g1422
g1422
S'NN'
p1817
S'B-NP'
p1818
g5
tp1819
a(g1426
g1426
S'SYM'
p1820
S'B-NP'
p1821
g5
tp1822
a(S'0.01'
p1823
S'0.01'
p1824
S'CD'
p1825
S'I-NP'
p1826
g5
tp1827
a(g387
g387
g387
g5
g5
tp1828
a(g91
g91
g91
g5
g5
tp1829
a(S'Renal'
p1830
S'Renal'
p1831
S'JJ'
p1832
S'B-NP'
p1833
g5
tp1834
a(S'damage'
p1835
S'damage'
p1836
S'NN'
p1837
S'I-NP'
p1838
g5
tp1839
a(S'occurred'
p1840
S'occur'
p1841
S'VBD'
p1842
S'B-VP'
p1843
g5
tp1844
a(S'in'
p1845
S'in'
p1846
S'IN'
p1847
S'B-PP'
p1848
g5
tp1849
a(S'2'
p1850
g1850
S'CD'
p1851
S'B-NP'
p1852
g5
tp1853
a(S'cases'
p1854
S'case'
p1855
S'NNS'
p1856
S'I-NP'
p1857
g5
tp1858
a(g379
g379
g379
g5
g5
tp1859
a(S'5'
p1860
g1860
S'CD'
p1861
S'B-NP'
p1862
g5
tp1863
a(S'%'
p1864
g1864
S'NN'
p1865
S'I-NP'
p1866
g5
tp1867
a(g387
g387
g387
g5
g5
tp1868
a(S'in'
p1869
S'in'
p1870
S'IN'
p1871
S'B-PP'
p1872
g5
tp1873
a(S'ozone'
p1874
S'ozone'
p1875
S'NN'
p1876
S'B-NP'
p1877
g5
tp1878
a(S'therapy'
p1879
S'therapy'
p1880
S'NN'
p1881
S'I-NP'
p1882
g5
tp1883
a(S'group'
p1884
S'group'
p1885
S'NN'
p1886
S'I-NP'
p1887
g5
tp1888
a(g178
g178
g178
g5
g5
tp1889
a(S'less'
p1890
S'less'
p1891
S'JJR'
p1892
S'B-NP'
p1893
g5
tp1894
a(S'than'
p1895
S'than'
p1896
S'IN'
p1897
S'B-PP'
p1898
g5
tp1899
a(S'that'
p1900
S'that'
p1901
S'DT'
p1902
S'B-NP'
p1903
g5
tp1904
a(S'in'
p1905
S'in'
p1906
S'IN'
p1907
S'B-PP'
p1908
g5
tp1909
a(S'control'
p1910
S'control'
p1911
S'NN'
p1912
S'B-NP'
p1913
g5
tp1914
a(S'group'
p1915
S'group'
p1916
S'NN'
p1917
S'I-NP'
p1918
g5
tp1919
a(g379
g379
g379
g5
g5
tp1920
a(S'9'
p1921
g1921
S'CD'
p1922
S'B-NP'
p1923
g5
tp1924
a(S'cases'
p1925
S'case'
p1926
S'NNS'
p1927
S'I-NP'
p1928
g5
tp1929
a(g178
g178
g178
g5
g5
tp1930
a(S'21'
p1931
S'21'
p1932
S'CD'
p1933
S'B-NP'
p1934
g5
tp1935
a(g1864
g1864
S'NN'
p1936
S'I-NP'
p1937
g5
tp1938
a(g387
g387
g387
g5
g5
tp1939
a(g379
g379
g379
g5
g5
tp1940
a(S'\xcf\x87\xc2\xb2'
p1941
S'\xcf\x87\xc2\xb2'
p1942
S'NN'
p1943
S'B-NP'
p1944
g5
tp1945
a(g1403
g1403
S'SYM'
p1946
S'B-VP'
p1947
g5
tp1948
a(S'5.295'
p1949
S'5.295'
p1950
S'CD'
p1951
S'B-NP'
p1952
g5
tp1953
a(g178
g178
g178
g5
g5
tp1954
a(g1422
g1422
S'NN'
p1955
S'B-NP'
p1956
g5
tp1957
a(g1426
g1426
S'SYM'
p1958
S'B-NP'
p1959
g5
tp1960
a(S'0.05'
p1961
S'0.05'
p1962
S'CD'
p1963
S'I-NP'
p1964
g5
tp1965
a(g387
g387
g387
g5
g5
tp1966
a(g91
g91
g91
g5
g5
tp1967
a(S'Thirty-three'
p1968
S'Thirty-three'
p1969
S'CD'
p1970
S'B-NP'
p1971
g5
tp1972
a(S'cases'
p1973
S'case'
p1974
S'NNS'
p1975
S'I-NP'
p1976
g5
tp1977
a(g379
g379
g379
g5
g5
tp1978
a(S'77'
p1979
S'77'
p1980
S'CD'
p1981
S'B-NP'
p1982
g5
tp1983
a(g1864
g1864
S'NN'
p1984
S'I-NP'
p1985
g5
tp1986
a(g387
g387
g387
g5
g5
tp1987
a(S'in'
p1988
S'in'
p1989
S'IN'
p1990
S'B-PP'
p1991
g5
tp1992
a(S'ozone'
p1993
S'ozone'
p1994
S'NN'
p1995
S'B-NP'
p1996
g5
tp1997
a(S'therapy'
p1998
S'therapy'
p1999
S'NN'
p2000
S'I-NP'
p2001
g5
tp2002
a(S'group'
p2003
S'group'
p2004
S'NN'
p2005
S'I-NP'
p2006
g5
tp2007
a(S'vs.'
p2008
S'vs.'
p2009
S'IN'
p2010
S'B-PP'
p2011
g5
tp2012
a(S'16'
p2013
S'16'
p2014
S'CD'
p2015
S'B-NP'
p2016
g5
tp2017
a(S'cases'
p2018
S'case'
p2019
S'NNS'
p2020
S'I-NP'
p2021
g5
tp2022
a(g379
g379
g379
g5
g5
tp2023
a(S'38'
p2024
S'38'
p2025
S'CD'
p2026
S'B-NP'
p2027
g5
tp2028
a(g1864
g1864
S'NN'
p2029
S'I-NP'
p2030
g5
tp2031
a(g387
g387
g387
g5
g5
tp2032
a(S'in'
p2033
S'in'
p2034
S'IN'
p2035
S'B-PP'
p2036
g5
tp2037
a(S'control'
p2038
S'control'
p2039
S'NN'
p2040
S'B-NP'
p2041
g5
tp2042
a(S'group'
p2043
S'group'
p2044
S'NN'
p2045
S'I-NP'
p2046
g5
tp2047
a(S'survived'
p2048
S'survive'
p2049
S'VBD'
p2050
S'B-VP'
p2051
g5
tp2052
a(g379
g379
g379
g5
g5
tp2053
a(S'\xcf\x87\xc2\xb2'
p2054
S'\xcf\x87\xc2\xb2'
p2055
S'NN'
p2056
S'B-NP'
p2057
g5
tp2058
a(g1403
g1403
S'SYM'
p2059
S'B-VP'
p2060
g5
tp2061
a(S'12.993'
p2062
S'12.993'
p2063
S'CD'
p2064
S'B-NP'
p2065
g5
tp2066
a(g178
g178
g178
g5
g5
tp2067
a(g1422
g1422
S'NN'
p2068
S'B-NP'
p2069
g5
tp2070
a(g1426
g1426
S'SYM'
p2071
S'B-NP'
p2072
g5
tp2073
a(S'0.01'
p2074
S'0.01'
p2075
S'CD'
p2076
S'I-NP'
p2077
g5
tp2078
a(g387
g387
g387
g5
g5
tp2079
a(g91
g91
g91
g5
g5
tp2080
a(S'CONCLUSIONS'
p2081
S'CONCLUSIONS'
p2082
S'NNS'
p2083
S'B-NP'
p2084
g5
tp2085
a(S'Basic'
p2086
S'Basic'
p2087
S'JJ'
p2088
S'I-NP'
p2089
g5
tp2090
a(S'treatment'
p2091
S'treatment'
p2092
S'NN'
p2093
S'I-NP'
p2094
g5
tp2095
a(S'plus'
p2096
S'plus'
p2097
S'CC'
p2098
g5
g5
tp2099
a(S'medical'
p2100
S'medical'
p2101
S'JJ'
p2102
S'B-NP'
p2103
g5
tp2104
a(S'ozone'
p2105
S'ozone'
p2106
S'NN'
p2107
S'I-NP'
p2108
g5
tp2109
a(S'therapy'
p2110
S'therapy'
p2111
S'NN'
p2112
S'I-NP'
p2113
g5
tp2114
a(S'for'
p2115
S'for'
p2116
S'IN'
p2117
S'B-PP'
p2118
g5
tp2119
a(S'patients'
p2120
S'patient'
p2121
S'NNS'
p2122
S'B-NP'
p2123
g5
tp2124
a(S'with'
p2125
S'with'
p2126
S'IN'
p2127
S'B-PP'
p2128
g5
tp2129
a(S'chronic'
p2130
S'chronic'
p2131
S'JJ'
p2132
S'B-NP'
p2133
g5
tp2134
a(S'severe'
p2135
S'severe'
p2136
S'JJ'
p2137
S'I-NP'
p2138
g5
tp2139
a(S'hepatitis'
p2140
S'hepatitis'
p2141
S'NN'
p2142
S'I-NP'
p2143
g5
tp2144
a(S'could'
p2145
S'could'
p2146
S'MD'
p2147
S'B-VP'
p2148
g5
tp2149
a(S'decrease'
p2150
S'decrease'
p2151
S'VB'
p2152
S'I-VP'
p2153
g5
tp2154
a(S'PRA'
p2155
S'PRA'
p2156
S'NN'
p2157
S'B-NP'
p2158
S'B-protein'
p2159
tp2160
a(g178
g178
g178
S'I-NP'
p2161
g5
tp2162
a(S'AII'
p2163
S'AII'
p2164
S'NN'
p2165
S'I-NP'
p2166
S'B-protein'
p2167
tp2168
a(S'and'
p2169
S'and'
p2170
S'CC'
p2171
S'I-NP'
p2172
g5
tp2173
a(S'ALD'
p2174
S'ALD'
p2175
S'NN'
p2176
S'I-NP'
p2177
g5
tp2178
a(S'levels'
p2179
S'level'
p2180
S'NNS'
p2181
S'I-NP'
p2182
g5
tp2183
a(S'significantly'
p2184
S'significantly'
p2185
S'RB'
p2186
S'B-VP'
p2187
g5
tp2188
a(S'increase'
p2189
S'increase'
p2190
S'VBP'
p2191
S'I-VP'
p2192
g5
tp2193
a(S'renal'
p2194
S'renal'
p2195
S'JJ'
p2196
S'B-NP'
p2197
g5
tp2198
a(S'blood'
p2199
S'blood'
p2200
S'NN'
p2201
S'I-NP'
p2202
g5
tp2203
a(S'flow'
p2204
S'flow'
p2205
S'NN'
p2206
S'I-NP'
p2207
g5
tp2208
a(g178
g178
g178
g5
g5
tp2209
a(S'prevent'
p2210
S'prevent'
p2211
S'VBP'
p2212
S'B-VP'
p2213
g5
tp2214
a(S'renal'
p2215
S'renal'
p2216
S'JJ'
p2217
S'B-NP'
p2218
g5
tp2219
a(S'damage'
p2220
S'damage'
p2221
S'NN'
p2222
S'I-NP'
p2223
g5
tp2224
a(S'to'
p2225
S'to'
p2226
S'TO'
p2227
S'B-PP'
p2228
g5
tp2229
a(S'certain'
p2230
S'certain'
p2231
S'JJ'
p2232
S'B-NP'
p2233
g5
tp2234
a(S'extent'
p2235
S'extent'
p2236
S'NN'
p2237
S'I-NP'
p2238
g5
tp2239
a(S'and'
p2240
S'and'
p2241
S'CC'
p2242
g5
g5
tp2243
a(S'improve'
p2244
S'improve'
p2245
S'VB'
p2246
S'B-VP'
p2247
g5
tp2248
a(S'survival'
p2249
S'survival'
p2250
S'NN'
p2251
S'B-NP'
p2252
g5
tp2253
a(S'rate'
p2254
S'rate'
p2255
S'NN'
p2256
S'I-NP'
p2257
g5
tp2258
a(S'of'
p2259
S'of'
p2260
S'IN'
p2261
S'B-PP'
p2262
g5
tp2263
a(S'the'
p2264
S'the'
p2265
S'DT'
p2266
S'B-NP'
p2267
g5
tp2268
a(S'patients'
p2269
S'patient'
p2270
S'NNS'
p2271
S'I-NP'
p2272
g5
tp2273
a(g91
g91
g91
g5
g5
tp2274
a.