(lp0
(S'Coagulation'
p1
S'Coagulation'
p2
S'NN'
p3
S'B-NP'
p4
S'B-protein'
p5
tp6
a(S'factor'
p7
S'factor'
p8
S'NN'
p9
S'I-NP'
p10
S'I-protein'
p11
tp12
a(S'concentrate'
p13
S'concentrate'
p14
S'NN'
p15
S'I-NP'
p16
S'O'
p17
tp18
a(S'in'
p19
S'in'
p20
S'IN'
p21
S'B-PP'
p22
g17
tp23
a(S'the'
p24
S'the'
p25
S'DT'
p26
S'B-NP'
p27
g17
tp28
a(S'treatment'
p29
S'treatment'
p30
S'NN'
p31
S'I-NP'
p32
g17
tp33
a(S'of'
p34
S'of'
p35
S'IN'
p36
S'B-PP'
p37
g17
tp38
a(S'the'
p39
S'the'
p40
S'DT'
p41
S'B-NP'
p42
g17
tp43
a(S'haemorrhagic'
p44
S'haemorrhagic'
p45
S'JJ'
p46
S'I-NP'
p47
g17
tp48
a(S'diathesis'
p49
S'diathesis'
p50
S'NN'
p51
S'I-NP'
p52
g17
tp53
a(S'of'
p54
S'of'
p55
S'IN'
p56
S'B-PP'
p57
g17
tp58
a(S'fulminant'
p59
S'fulminant'
p60
S'JJ'
p61
S'B-NP'
p62
g17
tp63
a(S'hepatic'
p64
S'hepatic'
p65
S'JJ'
p66
S'I-NP'
p67
g17
tp68
a(S'failure'
p69
S'failure'
p70
S'NN'
p71
S'I-NP'
p72
g17
tp73
a(S'.'
p74
g74
g74
g17
g17
tp75
a(S'To'
p76
S'To'
p77
S'TO'
p78
S'B-VP'
p79
g17
tp80
a(S'assess'
p81
S'assess'
p82
S'VB'
p83
S'I-VP'
p84
g17
tp85
a(S'the'
p86
S'the'
p87
S'DT'
p88
S'B-NP'
p89
g17
tp90
a(S'value'
p91
S'value'
p92
S'NN'
p93
S'I-NP'
p94
g17
tp95
a(S'of'
p96
S'of'
p97
S'IN'
p98
S'B-PP'
p99
g17
tp100
a(S'clotting'
p101
S'clot'
p102
S'VBG'
p103
S'B-VP'
p104
g17
tp105
a(S'factor'
p106
S'factor'
p107
S'NN'
p108
S'B-NP'
p109
g17
tp110
a(S'concentrate'
p111
S'concentrate'
p112
S'NN'
p113
S'I-NP'
p114
g17
tp115
a(S'infusions'
p116
S'infusion'
p117
S'NNS'
p118
S'I-NP'
p119
g17
tp120
a(S'in'
p121
S'in'
p122
S'IN'
p123
S'B-PP'
p124
g17
tp125
a(S'fulminant'
p126
S'fulminant'
p127
S'JJ'
p128
S'B-NP'
p129
g17
tp130
a(S'hepatic'
p131
S'hepatic'
p132
S'JJ'
p133
S'I-NP'
p134
g17
tp135
a(S'failure'
p136
S'failure'
p137
S'NN'
p138
S'I-NP'
p139
g17
tp140
a(S','
p141
g141
g141
g17
g17
tp142
a(S'a'
p143
g143
S'DT'
p144
S'B-NP'
p145
g17
tp146
a(S'controlled'
p147
S'control'
p148
S'VBN'
p149
S'I-NP'
p150
g17
tp151
a(S'trial'
p152
S'trial'
p153
S'NN'
p154
S'I-NP'
p155
g17
tp156
a(S'was'
p157
S'be'
p158
S'VBD'
p159
S'B-VP'
p160
g17
tp161
a(S'performed'
p162
S'perform'
p163
S'VBN'
p164
S'I-VP'
p165
g17
tp166
a(S'in'
p167
S'in'
p168
S'IN'
p169
S'B-PP'
p170
g17
tp171
a(S'which'
p172
S'which'
p173
S'WDT'
p174
S'B-NP'
p175
g17
tp176
a(S'nine'
p177
S'nine'
p178
S'CD'
p179
S'B-NP'
p180
g17
tp181
a(S'patients'
p182
S'patient'
p183
S'NNS'
p184
S'I-NP'
p185
g17
tp186
a(S'were'
p187
S'be'
p188
S'VBD'
p189
S'B-VP'
p190
g17
tp191
a(S'randomly'
p192
S'randomly'
p193
S'RB'
p194
S'I-VP'
p195
g17
tp196
a(S'allocated'
p197
S'allocate'
p198
S'VBN'
p199
S'I-VP'
p200
g17
tp201
a(S'to'
p202
S'to'
p203
S'TO'
p204
S'B-PP'
p205
g17
tp206
a(S'treatment'
p207
S'treatment'
p208
S'NN'
p209
S'B-NP'
p210
g17
tp211
a(S'with'
p212
S'with'
p213
S'IN'
p214
S'B-PP'
p215
g17
tp216
a(S'either'
p217
S'either'
p218
S'CC'
p219
g17
g17
tp220
a(S'concentrate'
p221
S'concentrate'
p222
S'NN'
p223
S'B-NP'
p224
g17
tp225
a(S'alone'
p226
S'alone'
p227
S'RB'
p228
S'B-ADVP'
p229
g17
tp230
a(S'or'
p231
S'or'
p232
S'CC'
p233
g17
g17
tp234
a(S'concentrate'
p235
S'concentrate'
p236
S'NN'
p237
S'B-NP'
p238
g17
tp239
a(S'plus'
p240
S'plus'
p241
S'CC'
p242
g17
g17
tp243
a(S'heparin.'
p244
S'heparin.'
p245
S'NN'
p246
S'B-NP'
p247
g17
tp248
a(S'The'
p249
S'The'
p250
S'DT'
p251
S'B-NP'
p252
g17
tp253
a(S'five'
p254
S'five'
p255
S'CD'
p256
S'I-NP'
p257
g17
tp258
a(S'patients'
p259
S'patient'
p260
S'NNS'
p261
S'I-NP'
p262
g17
tp263
a(S'receiving'
p264
S'receive'
p265
S'VBG'
p266
S'B-VP'
p267
g17
tp268
a(S'concentrate'
p269
S'concentrate'
p270
S'NN'
p271
S'B-NP'
p272
g17
tp273
a(S'alone'
p274
S'alone'
p275
S'RB'
p276
S'B-ADVP'
p277
g17
tp278
a(S'all'
p279
S'all'
p280
S'DT'
p281
S'B-NP'
p282
g17
tp283
a(S'died'
p284
S'die'
p285
S'VBD'
p286
S'B-VP'
p287
g17
tp288
a(g141
g141
g141
g17
g17
tp289
a(S'with'
p290
S'with'
p291
S'IN'
p292
S'B-PP'
p293
g17
tp294
a(S'major'
p295
S'major'
p296
S'JJ'
p297
S'B-NP'
p298
g17
tp299
a(S'bleeding'
p300
S'bleeding'
p301
S'NN'
p302
S'I-NP'
p303
g17
tp304
a(S'as'
p305
S'as'
p306
S'IN'
p307
S'B-PP'
p308
g17
tp309
a(S'the'
p310
S'the'
p311
S'DT'
p312
S'B-NP'
p313
g17
tp314
a(S'direct'
p315
S'direct'
p316
S'JJ'
p317
S'I-NP'
p318
g17
tp319
a(S'cause'
p320
S'cause'
p321
S'NN'
p322
S'I-NP'
p323
g17
tp324
a(S'of'
p325
S'of'
p326
S'IN'
p327
S'B-PP'
p328
g17
tp329
a(S'death'
p330
S'death'
p331
S'NN'
p332
S'B-NP'
p333
g17
tp334
a(S'in'
p335
S'in'
p336
S'IN'
p337
S'B-PP'
p338
g17
tp339
a(S'three'
p340
S'three'
p341
S'CD'
p342
S'B-NP'
p343
g17
tp344
a(g141
g141
g141
g17
g17
tp345
a(S'whereas'
p346
S'whereas'
p347
S'IN'
p348
g17
g17
tp349
a(S'in'
p350
S'in'
p351
S'IN'
p352
S'B-PP'
p353
g17
tp354
a(S'the'
p355
S'the'
p356
S'DT'
p357
S'B-NP'
p358
g17
tp359
a(S'four'
p360
S'four'
p361
S'CD'
p362
S'I-NP'
p363
g17
tp364
a(S'receiving'
p365
S'receive'
p366
S'VBG'
p367
S'I-NP'
p368
g17
tp369
a(S'heparin'
p370
S'heparin'
p371
S'NN'
p372
S'I-NP'
p373
g17
tp374
a(S'as'
p375
S'as'
p376
S'RB'
p377
S'B-ADVP'
p378
g17
tp379
a(S'well'
p380
S'well'
p381
S'RB'
p382
S'I-ADVP'
p383
g17
tp384
a(S'there'
p385
S'there'
p386
S'EX'
p387
S'B-NP'
p388
g17
tp389
a(S'was'
p390
S'be'
p391
S'VBD'
p392
S'B-VP'
p393
g17
tp394
a(S'only'
p395
S'only'
p396
S'RB'
p397
S'B-NP'
p398
g17
tp399
a(S'one'
p400
S'one'
p401
S'CD'
p402
S'I-NP'
p403
g17
tp404
a(S'instance'
p405
S'instance'
p406
S'NN'
p407
S'I-NP'
p408
g17
tp409
a(S'of'
p410
S'of'
p411
S'IN'
p412
S'B-PP'
p413
g17
tp414
a(S'bleeding'
p415
S'bleed'
p416
S'VBG'
p417
S'B-VP'
p418
g17
tp419
a(S'and'
p420
S'and'
p421
S'CC'
p422
g17
g17
tp423
a(S'one'
p424
S'one'
p425
S'CD'
p426
S'B-NP'
p427
g17
tp428
a(S'patient'
p429
S'patient'
p430
S'NN'
p431
S'I-NP'
p432
g17
tp433
a(S'survived.'
p434
S'survived.'
p435
S'NN'
p436
S'I-NP'
p437
g17
tp438
a(S'Clinical'
p439
S'Clinical'
p440
S'JJ'
p441
S'I-NP'
p442
g17
tp443
a(S'evidence'
p444
S'evidence'
p445
S'NN'
p446
S'I-NP'
p447
g17
tp448
a(S'of'
p449
S'of'
p450
S'IN'
p451
S'B-PP'
p452
g17
tp453
a(S'intravascular'
p454
S'intravascular'
p455
S'JJ'
p456
S'B-NP'
p457
g17
tp458
a(S'coagulation'
p459
S'coagulation'
p460
S'NN'
p461
S'I-NP'
p462
g17
tp463
a(S'appeared'
p464
S'appear'
p465
S'VBD'
p466
S'B-VP'
p467
g17
tp468
a(S'in'
p469
S'in'
p470
S'IN'
p471
S'B-PP'
p472
g17
tp473
a(S'two'
p474
S'two'
p475
S'CD'
p476
S'B-NP'
p477
g17
tp478
a(S'patients'
p479
S'patient'
p480
S'NNS'
p481
S'I-NP'
p482
g17
tp483
a(S'treated'
p484
S'treat'
p485
S'VBN'
p486
S'B-VP'
p487
g17
tp488
a(S'with'
p489
S'with'
p490
S'IN'
p491
S'B-PP'
p492
g17
tp493
a(S'concentrate'
p494
S'concentrate'
p495
S'NN'
p496
S'B-NP'
p497
g17
tp498
a(S'alone'
p499
S'alone'
p500
S'RB'
p501
S'B-ADVP'
p502
g17
tp503
a(S'and'
p504
S'and'
p505
S'CC'
p506
g17
g17
tp507
a(S'the'
p508
S'the'
p509
S'DT'
p510
S'B-NP'
p511
g17
tp512
a(S'laboratory'
p513
S'laboratory'
p514
S'NN'
p515
S'I-NP'
p516
g17
tp517
a(S'evidence'
p518
S'evidence'
p519
S'NN'
p520
S'I-NP'
p521
g17
tp522
a(S'of'
p523
S'of'
p524
S'IN'
p525
S'B-PP'
p526
g17
tp527
a(S'this'
p528
S'this'
p529
S'DT'
p530
S'B-NP'
p531
g17
tp532
a(S'progressed'
p533
S'progress'
p534
S'VBN'
p535
S'B-VP'
p536
g17
tp537
a(S'during'
p538
S'during'
p539
S'IN'
p540
S'B-PP'
p541
g17
tp542
a(S'the'
p543
S'the'
p544
S'DT'
p545
S'B-NP'
p546
g17
tp547
a(S'period'
p548
S'period'
p549
S'NN'
p550
S'I-NP'
p551
g17
tp552
a(S'of'
p553
S'of'
p554
S'IN'
p555
S'B-PP'
p556
g17
tp557
a(S'infusions'
p558
S'infusion'
p559
S'NNS'
p560
S'B-NP'
p561
g17
tp562
a(S'in'
p563
S'in'
p564
S'IN'
p565
S'B-PP'
p566
g17
tp567
a(S'all'
p568
S'all'
p569
S'DT'
p570
S'B-NP'
p571
g17
tp572
a(S'patients'
p573
S'patient'
p574
S'NNS'
p575
S'I-NP'
p576
g17
tp577
a(S'in'
p578
S'in'
p579
S'IN'
p580
S'B-PP'
p581
g17
tp582
a(S'both'
p583
S'both'
p584
S'DT'
p585
S'B-NP'
p586
g17
tp587
a(S'treatment'
p588
S'treatment'
p589
S'NN'
p590
S'I-NP'
p591
g17
tp592
a(S'groups'
p593
S'group'
p594
S'NNS'
p595
S'I-NP'
p596
g17
tp597
a(g141
g141
g141
g17
g17
tp598
a(S'although'
p599
S'although'
p600
S'IN'
p601
S'B-SBAR'
p602
g17
tp603
a(S'to'
p604
S'to'
p605
S'TO'
p606
S'B-PP'
p607
g17
tp608
a(g143
g143
S'DT'
p609
S'B-NP'
p610
g17
tp611
a(S'lesser'
p612
S'less'
p613
S'JJR'
p614
S'I-NP'
p615
g17
tp616
a(S'extent'
p617
S'extent'
p618
S'NN'
p619
S'I-NP'
p620
g17
tp621
a(S'in'
p622
S'in'
p623
S'IN'
p624
S'B-PP'
p625
g17
tp626
a(S'those'
p627
S'those'
p628
S'DT'
p629
S'B-NP'
p630
g17
tp631
a(S'receiving'
p632
S'receive'
p633
S'VBG'
p634
S'I-NP'
p635
g17
tp636
a(S'heparin.'
p637
S'heparin.'
p638
S'NN'
p639
S'I-NP'
p640
g17
tp641
a(S'Additional'
p642
S'Additional'
p643
S'JJ'
p644
S'I-NP'
p645
g17
tp646
a(S'evidence'
p647
S'evidence'
p648
S'NN'
p649
S'I-NP'
p650
g17
tp651
a(S'for'
p652
S'for'
p653
S'IN'
p654
S'B-PP'
p655
g17
tp656
a(S'intravascular'
p657
S'intravascular'
p658
S'JJ'
p659
S'B-NP'
p660
g17
tp661
a(S'coagulation'
p662
S'coagulation'
p663
S'NN'
p664
S'I-NP'
p665
g17
tp666
a(S'came'
p667
S'come'
p668
S'VBD'
p669
S'B-VP'
p670
g17
tp671
a(S'from'
p672
S'from'
p673
S'IN'
p674
S'B-PP'
p675
g17
tp676
a(S'the'
p677
S'the'
p678
S'DT'
p679
S'B-NP'
p680
g17
tp681
a(S'changes'
p682
S'change'
p683
S'NNS'
p684
S'I-NP'
p685
g17
tp686
a(S'observed'
p687
S'observe'
p688
S'VBN'
p689
S'B-VP'
p690
g17
tp691
a(S'in'
p692
S'in'
p693
S'IN'
p694
S'B-PP'
p695
g17
tp696
a(S'factor'
p697
S'factor'
p698
S'NN'
p699
S'B-NP'
p700
g17
tp701
a(S'VIII'
p702
S'VIII'
p703
S'CD'
p704
S'I-NP'
p705
g17
tp706
a(S'levels'
p707
S'level'
p708
S'NNS'
p709
S'I-NP'
p710
g17
tp711
a(S'which'
p712
S'which'
p713
S'WDT'
p714
S'B-NP'
p715
g17
tp716
a(g141
g141
g141
g17
g17
tp717
a(S'although'
p718
S'although'
p719
S'IN'
p720
S'B-SBAR'
p721
g17
tp722
a(S'initially'
p723
S'initially'
p724
S'RB'
p725
S'B-ADJP'
p726
g17
tp727
a(S'high'
p728
S'high'
p729
S'JJ'
p730
S'I-ADJP'
p731
g17
tp732
a(S'in'
p733
S'in'
p734
S'IN'
p735
S'B-PP'
p736
g17
tp737
a(S'all'
p738
S'all'
p739
S'DT'
p740
S'B-NP'
p741
g17
tp742
a(S'patients'
p743
S'patient'
p744
S'NNS'
p745
S'I-NP'
p746
g17
tp747
a(g141
g141
g141
g17
g17
tp748
a(S'fell'
p749
S'fall'
p750
S'VBD'
p751
S'B-VP'
p752
g17
tp753
a(S'subsequently'
p754
S'subsequently'
p755
S'RB'
p756
S'B-ADVP'
p757
g17
tp758
a(g141
g141
g141
g17
g17
tp759
a(S'particularly'
p760
S'particularly'
p761
S'RB'
p762
S'B-ADVP'
p763
g17
tp764
a(S'in'
p765
S'in'
p766
S'IN'
p767
S'B-PP'
p768
g17
tp769
a(S'those'
p770
S'those'
p771
S'DT'
p772
S'B-NP'
p773
g17
tp774
a(S'given'
p775
S'give'
p776
S'VBN'
p777
S'I-NP'
p778
g17
tp779
a(S'concentrate'
p780
S'concentrate'
p781
S'NN'
p782
S'I-NP'
p783
g17
tp784
a(S'alone.'
p785
S'alone.'
p786
S'RB'
p787
S'B-ADVP'
p788
g17
tp789
a(S'There'
p790
S'There'
p791
S'EX'
p792
S'B-NP'
p793
g17
tp794
a(S'was'
p795
S'be'
p796
S'VBD'
p797
S'B-VP'
p798
g17
tp799
a(S'some'
p800
S'some'
p801
S'DT'
p802
S'B-NP'
p803
g17
tp804
a(S'improvement'
p805
S'improvement'
p806
S'NN'
p807
S'I-NP'
p808
g17
tp809
a(S'in'
p810
S'in'
p811
S'IN'
p812
S'B-PP'
p813
g17
tp814
a(S'the'
p815
S'the'
p816
S'DT'
p817
S'B-NP'
p818
g17
tp819
a(S'prothrombin'
p820
S'prothrombin'
p821
S'NN'
p822
S'I-NP'
p823
g17
tp824
a(S'ratio'
p825
S'ratio'
p826
S'NN'
p827
S'I-NP'
p828
g17
tp829
a(S'in'
p830
S'in'
p831
S'IN'
p832
S'B-PP'
p833
g17
tp834
a(S'both'
p835
S'both'
p836
S'DT'
p837
S'B-NP'
p838
g17
tp839
a(S'groups'
p840
S'group'
p841
S'NNS'
p842
S'I-NP'
p843
g17
tp844
a(S'of'
p845
S'of'
p846
S'IN'
p847
S'B-PP'
p848
g17
tp849
a(S'patients'
p850
S'patient'
p851
S'NNS'
p852
S'B-NP'
p853
g17
tp854
a(S'but'
p855
S'but'
p856
S'CC'
p857
S'B-CONJP'
p858
g17
tp859
a(S'not'
p860
S'not'
p861
S'RB'
p862
S'I-CONJP'
p863
g17
tp864
a(S'complete'
p865
S'complete'
p866
S'JJ'
p867
S'B-NP'
p868
g17
tp869
a(S'correction'
p870
S'correction'
p871
S'NN'
p872
S'I-NP'
p873
g17
tp874
a(g141
g141
g141
g17
g17
tp875
a(S'and'
p876
S'and'
p877
S'CC'
p878
g17
g17
tp879
a(S'serial'
p880
S'serial'
p881
S'JJ'
p882
S'B-NP'
p883
g17
tp884
a(S'assays'
p885
S'assay'
p886
S'NNS'
p887
S'I-NP'
p888
g17
tp889
a(S'of'
p890
S'of'
p891
S'IN'
p892
S'B-PP'
p893
g17
tp894
a(S'clotting'
p895
S'clot'
p896
S'VBG'
p897
S'B-NP'
p898
S'B-protein'
p899
tp900
a(S'factors'
p901
S'factor'
p902
S'NNS'
p903
S'I-NP'
p904
S'I-protein'
p905
tp906
a(S'showed'
p907
S'show'
p908
S'VBD'
p909
S'B-VP'
p910
g17
tp911
a(S'that'
p912
S'that'
p913
S'IN'
p914
S'B-SBAR'
p915
g17
tp916
a(S'although'
p917
S'although'
p918
S'IN'
p919
S'B-SBAR'
p920
g17
tp921
a(S'factor'
p922
S'factor'
p923
S'NN'
p924
S'B-NP'
p925
g17
tp926
a(S'II'
p927
S'II'
p928
S'CD'
p929
S'I-NP'
p930
g17
tp931
a(S'rose'
p932
S'rise'
p933
S'VBD'
p934
S'B-VP'
p935
g17
tp936
a(S'to'
p937
S'to'
p938
S'TO'
p939
S'B-PP'
p940
g17
tp941
a(S'high'
p942
S'high'
p943
S'JJ'
p944
S'B-NP'
p945
g17
tp946
a(S'levels'
p947
S'level'
p948
S'NNS'
p949
S'I-NP'
p950
g17
tp951
a(S'during'
p952
S'during'
p953
S'IN'
p954
S'B-PP'
p955
g17
tp956
a(S'treatment'
p957
S'treatment'
p958
S'NN'
p959
S'B-NP'
p960
g17
tp961
a(g141
g141
g141
g17
g17
tp962
a(S'factors'
p963
S'factor'
p964
S'NNS'
p965
S'B-NP'
p966
g17
tp967
a(S'IX'
p968
S'IX'
p969
S'CD'
p970
S'B-NP'
p971
g17
tp972
a(S'and'
p973
S'and'
p974
S'CC'
p975
g17
g17
tp976
a(S'X'
p977
g977
S'NN'
p978
S'B-NP'
p979
g17
tp980
a(S'showed'
p981
S'show'
p982
S'VBD'
p983
S'B-VP'
p984
g17
tp985
a(S'little'
p986
S'little'
p987
S'JJ'
p988
S'B-NP'
p989
g17
tp990
a(S'response.'
p991
S'response.'
p992
S'NN'
p993
S'I-NP'
p994
g17
tp995
a(S'Thus'
p996
S'Thus'
p997
S'RB'
p998
S'B-ADVP'
p999
g17
tp1000
a(g141
g141
g141
g17
g17
tp1001
a(S'the'
p1002
S'the'
p1003
S'DT'
p1004
S'B-NP'
p1005
g17
tp1006
a(S'use'
p1007
S'use'
p1008
S'NN'
p1009
S'I-NP'
p1010
g17
tp1011
a(S'of'
p1012
S'of'
p1013
S'IN'
p1014
S'B-PP'
p1015
g17
tp1016
a(S'concentrate'
p1017
S'concentrate'
p1018
S'NN'
p1019
S'B-NP'
p1020
g17
tp1021
a(S'of'
p1022
S'of'
p1023
S'IN'
p1024
S'B-PP'
p1025
g17
tp1026
a(S'factor'
p1027
S'factor'
p1028
S'NN'
p1029
S'B-NP'
p1030
g17
tp1031
a(S'IX'
p1032
S'IX'
p1033
S'CD'
p1034
S'I-NP'
p1035
g17
tp1036
a(S'in'
p1037
S'in'
p1038
S'IN'
p1039
S'B-PP'
p1040
g17
tp1041
a(S'this'
p1042
S'this'
p1043
S'DT'
p1044
S'B-NP'
p1045
g17
tp1046
a(S'trial'
p1047
S'trial'
p1048
S'NN'
p1049
S'I-NP'
p1050
g17
tp1051
a(g141
g141
g141
g17
g17
tp1052
a(S'as'
p1053
S'as'
p1054
S'RB'
p1055
S'B-CONJP'
p1056
g17
tp1057
a(S'well'
p1058
S'well'
p1059
S'RB'
p1060
S'I-CONJP'
p1061
g17
tp1062
a(S'as'
p1063
S'as'
p1064
S'IN'
p1065
S'I-CONJP'
p1066
g17
tp1067
a(S'potentiating'
p1068
S'potentiate'
p1069
S'VBG'
p1070
S'B-VP'
p1071
g17
tp1072
a(S'intravascular'
p1073
S'intravascular'
p1074
S'JJ'
p1075
S'B-NP'
p1076
g17
tp1077
a(S'coagulation'
p1078
S'coagulation'
p1079
S'NN'
p1080
S'I-NP'
p1081
g17
tp1082
a(g141
g141
g141
g17
g17
tp1083
a(S'was'
p1084
S'be'
p1085
S'VBD'
p1086
S'B-VP'
p1087
g17
tp1088
a(S'inadequate'
p1089
S'inadequate'
p1090
S'JJ'
p1091
S'B-ADJP'
p1092
g17
tp1093
a(S'as'
p1094
S'as'
p1095
S'IN'
p1096
S'B-PP'
p1097
g17
tp1098
a(S'replacement'
p1099
S'replacement'
p1100
S'NN'
p1101
S'B-NP'
p1102
g17
tp1103
a(S'for'
p1104
S'for'
p1105
S'IN'
p1106
S'B-PP'
p1107
g17
tp1108
a(S'the'
p1109
S'the'
p1110
S'DT'
p1111
S'B-NP'
p1112
g17
tp1113
a(S'clotting'
p1114
S'clotting'
p1115
S'NN'
p1116
S'I-NP'
p1117
g17
tp1118
a(S'factor'
p1119
S'factor'
p1120
S'NN'
p1121
S'I-NP'
p1122
g17
tp1123
a(S'deficiencies'
p1124
S'deficiency'
p1125
S'NNS'
p1126
S'I-NP'
p1127
g17
tp1128
a(g74
g74
g74
g17
g17
tp1129
a.