(lp0
(S'Concurrent'
p1
S'Concurrent'
p2
S'JJ'
p3
S'B-NP'
p4
S'O'
p5
tp6
a(S'alcohol'
p7
S'alcohol'
p8
S'NN'
p9
S'I-NP'
p10
g5
tp11
a(S'dependence'
p12
S'dependence'
p13
S'NN'
p14
S'I-NP'
p15
g5
tp16
a(S'among'
p17
S'among'
p18
S'IN'
p19
S'B-PP'
p20
g5
tp21
a(S'methadone-maintained'
p22
S'methadone-maintained'
p23
S'JJ'
p24
S'B-NP'
p25
g5
tp26
a(S'cocaine'
p27
S'cocaine'
p28
S'NN'
p29
S'I-NP'
p30
g5
tp31
a(S'abusers'
p32
S'abuser'
p33
S'NNS'
p34
S'I-NP'
p35
g5
tp36
a(S'is'
p37
S'be'
p38
S'VBZ'
p39
S'B-VP'
p40
g5
tp41
a(S'associated'
p42
S'associate'
p43
S'VBN'
p44
S'I-VP'
p45
g5
tp46
a(S'with'
p47
S'with'
p48
S'IN'
p49
S'B-PP'
p50
g5
tp51
a(S'greater'
p52
S'great'
p53
S'JJR'
p54
S'B-NP'
p55
g5
tp56
a(S'abstinence'
p57
S'abstinence'
p58
S'NN'
p59
S'I-NP'
p60
g5
tp61
a(S'.'
p62
g62
g62
g5
g5
tp63
a(S'Concurrent'
p64
S'Concurrent'
p65
S'JJ'
p66
S'B-NP'
p67
g5
tp68
a(S'alcohol'
p69
S'alcohol'
p70
S'NN'
p71
S'I-NP'
p72
g5
tp73
a(S'dependence'
p74
S'dependence'
p75
S'NN'
p76
S'I-NP'
p77
g5
tp78
a(S'('
p79
g79
g79
g5
g5
tp80
a(S'AD'
p81
S'AD'
p82
S'NN'
p83
S'B-NP'
p84
g5
tp85
a(S')'
p86
g86
g86
g5
g5
tp87
a(S'among'
p88
S'among'
p89
S'IN'
p90
S'B-PP'
p91
g5
tp92
a(S'polysubstance'
p93
S'polysubstance'
p94
S'NN'
p95
S'B-NP'
p96
g5
tp97
a(S'abusers'
p98
S'abuser'
p99
S'NNS'
p100
S'I-NP'
p101
g5
tp102
a(S'has'
p103
S'have'
p104
S'VBZ'
p105
S'B-VP'
p106
g5
tp107
a(S'been'
p108
S'be'
p109
S'VBN'
p110
S'I-VP'
p111
g5
tp112
a(S'associated'
p113
S'associate'
p114
S'VBN'
p115
S'I-VP'
p116
g5
tp117
a(S'with'
p118
S'with'
p119
S'IN'
p120
S'B-PP'
p121
g5
tp122
a(S'negative'
p123
S'negative'
p124
S'JJ'
p125
S'B-NP'
p126
g5
tp127
a(S'consequences'
p128
S'consequence'
p129
S'NNS'
p130
S'I-NP'
p131
g5
tp132
a(S','
p133
g133
g133
g5
g5
tp134
a(S'although'
p135
S'although'
p136
S'IN'
p137
S'B-SBAR'
p138
g5
tp139
a(S'it'
p140
S'it'
p141
S'PRP'
p142
S'B-NP'
p143
g5
tp144
a(S'may'
p145
S'may'
p146
S'MD'
p147
S'B-VP'
p148
g5
tp149
a(S'not'
p150
S'not'
p151
S'RB'
p152
S'I-VP'
p153
g5
tp154
a(S'necessarily'
p155
S'necessarily'
p156
S'RB'
p157
S'I-VP'
p158
g5
tp159
a(S'lead'
p160
S'lead'
p161
S'VB'
p162
S'I-VP'
p163
g5
tp164
a(S'to'
p165
S'to'
p166
S'TO'
p167
S'B-PP'
p168
g5
tp169
a(S'poor'
p170
S'poor'
p171
S'JJ'
p172
S'B-NP'
p173
g5
tp174
a(S'treatment'
p175
S'treatment'
p176
S'NN'
p177
S'I-NP'
p178
g5
tp179
a(S'outcomes.'
p180
S'outcomes.'
p181
S'NN'
p182
S'I-NP'
p183
g5
tp184
a(S'One'
p185
S'One'
p186
S'CD'
p187
S'I-NP'
p188
g5
tp189
a(S'of'
p190
S'of'
p191
S'IN'
p192
S'B-PP'
p193
g5
tp194
a(S'the'
p195
S'the'
p196
S'DT'
p197
S'B-NP'
p198
g5
tp199
a(S'most'
p200
S'most'
p201
S'RBS'
p202
S'I-NP'
p203
g5
tp204
a(S'efficacious'
p205
S'efficacious'
p206
S'JJ'
p207
S'I-NP'
p208
g5
tp209
a(S'treatments'
p210
S'treatment'
p211
S'NNS'
p212
S'I-NP'
p213
g5
tp214
a(S'for'
p215
S'for'
p216
S'IN'
p217
S'B-PP'
p218
g5
tp219
a(S'cocaine'
p220
S'cocaine'
p221
S'NN'
p222
S'B-NP'
p223
g5
tp224
a(S'abuse'
p225
S'abuse'
p226
S'NN'
p227
S'I-NP'
p228
g5
tp229
a(S'is'
p230
S'be'
p231
S'VBZ'
p232
S'B-VP'
p233
g5
tp234
a(S'contingency'
p235
S'contingency'
p236
S'NN'
p237
S'B-NP'
p238
g5
tp239
a(S'management'
p240
S'management'
p241
S'NN'
p242
S'I-NP'
p243
g5
tp244
a(g79
g79
g79
g5
g5
tp245
a(S'CM'
p246
S'CM'
p247
S'NN'
p248
S'B-NP'
p249
g5
tp250
a(g86
g86
g86
g5
g5
tp251
a(g133
g133
g133
g5
g5
tp252
a(S'but'
p253
S'but'
p254
S'CC'
p255
g5
g5
tp256
a(S'little'
p257
S'little'
p258
S'JJ'
p259
S'B-NP'
p260
g5
tp261
a(S'research'
p262
S'research'
p263
S'NN'
p264
S'I-NP'
p265
g5
tp266
a(S'has'
p267
S'have'
p268
S'VBZ'
p269
S'B-VP'
p270
g5
tp271
a(S'explored'
p272
S'explore'
p273
S'VBN'
p274
S'I-VP'
p275
g5
tp276
a(S'the'
p277
S'the'
p278
S'DT'
p279
S'B-NP'
p280
g5
tp281
a(S'impact'
p282
S'impact'
p283
S'NN'
p284
S'I-NP'
p285
g5
tp286
a(S'of'
p287
S'of'
p288
S'IN'
p289
S'B-PP'
p290
g5
tp291
a(S'AD'
p292
S'AD'
p293
S'NN'
p294
S'B-NP'
p295
g5
tp296
a(S'on'
p297
S'on'
p298
S'IN'
p299
S'B-PP'
p300
g5
tp301
a(S'abstinence'
p302
S'abstinence'
p303
S'NN'
p304
S'B-NP'
p305
g5
tp306
a(S'outcomes'
p307
S'outcome'
p308
S'NNS'
p309
S'I-NP'
p310
g5
tp311
a(g133
g133
g133
g5
g5
tp312
a(S'particularly'
p313
S'particularly'
p314
S'RB'
p315
S'B-ADVP'
p316
g5
tp317
a(S'among'
p318
S'among'
p319
S'IN'
p320
S'B-PP'
p321
g5
tp322
a(S'patients'
p323
S'patient'
p324
S'NNS'
p325
S'B-NP'
p326
g5
tp327
a(S'in'
p328
S'in'
p329
S'IN'
p330
S'B-PP'
p331
g5
tp332
a(S'methadone'
p333
S'methadone'
p334
S'NN'
p335
S'B-NP'
p336
g5
tp337
a(S'maintenance.'
p338
S'maintenance.'
p339
S'NN'
p340
S'I-NP'
p341
g5
tp342
a(S'Using'
p343
S'Use'
p344
S'VBG'
p345
S'B-VP'
p346
g5
tp347
a(S'data'
p348
S'datum'
p349
S'NNS'
p350
S'B-NP'
p351
g5
tp352
a(S'from'
p353
S'from'
p354
S'IN'
p355
S'B-PP'
p356
g5
tp357
a(S'three'
p358
S'three'
p359
S'CD'
p360
S'B-NP'
p361
g5
tp362
a(S'trials'
p363
S'trial'
p364
S'NNS'
p365
S'I-NP'
p366
g5
tp367
a(S'of'
p368
S'of'
p369
S'IN'
p370
S'B-PP'
p371
g5
tp372
a(S'CM'
p373
S'CM'
p374
S'NN'
p375
S'B-NP'
p376
g5
tp377
a(S'for'
p378
S'for'
p379
S'IN'
p380
S'B-PP'
p381
g5
tp382
a(S'cocaine'
p383
S'cocaine'
p384
S'NN'
p385
S'B-NP'
p386
g5
tp387
a(S'use'
p388
S'use'
p389
S'NN'
p390
S'I-NP'
p391
g5
tp392
a(g133
g133
g133
g5
g5
tp393
a(S'we'
p394
S'we'
p395
S'PRP'
p396
S'B-NP'
p397
g5
tp398
a(S'compared'
p399
S'compare'
p400
S'VBD'
p401
S'B-VP'
p402
g5
tp403
a(S'baseline'
p404
S'baseline'
p405
S'NN'
p406
S'B-NP'
p407
g5
tp408
a(S'characteristics'
p409
S'characteristic'
p410
S'NNS'
p411
S'I-NP'
p412
g5
tp413
a(S'and'
p414
S'and'
p415
S'CC'
p416
g5
g5
tp417
a(S'posttreatment'
p418
S'posttreatment'
p419
S'NN'
p420
S'B-NP'
p421
g5
tp422
a(S'and'
p423
S'and'
p424
S'CC'
p425
g5
g5
tp426
a(S'follow-up'
p427
S'follow-up'
p428
S'JJ'
p429
S'B-NP'
p430
g5
tp431
a(S'cocaine'
p432
S'cocaine'
p433
S'NN'
p434
S'I-NP'
p435
g5
tp436
a(S'outcomes'
p437
S'outcome'
p438
S'VBZ'
p439
S'B-VP'
p440
g5
tp441
a(S'between'
p442
S'between'
p443
S'IN'
p444
S'B-PP'
p445
g5
tp446
a(S'methadone-maintained'
p447
S'methadone-maintained'
p448
S'JJ'
p449
S'B-NP'
p450
g5
tp451
a(g133
g133
g133
S'I-NP'
p452
g5
tp453
a(S'cocaine-dependent'
p454
S'cocaine-dependent'
p455
S'JJ'
p456
S'I-NP'
p457
g5
tp458
a(S'patients'
p459
S'patient'
p460
S'NNS'
p461
S'I-NP'
p462
g5
tp463
a(g79
g79
g79
g5
g5
tp464
a(S'N'
p465
g465
S'NN'
p466
S'B-NP'
p467
g5
tp468
a(S'='
p469
g469
S'SYM'
p470
S'B-VP'
p471
g5
tp472
a(S'193'
p473
S'193'
p474
S'CD'
p475
S'B-NP'
p476
g5
tp477
a(g86
g86
g86
g5
g5
tp478
a(S'with'
p479
S'with'
p480
S'IN'
p481
S'B-PP'
p482
g5
tp483
a(S'and'
p484
S'and'
p485
S'CC'
p486
g5
g5
tp487
a(S'without'
p488
S'without'
p489
S'IN'
p490
S'B-PP'
p491
g5
tp492
a(S'concurrent'
p493
S'concurrent'
p494
S'JJ'
p495
S'B-NP'
p496
g5
tp497
a(S'AD'
p498
S'AD'
p499
S'NN'
p500
S'I-NP'
p501
g5
tp502
a(g133
g133
g133
g5
g5
tp503
a(S'randomized'
p504
S'randomize'
p505
S'VBN'
p506
S'B-VP'
p507
g5
tp508
a(S'to'
p509
S'to'
p510
S'TO'
p511
S'B-PP'
p512
g5
tp513
a(S'standard'
p514
S'standard'
p515
S'JJ'
p516
S'B-NP'
p517
g5
tp518
a(S'care'
p519
S'care'
p520
S'NN'
p521
S'I-NP'
p522
g5
tp523
a(g79
g79
g79
g5
g5
tp524
a(S'SC'
p525
S'SC'
p526
S'NN'
p527
S'B-NP'
p528
g5
tp529
a(g86
g86
g86
g5
g5
tp530
a(S'with'
p531
S'with'
p532
S'IN'
p533
S'B-PP'
p534
g5
tp535
a(S'or'
p536
S'or'
p537
S'CC'
p538
S'B-PP'
p539
g5
tp540
a(S'without'
p541
S'without'
p542
S'IN'
p543
S'B-PP'
p544
g5
tp545
a(S'CM.'
p546
S'CM.'
p547
S'NNP'
p548
S'B-NP'
p549
g5
tp550
a(S'Patients'
p551
S'Patient'
p552
S'NNPS'
p553
S'I-NP'
p554
g5
tp555
a(S'with'
p556
S'with'
p557
S'IN'
p558
S'B-PP'
p559
g5
tp560
a(S'and'
p561
S'and'
p562
S'CC'
p563
S'B-PP'
p564
g5
tp565
a(S'without'
p566
S'without'
p567
S'IN'
p568
S'B-PP'
p569
g5
tp570
a(S'concurrent'
p571
S'concurrent'
p572
S'JJ'
p573
S'B-NP'
p574
g5
tp575
a(S'AD'
p576
S'AD'
p577
S'NN'
p578
S'I-NP'
p579
g5
tp580
a(S'had'
p581
S'have'
p582
S'VBD'
p583
S'B-VP'
p584
g5
tp585
a(S'similar'
p586
S'similar'
p587
S'JJ'
p588
S'B-NP'
p589
g5
tp590
a(S'baseline'
p591
S'baseline'
p592
S'NN'
p593
S'I-NP'
p594
g5
tp595
a(S'characteristics'
p596
S'characteristic'
p597
S'NNS'
p598
S'I-NP'
p599
g5
tp600
a(g133
g133
g133
g5
g5
tp601
a(S'with'
p602
S'with'
p603
S'IN'
p604
S'B-PP'
p605
g5
tp606
a(S'the'
p607
S'the'
p608
S'DT'
p609
S'B-NP'
p610
g5
tp611
a(S'exception'
p612
S'exception'
p613
S'NN'
p614
S'I-NP'
p615
g5
tp616
a(S'that'
p617
S'that'
p618
S'IN'
p619
S'B-SBAR'
p620
g5
tp621
a(S'AD'
p622
S'AD'
p623
S'NN'
p624
S'B-NP'
p625
g5
tp626
a(S'patients'
p627
S'patient'
p628
S'NNS'
p629
S'I-NP'
p630
g5
tp631
a(S'reported'
p632
S'report'
p633
S'VBD'
p634
S'B-VP'
p635
g5
tp636
a(S'more'
p637
S'more'
p638
S'JJR'
p639
S'B-NP'
p640
g5
tp641
a(S'alcohol'
p642
S'alcohol'
p643
S'NN'
p644
S'I-NP'
p645
g5
tp646
a(S'use.'
p647
S'use.'
p648
S'NN'
p649
S'I-NP'
p650
g5
tp651
a(S'AD'
p652
S'AD'
p653
S'NN'
p654
S'I-NP'
p655
g5
tp656
a(S'patients'
p657
S'patient'
p658
S'NNS'
p659
S'I-NP'
p660
g5
tp661
a(S'achieved'
p662
S'achieve'
p663
S'VBD'
p664
S'B-VP'
p665
g5
tp666
a(S'longer'
p667
S'long'
p668
S'JJR'
p669
S'B-NP'
p670
g5
tp671
a(S'durations'
p672
S'duration'
p673
S'NNS'
p674
S'I-NP'
p675
g5
tp676
a(S'of'
p677
S'of'
p678
S'IN'
p679
S'B-PP'
p680
g5
tp681
a(S'cocaine'
p682
S'cocaine'
p683
S'NN'
p684
S'B-NP'
p685
g5
tp686
a(S'abstinence'
p687
S'abstinence'
p688
S'NN'
p689
S'I-NP'
p690
g5
tp691
a(S'and'
p692
S'and'
p693
S'CC'
p694
g5
g5
tp695
a(S'were'
p696
S'be'
p697
S'VBD'
p698
S'B-VP'
p699
g5
tp700
a(S'more'
p701
S'more'
p702
S'RBR'
p703
S'B-ADJP'
p704
g5
tp705
a(S'likely'
p706
S'likely'
p707
S'JJ'
p708
S'I-ADJP'
p709
g5
tp710
a(S'to'
p711
S'to'
p712
S'TO'
p713
S'B-VP'
p714
g5
tp715
a(S'submit'
p716
S'submit'
p717
S'VB'
p718
S'I-VP'
p719
g5
tp720
a(S'a'
p721
g721
S'DT'
p722
S'B-NP'
p723
g5
tp724
a(S'cocaine-negative'
p725
S'cocaine-negative'
p726
S'JJ'
p727
S'I-NP'
p728
g5
tp729
a(S'sample'
p730
S'sample'
p731
S'NN'
p732
S'I-NP'
p733
g5
tp734
a(S'at'
p735
S'at'
p736
S'IN'
p737
S'B-PP'
p738
g5
tp739
a(S'follow-up'
p740
S'follow-up'
p741
S'NN'
p742
S'B-NP'
p743
g5
tp744
a(S'than'
p745
S'than'
p746
S'IN'
p747
S'B-PP'
p748
g5
tp749
a(S'non-AD'
p750
S'non-AD'
p751
S'JJ'
p752
S'B-NP'
p753
g5
tp754
a(S'patients.'
p755
S'patients.'
p756
S'NN'
p757
S'I-NP'
p758
g5
tp759
a(S'Patients'
p760
S'Patient'
p761
S'NNS'
p762
S'I-NP'
p763
g5
tp764
a(S'randomized'
p765
S'randomize'
p766
S'VBN'
p767
S'B-VP'
p768
g5
tp769
a(S'to'
p770
S'to'
p771
S'TO'
p772
S'B-PP'
p773
g5
tp774
a(S'CM'
p775
S'CM'
p776
S'NN'
p777
S'B-NP'
p778
S'B-DNA'
p779
tp780
a(S'achieved'
p781
S'achieve'
p782
S'VBD'
p783
S'B-VP'
p784
S'I-DNA'
p785
tp786
a(S'better'
p787
S'good'
p788
S'JJR'
p789
S'B-NP'
p790
S'I-DNA'
p791
tp792
a(S'outcomes'
p793
S'outcome'
p794
S'NNS'
p795
S'I-NP'
p796
S'I-DNA'
p797
tp798
a(S'than'
p799
S'than'
p800
S'IN'
p801
S'B-PP'
p802
g5
tp803
a(S'those'
p804
S'those'
p805
S'DT'
p806
S'B-NP'
p807
g5
tp808
a(S'randomized'
p809
S'randomize'
p810
S'VBN'
p811
S'B-VP'
p812
g5
tp813
a(S'to'
p814
S'to'
p815
S'TO'
p816
S'B-PP'
p817
g5
tp818
a(S'SC'
p819
S'SC'
p820
S'NNP'
p821
S'B-NP'
p822
g5
tp823
a(g133
g133
g133
g5
g5
tp824
a(S'but'
p825
S'but'
p826
S'CC'
p827
g5
g5
tp828
a(S'there'
p829
S'there'
p830
S'EX'
p831
S'B-NP'
p832
g5
tp833
a(S'was'
p834
S'be'
p835
S'VBD'
p836
S'B-VP'
p837
g5
tp838
a(S'no'
p839
S'no'
p840
S'DT'
p841
S'B-NP'
p842
g5
tp843
a(S'interaction'
p844
S'interaction'
p845
S'NN'
p846
S'I-NP'
p847
g5
tp848
a(S'between'
p849
S'between'
p850
S'IN'
p851
S'B-PP'
p852
g5
tp853
a(S'treatment'
p854
S'treatment'
p855
S'NN'
p856
S'B-NP'
p857
g5
tp858
a(S'condition'
p859
S'condition'
p860
S'NN'
p861
S'I-NP'
p862
g5
tp863
a(S'and'
p864
S'and'
p865
S'CC'
p866
S'I-NP'
p867
g5
tp868
a(S'AD'
p869
S'AD'
p870
S'NN'
p871
S'I-NP'
p872
g5
tp873
a(S'status.'
p874
S'status.'
p875
S'NNS'
p876
S'I-NP'
p877
g5
tp878
a(S'These'
p879
S'These'
p880
S'DT'
p881
S'B-NP'
p882
g5
tp883
a(S'findings'
p884
S'finding'
p885
S'NNS'
p886
S'I-NP'
p887
g5
tp888
a(S'suggest'
p889
S'suggest'
p890
S'VBP'
p891
S'B-VP'
p892
g5
tp893
a(S'that'
p894
S'that'
p895
S'IN'
p896
S'B-SBAR'
p897
g5
tp898
a(S'cocaine-using'
p899
S'cocaine-using'
p900
S'JJ'
p901
S'B-NP'
p902
g5
tp903
a(S'methadone'
p904
S'methadone'
p905
S'NN'
p906
S'I-NP'
p907
g5
tp908
a(S'patients'
p909
S'patient'
p910
S'NNS'
p911
S'I-NP'
p912
g5
tp913
a(S'with'
p914
S'with'
p915
S'IN'
p916
S'B-PP'
p917
g5
tp918
a(S'AD'
p919
S'AD'
p920
S'NN'
p921
S'B-NP'
p922
g5
tp923
a(S'achieve'
p924
S'achieve'
p925
S'VBP'
p926
S'B-VP'
p927
g5
tp928
a(S'greater'
p929
S'great'
p930
S'JJR'
p931
S'B-NP'
p932
g5
tp933
a(S'cocaine'
p934
S'cocaine'
p935
S'NN'
p936
S'I-NP'
p937
g5
tp938
a(S'abstinence'
p939
S'abstinence'
p940
S'NN'
p941
S'I-NP'
p942
g5
tp943
a(S'than'
p944
S'than'
p945
S'IN'
p946
S'B-PP'
p947
g5
tp948
a(S'their'
p949
S'their'
p950
S'PRP$'
p951
S'B-NP'
p952
g5
tp953
a(S'non-AD'
p954
S'non-AD'
p955
S'JJ'
p956
S'I-NP'
p957
g5
tp958
a(S'counterparts'
p959
S'counterpart'
p960
S'NNS'
p961
S'I-NP'
p962
g5
tp963
a(S'and'
p964
S'and'
p965
S'CC'
p966
g5
g5
tp967
a(S'should'
p968
S'should'
p969
S'MD'
p970
S'B-VP'
p971
g5
tp972
a(S'not'
p973
S'not'
p974
S'RB'
p975
S'I-VP'
p976
g5
tp977
a(S'necessarily'
p978
S'necessarily'
p979
S'RB'
p980
S'I-VP'
p981
g5
tp982
a(S'be'
p983
S'be'
p984
S'VB'
p985
S'I-VP'
p986
g5
tp987
a(S'viewed'
p988
S'view'
p989
S'VBN'
p990
S'I-VP'
p991
g5
tp992
a(S'as'
p993
S'as'
p994
S'IN'
p995
S'B-PP'
p996
g5
tp997
a(S'more'
p998
S'more'
p999
S'RBR'
p1000
S'B-ADJP'
p1001
g5
tp1002
a(S'difficult'
p1003
S'difficult'
p1004
S'JJ'
p1005
S'I-ADJP'
p1006
g5
tp1007
a(S'to'
p1008
S'to'
p1009
S'TO'
p1010
S'B-VP'
p1011
g5
tp1012
a(S'treat'
p1013
S'treat'
p1014
S'VB'
p1015
S'I-VP'
p1016
g5
tp1017
a(g62
g62
g62
g5
g5
tp1018
a.