(lp0
(S'['
p1
g1
S'('
p2
S'O'
p3
g3
tp4
a(S'A'
p5
g5
S'DT'
p6
S'B-NP'
p7
g3
tp8
a(S'prospective'
p9
S'prospective'
p10
S'JJ'
p11
S'I-NP'
p12
g3
tp13
a(S'randomized'
p14
S'randomize'
p15
S'VBN'
p16
S'I-NP'
p17
g3
tp18
a(S'study'
p19
S'study'
p20
S'NN'
p21
S'I-NP'
p22
g3
tp23
a(S'of'
p24
S'of'
p25
S'IN'
p26
S'B-PP'
p27
g3
tp28
a(S'the'
p29
S'the'
p30
S'DT'
p31
S'B-NP'
p32
g3
tp33
a(S'radiotherapy'
p34
S'radiotherapy'
p35
S'NN'
p36
S'I-NP'
p37
g3
tp38
a(S'volume'
p39
S'volume'
p40
S'NN'
p41
S'I-NP'
p42
g3
tp43
a(S'for'
p44
S'for'
p45
S'IN'
p46
S'B-PP'
p47
g3
tp48
a(S'limited-stage'
p49
S'limited-stage'
p50
S'JJ'
p51
S'B-NP'
p52
g3
tp53
a(S'small'
p54
S'small'
p55
S'JJ'
p56
S'I-NP'
p57
g3
tp58
a(S'cell'
p59
S'cell'
p60
S'NN'
p61
S'I-NP'
p62
g3
tp63
a(S'lung'
p64
S'lung'
p65
S'NN'
p66
S'I-NP'
p67
g3
tp68
a(S'cancer'
p69
S'cancer'
p70
S'NN'
p71
S'I-NP'
p72
g3
tp73
a(S':'
p74
g74
g74
g3
g3
tp75
a(S'a'
p76
g76
S'DT'
p77
S'B-NP'
p78
g3
tp79
a(S'preliminary'
p80
S'preliminary'
p81
S'JJ'
p82
S'I-NP'
p83
g3
tp84
a(S'report'
p85
S'report'
p86
S'NN'
p87
S'I-NP'
p88
g3
tp89
a(S']'
p90
g90
S')'
p91
g3
g3
tp92
a(S'.'
p93
g93
g93
g3
g3
tp94
a(S'BACKGROUND'
p95
S'BACKGROUND'
p96
S'NN'
p97
S'B-NP'
p98
g3
tp99
a(S'AND'
p100
S'AND'
p101
S'CC'
p102
S'I-NP'
p103
g3
tp104
a(S'OBJECTIVE'
p105
S'OBJECTIVE'
p106
S'NN'
p107
S'I-NP'
p108
g3
tp109
a(S'Controversies'
p110
S'Controversy'
p111
S'NNS'
p112
S'I-NP'
p113
g3
tp114
a(S'exists'
p115
S'exist'
p116
S'VBZ'
p117
S'B-VP'
p118
g3
tp119
a(S'with'
p120
S'with'
p121
S'IN'
p122
S'B-PP'
p123
g3
tp124
a(S'regard'
p125
S'regard'
p126
S'NN'
p127
S'B-NP'
p128
g3
tp129
a(S'to'
p130
S'to'
p131
S'TO'
p132
S'B-PP'
p133
g3
tp134
a(S'target'
p135
S'target'
p136
S'NN'
p137
S'B-NP'
p138
g3
tp139
a(S'volumes'
p140
S'volume'
p141
S'NNS'
p142
S'I-NP'
p143
g3
tp144
a(S'as'
p145
S'as'
p146
S'RB'
p147
S'B-ADVP'
p148
g3
tp149
a(S'far'
p150
S'far'
p151
S'RB'
p152
S'I-ADVP'
p153
g3
tp154
a(S'as'
p155
S'as'
p156
S'IN'
p157
S'B-SBAR'
p158
g3
tp159
a(S'thoracic'
p160
S'thoracic'
p161
S'JJ'
p162
S'B-NP'
p163
g3
tp164
a(S'radiotherapy'
p165
S'radiotherapy'
p166
S'NN'
p167
S'I-NP'
p168
g3
tp169
a(g2
g2
g2
g3
g3
tp170
a(S'TRT'
p171
S'TRT'
p172
S'NN'
p173
S'B-NP'
p174
S'B-protein'
p175
tp176
a(g91
g91
g91
g3
g3
tp177
a(S'is'
p178
S'be'
p179
S'VBZ'
p180
S'B-VP'
p181
g3
tp182
a(S'concerned'
p183
S'concern'
p184
S'VBN'
p185
S'I-VP'
p186
g3
tp187
a(S'in'
p188
S'in'
p189
S'IN'
p190
S'B-PP'
p191
g3
tp192
a(S'the'
p193
S'the'
p194
S'DT'
p195
S'B-NP'
p196
g3
tp197
a(S'multimodality'
p198
S'multimodality'
p199
S'JJ'
p200
S'I-NP'
p201
g3
tp202
a(S'treatment'
p203
S'treatment'
p204
S'NN'
p205
S'I-NP'
p206
g3
tp207
a(S'for'
p208
S'for'
p209
S'IN'
p210
S'B-PP'
p211
g3
tp212
a(S'limited-stage'
p213
S'limited-stage'
p214
S'JJ'
p215
S'B-NP'
p216
g3
tp217
a(S'small'
p218
S'small'
p219
S'JJ'
p220
S'I-NP'
p221
g3
tp222
a(S'cell'
p223
S'cell'
p224
S'NN'
p225
S'I-NP'
p226
g3
tp227
a(S'lung'
p228
S'lung'
p229
S'NN'
p230
S'I-NP'
p231
g3
tp232
a(S'cancer'
p233
S'cancer'
p234
S'NN'
p235
S'I-NP'
p236
g3
tp237
a(g2
g2
g2
g3
g3
tp238
a(S'LSCLC'
p239
S'LSCLC'
p240
S'NN'
p241
S'B-NP'
p242
S'B-protein'
p243
tp244
a(g91
g91
g91
g3
g3
tp245
a(g93
g93
g93
g3
g3
tp246
a(S'The'
p247
S'The'
p248
S'DT'
p249
S'B-NP'
p250
g3
tp251
a(S'aim'
p252
S'aim'
p253
S'NN'
p254
S'I-NP'
p255
g3
tp256
a(S'of'
p257
S'of'
p258
S'IN'
p259
S'B-PP'
p260
g3
tp261
a(S'this'
p262
S'this'
p263
S'DT'
p264
S'B-NP'
p265
g3
tp266
a(S'study'
p267
S'study'
p268
S'NN'
p269
S'I-NP'
p270
g3
tp271
a(S'is'
p272
S'be'
p273
S'VBZ'
p274
S'B-VP'
p275
g3
tp276
a(S'to'
p277
S'to'
p278
S'TO'
p279
S'B-VP'
p280
g3
tp281
a(S'prospectively'
p282
S'prospectively'
p283
S'RB'
p284
S'I-VP'
p285
g3
tp286
a(S'compare'
p287
S'compare'
p288
S'VB'
p289
S'I-VP'
p290
g3
tp291
a(S'the'
p292
S'the'
p293
S'DT'
p294
S'B-NP'
p295
g3
tp296
a(S'local'
p297
S'local'
p298
S'JJ'
p299
S'I-NP'
p300
g3
tp301
a(S'control'
p302
S'control'
p303
S'NN'
p304
S'I-NP'
p305
g3
tp306
a(S'rate'
p307
S'rate'
p308
S'NN'
p309
S'I-NP'
p310
g3
tp311
a(S','
p312
g312
g312
g3
g3
tp313
a(S'toxicity'
p314
S'toxicity'
p315
S'NN'
p316
S'B-NP'
p317
g3
tp318
a(S'profiles'
p319
S'profile'
p320
S'NNS'
p321
S'I-NP'
p322
g3
tp323
a(g312
g312
g312
g3
g3
tp324
a(S'and'
p325
S'and'
p326
S'CC'
p327
g3
g3
tp328
a(S'overall'
p329
S'overall'
p330
S'JJ'
p331
S'B-NP'
p332
g3
tp333
a(S'survival'
p334
S'survival'
p335
S'NN'
p336
S'I-NP'
p337
g3
tp338
a(g2
g2
g2
g3
g3
tp339
a(S'OS'
p340
S'OS'
p341
S'NN'
p342
S'B-NP'
p343
g3
tp344
a(g91
g91
g91
g3
g3
tp345
a(S'between'
p346
S'between'
p347
S'IN'
p348
S'B-PP'
p349
g3
tp350
a(S'patients'
p351
S'patient'
p352
S'NNS'
p353
S'B-NP'
p354
g3
tp355
a(S'received'
p356
S'receive'
p357
S'VBD'
p358
S'B-VP'
p359
g3
tp360
a(S'different'
p361
S'different'
p362
S'JJ'
p363
S'B-NP'
p364
g3
tp365
a(S'target'
p366
S'target'
p367
S'NN'
p368
S'I-NP'
p369
g3
tp370
a(S'volumes'
p371
S'volume'
p372
S'VBZ'
p373
S'B-VP'
p374
g3
tp375
a(S'irradiation'
p376
S'irradiation'
p377
S'NN'
p378
S'B-NP'
p379
g3
tp380
a(S'after'
p381
S'after'
p382
S'IN'
p383
S'B-PP'
p384
g3
tp385
a(S'induction'
p386
S'induction'
p387
S'NN'
p388
S'B-NP'
p389
g3
tp390
a(S'chemotherapy'
p391
S'chemotherapy'
p392
S'NN'
p393
S'I-NP'
p394
g3
tp395
a(g93
g93
g93
g3
g3
tp396
a(S'METHODS'
p397
S'METHODS'
p398
S'NNS'
p399
S'B-NP'
p400
g3
tp401
a(S'LSCLC'
p402
S'LSCLC'
p403
S'NN'
p404
S'I-NP'
p405
g3
tp406
a(S'patients'
p407
S'patient'
p408
S'NNS'
p409
S'I-NP'
p410
g3
tp411
a(S'received'
p412
S'receive'
p413
S'VBD'
p414
S'B-VP'
p415
g3
tp416
a(S'2'
p417
g417
S'CD'
p418
S'B-NP'
p419
g3
tp420
a(S'cycles'
p421
S'cycle'
p422
S'NNS'
p423
S'I-NP'
p424
g3
tp425
a(S'of'
p426
S'of'
p427
S'IN'
p428
S'B-PP'
p429
g3
tp430
a(S'etoposide'
p431
S'etoposide'
p432
S'NN'
p433
S'B-NP'
p434
g3
tp435
a(S'and'
p436
S'and'
p437
S'CC'
p438
g3
g3
tp439
a(S'cisplatin'
p440
S'cisplatin'
p441
S'NN'
p442
S'B-NP'
p443
g3
tp444
a(g2
g2
g2
g3
g3
tp445
a(S'EP'
p446
S'EP'
p447
S'NN'
p448
S'B-NP'
p449
S'B-protein'
p450
tp451
a(g91
g91
g91
g3
g3
tp452
a(S'induction'
p453
S'induction'
p454
S'NN'
p455
S'B-NP'
p456
g3
tp457
a(S'chemotherapy'
p458
S'chemotherapy'
p459
S'NN'
p460
S'I-NP'
p461
g3
tp462
a(S'and'
p463
S'and'
p464
S'CC'
p465
g3
g3
tp466
a(S'were'
p467
S'be'
p468
S'VBD'
p469
S'B-VP'
p470
g3
tp471
a(S'randomly'
p472
S'randomly'
p473
S'RB'
p474
S'I-VP'
p475
g3
tp476
a(S'assigned'
p477
S'assign'
p478
S'VBN'
p479
S'I-VP'
p480
g3
tp481
a(S'to'
p482
S'to'
p483
S'TO'
p484
S'I-VP'
p485
g3
tp486
a(S'receive'
p487
S'receive'
p488
S'VB'
p489
S'I-VP'
p490
g3
tp491
a(S'TRT'
p492
S'TRT'
p493
S'NN'
p494
S'B-NP'
p495
S'B-protein'
p496
tp497
a(S'to'
p498
S'to'
p499
S'TO'
p500
S'B-PP'
p501
g3
tp502
a(S'either'
p503
S'either'
p504
S'CC'
p505
g3
g3
tp506
a(S'the'
p507
S'the'
p508
S'DT'
p509
S'B-NP'
p510
g3
tp511
a(S'post-'
p512
S'post-'
p513
S'JJ'
p514
S'I-NP'
p515
g3
tp516
a(S'or'
p517
S'or'
p518
S'CC'
p519
S'I-NP'
p520
g3
tp521
a(S'pre-chemotherapy'
p522
S'pre-chemotherapy'
p523
S'JJ'
p524
S'I-NP'
p525
g3
tp526
a(S'tumor'
p527
S'tumor'
p528
S'NN'
p529
S'I-NP'
p530
g3
tp531
a(S'extent'
p532
S'extent'
p533
S'NN'
p534
S'I-NP'
p535
g3
tp536
a(g2
g2
g2
g3
g3
tp537
a(S'GTV-T'
p538
S'GTV-T'
p539
S'NN'
p540
S'B-NP'
p541
g3
tp542
a(g91
g91
g91
g3
g3
tp543
a(S'as'
p544
S'as'
p545
S'IN'
p546
S'B-PP'
p547
g3
tp548
a(S'study'
p549
S'study'
p550
S'NN'
p551
S'B-NP'
p552
g3
tp553
a(S'arm'
p554
S'arm'
p555
S'NN'
p556
S'I-NP'
p557
g3
tp558
a(S'and'
p559
S'and'
p560
S'CC'
p561
g3
g3
tp562
a(S'control'
p563
S'control'
p564
S'NN'
p565
S'B-NP'
p566
g3
tp567
a(S'arm'
p568
S'arm'
p569
S'NN'
p570
S'I-NP'
p571
g3
tp572
a(g312
g312
g312
g3
g3
tp573
a(S'CTV-N'
p574
S'CTV-N'
p575
S'NN'
p576
S'B-NP'
p577
S'B-protein'
p578
tp579
a(S'included'
p580
S'include'
p581
S'VBD'
p582
S'B-VP'
p583
g3
tp584
a(S'the'
p585
S'the'
p586
S'DT'
p587
S'B-NP'
p588
g3
tp589
a(S'positive'
p590
S'positive'
p591
S'JJ'
p592
S'I-NP'
p593
g3
tp594
a(S'nodal'
p595
S'nodal'
p596
S'JJ'
p597
S'I-NP'
p598
g3
tp599
a(S'drainage'
p600
S'drainage'
p601
S'NN'
p602
S'I-NP'
p603
g3
tp604
a(S'area'
p605
S'area'
p606
S'NN'
p607
S'I-NP'
p608
g3
tp609
a(S'for'
p610
S'for'
p611
S'IN'
p612
S'B-PP'
p613
g3
tp614
a(S'both'
p615
S'both'
p616
S'DT'
p617
S'B-NP'
p618
g3
tp619
a(S'arms.'
p620
S'arms.'
p621
S'NNS'
p622
S'I-NP'
p623
g3
tp624
a(S'One'
p625
S'One'
p626
S'CD'
p627
S'B-NP'
p628
g3
tp629
a(S'to'
p630
S'to'
p631
S'TO'
p632
S'I-NP'
p633
g3
tp634
a(g417
g417
S'CD'
p635
S'I-NP'
p636
g3
tp637
a(S'weeks'
p638
S'week'
p639
S'NNS'
p640
S'I-NP'
p641
g3
tp642
a(S'after'
p643
S'after'
p644
S'IN'
p645
S'B-PP'
p646
g3
tp647
a(S'induction'
p648
S'induction'
p649
S'NN'
p650
S'B-NP'
p651
g3
tp652
a(S'chemotherapy'
p653
S'chemotherapy'
p654
S'NN'
p655
S'I-NP'
p656
g3
tp657
a(g312
g312
g312
g3
g3
tp658
a(S'45'
p659
S'45'
p660
S'CD'
p661
S'B-NP'
p662
g3
tp663
a(S'Gy/30'
p664
S'Gy/30'
p665
S'NN'
p666
S'I-NP'
p667
g3
tp668
a(S'Fx/19'
p669
S'Fx/19'
p670
S'NN'
p671
S'I-NP'
p672
g3
tp673
a(S'd'
p674
g674
S'NN'
p675
S'I-NP'
p676
g3
tp677
a(S'TRT'
p678
S'TRT'
p679
S'NN'
p680
S'I-NP'
p681
g3
tp682
a(S'was'
p683
S'be'
p684
S'VBD'
p685
S'B-VP'
p686
g3
tp687
a(S'administered'
p688
S'administer'
p689
S'VBN'
p690
S'I-VP'
p691
g3
tp692
a(S'concurrently'
p693
S'concurrently'
p694
S'RB'
p695
S'B-ADVP'
p696
g3
tp697
a(S'with'
p698
S'with'
p699
S'IN'
p700
S'B-PP'
p701
g3
tp702
a(S'the'
p703
S'the'
p704
S'DT'
p705
S'B-NP'
p706
g3
tp707
a(S'third'
p708
S'third'
p709
S'JJ'
p710
S'I-NP'
p711
g3
tp712
a(S'cycle'
p713
S'cycle'
p714
S'NN'
p715
S'I-NP'
p716
g3
tp717
a(S'of'
p718
S'of'
p719
S'IN'
p720
S'B-PP'
p721
g3
tp722
a(S'EP'
p723
S'EP'
p724
S'NN'
p725
S'B-NP'
p726
g3
tp727
a(S'regimen.'
p728
S'regimen.'
p729
S'NN'
p730
S'I-NP'
p731
g3
tp732
a(S'After'
p733
S'After'
p734
S'IN'
p735
S'B-PP'
p736
g3
tp737
a(S'that'
p738
S'that'
p739
S'DT'
p740
S'B-NP'
p741
g3
tp742
a(g312
g312
g312
g3
g3
tp743
a(S'additional'
p744
S'additional'
p745
S'JJ'
p746
S'B-NP'
p747
g3
tp748
a(S'3'
p749
g749
S'CD'
p750
S'I-NP'
p751
g3
tp752
a(S'cycles'
p753
S'cycle'
p754
S'NNS'
p755
S'I-NP'
p756
g3
tp757
a(S'of'
p758
S'of'
p759
S'IN'
p760
S'B-PP'
p761
g3
tp762
a(S'EP'
p763
S'EP'
p764
S'NN'
p765
S'B-NP'
p766
g3
tp767
a(S'consolidation'
p768
S'consolidation'
p769
S'NN'
p770
S'I-NP'
p771
g3
tp772
a(S'were'
p773
S'be'
p774
S'VBD'
p775
S'B-VP'
p776
g3
tp777
a(S'administered.'
p778
S'administered.'
p779
S'VBN'
p780
S'I-VP'
p781
g3
tp782
a(S'Prophylactic'
p783
S'Prophylactic'
p784
S'JJ'
p785
S'B-NP'
p786
g3
tp787
a(S'cranial'
p788
S'cranial'
p789
S'JJ'
p790
S'I-NP'
p791
g3
tp792
a(S'irradiation'
p793
S'irradiation'
p794
S'NN'
p795
S'I-NP'
p796
g3
tp797
a(g2
g2
g2
g3
g3
tp798
a(S'PCI'
p799
S'PCI'
p800
S'NN'
p801
S'B-NP'
p802
S'B-protein'
p803
tp804
a(g91
g91
g91
g3
g3
tp805
a(S'was'
p806
S'be'
p807
S'VBD'
p808
S'B-VP'
p809
g3
tp810
a(S'administered'
p811
S'administer'
p812
S'VBN'
p813
S'I-VP'
p814
g3
tp815
a(S'to'
p816
S'to'
p817
S'TO'
p818
S'B-PP'
p819
g3
tp820
a(S'patients'
p821
S'patient'
p822
S'NNS'
p823
S'B-NP'
p824
g3
tp825
a(S'with'
p826
S'with'
p827
S'IN'
p828
S'B-PP'
p829
g3
tp830
a(g76
g76
S'DT'
p831
S'B-NP'
p832
g3
tp833
a(S'complete'
p834
S'complete'
p835
S'JJ'
p836
S'I-NP'
p837
g3
tp838
a(S'response'
p839
S'response'
p840
S'NN'
p841
S'I-NP'
p842
g3
tp843
a(g93
g93
g93
g3
g3
tp844
a(S'RESULTS'
p845
S'RESULTS'
p846
S'NNS'
p847
S'B-NP'
p848
g3
tp849
a(S'Thirty-seven'
p850
S'Thirty-seven'
p851
S'CD'
p852
S'I-NP'
p853
g3
tp854
a(S'and'
p855
S'and'
p856
S'CC'
p857
S'I-NP'
p858
g3
tp859
a(S'40'
p860
S'40'
p861
S'CD'
p862
S'I-NP'
p863
g3
tp864
a(S'patients'
p865
S'patient'
p866
S'NNS'
p867
S'I-NP'
p868
g3
tp869
a(S'were'
p870
S'be'
p871
S'VBD'
p872
S'B-VP'
p873
g3
tp874
a(S'randomly'
p875
S'randomly'
p876
S'RB'
p877
S'I-VP'
p878
g3
tp879
a(S'assigned'
p880
S'assign'
p881
S'VBN'
p882
S'I-VP'
p883
g3
tp884
a(S'to'
p885
S'to'
p886
S'TO'
p887
S'I-VP'
p888
g3
tp889
a(S'study'
p890
S'study'
p891
S'VB'
p892
S'I-VP'
p893
g3
tp894
a(S'arm'
p895
S'arm'
p896
S'NN'
p897
S'B-NP'
p898
g3
tp899
a(S'and'
p900
S'and'
p901
S'CC'
p902
S'I-NP'
p903
g3
tp904
a(S'control'
p905
S'control'
p906
S'NN'
p907
S'I-NP'
p908
g3
tp909
a(S'arm.'
p910
S'arm.'
p911
S'VBP'
p912
S'B-VP'
p913
g3
tp914
a(S'The'
p915
S'The'
p916
S'DT'
p917
S'B-NP'
p918
g3
tp919
a(S'local'
p920
S'local'
p921
S'JJ'
p922
S'I-NP'
p923
g3
tp924
a(S'recurrence'
p925
S'recurrence'
p926
S'NN'
p927
S'I-NP'
p928
g3
tp929
a(S'rates'
p930
S'rate'
p931
S'NNS'
p932
S'I-NP'
p933
g3
tp934
a(S'were'
p935
S'be'
p936
S'VBD'
p937
S'B-VP'
p938
g3
tp939
a(S'32.4'
p940
S'32.4'
p941
S'CD'
p942
S'B-NP'
p943
g3
tp944
a(S'%'
p945
g945
S'NN'
p946
S'I-NP'
p947
g3
tp948
a(S'and'
p949
S'and'
p950
S'CC'
p951
g3
g3
tp952
a(S'28.2'
p953
S'28.2'
p954
S'CD'
p955
S'B-NP'
p956
g3
tp957
a(g945
g945
S'NN'
p958
S'I-NP'
p959
g3
tp960
a(S'respectively'
p961
S'respectively'
p962
S'RB'
p963
S'B-ADVP'
p964
g3
tp965
a(g2
g2
g2
g3
g3
tp966
a(S'P'
p967
g967
S'NN'
p968
S'B-NP'
p969
g3
tp970
a(S'='
p971
g971
S'SYM'
p972
S'B-VP'
p973
g3
tp974
a(S'0.80'
p975
S'0.80'
p976
S'CD'
p977
S'B-NP'
p978
g3
tp979
a(g91
g91
g91
g3
g3
tp980
a(S';'
p981
g981
g74
g3
g3
tp982
a(S'the'
p983
S'the'
p984
S'DT'
p985
S'B-NP'
p986
g3
tp987
a(S'isolated'
p988
S'isolate'
p989
S'VBN'
p990
S'I-NP'
p991
g3
tp992
a(S'nodal'
p993
S'nodal'
p994
S'JJ'
p995
S'I-NP'
p996
g3
tp997
a(S'failure'
p998
S'failure'
p999
S'NN'
p1000
S'I-NP'
p1001
g3
tp1002
a(g2
g2
g2
g3
g3
tp1003
a(S'INF'
p1004
S'INF'
p1005
S'NN'
p1006
S'B-NP'
p1007
g3
tp1008
a(g91
g91
g91
g3
g3
tp1009
a(S'rates'
p1010
S'rate'
p1011
S'NNS'
p1012
S'B-NP'
p1013
g3
tp1014
a(S'were'
p1015
S'be'
p1016
S'VBD'
p1017
S'B-VP'
p1018
g3
tp1019
a(S'3.0'
p1020
S'3.0'
p1021
S'CD'
p1022
S'B-NP'
p1023
g3
tp1024
a(g945
g945
S'NN'
p1025
S'I-NP'
p1026
g3
tp1027
a(S'and'
p1028
S'and'
p1029
S'CC'
p1030
g3
g3
tp1031
a(S'2.6'
p1032
S'2.6'
p1033
S'CD'
p1034
S'B-NP'
p1035
g3
tp1036
a(g945
g945
S'NN'
p1037
S'I-NP'
p1038
g3
tp1039
a(S'respectively'
p1040
S'respectively'
p1041
S'RB'
p1042
S'B-ADVP'
p1043
g3
tp1044
a(g2
g2
g2
g3
g3
tp1045
a(g967
g967
S'NN'
p1046
S'B-NP'
p1047
g3
tp1048
a(g971
g971
S'SYM'
p1049
S'B-VP'
p1050
g3
tp1051
a(S'0.91'
p1052
S'0.91'
p1053
S'CD'
p1054
S'B-NP'
p1055
g3
tp1056
a(g91
g91
g91
g3
g3
tp1057
a(g981
g981
g74
g3
g3
tp1058
a(S'all'
p1059
S'all'
p1060
S'DT'
p1061
S'B-NP'
p1062
g3
tp1063
a(S'INF'
p1064
S'INF'
p1065
S'NN'
p1066
S'I-NP'
p1067
S'B-DNA'
p1068
tp1069
a(S'sites'
p1070
S'site'
p1071
S'NNS'
p1072
S'I-NP'
p1073
S'I-DNA'
p1074
tp1075
a(S'were'
p1076
S'be'
p1077
S'VBD'
p1078
S'B-VP'
p1079
g3
tp1080
a(S'in'
p1081
S'in'
p1082
S'IN'
p1083
S'B-PP'
p1084
g3
tp1085
a(S'the'
p1086
S'the'
p1087
S'DT'
p1088
S'B-NP'
p1089
g3
tp1090
a(S'ipsilateral'
p1091
S'ipsilateral'
p1092
S'JJ'
p1093
S'I-NP'
p1094
g3
tp1095
a(S'supraclavicular'
p1096
S'supraclavicular'
p1097
S'JJ'
p1098
S'I-NP'
p1099
g3
tp1100
a(S'fossa.'
p1101
S'fossa.'
p1102
S'JJ'
p1103
S'I-NP'
p1104
g3
tp1105
a(S'Medastinal'
p1106
S'Medastinal'
p1107
S'JJ'
p1108
S'I-NP'
p1109
g3
tp1110
a(S'N3'
p1111
S'N3'
p1112
S'NN'
p1113
S'I-NP'
p1114
g3
tp1115
a(S'disease'
p1116
S'disease'
p1117
S'NN'
p1118
S'I-NP'
p1119
g3
tp1120
a(S'was'
p1121
S'be'
p1122
S'VBD'
p1123
S'B-VP'
p1124
g3
tp1125
a(S'the'
p1126
S'the'
p1127
S'DT'
p1128
S'B-NP'
p1129
g3
tp1130
a(S'risk'
p1131
S'risk'
p1132
S'NN'
p1133
S'I-NP'
p1134
g3
tp1135
a(S'factor'
p1136
S'factor'
p1137
S'NN'
p1138
S'I-NP'
p1139
g3
tp1140
a(S'for'
p1141
S'for'
p1142
S'IN'
p1143
S'B-PP'
p1144
g3
tp1145
a(S'INF'
p1146
S'INF'
p1147
S'NN'
p1148
S'B-NP'
p1149
g3
tp1150
a(g2
g2
g2
g3
g3
tp1151
a(g967
g967
S'NN'
p1152
S'B-NP'
p1153
g3
tp1154
a(g971
g971
S'SYM'
p1155
S'B-VP'
p1156
g3
tp1157
a(S'0.02'
p1158
S'0.02'
p1159
S'CD'
p1160
S'B-NP'
p1161
g3
tp1162
a(g312
g312
g312
g3
g3
tp1163
a(S'OR'
p1164
S'OR'
p1165
S'NN'
p1166
S'B-NP'
p1167
g3
tp1168
a(g971
g971
S'SYM'
p1169
S'B-VP'
p1170
g3
tp1171
a(S'14.13'
p1172
S'14.13'
p1173
S'CD'
p1174
S'B-NP'
p1175
g3
tp1176
a(g312
g312
g312
g3
g3
tp1177
a(S'95'
p1178
S'95'
p1179
S'CD'
p1180
S'B-NP'
p1181
g3
tp1182
a(g945
g945
S'NN'
p1183
S'I-NP'
p1184
g3
tp1185
a(S'CI'
p1186
S'CI'
p1187
S'NN'
p1188
S'I-NP'
p1189
g3
tp1190
a(g74
g74
g74
g3
g3
tp1191
a(S'1.47-136.13'
p1192
S'1.47-136.13'
p1193
S'CD'
p1194
S'B-NP'
p1195
g3
tp1196
a(g91
g91
g91
g3
g3
tp1197
a(g93
g93
g93
g3
g3
tp1198
a(S'During'
p1199
S'During'
p1200
S'IN'
p1201
S'B-PP'
p1202
g3
tp1203
a(S'radiotherapy'
p1204
S'radiotherapy'
p1205
S'NN'
p1206
S'B-NP'
p1207
g3
tp1208
a(g312
g312
g312
g3
g3
tp1209
a(S'grade'
p1210
S'grade'
p1211
S'NN'
p1212
S'B-NP'
p1213
S'B-DNA'
p1214
tp1215
a(S'I'
p1216
g1216
S'CD'
p1217
S'I-NP'
p1218
S'I-DNA'
p1219
tp1220
a(g312
g312
g312
S'I-NP'
p1221
g3
tp1222
a(S'II'
p1223
S'II'
p1224
S'CD'
p1225
S'I-NP'
p1226
g3
tp1227
a(S'weight'
p1228
S'weight'
p1229
S'NN'
p1230
S'I-NP'
p1231
g3
tp1232
a(S'loss'
p1233
S'loss'
p1234
S'NN'
p1235
S'I-NP'
p1236
g3
tp1237
a(S'was'
p1238
S'be'
p1239
S'VBD'
p1240
S'B-VP'
p1241
g3
tp1242
a(S'observed'
p1243
S'observe'
p1244
S'VBN'
p1245
S'I-VP'
p1246
g3
tp1247
a(S'in'
p1248
S'in'
p1249
S'IN'
p1250
S'B-PP'
p1251
g3
tp1252
a(S'29.4'
p1253
S'29.4'
p1254
S'CD'
p1255
S'B-NP'
p1256
g3
tp1257
a(g945
g945
S'NN'
p1258
S'I-NP'
p1259
g3
tp1260
a(g312
g312
g312
g3
g3
tp1261
a(S'5.9'
p1262
S'5.9'
p1263
S'CD'
p1264
S'B-NP'
p1265
g3
tp1266
a(g945
g945
S'NN'
p1267
S'I-NP'
p1268
g3
tp1269
a(S'and'
p1270
S'and'
p1271
S'CC'
p1272
g3
g3
tp1273
a(S'56.4'
p1274
S'56.4'
p1275
S'CD'
p1276
S'B-NP'
p1277
g3
tp1278
a(g945
g945
S'NN'
p1279
S'I-NP'
p1280
g3
tp1281
a(g312
g312
g312
g3
g3
tp1282
a(S'7.7'
p1283
S'7.7'
p1284
S'CD'
p1285
S'B-NP'
p1286
g3
tp1287
a(g945
g945
S'NN'
p1288
S'I-NP'
p1289
g3
tp1290
a(S'patients'
p1291
S'patient'
p1292
S'NNS'
p1293
S'I-NP'
p1294
g3
tp1295
a(S'respectively'
p1296
S'respectively'
p1297
S'RB'
p1298
S'B-ADVP'
p1299
g3
tp1300
a(g2
g2
g2
g3
g3
tp1301
a(g967
g967
S'NN'
p1302
S'B-NP'
p1303
g3
tp1304
a(g971
g971
S'SYM'
p1305
S'B-VP'
p1306
g3
tp1307
a(S'0.04'
p1308
S'0.04'
p1309
S'CD'
p1310
S'B-NP'
p1311
g3
tp1312
a(g91
g91
g91
g3
g3
tp1313
a(g93
g93
g93
g3
g3
tp1314
a(S'Grade'
p1315
S'Grade'
p1316
S'NNP'
p1317
S'B-NP'
p1318
g3
tp1319
a(S'0-I'
p1320
S'0-I'
p1321
S'NNP'
p1322
S'I-NP'
p1323
g3
tp1324
a(S'and'
p1325
S'and'
p1326
S'CC'
p1327
g3
g3
tp1328
a(S'II-III'
p1329
S'II-III'
p1330
S'NNP'
p1331
S'B-NP'
p1332
g3
tp1333
a(S'late'
p1334
S'late'
p1335
S'JJ'
p1336
S'I-NP'
p1337
g3
tp1338
a(S'pulmonary'
p1339
S'pulmonary'
p1340
S'JJ'
p1341
S'I-NP'
p1342
g3
tp1343
a(S'injury'
p1344
S'injury'
p1345
S'NN'
p1346
S'I-NP'
p1347
g3
tp1348
a(S'was'
p1349
S'be'
p1350
S'VBD'
p1351
S'B-VP'
p1352
g3
tp1353
a(S'developed'
p1354
S'develop'
p1355
S'VBN'
p1356
S'I-VP'
p1357
g3
tp1358
a(S'in'
p1359
S'in'
p1360
S'IN'
p1361
S'B-PP'
p1362
g3
tp1363
a(S'97.1'
p1364
S'97.1'
p1365
S'CD'
p1366
S'B-NP'
p1367
g3
tp1368
a(g945
g945
S'NN'
p1369
S'I-NP'
p1370
g3
tp1371
a(g312
g312
g312
g3
g3
tp1372
a(S'2.9'
p1373
S'2.9'
p1374
S'CD'
p1375
S'B-NP'
p1376
g3
tp1377
a(g945
g945
S'NN'
p1378
S'I-NP'
p1379
g3
tp1380
a(S'and'
p1381
S'and'
p1382
S'CC'
p1383
g3
g3
tp1384
a(S'86.4'
p1385
S'86.4'
p1386
S'CD'
p1387
S'B-NP'
p1388
g3
tp1389
a(g945
g945
S'NN'
p1390
S'I-NP'
p1391
g3
tp1392
a(g312
g312
g312
g3
g3
tp1393
a(S'15.4'
p1394
S'15.4'
p1395
S'CD'
p1396
S'B-NP'
p1397
g3
tp1398
a(g945
g945
S'NN'
p1399
S'I-NP'
p1400
g3
tp1401
a(S'patients'
p1402
S'patient'
p1403
S'NNS'
p1404
S'I-NP'
p1405
g3
tp1406
a(S'respectively'
p1407
S'respectively'
p1408
S'RB'
p1409
S'B-ADVP'
p1410
g3
tp1411
a(g2
g2
g2
g3
g3
tp1412
a(g967
g967
S'NN'
p1413
S'B-NP'
p1414
g3
tp1415
a(g971
g971
S'SYM'
p1416
S'B-VP'
p1417
g3
tp1418
a(S'0.07'
p1419
S'0.07'
p1420
S'CD'
p1421
S'B-NP'
p1422
g3
tp1423
a(g91
g91
g91
g3
g3
tp1424
a(g93
g93
g93
g3
g3
tp1425
a(S'Median'
p1426
S'Median'
p1427
S'JJ'
p1428
S'B-NP'
p1429
g3
tp1430
a(S'survival'
p1431
S'survival'
p1432
S'NN'
p1433
S'I-NP'
p1434
g3
tp1435
a(S'time'
p1436
S'time'
p1437
S'NN'
p1438
S'I-NP'
p1439
g3
tp1440
a(S'was'
p1441
S'be'
p1442
S'VBD'
p1443
S'B-VP'
p1444
g3
tp1445
a(S'22.1'
p1446
S'22.1'
p1447
S'CD'
p1448
S'B-NP'
p1449
g3
tp1450
a(S'months'
p1451
S'month'
p1452
S'NNS'
p1453
S'I-NP'
p1454
g3
tp1455
a(S'and'
p1456
S'and'
p1457
S'CC'
p1458
g3
g3
tp1459
a(S'26.9'
p1460
S'26.9'
p1461
S'CD'
p1462
S'B-NP'
p1463
g3
tp1464
a(S'months'
p1465
S'month'
p1466
S'NNS'
p1467
S'I-NP'
p1468
g3
tp1469
a(S'respectively.'
p1470
S'respectively.'
p1471
S'VBP'
p1472
S'B-VP'
p1473
g3
tp1474
a(S'The'
p1475
S'The'
p1476
S'DT'
p1477
S'B-NP'
p1478
g3
tp1479
a(S'1'
p1480
g1480
S'CD'
p1481
S'I-NP'
p1482
g3
tp1483
a(S'to'
p1484
S'to'
p1485
S'TO'
p1486
S'B-PP'
p1487
g3
tp1488
a(S'3-year'
p1489
S'3-year'
p1490
S'JJ'
p1491
S'B-NP'
p1492
g3
tp1493
a(S'OS'
p1494
S'OS'
p1495
S'NN'
p1496
S'I-NP'
p1497
g3
tp1498
a(S'were'
p1499
S'be'
p1500
S'VBD'
p1501
S'B-VP'
p1502
g3
tp1503
a(S'77.9'
p1504
S'77.9'
p1505
S'CD'
p1506
S'B-NP'
p1507
g3
tp1508
a(g945
g945
S'NN'
p1509
S'I-NP'
p1510
g3
tp1511
a(g312
g312
g312
g3
g3
tp1512
a(S'44.4'
p1513
S'44.4'
p1514
S'CD'
p1515
S'B-NP'
p1516
g3
tp1517
a(g945
g945
S'NN'
p1518
S'I-NP'
p1519
g3
tp1520
a(g312
g312
g312
g3
g3
tp1521
a(S'37.3'
p1522
S'37.3'
p1523
S'CD'
p1524
S'B-NP'
p1525
g3
tp1526
a(g945
g945
S'NN'
p1527
S'I-NP'
p1528
g3
tp1529
a(S'and'
p1530
S'and'
p1531
S'CC'
p1532
g3
g3
tp1533
a(S'75.8'
p1534
S'75.8'
p1535
S'CD'
p1536
S'B-NP'
p1537
g3
tp1538
a(g945
g945
S'NN'
p1539
S'I-NP'
p1540
g3
tp1541
a(g312
g312
g312
g3
g3
tp1542
a(S'56.3'
p1543
S'56.3'
p1544
S'CD'
p1545
S'B-NP'
p1546
g3
tp1547
a(g945
g945
S'NN'
p1548
S'I-NP'
p1549
g3
tp1550
a(g312
g312
g312
g3
g3
tp1551
a(S'41.7'
p1552
S'41.7'
p1553
S'CD'
p1554
S'B-NP'
p1555
g3
tp1556
a(g945
g945
S'NN'
p1557
S'I-NP'
p1558
g3
tp1559
a(S'respectively'
p1560
S'respectively'
p1561
S'RB'
p1562
S'B-ADVP'
p1563
g3
tp1564
a(g2
g2
g2
g3
g3
tp1565
a(g967
g967
S'NN'
p1566
S'B-NP'
p1567
g3
tp1568
a(g971
g971
S'SYM'
p1569
S'B-VP'
p1570
g3
tp1571
a(S'0.79'
p1572
S'0.79'
p1573
S'CD'
p1574
S'B-NP'
p1575
g3
tp1576
a(g91
g91
g91
g3
g3
tp1577
a(g93
g93
g93
g3
g3
tp1578
a(S'CONCLUSIONS'
p1579
S'CONCLUSIONS'
p1580
S'NNS'
p1581
S'B-NP'
p1582
g3
tp1583
a(S'The'
p1584
S'The'
p1585
S'DT'
p1586
S'B-NP'
p1587
g3
tp1588
a(S'preliminary'
p1589
S'preliminary'
p1590
S'JJ'
p1591
S'I-NP'
p1592
g3
tp1593
a(S'results'
p1594
S'result'
p1595
S'NNS'
p1596
S'I-NP'
p1597
g3
tp1598
a(S'of'
p1599
S'of'
p1600
S'IN'
p1601
S'B-PP'
p1602
g3
tp1603
a(S'this'
p1604
S'this'
p1605
S'DT'
p1606
S'B-NP'
p1607
g3
tp1608
a(S'study'
p1609
S'study'
p1610
S'NN'
p1611
S'I-NP'
p1612
g3
tp1613
a(S'indicate'
p1614
S'indicate'
p1615
S'VBP'
p1616
S'B-VP'
p1617
g3
tp1618
a(S'that'
p1619
S'that'
p1620
S'IN'
p1621
S'B-SBAR'
p1622
g3
tp1623
a(S'irradiant'
p1624
S'irradiant'
p1625
S'JJ'
p1626
S'B-ADJP'
p1627
g3
tp1628
a(S'the'
p1629
S'the'
p1630
S'DT'
p1631
S'B-NP'
p1632
g3
tp1633
a(S'post-chemotherapy'
p1634
S'post-chemotherapy'
p1635
S'JJ'
p1636
S'I-NP'
p1637
g3
tp1638
a(S'tumor'
p1639
S'tumor'
p1640
S'NN'
p1641
S'I-NP'
p1642
g3
tp1643
a(S'extent'
p1644
S'extent'
p1645
S'NN'
p1646
S'I-NP'
p1647
g3
tp1648
a(g2
g2
g2
g3
g3
tp1649
a(S'GTV-T'
p1650
S'GTV-T'
p1651
S'NN'
p1652
S'B-NP'
p1653
S'B-protein'
p1654
tp1655
a(g91
g91
g91
g3
g3
tp1656
a(S'and'
p1657
S'and'
p1658
S'CC'
p1659
g3
g3
tp1660
a(S'positive'
p1661
S'positive'
p1662
S'JJ'
p1663
S'B-NP'
p1664
g3
tp1665
a(S'nodal'
p1666
S'nodal'
p1667
S'JJ'
p1668
S'I-NP'
p1669
g3
tp1670
a(S'drainage'
p1671
S'drainage'
p1672
S'NN'
p1673
S'I-NP'
p1674
g3
tp1675
a(S'area'
p1676
S'area'
p1677
S'NN'
p1678
S'I-NP'
p1679
g3
tp1680
a(S'did'
p1681
S'do'
p1682
S'VBD'
p1683
S'B-VP'
p1684
g3
tp1685
a(S'not'
p1686
S'not'
p1687
S'RB'
p1688
S'I-VP'
p1689
g3
tp1690
a(S'decrease'
p1691
S'decrease'
p1692
S'VB'
p1693
S'I-VP'
p1694
g3
tp1695
a(S'local'
p1696
S'local'
p1697
S'JJ'
p1698
S'B-NP'
p1699
g3
tp1700
a(S'control'
p1701
S'control'
p1702
S'NN'
p1703
S'I-NP'
p1704
g3
tp1705
a(S'and'
p1706
S'and'
p1707
S'CC'
p1708
g3
g3
tp1709
a(S'overall'
p1710
S'overall'
p1711
S'JJ'
p1712
S'B-NP'
p1713
g3
tp1714
a(S'survival'
p1715
S'survival'
p1716
S'NN'
p1717
S'I-NP'
p1718
g3
tp1719
a(S'while'
p1720
S'while'
p1721
S'IN'
p1722
S'B-SBAR'
p1723
g3
tp1724
a(S'radiation'
p1725
S'radiation'
p1726
S'NN'
p1727
S'B-NP'
p1728
g3
tp1729
a(S'toxicity'
p1730
S'toxicity'
p1731
S'NN'
p1732
S'I-NP'
p1733
g3
tp1734
a(S'was'
p1735
S'be'
p1736
S'VBD'
p1737
S'B-VP'
p1738
g3
tp1739
a(S'reduced.'
p1740
S'reduced.'
p1741
S'NN'
p1742
S'B-NP'
p1743
g3
tp1744
a(S'But'
p1745
S'But'
p1746
S'CC'
p1747
g3
g3
tp1748
a(S'the'
p1749
S'the'
p1750
S'DT'
p1751
S'B-NP'
p1752
g3
tp1753
a(S'current'
p1754
S'current'
p1755
S'JJ'
p1756
S'I-NP'
p1757
g3
tp1758
a(S'sample'
p1759
S'sample'
p1760
S'NN'
p1761
S'I-NP'
p1762
g3
tp1763
a(S'size'
p1764
S'size'
p1765
S'NN'
p1766
S'I-NP'
p1767
g3
tp1768
a(S'has'
p1769
S'have'
p1770
S'VBZ'
p1771
S'B-VP'
p1772
g3
tp1773
a(S'not'
p1774
S'not'
p1775
S'RB'
p1776
S'I-VP'
p1777
g3
tp1778
a(S'met'
p1779
S'meet'
p1780
S'VBN'
p1781
S'I-VP'
p1782
g3
tp1783
a(S'designed'
p1784
S'design'
p1785
S'VBN'
p1786
S'B-NP'
p1787
g3
tp1788
a(S'requirements'
p1789
S'requirement'
p1790
S'NNS'
p1791
S'I-NP'
p1792
g3
tp1793
a(g312
g312
g312
g3
g3
tp1794
a(S'and'
p1795
S'and'
p1796
S'CC'
p1797
g3
g3
tp1798
a(S'further'
p1799
S'further'
p1800
S'JJ'
p1801
S'B-NP'
p1802
g3
tp1803
a(S'investigation'
p1804
S'investigation'
p1805
S'NN'
p1806
S'I-NP'
p1807
g3
tp1808
a(S'is'
p1809
S'be'
p1810
S'VBZ'
p1811
S'B-VP'
p1812
g3
tp1813
a(S'warranted'
p1814
S'warrant'
p1815
S'VBN'
p1816
S'I-VP'
p1817
g3
tp1818
a(S'before'
p1819
S'before'
p1820
S'IN'
p1821
S'B-PP'
p1822
g3
tp1823
a(S'final'
p1824
S'final'
p1825
S'JJ'
p1826
S'B-NP'
p1827
g3
tp1828
a(S'conclusions'
p1829
S'conclusion'
p1830
S'NNS'
p1831
S'I-NP'
p1832
g3
tp1833
a(S'could'
p1834
S'could'
p1835
S'MD'
p1836
S'B-VP'
p1837
g3
tp1838
a(S'be'
p1839
S'be'
p1840
S'VB'
p1841
S'I-VP'
p1842
g3
tp1843
a(S'drawn'
p1844
S'draw'
p1845
S'VBN'
p1846
S'I-VP'
p1847
g3
tp1848
a(g93
g93
g93
g3
g3
tp1849
a.