(lp0
(S'A'
p1
g1
S'DT'
p2
S'B-NP'
p3
S'O'
p4
tp5
a(S'double'
p6
S'double'
p7
S'JJ'
p8
S'I-NP'
p9
g4
tp10
a(S'blind'
p11
S'blind'
p12
S'JJ'
p13
S'I-NP'
p14
g4
tp15
a(S'randomized'
p16
S'randomize'
p17
S'VBN'
p18
S'I-NP'
p19
g4
tp20
a(S'trial'
p21
S'trial'
p22
S'NN'
p23
S'I-NP'
p24
g4
tp25
a(S'to'
p26
S'to'
p27
S'TO'
p28
S'B-VP'
p29
g4
tp30
a(S'compare'
p31
S'compare'
p32
S'VB'
p33
S'I-VP'
p34
g4
tp35
a(S'the'
p36
S'the'
p37
S'DT'
p38
S'B-NP'
p39
g4
tp40
a(S'effects'
p41
S'effect'
p42
S'NNS'
p43
S'I-NP'
p44
g4
tp45
a(S'of'
p46
S'of'
p47
S'IN'
p48
S'B-PP'
p49
g4
tp50
a(S'eprosartan'
p51
S'eprosartan'
p52
S'NN'
p53
S'B-NP'
p54
g4
tp55
a(S'and'
p56
S'and'
p57
S'CC'
p58
S'I-NP'
p59
g4
tp60
a(S'enalapril'
p61
S'enalapril'
p62
S'NN'
p63
S'I-NP'
p64
g4
tp65
a(S'on'
p66
S'on'
p67
S'IN'
p68
S'B-PP'
p69
g4
tp70
a(S'blood'
p71
S'blood'
p72
S'NN'
p73
S'B-NP'
p74
g4
tp75
a(S'pressure'
p76
S'pressure'
p77
S'NN'
p78
S'I-NP'
p79
g4
tp80
a(S','
p81
g81
g81
g4
g4
tp82
a(S'platelets'
p83
S'platelet'
p84
S'NNS'
p85
S'B-NP'
p86
S'B-cell_type'
p87
tp88
a(g81
g81
g81
g4
g4
tp89
a(S'and'
p90
S'and'
p91
S'CC'
p92
g4
g4
tp93
a(S'endothelium'
p94
S'endothelium'
p95
S'NN'
p96
S'B-NP'
p97
g4
tp98
a(S'function'
p99
S'function'
p100
S'NN'
p101
S'I-NP'
p102
g4
tp103
a(S'in'
p104
S'in'
p105
S'IN'
p106
S'B-PP'
p107
g4
tp108
a(S'patients'
p109
S'patient'
p110
S'NNS'
p111
S'B-NP'
p112
g4
tp113
a(S'with'
p114
S'with'
p115
S'IN'
p116
S'B-PP'
p117
g4
tp118
a(S'essential'
p119
S'essential'
p120
S'JJ'
p121
S'B-NP'
p122
g4
tp123
a(S'hypertension'
p124
S'hypertension'
p125
S'NN'
p126
S'I-NP'
p127
g4
tp128
a(S'.'
p129
g129
g129
g4
g4
tp130
a(S'The'
p131
S'The'
p132
S'DT'
p133
S'B-NP'
p134
g4
tp135
a(S'renin-angiotensin'
p136
S'renin-angiotensin'
p137
S'NN'
p138
S'I-NP'
p139
S'B-protein'
p140
tp141
a(S'system'
p142
S'system'
p143
S'NN'
p144
S'I-NP'
p145
g4
tp146
a(S'is'
p147
S'be'
p148
S'VBZ'
p149
S'B-VP'
p150
g4
tp151
a(S'the'
p152
S'the'
p153
S'DT'
p154
S'B-NP'
p155
g4
tp156
a(S'major'
p157
S'major'
p158
S'JJ'
p159
S'I-NP'
p160
g4
tp161
a(S'contributor'
p162
S'contributor'
p163
S'NN'
p164
S'I-NP'
p165
g4
tp166
a(S'to'
p167
S'to'
p168
S'TO'
p169
S'B-PP'
p170
g4
tp171
a(S'development'
p172
S'development'
p173
S'NN'
p174
S'B-NP'
p175
g4
tp176
a(S'of'
p177
S'of'
p178
S'IN'
p179
S'B-PP'
p180
g4
tp181
a(S'hypertension'
p182
S'hypertension'
p183
S'NN'
p184
S'B-NP'
p185
g4
tp186
a(g81
g81
g81
g4
g4
tp187
a(S'atherosclerosis'
p188
S'atherosclerosis'
p189
S'NN'
p190
S'B-NP'
p191
g4
tp192
a(g81
g81
g81
g4
g4
tp193
a(S'and'
p194
S'and'
p195
S'CC'
p196
g4
g4
tp197
a(S'many'
p198
S'many'
p199
S'JJ'
p200
S'B-NP'
p201
g4
tp202
a(S'other'
p203
S'other'
p204
S'JJ'
p205
S'I-NP'
p206
g4
tp207
a(S'cardiovascular'
p208
S'cardiovascular'
p209
S'JJ'
p210
S'I-NP'
p211
S'B-protein'
p212
tp213
a(S'diseases.'
p214
S'diseases.'
p215
S'NN'
p216
S'I-NP'
p217
S'I-protein'
p218
tp219
a(S'Angiotensin'
p220
S'Angiotensin'
p221
S'NN'
p222
S'I-NP'
p223
S'I-protein'
p224
tp225
a(S'II'
p226
S'II'
p227
S'CD'
p228
S'I-NP'
p229
S'I-protein'
p230
tp231
a(g81
g81
g81
g4
g4
tp232
a(S'one'
p233
S'one'
p234
S'CD'
p235
S'B-NP'
p236
g4
tp237
a(S'of'
p238
S'of'
p239
S'IN'
p240
S'B-PP'
p241
g4
tp242
a(S'the'
p243
S'the'
p244
S'DT'
p245
S'B-NP'
p246
g4
tp247
a(S'main'
p248
S'main'
p249
S'JJ'
p250
S'I-NP'
p251
g4
tp252
a(S'effectors'
p253
S'effector'
p254
S'NNS'
p255
S'I-NP'
p256
g4
tp257
a(S'of'
p258
S'of'
p259
S'IN'
p260
S'B-PP'
p261
g4
tp262
a(S'this'
p263
S'this'
p264
S'DT'
p265
S'B-NP'
p266
g4
tp267
a(S'system'
p268
S'system'
p269
S'NN'
p270
S'I-NP'
p271
g4
tp272
a(g81
g81
g81
g4
g4
tp273
a(S'contributes'
p274
S'contribute'
p275
S'VBZ'
p276
S'B-VP'
p277
g4
tp278
a(S'to'
p279
S'to'
p280
S'TO'
p281
S'B-PP'
p282
g4
tp283
a(S'the'
p284
S'the'
p285
S'DT'
p286
S'B-NP'
p287
g4
tp288
a(S'pathogenesis'
p289
S'pathogenesis'
p290
S'NN'
p291
S'I-NP'
p292
g4
tp293
a(S'of'
p294
S'of'
p295
S'IN'
p296
S'B-PP'
p297
g4
tp298
a(S'hypertension'
p299
S'hypertension'
p300
S'NN'
p301
S'B-NP'
p302
g4
tp303
a(S'and'
p304
S'and'
p305
S'CC'
p306
g4
g4
tp307
a(S'plays'
p308
S'play'
p309
S'VBZ'
p310
S'B-VP'
p311
g4
tp312
a(S'an'
p313
S'an'
p314
S'DT'
p315
S'B-NP'
p316
g4
tp317
a(S'important'
p318
S'important'
p319
S'JJ'
p320
S'I-NP'
p321
g4
tp322
a(S'role'
p323
S'role'
p324
S'NN'
p325
S'I-NP'
p326
g4
tp327
a(S'in'
p328
S'in'
p329
S'IN'
p330
S'B-PP'
p331
g4
tp332
a(S'monocyte'
p333
S'monocyte'
p334
S'NN'
p335
S'B-NP'
p336
S'B-cell_type'
p337
tp338
a(g81
g81
g81
g4
g4
tp339
a(S'platelet'
p340
S'platelet'
p341
S'NN'
p342
S'B-NP'
p343
S'B-cell_type'
p344
tp345
a(g81
g81
g81
g4
g4
tp346
a(S'and'
p347
S'and'
p348
S'CC'
p349
g4
g4
tp350
a(S'endothelium'
p351
S'endothelium'
p352
S'NN'
p353
S'B-NP'
p354
g4
tp355
a(S'interactions.'
p356
S'interactions.'
p357
S'VBP'
p358
S'B-VP'
p359
g4
tp360
a(S'The'
p361
S'The'
p362
S'DT'
p363
S'B-NP'
p364
g4
tp365
a(S'effects'
p366
S'effect'
p367
S'NNS'
p368
S'I-NP'
p369
g4
tp370
a(S'on'
p371
S'on'
p372
S'IN'
p373
S'B-PP'
p374
g4
tp375
a(S'platelet'
p376
S'platelet'
p377
S'NN'
p378
S'B-NP'
p379
S'B-cell_type'
p380
tp381
a(S'and'
p382
S'and'
p383
S'CC'
p384
g4
g4
tp385
a(S'endothelial'
p386
S'endothelial'
p387
S'JJ'
p388
S'B-NP'
p389
g4
tp390
a(S'function'
p391
S'function'
p392
S'NN'
p393
S'I-NP'
p394
g4
tp395
a(g81
g81
g81
g4
g4
tp396
a(S'either'
p397
S'either'
p398
S'CC'
p399
g4
g4
tp400
a(S'by'
p401
S'by'
p402
S'IN'
p403
S'B-PP'
p404
g4
tp405
a(S'angiotensin'
p406
S'angiotensin'
p407
S'NN'
p408
S'B-NP'
p409
g4
tp410
a(S'converting'
p411
S'convert'
p412
S'VBG'
p413
S'B-VP'
p414
g4
tp415
a(S'enzyme'
p416
S'enzyme'
p417
S'NN'
p418
S'B-NP'
p419
g4
tp420
a(S'inhibitors'
p421
S'inhibitor'
p422
S'NNS'
p423
S'I-NP'
p424
g4
tp425
a(S'or'
p426
S'or'
p427
S'CC'
p428
g4
g4
tp429
a(S'angiotensin'
p430
S'angiotensin'
p431
S'NN'
p432
S'B-NP'
p433
g4
tp434
a(S'receptor'
p435
S'receptor'
p436
S'NN'
p437
S'I-NP'
p438
g4
tp439
a(S'antagonists'
p440
S'antagonist'
p441
S'NNS'
p442
S'I-NP'
p443
g4
tp444
a(g81
g81
g81
g4
g4
tp445
a(S'are'
p446
S'be'
p447
S'VBP'
p448
S'B-VP'
p449
g4
tp450
a(S'still'
p451
S'still'
p452
S'RB'
p453
S'B-ADVP'
p454
g4
tp455
a(S'not'
p456
S'not'
p457
S'RB'
p458
S'B-VP'
p459
g4
tp460
a(S'well'
p461
S'well'
p462
S'RB'
p463
S'I-VP'
p464
g4
tp465
a(S'understood.'
p466
S'understood.'
p467
S'VB'
p468
S'I-VP'
p469
g4
tp470
a(g1
g1
S'DT'
p471
S'B-NP'
p472
g4
tp473
a(S'double-blind'
p474
S'double-blind'
p475
S'JJ'
p476
S'I-NP'
p477
g4
tp478
a(g81
g81
g81
S'I-NP'
p479
g4
tp480
a(S'randomized'
p481
S'randomize'
p482
S'VBN'
p483
S'I-NP'
p484
g4
tp485
a(g81
g81
g81
S'I-NP'
p486
g4
tp487
a(S'prospective'
p488
S'prospective'
p489
S'JJ'
p490
S'I-NP'
p491
g4
tp492
a(S'trial'
p493
S'trial'
p494
S'NN'
p495
S'I-NP'
p496
g4
tp497
a(S'of'
p498
S'of'
p499
S'IN'
p500
S'B-PP'
p501
g4
tp502
a(S'either'
p503
S'either'
p504
S'CC'
p505
g4
g4
tp506
a(S'enalapril'
p507
S'enalapril'
p508
S'NN'
p509
S'B-NP'
p510
g4
tp511
a(S'('
p512
g512
g512
g4
g4
tp513
a(S'10-20'
p514
S'10-20'
p515
S'CD'
p516
S'B-NP'
p517
g4
tp518
a(S'mg'
p519
S'mg'
p520
S'NN'
p521
S'I-NP'
p522
g4
tp523
a(S'daily'
p524
S'daily'
p525
S'JJ'
p526
S'B-ADJP'
p527
g4
tp528
a(S')'
p529
g529
g529
g4
g4
tp530
a(S'or'
p531
S'or'
p532
S'CC'
p533
g4
g4
tp534
a(S'eprosartan'
p535
S'eprosartan'
p536
S'NN'
p537
S'B-NP'
p538
g4
tp539
a(g512
g512
g512
g4
g4
tp540
a(S'400-800'
p541
S'400-800'
p542
S'CD'
p543
S'B-NP'
p544
g4
tp545
a(S'mg'
p546
S'mg'
p547
S'NN'
p548
S'I-NP'
p549
g4
tp550
a(S'daily'
p551
S'daily'
p552
S'RB'
p553
S'B-ADVP'
p554
g4
tp555
a(g529
g529
g529
g4
g4
tp556
a(S'over'
p557
S'over'
p558
S'IN'
p559
S'B-PP'
p560
g4
tp561
a(S'a'
p562
g562
S'DT'
p563
S'B-NP'
p564
g4
tp565
a(S'10-week'
p566
S'10-week'
p567
S'JJ'
p568
S'I-NP'
p569
g4
tp570
a(S'period'
p571
S'period'
p572
S'NN'
p573
S'I-NP'
p574
g4
tp575
a(S'was'
p576
S'be'
p577
S'VBD'
p578
S'B-VP'
p579
g4
tp580
a(S'conducted'
p581
S'conduct'
p582
S'VBN'
p583
S'I-VP'
p584
g4
tp585
a(S'in'
p586
S'in'
p587
S'IN'
p588
S'B-PP'
p589
g4
tp590
a(S'42'
p591
S'42'
p592
S'CD'
p593
S'B-NP'
p594
g4
tp595
a(S'patients'
p596
S'patient'
p597
S'NNS'
p598
S'I-NP'
p599
g4
tp600
a(g512
g512
g512
g4
g4
tp601
a(S'27'
p602
S'27'
p603
S'CD'
p604
S'B-NP'
p605
g4
tp606
a(S'males'
p607
S'male'
p608
S'NNS'
p609
S'I-NP'
p610
g4
tp611
a(g81
g81
g81
g4
g4
tp612
a(S'15'
p613
S'15'
p614
S'CD'
p615
S'B-NP'
p616
g4
tp617
a(S'females'
p618
S'female'
p619
S'NNS'
p620
S'I-NP'
p621
g4
tp622
a(g529
g529
g529
g4
g4
tp623
a(g129
g129
g129
g4
g4
tp624
a(S'Platelet'
p625
S'Platelet'
p626
S'NN'
p627
S'B-NP'
p628
S'B-cell_type'
p629
tp630
a(S'activation'
p631
S'activation'
p632
S'NN'
p633
S'I-NP'
p634
g4
tp635
a(S'was'
p636
S'be'
p637
S'VBD'
p638
S'B-VP'
p639
g4
tp640
a(S'evaluated'
p641
S'evaluate'
p642
S'VBN'
p643
S'I-VP'
p644
g4
tp645
a(S'by'
p646
S'by'
p647
S'IN'
p648
S'B-PP'
p649
g4
tp650
a(S'measuring'
p651
S'measure'
p652
S'VBG'
p653
S'B-VP'
p654
g4
tp655
a(S'platelet'
p656
S'platelet'
p657
S'NN'
p658
S'B-NP'
p659
S'B-protein'
p660
tp661
a(S'factor'
p662
S'factor'
p663
S'NN'
p664
S'I-NP'
p665
S'I-protein'
p666
tp667
a(S'4'
p668
g668
S'CD'
p669
S'I-NP'
p670
S'I-protein'
p671
tp672
a(g512
g512
g512
g4
g4
tp673
a(S'PF-4'
p674
S'PF-4'
p675
S'NN'
p676
S'B-NP'
p677
S'B-protein'
p678
tp679
a(g529
g529
g529
g4
g4
tp680
a(g81
g81
g81
g4
g4
tp681
a(S'beta-thromboglobulin'
p682
S'beta-thromboglobulin'
p683
S'NN'
p684
S'B-NP'
p685
S'B-protein'
p686
tp687
a(g512
g512
g512
g4
g4
tp688
a(S'beta-TG'
p689
S'beta-TG'
p690
S'NN'
p691
S'B-NP'
p692
S'B-protein'
p693
tp694
a(g529
g529
g529
g4
g4
tp695
a(g81
g81
g81
g4
g4
tp696
a(S'the'
p697
S'the'
p698
S'DT'
p699
S'B-NP'
p700
g4
tp701
a(S'ratio'
p702
S'ratio'
p703
S'NN'
p704
S'I-NP'
p705
g4
tp706
a(S'of'
p707
S'of'
p708
S'IN'
p709
S'B-PP'
p710
g4
tp711
a(S'platelet'
p712
S'platelet'
p713
S'NN'
p714
S'B-NP'
p715
S'B-protein'
p716
tp717
a(S'factor'
p718
S'factor'
p719
S'NN'
p720
S'I-NP'
p721
S'I-protein'
p722
tp723
a(g668
g668
S'CD'
p724
S'B-NP'
p725
S'I-protein'
p726
tp727
a(S'to'
p728
S'to'
p729
S'TO'
p730
S'B-PP'
p731
g4
tp732
a(S'beta-thromboglobulin'
p733
S'beta-thromboglobulin'
p734
S'NN'
p735
S'B-NP'
p736
S'B-protein'
p737
tp738
a(g81
g81
g81
g4
g4
tp739
a(S'and'
p740
S'and'
p741
S'CC'
p742
g4
g4
tp743
a(S'endothelial'
p744
S'endothelial'
p745
S'JJ'
p746
S'B-NP'
p747
g4
tp748
a(S'function'
p749
S'function'
p750
S'NN'
p751
S'I-NP'
p752
g4
tp753
a(S'by'
p754
S'by'
p755
S'IN'
p756
S'B-PP'
p757
g4
tp758
a(S'measuring'
p759
S'measure'
p760
S'VBG'
p761
S'B-VP'
p762
g4
tp763
a(S'total'
p764
S'total'
p765
S'JJ'
p766
S'B-NP'
p767
g4
tp768
a(S'plasma'
p769
S'plasma'
p770
S'NN'
p771
S'I-NP'
p772
g4
tp773
a(S'nitrate'
p774
S'nitrate'
p775
S'NN'
p776
S'I-NP'
p777
g4
tp778
a(S'levels'
p779
S'level'
p780
S'NNS'
p781
S'I-NP'
p782
g4
tp783
a(g81
g81
g81
g4
g4
tp784
a(S'von'
p785
S'von'
p786
S'NN'
p787
S'B-NP'
p788
S'B-protein'
p789
tp790
a(S'Willebrand'
p791
S'Willebrand'
p792
S'NN'
p793
S'I-NP'
p794
S'I-protein'
p795
tp796
a(S'factor'
p797
S'factor'
p798
S'NN'
p799
S'I-NP'
p800
S'I-protein'
p801
tp802
a(g512
g512
g512
g4
g4
tp803
a(S'vWF'
p804
S'vWF'
p805
S'NN'
p806
S'B-NP'
p807
S'B-protein'
p808
tp809
a(g529
g529
g529
g4
g4
tp810
a(S'levels'
p811
S'level'
p812
S'NNS'
p813
S'B-NP'
p814
g4
tp815
a(g81
g81
g81
g4
g4
tp816
a(S'and'
p817
S'and'
p818
S'CC'
p819
g4
g4
tp820
a(S'blood'
p821
S'blood'
p822
S'NN'
p823
S'B-NP'
p824
g4
tp825
a(S'flow'
p826
S'flow'
p827
S'NN'
p828
S'I-NP'
p829
g4
tp830
a(S'using'
p831
S'use'
p832
S'VBG'
p833
S'B-VP'
p834
g4
tp835
a(S'venous'
p836
S'venous'
p837
S'JJ'
p838
S'B-NP'
p839
g4
tp840
a(S'occlusive'
p841
S'occlusive'
p842
S'JJ'
p843
S'I-NP'
p844
g4
tp845
a(S'plethysmography.'
p846
S'plethysmography.'
p847
S'NN'
p848
S'I-NP'
p849
g4
tp850
a(S'After'
p851
S'After'
p852
S'IN'
p853
S'B-PP'
p854
g4
tp855
a(g562
g562
S'DT'
p856
S'B-NP'
p857
g4
tp858
a(S'10-week'
p859
S'10-week'
p860
S'JJ'
p861
S'I-NP'
p862
g4
tp863
a(S'treatment'
p864
S'treatment'
p865
S'NN'
p866
S'I-NP'
p867
g4
tp868
a(S'with'
p869
S'with'
p870
S'IN'
p871
S'B-PP'
p872
g4
tp873
a(S'enalapril'
p874
S'enalapril'
p875
S'NN'
p876
S'B-NP'
p877
g4
tp878
a(S'or'
p879
S'or'
p880
S'CC'
p881
S'I-NP'
p882
g4
tp883
a(S'eprosartan'
p884
S'eprosartan'
p885
S'NN'
p886
S'I-NP'
p887
g4
tp888
a(g81
g81
g81
g4
g4
tp889
a(S'the'
p890
S'the'
p891
S'DT'
p892
S'B-NP'
p893
g4
tp894
a(S'sitting'
p895
S'sit'
p896
S'VBG'
p897
S'I-NP'
p898
g4
tp899
a(S'blood'
p900
S'blood'
p901
S'NN'
p902
S'I-NP'
p903
g4
tp904
a(S'pressure'
p905
S'pressure'
p906
S'NN'
p907
S'I-NP'
p908
g4
tp909
a(S'in'
p910
S'in'
p911
S'IN'
p912
S'B-PP'
p913
g4
tp914
a(S'both'
p915
S'both'
p916
S'CC'
p917
g4
g4
tp918
a(S'the'
p919
S'the'
p920
S'DT'
p921
S'B-NP'
p922
g4
tp923
a(S'enalapril'
p924
S'enalapril'
p925
S'NN'
p926
S'I-NP'
p927
g4
tp928
a(S'group'
p929
S'group'
p930
S'NN'
p931
S'I-NP'
p932
g4
tp933
a(g512
g512
g512
g4
g4
tp934
a(S'from'
p935
S'from'
p936
S'IN'
p937
S'B-PP'
p938
g4
tp939
a(S'152.2'
p940
S'152.2'
p941
S'CD'
p942
S'B-NP'
p943
g4
tp944
a(S'+/-'
p945
S'+/-'
p946
S'SYM'
p947
S'I-NP'
p948
g4
tp949
a(S'18.7'
p950
S'18.7'
p951
S'CD'
p952
S'I-NP'
p953
g4
tp954
a(S'mmHg'
p955
S'mmHg'
p956
S'NN'
p957
S'I-NP'
p958
g4
tp959
a(S'to'
p960
S'to'
p961
S'TO'
p962
S'B-PP'
p963
g4
tp964
a(S'141.9'
p965
S'141.9'
p966
S'CD'
p967
S'B-NP'
p968
g4
tp969
a(S'+/-'
p970
S'+/-'
p971
S'SYM'
p972
S'I-NP'
p973
g4
tp974
a(S'23.5'
p975
S'23.5'
p976
S'CD'
p977
S'I-NP'
p978
g4
tp979
a(S'mmHg'
p980
S'mmHg'
p981
S'NN'
p982
S'I-NP'
p983
g4
tp984
a(g81
g81
g81
g4
g4
tp985
a(S'P'
p986
g986
S'NN'
p987
S'B-NP'
p988
g4
tp989
a(S'<'
p990
g990
S'SYM'
p991
S'B-NP'
p992
g4
tp993
a(S'0.05'
p994
S'0.05'
p995
S'CD'
p996
S'I-NP'
p997
g4
tp998
a(g529
g529
g529
g4
g4
tp999
a(S'and'
p1000
S'and'
p1001
S'CC'
p1002
g4
g4
tp1003
a(S'eprosartan'
p1004
S'eprosartan'
p1005
S'NN'
p1006
S'B-NP'
p1007
g4
tp1008
a(S'group'
p1009
S'group'
p1010
S'NN'
p1011
S'I-NP'
p1012
g4
tp1013
a(g512
g512
g512
g4
g4
tp1014
a(S'from'
p1015
S'from'
p1016
S'IN'
p1017
S'B-PP'
p1018
g4
tp1019
a(S'151'
p1020
S'151'
p1021
S'CD'
p1022
S'B-NP'
p1023
g4
tp1024
a(S'+/-'
p1025
S'+/-'
p1026
S'SYM'
p1027
S'I-NP'
p1028
g4
tp1029
a(S'10.0'
p1030
S'10.0'
p1031
S'CD'
p1032
S'I-NP'
p1033
g4
tp1034
a(S'mmHg'
p1035
S'mmHg'
p1036
S'NN'
p1037
S'I-NP'
p1038
g4
tp1039
a(S'to'
p1040
S'to'
p1041
S'TO'
p1042
S'B-PP'
p1043
g4
tp1044
a(S'142.3'
p1045
S'142.3'
p1046
S'CD'
p1047
S'B-NP'
p1048
g4
tp1049
a(S'+/-'
p1050
S'+/-'
p1051
S'SYM'
p1052
S'I-NP'
p1053
g4
tp1054
a(S'12.9'
p1055
S'12.9'
p1056
S'CD'
p1057
S'I-NP'
p1058
g4
tp1059
a(S'mmHg'
p1060
S'mmHg'
p1061
S'NN'
p1062
S'I-NP'
p1063
g4
tp1064
a(g81
g81
g81
g4
g4
tp1065
a(g986
g986
S'NN'
p1066
S'B-NP'
p1067
g4
tp1068
a(g990
g990
S'SYM'
p1069
S'B-NP'
p1070
g4
tp1071
a(S'0.05'
p1072
S'0.05'
p1073
S'CD'
p1074
S'I-NP'
p1075
g4
tp1076
a(g529
g529
g529
g4
g4
tp1077
a(S'was'
p1078
S'be'
p1079
S'VBD'
p1080
S'B-VP'
p1081
g4
tp1082
a(S'significantly'
p1083
S'significantly'
p1084
S'RB'
p1085
S'I-VP'
p1086
g4
tp1087
a(S'reduced.'
p1088
S'reduced.'
p1089
S'VB'
p1090
S'I-VP'
p1091
g4
tp1092
a(S'Significant'
p1093
S'Significant'
p1094
S'JJ'
p1095
S'B-NP'
p1096
g4
tp1097
a(S'diastolic'
p1098
S'diastolic'
p1099
S'JJ'
p1100
S'I-NP'
p1101
g4
tp1102
a(S'blood'
p1103
S'blood'
p1104
S'NN'
p1105
S'I-NP'
p1106
g4
tp1107
a(S'pressure'
p1108
S'pressure'
p1109
S'NN'
p1110
S'I-NP'
p1111
g4
tp1112
a(g512
g512
g512
g4
g4
tp1113
a(S'DPB'
p1114
S'DPB'
p1115
S'NN'
p1116
S'B-NP'
p1117
g4
tp1118
a(g529
g529
g529
g4
g4
tp1119
a(S'reduction'
p1120
S'reduction'
p1121
S'NN'
p1122
S'B-NP'
p1123
g4
tp1124
a(g512
g512
g512
g4
g4
tp1125
a(S'from'
p1126
S'from'
p1127
S'IN'
p1128
S'B-PP'
p1129
g4
tp1130
a(S'94'
p1131
S'94'
p1132
S'CD'
p1133
S'B-NP'
p1134
g4
tp1135
a(S'+/-'
p1136
S'+/-'
p1137
S'SYM'
p1138
S'I-NP'
p1139
g4
tp1140
a(S'8.7'
p1141
S'8.7'
p1142
S'CD'
p1143
S'I-NP'
p1144
g4
tp1145
a(S'to'
p1146
S'to'
p1147
S'TO'
p1148
S'I-NP'
p1149
g4
tp1150
a(S'84.5'
p1151
S'84.5'
p1152
S'CD'
p1153
S'I-NP'
p1154
g4
tp1155
a(S'+/-'
p1156
S'+/-'
p1157
S'SYM'
p1158
S'I-NP'
p1159
g4
tp1160
a(S'9.6'
p1161
S'9.6'
p1162
S'CD'
p1163
S'I-NP'
p1164
g4
tp1165
a(S'mmHg'
p1166
S'mmHg'
p1167
S'NN'
p1168
S'I-NP'
p1169
g4
tp1170
a(g81
g81
g81
g4
g4
tp1171
a(g986
g986
S'NN'
p1172
S'B-NP'
p1173
g4
tp1174
a(g990
g990
S'SYM'
p1175
S'B-NP'
p1176
g4
tp1177
a(S'0.05'
p1178
S'0.05'
p1179
S'CD'
p1180
S'I-NP'
p1181
g4
tp1182
a(g529
g529
g529
g4
g4
tp1183
a(S'and'
p1184
S'and'
p1185
S'CC'
p1186
g4
g4
tp1187
a(g562
g562
S'DT'
p1188
S'B-NP'
p1189
g4
tp1190
a(S'greater'
p1191
S'great'
p1192
S'JJR'
p1193
S'I-NP'
p1194
g4
tp1195
a(S'DBP'
p1196
S'DBP'
p1197
S'NN'
p1198
S'I-NP'
p1199
g4
tp1200
a(S'reduction'
p1201
S'reduction'
p1202
S'NN'
p1203
S'I-NP'
p1204
g4
tp1205
a(S'response'
p1206
S'response'
p1207
S'NN'
p1208
S'I-NP'
p1209
g4
tp1210
a(S'were'
p1211
S'be'
p1212
S'VBD'
p1213
S'B-VP'
p1214
g4
tp1215
a(S'found'
p1216
S'find'
p1217
S'VBN'
p1218
S'I-VP'
p1219
g4
tp1220
a(S'in'
p1221
S'in'
p1222
S'IN'
p1223
S'B-PP'
p1224
g4
tp1225
a(S'the'
p1226
S'the'
p1227
S'DT'
p1228
S'B-NP'
p1229
g4
tp1230
a(S'eprosartan'
p1231
S'eprosartan'
p1232
S'NN'
p1233
S'I-NP'
p1234
g4
tp1235
a(S'group'
p1236
S'group'
p1237
S'NN'
p1238
S'I-NP'
p1239
g4
tp1240
a(g512
g512
g512
g4
g4
tp1241
a(S'63'
p1242
S'63'
p1243
S'CD'
p1244
S'B-NP'
p1245
g4
tp1246
a(S'%'
p1247
g1247
S'NN'
p1248
S'I-NP'
p1249
g4
tp1250
a(S'in'
p1251
S'in'
p1252
S'IN'
p1253
S'B-PP'
p1254
g4
tp1255
a(S'eprosartan'
p1256
S'eprosartan'
p1257
S'NN'
p1258
S'B-NP'
p1259
g4
tp1260
a(S'versus'
p1261
S'versus'
p1262
S'IN'
p1263
S'B-PP'
p1264
g4
tp1265
a(S'25'
p1266
S'25'
p1267
S'CD'
p1268
S'B-NP'
p1269
g4
tp1270
a(g1247
g1247
S'NN'
p1271
S'I-NP'
p1272
g4
tp1273
a(S'in'
p1274
S'in'
p1275
S'IN'
p1276
S'B-PP'
p1277
g4
tp1278
a(S'enalapril'
p1279
S'enalapril'
p1280
S'NN'
p1281
S'B-NP'
p1282
g4
tp1283
a(g529
g529
g529
g4
g4
tp1284
a(g129
g129
g129
g4
g4
tp1285
a(S'Additionally'
p1286
S'Additionally'
p1287
S'RB'
p1288
S'B-ADVP'
p1289
g4
tp1290
a(g81
g81
g81
g4
g4
tp1291
a(S'dose-dependent'
p1292
S'dose-dependent'
p1293
S'JJ'
p1294
S'B-NP'
p1295
g4
tp1296
a(S'reductions'
p1297
S'reduction'
p1298
S'NNS'
p1299
S'I-NP'
p1300
g4
tp1301
a(S'in'
p1302
S'in'
p1303
S'IN'
p1304
S'B-PP'
p1305
g4
tp1306
a(S'the'
p1307
S'the'
p1308
S'DT'
p1309
S'B-NP'
p1310
g4
tp1311
a(S'indices'
p1312
S'index'
p1313
S'NNS'
p1314
S'I-NP'
p1315
g4
tp1316
a(S'of'
p1317
S'of'
p1318
S'IN'
p1319
S'B-PP'
p1320
g4
tp1321
a(S'platelet'
p1322
S'platelet'
p1323
S'NN'
p1324
S'B-NP'
p1325
S'B-cell_type'
p1326
tp1327
a(S'activation'
p1328
S'activation'
p1329
S'NN'
p1330
S'I-NP'
p1331
g4
tp1332
a(S'and'
p1333
S'and'
p1334
S'CC'
p1335
g4
g4
tp1336
a(S'endothelial'
p1337
S'endothelial'
p1338
S'JJ'
p1339
S'B-NP'
p1340
g4
tp1341
a(S'dysfunction'
p1342
S'dysfunction'
p1343
S'NN'
p1344
S'I-NP'
p1345
g4
tp1346
a(S'were'
p1347
S'be'
p1348
S'VBD'
p1349
S'B-VP'
p1350
g4
tp1351
a(S'observed'
p1352
S'observe'
p1353
S'VBN'
p1354
S'I-VP'
p1355
g4
tp1356
a(S'in'
p1357
S'in'
p1358
S'IN'
p1359
S'B-PP'
p1360
g4
tp1361
a(S'patients'
p1362
S'patient'
p1363
S'NNS'
p1364
S'B-NP'
p1365
g4
tp1366
a(S'administered'
p1367
S'administer'
p1368
S'VBN'
p1369
S'B-VP'
p1370
g4
tp1371
a(S'high'
p1372
S'high'
p1373
S'JJ'
p1374
S'B-NP'
p1375
g4
tp1376
a(S'dose'
p1377
S'dose'
p1378
S'NN'
p1379
S'I-NP'
p1380
g4
tp1381
a(S'treatments'
p1382
S'treatment'
p1383
S'NNS'
p1384
S'I-NP'
p1385
g4
tp1386
a(S'of'
p1387
S'of'
p1388
S'IN'
p1389
S'B-PP'
p1390
g4
tp1391
a(S'eprosartan'
p1392
S'eprosartan'
p1393
S'NN'
p1394
S'B-NP'
p1395
g4
tp1396
a(S'and'
p1397
S'and'
p1398
S'CC'
p1399
S'I-NP'
p1400
g4
tp1401
a(S'enalapril'
p1402
S'enalapril'
p1403
S'NN'
p1404
S'I-NP'
p1405
g4
tp1406
a(g81
g81
g81
g4
g4
tp1407
a(S'and'
p1408
S'and'
p1409
S'CC'
p1410
g4
g4
tp1411
a(S'the'
p1412
S'the'
p1413
S'DT'
p1414
S'B-NP'
p1415
g4
tp1416
a(S'beneficial'
p1417
S'beneficial'
p1418
S'JJ'
p1419
S'I-NP'
p1420
g4
tp1421
a(S'effects'
p1422
S'effect'
p1423
S'NNS'
p1424
S'I-NP'
p1425
g4
tp1426
a(S'of'
p1427
S'of'
p1428
S'IN'
p1429
S'B-PP'
p1430
g4
tp1431
a(S'these'
p1432
S'these'
p1433
S'DT'
p1434
S'B-NP'
p1435
g4
tp1436
a(S'agents'
p1437
S'agent'
p1438
S'NNS'
p1439
S'I-NP'
p1440
g4
tp1441
a(S'were'
p1442
S'be'
p1443
S'VBD'
p1444
S'B-VP'
p1445
g4
tp1446
a(S'not'
p1447
S'not'
p1448
S'RB'
p1449
S'I-VP'
p1450
g4
tp1451
a(S'correlated'
p1452
S'correlate'
p1453
S'VBN'
p1454
S'I-VP'
p1455
g4
tp1456
a(S'with'
p1457
S'with'
p1458
S'IN'
p1459
S'B-PP'
p1460
g4
tp1461
a(S'the'
p1462
S'the'
p1463
S'DT'
p1464
S'B-NP'
p1465
g4
tp1466
a(S'reduction'
p1467
S'reduction'
p1468
S'NN'
p1469
S'I-NP'
p1470
g4
tp1471
a(S'of'
p1472
S'of'
p1473
S'IN'
p1474
S'B-PP'
p1475
g4
tp1476
a(S'blood'
p1477
S'blood'
p1478
S'NN'
p1479
S'B-NP'
p1480
g4
tp1481
a(S'pressure'
p1482
S'pressure'
p1483
S'NN'
p1484
S'I-NP'
p1485
g4
tp1486
a(S'using'
p1487
S'use'
p1488
S'VBG'
p1489
S'B-VP'
p1490
g4
tp1491
a(S'both'
p1492
S'both'
p1493
S'DT'
p1494
S'B-NP'
p1495
g4
tp1496
a(S'agents.'
p1497
S'agents.'
p1498
S'NNS'
p1499
S'I-NP'
p1500
g4
tp1501
a(S'Eprosartan'
p1502
S'Eprosartan'
p1503
S'NNP'
p1504
S'B-NP'
p1505
g4
tp1506
a(S'is'
p1507
S'be'
p1508
S'VBZ'
p1509
S'B-VP'
p1510
g4
tp1511
a(S'effective'
p1512
S'effective'
p1513
S'JJ'
p1514
S'B-ADJP'
p1515
g4
tp1516
a(S'and'
p1517
S'and'
p1518
S'CC'
p1519
g4
g4
tp1520
a(S'well-tolerated'
p1521
S'well-tolerated'
p1522
S'JJ'
p1523
S'B-ADJP'
p1524
g4
tp1525
a(S'in'
p1526
S'in'
p1527
S'IN'
p1528
S'B-PP'
p1529
g4
tp1530
a(S'the'
p1531
S'the'
p1532
S'DT'
p1533
S'B-NP'
p1534
g4
tp1535
a(S'treatment'
p1536
S'treatment'
p1537
S'NN'
p1538
S'I-NP'
p1539
g4
tp1540
a(S'of'
p1541
S'of'
p1542
S'IN'
p1543
S'B-PP'
p1544
g4
tp1545
a(S'mid-to-moderate'
p1546
S'mid-to-moderate'
p1547
S'JJ'
p1548
S'B-NP'
p1549
g4
tp1550
a(S'hypertension'
p1551
S'hypertension'
p1552
S'NN'
p1553
S'I-NP'
p1554
g4
tp1555
a(g81
g81
g81
g4
g4
tp1556
a(S'and'
p1557
S'and'
p1558
S'CC'
p1559
g4
g4
tp1560
a(S'the'
p1561
S'the'
p1562
S'DT'
p1563
S'B-NP'
p1564
g4
tp1565
a(S'DBP'
p1566
S'DBP'
p1567
S'NN'
p1568
S'I-NP'
p1569
g4
tp1570
a(S'response'
p1571
S'response'
p1572
S'NN'
p1573
S'I-NP'
p1574
g4
tp1575
a(S'reduction'
p1576
S'reduction'
p1577
S'NN'
p1578
S'I-NP'
p1579
g4
tp1580
a(S'to'
p1581
S'to'
p1582
S'TO'
p1583
S'B-PP'
p1584
g4
tp1585
a(S'eprosartin'
p1586
S'eprosartin'
p1587
S'NN'
p1588
S'B-NP'
p1589
g4
tp1590
a(S'was'
p1591
S'be'
p1592
S'VBD'
p1593
S'B-VP'
p1594
g4
tp1595
a(S'better'
p1596
S'good'
p1597
S'JJR'
p1598
S'B-ADJP'
p1599
g4
tp1600
a(S'than'
p1601
S'than'
p1602
S'IN'
p1603
S'B-PP'
p1604
g4
tp1605
a(S'that'
p1606
S'that'
p1607
S'DT'
p1608
S'B-NP'
p1609
g4
tp1610
a(S'to'
p1611
S'to'
p1612
S'TO'
p1613
S'B-VP'
p1614
g4
tp1615
a(S'enalapril.'
p1616
S'enalapril.'
p1617
S'VB'
p1618
S'I-VP'
p1619
g4
tp1620
a(g1
g1
S'DT'
p1621
S'B-NP'
p1622
g4
tp1623
a(S'high'
p1624
S'high'
p1625
S'JJ'
p1626
S'I-NP'
p1627
g4
tp1628
a(S'dose'
p1629
S'dose'
p1630
S'NN'
p1631
S'I-NP'
p1632
g4
tp1633
a(S'of'
p1634
S'of'
p1635
S'IN'
p1636
S'B-PP'
p1637
g4
tp1638
a(S'either'
p1639
S'either'
p1640
S'CC'
p1641
g4
g4
tp1642
a(S'eprosartan'
p1643
S'eprosartan'
p1644
S'NN'
p1645
S'B-NP'
p1646
g4
tp1647
a(S'or'
p1648
S'or'
p1649
S'CC'
p1650
g4
g4
tp1651
a(S'enalapril'
p1652
S'enalapril'
p1653
S'NN'
p1654
S'B-NP'
p1655
g4
tp1656
a(S'significantly'
p1657
S'significantly'
p1658
S'RB'
p1659
S'B-ADVP'
p1660
g4
tp1661
a(S'decreased'
p1662
S'decrease'
p1663
S'VBD'
p1664
S'B-VP'
p1665
g4
tp1666
a(S'the'
p1667
S'the'
p1668
S'DT'
p1669
S'B-NP'
p1670
g4
tp1671
a(S'indices'
p1672
S'index'
p1673
S'NNS'
p1674
S'I-NP'
p1675
g4
tp1676
a(S'of'
p1677
S'of'
p1678
S'IN'
p1679
S'B-PP'
p1680
g4
tp1681
a(S'platelet'
p1682
S'platelet'
p1683
S'NN'
p1684
S'B-NP'
p1685
S'B-cell_type'
p1686
tp1687
a(S'activation'
p1688
S'activation'
p1689
S'NN'
p1690
S'I-NP'
p1691
g4
tp1692
a(S'and'
p1693
S'and'
p1694
S'CC'
p1695
g4
g4
tp1696
a(S'endothelial'
p1697
S'endothelial'
p1698
S'JJ'
p1699
S'B-NP'
p1700
g4
tp1701
a(S'dysfunction'
p1702
S'dysfunction'
p1703
S'NN'
p1704
S'I-NP'
p1705
g4
tp1706
a(S'in'
p1707
S'in'
p1708
S'IN'
p1709
S'B-PP'
p1710
g4
tp1711
a(S'hypertensive'
p1712
S'hypertensive'
p1713
S'JJ'
p1714
S'B-NP'
p1715
g4
tp1716
a(S'patients.'
p1717
S'patients.'
p1718
S'NNS'
p1719
S'I-NP'
p1720
g4
tp1721
a(S'The'
p1722
S'The'
p1723
S'DT'
p1724
S'B-NP'
p1725
g4
tp1726
a(S'benefits'
p1727
S'benefit'
p1728
S'NNS'
p1729
S'I-NP'
p1730
g4
tp1731
a(S'of'
p1732
S'of'
p1733
S'IN'
p1734
S'B-PP'
p1735
g4
tp1736
a(S'both'
p1737
S'both'
p1738
S'DT'
p1739
S'B-NP'
p1740
g4
tp1741
a(S'agents'
p1742
S'agent'
p1743
S'NNS'
p1744
S'I-NP'
p1745
g4
tp1746
a(S'can'
p1747
S'can'
p1748
S'MD'
p1749
S'B-VP'
p1750
g4
tp1751
a(S'not'
p1752
S'not'
p1753
S'RB'
p1754
S'I-VP'
p1755
g4
tp1756
a(S'be'
p1757
S'be'
p1758
S'VB'
p1759
S'I-VP'
p1760
g4
tp1761
a(S'explained'
p1762
S'explain'
p1763
S'VBN'
p1764
S'I-VP'
p1765
g4
tp1766
a(S'solely'
p1767
S'solely'
p1768
S'RB'
p1769
S'B-ADVP'
p1770
g4
tp1771
a(S'by'
p1772
S'by'
p1773
S'IN'
p1774
S'B-PP'
p1775
g4
tp1776
a(S'their'
p1777
S'their'
p1778
S'PRP$'
p1779
S'B-NP'
p1780
g4
tp1781
a(S'antihypertensive'
p1782
S'antihypertensive'
p1783
S'JJ'
p1784
S'I-NP'
p1785
g4
tp1786
a(S'effects'
p1787
S'effect'
p1788
S'NNS'
p1789
S'I-NP'
p1790
g4
tp1791
a(S'and'
p1792
S'and'
p1793
S'CC'
p1794
g4
g4
tp1795
a(S'possibly'
p1796
S'possibly'
p1797
S'RB'
p1798
S'B-VP'
p1799
g4
tp1800
a(S'may'
p1801
S'may'
p1802
S'MD'
p1803
S'I-VP'
p1804
g4
tp1805
a(S'be'
p1806
S'be'
p1807
S'VB'
p1808
S'I-VP'
p1809
g4
tp1810
a(S'mediated'
p1811
S'mediate'
p1812
S'VBN'
p1813
S'I-VP'
p1814
g4
tp1815
a(S'through'
p1816
S'through'
p1817
S'IN'
p1818
S'B-PP'
p1819
g4
tp1820
a(S'their'
p1821
S'their'
p1822
S'PRP$'
p1823
S'B-NP'
p1824
g4
tp1825
a(S'unique'
p1826
S'unique'
p1827
S'JJ'
p1828
S'I-NP'
p1829
g4
tp1830
a(S'effect'
p1831
S'effect'
p1832
S'NN'
p1833
S'I-NP'
p1834
g4
tp1835
a(S'on'
p1836
S'on'
p1837
S'IN'
p1838
S'B-PP'
p1839
g4
tp1840
a(S'angiotensin'
p1841
S'angiotensin'
p1842
S'NN'
p1843
S'B-NP'
p1844
g4
tp1845
a(S'blockade'
p1846
S'blockade'
p1847
S'NN'
p1848
S'I-NP'
p1849
g4
tp1850
a(g129
g129
g129
g4
g4
tp1851
a.