(lp0
(S'A'
p1
g1
S'DT'
p2
S'B-NP'
p3
S'O'
p4
tp5
a(S'comparison'
p6
S'comparison'
p7
S'NN'
p8
S'I-NP'
p9
g4
tp10
a(S'of'
p11
S'of'
p12
S'IN'
p13
S'B-PP'
p14
g4
tp15
a(S'continuous'
p16
S'continuous'
p17
S'JJ'
p18
S'B-NP'
p19
g4
tp20
a(S'femoral'
p21
S'femoral'
p22
S'JJ'
p23
S'I-NP'
p24
g4
tp25
a(S'nerve'
p26
S'nerve'
p27
S'NN'
p28
S'I-NP'
p29
g4
tp30
a(S'block'
p31
S'block'
p32
S'NN'
p33
S'I-NP'
p34
g4
tp35
a(S'('
p36
g36
g36
g4
g4
tp37
a(S'CFNB'
p38
S'CFNB'
p39
S'NN'
p40
S'B-NP'
p41
S'B-protein'
p42
tp43
a(S')'
p44
g44
g44
g4
g4
tp45
a(S'and'
p46
S'and'
p47
S'CC'
p48
g4
g4
tp49
a(S'continuous'
p50
S'continuous'
p51
S'JJ'
p52
S'B-NP'
p53
g4
tp54
a(S'epidural'
p55
S'epidural'
p56
S'JJ'
p57
S'I-NP'
p58
g4
tp59
a(S'infusion'
p60
S'infusion'
p61
S'NN'
p62
S'I-NP'
p63
g4
tp64
a(g36
g36
g36
g4
g4
tp65
a(S'CEI'
p66
S'CEI'
p67
S'NN'
p68
S'B-NP'
p69
S'B-protein'
p70
tp71
a(g44
g44
g44
g4
g4
tp72
a(S'in'
p73
S'in'
p74
S'IN'
p75
S'B-PP'
p76
g4
tp77
a(S'postoperative'
p78
S'postoperative'
p79
S'JJ'
p80
S'B-NP'
p81
g4
tp82
a(S'analgesia'
p83
S'analgesia'
p84
S'NN'
p85
S'I-NP'
p86
g4
tp87
a(S'and'
p88
S'and'
p89
S'CC'
p90
S'I-NP'
p91
g4
tp92
a(S'knee'
p93
S'knee'
p94
S'NN'
p95
S'I-NP'
p96
g4
tp97
a(S'rehabilitation'
p98
S'rehabilitation'
p99
S'NN'
p100
S'I-NP'
p101
g4
tp102
a(S'after'
p103
S'after'
p104
S'IN'
p105
S'B-PP'
p106
g4
tp107
a(S'total'
p108
S'total'
p109
S'JJ'
p110
S'B-NP'
p111
g4
tp112
a(S'knee'
p113
S'knee'
p114
S'NN'
p115
S'I-NP'
p116
g4
tp117
a(S'arthroplasty'
p118
S'arthroplasty'
p119
S'NN'
p120
S'I-NP'
p121
g4
tp122
a(g36
g36
g36
g4
g4
tp123
a(S'TKA'
p124
S'TKA'
p125
S'NN'
p126
S'B-NP'
p127
S'B-protein'
p128
tp129
a(g44
g44
g44
g4
g4
tp130
a(S'.'
p131
g131
g131
g4
g4
tp132
a(S'BACKGROUND'
p133
S'BACKGROUND'
p134
S'NN'
p135
S'B-NP'
p136
g4
tp137
a(S'Postoperative'
p138
S'Postoperative'
p139
S'JJ'
p140
S'I-NP'
p141
g4
tp142
a(S'epidural'
p143
S'epidural'
p144
S'JJ'
p145
S'I-NP'
p146
g4
tp147
a(S'analgesia'
p148
S'analgesia'
p149
S'NN'
p150
S'I-NP'
p151
g4
tp152
a(g36
g36
g36
g4
g4
tp153
a(S'EA'
p154
S'EA'
p155
S'NN'
p156
S'B-NP'
p157
S'B-protein'
p158
tp159
a(g44
g44
g44
g4
g4
tp160
a(S'and'
p161
S'and'
p162
S'CC'
p163
g4
g4
tp164
a(S'femoral'
p165
S'femoral'
p166
S'JJ'
p167
S'B-NP'
p168
g4
tp169
a(S'nerve'
p170
S'nerve'
p171
S'NN'
p172
S'I-NP'
p173
g4
tp174
a(S'block'
p175
S'block'
p176
S'NN'
p177
S'I-NP'
p178
g4
tp179
a(g36
g36
g36
g4
g4
tp180
a(S'FNB'
p181
S'FNB'
p182
S'NN'
p183
S'B-NP'
p184
S'B-protein'
p185
tp186
a(g44
g44
g44
g4
g4
tp187
a(S'provided'
p188
S'provide'
p189
S'VBD'
p190
S'B-VP'
p191
g4
tp192
a(S'effective'
p193
S'effective'
p194
S'JJ'
p195
S'B-NP'
p196
g4
tp197
a(S'pain'
p198
S'pain'
p199
S'NN'
p200
S'I-NP'
p201
g4
tp202
a(S'relief'
p203
S'relief'
p204
S'NN'
p205
S'I-NP'
p206
g4
tp207
a(S'However'
p208
S'However'
p209
S'RB'
p210
S'B-ADVP'
p211
g4
tp212
a(S','
p213
g213
g213
g4
g4
tp214
a(S'EA'
p215
S'EA'
p216
S'NN'
p217
S'B-NP'
p218
S'B-protein'
p219
tp220
a(S'has'
p221
S'have'
p222
S'VBZ'
p223
S'B-VP'
p224
g4
tp225
a(S'common'
p226
S'common'
p227
S'JJ'
p228
S'B-NP'
p229
g4
tp230
a(S'side'
p231
S'side'
p232
S'JJ'
p233
S'I-NP'
p234
g4
tp235
a(S'effects'
p236
S'effect'
p237
S'NNS'
p238
S'I-NP'
p239
g4
tp240
a(S'such'
p241
S'such'
p242
S'JJ'
p243
S'B-PP'
p244
g4
tp245
a(S'as'
p246
S'as'
p247
S'IN'
p248
S'I-PP'
p249
g4
tp250
a(S'nausea'
p251
S'nausea'
p252
S'NN'
p253
S'B-NP'
p254
g4
tp255
a(g213
g213
g213
g4
g4
tp256
a(S'vomiting'
p257
S'vomiting'
p258
S'NN'
p259
S'B-NP'
p260
g4
tp261
a(g213
g213
g213
g4
g4
tp262
a(S'pruritus'
p263
S'pruritus'
p264
S'NN'
p265
S'B-NP'
p266
g4
tp267
a(g213
g213
g213
g4
g4
tp268
a(S'dizziness'
p269
S'dizziness'
p270
S'NN'
p271
S'B-NP'
p272
g4
tp273
a(g213
g213
g213
g4
g4
tp274
a(S'and'
p275
S'and'
p276
S'CC'
p277
g4
g4
tp278
a(S'hypotension.'
p279
S'hypotension.'
p280
S'VB'
p281
S'B-VP'
p282
g4
tp283
a(S'Some'
p284
S'Some'
p285
S'DT'
p286
S'B-NP'
p287
g4
tp288
a(S'investigations'
p289
S'investigation'
p290
S'NNS'
p291
S'I-NP'
p292
g4
tp293
a(S'found'
p294
S'find'
p295
S'VBD'
p296
S'B-VP'
p297
g4
tp298
a(S'that'
p299
S'that'
p300
S'IN'
p301
S'B-SBAR'
p302
g4
tp303
a(S'those'
p304
S'those'
p305
S'DT'
p306
S'B-NP'
p307
g4
tp308
a(S'side'
p309
S'side'
p310
S'JJ'
p311
S'I-NP'
p312
g4
tp313
a(S'effects'
p314
S'effect'
p315
S'NNS'
p316
S'I-NP'
p317
g4
tp318
a(S'were'
p319
S'be'
p320
S'VBD'
p321
S'B-VP'
p322
g4
tp323
a(S'less'
p324
S'less'
p325
S'JJR'
p326
S'B-ADJP'
p327
g4
tp328
a(S'in'
p329
S'in'
p330
S'IN'
p331
S'B-PP'
p332
g4
tp333
a(S'FNB'
p334
S'FNB'
p335
S'NN'
p336
S'B-NP'
p337
S'B-protein'
p338
tp339
a(S'than'
p340
S'than'
p341
S'IN'
p342
S'B-PP'
p343
g4
tp344
a(S'in'
p345
S'in'
p346
S'IN'
p347
S'B-PP'
p348
g4
tp349
a(S'EA.'
p350
S'EA.'
p351
S'NNP'
p352
S'B-NP'
p353
g4
tp354
a(S'However'
p355
S'However'
p356
S'NNP'
p357
S'I-NP'
p358
g4
tp359
a(S'the'
p360
S'the'
p361
S'DT'
p362
S'B-NP'
p363
g4
tp364
a(S'analgesic'
p365
S'analgesic'
p366
S'JJ'
p367
S'I-NP'
p368
g4
tp369
a(S'equivalent'
p370
S'equivalent'
p371
S'NN'
p372
S'I-NP'
p373
g4
tp374
a(S'of'
p375
S'of'
p376
S'IN'
p377
S'B-PP'
p378
g4
tp379
a(S'both'
p380
S'both'
p381
S'DT'
p382
S'B-NP'
p383
g4
tp384
a(S'techniques'
p385
S'technique'
p386
S'NNS'
p387
S'I-NP'
p388
g4
tp389
a(S'have'
p390
S'have'
p391
S'VBP'
p392
S'B-VP'
p393
g4
tp394
a(S'not'
p395
S'not'
p396
S'RB'
p397
S'I-VP'
p398
g4
tp399
a(S'been'
p400
S'be'
p401
S'VBN'
p402
S'I-VP'
p403
g4
tp404
a(S'confirmed'
p405
S'confirm'
p406
S'VBN'
p407
S'I-VP'
p408
g4
tp409
a(g131
g131
g131
g4
g4
tp410
a(S'OBJECTIVE'
p411
S'OBJECTIVE'
p412
S'IN'
p413
S'B-PP'
p414
g4
tp415
a(S'The'
p416
S'The'
p417
S'DT'
p418
S'B-NP'
p419
g4
tp420
a(S'authors'
p421
S'author'
p422
S'NNS'
p423
S'I-NP'
p424
g4
tp425
a(S'compared'
p426
S'compare'
p427
S'VBD'
p428
S'B-VP'
p429
g4
tp430
a(S'continuous'
p431
S'continuous'
p432
S'JJ'
p433
S'B-NP'
p434
g4
tp435
a(S'epidural'
p436
S'epidural'
p437
S'JJ'
p438
S'I-NP'
p439
g4
tp440
a(S'infusion'
p441
S'infusion'
p442
S'NN'
p443
S'I-NP'
p444
g4
tp445
a(g36
g36
g36
g4
g4
tp446
a(S'CEI'
p447
S'CEI'
p448
S'NN'
p449
S'B-NP'
p450
g4
tp451
a(g44
g44
g44
g4
g4
tp452
a(S'with'
p453
S'with'
p454
S'IN'
p455
S'B-PP'
p456
g4
tp457
a(S'continuous'
p458
S'continuous'
p459
S'JJ'
p460
S'B-NP'
p461
g4
tp462
a(S'femoral'
p463
S'femoral'
p464
S'JJ'
p465
S'I-NP'
p466
g4
tp467
a(S'nerve'
p468
S'nerve'
p469
S'NN'
p470
S'I-NP'
p471
g4
tp472
a(S'block'
p473
S'block'
p474
S'NN'
p475
S'I-NP'
p476
g4
tp477
a(g36
g36
g36
g4
g4
tp478
a(S'CFNB'
p479
S'CFNB'
p480
S'NN'
p481
S'B-NP'
p482
S'B-protein'
p483
tp484
a(g44
g44
g44
g4
g4
tp485
a(S'regarding'
p486
S'regard'
p487
S'VBG'
p488
S'B-VP'
p489
g4
tp490
a(S'the'
p491
S'the'
p492
S'DT'
p493
S'B-NP'
p494
g4
tp495
a(S'postoperative'
p496
S'postoperative'
p497
S'JJ'
p498
S'I-NP'
p499
g4
tp500
a(S'analgesic'
p501
S'analgesic'
p502
S'JJ'
p503
S'I-NP'
p504
g4
tp505
a(S'efficacy'
p506
S'efficacy'
p507
S'NN'
p508
S'I-NP'
p509
g4
tp510
a(g213
g213
g213
g4
g4
tp511
a(S'side'
p512
S'side'
p513
S'NN'
p514
S'B-NP'
p515
g4
tp516
a(S'effects'
p517
S'effect'
p518
S'NNS'
p519
S'I-NP'
p520
g4
tp521
a(g213
g213
g213
g4
g4
tp522
a(S'postoperative'
p523
S'postoperative'
p524
S'JJ'
p525
S'B-NP'
p526
g4
tp527
a(S'knee'
p528
S'knee'
p529
S'NN'
p530
S'I-NP'
p531
g4
tp532
a(S'rehabilitation'
p533
S'rehabilitation'
p534
S'NN'
p535
S'I-NP'
p536
g4
tp537
a(g213
g213
g213
g4
g4
tp538
a(S'and'
p539
S'and'
p540
S'CC'
p541
g4
g4
tp542
a(S'hospital'
p543
S'hospital'
p544
S'NN'
p545
S'B-NP'
p546
g4
tp547
a(S'length'
p548
S'length'
p549
S'NN'
p550
S'I-NP'
p551
g4
tp552
a(S'of'
p553
S'of'
p554
S'IN'
p555
S'B-PP'
p556
g4
tp557
a(S'stay'
p558
S'stay'
p559
S'NN'
p560
S'B-NP'
p561
g4
tp562
a(g36
g36
g36
g4
g4
tp563
a(S'LOS'
p564
S'LOS'
p565
S'NN'
p566
S'B-NP'
p567
S'B-protein'
p568
tp569
a(g44
g44
g44
g4
g4
tp570
a(g131
g131
g131
g4
g4
tp571
a(S'MATERIAL'
p572
S'MATERIAL'
p573
S'NN'
p574
S'B-NP'
p575
g4
tp576
a(S'AND'
p577
S'AND'
p578
S'CC'
p579
S'I-NP'
p580
g4
tp581
a(S'METHOD'
p582
S'METHOD'
p583
S'NN'
p584
S'I-NP'
p585
g4
tp586
a(S'In'
p587
S'In'
p588
S'IN'
p589
S'B-PP'
p590
g4
tp591
a(S'this'
p592
S'this'
p593
S'DT'
p594
S'B-NP'
p595
g4
tp596
a(S'prospective'
p597
S'prospective'
p598
S'JJ'
p599
S'I-NP'
p600
g4
tp601
a(g213
g213
g213
g4
g4
tp602
a(S'randomized'
p603
S'randomize'
p604
S'VBD'
p605
S'B-VP'
p606
g4
tp607
a(S'controlled'
p608
S'control'
p609
S'VBN'
p610
S'I-VP'
p611
g4
tp612
a(S'study'
p613
S'study'
p614
S'NN'
p615
S'B-NP'
p616
g4
tp617
a(g213
g213
g213
g4
g4
tp618
a(S'61'
p619
S'61'
p620
S'CD'
p621
S'B-NP'
p622
g4
tp623
a(S'ASA'
p624
S'ASA'
p625
S'NN'
p626
S'I-NP'
p627
g4
tp628
a(S'physical'
p629
S'physical'
p630
S'JJ'
p631
S'I-NP'
p632
g4
tp633
a(S'status'
p634
S'status'
p635
S'NN'
p636
S'I-NP'
p637
g4
tp638
a(S'I-III'
p639
S'I-III'
p640
S'NN'
p641
S'I-NP'
p642
g4
tp643
a(S'patients'
p644
S'patient'
p645
S'NNS'
p646
S'I-NP'
p647
g4
tp648
a(S'scheduled'
p649
S'schedule'
p650
S'VBN'
p651
S'B-VP'
p652
g4
tp653
a(S'for'
p654
S'for'
p655
S'IN'
p656
S'B-PP'
p657
g4
tp658
a(S'elective'
p659
S'elective'
p660
S'JJ'
p661
S'B-NP'
p662
g4
tp663
a(S'unilateral'
p664
S'unilateral'
p665
S'JJ'
p666
S'I-NP'
p667
g4
tp668
a(S'total'
p669
S'total'
p670
S'JJ'
p671
S'I-NP'
p672
g4
tp673
a(S'knee'
p674
S'knee'
p675
S'NN'
p676
S'I-NP'
p677
g4
tp678
a(S'arthroplasty'
p679
S'arthroplasty'
p680
S'NN'
p681
S'I-NP'
p682
g4
tp683
a(g36
g36
g36
g4
g4
tp684
a(S'TKA'
p685
S'TKA'
p686
S'NN'
p687
S'B-NP'
p688
g4
tp689
a(g44
g44
g44
g4
g4
tp690
a(S'under'
p691
S'under'
p692
S'IN'
p693
S'B-PP'
p694
g4
tp695
a(S'spinal'
p696
S'spinal'
p697
S'JJ'
p698
S'B-NP'
p699
g4
tp700
a(S'anesthesia'
p701
S'anesthesia'
p702
S'NN'
p703
S'I-NP'
p704
g4
tp705
a(g36
g36
g36
g4
g4
tp706
a(S'SA'
p707
S'SA'
p708
S'NN'
p709
S'B-NP'
p710
g4
tp711
a(g44
g44
g44
g4
g4
tp712
a(S'participated.'
p713
S'participated.'
p714
S'VBP'
p715
S'B-VP'
p716
g4
tp717
a(S'The'
p718
S'The'
p719
S'DT'
p720
S'B-NP'
p721
g4
tp722
a(S'patients'
p723
S'patient'
p724
S'NNS'
p725
S'I-NP'
p726
g4
tp727
a(S'were'
p728
S'be'
p729
S'VBD'
p730
S'B-VP'
p731
g4
tp732
a(S'allocated'
p733
S'allocate'
p734
S'VBN'
p735
S'I-VP'
p736
g4
tp737
a(S'into'
p738
S'into'
p739
S'IN'
p740
S'B-PP'
p741
g4
tp742
a(S'two'
p743
S'two'
p744
S'CD'
p745
S'B-NP'
p746
g4
tp747
a(S'groups.'
p748
S'groups.'
p749
S'NNS'
p750
S'I-NP'
p751
g4
tp752
a(S'In'
p753
S'In'
p754
S'IN'
p755
S'B-PP'
p756
g4
tp757
a(S'the'
p758
S'the'
p759
S'DT'
p760
S'B-NP'
p761
g4
tp762
a(S'ward'
p763
S'ward'
p764
S'NN'
p765
S'I-NP'
p766
g4
tp767
a(g213
g213
g213
g4
g4
tp768
a(S'patients'
p769
S'patient'
p770
S'NNS'
p771
S'B-NP'
p772
g4
tp773
a(S'in'
p774
S'in'
p775
S'IN'
p776
S'B-PP'
p777
g4
tp778
a(S'Group'
p779
S'Group'
p780
S'NN'
p781
S'B-NP'
p782
g4
tp783
a(S'I'
p784
g784
S'CD'
p785
S'I-NP'
p786
g4
tp787
a(g36
g36
g36
g4
g4
tp788
a(S'CEI'
p789
S'CEI'
p790
S'NN'
p791
S'B-NP'
p792
g4
tp793
a(g44
g44
g44
g4
g4
tp794
a(S'were'
p795
S'be'
p796
S'VBD'
p797
S'B-VP'
p798
g4
tp799
a(S'maintained'
p800
S'maintain'
p801
S'VBN'
p802
S'I-VP'
p803
g4
tp804
a(S'by'
p805
S'by'
p806
S'IN'
p807
S'B-PP'
p808
g4
tp809
a(S'continuous'
p810
S'continuous'
p811
S'JJ'
p812
S'B-NP'
p813
g4
tp814
a(S'infusion'
p815
S'infusion'
p816
S'NN'
p817
S'I-NP'
p818
g4
tp819
a(S'of'
p820
S'of'
p821
S'IN'
p822
S'B-PP'
p823
g4
tp824
a(S'0.125'
p825
S'0.125'
p826
S'CD'
p827
S'B-NP'
p828
g4
tp829
a(S'%'
p830
g830
S'NN'
p831
S'I-NP'
p832
g4
tp833
a(S'levobupivacaine'
p834
S'levobupivacaine'
p835
S'NN'
p836
S'I-NP'
p837
g4
tp838
a(S'with'
p839
S'with'
p840
S'IN'
p841
S'B-PP'
p842
g4
tp843
a(S'morphine'
p844
S'morphine'
p845
S'NN'
p846
S'B-NP'
p847
g4
tp848
a(S'0.0125'
p849
S'0.0125'
p850
S'CD'
p851
S'I-NP'
p852
g4
tp853
a(S'mg/ml'
p854
S'mg/ml'
p855
S'NN'
p856
S'I-NP'
p857
g4
tp858
a(g36
g36
g36
g4
g4
tp859
a(S'4'
p860
g860
S'CD'
p861
S'B-NP'
p862
g4
tp863
a(S'ml/hr'
p864
S'ml/hr'
p865
S'NN'
p866
S'I-NP'
p867
g4
tp868
a(g44
g44
g44
g4
g4
tp869
a(g213
g213
g213
g4
g4
tp870
a(S'Group'
p871
S'Group'
p872
S'NN'
p873
S'B-NP'
p874
S'B-protein'
p875
tp876
a(S'II'
p877
S'II'
p878
S'CD'
p879
S'I-NP'
p880
S'I-protein'
p881
tp882
a(g36
g36
g36
g4
g4
tp883
a(S'CFNB'
p884
S'CFNB'
p885
S'NN'
p886
S'B-NP'
p887
S'B-protein'
p888
tp889
a(g44
g44
g44
g4
g4
tp890
a(S'were'
p891
S'be'
p892
S'VBD'
p893
S'B-VP'
p894
g4
tp895
a(S'maintained'
p896
S'maintain'
p897
S'VBN'
p898
S'I-VP'
p899
g4
tp900
a(S'by'
p901
S'by'
p902
S'IN'
p903
S'B-PP'
p904
g4
tp905
a(S'0.125'
p906
S'0.125'
p907
S'CD'
p908
S'B-NP'
p909
g4
tp910
a(g830
g830
S'NN'
p911
S'I-NP'
p912
g4
tp913
a(S'levobupivacaine'
p914
S'levobupivacaine'
p915
S'NN'
p916
S'I-NP'
p917
g4
tp918
a(g36
g36
g36
g4
g4
tp919
a(S'8'
p920
g920
S'CD'
p921
S'B-NP'
p922
g4
tp923
a(S'ml/hr'
p924
S'ml/hr'
p925
S'NN'
p926
S'I-NP'
p927
g4
tp928
a(g44
g44
g44
g4
g4
tp929
a(g131
g131
g131
g4
g4
tp930
a(S'RESULTS'
p931
S'RESULTS'
p932
S'NNS'
p933
S'B-NP'
p934
g4
tp935
a(S'Patients'
p936
S'Patient'
p937
S'NNS'
p938
S'I-NP'
p939
g4
tp940
a(S'in'
p941
S'in'
p942
S'IN'
p943
S'B-PP'
p944
g4
tp945
a(S'the'
p946
S'the'
p947
S'DT'
p948
S'B-NP'
p949
g4
tp950
a(S'CFNB'
p951
S'CFNB'
p952
S'NNP'
p953
S'I-NP'
p954
g4
tp955
a(S'group'
p956
S'group'
p957
S'NN'
p958
S'I-NP'
p959
g4
tp960
a(g213
g213
g213
g4
g4
tp961
a(S'the'
p962
S'the'
p963
S'DT'
p964
S'B-NP'
p965
g4
tp966
a(S'VAS'
p967
S'VAS'
p968
S'NNP'
p969
S'I-NP'
p970
g4
tp971
a(S'scores'
p972
S'score'
p973
S'NNS'
p974
S'I-NP'
p975
g4
tp976
a(S'at'
p977
S'at'
p978
S'IN'
p979
S'B-PP'
p980
g4
tp981
a(S'PO6-12'
p982
S'PO6-12'
p983
S'NN'
p984
S'B-NP'
p985
g4
tp986
a(S'hr'
p987
S'hr'
p988
S'NN'
p989
S'I-NP'
p990
g4
tp991
a(S'and'
p992
S'and'
p993
S'CC'
p994
g4
g4
tp995
a(S'tramadol'
p996
S'tramadol'
p997
S'NN'
p998
S'B-NP'
p999
g4
tp1000
a(S'IV'
p1001
S'IV'
p1002
S'CD'
p1003
S'I-NP'
p1004
g4
tp1005
a(S'requirement'
p1006
S'requirement'
p1007
S'NN'
p1008
S'I-NP'
p1009
g4
tp1010
a(S'were'
p1011
S'be'
p1012
S'VBD'
p1013
S'B-VP'
p1014
g4
tp1015
a(S'significantly'
p1016
S'significantly'
p1017
S'RB'
p1018
S'B-ADJP'
p1019
g4
tp1020
a(S'greater'
p1021
S'great'
p1022
S'JJR'
p1023
S'I-ADJP'
p1024
g4
tp1025
a(S'than'
p1026
S'than'
p1027
S'IN'
p1028
S'B-PP'
p1029
g4
tp1030
a(S'the'
p1031
S'the'
p1032
S'DT'
p1033
S'B-NP'
p1034
g4
tp1035
a(S'CEI'
p1036
S'CEI'
p1037
S'NN'
p1038
S'I-NP'
p1039
g4
tp1040
a(S'group'
p1041
S'group'
p1042
S'NN'
p1043
S'I-NP'
p1044
g4
tp1045
a(g36
g36
g36
g4
g4
tp1046
a(S'VAS'
p1047
S'VAS'
p1048
S'NN'
p1049
S'B-NP'
p1050
g4
tp1051
a(S':'
p1052
g1052
g1052
g4
g4
tp1053
a(S'PO6'
p1054
S'PO6'
p1055
S'NN'
p1056
S'B-NP'
p1057
g4
tp1058
a(S'hr'
p1059
S'hr'
p1060
S'NN'
p1061
S'I-NP'
p1062
g4
tp1063
a(S'p-value'
p1064
S'p-value'
p1065
S'NN'
p1066
S'I-NP'
p1067
g4
tp1068
a(S'='
p1069
g1069
S'SYM'
p1070
S'B-VP'
p1071
g4
tp1072
a(S'0.001'
p1073
S'0.001'
p1074
S'CD'
p1075
S'B-NP'
p1076
g4
tp1077
a(g213
g213
g213
g4
g4
tp1078
a(S'PO12'
p1079
S'PO12'
p1080
S'NN'
p1081
S'B-NP'
p1082
g4
tp1083
a(S'hr'
p1084
S'hr'
p1085
S'NN'
p1086
S'I-NP'
p1087
g4
tp1088
a(S'p-value'
p1089
S'p-value'
p1090
S'NN'
p1091
S'I-NP'
p1092
g4
tp1093
a(g1069
g1069
S'SYM'
p1094
S'B-VP'
p1095
g4
tp1096
a(S'0.004'
p1097
S'0.004'
p1098
S'CD'
p1099
S'B-NP'
p1100
g4
tp1101
a(g44
g44
g44
g4
g4
tp1102
a(g131
g131
g131
g4
g4
tp1103
a(S'Patients'
p1104
S'Patient'
p1105
S'NNPS'
p1106
S'B-NP'
p1107
g4
tp1108
a(S'in'
p1109
S'in'
p1110
S'IN'
p1111
S'B-PP'
p1112
g4
tp1113
a(S'the'
p1114
S'the'
p1115
S'DT'
p1116
S'B-NP'
p1117
g4
tp1118
a(S'CEI'
p1119
S'CEI'
p1120
S'NN'
p1121
S'I-NP'
p1122
g4
tp1123
a(S'group'
p1124
S'group'
p1125
S'NN'
p1126
S'I-NP'
p1127
g4
tp1128
a(S'experienced'
p1129
S'experience'
p1130
S'VBD'
p1131
S'B-VP'
p1132
g4
tp1133
a(S'dizziness'
p1134
S'dizziness'
p1135
S'NN'
p1136
S'B-NP'
p1137
g4
tp1138
a(g213
g213
g213
g4
g4
tp1139
a(S'pruritus'
p1140
S'pruritus'
p1141
S'NN'
p1142
S'B-NP'
p1143
g4
tp1144
a(g213
g213
g213
g4
g4
tp1145
a(S'and'
p1146
S'and'
p1147
S'CC'
p1148
g4
g4
tp1149
a(S'PONV'
p1150
S'PONV'
p1151
S'NN'
p1152
S'B-NP'
p1153
S'B-protein'
p1154
tp1155
a(S'more'
p1156
S'more'
p1157
S'JJR'
p1158
S'B-ADJP'
p1159
g4
tp1160
a(S'than'
p1161
S'than'
p1162
S'IN'
p1163
S'B-PP'
p1164
g4
tp1165
a(S'the'
p1166
S'the'
p1167
S'DT'
p1168
S'B-NP'
p1169
g4
tp1170
a(S'CFNB'
p1171
S'CFNB'
p1172
S'NN'
p1173
S'I-NP'
p1174
g4
tp1175
a(S'group'
p1176
S'group'
p1177
S'NN'
p1178
S'I-NP'
p1179
g4
tp1180
a(S'significantly.'
p1181
S'significantly.'
p1182
S'NN'
p1183
S'I-NP'
p1184
g4
tp1185
a(S'Patient'
p1186
S'Patient'
p1187
S'NN'
p1188
S'I-NP'
p1189
g4
tp1190
a(S'satisfaction'
p1191
S'satisfaction'
p1192
S'NN'
p1193
S'I-NP'
p1194
g4
tp1195
a(S'was'
p1196
S'be'
p1197
S'VBD'
p1198
S'B-VP'
p1199
g4
tp1200
a(S'greater'
p1201
S'great'
p1202
S'JJR'
p1203
S'B-ADJP'
p1204
g4
tp1205
a(S'with'
p1206
S'with'
p1207
S'IN'
p1208
S'B-PP'
p1209
g4
tp1210
a(S'the'
p1211
S'the'
p1212
S'DT'
p1213
S'B-NP'
p1214
g4
tp1215
a(S'CFNB'
p1216
S'CFNB'
p1217
S'NNP'
p1218
S'I-NP'
p1219
g4
tp1220
a(S'group'
p1221
S'group'
p1222
S'NN'
p1223
S'I-NP'
p1224
g4
tp1225
a(S'although'
p1226
S'although'
p1227
S'IN'
p1228
S'B-SBAR'
p1229
g4
tp1230
a(S'postoperative'
p1231
S'postoperative'
p1232
S'JJ'
p1233
S'B-NP'
p1234
g4
tp1235
a(S'knee'
p1236
S'knee'
p1237
S'NN'
p1238
S'I-NP'
p1239
g4
tp1240
a(S'rehabilitation'
p1241
S'rehabilitation'
p1242
S'NN'
p1243
S'I-NP'
p1244
g4
tp1245
a(S'and'
p1246
S'and'
p1247
S'CC'
p1248
g4
g4
tp1249
a(S'the'
p1250
S'the'
p1251
S'DT'
p1252
S'B-NP'
p1253
g4
tp1254
a(S'hospital'
p1255
S'hospital'
p1256
S'NN'
p1257
S'I-NP'
p1258
g4
tp1259
a(S'LOS'
p1260
S'LOS'
p1261
S'NN'
p1262
S'I-NP'
p1263
g4
tp1264
a(S'were'
p1265
S'be'
p1266
S'VBD'
p1267
S'B-VP'
p1268
g4
tp1269
a(S'not'
p1270
S'not'
p1271
S'RB'
p1272
S'B-ADJP'
p1273
g4
tp1274
a(S'different'
p1275
S'different'
p1276
S'JJ'
p1277
S'I-ADJP'
p1278
g4
tp1279
a(g131
g131
g131
g4
g4
tp1280
a(S'CONCLUSION'
p1281
S'CONCLUSION'
p1282
S'NN'
p1283
S'B-NP'
p1284
g4
tp1285
a(S'CFNB'
p1286
S'CFNB'
p1287
S'NN'
p1288
S'I-NP'
p1289
g4
tp1290
a(S'represents'
p1291
S'represent'
p1292
S'VBZ'
p1293
S'B-VP'
p1294
g4
tp1295
a(S'the'
p1296
S'the'
p1297
S'DT'
p1298
S'B-NP'
p1299
g4
tp1300
a(S'optimal'
p1301
S'optimal'
p1302
S'JJ'
p1303
S'I-NP'
p1304
g4
tp1305
a(S'analgesia'
p1306
S'analgesia'
p1307
S'NN'
p1308
S'I-NP'
p1309
g4
tp1310
a(S'with'
p1311
S'with'
p1312
S'IN'
p1313
S'B-PP'
p1314
g4
tp1315
a(S'fewer'
p1316
S'few'
p1317
S'JJR'
p1318
S'B-NP'
p1319
g4
tp1320
a(S'side'
p1321
S'side'
p1322
S'NN'
p1323
S'I-NP'
p1324
g4
tp1325
a(S'effects'
p1326
S'effect'
p1327
S'NNS'
p1328
S'I-NP'
p1329
g4
tp1330
a(S'and'
p1331
S'and'
p1332
S'CC'
p1333
g4
g4
tp1334
a(S'greater'
p1335
S'great'
p1336
S'JJR'
p1337
S'B-NP'
p1338
g4
tp1339
a(S'patient'
p1340
S'patient'
p1341
S'NN'
p1342
S'I-NP'
p1343
g4
tp1344
a(g213
g213
g213
g4
g4
tp1345
a(S'satisfaction.'
p1346
S'satisfaction.'
p1347
S'FW'
p1348
S'B-PP'
p1349
g4
tp1350
a(S'The'
p1351
S'The'
p1352
S'DT'
p1353
S'B-NP'
p1354
g4
tp1355
a(S'rehabilitation'
p1356
S'rehabilitation'
p1357
S'NN'
p1358
S'I-NP'
p1359
g4
tp1360
a(S'indices'
p1361
S'index'
p1362
S'NNS'
p1363
S'I-NP'
p1364
g4
tp1365
a(S'and'
p1366
S'and'
p1367
S'CC'
p1368
g4
g4
tp1369
a(S'duration'
p1370
S'duration'
p1371
S'NN'
p1372
S'B-NP'
p1373
g4
tp1374
a(S'of'
p1375
S'of'
p1376
S'IN'
p1377
S'B-PP'
p1378
g4
tp1379
a(S'hospital'
p1380
S'hospital'
p1381
S'NN'
p1382
S'B-NP'
p1383
g4
tp1384
a(S'stay'
p1385
S'stay'
p1386
S'NN'
p1387
S'I-NP'
p1388
g4
tp1389
a(S'are'
p1390
S'be'
p1391
S'VBP'
p1392
S'B-VP'
p1393
g4
tp1394
a(S'comparable'
p1395
S'comparable'
p1396
S'JJ'
p1397
S'B-ADJP'
p1398
g4
tp1399
a(S'in'
p1400
S'in'
p1401
S'IN'
p1402
S'B-PP'
p1403
g4
tp1404
a(S'both'
p1405
S'both'
p1406
S'DT'
p1407
S'B-NP'
p1408
g4
tp1409
a(S'groups'
p1410
S'group'
p1411
S'NNS'
p1412
S'I-NP'
p1413
g4
tp1414
a(g131
g131
g131
g4
g4
tp1415
a.