(lp0
(S'Recurrent'
p1
S'Recurrent'
p2
S'JJ'
p3
S'B-NP'
p4
S'O'
p5
tp6
a(S'epithelial'
p7
S'epithelial'
p8
S'JJ'
p9
S'I-NP'
p10
g5
tp11
a(S'ovarian'
p12
S'ovarian'
p13
S'JJ'
p14
S'I-NP'
p15
g5
tp16
a(S'carcinoma'
p17
S'carcinoma'
p18
S'NN'
p19
S'I-NP'
p20
g5
tp21
a(S':'
p22
g22
g22
g5
g5
tp23
a(S'a'
p24
g24
S'DT'
p25
S'B-NP'
p26
g5
tp27
a(S'randomized'
p28
S'randomize'
p29
S'VBN'
p30
S'I-NP'
p31
g5
tp32
a(S'phase'
p33
S'phase'
p34
S'NN'
p35
S'I-NP'
p36
g5
tp37
a(S'III'
p38
S'III'
p39
S'CD'
p40
S'I-NP'
p41
g5
tp42
a(S'study'
p43
S'study'
p44
S'NN'
p45
S'I-NP'
p46
g5
tp47
a(S'of'
p48
S'of'
p49
S'IN'
p50
S'B-PP'
p51
g5
tp52
a(S'pegylated'
p53
S'pegylate'
p54
S'VBN'
p55
S'B-NP'
p56
g5
tp57
a(S'liposomal'
p58
S'liposomal'
p59
S'JJ'
p60
S'I-NP'
p61
g5
tp62
a(S'doxorubicin'
p63
S'doxorubicin'
p64
S'NN'
p65
S'I-NP'
p66
g5
tp67
a(S'versus'
p68
S'versus'
p69
S'IN'
p70
S'B-PP'
p71
g5
tp72
a(S'topotecan'
p73
S'topotecan'
p74
S'NN'
p75
S'B-NP'
p76
g5
tp77
a(S'.'
p78
g78
g78
g5
g5
tp79
a(S'PURPOSE'
p80
S'PURPOSE'
p81
S'NN'
p82
S'B-NP'
p83
g5
tp84
a(S'To'
p85
S'To'
p86
S'TO'
p87
S'B-VP'
p88
g5
tp89
a(S'compare'
p90
S'compare'
p91
S'VB'
p92
S'I-VP'
p93
g5
tp94
a(S'the'
p95
S'the'
p96
S'DT'
p97
S'B-NP'
p98
g5
tp99
a(S'efficacy'
p100
S'efficacy'
p101
S'NN'
p102
S'I-NP'
p103
g5
tp104
a(S'and'
p105
S'and'
p106
S'CC'
p107
S'I-NP'
p108
g5
tp109
a(S'safety'
p110
S'safety'
p111
S'NN'
p112
S'I-NP'
p113
g5
tp114
a(S'of'
p115
S'of'
p116
S'IN'
p117
S'B-PP'
p118
g5
tp119
a(S'pegylated'
p120
S'pegylate'
p121
S'VBN'
p122
S'B-NP'
p123
g5
tp124
a(S'liposomal'
p125
S'liposomal'
p126
S'JJ'
p127
S'I-NP'
p128
g5
tp129
a(S'doxorubicin'
p130
S'doxorubicin'
p131
S'NN'
p132
S'I-NP'
p133
g5
tp134
a(S'('
p135
g135
g135
g5
g5
tp136
a(S'PLD'
p137
S'PLD'
p138
S'NN'
p139
S'B-NP'
p140
S'B-protein'
p141
tp142
a(S')'
p143
g143
g143
g5
g5
tp144
a(S'and'
p145
S'and'
p146
S'CC'
p147
g5
g5
tp148
a(S'topotecan'
p149
S'topotecan'
p150
S'NN'
p151
S'B-NP'
p152
g5
tp153
a(S'in'
p154
S'in'
p155
S'IN'
p156
S'B-PP'
p157
g5
tp158
a(S'patients'
p159
S'patient'
p160
S'NNS'
p161
S'B-NP'
p162
g5
tp163
a(S'with'
p164
S'with'
p165
S'IN'
p166
S'B-PP'
p167
g5
tp168
a(S'epithelial'
p169
S'epithelial'
p170
S'JJ'
p171
S'B-NP'
p172
g5
tp173
a(S'ovarian'
p174
S'ovarian'
p175
S'JJ'
p176
S'I-NP'
p177
g5
tp178
a(S'carcinoma'
p179
S'carcinoma'
p180
S'NN'
p181
S'I-NP'
p182
g5
tp183
a(S'that'
p184
S'that'
p185
S'WDT'
p186
S'B-NP'
p187
g5
tp188
a(S'recurred'
p189
S'recur'
p190
S'VBD'
p191
S'B-VP'
p192
g5
tp193
a(S'after'
p194
S'after'
p195
S'IN'
p196
S'B-SBAR'
p197
g5
tp198
a(S'or'
p199
S'or'
p200
S'CC'
p201
g5
g5
tp202
a(S'did'
p203
S'do'
p204
S'VBD'
p205
S'B-VP'
p206
g5
tp207
a(S"n't"
p208
S"n't"
p209
S'RB'
p210
S'I-VP'
p211
g5
tp212
a(S'respond'
p213
S'respond'
p214
S'VB'
p215
S'I-VP'
p216
g5
tp217
a(S'to'
p218
S'to'
p219
S'TO'
p220
S'B-PP'
p221
g5
tp222
a(S'first-line'
p223
S'first-line'
p224
S'JJ'
p225
S'B-NP'
p226
g5
tp227
a(S','
p228
g228
g228
S'I-NP'
p229
g5
tp230
a(S'platinum-based'
p231
S'platinum-based'
p232
S'JJ'
p233
S'I-NP'
p234
g5
tp235
a(S'chemotherapy'
p236
S'chemotherapy'
p237
S'NN'
p238
S'I-NP'
p239
g5
tp240
a(g78
g78
g78
g5
g5
tp241
a(S'PATIENTS'
p242
S'PATIENTS'
p243
S'NNS'
p244
S'B-NP'
p245
g5
tp246
a(S'AND'
p247
S'AND'
p248
S'CC'
p249
S'I-NP'
p250
g5
tp251
a(S'METHODS'
p252
S'METHODS'
p253
S'NNS'
p254
S'I-NP'
p255
g5
tp256
a(S'Patients'
p257
S'Patient'
p258
S'NNS'
p259
S'I-NP'
p260
g5
tp261
a(S'with'
p262
S'with'
p263
S'IN'
p264
S'B-PP'
p265
g5
tp266
a(S'measurable'
p267
S'measurable'
p268
S'JJ'
p269
S'B-NP'
p270
g5
tp271
a(S'and'
p272
S'and'
p273
S'CC'
p274
S'I-NP'
p275
g5
tp276
a(S'assessable'
p277
S'assessable'
p278
S'JJ'
p279
S'I-NP'
p280
g5
tp281
a(S'disease'
p282
S'disease'
p283
S'NN'
p284
S'I-NP'
p285
g5
tp286
a(S'were'
p287
S'be'
p288
S'VBD'
p289
S'B-VP'
p290
g5
tp291
a(S'randomized'
p292
S'randomize'
p293
S'VBN'
p294
S'I-VP'
p295
g5
tp296
a(S'to'
p297
S'to'
p298
S'TO'
p299
S'B-VP'
p300
g5
tp301
a(S'receive'
p302
S'receive'
p303
S'VB'
p304
S'I-VP'
p305
g5
tp306
a(S'either'
p307
S'either'
p308
S'CC'
p309
g5
g5
tp310
a(S'PLD'
p311
S'PLD'
p312
S'NN'
p313
S'B-NP'
p314
S'B-protein'
p315
tp316
a(S'50'
p317
S'50'
p318
S'CD'
p319
S'I-NP'
p320
g5
tp321
a(S'mg/m'
p322
S'mg/m'
p323
S'NN'
p324
S'I-NP'
p325
g5
tp326
a(g135
g135
g135
g5
g5
tp327
a(S'2'
p328
g328
S'CD'
p329
S'B-NP'
p330
g5
tp331
a(g143
g143
g143
g5
g5
tp332
a(S'as'
p333
S'as'
p334
S'IN'
p335
S'B-PP'
p336
g5
tp337
a(g24
g24
S'DT'
p338
S'B-NP'
p339
g5
tp340
a(S'1-hour'
p341
S'1-hour'
p342
S'JJ'
p343
S'I-NP'
p344
g5
tp345
a(S'infusion'
p346
S'infusion'
p347
S'NN'
p348
S'I-NP'
p349
g5
tp350
a(S'every'
p351
S'every'
p352
S'DT'
p353
S'B-NP'
p354
g5
tp355
a(S'4'
p356
g356
S'CD'
p357
S'I-NP'
p358
g5
tp359
a(S'weeks'
p360
S'week'
p361
S'NNS'
p362
S'I-NP'
p363
g5
tp364
a(S'or'
p365
S'or'
p366
S'CC'
p367
g5
g5
tp368
a(S'topotecan'
p369
S'topotecan'
p370
S'NN'
p371
S'B-NP'
p372
g5
tp373
a(S'1.5'
p374
S'1.5'
p375
S'CD'
p376
S'I-NP'
p377
g5
tp378
a(S'mg/m'
p379
S'mg/m'
p380
S'NN'
p381
S'I-NP'
p382
g5
tp383
a(g135
g135
g135
g5
g5
tp384
a(g328
g328
S'CD'
p385
S'B-NP'
p386
g5
tp387
a(g143
g143
g143
g5
g5
tp388
a(S'/d'
p389
S'/d'
p390
S'VBN'
p391
S'B-VP'
p392
g5
tp393
a(S'for'
p394
S'for'
p395
S'IN'
p396
S'B-PP'
p397
g5
tp398
a(S'5'
p399
g399
S'CD'
p400
S'B-NP'
p401
g5
tp402
a(S'consecutive'
p403
S'consecutive'
p404
S'JJ'
p405
S'I-NP'
p406
g5
tp407
a(S'days'
p408
S'day'
p409
S'NNS'
p410
S'I-NP'
p411
g5
tp412
a(S'every'
p413
S'every'
p414
S'DT'
p415
S'B-NP'
p416
g5
tp417
a(S'3'
p418
g418
S'CD'
p419
S'I-NP'
p420
g5
tp421
a(S'weeks.'
p422
S'weeks.'
p423
S'NN'
p424
S'I-NP'
p425
g5
tp426
a(S'Patients'
p427
S'Patient'
p428
S'NNS'
p429
S'I-NP'
p430
g5
tp431
a(S'were'
p432
S'be'
p433
S'VBD'
p434
S'B-VP'
p435
g5
tp436
a(S'stratified'
p437
S'stratify'
p438
S'VBN'
p439
S'I-VP'
p440
g5
tp441
a(S'prospectively'
p442
S'prospectively'
p443
S'RB'
p444
S'B-ADVP'
p445
g5
tp446
a(S'for'
p447
S'for'
p448
S'IN'
p449
S'B-PP'
p450
g5
tp451
a(S'platinum'
p452
S'platinum'
p453
S'NN'
p454
S'B-NP'
p455
g5
tp456
a(S'sensitivity'
p457
S'sensitivity'
p458
S'NN'
p459
S'I-NP'
p460
g5
tp461
a(S'and'
p462
S'and'
p463
S'CC'
p464
S'B-PP'
p465
g5
tp466
a(S'for'
p467
S'for'
p468
S'IN'
p469
S'B-PP'
p470
g5
tp471
a(S'the'
p472
S'the'
p473
S'DT'
p474
S'B-NP'
p475
g5
tp476
a(S'presence'
p477
S'presence'
p478
S'NN'
p479
S'I-NP'
p480
g5
tp481
a(S'or'
p482
S'or'
p483
S'CC'
p484
S'I-NP'
p485
g5
tp486
a(S'absence'
p487
S'absence'
p488
S'NN'
p489
S'I-NP'
p490
g5
tp491
a(S'of'
p492
S'of'
p493
S'IN'
p494
S'B-PP'
p495
g5
tp496
a(S'bulky'
p497
S'bulky'
p498
S'JJ'
p499
S'B-NP'
p500
g5
tp501
a(S'disease'
p502
S'disease'
p503
S'NN'
p504
S'I-NP'
p505
g5
tp506
a(g78
g78
g78
g5
g5
tp507
a(S'RESULTS'
p508
S'RESULTS'
p509
S'NNS'
p510
S'B-NP'
p511
g5
tp512
a(S'A'
p513
g513
S'DT'
p514
S'B-NP'
p515
g5
tp516
a(S'total'
p517
S'total'
p518
S'NN'
p519
S'I-NP'
p520
g5
tp521
a(S'of'
p522
S'of'
p523
S'IN'
p524
S'B-PP'
p525
g5
tp526
a(S'474'
p527
S'474'
p528
S'CD'
p529
S'B-NP'
p530
g5
tp531
a(S'patients'
p532
S'patient'
p533
S'NNS'
p534
S'I-NP'
p535
g5
tp536
a(S'were'
p537
S'be'
p538
S'VBD'
p539
S'B-VP'
p540
g5
tp541
a(S'treated'
p542
S'treat'
p543
S'VBN'
p544
S'I-VP'
p545
g5
tp546
a(g135
g135
g135
g5
g5
tp547
a(S'239'
p548
S'239'
p549
S'CD'
p550
S'B-NP'
p551
g5
tp552
a(S'PLD'
p553
S'PLD'
p554
S'NN'
p555
S'I-NP'
p556
S'B-protein'
p557
tp558
a(S'and'
p559
S'and'
p560
S'CC'
p561
g5
g5
tp562
a(S'235'
p563
S'235'
p564
S'CD'
p565
S'B-NP'
p566
g5
tp567
a(S'topotecan'
p568
S'topotecan'
p569
S'NN'
p570
S'I-NP'
p571
g5
tp572
a(g143
g143
g143
g5
g5
tp573
a(g78
g78
g78
g5
g5
tp574
a(S'They'
p575
S'They'
p576
S'PRP'
p577
S'B-NP'
p578
g5
tp579
a(S'comprised'
p580
S'comprise'
p581
S'VBD'
p582
S'B-VP'
p583
g5
tp584
a(S'the'
p585
S'the'
p586
S'DT'
p587
S'B-NP'
p588
g5
tp589
a(S'intent-to-treat'
p590
S'intent-to-treat'
p591
S'JJ'
p592
S'I-NP'
p593
g5
tp594
a(S'population.'
p595
S'population.'
p596
S'NN'
p597
S'I-NP'
p598
g5
tp599
a(S'The'
p600
S'The'
p601
S'DT'
p602
S'B-NP'
p603
g5
tp604
a(S'overall'
p605
S'overall'
p606
S'JJ'
p607
S'I-NP'
p608
g5
tp609
a(S'progression-free'
p610
S'progression-free'
p611
S'JJ'
p612
S'I-NP'
p613
g5
tp614
a(S'survival'
p615
S'survival'
p616
S'NN'
p617
S'I-NP'
p618
g5
tp619
a(S'rates'
p620
S'rate'
p621
S'NNS'
p622
S'I-NP'
p623
g5
tp624
a(S'were'
p625
S'be'
p626
S'VBD'
p627
S'B-VP'
p628
g5
tp629
a(S'similar'
p630
S'similar'
p631
S'JJ'
p632
S'B-ADJP'
p633
g5
tp634
a(S'between'
p635
S'between'
p636
S'IN'
p637
S'B-PP'
p638
g5
tp639
a(S'the'
p640
S'the'
p641
S'DT'
p642
S'B-NP'
p643
g5
tp644
a(S'two'
p645
S'two'
p646
S'CD'
p647
S'I-NP'
p648
g5
tp649
a(S'arms'
p650
S'arm'
p651
S'NNS'
p652
S'I-NP'
p653
g5
tp654
a(g135
g135
g135
g5
g5
tp655
a(S'P'
p656
g656
S'NN'
p657
S'B-NP'
p658
g5
tp659
a(S'=.095'
p660
S'=.095'
p661
S'CD'
p662
S'I-NP'
p663
g5
tp664
a(g143
g143
g143
g5
g5
tp665
a(g78
g78
g78
g5
g5
tp666
a(S'The'
p667
S'The'
p668
S'DT'
p669
S'B-NP'
p670
g5
tp671
a(S'overall'
p672
S'overall'
p673
S'JJ'
p674
S'I-NP'
p675
g5
tp676
a(S'response'
p677
S'response'
p678
S'NN'
p679
S'I-NP'
p680
g5
tp681
a(S'rates'
p682
S'rate'
p683
S'NNS'
p684
S'I-NP'
p685
g5
tp686
a(S'for'
p687
S'for'
p688
S'IN'
p689
S'B-PP'
p690
g5
tp691
a(S'PLD'
p692
S'PLD'
p693
S'NN'
p694
S'B-NP'
p695
S'B-protein'
p696
tp697
a(S'and'
p698
S'and'
p699
S'CC'
p700
S'I-NP'
p701
g5
tp702
a(S'topotecan'
p703
S'topotecan'
p704
S'NN'
p705
S'I-NP'
p706
g5
tp707
a(S'were'
p708
S'be'
p709
S'VBD'
p710
S'B-VP'
p711
g5
tp712
a(S'19.7'
p713
S'19.7'
p714
S'CD'
p715
S'B-NP'
p716
g5
tp717
a(S'%'
p718
g718
S'NN'
p719
S'I-NP'
p720
g5
tp721
a(S'and'
p722
S'and'
p723
S'CC'
p724
g5
g5
tp725
a(S'17.0'
p726
S'17.0'
p727
S'CD'
p728
S'B-NP'
p729
g5
tp730
a(g718
g718
S'NN'
p731
S'I-NP'
p732
g5
tp733
a(g228
g228
g228
g5
g5
tp734
a(S'respectively'
p735
S'respectively'
p736
S'RB'
p737
S'B-ADVP'
p738
g5
tp739
a(g135
g135
g135
g5
g5
tp740
a(g656
g656
S'NN'
p741
S'B-NP'
p742
g5
tp743
a(S'=.390'
p744
S'=.390'
p745
S'CD'
p746
S'I-NP'
p747
g5
tp748
a(g143
g143
g143
g5
g5
tp749
a(g78
g78
g78
g5
g5
tp750
a(S'Median'
p751
S'Median'
p752
S'JJ'
p753
S'B-NP'
p754
g5
tp755
a(S'overall'
p756
S'overall'
p757
S'JJ'
p758
S'I-NP'
p759
g5
tp760
a(S'survival'
p761
S'survival'
p762
S'NN'
p763
S'I-NP'
p764
g5
tp765
a(S'times'
p766
S'time'
p767
S'NNS'
p768
S'I-NP'
p769
g5
tp770
a(S'were'
p771
S'be'
p772
S'VBD'
p773
S'B-VP'
p774
g5
tp775
a(S'60'
p776
S'60'
p777
S'CD'
p778
S'B-NP'
p779
g5
tp780
a(S'weeks'
p781
S'week'
p782
S'NNS'
p783
S'I-NP'
p784
g5
tp785
a(S'for'
p786
S'for'
p787
S'IN'
p788
S'B-PP'
p789
g5
tp790
a(S'PLD'
p791
S'PLD'
p792
S'NN'
p793
S'B-NP'
p794
S'B-protein'
p795
tp796
a(S'and'
p797
S'and'
p798
S'CC'
p799
g5
g5
tp800
a(S'56.7'
p801
S'56.7'
p802
S'CD'
p803
S'B-NP'
p804
g5
tp805
a(S'weeks'
p806
S'week'
p807
S'NNS'
p808
S'I-NP'
p809
g5
tp810
a(S'for'
p811
S'for'
p812
S'IN'
p813
S'B-PP'
p814
g5
tp815
a(S'topotecan.'
p816
S'topotecan.'
p817
S'NN'
p818
S'B-NP'
p819
g5
tp820
a(S'Data'
p821
S'Data'
p822
S'NN'
p823
S'I-NP'
p824
g5
tp825
a(S'analyzed'
p826
S'analyze'
p827
S'VBN'
p828
S'B-VP'
p829
g5
tp830
a(S'in'
p831
S'in'
p832
S'IN'
p833
S'B-PP'
p834
g5
tp835
a(S'platinum-sensitive'
p836
S'platinum-sensitive'
p837
S'JJ'
p838
S'B-NP'
p839
g5
tp840
a(S'patients'
p841
S'patient'
p842
S'NNS'
p843
S'I-NP'
p844
g5
tp845
a(S'demonstrated'
p846
S'demonstrate'
p847
S'VBD'
p848
S'B-VP'
p849
g5
tp850
a(g24
g24
S'DT'
p851
S'B-NP'
p852
g5
tp853
a(S'statistically'
p854
S'statistically'
p855
S'RB'
p856
S'I-NP'
p857
g5
tp858
a(S'significant'
p859
S'significant'
p860
S'JJ'
p861
S'I-NP'
p862
g5
tp863
a(S'benefit'
p864
S'benefit'
p865
S'NN'
p866
S'I-NP'
p867
g5
tp868
a(S'from'
p869
S'from'
p870
S'IN'
p871
S'B-PP'
p872
g5
tp873
a(S'PLD'
p874
S'PLD'
p875
S'NN'
p876
S'B-NP'
p877
S'B-protein'
p878
tp879
a(S'for'
p880
S'for'
p881
S'IN'
p882
S'B-PP'
p883
g5
tp884
a(S'progression-free'
p885
S'progression-free'
p886
S'JJ'
p887
S'B-NP'
p888
g5
tp889
a(S'survival'
p890
S'survival'
p891
S'NN'
p892
S'I-NP'
p893
g5
tp894
a(g135
g135
g135
g5
g5
tp895
a(g656
g656
S'NN'
p896
S'B-NP'
p897
g5
tp898
a(S'=.037'
p899
S'=.037'
p900
S'CD'
p901
S'I-NP'
p902
g5
tp903
a(g143
g143
g143
g5
g5
tp904
a(g228
g228
g228
g5
g5
tp905
a(S'with'
p906
S'with'
p907
S'IN'
p908
S'B-PP'
p909
g5
tp910
a(S'medians'
p911
S'median'
p912
S'NNS'
p913
S'B-NP'
p914
g5
tp915
a(S'of'
p916
S'of'
p917
S'IN'
p918
S'B-PP'
p919
g5
tp920
a(S'28.9'
p921
S'28.9'
p922
S'CD'
p923
S'B-NP'
p924
g5
tp925
a(S'for'
p926
S'for'
p927
S'IN'
p928
S'B-PP'
p929
g5
tp930
a(S'PLD'
p931
S'PLD'
p932
S'NN'
p933
S'B-NP'
p934
S'B-protein'
p935
tp936
a(S'versus'
p937
S'versus'
p938
S'IN'
p939
S'B-PP'
p940
g5
tp941
a(S'23.3'
p942
S'23.3'
p943
S'CD'
p944
S'B-NP'
p945
g5
tp946
a(S'weeks'
p947
S'week'
p948
S'NNS'
p949
S'I-NP'
p950
g5
tp951
a(S'for'
p952
S'for'
p953
S'IN'
p954
S'B-PP'
p955
g5
tp956
a(S'topotecan.'
p957
S'topotecan.'
p958
S'NN'
p959
S'B-NP'
p960
g5
tp961
a(S'For'
p962
S'For'
p963
S'IN'
p964
S'B-PP'
p965
g5
tp966
a(S'overall'
p967
S'overall'
p968
S'JJ'
p969
S'B-NP'
p970
g5
tp971
a(S'survival'
p972
S'survival'
p973
S'NN'
p974
S'I-NP'
p975
g5
tp976
a(g228
g228
g228
g5
g5
tp977
a(S'PLD'
p978
S'PLD'
p979
S'NN'
p980
S'B-NP'
p981
S'B-protein'
p982
tp983
a(S'was'
p984
S'be'
p985
S'VBD'
p986
S'B-VP'
p987
g5
tp988
a(S'significantly'
p989
S'significantly'
p990
S'RB'
p991
S'B-ADJP'
p992
g5
tp993
a(S'superior'
p994
S'superior'
p995
S'JJ'
p996
S'I-ADJP'
p997
g5
tp998
a(S'to'
p999
S'to'
p1000
S'TO'
p1001
S'B-PP'
p1002
g5
tp1003
a(S'topotecan'
p1004
S'topotecan'
p1005
S'NN'
p1006
S'B-NP'
p1007
g5
tp1008
a(g135
g135
g135
g5
g5
tp1009
a(g656
g656
S'NN'
p1010
S'B-NP'
p1011
g5
tp1012
a(S'=.008'
p1013
S'=.008'
p1014
S'CD'
p1015
S'I-NP'
p1016
g5
tp1017
a(g143
g143
g143
g5
g5
tp1018
a(g228
g228
g228
g5
g5
tp1019
a(S'with'
p1020
S'with'
p1021
S'IN'
p1022
S'B-PP'
p1023
g5
tp1024
a(g24
g24
S'DT'
p1025
S'B-NP'
p1026
g5
tp1027
a(S'median'
p1028
S'median'
p1029
S'NN'
p1030
S'I-NP'
p1031
g5
tp1032
a(S'of'
p1033
S'of'
p1034
S'IN'
p1035
S'B-PP'
p1036
g5
tp1037
a(S'108'
p1038
S'108'
p1039
S'CD'
p1040
S'B-NP'
p1041
g5
tp1042
a(S'weeks'
p1043
S'week'
p1044
S'NNS'
p1045
S'I-NP'
p1046
g5
tp1047
a(S'versus'
p1048
S'versus'
p1049
S'IN'
p1050
S'B-PP'
p1051
g5
tp1052
a(S'71.1'
p1053
S'71.1'
p1054
S'CD'
p1055
S'B-NP'
p1056
g5
tp1057
a(S'weeks.'
p1058
S'weeks.'
p1059
S'NN'
p1060
S'I-NP'
p1061
g5
tp1062
a(S'The'
p1063
S'The'
p1064
S'DT'
p1065
S'B-NP'
p1066
g5
tp1067
a(S'platinum-refractory'
p1068
S'platinum-refractory'
p1069
S'JJ'
p1070
S'I-NP'
p1071
g5
tp1072
a(S'subgroup'
p1073
S'subgroup'
p1074
S'NN'
p1075
S'I-NP'
p1076
g5
tp1077
a(S'demonstrated'
p1078
S'demonstrate'
p1079
S'VBD'
p1080
S'B-VP'
p1081
g5
tp1082
a(g24
g24
S'DT'
p1083
S'B-NP'
p1084
g5
tp1085
a(S'nonstatistically'
p1086
S'nonstatistically'
p1087
S'RB'
p1088
S'I-NP'
p1089
g5
tp1090
a(S'significant'
p1091
S'significant'
p1092
S'JJ'
p1093
S'I-NP'
p1094
g5
tp1095
a(S'survival'
p1096
S'survival'
p1097
S'NN'
p1098
S'I-NP'
p1099
g5
tp1100
a(S'trend'
p1101
S'trend'
p1102
S'NN'
p1103
S'I-NP'
p1104
g5
tp1105
a(S'in'
p1106
S'in'
p1107
S'IN'
p1108
S'B-PP'
p1109
g5
tp1110
a(S'favor'
p1111
S'favor'
p1112
S'NN'
p1113
S'B-NP'
p1114
g5
tp1115
a(S'of'
p1116
S'of'
p1117
S'IN'
p1118
S'B-PP'
p1119
g5
tp1120
a(S'topotecan'
p1121
S'topotecan'
p1122
S'NN'
p1123
S'B-NP'
p1124
g5
tp1125
a(g135
g135
g135
g5
g5
tp1126
a(g656
g656
S'NN'
p1127
S'B-NP'
p1128
g5
tp1129
a(S'=.455'
p1130
S'=.455'
p1131
S'CD'
p1132
S'I-NP'
p1133
g5
tp1134
a(g143
g143
g143
g5
g5
tp1135
a(g78
g78
g78
g5
g5
tp1136
a(S'Severe'
p1137
S'Severe'
p1138
S'JJ'
p1139
S'B-NP'
p1140
g5
tp1141
a(S'hematologic'
p1142
S'hematologic'
p1143
S'JJ'
p1144
S'I-NP'
p1145
g5
tp1146
a(S'toxicity'
p1147
S'toxicity'
p1148
S'NN'
p1149
S'I-NP'
p1150
g5
tp1151
a(S'was'
p1152
S'be'
p1153
S'VBD'
p1154
S'B-VP'
p1155
g5
tp1156
a(S'more'
p1157
S'more'
p1158
S'RBR'
p1159
S'B-ADJP'
p1160
g5
tp1161
a(S'common'
p1162
S'common'
p1163
S'JJ'
p1164
S'I-ADJP'
p1165
g5
tp1166
a(S'with'
p1167
S'with'
p1168
S'IN'
p1169
S'B-PP'
p1170
g5
tp1171
a(S'topotecan'
p1172
S'topotecan'
p1173
S'NN'
p1174
S'B-NP'
p1175
g5
tp1176
a(S'and'
p1177
S'and'
p1178
S'CC'
p1179
g5
g5
tp1180
a(S'was'
p1181
S'be'
p1182
S'VBD'
p1183
S'B-VP'
p1184
g5
tp1185
a(S'more'
p1186
S'more'
p1187
S'RBR'
p1188
S'B-ADJP'
p1189
g5
tp1190
a(S'likely'
p1191
S'likely'
p1192
S'JJ'
p1193
S'I-ADJP'
p1194
g5
tp1195
a(S'to'
p1196
S'to'
p1197
S'TO'
p1198
S'B-VP'
p1199
g5
tp1200
a(S'be'
p1201
S'be'
p1202
S'VB'
p1203
S'I-VP'
p1204
g5
tp1205
a(S'associated'
p1206
S'associate'
p1207
S'VBN'
p1208
S'I-VP'
p1209
g5
tp1210
a(S'with'
p1211
S'with'
p1212
S'IN'
p1213
S'B-PP'
p1214
g5
tp1215
a(S'dosage'
p1216
S'dosage'
p1217
S'NN'
p1218
S'B-NP'
p1219
g5
tp1220
a(S'modification'
p1221
S'modification'
p1222
S'NN'
p1223
S'I-NP'
p1224
g5
tp1225
a(g228
g228
g228
g5
g5
tp1226
a(S'or'
p1227
S'or'
p1228
S'CC'
p1229
g5
g5
tp1230
a(S'growth'
p1231
S'growth'
p1232
S'NN'
p1233
S'B-NP'
p1234
S'B-protein'
p1235
tp1236
a(S'factor'
p1237
S'factor'
p1238
S'NN'
p1239
S'I-NP'
p1240
S'I-protein'
p1241
tp1242
a(S'or'
p1243
S'or'
p1244
S'CC'
p1245
g5
g5
tp1246
a(S'blood'
p1247
S'blood'
p1248
S'NN'
p1249
S'B-NP'
p1250
g5
tp1251
a(S'product'
p1252
S'product'
p1253
S'NN'
p1254
S'I-NP'
p1255
g5
tp1256
a(S'utilization'
p1257
S'utilization'
p1258
S'NN'
p1259
S'I-NP'
p1260
g5
tp1261
a(g78
g78
g78
g5
g5
tp1262
a(S'CONCLUSION'
p1263
S'CONCLUSION'
p1264
S'NN'
p1265
S'B-NP'
p1266
g5
tp1267
a(S'The'
p1268
S'The'
p1269
S'DT'
p1270
S'B-NP'
p1271
g5
tp1272
a(S'comparable'
p1273
S'comparable'
p1274
S'JJ'
p1275
S'I-NP'
p1276
g5
tp1277
a(S'efficacy'
p1278
S'efficacy'
p1279
S'NN'
p1280
S'I-NP'
p1281
g5
tp1282
a(g228
g228
g228
g5
g5
tp1283
a(S'favorable'
p1284
S'favorable'
p1285
S'JJ'
p1286
S'B-NP'
p1287
g5
tp1288
a(S'safety'
p1289
S'safety'
p1290
S'NN'
p1291
S'I-NP'
p1292
g5
tp1293
a(S'profile'
p1294
S'profile'
p1295
S'NN'
p1296
S'I-NP'
p1297
g5
tp1298
a(g228
g228
g228
g5
g5
tp1299
a(S'and'
p1300
S'and'
p1301
S'CC'
p1302
g5
g5
tp1303
a(S'convenient'
p1304
S'convenient'
p1305
S'JJ'
p1306
S'B-NP'
p1307
g5
tp1308
a(S'dosing'
p1309
S'dosing'
p1310
S'NN'
p1311
S'I-NP'
p1312
g5
tp1313
a(S'support'
p1314
S'support'
p1315
S'VBP'
p1316
S'B-VP'
p1317
g5
tp1318
a(S'the'
p1319
S'the'
p1320
S'DT'
p1321
S'B-NP'
p1322
g5
tp1323
a(S'role'
p1324
S'role'
p1325
S'NN'
p1326
S'I-NP'
p1327
g5
tp1328
a(S'of'
p1329
S'of'
p1330
S'IN'
p1331
S'B-PP'
p1332
g5
tp1333
a(S'PLD'
p1334
S'PLD'
p1335
S'NN'
p1336
S'B-NP'
p1337
S'B-protein'
p1338
tp1339
a(S'as'
p1340
S'as'
p1341
S'IN'
p1342
S'B-PP'
p1343
g5
tp1344
a(g24
g24
S'DT'
p1345
S'B-NP'
p1346
g5
tp1347
a(S'valuable'
p1348
S'valuable'
p1349
S'JJ'
p1350
S'I-NP'
p1351
g5
tp1352
a(S'treatment'
p1353
S'treatment'
p1354
S'NN'
p1355
S'I-NP'
p1356
g5
tp1357
a(S'option'
p1358
S'option'
p1359
S'NN'
p1360
S'I-NP'
p1361
g5
tp1362
a(S'in'
p1363
S'in'
p1364
S'IN'
p1365
S'B-PP'
p1366
g5
tp1367
a(S'this'
p1368
S'this'
p1369
S'DT'
p1370
S'B-NP'
p1371
g5
tp1372
a(S'patient'
p1373
S'patient'
p1374
S'NN'
p1375
S'I-NP'
p1376
g5
tp1377
a(S'population'
p1378
S'population'
p1379
S'NN'
p1380
S'I-NP'
p1381
g5
tp1382
a(g78
g78
g78
g5
g5
tp1383
a.