(lp0
(S'Randomized'
p1
S'Randomize'
p2
S'VBN'
p3
S'B-NP'
p4
S'O'
p5
tp6
a(S','
p7
g7
g7
S'I-NP'
p8
g5
tp9
a(S'controlled'
p10
S'control'
p11
S'VBN'
p12
S'I-NP'
p13
g5
tp14
a(g7
g7
g7
S'I-NP'
p15
g5
tp16
a(S'parallel-group'
p17
S'parallel-group'
p18
S'JJ'
p19
S'I-NP'
p20
g5
tp21
a(S'trial'
p22
S'trial'
p23
S'NN'
p24
S'I-NP'
p25
g5
tp26
a(S'of'
p27
S'of'
p28
S'IN'
p29
S'B-PP'
p30
g5
tp31
a(S'routine'
p32
S'routine'
p33
S'JJ'
p34
S'B-NP'
p35
g5
tp36
a(S'prophylaxis'
p37
S'prophylaxis'
p38
S'NN'
p39
S'I-NP'
p40
g5
tp41
a(S'vs.'
p42
S'vs.'
p43
S'IN'
p44
S'B-PP'
p45
g5
tp46
a(S'on-demand'
p47
S'on-demand'
p48
S'JJ'
p49
S'B-NP'
p50
g5
tp51
a(S'treatment'
p52
S'treatment'
p53
S'NN'
p54
S'I-NP'
p55
g5
tp56
a(S'with'
p57
S'with'
p58
S'IN'
p59
S'B-PP'
p60
g5
tp61
a(S'sucrose-formulated'
p62
S'sucrose-formulated'
p63
S'JJ'
p64
S'B-NP'
p65
g5
tp66
a(S'recombinant'
p67
S'recombinant'
p68
S'JJ'
p69
S'I-NP'
p70
g5
tp71
a(S'factor\xc2\xa0VIII'
p72
S'factor\xc2\xa0VIII'
p73
S'NN'
p74
S'I-NP'
p75
g5
tp76
a(S'in'
p77
S'in'
p78
S'IN'
p79
S'B-PP'
p80
g5
tp81
a(S'adults'
p82
S'adult'
p83
S'NNS'
p84
S'B-NP'
p85
g5
tp86
a(S'with'
p87
S'with'
p88
S'IN'
p89
S'B-PP'
p90
g5
tp91
a(S'severe'
p92
S'severe'
p93
S'JJ'
p94
S'B-NP'
p95
g5
tp96
a(S'hemophilia\xc2\xa0A'
p97
S'hemophilia\xc2\xa0A'
p98
S'NN'
p99
S'I-NP'
p100
g5
tp101
a(S'('
p102
g102
g102
g5
g5
tp103
a(S'SPINART'
p104
S'SPINART'
p105
S'NN'
p106
S'B-NP'
p107
g5
tp108
a(S')'
p109
g109
g109
g5
g5
tp110
a(S'.'
p111
g111
g111
g5
g5
tp112
a(S'BACKGROUND'
p113
S'BACKGROUND'
p114
S'NN'
p115
S'B-NP'
p116
g5
tp117
a(S'The'
p118
S'The'
p119
S'DT'
p120
S'B-NP'
p121
g5
tp122
a(S'benefits'
p123
S'benefit'
p124
S'NNS'
p125
S'I-NP'
p126
g5
tp127
a(S'of'
p128
S'of'
p129
S'IN'
p130
S'B-PP'
p131
g5
tp132
a(S'routine'
p133
S'routine'
p134
S'JJ'
p135
S'B-NP'
p136
g5
tp137
a(S'prophylaxis'
p138
S'prophylaxis'
p139
S'NN'
p140
S'I-NP'
p141
g5
tp142
a(S'vs.'
p143
S'vs.'
p144
S'IN'
p145
S'B-PP'
p146
g5
tp147
a(S'on-demand'
p148
S'on-demand'
p149
S'JJ'
p150
S'B-NP'
p151
g5
tp152
a(S'treatment'
p153
S'treatment'
p154
S'NN'
p155
S'I-NP'
p156
g5
tp157
a(S'with'
p158
S'with'
p159
S'IN'
p160
S'B-PP'
p161
g5
tp162
a(S'factor'
p163
S'factor'
p164
S'NN'
p165
S'B-NP'
p166
g5
tp167
a(S'VIII'
p168
S'VIII'
p169
S'CD'
p170
S'B-NP'
p171
g5
tp172
a(S'products'
p173
S'product'
p174
S'NNS'
p175
S'I-NP'
p176
g5
tp177
a(S'have'
p178
S'have'
p179
S'VBP'
p180
S'B-VP'
p181
g5
tp182
a(S'not'
p183
S'not'
p184
S'RB'
p185
S'I-VP'
p186
g5
tp187
a(S'been'
p188
S'be'
p189
S'VBN'
p190
S'I-VP'
p191
g5
tp192
a(S'evaluated'
p193
S'evaluate'
p194
S'VBN'
p195
S'I-VP'
p196
g5
tp197
a(S'in'
p198
S'in'
p199
S'IN'
p200
S'B-PP'
p201
g5
tp202
a(S'controlled'
p203
S'control'
p204
S'VBN'
p205
S'B-NP'
p206
g5
tp207
a(S'clinical'
p208
S'clinical'
p209
S'JJ'
p210
S'I-NP'
p211
g5
tp212
a(S'trials'
p213
S'trial'
p214
S'NNS'
p215
S'I-NP'
p216
g5
tp217
a(S'in'
p218
S'in'
p219
S'IN'
p220
S'B-PP'
p221
g5
tp222
a(S'older'
p223
S'old'
p224
S'JJR'
p225
S'B-NP'
p226
g5
tp227
a(S'patients'
p228
S'patient'
p229
S'NNS'
p230
S'I-NP'
p231
g5
tp232
a(S'with'
p233
S'with'
p234
S'IN'
p235
S'B-PP'
p236
g5
tp237
a(S'hemophilia'
p238
S'hemophilia'
p239
S'NN'
p240
S'B-NP'
p241
g5
tp242
a(S'A'
p243
g243
S'NN'
p244
S'I-NP'
p245
g5
tp246
a(g111
g111
g111
g5
g5
tp247
a(S'OBJECTIVES'
p248
S'OBJECTIVES'
p249
S'NNS'
p250
S'B-NP'
p251
g5
tp252
a(S'To'
p253
S'To'
p254
S'TO'
p255
S'B-VP'
p256
g5
tp257
a(S'report'
p258
S'report'
p259
S'VB'
p260
S'I-VP'
p261
g5
tp262
a(S'results'
p263
S'result'
p264
S'NNS'
p265
S'B-NP'
p266
g5
tp267
a(S'from'
p268
S'from'
p269
S'IN'
p270
S'B-PP'
p271
g5
tp272
a(S'a'
p273
g273
S'DT'
p274
S'B-NP'
p275
g5
tp276
a(S'preplanned'
p277
S'preplanned'
p278
S'JJ'
p279
S'I-NP'
p280
g5
tp281
a(S'analysis'
p282
S'analysis'
p283
S'NN'
p284
S'I-NP'
p285
g5
tp286
a(S'of'
p287
S'of'
p288
S'IN'
p289
S'B-PP'
p290
g5
tp291
a(S'data'
p292
S'datum'
p293
S'NNS'
p294
S'B-NP'
p295
g5
tp296
a(S'from'
p297
S'from'
p298
S'IN'
p299
S'B-PP'
p300
g5
tp301
a(S'the'
p302
S'the'
p303
S'DT'
p304
S'B-NP'
p305
g5
tp306
a(S'first'
p307
S'first'
p308
S'JJ'
p309
S'I-NP'
p310
g5
tp311
a(S'year'
p312
S'year'
p313
S'NN'
p314
S'I-NP'
p315
g5
tp316
a(S'of'
p317
S'of'
p318
S'IN'
p319
S'B-PP'
p320
g5
tp321
a(S'the'
p322
S'the'
p323
S'DT'
p324
S'B-NP'
p325
g5
tp326
a(S'3-year'
p327
S'3-year'
p328
S'JJ'
p329
S'I-NP'
p330
g5
tp331
a(S'SPINART'
p332
S'SPINART'
p333
S'NN'
p334
S'I-NP'
p335
g5
tp336
a(S'study'
p337
S'study'
p338
S'NN'
p339
S'I-NP'
p340
g5
tp341
a(g7
g7
g7
g5
g5
tp342
a(S'which'
p343
S'which'
p344
S'WDT'
p345
S'B-NP'
p346
g5
tp347
a(S'compares'
p348
S'compare'
p349
S'VBZ'
p350
S'B-VP'
p351
g5
tp352
a(S'routine'
p353
S'routine'
p354
S'JJ'
p355
S'B-NP'
p356
g5
tp357
a(S'prophylaxis'
p358
S'prophylaxis'
p359
S'NN'
p360
S'I-NP'
p361
g5
tp362
a(S'with'
p363
S'with'
p364
S'IN'
p365
S'B-PP'
p366
g5
tp367
a(S'on-demand'
p368
S'on-demand'
p369
S'JJ'
p370
S'B-NP'
p371
g5
tp372
a(S'treatment'
p373
S'treatment'
p374
S'NN'
p375
S'I-NP'
p376
g5
tp377
a(S'with'
p378
S'with'
p379
S'IN'
p380
S'B-PP'
p381
g5
tp382
a(S'sucrose-formulated'
p383
S'sucrose-formulated'
p384
S'JJ'
p385
S'B-NP'
p386
g5
tp387
a(S'recombinant'
p388
S'recombinant'
p389
S'JJ'
p390
S'I-NP'
p391
g5
tp392
a(S'FVIII'
p393
S'FVIII'
p394
S'NN'
p395
S'I-NP'
p396
g5
tp397
a(g102
g102
g102
g5
g5
tp398
a(S'rFVIII-FS'
p399
S'rFVIII-FS'
p400
S'NN'
p401
S'B-NP'
p402
S'B-protein'
p403
tp404
a(g109
g109
g109
g5
g5
tp405
a(g111
g111
g111
g5
g5
tp406
a(S'PATIENTS/METHODS'
p407
S'PATIENTS/METHODS'
p408
S'NNP'
p409
S'B-NP'
p410
g5
tp411
a(S'SPINART'
p412
S'SPINART'
p413
S'NNP'
p414
S'I-NP'
p415
g5
tp416
a(S'is'
p417
S'be'
p418
S'VBZ'
p419
S'B-VP'
p420
g5
tp421
a(S'an'
p422
S'an'
p423
S'DT'
p424
S'B-NP'
p425
g5
tp426
a(S'open-label'
p427
S'open-label'
p428
S'NN'
p429
S'I-NP'
p430
g5
tp431
a(g7
g7
g7
g5
g5
tp432
a(S'randomized'
p433
S'randomize'
p434
S'VBN'
p435
S'B-VP'
p436
g5
tp437
a(g7
g7
g7
g5
g5
tp438
a(S'controlled'
p439
S'control'
p440
S'VBN'
p441
S'B-NP'
p442
g5
tp443
a(g7
g7
g7
S'I-NP'
p444
g5
tp445
a(S'parallel-group'
p446
S'parallel-group'
p447
S'JJ'
p448
S'I-NP'
p449
g5
tp450
a(g7
g7
g7
S'I-NP'
p451
g5
tp452
a(S'multinational'
p453
S'multinational'
p454
S'JJ'
p455
S'I-NP'
p456
g5
tp457
a(S'trial.'
p458
S'trial.'
p459
S'NN'
p460
S'I-NP'
p461
g5
tp462
a(S'Males'
p463
S'Male'
p464
S'NNS'
p465
S'I-NP'
p466
g5
tp467
a(S'aged'
p468
S'age'
p469
S'VBN'
p470
S'B-VP'
p471
g5
tp472
a(S'12-50'
p473
S'12-50'
p474
S'CD'
p475
S'B-NP'
p476
g5
tp477
a(S'years'
p478
S'year'
p479
S'NNS'
p480
S'I-NP'
p481
g5
tp482
a(S'with'
p483
S'with'
p484
S'IN'
p485
S'B-PP'
p486
g5
tp487
a(S'severe'
p488
S'severe'
p489
S'JJ'
p490
S'B-NP'
p491
g5
tp492
a(S'hemophilia'
p493
S'hemophilia'
p494
S'NN'
p495
S'I-NP'
p496
g5
tp497
a(g243
g243
S'NN'
p498
S'I-NP'
p499
g5
tp500
a(g7
g7
g7
g5
g5
tp501
a(S'\xe2\x89\xa5'
p502
S'\xe2\x89\xa5'
p503
S'NN'
p504
S'B-NP'
p505
g5
tp506
a(S'150'
p507
S'150'
p508
S'CD'
p509
S'B-NP'
p510
g5
tp511
a(S'days'
p512
S'day'
p513
S'NNS'
p514
S'I-NP'
p515
g5
tp516
a(S'of'
p517
S'of'
p518
S'IN'
p519
S'B-PP'
p520
g5
tp521
a(S'exposure'
p522
S'exposure'
p523
S'NN'
p524
S'B-NP'
p525
g5
tp526
a(S'to'
p527
S'to'
p528
S'TO'
p529
S'B-PP'
p530
g5
tp531
a(S'FVIII'
p532
S'FVIII'
p533
S'NNP'
p534
S'B-NP'
p535
g5
tp536
a(g7
g7
g7
g5
g5
tp537
a(S'no'
p538
S'no'
p539
S'DT'
p540
S'B-NP'
p541
g5
tp542
a(S'FVIII'
p543
S'FVIII'
p544
S'NN'
p545
S'I-NP'
p546
g5
tp547
a(S'inhibitors'
p548
S'inhibitor'
p549
S'NNS'
p550
S'I-NP'
p551
g5
tp552
a(g7
g7
g7
g5
g5
tp553
a(S'no'
p554
S'no'
p555
S'DT'
p556
S'B-NP'
p557
g5
tp558
a(S'prophylaxis'
p559
S'prophylaxis'
p560
S'NN'
p561
S'I-NP'
p562
g5
tp563
a(S'for'
p564
S'for'
p565
S'IN'
p566
S'B-PP'
p567
g5
tp568
a(S'>'
p569
g569
S'SYM'
p570
S'B-NP'
p571
g5
tp572
a(S'12'
p573
S'12'
p574
S'CD'
p575
S'I-NP'
p576
g5
tp577
a(S'consecutive'
p578
S'consecutive'
p579
S'JJ'
p580
S'I-NP'
p581
g5
tp582
a(S'months'
p583
S'month'
p584
S'NNS'
p585
S'I-NP'
p586
g5
tp587
a(S'in'
p588
S'in'
p589
S'IN'
p590
S'B-PP'
p591
g5
tp592
a(S'the'
p593
S'the'
p594
S'DT'
p595
S'B-NP'
p596
g5
tp597
a(S'past'
p598
S'past'
p599
S'JJ'
p600
S'I-NP'
p601
g5
tp602
a(S'5'
p603
g603
S'CD'
p604
S'I-NP'
p605
g5
tp606
a(S'years'
p607
S'year'
p608
S'NNS'
p609
S'I-NP'
p610
g5
tp611
a(S'and'
p612
S'and'
p613
S'CC'
p614
g5
g5
tp615
a(S'6-24'
p616
S'6-24'
p617
S'CD'
p618
S'B-NP'
p619
g5
tp620
a(S'bleeding'
p621
S'bleeding'
p622
S'JJ'
p623
S'I-NP'
p624
g5
tp625
a(S'episodes'
p626
S'episode'
p627
S'NNS'
p628
S'I-NP'
p629
g5
tp630
a(S'in'
p631
S'in'
p632
S'IN'
p633
S'B-PP'
p634
g5
tp635
a(S'the'
p636
S'the'
p637
S'DT'
p638
S'B-NP'
p639
g5
tp640
a(S'preceding'
p641
S'precede'
p642
S'VBG'
p643
S'I-NP'
p644
g5
tp645
a(S'6'
p646
g646
S'CD'
p647
S'I-NP'
p648
g5
tp649
a(S'months'
p650
S'month'
p651
S'NNS'
p652
S'I-NP'
p653
g5
tp654
a(S'were'
p655
S'be'
p656
S'VBD'
p657
S'B-VP'
p658
g5
tp659
a(S'randomized'
p660
S'randomize'
p661
S'VBN'
p662
S'I-VP'
p663
g5
tp664
a(S'1'
p665
g665
S'CD'
p666
S'B-NP'
p667
g5
tp668
a(S':'
p669
g669
S'SYM'
p670
S'B-NP'
p671
g5
tp672
a(g665
g665
S'CD'
p673
S'I-NP'
p674
g5
tp675
a(S'to'
p676
S'to'
p677
S'TO'
p678
S'B-PP'
p679
g5
tp680
a(S'rFVIII-FS'
p681
S'rFVIII-FS'
p682
S'NN'
p683
S'B-NP'
p684
g5
tp685
a(S'prophylaxis'
p686
S'prophylaxis'
p687
S'NN'
p688
S'I-NP'
p689
g5
tp690
a(g102
g102
g102
g5
g5
tp691
a(S'25'
p692
S'25'
p693
S'CD'
p694
S'B-NP'
p695
g5
tp696
a(S'IU'
p697
S'IU'
p698
S'NN'
p699
S'I-NP'
p700
g5
tp701
a(S'kg'
p702
S'kg'
p703
S'NN'
p704
S'I-NP'
p705
g5
tp706
a(g102
g102
g102
g5
g5
tp707
a(S'-1'
p708
S'-1'
p709
S'CD'
p710
S'B-NP'
p711
g5
tp712
a(g109
g109
g109
g5
g5
tp713
a(g7
g7
g7
g5
g5
tp714
a(S'three'
p715
S'three'
p716
S'CD'
p717
S'B-NP'
p718
g5
tp719
a(S'times'
p720
S'time'
p721
S'NNS'
p722
S'I-NP'
p723
g5
tp724
a(S'weekly'
p725
S'weekly'
p726
S'RB'
p727
S'I-NP'
p728
g5
tp729
a(g109
g109
g109
g5
g5
tp730
a(S'or'
p731
S'or'
p732
S'CC'
p733
g5
g5
tp734
a(S'on-demand'
p735
S'on-demand'
p736
S'JJ'
p737
S'B-NP'
p738
g5
tp739
a(S'treatment.'
p740
S'treatment.'
p741
S'NN'
p742
S'I-NP'
p743
g5
tp744
a(S'The'
p745
S'The'
p746
S'DT'
p747
S'B-NP'
p748
g5
tp749
a(S'primary'
p750
S'primary'
p751
S'JJ'
p752
S'I-NP'
p753
g5
tp754
a(S'efficacy'
p755
S'efficacy'
p756
S'NN'
p757
S'I-NP'
p758
g5
tp759
a(S'endpoint'
p760
S'endpoint'
p761
S'NN'
p762
S'I-NP'
p763
g5
tp764
a(g7
g7
g7
g5
g5
tp765
a(S'number'
p766
S'number'
p767
S'NN'
p768
S'B-NP'
p769
g5
tp770
a(S'of'
p771
S'of'
p772
S'IN'
p773
S'B-PP'
p774
g5
tp775
a(S'total'
p776
S'total'
p777
S'JJ'
p778
S'B-NP'
p779
g5
tp780
a(S'bleeding'
p781
S'bleed'
p782
S'VBG'
p783
S'I-NP'
p784
g5
tp785
a(S'episodes'
p786
S'episode'
p787
S'NNS'
p788
S'I-NP'
p789
g5
tp790
a(S'in'
p791
S'in'
p792
S'IN'
p793
S'B-PP'
p794
g5
tp795
a(S'the'
p796
S'the'
p797
S'DT'
p798
S'B-NP'
p799
g5
tp800
a(S'intent-to-treat'
p801
S'intent-to-treat'
p802
S'JJ'
p803
S'I-NP'
p804
S'B-cell_line'
p805
tp806
a(S'population'
p807
S'population'
p808
S'NN'
p809
S'I-NP'
p810
S'I-cell_line'
p811
tp812
a(g7
g7
g7
g5
g5
tp813
a(S'was'
p814
S'be'
p815
S'VBD'
p816
S'B-VP'
p817
g5
tp818
a(S'analyzed'
p819
S'analyze'
p820
S'VBN'
p821
S'I-VP'
p822
g5
tp823
a(S'after'
p824
S'after'
p825
S'IN'
p826
S'B-PP'
p827
g5
tp828
a(S'the'
p829
S'the'
p830
S'DT'
p831
S'B-NP'
p832
g5
tp833
a(S'last'
p834
S'last'
p835
S'JJ'
p836
S'I-NP'
p837
g5
tp838
a(S'patient'
p839
S'patient'
p840
S'NN'
p841
S'I-NP'
p842
g5
tp843
a(S'had'
p844
S'have'
p845
S'VBD'
p846
S'B-VP'
p847
g5
tp848
a(S'completed'
p849
S'complete'
p850
S'VBN'
p851
S'I-VP'
p852
g5
tp853
a(g665
g665
S'CD'
p854
S'B-NP'
p855
g5
tp856
a(S'year'
p857
S'year'
p858
S'NN'
p859
S'I-NP'
p860
g5
tp861
a(S'of'
p862
S'of'
p863
S'IN'
p864
S'B-PP'
p865
g5
tp866
a(S'follow-up.'
p867
S'follow-up.'
p868
S'JJ'
p869
S'B-NP'
p870
g5
tp871
a(g243
g243
S'NN'
p872
S'I-NP'
p873
g5
tp874
a(S'negative'
p875
S'negative'
p876
S'JJ'
p877
S'I-NP'
p878
g5
tp879
a(S'binomial'
p880
S'binomial'
p881
S'JJ'
p882
S'I-NP'
p883
g5
tp884
a(S'model'
p885
S'model'
p886
S'NN'
p887
S'I-NP'
p888
g5
tp889
a(S'was'
p890
S'be'
p891
S'VBD'
p892
S'B-VP'
p893
g5
tp894
a(S'used'
p895
S'use'
p896
S'VBN'
p897
S'I-VP'
p898
g5
tp899
a(S'for'
p900
S'for'
p901
S'IN'
p902
S'B-PP'
p903
g5
tp904
a(S'the'
p905
S'the'
p906
S'DT'
p907
S'B-NP'
p908
g5
tp909
a(S'primary'
p910
S'primary'
p911
S'JJ'
p912
S'I-NP'
p913
g5
tp914
a(S'endpoint'
p915
S'endpoint'
p916
S'NN'
p917
S'I-NP'
p918
g5
tp919
a(S'analysis'
p920
S'analysis'
p921
S'NN'
p922
S'I-NP'
p923
g5
tp924
a(S';'
p925
g925
g669
g5
g5
tp926
a(S'analysis'
p927
S'analysis'
p928
S'NN'
p929
S'B-NP'
p930
g5
tp931
a(S'of'
p932
S'of'
p933
S'IN'
p934
S'B-PP'
p935
g5
tp936
a(S'variance'
p937
S'variance'
p938
S'NN'
p939
S'B-NP'
p940
g5
tp941
a(S'was'
p942
S'be'
p943
S'VBD'
p944
S'B-VP'
p945
g5
tp946
a(S'used'
p947
S'use'
p948
S'VBN'
p949
S'I-VP'
p950
g5
tp951
a(S'for'
p952
S'for'
p953
S'IN'
p954
S'B-PP'
p955
g5
tp956
a(S'confirmatory'
p957
S'confirmatory'
p958
S'JJ'
p959
S'B-NP'
p960
g5
tp961
a(S'analysis'
p962
S'analysis'
p963
S'NN'
p964
S'I-NP'
p965
g5
tp966
a(S'of'
p967
S'of'
p968
S'IN'
p969
S'B-PP'
p970
g5
tp971
a(S'annualized'
p972
S'annualize'
p973
S'VBN'
p974
S'B-NP'
p975
g5
tp976
a(S'bleeding'
p977
S'bleeding'
p978
S'NN'
p979
S'I-NP'
p980
g5
tp981
a(S'rates'
p982
S'rate'
p983
S'NNS'
p984
S'I-NP'
p985
g5
tp986
a(g111
g111
g111
g5
g5
tp987
a(S'RESULTS'
p988
S'RESULTS'
p989
S'NNS'
p990
S'B-NP'
p991
g5
tp992
a(S'Eighty-four'
p993
S'Eighty-four'
p994
S'CD'
p995
S'B-NP'
p996
g5
tp997
a(S'patients'
p998
S'patient'
p999
S'NNS'
p1000
S'I-NP'
p1001
g5
tp1002
a(S'were'
p1003
S'be'
p1004
S'VBD'
p1005
S'B-VP'
p1006
g5
tp1007
a(S'enrolled'
p1008
S'enrol'
p1009
S'VBN'
p1010
S'I-VP'
p1011
g5
tp1012
a(S'and'
p1013
S'and'
p1014
S'CC'
p1015
g5
g5
tp1016
a(S'analyzed'
p1017
S'analyze'
p1018
S'VBN'
p1019
S'B-VP'
p1020
g5
tp1021
a(g102
g102
g102
g5
g5
tp1022
a(S'n'
p1023
g1023
S'NN'
p1024
S'B-NP'
p1025
g5
tp1026
a(S'='
p1027
g1027
S'SYM'
p1028
S'B-VP'
p1029
g5
tp1030
a(S'42'
p1031
S'42'
p1032
S'CD'
p1033
S'B-NP'
p1034
g5
tp1035
a(S'per'
p1036
S'per'
p1037
S'IN'
p1038
S'B-PP'
p1039
g5
tp1040
a(S'group'
p1041
S'group'
p1042
S'NN'
p1043
S'B-NP'
p1044
g5
tp1045
a(g925
g925
g669
g5
g5
tp1046
a(S'mean'
p1047
S'mean'
p1048
S'NN'
p1049
S'B-NP'
p1050
g5
tp1051
a(S'age'
p1052
S'age'
p1053
S'NN'
p1054
S'I-NP'
p1055
g5
tp1056
a(g7
g7
g7
g5
g5
tp1057
a(S'30.6'
p1058
S'30.6'
p1059
S'CD'
p1060
S'B-NP'
p1061
g5
tp1062
a(S'years'
p1063
S'year'
p1064
S'NNS'
p1065
S'I-NP'
p1066
g5
tp1067
a(g925
g925
g669
g5
g5
tp1068
a(S'median'
p1069
S'median'
p1070
S'JJ'
p1071
S'B-NP'
p1072
g5
tp1073
a(S'treatment'
p1074
S'treatment'
p1075
S'NN'
p1076
S'I-NP'
p1077
g5
tp1078
a(S'duration'
p1079
S'duration'
p1080
S'NN'
p1081
S'I-NP'
p1082
g5
tp1083
a(g7
g7
g7
g5
g5
tp1084
a(S'1.7'
p1085
S'1.7'
p1086
S'CD'
p1087
S'B-NP'
p1088
g5
tp1089
a(S'years'
p1090
S'year'
p1091
S'NNS'
p1092
S'I-NP'
p1093
g5
tp1094
a(g109
g109
g109
g5
g5
tp1095
a(g111
g111
g111
g5
g5
tp1096
a(S'The'
p1097
S'The'
p1098
S'DT'
p1099
S'B-NP'
p1100
g5
tp1101
a(S'median'
p1102
S'median'
p1103
S'JJ'
p1104
S'I-NP'
p1105
g5
tp1106
a(S'number'
p1107
S'number'
p1108
S'NN'
p1109
S'I-NP'
p1110
g5
tp1111
a(S'of'
p1112
S'of'
p1113
S'IN'
p1114
S'B-PP'
p1115
g5
tp1116
a(S'total'
p1117
S'total'
p1118
S'JJ'
p1119
S'B-NP'
p1120
g5
tp1121
a(S'bleeding'
p1122
S'bleeding'
p1123
S'NN'
p1124
S'I-NP'
p1125
g5
tp1126
a(S'episodes'
p1127
S'episode'
p1128
S'NNS'
p1129
S'I-NP'
p1130
g5
tp1131
a(S'and'
p1132
S'and'
p1133
S'CC'
p1134
g5
g5
tp1135
a(S'total'
p1136
S'total'
p1137
S'JJ'
p1138
S'B-NP'
p1139
g5
tp1140
a(S'bleeding'
p1141
S'bleed'
p1142
S'VBG'
p1143
S'I-NP'
p1144
g5
tp1145
a(S'episodes'
p1146
S'episode'
p1147
S'NNS'
p1148
S'I-NP'
p1149
g5
tp1150
a(S'per'
p1151
S'per'
p1152
S'IN'
p1153
S'B-PP'
p1154
g5
tp1155
a(S'year'
p1156
S'year'
p1157
S'NN'
p1158
S'B-NP'
p1159
g5
tp1160
a(S'were'
p1161
S'be'
p1162
S'VBD'
p1163
S'B-VP'
p1164
g5
tp1165
a(S'significantly'
p1166
S'significantly'
p1167
S'RB'
p1168
S'B-ADJP'
p1169
g5
tp1170
a(S'lower'
p1171
S'low'
p1172
S'JJR'
p1173
S'I-ADJP'
p1174
g5
tp1175
a(S'with'
p1176
S'with'
p1177
S'IN'
p1178
S'B-PP'
p1179
g5
tp1180
a(S'prophylaxis'
p1181
S'prophylaxis'
p1182
S'NN'
p1183
S'B-NP'
p1184
g5
tp1185
a(S'than'
p1186
S'than'
p1187
S'IN'
p1188
S'B-PP'
p1189
g5
tp1190
a(S'with'
p1191
S'with'
p1192
S'IN'
p1193
S'B-PP'
p1194
g5
tp1195
a(S'on-demand'
p1196
S'on-demand'
p1197
S'JJ'
p1198
S'B-NP'
p1199
g5
tp1200
a(S'treatment'
p1201
S'treatment'
p1202
S'NN'
p1203
S'I-NP'
p1204
g5
tp1205
a(g102
g102
g102
g5
g5
tp1206
a(S'total'
p1207
S'total'
p1208
S'NN'
p1209
S'B-NP'
p1210
g5
tp1211
a(g7
g7
g7
g5
g5
tp1212
a(S'0'
p1213
g1213
S'CD'
p1214
S'B-NP'
p1215
g5
tp1216
a(S'vs.'
p1217
S'vs.'
p1218
S'IN'
p1219
S'B-PP'
p1220
g5
tp1221
a(S'54.5'
p1222
S'54.5'
p1223
S'CD'
p1224
S'B-NP'
p1225
g5
tp1226
a(g925
g925
g669
g5
g5
tp1227
a(S'total'
p1228
S'total'
p1229
S'NN'
p1230
S'B-NP'
p1231
g5
tp1232
a(S'per'
p1233
S'per'
p1234
S'IN'
p1235
S'B-PP'
p1236
g5
tp1237
a(S'year'
p1238
S'year'
p1239
S'NN'
p1240
S'B-NP'
p1241
g5
tp1242
a(g7
g7
g7
g5
g5
tp1243
a(g1213
g1213
S'CD'
p1244
S'B-NP'
p1245
g5
tp1246
a(S'vs.'
p1247
S'vs.'
p1248
S'IN'
p1249
S'B-PP'
p1250
g5
tp1251
a(S'27.9'
p1252
S'27.9'
p1253
S'CD'
p1254
S'B-NP'
p1255
g5
tp1256
a(g925
g925
g669
g5
g5
tp1257
a(S'both'
p1258
S'both'
p1259
S'DT'
p1260
S'B-NP'
p1261
g5
tp1262
a(S'P'
p1263
g1263
S'NN'
p1264
S'I-NP'
p1265
g5
tp1266
a(S'<'
p1267
g1267
S'JJR'
p1268
S'I-NP'
p1269
g5
tp1270
a(S'0.0001'
p1271
S'0.0001'
p1272
S'CD'
p1273
S'I-NP'
p1274
g5
tp1275
a(g109
g109
g109
g5
g5
tp1276
a(g111
g111
g111
g5
g5
tp1277
a(S'No'
p1278
S'No'
p1279
S'DT'
p1280
S'B-NP'
p1281
g5
tp1282
a(S'treatment-related'
p1283
S'treatment-related'
p1284
S'JJ'
p1285
S'I-NP'
p1286
g5
tp1287
a(S'adverse'
p1288
S'adverse'
p1289
S'JJ'
p1290
S'I-NP'
p1291
g5
tp1292
a(S'events'
p1293
S'event'
p1294
S'NNS'
p1295
S'I-NP'
p1296
g5
tp1297
a(S'occurred'
p1298
S'occur'
p1299
S'VBD'
p1300
S'B-VP'
p1301
g5
tp1302
a(g7
g7
g7
g5
g5
tp1303
a(S'and'
p1304
S'and'
p1305
S'CC'
p1306
g5
g5
tp1307
a(S'no'
p1308
S'no'
p1309
S'DT'
p1310
S'B-NP'
p1311
g5
tp1312
a(S'patients'
p1313
S'patient'
p1314
S'NNS'
p1315
S'I-NP'
p1316
g5
tp1317
a(S'developed'
p1318
S'develop'
p1319
S'VBD'
p1320
S'B-VP'
p1321
g5
tp1322
a(S'FVIII'
p1323
S'FVIII'
p1324
S'CD'
p1325
S'B-NP'
p1326
g5
tp1327
a(S'inhibitors'
p1328
S'inhibitor'
p1329
S'NNS'
p1330
S'I-NP'
p1331
g5
tp1332
a(g111
g111
g111
g5
g5
tp1333
a(S'CONCLUSIONS'
p1334
S'CONCLUSIONS'
p1335
S'NNS'
p1336
S'B-NP'
p1337
g5
tp1338
a(S'Routine'
p1339
S'Routine'
p1340
S'NN'
p1341
S'I-NP'
p1342
g5
tp1343
a(S'prophylaxis'
p1344
S'prophylaxis'
p1345
S'NN'
p1346
S'I-NP'
p1347
g5
tp1348
a(S'with'
p1349
S'with'
p1350
S'IN'
p1351
S'B-PP'
p1352
g5
tp1353
a(S'rFVIII-FS'
p1354
S'rFVIII-FS'
p1355
S'NN'
p1356
S'B-NP'
p1357
S'B-protein'
p1358
tp1359
a(S'leads'
p1360
S'lead'
p1361
S'VBZ'
p1362
S'B-VP'
p1363
g5
tp1364
a(S'to'
p1365
S'to'
p1366
S'TO'
p1367
S'B-PP'
p1368
g5
tp1369
a(g273
g273
S'DT'
p1370
S'B-NP'
p1371
g5
tp1372
a(S'significant'
p1373
S'significant'
p1374
S'JJ'
p1375
S'I-NP'
p1376
g5
tp1377
a(S'reduction'
p1378
S'reduction'
p1379
S'NN'
p1380
S'I-NP'
p1381
g5
tp1382
a(S'in'
p1383
S'in'
p1384
S'IN'
p1385
S'B-PP'
p1386
g5
tp1387
a(S'bleeding'
p1388
S'bleed'
p1389
S'VBG'
p1390
S'B-VP'
p1391
g5
tp1392
a(S'as'
p1393
S'as'
p1394
S'IN'
p1395
S'B-SBAR'
p1396
g5
tp1397
a(S'compared'
p1398
S'compare'
p1399
S'VBN'
p1400
S'B-PP'
p1401
g5
tp1402
a(S'with'
p1403
S'with'
p1404
S'IN'
p1405
S'B-PP'
p1406
g5
tp1407
a(S'on-demand'
p1408
S'on-demand'
p1409
S'JJ'
p1410
S'B-NP'
p1411
g5
tp1412
a(S'treatment.'
p1413
S'treatment.'
p1414
S'NN'
p1415
S'I-NP'
p1416
g5
tp1417
a(S'Adverse'
p1418
S'Adverse'
p1419
S'JJ'
p1420
S'I-NP'
p1421
g5
tp1422
a(S'events'
p1423
S'event'
p1424
S'NNS'
p1425
S'I-NP'
p1426
g5
tp1427
a(S'were'
p1428
S'be'
p1429
S'VBD'
p1430
S'B-VP'
p1431
g5
tp1432
a(S'consistent'
p1433
S'consistent'
p1434
S'JJ'
p1435
S'B-ADJP'
p1436
g5
tp1437
a(S'with'
p1438
S'with'
p1439
S'IN'
p1440
S'B-PP'
p1441
g5
tp1442
a(S'the'
p1443
S'the'
p1444
S'DT'
p1445
S'B-NP'
p1446
g5
tp1447
a(S'established'
p1448
S'established'
p1449
S'JJ'
p1450
S'I-NP'
p1451
g5
tp1452
a(S'rFVIII-FS'
p1453
S'rFVIII-FS'
p1454
S'NN'
p1455
S'I-NP'
p1456
g5
tp1457
a(S'safety'
p1458
S'safety'
p1459
S'NN'
p1460
S'I-NP'
p1461
g5
tp1462
a(S'profile'
p1463
S'profile'
p1464
S'NN'
p1465
S'I-NP'
p1466
g5
tp1467
a(g111
g111
g111
g5
g5
tp1468
a.