(lp0
(S'Efficacy'
p1
S'Efficacy'
p2
S'NN'
p3
S'B-NP'
p4
S'O'
p5
tp6
a(S'of'
p7
S'of'
p8
S'IN'
p9
S'B-PP'
p10
g5
tp11
a(S'amantadine'
p12
S'amantadine'
p13
S'NN'
p14
S'B-NP'
p15
g5
tp16
a(S'on'
p17
S'on'
p18
S'IN'
p19
S'B-PP'
p20
g5
tp21
a(S'quality'
p22
S'quality'
p23
S'NN'
p24
S'B-NP'
p25
g5
tp26
a(S'of'
p27
S'of'
p28
S'IN'
p29
S'B-PP'
p30
g5
tp31
a(S'life'
p32
S'life'
p33
S'NN'
p34
S'B-NP'
p35
g5
tp36
a(S'in'
p37
S'in'
p38
S'IN'
p39
S'B-PP'
p40
g5
tp41
a(S'patients'
p42
S'patient'
p43
S'NNS'
p44
S'B-NP'
p45
g5
tp46
a(S'with'
p47
S'with'
p48
S'IN'
p49
S'B-PP'
p50
g5
tp51
a(S'chronic'
p52
S'chronic'
p53
S'JJ'
p54
S'B-NP'
p55
g5
tp56
a(S'hepatitis'
p57
S'hepatitis'
p58
S'NN'
p59
S'I-NP'
p60
g5
tp61
a(S'C'
p62
g62
S'NN'
p63
S'I-NP'
p64
g5
tp65
a(S'treated'
p66
S'treat'
p67
S'VBN'
p68
S'B-VP'
p69
g5
tp70
a(S'with'
p71
S'with'
p72
S'IN'
p73
S'B-PP'
p74
g5
tp75
a(S'interferon-alpha'
p76
S'interferon-alpha'
p77
S'NN'
p78
S'B-NP'
p79
S'B-protein'
p80
tp81
a(S'and'
p82
S'and'
p83
S'CC'
p84
S'I-NP'
p85
g5
tp86
a(S'ribavirin'
p87
S'ribavirin'
p88
S'NN'
p89
S'I-NP'
p90
g5
tp91
a(S':'
p92
g92
g92
g5
g5
tp93
a(S'results'
p94
S'result'
p95
S'NNS'
p96
S'B-NP'
p97
g5
tp98
a(S'from'
p99
S'from'
p100
S'IN'
p101
S'B-PP'
p102
g5
tp103
a(S'a'
p104
g104
S'DT'
p105
S'B-NP'
p106
g5
tp107
a(S'randomized'
p108
S'randomize'
p109
S'VBN'
p110
S'I-NP'
p111
g5
tp112
a(S','
p113
g113
g113
S'I-NP'
p114
g5
tp115
a(S'placebo-controlled'
p116
S'placebo-controlled'
p117
S'JJ'
p118
S'I-NP'
p119
g5
tp120
a(g113
g113
g113
S'I-NP'
p121
g5
tp122
a(S'double-blind'
p123
S'double-blind'
p124
S'JJ'
p125
S'I-NP'
p126
g5
tp127
a(S'trial'
p128
S'trial'
p129
S'NN'
p130
S'I-NP'
p131
g5
tp132
a(S'.'
p133
g133
g133
g5
g5
tp134
a(S'AIM'
p135
S'AIM'
p136
S'NN'
p137
S'B-NP'
p138
g5
tp139
a(S'The'
p140
S'The'
p141
S'DT'
p142
S'B-NP'
p143
g5
tp144
a(S'aim'
p145
S'aim'
p146
S'NN'
p147
S'I-NP'
p148
g5
tp149
a(S'of'
p150
S'of'
p151
S'IN'
p152
S'B-PP'
p153
g5
tp154
a(S'this'
p155
S'this'
p156
S'DT'
p157
S'B-NP'
p158
g5
tp159
a(S'study'
p160
S'study'
p161
S'NN'
p162
S'I-NP'
p163
g5
tp164
a(S'was'
p165
S'be'
p166
S'VBD'
p167
S'B-VP'
p168
g5
tp169
a(S'to'
p170
S'to'
p171
S'TO'
p172
S'B-VP'
p173
g5
tp174
a(S'investigate'
p175
S'investigate'
p176
S'VB'
p177
S'I-VP'
p178
g5
tp179
a(S'whether'
p180
S'whether'
p181
S'IN'
p182
S'B-SBAR'
p183
g5
tp184
a(S'amantadine'
p185
S'amantadine'
p186
S'NN'
p187
S'B-NP'
p188
g5
tp189
a(S'reduces'
p190
S'reduce'
p191
S'VBZ'
p192
S'B-VP'
p193
g5
tp194
a(S'deterioration'
p195
S'deterioration'
p196
S'NN'
p197
S'B-NP'
p198
g5
tp199
a(S'of'
p200
S'of'
p201
S'IN'
p202
S'B-PP'
p203
g5
tp204
a(S'quality'
p205
S'quality'
p206
S'NN'
p207
S'B-NP'
p208
g5
tp209
a(S'of'
p210
S'of'
p211
S'IN'
p212
S'B-PP'
p213
g5
tp214
a(S'life'
p215
S'life'
p216
S'NN'
p217
S'B-NP'
p218
g5
tp219
a(S'in'
p220
S'in'
p221
S'IN'
p222
S'B-PP'
p223
g5
tp224
a(S'patients'
p225
S'patient'
p226
S'NNS'
p227
S'B-NP'
p228
g5
tp229
a(S'with'
p230
S'with'
p231
S'IN'
p232
S'B-PP'
p233
g5
tp234
a(S'chronic'
p235
S'chronic'
p236
S'JJ'
p237
S'B-NP'
p238
g5
tp239
a(S'hepatitis'
p240
S'hepatitis'
p241
S'NN'
p242
S'I-NP'
p243
g5
tp244
a(g62
g62
S'NN'
p245
S'I-NP'
p246
g5
tp247
a(S'during'
p248
S'during'
p249
S'IN'
p250
S'B-PP'
p251
g5
tp252
a(S'and'
p253
S'and'
p254
S'CC'
p255
S'I-PP'
p256
g5
tp257
a(S'after'
p258
S'after'
p259
S'IN'
p260
S'I-PP'
p261
g5
tp262
a(S'treatment'
p263
S'treatment'
p264
S'NN'
p265
S'B-NP'
p266
g5
tp267
a(S'with'
p268
S'with'
p269
S'IN'
p270
S'B-PP'
p271
g5
tp272
a(S'interferon-alpha'
p273
S'interferon-alpha'
p274
S'NN'
p275
S'B-NP'
p276
S'B-protein'
p277
tp278
a(S'('
p279
g279
g279
g5
g5
tp280
a(S'IFN-alpha'
p281
S'IFN-alpha'
p282
S'NN'
p283
S'B-NP'
p284
S'B-protein'
p285
tp286
a(S')'
p287
g287
g287
g5
g5
tp288
a(S'and'
p289
S'and'
p290
S'CC'
p291
g5
g5
tp292
a(S'ribavirin'
p293
S'ribavirin'
p294
S'NN'
p295
S'B-NP'
p296
g5
tp297
a(g133
g133
g133
g5
g5
tp298
a(S'PATIENTS'
p299
S'PATIENTS'
p300
S'NNS'
p301
S'B-NP'
p302
g5
tp303
a(S'AND'
p304
S'AND'
p305
S'CC'
p306
S'I-NP'
p307
g5
tp308
a(S'METHODS'
p309
S'METHODS'
p310
S'NNS'
p311
S'I-NP'
p312
g5
tp313
a(S'In'
p314
S'In'
p315
S'IN'
p316
S'B-PP'
p317
g5
tp318
a(S'this'
p319
S'this'
p320
S'DT'
p321
S'B-NP'
p322
g5
tp323
a(S'randomized'
p324
S'randomize'
p325
S'VBN'
p326
S'I-NP'
p327
g5
tp328
a(g113
g113
g113
S'I-NP'
p329
g5
tp330
a(S'prospective'
p331
S'prospective'
p332
S'JJ'
p333
S'I-NP'
p334
g5
tp335
a(g113
g113
g113
S'I-NP'
p336
g5
tp337
a(S'placebo-controlled'
p338
S'placebo-controlled'
p339
S'JJ'
p340
S'I-NP'
p341
g5
tp342
a(g113
g113
g113
S'I-NP'
p343
g5
tp344
a(S'multicenter'
p345
S'multicenter'
p346
S'JJ'
p347
S'I-NP'
p348
g5
tp349
a(S'trial'
p350
S'trial'
p351
S'NN'
p352
S'I-NP'
p353
g5
tp354
a(g113
g113
g113
g5
g5
tp355
a(S'previously'
p356
S'previously'
p357
S'RB'
p358
S'B-NP'
p359
g5
tp360
a(S'untreated'
p361
S'untreated'
p362
S'JJ'
p363
S'I-NP'
p364
g5
tp365
a(S'patients'
p366
S'patient'
p367
S'NNS'
p368
S'I-NP'
p369
g5
tp370
a(S'with'
p371
S'with'
p372
S'IN'
p373
S'B-PP'
p374
g5
tp375
a(S'chronic'
p376
S'chronic'
p377
S'JJ'
p378
S'B-NP'
p379
g5
tp380
a(S'hepatitis'
p381
S'hepatitis'
p382
S'NN'
p383
S'I-NP'
p384
g5
tp385
a(g62
g62
S'NN'
p386
S'I-NP'
p387
g5
tp388
a(S'were'
p389
S'be'
p390
S'VBD'
p391
S'B-VP'
p392
g5
tp393
a(S'treated'
p394
S'treat'
p395
S'VBN'
p396
S'I-VP'
p397
g5
tp398
a(S'with'
p399
S'with'
p400
S'IN'
p401
S'B-PP'
p402
g5
tp403
a(S'IFN-alpha'
p404
S'IFN-alpha'
p405
S'NN'
p406
S'B-NP'
p407
S'B-protein'
p408
tp409
a(S'plus'
p410
S'plus'
p411
S'CC'
p412
g5
g5
tp413
a(S'ribavirin'
p414
S'ribavirin'
p415
S'NN'
p416
S'B-NP'
p417
g5
tp418
a(S'['
p419
g419
g279
g5
g5
tp420
a(S'17'
p421
S'17'
p422
S'CD'
p423
S'B-NP'
p424
g5
tp425
a(S']'
p426
g426
g287
g5
g5
tp427
a(S'and'
p428
S'and'
p429
S'CC'
p430
g5
g5
tp431
a(S'randomized'
p432
S'randomize'
p433
S'VBN'
p434
S'B-VP'
p435
g5
tp436
a(S'for'
p437
S'for'
p438
S'IN'
p439
S'B-PP'
p440
g5
tp441
a(S'treatment'
p442
S'treatment'
p443
S'NN'
p444
S'B-NP'
p445
g5
tp446
a(S'with'
p447
S'with'
p448
S'IN'
p449
S'B-PP'
p450
g5
tp451
a(S'amantadine'
p452
S'amantadine'
p453
S'NN'
p454
S'B-NP'
p455
g5
tp456
a(g279
g279
g279
g5
g5
tp457
a(S'200'
p458
S'200'
p459
S'CD'
p460
S'B-NP'
p461
g5
tp462
a(S'mg/day'
p463
S'mg/day'
p464
S'NN'
p465
S'I-NP'
p466
g5
tp467
a(g113
g113
g113
g5
g5
tp468
a(S'orally'
p469
S'orally'
p470
S'RB'
p471
S'B-ADVP'
p472
g5
tp473
a(g113
g113
g113
g5
g5
tp474
a(S'n=136'
p475
S'n=136'
p476
S'NN'
p477
S'B-NP'
p478
g5
tp479
a(g287
g287
g287
g5
g5
tp480
a(S'or'
p481
S'or'
p482
S'CC'
p483
g5
g5
tp484
a(S'placebo'
p485
S'placebo'
p486
S'NN'
p487
S'B-NP'
p488
g5
tp489
a(g279
g279
g279
g5
g5
tp490
a(S'n=131'
p491
S'n=131'
p492
S'NN'
p493
S'B-NP'
p494
g5
tp495
a(g287
g287
g287
g5
g5
tp496
a(g133
g133
g133
g5
g5
tp497
a(S'Quality'
p498
S'Quality'
p499
S'NN'
p500
g5
g5
tp501
a(S'of'
p502
S'of'
p503
S'IN'
p504
S'B-PP'
p505
g5
tp506
a(S'life'
p507
S'life'
p508
S'NN'
p509
S'B-NP'
p510
g5
tp511
a(S'was'
p512
S'be'
p513
S'VBD'
p514
S'B-VP'
p515
g5
tp516
a(S'assessed'
p517
S'assess'
p518
S'VBN'
p519
S'I-VP'
p520
g5
tp521
a(S'with'
p522
S'with'
p523
S'IN'
p524
S'B-PP'
p525
g5
tp526
a(S'the'
p527
S'the'
p528
S'DT'
p529
S'B-NP'
p530
g5
tp531
a(S"'Profile"
p532
S"'Profile"
p533
S'NNP'
p534
S'I-NP'
p535
g5
tp536
a(S'of'
p537
S'of'
p538
S'IN'
p539
S'B-PP'
p540
g5
tp541
a(S'Mood'
p542
S'Mood'
p543
S'NNP'
p544
S'B-NP'
p545
g5
tp546
a(S'States'
p547
S'States'
p548
S'NNP'
p549
S'I-NP'
p550
g5
tp551
a(S"'"
p552
g552
S'POS'
p553
S'B-NP'
p554
g5
tp555
a(S'scale'
p556
S'scale'
p557
S'NN'
p558
S'I-NP'
p559
g5
tp560
a(S'and'
p561
S'and'
p562
S'CC'
p563
g5
g5
tp564
a(S'the'
p565
S'the'
p566
S'DT'
p567
S'B-NP'
p568
g5
tp569
a(S"'Everyday"
p570
S"'Everyday"
p571
S'NNP'
p572
S'I-NP'
p573
g5
tp574
a(S'Life'
p575
S'Life'
p576
S'NNP'
p577
S'I-NP'
p578
g5
tp579
a(g552
g552
S'POS'
p580
S'B-NP'
p581
g5
tp582
a(S'questionnaire'
p583
S'questionnaire'
p584
S'NN'
p585
S'I-NP'
p586
g5
tp587
a(S'at'
p588
S'at'
p589
S'IN'
p590
S'B-PP'
p591
g5
tp592
a(S'baseline'
p593
S'baseline'
p594
S'NN'
p595
S'B-NP'
p596
g5
tp597
a(g113
g113
g113
g5
g5
tp598
a(S'treatment'
p599
S'treatment'
p600
S'NN'
p601
S'B-NP'
p602
g5
tp603
a(S'week'
p604
S'week'
p605
S'NN'
p606
S'I-NP'
p607
g5
tp608
a(g279
g279
g279
g5
g5
tp609
a(S'TW'
p610
S'TW'
p611
S'NN'
p612
S'B-NP'
p613
g5
tp614
a(g287
g287
g287
g5
g5
tp615
a(S'8'
p616
g616
S'CD'
p617
S'B-NP'
p618
g5
tp619
a(g113
g113
g113
g5
g5
tp620
a(S'TW24'
p621
S'TW24'
p622
S'NN'
p623
S'B-NP'
p624
S'B-protein'
p625
tp626
a(g113
g113
g113
g5
g5
tp627
a(S'TW48'
p628
S'TW48'
p629
S'NN'
p630
S'B-NP'
p631
S'B-protein'
p632
tp633
a(g113
g113
g113
S'B-PP'
p634
g5
tp635
a(S'and'
p636
S'and'
p637
S'CC'
p638
S'I-PP'
p639
g5
tp640
a(S'at'
p641
S'at'
p642
S'IN'
p643
S'B-PP'
p644
g5
tp645
a(S'follow-up'
p646
S'follow-up'
p647
S'NN'
p648
S'B-NP'
p649
g5
tp650
a(g133
g133
g133
g5
g5
tp651
a(S'RESULTS'
p652
S'RESULTS'
p653
S'NNS'
p654
S'B-NP'
p655
g5
tp656
a(S'Early'
p657
S'Early'
p658
S'RB'
p659
S'B-ADVP'
p660
g5
tp661
a(S'during'
p662
S'during'
p663
S'IN'
p664
S'B-PP'
p665
g5
tp666
a(S'treatment'
p667
S'treatment'
p668
S'NN'
p669
S'B-NP'
p670
g5
tp671
a(S'at'
p672
S'at'
p673
S'IN'
p674
S'B-PP'
p675
g5
tp676
a(S'TW8'
p677
S'TW8'
p678
S'NN'
p679
S'B-NP'
p680
S'B-protein'
p681
tp682
a(g113
g113
g113
g5
g5
tp683
a(S'quality'
p684
S'quality'
p685
S'NN'
p686
S'B-NP'
p687
g5
tp688
a(S'of'
p689
S'of'
p690
S'IN'
p691
S'B-PP'
p692
g5
tp693
a(S'life'
p694
S'life'
p695
S'NN'
p696
S'B-NP'
p697
g5
tp698
a(S'was'
p699
S'be'
p700
S'VBD'
p701
S'B-VP'
p702
g5
tp703
a(S'not'
p704
S'not'
p705
S'RB'
p706
g5
g5
tp707
a(S'different'
p708
S'different'
p709
S'JJ'
p710
S'B-ADJP'
p711
g5
tp712
a(S'between'
p713
S'between'
p714
S'IN'
p715
S'B-PP'
p716
g5
tp717
a(S'patients'
p718
S'patient'
p719
S'NNS'
p720
S'B-NP'
p721
g5
tp722
a(S'in'
p723
S'in'
p724
S'IN'
p725
S'B-PP'
p726
g5
tp727
a(S'the'
p728
S'the'
p729
S'DT'
p730
S'B-NP'
p731
g5
tp732
a(S'control'
p733
S'control'
p734
S'NN'
p735
S'I-NP'
p736
g5
tp737
a(S'and'
p738
S'and'
p739
S'CC'
p740
g5
g5
tp741
a(S'the'
p742
S'the'
p743
S'DT'
p744
S'B-NP'
p745
g5
tp746
a(S'amantadine'
p747
S'amantadine'
p748
S'NN'
p749
S'I-NP'
p750
g5
tp751
a(S'group.'
p752
S'group.'
p753
S'NN'
p754
S'I-NP'
p755
g5
tp756
a(S'At'
p757
S'At'
p758
S'IN'
p759
S'B-PP'
p760
g5
tp761
a(S'TW24'
p762
S'TW24'
p763
S'NN'
p764
S'B-NP'
p765
S'B-protein'
p766
tp767
a(g113
g113
g113
g5
g5
tp768
a(S'the'
p769
S'the'
p770
S'DT'
p771
S'B-NP'
p772
g5
tp773
a(S'control'
p774
S'control'
p775
S'NN'
p776
S'I-NP'
p777
g5
tp778
a(S'group'
p779
S'group'
p780
S'NN'
p781
S'I-NP'
p782
g5
tp783
a(S'but'
p784
S'but'
p785
S'CC'
p786
S'B-NP'
p787
g5
tp788
a(S'not'
p789
S'not'
p790
S'RB'
p791
S'I-NP'
p792
g5
tp793
a(S'the'
p794
S'the'
p795
S'DT'
p796
S'B-NP'
p797
g5
tp798
a(S'amantadine'
p799
S'amantadine'
p800
S'NN'
p801
S'I-NP'
p802
g5
tp803
a(S'group'
p804
S'group'
p805
S'NN'
p806
S'I-NP'
p807
g5
tp808
a(g113
g113
g113
g5
g5
tp809
a(S'however'
p810
S'however'
p811
S'RB'
p812
S'B-ADVP'
p813
g5
tp814
a(g113
g113
g113
g5
g5
tp815
a(S'showed'
p816
S'show'
p817
S'VBD'
p818
S'B-VP'
p819
g5
tp820
a(S'significant'
p821
S'significant'
p822
S'JJ'
p823
S'B-NP'
p824
g5
tp825
a(S'deterioration'
p826
S'deterioration'
p827
S'NN'
p828
S'I-NP'
p829
g5
tp830
a(S'of'
p831
S'of'
p832
S'IN'
p833
S'B-PP'
p834
g5
tp835
a(S'the'
p836
S'the'
p837
S'DT'
p838
S'B-NP'
p839
g5
tp840
a(S'modalities'
p841
S'modality'
p842
S'NNS'
p843
S'I-NP'
p844
g5
tp845
a(S'depression'
p846
S'depression'
p847
S'NN'
p848
S'I-NP'
p849
g5
tp850
a(g113
g113
g113
g5
g5
tp851
a(S'fatigue'
p852
S'fatigue'
p853
S'NN'
p854
S'B-NP'
p855
g5
tp856
a(g113
g113
g113
g5
g5
tp857
a(S'and'
p858
S'and'
p859
S'CC'
p860
g5
g5
tp861
a(S'vigor'
p862
S'vigor'
p863
S'NN'
p864
S'B-NP'
p865
g5
tp866
a(S'compared'
p867
S'compare'
p868
S'VBN'
p869
S'B-PP'
p870
g5
tp871
a(S'with'
p872
S'with'
p873
S'IN'
p874
S'B-PP'
p875
g5
tp876
a(S'baseline.'
p877
S'baseline.'
p878
S'NN'
p879
S'B-NP'
p880
g5
tp881
a(S'Especially'
p882
S'Especially'
p883
S'RB'
p884
S'B-ADVP'
p885
g5
tp886
a(g113
g113
g113
g5
g5
tp887
a(S'nonresponders'
p888
S'nonresponder'
p889
S'NNS'
p890
S'B-NP'
p891
g5
tp892
a(S'in'
p893
S'in'
p894
S'IN'
p895
S'B-PP'
p896
g5
tp897
a(S'the'
p898
S'the'
p899
S'DT'
p900
S'B-NP'
p901
g5
tp902
a(S'amantadine'
p903
S'amantadine'
p904
S'NN'
p905
S'I-NP'
p906
g5
tp907
a(S'group'
p908
S'group'
p909
S'NN'
p910
S'I-NP'
p911
g5
tp912
a(S'showed'
p913
S'show'
p914
S'VBD'
p915
S'B-VP'
p916
g5
tp917
a(S'significantly'
p918
S'significantly'
p919
S'RB'
p920
S'B-NP'
p921
g5
tp922
a(S'lower'
p923
S'low'
p924
S'JJR'
p925
S'I-NP'
p926
g5
tp927
a(S'deterioration'
p928
S'deterioration'
p929
S'NN'
p930
S'I-NP'
p931
g5
tp932
a(S'of'
p933
S'of'
p934
S'IN'
p935
S'B-PP'
p936
g5
tp937
a(S'depression'
p938
S'depression'
p939
S'NN'
p940
S'B-NP'
p941
g5
tp942
a(g113
g113
g113
g5
g5
tp943
a(S'anger'
p944
S'anger'
p945
S'NN'
p946
S'B-NP'
p947
g5
tp948
a(g113
g113
g113
g5
g5
tp949
a(S'mind'
p950
S'mind'
p951
S'NN'
p952
S'B-NP'
p953
g5
tp954
a(S'function'
p955
S'function'
p956
S'NN'
p957
S'I-NP'
p958
g5
tp959
a(g113
g113
g113
g5
g5
tp960
a(S'everyday'
p961
S'everyday'
p962
S'JJ'
p963
S'B-NP'
p964
g5
tp965
a(S'life'
p966
S'life'
p967
S'NN'
p968
S'I-NP'
p969
g5
tp970
a(g113
g113
g113
g5
g5
tp971
a(S'and'
p972
S'and'
p973
S'CC'
p974
g5
g5
tp975
a(S'zest'
p976
S'z'
p977
S'JJS'
p978
S'B-ADJP'
p979
g5
tp980
a(S'for'
p981
S'for'
p982
S'IN'
p983
S'B-PP'
p984
g5
tp985
a(S'life'
p986
S'life'
p987
S'NN'
p988
S'B-NP'
p989
g5
tp990
a(S'than'
p991
S'than'
p992
S'IN'
p993
S'B-PP'
p994
g5
tp995
a(S'those'
p996
S'those'
p997
S'DT'
p998
S'B-NP'
p999
g5
tp1000
a(S'in'
p1001
S'in'
p1002
S'IN'
p1003
S'B-PP'
p1004
g5
tp1005
a(S'the'
p1006
S'the'
p1007
S'DT'
p1008
S'B-NP'
p1009
g5
tp1010
a(S'placebo'
p1011
S'placebo'
p1012
S'NN'
p1013
S'I-NP'
p1014
g5
tp1015
a(S'group.'
p1016
S'group.'
p1017
S'NN'
p1018
S'I-NP'
p1019
g5
tp1020
a(S'After'
p1021
S'After'
p1022
S'IN'
p1023
S'B-PP'
p1024
g5
tp1025
a(S'treatment'
p1026
S'treatment'
p1027
S'NN'
p1028
S'B-NP'
p1029
g5
tp1030
a(g113
g113
g113
g5
g5
tp1031
a(S'the'
p1032
S'the'
p1033
S'DT'
p1034
S'B-NP'
p1035
g5
tp1036
a(S'beneficial'
p1037
S'beneficial'
p1038
S'JJ'
p1039
S'I-NP'
p1040
g5
tp1041
a(S'effects'
p1042
S'effect'
p1043
S'NNS'
p1044
S'I-NP'
p1045
g5
tp1046
a(S'of'
p1047
S'of'
p1048
S'IN'
p1049
S'B-PP'
p1050
g5
tp1051
a(S'amantadine'
p1052
S'amantadine'
p1053
S'NN'
p1054
S'B-NP'
p1055
g5
tp1056
a(S'disappeared'
p1057
S'disappear'
p1058
S'VBD'
p1059
S'B-VP'
p1060
g5
tp1061
a(g133
g133
g133
g5
g5
tp1062
a(S'CONCLUSION'
p1063
S'CONCLUSION'
p1064
S'NN'
p1065
S'B-NP'
p1066
g5
tp1067
a(S'The'
p1068
S'The'
p1069
S'DT'
p1070
S'B-NP'
p1071
g5
tp1072
a(S'addition'
p1073
S'addition'
p1074
S'NN'
p1075
S'I-NP'
p1076
g5
tp1077
a(S'of'
p1078
S'of'
p1079
S'IN'
p1080
S'B-PP'
p1081
g5
tp1082
a(S'amantadine'
p1083
S'amantadine'
p1084
S'NN'
p1085
S'B-NP'
p1086
g5
tp1087
a(S'to'
p1088
S'to'
p1089
S'TO'
p1090
S'B-PP'
p1091
g5
tp1092
a(S'IFN-alpha'
p1093
S'IFN-alpha'
p1094
S'NN'
p1095
S'B-NP'
p1096
S'B-protein'
p1097
tp1098
a(S'plus'
p1099
S'plus'
p1100
S'CC'
p1101
S'I-NP'
p1102
g5
tp1103
a(S'ribavirin'
p1104
S'ribavirin'
p1105
S'NN'
p1106
S'I-NP'
p1107
g5
tp1108
a(S'combination'
p1109
S'combination'
p1110
S'NN'
p1111
S'I-NP'
p1112
g5
tp1113
a(S'therapy'
p1114
S'therapy'
p1115
S'NN'
p1116
S'I-NP'
p1117
g5
tp1118
a(S'may'
p1119
S'may'
p1120
S'MD'
p1121
S'B-VP'
p1122
g5
tp1123
a(S'reduce'
p1124
S'reduce'
p1125
S'VB'
p1126
S'I-VP'
p1127
g5
tp1128
a(S'deterioration'
p1129
S'deterioration'
p1130
S'NN'
p1131
S'B-NP'
p1132
g5
tp1133
a(S'of'
p1134
S'of'
p1135
S'IN'
p1136
S'B-PP'
p1137
g5
tp1138
a(S'depression'
p1139
S'depression'
p1140
S'NN'
p1141
S'B-NP'
p1142
g5
tp1143
a(g113
g113
g113
g5
g5
tp1144
a(S'fatigue'
p1145
S'fatigue'
p1146
S'NN'
p1147
S'B-NP'
p1148
g5
tp1149
a(g113
g113
g113
g5
g5
tp1150
a(S'and'
p1151
S'and'
p1152
S'CC'
p1153
g5
g5
tp1154
a(S'vigor'
p1155
S'vigor'
p1156
S'NN'
p1157
S'B-NP'
p1158
g5
tp1159
a(S'during'
p1160
S'during'
p1161
S'IN'
p1162
S'B-PP'
p1163
g5
tp1164
a(S'treatment'
p1165
S'treatment'
p1166
S'NN'
p1167
S'B-NP'
p1168
g5
tp1169
a(S'but'
p1170
S'but'
p1171
S'CC'
p1172
g5
g5
tp1173
a(S'does'
p1174
S'do'
p1175
S'VBZ'
p1176
S'B-VP'
p1177
g5
tp1178
a(S'not'
p1179
S'not'
p1180
S'RB'
p1181
S'I-VP'
p1182
g5
tp1183
a(S'affect'
p1184
S'affect'
p1185
S'VB'
p1186
S'I-VP'
p1187
g5
tp1188
a(S'quality'
p1189
S'quality'
p1190
S'NN'
p1191
S'B-NP'
p1192
g5
tp1193
a(S'of'
p1194
S'of'
p1195
S'IN'
p1196
S'B-PP'
p1197
g5
tp1198
a(S'life'
p1199
S'life'
p1200
S'NN'
p1201
S'B-NP'
p1202
g5
tp1203
a(S'after'
p1204
S'after'
p1205
S'IN'
p1206
S'B-PP'
p1207
g5
tp1208
a(S'treatment'
p1209
S'treatment'
p1210
S'NN'
p1211
S'B-NP'
p1212
g5
tp1213
a(g133
g133
g133
g5
g5
tp1214
a.